ARM GAS  C:\Users\pearlstl\AppData\Local\Temp\ccQFxYtd.s 			page 1


   1              		.syntax unified
   2              		.cpu cortex-m4
   3              		.eabi_attribute 27, 1
   4              		.fpu fpv4-sp-d16
   5              		.eabi_attribute 20, 1
   6              		.eabi_attribute 21, 1
   7              		.eabi_attribute 23, 3
   8              		.eabi_attribute 24, 1
   9              		.eabi_attribute 25, 1
  10              		.eabi_attribute 26, 1
  11              		.eabi_attribute 30, 2
  12              		.eabi_attribute 34, 1
  13              		.eabi_attribute 18, 4
  14              		.thumb
  15              		.syntax unified
  16              		.file	"lv_canvas.c"
  17              		.text
  18              	.Ltext0:
  19              		.cfi_sections	.debug_frame
  20              		.section	.text.lv_canvas_signal,"ax",%progbits
  21              		.align	2
  22              		.thumb
  23              		.thumb_func
  24              		.type	lv_canvas_signal, %function
  25              	lv_canvas_signal:
  26              	.LFB52:
  27              		.file 1 "..\\..\\..\\lvgl\\version_6.1.2\\lvgl\\src\\lv_objx\\lv_canvas.c"
   1:..\..\..\lvgl\version_6.1.2\lvgl\src\lv_objx/lv_canvas.c **** /**
   2:..\..\..\lvgl\version_6.1.2\lvgl\src\lv_objx/lv_canvas.c ****  * @file lv_canvas.c
   3:..\..\..\lvgl\version_6.1.2\lvgl\src\lv_objx/lv_canvas.c ****  *
   4:..\..\..\lvgl\version_6.1.2\lvgl\src\lv_objx/lv_canvas.c ****  */
   5:..\..\..\lvgl\version_6.1.2\lvgl\src\lv_objx/lv_canvas.c **** 
   6:..\..\..\lvgl\version_6.1.2\lvgl\src\lv_objx/lv_canvas.c **** /*********************
   7:..\..\..\lvgl\version_6.1.2\lvgl\src\lv_objx/lv_canvas.c ****  *      INCLUDES
   8:..\..\..\lvgl\version_6.1.2\lvgl\src\lv_objx/lv_canvas.c ****  *********************/
   9:..\..\..\lvgl\version_6.1.2\lvgl\src\lv_objx/lv_canvas.c **** #include <stdlib.h>
  10:..\..\..\lvgl\version_6.1.2\lvgl\src\lv_objx/lv_canvas.c **** #include "lv_canvas.h"
  11:..\..\..\lvgl\version_6.1.2\lvgl\src\lv_objx/lv_canvas.c **** #include "../lv_core/lv_debug.h"
  12:..\..\..\lvgl\version_6.1.2\lvgl\src\lv_objx/lv_canvas.c **** #include "../lv_misc/lv_math.h"
  13:..\..\..\lvgl\version_6.1.2\lvgl\src\lv_objx/lv_canvas.c **** #include "../lv_draw/lv_draw.h"
  14:..\..\..\lvgl\version_6.1.2\lvgl\src\lv_objx/lv_canvas.c **** #include "../lv_core/lv_refr.h"
  15:..\..\..\lvgl\version_6.1.2\lvgl\src\lv_objx/lv_canvas.c **** 
  16:..\..\..\lvgl\version_6.1.2\lvgl\src\lv_objx/lv_canvas.c **** #if LV_USE_CANVAS != 0
  17:..\..\..\lvgl\version_6.1.2\lvgl\src\lv_objx/lv_canvas.c **** 
  18:..\..\..\lvgl\version_6.1.2\lvgl\src\lv_objx/lv_canvas.c **** /*********************
  19:..\..\..\lvgl\version_6.1.2\lvgl\src\lv_objx/lv_canvas.c ****  *      DEFINES
  20:..\..\..\lvgl\version_6.1.2\lvgl\src\lv_objx/lv_canvas.c ****  *********************/
  21:..\..\..\lvgl\version_6.1.2\lvgl\src\lv_objx/lv_canvas.c **** #define LV_OBJX_NAME "lv_canvas"
  22:..\..\..\lvgl\version_6.1.2\lvgl\src\lv_objx/lv_canvas.c **** 
  23:..\..\..\lvgl\version_6.1.2\lvgl\src\lv_objx/lv_canvas.c **** /**********************
  24:..\..\..\lvgl\version_6.1.2\lvgl\src\lv_objx/lv_canvas.c ****  *      TYPEDEFS
  25:..\..\..\lvgl\version_6.1.2\lvgl\src\lv_objx/lv_canvas.c ****  **********************/
  26:..\..\..\lvgl\version_6.1.2\lvgl\src\lv_objx/lv_canvas.c **** 
  27:..\..\..\lvgl\version_6.1.2\lvgl\src\lv_objx/lv_canvas.c **** /**********************
  28:..\..\..\lvgl\version_6.1.2\lvgl\src\lv_objx/lv_canvas.c ****  *  STATIC PROTOTYPES
  29:..\..\..\lvgl\version_6.1.2\lvgl\src\lv_objx/lv_canvas.c ****  **********************/
  30:..\..\..\lvgl\version_6.1.2\lvgl\src\lv_objx/lv_canvas.c **** static lv_res_t lv_canvas_signal(lv_obj_t * canvas, lv_signal_t sign, void * param);
ARM GAS  C:\Users\pearlstl\AppData\Local\Temp\ccQFxYtd.s 			page 2


  31:..\..\..\lvgl\version_6.1.2\lvgl\src\lv_objx/lv_canvas.c **** 
  32:..\..\..\lvgl\version_6.1.2\lvgl\src\lv_objx/lv_canvas.c **** /**********************
  33:..\..\..\lvgl\version_6.1.2\lvgl\src\lv_objx/lv_canvas.c ****  *  STATIC VARIABLES
  34:..\..\..\lvgl\version_6.1.2\lvgl\src\lv_objx/lv_canvas.c ****  **********************/
  35:..\..\..\lvgl\version_6.1.2\lvgl\src\lv_objx/lv_canvas.c **** static lv_signal_cb_t ancestor_signal;
  36:..\..\..\lvgl\version_6.1.2\lvgl\src\lv_objx/lv_canvas.c **** static lv_design_cb_t ancestor_design;
  37:..\..\..\lvgl\version_6.1.2\lvgl\src\lv_objx/lv_canvas.c **** 
  38:..\..\..\lvgl\version_6.1.2\lvgl\src\lv_objx/lv_canvas.c **** /**********************
  39:..\..\..\lvgl\version_6.1.2\lvgl\src\lv_objx/lv_canvas.c ****  *      MACROS
  40:..\..\..\lvgl\version_6.1.2\lvgl\src\lv_objx/lv_canvas.c ****  **********************/
  41:..\..\..\lvgl\version_6.1.2\lvgl\src\lv_objx/lv_canvas.c **** 
  42:..\..\..\lvgl\version_6.1.2\lvgl\src\lv_objx/lv_canvas.c **** /**********************
  43:..\..\..\lvgl\version_6.1.2\lvgl\src\lv_objx/lv_canvas.c ****  *   GLOBAL FUNCTIONS
  44:..\..\..\lvgl\version_6.1.2\lvgl\src\lv_objx/lv_canvas.c ****  **********************/
  45:..\..\..\lvgl\version_6.1.2\lvgl\src\lv_objx/lv_canvas.c **** 
  46:..\..\..\lvgl\version_6.1.2\lvgl\src\lv_objx/lv_canvas.c **** /**
  47:..\..\..\lvgl\version_6.1.2\lvgl\src\lv_objx/lv_canvas.c ****  * Create a canvas object
  48:..\..\..\lvgl\version_6.1.2\lvgl\src\lv_objx/lv_canvas.c ****  * @param par pointer to an object, it will be the parent of the new canvas
  49:..\..\..\lvgl\version_6.1.2\lvgl\src\lv_objx/lv_canvas.c ****  * @param copy pointer to a canvas object, if not NULL then the new object will be copied from it
  50:..\..\..\lvgl\version_6.1.2\lvgl\src\lv_objx/lv_canvas.c ****  * @return pointer to the created canvas
  51:..\..\..\lvgl\version_6.1.2\lvgl\src\lv_objx/lv_canvas.c ****  */
  52:..\..\..\lvgl\version_6.1.2\lvgl\src\lv_objx/lv_canvas.c **** lv_obj_t * lv_canvas_create(lv_obj_t * par, const lv_obj_t * copy)
  53:..\..\..\lvgl\version_6.1.2\lvgl\src\lv_objx/lv_canvas.c **** {
  54:..\..\..\lvgl\version_6.1.2\lvgl\src\lv_objx/lv_canvas.c ****     LV_LOG_TRACE("canvas create started");
  55:..\..\..\lvgl\version_6.1.2\lvgl\src\lv_objx/lv_canvas.c **** 
  56:..\..\..\lvgl\version_6.1.2\lvgl\src\lv_objx/lv_canvas.c ****     /*Create the ancestor of canvas*/
  57:..\..\..\lvgl\version_6.1.2\lvgl\src\lv_objx/lv_canvas.c ****     lv_obj_t * new_canvas = lv_img_create(par, copy);
  58:..\..\..\lvgl\version_6.1.2\lvgl\src\lv_objx/lv_canvas.c ****     LV_ASSERT_MEM(new_canvas);
  59:..\..\..\lvgl\version_6.1.2\lvgl\src\lv_objx/lv_canvas.c ****     if(new_canvas == NULL) return NULL;
  60:..\..\..\lvgl\version_6.1.2\lvgl\src\lv_objx/lv_canvas.c **** 
  61:..\..\..\lvgl\version_6.1.2\lvgl\src\lv_objx/lv_canvas.c ****     /*Allocate the canvas type specific extended data*/
  62:..\..\..\lvgl\version_6.1.2\lvgl\src\lv_objx/lv_canvas.c ****     lv_canvas_ext_t * ext = lv_obj_allocate_ext_attr(new_canvas, sizeof(lv_canvas_ext_t));
  63:..\..\..\lvgl\version_6.1.2\lvgl\src\lv_objx/lv_canvas.c ****     LV_ASSERT_MEM(ext);
  64:..\..\..\lvgl\version_6.1.2\lvgl\src\lv_objx/lv_canvas.c ****     if(ext == NULL) return NULL;
  65:..\..\..\lvgl\version_6.1.2\lvgl\src\lv_objx/lv_canvas.c ****     if(ancestor_signal == NULL) ancestor_signal = lv_obj_get_signal_cb(new_canvas);
  66:..\..\..\lvgl\version_6.1.2\lvgl\src\lv_objx/lv_canvas.c ****     if(ancestor_design == NULL) ancestor_design = lv_obj_get_design_cb(new_canvas);
  67:..\..\..\lvgl\version_6.1.2\lvgl\src\lv_objx/lv_canvas.c **** 
  68:..\..\..\lvgl\version_6.1.2\lvgl\src\lv_objx/lv_canvas.c ****     /*Initialize the allocated 'ext' */
  69:..\..\..\lvgl\version_6.1.2\lvgl\src\lv_objx/lv_canvas.c ****     ext->dsc.header.always_zero = 0;
  70:..\..\..\lvgl\version_6.1.2\lvgl\src\lv_objx/lv_canvas.c ****     ext->dsc.header.cf          = LV_IMG_CF_TRUE_COLOR;
  71:..\..\..\lvgl\version_6.1.2\lvgl\src\lv_objx/lv_canvas.c ****     ext->dsc.header.h           = 0;
  72:..\..\..\lvgl\version_6.1.2\lvgl\src\lv_objx/lv_canvas.c ****     ext->dsc.header.w           = 0;
  73:..\..\..\lvgl\version_6.1.2\lvgl\src\lv_objx/lv_canvas.c ****     ext->dsc.data_size          = 0;
  74:..\..\..\lvgl\version_6.1.2\lvgl\src\lv_objx/lv_canvas.c ****     ext->dsc.data               = NULL;
  75:..\..\..\lvgl\version_6.1.2\lvgl\src\lv_objx/lv_canvas.c **** 
  76:..\..\..\lvgl\version_6.1.2\lvgl\src\lv_objx/lv_canvas.c ****     lv_img_set_src(new_canvas, &ext->dsc);
  77:..\..\..\lvgl\version_6.1.2\lvgl\src\lv_objx/lv_canvas.c **** 
  78:..\..\..\lvgl\version_6.1.2\lvgl\src\lv_objx/lv_canvas.c ****     /*The signal and design functions are not copied so set them here*/
  79:..\..\..\lvgl\version_6.1.2\lvgl\src\lv_objx/lv_canvas.c ****     lv_obj_set_signal_cb(new_canvas, lv_canvas_signal);
  80:..\..\..\lvgl\version_6.1.2\lvgl\src\lv_objx/lv_canvas.c **** 
  81:..\..\..\lvgl\version_6.1.2\lvgl\src\lv_objx/lv_canvas.c ****     /*Init the new canvas canvas*/
  82:..\..\..\lvgl\version_6.1.2\lvgl\src\lv_objx/lv_canvas.c ****     if(copy == NULL) {
  83:..\..\..\lvgl\version_6.1.2\lvgl\src\lv_objx/lv_canvas.c **** 
  84:..\..\..\lvgl\version_6.1.2\lvgl\src\lv_objx/lv_canvas.c ****     }
  85:..\..\..\lvgl\version_6.1.2\lvgl\src\lv_objx/lv_canvas.c ****     /*Copy an existing canvas*/
  86:..\..\..\lvgl\version_6.1.2\lvgl\src\lv_objx/lv_canvas.c ****     else {
  87:..\..\..\lvgl\version_6.1.2\lvgl\src\lv_objx/lv_canvas.c ****         /*Refresh the style with new signal function*/
ARM GAS  C:\Users\pearlstl\AppData\Local\Temp\ccQFxYtd.s 			page 3


  88:..\..\..\lvgl\version_6.1.2\lvgl\src\lv_objx/lv_canvas.c ****         lv_obj_refresh_style(new_canvas);
  89:..\..\..\lvgl\version_6.1.2\lvgl\src\lv_objx/lv_canvas.c ****     }
  90:..\..\..\lvgl\version_6.1.2\lvgl\src\lv_objx/lv_canvas.c **** 
  91:..\..\..\lvgl\version_6.1.2\lvgl\src\lv_objx/lv_canvas.c ****     LV_LOG_INFO("canvas created");
  92:..\..\..\lvgl\version_6.1.2\lvgl\src\lv_objx/lv_canvas.c **** 
  93:..\..\..\lvgl\version_6.1.2\lvgl\src\lv_objx/lv_canvas.c ****     return new_canvas;
  94:..\..\..\lvgl\version_6.1.2\lvgl\src\lv_objx/lv_canvas.c **** }
  95:..\..\..\lvgl\version_6.1.2\lvgl\src\lv_objx/lv_canvas.c **** 
  96:..\..\..\lvgl\version_6.1.2\lvgl\src\lv_objx/lv_canvas.c **** /*=====================
  97:..\..\..\lvgl\version_6.1.2\lvgl\src\lv_objx/lv_canvas.c ****  * Setter functions
  98:..\..\..\lvgl\version_6.1.2\lvgl\src\lv_objx/lv_canvas.c ****  *====================*/
  99:..\..\..\lvgl\version_6.1.2\lvgl\src\lv_objx/lv_canvas.c **** 
 100:..\..\..\lvgl\version_6.1.2\lvgl\src\lv_objx/lv_canvas.c **** /**
 101:..\..\..\lvgl\version_6.1.2\lvgl\src\lv_objx/lv_canvas.c ****  * Set a buffer for the canvas.
 102:..\..\..\lvgl\version_6.1.2\lvgl\src\lv_objx/lv_canvas.c ****  * @param buf a buffer where the content of the canvas will be.
 103:..\..\..\lvgl\version_6.1.2\lvgl\src\lv_objx/lv_canvas.c ****  * The required size is (lv_img_color_format_get_px_size(cf) * w * h) / 8)
 104:..\..\..\lvgl\version_6.1.2\lvgl\src\lv_objx/lv_canvas.c ****  * It can be allocated with `lv_mem_alloc()` or
 105:..\..\..\lvgl\version_6.1.2\lvgl\src\lv_objx/lv_canvas.c ****  * it can be statically allocated array (e.g. static lv_color_t buf[100*50]) or
 106:..\..\..\lvgl\version_6.1.2\lvgl\src\lv_objx/lv_canvas.c ****  * it can be an address in RAM or external SRAM
 107:..\..\..\lvgl\version_6.1.2\lvgl\src\lv_objx/lv_canvas.c ****  * @param canvas pointer to a canvas object
 108:..\..\..\lvgl\version_6.1.2\lvgl\src\lv_objx/lv_canvas.c ****  * @param w width of the canvas
 109:..\..\..\lvgl\version_6.1.2\lvgl\src\lv_objx/lv_canvas.c ****  * @param h height of the canvas
 110:..\..\..\lvgl\version_6.1.2\lvgl\src\lv_objx/lv_canvas.c ****  * @param cf color format. The following formats are supported:
 111:..\..\..\lvgl\version_6.1.2\lvgl\src\lv_objx/lv_canvas.c ****  *      LV_IMG_CF_TRUE_COLOR, LV_IMG_CF_TRUE_COLOR_CHROMA_KEYED, LV_IMG_CF_INDEXES_1/2/4/8BIT
 112:..\..\..\lvgl\version_6.1.2\lvgl\src\lv_objx/lv_canvas.c ****  *
 113:..\..\..\lvgl\version_6.1.2\lvgl\src\lv_objx/lv_canvas.c ****  */
 114:..\..\..\lvgl\version_6.1.2\lvgl\src\lv_objx/lv_canvas.c **** void lv_canvas_set_buffer(lv_obj_t * canvas, void * buf, lv_coord_t w, lv_coord_t h, lv_img_cf_t cf
 115:..\..\..\lvgl\version_6.1.2\lvgl\src\lv_objx/lv_canvas.c **** {
 116:..\..\..\lvgl\version_6.1.2\lvgl\src\lv_objx/lv_canvas.c ****     LV_ASSERT_OBJ(canvas, LV_OBJX_NAME);
 117:..\..\..\lvgl\version_6.1.2\lvgl\src\lv_objx/lv_canvas.c ****     LV_ASSERT_NULL(buf);
 118:..\..\..\lvgl\version_6.1.2\lvgl\src\lv_objx/lv_canvas.c **** 
 119:..\..\..\lvgl\version_6.1.2\lvgl\src\lv_objx/lv_canvas.c ****     lv_canvas_ext_t * ext = lv_obj_get_ext_attr(canvas);
 120:..\..\..\lvgl\version_6.1.2\lvgl\src\lv_objx/lv_canvas.c **** 
 121:..\..\..\lvgl\version_6.1.2\lvgl\src\lv_objx/lv_canvas.c ****     ext->dsc.header.cf = cf;
 122:..\..\..\lvgl\version_6.1.2\lvgl\src\lv_objx/lv_canvas.c ****     ext->dsc.header.w  = w;
 123:..\..\..\lvgl\version_6.1.2\lvgl\src\lv_objx/lv_canvas.c ****     ext->dsc.header.h  = h;
 124:..\..\..\lvgl\version_6.1.2\lvgl\src\lv_objx/lv_canvas.c ****     ext->dsc.data      = buf;
 125:..\..\..\lvgl\version_6.1.2\lvgl\src\lv_objx/lv_canvas.c ****     ext->dsc.data_size = (lv_img_color_format_get_px_size(cf) * w * h) / 8;
 126:..\..\..\lvgl\version_6.1.2\lvgl\src\lv_objx/lv_canvas.c **** 
 127:..\..\..\lvgl\version_6.1.2\lvgl\src\lv_objx/lv_canvas.c ****     lv_img_set_src(canvas, &ext->dsc);
 128:..\..\..\lvgl\version_6.1.2\lvgl\src\lv_objx/lv_canvas.c **** }
 129:..\..\..\lvgl\version_6.1.2\lvgl\src\lv_objx/lv_canvas.c **** 
 130:..\..\..\lvgl\version_6.1.2\lvgl\src\lv_objx/lv_canvas.c **** /**
 131:..\..\..\lvgl\version_6.1.2\lvgl\src\lv_objx/lv_canvas.c ****  * Set the color of a pixel on the canvas
 132:..\..\..\lvgl\version_6.1.2\lvgl\src\lv_objx/lv_canvas.c ****  * @param canvas pointer to canvas object
 133:..\..\..\lvgl\version_6.1.2\lvgl\src\lv_objx/lv_canvas.c ****  * @param x x coordinate of the point to set
 134:..\..\..\lvgl\version_6.1.2\lvgl\src\lv_objx/lv_canvas.c ****  * @param y x coordinate of the point to set
 135:..\..\..\lvgl\version_6.1.2\lvgl\src\lv_objx/lv_canvas.c ****  * @param c color of the point
 136:..\..\..\lvgl\version_6.1.2\lvgl\src\lv_objx/lv_canvas.c ****  */
 137:..\..\..\lvgl\version_6.1.2\lvgl\src\lv_objx/lv_canvas.c **** void lv_canvas_set_px(lv_obj_t * canvas, lv_coord_t x, lv_coord_t y, lv_color_t c)
 138:..\..\..\lvgl\version_6.1.2\lvgl\src\lv_objx/lv_canvas.c **** {
 139:..\..\..\lvgl\version_6.1.2\lvgl\src\lv_objx/lv_canvas.c ****     LV_ASSERT_OBJ(canvas, LV_OBJX_NAME);
 140:..\..\..\lvgl\version_6.1.2\lvgl\src\lv_objx/lv_canvas.c **** 
 141:..\..\..\lvgl\version_6.1.2\lvgl\src\lv_objx/lv_canvas.c ****     lv_canvas_ext_t * ext = lv_obj_get_ext_attr(canvas);
 142:..\..\..\lvgl\version_6.1.2\lvgl\src\lv_objx/lv_canvas.c **** 
 143:..\..\..\lvgl\version_6.1.2\lvgl\src\lv_objx/lv_canvas.c ****     lv_img_buf_set_px_color(&ext->dsc, x, y, c);
 144:..\..\..\lvgl\version_6.1.2\lvgl\src\lv_objx/lv_canvas.c ****     lv_obj_invalidate(canvas);
ARM GAS  C:\Users\pearlstl\AppData\Local\Temp\ccQFxYtd.s 			page 4


 145:..\..\..\lvgl\version_6.1.2\lvgl\src\lv_objx/lv_canvas.c **** }
 146:..\..\..\lvgl\version_6.1.2\lvgl\src\lv_objx/lv_canvas.c **** 
 147:..\..\..\lvgl\version_6.1.2\lvgl\src\lv_objx/lv_canvas.c **** /**
 148:..\..\..\lvgl\version_6.1.2\lvgl\src\lv_objx/lv_canvas.c ****  * Set the palette color of a canvas with index format. Valid only for `LV_IMG_CF_INDEXED1/2/4/8`
 149:..\..\..\lvgl\version_6.1.2\lvgl\src\lv_objx/lv_canvas.c ****  * @param canvas pointer to canvas object
 150:..\..\..\lvgl\version_6.1.2\lvgl\src\lv_objx/lv_canvas.c ****  * @param id the palette color to set:
 151:..\..\..\lvgl\version_6.1.2\lvgl\src\lv_objx/lv_canvas.c ****  *   - for `LV_IMG_CF_INDEXED1`: 0..1
 152:..\..\..\lvgl\version_6.1.2\lvgl\src\lv_objx/lv_canvas.c ****  *   - for `LV_IMG_CF_INDEXED2`: 0..3
 153:..\..\..\lvgl\version_6.1.2\lvgl\src\lv_objx/lv_canvas.c ****  *   - for `LV_IMG_CF_INDEXED4`: 0..15
 154:..\..\..\lvgl\version_6.1.2\lvgl\src\lv_objx/lv_canvas.c ****  *   - for `LV_IMG_CF_INDEXED8`: 0..255
 155:..\..\..\lvgl\version_6.1.2\lvgl\src\lv_objx/lv_canvas.c ****  * @param c the color to set
 156:..\..\..\lvgl\version_6.1.2\lvgl\src\lv_objx/lv_canvas.c ****  */
 157:..\..\..\lvgl\version_6.1.2\lvgl\src\lv_objx/lv_canvas.c **** void lv_canvas_set_palette(lv_obj_t * canvas, uint8_t id, lv_color_t c)
 158:..\..\..\lvgl\version_6.1.2\lvgl\src\lv_objx/lv_canvas.c **** {
 159:..\..\..\lvgl\version_6.1.2\lvgl\src\lv_objx/lv_canvas.c ****     LV_ASSERT_OBJ(canvas, LV_OBJX_NAME);
 160:..\..\..\lvgl\version_6.1.2\lvgl\src\lv_objx/lv_canvas.c **** 
 161:..\..\..\lvgl\version_6.1.2\lvgl\src\lv_objx/lv_canvas.c ****     lv_canvas_ext_t * ext = lv_obj_get_ext_attr(canvas);
 162:..\..\..\lvgl\version_6.1.2\lvgl\src\lv_objx/lv_canvas.c **** 
 163:..\..\..\lvgl\version_6.1.2\lvgl\src\lv_objx/lv_canvas.c ****     lv_img_buf_set_palette(&ext->dsc, id, c);
 164:..\..\..\lvgl\version_6.1.2\lvgl\src\lv_objx/lv_canvas.c ****     lv_obj_invalidate(canvas);
 165:..\..\..\lvgl\version_6.1.2\lvgl\src\lv_objx/lv_canvas.c **** }
 166:..\..\..\lvgl\version_6.1.2\lvgl\src\lv_objx/lv_canvas.c **** 
 167:..\..\..\lvgl\version_6.1.2\lvgl\src\lv_objx/lv_canvas.c **** /**
 168:..\..\..\lvgl\version_6.1.2\lvgl\src\lv_objx/lv_canvas.c ****  * Set a style of a canvas.
 169:..\..\..\lvgl\version_6.1.2\lvgl\src\lv_objx/lv_canvas.c ****  * @param canvas pointer to canvas object
 170:..\..\..\lvgl\version_6.1.2\lvgl\src\lv_objx/lv_canvas.c ****  * @param type which style should be set
 171:..\..\..\lvgl\version_6.1.2\lvgl\src\lv_objx/lv_canvas.c ****  * @param style pointer to a style
 172:..\..\..\lvgl\version_6.1.2\lvgl\src\lv_objx/lv_canvas.c ****  */
 173:..\..\..\lvgl\version_6.1.2\lvgl\src\lv_objx/lv_canvas.c **** void lv_canvas_set_style(lv_obj_t * canvas, lv_canvas_style_t type, const lv_style_t * style)
 174:..\..\..\lvgl\version_6.1.2\lvgl\src\lv_objx/lv_canvas.c **** {
 175:..\..\..\lvgl\version_6.1.2\lvgl\src\lv_objx/lv_canvas.c ****     LV_ASSERT_OBJ(canvas, LV_OBJX_NAME);
 176:..\..\..\lvgl\version_6.1.2\lvgl\src\lv_objx/lv_canvas.c **** 
 177:..\..\..\lvgl\version_6.1.2\lvgl\src\lv_objx/lv_canvas.c ****     switch(type) {
 178:..\..\..\lvgl\version_6.1.2\lvgl\src\lv_objx/lv_canvas.c ****         case LV_CANVAS_STYLE_MAIN: lv_img_set_style(canvas, LV_IMG_STYLE_MAIN, style); break;
 179:..\..\..\lvgl\version_6.1.2\lvgl\src\lv_objx/lv_canvas.c ****     }
 180:..\..\..\lvgl\version_6.1.2\lvgl\src\lv_objx/lv_canvas.c **** }
 181:..\..\..\lvgl\version_6.1.2\lvgl\src\lv_objx/lv_canvas.c **** 
 182:..\..\..\lvgl\version_6.1.2\lvgl\src\lv_objx/lv_canvas.c **** /*=====================
 183:..\..\..\lvgl\version_6.1.2\lvgl\src\lv_objx/lv_canvas.c ****  * Getter functions
 184:..\..\..\lvgl\version_6.1.2\lvgl\src\lv_objx/lv_canvas.c ****  *====================*/
 185:..\..\..\lvgl\version_6.1.2\lvgl\src\lv_objx/lv_canvas.c **** 
 186:..\..\..\lvgl\version_6.1.2\lvgl\src\lv_objx/lv_canvas.c **** /**
 187:..\..\..\lvgl\version_6.1.2\lvgl\src\lv_objx/lv_canvas.c ****  * Get the color of a pixel on the canvas
 188:..\..\..\lvgl\version_6.1.2\lvgl\src\lv_objx/lv_canvas.c ****  * @param canvas
 189:..\..\..\lvgl\version_6.1.2\lvgl\src\lv_objx/lv_canvas.c ****  * @param x x coordinate of the point to set
 190:..\..\..\lvgl\version_6.1.2\lvgl\src\lv_objx/lv_canvas.c ****  * @param y x coordinate of the point to set
 191:..\..\..\lvgl\version_6.1.2\lvgl\src\lv_objx/lv_canvas.c ****  * @return color of the point
 192:..\..\..\lvgl\version_6.1.2\lvgl\src\lv_objx/lv_canvas.c ****  */
 193:..\..\..\lvgl\version_6.1.2\lvgl\src\lv_objx/lv_canvas.c **** lv_color_t lv_canvas_get_px(lv_obj_t * canvas, lv_coord_t x, lv_coord_t y)
 194:..\..\..\lvgl\version_6.1.2\lvgl\src\lv_objx/lv_canvas.c **** {
 195:..\..\..\lvgl\version_6.1.2\lvgl\src\lv_objx/lv_canvas.c ****     LV_ASSERT_OBJ(canvas, LV_OBJX_NAME);
 196:..\..\..\lvgl\version_6.1.2\lvgl\src\lv_objx/lv_canvas.c **** 
 197:..\..\..\lvgl\version_6.1.2\lvgl\src\lv_objx/lv_canvas.c ****     lv_canvas_ext_t * ext    = lv_obj_get_ext_attr(canvas);
 198:..\..\..\lvgl\version_6.1.2\lvgl\src\lv_objx/lv_canvas.c ****     const lv_style_t * style = lv_canvas_get_style(canvas, LV_CANVAS_STYLE_MAIN);
 199:..\..\..\lvgl\version_6.1.2\lvgl\src\lv_objx/lv_canvas.c **** 
 200:..\..\..\lvgl\version_6.1.2\lvgl\src\lv_objx/lv_canvas.c ****     return lv_img_buf_get_px_color(&ext->dsc, x, y, style);
 201:..\..\..\lvgl\version_6.1.2\lvgl\src\lv_objx/lv_canvas.c **** }
ARM GAS  C:\Users\pearlstl\AppData\Local\Temp\ccQFxYtd.s 			page 5


 202:..\..\..\lvgl\version_6.1.2\lvgl\src\lv_objx/lv_canvas.c **** 
 203:..\..\..\lvgl\version_6.1.2\lvgl\src\lv_objx/lv_canvas.c **** /**
 204:..\..\..\lvgl\version_6.1.2\lvgl\src\lv_objx/lv_canvas.c ****  * Get the image of the canvas as a pointer to an `lv_img_dsc_t` variable.
 205:..\..\..\lvgl\version_6.1.2\lvgl\src\lv_objx/lv_canvas.c ****  * @param canvas pointer to a canvas object
 206:..\..\..\lvgl\version_6.1.2\lvgl\src\lv_objx/lv_canvas.c ****  * @return pointer to the image descriptor.
 207:..\..\..\lvgl\version_6.1.2\lvgl\src\lv_objx/lv_canvas.c ****  */
 208:..\..\..\lvgl\version_6.1.2\lvgl\src\lv_objx/lv_canvas.c **** lv_img_dsc_t * lv_canvas_get_img(lv_obj_t * canvas)
 209:..\..\..\lvgl\version_6.1.2\lvgl\src\lv_objx/lv_canvas.c **** {
 210:..\..\..\lvgl\version_6.1.2\lvgl\src\lv_objx/lv_canvas.c ****     LV_ASSERT_OBJ(canvas, LV_OBJX_NAME);
 211:..\..\..\lvgl\version_6.1.2\lvgl\src\lv_objx/lv_canvas.c **** 
 212:..\..\..\lvgl\version_6.1.2\lvgl\src\lv_objx/lv_canvas.c ****     lv_canvas_ext_t * ext = lv_obj_get_ext_attr(canvas);
 213:..\..\..\lvgl\version_6.1.2\lvgl\src\lv_objx/lv_canvas.c **** 
 214:..\..\..\lvgl\version_6.1.2\lvgl\src\lv_objx/lv_canvas.c ****     return &ext->dsc;
 215:..\..\..\lvgl\version_6.1.2\lvgl\src\lv_objx/lv_canvas.c **** }
 216:..\..\..\lvgl\version_6.1.2\lvgl\src\lv_objx/lv_canvas.c **** 
 217:..\..\..\lvgl\version_6.1.2\lvgl\src\lv_objx/lv_canvas.c **** /**
 218:..\..\..\lvgl\version_6.1.2\lvgl\src\lv_objx/lv_canvas.c ****  * Get style of a canvas.
 219:..\..\..\lvgl\version_6.1.2\lvgl\src\lv_objx/lv_canvas.c ****  * @param canvas pointer to canvas object
 220:..\..\..\lvgl\version_6.1.2\lvgl\src\lv_objx/lv_canvas.c ****  * @param type which style should be get
 221:..\..\..\lvgl\version_6.1.2\lvgl\src\lv_objx/lv_canvas.c ****  * @return style pointer to the style
 222:..\..\..\lvgl\version_6.1.2\lvgl\src\lv_objx/lv_canvas.c ****  */
 223:..\..\..\lvgl\version_6.1.2\lvgl\src\lv_objx/lv_canvas.c **** const lv_style_t * lv_canvas_get_style(const lv_obj_t * canvas, lv_canvas_style_t type)
 224:..\..\..\lvgl\version_6.1.2\lvgl\src\lv_objx/lv_canvas.c **** {
 225:..\..\..\lvgl\version_6.1.2\lvgl\src\lv_objx/lv_canvas.c ****     LV_ASSERT_OBJ(canvas, LV_OBJX_NAME);
 226:..\..\..\lvgl\version_6.1.2\lvgl\src\lv_objx/lv_canvas.c **** 
 227:..\..\..\lvgl\version_6.1.2\lvgl\src\lv_objx/lv_canvas.c ****     const lv_style_t * style = NULL;
 228:..\..\..\lvgl\version_6.1.2\lvgl\src\lv_objx/lv_canvas.c **** 
 229:..\..\..\lvgl\version_6.1.2\lvgl\src\lv_objx/lv_canvas.c ****     switch(type) {
 230:..\..\..\lvgl\version_6.1.2\lvgl\src\lv_objx/lv_canvas.c ****         case LV_CANVAS_STYLE_MAIN: style = lv_img_get_style(canvas, LV_IMG_STYLE_MAIN); break;
 231:..\..\..\lvgl\version_6.1.2\lvgl\src\lv_objx/lv_canvas.c ****         default: style = NULL;
 232:..\..\..\lvgl\version_6.1.2\lvgl\src\lv_objx/lv_canvas.c ****     }
 233:..\..\..\lvgl\version_6.1.2\lvgl\src\lv_objx/lv_canvas.c **** 
 234:..\..\..\lvgl\version_6.1.2\lvgl\src\lv_objx/lv_canvas.c ****     return style;
 235:..\..\..\lvgl\version_6.1.2\lvgl\src\lv_objx/lv_canvas.c **** }
 236:..\..\..\lvgl\version_6.1.2\lvgl\src\lv_objx/lv_canvas.c **** 
 237:..\..\..\lvgl\version_6.1.2\lvgl\src\lv_objx/lv_canvas.c **** /*=====================
 238:..\..\..\lvgl\version_6.1.2\lvgl\src\lv_objx/lv_canvas.c ****  * Other functions
 239:..\..\..\lvgl\version_6.1.2\lvgl\src\lv_objx/lv_canvas.c ****  *====================*/
 240:..\..\..\lvgl\version_6.1.2\lvgl\src\lv_objx/lv_canvas.c **** 
 241:..\..\..\lvgl\version_6.1.2\lvgl\src\lv_objx/lv_canvas.c **** /**
 242:..\..\..\lvgl\version_6.1.2\lvgl\src\lv_objx/lv_canvas.c ****  * Copy a buffer to the canvas
 243:..\..\..\lvgl\version_6.1.2\lvgl\src\lv_objx/lv_canvas.c ****  * @param canvas pointer to a canvas object
 244:..\..\..\lvgl\version_6.1.2\lvgl\src\lv_objx/lv_canvas.c ****  * @param to_copy buffer to copy. The color format has to match with the canvas's buffer color
 245:..\..\..\lvgl\version_6.1.2\lvgl\src\lv_objx/lv_canvas.c ****  * format
 246:..\..\..\lvgl\version_6.1.2\lvgl\src\lv_objx/lv_canvas.c ****  * @param w width of the buffer to copy
 247:..\..\..\lvgl\version_6.1.2\lvgl\src\lv_objx/lv_canvas.c ****  * @param h height of the buffer to copy
 248:..\..\..\lvgl\version_6.1.2\lvgl\src\lv_objx/lv_canvas.c ****  * @param x left side of the destination position
 249:..\..\..\lvgl\version_6.1.2\lvgl\src\lv_objx/lv_canvas.c ****  * @param y top side of the destination position
 250:..\..\..\lvgl\version_6.1.2\lvgl\src\lv_objx/lv_canvas.c ****  */
 251:..\..\..\lvgl\version_6.1.2\lvgl\src\lv_objx/lv_canvas.c **** void lv_canvas_copy_buf(lv_obj_t * canvas, const void * to_copy, lv_coord_t x, lv_coord_t y, lv_coo
 252:..\..\..\lvgl\version_6.1.2\lvgl\src\lv_objx/lv_canvas.c **** {
 253:..\..\..\lvgl\version_6.1.2\lvgl\src\lv_objx/lv_canvas.c ****     LV_ASSERT_OBJ(canvas, LV_OBJX_NAME);
 254:..\..\..\lvgl\version_6.1.2\lvgl\src\lv_objx/lv_canvas.c ****     LV_ASSERT_NULL(to_copy);
 255:..\..\..\lvgl\version_6.1.2\lvgl\src\lv_objx/lv_canvas.c **** 
 256:..\..\..\lvgl\version_6.1.2\lvgl\src\lv_objx/lv_canvas.c ****     lv_canvas_ext_t * ext = lv_obj_get_ext_attr(canvas);
 257:..\..\..\lvgl\version_6.1.2\lvgl\src\lv_objx/lv_canvas.c ****     if(x + w >= (lv_coord_t)ext->dsc.header.w || y + h >= (lv_coord_t)ext->dsc.header.h) {
 258:..\..\..\lvgl\version_6.1.2\lvgl\src\lv_objx/lv_canvas.c ****         LV_LOG_WARN("lv_canvas_copy_buf: x or y out of the canvas");
ARM GAS  C:\Users\pearlstl\AppData\Local\Temp\ccQFxYtd.s 			page 6


 259:..\..\..\lvgl\version_6.1.2\lvgl\src\lv_objx/lv_canvas.c ****         return;
 260:..\..\..\lvgl\version_6.1.2\lvgl\src\lv_objx/lv_canvas.c ****     }
 261:..\..\..\lvgl\version_6.1.2\lvgl\src\lv_objx/lv_canvas.c **** 
 262:..\..\..\lvgl\version_6.1.2\lvgl\src\lv_objx/lv_canvas.c ****     uint32_t px_size   = lv_img_color_format_get_px_size(ext->dsc.header.cf) >> 3;
 263:..\..\..\lvgl\version_6.1.2\lvgl\src\lv_objx/lv_canvas.c ****     uint32_t px        = ext->dsc.header.w * y * px_size + x * px_size;
 264:..\..\..\lvgl\version_6.1.2\lvgl\src\lv_objx/lv_canvas.c ****     uint8_t * to_copy8 = (uint8_t *)to_copy;
 265:..\..\..\lvgl\version_6.1.2\lvgl\src\lv_objx/lv_canvas.c ****     lv_coord_t i;
 266:..\..\..\lvgl\version_6.1.2\lvgl\src\lv_objx/lv_canvas.c ****     for(i = 0; i < h; i++) {
 267:..\..\..\lvgl\version_6.1.2\lvgl\src\lv_objx/lv_canvas.c ****         memcpy((void *)&ext->dsc.data[px], to_copy8, w * px_size);
 268:..\..\..\lvgl\version_6.1.2\lvgl\src\lv_objx/lv_canvas.c ****         px += ext->dsc.header.w * px_size;
 269:..\..\..\lvgl\version_6.1.2\lvgl\src\lv_objx/lv_canvas.c ****         to_copy8 += w * px_size;
 270:..\..\..\lvgl\version_6.1.2\lvgl\src\lv_objx/lv_canvas.c ****     }
 271:..\..\..\lvgl\version_6.1.2\lvgl\src\lv_objx/lv_canvas.c **** }
 272:..\..\..\lvgl\version_6.1.2\lvgl\src\lv_objx/lv_canvas.c **** 
 273:..\..\..\lvgl\version_6.1.2\lvgl\src\lv_objx/lv_canvas.c **** /**
 274:..\..\..\lvgl\version_6.1.2\lvgl\src\lv_objx/lv_canvas.c ****  * Rotate and image and store the result on a canvas.
 275:..\..\..\lvgl\version_6.1.2\lvgl\src\lv_objx/lv_canvas.c ****  * @param canvas pointer to a canvas object
 276:..\..\..\lvgl\version_6.1.2\lvgl\src\lv_objx/lv_canvas.c ****  * @param img pointer to an image descriptor.
 277:..\..\..\lvgl\version_6.1.2\lvgl\src\lv_objx/lv_canvas.c ****  *             Can be the image descriptor of an other canvas too (`lv_canvas_get_img()`).
 278:..\..\..\lvgl\version_6.1.2\lvgl\src\lv_objx/lv_canvas.c ****  * @param angle the angle of rotation (0..360);
 279:..\..\..\lvgl\version_6.1.2\lvgl\src\lv_objx/lv_canvas.c ****  * @param offset_x offset X to tell where to put the result data on destination canvas
 280:..\..\..\lvgl\version_6.1.2\lvgl\src\lv_objx/lv_canvas.c ****  * @param offset_y offset X to tell where to put the result data on destination canvas
 281:..\..\..\lvgl\version_6.1.2\lvgl\src\lv_objx/lv_canvas.c ****  * @param pivot_x pivot X of rotation. Relative to the source canvas
 282:..\..\..\lvgl\version_6.1.2\lvgl\src\lv_objx/lv_canvas.c ****  *                Set to `source width / 2` to rotate around the center
 283:..\..\..\lvgl\version_6.1.2\lvgl\src\lv_objx/lv_canvas.c ****  * @param pivot_y pivot Y of rotation. Relative to the source canvas
 284:..\..\..\lvgl\version_6.1.2\lvgl\src\lv_objx/lv_canvas.c ****  *                Set to `source height / 2` to rotate around the center
 285:..\..\..\lvgl\version_6.1.2\lvgl\src\lv_objx/lv_canvas.c ****  */
 286:..\..\..\lvgl\version_6.1.2\lvgl\src\lv_objx/lv_canvas.c **** void lv_canvas_rotate(lv_obj_t * canvas, lv_img_dsc_t * img, int16_t angle, lv_coord_t offset_x, lv
 287:..\..\..\lvgl\version_6.1.2\lvgl\src\lv_objx/lv_canvas.c ****                       int32_t pivot_x, int32_t pivot_y)
 288:..\..\..\lvgl\version_6.1.2\lvgl\src\lv_objx/lv_canvas.c **** {
 289:..\..\..\lvgl\version_6.1.2\lvgl\src\lv_objx/lv_canvas.c ****     LV_ASSERT_OBJ(canvas, LV_OBJX_NAME);
 290:..\..\..\lvgl\version_6.1.2\lvgl\src\lv_objx/lv_canvas.c ****     LV_ASSERT_NULL(img);
 291:..\..\..\lvgl\version_6.1.2\lvgl\src\lv_objx/lv_canvas.c **** 
 292:..\..\..\lvgl\version_6.1.2\lvgl\src\lv_objx/lv_canvas.c ****     lv_canvas_ext_t * ext_dst = lv_obj_get_ext_attr(canvas);
 293:..\..\..\lvgl\version_6.1.2\lvgl\src\lv_objx/lv_canvas.c ****     const lv_style_t * style  = lv_canvas_get_style(canvas, LV_CANVAS_STYLE_MAIN);
 294:..\..\..\lvgl\version_6.1.2\lvgl\src\lv_objx/lv_canvas.c ****     int32_t sinma             = lv_trigo_sin(-angle);
 295:..\..\..\lvgl\version_6.1.2\lvgl\src\lv_objx/lv_canvas.c ****     int32_t cosma             = lv_trigo_sin(-angle + 90); /* cos */
 296:..\..\..\lvgl\version_6.1.2\lvgl\src\lv_objx/lv_canvas.c **** 
 297:..\..\..\lvgl\version_6.1.2\lvgl\src\lv_objx/lv_canvas.c ****     int32_t img_width   = img->header.w;
 298:..\..\..\lvgl\version_6.1.2\lvgl\src\lv_objx/lv_canvas.c ****     int32_t img_height  = img->header.h;
 299:..\..\..\lvgl\version_6.1.2\lvgl\src\lv_objx/lv_canvas.c ****     int32_t dest_width  = ext_dst->dsc.header.w;
 300:..\..\..\lvgl\version_6.1.2\lvgl\src\lv_objx/lv_canvas.c ****     int32_t dest_height = ext_dst->dsc.header.h;
 301:..\..\..\lvgl\version_6.1.2\lvgl\src\lv_objx/lv_canvas.c **** 
 302:..\..\..\lvgl\version_6.1.2\lvgl\src\lv_objx/lv_canvas.c ****     int32_t x;
 303:..\..\..\lvgl\version_6.1.2\lvgl\src\lv_objx/lv_canvas.c ****     int32_t y;
 304:..\..\..\lvgl\version_6.1.2\lvgl\src\lv_objx/lv_canvas.c ****     for(x = -offset_x; x < dest_width - offset_x; x++) {
 305:..\..\..\lvgl\version_6.1.2\lvgl\src\lv_objx/lv_canvas.c ****         for(y = -offset_y; y < dest_height - offset_y; y++) {
 306:..\..\..\lvgl\version_6.1.2\lvgl\src\lv_objx/lv_canvas.c ****             /*Get the target point relative coordinates to the pivot*/
 307:..\..\..\lvgl\version_6.1.2\lvgl\src\lv_objx/lv_canvas.c ****             int32_t xt = x - pivot_x;
 308:..\..\..\lvgl\version_6.1.2\lvgl\src\lv_objx/lv_canvas.c ****             int32_t yt = y - pivot_y;
 309:..\..\..\lvgl\version_6.1.2\lvgl\src\lv_objx/lv_canvas.c **** 
 310:..\..\..\lvgl\version_6.1.2\lvgl\src\lv_objx/lv_canvas.c ****             /*Get the source pixel from the upscaled image*/
 311:..\..\..\lvgl\version_6.1.2\lvgl\src\lv_objx/lv_canvas.c ****             int32_t xs = ((cosma * xt - sinma * yt) >> (LV_TRIGO_SHIFT - 8)) + pivot_x * 256;
 312:..\..\..\lvgl\version_6.1.2\lvgl\src\lv_objx/lv_canvas.c ****             int32_t ys = ((sinma * xt + cosma * yt) >> (LV_TRIGO_SHIFT - 8)) + pivot_y * 256;
 313:..\..\..\lvgl\version_6.1.2\lvgl\src\lv_objx/lv_canvas.c **** 
 314:..\..\..\lvgl\version_6.1.2\lvgl\src\lv_objx/lv_canvas.c ****             /*Get the integer part of the source pixel*/
 315:..\..\..\lvgl\version_6.1.2\lvgl\src\lv_objx/lv_canvas.c ****             int xs_int = xs >> 8;
ARM GAS  C:\Users\pearlstl\AppData\Local\Temp\ccQFxYtd.s 			page 7


 316:..\..\..\lvgl\version_6.1.2\lvgl\src\lv_objx/lv_canvas.c ****             int ys_int = ys >> 8;
 317:..\..\..\lvgl\version_6.1.2\lvgl\src\lv_objx/lv_canvas.c **** 
 318:..\..\..\lvgl\version_6.1.2\lvgl\src\lv_objx/lv_canvas.c ****             if(xs_int >= img_width)
 319:..\..\..\lvgl\version_6.1.2\lvgl\src\lv_objx/lv_canvas.c ****                 continue;
 320:..\..\..\lvgl\version_6.1.2\lvgl\src\lv_objx/lv_canvas.c ****             else if(xs_int < 0)
 321:..\..\..\lvgl\version_6.1.2\lvgl\src\lv_objx/lv_canvas.c ****                 continue;
 322:..\..\..\lvgl\version_6.1.2\lvgl\src\lv_objx/lv_canvas.c **** 
 323:..\..\..\lvgl\version_6.1.2\lvgl\src\lv_objx/lv_canvas.c ****             if(ys_int >= img_height)
 324:..\..\..\lvgl\version_6.1.2\lvgl\src\lv_objx/lv_canvas.c ****                 continue;
 325:..\..\..\lvgl\version_6.1.2\lvgl\src\lv_objx/lv_canvas.c ****             else if(ys_int < 0)
 326:..\..\..\lvgl\version_6.1.2\lvgl\src\lv_objx/lv_canvas.c ****                 continue;
 327:..\..\..\lvgl\version_6.1.2\lvgl\src\lv_objx/lv_canvas.c **** 
 328:..\..\..\lvgl\version_6.1.2\lvgl\src\lv_objx/lv_canvas.c ****             /*Get the fractional part of the source pixel*/
 329:..\..\..\lvgl\version_6.1.2\lvgl\src\lv_objx/lv_canvas.c ****             int xs_fract = xs & 0xff;
 330:..\..\..\lvgl\version_6.1.2\lvgl\src\lv_objx/lv_canvas.c ****             int ys_fract = ys & 0xff;
 331:..\..\..\lvgl\version_6.1.2\lvgl\src\lv_objx/lv_canvas.c **** 
 332:..\..\..\lvgl\version_6.1.2\lvgl\src\lv_objx/lv_canvas.c ****             /* If the fractional < 0x70 mix the source pixel with the left/top pixel
 333:..\..\..\lvgl\version_6.1.2\lvgl\src\lv_objx/lv_canvas.c ****              * If the fractional > 0x90 mix the source pixel with the right/bottom pixel
 334:..\..\..\lvgl\version_6.1.2\lvgl\src\lv_objx/lv_canvas.c ****              * In the 0x70..0x90 range use the unchanged source pixel */
 335:..\..\..\lvgl\version_6.1.2\lvgl\src\lv_objx/lv_canvas.c **** 
 336:..\..\..\lvgl\version_6.1.2\lvgl\src\lv_objx/lv_canvas.c ****             int xn;      /*x neightboor*/
 337:..\..\..\lvgl\version_6.1.2\lvgl\src\lv_objx/lv_canvas.c ****             lv_opa_t xr; /*x mix ratio*/
 338:..\..\..\lvgl\version_6.1.2\lvgl\src\lv_objx/lv_canvas.c ****             if(xs_fract < 0x70) {
 339:..\..\..\lvgl\version_6.1.2\lvgl\src\lv_objx/lv_canvas.c ****                 xn = xs_int - 1;
 340:..\..\..\lvgl\version_6.1.2\lvgl\src\lv_objx/lv_canvas.c ****                 xr = xs_fract * 2;
 341:..\..\..\lvgl\version_6.1.2\lvgl\src\lv_objx/lv_canvas.c ****             } else if(xs_fract > 0x90) {
 342:..\..\..\lvgl\version_6.1.2\lvgl\src\lv_objx/lv_canvas.c ****                 xn = xs_int + 1;
 343:..\..\..\lvgl\version_6.1.2\lvgl\src\lv_objx/lv_canvas.c ****                 xr = (0xFF - xs_fract) * 2;
 344:..\..\..\lvgl\version_6.1.2\lvgl\src\lv_objx/lv_canvas.c ****             } else {
 345:..\..\..\lvgl\version_6.1.2\lvgl\src\lv_objx/lv_canvas.c ****                 xn = xs_int;
 346:..\..\..\lvgl\version_6.1.2\lvgl\src\lv_objx/lv_canvas.c ****                 xr = 0xFF;
 347:..\..\..\lvgl\version_6.1.2\lvgl\src\lv_objx/lv_canvas.c ****             }
 348:..\..\..\lvgl\version_6.1.2\lvgl\src\lv_objx/lv_canvas.c **** 
 349:..\..\..\lvgl\version_6.1.2\lvgl\src\lv_objx/lv_canvas.c ****             /*Handle under/overflow*/
 350:..\..\..\lvgl\version_6.1.2\lvgl\src\lv_objx/lv_canvas.c ****             if(xn >= img_width)
 351:..\..\..\lvgl\version_6.1.2\lvgl\src\lv_objx/lv_canvas.c ****                 continue;
 352:..\..\..\lvgl\version_6.1.2\lvgl\src\lv_objx/lv_canvas.c ****             else if(xn < 0)
 353:..\..\..\lvgl\version_6.1.2\lvgl\src\lv_objx/lv_canvas.c ****                 continue;
 354:..\..\..\lvgl\version_6.1.2\lvgl\src\lv_objx/lv_canvas.c **** 
 355:..\..\..\lvgl\version_6.1.2\lvgl\src\lv_objx/lv_canvas.c ****             int yn;      /*y neightboor*/
 356:..\..\..\lvgl\version_6.1.2\lvgl\src\lv_objx/lv_canvas.c ****             lv_opa_t yr; /*y mix ratio*/
 357:..\..\..\lvgl\version_6.1.2\lvgl\src\lv_objx/lv_canvas.c ****             if(ys_fract < 0x70) {
 358:..\..\..\lvgl\version_6.1.2\lvgl\src\lv_objx/lv_canvas.c ****                 yn = ys_int - 1;
 359:..\..\..\lvgl\version_6.1.2\lvgl\src\lv_objx/lv_canvas.c ****                 yr = ys_fract * 2;
 360:..\..\..\lvgl\version_6.1.2\lvgl\src\lv_objx/lv_canvas.c ****             } else if(ys_fract > 0x90) {
 361:..\..\..\lvgl\version_6.1.2\lvgl\src\lv_objx/lv_canvas.c ****                 yn = ys_int + 1;
 362:..\..\..\lvgl\version_6.1.2\lvgl\src\lv_objx/lv_canvas.c ****                 yr = (0xFF - ys_fract) * 2;
 363:..\..\..\lvgl\version_6.1.2\lvgl\src\lv_objx/lv_canvas.c ****             } else {
 364:..\..\..\lvgl\version_6.1.2\lvgl\src\lv_objx/lv_canvas.c ****                 yn = ys_int;
 365:..\..\..\lvgl\version_6.1.2\lvgl\src\lv_objx/lv_canvas.c ****                 yr = 0xFF;
 366:..\..\..\lvgl\version_6.1.2\lvgl\src\lv_objx/lv_canvas.c ****             }
 367:..\..\..\lvgl\version_6.1.2\lvgl\src\lv_objx/lv_canvas.c **** 
 368:..\..\..\lvgl\version_6.1.2\lvgl\src\lv_objx/lv_canvas.c ****             /*Handle under/overflow*/
 369:..\..\..\lvgl\version_6.1.2\lvgl\src\lv_objx/lv_canvas.c ****             if(yn >= img_height)
 370:..\..\..\lvgl\version_6.1.2\lvgl\src\lv_objx/lv_canvas.c ****                 continue;
 371:..\..\..\lvgl\version_6.1.2\lvgl\src\lv_objx/lv_canvas.c ****             else if(yn < 0)
 372:..\..\..\lvgl\version_6.1.2\lvgl\src\lv_objx/lv_canvas.c ****                 continue;
ARM GAS  C:\Users\pearlstl\AppData\Local\Temp\ccQFxYtd.s 			page 8


 373:..\..\..\lvgl\version_6.1.2\lvgl\src\lv_objx/lv_canvas.c **** 
 374:..\..\..\lvgl\version_6.1.2\lvgl\src\lv_objx/lv_canvas.c ****             /*Get the mixture of the original source and the neightboor pixels in both directions*/
 375:..\..\..\lvgl\version_6.1.2\lvgl\src\lv_objx/lv_canvas.c ****             lv_color_t c_dest_int = lv_img_buf_get_px_color(img, xs_int, ys_int, style);
 376:..\..\..\lvgl\version_6.1.2\lvgl\src\lv_objx/lv_canvas.c **** 
 377:..\..\..\lvgl\version_6.1.2\lvgl\src\lv_objx/lv_canvas.c ****             if(lv_img_color_format_is_chroma_keyed(img->header.cf)) {
 378:..\..\..\lvgl\version_6.1.2\lvgl\src\lv_objx/lv_canvas.c ****                 lv_color_t ct = LV_COLOR_TRANSP;
 379:..\..\..\lvgl\version_6.1.2\lvgl\src\lv_objx/lv_canvas.c ****                 if(c_dest_int.full == ct.full) continue;
 380:..\..\..\lvgl\version_6.1.2\lvgl\src\lv_objx/lv_canvas.c ****             }
 381:..\..\..\lvgl\version_6.1.2\lvgl\src\lv_objx/lv_canvas.c **** 
 382:..\..\..\lvgl\version_6.1.2\lvgl\src\lv_objx/lv_canvas.c ****             lv_color_t c_dest_xn = lv_img_buf_get_px_color(img, xn, ys_int, style);
 383:..\..\..\lvgl\version_6.1.2\lvgl\src\lv_objx/lv_canvas.c ****             lv_color_t c_dest_yn = lv_img_buf_get_px_color(img, xs_int, yn, style);
 384:..\..\..\lvgl\version_6.1.2\lvgl\src\lv_objx/lv_canvas.c ****             lv_color_t x_dest    = lv_color_mix(c_dest_int, c_dest_xn, xr);
 385:..\..\..\lvgl\version_6.1.2\lvgl\src\lv_objx/lv_canvas.c ****             lv_color_t y_dest    = lv_color_mix(c_dest_int, c_dest_yn, yr);
 386:..\..\..\lvgl\version_6.1.2\lvgl\src\lv_objx/lv_canvas.c ****             lv_color_t color_res = lv_color_mix(x_dest, y_dest, LV_OPA_50);
 387:..\..\..\lvgl\version_6.1.2\lvgl\src\lv_objx/lv_canvas.c **** 
 388:..\..\..\lvgl\version_6.1.2\lvgl\src\lv_objx/lv_canvas.c ****             if(x + offset_x >= 0 && x + offset_x < dest_width && y + offset_y >= 0 && y + offset_y 
 389:..\..\..\lvgl\version_6.1.2\lvgl\src\lv_objx/lv_canvas.c ****                 /*If the image has no alpha channel just simple set the result color on the canvas*
 390:..\..\..\lvgl\version_6.1.2\lvgl\src\lv_objx/lv_canvas.c ****                 if(lv_img_color_format_has_alpha(img->header.cf) == false) {
 391:..\..\..\lvgl\version_6.1.2\lvgl\src\lv_objx/lv_canvas.c ****                     lv_img_buf_set_px_color(&ext_dst->dsc, x + offset_x, y + offset_y, color_res);
 392:..\..\..\lvgl\version_6.1.2\lvgl\src\lv_objx/lv_canvas.c ****                 } else {
 393:..\..\..\lvgl\version_6.1.2\lvgl\src\lv_objx/lv_canvas.c ****                     /*Get result pixel opacity*/
 394:..\..\..\lvgl\version_6.1.2\lvgl\src\lv_objx/lv_canvas.c ****                     lv_opa_t opa_int = lv_img_buf_get_px_alpha(img, xs_int, ys_int);
 395:..\..\..\lvgl\version_6.1.2\lvgl\src\lv_objx/lv_canvas.c ****                     lv_opa_t opa_xn  = lv_img_buf_get_px_alpha(img, xn, ys_int);
 396:..\..\..\lvgl\version_6.1.2\lvgl\src\lv_objx/lv_canvas.c ****                     lv_opa_t opa_yn  = lv_img_buf_get_px_alpha(img, xs_int, yn);
 397:..\..\..\lvgl\version_6.1.2\lvgl\src\lv_objx/lv_canvas.c ****                     lv_opa_t opa_x   = (opa_int * xr + (opa_xn * (255 - xr))) >> 8;
 398:..\..\..\lvgl\version_6.1.2\lvgl\src\lv_objx/lv_canvas.c ****                     lv_opa_t opa_y   = (opa_int * yr + (opa_yn * (255 - yr))) >> 8;
 399:..\..\..\lvgl\version_6.1.2\lvgl\src\lv_objx/lv_canvas.c ****                     lv_opa_t opa_res = (opa_x + opa_y) / 2;
 400:..\..\..\lvgl\version_6.1.2\lvgl\src\lv_objx/lv_canvas.c ****                     if(opa_res <= LV_OPA_MIN) continue;
 401:..\..\..\lvgl\version_6.1.2\lvgl\src\lv_objx/lv_canvas.c **** 
 402:..\..\..\lvgl\version_6.1.2\lvgl\src\lv_objx/lv_canvas.c ****                     lv_color_t bg_color = lv_img_buf_get_px_color(&ext_dst->dsc, x + offset_x, y + 
 403:..\..\..\lvgl\version_6.1.2\lvgl\src\lv_objx/lv_canvas.c **** 
 404:..\..\..\lvgl\version_6.1.2\lvgl\src\lv_objx/lv_canvas.c ****                     /*If the canvas has no alpha but the image has mix the image's color with
 405:..\..\..\lvgl\version_6.1.2\lvgl\src\lv_objx/lv_canvas.c ****                      * canvas*/
 406:..\..\..\lvgl\version_6.1.2\lvgl\src\lv_objx/lv_canvas.c ****                     if(lv_img_color_format_has_alpha(ext_dst->dsc.header.cf) == false) {
 407:..\..\..\lvgl\version_6.1.2\lvgl\src\lv_objx/lv_canvas.c ****                         if(opa_res < LV_OPA_MAX) color_res = lv_color_mix(color_res, bg_color, opa_
 408:..\..\..\lvgl\version_6.1.2\lvgl\src\lv_objx/lv_canvas.c ****                         lv_img_buf_set_px_color(&ext_dst->dsc, x + offset_x, y + offset_y, color_re
 409:..\..\..\lvgl\version_6.1.2\lvgl\src\lv_objx/lv_canvas.c ****                     }
 410:..\..\..\lvgl\version_6.1.2\lvgl\src\lv_objx/lv_canvas.c ****                     /*Both the image and canvas has alpha channel. Some extra calculation is
 411:..\..\..\lvgl\version_6.1.2\lvgl\src\lv_objx/lv_canvas.c ****                        required*/
 412:..\..\..\lvgl\version_6.1.2\lvgl\src\lv_objx/lv_canvas.c ****                     else {
 413:..\..\..\lvgl\version_6.1.2\lvgl\src\lv_objx/lv_canvas.c ****                         lv_opa_t bg_opa = lv_img_buf_get_px_alpha(&ext_dst->dsc, x + offset_x, y + 
 414:..\..\..\lvgl\version_6.1.2\lvgl\src\lv_objx/lv_canvas.c ****                         /* Pick the foreground if it's fully opaque or the Background is fully
 415:..\..\..\lvgl\version_6.1.2\lvgl\src\lv_objx/lv_canvas.c ****                          * transparent*/
 416:..\..\..\lvgl\version_6.1.2\lvgl\src\lv_objx/lv_canvas.c ****                         if(opa_res >= LV_OPA_MAX || bg_opa <= LV_OPA_MIN) {
 417:..\..\..\lvgl\version_6.1.2\lvgl\src\lv_objx/lv_canvas.c ****                             lv_img_buf_set_px_color(&ext_dst->dsc, x + offset_x, y + offset_y, colo
 418:..\..\..\lvgl\version_6.1.2\lvgl\src\lv_objx/lv_canvas.c ****                             lv_img_buf_set_px_alpha(&ext_dst->dsc, x + offset_x, y + offset_y, opa_
 419:..\..\..\lvgl\version_6.1.2\lvgl\src\lv_objx/lv_canvas.c ****                         }
 420:..\..\..\lvgl\version_6.1.2\lvgl\src\lv_objx/lv_canvas.c ****                         /*Opaque background: use simple mix*/
 421:..\..\..\lvgl\version_6.1.2\lvgl\src\lv_objx/lv_canvas.c ****                         else if(bg_opa >= LV_OPA_MAX) {
 422:..\..\..\lvgl\version_6.1.2\lvgl\src\lv_objx/lv_canvas.c ****                             lv_img_buf_set_px_color(&ext_dst->dsc, x + offset_x, y + offset_y,
 423:..\..\..\lvgl\version_6.1.2\lvgl\src\lv_objx/lv_canvas.c ****                                                     lv_color_mix(color_res, bg_color, opa_res));
 424:..\..\..\lvgl\version_6.1.2\lvgl\src\lv_objx/lv_canvas.c ****                         }
 425:..\..\..\lvgl\version_6.1.2\lvgl\src\lv_objx/lv_canvas.c ****                         /*Both colors have alpha. Expensive calculation need to be applied*/
 426:..\..\..\lvgl\version_6.1.2\lvgl\src\lv_objx/lv_canvas.c ****                         else {
 427:..\..\..\lvgl\version_6.1.2\lvgl\src\lv_objx/lv_canvas.c **** 
 428:..\..\..\lvgl\version_6.1.2\lvgl\src\lv_objx/lv_canvas.c ****                             /*Info:
 429:..\..\..\lvgl\version_6.1.2\lvgl\src\lv_objx/lv_canvas.c ****                              * https://en.wikipedia.org/wiki/Alpha_compositing#Analytical_derivatio
ARM GAS  C:\Users\pearlstl\AppData\Local\Temp\ccQFxYtd.s 			page 9


 430:..\..\..\lvgl\version_6.1.2\lvgl\src\lv_objx/lv_canvas.c ****                             lv_opa_t opa_res_2 = 255 - ((uint16_t)((uint16_t)(255 - opa_res) * (255
 431:..\..\..\lvgl\version_6.1.2\lvgl\src\lv_objx/lv_canvas.c ****                             if(opa_res_2 == 0) {
 432:..\..\..\lvgl\version_6.1.2\lvgl\src\lv_objx/lv_canvas.c ****                                 opa_res_2 = 1; /*never happens, just to be sure*/
 433:..\..\..\lvgl\version_6.1.2\lvgl\src\lv_objx/lv_canvas.c ****                             }
 434:..\..\..\lvgl\version_6.1.2\lvgl\src\lv_objx/lv_canvas.c ****                             lv_opa_t ratio = (uint16_t)((uint16_t)opa_res * 255) / opa_res_2;
 435:..\..\..\lvgl\version_6.1.2\lvgl\src\lv_objx/lv_canvas.c **** 
 436:..\..\..\lvgl\version_6.1.2\lvgl\src\lv_objx/lv_canvas.c ****                             lv_img_buf_set_px_color(&ext_dst->dsc, x + offset_x, y + offset_y,
 437:..\..\..\lvgl\version_6.1.2\lvgl\src\lv_objx/lv_canvas.c ****                                                     lv_color_mix(color_res, bg_color, ratio));
 438:..\..\..\lvgl\version_6.1.2\lvgl\src\lv_objx/lv_canvas.c ****                             lv_img_buf_set_px_alpha(&ext_dst->dsc, x + offset_x, y + offset_y, opa_
 439:..\..\..\lvgl\version_6.1.2\lvgl\src\lv_objx/lv_canvas.c ****                         }
 440:..\..\..\lvgl\version_6.1.2\lvgl\src\lv_objx/lv_canvas.c ****                     }
 441:..\..\..\lvgl\version_6.1.2\lvgl\src\lv_objx/lv_canvas.c ****                 }
 442:..\..\..\lvgl\version_6.1.2\lvgl\src\lv_objx/lv_canvas.c ****             }
 443:..\..\..\lvgl\version_6.1.2\lvgl\src\lv_objx/lv_canvas.c ****         }
 444:..\..\..\lvgl\version_6.1.2\lvgl\src\lv_objx/lv_canvas.c ****     }
 445:..\..\..\lvgl\version_6.1.2\lvgl\src\lv_objx/lv_canvas.c **** 
 446:..\..\..\lvgl\version_6.1.2\lvgl\src\lv_objx/lv_canvas.c ****     lv_obj_invalidate(canvas);
 447:..\..\..\lvgl\version_6.1.2\lvgl\src\lv_objx/lv_canvas.c **** }
 448:..\..\..\lvgl\version_6.1.2\lvgl\src\lv_objx/lv_canvas.c **** 
 449:..\..\..\lvgl\version_6.1.2\lvgl\src\lv_objx/lv_canvas.c **** /**
 450:..\..\..\lvgl\version_6.1.2\lvgl\src\lv_objx/lv_canvas.c ****  * Fill the canvas with color
 451:..\..\..\lvgl\version_6.1.2\lvgl\src\lv_objx/lv_canvas.c ****  * @param canvas pointer to a canvas
 452:..\..\..\lvgl\version_6.1.2\lvgl\src\lv_objx/lv_canvas.c ****  * @param color the background color
 453:..\..\..\lvgl\version_6.1.2\lvgl\src\lv_objx/lv_canvas.c ****  */
 454:..\..\..\lvgl\version_6.1.2\lvgl\src\lv_objx/lv_canvas.c **** void lv_canvas_fill_bg(lv_obj_t * canvas, lv_color_t color)
 455:..\..\..\lvgl\version_6.1.2\lvgl\src\lv_objx/lv_canvas.c **** {
 456:..\..\..\lvgl\version_6.1.2\lvgl\src\lv_objx/lv_canvas.c ****     LV_ASSERT_OBJ(canvas, LV_OBJX_NAME);
 457:..\..\..\lvgl\version_6.1.2\lvgl\src\lv_objx/lv_canvas.c **** 
 458:..\..\..\lvgl\version_6.1.2\lvgl\src\lv_objx/lv_canvas.c ****     lv_img_dsc_t * dsc = lv_canvas_get_img(canvas);
 459:..\..\..\lvgl\version_6.1.2\lvgl\src\lv_objx/lv_canvas.c **** 
 460:..\..\..\lvgl\version_6.1.2\lvgl\src\lv_objx/lv_canvas.c ****     uint32_t x = dsc->header.w * dsc->header.h;
 461:..\..\..\lvgl\version_6.1.2\lvgl\src\lv_objx/lv_canvas.c ****     uint32_t y;
 462:..\..\..\lvgl\version_6.1.2\lvgl\src\lv_objx/lv_canvas.c ****     for(y = 0; y < dsc->header.h; y++) {
 463:..\..\..\lvgl\version_6.1.2\lvgl\src\lv_objx/lv_canvas.c ****         for(x = 0; x < dsc->header.w; x++) {
 464:..\..\..\lvgl\version_6.1.2\lvgl\src\lv_objx/lv_canvas.c ****             lv_img_buf_set_px_color(dsc, x, y, color);
 465:..\..\..\lvgl\version_6.1.2\lvgl\src\lv_objx/lv_canvas.c ****         }
 466:..\..\..\lvgl\version_6.1.2\lvgl\src\lv_objx/lv_canvas.c ****     }
 467:..\..\..\lvgl\version_6.1.2\lvgl\src\lv_objx/lv_canvas.c **** }
 468:..\..\..\lvgl\version_6.1.2\lvgl\src\lv_objx/lv_canvas.c **** 
 469:..\..\..\lvgl\version_6.1.2\lvgl\src\lv_objx/lv_canvas.c **** /**
 470:..\..\..\lvgl\version_6.1.2\lvgl\src\lv_objx/lv_canvas.c ****  * Draw a rectangle on the canvas
 471:..\..\..\lvgl\version_6.1.2\lvgl\src\lv_objx/lv_canvas.c ****  * @param canvas pointer to a canvas object
 472:..\..\..\lvgl\version_6.1.2\lvgl\src\lv_objx/lv_canvas.c ****  * @param x left coordinate of the rectangle
 473:..\..\..\lvgl\version_6.1.2\lvgl\src\lv_objx/lv_canvas.c ****  * @param y top coordinate of the rectangle
 474:..\..\..\lvgl\version_6.1.2\lvgl\src\lv_objx/lv_canvas.c ****  * @param w width of the rectangle
 475:..\..\..\lvgl\version_6.1.2\lvgl\src\lv_objx/lv_canvas.c ****  * @param h height of the rectangle
 476:..\..\..\lvgl\version_6.1.2\lvgl\src\lv_objx/lv_canvas.c ****  * @param style style of the rectangle (`body` properties are used except `padding`)
 477:..\..\..\lvgl\version_6.1.2\lvgl\src\lv_objx/lv_canvas.c ****  */
 478:..\..\..\lvgl\version_6.1.2\lvgl\src\lv_objx/lv_canvas.c **** void lv_canvas_draw_rect(lv_obj_t * canvas, lv_coord_t x, lv_coord_t y, lv_coord_t w, lv_coord_t h,
 479:..\..\..\lvgl\version_6.1.2\lvgl\src\lv_objx/lv_canvas.c ****                          const lv_style_t * style)
 480:..\..\..\lvgl\version_6.1.2\lvgl\src\lv_objx/lv_canvas.c **** {
 481:..\..\..\lvgl\version_6.1.2\lvgl\src\lv_objx/lv_canvas.c ****     LV_ASSERT_OBJ(canvas, LV_OBJX_NAME);
 482:..\..\..\lvgl\version_6.1.2\lvgl\src\lv_objx/lv_canvas.c ****     LV_ASSERT_NULL(style);
 483:..\..\..\lvgl\version_6.1.2\lvgl\src\lv_objx/lv_canvas.c **** 
 484:..\..\..\lvgl\version_6.1.2\lvgl\src\lv_objx/lv_canvas.c ****     lv_img_dsc_t * dsc = lv_canvas_get_img(canvas);
 485:..\..\..\lvgl\version_6.1.2\lvgl\src\lv_objx/lv_canvas.c **** 
 486:..\..\..\lvgl\version_6.1.2\lvgl\src\lv_objx/lv_canvas.c ****     /* Create a dummy display to fool the lv_draw function.
ARM GAS  C:\Users\pearlstl\AppData\Local\Temp\ccQFxYtd.s 			page 10


 487:..\..\..\lvgl\version_6.1.2\lvgl\src\lv_objx/lv_canvas.c ****      * It will think it draws to real screen. */
 488:..\..\..\lvgl\version_6.1.2\lvgl\src\lv_objx/lv_canvas.c ****     lv_area_t mask;
 489:..\..\..\lvgl\version_6.1.2\lvgl\src\lv_objx/lv_canvas.c ****     mask.x1 = 0;
 490:..\..\..\lvgl\version_6.1.2\lvgl\src\lv_objx/lv_canvas.c ****     mask.x2 = dsc->header.w - 1;
 491:..\..\..\lvgl\version_6.1.2\lvgl\src\lv_objx/lv_canvas.c ****     mask.y1 = 0;
 492:..\..\..\lvgl\version_6.1.2\lvgl\src\lv_objx/lv_canvas.c ****     mask.y2 = dsc->header.h - 1;
 493:..\..\..\lvgl\version_6.1.2\lvgl\src\lv_objx/lv_canvas.c **** 
 494:..\..\..\lvgl\version_6.1.2\lvgl\src\lv_objx/lv_canvas.c ****     lv_area_t coords;
 495:..\..\..\lvgl\version_6.1.2\lvgl\src\lv_objx/lv_canvas.c ****     coords.x1 = x;
 496:..\..\..\lvgl\version_6.1.2\lvgl\src\lv_objx/lv_canvas.c ****     coords.y1 = y;
 497:..\..\..\lvgl\version_6.1.2\lvgl\src\lv_objx/lv_canvas.c ****     coords.x2 = x + w - 1;
 498:..\..\..\lvgl\version_6.1.2\lvgl\src\lv_objx/lv_canvas.c ****     coords.y2 = y + h - 1;
 499:..\..\..\lvgl\version_6.1.2\lvgl\src\lv_objx/lv_canvas.c **** 
 500:..\..\..\lvgl\version_6.1.2\lvgl\src\lv_objx/lv_canvas.c ****     lv_disp_t disp;
 501:..\..\..\lvgl\version_6.1.2\lvgl\src\lv_objx/lv_canvas.c ****     memset(&disp, 0, sizeof(lv_disp_t));
 502:..\..\..\lvgl\version_6.1.2\lvgl\src\lv_objx/lv_canvas.c **** 
 503:..\..\..\lvgl\version_6.1.2\lvgl\src\lv_objx/lv_canvas.c ****     lv_disp_buf_t disp_buf;
 504:..\..\..\lvgl\version_6.1.2\lvgl\src\lv_objx/lv_canvas.c ****     lv_disp_buf_init(&disp_buf, (void *)dsc->data, NULL, dsc->header.w * dsc->header.h);
 505:..\..\..\lvgl\version_6.1.2\lvgl\src\lv_objx/lv_canvas.c ****     lv_area_copy(&disp_buf.area, &mask);
 506:..\..\..\lvgl\version_6.1.2\lvgl\src\lv_objx/lv_canvas.c **** 
 507:..\..\..\lvgl\version_6.1.2\lvgl\src\lv_objx/lv_canvas.c ****     lv_disp_drv_init(&disp.driver);
 508:..\..\..\lvgl\version_6.1.2\lvgl\src\lv_objx/lv_canvas.c **** 
 509:..\..\..\lvgl\version_6.1.2\lvgl\src\lv_objx/lv_canvas.c ****     disp.driver.buffer  = &disp_buf;
 510:..\..\..\lvgl\version_6.1.2\lvgl\src\lv_objx/lv_canvas.c ****     disp.driver.hor_res = dsc->header.w;
 511:..\..\..\lvgl\version_6.1.2\lvgl\src\lv_objx/lv_canvas.c ****     disp.driver.ver_res = dsc->header.h;
 512:..\..\..\lvgl\version_6.1.2\lvgl\src\lv_objx/lv_canvas.c **** 
 513:..\..\..\lvgl\version_6.1.2\lvgl\src\lv_objx/lv_canvas.c **** #if LV_ANTIALIAS
 514:..\..\..\lvgl\version_6.1.2\lvgl\src\lv_objx/lv_canvas.c ****     /*Disable anti-aliasing if drawing with transparent color to chroma keyed canvas*/
 515:..\..\..\lvgl\version_6.1.2\lvgl\src\lv_objx/lv_canvas.c ****     lv_color_t ctransp = LV_COLOR_TRANSP;
 516:..\..\..\lvgl\version_6.1.2\lvgl\src\lv_objx/lv_canvas.c ****     if(dsc->header.cf == LV_IMG_CF_TRUE_COLOR_CHROMA_KEYED &&
 517:..\..\..\lvgl\version_6.1.2\lvgl\src\lv_objx/lv_canvas.c ****         style->body.main_color.full == ctransp.full &&
 518:..\..\..\lvgl\version_6.1.2\lvgl\src\lv_objx/lv_canvas.c ****         style->body.grad_color.full == ctransp.full)
 519:..\..\..\lvgl\version_6.1.2\lvgl\src\lv_objx/lv_canvas.c ****     {
 520:..\..\..\lvgl\version_6.1.2\lvgl\src\lv_objx/lv_canvas.c ****         disp.driver.antialiasing = 0;
 521:..\..\..\lvgl\version_6.1.2\lvgl\src\lv_objx/lv_canvas.c ****     }
 522:..\..\..\lvgl\version_6.1.2\lvgl\src\lv_objx/lv_canvas.c **** #endif
 523:..\..\..\lvgl\version_6.1.2\lvgl\src\lv_objx/lv_canvas.c **** 
 524:..\..\..\lvgl\version_6.1.2\lvgl\src\lv_objx/lv_canvas.c ****     lv_disp_t * refr_ori = lv_refr_get_disp_refreshing();
 525:..\..\..\lvgl\version_6.1.2\lvgl\src\lv_objx/lv_canvas.c ****     lv_refr_set_disp_refreshing(&disp);
 526:..\..\..\lvgl\version_6.1.2\lvgl\src\lv_objx/lv_canvas.c **** 
 527:..\..\..\lvgl\version_6.1.2\lvgl\src\lv_objx/lv_canvas.c ****     lv_draw_rect(&coords, &mask, style, LV_OPA_COVER);
 528:..\..\..\lvgl\version_6.1.2\lvgl\src\lv_objx/lv_canvas.c **** 
 529:..\..\..\lvgl\version_6.1.2\lvgl\src\lv_objx/lv_canvas.c ****     lv_refr_set_disp_refreshing(refr_ori);
 530:..\..\..\lvgl\version_6.1.2\lvgl\src\lv_objx/lv_canvas.c **** }
 531:..\..\..\lvgl\version_6.1.2\lvgl\src\lv_objx/lv_canvas.c **** 
 532:..\..\..\lvgl\version_6.1.2\lvgl\src\lv_objx/lv_canvas.c **** /**
 533:..\..\..\lvgl\version_6.1.2\lvgl\src\lv_objx/lv_canvas.c ****  * Draw a text on the canvas.
 534:..\..\..\lvgl\version_6.1.2\lvgl\src\lv_objx/lv_canvas.c ****  * @param canvas pointer to a canvas object
 535:..\..\..\lvgl\version_6.1.2\lvgl\src\lv_objx/lv_canvas.c ****  * @param x left coordinate of the text
 536:..\..\..\lvgl\version_6.1.2\lvgl\src\lv_objx/lv_canvas.c ****  * @param y top coordinate of the text
 537:..\..\..\lvgl\version_6.1.2\lvgl\src\lv_objx/lv_canvas.c ****  * @param max_w max width of the text. The text will be wrapped to fit into this size
 538:..\..\..\lvgl\version_6.1.2\lvgl\src\lv_objx/lv_canvas.c ****  * @param style style of the text (`text` properties are used)
 539:..\..\..\lvgl\version_6.1.2\lvgl\src\lv_objx/lv_canvas.c ****  * @param txt text to display
 540:..\..\..\lvgl\version_6.1.2\lvgl\src\lv_objx/lv_canvas.c ****  * @param align align of the text (`LV_LABEL_ALIGN_LEFT/RIGHT/CENTER`)
 541:..\..\..\lvgl\version_6.1.2\lvgl\src\lv_objx/lv_canvas.c ****  */
 542:..\..\..\lvgl\version_6.1.2\lvgl\src\lv_objx/lv_canvas.c **** void lv_canvas_draw_text(lv_obj_t * canvas, lv_coord_t x, lv_coord_t y, lv_coord_t max_w, const lv_
 543:..\..\..\lvgl\version_6.1.2\lvgl\src\lv_objx/lv_canvas.c ****                          const char * txt, lv_label_align_t align)
ARM GAS  C:\Users\pearlstl\AppData\Local\Temp\ccQFxYtd.s 			page 11


 544:..\..\..\lvgl\version_6.1.2\lvgl\src\lv_objx/lv_canvas.c **** {
 545:..\..\..\lvgl\version_6.1.2\lvgl\src\lv_objx/lv_canvas.c ****     LV_ASSERT_OBJ(canvas, LV_OBJX_NAME);
 546:..\..\..\lvgl\version_6.1.2\lvgl\src\lv_objx/lv_canvas.c ****     LV_ASSERT_NULL(style);
 547:..\..\..\lvgl\version_6.1.2\lvgl\src\lv_objx/lv_canvas.c **** 
 548:..\..\..\lvgl\version_6.1.2\lvgl\src\lv_objx/lv_canvas.c ****     lv_img_dsc_t * dsc = lv_canvas_get_img(canvas);
 549:..\..\..\lvgl\version_6.1.2\lvgl\src\lv_objx/lv_canvas.c **** 
 550:..\..\..\lvgl\version_6.1.2\lvgl\src\lv_objx/lv_canvas.c ****     /* Create a dummy display to fool the lv_draw function.
 551:..\..\..\lvgl\version_6.1.2\lvgl\src\lv_objx/lv_canvas.c ****      * It will think it draws to real screen. */
 552:..\..\..\lvgl\version_6.1.2\lvgl\src\lv_objx/lv_canvas.c ****     lv_area_t mask;
 553:..\..\..\lvgl\version_6.1.2\lvgl\src\lv_objx/lv_canvas.c ****     mask.x1 = 0;
 554:..\..\..\lvgl\version_6.1.2\lvgl\src\lv_objx/lv_canvas.c ****     mask.x2 = dsc->header.w - 1;
 555:..\..\..\lvgl\version_6.1.2\lvgl\src\lv_objx/lv_canvas.c ****     mask.y1 = 0;
 556:..\..\..\lvgl\version_6.1.2\lvgl\src\lv_objx/lv_canvas.c ****     mask.y2 = dsc->header.h - 1;
 557:..\..\..\lvgl\version_6.1.2\lvgl\src\lv_objx/lv_canvas.c **** 
 558:..\..\..\lvgl\version_6.1.2\lvgl\src\lv_objx/lv_canvas.c ****     lv_area_t coords;
 559:..\..\..\lvgl\version_6.1.2\lvgl\src\lv_objx/lv_canvas.c ****     coords.x1 = x;
 560:..\..\..\lvgl\version_6.1.2\lvgl\src\lv_objx/lv_canvas.c ****     coords.y1 = y;
 561:..\..\..\lvgl\version_6.1.2\lvgl\src\lv_objx/lv_canvas.c ****     coords.x2 = x + max_w - 1;
 562:..\..\..\lvgl\version_6.1.2\lvgl\src\lv_objx/lv_canvas.c ****     coords.y2 = dsc->header.h - 1;
 563:..\..\..\lvgl\version_6.1.2\lvgl\src\lv_objx/lv_canvas.c **** 
 564:..\..\..\lvgl\version_6.1.2\lvgl\src\lv_objx/lv_canvas.c ****     lv_disp_t disp;
 565:..\..\..\lvgl\version_6.1.2\lvgl\src\lv_objx/lv_canvas.c ****     memset(&disp, 0, sizeof(lv_disp_t));
 566:..\..\..\lvgl\version_6.1.2\lvgl\src\lv_objx/lv_canvas.c **** 
 567:..\..\..\lvgl\version_6.1.2\lvgl\src\lv_objx/lv_canvas.c ****     lv_disp_buf_t disp_buf;
 568:..\..\..\lvgl\version_6.1.2\lvgl\src\lv_objx/lv_canvas.c ****     lv_disp_buf_init(&disp_buf, (void *)dsc->data, NULL, dsc->header.w * dsc->header.h);
 569:..\..\..\lvgl\version_6.1.2\lvgl\src\lv_objx/lv_canvas.c ****     lv_area_copy(&disp_buf.area, &mask);
 570:..\..\..\lvgl\version_6.1.2\lvgl\src\lv_objx/lv_canvas.c **** 
 571:..\..\..\lvgl\version_6.1.2\lvgl\src\lv_objx/lv_canvas.c ****     lv_disp_drv_init(&disp.driver);
 572:..\..\..\lvgl\version_6.1.2\lvgl\src\lv_objx/lv_canvas.c **** 
 573:..\..\..\lvgl\version_6.1.2\lvgl\src\lv_objx/lv_canvas.c ****     disp.driver.buffer  = &disp_buf;
 574:..\..\..\lvgl\version_6.1.2\lvgl\src\lv_objx/lv_canvas.c ****     disp.driver.hor_res = dsc->header.w;
 575:..\..\..\lvgl\version_6.1.2\lvgl\src\lv_objx/lv_canvas.c ****     disp.driver.ver_res = dsc->header.h;
 576:..\..\..\lvgl\version_6.1.2\lvgl\src\lv_objx/lv_canvas.c **** 
 577:..\..\..\lvgl\version_6.1.2\lvgl\src\lv_objx/lv_canvas.c ****     lv_disp_t * refr_ori = lv_refr_get_disp_refreshing();
 578:..\..\..\lvgl\version_6.1.2\lvgl\src\lv_objx/lv_canvas.c ****     lv_refr_set_disp_refreshing(&disp);
 579:..\..\..\lvgl\version_6.1.2\lvgl\src\lv_objx/lv_canvas.c **** 
 580:..\..\..\lvgl\version_6.1.2\lvgl\src\lv_objx/lv_canvas.c ****     lv_txt_flag_t flag;
 581:..\..\..\lvgl\version_6.1.2\lvgl\src\lv_objx/lv_canvas.c ****     switch(align) {
 582:..\..\..\lvgl\version_6.1.2\lvgl\src\lv_objx/lv_canvas.c ****         case LV_LABEL_ALIGN_LEFT: flag = LV_TXT_FLAG_NONE; break;
 583:..\..\..\lvgl\version_6.1.2\lvgl\src\lv_objx/lv_canvas.c ****         case LV_LABEL_ALIGN_RIGHT: flag = LV_TXT_FLAG_RIGHT; break;
 584:..\..\..\lvgl\version_6.1.2\lvgl\src\lv_objx/lv_canvas.c ****         case LV_LABEL_ALIGN_CENTER: flag = LV_TXT_FLAG_CENTER; break;
 585:..\..\..\lvgl\version_6.1.2\lvgl\src\lv_objx/lv_canvas.c ****         default: flag = LV_TXT_FLAG_NONE; break;
 586:..\..\..\lvgl\version_6.1.2\lvgl\src\lv_objx/lv_canvas.c ****     }
 587:..\..\..\lvgl\version_6.1.2\lvgl\src\lv_objx/lv_canvas.c **** 
 588:..\..\..\lvgl\version_6.1.2\lvgl\src\lv_objx/lv_canvas.c ****     lv_draw_label(&coords, &mask, style, LV_OPA_COVER, txt, flag, NULL,  NULL, NULL, lv_obj_get_bas
 589:..\..\..\lvgl\version_6.1.2\lvgl\src\lv_objx/lv_canvas.c **** 
 590:..\..\..\lvgl\version_6.1.2\lvgl\src\lv_objx/lv_canvas.c ****     lv_refr_set_disp_refreshing(refr_ori);
 591:..\..\..\lvgl\version_6.1.2\lvgl\src\lv_objx/lv_canvas.c **** }
 592:..\..\..\lvgl\version_6.1.2\lvgl\src\lv_objx/lv_canvas.c **** 
 593:..\..\..\lvgl\version_6.1.2\lvgl\src\lv_objx/lv_canvas.c **** /**
 594:..\..\..\lvgl\version_6.1.2\lvgl\src\lv_objx/lv_canvas.c ****  * Draw an image on the canvas
 595:..\..\..\lvgl\version_6.1.2\lvgl\src\lv_objx/lv_canvas.c ****  * @param canvas pointer to a canvas object
 596:..\..\..\lvgl\version_6.1.2\lvgl\src\lv_objx/lv_canvas.c ****  * @param src image source. Can be a pointer an `lv_img_dsc_t` variable or a path an image.
 597:..\..\..\lvgl\version_6.1.2\lvgl\src\lv_objx/lv_canvas.c ****  * @param style style of the image (`image` properties are used)
 598:..\..\..\lvgl\version_6.1.2\lvgl\src\lv_objx/lv_canvas.c ****  */
 599:..\..\..\lvgl\version_6.1.2\lvgl\src\lv_objx/lv_canvas.c **** void lv_canvas_draw_img(lv_obj_t * canvas, lv_coord_t x, lv_coord_t y, const void * src, const lv_s
 600:..\..\..\lvgl\version_6.1.2\lvgl\src\lv_objx/lv_canvas.c **** {
ARM GAS  C:\Users\pearlstl\AppData\Local\Temp\ccQFxYtd.s 			page 12


 601:..\..\..\lvgl\version_6.1.2\lvgl\src\lv_objx/lv_canvas.c ****     LV_ASSERT_OBJ(canvas, LV_OBJX_NAME);
 602:..\..\..\lvgl\version_6.1.2\lvgl\src\lv_objx/lv_canvas.c ****     LV_ASSERT_NULL(style);
 603:..\..\..\lvgl\version_6.1.2\lvgl\src\lv_objx/lv_canvas.c **** 
 604:..\..\..\lvgl\version_6.1.2\lvgl\src\lv_objx/lv_canvas.c ****     lv_img_dsc_t * dsc = lv_canvas_get_img(canvas);
 605:..\..\..\lvgl\version_6.1.2\lvgl\src\lv_objx/lv_canvas.c **** 
 606:..\..\..\lvgl\version_6.1.2\lvgl\src\lv_objx/lv_canvas.c ****     /* Create a dummy display to fool the lv_draw function.
 607:..\..\..\lvgl\version_6.1.2\lvgl\src\lv_objx/lv_canvas.c ****      * It will think it draws to real screen. */
 608:..\..\..\lvgl\version_6.1.2\lvgl\src\lv_objx/lv_canvas.c ****     lv_area_t mask;
 609:..\..\..\lvgl\version_6.1.2\lvgl\src\lv_objx/lv_canvas.c ****     mask.x1 = 0;
 610:..\..\..\lvgl\version_6.1.2\lvgl\src\lv_objx/lv_canvas.c ****     mask.x2 = dsc->header.w - 1;
 611:..\..\..\lvgl\version_6.1.2\lvgl\src\lv_objx/lv_canvas.c ****     mask.y1 = 0;
 612:..\..\..\lvgl\version_6.1.2\lvgl\src\lv_objx/lv_canvas.c ****     mask.y2 = dsc->header.h - 1;
 613:..\..\..\lvgl\version_6.1.2\lvgl\src\lv_objx/lv_canvas.c **** 
 614:..\..\..\lvgl\version_6.1.2\lvgl\src\lv_objx/lv_canvas.c ****     lv_img_header_t header;
 615:..\..\..\lvgl\version_6.1.2\lvgl\src\lv_objx/lv_canvas.c ****     lv_res_t res = lv_img_decoder_get_info(src, &header);
 616:..\..\..\lvgl\version_6.1.2\lvgl\src\lv_objx/lv_canvas.c ****     if(res != LV_RES_OK) {
 617:..\..\..\lvgl\version_6.1.2\lvgl\src\lv_objx/lv_canvas.c ****         LV_LOG_WARN("lv_canvas_draw_img: Couldn't get the image data.");
 618:..\..\..\lvgl\version_6.1.2\lvgl\src\lv_objx/lv_canvas.c ****         return;
 619:..\..\..\lvgl\version_6.1.2\lvgl\src\lv_objx/lv_canvas.c ****     }
 620:..\..\..\lvgl\version_6.1.2\lvgl\src\lv_objx/lv_canvas.c **** 
 621:..\..\..\lvgl\version_6.1.2\lvgl\src\lv_objx/lv_canvas.c ****     lv_area_t coords;
 622:..\..\..\lvgl\version_6.1.2\lvgl\src\lv_objx/lv_canvas.c ****     coords.x1 = x;
 623:..\..\..\lvgl\version_6.1.2\lvgl\src\lv_objx/lv_canvas.c ****     coords.y1 = y;
 624:..\..\..\lvgl\version_6.1.2\lvgl\src\lv_objx/lv_canvas.c ****     coords.x2 = x + header.w - 1;
 625:..\..\..\lvgl\version_6.1.2\lvgl\src\lv_objx/lv_canvas.c ****     coords.y2 = y + header.h - 1;
 626:..\..\..\lvgl\version_6.1.2\lvgl\src\lv_objx/lv_canvas.c **** 
 627:..\..\..\lvgl\version_6.1.2\lvgl\src\lv_objx/lv_canvas.c ****     lv_disp_t disp;
 628:..\..\..\lvgl\version_6.1.2\lvgl\src\lv_objx/lv_canvas.c ****     memset(&disp, 0, sizeof(lv_disp_t));
 629:..\..\..\lvgl\version_6.1.2\lvgl\src\lv_objx/lv_canvas.c **** 
 630:..\..\..\lvgl\version_6.1.2\lvgl\src\lv_objx/lv_canvas.c ****     lv_disp_buf_t disp_buf;
 631:..\..\..\lvgl\version_6.1.2\lvgl\src\lv_objx/lv_canvas.c ****     lv_disp_buf_init(&disp_buf, (void *)dsc->data, NULL, dsc->header.w * dsc->header.h);
 632:..\..\..\lvgl\version_6.1.2\lvgl\src\lv_objx/lv_canvas.c ****     lv_area_copy(&disp_buf.area, &mask);
 633:..\..\..\lvgl\version_6.1.2\lvgl\src\lv_objx/lv_canvas.c **** 
 634:..\..\..\lvgl\version_6.1.2\lvgl\src\lv_objx/lv_canvas.c ****     lv_disp_drv_init(&disp.driver);
 635:..\..\..\lvgl\version_6.1.2\lvgl\src\lv_objx/lv_canvas.c **** 
 636:..\..\..\lvgl\version_6.1.2\lvgl\src\lv_objx/lv_canvas.c ****     disp.driver.buffer  = &disp_buf;
 637:..\..\..\lvgl\version_6.1.2\lvgl\src\lv_objx/lv_canvas.c ****     disp.driver.hor_res = dsc->header.w;
 638:..\..\..\lvgl\version_6.1.2\lvgl\src\lv_objx/lv_canvas.c ****     disp.driver.ver_res = dsc->header.h;
 639:..\..\..\lvgl\version_6.1.2\lvgl\src\lv_objx/lv_canvas.c **** 
 640:..\..\..\lvgl\version_6.1.2\lvgl\src\lv_objx/lv_canvas.c ****     lv_disp_t * refr_ori = lv_refr_get_disp_refreshing();
 641:..\..\..\lvgl\version_6.1.2\lvgl\src\lv_objx/lv_canvas.c ****     lv_refr_set_disp_refreshing(&disp);
 642:..\..\..\lvgl\version_6.1.2\lvgl\src\lv_objx/lv_canvas.c **** 
 643:..\..\..\lvgl\version_6.1.2\lvgl\src\lv_objx/lv_canvas.c ****     lv_draw_img(&coords, &mask, src, style, LV_OPA_COVER);
 644:..\..\..\lvgl\version_6.1.2\lvgl\src\lv_objx/lv_canvas.c **** 
 645:..\..\..\lvgl\version_6.1.2\lvgl\src\lv_objx/lv_canvas.c ****     lv_refr_set_disp_refreshing(refr_ori);
 646:..\..\..\lvgl\version_6.1.2\lvgl\src\lv_objx/lv_canvas.c **** }
 647:..\..\..\lvgl\version_6.1.2\lvgl\src\lv_objx/lv_canvas.c **** 
 648:..\..\..\lvgl\version_6.1.2\lvgl\src\lv_objx/lv_canvas.c **** /**
 649:..\..\..\lvgl\version_6.1.2\lvgl\src\lv_objx/lv_canvas.c ****  * Draw a line on the canvas
 650:..\..\..\lvgl\version_6.1.2\lvgl\src\lv_objx/lv_canvas.c ****  * @param canvas pointer to a canvas object
 651:..\..\..\lvgl\version_6.1.2\lvgl\src\lv_objx/lv_canvas.c ****  * @param points point of the line
 652:..\..\..\lvgl\version_6.1.2\lvgl\src\lv_objx/lv_canvas.c ****  * @param point_cnt number of points
 653:..\..\..\lvgl\version_6.1.2\lvgl\src\lv_objx/lv_canvas.c ****  * @param style style of the line (`line` properties are used)
 654:..\..\..\lvgl\version_6.1.2\lvgl\src\lv_objx/lv_canvas.c ****  */
 655:..\..\..\lvgl\version_6.1.2\lvgl\src\lv_objx/lv_canvas.c **** void lv_canvas_draw_line(lv_obj_t * canvas, const lv_point_t * points, uint32_t point_cnt, const lv
 656:..\..\..\lvgl\version_6.1.2\lvgl\src\lv_objx/lv_canvas.c **** {
 657:..\..\..\lvgl\version_6.1.2\lvgl\src\lv_objx/lv_canvas.c ****     LV_ASSERT_OBJ(canvas, LV_OBJX_NAME);
ARM GAS  C:\Users\pearlstl\AppData\Local\Temp\ccQFxYtd.s 			page 13


 658:..\..\..\lvgl\version_6.1.2\lvgl\src\lv_objx/lv_canvas.c ****     LV_ASSERT_NULL(style);
 659:..\..\..\lvgl\version_6.1.2\lvgl\src\lv_objx/lv_canvas.c **** 
 660:..\..\..\lvgl\version_6.1.2\lvgl\src\lv_objx/lv_canvas.c ****     lv_img_dsc_t * dsc = lv_canvas_get_img(canvas);
 661:..\..\..\lvgl\version_6.1.2\lvgl\src\lv_objx/lv_canvas.c **** 
 662:..\..\..\lvgl\version_6.1.2\lvgl\src\lv_objx/lv_canvas.c ****     /* Create a dummy display to fool the lv_draw function.
 663:..\..\..\lvgl\version_6.1.2\lvgl\src\lv_objx/lv_canvas.c ****      * It will think it draws to real screen. */
 664:..\..\..\lvgl\version_6.1.2\lvgl\src\lv_objx/lv_canvas.c ****     lv_area_t mask;
 665:..\..\..\lvgl\version_6.1.2\lvgl\src\lv_objx/lv_canvas.c ****     mask.x1 = 0;
 666:..\..\..\lvgl\version_6.1.2\lvgl\src\lv_objx/lv_canvas.c ****     mask.x2 = dsc->header.w - 1;
 667:..\..\..\lvgl\version_6.1.2\lvgl\src\lv_objx/lv_canvas.c ****     mask.y1 = 0;
 668:..\..\..\lvgl\version_6.1.2\lvgl\src\lv_objx/lv_canvas.c ****     mask.y2 = dsc->header.h - 1;
 669:..\..\..\lvgl\version_6.1.2\lvgl\src\lv_objx/lv_canvas.c **** 
 670:..\..\..\lvgl\version_6.1.2\lvgl\src\lv_objx/lv_canvas.c ****     lv_disp_t disp;
 671:..\..\..\lvgl\version_6.1.2\lvgl\src\lv_objx/lv_canvas.c ****     memset(&disp, 0, sizeof(lv_disp_t));
 672:..\..\..\lvgl\version_6.1.2\lvgl\src\lv_objx/lv_canvas.c **** 
 673:..\..\..\lvgl\version_6.1.2\lvgl\src\lv_objx/lv_canvas.c ****     lv_disp_buf_t disp_buf;
 674:..\..\..\lvgl\version_6.1.2\lvgl\src\lv_objx/lv_canvas.c ****     lv_disp_buf_init(&disp_buf, (void *)dsc->data, NULL, dsc->header.w * dsc->header.h);
 675:..\..\..\lvgl\version_6.1.2\lvgl\src\lv_objx/lv_canvas.c ****     lv_area_copy(&disp_buf.area, &mask);
 676:..\..\..\lvgl\version_6.1.2\lvgl\src\lv_objx/lv_canvas.c **** 
 677:..\..\..\lvgl\version_6.1.2\lvgl\src\lv_objx/lv_canvas.c ****     lv_disp_drv_init(&disp.driver);
 678:..\..\..\lvgl\version_6.1.2\lvgl\src\lv_objx/lv_canvas.c **** 
 679:..\..\..\lvgl\version_6.1.2\lvgl\src\lv_objx/lv_canvas.c ****     disp.driver.buffer  = &disp_buf;
 680:..\..\..\lvgl\version_6.1.2\lvgl\src\lv_objx/lv_canvas.c ****     disp.driver.hor_res = dsc->header.w;
 681:..\..\..\lvgl\version_6.1.2\lvgl\src\lv_objx/lv_canvas.c ****     disp.driver.ver_res = dsc->header.h;
 682:..\..\..\lvgl\version_6.1.2\lvgl\src\lv_objx/lv_canvas.c **** 
 683:..\..\..\lvgl\version_6.1.2\lvgl\src\lv_objx/lv_canvas.c **** #if LV_ANTIALIAS
 684:..\..\..\lvgl\version_6.1.2\lvgl\src\lv_objx/lv_canvas.c ****     /*Disable anti-aliasing if drawing with transparent color to chroma keyed canvas*/
 685:..\..\..\lvgl\version_6.1.2\lvgl\src\lv_objx/lv_canvas.c ****     lv_color_t ctransp = LV_COLOR_TRANSP;
 686:..\..\..\lvgl\version_6.1.2\lvgl\src\lv_objx/lv_canvas.c ****     if(dsc->header.cf == LV_IMG_CF_TRUE_COLOR_CHROMA_KEYED &&
 687:..\..\..\lvgl\version_6.1.2\lvgl\src\lv_objx/lv_canvas.c ****         style->body.main_color.full == ctransp.full &&
 688:..\..\..\lvgl\version_6.1.2\lvgl\src\lv_objx/lv_canvas.c ****         style->body.grad_color.full == ctransp.full)
 689:..\..\..\lvgl\version_6.1.2\lvgl\src\lv_objx/lv_canvas.c ****     {
 690:..\..\..\lvgl\version_6.1.2\lvgl\src\lv_objx/lv_canvas.c ****         disp.driver.antialiasing = 0;
 691:..\..\..\lvgl\version_6.1.2\lvgl\src\lv_objx/lv_canvas.c ****     }
 692:..\..\..\lvgl\version_6.1.2\lvgl\src\lv_objx/lv_canvas.c **** #endif
 693:..\..\..\lvgl\version_6.1.2\lvgl\src\lv_objx/lv_canvas.c **** 
 694:..\..\..\lvgl\version_6.1.2\lvgl\src\lv_objx/lv_canvas.c ****     lv_disp_t * refr_ori = lv_refr_get_disp_refreshing();
 695:..\..\..\lvgl\version_6.1.2\lvgl\src\lv_objx/lv_canvas.c ****     lv_refr_set_disp_refreshing(&disp);
 696:..\..\..\lvgl\version_6.1.2\lvgl\src\lv_objx/lv_canvas.c **** 
 697:..\..\..\lvgl\version_6.1.2\lvgl\src\lv_objx/lv_canvas.c ****     lv_style_t circle_style_tmp; /*If rounded...*/
 698:..\..\..\lvgl\version_6.1.2\lvgl\src\lv_objx/lv_canvas.c ****     if(style->line.rounded) {
 699:..\..\..\lvgl\version_6.1.2\lvgl\src\lv_objx/lv_canvas.c ****         lv_style_copy(&circle_style_tmp, style);
 700:..\..\..\lvgl\version_6.1.2\lvgl\src\lv_objx/lv_canvas.c ****         circle_style_tmp.body.radius     = LV_RADIUS_CIRCLE;
 701:..\..\..\lvgl\version_6.1.2\lvgl\src\lv_objx/lv_canvas.c ****         circle_style_tmp.body.main_color = style->line.color;
 702:..\..\..\lvgl\version_6.1.2\lvgl\src\lv_objx/lv_canvas.c ****         circle_style_tmp.body.grad_color = style->line.color;
 703:..\..\..\lvgl\version_6.1.2\lvgl\src\lv_objx/lv_canvas.c ****         circle_style_tmp.body.opa        = style->line.opa;
 704:..\..\..\lvgl\version_6.1.2\lvgl\src\lv_objx/lv_canvas.c ****     }
 705:..\..\..\lvgl\version_6.1.2\lvgl\src\lv_objx/lv_canvas.c ****     lv_area_t circle_area;
 706:..\..\..\lvgl\version_6.1.2\lvgl\src\lv_objx/lv_canvas.c ****     uint32_t i;
 707:..\..\..\lvgl\version_6.1.2\lvgl\src\lv_objx/lv_canvas.c ****     for(i = 0; i < point_cnt - 1; i++) {
 708:..\..\..\lvgl\version_6.1.2\lvgl\src\lv_objx/lv_canvas.c ****         lv_draw_line(&points[i], &points[i + 1], &mask, style, LV_OPA_COVER);
 709:..\..\..\lvgl\version_6.1.2\lvgl\src\lv_objx/lv_canvas.c ****         
 710:..\..\..\lvgl\version_6.1.2\lvgl\src\lv_objx/lv_canvas.c ****         /*Draw circle on the joints if enabled*/
 711:..\..\..\lvgl\version_6.1.2\lvgl\src\lv_objx/lv_canvas.c ****         if(style->line.rounded) {
 712:..\..\..\lvgl\version_6.1.2\lvgl\src\lv_objx/lv_canvas.c ****             circle_area.x1 = points[i].x - ((style->line.width - 1) >> 1) - ((style->line.width - 1
 713:..\..\..\lvgl\version_6.1.2\lvgl\src\lv_objx/lv_canvas.c ****             circle_area.y1 = points[i].y - ((style->line.width - 1) >> 1) - ((style->line.width - 1
 714:..\..\..\lvgl\version_6.1.2\lvgl\src\lv_objx/lv_canvas.c ****             circle_area.x2 = points[i].x + ((style->line.width - 1) >> 1);
ARM GAS  C:\Users\pearlstl\AppData\Local\Temp\ccQFxYtd.s 			page 14


 715:..\..\..\lvgl\version_6.1.2\lvgl\src\lv_objx/lv_canvas.c ****             circle_area.y2 = points[i].y + ((style->line.width - 1) >> 1);
 716:..\..\..\lvgl\version_6.1.2\lvgl\src\lv_objx/lv_canvas.c ****             lv_draw_rect(&circle_area, &mask, &circle_style_tmp, LV_OPA_COVER);
 717:..\..\..\lvgl\version_6.1.2\lvgl\src\lv_objx/lv_canvas.c ****         }
 718:..\..\..\lvgl\version_6.1.2\lvgl\src\lv_objx/lv_canvas.c ****     }
 719:..\..\..\lvgl\version_6.1.2\lvgl\src\lv_objx/lv_canvas.c ****     /*Draw circle on the last point too if enabled*/
 720:..\..\..\lvgl\version_6.1.2\lvgl\src\lv_objx/lv_canvas.c ****     if(style->line.rounded) {
 721:..\..\..\lvgl\version_6.1.2\lvgl\src\lv_objx/lv_canvas.c ****         circle_area.x1 = points[i].x - ((style->line.width - 1) >> 1) - ((style->line.width - 1) & 
 722:..\..\..\lvgl\version_6.1.2\lvgl\src\lv_objx/lv_canvas.c ****         circle_area.y1 = points[i].y - ((style->line.width - 1) >> 1) - ((style->line.width - 1) & 
 723:..\..\..\lvgl\version_6.1.2\lvgl\src\lv_objx/lv_canvas.c ****         circle_area.x2 = points[i].x + ((style->line.width - 1) >> 1);
 724:..\..\..\lvgl\version_6.1.2\lvgl\src\lv_objx/lv_canvas.c ****         circle_area.y2 = points[i].y + ((style->line.width - 1) >> 1);
 725:..\..\..\lvgl\version_6.1.2\lvgl\src\lv_objx/lv_canvas.c ****         lv_draw_rect(&circle_area, &mask, &circle_style_tmp, LV_OPA_COVER);
 726:..\..\..\lvgl\version_6.1.2\lvgl\src\lv_objx/lv_canvas.c ****     }
 727:..\..\..\lvgl\version_6.1.2\lvgl\src\lv_objx/lv_canvas.c ****     
 728:..\..\..\lvgl\version_6.1.2\lvgl\src\lv_objx/lv_canvas.c ****     lv_refr_set_disp_refreshing(refr_ori);
 729:..\..\..\lvgl\version_6.1.2\lvgl\src\lv_objx/lv_canvas.c **** }
 730:..\..\..\lvgl\version_6.1.2\lvgl\src\lv_objx/lv_canvas.c **** 
 731:..\..\..\lvgl\version_6.1.2\lvgl\src\lv_objx/lv_canvas.c **** /**
 732:..\..\..\lvgl\version_6.1.2\lvgl\src\lv_objx/lv_canvas.c ****  * Draw a polygon on the canvas
 733:..\..\..\lvgl\version_6.1.2\lvgl\src\lv_objx/lv_canvas.c ****  * @param canvas pointer to a canvas object
 734:..\..\..\lvgl\version_6.1.2\lvgl\src\lv_objx/lv_canvas.c ****  * @param points point of the polygon
 735:..\..\..\lvgl\version_6.1.2\lvgl\src\lv_objx/lv_canvas.c ****  * @param point_cnt number of points
 736:..\..\..\lvgl\version_6.1.2\lvgl\src\lv_objx/lv_canvas.c ****  * @param style style of the polygon (`body.main_color` and `body.opa` is used)
 737:..\..\..\lvgl\version_6.1.2\lvgl\src\lv_objx/lv_canvas.c ****  */
 738:..\..\..\lvgl\version_6.1.2\lvgl\src\lv_objx/lv_canvas.c **** void lv_canvas_draw_polygon(lv_obj_t * canvas, const lv_point_t * points, uint32_t point_cnt, const
 739:..\..\..\lvgl\version_6.1.2\lvgl\src\lv_objx/lv_canvas.c **** {
 740:..\..\..\lvgl\version_6.1.2\lvgl\src\lv_objx/lv_canvas.c ****     LV_ASSERT_OBJ(canvas, LV_OBJX_NAME);
 741:..\..\..\lvgl\version_6.1.2\lvgl\src\lv_objx/lv_canvas.c ****     LV_ASSERT_NULL(style);
 742:..\..\..\lvgl\version_6.1.2\lvgl\src\lv_objx/lv_canvas.c **** 
 743:..\..\..\lvgl\version_6.1.2\lvgl\src\lv_objx/lv_canvas.c ****     lv_img_dsc_t * dsc = lv_canvas_get_img(canvas);
 744:..\..\..\lvgl\version_6.1.2\lvgl\src\lv_objx/lv_canvas.c **** 
 745:..\..\..\lvgl\version_6.1.2\lvgl\src\lv_objx/lv_canvas.c ****     /* Create a dummy display to fool the lv_draw function.
 746:..\..\..\lvgl\version_6.1.2\lvgl\src\lv_objx/lv_canvas.c ****      * It will think it draws to real screen. */
 747:..\..\..\lvgl\version_6.1.2\lvgl\src\lv_objx/lv_canvas.c ****     lv_area_t mask;
 748:..\..\..\lvgl\version_6.1.2\lvgl\src\lv_objx/lv_canvas.c ****     mask.x1 = 0;
 749:..\..\..\lvgl\version_6.1.2\lvgl\src\lv_objx/lv_canvas.c ****     mask.x2 = dsc->header.w - 1;
 750:..\..\..\lvgl\version_6.1.2\lvgl\src\lv_objx/lv_canvas.c ****     mask.y1 = 0;
 751:..\..\..\lvgl\version_6.1.2\lvgl\src\lv_objx/lv_canvas.c ****     mask.y2 = dsc->header.h - 1;
 752:..\..\..\lvgl\version_6.1.2\lvgl\src\lv_objx/lv_canvas.c **** 
 753:..\..\..\lvgl\version_6.1.2\lvgl\src\lv_objx/lv_canvas.c ****     lv_disp_t disp;
 754:..\..\..\lvgl\version_6.1.2\lvgl\src\lv_objx/lv_canvas.c ****     memset(&disp, 0, sizeof(lv_disp_t));
 755:..\..\..\lvgl\version_6.1.2\lvgl\src\lv_objx/lv_canvas.c **** 
 756:..\..\..\lvgl\version_6.1.2\lvgl\src\lv_objx/lv_canvas.c ****     lv_disp_buf_t disp_buf;
 757:..\..\..\lvgl\version_6.1.2\lvgl\src\lv_objx/lv_canvas.c ****     lv_disp_buf_init(&disp_buf, (void *)dsc->data, NULL, dsc->header.w * dsc->header.h);
 758:..\..\..\lvgl\version_6.1.2\lvgl\src\lv_objx/lv_canvas.c ****     lv_area_copy(&disp_buf.area, &mask);
 759:..\..\..\lvgl\version_6.1.2\lvgl\src\lv_objx/lv_canvas.c **** 
 760:..\..\..\lvgl\version_6.1.2\lvgl\src\lv_objx/lv_canvas.c ****     lv_disp_drv_init(&disp.driver);
 761:..\..\..\lvgl\version_6.1.2\lvgl\src\lv_objx/lv_canvas.c **** 
 762:..\..\..\lvgl\version_6.1.2\lvgl\src\lv_objx/lv_canvas.c ****     disp.driver.buffer  = &disp_buf;
 763:..\..\..\lvgl\version_6.1.2\lvgl\src\lv_objx/lv_canvas.c ****     disp.driver.hor_res = dsc->header.w;
 764:..\..\..\lvgl\version_6.1.2\lvgl\src\lv_objx/lv_canvas.c ****     disp.driver.ver_res = dsc->header.h;
 765:..\..\..\lvgl\version_6.1.2\lvgl\src\lv_objx/lv_canvas.c **** 
 766:..\..\..\lvgl\version_6.1.2\lvgl\src\lv_objx/lv_canvas.c **** #if LV_ANTIALIAS
 767:..\..\..\lvgl\version_6.1.2\lvgl\src\lv_objx/lv_canvas.c ****     /*Disable anti-aliasing if drawing with transparent color to chroma keyed canvas*/
 768:..\..\..\lvgl\version_6.1.2\lvgl\src\lv_objx/lv_canvas.c ****     lv_color_t ctransp = LV_COLOR_TRANSP;
 769:..\..\..\lvgl\version_6.1.2\lvgl\src\lv_objx/lv_canvas.c ****     if(dsc->header.cf == LV_IMG_CF_TRUE_COLOR_CHROMA_KEYED &&
 770:..\..\..\lvgl\version_6.1.2\lvgl\src\lv_objx/lv_canvas.c ****         style->body.main_color.full == ctransp.full &&
 771:..\..\..\lvgl\version_6.1.2\lvgl\src\lv_objx/lv_canvas.c ****         style->body.grad_color.full == ctransp.full)
ARM GAS  C:\Users\pearlstl\AppData\Local\Temp\ccQFxYtd.s 			page 15


 772:..\..\..\lvgl\version_6.1.2\lvgl\src\lv_objx/lv_canvas.c ****     {
 773:..\..\..\lvgl\version_6.1.2\lvgl\src\lv_objx/lv_canvas.c ****         disp.driver.antialiasing = 0;
 774:..\..\..\lvgl\version_6.1.2\lvgl\src\lv_objx/lv_canvas.c ****     }
 775:..\..\..\lvgl\version_6.1.2\lvgl\src\lv_objx/lv_canvas.c **** #endif
 776:..\..\..\lvgl\version_6.1.2\lvgl\src\lv_objx/lv_canvas.c **** 
 777:..\..\..\lvgl\version_6.1.2\lvgl\src\lv_objx/lv_canvas.c ****     lv_disp_t * refr_ori = lv_refr_get_disp_refreshing();
 778:..\..\..\lvgl\version_6.1.2\lvgl\src\lv_objx/lv_canvas.c ****     lv_refr_set_disp_refreshing(&disp);
 779:..\..\..\lvgl\version_6.1.2\lvgl\src\lv_objx/lv_canvas.c **** 
 780:..\..\..\lvgl\version_6.1.2\lvgl\src\lv_objx/lv_canvas.c ****     lv_draw_polygon(points, point_cnt, &mask, style, LV_OPA_COVER);
 781:..\..\..\lvgl\version_6.1.2\lvgl\src\lv_objx/lv_canvas.c **** 
 782:..\..\..\lvgl\version_6.1.2\lvgl\src\lv_objx/lv_canvas.c ****     lv_refr_set_disp_refreshing(refr_ori);
 783:..\..\..\lvgl\version_6.1.2\lvgl\src\lv_objx/lv_canvas.c **** }
 784:..\..\..\lvgl\version_6.1.2\lvgl\src\lv_objx/lv_canvas.c **** 
 785:..\..\..\lvgl\version_6.1.2\lvgl\src\lv_objx/lv_canvas.c **** /**
 786:..\..\..\lvgl\version_6.1.2\lvgl\src\lv_objx/lv_canvas.c ****  * Draw an arc on the canvas
 787:..\..\..\lvgl\version_6.1.2\lvgl\src\lv_objx/lv_canvas.c ****  * @param canvas pointer to a canvas object
 788:..\..\..\lvgl\version_6.1.2\lvgl\src\lv_objx/lv_canvas.c ****  * @param x origo x  of the arc
 789:..\..\..\lvgl\version_6.1.2\lvgl\src\lv_objx/lv_canvas.c ****  * @param y origo y of the arc
 790:..\..\..\lvgl\version_6.1.2\lvgl\src\lv_objx/lv_canvas.c ****  * @param r radius of the arc
 791:..\..\..\lvgl\version_6.1.2\lvgl\src\lv_objx/lv_canvas.c ****  * @param start_angle start angle in degrees
 792:..\..\..\lvgl\version_6.1.2\lvgl\src\lv_objx/lv_canvas.c ****  * @param end_angle end angle in degrees
 793:..\..\..\lvgl\version_6.1.2\lvgl\src\lv_objx/lv_canvas.c ****  * @param style style of the polygon (`body.main_color` and `body.opa` is used)
 794:..\..\..\lvgl\version_6.1.2\lvgl\src\lv_objx/lv_canvas.c ****  */
 795:..\..\..\lvgl\version_6.1.2\lvgl\src\lv_objx/lv_canvas.c **** void lv_canvas_draw_arc(lv_obj_t * canvas, lv_coord_t x, lv_coord_t y, lv_coord_t r, int32_t start_
 796:..\..\..\lvgl\version_6.1.2\lvgl\src\lv_objx/lv_canvas.c ****                         int32_t end_angle, const lv_style_t * style)
 797:..\..\..\lvgl\version_6.1.2\lvgl\src\lv_objx/lv_canvas.c **** {
 798:..\..\..\lvgl\version_6.1.2\lvgl\src\lv_objx/lv_canvas.c ****     LV_ASSERT_OBJ(canvas, LV_OBJX_NAME);
 799:..\..\..\lvgl\version_6.1.2\lvgl\src\lv_objx/lv_canvas.c ****     LV_ASSERT_NULL(style);
 800:..\..\..\lvgl\version_6.1.2\lvgl\src\lv_objx/lv_canvas.c **** 
 801:..\..\..\lvgl\version_6.1.2\lvgl\src\lv_objx/lv_canvas.c ****     lv_img_dsc_t * dsc = lv_canvas_get_img(canvas);
 802:..\..\..\lvgl\version_6.1.2\lvgl\src\lv_objx/lv_canvas.c **** 
 803:..\..\..\lvgl\version_6.1.2\lvgl\src\lv_objx/lv_canvas.c ****     /* Create a dummy display to fool the lv_draw function.
 804:..\..\..\lvgl\version_6.1.2\lvgl\src\lv_objx/lv_canvas.c ****      * It will think it draws to real screen. */
 805:..\..\..\lvgl\version_6.1.2\lvgl\src\lv_objx/lv_canvas.c ****     lv_area_t mask;
 806:..\..\..\lvgl\version_6.1.2\lvgl\src\lv_objx/lv_canvas.c ****     mask.x1 = 0;
 807:..\..\..\lvgl\version_6.1.2\lvgl\src\lv_objx/lv_canvas.c ****     mask.x2 = dsc->header.w - 1;
 808:..\..\..\lvgl\version_6.1.2\lvgl\src\lv_objx/lv_canvas.c ****     mask.y1 = 0;
 809:..\..\..\lvgl\version_6.1.2\lvgl\src\lv_objx/lv_canvas.c ****     mask.y2 = dsc->header.h - 1;
 810:..\..\..\lvgl\version_6.1.2\lvgl\src\lv_objx/lv_canvas.c **** 
 811:..\..\..\lvgl\version_6.1.2\lvgl\src\lv_objx/lv_canvas.c ****     lv_disp_t disp;
 812:..\..\..\lvgl\version_6.1.2\lvgl\src\lv_objx/lv_canvas.c ****     memset(&disp, 0, sizeof(lv_disp_t));
 813:..\..\..\lvgl\version_6.1.2\lvgl\src\lv_objx/lv_canvas.c **** 
 814:..\..\..\lvgl\version_6.1.2\lvgl\src\lv_objx/lv_canvas.c ****     lv_disp_buf_t disp_buf;
 815:..\..\..\lvgl\version_6.1.2\lvgl\src\lv_objx/lv_canvas.c ****     lv_disp_buf_init(&disp_buf, (void *)dsc->data, NULL, dsc->header.w * dsc->header.h);
 816:..\..\..\lvgl\version_6.1.2\lvgl\src\lv_objx/lv_canvas.c ****     lv_area_copy(&disp_buf.area, &mask);
 817:..\..\..\lvgl\version_6.1.2\lvgl\src\lv_objx/lv_canvas.c **** 
 818:..\..\..\lvgl\version_6.1.2\lvgl\src\lv_objx/lv_canvas.c ****     lv_disp_drv_init(&disp.driver);
 819:..\..\..\lvgl\version_6.1.2\lvgl\src\lv_objx/lv_canvas.c **** 
 820:..\..\..\lvgl\version_6.1.2\lvgl\src\lv_objx/lv_canvas.c ****     disp.driver.buffer  = &disp_buf;
 821:..\..\..\lvgl\version_6.1.2\lvgl\src\lv_objx/lv_canvas.c ****     disp.driver.hor_res = dsc->header.w;
 822:..\..\..\lvgl\version_6.1.2\lvgl\src\lv_objx/lv_canvas.c ****     disp.driver.ver_res = dsc->header.h;
 823:..\..\..\lvgl\version_6.1.2\lvgl\src\lv_objx/lv_canvas.c **** 
 824:..\..\..\lvgl\version_6.1.2\lvgl\src\lv_objx/lv_canvas.c **** #if LV_ANTIALIAS
 825:..\..\..\lvgl\version_6.1.2\lvgl\src\lv_objx/lv_canvas.c ****     /*Disable anti-aliasing if drawing with transparent color to chroma keyed canvas*/
 826:..\..\..\lvgl\version_6.1.2\lvgl\src\lv_objx/lv_canvas.c ****     lv_color_t ctransp = LV_COLOR_TRANSP;
 827:..\..\..\lvgl\version_6.1.2\lvgl\src\lv_objx/lv_canvas.c ****     if(dsc->header.cf == LV_IMG_CF_TRUE_COLOR_CHROMA_KEYED &&
 828:..\..\..\lvgl\version_6.1.2\lvgl\src\lv_objx/lv_canvas.c ****         style->body.main_color.full == ctransp.full &&
ARM GAS  C:\Users\pearlstl\AppData\Local\Temp\ccQFxYtd.s 			page 16


 829:..\..\..\lvgl\version_6.1.2\lvgl\src\lv_objx/lv_canvas.c ****         style->body.grad_color.full == ctransp.full)
 830:..\..\..\lvgl\version_6.1.2\lvgl\src\lv_objx/lv_canvas.c ****     {
 831:..\..\..\lvgl\version_6.1.2\lvgl\src\lv_objx/lv_canvas.c ****         disp.driver.antialiasing = 0;
 832:..\..\..\lvgl\version_6.1.2\lvgl\src\lv_objx/lv_canvas.c ****     }
 833:..\..\..\lvgl\version_6.1.2\lvgl\src\lv_objx/lv_canvas.c **** #endif
 834:..\..\..\lvgl\version_6.1.2\lvgl\src\lv_objx/lv_canvas.c **** 
 835:..\..\..\lvgl\version_6.1.2\lvgl\src\lv_objx/lv_canvas.c ****     lv_disp_t * refr_ori = lv_refr_get_disp_refreshing();
 836:..\..\..\lvgl\version_6.1.2\lvgl\src\lv_objx/lv_canvas.c ****     lv_refr_set_disp_refreshing(&disp);
 837:..\..\..\lvgl\version_6.1.2\lvgl\src\lv_objx/lv_canvas.c **** 
 838:..\..\..\lvgl\version_6.1.2\lvgl\src\lv_objx/lv_canvas.c ****     lv_draw_arc(x, y, r, &mask, start_angle, end_angle, style, LV_OPA_COVER);
 839:..\..\..\lvgl\version_6.1.2\lvgl\src\lv_objx/lv_canvas.c **** 
 840:..\..\..\lvgl\version_6.1.2\lvgl\src\lv_objx/lv_canvas.c ****     lv_refr_set_disp_refreshing(refr_ori);
 841:..\..\..\lvgl\version_6.1.2\lvgl\src\lv_objx/lv_canvas.c **** }
 842:..\..\..\lvgl\version_6.1.2\lvgl\src\lv_objx/lv_canvas.c **** 
 843:..\..\..\lvgl\version_6.1.2\lvgl\src\lv_objx/lv_canvas.c **** /**********************
 844:..\..\..\lvgl\version_6.1.2\lvgl\src\lv_objx/lv_canvas.c ****  *   STATIC FUNCTIONS
 845:..\..\..\lvgl\version_6.1.2\lvgl\src\lv_objx/lv_canvas.c ****  **********************/
 846:..\..\..\lvgl\version_6.1.2\lvgl\src\lv_objx/lv_canvas.c **** 
 847:..\..\..\lvgl\version_6.1.2\lvgl\src\lv_objx/lv_canvas.c **** /**
 848:..\..\..\lvgl\version_6.1.2\lvgl\src\lv_objx/lv_canvas.c ****  * Signal function of the canvas
 849:..\..\..\lvgl\version_6.1.2\lvgl\src\lv_objx/lv_canvas.c ****  * @param canvas pointer to a canvas object
 850:..\..\..\lvgl\version_6.1.2\lvgl\src\lv_objx/lv_canvas.c ****  * @param sign a signal type from lv_signal_t enum
 851:..\..\..\lvgl\version_6.1.2\lvgl\src\lv_objx/lv_canvas.c ****  * @param param pointer to a signal specific variable
 852:..\..\..\lvgl\version_6.1.2\lvgl\src\lv_objx/lv_canvas.c ****  * @return LV_RES_OK: the object is not deleted in the function; LV_RES_INV: the object is deleted
 853:..\..\..\lvgl\version_6.1.2\lvgl\src\lv_objx/lv_canvas.c ****  */
 854:..\..\..\lvgl\version_6.1.2\lvgl\src\lv_objx/lv_canvas.c **** static lv_res_t lv_canvas_signal(lv_obj_t * canvas, lv_signal_t sign, void * param)
 855:..\..\..\lvgl\version_6.1.2\lvgl\src\lv_objx/lv_canvas.c **** {
  28              		.loc 1 855 0
  29              		.cfi_startproc
  30              		@ args = 0, pretend = 0, frame = 0
  31              		@ frame_needed = 0, uses_anonymous_args = 0
  32              	.LVL0:
  33 0000 38B5     		push	{r3, r4, r5, lr}
  34              		.cfi_def_cfa_offset 16
  35              		.cfi_offset 3, -16
  36              		.cfi_offset 4, -12
  37              		.cfi_offset 5, -8
  38              		.cfi_offset 14, -4
 856:..\..\..\lvgl\version_6.1.2\lvgl\src\lv_objx/lv_canvas.c ****     lv_res_t res;
 857:..\..\..\lvgl\version_6.1.2\lvgl\src\lv_objx/lv_canvas.c **** 
 858:..\..\..\lvgl\version_6.1.2\lvgl\src\lv_objx/lv_canvas.c ****     /* Include the ancient signal function */
 859:..\..\..\lvgl\version_6.1.2\lvgl\src\lv_objx/lv_canvas.c ****     res = ancestor_signal(canvas, sign, param);
  39              		.loc 1 859 0
  40 0002 084B     		ldr	r3, .L8
  41 0004 1B68     		ldr	r3, [r3]
 855:..\..\..\lvgl\version_6.1.2\lvgl\src\lv_objx/lv_canvas.c ****     lv_res_t res;
  42              		.loc 1 855 0
  43 0006 0C46     		mov	r4, r1
  44 0008 1546     		mov	r5, r2
  45              		.loc 1 859 0
  46 000a 9847     		blx	r3
  47              	.LVL1:
 860:..\..\..\lvgl\version_6.1.2\lvgl\src\lv_objx/lv_canvas.c ****     if(res != LV_RES_OK) return res;
  48              		.loc 1 860 0
  49 000c 0128     		cmp	r0, #1
  50 000e 00D0     		beq	.L7
  51              	.L2:
ARM GAS  C:\Users\pearlstl\AppData\Local\Temp\ccQFxYtd.s 			page 17


 861:..\..\..\lvgl\version_6.1.2\lvgl\src\lv_objx/lv_canvas.c ****     if(sign == LV_SIGNAL_GET_TYPE) return lv_obj_handle_get_type_signal(param, LV_OBJX_NAME);
 862:..\..\..\lvgl\version_6.1.2\lvgl\src\lv_objx/lv_canvas.c **** 
 863:..\..\..\lvgl\version_6.1.2\lvgl\src\lv_objx/lv_canvas.c ****     if(sign == LV_SIGNAL_CLEANUP) {
 864:..\..\..\lvgl\version_6.1.2\lvgl\src\lv_objx/lv_canvas.c ****         /*Nothing to cleanup. (No dynamically allocated memory in 'ext')*/
 865:..\..\..\lvgl\version_6.1.2\lvgl\src\lv_objx/lv_canvas.c ****     }
 866:..\..\..\lvgl\version_6.1.2\lvgl\src\lv_objx/lv_canvas.c **** 
 867:..\..\..\lvgl\version_6.1.2\lvgl\src\lv_objx/lv_canvas.c ****     return res;
 868:..\..\..\lvgl\version_6.1.2\lvgl\src\lv_objx/lv_canvas.c **** }
  52              		.loc 1 868 0
  53 0010 38BD     		pop	{r3, r4, r5, pc}
  54              	.LVL2:
  55              	.L7:
 861:..\..\..\lvgl\version_6.1.2\lvgl\src\lv_objx/lv_canvas.c ****     if(sign == LV_SIGNAL_GET_TYPE) return lv_obj_handle_get_type_signal(param, LV_OBJX_NAME);
  56              		.loc 1 861 0
  57 0012 072C     		cmp	r4, #7
  58 0014 FCD1     		bne	.L2
  59              	.LVL3:
  60              	.LBB59:
  61              	.LBB60:
  62 0016 2846     		mov	r0, r5
  63              	.LVL4:
  64 0018 0349     		ldr	r1, .L8+4
  65              	.LBE60:
  66              	.LBE59:
  67              		.loc 1 868 0
  68 001a BDE83840 		pop	{r3, r4, r5, lr}
  69              		.cfi_restore 14
  70              		.cfi_restore 5
  71              		.cfi_restore 4
  72              		.cfi_restore 3
  73              		.cfi_def_cfa_offset 0
  74              	.LVL5:
  75              	.LBB62:
  76              	.LBB61:
 861:..\..\..\lvgl\version_6.1.2\lvgl\src\lv_objx/lv_canvas.c ****     if(sign == LV_SIGNAL_GET_TYPE) return lv_obj_handle_get_type_signal(param, LV_OBJX_NAME);
  77              		.loc 1 861 0
  78 001e FFF7FEBF 		b	lv_obj_handle_get_type_signal
  79              	.LVL6:
  80              	.L9:
  81 0022 00BF     		.align	2
  82              	.L8:
  83 0024 00000000 		.word	.LANCHOR0
  84 0028 00000000 		.word	.LC0
  85              	.LBE61:
  86              	.LBE62:
  87              		.cfi_endproc
  88              	.LFE52:
  89              		.size	lv_canvas_signal, .-lv_canvas_signal
  90              		.section	.text.lv_canvas_create,"ax",%progbits
  91              		.align	2
  92              		.global	lv_canvas_create
  93              		.thumb
  94              		.thumb_func
  95              		.type	lv_canvas_create, %function
  96              	lv_canvas_create:
  97              	.LFB35:
  53:..\..\..\lvgl\version_6.1.2\lvgl\src\lv_objx/lv_canvas.c ****     LV_LOG_TRACE("canvas create started");
ARM GAS  C:\Users\pearlstl\AppData\Local\Temp\ccQFxYtd.s 			page 18


  98              		.loc 1 53 0
  99              		.cfi_startproc
 100              		@ args = 0, pretend = 0, frame = 0
 101              		@ frame_needed = 0, uses_anonymous_args = 0
 102              	.LVL7:
 103 0000 F8B5     		push	{r3, r4, r5, r6, r7, lr}
 104              		.cfi_def_cfa_offset 24
 105              		.cfi_offset 3, -24
 106              		.cfi_offset 4, -20
 107              		.cfi_offset 5, -16
 108              		.cfi_offset 6, -12
 109              		.cfi_offset 7, -8
 110              		.cfi_offset 14, -4
  53:..\..\..\lvgl\version_6.1.2\lvgl\src\lv_objx/lv_canvas.c ****     LV_LOG_TRACE("canvas create started");
 111              		.loc 1 53 0
 112 0002 0F46     		mov	r7, r1
  57:..\..\..\lvgl\version_6.1.2\lvgl\src\lv_objx/lv_canvas.c ****     LV_ASSERT_MEM(new_canvas);
 113              		.loc 1 57 0
 114 0004 FFF7FEFF 		bl	lv_img_create
 115              	.LVL8:
  59:..\..\..\lvgl\version_6.1.2\lvgl\src\lv_objx/lv_canvas.c **** 
 116              		.loc 1 59 0
 117 0008 40B3     		cbz	r0, .L13
  62:..\..\..\lvgl\version_6.1.2\lvgl\src\lv_objx/lv_canvas.c ****     LV_ASSERT_MEM(ext);
 118              		.loc 1 62 0
 119 000a 1C21     		movs	r1, #28
 120 000c 0546     		mov	r5, r0
 121 000e FFF7FEFF 		bl	lv_obj_allocate_ext_attr
 122              	.LVL9:
  64:..\..\..\lvgl\version_6.1.2\lvgl\src\lv_objx/lv_canvas.c ****     if(ancestor_signal == NULL) ancestor_signal = lv_obj_get_signal_cb(new_canvas);
 123              		.loc 1 64 0
 124 0012 0446     		mov	r4, r0
 125 0014 10B3     		cbz	r0, .L13
  65:..\..\..\lvgl\version_6.1.2\lvgl\src\lv_objx/lv_canvas.c ****     if(ancestor_design == NULL) ancestor_design = lv_obj_get_design_cb(new_canvas);
 126              		.loc 1 65 0
 127 0016 174E     		ldr	r6, .L23
 128 0018 3368     		ldr	r3, [r6]
 129 001a 0BB3     		cbz	r3, .L21
 130              	.LVL10:
 131              	.L14:
  66:..\..\..\lvgl\version_6.1.2\lvgl\src\lv_objx/lv_canvas.c **** 
 132              		.loc 1 66 0
 133 001c 7368     		ldr	r3, [r6, #4]
 134 001e 154E     		ldr	r6, .L23
 135 0020 1BB3     		cbz	r3, .L22
 136              	.L15:
  71:..\..\..\lvgl\version_6.1.2\lvgl\src\lv_objx/lv_canvas.c ****     ext->dsc.header.w           = 0;
 137              		.loc 1 71 0
 138 0022 638A     		ldrh	r3, [r4, #18]
  70:..\..\..\lvgl\version_6.1.2\lvgl\src\lv_objx/lv_canvas.c ****     ext->dsc.header.h           = 0;
 139              		.loc 1 70 0
 140 0024 0422     		movs	r2, #4
  71:..\..\..\lvgl\version_6.1.2\lvgl\src\lv_objx/lv_canvas.c ****     ext->dsc.header.w           = 0;
 141              		.loc 1 71 0
 142 0026 6FF34F13 		bfc	r3, #5, #11
 143 002a 6382     		strh	r3, [r4, #18]	@ movhi
  70:..\..\..\lvgl\version_6.1.2\lvgl\src\lv_objx/lv_canvas.c ****     ext->dsc.header.h           = 0;
ARM GAS  C:\Users\pearlstl\AppData\Local\Temp\ccQFxYtd.s 			page 19


 144              		.loc 1 70 0
 145 002c 2274     		strb	r2, [r4, #16]
  72:..\..\..\lvgl\version_6.1.2\lvgl\src\lv_objx/lv_canvas.c ****     ext->dsc.data_size          = 0;
 146              		.loc 1 72 0
 147 002e 2269     		ldr	r2, [r4, #16]
  73:..\..\..\lvgl\version_6.1.2\lvgl\src\lv_objx/lv_canvas.c ****     ext->dsc.data               = NULL;
 148              		.loc 1 73 0
 149 0030 0023     		movs	r3, #0
  72:..\..\..\lvgl\version_6.1.2\lvgl\src\lv_objx/lv_canvas.c ****     ext->dsc.data_size          = 0;
 150              		.loc 1 72 0
 151 0032 6FF39422 		bfc	r2, #10, #11
 152 0036 2261     		str	r2, [r4, #16]
  73:..\..\..\lvgl\version_6.1.2\lvgl\src\lv_objx/lv_canvas.c ****     ext->dsc.data               = NULL;
 153              		.loc 1 73 0
 154 0038 6361     		str	r3, [r4, #20]
  74:..\..\..\lvgl\version_6.1.2\lvgl\src\lv_objx/lv_canvas.c **** 
 155              		.loc 1 74 0
 156 003a A361     		str	r3, [r4, #24]
  76:..\..\..\lvgl\version_6.1.2\lvgl\src\lv_objx/lv_canvas.c **** 
 157              		.loc 1 76 0
 158 003c 04F11001 		add	r1, r4, #16
 159 0040 2846     		mov	r0, r5
 160 0042 FFF7FEFF 		bl	lv_img_set_src
 161              	.LVL11:
  79:..\..\..\lvgl\version_6.1.2\lvgl\src\lv_objx/lv_canvas.c **** 
 162              		.loc 1 79 0
 163 0046 2846     		mov	r0, r5
 164 0048 0B49     		ldr	r1, .L23+4
 165 004a FFF7FEFF 		bl	lv_obj_set_signal_cb
 166              	.LVL12:
 167 004e 2846     		mov	r0, r5
  82:..\..\..\lvgl\version_6.1.2\lvgl\src\lv_objx/lv_canvas.c **** 
 168              		.loc 1 82 0
 169 0050 1FB1     		cbz	r7, .L16
 170              	.LVL13:
  88:..\..\..\lvgl\version_6.1.2\lvgl\src\lv_objx/lv_canvas.c ****     }
 171              		.loc 1 88 0
 172 0052 FFF7FEFF 		bl	lv_obj_refresh_style
 173              	.LVL14:
 174 0056 2846     		mov	r0, r5
 175 0058 F8BD     		pop	{r3, r4, r5, r6, r7, pc}
 176              	.LVL15:
 177              	.L16:
  94:..\..\..\lvgl\version_6.1.2\lvgl\src\lv_objx/lv_canvas.c **** 
 178              		.loc 1 94 0
 179 005a F8BD     		pop	{r3, r4, r5, r6, r7, pc}
 180              	.LVL16:
 181              	.L13:
  59:..\..\..\lvgl\version_6.1.2\lvgl\src\lv_objx/lv_canvas.c **** 
 182              		.loc 1 59 0
 183 005c 0020     		movs	r0, #0
 184 005e F8BD     		pop	{r3, r4, r5, r6, r7, pc}
 185              	.LVL17:
 186              	.L21:
  65:..\..\..\lvgl\version_6.1.2\lvgl\src\lv_objx/lv_canvas.c ****     if(ancestor_design == NULL) ancestor_design = lv_obj_get_design_cb(new_canvas);
 187              		.loc 1 65 0 discriminator 1
 188 0060 2846     		mov	r0, r5
ARM GAS  C:\Users\pearlstl\AppData\Local\Temp\ccQFxYtd.s 			page 20


 189              	.LVL18:
 190 0062 FFF7FEFF 		bl	lv_obj_get_signal_cb
 191              	.LVL19:
 192 0066 3060     		str	r0, [r6]
 193 0068 D8E7     		b	.L14
 194              	.L22:
  66:..\..\..\lvgl\version_6.1.2\lvgl\src\lv_objx/lv_canvas.c **** 
 195              		.loc 1 66 0 discriminator 1
 196 006a 2846     		mov	r0, r5
 197 006c FFF7FEFF 		bl	lv_obj_get_design_cb
 198              	.LVL20:
 199 0070 7060     		str	r0, [r6, #4]
 200 0072 D6E7     		b	.L15
 201              	.L24:
 202              		.align	2
 203              	.L23:
 204 0074 00000000 		.word	.LANCHOR0
 205 0078 00000000 		.word	lv_canvas_signal
 206              		.cfi_endproc
 207              	.LFE35:
 208              		.size	lv_canvas_create, .-lv_canvas_create
 209              		.section	.text.lv_canvas_set_buffer,"ax",%progbits
 210              		.align	2
 211              		.global	lv_canvas_set_buffer
 212              		.thumb
 213              		.thumb_func
 214              		.type	lv_canvas_set_buffer, %function
 215              	lv_canvas_set_buffer:
 216              	.LFB36:
 115:..\..\..\lvgl\version_6.1.2\lvgl\src\lv_objx/lv_canvas.c ****     LV_ASSERT_OBJ(canvas, LV_OBJX_NAME);
 217              		.loc 1 115 0
 218              		.cfi_startproc
 219              		@ args = 4, pretend = 0, frame = 0
 220              		@ frame_needed = 0, uses_anonymous_args = 0
 221              	.LVL21:
 222 0000 2DE9F843 		push	{r3, r4, r5, r6, r7, r8, r9, lr}
 223              		.cfi_def_cfa_offset 32
 224              		.cfi_offset 3, -32
 225              		.cfi_offset 4, -28
 226              		.cfi_offset 5, -24
 227              		.cfi_offset 6, -20
 228              		.cfi_offset 7, -16
 229              		.cfi_offset 8, -12
 230              		.cfi_offset 9, -8
 231              		.cfi_offset 14, -4
 115:..\..\..\lvgl\version_6.1.2\lvgl\src\lv_objx/lv_canvas.c ****     LV_ASSERT_OBJ(canvas, LV_OBJX_NAME);
 232              		.loc 1 115 0
 233 0004 8946     		mov	r9, r1
 234 0006 1646     		mov	r6, r2
 235 0008 1D46     		mov	r5, r3
 236 000a 9DF82080 		ldrb	r8, [sp, #32]	@ zero_extendqisi2
 237 000e 0746     		mov	r7, r0
 119:..\..\..\lvgl\version_6.1.2\lvgl\src\lv_objx/lv_canvas.c **** 
 238              		.loc 1 119 0
 239 0010 FFF7FEFF 		bl	lv_obj_get_ext_attr
 240              	.LVL22:
 241 0014 0446     		mov	r4, r0
ARM GAS  C:\Users\pearlstl\AppData\Local\Temp\ccQFxYtd.s 			page 21


 242              	.LVL23:
 125:..\..\..\lvgl\version_6.1.2\lvgl\src\lv_objx/lv_canvas.c **** 
 243              		.loc 1 125 0
 244 0016 4046     		mov	r0, r8
 245              	.LVL24:
 121:..\..\..\lvgl\version_6.1.2\lvgl\src\lv_objx/lv_canvas.c ****     ext->dsc.header.w  = w;
 246              		.loc 1 121 0
 247 0018 237C     		ldrb	r3, [r4, #16]	@ zero_extendqisi2
 124:..\..\..\lvgl\version_6.1.2\lvgl\src\lv_objx/lv_canvas.c ****     ext->dsc.data_size = (lv_img_color_format_get_px_size(cf) * w * h) / 8;
 248              		.loc 1 124 0
 249 001a C4F81890 		str	r9, [r4, #24]
 121:..\..\..\lvgl\version_6.1.2\lvgl\src\lv_objx/lv_canvas.c ****     ext->dsc.header.w  = w;
 250              		.loc 1 121 0
 251 001e 68F30403 		bfi	r3, r8, #0, #5
 252 0022 2374     		strb	r3, [r4, #16]
 122:..\..\..\lvgl\version_6.1.2\lvgl\src\lv_objx/lv_canvas.c ****     ext->dsc.header.h  = h;
 253              		.loc 1 122 0
 254 0024 2369     		ldr	r3, [r4, #16]
 255 0026 66F39423 		bfi	r3, r6, #10, #11
 123:..\..\..\lvgl\version_6.1.2\lvgl\src\lv_objx/lv_canvas.c ****     ext->dsc.data      = buf;
 256              		.loc 1 123 0
 257 002a 1A0C     		lsrs	r2, r3, #16
 258 002c 65F34F12 		bfi	r2, r5, #5, #11
 259              	.LVL25:
 122:..\..\..\lvgl\version_6.1.2\lvgl\src\lv_objx/lv_canvas.c ****     ext->dsc.header.h  = h;
 260              		.loc 1 122 0
 261 0030 2361     		str	r3, [r4, #16]
 123:..\..\..\lvgl\version_6.1.2\lvgl\src\lv_objx/lv_canvas.c ****     ext->dsc.data      = buf;
 262              		.loc 1 123 0
 263 0032 6282     		strh	r2, [r4, #18]	@ movhi
 125:..\..\..\lvgl\version_6.1.2\lvgl\src\lv_objx/lv_canvas.c **** 
 264              		.loc 1 125 0
 265 0034 FFF7FEFF 		bl	lv_img_color_format_get_px_size
 266              	.LVL26:
 267 0038 10FB06F3 		smulbb	r3, r0, r6
 268 003c 05FB03F3 		mul	r3, r5, r3
 269 0040 002B     		cmp	r3, #0
 270 0042 B8BF     		it	lt
 271 0044 0733     		addlt	r3, r3, #7
 272 0046 DB10     		asrs	r3, r3, #3
 273 0048 6361     		str	r3, [r4, #20]
 127:..\..\..\lvgl\version_6.1.2\lvgl\src\lv_objx/lv_canvas.c **** }
 274              		.loc 1 127 0
 275 004a 04F11001 		add	r1, r4, #16
 276 004e 3846     		mov	r0, r7
 128:..\..\..\lvgl\version_6.1.2\lvgl\src\lv_objx/lv_canvas.c **** 
 277              		.loc 1 128 0
 278 0050 BDE8F843 		pop	{r3, r4, r5, r6, r7, r8, r9, lr}
 279              		.cfi_restore 14
 280              		.cfi_restore 9
 281              		.cfi_restore 8
 282              		.cfi_restore 7
 283              		.cfi_restore 6
 284              		.cfi_restore 5
 285              		.cfi_restore 4
 286              		.cfi_restore 3
 287              		.cfi_def_cfa_offset 0
ARM GAS  C:\Users\pearlstl\AppData\Local\Temp\ccQFxYtd.s 			page 22


 288              	.LVL27:
 127:..\..\..\lvgl\version_6.1.2\lvgl\src\lv_objx/lv_canvas.c **** }
 289              		.loc 1 127 0
 290 0054 FFF7FEBF 		b	lv_img_set_src
 291              	.LVL28:
 292              		.cfi_endproc
 293              	.LFE36:
 294              		.size	lv_canvas_set_buffer, .-lv_canvas_set_buffer
 295              		.section	.text.lv_canvas_set_px,"ax",%progbits
 296              		.align	2
 297              		.global	lv_canvas_set_px
 298              		.thumb
 299              		.thumb_func
 300              		.type	lv_canvas_set_px, %function
 301              	lv_canvas_set_px:
 302              	.LFB37:
 138:..\..\..\lvgl\version_6.1.2\lvgl\src\lv_objx/lv_canvas.c ****     LV_ASSERT_OBJ(canvas, LV_OBJX_NAME);
 303              		.loc 1 138 0
 304              		.cfi_startproc
 305              		@ args = 0, pretend = 0, frame = 0
 306              		@ frame_needed = 0, uses_anonymous_args = 0
 307              	.LVL29:
 308 0000 F8B5     		push	{r3, r4, r5, r6, r7, lr}
 309              		.cfi_def_cfa_offset 24
 310              		.cfi_offset 3, -24
 311              		.cfi_offset 4, -20
 312              		.cfi_offset 5, -16
 313              		.cfi_offset 6, -12
 314              		.cfi_offset 7, -8
 315              		.cfi_offset 14, -4
 138:..\..\..\lvgl\version_6.1.2\lvgl\src\lv_objx/lv_canvas.c ****     LV_ASSERT_OBJ(canvas, LV_OBJX_NAME);
 316              		.loc 1 138 0
 317 0002 0D46     		mov	r5, r1
 318 0004 1646     		mov	r6, r2
 319 0006 1F46     		mov	r7, r3
 320 0008 0446     		mov	r4, r0
 141:..\..\..\lvgl\version_6.1.2\lvgl\src\lv_objx/lv_canvas.c **** 
 321              		.loc 1 141 0
 322 000a FFF7FEFF 		bl	lv_obj_get_ext_attr
 323              	.LVL30:
 143:..\..\..\lvgl\version_6.1.2\lvgl\src\lv_objx/lv_canvas.c ****     lv_obj_invalidate(canvas);
 324              		.loc 1 143 0
 325 000e 3B46     		mov	r3, r7
 326 0010 3246     		mov	r2, r6
 327 0012 2946     		mov	r1, r5
 328 0014 1030     		adds	r0, r0, #16
 329              	.LVL31:
 330 0016 FFF7FEFF 		bl	lv_img_buf_set_px_color
 331              	.LVL32:
 144:..\..\..\lvgl\version_6.1.2\lvgl\src\lv_objx/lv_canvas.c **** }
 332              		.loc 1 144 0
 333 001a 2046     		mov	r0, r4
 145:..\..\..\lvgl\version_6.1.2\lvgl\src\lv_objx/lv_canvas.c **** 
 334              		.loc 1 145 0
 335 001c BDE8F840 		pop	{r3, r4, r5, r6, r7, lr}
 336              		.cfi_restore 14
 337              		.cfi_restore 7
ARM GAS  C:\Users\pearlstl\AppData\Local\Temp\ccQFxYtd.s 			page 23


 338              		.cfi_restore 6
 339              		.cfi_restore 5
 340              		.cfi_restore 4
 341              		.cfi_restore 3
 342              		.cfi_def_cfa_offset 0
 343              	.LVL33:
 144:..\..\..\lvgl\version_6.1.2\lvgl\src\lv_objx/lv_canvas.c **** }
 344              		.loc 1 144 0
 345 0020 FFF7FEBF 		b	lv_obj_invalidate
 346              	.LVL34:
 347              		.cfi_endproc
 348              	.LFE37:
 349              		.size	lv_canvas_set_px, .-lv_canvas_set_px
 350              		.section	.text.lv_canvas_set_palette,"ax",%progbits
 351              		.align	2
 352              		.global	lv_canvas_set_palette
 353              		.thumb
 354              		.thumb_func
 355              		.type	lv_canvas_set_palette, %function
 356              	lv_canvas_set_palette:
 357              	.LFB38:
 158:..\..\..\lvgl\version_6.1.2\lvgl\src\lv_objx/lv_canvas.c ****     LV_ASSERT_OBJ(canvas, LV_OBJX_NAME);
 358              		.loc 1 158 0
 359              		.cfi_startproc
 360              		@ args = 0, pretend = 0, frame = 0
 361              		@ frame_needed = 0, uses_anonymous_args = 0
 362              	.LVL35:
 363 0000 70B5     		push	{r4, r5, r6, lr}
 364              		.cfi_def_cfa_offset 16
 365              		.cfi_offset 4, -16
 366              		.cfi_offset 5, -12
 367              		.cfi_offset 6, -8
 368              		.cfi_offset 14, -4
 158:..\..\..\lvgl\version_6.1.2\lvgl\src\lv_objx/lv_canvas.c ****     LV_ASSERT_OBJ(canvas, LV_OBJX_NAME);
 369              		.loc 1 158 0
 370 0002 0D46     		mov	r5, r1
 371 0004 1646     		mov	r6, r2
 372 0006 0446     		mov	r4, r0
 161:..\..\..\lvgl\version_6.1.2\lvgl\src\lv_objx/lv_canvas.c **** 
 373              		.loc 1 161 0
 374 0008 FFF7FEFF 		bl	lv_obj_get_ext_attr
 375              	.LVL36:
 163:..\..\..\lvgl\version_6.1.2\lvgl\src\lv_objx/lv_canvas.c ****     lv_obj_invalidate(canvas);
 376              		.loc 1 163 0
 377 000c 3246     		mov	r2, r6
 378 000e 2946     		mov	r1, r5
 379 0010 1030     		adds	r0, r0, #16
 380              	.LVL37:
 381 0012 FFF7FEFF 		bl	lv_img_buf_set_palette
 382              	.LVL38:
 164:..\..\..\lvgl\version_6.1.2\lvgl\src\lv_objx/lv_canvas.c **** }
 383              		.loc 1 164 0
 384 0016 2046     		mov	r0, r4
 165:..\..\..\lvgl\version_6.1.2\lvgl\src\lv_objx/lv_canvas.c **** 
 385              		.loc 1 165 0
 386 0018 BDE87040 		pop	{r4, r5, r6, lr}
 387              		.cfi_restore 14
ARM GAS  C:\Users\pearlstl\AppData\Local\Temp\ccQFxYtd.s 			page 24


 388              		.cfi_restore 6
 389              		.cfi_restore 5
 390              		.cfi_restore 4
 391              		.cfi_def_cfa_offset 0
 392              	.LVL39:
 164:..\..\..\lvgl\version_6.1.2\lvgl\src\lv_objx/lv_canvas.c **** }
 393              		.loc 1 164 0
 394 001c FFF7FEBF 		b	lv_obj_invalidate
 395              	.LVL40:
 396              		.cfi_endproc
 397              	.LFE38:
 398              		.size	lv_canvas_set_palette, .-lv_canvas_set_palette
 399              		.section	.text.lv_canvas_set_style,"ax",%progbits
 400              		.align	2
 401              		.global	lv_canvas_set_style
 402              		.thumb
 403              		.thumb_func
 404              		.type	lv_canvas_set_style, %function
 405              	lv_canvas_set_style:
 406              	.LFB39:
 174:..\..\..\lvgl\version_6.1.2\lvgl\src\lv_objx/lv_canvas.c ****     LV_ASSERT_OBJ(canvas, LV_OBJX_NAME);
 407              		.loc 1 174 0
 408              		.cfi_startproc
 409              		@ args = 0, pretend = 0, frame = 0
 410              		@ frame_needed = 0, uses_anonymous_args = 0
 411              		@ link register save eliminated.
 412              	.LVL41:
 177:..\..\..\lvgl\version_6.1.2\lvgl\src\lv_objx/lv_canvas.c ****         case LV_CANVAS_STYLE_MAIN: lv_img_set_style(canvas, LV_IMG_STYLE_MAIN, style); break;
 413              		.loc 1 177 0
 414 0000 01B1     		cbz	r1, .L36
 415 0002 7047     		bx	lr
 416              	.L36:
 417              	.LVL42:
 418              	.LBB63:
 419              	.LBB64:
 420              		.file 2 "..\\..\\..\\lvgl\\version_6.1.2\\lvgl\\src\\lv_objx\\../lv_objx/lv_img.h"
   1:..\..\..\lvgl\version_6.1.2\lvgl\src\lv_objx\../lv_objx/lv_img.h **** /**
   2:..\..\..\lvgl\version_6.1.2\lvgl\src\lv_objx\../lv_objx/lv_img.h ****  * @file lv_img.h
   3:..\..\..\lvgl\version_6.1.2\lvgl\src\lv_objx\../lv_objx/lv_img.h ****  *
   4:..\..\..\lvgl\version_6.1.2\lvgl\src\lv_objx\../lv_objx/lv_img.h ****  */
   5:..\..\..\lvgl\version_6.1.2\lvgl\src\lv_objx\../lv_objx/lv_img.h **** 
   6:..\..\..\lvgl\version_6.1.2\lvgl\src\lv_objx\../lv_objx/lv_img.h **** #ifndef LV_IMG_H
   7:..\..\..\lvgl\version_6.1.2\lvgl\src\lv_objx\../lv_objx/lv_img.h **** #define LV_IMG_H
   8:..\..\..\lvgl\version_6.1.2\lvgl\src\lv_objx\../lv_objx/lv_img.h **** 
   9:..\..\..\lvgl\version_6.1.2\lvgl\src\lv_objx\../lv_objx/lv_img.h **** #ifdef __cplusplus
  10:..\..\..\lvgl\version_6.1.2\lvgl\src\lv_objx\../lv_objx/lv_img.h **** extern "C" {
  11:..\..\..\lvgl\version_6.1.2\lvgl\src\lv_objx\../lv_objx/lv_img.h **** #endif
  12:..\..\..\lvgl\version_6.1.2\lvgl\src\lv_objx\../lv_objx/lv_img.h **** 
  13:..\..\..\lvgl\version_6.1.2\lvgl\src\lv_objx\../lv_objx/lv_img.h **** /*********************
  14:..\..\..\lvgl\version_6.1.2\lvgl\src\lv_objx\../lv_objx/lv_img.h ****  *      INCLUDES
  15:..\..\..\lvgl\version_6.1.2\lvgl\src\lv_objx\../lv_objx/lv_img.h ****  *********************/
  16:..\..\..\lvgl\version_6.1.2\lvgl\src\lv_objx\../lv_objx/lv_img.h **** #ifdef LV_CONF_INCLUDE_SIMPLE
  17:..\..\..\lvgl\version_6.1.2\lvgl\src\lv_objx\../lv_objx/lv_img.h **** #include "lv_conf.h"
  18:..\..\..\lvgl\version_6.1.2\lvgl\src\lv_objx\../lv_objx/lv_img.h **** #else
  19:..\..\..\lvgl\version_6.1.2\lvgl\src\lv_objx\../lv_objx/lv_img.h **** #include "../../../lv_conf.h"
  20:..\..\..\lvgl\version_6.1.2\lvgl\src\lv_objx\../lv_objx/lv_img.h **** #endif
  21:..\..\..\lvgl\version_6.1.2\lvgl\src\lv_objx\../lv_objx/lv_img.h **** 
ARM GAS  C:\Users\pearlstl\AppData\Local\Temp\ccQFxYtd.s 			page 25


  22:..\..\..\lvgl\version_6.1.2\lvgl\src\lv_objx\../lv_objx/lv_img.h **** #if LV_USE_IMG != 0
  23:..\..\..\lvgl\version_6.1.2\lvgl\src\lv_objx\../lv_objx/lv_img.h **** 
  24:..\..\..\lvgl\version_6.1.2\lvgl\src\lv_objx\../lv_objx/lv_img.h **** #include "../lv_core/lv_obj.h"
  25:..\..\..\lvgl\version_6.1.2\lvgl\src\lv_objx\../lv_objx/lv_img.h **** #include "../lv_misc/lv_fs.h"
  26:..\..\..\lvgl\version_6.1.2\lvgl\src\lv_objx\../lv_objx/lv_img.h **** #include "lv_label.h"
  27:..\..\..\lvgl\version_6.1.2\lvgl\src\lv_objx\../lv_objx/lv_img.h **** #include "../lv_draw/lv_draw.h"
  28:..\..\..\lvgl\version_6.1.2\lvgl\src\lv_objx\../lv_objx/lv_img.h **** 
  29:..\..\..\lvgl\version_6.1.2\lvgl\src\lv_objx\../lv_objx/lv_img.h **** /*********************
  30:..\..\..\lvgl\version_6.1.2\lvgl\src\lv_objx\../lv_objx/lv_img.h ****  *      DEFINES
  31:..\..\..\lvgl\version_6.1.2\lvgl\src\lv_objx\../lv_objx/lv_img.h ****  *********************/
  32:..\..\..\lvgl\version_6.1.2\lvgl\src\lv_objx\../lv_objx/lv_img.h **** 
  33:..\..\..\lvgl\version_6.1.2\lvgl\src\lv_objx\../lv_objx/lv_img.h **** /**********************
  34:..\..\..\lvgl\version_6.1.2\lvgl\src\lv_objx\../lv_objx/lv_img.h ****  *      TYPEDEFS
  35:..\..\..\lvgl\version_6.1.2\lvgl\src\lv_objx\../lv_objx/lv_img.h ****  **********************/
  36:..\..\..\lvgl\version_6.1.2\lvgl\src\lv_objx\../lv_objx/lv_img.h **** /*Data of image*/
  37:..\..\..\lvgl\version_6.1.2\lvgl\src\lv_objx\../lv_objx/lv_img.h **** typedef struct
  38:..\..\..\lvgl\version_6.1.2\lvgl\src\lv_objx\../lv_objx/lv_img.h **** {
  39:..\..\..\lvgl\version_6.1.2\lvgl\src\lv_objx\../lv_objx/lv_img.h ****     /*No inherited ext. because inherited from the base object*/ /*Ext. of ancestor*/
  40:..\..\..\lvgl\version_6.1.2\lvgl\src\lv_objx\../lv_objx/lv_img.h ****     /*New data for this type */
  41:..\..\..\lvgl\version_6.1.2\lvgl\src\lv_objx\../lv_objx/lv_img.h ****     const void * src; /*Image source: Pointer to an array or a file or a symbol*/
  42:..\..\..\lvgl\version_6.1.2\lvgl\src\lv_objx\../lv_objx/lv_img.h ****     lv_point_t offset;
  43:..\..\..\lvgl\version_6.1.2\lvgl\src\lv_objx\../lv_objx/lv_img.h ****     lv_coord_t w;          /*Width of the image (Handled by the library)*/
  44:..\..\..\lvgl\version_6.1.2\lvgl\src\lv_objx\../lv_objx/lv_img.h ****     lv_coord_t h;          /*Height of the image (Handled by the library)*/
  45:..\..\..\lvgl\version_6.1.2\lvgl\src\lv_objx\../lv_objx/lv_img.h ****     uint8_t src_type : 2;  /*See: lv_img_src_t*/
  46:..\..\..\lvgl\version_6.1.2\lvgl\src\lv_objx\../lv_objx/lv_img.h ****     uint8_t auto_size : 1; /*1: automatically set the object size to the image size*/
  47:..\..\..\lvgl\version_6.1.2\lvgl\src\lv_objx\../lv_objx/lv_img.h ****     uint8_t cf : 5;        /*Color format from `lv_img_color_format_t`*/
  48:..\..\..\lvgl\version_6.1.2\lvgl\src\lv_objx\../lv_objx/lv_img.h **** } lv_img_ext_t;
  49:..\..\..\lvgl\version_6.1.2\lvgl\src\lv_objx\../lv_objx/lv_img.h **** 
  50:..\..\..\lvgl\version_6.1.2\lvgl\src\lv_objx\../lv_objx/lv_img.h **** /*Styles*/
  51:..\..\..\lvgl\version_6.1.2\lvgl\src\lv_objx\../lv_objx/lv_img.h **** enum {
  52:..\..\..\lvgl\version_6.1.2\lvgl\src\lv_objx\../lv_objx/lv_img.h ****     LV_IMG_STYLE_MAIN,
  53:..\..\..\lvgl\version_6.1.2\lvgl\src\lv_objx\../lv_objx/lv_img.h **** };
  54:..\..\..\lvgl\version_6.1.2\lvgl\src\lv_objx\../lv_objx/lv_img.h **** typedef uint8_t lv_img_style_t;
  55:..\..\..\lvgl\version_6.1.2\lvgl\src\lv_objx\../lv_objx/lv_img.h **** 
  56:..\..\..\lvgl\version_6.1.2\lvgl\src\lv_objx\../lv_objx/lv_img.h **** /**********************
  57:..\..\..\lvgl\version_6.1.2\lvgl\src\lv_objx\../lv_objx/lv_img.h ****  * GLOBAL PROTOTYPES
  58:..\..\..\lvgl\version_6.1.2\lvgl\src\lv_objx\../lv_objx/lv_img.h ****  **********************/
  59:..\..\..\lvgl\version_6.1.2\lvgl\src\lv_objx\../lv_objx/lv_img.h **** 
  60:..\..\..\lvgl\version_6.1.2\lvgl\src\lv_objx\../lv_objx/lv_img.h **** /**
  61:..\..\..\lvgl\version_6.1.2\lvgl\src\lv_objx\../lv_objx/lv_img.h ****  * Create an image objects
  62:..\..\..\lvgl\version_6.1.2\lvgl\src\lv_objx\../lv_objx/lv_img.h ****  * @param par pointer to an object, it will be the parent of the new button
  63:..\..\..\lvgl\version_6.1.2\lvgl\src\lv_objx\../lv_objx/lv_img.h ****  * @param copy pointer to a image object, if not NULL then the new object will be copied from it
  64:..\..\..\lvgl\version_6.1.2\lvgl\src\lv_objx\../lv_objx/lv_img.h ****  * @return pointer to the created image
  65:..\..\..\lvgl\version_6.1.2\lvgl\src\lv_objx\../lv_objx/lv_img.h ****  */
  66:..\..\..\lvgl\version_6.1.2\lvgl\src\lv_objx\../lv_objx/lv_img.h **** lv_obj_t * lv_img_create(lv_obj_t * par, const lv_obj_t * copy);
  67:..\..\..\lvgl\version_6.1.2\lvgl\src\lv_objx\../lv_objx/lv_img.h **** 
  68:..\..\..\lvgl\version_6.1.2\lvgl\src\lv_objx\../lv_objx/lv_img.h **** /*=====================
  69:..\..\..\lvgl\version_6.1.2\lvgl\src\lv_objx\../lv_objx/lv_img.h ****  * Setter functions
  70:..\..\..\lvgl\version_6.1.2\lvgl\src\lv_objx\../lv_objx/lv_img.h ****  *====================*/
  71:..\..\..\lvgl\version_6.1.2\lvgl\src\lv_objx\../lv_objx/lv_img.h **** 
  72:..\..\..\lvgl\version_6.1.2\lvgl\src\lv_objx\../lv_objx/lv_img.h **** /**
  73:..\..\..\lvgl\version_6.1.2\lvgl\src\lv_objx\../lv_objx/lv_img.h ****  * Set the pixel map to display by the image
  74:..\..\..\lvgl\version_6.1.2\lvgl\src\lv_objx\../lv_objx/lv_img.h ****  * @param img pointer to an image object
  75:..\..\..\lvgl\version_6.1.2\lvgl\src\lv_objx\../lv_objx/lv_img.h ****  * @param data the image data
  76:..\..\..\lvgl\version_6.1.2\lvgl\src\lv_objx\../lv_objx/lv_img.h ****  */
  77:..\..\..\lvgl\version_6.1.2\lvgl\src\lv_objx\../lv_objx/lv_img.h **** void lv_img_set_src(lv_obj_t * img, const void * src_img);
  78:..\..\..\lvgl\version_6.1.2\lvgl\src\lv_objx\../lv_objx/lv_img.h **** 
ARM GAS  C:\Users\pearlstl\AppData\Local\Temp\ccQFxYtd.s 			page 26


  79:..\..\..\lvgl\version_6.1.2\lvgl\src\lv_objx\../lv_objx/lv_img.h **** /**
  80:..\..\..\lvgl\version_6.1.2\lvgl\src\lv_objx\../lv_objx/lv_img.h ****  * Enable the auto size feature.
  81:..\..\..\lvgl\version_6.1.2\lvgl\src\lv_objx\../lv_objx/lv_img.h ****  * If enabled the object size will be same as the picture size.
  82:..\..\..\lvgl\version_6.1.2\lvgl\src\lv_objx\../lv_objx/lv_img.h ****  * @param img pointer to an image
  83:..\..\..\lvgl\version_6.1.2\lvgl\src\lv_objx\../lv_objx/lv_img.h ****  * @param en true: auto size enable, false: auto size disable
  84:..\..\..\lvgl\version_6.1.2\lvgl\src\lv_objx\../lv_objx/lv_img.h ****  */
  85:..\..\..\lvgl\version_6.1.2\lvgl\src\lv_objx\../lv_objx/lv_img.h **** void lv_img_set_auto_size(lv_obj_t * img, bool autosize_en);
  86:..\..\..\lvgl\version_6.1.2\lvgl\src\lv_objx\../lv_objx/lv_img.h **** 
  87:..\..\..\lvgl\version_6.1.2\lvgl\src\lv_objx\../lv_objx/lv_img.h **** /**
  88:..\..\..\lvgl\version_6.1.2\lvgl\src\lv_objx\../lv_objx/lv_img.h ****  * Set an offset for the source of an image.
  89:..\..\..\lvgl\version_6.1.2\lvgl\src\lv_objx\../lv_objx/lv_img.h ****  * so the image will be displayed from the new origin.
  90:..\..\..\lvgl\version_6.1.2\lvgl\src\lv_objx\../lv_objx/lv_img.h ****  * @param img pointer to an image
  91:..\..\..\lvgl\version_6.1.2\lvgl\src\lv_objx\../lv_objx/lv_img.h ****  * @param x: the new offset along x axis.
  92:..\..\..\lvgl\version_6.1.2\lvgl\src\lv_objx\../lv_objx/lv_img.h ****  */
  93:..\..\..\lvgl\version_6.1.2\lvgl\src\lv_objx\../lv_objx/lv_img.h **** void lv_img_set_offset_x(lv_obj_t * img, lv_coord_t x);
  94:..\..\..\lvgl\version_6.1.2\lvgl\src\lv_objx\../lv_objx/lv_img.h **** 
  95:..\..\..\lvgl\version_6.1.2\lvgl\src\lv_objx\../lv_objx/lv_img.h **** /**
  96:..\..\..\lvgl\version_6.1.2\lvgl\src\lv_objx\../lv_objx/lv_img.h ****  * Set an offset for the source of an image.
  97:..\..\..\lvgl\version_6.1.2\lvgl\src\lv_objx\../lv_objx/lv_img.h ****  * so the image will be displayed from the new origin.
  98:..\..\..\lvgl\version_6.1.2\lvgl\src\lv_objx\../lv_objx/lv_img.h ****  * @param img pointer to an image
  99:..\..\..\lvgl\version_6.1.2\lvgl\src\lv_objx\../lv_objx/lv_img.h ****  * @param y: the new offset along y axis.
 100:..\..\..\lvgl\version_6.1.2\lvgl\src\lv_objx\../lv_objx/lv_img.h ****  */
 101:..\..\..\lvgl\version_6.1.2\lvgl\src\lv_objx\../lv_objx/lv_img.h **** void lv_img_set_offset_y(lv_obj_t * img, lv_coord_t y);
 102:..\..\..\lvgl\version_6.1.2\lvgl\src\lv_objx\../lv_objx/lv_img.h **** 
 103:..\..\..\lvgl\version_6.1.2\lvgl\src\lv_objx\../lv_objx/lv_img.h **** /**
 104:..\..\..\lvgl\version_6.1.2\lvgl\src\lv_objx\../lv_objx/lv_img.h ****  * Set the style of an image
 105:..\..\..\lvgl\version_6.1.2\lvgl\src\lv_objx\../lv_objx/lv_img.h ****  * @param img pointer to an image object
 106:..\..\..\lvgl\version_6.1.2\lvgl\src\lv_objx\../lv_objx/lv_img.h ****  * @param type which style should be set (can be only `LV_IMG_STYLE_MAIN`)
 107:..\..\..\lvgl\version_6.1.2\lvgl\src\lv_objx\../lv_objx/lv_img.h ****  * @param style pointer to a style
 108:..\..\..\lvgl\version_6.1.2\lvgl\src\lv_objx\../lv_objx/lv_img.h ****  */
 109:..\..\..\lvgl\version_6.1.2\lvgl\src\lv_objx\../lv_objx/lv_img.h **** static inline void lv_img_set_style(lv_obj_t * img, lv_img_style_t type, const lv_style_t * style)
 110:..\..\..\lvgl\version_6.1.2\lvgl\src\lv_objx\../lv_objx/lv_img.h **** {
 111:..\..\..\lvgl\version_6.1.2\lvgl\src\lv_objx\../lv_objx/lv_img.h ****     (void)type; /*Unused*/
 112:..\..\..\lvgl\version_6.1.2\lvgl\src\lv_objx\../lv_objx/lv_img.h ****     lv_obj_set_style(img, style);
 421              		.loc 2 112 0
 422 0004 1146     		mov	r1, r2
 423              	.LVL43:
 424 0006 FFF7FEBF 		b	lv_obj_set_style
 425              	.LVL44:
 426              	.LBE64:
 427              	.LBE63:
 428              		.cfi_endproc
 429              	.LFE39:
 430              		.size	lv_canvas_set_style, .-lv_canvas_set_style
 431 000a 00BF     		.section	.text.lv_canvas_get_px,"ax",%progbits
 432              		.align	2
 433              		.global	lv_canvas_get_px
 434              		.thumb
 435              		.thumb_func
 436              		.type	lv_canvas_get_px, %function
 437              	lv_canvas_get_px:
 438              	.LFB40:
 194:..\..\..\lvgl\version_6.1.2\lvgl\src\lv_objx/lv_canvas.c ****     LV_ASSERT_OBJ(canvas, LV_OBJX_NAME);
 439              		.loc 1 194 0
 440              		.cfi_startproc
 441              		@ args = 0, pretend = 0, frame = 0
 442              		@ frame_needed = 0, uses_anonymous_args = 0
ARM GAS  C:\Users\pearlstl\AppData\Local\Temp\ccQFxYtd.s 			page 27


 443              	.LVL45:
 444 0000 F8B5     		push	{r3, r4, r5, r6, r7, lr}
 445              		.cfi_def_cfa_offset 24
 446              		.cfi_offset 3, -24
 447              		.cfi_offset 4, -20
 448              		.cfi_offset 5, -16
 449              		.cfi_offset 6, -12
 450              		.cfi_offset 7, -8
 451              		.cfi_offset 14, -4
 194:..\..\..\lvgl\version_6.1.2\lvgl\src\lv_objx/lv_canvas.c ****     LV_ASSERT_OBJ(canvas, LV_OBJX_NAME);
 452              		.loc 1 194 0
 453 0002 0D46     		mov	r5, r1
 454 0004 1646     		mov	r6, r2
 455 0006 0746     		mov	r7, r0
 197:..\..\..\lvgl\version_6.1.2\lvgl\src\lv_objx/lv_canvas.c ****     const lv_style_t * style = lv_canvas_get_style(canvas, LV_CANVAS_STYLE_MAIN);
 456              		.loc 1 197 0
 457 0008 FFF7FEFF 		bl	lv_obj_get_ext_attr
 458              	.LVL46:
 459 000c 0446     		mov	r4, r0
 460              	.LVL47:
 461              	.LBB65:
 462              	.LBB66:
 463              	.LBB67:
 464              	.LBB68:
 113:..\..\..\lvgl\version_6.1.2\lvgl\src\lv_objx\../lv_objx/lv_img.h **** }
 114:..\..\..\lvgl\version_6.1.2\lvgl\src\lv_objx\../lv_objx/lv_img.h **** 
 115:..\..\..\lvgl\version_6.1.2\lvgl\src\lv_objx\../lv_objx/lv_img.h **** /*=====================
 116:..\..\..\lvgl\version_6.1.2\lvgl\src\lv_objx\../lv_objx/lv_img.h ****  * Getter functions
 117:..\..\..\lvgl\version_6.1.2\lvgl\src\lv_objx\../lv_objx/lv_img.h ****  *====================*/
 118:..\..\..\lvgl\version_6.1.2\lvgl\src\lv_objx\../lv_objx/lv_img.h **** 
 119:..\..\..\lvgl\version_6.1.2\lvgl\src\lv_objx\../lv_objx/lv_img.h **** /**
 120:..\..\..\lvgl\version_6.1.2\lvgl\src\lv_objx\../lv_objx/lv_img.h ****  * Get the source of the image
 121:..\..\..\lvgl\version_6.1.2\lvgl\src\lv_objx\../lv_objx/lv_img.h ****  * @param img pointer to an image object
 122:..\..\..\lvgl\version_6.1.2\lvgl\src\lv_objx\../lv_objx/lv_img.h ****  * @return the image source (symbol, file name or C array)
 123:..\..\..\lvgl\version_6.1.2\lvgl\src\lv_objx\../lv_objx/lv_img.h ****  */
 124:..\..\..\lvgl\version_6.1.2\lvgl\src\lv_objx\../lv_objx/lv_img.h **** const void * lv_img_get_src(lv_obj_t * img);
 125:..\..\..\lvgl\version_6.1.2\lvgl\src\lv_objx\../lv_objx/lv_img.h **** 
 126:..\..\..\lvgl\version_6.1.2\lvgl\src\lv_objx\../lv_objx/lv_img.h **** /**
 127:..\..\..\lvgl\version_6.1.2\lvgl\src\lv_objx\../lv_objx/lv_img.h ****  * Get the name of the file set for an image
 128:..\..\..\lvgl\version_6.1.2\lvgl\src\lv_objx\../lv_objx/lv_img.h ****  * @param img pointer to an image
 129:..\..\..\lvgl\version_6.1.2\lvgl\src\lv_objx\../lv_objx/lv_img.h ****  * @return file name
 130:..\..\..\lvgl\version_6.1.2\lvgl\src\lv_objx\../lv_objx/lv_img.h ****  */
 131:..\..\..\lvgl\version_6.1.2\lvgl\src\lv_objx\../lv_objx/lv_img.h **** const char * lv_img_get_file_name(const lv_obj_t * img);
 132:..\..\..\lvgl\version_6.1.2\lvgl\src\lv_objx\../lv_objx/lv_img.h **** 
 133:..\..\..\lvgl\version_6.1.2\lvgl\src\lv_objx\../lv_objx/lv_img.h **** /**
 134:..\..\..\lvgl\version_6.1.2\lvgl\src\lv_objx\../lv_objx/lv_img.h ****  * Get the auto size enable attribute
 135:..\..\..\lvgl\version_6.1.2\lvgl\src\lv_objx\../lv_objx/lv_img.h ****  * @param img pointer to an image
 136:..\..\..\lvgl\version_6.1.2\lvgl\src\lv_objx\../lv_objx/lv_img.h ****  * @return true: auto size is enabled, false: auto size is disabled
 137:..\..\..\lvgl\version_6.1.2\lvgl\src\lv_objx\../lv_objx/lv_img.h ****  */
 138:..\..\..\lvgl\version_6.1.2\lvgl\src\lv_objx\../lv_objx/lv_img.h **** bool lv_img_get_auto_size(const lv_obj_t * img);
 139:..\..\..\lvgl\version_6.1.2\lvgl\src\lv_objx\../lv_objx/lv_img.h **** 
 140:..\..\..\lvgl\version_6.1.2\lvgl\src\lv_objx\../lv_objx/lv_img.h **** /**
 141:..\..\..\lvgl\version_6.1.2\lvgl\src\lv_objx\../lv_objx/lv_img.h ****  * Get the offset.x attribute of the img object.
 142:..\..\..\lvgl\version_6.1.2\lvgl\src\lv_objx\../lv_objx/lv_img.h ****  * @param img pointer to an image
 143:..\..\..\lvgl\version_6.1.2\lvgl\src\lv_objx\../lv_objx/lv_img.h ****  * @return offset.x value.
 144:..\..\..\lvgl\version_6.1.2\lvgl\src\lv_objx\../lv_objx/lv_img.h ****  */
 145:..\..\..\lvgl\version_6.1.2\lvgl\src\lv_objx\../lv_objx/lv_img.h **** lv_coord_t lv_img_get_offset_x(lv_obj_t * img);
ARM GAS  C:\Users\pearlstl\AppData\Local\Temp\ccQFxYtd.s 			page 28


 146:..\..\..\lvgl\version_6.1.2\lvgl\src\lv_objx\../lv_objx/lv_img.h **** 
 147:..\..\..\lvgl\version_6.1.2\lvgl\src\lv_objx\../lv_objx/lv_img.h **** /**
 148:..\..\..\lvgl\version_6.1.2\lvgl\src\lv_objx\../lv_objx/lv_img.h ****  * Get the offset.y attribute of the img object.
 149:..\..\..\lvgl\version_6.1.2\lvgl\src\lv_objx\../lv_objx/lv_img.h ****  * @param img pointer to an image
 150:..\..\..\lvgl\version_6.1.2\lvgl\src\lv_objx\../lv_objx/lv_img.h ****  * @return offset.y value.
 151:..\..\..\lvgl\version_6.1.2\lvgl\src\lv_objx\../lv_objx/lv_img.h ****  */
 152:..\..\..\lvgl\version_6.1.2\lvgl\src\lv_objx\../lv_objx/lv_img.h **** lv_coord_t lv_img_get_offset_y(lv_obj_t * img);
 153:..\..\..\lvgl\version_6.1.2\lvgl\src\lv_objx\../lv_objx/lv_img.h **** 
 154:..\..\..\lvgl\version_6.1.2\lvgl\src\lv_objx\../lv_objx/lv_img.h **** /**
 155:..\..\..\lvgl\version_6.1.2\lvgl\src\lv_objx\../lv_objx/lv_img.h ****  * Get the style of an image object
 156:..\..\..\lvgl\version_6.1.2\lvgl\src\lv_objx\../lv_objx/lv_img.h ****  * @param img pointer to an image object
 157:..\..\..\lvgl\version_6.1.2\lvgl\src\lv_objx\../lv_objx/lv_img.h ****  * @param type which style should be get (can be only `LV_IMG_STYLE_MAIN`)
 158:..\..\..\lvgl\version_6.1.2\lvgl\src\lv_objx\../lv_objx/lv_img.h ****  * @return pointer to the image's style
 159:..\..\..\lvgl\version_6.1.2\lvgl\src\lv_objx\../lv_objx/lv_img.h ****  */
 160:..\..\..\lvgl\version_6.1.2\lvgl\src\lv_objx\../lv_objx/lv_img.h **** static inline const lv_style_t * lv_img_get_style(const lv_obj_t * img, lv_img_style_t type)
 161:..\..\..\lvgl\version_6.1.2\lvgl\src\lv_objx\../lv_objx/lv_img.h **** {
 162:..\..\..\lvgl\version_6.1.2\lvgl\src\lv_objx\../lv_objx/lv_img.h ****     (void)type; /*Unused*/
 163:..\..\..\lvgl\version_6.1.2\lvgl\src\lv_objx\../lv_objx/lv_img.h ****     return lv_obj_get_style(img);
 465              		.loc 2 163 0
 466 000e 3846     		mov	r0, r7
 467              	.LVL48:
 468 0010 FFF7FEFF 		bl	lv_obj_get_style
 469              	.LVL49:
 470              	.LBE68:
 471              	.LBE67:
 472              	.LBE66:
 473              	.LBE65:
 200:..\..\..\lvgl\version_6.1.2\lvgl\src\lv_objx/lv_canvas.c **** }
 474              		.loc 1 200 0
 475 0014 3246     		mov	r2, r6
 476 0016 0346     		mov	r3, r0
 477 0018 2946     		mov	r1, r5
 478 001a 04F11000 		add	r0, r4, #16
 479 001e FFF7FEFF 		bl	lv_img_buf_get_px_color
 480              	.LVL50:
 201:..\..\..\lvgl\version_6.1.2\lvgl\src\lv_objx/lv_canvas.c **** 
 481              		.loc 1 201 0
 482 0022 F8BD     		pop	{r3, r4, r5, r6, r7, pc}
 483              		.cfi_endproc
 484              	.LFE40:
 485              		.size	lv_canvas_get_px, .-lv_canvas_get_px
 486              		.section	.text.lv_canvas_get_img,"ax",%progbits
 487              		.align	2
 488              		.global	lv_canvas_get_img
 489              		.thumb
 490              		.thumb_func
 491              		.type	lv_canvas_get_img, %function
 492              	lv_canvas_get_img:
 493              	.LFB41:
 209:..\..\..\lvgl\version_6.1.2\lvgl\src\lv_objx/lv_canvas.c ****     LV_ASSERT_OBJ(canvas, LV_OBJX_NAME);
 494              		.loc 1 209 0
 495              		.cfi_startproc
 496              		@ args = 0, pretend = 0, frame = 0
 497              		@ frame_needed = 0, uses_anonymous_args = 0
 498              	.LVL51:
 499 0000 08B5     		push	{r3, lr}
 500              		.cfi_def_cfa_offset 8
ARM GAS  C:\Users\pearlstl\AppData\Local\Temp\ccQFxYtd.s 			page 29


 501              		.cfi_offset 3, -8
 502              		.cfi_offset 14, -4
 212:..\..\..\lvgl\version_6.1.2\lvgl\src\lv_objx/lv_canvas.c **** 
 503              		.loc 1 212 0
 504 0002 FFF7FEFF 		bl	lv_obj_get_ext_attr
 505              	.LVL52:
 215:..\..\..\lvgl\version_6.1.2\lvgl\src\lv_objx/lv_canvas.c **** 
 506              		.loc 1 215 0
 507 0006 1030     		adds	r0, r0, #16
 508              	.LVL53:
 509 0008 08BD     		pop	{r3, pc}
 510              		.cfi_endproc
 511              	.LFE41:
 512              		.size	lv_canvas_get_img, .-lv_canvas_get_img
 513 000a 00BF     		.section	.text.lv_canvas_get_style,"ax",%progbits
 514              		.align	2
 515              		.global	lv_canvas_get_style
 516              		.thumb
 517              		.thumb_func
 518              		.type	lv_canvas_get_style, %function
 519              	lv_canvas_get_style:
 520              	.LFB42:
 224:..\..\..\lvgl\version_6.1.2\lvgl\src\lv_objx/lv_canvas.c ****     LV_ASSERT_OBJ(canvas, LV_OBJX_NAME);
 521              		.loc 1 224 0
 522              		.cfi_startproc
 523              		@ args = 0, pretend = 0, frame = 0
 524              		@ frame_needed = 0, uses_anonymous_args = 0
 525              		@ link register save eliminated.
 526              	.LVL54:
 229:..\..\..\lvgl\version_6.1.2\lvgl\src\lv_objx/lv_canvas.c ****         case LV_CANVAS_STYLE_MAIN: style = lv_img_get_style(canvas, LV_IMG_STYLE_MAIN); break;
 527              		.loc 1 229 0
 528 0000 09B9     		cbnz	r1, .L44
 529              	.LVL55:
 530              	.LBB69:
 531              	.LBB70:
 532              		.loc 2 163 0
 533 0002 FFF7FEBF 		b	lv_obj_get_style
 534              	.LVL56:
 535              	.L44:
 536              	.LBE70:
 537              	.LBE69:
 235:..\..\..\lvgl\version_6.1.2\lvgl\src\lv_objx/lv_canvas.c **** 
 538              		.loc 1 235 0
 539 0006 0020     		movs	r0, #0
 540              	.LVL57:
 541 0008 7047     		bx	lr
 542              		.cfi_endproc
 543              	.LFE42:
 544              		.size	lv_canvas_get_style, .-lv_canvas_get_style
 545 000a 00BF     		.section	.text.lv_canvas_copy_buf,"ax",%progbits
 546              		.align	2
 547              		.global	lv_canvas_copy_buf
 548              		.thumb
 549              		.thumb_func
 550              		.type	lv_canvas_copy_buf, %function
 551              	lv_canvas_copy_buf:
 552              	.LFB43:
ARM GAS  C:\Users\pearlstl\AppData\Local\Temp\ccQFxYtd.s 			page 30


 252:..\..\..\lvgl\version_6.1.2\lvgl\src\lv_objx/lv_canvas.c ****     LV_ASSERT_OBJ(canvas, LV_OBJX_NAME);
 553              		.loc 1 252 0
 554              		.cfi_startproc
 555              		@ args = 8, pretend = 0, frame = 0
 556              		@ frame_needed = 0, uses_anonymous_args = 0
 557              	.LVL58:
 558 0000 2DE9F84F 		push	{r3, r4, r5, r6, r7, r8, r9, r10, fp, lr}
 559              		.cfi_def_cfa_offset 40
 560              		.cfi_offset 3, -40
 561              		.cfi_offset 4, -36
 562              		.cfi_offset 5, -32
 563              		.cfi_offset 6, -28
 564              		.cfi_offset 7, -24
 565              		.cfi_offset 8, -20
 566              		.cfi_offset 9, -16
 567              		.cfi_offset 10, -12
 568              		.cfi_offset 11, -8
 569              		.cfi_offset 14, -4
 252:..\..\..\lvgl\version_6.1.2\lvgl\src\lv_objx/lv_canvas.c ****     LV_ASSERT_OBJ(canvas, LV_OBJX_NAME);
 570              		.loc 1 252 0
 571 0004 9346     		mov	fp, r2
 572 0006 1C46     		mov	r4, r3
 573 0008 BDF928A0 		ldrsh	r10, [sp, #40]
 574 000c BDF92C80 		ldrsh	r8, [sp, #44]
 575 0010 0E46     		mov	r6, r1
 256:..\..\..\lvgl\version_6.1.2\lvgl\src\lv_objx/lv_canvas.c ****     if(x + w >= (lv_coord_t)ext->dsc.header.w || y + h >= (lv_coord_t)ext->dsc.header.h) {
 576              		.loc 1 256 0
 577 0012 FFF7FEFF 		bl	lv_obj_get_ext_attr
 578              	.LVL59:
 257:..\..\..\lvgl\version_6.1.2\lvgl\src\lv_objx/lv_canvas.c ****         LV_LOG_WARN("lv_canvas_copy_buf: x or y out of the canvas");
 579              		.loc 1 257 0
 580 0016 0369     		ldr	r3, [r0, #16]
 581 0018 0BEB0A02 		add	r2, fp, r10
 582 001c C3F38A23 		ubfx	r3, r3, #10, #11
 583 0020 9A42     		cmp	r2, r3
 584 0022 06DA     		bge	.L45
 257:..\..\..\lvgl\version_6.1.2\lvgl\src\lv_objx/lv_canvas.c ****         LV_LOG_WARN("lv_canvas_copy_buf: x or y out of the canvas");
 585              		.loc 1 257 0 is_stmt 0 discriminator 1
 586 0024 428A     		ldrh	r2, [r0, #18]
 587 0026 04EB0803 		add	r3, r4, r8
 588 002a B3EB521F 		cmp	r3, r2, lsr #5
 589 002e 0746     		mov	r7, r0
 590 0030 01DB     		blt	.L51
 591              	.LVL60:
 592              	.L45:
 593 0032 BDE8F88F 		pop	{r3, r4, r5, r6, r7, r8, r9, r10, fp, pc}
 594              	.LVL61:
 595              	.L51:
 262:..\..\..\lvgl\version_6.1.2\lvgl\src\lv_objx/lv_canvas.c ****     uint32_t px        = ext->dsc.header.w * y * px_size + x * px_size;
 596              		.loc 1 262 0 is_stmt 1
 597 0036 007C     		ldrb	r0, [r0, #16]	@ zero_extendqisi2
 598              	.LVL62:
 599 0038 00F01F00 		and	r0, r0, #31
 600 003c FFF7FEFF 		bl	lv_img_color_format_get_px_size
 601              	.LVL63:
 263:..\..\..\lvgl\version_6.1.2\lvgl\src\lv_objx/lv_canvas.c ****     uint8_t * to_copy8 = (uint8_t *)to_copy;
 602              		.loc 1 263 0
ARM GAS  C:\Users\pearlstl\AppData\Local\Temp\ccQFxYtd.s 			page 31


 603 0040 3D69     		ldr	r5, [r7, #16]
 604 0042 C5F38A25 		ubfx	r5, r5, #10, #11
 262:..\..\..\lvgl\version_6.1.2\lvgl\src\lv_objx/lv_canvas.c ****     uint32_t px        = ext->dsc.header.w * y * px_size + x * px_size;
 605              		.loc 1 262 0
 606 0046 C0F3C709 		ubfx	r9, r0, #3, #8
 607              	.LVL64:
 263:..\..\..\lvgl\version_6.1.2\lvgl\src\lv_objx/lv_canvas.c ****     uint8_t * to_copy8 = (uint8_t *)to_copy;
 608              		.loc 1 263 0
 609 004a 14FB05B5 		smlabb	r5, r4, r5, fp
 266:..\..\..\lvgl\version_6.1.2\lvgl\src\lv_objx/lv_canvas.c ****         memcpy((void *)&ext->dsc.data[px], to_copy8, w * px_size);
 610              		.loc 1 266 0
 611 004e B8F1000F 		cmp	r8, #0
 263:..\..\..\lvgl\version_6.1.2\lvgl\src\lv_objx/lv_canvas.c ****     uint8_t * to_copy8 = (uint8_t *)to_copy;
 612              		.loc 1 263 0
 613 0052 09FB05F5 		mul	r5, r9, r5
 614              	.LVL65:
 266:..\..\..\lvgl\version_6.1.2\lvgl\src\lv_objx/lv_canvas.c ****         memcpy((void *)&ext->dsc.data[px], to_copy8, w * px_size);
 615              		.loc 1 266 0
 616 0056 ECDD     		ble	.L45
 617 0058 19FB0AFA 		smulbb	r10, r9, r10
 618 005c 0024     		movs	r4, #0
 619              	.LVL66:
 620              	.L48:
 267:..\..\..\lvgl\version_6.1.2\lvgl\src\lv_objx/lv_canvas.c ****         px += ext->dsc.header.w * px_size;
 621              		.loc 1 267 0 discriminator 3
 622 005e B869     		ldr	r0, [r7, #24]
 623 0060 3146     		mov	r1, r6
 624 0062 2844     		add	r0, r0, r5
 625 0064 5246     		mov	r2, r10
 626 0066 FFF7FEFF 		bl	memcpy
 627              	.LVL67:
 628 006a 0134     		adds	r4, r4, #1
 629              	.LVL68:
 268:..\..\..\lvgl\version_6.1.2\lvgl\src\lv_objx/lv_canvas.c ****         to_copy8 += w * px_size;
 630              		.loc 1 268 0 discriminator 3
 631 006c 3B69     		ldr	r3, [r7, #16]
 632 006e 24B2     		sxth	r4, r4
 633 0070 C3F38A23 		ubfx	r3, r3, #10, #11
 266:..\..\..\lvgl\version_6.1.2\lvgl\src\lv_objx/lv_canvas.c ****         memcpy((void *)&ext->dsc.data[px], to_copy8, w * px_size);
 634              		.loc 1 266 0 discriminator 3
 635 0074 A045     		cmp	r8, r4
 269:..\..\..\lvgl\version_6.1.2\lvgl\src\lv_objx/lv_canvas.c ****     }
 636              		.loc 1 269 0 discriminator 3
 637 0076 5644     		add	r6, r6, r10
 638              	.LVL69:
 268:..\..\..\lvgl\version_6.1.2\lvgl\src\lv_objx/lv_canvas.c ****         to_copy8 += w * px_size;
 639              		.loc 1 268 0 discriminator 3
 640 0078 03FB0955 		mla	r5, r3, r9, r5
 641              	.LVL70:
 266:..\..\..\lvgl\version_6.1.2\lvgl\src\lv_objx/lv_canvas.c ****         memcpy((void *)&ext->dsc.data[px], to_copy8, w * px_size);
 642              		.loc 1 266 0 discriminator 3
 643 007c EFD1     		bne	.L48
 644 007e BDE8F88F 		pop	{r3, r4, r5, r6, r7, r8, r9, r10, fp, pc}
 645              		.cfi_endproc
 646              	.LFE43:
 647              		.size	lv_canvas_copy_buf, .-lv_canvas_copy_buf
 648 0082 00BF     		.section	.text.lv_canvas_rotate,"ax",%progbits
ARM GAS  C:\Users\pearlstl\AppData\Local\Temp\ccQFxYtd.s 			page 32


 649              		.align	2
 650              		.global	lv_canvas_rotate
 651              		.thumb
 652              		.thumb_func
 653              		.type	lv_canvas_rotate, %function
 654              	lv_canvas_rotate:
 655              	.LFB44:
 288:..\..\..\lvgl\version_6.1.2\lvgl\src\lv_objx/lv_canvas.c ****     LV_ASSERT_OBJ(canvas, LV_OBJX_NAME);
 656              		.loc 1 288 0
 657              		.cfi_startproc
 658              		@ args = 12, pretend = 0, frame = 168
 659              		@ frame_needed = 0, uses_anonymous_args = 0
 660              	.LVL71:
 661 0000 2DE9F04F 		push	{r4, r5, r6, r7, r8, r9, r10, fp, lr}
 662              		.cfi_def_cfa_offset 36
 663              		.cfi_offset 4, -36
 664              		.cfi_offset 5, -32
 665              		.cfi_offset 6, -28
 666              		.cfi_offset 7, -24
 667              		.cfi_offset 8, -20
 668              		.cfi_offset 9, -16
 669              		.cfi_offset 10, -12
 670              		.cfi_offset 11, -8
 671              		.cfi_offset 14, -4
 672 0004 ABB0     		sub	sp, sp, #172
 673              		.cfi_def_cfa_offset 208
 288:..\..\..\lvgl\version_6.1.2\lvgl\src\lv_objx/lv_canvas.c ****     LV_ASSERT_OBJ(canvas, LV_OBJX_NAME);
 674              		.loc 1 288 0
 675 0006 1D46     		mov	r5, r3
 676 0008 369B     		ldr	r3, [sp, #216]
 677              	.LVL72:
 678 000a 1491     		str	r1, [sp, #80]
 294:..\..\..\lvgl\version_6.1.2\lvgl\src\lv_objx/lv_canvas.c ****     int32_t cosma             = lv_trigo_sin(-angle + 90); /* cos */
 679              		.loc 1 294 0
 680 000c 97B2     		uxth	r7, r2
 288:..\..\..\lvgl\version_6.1.2\lvgl\src\lv_objx/lv_canvas.c ****     LV_ASSERT_OBJ(canvas, LV_OBJX_NAME);
 681              		.loc 1 288 0
 682 000e 8B46     		mov	fp, r1
 683 0010 0093     		str	r3, [sp]
 684 0012 8046     		mov	r8, r0
 685 0014 2090     		str	r0, [sp, #128]
 686 0016 BDF9D040 		ldrsh	r4, [sp, #208]
 687 001a 359E     		ldr	r6, [sp, #212]
 292:..\..\..\lvgl\version_6.1.2\lvgl\src\lv_objx/lv_canvas.c ****     const lv_style_t * style  = lv_canvas_get_style(canvas, LV_CANVAS_STYLE_MAIN);
 688              		.loc 1 292 0
 689 001c FFF7FEFF 		bl	lv_obj_get_ext_attr
 690              	.LVL73:
 691 0020 8146     		mov	r9, r0
 692 0022 0C90     		str	r0, [sp, #48]
 693              	.LVL74:
 694              	.LBB71:
 695              	.LBB72:
 696              	.LBB73:
 697              	.LBB74:
 698              		.loc 2 163 0
 699 0024 4046     		mov	r0, r8
 700              	.LVL75:
ARM GAS  C:\Users\pearlstl\AppData\Local\Temp\ccQFxYtd.s 			page 33


 701 0026 FFF7FEFF 		bl	lv_obj_get_style
 702              	.LVL76:
 703 002a 1590     		str	r0, [sp, #84]
 704              	.LVL77:
 705              	.LBE74:
 706              	.LBE73:
 707              	.LBE72:
 708              	.LBE71:
 294:..\..\..\lvgl\version_6.1.2\lvgl\src\lv_objx/lv_canvas.c ****     int32_t cosma             = lv_trigo_sin(-angle + 90); /* cos */
 709              		.loc 1 294 0
 710 002c 7842     		negs	r0, r7
 711 002e 00B2     		sxth	r0, r0
 712 0030 FFF7FEFF 		bl	lv_trigo_sin
 713              	.LVL78:
 714 0034 8246     		mov	r10, r0
 715              	.LVL79:
 295:..\..\..\lvgl\version_6.1.2\lvgl\src\lv_objx/lv_canvas.c **** 
 716              		.loc 1 295 0
 717 0036 C7F15A00 		rsb	r0, r7, #90
 718              	.LVL80:
 719 003a 00B2     		sxth	r0, r0
 720 003c FFF7FEFF 		bl	lv_trigo_sin
 721              	.LVL81:
 299:..\..\..\lvgl\version_6.1.2\lvgl\src\lv_objx/lv_canvas.c ****     int32_t dest_height = ext_dst->dsc.header.h;
 722              		.loc 1 299 0
 723 0040 D9F81020 		ldr	r2, [r9, #16]
 297:..\..\..\lvgl\version_6.1.2\lvgl\src\lv_objx/lv_canvas.c ****     int32_t img_height  = img->header.h;
 724              		.loc 1 297 0
 725 0044 DBF80030 		ldr	r3, [fp]
 298:..\..\..\lvgl\version_6.1.2\lvgl\src\lv_objx/lv_canvas.c ****     int32_t dest_width  = ext_dst->dsc.header.w;
 726              		.loc 1 298 0
 727 0048 BBF80270 		ldrh	r7, [fp, #2]
 728              	.LVL82:
 299:..\..\..\lvgl\version_6.1.2\lvgl\src\lv_objx/lv_canvas.c ****     int32_t dest_height = ext_dst->dsc.header.h;
 729              		.loc 1 299 0
 730 004c C2F38A22 		ubfx	r2, r2, #10, #11
 295:..\..\..\lvgl\version_6.1.2\lvgl\src\lv_objx/lv_canvas.c **** 
 731              		.loc 1 295 0
 732 0050 8046     		mov	r8, r0
 733              	.LVL83:
 300:..\..\..\lvgl\version_6.1.2\lvgl\src\lv_objx/lv_canvas.c **** 
 734              		.loc 1 300 0
 735 0052 B9F81200 		ldrh	r0, [r9, #18]
 736              	.LVL84:
 299:..\..\..\lvgl\version_6.1.2\lvgl\src\lv_objx/lv_canvas.c ****     int32_t dest_height = ext_dst->dsc.header.h;
 737              		.loc 1 299 0
 738 0056 2192     		str	r2, [sp, #132]
 304:..\..\..\lvgl\version_6.1.2\lvgl\src\lv_objx/lv_canvas.c ****         for(y = -offset_y; y < dest_height - offset_y; y++) {
 739              		.loc 1 304 0
 740 0058 511B     		subs	r1, r2, r5
 297:..\..\..\lvgl\version_6.1.2\lvgl\src\lv_objx/lv_canvas.c ****     int32_t img_height  = img->header.h;
 741              		.loc 1 297 0
 742 005a C3F38A29 		ubfx	r9, r3, #10, #11
 743              	.LVL85:
 304:..\..\..\lvgl\version_6.1.2\lvgl\src\lv_objx/lv_canvas.c ****         for(y = -offset_y; y < dest_height - offset_y; y++) {
 744              		.loc 1 304 0
 745 005e 6A42     		negs	r2, r5
ARM GAS  C:\Users\pearlstl\AppData\Local\Temp\ccQFxYtd.s 			page 34


 298:..\..\..\lvgl\version_6.1.2\lvgl\src\lv_objx/lv_canvas.c ****     int32_t dest_width  = ext_dst->dsc.header.w;
 746              		.loc 1 298 0
 747 0060 C7F34A13 		ubfx	r3, r7, #5, #11
 748 0064 0293     		str	r3, [sp, #8]
 749              	.LVL86:
 304:..\..\..\lvgl\version_6.1.2\lvgl\src\lv_objx/lv_canvas.c ****         for(y = -offset_y; y < dest_height - offset_y; y++) {
 750              		.loc 1 304 0
 751 0066 9142     		cmp	r1, r2
 300:..\..\..\lvgl\version_6.1.2\lvgl\src\lv_objx/lv_canvas.c **** 
 752              		.loc 1 300 0
 753 0068 C0F34A13 		ubfx	r3, r0, #5, #11
 754              	.LVL87:
 755 006c 1B93     		str	r3, [sp, #108]
 756              	.LVL88:
 304:..\..\..\lvgl\version_6.1.2\lvgl\src\lv_objx/lv_canvas.c ****         for(y = -offset_y; y < dest_height - offset_y; y++) {
 757              		.loc 1 304 0
 758 006e 73DD     		ble	.L56
 759 0070 6342     		negs	r3, r4
 760              	.LVL89:
 761 0072 009F     		ldr	r7, [sp]
 762 0074 0993     		str	r3, [sp, #36]
 763 0076 1846     		mov	r0, r3
 764 0078 921B     		subs	r2, r2, r6
 765              	.LVL90:
 766 007a DB1B     		subs	r3, r3, r7
 767 007c 04EB000C 		add	ip, r4, r0
 768 0080 02FB08F7 		mul	r7, r2, r8
 769 0084 1B98     		ldr	r0, [sp, #108]
 770 0086 4D19     		adds	r5, r1, r5
 771              	.LVL91:
 772 0088 03FB08FE 		mul	lr, r3, r8
 773 008c 0099     		ldr	r1, [sp]
 774 008e 0B95     		str	r5, [sp, #44]
 775 0090 03FB1A73 		mls	r3, r3, r10, r7
 776 0094 001B     		subs	r0, r0, r4
 777 0096 0593     		str	r3, [sp, #20]
 778 0098 1FFA8CF3 		uxth	r3, ip
 779 009c 4FEA062B 		lsl	fp, r6, #8
 780              	.LVL92:
 781 00a0 0025     		movs	r5, #0
 782 00a2 0902     		lsls	r1, r1, #8
 783 00a4 02FB0AE2 		mla	r2, r2, r10, lr
 784 00a8 0E93     		str	r3, [sp, #56]
 785 00aa 0319     		adds	r3, r0, r4
 786 00ac 4E46     		mov	r6, r9
 787 00ae 0A90     		str	r0, [sp, #40]
 788 00b0 0795     		str	r5, [sp, #28]
 789 00b2 0391     		str	r1, [sp, #12]
 790 00b4 0692     		str	r2, [sp, #24]
 791 00b6 0193     		str	r3, [sp, #4]
 792 00b8 0495     		str	r5, [sp, #16]
 793 00ba 5446     		mov	r4, r10
 794 00bc CDF83CB0 		str	fp, [sp, #60]
 795 00c0 C146     		mov	r9, r8
 796              	.LVL93:
 797              	.L55:
 305:..\..\..\lvgl\version_6.1.2\lvgl\src\lv_objx/lv_canvas.c ****             /*Get the target point relative coordinates to the pivot*/
ARM GAS  C:\Users\pearlstl\AppData\Local\Temp\ccQFxYtd.s 			page 35


 798              		.loc 1 305 0
 799 00c2 099B     		ldr	r3, [sp, #36]
 800 00c4 0A9A     		ldr	r2, [sp, #40]
 801 00c6 9342     		cmp	r3, r2
 802 00c8 36DA     		bge	.L77
 803              	.LBB75:
 804              	.LBB76:
 402:..\..\..\lvgl\version_6.1.2\lvgl\src\lv_objx/lv_canvas.c **** 
 805              		.loc 1 402 0
 806 00ca 0C9B     		ldr	r3, [sp, #48]
 807 00cc DDF838A0 		ldr	r10, [sp, #56]
 808              	.LBE76:
 809              	.LBE75:
 305:..\..\..\lvgl\version_6.1.2\lvgl\src\lv_objx/lv_canvas.c ****             /*Get the target point relative coordinates to the pivot*/
 810              		.loc 1 305 0
 811 00d0 069D     		ldr	r5, [sp, #24]
 812 00d2 DDF814B0 		ldr	fp, [sp, #20]
 813              	.LBB137:
 814              	.LBB87:
 402:..\..\..\lvgl\version_6.1.2\lvgl\src\lv_objx/lv_canvas.c **** 
 815              		.loc 1 402 0
 816 00d6 1033     		adds	r3, r3, #16
 817 00d8 1093     		str	r3, [sp, #64]
 818 00da BDF91030 		ldrsh	r3, [sp, #16]
 819 00de 0D93     		str	r3, [sp, #52]
 820              	.LBE87:
 821              	.LBB88:
 378:..\..\..\lvgl\version_6.1.2\lvgl\src\lv_objx/lv_canvas.c ****                 if(c_dest_int.full == ct.full) continue;
 822              		.loc 1 378 0
 823 00e0 0F9B     		ldr	r3, [sp, #60]
 824 00e2 0093     		str	r3, [sp]
 825 00e4 4FF00008 		mov	r8, #0
 826              	.L76:
 827              	.LVL94:
 828              	.LBE88:
 311:..\..\..\lvgl\version_6.1.2\lvgl\src\lv_objx/lv_canvas.c ****             int32_t ys = ((sinma * xt + cosma * yt) >> (LV_TRIGO_SHIFT - 8)) + pivot_y * 256;
 829              		.loc 1 311 0
 830 00e8 009B     		ldr	r3, [sp]
 831 00ea 03EBEB12 		add	r2, r3, fp, asr #7
 832              	.LVL95:
 315:..\..\..\lvgl\version_6.1.2\lvgl\src\lv_objx/lv_canvas.c ****             int ys_int = ys >> 8;
 833              		.loc 1 315 0
 834 00ee 1312     		asrs	r3, r2, #8
 835              	.LVL96:
 318:..\..\..\lvgl\version_6.1.2\lvgl\src\lv_objx/lv_canvas.c ****                 continue;
 836              		.loc 1 318 0
 837 00f0 9E42     		cmp	r6, r3
 838 00f2 15DD     		ble	.L75
 320:..\..\..\lvgl\version_6.1.2\lvgl\src\lv_objx/lv_canvas.c ****                 continue;
 839              		.loc 1 320 0
 840 00f4 002B     		cmp	r3, #0
 841 00f6 13DB     		blt	.L75
 312:..\..\..\lvgl\version_6.1.2\lvgl\src\lv_objx/lv_canvas.c **** 
 842              		.loc 1 312 0
 843 00f8 0399     		ldr	r1, [sp, #12]
 323:..\..\..\lvgl\version_6.1.2\lvgl\src\lv_objx/lv_canvas.c ****                 continue;
 844              		.loc 1 323 0
ARM GAS  C:\Users\pearlstl\AppData\Local\Temp\ccQFxYtd.s 			page 36


 845 00fa 029F     		ldr	r7, [sp, #8]
 312:..\..\..\lvgl\version_6.1.2\lvgl\src\lv_objx/lv_canvas.c **** 
 846              		.loc 1 312 0
 847 00fc 01EBE510 		add	r0, r1, r5, asr #7
 316:..\..\..\lvgl\version_6.1.2\lvgl\src\lv_objx/lv_canvas.c **** 
 848              		.loc 1 316 0
 849 0100 0112     		asrs	r1, r0, #8
 323:..\..\..\lvgl\version_6.1.2\lvgl\src\lv_objx/lv_canvas.c ****                 continue;
 850              		.loc 1 323 0
 851 0102 8F42     		cmp	r7, r1
 852 0104 0CDD     		ble	.L75
 325:..\..\..\lvgl\version_6.1.2\lvgl\src\lv_objx/lv_canvas.c ****                 continue;
 853              		.loc 1 325 0
 854 0106 0029     		cmp	r1, #0
 855 0108 0ADB     		blt	.L75
 329:..\..\..\lvgl\version_6.1.2\lvgl\src\lv_objx/lv_canvas.c ****             int ys_fract = ys & 0xff;
 856              		.loc 1 329 0
 857 010a 5FFA82FE 		uxtb	lr, r2
 858              	.LVL97:
 338:..\..\..\lvgl\version_6.1.2\lvgl\src\lv_objx/lv_canvas.c ****                 xn = xs_int - 1;
 859              		.loc 1 338 0
 860 010e BEF16F0F 		cmp	lr, #111
 861 0112 27DC     		bgt	.L58
 339:..\..\..\lvgl\version_6.1.2\lvgl\src\lv_objx/lv_canvas.c ****                 xr = xs_fract * 2;
 862              		.loc 1 339 0
 863 0114 5F1E     		subs	r7, r3, #1
 350:..\..\..\lvgl\version_6.1.2\lvgl\src\lv_objx/lv_canvas.c ****                 continue;
 864              		.loc 1 350 0
 865 0116 BE42     		cmp	r6, r7
 339:..\..\..\lvgl\version_6.1.2\lvgl\src\lv_objx/lv_canvas.c ****                 xr = xs_fract * 2;
 866              		.loc 1 339 0
 867 0118 0897     		str	r7, [sp, #32]
 868              	.LVL98:
 350:..\..\..\lvgl\version_6.1.2\lvgl\src\lv_objx/lv_canvas.c ****                 continue;
 869              		.loc 1 350 0
 870 011a 01DD     		ble	.L75
 352:..\..\..\lvgl\version_6.1.2\lvgl\src\lv_objx/lv_canvas.c ****                 continue;
 871              		.loc 1 352 0
 872 011c 0137     		adds	r7, r7, #1
 873              	.LVL99:
 874 011e 4CD1     		bne	.L96
 875              	.LVL100:
 876              	.L75:
 877              	.LBE137:
 305:..\..\..\lvgl\version_6.1.2\lvgl\src\lv_objx/lv_canvas.c ****             /*Get the target point relative coordinates to the pivot*/
 878              		.loc 1 305 0 discriminator 2
 879 0120 019B     		ldr	r3, [sp, #4]
 880              	.LVL101:
 881 0122 08F10108 		add	r8, r8, #1
 882 0126 0AF1010A 		add	r10, r10, #1
 883 012a 4345     		cmp	r3, r8
 884 012c 1FFA8AFA 		uxth	r10, r10
 885 0130 C4EB0B0B 		rsb	fp, r4, fp
 886              	.LVL102:
 887 0134 4D44     		add	r5, r5, r9
 888 0136 D7D1     		bne	.L76
 889              	.L77:
ARM GAS  C:\Users\pearlstl\AppData\Local\Temp\ccQFxYtd.s 			page 37


 890 0138 049B     		ldr	r3, [sp, #16]
 891 013a 079A     		ldr	r2, [sp, #28]
 892 013c 0133     		adds	r3, r3, #1
 893 013e 9BB2     		uxth	r3, r3
 894 0140 0493     		str	r3, [sp, #16]
 895 0142 059B     		ldr	r3, [sp, #20]
 896 0144 4B44     		add	r3, r3, r9
 897 0146 0593     		str	r3, [sp, #20]
 898 0148 069B     		ldr	r3, [sp, #24]
 899 014a 2344     		add	r3, r3, r4
 900 014c 0693     		str	r3, [sp, #24]
 304:..\..\..\lvgl\version_6.1.2\lvgl\src\lv_objx/lv_canvas.c ****         for(y = -offset_y; y < dest_height - offset_y; y++) {
 901              		.loc 1 304 0
 902 014e 0B9B     		ldr	r3, [sp, #44]
 903 0150 0132     		adds	r2, r2, #1
 904 0152 9A42     		cmp	r2, r3
 905 0154 0792     		str	r2, [sp, #28]
 906 0156 B4D1     		bne	.L55
 907              	.LVL103:
 908              	.L56:
 446:..\..\..\lvgl\version_6.1.2\lvgl\src\lv_objx/lv_canvas.c **** }
 909              		.loc 1 446 0
 910 0158 2098     		ldr	r0, [sp, #128]
 447:..\..\..\lvgl\version_6.1.2\lvgl\src\lv_objx/lv_canvas.c **** 
 911              		.loc 1 447 0
 912 015a 2BB0     		add	sp, sp, #172
 913              		.cfi_remember_state
 914              		.cfi_def_cfa_offset 36
 915              		@ sp needed
 916 015c BDE8F04F 		pop	{r4, r5, r6, r7, r8, r9, r10, fp, lr}
 917              		.cfi_restore 14
 918              		.cfi_restore 11
 919              		.cfi_restore 10
 920              		.cfi_restore 9
 921              		.cfi_restore 8
 922              		.cfi_restore 7
 923              		.cfi_restore 6
 924              		.cfi_restore 5
 925              		.cfi_restore 4
 926              		.cfi_def_cfa_offset 0
 927              	.LVL104:
 446:..\..\..\lvgl\version_6.1.2\lvgl\src\lv_objx/lv_canvas.c **** }
 928              		.loc 1 446 0
 929 0160 FFF7FEBF 		b	lv_obj_invalidate
 930              	.LVL105:
 931              	.L58:
 932              		.cfi_restore_state
 933              	.LBB138:
 341:..\..\..\lvgl\version_6.1.2\lvgl\src\lv_objx/lv_canvas.c ****                 xn = xs_int + 1;
 934              		.loc 1 341 0
 935 0164 BEF1900F 		cmp	lr, #144
 936 0168 09DD     		ble	.L78
 342:..\..\..\lvgl\version_6.1.2\lvgl\src\lv_objx/lv_canvas.c ****                 xr = (0xFF - xs_fract) * 2;
 937              		.loc 1 342 0
 938 016a 5A1C     		adds	r2, r3, #1
 939              	.LVL106:
 350:..\..\..\lvgl\version_6.1.2\lvgl\src\lv_objx/lv_canvas.c ****                 continue;
ARM GAS  C:\Users\pearlstl\AppData\Local\Temp\ccQFxYtd.s 			page 38


 940              		.loc 1 350 0
 941 016c 9642     		cmp	r6, r2
 342:..\..\..\lvgl\version_6.1.2\lvgl\src\lv_objx/lv_canvas.c ****                 xr = (0xFF - xs_fract) * 2;
 942              		.loc 1 342 0
 943 016e 0892     		str	r2, [sp, #32]
 944              	.LVL107:
 350:..\..\..\lvgl\version_6.1.2\lvgl\src\lv_objx/lv_canvas.c ****                 continue;
 945              		.loc 1 350 0
 946 0170 D6DD     		ble	.L75
 343:..\..\..\lvgl\version_6.1.2\lvgl\src\lv_objx/lv_canvas.c ****             } else {
 947              		.loc 1 343 0
 948 0172 CEF1FF02 		rsb	r2, lr, #255
 949              	.LVL108:
 950 0176 5200     		lsls	r2, r2, #1
 951              	.LVL109:
 952 0178 D2B2     		uxtb	r2, r2
 953 017a 1292     		str	r2, [sp, #72]
 954 017c 02E0     		b	.L60
 955              	.LVL110:
 956              	.L78:
 346:..\..\..\lvgl\version_6.1.2\lvgl\src\lv_objx/lv_canvas.c ****             }
 957              		.loc 1 346 0
 958 017e FF22     		movs	r2, #255
 959              	.LVL111:
 960 0180 0893     		str	r3, [sp, #32]
 961 0182 1292     		str	r2, [sp, #72]
 962              	.L60:
 330:..\..\..\lvgl\version_6.1.2\lvgl\src\lv_objx/lv_canvas.c **** 
 963              		.loc 1 330 0
 964 0184 C2B2     		uxtb	r2, r0
 357:..\..\..\lvgl\version_6.1.2\lvgl\src\lv_objx/lv_canvas.c ****                 yn = ys_int - 1;
 965              		.loc 1 357 0
 966 0186 6F2A     		cmp	r2, #111
 967 0188 0ADC     		bgt	.L61
 369:..\..\..\lvgl\version_6.1.2\lvgl\src\lv_objx/lv_canvas.c ****                 continue;
 968              		.loc 1 369 0
 969 018a 029F     		ldr	r7, [sp, #8]
 358:..\..\..\lvgl\version_6.1.2\lvgl\src\lv_objx/lv_canvas.c ****                 yr = ys_fract * 2;
 970              		.loc 1 358 0
 971 018c 4A1E     		subs	r2, r1, #1
 369:..\..\..\lvgl\version_6.1.2\lvgl\src\lv_objx/lv_canvas.c ****                 continue;
 972              		.loc 1 369 0
 973 018e 9742     		cmp	r7, r2
 358:..\..\..\lvgl\version_6.1.2\lvgl\src\lv_objx/lv_canvas.c ****                 yr = ys_fract * 2;
 974              		.loc 1 358 0
 975 0190 1192     		str	r2, [sp, #68]
 976              	.LVL112:
 369:..\..\..\lvgl\version_6.1.2\lvgl\src\lv_objx/lv_canvas.c ****                 continue;
 977              		.loc 1 369 0
 978 0192 C5DD     		ble	.L75
 371:..\..\..\lvgl\version_6.1.2\lvgl\src\lv_objx/lv_canvas.c ****                 continue;
 979              		.loc 1 371 0
 980 0194 0132     		adds	r2, r2, #1
 981              	.LVL113:
 982 0196 C3D0     		beq	.L75
 359:..\..\..\lvgl\version_6.1.2\lvgl\src\lv_objx/lv_canvas.c ****             } else if(ys_fract > 0x90) {
 983              		.loc 1 359 0
ARM GAS  C:\Users\pearlstl\AppData\Local\Temp\ccQFxYtd.s 			page 39


 984 0198 4000     		lsls	r0, r0, #1
 985 019a C2B2     		uxtb	r2, r0
 986 019c 1792     		str	r2, [sp, #92]
 987 019e 13E0     		b	.L63
 988              	.LVL114:
 989              	.L61:
 360:..\..\..\lvgl\version_6.1.2\lvgl\src\lv_objx/lv_canvas.c ****                 yn = ys_int + 1;
 990              		.loc 1 360 0
 991 01a0 902A     		cmp	r2, #144
 992 01a2 0EDD     		ble	.L79
 369:..\..\..\lvgl\version_6.1.2\lvgl\src\lv_objx/lv_canvas.c ****                 continue;
 993              		.loc 1 369 0
 994 01a4 029F     		ldr	r7, [sp, #8]
 361:..\..\..\lvgl\version_6.1.2\lvgl\src\lv_objx/lv_canvas.c ****                 yr = (0xFF - ys_fract) * 2;
 995              		.loc 1 361 0
 996 01a6 481C     		adds	r0, r1, #1
 369:..\..\..\lvgl\version_6.1.2\lvgl\src\lv_objx/lv_canvas.c ****                 continue;
 997              		.loc 1 369 0
 998 01a8 8742     		cmp	r7, r0
 361:..\..\..\lvgl\version_6.1.2\lvgl\src\lv_objx/lv_canvas.c ****                 yr = (0xFF - ys_fract) * 2;
 999              		.loc 1 361 0
 1000 01aa 1190     		str	r0, [sp, #68]
 1001              	.LVL115:
 369:..\..\..\lvgl\version_6.1.2\lvgl\src\lv_objx/lv_canvas.c ****                 continue;
 1002              		.loc 1 369 0
 1003 01ac B8DD     		ble	.L75
 362:..\..\..\lvgl\version_6.1.2\lvgl\src\lv_objx/lv_canvas.c ****             } else {
 1004              		.loc 1 362 0
 1005 01ae C2F1FF02 		rsb	r2, r2, #255
 1006 01b2 5200     		lsls	r2, r2, #1
 1007 01b4 D2B2     		uxtb	r2, r2
 1008 01b6 1792     		str	r2, [sp, #92]
 1009 01b8 06E0     		b	.L63
 1010              	.LVL116:
 1011              	.L96:
 340:..\..\..\lvgl\version_6.1.2\lvgl\src\lv_objx/lv_canvas.c ****             } else if(xs_fract > 0x90) {
 1012              		.loc 1 340 0
 1013 01ba 5200     		lsls	r2, r2, #1
 1014              	.LVL117:
 1015 01bc D2B2     		uxtb	r2, r2
 1016 01be 1292     		str	r2, [sp, #72]
 1017 01c0 E0E7     		b	.L60
 1018              	.LVL118:
 1019              	.L79:
 365:..\..\..\lvgl\version_6.1.2\lvgl\src\lv_objx/lv_canvas.c ****             }
 1020              		.loc 1 365 0
 1021 01c2 FF22     		movs	r2, #255
 1022 01c4 1191     		str	r1, [sp, #68]
 1023 01c6 1792     		str	r2, [sp, #92]
 1024              	.L63:
 375:..\..\..\lvgl\version_6.1.2\lvgl\src\lv_objx/lv_canvas.c **** 
 1025              		.loc 1 375 0
 1026 01c8 149F     		ldr	r7, [sp, #80]
 1027 01ca 1BB2     		sxth	r3, r3
 1028              	.LVL119:
 1029 01cc 0AB2     		sxth	r2, r1
 1030 01ce 1893     		str	r3, [sp, #96]
ARM GAS  C:\Users\pearlstl\AppData\Local\Temp\ccQFxYtd.s 			page 40


 1031 01d0 1946     		mov	r1, r3
 1032 01d2 3846     		mov	r0, r7
 1033 01d4 159B     		ldr	r3, [sp, #84]
 1034 01d6 1992     		str	r2, [sp, #100]
 1035 01d8 FFF7FEFF 		bl	lv_img_buf_get_px_color
 1036              	.LVL120:
 1037 01dc 1390     		str	r0, [sp, #76]
 377:..\..\..\lvgl\version_6.1.2\lvgl\src\lv_objx/lv_canvas.c ****                 lv_color_t ct = LV_COLOR_TRANSP;
 1038              		.loc 1 377 0
 1039 01de 3878     		ldrb	r0, [r7]	@ zero_extendqisi2
 1040 01e0 00F01F00 		and	r0, r0, #31
 1041 01e4 FFF7FEFF 		bl	lv_img_color_format_is_chroma_keyed
 1042              	.LVL121:
 1043 01e8 30B1     		cbz	r0, .L64
 1044              	.LBB89:
 378:..\..\..\lvgl\version_6.1.2\lvgl\src\lv_objx/lv_canvas.c ****                 if(c_dest_int.full == ct.full) continue;
 1045              		.loc 1 378 0
 1046 01ea 4FF0FF23 		mov	r3, #-16711936
 1047 01ee 2993     		str	r3, [sp, #164]
 379:..\..\..\lvgl\version_6.1.2\lvgl\src\lv_objx/lv_canvas.c ****             }
 1048              		.loc 1 379 0
 1049 01f0 139B     		ldr	r3, [sp, #76]
 1050              	.LVL122:
 1051 01f2 B3F1FF2F 		cmp	r3, #-16711936
 1052 01f6 93D0     		beq	.L75
 1053              	.L64:
 1054              	.LBE89:
 382:..\..\..\lvgl\version_6.1.2\lvgl\src\lv_objx/lv_canvas.c ****             lv_color_t c_dest_yn = lv_img_buf_get_px_color(img, xs_int, yn, style);
 1055              		.loc 1 382 0
 1056 01f8 BDF92030 		ldrsh	r3, [sp, #32]
 1057              	.LVL123:
 383:..\..\..\lvgl\version_6.1.2\lvgl\src\lv_objx/lv_canvas.c ****             lv_color_t x_dest    = lv_color_mix(c_dest_int, c_dest_xn, xr);
 1058              		.loc 1 383 0
 1059 01fc BDF94420 		ldrsh	r2, [sp, #68]
 382:..\..\..\lvgl\version_6.1.2\lvgl\src\lv_objx/lv_canvas.c ****             lv_color_t c_dest_yn = lv_img_buf_get_px_color(img, xs_int, yn, style);
 1060              		.loc 1 382 0
 1061 0200 2293     		str	r3, [sp, #136]
 383:..\..\..\lvgl\version_6.1.2\lvgl\src\lv_objx/lv_canvas.c ****             lv_color_t x_dest    = lv_color_mix(c_dest_int, c_dest_xn, xr);
 1062              		.loc 1 383 0
 1063 0202 1746     		mov	r7, r2
 382:..\..\..\lvgl\version_6.1.2\lvgl\src\lv_objx/lv_canvas.c ****             lv_color_t c_dest_yn = lv_img_buf_get_px_color(img, xs_int, yn, style);
 1064              		.loc 1 382 0
 1065 0204 1946     		mov	r1, r3
 383:..\..\..\lvgl\version_6.1.2\lvgl\src\lv_objx/lv_canvas.c ****             lv_color_t x_dest    = lv_color_mix(c_dest_int, c_dest_xn, xr);
 1066              		.loc 1 383 0
 1067 0206 2392     		str	r2, [sp, #140]
 382:..\..\..\lvgl\version_6.1.2\lvgl\src\lv_objx/lv_canvas.c ****             lv_color_t c_dest_yn = lv_img_buf_get_px_color(img, xs_int, yn, style);
 1068              		.loc 1 382 0
 1069 0208 159B     		ldr	r3, [sp, #84]
 1070 020a 199A     		ldr	r2, [sp, #100]
 1071 020c 1498     		ldr	r0, [sp, #80]
 1072 020e FFF7FEFF 		bl	lv_img_buf_get_px_color
 1073              	.LVL124:
 383:..\..\..\lvgl\version_6.1.2\lvgl\src\lv_objx/lv_canvas.c ****             lv_color_t x_dest    = lv_color_mix(c_dest_int, c_dest_xn, xr);
 1074              		.loc 1 383 0
 1075 0212 3A46     		mov	r2, r7
 1076              	.LBB90:
ARM GAS  C:\Users\pearlstl\AppData\Local\Temp\ccQFxYtd.s 			page 41


 1077              	.LBB91:
 1078              		.file 3 "..\\..\\..\\lvgl\\version_6.1.2\\lvgl\\src\\lv_objx\\../lv_core/../lv_misc/lv_color.h"
   1:..\..\..\lvgl\version_6.1.2\lvgl\src\lv_objx\../lv_core/../lv_misc/lv_color.h **** /**
   2:..\..\..\lvgl\version_6.1.2\lvgl\src\lv_objx\../lv_core/../lv_misc/lv_color.h ****  * @file lv_color.h
   3:..\..\..\lvgl\version_6.1.2\lvgl\src\lv_objx\../lv_core/../lv_misc/lv_color.h ****  *
   4:..\..\..\lvgl\version_6.1.2\lvgl\src\lv_objx\../lv_core/../lv_misc/lv_color.h ****  */
   5:..\..\..\lvgl\version_6.1.2\lvgl\src\lv_objx\../lv_core/../lv_misc/lv_color.h **** 
   6:..\..\..\lvgl\version_6.1.2\lvgl\src\lv_objx\../lv_core/../lv_misc/lv_color.h **** #ifndef LV_COLOR_H
   7:..\..\..\lvgl\version_6.1.2\lvgl\src\lv_objx\../lv_core/../lv_misc/lv_color.h **** #define LV_COLOR_H
   8:..\..\..\lvgl\version_6.1.2\lvgl\src\lv_objx\../lv_core/../lv_misc/lv_color.h **** 
   9:..\..\..\lvgl\version_6.1.2\lvgl\src\lv_objx\../lv_core/../lv_misc/lv_color.h **** #ifdef __cplusplus
  10:..\..\..\lvgl\version_6.1.2\lvgl\src\lv_objx\../lv_core/../lv_misc/lv_color.h **** extern "C" {
  11:..\..\..\lvgl\version_6.1.2\lvgl\src\lv_objx\../lv_core/../lv_misc/lv_color.h **** #endif
  12:..\..\..\lvgl\version_6.1.2\lvgl\src\lv_objx\../lv_core/../lv_misc/lv_color.h **** 
  13:..\..\..\lvgl\version_6.1.2\lvgl\src\lv_objx\../lv_core/../lv_misc/lv_color.h **** /*********************
  14:..\..\..\lvgl\version_6.1.2\lvgl\src\lv_objx\../lv_core/../lv_misc/lv_color.h ****  *      INCLUDES
  15:..\..\..\lvgl\version_6.1.2\lvgl\src\lv_objx\../lv_core/../lv_misc/lv_color.h ****  *********************/
  16:..\..\..\lvgl\version_6.1.2\lvgl\src\lv_objx\../lv_core/../lv_misc/lv_color.h **** #ifdef LV_CONF_INCLUDE_SIMPLE
  17:..\..\..\lvgl\version_6.1.2\lvgl\src\lv_objx\../lv_core/../lv_misc/lv_color.h **** #include "lv_conf.h"
  18:..\..\..\lvgl\version_6.1.2\lvgl\src\lv_objx\../lv_core/../lv_misc/lv_color.h **** #else
  19:..\..\..\lvgl\version_6.1.2\lvgl\src\lv_objx\../lv_core/../lv_misc/lv_color.h **** #include "../../../lv_conf.h"
  20:..\..\..\lvgl\version_6.1.2\lvgl\src\lv_objx\../lv_core/../lv_misc/lv_color.h **** #endif
  21:..\..\..\lvgl\version_6.1.2\lvgl\src\lv_objx\../lv_core/../lv_misc/lv_color.h **** 
  22:..\..\..\lvgl\version_6.1.2\lvgl\src\lv_objx\../lv_core/../lv_misc/lv_color.h **** /*Error checking*/
  23:..\..\..\lvgl\version_6.1.2\lvgl\src\lv_objx\../lv_core/../lv_misc/lv_color.h **** #if LV_COLOR_DEPTH == 24
  24:..\..\..\lvgl\version_6.1.2\lvgl\src\lv_objx\../lv_core/../lv_misc/lv_color.h **** #error "LV_COLOR_DEPTH  24 is deprecated. Use LV_COLOR_DEPTH  32 instead (lv_conf.h)"
  25:..\..\..\lvgl\version_6.1.2\lvgl\src\lv_objx\../lv_core/../lv_misc/lv_color.h **** #endif
  26:..\..\..\lvgl\version_6.1.2\lvgl\src\lv_objx\../lv_core/../lv_misc/lv_color.h **** 
  27:..\..\..\lvgl\version_6.1.2\lvgl\src\lv_objx\../lv_core/../lv_misc/lv_color.h **** #if LV_COLOR_DEPTH != 32 && LV_COLOR_SCREEN_TRANSP != 0
  28:..\..\..\lvgl\version_6.1.2\lvgl\src\lv_objx\../lv_core/../lv_misc/lv_color.h **** #error "LV_COLOR_SCREEN_TRANSP requires LV_COLOR_DEPTH == 32. Set it in lv_conf.h"
  29:..\..\..\lvgl\version_6.1.2\lvgl\src\lv_objx\../lv_core/../lv_misc/lv_color.h **** #endif
  30:..\..\..\lvgl\version_6.1.2\lvgl\src\lv_objx\../lv_core/../lv_misc/lv_color.h **** 
  31:..\..\..\lvgl\version_6.1.2\lvgl\src\lv_objx\../lv_core/../lv_misc/lv_color.h **** #if LV_COLOR_DEPTH != 16 && LV_COLOR_16_SWAP != 0
  32:..\..\..\lvgl\version_6.1.2\lvgl\src\lv_objx\../lv_core/../lv_misc/lv_color.h **** #error "LV_COLOR_16_SWAP requires LV_COLOR_DEPTH == 16. Set it in lv_conf.h"
  33:..\..\..\lvgl\version_6.1.2\lvgl\src\lv_objx\../lv_core/../lv_misc/lv_color.h **** #endif
  34:..\..\..\lvgl\version_6.1.2\lvgl\src\lv_objx\../lv_core/../lv_misc/lv_color.h **** 
  35:..\..\..\lvgl\version_6.1.2\lvgl\src\lv_objx\../lv_core/../lv_misc/lv_color.h **** #include <stdint.h>
  36:..\..\..\lvgl\version_6.1.2\lvgl\src\lv_objx\../lv_core/../lv_misc/lv_color.h **** 
  37:..\..\..\lvgl\version_6.1.2\lvgl\src\lv_objx\../lv_core/../lv_misc/lv_color.h **** /*********************
  38:..\..\..\lvgl\version_6.1.2\lvgl\src\lv_objx\../lv_core/../lv_misc/lv_color.h ****  *      DEFINES
  39:..\..\..\lvgl\version_6.1.2\lvgl\src\lv_objx\../lv_core/../lv_misc/lv_color.h ****  *********************/
  40:..\..\..\lvgl\version_6.1.2\lvgl\src\lv_objx\../lv_core/../lv_misc/lv_color.h **** #define LV_COLOR_WHITE LV_COLOR_MAKE(0xFF, 0xFF, 0xFF)
  41:..\..\..\lvgl\version_6.1.2\lvgl\src\lv_objx\../lv_core/../lv_misc/lv_color.h **** #define LV_COLOR_SILVER LV_COLOR_MAKE(0xC0, 0xC0, 0xC0)
  42:..\..\..\lvgl\version_6.1.2\lvgl\src\lv_objx\../lv_core/../lv_misc/lv_color.h **** #define LV_COLOR_GRAY LV_COLOR_MAKE(0x80, 0x80, 0x80)
  43:..\..\..\lvgl\version_6.1.2\lvgl\src\lv_objx\../lv_core/../lv_misc/lv_color.h **** #define LV_COLOR_BLACK LV_COLOR_MAKE(0x00, 0x00, 0x00)
  44:..\..\..\lvgl\version_6.1.2\lvgl\src\lv_objx\../lv_core/../lv_misc/lv_color.h **** #define LV_COLOR_RED LV_COLOR_MAKE(0xFF, 0x00, 0x00)
  45:..\..\..\lvgl\version_6.1.2\lvgl\src\lv_objx\../lv_core/../lv_misc/lv_color.h **** #define LV_COLOR_MAROON LV_COLOR_MAKE(0x80, 0x00, 0x00)
  46:..\..\..\lvgl\version_6.1.2\lvgl\src\lv_objx\../lv_core/../lv_misc/lv_color.h **** #define LV_COLOR_YELLOW LV_COLOR_MAKE(0xFF, 0xFF, 0x00)
  47:..\..\..\lvgl\version_6.1.2\lvgl\src\lv_objx\../lv_core/../lv_misc/lv_color.h **** #define LV_COLOR_OLIVE LV_COLOR_MAKE(0x80, 0x80, 0x00)
  48:..\..\..\lvgl\version_6.1.2\lvgl\src\lv_objx\../lv_core/../lv_misc/lv_color.h **** #define LV_COLOR_LIME LV_COLOR_MAKE(0x00, 0xFF, 0x00)
  49:..\..\..\lvgl\version_6.1.2\lvgl\src\lv_objx\../lv_core/../lv_misc/lv_color.h **** #define LV_COLOR_GREEN LV_COLOR_MAKE(0x00, 0x80, 0x00)
  50:..\..\..\lvgl\version_6.1.2\lvgl\src\lv_objx\../lv_core/../lv_misc/lv_color.h **** #define LV_COLOR_CYAN LV_COLOR_MAKE(0x00, 0xFF, 0xFF)
  51:..\..\..\lvgl\version_6.1.2\lvgl\src\lv_objx\../lv_core/../lv_misc/lv_color.h **** #define LV_COLOR_AQUA LV_COLOR_CYAN
  52:..\..\..\lvgl\version_6.1.2\lvgl\src\lv_objx\../lv_core/../lv_misc/lv_color.h **** #define LV_COLOR_TEAL LV_COLOR_MAKE(0x00, 0x80, 0x80)
  53:..\..\..\lvgl\version_6.1.2\lvgl\src\lv_objx\../lv_core/../lv_misc/lv_color.h **** #define LV_COLOR_BLUE LV_COLOR_MAKE(0x00, 0x00, 0xFF)
  54:..\..\..\lvgl\version_6.1.2\lvgl\src\lv_objx\../lv_core/../lv_misc/lv_color.h **** #define LV_COLOR_NAVY LV_COLOR_MAKE(0x00, 0x00, 0x80)
  55:..\..\..\lvgl\version_6.1.2\lvgl\src\lv_objx\../lv_core/../lv_misc/lv_color.h **** #define LV_COLOR_MAGENTA LV_COLOR_MAKE(0xFF, 0x00, 0xFF)
ARM GAS  C:\Users\pearlstl\AppData\Local\Temp\ccQFxYtd.s 			page 42


  56:..\..\..\lvgl\version_6.1.2\lvgl\src\lv_objx\../lv_core/../lv_misc/lv_color.h **** #define LV_COLOR_PURPLE LV_COLOR_MAKE(0x80, 0x00, 0x80)
  57:..\..\..\lvgl\version_6.1.2\lvgl\src\lv_objx\../lv_core/../lv_misc/lv_color.h **** #define LV_COLOR_ORANGE LV_COLOR_MAKE(0xFF, 0xA5, 0x00)
  58:..\..\..\lvgl\version_6.1.2\lvgl\src\lv_objx\../lv_core/../lv_misc/lv_color.h **** 
  59:..\..\..\lvgl\version_6.1.2\lvgl\src\lv_objx\../lv_core/../lv_misc/lv_color.h **** /**
  60:..\..\..\lvgl\version_6.1.2\lvgl\src\lv_objx\../lv_core/../lv_misc/lv_color.h ****  * Opacity percentages.
  61:..\..\..\lvgl\version_6.1.2\lvgl\src\lv_objx\../lv_core/../lv_misc/lv_color.h ****  */
  62:..\..\..\lvgl\version_6.1.2\lvgl\src\lv_objx\../lv_core/../lv_misc/lv_color.h **** enum {
  63:..\..\..\lvgl\version_6.1.2\lvgl\src\lv_objx\../lv_core/../lv_misc/lv_color.h ****     LV_OPA_TRANSP = 0,
  64:..\..\..\lvgl\version_6.1.2\lvgl\src\lv_objx\../lv_core/../lv_misc/lv_color.h ****     LV_OPA_0      = 0,
  65:..\..\..\lvgl\version_6.1.2\lvgl\src\lv_objx\../lv_core/../lv_misc/lv_color.h ****     LV_OPA_10     = 25,
  66:..\..\..\lvgl\version_6.1.2\lvgl\src\lv_objx\../lv_core/../lv_misc/lv_color.h ****     LV_OPA_20     = 51,
  67:..\..\..\lvgl\version_6.1.2\lvgl\src\lv_objx\../lv_core/../lv_misc/lv_color.h ****     LV_OPA_30     = 76,
  68:..\..\..\lvgl\version_6.1.2\lvgl\src\lv_objx\../lv_core/../lv_misc/lv_color.h ****     LV_OPA_40     = 102,
  69:..\..\..\lvgl\version_6.1.2\lvgl\src\lv_objx\../lv_core/../lv_misc/lv_color.h ****     LV_OPA_50     = 127,
  70:..\..\..\lvgl\version_6.1.2\lvgl\src\lv_objx\../lv_core/../lv_misc/lv_color.h ****     LV_OPA_60     = 153,
  71:..\..\..\lvgl\version_6.1.2\lvgl\src\lv_objx\../lv_core/../lv_misc/lv_color.h ****     LV_OPA_70     = 178,
  72:..\..\..\lvgl\version_6.1.2\lvgl\src\lv_objx\../lv_core/../lv_misc/lv_color.h ****     LV_OPA_80     = 204,
  73:..\..\..\lvgl\version_6.1.2\lvgl\src\lv_objx\../lv_core/../lv_misc/lv_color.h ****     LV_OPA_90     = 229,
  74:..\..\..\lvgl\version_6.1.2\lvgl\src\lv_objx\../lv_core/../lv_misc/lv_color.h ****     LV_OPA_100    = 255,
  75:..\..\..\lvgl\version_6.1.2\lvgl\src\lv_objx\../lv_core/../lv_misc/lv_color.h ****     LV_OPA_COVER  = 255,
  76:..\..\..\lvgl\version_6.1.2\lvgl\src\lv_objx\../lv_core/../lv_misc/lv_color.h **** };
  77:..\..\..\lvgl\version_6.1.2\lvgl\src\lv_objx\../lv_core/../lv_misc/lv_color.h **** 
  78:..\..\..\lvgl\version_6.1.2\lvgl\src\lv_objx\../lv_core/../lv_misc/lv_color.h **** #define LV_OPA_MIN 16  /*Opacities below this will be transparent*/
  79:..\..\..\lvgl\version_6.1.2\lvgl\src\lv_objx\../lv_core/../lv_misc/lv_color.h **** #define LV_OPA_MAX 251 /*Opacities above this will fully cover*/
  80:..\..\..\lvgl\version_6.1.2\lvgl\src\lv_objx\../lv_core/../lv_misc/lv_color.h **** 
  81:..\..\..\lvgl\version_6.1.2\lvgl\src\lv_objx\../lv_core/../lv_misc/lv_color.h **** #if LV_COLOR_DEPTH == 1
  82:..\..\..\lvgl\version_6.1.2\lvgl\src\lv_objx\../lv_core/../lv_misc/lv_color.h **** #define LV_COLOR_SIZE 8
  83:..\..\..\lvgl\version_6.1.2\lvgl\src\lv_objx\../lv_core/../lv_misc/lv_color.h **** #elif LV_COLOR_DEPTH == 8
  84:..\..\..\lvgl\version_6.1.2\lvgl\src\lv_objx\../lv_core/../lv_misc/lv_color.h **** #define LV_COLOR_SIZE 8
  85:..\..\..\lvgl\version_6.1.2\lvgl\src\lv_objx\../lv_core/../lv_misc/lv_color.h **** #elif LV_COLOR_DEPTH == 16
  86:..\..\..\lvgl\version_6.1.2\lvgl\src\lv_objx\../lv_core/../lv_misc/lv_color.h **** #define LV_COLOR_SIZE 16
  87:..\..\..\lvgl\version_6.1.2\lvgl\src\lv_objx\../lv_core/../lv_misc/lv_color.h **** #elif LV_COLOR_DEPTH == 32
  88:..\..\..\lvgl\version_6.1.2\lvgl\src\lv_objx\../lv_core/../lv_misc/lv_color.h **** #define LV_COLOR_SIZE 32
  89:..\..\..\lvgl\version_6.1.2\lvgl\src\lv_objx\../lv_core/../lv_misc/lv_color.h **** #else
  90:..\..\..\lvgl\version_6.1.2\lvgl\src\lv_objx\../lv_core/../lv_misc/lv_color.h **** #error "Invalid LV_COLOR_DEPTH in lv_conf.h! Set it to 1, 8, 16 or 32!"
  91:..\..\..\lvgl\version_6.1.2\lvgl\src\lv_objx\../lv_core/../lv_misc/lv_color.h **** #endif
  92:..\..\..\lvgl\version_6.1.2\lvgl\src\lv_objx\../lv_core/../lv_misc/lv_color.h **** 
  93:..\..\..\lvgl\version_6.1.2\lvgl\src\lv_objx\../lv_core/../lv_misc/lv_color.h **** /*---------------------------------------
  94:..\..\..\lvgl\version_6.1.2\lvgl\src\lv_objx\../lv_core/../lv_misc/lv_color.h ****  * Macros for all existing  color depths
  95:..\..\..\lvgl\version_6.1.2\lvgl\src\lv_objx\../lv_core/../lv_misc/lv_color.h ****  * to set/get values of the color channels
  96:..\..\..\lvgl\version_6.1.2\lvgl\src\lv_objx\../lv_core/../lv_misc/lv_color.h ****  *------------------------------------------*/
  97:..\..\..\lvgl\version_6.1.2\lvgl\src\lv_objx\../lv_core/../lv_misc/lv_color.h **** # define LV_COLOR_SET_R1(c, v) (c).ch.red = (uint8_t)((v) & 0x1);
  98:..\..\..\lvgl\version_6.1.2\lvgl\src\lv_objx\../lv_core/../lv_misc/lv_color.h **** # define LV_COLOR_SET_G1(c, v) (c).ch.green = (uint8_t)((v) & 0x1);
  99:..\..\..\lvgl\version_6.1.2\lvgl\src\lv_objx\../lv_core/../lv_misc/lv_color.h **** # define LV_COLOR_SET_B1(c, v) (c).ch.blue = (uint8_t)((v) & 0x1);
 100:..\..\..\lvgl\version_6.1.2\lvgl\src\lv_objx\../lv_core/../lv_misc/lv_color.h **** # define LV_COLOR_SET_A1(c, v)
 101:..\..\..\lvgl\version_6.1.2\lvgl\src\lv_objx\../lv_core/../lv_misc/lv_color.h **** 
 102:..\..\..\lvgl\version_6.1.2\lvgl\src\lv_objx\../lv_core/../lv_misc/lv_color.h **** # define LV_COLOR_GET_R1(c) (c).ch.red
 103:..\..\..\lvgl\version_6.1.2\lvgl\src\lv_objx\../lv_core/../lv_misc/lv_color.h **** # define LV_COLOR_GET_G1(c) (c).ch.green
 104:..\..\..\lvgl\version_6.1.2\lvgl\src\lv_objx\../lv_core/../lv_misc/lv_color.h **** # define LV_COLOR_GET_B1(c) (c).ch.blue
 105:..\..\..\lvgl\version_6.1.2\lvgl\src\lv_objx\../lv_core/../lv_misc/lv_color.h **** # define LV_COLOR_GET_A1(c) 1
 106:..\..\..\lvgl\version_6.1.2\lvgl\src\lv_objx\../lv_core/../lv_misc/lv_color.h **** 
 107:..\..\..\lvgl\version_6.1.2\lvgl\src\lv_objx\../lv_core/../lv_misc/lv_color.h **** # define LV_COLOR_SET_R8(c, v) (c).ch.red = (uint8_t)(v) & 0x7U;
 108:..\..\..\lvgl\version_6.1.2\lvgl\src\lv_objx\../lv_core/../lv_misc/lv_color.h **** # define LV_COLOR_SET_G8(c, v) (c).ch.green = (uint8_t)(v) & 0x7U;
 109:..\..\..\lvgl\version_6.1.2\lvgl\src\lv_objx\../lv_core/../lv_misc/lv_color.h **** # define LV_COLOR_SET_B8(c, v) (c).ch.blue = (uint8_t)(v) & 0x3U;
 110:..\..\..\lvgl\version_6.1.2\lvgl\src\lv_objx\../lv_core/../lv_misc/lv_color.h **** # define LV_COLOR_SET_A8(c, v) do {} while(0)
 111:..\..\..\lvgl\version_6.1.2\lvgl\src\lv_objx\../lv_core/../lv_misc/lv_color.h **** 
 112:..\..\..\lvgl\version_6.1.2\lvgl\src\lv_objx\../lv_core/../lv_misc/lv_color.h **** # define LV_COLOR_GET_R8(c) (c).ch.red
ARM GAS  C:\Users\pearlstl\AppData\Local\Temp\ccQFxYtd.s 			page 43


 113:..\..\..\lvgl\version_6.1.2\lvgl\src\lv_objx\../lv_core/../lv_misc/lv_color.h **** # define LV_COLOR_GET_G8(c) (c).ch.green
 114:..\..\..\lvgl\version_6.1.2\lvgl\src\lv_objx\../lv_core/../lv_misc/lv_color.h **** # define LV_COLOR_GET_B8(c) (c).ch.blue
 115:..\..\..\lvgl\version_6.1.2\lvgl\src\lv_objx\../lv_core/../lv_misc/lv_color.h **** # define LV_COLOR_GET_A8(c) 0xFF
 116:..\..\..\lvgl\version_6.1.2\lvgl\src\lv_objx\../lv_core/../lv_misc/lv_color.h **** 
 117:..\..\..\lvgl\version_6.1.2\lvgl\src\lv_objx\../lv_core/../lv_misc/lv_color.h **** # define LV_COLOR_SET_R16(c, v) (c).ch.red = (uint8_t)(v) & 0x1FU;
 118:..\..\..\lvgl\version_6.1.2\lvgl\src\lv_objx\../lv_core/../lv_misc/lv_color.h **** # define LV_COLOR_SET_G16(c, v) (c).ch.green = (uint8_t)(v) & 0x3FU;
 119:..\..\..\lvgl\version_6.1.2\lvgl\src\lv_objx\../lv_core/../lv_misc/lv_color.h **** # define LV_COLOR_SET_G16_SWAP(c, v) {(c).ch.green_h = (uint8_t)(((v) >> 3) & 0x7); (c).ch.green_l 
 120:..\..\..\lvgl\version_6.1.2\lvgl\src\lv_objx\../lv_core/../lv_misc/lv_color.h **** # define LV_COLOR_SET_B16(c, v) (c).ch.blue = (uint8_t)(v) & 0x1FU;
 121:..\..\..\lvgl\version_6.1.2\lvgl\src\lv_objx\../lv_core/../lv_misc/lv_color.h **** # define LV_COLOR_SET_A16(c, v) do {} while(0)
 122:..\..\..\lvgl\version_6.1.2\lvgl\src\lv_objx\../lv_core/../lv_misc/lv_color.h **** 
 123:..\..\..\lvgl\version_6.1.2\lvgl\src\lv_objx\../lv_core/../lv_misc/lv_color.h **** # define LV_COLOR_GET_R16(c) (c).ch.red
 124:..\..\..\lvgl\version_6.1.2\lvgl\src\lv_objx\../lv_core/../lv_misc/lv_color.h **** # define LV_COLOR_GET_G16(c) (c).ch.green
 125:..\..\..\lvgl\version_6.1.2\lvgl\src\lv_objx\../lv_core/../lv_misc/lv_color.h **** # define LV_COLOR_GET_G16_SWAP(c) (((c).ch.green_h << 3) + (c).ch.green_l)
 126:..\..\..\lvgl\version_6.1.2\lvgl\src\lv_objx\../lv_core/../lv_misc/lv_color.h **** # define LV_COLOR_GET_B16(c) (c).ch.blue
 127:..\..\..\lvgl\version_6.1.2\lvgl\src\lv_objx\../lv_core/../lv_misc/lv_color.h **** # define LV_COLOR_GET_A16(c) 0xFF
 128:..\..\..\lvgl\version_6.1.2\lvgl\src\lv_objx\../lv_core/../lv_misc/lv_color.h **** 
 129:..\..\..\lvgl\version_6.1.2\lvgl\src\lv_objx\../lv_core/../lv_misc/lv_color.h **** # define LV_COLOR_SET_R32(c, v) (c).ch.red = (uint32_t)((v) & 0xFF);
 130:..\..\..\lvgl\version_6.1.2\lvgl\src\lv_objx\../lv_core/../lv_misc/lv_color.h **** # define LV_COLOR_SET_G32(c, v) (c).ch.green = (uint32_t)((v) & 0xFF);
 131:..\..\..\lvgl\version_6.1.2\lvgl\src\lv_objx\../lv_core/../lv_misc/lv_color.h **** # define LV_COLOR_SET_B32(c, v) (c).ch.blue = (uint32_t)((v) & 0xFF);
 132:..\..\..\lvgl\version_6.1.2\lvgl\src\lv_objx\../lv_core/../lv_misc/lv_color.h **** # define LV_COLOR_SET_A32(c, v) (c).ch.alpha = (uint32_t)((v) & 0xFF);
 133:..\..\..\lvgl\version_6.1.2\lvgl\src\lv_objx\../lv_core/../lv_misc/lv_color.h **** 
 134:..\..\..\lvgl\version_6.1.2\lvgl\src\lv_objx\../lv_core/../lv_misc/lv_color.h **** # define LV_COLOR_GET_R32(c) (c).ch.red
 135:..\..\..\lvgl\version_6.1.2\lvgl\src\lv_objx\../lv_core/../lv_misc/lv_color.h **** # define LV_COLOR_GET_G32(c) (c).ch.green
 136:..\..\..\lvgl\version_6.1.2\lvgl\src\lv_objx\../lv_core/../lv_misc/lv_color.h **** # define LV_COLOR_GET_B32(c) (c).ch.blue
 137:..\..\..\lvgl\version_6.1.2\lvgl\src\lv_objx\../lv_core/../lv_misc/lv_color.h **** # define LV_COLOR_GET_A32(c) (c).ch.alpha
 138:..\..\..\lvgl\version_6.1.2\lvgl\src\lv_objx\../lv_core/../lv_misc/lv_color.h **** 
 139:..\..\..\lvgl\version_6.1.2\lvgl\src\lv_objx\../lv_core/../lv_misc/lv_color.h **** 
 140:..\..\..\lvgl\version_6.1.2\lvgl\src\lv_objx\../lv_core/../lv_misc/lv_color.h **** /*---------------------------------------
 141:..\..\..\lvgl\version_6.1.2\lvgl\src\lv_objx\../lv_core/../lv_misc/lv_color.h ****  * Macros for the current color depth
 142:..\..\..\lvgl\version_6.1.2\lvgl\src\lv_objx\../lv_core/../lv_misc/lv_color.h ****  * to set/get values of the color channels
 143:..\..\..\lvgl\version_6.1.2\lvgl\src\lv_objx\../lv_core/../lv_misc/lv_color.h ****  *------------------------------------------*/
 144:..\..\..\lvgl\version_6.1.2\lvgl\src\lv_objx\../lv_core/../lv_misc/lv_color.h **** #if LV_COLOR_DEPTH == 1
 145:..\..\..\lvgl\version_6.1.2\lvgl\src\lv_objx\../lv_core/../lv_misc/lv_color.h **** # define LV_COLOR_SET_R(c, v) LV_COLOR_SET_R1(c,v)
 146:..\..\..\lvgl\version_6.1.2\lvgl\src\lv_objx\../lv_core/../lv_misc/lv_color.h **** # define LV_COLOR_SET_G(c, v) LV_COLOR_SET_G1(c,v)
 147:..\..\..\lvgl\version_6.1.2\lvgl\src\lv_objx\../lv_core/../lv_misc/lv_color.h **** # define LV_COLOR_SET_B(c, v) LV_COLOR_SET_B1(c,v)
 148:..\..\..\lvgl\version_6.1.2\lvgl\src\lv_objx\../lv_core/../lv_misc/lv_color.h **** # define LV_COLOR_SET_A(c, v) LV_COLOR_SET_A1(c,v)
 149:..\..\..\lvgl\version_6.1.2\lvgl\src\lv_objx\../lv_core/../lv_misc/lv_color.h **** 
 150:..\..\..\lvgl\version_6.1.2\lvgl\src\lv_objx\../lv_core/../lv_misc/lv_color.h **** # define LV_COLOR_GET_R(c) LV_COLOR_GET_R1(c)
 151:..\..\..\lvgl\version_6.1.2\lvgl\src\lv_objx\../lv_core/../lv_misc/lv_color.h **** # define LV_COLOR_GET_G(c) LV_COLOR_GET_G1(c)
 152:..\..\..\lvgl\version_6.1.2\lvgl\src\lv_objx\../lv_core/../lv_misc/lv_color.h **** # define LV_COLOR_GET_B(c) LV_COLOR_GET_B1(c)
 153:..\..\..\lvgl\version_6.1.2\lvgl\src\lv_objx\../lv_core/../lv_misc/lv_color.h **** # define LV_COLOR_GET_A(c) LV_COLOR_GET_A1(c)
 154:..\..\..\lvgl\version_6.1.2\lvgl\src\lv_objx\../lv_core/../lv_misc/lv_color.h **** 
 155:..\..\..\lvgl\version_6.1.2\lvgl\src\lv_objx\../lv_core/../lv_misc/lv_color.h **** #elif LV_COLOR_DEPTH == 8
 156:..\..\..\lvgl\version_6.1.2\lvgl\src\lv_objx\../lv_core/../lv_misc/lv_color.h **** # define LV_COLOR_SET_R(c, v) LV_COLOR_SET_R8(c,v)
 157:..\..\..\lvgl\version_6.1.2\lvgl\src\lv_objx\../lv_core/../lv_misc/lv_color.h **** # define LV_COLOR_SET_G(c, v) LV_COLOR_SET_G8(c,v)
 158:..\..\..\lvgl\version_6.1.2\lvgl\src\lv_objx\../lv_core/../lv_misc/lv_color.h **** # define LV_COLOR_SET_B(c, v) LV_COLOR_SET_B8(c,v)
 159:..\..\..\lvgl\version_6.1.2\lvgl\src\lv_objx\../lv_core/../lv_misc/lv_color.h **** # define LV_COLOR_SET_A(c, v) LV_COLOR_SET_A8(c,v)
 160:..\..\..\lvgl\version_6.1.2\lvgl\src\lv_objx\../lv_core/../lv_misc/lv_color.h **** 
 161:..\..\..\lvgl\version_6.1.2\lvgl\src\lv_objx\../lv_core/../lv_misc/lv_color.h **** # define LV_COLOR_GET_R(c) LV_COLOR_GET_R8(c)
 162:..\..\..\lvgl\version_6.1.2\lvgl\src\lv_objx\../lv_core/../lv_misc/lv_color.h **** # define LV_COLOR_GET_G(c) LV_COLOR_GET_G8(c)
 163:..\..\..\lvgl\version_6.1.2\lvgl\src\lv_objx\../lv_core/../lv_misc/lv_color.h **** # define LV_COLOR_GET_B(c) LV_COLOR_GET_B8(c)
 164:..\..\..\lvgl\version_6.1.2\lvgl\src\lv_objx\../lv_core/../lv_misc/lv_color.h **** # define LV_COLOR_GET_A(c) LV_COLOR_GET_A8(c)
 165:..\..\..\lvgl\version_6.1.2\lvgl\src\lv_objx\../lv_core/../lv_misc/lv_color.h **** 
 166:..\..\..\lvgl\version_6.1.2\lvgl\src\lv_objx\../lv_core/../lv_misc/lv_color.h **** #elif LV_COLOR_DEPTH == 16
 167:..\..\..\lvgl\version_6.1.2\lvgl\src\lv_objx\../lv_core/../lv_misc/lv_color.h **** # define LV_COLOR_SET_R(c, v) LV_COLOR_SET_R16(c,v)
 168:..\..\..\lvgl\version_6.1.2\lvgl\src\lv_objx\../lv_core/../lv_misc/lv_color.h **** # if LV_COLOR_16_SWAP == 0
 169:..\..\..\lvgl\version_6.1.2\lvgl\src\lv_objx\../lv_core/../lv_misc/lv_color.h **** #   define LV_COLOR_SET_G(c, v) LV_COLOR_SET_G16(c,v)
ARM GAS  C:\Users\pearlstl\AppData\Local\Temp\ccQFxYtd.s 			page 44


 170:..\..\..\lvgl\version_6.1.2\lvgl\src\lv_objx\../lv_core/../lv_misc/lv_color.h **** # else
 171:..\..\..\lvgl\version_6.1.2\lvgl\src\lv_objx\../lv_core/../lv_misc/lv_color.h **** #   define LV_COLOR_SET_G(c, v) LV_COLOR_SET_G16_SWAP(c,v)
 172:..\..\..\lvgl\version_6.1.2\lvgl\src\lv_objx\../lv_core/../lv_misc/lv_color.h **** # endif
 173:..\..\..\lvgl\version_6.1.2\lvgl\src\lv_objx\../lv_core/../lv_misc/lv_color.h **** # define LV_COLOR_SET_B(c, v) LV_COLOR_SET_B16(c,v)
 174:..\..\..\lvgl\version_6.1.2\lvgl\src\lv_objx\../lv_core/../lv_misc/lv_color.h **** # define LV_COLOR_SET_A(c, v) LV_COLOR_SET_A16(c,v)
 175:..\..\..\lvgl\version_6.1.2\lvgl\src\lv_objx\../lv_core/../lv_misc/lv_color.h **** 
 176:..\..\..\lvgl\version_6.1.2\lvgl\src\lv_objx\../lv_core/../lv_misc/lv_color.h **** # define LV_COLOR_GET_R(c) LV_COLOR_GET_R16(c)
 177:..\..\..\lvgl\version_6.1.2\lvgl\src\lv_objx\../lv_core/../lv_misc/lv_color.h **** # if LV_COLOR_16_SWAP == 0
 178:..\..\..\lvgl\version_6.1.2\lvgl\src\lv_objx\../lv_core/../lv_misc/lv_color.h **** #   define LV_COLOR_GET_G(c) LV_COLOR_GET_G16(c)
 179:..\..\..\lvgl\version_6.1.2\lvgl\src\lv_objx\../lv_core/../lv_misc/lv_color.h **** # else
 180:..\..\..\lvgl\version_6.1.2\lvgl\src\lv_objx\../lv_core/../lv_misc/lv_color.h **** #   define LV_COLOR_GET_G(c) LV_COLOR_GET_G16_SWAP(c)
 181:..\..\..\lvgl\version_6.1.2\lvgl\src\lv_objx\../lv_core/../lv_misc/lv_color.h **** # endif
 182:..\..\..\lvgl\version_6.1.2\lvgl\src\lv_objx\../lv_core/../lv_misc/lv_color.h **** # define LV_COLOR_GET_B(c)   LV_COLOR_GET_B16(c)
 183:..\..\..\lvgl\version_6.1.2\lvgl\src\lv_objx\../lv_core/../lv_misc/lv_color.h **** # define LV_COLOR_GET_A(c)   LV_COLOR_GET_A16(c)
 184:..\..\..\lvgl\version_6.1.2\lvgl\src\lv_objx\../lv_core/../lv_misc/lv_color.h **** 
 185:..\..\..\lvgl\version_6.1.2\lvgl\src\lv_objx\../lv_core/../lv_misc/lv_color.h **** #elif LV_COLOR_DEPTH == 32
 186:..\..\..\lvgl\version_6.1.2\lvgl\src\lv_objx\../lv_core/../lv_misc/lv_color.h **** # define LV_COLOR_SET_R(c, v) LV_COLOR_SET_R32(c,v)
 187:..\..\..\lvgl\version_6.1.2\lvgl\src\lv_objx\../lv_core/../lv_misc/lv_color.h **** # define LV_COLOR_SET_G(c, v) LV_COLOR_SET_G32(c,v)
 188:..\..\..\lvgl\version_6.1.2\lvgl\src\lv_objx\../lv_core/../lv_misc/lv_color.h **** # define LV_COLOR_SET_B(c, v) LV_COLOR_SET_B32(c,v)
 189:..\..\..\lvgl\version_6.1.2\lvgl\src\lv_objx\../lv_core/../lv_misc/lv_color.h **** # define LV_COLOR_SET_A(c, v) LV_COLOR_SET_A32(c,v)
 190:..\..\..\lvgl\version_6.1.2\lvgl\src\lv_objx\../lv_core/../lv_misc/lv_color.h **** 
 191:..\..\..\lvgl\version_6.1.2\lvgl\src\lv_objx\../lv_core/../lv_misc/lv_color.h **** # define LV_COLOR_GET_R(c) LV_COLOR_GET_R32(c)
 192:..\..\..\lvgl\version_6.1.2\lvgl\src\lv_objx\../lv_core/../lv_misc/lv_color.h **** # define LV_COLOR_GET_G(c) LV_COLOR_GET_G32(c)
 193:..\..\..\lvgl\version_6.1.2\lvgl\src\lv_objx\../lv_core/../lv_misc/lv_color.h **** # define LV_COLOR_GET_B(c) LV_COLOR_GET_B32(c)
 194:..\..\..\lvgl\version_6.1.2\lvgl\src\lv_objx\../lv_core/../lv_misc/lv_color.h **** # define LV_COLOR_GET_A(c) LV_COLOR_GET_A32(c)
 195:..\..\..\lvgl\version_6.1.2\lvgl\src\lv_objx\../lv_core/../lv_misc/lv_color.h **** #endif
 196:..\..\..\lvgl\version_6.1.2\lvgl\src\lv_objx\../lv_core/../lv_misc/lv_color.h **** 
 197:..\..\..\lvgl\version_6.1.2\lvgl\src\lv_objx\../lv_core/../lv_misc/lv_color.h **** /**********************
 198:..\..\..\lvgl\version_6.1.2\lvgl\src\lv_objx\../lv_core/../lv_misc/lv_color.h ****  *      TYPEDEFS
 199:..\..\..\lvgl\version_6.1.2\lvgl\src\lv_objx\../lv_core/../lv_misc/lv_color.h ****  **********************/
 200:..\..\..\lvgl\version_6.1.2\lvgl\src\lv_objx\../lv_core/../lv_misc/lv_color.h **** 
 201:..\..\..\lvgl\version_6.1.2\lvgl\src\lv_objx\../lv_core/../lv_misc/lv_color.h **** typedef union
 202:..\..\..\lvgl\version_6.1.2\lvgl\src\lv_objx\../lv_core/../lv_misc/lv_color.h **** {
 203:..\..\..\lvgl\version_6.1.2\lvgl\src\lv_objx\../lv_core/../lv_misc/lv_color.h ****     struct
 204:..\..\..\lvgl\version_6.1.2\lvgl\src\lv_objx\../lv_core/../lv_misc/lv_color.h ****     {
 205:..\..\..\lvgl\version_6.1.2\lvgl\src\lv_objx\../lv_core/../lv_misc/lv_color.h ****         uint8_t blue : 1;
 206:..\..\..\lvgl\version_6.1.2\lvgl\src\lv_objx\../lv_core/../lv_misc/lv_color.h ****         uint8_t green : 1;
 207:..\..\..\lvgl\version_6.1.2\lvgl\src\lv_objx\../lv_core/../lv_misc/lv_color.h ****         uint8_t red : 1;
 208:..\..\..\lvgl\version_6.1.2\lvgl\src\lv_objx\../lv_core/../lv_misc/lv_color.h ****     } ch;
 209:..\..\..\lvgl\version_6.1.2\lvgl\src\lv_objx\../lv_core/../lv_misc/lv_color.h ****     uint8_t full;
 210:..\..\..\lvgl\version_6.1.2\lvgl\src\lv_objx\../lv_core/../lv_misc/lv_color.h **** } lv_color1_t;
 211:..\..\..\lvgl\version_6.1.2\lvgl\src\lv_objx\../lv_core/../lv_misc/lv_color.h **** 
 212:..\..\..\lvgl\version_6.1.2\lvgl\src\lv_objx\../lv_core/../lv_misc/lv_color.h **** typedef union
 213:..\..\..\lvgl\version_6.1.2\lvgl\src\lv_objx\../lv_core/../lv_misc/lv_color.h **** {
 214:..\..\..\lvgl\version_6.1.2\lvgl\src\lv_objx\../lv_core/../lv_misc/lv_color.h ****     struct
 215:..\..\..\lvgl\version_6.1.2\lvgl\src\lv_objx\../lv_core/../lv_misc/lv_color.h ****     {
 216:..\..\..\lvgl\version_6.1.2\lvgl\src\lv_objx\../lv_core/../lv_misc/lv_color.h ****         uint8_t blue : 2;
 217:..\..\..\lvgl\version_6.1.2\lvgl\src\lv_objx\../lv_core/../lv_misc/lv_color.h ****         uint8_t green : 3;
 218:..\..\..\lvgl\version_6.1.2\lvgl\src\lv_objx\../lv_core/../lv_misc/lv_color.h ****         uint8_t red : 3;
 219:..\..\..\lvgl\version_6.1.2\lvgl\src\lv_objx\../lv_core/../lv_misc/lv_color.h ****     } ch;
 220:..\..\..\lvgl\version_6.1.2\lvgl\src\lv_objx\../lv_core/../lv_misc/lv_color.h ****     uint8_t full;
 221:..\..\..\lvgl\version_6.1.2\lvgl\src\lv_objx\../lv_core/../lv_misc/lv_color.h **** } lv_color8_t;
 222:..\..\..\lvgl\version_6.1.2\lvgl\src\lv_objx\../lv_core/../lv_misc/lv_color.h **** 
 223:..\..\..\lvgl\version_6.1.2\lvgl\src\lv_objx\../lv_core/../lv_misc/lv_color.h **** typedef union
 224:..\..\..\lvgl\version_6.1.2\lvgl\src\lv_objx\../lv_core/../lv_misc/lv_color.h **** {
 225:..\..\..\lvgl\version_6.1.2\lvgl\src\lv_objx\../lv_core/../lv_misc/lv_color.h ****     struct
 226:..\..\..\lvgl\version_6.1.2\lvgl\src\lv_objx\../lv_core/../lv_misc/lv_color.h ****     {
ARM GAS  C:\Users\pearlstl\AppData\Local\Temp\ccQFxYtd.s 			page 45


 227:..\..\..\lvgl\version_6.1.2\lvgl\src\lv_objx\../lv_core/../lv_misc/lv_color.h **** #if LV_COLOR_16_SWAP == 0
 228:..\..\..\lvgl\version_6.1.2\lvgl\src\lv_objx\../lv_core/../lv_misc/lv_color.h ****         uint16_t blue : 5;
 229:..\..\..\lvgl\version_6.1.2\lvgl\src\lv_objx\../lv_core/../lv_misc/lv_color.h ****         uint16_t green : 6;
 230:..\..\..\lvgl\version_6.1.2\lvgl\src\lv_objx\../lv_core/../lv_misc/lv_color.h ****         uint16_t red : 5;
 231:..\..\..\lvgl\version_6.1.2\lvgl\src\lv_objx\../lv_core/../lv_misc/lv_color.h **** #else
 232:..\..\..\lvgl\version_6.1.2\lvgl\src\lv_objx\../lv_core/../lv_misc/lv_color.h ****         uint16_t green_h : 3;
 233:..\..\..\lvgl\version_6.1.2\lvgl\src\lv_objx\../lv_core/../lv_misc/lv_color.h ****         uint16_t red : 5;
 234:..\..\..\lvgl\version_6.1.2\lvgl\src\lv_objx\../lv_core/../lv_misc/lv_color.h ****         uint16_t blue : 5;
 235:..\..\..\lvgl\version_6.1.2\lvgl\src\lv_objx\../lv_core/../lv_misc/lv_color.h ****         uint16_t green_l : 3;
 236:..\..\..\lvgl\version_6.1.2\lvgl\src\lv_objx\../lv_core/../lv_misc/lv_color.h **** #endif
 237:..\..\..\lvgl\version_6.1.2\lvgl\src\lv_objx\../lv_core/../lv_misc/lv_color.h ****     } ch;
 238:..\..\..\lvgl\version_6.1.2\lvgl\src\lv_objx\../lv_core/../lv_misc/lv_color.h ****     uint16_t full;
 239:..\..\..\lvgl\version_6.1.2\lvgl\src\lv_objx\../lv_core/../lv_misc/lv_color.h **** } lv_color16_t;
 240:..\..\..\lvgl\version_6.1.2\lvgl\src\lv_objx\../lv_core/../lv_misc/lv_color.h **** 
 241:..\..\..\lvgl\version_6.1.2\lvgl\src\lv_objx\../lv_core/../lv_misc/lv_color.h **** typedef union
 242:..\..\..\lvgl\version_6.1.2\lvgl\src\lv_objx\../lv_core/../lv_misc/lv_color.h **** {
 243:..\..\..\lvgl\version_6.1.2\lvgl\src\lv_objx\../lv_core/../lv_misc/lv_color.h ****     struct
 244:..\..\..\lvgl\version_6.1.2\lvgl\src\lv_objx\../lv_core/../lv_misc/lv_color.h ****     {
 245:..\..\..\lvgl\version_6.1.2\lvgl\src\lv_objx\../lv_core/../lv_misc/lv_color.h ****         uint8_t blue;
 246:..\..\..\lvgl\version_6.1.2\lvgl\src\lv_objx\../lv_core/../lv_misc/lv_color.h ****         uint8_t green;
 247:..\..\..\lvgl\version_6.1.2\lvgl\src\lv_objx\../lv_core/../lv_misc/lv_color.h ****         uint8_t red;
 248:..\..\..\lvgl\version_6.1.2\lvgl\src\lv_objx\../lv_core/../lv_misc/lv_color.h ****         uint8_t alpha;
 249:..\..\..\lvgl\version_6.1.2\lvgl\src\lv_objx\../lv_core/../lv_misc/lv_color.h ****     } ch;
 250:..\..\..\lvgl\version_6.1.2\lvgl\src\lv_objx\../lv_core/../lv_misc/lv_color.h ****     uint32_t full;
 251:..\..\..\lvgl\version_6.1.2\lvgl\src\lv_objx\../lv_core/../lv_misc/lv_color.h **** } lv_color32_t;
 252:..\..\..\lvgl\version_6.1.2\lvgl\src\lv_objx\../lv_core/../lv_misc/lv_color.h **** 
 253:..\..\..\lvgl\version_6.1.2\lvgl\src\lv_objx\../lv_core/../lv_misc/lv_color.h **** #if LV_COLOR_DEPTH == 1
 254:..\..\..\lvgl\version_6.1.2\lvgl\src\lv_objx\../lv_core/../lv_misc/lv_color.h **** typedef uint8_t lv_color_int_t;
 255:..\..\..\lvgl\version_6.1.2\lvgl\src\lv_objx\../lv_core/../lv_misc/lv_color.h **** typedef lv_color1_t lv_color_t;
 256:..\..\..\lvgl\version_6.1.2\lvgl\src\lv_objx\../lv_core/../lv_misc/lv_color.h **** #elif LV_COLOR_DEPTH == 8
 257:..\..\..\lvgl\version_6.1.2\lvgl\src\lv_objx\../lv_core/../lv_misc/lv_color.h **** typedef uint8_t lv_color_int_t;
 258:..\..\..\lvgl\version_6.1.2\lvgl\src\lv_objx\../lv_core/../lv_misc/lv_color.h **** typedef lv_color8_t lv_color_t;
 259:..\..\..\lvgl\version_6.1.2\lvgl\src\lv_objx\../lv_core/../lv_misc/lv_color.h **** #elif LV_COLOR_DEPTH == 16
 260:..\..\..\lvgl\version_6.1.2\lvgl\src\lv_objx\../lv_core/../lv_misc/lv_color.h **** typedef uint16_t lv_color_int_t;
 261:..\..\..\lvgl\version_6.1.2\lvgl\src\lv_objx\../lv_core/../lv_misc/lv_color.h **** typedef lv_color16_t lv_color_t;
 262:..\..\..\lvgl\version_6.1.2\lvgl\src\lv_objx\../lv_core/../lv_misc/lv_color.h **** #elif LV_COLOR_DEPTH == 32
 263:..\..\..\lvgl\version_6.1.2\lvgl\src\lv_objx\../lv_core/../lv_misc/lv_color.h **** typedef uint32_t lv_color_int_t;
 264:..\..\..\lvgl\version_6.1.2\lvgl\src\lv_objx\../lv_core/../lv_misc/lv_color.h **** typedef lv_color32_t lv_color_t;
 265:..\..\..\lvgl\version_6.1.2\lvgl\src\lv_objx\../lv_core/../lv_misc/lv_color.h **** #else
 266:..\..\..\lvgl\version_6.1.2\lvgl\src\lv_objx\../lv_core/../lv_misc/lv_color.h **** #error "Invalid LV_COLOR_DEPTH in lv_conf.h! Set it to 1, 8, 16 or 32!"
 267:..\..\..\lvgl\version_6.1.2\lvgl\src\lv_objx\../lv_core/../lv_misc/lv_color.h **** #endif
 268:..\..\..\lvgl\version_6.1.2\lvgl\src\lv_objx\../lv_core/../lv_misc/lv_color.h **** 
 269:..\..\..\lvgl\version_6.1.2\lvgl\src\lv_objx\../lv_core/../lv_misc/lv_color.h **** typedef uint8_t lv_opa_t;
 270:..\..\..\lvgl\version_6.1.2\lvgl\src\lv_objx\../lv_core/../lv_misc/lv_color.h **** 
 271:..\..\..\lvgl\version_6.1.2\lvgl\src\lv_objx\../lv_core/../lv_misc/lv_color.h **** typedef struct
 272:..\..\..\lvgl\version_6.1.2\lvgl\src\lv_objx\../lv_core/../lv_misc/lv_color.h **** {
 273:..\..\..\lvgl\version_6.1.2\lvgl\src\lv_objx\../lv_core/../lv_misc/lv_color.h ****     uint16_t h;
 274:..\..\..\lvgl\version_6.1.2\lvgl\src\lv_objx\../lv_core/../lv_misc/lv_color.h ****     uint8_t s;
 275:..\..\..\lvgl\version_6.1.2\lvgl\src\lv_objx\../lv_core/../lv_misc/lv_color.h ****     uint8_t v;
 276:..\..\..\lvgl\version_6.1.2\lvgl\src\lv_objx\../lv_core/../lv_misc/lv_color.h **** } lv_color_hsv_t;
 277:..\..\..\lvgl\version_6.1.2\lvgl\src\lv_objx\../lv_core/../lv_misc/lv_color.h **** 
 278:..\..\..\lvgl\version_6.1.2\lvgl\src\lv_objx\../lv_core/../lv_misc/lv_color.h **** /**********************
 279:..\..\..\lvgl\version_6.1.2\lvgl\src\lv_objx\../lv_core/../lv_misc/lv_color.h ****  * GLOBAL PROTOTYPES
 280:..\..\..\lvgl\version_6.1.2\lvgl\src\lv_objx\../lv_core/../lv_misc/lv_color.h ****  **********************/
 281:..\..\..\lvgl\version_6.1.2\lvgl\src\lv_objx\../lv_core/../lv_misc/lv_color.h **** 
 282:..\..\..\lvgl\version_6.1.2\lvgl\src\lv_objx\../lv_core/../lv_misc/lv_color.h **** /*In color conversations:
 283:..\..\..\lvgl\version_6.1.2\lvgl\src\lv_objx\../lv_core/../lv_misc/lv_color.h ****  * - When converting to bigger color type the LSB weight of 1 LSB is calculated
ARM GAS  C:\Users\pearlstl\AppData\Local\Temp\ccQFxYtd.s 			page 46


 284:..\..\..\lvgl\version_6.1.2\lvgl\src\lv_objx\../lv_core/../lv_misc/lv_color.h ****  *   E.g. 16 bit Red has 5 bits
 285:..\..\..\lvgl\version_6.1.2\lvgl\src\lv_objx\../lv_core/../lv_misc/lv_color.h ****  *         8 bit Red has 2 bits
 286:..\..\..\lvgl\version_6.1.2\lvgl\src\lv_objx\../lv_core/../lv_misc/lv_color.h ****  *        ----------------------
 287:..\..\..\lvgl\version_6.1.2\lvgl\src\lv_objx\../lv_core/../lv_misc/lv_color.h ****  *        8 bit red LSB = (2^5 - 1) / (2^2 - 1) = 31 / 3 = 10
 288:..\..\..\lvgl\version_6.1.2\lvgl\src\lv_objx\../lv_core/../lv_misc/lv_color.h ****  *
 289:..\..\..\lvgl\version_6.1.2\lvgl\src\lv_objx\../lv_core/../lv_misc/lv_color.h ****  * - When calculating to smaller color type simply shift out the LSBs
 290:..\..\..\lvgl\version_6.1.2\lvgl\src\lv_objx\../lv_core/../lv_misc/lv_color.h ****  *   E.g.  8 bit Red has 2 bits
 291:..\..\..\lvgl\version_6.1.2\lvgl\src\lv_objx\../lv_core/../lv_misc/lv_color.h ****  *        16 bit Red has 5 bits
 292:..\..\..\lvgl\version_6.1.2\lvgl\src\lv_objx\../lv_core/../lv_misc/lv_color.h ****  *        ----------------------
 293:..\..\..\lvgl\version_6.1.2\lvgl\src\lv_objx\../lv_core/../lv_misc/lv_color.h ****  *         Shift right with 5 - 3 = 2
 294:..\..\..\lvgl\version_6.1.2\lvgl\src\lv_objx\../lv_core/../lv_misc/lv_color.h ****  */
 295:..\..\..\lvgl\version_6.1.2\lvgl\src\lv_objx\../lv_core/../lv_misc/lv_color.h **** 
 296:..\..\..\lvgl\version_6.1.2\lvgl\src\lv_objx\../lv_core/../lv_misc/lv_color.h **** static inline uint8_t lv_color_to1(lv_color_t color)
 297:..\..\..\lvgl\version_6.1.2\lvgl\src\lv_objx\../lv_core/../lv_misc/lv_color.h **** {
 298:..\..\..\lvgl\version_6.1.2\lvgl\src\lv_objx\../lv_core/../lv_misc/lv_color.h **** #if LV_COLOR_DEPTH == 1
 299:..\..\..\lvgl\version_6.1.2\lvgl\src\lv_objx\../lv_core/../lv_misc/lv_color.h ****     return color.full;
 300:..\..\..\lvgl\version_6.1.2\lvgl\src\lv_objx\../lv_core/../lv_misc/lv_color.h **** #elif LV_COLOR_DEPTH == 8
 301:..\..\..\lvgl\version_6.1.2\lvgl\src\lv_objx\../lv_core/../lv_misc/lv_color.h ****     if((LV_COLOR_GET_R(color) & 0x4) || (LV_COLOR_GET_G(color) & 0x4) || (LV_COLOR_GET_B(color) & 0
 302:..\..\..\lvgl\version_6.1.2\lvgl\src\lv_objx\../lv_core/../lv_misc/lv_color.h ****         return 1;
 303:..\..\..\lvgl\version_6.1.2\lvgl\src\lv_objx\../lv_core/../lv_misc/lv_color.h ****     } else {
 304:..\..\..\lvgl\version_6.1.2\lvgl\src\lv_objx\../lv_core/../lv_misc/lv_color.h ****         return 0;
 305:..\..\..\lvgl\version_6.1.2\lvgl\src\lv_objx\../lv_core/../lv_misc/lv_color.h ****     }
 306:..\..\..\lvgl\version_6.1.2\lvgl\src\lv_objx\../lv_core/../lv_misc/lv_color.h **** #elif LV_COLOR_DEPTH == 16
 307:..\..\..\lvgl\version_6.1.2\lvgl\src\lv_objx\../lv_core/../lv_misc/lv_color.h ****     if((LV_COLOR_GET_R(color) & 0x10) || (LV_COLOR_GET_G(color) & 0x20) || (LV_COLOR_GET_B(color) &
 308:..\..\..\lvgl\version_6.1.2\lvgl\src\lv_objx\../lv_core/../lv_misc/lv_color.h ****         return 1;
 309:..\..\..\lvgl\version_6.1.2\lvgl\src\lv_objx\../lv_core/../lv_misc/lv_color.h ****     } else {
 310:..\..\..\lvgl\version_6.1.2\lvgl\src\lv_objx\../lv_core/../lv_misc/lv_color.h ****         return 0;
 311:..\..\..\lvgl\version_6.1.2\lvgl\src\lv_objx\../lv_core/../lv_misc/lv_color.h ****     }
 312:..\..\..\lvgl\version_6.1.2\lvgl\src\lv_objx\../lv_core/../lv_misc/lv_color.h **** #elif LV_COLOR_DEPTH == 32
 313:..\..\..\lvgl\version_6.1.2\lvgl\src\lv_objx\../lv_core/../lv_misc/lv_color.h ****     if((LV_COLOR_GET_R(color) & 0x80) || (LV_COLOR_GET_G(color) & 0x80) || (LV_COLOR_GET_B(color) &
 314:..\..\..\lvgl\version_6.1.2\lvgl\src\lv_objx\../lv_core/../lv_misc/lv_color.h ****         return 1;
 315:..\..\..\lvgl\version_6.1.2\lvgl\src\lv_objx\../lv_core/../lv_misc/lv_color.h ****     } else {
 316:..\..\..\lvgl\version_6.1.2\lvgl\src\lv_objx\../lv_core/../lv_misc/lv_color.h ****         return 0;
 317:..\..\..\lvgl\version_6.1.2\lvgl\src\lv_objx\../lv_core/../lv_misc/lv_color.h ****     }
 318:..\..\..\lvgl\version_6.1.2\lvgl\src\lv_objx\../lv_core/../lv_misc/lv_color.h **** #endif
 319:..\..\..\lvgl\version_6.1.2\lvgl\src\lv_objx\../lv_core/../lv_misc/lv_color.h **** }
 320:..\..\..\lvgl\version_6.1.2\lvgl\src\lv_objx\../lv_core/../lv_misc/lv_color.h **** 
 321:..\..\..\lvgl\version_6.1.2\lvgl\src\lv_objx\../lv_core/../lv_misc/lv_color.h **** static inline uint8_t lv_color_to8(lv_color_t color)
 322:..\..\..\lvgl\version_6.1.2\lvgl\src\lv_objx\../lv_core/../lv_misc/lv_color.h **** {
 323:..\..\..\lvgl\version_6.1.2\lvgl\src\lv_objx\../lv_core/../lv_misc/lv_color.h **** #if LV_COLOR_DEPTH == 1
 324:..\..\..\lvgl\version_6.1.2\lvgl\src\lv_objx\../lv_core/../lv_misc/lv_color.h ****     if(color.full == 0)
 325:..\..\..\lvgl\version_6.1.2\lvgl\src\lv_objx\../lv_core/../lv_misc/lv_color.h ****         return 0;
 326:..\..\..\lvgl\version_6.1.2\lvgl\src\lv_objx\../lv_core/../lv_misc/lv_color.h ****     else
 327:..\..\..\lvgl\version_6.1.2\lvgl\src\lv_objx\../lv_core/../lv_misc/lv_color.h ****         return 0xFF;
 328:..\..\..\lvgl\version_6.1.2\lvgl\src\lv_objx\../lv_core/../lv_misc/lv_color.h **** #elif LV_COLOR_DEPTH == 8
 329:..\..\..\lvgl\version_6.1.2\lvgl\src\lv_objx\../lv_core/../lv_misc/lv_color.h ****     return color.full;
 330:..\..\..\lvgl\version_6.1.2\lvgl\src\lv_objx\../lv_core/../lv_misc/lv_color.h **** #elif LV_COLOR_DEPTH == 16
 331:..\..\..\lvgl\version_6.1.2\lvgl\src\lv_objx\../lv_core/../lv_misc/lv_color.h ****     lv_color8_t ret;
 332:..\..\..\lvgl\version_6.1.2\lvgl\src\lv_objx\../lv_core/../lv_misc/lv_color.h ****     LV_COLOR_SET_R8(ret, LV_COLOR_GET_R(color) >> 2);   /* 5 - 3  = 2*/
 333:..\..\..\lvgl\version_6.1.2\lvgl\src\lv_objx\../lv_core/../lv_misc/lv_color.h ****     LV_COLOR_SET_G8(ret, LV_COLOR_GET_G(color) >> 3); /* 6 - 3  = 3*/
 334:..\..\..\lvgl\version_6.1.2\lvgl\src\lv_objx\../lv_core/../lv_misc/lv_color.h ****     LV_COLOR_SET_B8(ret, LV_COLOR_GET_B(color) >> 3);  /* 5 - 2  = 3*/
 335:..\..\..\lvgl\version_6.1.2\lvgl\src\lv_objx\../lv_core/../lv_misc/lv_color.h ****     return ret.full;
 336:..\..\..\lvgl\version_6.1.2\lvgl\src\lv_objx\../lv_core/../lv_misc/lv_color.h **** #elif LV_COLOR_DEPTH == 32
 337:..\..\..\lvgl\version_6.1.2\lvgl\src\lv_objx\../lv_core/../lv_misc/lv_color.h ****     lv_color8_t ret;
 338:..\..\..\lvgl\version_6.1.2\lvgl\src\lv_objx\../lv_core/../lv_misc/lv_color.h ****     LV_COLOR_SET_R8(ret, LV_COLOR_GET_R(color) >> 5);   /* 8 - 3  = 5*/
 339:..\..\..\lvgl\version_6.1.2\lvgl\src\lv_objx\../lv_core/../lv_misc/lv_color.h ****     LV_COLOR_SET_G8(ret, LV_COLOR_GET_G(color) >> 5); /* 8 - 3  = 5*/
 340:..\..\..\lvgl\version_6.1.2\lvgl\src\lv_objx\../lv_core/../lv_misc/lv_color.h ****     LV_COLOR_SET_B8(ret, LV_COLOR_GET_B(color) >> 6);  /* 8 - 2  = 6*/
ARM GAS  C:\Users\pearlstl\AppData\Local\Temp\ccQFxYtd.s 			page 47


 341:..\..\..\lvgl\version_6.1.2\lvgl\src\lv_objx\../lv_core/../lv_misc/lv_color.h ****     return ret.full;
 342:..\..\..\lvgl\version_6.1.2\lvgl\src\lv_objx\../lv_core/../lv_misc/lv_color.h **** #endif
 343:..\..\..\lvgl\version_6.1.2\lvgl\src\lv_objx\../lv_core/../lv_misc/lv_color.h **** }
 344:..\..\..\lvgl\version_6.1.2\lvgl\src\lv_objx\../lv_core/../lv_misc/lv_color.h **** 
 345:..\..\..\lvgl\version_6.1.2\lvgl\src\lv_objx\../lv_core/../lv_misc/lv_color.h **** static inline uint16_t lv_color_to16(lv_color_t color)
 346:..\..\..\lvgl\version_6.1.2\lvgl\src\lv_objx\../lv_core/../lv_misc/lv_color.h **** {
 347:..\..\..\lvgl\version_6.1.2\lvgl\src\lv_objx\../lv_core/../lv_misc/lv_color.h **** #if LV_COLOR_DEPTH == 1
 348:..\..\..\lvgl\version_6.1.2\lvgl\src\lv_objx\../lv_core/../lv_misc/lv_color.h ****     if(color.full == 0)
 349:..\..\..\lvgl\version_6.1.2\lvgl\src\lv_objx\../lv_core/../lv_misc/lv_color.h ****         return 0;
 350:..\..\..\lvgl\version_6.1.2\lvgl\src\lv_objx\../lv_core/../lv_misc/lv_color.h ****     else
 351:..\..\..\lvgl\version_6.1.2\lvgl\src\lv_objx\../lv_core/../lv_misc/lv_color.h ****         return 0xFFFF;
 352:..\..\..\lvgl\version_6.1.2\lvgl\src\lv_objx\../lv_core/../lv_misc/lv_color.h **** #elif LV_COLOR_DEPTH == 8
 353:..\..\..\lvgl\version_6.1.2\lvgl\src\lv_objx\../lv_core/../lv_misc/lv_color.h ****     lv_color16_t ret;
 354:..\..\..\lvgl\version_6.1.2\lvgl\src\lv_objx\../lv_core/../lv_misc/lv_color.h ****     LV_COLOR_SET_R16(ret, LV_COLOR_GET_R(color) * 4);     /*(2^5 - 1)/(2^3 - 1) = 31/7 = 4*/
 355:..\..\..\lvgl\version_6.1.2\lvgl\src\lv_objx\../lv_core/../lv_misc/lv_color.h **** #if LV_COLOR_16_SWAP == 0
 356:..\..\..\lvgl\version_6.1.2\lvgl\src\lv_objx\../lv_core/../lv_misc/lv_color.h ****     LV_COLOR_SET_G16(ret,  LV_COLOR_GET_G(color) * 9); /*(2^6 - 1)/(2^3 - 1) = 63/7 = 9*/
 357:..\..\..\lvgl\version_6.1.2\lvgl\src\lv_objx\../lv_core/../lv_misc/lv_color.h **** #else
 358:..\..\..\lvgl\version_6.1.2\lvgl\src\lv_objx\../lv_core/../lv_misc/lv_color.h ****     LV_COLOR_SET_G16_SWAP(ret, (LV_COLOR_GET_G(color) * 9)); /*(2^6 - 1)/(2^3 - 1) = 63/7 = 9*/
 359:..\..\..\lvgl\version_6.1.2\lvgl\src\lv_objx\../lv_core/../lv_misc/lv_color.h **** #endif
 360:..\..\..\lvgl\version_6.1.2\lvgl\src\lv_objx\../lv_core/../lv_misc/lv_color.h ****     LV_COLOR_SET_B16(ret, LV_COLOR_GET_B(color) * 10);  /*(2^5 - 1)/(2^2 - 1) = 31/3 = 10*/
 361:..\..\..\lvgl\version_6.1.2\lvgl\src\lv_objx\../lv_core/../lv_misc/lv_color.h ****     return ret.full;
 362:..\..\..\lvgl\version_6.1.2\lvgl\src\lv_objx\../lv_core/../lv_misc/lv_color.h **** #elif LV_COLOR_DEPTH == 16
 363:..\..\..\lvgl\version_6.1.2\lvgl\src\lv_objx\../lv_core/../lv_misc/lv_color.h ****     return color.full;
 364:..\..\..\lvgl\version_6.1.2\lvgl\src\lv_objx\../lv_core/../lv_misc/lv_color.h **** #elif LV_COLOR_DEPTH == 32
 365:..\..\..\lvgl\version_6.1.2\lvgl\src\lv_objx\../lv_core/../lv_misc/lv_color.h ****     lv_color16_t ret;
 366:..\..\..\lvgl\version_6.1.2\lvgl\src\lv_objx\../lv_core/../lv_misc/lv_color.h ****     LV_COLOR_SET_R16(ret, LV_COLOR_GET_R(color) >> 3);   /* 8 - 5  = 3*/
 367:..\..\..\lvgl\version_6.1.2\lvgl\src\lv_objx\../lv_core/../lv_misc/lv_color.h **** 
 368:..\..\..\lvgl\version_6.1.2\lvgl\src\lv_objx\../lv_core/../lv_misc/lv_color.h **** #if LV_COLOR_16_SWAP == 0
 369:..\..\..\lvgl\version_6.1.2\lvgl\src\lv_objx\../lv_core/../lv_misc/lv_color.h ****     LV_COLOR_SET_G16(ret, LV_COLOR_GET_G(color) >> 2); /* 8 - 6  = 2*/
 370:..\..\..\lvgl\version_6.1.2\lvgl\src\lv_objx\../lv_core/../lv_misc/lv_color.h **** #else
 371:..\..\..\lvgl\version_6.1.2\lvgl\src\lv_objx\../lv_core/../lv_misc/lv_color.h ****     LV_COLOR_SET_G16_SWAP(ret, ret.ch.green_h = (LV_COLOR_GET_G(color) >> 2); /*(2^6 - 1)/(2^3 - 1)
 372:..\..\..\lvgl\version_6.1.2\lvgl\src\lv_objx\../lv_core/../lv_misc/lv_color.h **** #endif
 373:..\..\..\lvgl\version_6.1.2\lvgl\src\lv_objx\../lv_core/../lv_misc/lv_color.h ****     LV_COLOR_SET_B16(ret, LV_COLOR_GET_B(color) >> 3);  /* 8 - 5  = 3*/
 374:..\..\..\lvgl\version_6.1.2\lvgl\src\lv_objx\../lv_core/../lv_misc/lv_color.h ****     return ret.full;
 375:..\..\..\lvgl\version_6.1.2\lvgl\src\lv_objx\../lv_core/../lv_misc/lv_color.h **** #endif                         
 376:..\..\..\lvgl\version_6.1.2\lvgl\src\lv_objx\../lv_core/../lv_misc/lv_color.h **** }
 377:..\..\..\lvgl\version_6.1.2\lvgl\src\lv_objx\../lv_core/../lv_misc/lv_color.h **** 
 378:..\..\..\lvgl\version_6.1.2\lvgl\src\lv_objx\../lv_core/../lv_misc/lv_color.h **** static inline uint32_t lv_color_to32(lv_color_t color)
 379:..\..\..\lvgl\version_6.1.2\lvgl\src\lv_objx\../lv_core/../lv_misc/lv_color.h **** {
 380:..\..\..\lvgl\version_6.1.2\lvgl\src\lv_objx\../lv_core/../lv_misc/lv_color.h **** #if LV_COLOR_DEPTH == 1
 381:..\..\..\lvgl\version_6.1.2\lvgl\src\lv_objx\../lv_core/../lv_misc/lv_color.h ****     if(color.full == 0)
 382:..\..\..\lvgl\version_6.1.2\lvgl\src\lv_objx\../lv_core/../lv_misc/lv_color.h ****         return 0;
 383:..\..\..\lvgl\version_6.1.2\lvgl\src\lv_objx\../lv_core/../lv_misc/lv_color.h ****     else
 384:..\..\..\lvgl\version_6.1.2\lvgl\src\lv_objx\../lv_core/../lv_misc/lv_color.h ****         return 0xFFFFFFFF;
 385:..\..\..\lvgl\version_6.1.2\lvgl\src\lv_objx\../lv_core/../lv_misc/lv_color.h **** #elif LV_COLOR_DEPTH == 8
 386:..\..\..\lvgl\version_6.1.2\lvgl\src\lv_objx\../lv_core/../lv_misc/lv_color.h ****     lv_color32_t ret;
 387:..\..\..\lvgl\version_6.1.2\lvgl\src\lv_objx\../lv_core/../lv_misc/lv_color.h ****     LV_COLOR_SET_R32(ret, LV_COLOR_GET_R(color) * 36);     /*(2^8 - 1)/(2^3 - 1) = 255/7 = 36*/
 388:..\..\..\lvgl\version_6.1.2\lvgl\src\lv_objx\../lv_core/../lv_misc/lv_color.h ****     LV_COLOR_SET_G32(ret, LV_COLOR_GET_G(color) * 36); /*(2^8 - 1)/(2^3 - 1) = 255/7 = 36*/
 389:..\..\..\lvgl\version_6.1.2\lvgl\src\lv_objx\../lv_core/../lv_misc/lv_color.h ****     LV_COLOR_SET_B32(ret, LV_COLOR_GET_B(color) * 85);   /*(2^8 - 1)/(2^2 - 1) = 255/3 = 85*/
 390:..\..\..\lvgl\version_6.1.2\lvgl\src\lv_objx\../lv_core/../lv_misc/lv_color.h ****     LV_COLOR_SET_A32(ret, 0xFF);
 391:..\..\..\lvgl\version_6.1.2\lvgl\src\lv_objx\../lv_core/../lv_misc/lv_color.h ****     return ret.full;
 392:..\..\..\lvgl\version_6.1.2\lvgl\src\lv_objx\../lv_core/../lv_misc/lv_color.h **** #elif LV_COLOR_DEPTH == 16
 393:..\..\..\lvgl\version_6.1.2\lvgl\src\lv_objx\../lv_core/../lv_misc/lv_color.h ****     /**
 394:..\..\..\lvgl\version_6.1.2\lvgl\src\lv_objx\../lv_core/../lv_misc/lv_color.h ****      * The floating point math for conversion is:
 395:..\..\..\lvgl\version_6.1.2\lvgl\src\lv_objx\../lv_core/../lv_misc/lv_color.h ****      *  valueto = valuefrom * ( (2^bitsto - 1) / (float)(2^bitsfrom - 1) )
 396:..\..\..\lvgl\version_6.1.2\lvgl\src\lv_objx\../lv_core/../lv_misc/lv_color.h ****      * The faster integer math for conversion is:
 397:..\..\..\lvgl\version_6.1.2\lvgl\src\lv_objx\../lv_core/../lv_misc/lv_color.h ****      *  valueto = ( valuefrom * multiplier + adder ) >> divisor
ARM GAS  C:\Users\pearlstl\AppData\Local\Temp\ccQFxYtd.s 			page 48


 398:..\..\..\lvgl\version_6.1.2\lvgl\src\lv_objx\../lv_core/../lv_misc/lv_color.h ****      *   multiplier = FLOOR( ( (2^bitsto - 1) << divisor ) / (float)(2^bitsfrom - 1) )
 399:..\..\..\lvgl\version_6.1.2\lvgl\src\lv_objx\../lv_core/../lv_misc/lv_color.h ****      * 
 400:..\..\..\lvgl\version_6.1.2\lvgl\src\lv_objx\../lv_core/../lv_misc/lv_color.h ****      * Find the first divisor where ( adder >> divisor ) <= 0
 401:..\..\..\lvgl\version_6.1.2\lvgl\src\lv_objx\../lv_core/../lv_misc/lv_color.h ****      * 
 402:..\..\..\lvgl\version_6.1.2\lvgl\src\lv_objx\../lv_core/../lv_misc/lv_color.h ****      * 5-bit to 8-bit: ( 31 * multiplier + adder ) >> divisor = 255
 403:..\..\..\lvgl\version_6.1.2\lvgl\src\lv_objx\../lv_core/../lv_misc/lv_color.h ****      * divisor  multiplier  adder  min (0)  max (31)
 404:..\..\..\lvgl\version_6.1.2\lvgl\src\lv_objx\../lv_core/../lv_misc/lv_color.h ****      *       0           8      7        7       255
 405:..\..\..\lvgl\version_6.1.2\lvgl\src\lv_objx\../lv_core/../lv_misc/lv_color.h ****      *       1          16     14        7       255
 406:..\..\..\lvgl\version_6.1.2\lvgl\src\lv_objx\../lv_core/../lv_misc/lv_color.h ****      *       2          32     28        7       255
 407:..\..\..\lvgl\version_6.1.2\lvgl\src\lv_objx\../lv_core/../lv_misc/lv_color.h ****      *       3          65     25        3       255
 408:..\..\..\lvgl\version_6.1.2\lvgl\src\lv_objx\../lv_core/../lv_misc/lv_color.h ****      *       4         131     19        1       255
 409:..\..\..\lvgl\version_6.1.2\lvgl\src\lv_objx\../lv_core/../lv_misc/lv_color.h ****      *       5         263      7        0       255
 410:..\..\..\lvgl\version_6.1.2\lvgl\src\lv_objx\../lv_core/../lv_misc/lv_color.h ****      * 
 411:..\..\..\lvgl\version_6.1.2\lvgl\src\lv_objx\../lv_core/../lv_misc/lv_color.h ****      * 6-bit to 8-bit: 255 = ( 63 * multiplier + adder ) >> divisor
 412:..\..\..\lvgl\version_6.1.2\lvgl\src\lv_objx\../lv_core/../lv_misc/lv_color.h ****      * divisor  multiplier  adder  min (0)  max (63)
 413:..\..\..\lvgl\version_6.1.2\lvgl\src\lv_objx\../lv_core/../lv_misc/lv_color.h ****      *       0           4      3        3       255
 414:..\..\..\lvgl\version_6.1.2\lvgl\src\lv_objx\../lv_core/../lv_misc/lv_color.h ****      *       1           8      6        3       255
 415:..\..\..\lvgl\version_6.1.2\lvgl\src\lv_objx\../lv_core/../lv_misc/lv_color.h ****      *       2          16     12        3       255
 416:..\..\..\lvgl\version_6.1.2\lvgl\src\lv_objx\../lv_core/../lv_misc/lv_color.h ****      *       3          32     24        3       255
 417:..\..\..\lvgl\version_6.1.2\lvgl\src\lv_objx\../lv_core/../lv_misc/lv_color.h ****      *       4          64     48        3       255
 418:..\..\..\lvgl\version_6.1.2\lvgl\src\lv_objx\../lv_core/../lv_misc/lv_color.h ****      *       5         129     33        1       255
 419:..\..\..\lvgl\version_6.1.2\lvgl\src\lv_objx\../lv_core/../lv_misc/lv_color.h ****      *       6         259      3        0       255
 420:..\..\..\lvgl\version_6.1.2\lvgl\src\lv_objx\../lv_core/../lv_misc/lv_color.h ****      */
 421:..\..\..\lvgl\version_6.1.2\lvgl\src\lv_objx\../lv_core/../lv_misc/lv_color.h ****     lv_color32_t ret;
 422:..\..\..\lvgl\version_6.1.2\lvgl\src\lv_objx\../lv_core/../lv_misc/lv_color.h ****     LV_COLOR_SET_R32(ret, (LV_COLOR_GET_R(color) * 263 + 7 ) >> 5);
 423:..\..\..\lvgl\version_6.1.2\lvgl\src\lv_objx\../lv_core/../lv_misc/lv_color.h ****     LV_COLOR_SET_G32(ret, (LV_COLOR_GET_G(color) * 259 + 3 ) >> 6);
 424:..\..\..\lvgl\version_6.1.2\lvgl\src\lv_objx\../lv_core/../lv_misc/lv_color.h ****     LV_COLOR_SET_B32(ret, (LV_COLOR_GET_B(color) * 263 + 7 ) >> 5);
 425:..\..\..\lvgl\version_6.1.2\lvgl\src\lv_objx\../lv_core/../lv_misc/lv_color.h ****     LV_COLOR_SET_A32(ret, 0xFF);
 426:..\..\..\lvgl\version_6.1.2\lvgl\src\lv_objx\../lv_core/../lv_misc/lv_color.h ****     return ret.full;
 427:..\..\..\lvgl\version_6.1.2\lvgl\src\lv_objx\../lv_core/../lv_misc/lv_color.h **** #elif LV_COLOR_DEPTH == 32
 428:..\..\..\lvgl\version_6.1.2\lvgl\src\lv_objx\../lv_core/../lv_misc/lv_color.h ****     return color.full;
 429:..\..\..\lvgl\version_6.1.2\lvgl\src\lv_objx\../lv_core/../lv_misc/lv_color.h **** #endif
 430:..\..\..\lvgl\version_6.1.2\lvgl\src\lv_objx\../lv_core/../lv_misc/lv_color.h **** }
 431:..\..\..\lvgl\version_6.1.2\lvgl\src\lv_objx\../lv_core/../lv_misc/lv_color.h **** 
 432:..\..\..\lvgl\version_6.1.2\lvgl\src\lv_objx\../lv_core/../lv_misc/lv_color.h **** static inline lv_color_t lv_color_mix(lv_color_t c1, lv_color_t c2, uint8_t mix)
 433:..\..\..\lvgl\version_6.1.2\lvgl\src\lv_objx\../lv_core/../lv_misc/lv_color.h **** {
 434:..\..\..\lvgl\version_6.1.2\lvgl\src\lv_objx\../lv_core/../lv_misc/lv_color.h ****     lv_color_t ret;
 435:..\..\..\lvgl\version_6.1.2\lvgl\src\lv_objx\../lv_core/../lv_misc/lv_color.h **** #if LV_COLOR_DEPTH != 1
 436:..\..\..\lvgl\version_6.1.2\lvgl\src\lv_objx\../lv_core/../lv_misc/lv_color.h ****     /*LV_COLOR_DEPTH == 8, 16 or 32*/
 437:..\..\..\lvgl\version_6.1.2\lvgl\src\lv_objx\../lv_core/../lv_misc/lv_color.h ****     LV_COLOR_SET_R(ret, (uint16_t)((uint16_t) LV_COLOR_GET_R(c1) * mix + LV_COLOR_GET_R(c2) * (255 
 1079              		.loc 3 437 0
 1080 0214 129F     		ldr	r7, [sp, #72]
 1081              	.LBE91:
 1082              	.LBE90:
 382:..\..\..\lvgl\version_6.1.2\lvgl\src\lv_objx/lv_canvas.c ****             lv_color_t c_dest_yn = lv_img_buf_get_px_color(img, xs_int, yn, style);
 1083              		.loc 1 382 0
 1084 0216 1190     		str	r0, [sp, #68]
 1085              	.LBB99:
 1086              	.LBB92:
 1087              		.loc 3 437 0
 1088 0218 C7F1FF07 		rsb	r7, r7, #255
 1089              	.LBE92:
 1090              	.LBE99:
 383:..\..\..\lvgl\version_6.1.2\lvgl\src\lv_objx/lv_canvas.c ****             lv_color_t x_dest    = lv_color_mix(c_dest_int, c_dest_xn, xr);
 1091              		.loc 1 383 0
 1092 021c 159B     		ldr	r3, [sp, #84]
 1093 021e 1899     		ldr	r1, [sp, #96]
ARM GAS  C:\Users\pearlstl\AppData\Local\Temp\ccQFxYtd.s 			page 49


 1094 0220 1498     		ldr	r0, [sp, #80]
 1095              	.LBB100:
 1096              	.LBB93:
 1097              		.loc 3 437 0
 1098 0222 2597     		str	r7, [sp, #148]
 1099              	.LBE93:
 1100              	.LBE100:
 383:..\..\..\lvgl\version_6.1.2\lvgl\src\lv_objx/lv_canvas.c ****             lv_color_t x_dest    = lv_color_mix(c_dest_int, c_dest_xn, xr);
 1101              		.loc 1 383 0
 1102 0224 FFF7FEFF 		bl	lv_img_buf_get_px_color
 1103              	.LVL125:
 1104              	.LBB101:
 1105              	.LBB102:
 1106              		.loc 3 437 0
 1107 0228 179B     		ldr	r3, [sp, #92]
 1108              	.LBE102:
 1109              	.LBE101:
 1110              	.LBB108:
 1111              	.LBB109:
 438:..\..\..\lvgl\version_6.1.2\lvgl\src\lv_objx\../lv_core/../lv_misc/lv_color.h ****     LV_COLOR_SET_G(ret, (uint16_t)((uint16_t) LV_COLOR_GET_G(c1) * mix + LV_COLOR_GET_G(c2) * (255 
 439:..\..\..\lvgl\version_6.1.2\lvgl\src\lv_objx\../lv_core/../lv_misc/lv_color.h ****     LV_COLOR_SET_B(ret, (uint16_t)((uint16_t) LV_COLOR_GET_B(c1) * mix + LV_COLOR_GET_B(c2) * (255 
 1112              		.loc 3 439 0
 1113 022a DDF844C0 		ldr	ip, [sp, #68]
 1114              	.LVL126:
 1115              	.LBE109:
 1116              	.LBE108:
 1117              	.LBB118:
 1118              	.LBB103:
 437:..\..\..\lvgl\version_6.1.2\lvgl\src\lv_objx\../lv_core/../lv_misc/lv_color.h ****     LV_COLOR_SET_G(ret, (uint16_t)((uint16_t) LV_COLOR_GET_G(c1) * mix + LV_COLOR_GET_G(c2) * (255 
 1119              		.loc 3 437 0
 1120 022e C3F1FF03 		rsb	r3, r3, #255
 1121 0232 1A46     		mov	r2, r3
 1122              	.LBE103:
 1123              	.LBE118:
 383:..\..\..\lvgl\version_6.1.2\lvgl\src\lv_objx/lv_canvas.c ****             lv_color_t x_dest    = lv_color_mix(c_dest_int, c_dest_xn, xr);
 1124              		.loc 1 383 0
 1125 0234 8646     		mov	lr, r0
 1126              	.LVL127:
 1127              	.LBB119:
 1128              	.LBB104:
 437:..\..\..\lvgl\version_6.1.2\lvgl\src\lv_objx\../lv_core/../lv_misc/lv_color.h ****     LV_COLOR_SET_G(ret, (uint16_t)((uint16_t) LV_COLOR_GET_G(c1) * mix + LV_COLOR_GET_G(c2) * (255 
 1129              		.loc 3 437 0
 1130 0236 92B2     		uxth	r2, r2
 1131              	.LBE104:
 1132              	.LBE119:
 1133              	.LBB120:
 1134              	.LBB94:
 1135 0238 B8B2     		uxth	r0, r7
 1136              	.LVL128:
 1137              		.loc 3 439 0
 1138 023a 9DF84C70 		ldrb	r7, [sp, #76]	@ zero_extendqisi2
 1139              	.LBE94:
 1140              	.LBE120:
 1141              	.LBB121:
 1142              	.LBB105:
 437:..\..\..\lvgl\version_6.1.2\lvgl\src\lv_objx\../lv_core/../lv_misc/lv_color.h ****     LV_COLOR_SET_G(ret, (uint16_t)((uint16_t) LV_COLOR_GET_G(c1) * mix + LV_COLOR_GET_G(c2) * (255 
 1143              		.loc 3 437 0
ARM GAS  C:\Users\pearlstl\AppData\Local\Temp\ccQFxYtd.s 			page 50


 1144 023e 0892     		str	r2, [sp, #32]
 1145              	.LBE105:
 1146              	.LBE121:
 1147              	.LBB122:
 1148              	.LBB110:
 1149              		.loc 3 439 0
 1150 0240 5FFA8CF1 		uxtb	r1, ip
 1151              	.LBE110:
 1152              	.LBE122:
 1153              	.LBB123:
 1154              	.LBB106:
 437:..\..\..\lvgl\version_6.1.2\lvgl\src\lv_objx\../lv_core/../lv_misc/lv_color.h ****     LV_COLOR_SET_G(ret, (uint16_t)((uint16_t) LV_COLOR_GET_G(c1) * mix + LV_COLOR_GET_G(c2) * (255 
 1155              		.loc 3 437 0
 1156 0244 2493     		str	r3, [sp, #144]
 1157              	.LVL129:
 1158              	.LBE106:
 1159              	.LBE123:
 1160              	.LBB124:
 1161              	.LBB111:
 438:..\..\..\lvgl\version_6.1.2\lvgl\src\lv_objx\../lv_core/../lv_misc/lv_color.h ****     LV_COLOR_SET_G(ret, (uint16_t)((uint16_t) LV_COLOR_GET_G(c1) * mix + LV_COLOR_GET_G(c2) * (255 
 1162              		.loc 3 438 0
 1163 0246 CCF30722 		ubfx	r2, ip, #8, #8
 1164              	.LBE111:
 1165              	.LBE124:
 1166              	.LBB125:
 1167              	.LBB95:
 437:..\..\..\lvgl\version_6.1.2\lvgl\src\lv_objx\../lv_core/../lv_misc/lv_color.h ****     LV_COLOR_SET_G(ret, (uint16_t)((uint16_t) LV_COLOR_GET_G(c1) * mix + LV_COLOR_GET_G(c2) * (255 
 1168              		.loc 3 437 0
 1169 024a BDF84830 		ldrh	r3, [sp, #72]
 1170              	.LVL130:
 1171              	.LBE95:
 1172              	.LBE125:
 1173              	.LBB126:
 1174              	.LBB112:
 1175              		.loc 3 439 0
 1176 024e CDF858E0 		str	lr, [sp, #88]
 1177 0252 BC46     		mov	ip, r7
 1178              	.LVL131:
 438:..\..\..\lvgl\version_6.1.2\lvgl\src\lv_objx\../lv_core/../lv_misc/lv_color.h ****     LV_COLOR_SET_G(ret, (uint16_t)((uint16_t) LV_COLOR_GET_G(c1) * mix + LV_COLOR_GET_G(c2) * (255 
 1179              		.loc 3 438 0
 1180 0254 12FB00F2 		smulbb	r2, r2, r0
 1181              		.loc 3 439 0
 1182 0258 11FB00F1 		smulbb	r1, r1, r0
 1183 025c 9DF858E0 		ldrb	lr, [sp, #88]	@ zero_extendqisi2
 1184              	.LVL132:
 438:..\..\..\lvgl\version_6.1.2\lvgl\src\lv_objx\../lv_core/../lv_misc/lv_color.h ****     LV_COLOR_SET_G(ret, (uint16_t)((uint16_t) LV_COLOR_GET_G(c1) * mix + LV_COLOR_GET_G(c2) * (255 
 1185              		.loc 3 438 0
 1186 0260 1E92     		str	r2, [sp, #120]
 1187              		.loc 3 439 0
 1188 0262 03FB0C11 		mla	r1, r3, ip, r1
 437:..\..\..\lvgl\version_6.1.2\lvgl\src\lv_objx\../lv_core/../lv_misc/lv_color.h ****     LV_COLOR_SET_G(ret, (uint16_t)((uint16_t) LV_COLOR_GET_G(c1) * mix + LV_COLOR_GET_G(c2) * (255 
 1189              		.loc 3 437 0
 1190 0266 119A     		ldr	r2, [sp, #68]
 1191              		.loc 3 439 0
 1192 0268 BDF820C0 		ldrh	ip, [sp, #32]
 1193 026c 1C97     		str	r7, [sp, #112]
 1194 026e 1F46     		mov	r7, r3
ARM GAS  C:\Users\pearlstl\AppData\Local\Temp\ccQFxYtd.s 			page 51


 1195 0270 1EFB0CF3 		smulbb	r3, lr, ip
 1196              	.LBE112:
 1197              	.LBE126:
 1198              	.LBB127:
 1199              	.LBB107:
 437:..\..\..\lvgl\version_6.1.2\lvgl\src\lv_objx\../lv_core/../lv_misc/lv_color.h ****     LV_COLOR_SET_G(ret, (uint16_t)((uint16_t) LV_COLOR_GET_G(c1) * mix + LV_COLOR_GET_G(c2) * (255 
 1200              		.loc 3 437 0
 1201 0274 BDF85CC0 		ldrh	ip, [sp, #92]
 1202              	.LVL133:
 1203              	.LBE107:
 1204              	.LBE127:
 1205              	.LBB128:
 1206              	.LBB113:
 1207 0278 C2F3074E 		ubfx	lr, r2, #16, #8
 1208              		.loc 3 439 0
 1209 027c 1C9A     		ldr	r2, [sp, #112]
 1210              	.LVL134:
 438:..\..\..\lvgl\version_6.1.2\lvgl\src\lv_objx\../lv_core/../lv_misc/lv_color.h ****     LV_COLOR_SET_G(ret, (uint16_t)((uint16_t) LV_COLOR_GET_G(c1) * mix + LV_COLOR_GET_G(c2) * (255 
 1211              		.loc 3 438 0
 1212 027e 1C97     		str	r7, [sp, #112]
 1213              		.loc 3 439 0
 1214 0280 0CFB0233 		mla	r3, ip, r2, r3
 1215 0284 1F93     		str	r3, [sp, #124]
 1216              	.LBE113:
 1217              	.LBE128:
 1218              	.LBB129:
 1219              	.LBB96:
 438:..\..\..\lvgl\version_6.1.2\lvgl\src\lv_objx\../lv_core/../lv_misc/lv_color.h ****     LV_COLOR_SET_G(ret, (uint16_t)((uint16_t) LV_COLOR_GET_G(c1) * mix + LV_COLOR_GET_G(c2) * (255 
 1220              		.loc 3 438 0
 1221 0286 139B     		ldr	r3, [sp, #76]
 1222              	.LVL135:
 1223 0288 C3F30722 		ubfx	r2, r3, #8, #8
 1224              	.LBE96:
 1225              	.LBE129:
 1226              	.LBB130:
 1227              	.LBB114:
 437:..\..\..\lvgl\version_6.1.2\lvgl\src\lv_objx\../lv_core/../lv_misc/lv_color.h ****     LV_COLOR_SET_G(ret, (uint16_t)((uint16_t) LV_COLOR_GET_G(c1) * mix + LV_COLOR_GET_G(c2) * (255 
 1228              		.loc 3 437 0
 1229 028c 1EFB00F3 		smulbb	r3, lr, r0
 1230              	.LVL136:
 438:..\..\..\lvgl\version_6.1.2\lvgl\src\lv_objx\../lv_core/../lv_misc/lv_color.h ****     LV_COLOR_SET_G(ret, (uint16_t)((uint16_t) LV_COLOR_GET_G(c1) * mix + LV_COLOR_GET_G(c2) * (255 
 1231              		.loc 3 438 0
 1232 0290 BE46     		mov	lr, r7
 1233 0292 1E9F     		ldr	r7, [sp, #120]
 1234 0294 1D92     		str	r2, [sp, #116]
 1235 0296 0EFB0272 		mla	r2, lr, r2, r7
 1236              	.LBE114:
 1237              	.LBE130:
 1238              	.LBB131:
 1239              	.LBB97:
 437:..\..\..\lvgl\version_6.1.2\lvgl\src\lv_objx\../lv_core/../lv_misc/lv_color.h ****     LV_COLOR_SET_G(ret, (uint16_t)((uint16_t) LV_COLOR_GET_G(c1) * mix + LV_COLOR_GET_G(c2) * (255 
 1240              		.loc 3 437 0
 1241 029a 139F     		ldr	r7, [sp, #76]
 1242              	.LBE97:
 1243              	.LBE131:
 1244              	.LBB132:
 1245              	.LBB115:
ARM GAS  C:\Users\pearlstl\AppData\Local\Temp\ccQFxYtd.s 			page 52


 438:..\..\..\lvgl\version_6.1.2\lvgl\src\lv_objx\../lv_core/../lv_misc/lv_color.h ****     LV_COLOR_SET_G(ret, (uint16_t)((uint16_t) LV_COLOR_GET_G(c1) * mix + LV_COLOR_GET_G(c2) * (255 
 1246              		.loc 3 438 0
 1247 029c 1698     		ldr	r0, [sp, #88]
 1248              	.LVL137:
 1249              	.LBE115:
 1250              	.LBE132:
 1251              	.LBB133:
 1252              	.LBB98:
 437:..\..\..\lvgl\version_6.1.2\lvgl\src\lv_objx\../lv_core/../lv_misc/lv_color.h ****     LV_COLOR_SET_G(ret, (uint16_t)((uint16_t) LV_COLOR_GET_G(c1) * mix + LV_COLOR_GET_G(c2) * (255 
 1253              		.loc 3 437 0
 1254 029e C7F3074E 		ubfx	lr, r7, #16, #8
 1255 02a2 CDF844E0 		str	lr, [sp, #68]
 1256              	.LBE98:
 1257              	.LBE133:
 1258              	.LBB134:
 1259              	.LBB116:
 1260 02a6 169F     		ldr	r7, [sp, #88]
 1261              	.LVL138:
 438:..\..\..\lvgl\version_6.1.2\lvgl\src\lv_objx\../lv_core/../lv_misc/lv_color.h ****     LV_COLOR_SET_G(ret, (uint16_t)((uint16_t) LV_COLOR_GET_G(c1) * mix + LV_COLOR_GET_G(c2) * (255 
 1262              		.loc 3 438 0
 1263 02a8 BDF820E0 		ldrh	lr, [sp, #32]
 1264              		.loc 3 439 0
 1265 02ac C1F30721 		ubfx	r1, r1, #8, #8
 1266              	.LVL139:
 438:..\..\..\lvgl\version_6.1.2\lvgl\src\lv_objx\../lv_core/../lv_misc/lv_color.h ****     LV_COLOR_SET_G(ret, (uint16_t)((uint16_t) LV_COLOR_GET_G(c1) * mix + LV_COLOR_GET_G(c2) * (255 
 1267              		.loc 3 438 0
 1268 02b0 C0F30720 		ubfx	r0, r0, #8, #8
 1269              	.LVL140:
 1270 02b4 10FB0EF0 		smulbb	r0, r0, lr
 1271              	.LVL141:
 437:..\..\..\lvgl\version_6.1.2\lvgl\src\lv_objx\../lv_core/../lv_misc/lv_color.h ****     LV_COLOR_SET_G(ret, (uint16_t)((uint16_t) LV_COLOR_GET_G(c1) * mix + LV_COLOR_GET_G(c2) * (255 
 1272              		.loc 3 437 0
 1273 02b8 C7F3074E 		ubfx	lr, r7, #16, #8
 1274              		.loc 3 439 0
 1275 02bc C1EBC117 		rsb	r7, r1, r1, lsl #7
 1276              	.LVL142:
 1277 02c0 1397     		str	r7, [sp, #76]
 1278 02c2 1F9F     		ldr	r7, [sp, #124]
 1279 02c4 C7F30727 		ubfx	r7, r7, #8, #8
 1280 02c8 1697     		str	r7, [sp, #88]
 437:..\..\..\lvgl\version_6.1.2\lvgl\src\lv_objx\../lv_core/../lv_misc/lv_color.h ****     LV_COLOR_SET_G(ret, (uint16_t)((uint16_t) LV_COLOR_GET_G(c1) * mix + LV_COLOR_GET_G(c2) * (255 
 1281              		.loc 3 437 0
 1282 02ca 1C9F     		ldr	r7, [sp, #112]
 1283 02cc 3946     		mov	r1, r7
 1284 02ce 119F     		ldr	r7, [sp, #68]
 1285 02d0 07FB0133 		mla	r3, r7, r1, r3
 438:..\..\..\lvgl\version_6.1.2\lvgl\src\lv_objx\../lv_core/../lv_misc/lv_color.h ****     LV_COLOR_SET_G(ret, (uint16_t)((uint16_t) LV_COLOR_GET_G(c1) * mix + LV_COLOR_GET_G(c2) * (255 
 1286              		.loc 3 438 0
 1287 02d4 1D9F     		ldr	r7, [sp, #116]
 437:..\..\..\lvgl\version_6.1.2\lvgl\src\lv_objx\../lv_core/../lv_misc/lv_color.h ****     LV_COLOR_SET_G(ret, (uint16_t)((uint16_t) LV_COLOR_GET_G(c1) * mix + LV_COLOR_GET_G(c2) * (255 
 1288              		.loc 3 437 0
 1289 02d6 BDF82010 		ldrh	r1, [sp, #32]
 438:..\..\..\lvgl\version_6.1.2\lvgl\src\lv_objx\../lv_core/../lv_misc/lv_color.h ****     LV_COLOR_SET_G(ret, (uint16_t)((uint16_t) LV_COLOR_GET_G(c1) * mix + LV_COLOR_GET_G(c2) * (255 
 1290              		.loc 3 438 0
 1291 02da 0CFB0700 		mla	r0, ip, r7, r0
 1292              		.loc 3 439 0
 1293 02de 169F     		ldr	r7, [sp, #88]
ARM GAS  C:\Users\pearlstl\AppData\Local\Temp\ccQFxYtd.s 			page 53


 437:..\..\..\lvgl\version_6.1.2\lvgl\src\lv_objx\../lv_core/../lv_misc/lv_color.h ****     LV_COLOR_SET_G(ret, (uint16_t)((uint16_t) LV_COLOR_GET_G(c1) * mix + LV_COLOR_GET_G(c2) * (255 
 1294              		.loc 3 437 0
 1295 02e0 1EFB01FE 		smulbb	lr, lr, r1
 1296              		.loc 3 439 0
 1297 02e4 3946     		mov	r1, r7
 1298 02e6 139F     		ldr	r7, [sp, #76]
 438:..\..\..\lvgl\version_6.1.2\lvgl\src\lv_objx\../lv_core/../lv_misc/lv_color.h ****     LV_COLOR_SET_G(ret, (uint16_t)((uint16_t) LV_COLOR_GET_G(c1) * mix + LV_COLOR_GET_G(c2) * (255 
 1299              		.loc 3 438 0
 1300 02e8 C2F30722 		ubfx	r2, r2, #8, #8
 1301              		.loc 3 439 0
 1302 02ec 07EBC111 		add	r1, r7, r1, lsl #7
 437:..\..\..\lvgl\version_6.1.2\lvgl\src\lv_objx\../lv_core/../lv_misc/lv_color.h ****     LV_COLOR_SET_G(ret, (uint16_t)((uint16_t) LV_COLOR_GET_G(c1) * mix + LV_COLOR_GET_G(c2) * (255 
 1303              		.loc 3 437 0
 1304 02f0 119F     		ldr	r7, [sp, #68]
 438:..\..\..\lvgl\version_6.1.2\lvgl\src\lv_objx\../lv_core/../lv_misc/lv_color.h ****     LV_COLOR_SET_G(ret, (uint16_t)((uint16_t) LV_COLOR_GET_G(c1) * mix + LV_COLOR_GET_G(c2) * (255 
 1305              		.loc 3 438 0
 1306 02f2 C0F30720 		ubfx	r0, r0, #8, #8
 1307 02f6 C2EBC212 		rsb	r2, r2, r2, lsl #7
 1308              		.loc 3 439 0
 1309 02fa C1F30721 		ubfx	r1, r1, #8, #8
 438:..\..\..\lvgl\version_6.1.2\lvgl\src\lv_objx\../lv_core/../lv_misc/lv_color.h ****     LV_COLOR_SET_G(ret, (uint16_t)((uint16_t) LV_COLOR_GET_G(c1) * mix + LV_COLOR_GET_G(c2) * (255 
 1310              		.loc 3 438 0
 1311 02fe 02EBC012 		add	r2, r2, r0, lsl #7
 437:..\..\..\lvgl\version_6.1.2\lvgl\src\lv_objx\../lv_core/../lv_misc/lv_color.h ****     LV_COLOR_SET_G(ret, (uint16_t)((uint16_t) LV_COLOR_GET_G(c1) * mix + LV_COLOR_GET_G(c2) * (255 
 1312              		.loc 3 437 0
 1313 0302 C3F30723 		ubfx	r3, r3, #8, #8
 1314 0306 1A98     		ldr	r0, [sp, #104]
 1315              	.LVL143:
 1316              		.loc 3 439 0
 1317 0308 1391     		str	r1, [sp, #76]
 437:..\..\..\lvgl\version_6.1.2\lvgl\src\lv_objx\../lv_core/../lv_misc/lv_color.h ****     LV_COLOR_SET_G(ret, (uint16_t)((uint16_t) LV_COLOR_GET_G(c1) * mix + LV_COLOR_GET_G(c2) * (255 
 1318              		.loc 3 437 0
 1319 030a 0CFB07EE 		mla	lr, ip, r7, lr
 1320              		.loc 3 439 0
 1321 030e C9B2     		uxtb	r1, r1
 437:..\..\..\lvgl\version_6.1.2\lvgl\src\lv_objx\../lv_core/../lv_misc/lv_color.h ****     LV_COLOR_SET_G(ret, (uint16_t)((uint16_t) LV_COLOR_GET_G(c1) * mix + LV_COLOR_GET_G(c2) * (255 
 1322              		.loc 3 437 0
 1323 0310 C3EBC313 		rsb	r3, r3, r3, lsl #7
 1324 0314 CEF3072E 		ubfx	lr, lr, #8, #8
 438:..\..\..\lvgl\version_6.1.2\lvgl\src\lv_objx\../lv_core/../lv_misc/lv_color.h ****     LV_COLOR_SET_G(ret, (uint16_t)((uint16_t) LV_COLOR_GET_G(c1) * mix + LV_COLOR_GET_G(c2) * (255 
 1325              		.loc 3 438 0
 1326 0318 C2F30722 		ubfx	r2, r2, #8, #8
 437:..\..\..\lvgl\version_6.1.2\lvgl\src\lv_objx\../lv_core/../lv_misc/lv_color.h ****     LV_COLOR_SET_G(ret, (uint16_t)((uint16_t) LV_COLOR_GET_G(c1) * mix + LV_COLOR_GET_G(c2) * (255 
 1327              		.loc 3 437 0
 1328 031c 03EBCE13 		add	r3, r3, lr, lsl #7
 1329 0320 61F30700 		bfi	r0, r1, #0, #8
 1330              	.LVL144:
 1331 0324 C3F30723 		ubfx	r3, r3, #8, #8
 1332              		.loc 3 439 0
 1333 0328 1D91     		str	r1, [sp, #116]
 438:..\..\..\lvgl\version_6.1.2\lvgl\src\lv_objx\../lv_core/../lv_misc/lv_color.h ****     LV_COLOR_SET_G(ret, (uint16_t)((uint16_t) LV_COLOR_GET_G(c1) * mix + LV_COLOR_GET_G(c2) * (255 
 1334              		.loc 3 438 0
 1335 032a 1192     		str	r2, [sp, #68]
 1336 032c 0146     		mov	r1, r0
 1337 032e D2B2     		uxtb	r2, r2
 437:..\..\..\lvgl\version_6.1.2\lvgl\src\lv_objx\../lv_core/../lv_misc/lv_color.h ****     LV_COLOR_SET_G(ret, (uint16_t)((uint16_t) LV_COLOR_GET_G(c1) * mix + LV_COLOR_GET_G(c2) * (255 
 1338              		.loc 3 437 0
ARM GAS  C:\Users\pearlstl\AppData\Local\Temp\ccQFxYtd.s 			page 54


 1339 0330 0893     		str	r3, [sp, #32]
 1340 0332 62F30F21 		bfi	r1, r2, #8, #8
 1341              	.LVL145:
 1342 0336 DBB2     		uxtb	r3, r3
 1343 0338 63F31741 		bfi	r1, r3, #16, #8
 1344 033c 1693     		str	r3, [sp, #88]
 1345 033e 41F07F43 		orr	r3, r1, #-16777216
 1346              	.LVL146:
 1347 0342 1A93     		str	r3, [sp, #104]
 1348              	.LVL147:
 1349              	.LBE116:
 1350              	.LBE134:
 388:..\..\..\lvgl\version_6.1.2\lvgl\src\lv_objx/lv_canvas.c ****                 /*If the image has no alpha channel just simple set the result color on the canvas*
 1351              		.loc 1 388 0
 1352 0344 079B     		ldr	r3, [sp, #28]
 1353              	.LVL148:
 1354              	.LBB135:
 1355              	.LBB117:
 438:..\..\..\lvgl\version_6.1.2\lvgl\src\lv_objx\../lv_core/../lv_misc/lv_color.h ****     LV_COLOR_SET_B(ret, (uint16_t)((uint16_t) LV_COLOR_GET_B(c1) * mix + LV_COLOR_GET_B(c2) * (255 
 1356              		.loc 3 438 0
 1357 0346 1C92     		str	r2, [sp, #112]
 1358              	.LVL149:
 1359              	.LBE117:
 1360              	.LBE135:
 388:..\..\..\lvgl\version_6.1.2\lvgl\src\lv_objx/lv_canvas.c ****                 /*If the image has no alpha channel just simple set the result color on the canvas*
 1361              		.loc 1 388 0
 1362 0348 002B     		cmp	r3, #0
 1363 034a FFF6E9AE 		blt	.L75
 388:..\..\..\lvgl\version_6.1.2\lvgl\src\lv_objx/lv_canvas.c ****                 /*If the image has no alpha channel just simple set the result color on the canvas*
 1364              		.loc 1 388 0 is_stmt 0 discriminator 1
 1365 034e 219A     		ldr	r2, [sp, #132]
 1366 0350 9A42     		cmp	r2, r3
 1367 0352 7FF7E5AE 		ble	.L75
 388:..\..\..\lvgl\version_6.1.2\lvgl\src\lv_objx/lv_canvas.c ****                 /*If the image has no alpha channel just simple set the result color on the canvas*
 1368              		.loc 1 388 0 discriminator 2
 1369 0356 B8F1000F 		cmp	r8, #0
 1370 035a FFF6E1AE 		blt	.L75
 388:..\..\..\lvgl\version_6.1.2\lvgl\src\lv_objx/lv_canvas.c ****                 /*If the image has no alpha channel just simple set the result color on the canvas*
 1371              		.loc 1 388 0 discriminator 3
 1372 035e 1B9B     		ldr	r3, [sp, #108]
 1373 0360 4345     		cmp	r3, r8
 1374 0362 7FF7DDAE 		ble	.L75
 390:..\..\..\lvgl\version_6.1.2\lvgl\src\lv_objx/lv_canvas.c ****                     lv_img_buf_set_px_color(&ext_dst->dsc, x + offset_x, y + offset_y, color_res);
 1375              		.loc 1 390 0 is_stmt 1
 1376 0366 149B     		ldr	r3, [sp, #80]
 1377 0368 1878     		ldrb	r0, [r3]	@ zero_extendqisi2
 1378 036a 00F01F00 		and	r0, r0, #31
 1379 036e FFF7FEFF 		bl	lv_img_color_format_has_alpha
 1380              	.LVL150:
 1381 0372 38B9     		cbnz	r0, .L67
 391:..\..\..\lvgl\version_6.1.2\lvgl\src\lv_objx/lv_canvas.c ****                 } else {
 1382              		.loc 1 391 0
 1383 0374 1A9B     		ldr	r3, [sp, #104]
 1384 0376 0D99     		ldr	r1, [sp, #52]
 1385 0378 1098     		ldr	r0, [sp, #64]
 1386 037a 0FFA8AF2 		sxth	r2, r10
 1387 037e FFF7FEFF 		bl	lv_img_buf_set_px_color
ARM GAS  C:\Users\pearlstl\AppData\Local\Temp\ccQFxYtd.s 			page 55


 1388              	.LVL151:
 1389 0382 CDE6     		b	.L75
 1390              	.L67:
 1391              	.LBB136:
 394:..\..\..\lvgl\version_6.1.2\lvgl\src\lv_objx/lv_canvas.c ****                     lv_opa_t opa_xn  = lv_img_buf_get_px_alpha(img, xn, ys_int);
 1392              		.loc 1 394 0
 1393 0384 149F     		ldr	r7, [sp, #80]
 1394 0386 199A     		ldr	r2, [sp, #100]
 1395 0388 1899     		ldr	r1, [sp, #96]
 1396 038a 3846     		mov	r0, r7
 1397 038c FFF7FEFF 		bl	lv_img_buf_get_px_alpha
 1398              	.LVL152:
 395:..\..\..\lvgl\version_6.1.2\lvgl\src\lv_objx/lv_canvas.c ****                     lv_opa_t opa_yn  = lv_img_buf_get_px_alpha(img, xs_int, yn);
 1399              		.loc 1 395 0
 1400 0390 199A     		ldr	r2, [sp, #100]
 394:..\..\..\lvgl\version_6.1.2\lvgl\src\lv_objx/lv_canvas.c ****                     lv_opa_t opa_xn  = lv_img_buf_get_px_alpha(img, xn, ys_int);
 1401              		.loc 1 394 0
 1402 0392 1E90     		str	r0, [sp, #120]
 1403              	.LVL153:
 395:..\..\..\lvgl\version_6.1.2\lvgl\src\lv_objx/lv_canvas.c ****                     lv_opa_t opa_yn  = lv_img_buf_get_px_alpha(img, xs_int, yn);
 1404              		.loc 1 395 0
 1405 0394 2299     		ldr	r1, [sp, #136]
 1406 0396 3846     		mov	r0, r7
 1407 0398 FFF7FEFF 		bl	lv_img_buf_get_px_alpha
 1408              	.LVL154:
 396:..\..\..\lvgl\version_6.1.2\lvgl\src\lv_objx/lv_canvas.c ****                     lv_opa_t opa_x   = (opa_int * xr + (opa_xn * (255 - xr))) >> 8;
 1409              		.loc 1 396 0
 1410 039c 239A     		ldr	r2, [sp, #140]
 395:..\..\..\lvgl\version_6.1.2\lvgl\src\lv_objx/lv_canvas.c ****                     lv_opa_t opa_yn  = lv_img_buf_get_px_alpha(img, xs_int, yn);
 1411              		.loc 1 395 0
 1412 039e 1990     		str	r0, [sp, #100]
 1413              	.LVL155:
 396:..\..\..\lvgl\version_6.1.2\lvgl\src\lv_objx/lv_canvas.c ****                     lv_opa_t opa_x   = (opa_int * xr + (opa_xn * (255 - xr))) >> 8;
 1414              		.loc 1 396 0
 1415 03a0 1899     		ldr	r1, [sp, #96]
 1416 03a2 3846     		mov	r0, r7
 1417 03a4 FFF7FEFF 		bl	lv_img_buf_get_px_alpha
 1418              	.LVL156:
 399:..\..\..\lvgl\version_6.1.2\lvgl\src\lv_objx/lv_canvas.c ****                     if(opa_res <= LV_OPA_MIN) continue;
 1419              		.loc 1 399 0
 1420 03a8 BDF85C10 		ldrh	r1, [sp, #92]
 1421 03ac 1E9B     		ldr	r3, [sp, #120]
 1422 03ae 13FB01F2 		smulbb	r2, r3, r1
 1423 03b2 BDF84810 		ldrh	r1, [sp, #72]
 1424 03b6 13FB01F3 		smulbb	r3, r3, r1
 1425 03ba 2499     		ldr	r1, [sp, #144]
 1426 03bc 01FB0020 		mla	r0, r1, r0, r2
 1427              	.LVL157:
 1428 03c0 199A     		ldr	r2, [sp, #100]
 1429 03c2 2599     		ldr	r1, [sp, #148]
 1430 03c4 01FB0233 		mla	r3, r1, r2, r3
 1431 03c8 C3F30723 		ubfx	r3, r3, #8, #8
 1432 03cc C0F30722 		ubfx	r2, r0, #8, #8
 1433 03d0 1A44     		add	r2, r2, r3
 1434 03d2 5310     		asrs	r3, r2, #1
 400:..\..\..\lvgl\version_6.1.2\lvgl\src\lv_objx/lv_canvas.c **** 
 1435              		.loc 1 400 0
ARM GAS  C:\Users\pearlstl\AppData\Local\Temp\ccQFxYtd.s 			page 56


 1436 03d4 102B     		cmp	r3, #16
 399:..\..\..\lvgl\version_6.1.2\lvgl\src\lv_objx/lv_canvas.c ****                     if(opa_res <= LV_OPA_MIN) continue;
 1437              		.loc 1 399 0
 1438 03d6 1793     		str	r3, [sp, #92]
 1439              	.LVL158:
 400:..\..\..\lvgl\version_6.1.2\lvgl\src\lv_objx/lv_canvas.c **** 
 1440              		.loc 1 400 0
 1441 03d8 7FF7A2AE 		ble	.L75
 402:..\..\..\lvgl\version_6.1.2\lvgl\src\lv_objx/lv_canvas.c **** 
 1442              		.loc 1 402 0
 1443 03dc 0FFA8AF3 		sxth	r3, r10
 1444              	.LVL159:
 1445 03e0 1A46     		mov	r2, r3
 1446 03e2 1293     		str	r3, [sp, #72]
 1447              	.LVL160:
 1448 03e4 0D99     		ldr	r1, [sp, #52]
 1449 03e6 159B     		ldr	r3, [sp, #84]
 1450 03e8 1098     		ldr	r0, [sp, #64]
 1451 03ea FFF7FEFF 		bl	lv_img_buf_get_px_color
 1452              	.LVL161:
 406:..\..\..\lvgl\version_6.1.2\lvgl\src\lv_objx/lv_canvas.c ****                         if(opa_res < LV_OPA_MAX) color_res = lv_color_mix(color_res, bg_color, opa_
 1453              		.loc 1 406 0
 1454 03ee 0C9B     		ldr	r3, [sp, #48]
 399:..\..\..\lvgl\version_6.1.2\lvgl\src\lv_objx/lv_canvas.c ****                     if(opa_res <= LV_OPA_MIN) continue;
 1455              		.loc 1 399 0
 1456 03f0 9DF85C10 		ldrb	r1, [sp, #92]	@ zero_extendqisi2
 1457 03f4 1891     		str	r1, [sp, #96]
 402:..\..\..\lvgl\version_6.1.2\lvgl\src\lv_objx/lv_canvas.c **** 
 1458              		.loc 1 402 0
 1459 03f6 0246     		mov	r2, r0
 1460              	.LVL162:
 406:..\..\..\lvgl\version_6.1.2\lvgl\src\lv_objx/lv_canvas.c ****                         if(opa_res < LV_OPA_MAX) color_res = lv_color_mix(color_res, bg_color, opa_
 1461              		.loc 1 406 0
 1462 03f8 187C     		ldrb	r0, [r3, #16]	@ zero_extendqisi2
 402:..\..\..\lvgl\version_6.1.2\lvgl\src\lv_objx/lv_canvas.c **** 
 1463              		.loc 1 402 0
 1464 03fa D3B2     		uxtb	r3, r2
 1465 03fc 1F46     		mov	r7, r3
 1466              	.LVL163:
 406:..\..\..\lvgl\version_6.1.2\lvgl\src\lv_objx/lv_canvas.c ****                         if(opa_res < LV_OPA_MAX) color_res = lv_color_mix(color_res, bg_color, opa_
 1467              		.loc 1 406 0
 1468 03fe 00F01F00 		and	r0, r0, #31
 402:..\..\..\lvgl\version_6.1.2\lvgl\src\lv_objx/lv_canvas.c **** 
 1469              		.loc 1 402 0
 1470 0402 C2F30723 		ubfx	r3, r2, #8, #8
 1471 0406 C2F30742 		ubfx	r2, r2, #16, #8
 1472              	.LVL164:
 1473 040a 1E93     		str	r3, [sp, #120]
 1474              	.LVL165:
 1475 040c 1992     		str	r2, [sp, #100]
 406:..\..\..\lvgl\version_6.1.2\lvgl\src\lv_objx/lv_canvas.c ****                         if(opa_res < LV_OPA_MAX) color_res = lv_color_mix(color_res, bg_color, opa_
 1476              		.loc 1 406 0
 1477 040e FFF7FEFF 		bl	lv_img_color_format_has_alpha
 1478              	.LVL166:
 1479 0412 0028     		cmp	r0, #0
 1480 0414 34D1     		bne	.L69
 407:..\..\..\lvgl\version_6.1.2\lvgl\src\lv_objx/lv_canvas.c ****                         lv_img_buf_set_px_color(&ext_dst->dsc, x + offset_x, y + offset_y, color_re
ARM GAS  C:\Users\pearlstl\AppData\Local\Temp\ccQFxYtd.s 			page 57


 1481              		.loc 1 407 0
 1482 0416 1798     		ldr	r0, [sp, #92]
 1483 0418 FA28     		cmp	r0, #250
 1484 041a 20DC     		bgt	.L70
 1485              	.LVL167:
 1486              	.LBB77:
 1487              	.LBB78:
 437:..\..\..\lvgl\version_6.1.2\lvgl\src\lv_objx\../lv_core/../lv_misc/lv_color.h ****     LV_COLOR_SET_G(ret, (uint16_t)((uint16_t) LV_COLOR_GET_G(c1) * mix + LV_COLOR_GET_G(c2) * (255 
 1488              		.loc 3 437 0 discriminator 1
 1489 041c C0F1FF02 		rsb	r2, r0, #255
 438:..\..\..\lvgl\version_6.1.2\lvgl\src\lv_objx\../lv_core/../lv_misc/lv_color.h ****     LV_COLOR_SET_B(ret, (uint16_t)((uint16_t) LV_COLOR_GET_B(c1) * mix + LV_COLOR_GET_B(c2) * (255 
 1490              		.loc 3 438 0 discriminator 1
 1491 0420 BDF87830 		ldrh	r3, [sp, #120]
 437:..\..\..\lvgl\version_6.1.2\lvgl\src\lv_objx\../lv_core/../lv_misc/lv_color.h ****     LV_COLOR_SET_G(ret, (uint16_t)((uint16_t) LV_COLOR_GET_G(c1) * mix + LV_COLOR_GET_G(c2) * (255 
 1492              		.loc 3 437 0 discriminator 1
 1493 0424 BDF86400 		ldrh	r0, [sp, #100]
 1494 0428 92B2     		uxth	r2, r2
 438:..\..\..\lvgl\version_6.1.2\lvgl\src\lv_objx\../lv_core/../lv_misc/lv_color.h ****     LV_COLOR_SET_B(ret, (uint16_t)((uint16_t) LV_COLOR_GET_B(c1) * mix + LV_COLOR_GET_B(c2) * (255 
 1495              		.loc 3 438 0 discriminator 1
 1496 042a 13FB02F1 		smulbb	r1, r3, r2
 437:..\..\..\lvgl\version_6.1.2\lvgl\src\lv_objx\../lv_core/../lv_misc/lv_color.h ****     LV_COLOR_SET_G(ret, (uint16_t)((uint16_t) LV_COLOR_GET_G(c1) * mix + LV_COLOR_GET_G(c2) * (255 
 1497              		.loc 3 437 0 discriminator 1
 1498 042e 10FB02F0 		smulbb	r0, r0, r2
 1499              		.loc 3 439 0 discriminator 1
 1500 0432 17FB02F3 		smulbb	r3, r7, r2
 437:..\..\..\lvgl\version_6.1.2\lvgl\src\lv_objx\../lv_core/../lv_misc/lv_color.h ****     LV_COLOR_SET_G(ret, (uint16_t)((uint16_t) LV_COLOR_GET_G(c1) * mix + LV_COLOR_GET_G(c2) * (255 
 1501              		.loc 3 437 0 discriminator 1
 1502 0436 BDF86020 		ldrh	r2, [sp, #96]
 1503 043a 089F     		ldr	r7, [sp, #32]
 1504              	.LVL168:
 1505 043c 07FB0200 		mla	r0, r7, r2, r0
 438:..\..\..\lvgl\version_6.1.2\lvgl\src\lv_objx\../lv_core/../lv_misc/lv_color.h ****     LV_COLOR_SET_B(ret, (uint16_t)((uint16_t) LV_COLOR_GET_B(c1) * mix + LV_COLOR_GET_B(c2) * (255 
 1506              		.loc 3 438 0 discriminator 1
 1507 0440 119F     		ldr	r7, [sp, #68]
 1508 0442 07FB0211 		mla	r1, r7, r2, r1
 1509              		.loc 3 439 0 discriminator 1
 1510 0446 139F     		ldr	r7, [sp, #76]
 1511 0448 07FB0233 		mla	r3, r7, r2, r3
 437:..\..\..\lvgl\version_6.1.2\lvgl\src\lv_objx\../lv_core/../lv_misc/lv_color.h ****     LV_COLOR_SET_G(ret, (uint16_t)((uint16_t) LV_COLOR_GET_G(c1) * mix + LV_COLOR_GET_G(c2) * (255 
 1512              		.loc 3 437 0 discriminator 1
 1513 044c C0F30722 		ubfx	r2, r0, #8, #8
 1514 0450 1692     		str	r2, [sp, #88]
 1515              	.LVL169:
 1516              		.loc 3 439 0 discriminator 1
 1517 0452 C3F30723 		ubfx	r3, r3, #8, #8
 438:..\..\..\lvgl\version_6.1.2\lvgl\src\lv_objx\../lv_core/../lv_misc/lv_color.h ****     LV_COLOR_SET_B(ret, (uint16_t)((uint16_t) LV_COLOR_GET_B(c1) * mix + LV_COLOR_GET_B(c2) * (255 
 1518              		.loc 3 438 0 discriminator 1
 1519 0456 C1F30722 		ubfx	r2, r1, #8, #8
 1520 045a 1C92     		str	r2, [sp, #112]
 1521              	.LVL170:
 1522              		.loc 3 439 0 discriminator 1
 1523 045c 1D93     		str	r3, [sp, #116]
 1524              	.LVL171:
 1525              	.L70:
 1526              	.LBE78:
 1527              	.LBE77:
 408:..\..\..\lvgl\version_6.1.2\lvgl\src\lv_objx/lv_canvas.c ****                     }
ARM GAS  C:\Users\pearlstl\AppData\Local\Temp\ccQFxYtd.s 			page 58


 1528              		.loc 1 408 0
 1529 045e 1A9B     		ldr	r3, [sp, #104]
 1530              	.LVL172:
 1531 0460 1D9A     		ldr	r2, [sp, #116]
 1532 0462 0D99     		ldr	r1, [sp, #52]
 1533 0464 1098     		ldr	r0, [sp, #64]
 1534 0466 62F30703 		bfi	r3, r2, #0, #8
 1535              	.LVL173:
 1536 046a 1C9A     		ldr	r2, [sp, #112]
 1537 046c 62F30F23 		bfi	r3, r2, #8, #8
 1538 0470 169A     		ldr	r2, [sp, #88]
 1539 0472 62F31743 		bfi	r3, r2, #16, #8
 1540 0476 129A     		ldr	r2, [sp, #72]
 1541 0478 1A93     		str	r3, [sp, #104]
 1542 047a FFF7FEFF 		bl	lv_img_buf_set_px_color
 1543              	.LVL174:
 1544 047e 4FE6     		b	.L75
 1545              	.LVL175:
 1546              	.L69:
 1547              	.LBB79:
 413:..\..\..\lvgl\version_6.1.2\lvgl\src\lv_objx/lv_canvas.c ****                         /* Pick the foreground if it's fully opaque or the Background is fully
 1548              		.loc 1 413 0
 1549 0480 129A     		ldr	r2, [sp, #72]
 1550 0482 0D99     		ldr	r1, [sp, #52]
 1551 0484 1098     		ldr	r0, [sp, #64]
 1552 0486 FFF7FEFF 		bl	lv_img_buf_get_px_alpha
 1553              	.LVL176:
 416:..\..\..\lvgl\version_6.1.2\lvgl\src\lv_objx/lv_canvas.c ****                             lv_img_buf_set_px_color(&ext_dst->dsc, x + offset_x, y + offset_y, colo
 1554              		.loc 1 416 0
 1555 048a 179B     		ldr	r3, [sp, #92]
 1556 048c FA2B     		cmp	r3, #250
 1557 048e 01DC     		bgt	.L72
 416:..\..\..\lvgl\version_6.1.2\lvgl\src\lv_objx/lv_canvas.c ****                             lv_img_buf_set_px_color(&ext_dst->dsc, x + offset_x, y + offset_y, colo
 1558              		.loc 1 416 0 is_stmt 0 discriminator 1
 1559 0490 1028     		cmp	r0, #16
 1560 0492 0DD8     		bhi	.L73
 1561              	.L72:
 417:..\..\..\lvgl\version_6.1.2\lvgl\src\lv_objx/lv_canvas.c ****                             lv_img_buf_set_px_alpha(&ext_dst->dsc, x + offset_x, y + offset_y, opa_
 1562              		.loc 1 417 0 is_stmt 1
 1563 0494 109F     		ldr	r7, [sp, #64]
 1564              	.LVL177:
 1565 0496 1A9B     		ldr	r3, [sp, #104]
 1566 0498 129A     		ldr	r2, [sp, #72]
 1567 049a 0D99     		ldr	r1, [sp, #52]
 1568 049c 3846     		mov	r0, r7
 1569              	.LVL178:
 1570 049e FFF7FEFF 		bl	lv_img_buf_set_px_color
 1571              	.LVL179:
 418:..\..\..\lvgl\version_6.1.2\lvgl\src\lv_objx/lv_canvas.c ****                         }
 1572              		.loc 1 418 0
 1573 04a2 189B     		ldr	r3, [sp, #96]
 1574 04a4 129A     		ldr	r2, [sp, #72]
 1575 04a6 0D99     		ldr	r1, [sp, #52]
 1576 04a8 3846     		mov	r0, r7
 1577 04aa FFF7FEFF 		bl	lv_img_buf_set_px_alpha
 1578              	.LVL180:
 1579 04ae 37E6     		b	.L75
ARM GAS  C:\Users\pearlstl\AppData\Local\Temp\ccQFxYtd.s 			page 59


 1580              	.LVL181:
 1581              	.L73:
 421:..\..\..\lvgl\version_6.1.2\lvgl\src\lv_objx/lv_canvas.c ****                             lv_img_buf_set_px_color(&ext_dst->dsc, x + offset_x, y + offset_y,
 1582              		.loc 1 421 0
 1583 04b0 FA28     		cmp	r0, #250
 1584 04b2 47D8     		bhi	.L97
 1585              	.LBB80:
 430:..\..\..\lvgl\version_6.1.2\lvgl\src\lv_objx/lv_canvas.c ****                             if(opa_res_2 == 0) {
 1586              		.loc 1 430 0
 1587 04b4 BDF86020 		ldrh	r2, [sp, #96]
 1588 04b8 C0F1FF00 		rsb	r0, r0, #255
 1589              	.LVL182:
 1590 04bc C2F1FF03 		rsb	r3, r2, #255
 1591 04c0 13FB00F3 		smulbb	r3, r3, r0
 434:..\..\..\lvgl\version_6.1.2\lvgl\src\lv_objx/lv_canvas.c **** 
 1592              		.loc 1 434 0
 1593 04c4 C2EB0222 		rsb	r2, r2, r2, lsl #8
 430:..\..\..\lvgl\version_6.1.2\lvgl\src\lv_objx/lv_canvas.c ****                             if(opa_res_2 == 0) {
 1594              		.loc 1 430 0
 1595 04c8 83F47F43 		eor	r3, r3, #65280
 1596 04cc C3F30723 		ubfx	r3, r3, #8, #8
 1597              	.LVL183:
 434:..\..\..\lvgl\version_6.1.2\lvgl\src\lv_objx/lv_canvas.c **** 
 1598              		.loc 1 434 0
 1599 04d0 91B2     		uxth	r1, r2
 1600 04d2 91FBF3F1 		sdiv	r1, r1, r3
 1601              	.LVL184:
 1602              	.LBB81:
 1603              	.LBB82:
 437:..\..\..\lvgl\version_6.1.2\lvgl\src\lv_objx\../lv_core/../lv_misc/lv_color.h ****     LV_COLOR_SET_G(ret, (uint16_t)((uint16_t) LV_COLOR_GET_G(c1) * mix + LV_COLOR_GET_G(c2) * (255 
 1604              		.loc 3 437 0
 1605 04d6 C9B2     		uxtb	r1, r1
 1606 04d8 C1F1FF00 		rsb	r0, r1, #255
 1607 04dc 80B2     		uxth	r0, r0
 1608 04de 17FB00F2 		smulbb	r2, r7, r0
 1609 04e2 BDF87870 		ldrh	r7, [sp, #120]
 1610              	.LVL185:
 1611              	.LBE82:
 1612              	.LBE81:
 434:..\..\..\lvgl\version_6.1.2\lvgl\src\lv_objx/lv_canvas.c **** 
 1613              		.loc 1 434 0
 1614 04e6 1693     		str	r3, [sp, #88]
 1615              	.LVL186:
 1616 04e8 17FB00F3 		smulbb	r3, r7, r0
 1617              	.LVL187:
 1618 04ec 139F     		ldr	r7, [sp, #76]
 1619              	.LBB84:
 1620              	.LBB83:
 437:..\..\..\lvgl\version_6.1.2\lvgl\src\lv_objx\../lv_core/../lv_misc/lv_color.h ****     LV_COLOR_SET_G(ret, (uint16_t)((uint16_t) LV_COLOR_GET_G(c1) * mix + LV_COLOR_GET_G(c2) * (255 
 1621              		.loc 3 437 0
 1622 04ee 89B2     		uxth	r1, r1
 1623              	.LVL188:
 1624 04f0 07FB0122 		mla	r2, r7, r1, r2
 1625 04f4 BDF86470 		ldrh	r7, [sp, #100]
 1626 04f8 17FB00F0 		smulbb	r0, r7, r0
 1627 04fc 119F     		ldr	r7, [sp, #68]
 1628 04fe 07FB0133 		mla	r3, r7, r1, r3
ARM GAS  C:\Users\pearlstl\AppData\Local\Temp\ccQFxYtd.s 			page 60


 1629 0502 269F     		ldr	r7, [sp, #152]
 1630 0504 C2F30722 		ubfx	r2, r2, #8, #8
 1631 0508 62F30707 		bfi	r7, r2, #0, #8
 1632 050c 089A     		ldr	r2, [sp, #32]
 1633 050e C3F30723 		ubfx	r3, r3, #8, #8
 1634 0512 02FB0101 		mla	r1, r2, r1, r0
 1635 0516 63F30F27 		bfi	r7, r3, #8, #8
 1636 051a C1F30723 		ubfx	r3, r1, #8, #8
 1637 051e 63F31747 		bfi	r7, r3, #16, #8
 1638 0522 47F07F41 		orr	r1, r7, #-16777216
 1639              	.LBE83:
 1640              	.LBE84:
 436:..\..\..\lvgl\version_6.1.2\lvgl\src\lv_objx/lv_canvas.c ****                                                     lv_color_mix(color_res, bg_color, ratio));
 1641              		.loc 1 436 0
 1642 0526 109F     		ldr	r7, [sp, #64]
 1643 0528 2691     		str	r1, [sp, #152]
 1644              	.LVL189:
 1645 052a 0B46     		mov	r3, r1
 1646 052c 129A     		ldr	r2, [sp, #72]
 1647 052e 0D99     		ldr	r1, [sp, #52]
 1648 0530 3846     		mov	r0, r7
 1649 0532 FFF7FEFF 		bl	lv_img_buf_set_px_color
 1650              	.LVL190:
 438:..\..\..\lvgl\version_6.1.2\lvgl\src\lv_objx/lv_canvas.c ****                         }
 1651              		.loc 1 438 0
 1652 0536 169B     		ldr	r3, [sp, #88]
 1653 0538 129A     		ldr	r2, [sp, #72]
 1654 053a 0D99     		ldr	r1, [sp, #52]
 1655 053c 3846     		mov	r0, r7
 1656 053e FFF7FEFF 		bl	lv_img_buf_set_px_alpha
 1657              	.LVL191:
 1658 0542 EDE5     		b	.L75
 1659              	.LVL192:
 1660              	.L97:
 1661              	.LBE80:
 1662              	.LBB85:
 1663              	.LBB86:
 437:..\..\..\lvgl\version_6.1.2\lvgl\src\lv_objx\../lv_core/../lv_misc/lv_color.h ****     LV_COLOR_SET_G(ret, (uint16_t)((uint16_t) LV_COLOR_GET_G(c1) * mix + LV_COLOR_GET_G(c2) * (255 
 1664              		.loc 3 437 0
 1665 0544 C3F1FF02 		rsb	r2, r3, #255
 1666 0548 92B2     		uxth	r2, r2
 1667 054a BDF86000 		ldrh	r0, [sp, #96]
 1668              	.LVL193:
 1669 054e BDF87830 		ldrh	r3, [sp, #120]
 1670 0552 17FB02F1 		smulbb	r1, r7, r2
 1671 0556 139F     		ldr	r7, [sp, #76]
 1672              	.LVL194:
 1673 0558 07FB0011 		mla	r1, r7, r0, r1
 1674 055c BDF86470 		ldrh	r7, [sp, #100]
 1675 0560 13FB02F3 		smulbb	r3, r3, r2
 1676 0564 17FB02F2 		smulbb	r2, r7, r2
 1677 0568 119F     		ldr	r7, [sp, #68]
 1678 056a 07FB0033 		mla	r3, r7, r0, r3
 1679 056e 279F     		ldr	r7, [sp, #156]
 1680 0570 C1F30721 		ubfx	r1, r1, #8, #8
 1681 0574 61F30707 		bfi	r7, r1, #0, #8
 1682 0578 3946     		mov	r1, r7
ARM GAS  C:\Users\pearlstl\AppData\Local\Temp\ccQFxYtd.s 			page 61


 1683 057a 089F     		ldr	r7, [sp, #32]
 1684 057c C3F30723 		ubfx	r3, r3, #8, #8
 1685 0580 07FB0022 		mla	r2, r7, r0, r2
 1686 0584 63F30F21 		bfi	r1, r3, #8, #8
 1687 0588 C2F30723 		ubfx	r3, r2, #8, #8
 1688 058c 63F31741 		bfi	r1, r3, #16, #8
 1689 0590 41F07F43 		orr	r3, r1, #-16777216
 1690              	.LBE86:
 1691              	.LBE85:
 422:..\..\..\lvgl\version_6.1.2\lvgl\src\lv_objx/lv_canvas.c ****                                                     lv_color_mix(color_res, bg_color, opa_res));
 1692              		.loc 1 422 0
 1693 0594 129A     		ldr	r2, [sp, #72]
 1694 0596 0D99     		ldr	r1, [sp, #52]
 1695 0598 1098     		ldr	r0, [sp, #64]
 1696 059a 2793     		str	r3, [sp, #156]
 1697              	.LVL195:
 1698 059c FFF7FEFF 		bl	lv_img_buf_set_px_color
 1699              	.LVL196:
 1700 05a0 BEE5     		b	.L75
 1701              	.LBE79:
 1702              	.LBE136:
 1703              	.LBE138:
 1704              		.cfi_endproc
 1705              	.LFE44:
 1706              		.size	lv_canvas_rotate, .-lv_canvas_rotate
 1707 05a2 00BF     		.section	.text.lv_canvas_fill_bg,"ax",%progbits
 1708              		.align	2
 1709              		.global	lv_canvas_fill_bg
 1710              		.thumb
 1711              		.thumb_func
 1712              		.type	lv_canvas_fill_bg, %function
 1713              	lv_canvas_fill_bg:
 1714              	.LFB45:
 455:..\..\..\lvgl\version_6.1.2\lvgl\src\lv_objx/lv_canvas.c ****     LV_ASSERT_OBJ(canvas, LV_OBJX_NAME);
 1715              		.loc 1 455 0
 1716              		.cfi_startproc
 1717              		@ args = 0, pretend = 0, frame = 0
 1718              		@ frame_needed = 0, uses_anonymous_args = 0
 1719              	.LVL197:
 1720 0000 2DE9F843 		push	{r3, r4, r5, r6, r7, r8, r9, lr}
 1721              		.cfi_def_cfa_offset 32
 1722              		.cfi_offset 3, -32
 1723              		.cfi_offset 4, -28
 1724              		.cfi_offset 5, -24
 1725              		.cfi_offset 6, -20
 1726              		.cfi_offset 7, -16
 1727              		.cfi_offset 8, -12
 1728              		.cfi_offset 9, -8
 1729              		.cfi_offset 14, -4
 455:..\..\..\lvgl\version_6.1.2\lvgl\src\lv_objx/lv_canvas.c ****     LV_ASSERT_OBJ(canvas, LV_OBJX_NAME);
 1730              		.loc 1 455 0
 1731 0004 0F46     		mov	r7, r1
 1732              	.LBB139:
 1733              	.LBB140:
 212:..\..\..\lvgl\version_6.1.2\lvgl\src\lv_objx/lv_canvas.c **** 
 1734              		.loc 1 212 0
 1735 0006 FFF7FEFF 		bl	lv_obj_get_ext_attr
ARM GAS  C:\Users\pearlstl\AppData\Local\Temp\ccQFxYtd.s 			page 62


 1736              	.LVL198:
 1737              	.LBE140:
 1738              	.LBE139:
 462:..\..\..\lvgl\version_6.1.2\lvgl\src\lv_objx/lv_canvas.c ****         for(x = 0; x < dsc->header.w; x++) {
 1739              		.loc 1 462 0
 1740 000a 428A     		ldrh	r2, [r0, #18]
 1741 000c C2F34A12 		ubfx	r2, r2, #5, #11
 1742 0010 F2B1     		cbz	r2, .L98
 1743 0012 0369     		ldr	r3, [r0, #16]
 1744 0014 0546     		mov	r5, r0
 1745 0016 00F11006 		add	r6, r0, #16
 1746 001a 4FF00008 		mov	r8, #0
 1747 001e C3F38A23 		ubfx	r3, r3, #10, #11
 1748              	.LVL199:
 1749              	.L100:
 463:..\..\..\lvgl\version_6.1.2\lvgl\src\lv_objx/lv_canvas.c ****             lv_img_buf_set_px_color(dsc, x, y, color);
 1750              		.loc 1 463 0 discriminator 1
 1751 0022 8BB1     		cbz	r3, .L102
 1752 0024 0FFA88F9 		sxth	r9, r8
 463:..\..\..\lvgl\version_6.1.2\lvgl\src\lv_objx/lv_canvas.c ****             lv_img_buf_set_px_color(dsc, x, y, color);
 1753              		.loc 1 463 0 is_stmt 0
 1754 0028 0024     		movs	r4, #0
 1755              	.LVL200:
 1756              	.L101:
 464:..\..\..\lvgl\version_6.1.2\lvgl\src\lv_objx/lv_canvas.c ****         }
 1757              		.loc 1 464 0 is_stmt 1 discriminator 3
 1758 002a 3B46     		mov	r3, r7
 1759 002c 21B2     		sxth	r1, r4
 1760 002e 4A46     		mov	r2, r9
 1761 0030 3046     		mov	r0, r6
 1762 0032 FFF7FEFF 		bl	lv_img_buf_set_px_color
 1763              	.LVL201:
 463:..\..\..\lvgl\version_6.1.2\lvgl\src\lv_objx/lv_canvas.c ****             lv_img_buf_set_px_color(dsc, x, y, color);
 1764              		.loc 1 463 0 discriminator 3
 1765 0036 2B69     		ldr	r3, [r5, #16]
 1766 0038 0134     		adds	r4, r4, #1
 1767              	.LVL202:
 1768 003a C3F38A23 		ubfx	r3, r3, #10, #11
 1769 003e A342     		cmp	r3, r4
 1770 0040 F3D8     		bhi	.L101
 1771 0042 6A8A     		ldrh	r2, [r5, #18]
 1772 0044 C2F34A12 		ubfx	r2, r2, #5, #11
 1773              	.LVL203:
 1774              	.L102:
 462:..\..\..\lvgl\version_6.1.2\lvgl\src\lv_objx/lv_canvas.c ****         for(x = 0; x < dsc->header.w; x++) {
 1775              		.loc 1 462 0 discriminator 2
 1776 0048 08F10108 		add	r8, r8, #1
 1777              	.LVL204:
 1778 004c 4245     		cmp	r2, r8
 1779 004e E8D8     		bhi	.L100
 1780              	.LVL205:
 1781              	.L98:
 1782 0050 BDE8F883 		pop	{r3, r4, r5, r6, r7, r8, r9, pc}
 1783              		.cfi_endproc
 1784              	.LFE45:
 1785              		.size	lv_canvas_fill_bg, .-lv_canvas_fill_bg
 1786              		.section	.text.lv_canvas_draw_rect,"ax",%progbits
ARM GAS  C:\Users\pearlstl\AppData\Local\Temp\ccQFxYtd.s 			page 63


 1787              		.align	2
 1788              		.global	lv_canvas_draw_rect
 1789              		.thumb
 1790              		.thumb_func
 1791              		.type	lv_canvas_draw_rect, %function
 1792              	lv_canvas_draw_rect:
 1793              	.LFB46:
 480:..\..\..\lvgl\version_6.1.2\lvgl\src\lv_objx/lv_canvas.c ****     LV_ASSERT_OBJ(canvas, LV_OBJX_NAME);
 1794              		.loc 1 480 0
 1795              		.cfi_startproc
 1796              		@ args = 8, pretend = 0, frame = 400
 1797              		@ frame_needed = 0, uses_anonymous_args = 0
 1798              	.LVL206:
 1799 0000 2DE9F047 		push	{r4, r5, r6, r7, r8, r9, r10, lr}
 1800              		.cfi_def_cfa_offset 32
 1801              		.cfi_offset 4, -32
 1802              		.cfi_offset 5, -28
 1803              		.cfi_offset 6, -24
 1804              		.cfi_offset 7, -20
 1805              		.cfi_offset 8, -16
 1806              		.cfi_offset 9, -12
 1807              		.cfi_offset 10, -8
 1808              		.cfi_offset 14, -4
 1809 0004 E4B0     		sub	sp, sp, #400
 1810              		.cfi_def_cfa_offset 432
 480:..\..\..\lvgl\version_6.1.2\lvgl\src\lv_objx/lv_canvas.c ****     LV_ASSERT_OBJ(canvas, LV_OBJX_NAME);
 1811              		.loc 1 480 0
 1812 0006 8846     		mov	r8, r1
 1813 0008 9146     		mov	r9, r2
 1814 000a 1E46     		mov	r6, r3
 1815 000c BDF9B041 		ldrsh	r4, [sp, #432]
 1816              	.LBB141:
 1817              	.LBB142:
 212:..\..\..\lvgl\version_6.1.2\lvgl\src\lv_objx/lv_canvas.c **** 
 1818              		.loc 1 212 0
 1819 0010 FFF7FEFF 		bl	lv_obj_get_ext_attr
 1820              	.LVL207:
 1821              	.LBE142:
 1822              	.LBE141:
 497:..\..\..\lvgl\version_6.1.2\lvgl\src\lv_objx/lv_canvas.c ****     coords.y2 = y + h - 1;
 1823              		.loc 1 497 0
 1824 0014 731E     		subs	r3, r6, #1
 490:..\..\..\lvgl\version_6.1.2\lvgl\src\lv_objx/lv_canvas.c ****     mask.y1 = 0;
 1825              		.loc 1 490 0
 1826 0016 0169     		ldr	r1, [r0, #16]
 492:..\..\..\lvgl\version_6.1.2\lvgl\src\lv_objx/lv_canvas.c **** 
 1827              		.loc 1 492 0
 1828 0018 468A     		ldrh	r6, [r0, #18]
 495:..\..\..\lvgl\version_6.1.2\lvgl\src\lv_objx/lv_canvas.c ****     coords.y1 = y;
 1829              		.loc 1 495 0
 1830 001a ADF80880 		strh	r8, [sp, #8]	@ movhi
 498:..\..\..\lvgl\version_6.1.2\lvgl\src\lv_objx/lv_canvas.c **** 
 1831              		.loc 1 498 0
 1832 001e 621E     		subs	r2, r4, #1
 1833              	.LBB144:
 1834              	.LBB143:
 212:..\..\..\lvgl\version_6.1.2\lvgl\src\lv_objx/lv_canvas.c **** 
ARM GAS  C:\Users\pearlstl\AppData\Local\Temp\ccQFxYtd.s 			page 64


 1835              		.loc 1 212 0
 1836 0020 0546     		mov	r5, r0
 1837              	.LVL208:
 1838              	.LBE143:
 1839              	.LBE144:
 489:..\..\..\lvgl\version_6.1.2\lvgl\src\lv_objx/lv_canvas.c ****     mask.x2 = dsc->header.w - 1;
 1840              		.loc 1 489 0
 1841 0022 4FF0000A 		mov	r10, #0
 498:..\..\..\lvgl\version_6.1.2\lvgl\src\lv_objx/lv_canvas.c **** 
 1842              		.loc 1 498 0
 1843 0026 4A44     		add	r2, r2, r9
 490:..\..\..\lvgl\version_6.1.2\lvgl\src\lv_objx/lv_canvas.c ****     mask.y1 = 0;
 1844              		.loc 1 490 0
 1845 0028 C1F38A21 		ubfx	r1, r1, #10, #11
 492:..\..\..\lvgl\version_6.1.2\lvgl\src\lv_objx/lv_canvas.c **** 
 1846              		.loc 1 492 0
 1847 002c C6F34A16 		ubfx	r6, r6, #5, #11
 497:..\..\..\lvgl\version_6.1.2\lvgl\src\lv_objx/lv_canvas.c ****     coords.y2 = y + h - 1;
 1848              		.loc 1 497 0
 1849 0030 4344     		add	r3, r3, r8
 490:..\..\..\lvgl\version_6.1.2\lvgl\src\lv_objx/lv_canvas.c ****     mask.y1 = 0;
 1850              		.loc 1 490 0
 1851 0032 4F1E     		subs	r7, r1, #1
 498:..\..\..\lvgl\version_6.1.2\lvgl\src\lv_objx/lv_canvas.c **** 
 1852              		.loc 1 498 0
 1853 0034 ADF80E20 		strh	r2, [sp, #14]	@ movhi
 501:..\..\..\lvgl\version_6.1.2\lvgl\src\lv_objx/lv_canvas.c **** 
 1854              		.loc 1 501 0
 1855 0038 5146     		mov	r1, r10
 492:..\..\..\lvgl\version_6.1.2\lvgl\src\lv_objx/lv_canvas.c **** 
 1856              		.loc 1 492 0
 1857 003a 013E     		subs	r6, r6, #1
 501:..\..\..\lvgl\version_6.1.2\lvgl\src\lv_objx/lv_canvas.c **** 
 1858              		.loc 1 501 0
 1859 003c 0BA8     		add	r0, sp, #44
 1860 003e 4FF4B272 		mov	r2, #356
 497:..\..\..\lvgl\version_6.1.2\lvgl\src\lv_objx/lv_canvas.c ****     coords.y2 = y + h - 1;
 1861              		.loc 1 497 0
 1862 0042 ADF80C30 		strh	r3, [sp, #12]	@ movhi
 492:..\..\..\lvgl\version_6.1.2\lvgl\src\lv_objx/lv_canvas.c **** 
 1863              		.loc 1 492 0
 1864 0046 ADF80660 		strh	r6, [sp, #6]	@ movhi
 496:..\..\..\lvgl\version_6.1.2\lvgl\src\lv_objx/lv_canvas.c ****     coords.x2 = x + w - 1;
 1865              		.loc 1 496 0
 1866 004a ADF80A90 		strh	r9, [sp, #10]	@ movhi
 490:..\..\..\lvgl\version_6.1.2\lvgl\src\lv_objx/lv_canvas.c ****     mask.y1 = 0;
 1867              		.loc 1 490 0
 1868 004e ADF80470 		strh	r7, [sp, #4]	@ movhi
 489:..\..\..\lvgl\version_6.1.2\lvgl\src\lv_objx/lv_canvas.c ****     mask.x2 = dsc->header.w - 1;
 1869              		.loc 1 489 0
 1870 0052 ADF800A0 		strh	r10, [sp]	@ movhi
 491:..\..\..\lvgl\version_6.1.2\lvgl\src\lv_objx/lv_canvas.c ****     mask.y2 = dsc->header.h - 1;
 1871              		.loc 1 491 0
 1872 0056 ADF802A0 		strh	r10, [sp, #2]	@ movhi
 501:..\..\..\lvgl\version_6.1.2\lvgl\src\lv_objx/lv_canvas.c **** 
 1873              		.loc 1 501 0
 1874 005a FFF7FEFF 		bl	memset
ARM GAS  C:\Users\pearlstl\AppData\Local\Temp\ccQFxYtd.s 			page 65


 1875              	.LVL209:
 504:..\..\..\lvgl\version_6.1.2\lvgl\src\lv_objx/lv_canvas.c ****     lv_area_copy(&disp_buf.area, &mask);
 1876              		.loc 1 504 0
 1877 005e 2B69     		ldr	r3, [r5, #16]
 1878 0060 6A8A     		ldrh	r2, [r5, #18]
 1879 0062 A969     		ldr	r1, [r5, #24]
 1880 0064 C3F38A20 		ubfx	r0, r3, #10, #11
 1881 0068 04AE     		add	r6, sp, #16
 1882 006a C2F34A13 		ubfx	r3, r2, #5, #11
 1883 006e 10FB03F3 		smulbb	r3, r0, r3
 1884 0072 5246     		mov	r2, r10
 1885 0074 3046     		mov	r0, r6
 1886 0076 FFF7FEFF 		bl	lv_disp_buf_init
 1887              	.LVL210:
 1888              	.LBB145:
 1889              	.LBB146:
 1890              		.file 4 "..\\..\\..\\lvgl\\version_6.1.2\\lvgl\\src\\lv_objx\\../lv_core/../lv_misc/lv_area.h"
   1:..\..\..\lvgl\version_6.1.2\lvgl\src\lv_objx\../lv_core/../lv_misc/lv_area.h **** /**
   2:..\..\..\lvgl\version_6.1.2\lvgl\src\lv_objx\../lv_core/../lv_misc/lv_area.h ****  * @file lv_area.h
   3:..\..\..\lvgl\version_6.1.2\lvgl\src\lv_objx\../lv_core/../lv_misc/lv_area.h ****  *
   4:..\..\..\lvgl\version_6.1.2\lvgl\src\lv_objx\../lv_core/../lv_misc/lv_area.h ****  */
   5:..\..\..\lvgl\version_6.1.2\lvgl\src\lv_objx\../lv_core/../lv_misc/lv_area.h **** 
   6:..\..\..\lvgl\version_6.1.2\lvgl\src\lv_objx\../lv_core/../lv_misc/lv_area.h **** #ifndef LV_AREA_H
   7:..\..\..\lvgl\version_6.1.2\lvgl\src\lv_objx\../lv_core/../lv_misc/lv_area.h **** #define LV_AREA_H
   8:..\..\..\lvgl\version_6.1.2\lvgl\src\lv_objx\../lv_core/../lv_misc/lv_area.h **** 
   9:..\..\..\lvgl\version_6.1.2\lvgl\src\lv_objx\../lv_core/../lv_misc/lv_area.h **** #ifdef __cplusplus
  10:..\..\..\lvgl\version_6.1.2\lvgl\src\lv_objx\../lv_core/../lv_misc/lv_area.h **** extern "C" {
  11:..\..\..\lvgl\version_6.1.2\lvgl\src\lv_objx\../lv_core/../lv_misc/lv_area.h **** #endif
  12:..\..\..\lvgl\version_6.1.2\lvgl\src\lv_objx\../lv_core/../lv_misc/lv_area.h **** 
  13:..\..\..\lvgl\version_6.1.2\lvgl\src\lv_objx\../lv_core/../lv_misc/lv_area.h **** /*********************
  14:..\..\..\lvgl\version_6.1.2\lvgl\src\lv_objx\../lv_core/../lv_misc/lv_area.h ****  *      INCLUDES
  15:..\..\..\lvgl\version_6.1.2\lvgl\src\lv_objx\../lv_core/../lv_misc/lv_area.h ****  *********************/
  16:..\..\..\lvgl\version_6.1.2\lvgl\src\lv_objx\../lv_core/../lv_misc/lv_area.h **** #include <string.h>
  17:..\..\..\lvgl\version_6.1.2\lvgl\src\lv_objx\../lv_core/../lv_misc/lv_area.h **** #include <stdbool.h>
  18:..\..\..\lvgl\version_6.1.2\lvgl\src\lv_objx\../lv_core/../lv_misc/lv_area.h **** #include <stdint.h>
  19:..\..\..\lvgl\version_6.1.2\lvgl\src\lv_objx\../lv_core/../lv_misc/lv_area.h **** #ifdef LV_CONF_INCLUDE_SIMPLE
  20:..\..\..\lvgl\version_6.1.2\lvgl\src\lv_objx\../lv_core/../lv_misc/lv_area.h **** #include "lv_conf.h"
  21:..\..\..\lvgl\version_6.1.2\lvgl\src\lv_objx\../lv_core/../lv_misc/lv_area.h **** #else
  22:..\..\..\lvgl\version_6.1.2\lvgl\src\lv_objx\../lv_core/../lv_misc/lv_area.h **** #include "../../../lv_conf.h"
  23:..\..\..\lvgl\version_6.1.2\lvgl\src\lv_objx\../lv_core/../lv_misc/lv_area.h **** #endif
  24:..\..\..\lvgl\version_6.1.2\lvgl\src\lv_objx\../lv_core/../lv_misc/lv_area.h **** 
  25:..\..\..\lvgl\version_6.1.2\lvgl\src\lv_objx\../lv_core/../lv_misc/lv_area.h **** /*********************
  26:..\..\..\lvgl\version_6.1.2\lvgl\src\lv_objx\../lv_core/../lv_misc/lv_area.h ****  *      DEFINES
  27:..\..\..\lvgl\version_6.1.2\lvgl\src\lv_objx\../lv_core/../lv_misc/lv_area.h ****  *********************/
  28:..\..\..\lvgl\version_6.1.2\lvgl\src\lv_objx\../lv_core/../lv_misc/lv_area.h **** /*To avoid overflow don't let the max ranges (reduce with 1000) */
  29:..\..\..\lvgl\version_6.1.2\lvgl\src\lv_objx\../lv_core/../lv_misc/lv_area.h **** #define LV_COORD_MAX ((lv_coord_t)((uint32_t)((uint32_t)1 << (8 * sizeof(lv_coord_t) - 1)) - 1000))
  30:..\..\..\lvgl\version_6.1.2\lvgl\src\lv_objx\../lv_core/../lv_misc/lv_area.h **** #define LV_COORD_MIN (-LV_COORD_MAX)
  31:..\..\..\lvgl\version_6.1.2\lvgl\src\lv_objx\../lv_core/../lv_misc/lv_area.h **** 
  32:..\..\..\lvgl\version_6.1.2\lvgl\src\lv_objx\../lv_core/../lv_misc/lv_area.h **** LV_EXPORT_CONST_INT(LV_COORD_MAX);
  33:..\..\..\lvgl\version_6.1.2\lvgl\src\lv_objx\../lv_core/../lv_misc/lv_area.h **** LV_EXPORT_CONST_INT(LV_COORD_MIN);
  34:..\..\..\lvgl\version_6.1.2\lvgl\src\lv_objx\../lv_core/../lv_misc/lv_area.h **** 
  35:..\..\..\lvgl\version_6.1.2\lvgl\src\lv_objx\../lv_core/../lv_misc/lv_area.h **** /**********************
  36:..\..\..\lvgl\version_6.1.2\lvgl\src\lv_objx\../lv_core/../lv_misc/lv_area.h ****  *      TYPEDEFS
  37:..\..\..\lvgl\version_6.1.2\lvgl\src\lv_objx\../lv_core/../lv_misc/lv_area.h ****  **********************/
  38:..\..\..\lvgl\version_6.1.2\lvgl\src\lv_objx\../lv_core/../lv_misc/lv_area.h **** 
  39:..\..\..\lvgl\version_6.1.2\lvgl\src\lv_objx\../lv_core/../lv_misc/lv_area.h **** /**
  40:..\..\..\lvgl\version_6.1.2\lvgl\src\lv_objx\../lv_core/../lv_misc/lv_area.h ****  * Represents a point on the screen.
ARM GAS  C:\Users\pearlstl\AppData\Local\Temp\ccQFxYtd.s 			page 66


  41:..\..\..\lvgl\version_6.1.2\lvgl\src\lv_objx\../lv_core/../lv_misc/lv_area.h ****  */
  42:..\..\..\lvgl\version_6.1.2\lvgl\src\lv_objx\../lv_core/../lv_misc/lv_area.h **** typedef struct
  43:..\..\..\lvgl\version_6.1.2\lvgl\src\lv_objx\../lv_core/../lv_misc/lv_area.h **** {
  44:..\..\..\lvgl\version_6.1.2\lvgl\src\lv_objx\../lv_core/../lv_misc/lv_area.h ****     lv_coord_t x;
  45:..\..\..\lvgl\version_6.1.2\lvgl\src\lv_objx\../lv_core/../lv_misc/lv_area.h ****     lv_coord_t y;
  46:..\..\..\lvgl\version_6.1.2\lvgl\src\lv_objx\../lv_core/../lv_misc/lv_area.h **** } lv_point_t;
  47:..\..\..\lvgl\version_6.1.2\lvgl\src\lv_objx\../lv_core/../lv_misc/lv_area.h **** 
  48:..\..\..\lvgl\version_6.1.2\lvgl\src\lv_objx\../lv_core/../lv_misc/lv_area.h **** /** Represents an area of the screen. */
  49:..\..\..\lvgl\version_6.1.2\lvgl\src\lv_objx\../lv_core/../lv_misc/lv_area.h **** typedef struct
  50:..\..\..\lvgl\version_6.1.2\lvgl\src\lv_objx\../lv_core/../lv_misc/lv_area.h **** {
  51:..\..\..\lvgl\version_6.1.2\lvgl\src\lv_objx\../lv_core/../lv_misc/lv_area.h ****     lv_coord_t x1;
  52:..\..\..\lvgl\version_6.1.2\lvgl\src\lv_objx\../lv_core/../lv_misc/lv_area.h ****     lv_coord_t y1;
  53:..\..\..\lvgl\version_6.1.2\lvgl\src\lv_objx\../lv_core/../lv_misc/lv_area.h ****     lv_coord_t x2;
  54:..\..\..\lvgl\version_6.1.2\lvgl\src\lv_objx\../lv_core/../lv_misc/lv_area.h ****     lv_coord_t y2;
  55:..\..\..\lvgl\version_6.1.2\lvgl\src\lv_objx\../lv_core/../lv_misc/lv_area.h **** } lv_area_t;
  56:..\..\..\lvgl\version_6.1.2\lvgl\src\lv_objx\../lv_core/../lv_misc/lv_area.h **** 
  57:..\..\..\lvgl\version_6.1.2\lvgl\src\lv_objx\../lv_core/../lv_misc/lv_area.h **** /**********************
  58:..\..\..\lvgl\version_6.1.2\lvgl\src\lv_objx\../lv_core/../lv_misc/lv_area.h ****  * GLOBAL PROTOTYPES
  59:..\..\..\lvgl\version_6.1.2\lvgl\src\lv_objx\../lv_core/../lv_misc/lv_area.h ****  **********************/
  60:..\..\..\lvgl\version_6.1.2\lvgl\src\lv_objx\../lv_core/../lv_misc/lv_area.h **** 
  61:..\..\..\lvgl\version_6.1.2\lvgl\src\lv_objx\../lv_core/../lv_misc/lv_area.h **** /**
  62:..\..\..\lvgl\version_6.1.2\lvgl\src\lv_objx\../lv_core/../lv_misc/lv_area.h ****  * Initialize an area
  63:..\..\..\lvgl\version_6.1.2\lvgl\src\lv_objx\../lv_core/../lv_misc/lv_area.h ****  * @param area_p pointer to an area
  64:..\..\..\lvgl\version_6.1.2\lvgl\src\lv_objx\../lv_core/../lv_misc/lv_area.h ****  * @param x1 left coordinate of the area
  65:..\..\..\lvgl\version_6.1.2\lvgl\src\lv_objx\../lv_core/../lv_misc/lv_area.h ****  * @param y1 top coordinate of the area
  66:..\..\..\lvgl\version_6.1.2\lvgl\src\lv_objx\../lv_core/../lv_misc/lv_area.h ****  * @param x2 right coordinate of the area
  67:..\..\..\lvgl\version_6.1.2\lvgl\src\lv_objx\../lv_core/../lv_misc/lv_area.h ****  * @param y2 bottom coordinate of the area
  68:..\..\..\lvgl\version_6.1.2\lvgl\src\lv_objx\../lv_core/../lv_misc/lv_area.h ****  */
  69:..\..\..\lvgl\version_6.1.2\lvgl\src\lv_objx\../lv_core/../lv_misc/lv_area.h **** void lv_area_set(lv_area_t * area_p, lv_coord_t x1, lv_coord_t y1, lv_coord_t x2, lv_coord_t y2);
  70:..\..\..\lvgl\version_6.1.2\lvgl\src\lv_objx\../lv_core/../lv_misc/lv_area.h **** 
  71:..\..\..\lvgl\version_6.1.2\lvgl\src\lv_objx\../lv_core/../lv_misc/lv_area.h **** /**
  72:..\..\..\lvgl\version_6.1.2\lvgl\src\lv_objx\../lv_core/../lv_misc/lv_area.h ****  * Copy an area
  73:..\..\..\lvgl\version_6.1.2\lvgl\src\lv_objx\../lv_core/../lv_misc/lv_area.h ****  * @param dest pointer to the destination area
  74:..\..\..\lvgl\version_6.1.2\lvgl\src\lv_objx\../lv_core/../lv_misc/lv_area.h ****  * @param src pointer to the source area
  75:..\..\..\lvgl\version_6.1.2\lvgl\src\lv_objx\../lv_core/../lv_misc/lv_area.h ****  */
  76:..\..\..\lvgl\version_6.1.2\lvgl\src\lv_objx\../lv_core/../lv_misc/lv_area.h **** inline static void lv_area_copy(lv_area_t * dest, const lv_area_t * src)
  77:..\..\..\lvgl\version_6.1.2\lvgl\src\lv_objx\../lv_core/../lv_misc/lv_area.h **** {
  78:..\..\..\lvgl\version_6.1.2\lvgl\src\lv_objx\../lv_core/../lv_misc/lv_area.h ****     memcpy(dest, src, sizeof(lv_area_t));
 1891              		.loc 4 78 0
 1892 007a 9DE80300 		ldmia	sp, {r0, r1}
 1893 007e 08AB     		add	r3, sp, #32
 1894              	.LVL211:
 1895 0080 83E80300 		stmia	r3, {r0, r1}
 1896              	.LVL212:
 1897              	.LBE146:
 1898              	.LBE145:
 507:..\..\..\lvgl\version_6.1.2\lvgl\src\lv_objx/lv_canvas.c **** 
 1899              		.loc 1 507 0
 1900 0084 0BA8     		add	r0, sp, #44
 1901 0086 FFF7FEFF 		bl	lv_disp_drv_init
 1902              	.LVL213:
 510:..\..\..\lvgl\version_6.1.2\lvgl\src\lv_objx/lv_canvas.c ****     disp.driver.ver_res = dsc->header.h;
 1903              		.loc 1 510 0
 1904 008a 2A69     		ldr	r2, [r5, #16]
 511:..\..\..\lvgl\version_6.1.2\lvgl\src\lv_objx/lv_canvas.c **** 
 1905              		.loc 1 511 0
 1906 008c 6B8A     		ldrh	r3, [r5, #18]
ARM GAS  C:\Users\pearlstl\AppData\Local\Temp\ccQFxYtd.s 			page 67


 509:..\..\..\lvgl\version_6.1.2\lvgl\src\lv_objx/lv_canvas.c ****     disp.driver.hor_res = dsc->header.w;
 1907              		.loc 1 509 0
 1908 008e 0C96     		str	r6, [sp, #48]
 510:..\..\..\lvgl\version_6.1.2\lvgl\src\lv_objx/lv_canvas.c ****     disp.driver.ver_res = dsc->header.h;
 1909              		.loc 1 510 0
 1910 0090 C2F38A22 		ubfx	r2, r2, #10, #11
 511:..\..\..\lvgl\version_6.1.2\lvgl\src\lv_objx/lv_canvas.c **** 
 1911              		.loc 1 511 0
 1912 0094 C3F34A13 		ubfx	r3, r3, #5, #11
 510:..\..\..\lvgl\version_6.1.2\lvgl\src\lv_objx/lv_canvas.c ****     disp.driver.ver_res = dsc->header.h;
 1913              		.loc 1 510 0
 1914 0098 ADF82C20 		strh	r2, [sp, #44]	@ movhi
 511:..\..\..\lvgl\version_6.1.2\lvgl\src\lv_objx/lv_canvas.c **** 
 1915              		.loc 1 511 0
 1916 009c ADF82E30 		strh	r3, [sp, #46]	@ movhi
 524:..\..\..\lvgl\version_6.1.2\lvgl\src\lv_objx/lv_canvas.c ****     lv_refr_set_disp_refreshing(&disp);
 1917              		.loc 1 524 0
 1918 00a0 FFF7FEFF 		bl	lv_refr_get_disp_refreshing
 1919              	.LVL214:
 1920 00a4 0546     		mov	r5, r0
 1921              	.LVL215:
 525:..\..\..\lvgl\version_6.1.2\lvgl\src\lv_objx/lv_canvas.c **** 
 1922              		.loc 1 525 0
 1923 00a6 0BA8     		add	r0, sp, #44
 1924              	.LVL216:
 1925 00a8 FFF7FEFF 		bl	lv_refr_set_disp_refreshing
 1926              	.LVL217:
 527:..\..\..\lvgl\version_6.1.2\lvgl\src\lv_objx/lv_canvas.c **** 
 1927              		.loc 1 527 0
 1928 00ac 6946     		mov	r1, sp
 1929 00ae 02A8     		add	r0, sp, #8
 1930 00b0 6D9A     		ldr	r2, [sp, #436]
 1931 00b2 FF23     		movs	r3, #255
 1932 00b4 FFF7FEFF 		bl	lv_draw_rect
 1933              	.LVL218:
 529:..\..\..\lvgl\version_6.1.2\lvgl\src\lv_objx/lv_canvas.c **** }
 1934              		.loc 1 529 0
 1935 00b8 2846     		mov	r0, r5
 1936 00ba FFF7FEFF 		bl	lv_refr_set_disp_refreshing
 1937              	.LVL219:
 530:..\..\..\lvgl\version_6.1.2\lvgl\src\lv_objx/lv_canvas.c **** 
 1938              		.loc 1 530 0
 1939 00be 64B0     		add	sp, sp, #400
 1940              		.cfi_def_cfa_offset 32
 1941              		@ sp needed
 1942 00c0 BDE8F087 		pop	{r4, r5, r6, r7, r8, r9, r10, pc}
 1943              		.cfi_endproc
 1944              	.LFE46:
 1945              		.size	lv_canvas_draw_rect, .-lv_canvas_draw_rect
 1946              		.section	.text.lv_canvas_draw_text,"ax",%progbits
 1947              		.align	2
 1948              		.global	lv_canvas_draw_text
 1949              		.thumb
 1950              		.thumb_func
 1951              		.type	lv_canvas_draw_text, %function
 1952              	lv_canvas_draw_text:
 1953              	.LFB47:
ARM GAS  C:\Users\pearlstl\AppData\Local\Temp\ccQFxYtd.s 			page 68


 544:..\..\..\lvgl\version_6.1.2\lvgl\src\lv_objx/lv_canvas.c ****     LV_ASSERT_OBJ(canvas, LV_OBJX_NAME);
 1954              		.loc 1 544 0
 1955              		.cfi_startproc
 1956              		@ args = 12, pretend = 0, frame = 400
 1957              		@ frame_needed = 0, uses_anonymous_args = 0
 1958              	.LVL220:
 1959 0000 2DE9F04F 		push	{r4, r5, r6, r7, r8, r9, r10, fp, lr}
 1960              		.cfi_def_cfa_offset 36
 1961              		.cfi_offset 4, -36
 1962              		.cfi_offset 5, -32
 1963              		.cfi_offset 6, -28
 1964              		.cfi_offset 7, -24
 1965              		.cfi_offset 8, -20
 1966              		.cfi_offset 9, -16
 1967              		.cfi_offset 10, -12
 1968              		.cfi_offset 11, -8
 1969              		.cfi_offset 14, -4
 1970 0004 EBB0     		sub	sp, sp, #428
 1971              		.cfi_def_cfa_offset 464
 544:..\..\..\lvgl\version_6.1.2\lvgl\src\lv_objx/lv_canvas.c ****     LV_ASSERT_OBJ(canvas, LV_OBJX_NAME);
 1972              		.loc 1 544 0
 1973 0006 0F46     		mov	r7, r1
 1974 0008 9246     		mov	r10, r2
 1975 000a 1C46     		mov	r4, r3
 1976 000c 9DF8D881 		ldrb	r8, [sp, #472]	@ zero_extendqisi2
 1977 0010 8146     		mov	r9, r0
 1978              	.LVL221:
 1979              	.LBB147:
 1980              	.LBB148:
 212:..\..\..\lvgl\version_6.1.2\lvgl\src\lv_objx/lv_canvas.c **** 
 1981              		.loc 1 212 0
 1982 0012 FFF7FEFF 		bl	lv_obj_get_ext_attr
 1983              	.LVL222:
 1984              	.LBE148:
 1985              	.LBE147:
 561:..\..\..\lvgl\version_6.1.2\lvgl\src\lv_objx/lv_canvas.c ****     coords.y2 = dsc->header.h - 1;
 1986              		.loc 1 561 0
 1987 0016 631E     		subs	r3, r4, #1
 556:..\..\..\lvgl\version_6.1.2\lvgl\src\lv_objx/lv_canvas.c **** 
 1988              		.loc 1 556 0
 1989 0018 448A     		ldrh	r4, [r0, #18]
 554:..\..\..\lvgl\version_6.1.2\lvgl\src\lv_objx/lv_canvas.c ****     mask.y1 = 0;
 1990              		.loc 1 554 0
 1991 001a 0169     		ldr	r1, [r0, #16]
 560:..\..\..\lvgl\version_6.1.2\lvgl\src\lv_objx/lv_canvas.c ****     coords.x2 = x + max_w - 1;
 1992              		.loc 1 560 0
 1993 001c ADF822A0 		strh	r10, [sp, #34]	@ movhi
 556:..\..\..\lvgl\version_6.1.2\lvgl\src\lv_objx/lv_canvas.c **** 
 1994              		.loc 1 556 0
 1995 0020 C4F34A14 		ubfx	r4, r4, #5, #11
 1996              	.LBB150:
 1997              	.LBB149:
 212:..\..\..\lvgl\version_6.1.2\lvgl\src\lv_objx/lv_canvas.c **** 
 1998              		.loc 1 212 0
 1999 0024 0546     		mov	r5, r0
 2000              	.LVL223:
 2001              	.LBE149:
ARM GAS  C:\Users\pearlstl\AppData\Local\Temp\ccQFxYtd.s 			page 69


 2002              	.LBE150:
 553:..\..\..\lvgl\version_6.1.2\lvgl\src\lv_objx/lv_canvas.c ****     mask.x2 = dsc->header.w - 1;
 2003              		.loc 1 553 0
 2004 0026 06AE     		add	r6, sp, #24
 2005 0028 4FF0000B 		mov	fp, #0
 554:..\..\..\lvgl\version_6.1.2\lvgl\src\lv_objx/lv_canvas.c ****     mask.y1 = 0;
 2006              		.loc 1 554 0
 2007 002c C1F38A21 		ubfx	r1, r1, #10, #11
 556:..\..\..\lvgl\version_6.1.2\lvgl\src\lv_objx/lv_canvas.c **** 
 2008              		.loc 1 556 0
 2009 0030 013C     		subs	r4, r4, #1
 554:..\..\..\lvgl\version_6.1.2\lvgl\src\lv_objx/lv_canvas.c ****     mask.y1 = 0;
 2010              		.loc 1 554 0
 2011 0032 01F1FF3E 		add	lr, r1, #-1
 561:..\..\..\lvgl\version_6.1.2\lvgl\src\lv_objx/lv_canvas.c ****     coords.y2 = dsc->header.h - 1;
 2012              		.loc 1 561 0
 2013 0036 3B44     		add	r3, r3, r7
 556:..\..\..\lvgl\version_6.1.2\lvgl\src\lv_objx/lv_canvas.c **** 
 2014              		.loc 1 556 0
 2015 0038 24B2     		sxth	r4, r4
 565:..\..\..\lvgl\version_6.1.2\lvgl\src\lv_objx/lv_canvas.c **** 
 2016              		.loc 1 565 0
 2017 003a 5946     		mov	r1, fp
 2018 003c 4FF4B272 		mov	r2, #356
 2019 0040 11A8     		add	r0, sp, #68
 554:..\..\..\lvgl\version_6.1.2\lvgl\src\lv_objx/lv_canvas.c ****     mask.y1 = 0;
 2020              		.loc 1 554 0
 2021 0042 A6F804E0 		strh	lr, [r6, #4]	@ movhi
 561:..\..\..\lvgl\version_6.1.2\lvgl\src\lv_objx/lv_canvas.c ****     coords.y2 = dsc->header.h - 1;
 2022              		.loc 1 561 0
 2023 0046 ADF82430 		strh	r3, [sp, #36]	@ movhi
 562:..\..\..\lvgl\version_6.1.2\lvgl\src\lv_objx/lv_canvas.c **** 
 2024              		.loc 1 562 0
 2025 004a ADF82640 		strh	r4, [sp, #38]	@ movhi
 556:..\..\..\lvgl\version_6.1.2\lvgl\src\lv_objx/lv_canvas.c **** 
 2026              		.loc 1 556 0
 2027 004e F480     		strh	r4, [r6, #6]	@ movhi
 559:..\..\..\lvgl\version_6.1.2\lvgl\src\lv_objx/lv_canvas.c ****     coords.y1 = y;
 2028              		.loc 1 559 0
 2029 0050 ADF82070 		strh	r7, [sp, #32]	@ movhi
 553:..\..\..\lvgl\version_6.1.2\lvgl\src\lv_objx/lv_canvas.c ****     mask.x2 = dsc->header.w - 1;
 2030              		.loc 1 553 0
 2031 0054 A6F800B0 		strh	fp, [r6]	@ movhi
 555:..\..\..\lvgl\version_6.1.2\lvgl\src\lv_objx/lv_canvas.c ****     mask.y2 = dsc->header.h - 1;
 2032              		.loc 1 555 0
 2033 0058 A6F802B0 		strh	fp, [r6, #2]	@ movhi
 565:..\..\..\lvgl\version_6.1.2\lvgl\src\lv_objx/lv_canvas.c **** 
 2034              		.loc 1 565 0
 2035 005c FFF7FEFF 		bl	memset
 2036              	.LVL224:
 568:..\..\..\lvgl\version_6.1.2\lvgl\src\lv_objx/lv_canvas.c ****     lv_area_copy(&disp_buf.area, &mask);
 2037              		.loc 1 568 0
 2038 0060 2B69     		ldr	r3, [r5, #16]
 2039 0062 6A8A     		ldrh	r2, [r5, #18]
 2040 0064 A969     		ldr	r1, [r5, #24]
 2041 0066 C3F38A20 		ubfx	r0, r3, #10, #11
 2042 006a 0AAC     		add	r4, sp, #40
ARM GAS  C:\Users\pearlstl\AppData\Local\Temp\ccQFxYtd.s 			page 70


 2043 006c C2F34A13 		ubfx	r3, r2, #5, #11
 2044 0070 10FB03F3 		smulbb	r3, r0, r3
 2045 0074 5A46     		mov	r2, fp
 2046 0076 2046     		mov	r0, r4
 2047 0078 FFF7FEFF 		bl	lv_disp_buf_init
 2048              	.LVL225:
 2049              	.LBB151:
 2050              	.LBB152:
 2051              		.loc 4 78 0
 2052 007c 96E80300 		ldmia	r6, {r0, r1}
 2053 0080 0EAB     		add	r3, sp, #56
 2054              	.LVL226:
 2055 0082 83E80300 		stmia	r3, {r0, r1}
 2056              	.LVL227:
 2057              	.LBE152:
 2058              	.LBE151:
 571:..\..\..\lvgl\version_6.1.2\lvgl\src\lv_objx/lv_canvas.c **** 
 2059              		.loc 1 571 0
 2060 0086 11A8     		add	r0, sp, #68
 2061 0088 FFF7FEFF 		bl	lv_disp_drv_init
 2062              	.LVL228:
 574:..\..\..\lvgl\version_6.1.2\lvgl\src\lv_objx/lv_canvas.c ****     disp.driver.ver_res = dsc->header.h;
 2063              		.loc 1 574 0
 2064 008c 2A69     		ldr	r2, [r5, #16]
 575:..\..\..\lvgl\version_6.1.2\lvgl\src\lv_objx/lv_canvas.c **** 
 2065              		.loc 1 575 0
 2066 008e 6B8A     		ldrh	r3, [r5, #18]
 573:..\..\..\lvgl\version_6.1.2\lvgl\src\lv_objx/lv_canvas.c ****     disp.driver.hor_res = dsc->header.w;
 2067              		.loc 1 573 0
 2068 0090 1294     		str	r4, [sp, #72]
 574:..\..\..\lvgl\version_6.1.2\lvgl\src\lv_objx/lv_canvas.c ****     disp.driver.ver_res = dsc->header.h;
 2069              		.loc 1 574 0
 2070 0092 C2F38A22 		ubfx	r2, r2, #10, #11
 575:..\..\..\lvgl\version_6.1.2\lvgl\src\lv_objx/lv_canvas.c **** 
 2071              		.loc 1 575 0
 2072 0096 C3F34A13 		ubfx	r3, r3, #5, #11
 574:..\..\..\lvgl\version_6.1.2\lvgl\src\lv_objx/lv_canvas.c ****     disp.driver.ver_res = dsc->header.h;
 2073              		.loc 1 574 0
 2074 009a ADF84420 		strh	r2, [sp, #68]	@ movhi
 575:..\..\..\lvgl\version_6.1.2\lvgl\src\lv_objx/lv_canvas.c **** 
 2075              		.loc 1 575 0
 2076 009e ADF84630 		strh	r3, [sp, #70]	@ movhi
 577:..\..\..\lvgl\version_6.1.2\lvgl\src\lv_objx/lv_canvas.c ****     lv_refr_set_disp_refreshing(&disp);
 2077              		.loc 1 577 0
 2078 00a2 FFF7FEFF 		bl	lv_refr_get_disp_refreshing
 2079              	.LVL229:
 2080 00a6 0446     		mov	r4, r0
 2081              	.LVL230:
 578:..\..\..\lvgl\version_6.1.2\lvgl\src\lv_objx/lv_canvas.c **** 
 2082              		.loc 1 578 0
 2083 00a8 11A8     		add	r0, sp, #68
 2084              	.LVL231:
 2085 00aa FFF7FEFF 		bl	lv_refr_set_disp_refreshing
 2086              	.LVL232:
 581:..\..\..\lvgl\version_6.1.2\lvgl\src\lv_objx/lv_canvas.c ****         case LV_LABEL_ALIGN_LEFT: flag = LV_TXT_FLAG_NONE; break;
 2087              		.loc 1 581 0
 2088 00ae B8F1010F 		cmp	r8, #1
ARM GAS  C:\Users\pearlstl\AppData\Local\Temp\ccQFxYtd.s 			page 71


 2089 00b2 1BD0     		beq	.L115
 582:..\..\..\lvgl\version_6.1.2\lvgl\src\lv_objx/lv_canvas.c ****         case LV_LABEL_ALIGN_RIGHT: flag = LV_TXT_FLAG_RIGHT; break;
 2090              		.loc 1 582 0
 2091 00b4 B8F1020F 		cmp	r8, #2
 2092 00b8 0CBF     		ite	eq
 2093 00ba 0825     		moveq	r5, #8
 2094 00bc 5D46     		movne	r5, fp
 2095              	.L114:
 2096              	.LVL233:
 588:..\..\..\lvgl\version_6.1.2\lvgl\src\lv_objx/lv_canvas.c **** 
 2097              		.loc 1 588 0
 2098 00be 4846     		mov	r0, r9
 2099 00c0 FFF7FEFF 		bl	lv_obj_get_base_dir
 2100              	.LVL234:
 2101 00c4 0023     		movs	r3, #0
 2102 00c6 759A     		ldr	r2, [sp, #468]
 2103 00c8 0590     		str	r0, [sp, #20]
 2104 00ca 0092     		str	r2, [sp]
 2105 00cc 3146     		mov	r1, r6
 2106 00ce 08A8     		add	r0, sp, #32
 2107 00d0 0493     		str	r3, [sp, #16]
 2108 00d2 0393     		str	r3, [sp, #12]
 2109 00d4 0293     		str	r3, [sp, #8]
 2110 00d6 749A     		ldr	r2, [sp, #464]
 2111 00d8 0195     		str	r5, [sp, #4]
 2112 00da FF23     		movs	r3, #255
 2113 00dc FFF7FEFF 		bl	lv_draw_label
 2114              	.LVL235:
 590:..\..\..\lvgl\version_6.1.2\lvgl\src\lv_objx/lv_canvas.c **** }
 2115              		.loc 1 590 0
 2116 00e0 2046     		mov	r0, r4
 2117 00e2 FFF7FEFF 		bl	lv_refr_set_disp_refreshing
 2118              	.LVL236:
 591:..\..\..\lvgl\version_6.1.2\lvgl\src\lv_objx/lv_canvas.c **** 
 2119              		.loc 1 591 0
 2120 00e6 6BB0     		add	sp, sp, #428
 2121              		.cfi_remember_state
 2122              		.cfi_def_cfa_offset 36
 2123              		@ sp needed
 2124 00e8 BDE8F08F 		pop	{r4, r5, r6, r7, r8, r9, r10, fp, pc}
 2125              	.LVL237:
 2126              	.L115:
 2127              		.cfi_restore_state
 584:..\..\..\lvgl\version_6.1.2\lvgl\src\lv_objx/lv_canvas.c ****         default: flag = LV_TXT_FLAG_NONE; break;
 2128              		.loc 1 584 0
 2129 00ec 0425     		movs	r5, #4
 2130 00ee E6E7     		b	.L114
 2131              		.cfi_endproc
 2132              	.LFE47:
 2133              		.size	lv_canvas_draw_text, .-lv_canvas_draw_text
 2134              		.section	.text.lv_canvas_draw_img,"ax",%progbits
 2135              		.align	2
 2136              		.global	lv_canvas_draw_img
 2137              		.thumb
 2138              		.thumb_func
 2139              		.type	lv_canvas_draw_img, %function
 2140              	lv_canvas_draw_img:
ARM GAS  C:\Users\pearlstl\AppData\Local\Temp\ccQFxYtd.s 			page 72


 2141              	.LFB48:
 600:..\..\..\lvgl\version_6.1.2\lvgl\src\lv_objx/lv_canvas.c ****     LV_ASSERT_OBJ(canvas, LV_OBJX_NAME);
 2142              		.loc 1 600 0
 2143              		.cfi_startproc
 2144              		@ args = 4, pretend = 0, frame = 408
 2145              		@ frame_needed = 0, uses_anonymous_args = 0
 2146              	.LVL238:
 2147 0000 2DE9F043 		push	{r4, r5, r6, r7, r8, r9, lr}
 2148              		.cfi_def_cfa_offset 28
 2149              		.cfi_offset 4, -28
 2150              		.cfi_offset 5, -24
 2151              		.cfi_offset 6, -20
 2152              		.cfi_offset 7, -16
 2153              		.cfi_offset 8, -12
 2154              		.cfi_offset 9, -8
 2155              		.cfi_offset 14, -4
 2156 0004 E9B0     		sub	sp, sp, #420
 2157              		.cfi_def_cfa_offset 448
 600:..\..\..\lvgl\version_6.1.2\lvgl\src\lv_objx/lv_canvas.c ****     LV_ASSERT_OBJ(canvas, LV_OBJX_NAME);
 2158              		.loc 1 600 0
 2159 0006 1E46     		mov	r6, r3
 2160 0008 8846     		mov	r8, r1
 2161 000a 1746     		mov	r7, r2
 2162              	.LBB153:
 2163              	.LBB154:
 212:..\..\..\lvgl\version_6.1.2\lvgl\src\lv_objx/lv_canvas.c **** 
 2164              		.loc 1 212 0
 2165 000c FFF7FEFF 		bl	lv_obj_get_ext_attr
 2166              	.LVL239:
 2167              	.LBE154:
 2168              	.LBE153:
 610:..\..\..\lvgl\version_6.1.2\lvgl\src\lv_objx/lv_canvas.c ****     mask.y1 = 0;
 2169              		.loc 1 610 0
 2170 0010 0269     		ldr	r2, [r0, #16]
 612:..\..\..\lvgl\version_6.1.2\lvgl\src\lv_objx/lv_canvas.c **** 
 2171              		.loc 1 612 0
 2172 0012 438A     		ldrh	r3, [r0, #18]
 610:..\..\..\lvgl\version_6.1.2\lvgl\src\lv_objx/lv_canvas.c ****     mask.y1 = 0;
 2173              		.loc 1 610 0
 2174 0014 C2F38A22 		ubfx	r2, r2, #10, #11
 612:..\..\..\lvgl\version_6.1.2\lvgl\src\lv_objx/lv_canvas.c **** 
 2175              		.loc 1 612 0
 2176 0018 C3F34A13 		ubfx	r3, r3, #5, #11
 610:..\..\..\lvgl\version_6.1.2\lvgl\src\lv_objx/lv_canvas.c ****     mask.y1 = 0;
 2177              		.loc 1 610 0
 2178 001c 013A     		subs	r2, r2, #1
 612:..\..\..\lvgl\version_6.1.2\lvgl\src\lv_objx/lv_canvas.c **** 
 2179              		.loc 1 612 0
 2180 001e 013B     		subs	r3, r3, #1
 609:..\..\..\lvgl\version_6.1.2\lvgl\src\lv_objx/lv_canvas.c ****     mask.x2 = dsc->header.w - 1;
 2181              		.loc 1 609 0
 2182 0020 4FF00009 		mov	r9, #0
 2183              	.LBB156:
 2184              	.LBB155:
 212:..\..\..\lvgl\version_6.1.2\lvgl\src\lv_objx/lv_canvas.c **** 
 2185              		.loc 1 212 0
 2186 0024 0546     		mov	r5, r0
ARM GAS  C:\Users\pearlstl\AppData\Local\Temp\ccQFxYtd.s 			page 73


 2187              	.LVL240:
 2188              	.LBE155:
 2189              	.LBE156:
 615:..\..\..\lvgl\version_6.1.2\lvgl\src\lv_objx/lv_canvas.c ****     if(res != LV_RES_OK) {
 2190              		.loc 1 615 0
 2191 0026 03A9     		add	r1, sp, #12
 2192 0028 3046     		mov	r0, r6
 610:..\..\..\lvgl\version_6.1.2\lvgl\src\lv_objx/lv_canvas.c ****     mask.y1 = 0;
 2193              		.loc 1 610 0
 2194 002a ADF81420 		strh	r2, [sp, #20]	@ movhi
 612:..\..\..\lvgl\version_6.1.2\lvgl\src\lv_objx/lv_canvas.c **** 
 2195              		.loc 1 612 0
 2196 002e ADF81630 		strh	r3, [sp, #22]	@ movhi
 609:..\..\..\lvgl\version_6.1.2\lvgl\src\lv_objx/lv_canvas.c ****     mask.x2 = dsc->header.w - 1;
 2197              		.loc 1 609 0
 2198 0032 ADF81090 		strh	r9, [sp, #16]	@ movhi
 611:..\..\..\lvgl\version_6.1.2\lvgl\src\lv_objx/lv_canvas.c ****     mask.y2 = dsc->header.h - 1;
 2199              		.loc 1 611 0
 2200 0036 ADF81290 		strh	r9, [sp, #18]	@ movhi
 615:..\..\..\lvgl\version_6.1.2\lvgl\src\lv_objx/lv_canvas.c ****     if(res != LV_RES_OK) {
 2201              		.loc 1 615 0
 2202 003a FFF7FEFF 		bl	lv_img_decoder_get_info
 2203              	.LVL241:
 616:..\..\..\lvgl\version_6.1.2\lvgl\src\lv_objx/lv_canvas.c ****         LV_LOG_WARN("lv_canvas_draw_img: Couldn't get the image data.");
 2204              		.loc 1 616 0
 2205 003e 0128     		cmp	r0, #1
 2206 0040 02D0     		beq	.L123
 2207              	.LVL242:
 2208              	.L119:
 646:..\..\..\lvgl\version_6.1.2\lvgl\src\lv_objx/lv_canvas.c **** 
 2209              		.loc 1 646 0
 2210 0042 69B0     		add	sp, sp, #420
 2211              		.cfi_remember_state
 2212              		.cfi_def_cfa_offset 28
 2213              		@ sp needed
 2214 0044 BDE8F083 		pop	{r4, r5, r6, r7, r8, r9, pc}
 2215              	.LVL243:
 2216              	.L123:
 2217              		.cfi_restore_state
 624:..\..\..\lvgl\version_6.1.2\lvgl\src\lv_objx/lv_canvas.c ****     coords.y2 = y + header.h - 1;
 2218              		.loc 1 624 0
 2219 0048 039A     		ldr	r2, [sp, #12]
 625:..\..\..\lvgl\version_6.1.2\lvgl\src\lv_objx/lv_canvas.c **** 
 2220              		.loc 1 625 0
 2221 004a BDF80E30 		ldrh	r3, [sp, #14]
 623:..\..\..\lvgl\version_6.1.2\lvgl\src\lv_objx/lv_canvas.c ****     coords.x2 = x + header.w - 1;
 2222              		.loc 1 623 0
 2223 004e ADF81A70 		strh	r7, [sp, #26]	@ movhi
 624:..\..\..\lvgl\version_6.1.2\lvgl\src\lv_objx/lv_canvas.c ****     coords.y2 = y + header.h - 1;
 2224              		.loc 1 624 0
 2225 0052 C2F38A22 		ubfx	r2, r2, #10, #11
 625:..\..\..\lvgl\version_6.1.2\lvgl\src\lv_objx/lv_canvas.c **** 
 2226              		.loc 1 625 0
 2227 0056 C3F34A13 		ubfx	r3, r3, #5, #11
 624:..\..\..\lvgl\version_6.1.2\lvgl\src\lv_objx/lv_canvas.c ****     coords.y2 = y + header.h - 1;
 2228              		.loc 1 624 0
 2229 005a 013A     		subs	r2, r2, #1
ARM GAS  C:\Users\pearlstl\AppData\Local\Temp\ccQFxYtd.s 			page 74


 2230 005c 4244     		add	r2, r2, r8
 625:..\..\..\lvgl\version_6.1.2\lvgl\src\lv_objx/lv_canvas.c **** 
 2231              		.loc 1 625 0
 2232 005e 013B     		subs	r3, r3, #1
 2233 0060 3B44     		add	r3, r3, r7
 624:..\..\..\lvgl\version_6.1.2\lvgl\src\lv_objx/lv_canvas.c ****     coords.y2 = y + header.h - 1;
 2234              		.loc 1 624 0
 2235 0062 ADF81C20 		strh	r2, [sp, #28]	@ movhi
 628:..\..\..\lvgl\version_6.1.2\lvgl\src\lv_objx/lv_canvas.c **** 
 2236              		.loc 1 628 0
 2237 0066 4946     		mov	r1, r9
 2238 0068 0FA8     		add	r0, sp, #60
 2239              	.LVL244:
 2240 006a 4FF4B272 		mov	r2, #356
 625:..\..\..\lvgl\version_6.1.2\lvgl\src\lv_objx/lv_canvas.c **** 
 2241              		.loc 1 625 0
 2242 006e ADF81E30 		strh	r3, [sp, #30]	@ movhi
 622:..\..\..\lvgl\version_6.1.2\lvgl\src\lv_objx/lv_canvas.c ****     coords.y1 = y;
 2243              		.loc 1 622 0
 2244 0072 ADF81880 		strh	r8, [sp, #24]	@ movhi
 628:..\..\..\lvgl\version_6.1.2\lvgl\src\lv_objx/lv_canvas.c **** 
 2245              		.loc 1 628 0
 2246 0076 FFF7FEFF 		bl	memset
 2247              	.LVL245:
 631:..\..\..\lvgl\version_6.1.2\lvgl\src\lv_objx/lv_canvas.c ****     lv_area_copy(&disp_buf.area, &mask);
 2248              		.loc 1 631 0
 2249 007a 2A69     		ldr	r2, [r5, #16]
 2250 007c 6B8A     		ldrh	r3, [r5, #18]
 2251 007e A969     		ldr	r1, [r5, #24]
 2252 0080 C2F38A20 		ubfx	r0, r2, #10, #11
 2253 0084 08AF     		add	r7, sp, #32
 2254 0086 C3F34A13 		ubfx	r3, r3, #5, #11
 2255 008a 4A46     		mov	r2, r9
 2256 008c 04AC     		add	r4, sp, #16
 2257 008e 10FB03F3 		smulbb	r3, r0, r3
 2258 0092 3846     		mov	r0, r7
 2259 0094 FFF7FEFF 		bl	lv_disp_buf_init
 2260              	.LVL246:
 2261              	.LBB157:
 2262              	.LBB158:
 2263              		.loc 4 78 0
 2264 0098 94E80300 		ldmia	r4, {r0, r1}
 2265 009c 0CAB     		add	r3, sp, #48
 2266              	.LVL247:
 2267 009e 83E80300 		stmia	r3, {r0, r1}
 2268              	.LVL248:
 2269              	.LBE158:
 2270              	.LBE157:
 634:..\..\..\lvgl\version_6.1.2\lvgl\src\lv_objx/lv_canvas.c **** 
 2271              		.loc 1 634 0
 2272 00a2 0FA8     		add	r0, sp, #60
 2273 00a4 FFF7FEFF 		bl	lv_disp_drv_init
 2274              	.LVL249:
 637:..\..\..\lvgl\version_6.1.2\lvgl\src\lv_objx/lv_canvas.c ****     disp.driver.ver_res = dsc->header.h;
 2275              		.loc 1 637 0
 2276 00a8 2A69     		ldr	r2, [r5, #16]
 638:..\..\..\lvgl\version_6.1.2\lvgl\src\lv_objx/lv_canvas.c **** 
ARM GAS  C:\Users\pearlstl\AppData\Local\Temp\ccQFxYtd.s 			page 75


 2277              		.loc 1 638 0
 2278 00aa 6B8A     		ldrh	r3, [r5, #18]
 636:..\..\..\lvgl\version_6.1.2\lvgl\src\lv_objx/lv_canvas.c ****     disp.driver.hor_res = dsc->header.w;
 2279              		.loc 1 636 0
 2280 00ac 1097     		str	r7, [sp, #64]
 637:..\..\..\lvgl\version_6.1.2\lvgl\src\lv_objx/lv_canvas.c ****     disp.driver.ver_res = dsc->header.h;
 2281              		.loc 1 637 0
 2282 00ae C2F38A22 		ubfx	r2, r2, #10, #11
 638:..\..\..\lvgl\version_6.1.2\lvgl\src\lv_objx/lv_canvas.c **** 
 2283              		.loc 1 638 0
 2284 00b2 C3F34A13 		ubfx	r3, r3, #5, #11
 637:..\..\..\lvgl\version_6.1.2\lvgl\src\lv_objx/lv_canvas.c ****     disp.driver.ver_res = dsc->header.h;
 2285              		.loc 1 637 0
 2286 00b6 ADF83C20 		strh	r2, [sp, #60]	@ movhi
 638:..\..\..\lvgl\version_6.1.2\lvgl\src\lv_objx/lv_canvas.c **** 
 2287              		.loc 1 638 0
 2288 00ba ADF83E30 		strh	r3, [sp, #62]	@ movhi
 640:..\..\..\lvgl\version_6.1.2\lvgl\src\lv_objx/lv_canvas.c ****     lv_refr_set_disp_refreshing(&disp);
 2289              		.loc 1 640 0
 2290 00be FFF7FEFF 		bl	lv_refr_get_disp_refreshing
 2291              	.LVL250:
 2292 00c2 0546     		mov	r5, r0
 2293              	.LVL251:
 641:..\..\..\lvgl\version_6.1.2\lvgl\src\lv_objx/lv_canvas.c **** 
 2294              		.loc 1 641 0
 2295 00c4 0FA8     		add	r0, sp, #60
 2296              	.LVL252:
 2297 00c6 FFF7FEFF 		bl	lv_refr_set_disp_refreshing
 2298              	.LVL253:
 643:..\..\..\lvgl\version_6.1.2\lvgl\src\lv_objx/lv_canvas.c **** 
 2299              		.loc 1 643 0
 2300 00ca FF23     		movs	r3, #255
 2301 00cc 06A8     		add	r0, sp, #24
 2302 00ce 0093     		str	r3, [sp]
 2303 00d0 3246     		mov	r2, r6
 2304 00d2 2146     		mov	r1, r4
 2305 00d4 709B     		ldr	r3, [sp, #448]
 2306 00d6 FFF7FEFF 		bl	lv_draw_img
 2307              	.LVL254:
 645:..\..\..\lvgl\version_6.1.2\lvgl\src\lv_objx/lv_canvas.c **** }
 2308              		.loc 1 645 0
 2309 00da 2846     		mov	r0, r5
 2310 00dc FFF7FEFF 		bl	lv_refr_set_disp_refreshing
 2311              	.LVL255:
 2312 00e0 AFE7     		b	.L119
 2313              		.cfi_endproc
 2314              	.LFE48:
 2315              		.size	lv_canvas_draw_img, .-lv_canvas_draw_img
 2316 00e2 00BF     		.section	.text.lv_canvas_draw_line,"ax",%progbits
 2317              		.align	2
 2318              		.global	lv_canvas_draw_line
 2319              		.thumb
 2320              		.thumb_func
 2321              		.type	lv_canvas_draw_line, %function
 2322              	lv_canvas_draw_line:
 2323              	.LFB49:
 656:..\..\..\lvgl\version_6.1.2\lvgl\src\lv_objx/lv_canvas.c ****     LV_ASSERT_OBJ(canvas, LV_OBJX_NAME);
ARM GAS  C:\Users\pearlstl\AppData\Local\Temp\ccQFxYtd.s 			page 76


 2324              		.loc 1 656 0
 2325              		.cfi_startproc
 2326              		@ args = 0, pretend = 0, frame = 480
 2327              		@ frame_needed = 0, uses_anonymous_args = 0
 2328              	.LVL256:
 2329 0000 2DE9F04F 		push	{r4, r5, r6, r7, r8, r9, r10, fp, lr}
 2330              		.cfi_def_cfa_offset 36
 2331              		.cfi_offset 4, -36
 2332              		.cfi_offset 5, -32
 2333              		.cfi_offset 6, -28
 2334              		.cfi_offset 7, -24
 2335              		.cfi_offset 8, -20
 2336              		.cfi_offset 9, -16
 2337              		.cfi_offset 10, -12
 2338              		.cfi_offset 11, -8
 2339              		.cfi_offset 14, -4
 2340 0004 FBB0     		sub	sp, sp, #492
 2341              		.cfi_def_cfa_offset 528
 656:..\..\..\lvgl\version_6.1.2\lvgl\src\lv_objx/lv_canvas.c ****     LV_ASSERT_OBJ(canvas, LV_OBJX_NAME);
 2342              		.loc 1 656 0
 2343 0006 1E46     		mov	r6, r3
 2344 0008 8A46     		mov	r10, r1
 2345 000a 9046     		mov	r8, r2
 2346              	.LBB159:
 2347              	.LBB160:
 212:..\..\..\lvgl\version_6.1.2\lvgl\src\lv_objx/lv_canvas.c **** 
 2348              		.loc 1 212 0
 2349 000c FFF7FEFF 		bl	lv_obj_get_ext_attr
 2350              	.LVL257:
 2351              	.LBE160:
 2352              	.LBE159:
 666:..\..\..\lvgl\version_6.1.2\lvgl\src\lv_objx/lv_canvas.c ****     mask.y1 = 0;
 2353              		.loc 1 666 0
 2354 0010 0269     		ldr	r2, [r0, #16]
 668:..\..\..\lvgl\version_6.1.2\lvgl\src\lv_objx/lv_canvas.c **** 
 2355              		.loc 1 668 0
 2356 0012 438A     		ldrh	r3, [r0, #18]
 2357              	.LBB162:
 2358              	.LBB161:
 212:..\..\..\lvgl\version_6.1.2\lvgl\src\lv_objx/lv_canvas.c **** 
 2359              		.loc 1 212 0
 2360 0014 0446     		mov	r4, r0
 2361              	.LVL258:
 2362              	.LBE161:
 2363              	.LBE162:
 665:..\..\..\lvgl\version_6.1.2\lvgl\src\lv_objx/lv_canvas.c ****     mask.x2 = dsc->header.w - 1;
 2364              		.loc 1 665 0
 2365 0016 02AF     		add	r7, sp, #8
 2366 0018 4FF00009 		mov	r9, #0
 666:..\..\..\lvgl\version_6.1.2\lvgl\src\lv_objx/lv_canvas.c ****     mask.y1 = 0;
 2367              		.loc 1 666 0
 2368 001c C2F38A22 		ubfx	r2, r2, #10, #11
 668:..\..\..\lvgl\version_6.1.2\lvgl\src\lv_objx/lv_canvas.c **** 
 2369              		.loc 1 668 0
 2370 0020 C3F34A13 		ubfx	r3, r3, #5, #11
 666:..\..\..\lvgl\version_6.1.2\lvgl\src\lv_objx/lv_canvas.c ****     mask.y1 = 0;
 2371              		.loc 1 666 0
ARM GAS  C:\Users\pearlstl\AppData\Local\Temp\ccQFxYtd.s 			page 77


 2372 0024 551E     		subs	r5, r2, #1
 668:..\..\..\lvgl\version_6.1.2\lvgl\src\lv_objx/lv_canvas.c **** 
 2373              		.loc 1 668 0
 2374 0026 013B     		subs	r3, r3, #1
 671:..\..\..\lvgl\version_6.1.2\lvgl\src\lv_objx/lv_canvas.c **** 
 2375              		.loc 1 671 0
 2376 0028 4946     		mov	r1, r9
 2377 002a 4FF4B272 		mov	r2, #356
 2378 002e 21A8     		add	r0, sp, #132
 666:..\..\..\lvgl\version_6.1.2\lvgl\src\lv_objx/lv_canvas.c ****     mask.y1 = 0;
 2379              		.loc 1 666 0
 2380 0030 BD80     		strh	r5, [r7, #4]	@ movhi
 668:..\..\..\lvgl\version_6.1.2\lvgl\src\lv_objx/lv_canvas.c **** 
 2381              		.loc 1 668 0
 2382 0032 FB80     		strh	r3, [r7, #6]	@ movhi
 665:..\..\..\lvgl\version_6.1.2\lvgl\src\lv_objx/lv_canvas.c ****     mask.x2 = dsc->header.w - 1;
 2383              		.loc 1 665 0
 2384 0034 A7F80090 		strh	r9, [r7]	@ movhi
 667:..\..\..\lvgl\version_6.1.2\lvgl\src\lv_objx/lv_canvas.c ****     mask.y2 = dsc->header.h - 1;
 2385              		.loc 1 667 0
 2386 0038 A7F80290 		strh	r9, [r7, #2]	@ movhi
 671:..\..\..\lvgl\version_6.1.2\lvgl\src\lv_objx/lv_canvas.c **** 
 2387              		.loc 1 671 0
 2388 003c FFF7FEFF 		bl	memset
 2389              	.LVL259:
 674:..\..\..\lvgl\version_6.1.2\lvgl\src\lv_objx/lv_canvas.c ****     lv_area_copy(&disp_buf.area, &mask);
 2390              		.loc 1 674 0
 2391 0040 2269     		ldr	r2, [r4, #16]
 2392 0042 638A     		ldrh	r3, [r4, #18]
 2393 0044 A169     		ldr	r1, [r4, #24]
 2394 0046 C2F38A20 		ubfx	r0, r2, #10, #11
 2395 004a 06AD     		add	r5, sp, #24
 2396 004c C3F34A13 		ubfx	r3, r3, #5, #11
 2397 0050 4A46     		mov	r2, r9
 2398 0052 10FB03F3 		smulbb	r3, r0, r3
 2399 0056 2846     		mov	r0, r5
 2400 0058 FFF7FEFF 		bl	lv_disp_buf_init
 2401              	.LVL260:
 2402              	.LBB163:
 2403              	.LBB164:
 2404              		.loc 4 78 0
 2405 005c 97E80300 		ldmia	r7, {r0, r1}
 2406 0060 0AAB     		add	r3, sp, #40
 2407              	.LVL261:
 2408 0062 83E80300 		stmia	r3, {r0, r1}
 2409              	.LVL262:
 2410              	.LBE164:
 2411              	.LBE163:
 677:..\..\..\lvgl\version_6.1.2\lvgl\src\lv_objx/lv_canvas.c **** 
 2412              		.loc 1 677 0
 2413 0066 21A8     		add	r0, sp, #132
 2414 0068 FFF7FEFF 		bl	lv_disp_drv_init
 2415              	.LVL263:
 680:..\..\..\lvgl\version_6.1.2\lvgl\src\lv_objx/lv_canvas.c ****     disp.driver.ver_res = dsc->header.h;
 2416              		.loc 1 680 0
 2417 006c 2269     		ldr	r2, [r4, #16]
 681:..\..\..\lvgl\version_6.1.2\lvgl\src\lv_objx/lv_canvas.c **** 
ARM GAS  C:\Users\pearlstl\AppData\Local\Temp\ccQFxYtd.s 			page 78


 2418              		.loc 1 681 0
 2419 006e 638A     		ldrh	r3, [r4, #18]
 679:..\..\..\lvgl\version_6.1.2\lvgl\src\lv_objx/lv_canvas.c ****     disp.driver.hor_res = dsc->header.w;
 2420              		.loc 1 679 0
 2421 0070 2295     		str	r5, [sp, #136]
 681:..\..\..\lvgl\version_6.1.2\lvgl\src\lv_objx/lv_canvas.c **** 
 2422              		.loc 1 681 0
 2423 0072 C3F34A13 		ubfx	r3, r3, #5, #11
 680:..\..\..\lvgl\version_6.1.2\lvgl\src\lv_objx/lv_canvas.c ****     disp.driver.ver_res = dsc->header.h;
 2424              		.loc 1 680 0
 2425 0076 C2F38A22 		ubfx	r2, r2, #10, #11
 681:..\..\..\lvgl\version_6.1.2\lvgl\src\lv_objx/lv_canvas.c **** 
 2426              		.loc 1 681 0
 2427 007a ADF88630 		strh	r3, [sp, #134]	@ movhi
 680:..\..\..\lvgl\version_6.1.2\lvgl\src\lv_objx/lv_canvas.c ****     disp.driver.ver_res = dsc->header.h;
 2428              		.loc 1 680 0
 2429 007e ADF88420 		strh	r2, [sp, #132]	@ movhi
 694:..\..\..\lvgl\version_6.1.2\lvgl\src\lv_objx/lv_canvas.c ****     lv_refr_set_disp_refreshing(&disp);
 2430              		.loc 1 694 0
 2431 0082 FFF7FEFF 		bl	lv_refr_get_disp_refreshing
 2432              	.LVL264:
 2433 0086 8346     		mov	fp, r0
 2434              	.LVL265:
 695:..\..\..\lvgl\version_6.1.2\lvgl\src\lv_objx/lv_canvas.c **** 
 2435              		.loc 1 695 0
 2436 0088 21A8     		add	r0, sp, #132
 2437              	.LVL266:
 2438 008a FFF7FEFF 		bl	lv_refr_set_disp_refreshing
 2439              	.LVL267:
 698:..\..\..\lvgl\version_6.1.2\lvgl\src\lv_objx/lv_canvas.c ****         lv_style_copy(&circle_style_tmp, style);
 2440              		.loc 1 698 0
 2441 008e 96F84F30 		ldrb	r3, [r6, #79]	@ zero_extendqisi2
 2442 0092 D907     		lsls	r1, r3, #31
 2443 0094 65D4     		bmi	.L140
 2444              	.L125:
 2445 0096 08F1FF38 		add	r8, r8, #-1
 2446              	.LVL268:
 2447 009a 0AF10404 		add	r4, r10, #4
 656:..\..\..\lvgl\version_6.1.2\lvgl\src\lv_objx/lv_canvas.c ****     LV_ASSERT_OBJ(canvas, LV_OBJX_NAME);
 2448              		.loc 1 656 0 discriminator 1
 2449 009e 0025     		movs	r5, #0
 708:..\..\..\lvgl\version_6.1.2\lvgl\src\lv_objx/lv_canvas.c ****         
 2450              		.loc 1 708 0 discriminator 1
 2451 00a0 4FF0FF09 		mov	r9, #255
 2452 00a4 00E0     		b	.L126
 2453              	.LVL269:
 2454              	.L127:
 2455 00a6 0434     		adds	r4, r4, #4
 2456              	.LVL270:
 2457              	.L126:
 707:..\..\..\lvgl\version_6.1.2\lvgl\src\lv_objx/lv_canvas.c ****         lv_draw_line(&points[i], &points[i + 1], &mask, style, LV_OPA_COVER);
 2458              		.loc 1 707 0 discriminator 1
 2459 00a8 4545     		cmp	r5, r8
 708:..\..\..\lvgl\version_6.1.2\lvgl\src\lv_objx/lv_canvas.c ****         
 2460              		.loc 1 708 0 discriminator 1
 2461 00aa 2146     		mov	r1, r4
 2462 00ac A4F10400 		sub	r0, r4, #4
ARM GAS  C:\Users\pearlstl\AppData\Local\Temp\ccQFxYtd.s 			page 79


 2463 00b0 3346     		mov	r3, r6
 2464 00b2 3A46     		mov	r2, r7
 707:..\..\..\lvgl\version_6.1.2\lvgl\src\lv_objx/lv_canvas.c ****         lv_draw_line(&points[i], &points[i + 1], &mask, style, LV_OPA_COVER);
 2465              		.loc 1 707 0 discriminator 1
 2466 00b4 2BD0     		beq	.L141
 2467              	.LVL271:
 708:..\..\..\lvgl\version_6.1.2\lvgl\src\lv_objx/lv_canvas.c ****         
 2468              		.loc 1 708 0
 2469 00b6 CDF80090 		str	r9, [sp]
 2470 00ba FFF7FEFF 		bl	lv_draw_line
 2471              	.LVL272:
 711:..\..\..\lvgl\version_6.1.2\lvgl\src\lv_objx/lv_canvas.c ****             circle_area.x1 = points[i].x - ((style->line.width - 1) >> 1) - ((style->line.width - 1
 2472              		.loc 1 711 0
 2473 00be 96F84F30 		ldrb	r3, [r6, #79]	@ zero_extendqisi2
 2474 00c2 DA07     		lsls	r2, r3, #31
 708:..\..\..\lvgl\version_6.1.2\lvgl\src\lv_objx/lv_canvas.c ****         
 2475              		.loc 1 708 0
 2476 00c4 05F10105 		add	r5, r5, #1
 2477              	.LVL273:
 711:..\..\..\lvgl\version_6.1.2\lvgl\src\lv_objx/lv_canvas.c ****             circle_area.x1 = points[i].x - ((style->line.width - 1) >> 1) - ((style->line.width - 1
 2478              		.loc 1 711 0
 2479 00c8 EDD5     		bpl	.L127
 712:..\..\..\lvgl\version_6.1.2\lvgl\src\lv_objx/lv_canvas.c ****             circle_area.y1 = points[i].y - ((style->line.width - 1) >> 1) - ((style->line.width - 1
 2480              		.loc 1 712 0
 2481 00ca B6F94C30 		ldrsh	r3, [r6, #76]
 2482 00ce 34F8041C 		ldrh	r1, [r4, #-4]
 713:..\..\..\lvgl\version_6.1.2\lvgl\src\lv_objx/lv_canvas.c ****             circle_area.x2 = points[i].x + ((style->line.width - 1) >> 1);
 2483              		.loc 1 713 0
 2484 00d2 34F8022C 		ldrh	r2, [r4, #-2]
 712:..\..\..\lvgl\version_6.1.2\lvgl\src\lv_objx/lv_canvas.c ****             circle_area.y1 = points[i].y - ((style->line.width - 1) >> 1) - ((style->line.width - 1
 2485              		.loc 1 712 0
 2486 00d6 013B     		subs	r3, r3, #1
 2487 00d8 C3F34F0E 		ubfx	lr, r3, #1, #16
 2488 00dc CEEB0100 		rsb	r0, lr, r1
 2489 00e0 03F00103 		and	r3, r3, #1
 2490 00e4 C01A     		subs	r0, r0, r3
 2491 00e6 ADF81000 		strh	r0, [sp, #16]	@ movhi
 713:..\..\..\lvgl\version_6.1.2\lvgl\src\lv_objx/lv_canvas.c ****             circle_area.x2 = points[i].x + ((style->line.width - 1) >> 1);
 2492              		.loc 1 713 0
 2493 00ea CEEB0200 		rsb	r0, lr, r2
 714:..\..\..\lvgl\version_6.1.2\lvgl\src\lv_objx/lv_canvas.c ****             circle_area.y2 = points[i].y + ((style->line.width - 1) >> 1);
 2494              		.loc 1 714 0
 2495 00ee 7144     		add	r1, r1, lr
 713:..\..\..\lvgl\version_6.1.2\lvgl\src\lv_objx/lv_canvas.c ****             circle_area.x2 = points[i].x + ((style->line.width - 1) >> 1);
 2496              		.loc 1 713 0
 2497 00f0 C01A     		subs	r0, r0, r3
 715:..\..\..\lvgl\version_6.1.2\lvgl\src\lv_objx/lv_canvas.c ****             lv_draw_rect(&circle_area, &mask, &circle_style_tmp, LV_OPA_COVER);
 2498              		.loc 1 715 0
 2499 00f2 9644     		add	lr, lr, r2
 714:..\..\..\lvgl\version_6.1.2\lvgl\src\lv_objx/lv_canvas.c ****             circle_area.y2 = points[i].y + ((style->line.width - 1) >> 1);
 2500              		.loc 1 714 0
 2501 00f4 ADF81410 		strh	r1, [sp, #20]	@ movhi
 713:..\..\..\lvgl\version_6.1.2\lvgl\src\lv_objx/lv_canvas.c ****             circle_area.x2 = points[i].x + ((style->line.width - 1) >> 1);
 2502              		.loc 1 713 0
 2503 00f8 ADF81200 		strh	r0, [sp, #18]	@ movhi
 716:..\..\..\lvgl\version_6.1.2\lvgl\src\lv_objx/lv_canvas.c ****         }
 2504              		.loc 1 716 0
ARM GAS  C:\Users\pearlstl\AppData\Local\Temp\ccQFxYtd.s 			page 80


 2505 00fc FF23     		movs	r3, #255
 2506 00fe 0DAA     		add	r2, sp, #52
 2507 0100 3946     		mov	r1, r7
 2508 0102 04A8     		add	r0, sp, #16
 715:..\..\..\lvgl\version_6.1.2\lvgl\src\lv_objx/lv_canvas.c ****             lv_draw_rect(&circle_area, &mask, &circle_style_tmp, LV_OPA_COVER);
 2509              		.loc 1 715 0
 2510 0104 ADF816E0 		strh	lr, [sp, #22]	@ movhi
 716:..\..\..\lvgl\version_6.1.2\lvgl\src\lv_objx/lv_canvas.c ****         }
 2511              		.loc 1 716 0
 2512 0108 FFF7FEFF 		bl	lv_draw_rect
 2513              	.LVL274:
 2514 010c CBE7     		b	.L127
 2515              	.LVL275:
 2516              	.L141:
 720:..\..\..\lvgl\version_6.1.2\lvgl\src\lv_objx/lv_canvas.c ****         circle_area.x1 = points[i].x - ((style->line.width - 1) >> 1) - ((style->line.width - 1) & 
 2517              		.loc 1 720 0
 2518 010e 96F84F30 		ldrb	r3, [r6, #79]	@ zero_extendqisi2
 2519              	.LVL276:
 2520 0112 DB07     		lsls	r3, r3, #31
 2521 0114 1FD5     		bpl	.L129
 721:..\..\..\lvgl\version_6.1.2\lvgl\src\lv_objx/lv_canvas.c ****         circle_area.y1 = points[i].y - ((style->line.width - 1) >> 1) - ((style->line.width - 1) & 
 2522              		.loc 1 721 0
 2523 0116 3AF82500 		ldrh	r0, [r10, r5, lsl #2]
 2524 011a B6F94C30 		ldrsh	r3, [r6, #76]
 2525 011e 0AEB8505 		add	r5, r10, r5, lsl #2
 2526              	.LVL277:
 2527 0122 013B     		subs	r3, r3, #1
 722:..\..\..\lvgl\version_6.1.2\lvgl\src\lv_objx/lv_canvas.c ****         circle_area.x2 = points[i].x + ((style->line.width - 1) >> 1);
 2528              		.loc 1 722 0
 2529 0124 6A88     		ldrh	r2, [r5, #2]
 721:..\..\..\lvgl\version_6.1.2\lvgl\src\lv_objx/lv_canvas.c ****         circle_area.y1 = points[i].y - ((style->line.width - 1) >> 1) - ((style->line.width - 1) & 
 2530              		.loc 1 721 0
 2531 0126 C3F34F04 		ubfx	r4, r3, #1, #16
 2532 012a 051B     		subs	r5, r0, r4
 2533 012c 03F00103 		and	r3, r3, #1
 722:..\..\..\lvgl\version_6.1.2\lvgl\src\lv_objx/lv_canvas.c ****         circle_area.x2 = points[i].x + ((style->line.width - 1) >> 1);
 2534              		.loc 1 722 0
 2535 0130 161B     		subs	r6, r2, r4
 2536              	.LVL278:
 2537 0132 F61A     		subs	r6, r6, r3
 725:..\..\..\lvgl\version_6.1.2\lvgl\src\lv_objx/lv_canvas.c ****     }
 2538              		.loc 1 725 0
 2539 0134 3946     		mov	r1, r7
 721:..\..\..\lvgl\version_6.1.2\lvgl\src\lv_objx/lv_canvas.c ****         circle_area.y1 = points[i].y - ((style->line.width - 1) >> 1) - ((style->line.width - 1) & 
 2540              		.loc 1 721 0
 2541 0136 EF1A     		subs	r7, r5, r3
 723:..\..\..\lvgl\version_6.1.2\lvgl\src\lv_objx/lv_canvas.c ****         circle_area.y2 = points[i].y + ((style->line.width - 1) >> 1);
 2542              		.loc 1 723 0
 2543 0138 0519     		adds	r5, r0, r4
 725:..\..\..\lvgl\version_6.1.2\lvgl\src\lv_objx/lv_canvas.c ****     }
 2544              		.loc 1 725 0
 2545 013a FF23     		movs	r3, #255
 724:..\..\..\lvgl\version_6.1.2\lvgl\src\lv_objx/lv_canvas.c ****         lv_draw_rect(&circle_area, &mask, &circle_style_tmp, LV_OPA_COVER);
 2546              		.loc 1 724 0
 2547 013c 1444     		add	r4, r4, r2
 725:..\..\..\lvgl\version_6.1.2\lvgl\src\lv_objx/lv_canvas.c ****     }
 2548              		.loc 1 725 0
ARM GAS  C:\Users\pearlstl\AppData\Local\Temp\ccQFxYtd.s 			page 81


 2549 013e 04A8     		add	r0, sp, #16
 2550 0140 0DAA     		add	r2, sp, #52
 721:..\..\..\lvgl\version_6.1.2\lvgl\src\lv_objx/lv_canvas.c ****         circle_area.y1 = points[i].y - ((style->line.width - 1) >> 1) - ((style->line.width - 1) & 
 2551              		.loc 1 721 0
 2552 0142 ADF81070 		strh	r7, [sp, #16]	@ movhi
 723:..\..\..\lvgl\version_6.1.2\lvgl\src\lv_objx/lv_canvas.c ****         circle_area.y2 = points[i].y + ((style->line.width - 1) >> 1);
 2553              		.loc 1 723 0
 2554 0146 ADF81450 		strh	r5, [sp, #20]	@ movhi
 722:..\..\..\lvgl\version_6.1.2\lvgl\src\lv_objx/lv_canvas.c ****         circle_area.x2 = points[i].x + ((style->line.width - 1) >> 1);
 2555              		.loc 1 722 0
 2556 014a ADF81260 		strh	r6, [sp, #18]	@ movhi
 724:..\..\..\lvgl\version_6.1.2\lvgl\src\lv_objx/lv_canvas.c ****         lv_draw_rect(&circle_area, &mask, &circle_style_tmp, LV_OPA_COVER);
 2557              		.loc 1 724 0
 2558 014e ADF81640 		strh	r4, [sp, #22]	@ movhi
 725:..\..\..\lvgl\version_6.1.2\lvgl\src\lv_objx/lv_canvas.c ****     }
 2559              		.loc 1 725 0
 2560 0152 FFF7FEFF 		bl	lv_draw_rect
 2561              	.LVL279:
 2562              	.L129:
 728:..\..\..\lvgl\version_6.1.2\lvgl\src\lv_objx/lv_canvas.c **** }
 2563              		.loc 1 728 0
 2564 0156 5846     		mov	r0, fp
 2565 0158 FFF7FEFF 		bl	lv_refr_set_disp_refreshing
 2566              	.LVL280:
 729:..\..\..\lvgl\version_6.1.2\lvgl\src\lv_objx/lv_canvas.c **** 
 2567              		.loc 1 729 0
 2568 015c 7BB0     		add	sp, sp, #492
 2569              		.cfi_remember_state
 2570              		.cfi_def_cfa_offset 36
 2571              		@ sp needed
 2572 015e BDE8F08F 		pop	{r4, r5, r6, r7, r8, r9, r10, fp, pc}
 2573              	.LVL281:
 2574              	.L140:
 2575              		.cfi_restore_state
 699:..\..\..\lvgl\version_6.1.2\lvgl\src\lv_objx/lv_canvas.c ****         circle_style_tmp.body.radius     = LV_RADIUS_CIRCLE;
 2576              		.loc 1 699 0
 2577 0162 3146     		mov	r1, r6
 2578 0164 0DA8     		add	r0, sp, #52
 2579 0166 FFF7FEFF 		bl	lv_style_copy
 2580              	.LVL282:
 701:..\..\..\lvgl\version_6.1.2\lvgl\src\lv_objx/lv_canvas.c ****         circle_style_tmp.body.grad_color = style->line.color;
 2581              		.loc 1 701 0
 2582 016a B36C     		ldr	r3, [r6, #72]
 703:..\..\..\lvgl\version_6.1.2\lvgl\src\lv_objx/lv_canvas.c ****     }
 2583              		.loc 1 703 0
 2584 016c 96F84E20 		ldrb	r2, [r6, #78]	@ zero_extendqisi2
 2585 0170 8DF84220 		strb	r2, [sp, #66]
 700:..\..\..\lvgl\version_6.1.2\lvgl\src\lv_objx/lv_canvas.c ****         circle_style_tmp.body.main_color = style->line.color;
 2586              		.loc 1 700 0
 2587 0174 47F61841 		movw	r1, #31768
 2588 0178 ADF84010 		strh	r1, [sp, #64]	@ movhi
 701:..\..\..\lvgl\version_6.1.2\lvgl\src\lv_objx/lv_canvas.c ****         circle_style_tmp.body.grad_color = style->line.color;
 2589              		.loc 1 701 0
 2590 017c 0E93     		str	r3, [sp, #56]
 702:..\..\..\lvgl\version_6.1.2\lvgl\src\lv_objx/lv_canvas.c ****         circle_style_tmp.body.opa        = style->line.opa;
 2591              		.loc 1 702 0
 2592 017e 0F93     		str	r3, [sp, #60]
ARM GAS  C:\Users\pearlstl\AppData\Local\Temp\ccQFxYtd.s 			page 82


 2593 0180 89E7     		b	.L125
 2594              		.cfi_endproc
 2595              	.LFE49:
 2596              		.size	lv_canvas_draw_line, .-lv_canvas_draw_line
 2597              		.section	.text.lv_canvas_draw_polygon,"ax",%progbits
 2598              		.align	2
 2599              		.global	lv_canvas_draw_polygon
 2600              		.thumb
 2601              		.thumb_func
 2602              		.type	lv_canvas_draw_polygon, %function
 2603              	lv_canvas_draw_polygon:
 2604              	.LFB50:
 739:..\..\..\lvgl\version_6.1.2\lvgl\src\lv_objx/lv_canvas.c ****     LV_ASSERT_OBJ(canvas, LV_OBJX_NAME);
 2605              		.loc 1 739 0
 2606              		.cfi_startproc
 2607              		@ args = 0, pretend = 0, frame = 392
 2608              		@ frame_needed = 0, uses_anonymous_args = 0
 2609              	.LVL283:
 2610 0000 2DE9F047 		push	{r4, r5, r6, r7, r8, r9, r10, lr}
 2611              		.cfi_def_cfa_offset 32
 2612              		.cfi_offset 4, -32
 2613              		.cfi_offset 5, -28
 2614              		.cfi_offset 6, -24
 2615              		.cfi_offset 7, -20
 2616              		.cfi_offset 8, -16
 2617              		.cfi_offset 9, -12
 2618              		.cfi_offset 10, -8
 2619              		.cfi_offset 14, -4
 2620 0004 E4B0     		sub	sp, sp, #400
 2621              		.cfi_def_cfa_offset 432
 739:..\..\..\lvgl\version_6.1.2\lvgl\src\lv_objx/lv_canvas.c ****     LV_ASSERT_OBJ(canvas, LV_OBJX_NAME);
 2622              		.loc 1 739 0
 2623 0006 0E46     		mov	r6, r1
 2624 0008 1746     		mov	r7, r2
 2625 000a 9846     		mov	r8, r3
 2626              	.LBB165:
 2627              	.LBB166:
 212:..\..\..\lvgl\version_6.1.2\lvgl\src\lv_objx/lv_canvas.c **** 
 2628              		.loc 1 212 0
 2629 000c FFF7FEFF 		bl	lv_obj_get_ext_attr
 2630              	.LVL284:
 2631              	.LBE166:
 2632              	.LBE165:
 749:..\..\..\lvgl\version_6.1.2\lvgl\src\lv_objx/lv_canvas.c ****     mask.y1 = 0;
 2633              		.loc 1 749 0
 2634 0010 0269     		ldr	r2, [r0, #16]
 751:..\..\..\lvgl\version_6.1.2\lvgl\src\lv_objx/lv_canvas.c **** 
 2635              		.loc 1 751 0
 2636 0012 438A     		ldrh	r3, [r0, #18]
 2637              	.LBB168:
 2638              	.LBB167:
 212:..\..\..\lvgl\version_6.1.2\lvgl\src\lv_objx/lv_canvas.c **** 
 2639              		.loc 1 212 0
 2640 0014 0546     		mov	r5, r0
 2641              	.LVL285:
 2642              	.LBE167:
 2643              	.LBE168:
ARM GAS  C:\Users\pearlstl\AppData\Local\Temp\ccQFxYtd.s 			page 83


 748:..\..\..\lvgl\version_6.1.2\lvgl\src\lv_objx/lv_canvas.c ****     mask.x2 = dsc->header.w - 1;
 2644              		.loc 1 748 0
 2645 0016 4FF00009 		mov	r9, #0
 749:..\..\..\lvgl\version_6.1.2\lvgl\src\lv_objx/lv_canvas.c ****     mask.y1 = 0;
 2646              		.loc 1 749 0
 2647 001a C2F38A22 		ubfx	r2, r2, #10, #11
 751:..\..\..\lvgl\version_6.1.2\lvgl\src\lv_objx/lv_canvas.c **** 
 2648              		.loc 1 751 0
 2649 001e C3F34A13 		ubfx	r3, r3, #5, #11
 749:..\..\..\lvgl\version_6.1.2\lvgl\src\lv_objx/lv_canvas.c ****     mask.y1 = 0;
 2650              		.loc 1 749 0
 2651 0022 02F1FF3E 		add	lr, r2, #-1
 751:..\..\..\lvgl\version_6.1.2\lvgl\src\lv_objx/lv_canvas.c **** 
 2652              		.loc 1 751 0
 2653 0026 013B     		subs	r3, r3, #1
 754:..\..\..\lvgl\version_6.1.2\lvgl\src\lv_objx/lv_canvas.c **** 
 2654              		.loc 1 754 0
 2655 0028 4946     		mov	r1, r9
 2656 002a 0BA8     		add	r0, sp, #44
 2657 002c 4FF4B272 		mov	r2, #356
 749:..\..\..\lvgl\version_6.1.2\lvgl\src\lv_objx/lv_canvas.c ****     mask.y1 = 0;
 2658              		.loc 1 749 0
 2659 0030 ADF80CE0 		strh	lr, [sp, #12]	@ movhi
 751:..\..\..\lvgl\version_6.1.2\lvgl\src\lv_objx/lv_canvas.c **** 
 2660              		.loc 1 751 0
 2661 0034 ADF80E30 		strh	r3, [sp, #14]	@ movhi
 748:..\..\..\lvgl\version_6.1.2\lvgl\src\lv_objx/lv_canvas.c ****     mask.x2 = dsc->header.w - 1;
 2662              		.loc 1 748 0
 2663 0038 ADF80890 		strh	r9, [sp, #8]	@ movhi
 750:..\..\..\lvgl\version_6.1.2\lvgl\src\lv_objx/lv_canvas.c ****     mask.y2 = dsc->header.h - 1;
 2664              		.loc 1 750 0
 2665 003c ADF80A90 		strh	r9, [sp, #10]	@ movhi
 754:..\..\..\lvgl\version_6.1.2\lvgl\src\lv_objx/lv_canvas.c **** 
 2666              		.loc 1 754 0
 2667 0040 FFF7FEFF 		bl	memset
 2668              	.LVL286:
 757:..\..\..\lvgl\version_6.1.2\lvgl\src\lv_objx/lv_canvas.c ****     lv_area_copy(&disp_buf.area, &mask);
 2669              		.loc 1 757 0
 2670 0044 2B69     		ldr	r3, [r5, #16]
 2671 0046 6A8A     		ldrh	r2, [r5, #18]
 2672 0048 A969     		ldr	r1, [r5, #24]
 2673 004a C3F38A20 		ubfx	r0, r3, #10, #11
 2674 004e 0DF1100A 		add	r10, sp, #16
 2675 0052 C2F34A13 		ubfx	r3, r2, #5, #11
 748:..\..\..\lvgl\version_6.1.2\lvgl\src\lv_objx/lv_canvas.c ****     mask.x2 = dsc->header.w - 1;
 2676              		.loc 1 748 0
 2677 0056 02AC     		add	r4, sp, #8
 757:..\..\..\lvgl\version_6.1.2\lvgl\src\lv_objx/lv_canvas.c ****     lv_area_copy(&disp_buf.area, &mask);
 2678              		.loc 1 757 0
 2679 0058 4A46     		mov	r2, r9
 2680 005a 10FB03F3 		smulbb	r3, r0, r3
 2681 005e 5046     		mov	r0, r10
 2682 0060 FFF7FEFF 		bl	lv_disp_buf_init
 2683              	.LVL287:
 2684              	.LBB169:
 2685              	.LBB170:
 2686              		.loc 4 78 0
ARM GAS  C:\Users\pearlstl\AppData\Local\Temp\ccQFxYtd.s 			page 84


 2687 0064 94E80300 		ldmia	r4, {r0, r1}
 2688 0068 08AB     		add	r3, sp, #32
 2689              	.LVL288:
 2690 006a 83E80300 		stmia	r3, {r0, r1}
 2691              	.LVL289:
 2692              	.LBE170:
 2693              	.LBE169:
 760:..\..\..\lvgl\version_6.1.2\lvgl\src\lv_objx/lv_canvas.c **** 
 2694              		.loc 1 760 0
 2695 006e 0BA8     		add	r0, sp, #44
 2696 0070 FFF7FEFF 		bl	lv_disp_drv_init
 2697              	.LVL290:
 763:..\..\..\lvgl\version_6.1.2\lvgl\src\lv_objx/lv_canvas.c ****     disp.driver.ver_res = dsc->header.h;
 2698              		.loc 1 763 0
 2699 0074 2A69     		ldr	r2, [r5, #16]
 764:..\..\..\lvgl\version_6.1.2\lvgl\src\lv_objx/lv_canvas.c **** 
 2700              		.loc 1 764 0
 2701 0076 6B8A     		ldrh	r3, [r5, #18]
 762:..\..\..\lvgl\version_6.1.2\lvgl\src\lv_objx/lv_canvas.c ****     disp.driver.hor_res = dsc->header.w;
 2702              		.loc 1 762 0
 2703 0078 CDF830A0 		str	r10, [sp, #48]
 763:..\..\..\lvgl\version_6.1.2\lvgl\src\lv_objx/lv_canvas.c ****     disp.driver.ver_res = dsc->header.h;
 2704              		.loc 1 763 0
 2705 007c C2F38A22 		ubfx	r2, r2, #10, #11
 764:..\..\..\lvgl\version_6.1.2\lvgl\src\lv_objx/lv_canvas.c **** 
 2706              		.loc 1 764 0
 2707 0080 C3F34A13 		ubfx	r3, r3, #5, #11
 763:..\..\..\lvgl\version_6.1.2\lvgl\src\lv_objx/lv_canvas.c ****     disp.driver.ver_res = dsc->header.h;
 2708              		.loc 1 763 0
 2709 0084 ADF82C20 		strh	r2, [sp, #44]	@ movhi
 764:..\..\..\lvgl\version_6.1.2\lvgl\src\lv_objx/lv_canvas.c **** 
 2710              		.loc 1 764 0
 2711 0088 ADF82E30 		strh	r3, [sp, #46]	@ movhi
 777:..\..\..\lvgl\version_6.1.2\lvgl\src\lv_objx/lv_canvas.c ****     lv_refr_set_disp_refreshing(&disp);
 2712              		.loc 1 777 0
 2713 008c FFF7FEFF 		bl	lv_refr_get_disp_refreshing
 2714              	.LVL291:
 2715 0090 0546     		mov	r5, r0
 2716              	.LVL292:
 778:..\..\..\lvgl\version_6.1.2\lvgl\src\lv_objx/lv_canvas.c **** 
 2717              		.loc 1 778 0
 2718 0092 0BA8     		add	r0, sp, #44
 2719              	.LVL293:
 2720 0094 FFF7FEFF 		bl	lv_refr_set_disp_refreshing
 2721              	.LVL294:
 780:..\..\..\lvgl\version_6.1.2\lvgl\src\lv_objx/lv_canvas.c **** 
 2722              		.loc 1 780 0
 2723 0098 4FF0FF0E 		mov	lr, #255
 2724 009c 4346     		mov	r3, r8
 2725 009e 2246     		mov	r2, r4
 2726 00a0 3946     		mov	r1, r7
 2727 00a2 3046     		mov	r0, r6
 2728 00a4 CDF800E0 		str	lr, [sp]
 2729 00a8 FFF7FEFF 		bl	lv_draw_polygon
 2730              	.LVL295:
 782:..\..\..\lvgl\version_6.1.2\lvgl\src\lv_objx/lv_canvas.c **** }
 2731              		.loc 1 782 0
ARM GAS  C:\Users\pearlstl\AppData\Local\Temp\ccQFxYtd.s 			page 85


 2732 00ac 2846     		mov	r0, r5
 2733 00ae FFF7FEFF 		bl	lv_refr_set_disp_refreshing
 2734              	.LVL296:
 783:..\..\..\lvgl\version_6.1.2\lvgl\src\lv_objx/lv_canvas.c **** 
 2735              		.loc 1 783 0
 2736 00b2 64B0     		add	sp, sp, #400
 2737              		.cfi_def_cfa_offset 32
 2738              		@ sp needed
 2739 00b4 BDE8F087 		pop	{r4, r5, r6, r7, r8, r9, r10, pc}
 2740              		.cfi_endproc
 2741              	.LFE50:
 2742              		.size	lv_canvas_draw_polygon, .-lv_canvas_draw_polygon
 2743              		.section	.text.lv_canvas_draw_arc,"ax",%progbits
 2744              		.align	2
 2745              		.global	lv_canvas_draw_arc
 2746              		.thumb
 2747              		.thumb_func
 2748              		.type	lv_canvas_draw_arc, %function
 2749              	lv_canvas_draw_arc:
 2750              	.LFB51:
 797:..\..\..\lvgl\version_6.1.2\lvgl\src\lv_objx/lv_canvas.c ****     LV_ASSERT_OBJ(canvas, LV_OBJX_NAME);
 2751              		.loc 1 797 0
 2752              		.cfi_startproc
 2753              		@ args = 12, pretend = 0, frame = 392
 2754              		@ frame_needed = 0, uses_anonymous_args = 0
 2755              	.LVL297:
 2756 0000 2DE9F047 		push	{r4, r5, r6, r7, r8, r9, r10, lr}
 2757              		.cfi_def_cfa_offset 32
 2758              		.cfi_offset 4, -32
 2759              		.cfi_offset 5, -28
 2760              		.cfi_offset 6, -24
 2761              		.cfi_offset 7, -20
 2762              		.cfi_offset 8, -16
 2763              		.cfi_offset 9, -12
 2764              		.cfi_offset 10, -8
 2765              		.cfi_offset 14, -4
 2766 0004 E6B0     		sub	sp, sp, #408
 2767              		.cfi_def_cfa_offset 440
 797:..\..\..\lvgl\version_6.1.2\lvgl\src\lv_objx/lv_canvas.c ****     LV_ASSERT_OBJ(canvas, LV_OBJX_NAME);
 2768              		.loc 1 797 0
 2769 0006 0F46     		mov	r7, r1
 2770 0008 9046     		mov	r8, r2
 2771 000a 9946     		mov	r9, r3
 2772              	.LBB171:
 2773              	.LBB172:
 212:..\..\..\lvgl\version_6.1.2\lvgl\src\lv_objx/lv_canvas.c **** 
 2774              		.loc 1 212 0
 2775 000c FFF7FEFF 		bl	lv_obj_get_ext_attr
 2776              	.LVL298:
 2777              	.LBE172:
 2778              	.LBE171:
 807:..\..\..\lvgl\version_6.1.2\lvgl\src\lv_objx/lv_canvas.c ****     mask.y1 = 0;
 2779              		.loc 1 807 0
 2780 0010 0269     		ldr	r2, [r0, #16]
 809:..\..\..\lvgl\version_6.1.2\lvgl\src\lv_objx/lv_canvas.c **** 
 2781              		.loc 1 809 0
 2782 0012 438A     		ldrh	r3, [r0, #18]
ARM GAS  C:\Users\pearlstl\AppData\Local\Temp\ccQFxYtd.s 			page 86


 2783              	.LBB174:
 2784              	.LBB173:
 212:..\..\..\lvgl\version_6.1.2\lvgl\src\lv_objx/lv_canvas.c **** 
 2785              		.loc 1 212 0
 2786 0014 0546     		mov	r5, r0
 2787              	.LVL299:
 2788              	.LBE173:
 2789              	.LBE174:
 806:..\..\..\lvgl\version_6.1.2\lvgl\src\lv_objx/lv_canvas.c ****     mask.x2 = dsc->header.w - 1;
 2790              		.loc 1 806 0
 2791 0016 4FF0000A 		mov	r10, #0
 807:..\..\..\lvgl\version_6.1.2\lvgl\src\lv_objx/lv_canvas.c ****     mask.y1 = 0;
 2792              		.loc 1 807 0
 2793 001a C2F38A22 		ubfx	r2, r2, #10, #11
 809:..\..\..\lvgl\version_6.1.2\lvgl\src\lv_objx/lv_canvas.c **** 
 2794              		.loc 1 809 0
 2795 001e C3F34A13 		ubfx	r3, r3, #5, #11
 807:..\..\..\lvgl\version_6.1.2\lvgl\src\lv_objx/lv_canvas.c ****     mask.y1 = 0;
 2796              		.loc 1 807 0
 2797 0022 02F1FF3E 		add	lr, r2, #-1
 809:..\..\..\lvgl\version_6.1.2\lvgl\src\lv_objx/lv_canvas.c **** 
 2798              		.loc 1 809 0
 2799 0026 013B     		subs	r3, r3, #1
 812:..\..\..\lvgl\version_6.1.2\lvgl\src\lv_objx/lv_canvas.c **** 
 2800              		.loc 1 812 0
 2801 0028 5146     		mov	r1, r10
 2802 002a 0DA8     		add	r0, sp, #52
 2803 002c 4FF4B272 		mov	r2, #356
 807:..\..\..\lvgl\version_6.1.2\lvgl\src\lv_objx/lv_canvas.c ****     mask.y1 = 0;
 2804              		.loc 1 807 0
 2805 0030 ADF814E0 		strh	lr, [sp, #20]	@ movhi
 809:..\..\..\lvgl\version_6.1.2\lvgl\src\lv_objx/lv_canvas.c **** 
 2806              		.loc 1 809 0
 2807 0034 ADF81630 		strh	r3, [sp, #22]	@ movhi
 806:..\..\..\lvgl\version_6.1.2\lvgl\src\lv_objx/lv_canvas.c ****     mask.x2 = dsc->header.w - 1;
 2808              		.loc 1 806 0
 2809 0038 ADF810A0 		strh	r10, [sp, #16]	@ movhi
 808:..\..\..\lvgl\version_6.1.2\lvgl\src\lv_objx/lv_canvas.c ****     mask.y2 = dsc->header.h - 1;
 2810              		.loc 1 808 0
 2811 003c ADF812A0 		strh	r10, [sp, #18]	@ movhi
 812:..\..\..\lvgl\version_6.1.2\lvgl\src\lv_objx/lv_canvas.c **** 
 2812              		.loc 1 812 0
 2813 0040 FFF7FEFF 		bl	memset
 2814              	.LVL300:
 815:..\..\..\lvgl\version_6.1.2\lvgl\src\lv_objx/lv_canvas.c ****     lv_area_copy(&disp_buf.area, &mask);
 2815              		.loc 1 815 0
 2816 0044 2B69     		ldr	r3, [r5, #16]
 2817 0046 6A8A     		ldrh	r2, [r5, #18]
 2818 0048 A969     		ldr	r1, [r5, #24]
 2819 004a 06AE     		add	r6, sp, #24
 2820 004c C3F38A20 		ubfx	r0, r3, #10, #11
 2821 0050 C2F34A13 		ubfx	r3, r2, #5, #11
 806:..\..\..\lvgl\version_6.1.2\lvgl\src\lv_objx/lv_canvas.c ****     mask.x2 = dsc->header.w - 1;
 2822              		.loc 1 806 0
 2823 0054 04AC     		add	r4, sp, #16
 815:..\..\..\lvgl\version_6.1.2\lvgl\src\lv_objx/lv_canvas.c ****     lv_area_copy(&disp_buf.area, &mask);
 2824              		.loc 1 815 0
ARM GAS  C:\Users\pearlstl\AppData\Local\Temp\ccQFxYtd.s 			page 87


 2825 0056 5246     		mov	r2, r10
 2826 0058 10FB03F3 		smulbb	r3, r0, r3
 2827 005c 3046     		mov	r0, r6
 2828 005e FFF7FEFF 		bl	lv_disp_buf_init
 2829              	.LVL301:
 2830              	.LBB175:
 2831              	.LBB176:
 2832              		.loc 4 78 0
 2833 0062 94E80300 		ldmia	r4, {r0, r1}
 2834 0066 0AAB     		add	r3, sp, #40
 2835              	.LVL302:
 2836 0068 83E80300 		stmia	r3, {r0, r1}
 2837              	.LVL303:
 2838              	.LBE176:
 2839              	.LBE175:
 818:..\..\..\lvgl\version_6.1.2\lvgl\src\lv_objx/lv_canvas.c **** 
 2840              		.loc 1 818 0
 2841 006c 0DA8     		add	r0, sp, #52
 2842 006e FFF7FEFF 		bl	lv_disp_drv_init
 2843              	.LVL304:
 821:..\..\..\lvgl\version_6.1.2\lvgl\src\lv_objx/lv_canvas.c ****     disp.driver.ver_res = dsc->header.h;
 2844              		.loc 1 821 0
 2845 0072 2A69     		ldr	r2, [r5, #16]
 822:..\..\..\lvgl\version_6.1.2\lvgl\src\lv_objx/lv_canvas.c **** 
 2846              		.loc 1 822 0
 2847 0074 6B8A     		ldrh	r3, [r5, #18]
 820:..\..\..\lvgl\version_6.1.2\lvgl\src\lv_objx/lv_canvas.c ****     disp.driver.hor_res = dsc->header.w;
 2848              		.loc 1 820 0
 2849 0076 0E96     		str	r6, [sp, #56]
 821:..\..\..\lvgl\version_6.1.2\lvgl\src\lv_objx/lv_canvas.c ****     disp.driver.ver_res = dsc->header.h;
 2850              		.loc 1 821 0
 2851 0078 C2F38A22 		ubfx	r2, r2, #10, #11
 822:..\..\..\lvgl\version_6.1.2\lvgl\src\lv_objx/lv_canvas.c **** 
 2852              		.loc 1 822 0
 2853 007c C3F34A13 		ubfx	r3, r3, #5, #11
 821:..\..\..\lvgl\version_6.1.2\lvgl\src\lv_objx/lv_canvas.c ****     disp.driver.ver_res = dsc->header.h;
 2854              		.loc 1 821 0
 2855 0080 ADF83420 		strh	r2, [sp, #52]	@ movhi
 822:..\..\..\lvgl\version_6.1.2\lvgl\src\lv_objx/lv_canvas.c **** 
 2856              		.loc 1 822 0
 2857 0084 ADF83630 		strh	r3, [sp, #54]	@ movhi
 835:..\..\..\lvgl\version_6.1.2\lvgl\src\lv_objx/lv_canvas.c ****     lv_refr_set_disp_refreshing(&disp);
 2858              		.loc 1 835 0
 2859 0088 FFF7FEFF 		bl	lv_refr_get_disp_refreshing
 2860              	.LVL305:
 2861 008c 8246     		mov	r10, r0
 2862              	.LVL306:
 836:..\..\..\lvgl\version_6.1.2\lvgl\src\lv_objx/lv_canvas.c **** 
 2863              		.loc 1 836 0
 2864 008e 0DA8     		add	r0, sp, #52
 2865              	.LVL307:
 2866 0090 FFF7FEFF 		bl	lv_refr_set_disp_refreshing
 2867              	.LVL308:
 838:..\..\..\lvgl\version_6.1.2\lvgl\src\lv_objx/lv_canvas.c **** 
 2868              		.loc 1 838 0
 2869 0094 BDF8BCE1 		ldrh	lr, [sp, #444]
 2870 0098 BDF8B851 		ldrh	r5, [sp, #440]
ARM GAS  C:\Users\pearlstl\AppData\Local\Temp\ccQFxYtd.s 			page 88


 2871 009c 709B     		ldr	r3, [sp, #448]
 2872 009e 0293     		str	r3, [sp, #8]
 2873 00a0 FF26     		movs	r6, #255
 2874 00a2 2346     		mov	r3, r4
 2875 00a4 1FFA89F2 		uxth	r2, r9
 2876 00a8 4146     		mov	r1, r8
 2877 00aa 3846     		mov	r0, r7
 2878 00ac 8DE82040 		stmia	sp, {r5, lr}
 2879 00b0 0396     		str	r6, [sp, #12]
 2880 00b2 FFF7FEFF 		bl	lv_draw_arc
 2881              	.LVL309:
 840:..\..\..\lvgl\version_6.1.2\lvgl\src\lv_objx/lv_canvas.c **** }
 2882              		.loc 1 840 0
 2883 00b6 5046     		mov	r0, r10
 2884 00b8 FFF7FEFF 		bl	lv_refr_set_disp_refreshing
 2885              	.LVL310:
 841:..\..\..\lvgl\version_6.1.2\lvgl\src\lv_objx/lv_canvas.c **** 
 2886              		.loc 1 841 0
 2887 00bc 66B0     		add	sp, sp, #408
 2888              		.cfi_def_cfa_offset 32
 2889              		@ sp needed
 2890 00be BDE8F087 		pop	{r4, r5, r6, r7, r8, r9, r10, pc}
 2891              		.cfi_endproc
 2892              	.LFE51:
 2893              		.size	lv_canvas_draw_arc, .-lv_canvas_draw_arc
 2894 00c2 00BF     		.section	.rodata.str1.4,"aMS",%progbits,1
 2895              		.align	2
 2896              	.LC0:
 2897 0000 6C765F63 		.ascii	"lv_canvas\000"
 2897      616E7661 
 2897      7300
 2898              		.bss
 2899              		.align	2
 2900              		.set	.LANCHOR0,. + 0
 2901              		.type	ancestor_signal, %object
 2902              		.size	ancestor_signal, 4
 2903              	ancestor_signal:
 2904 0000 00000000 		.space	4
 2905              		.type	ancestor_design, %object
 2906              		.size	ancestor_design, 4
 2907              	ancestor_design:
 2908 0004 00000000 		.space	4
 2909              		.text
 2910              	.Letext0:
 2911              		.file 5 "c:\\program files (x86)\\cypress\\psoc creator\\4.2\\psoc creator\\import\\gnu\\arm\\5.4.
 2912              		.file 6 "c:\\program files (x86)\\cypress\\psoc creator\\4.2\\psoc creator\\import\\gnu\\arm\\5.4.
 2913              		.file 7 "..\\..\\..\\lvgl\\version_6.1.2\\lvgl\\src\\lv_objx\\../../../lv_conf.h"
 2914              		.file 8 "..\\..\\..\\lvgl\\version_6.1.2\\lvgl\\src\\lv_objx\\../lv_core/../lv_font/lv_font.h"
 2915              		.file 9 "..\\..\\..\\lvgl\\version_6.1.2\\lvgl\\src\\lv_objx\\../lv_core/lv_style.h"
 2916              		.file 10 "..\\..\\..\\lvgl\\version_6.1.2\\lvgl\\src\\lv_objx\\../lv_core/../lv_misc/lv_types.h"
 2917              		.file 11 "..\\..\\..\\lvgl\\version_6.1.2\\lvgl\\src\\lv_objx\\../lv_core/../lv_misc/lv_ll.h"
 2918              		.file 12 "..\\..\\..\\lvgl\\version_6.1.2\\lvgl\\src\\lv_objx\\../lv_core/../lv_misc/lv_bidi.h"
 2919              		.file 13 "..\\..\\..\\lvgl\\version_6.1.2\\lvgl\\src\\lv_objx\\../lv_core/../lv_hal/../lv_misc/lv_
 2920              		.file 14 "..\\..\\..\\lvgl\\version_6.1.2\\lvgl\\src\\lv_objx\\../lv_core/../lv_hal/lv_hal_disp.h"
 2921              		.file 15 "..\\..\\..\\lvgl\\version_6.1.2\\lvgl\\src\\lv_objx\\../lv_core/lv_obj.h"
 2922              		.file 16 "..\\..\\..\\lvgl\\version_6.1.2\\lvgl\\src\\lv_objx\\../lv_objx/../lv_misc/lv_txt.h"
 2923              		.file 17 "..\\..\\..\\lvgl\\version_6.1.2\\lvgl\\src\\lv_objx\\../lv_objx/../lv_draw/lv_img_decode
ARM GAS  C:\Users\pearlstl\AppData\Local\Temp\ccQFxYtd.s 			page 89


 2924              		.file 18 "..\\..\\..\\lvgl\\version_6.1.2\\lvgl\\src\\lv_objx\\../lv_objx/lv_label.h"
 2925              		.file 19 "..\\..\\..\\lvgl\\version_6.1.2\\lvgl\\src\\lv_objx\\lv_canvas.h"
 2926              		.file 20 "..\\..\\..\\lvgl\\version_6.1.2\\lvgl\\src\\lv_objx\\../lv_objx/../lv_draw/lv_draw_img.h
 2927              		.file 21 "..\\..\\..\\lvgl\\version_6.1.2\\lvgl\\src\\lv_objx\\../lv_misc/lv_math.h"
 2928              		.file 22 "..\\..\\..\\lvgl\\version_6.1.2\\lvgl\\src\\lv_objx\\../lv_core/lv_refr.h"
 2929              		.file 23 "..\\..\\..\\lvgl\\version_6.1.2\\lvgl\\src\\lv_objx\\../lv_objx/../lv_draw/lv_draw_rect.
 2930              		.file 24 "..\\..\\..\\lvgl\\version_6.1.2\\lvgl\\src\\lv_objx\\../lv_objx/../lv_draw/lv_draw_label
 2931              		.file 25 "..\\..\\..\\lvgl\\version_6.1.2\\lvgl\\src\\lv_objx\\../lv_objx/../lv_draw/lv_draw_line.
 2932              		.file 26 "..\\..\\..\\lvgl\\version_6.1.2\\lvgl\\src\\lv_objx\\../lv_objx/../lv_draw/lv_draw_trian
 2933              		.file 27 "..\\..\\..\\lvgl\\version_6.1.2\\lvgl\\src\\lv_objx\\../lv_objx/../lv_draw/lv_draw_arc.h
 2934              		.section	.debug_info,"",%progbits
 2935              	.Ldebug_info0:
 2936 0000 462C0000 		.4byte	0x2c46
 2937 0004 0400     		.2byte	0x4
 2938 0006 00000000 		.4byte	.Ldebug_abbrev0
 2939 000a 04       		.byte	0x4
 2940 000b 01       		.uleb128 0x1
 2941 000c 3F020000 		.4byte	.LASF368
 2942 0010 0C       		.byte	0xc
 2943 0011 79080000 		.4byte	.LASF369
 2944 0015 24110000 		.4byte	.LASF370
 2945 0019 E8010000 		.4byte	.Ldebug_ranges0+0x1e8
 2946 001d 00000000 		.4byte	0
 2947 0021 00000000 		.4byte	.Ldebug_line0
 2948 0025 02       		.uleb128 0x2
 2949 0026 04       		.byte	0x4
 2950 0027 07       		.byte	0x7
 2951 0028 180B0000 		.4byte	.LASF0
 2952 002c 03       		.uleb128 0x3
 2953 002d 04       		.byte	0x4
 2954 002e 05       		.byte	0x5
 2955 002f 696E7400 		.ascii	"int\000"
 2956 0033 02       		.uleb128 0x2
 2957 0034 08       		.byte	0x8
 2958 0035 05       		.byte	0x5
 2959 0036 3B0A0000 		.4byte	.LASF1
 2960 003a 02       		.uleb128 0x2
 2961 003b 08       		.byte	0x8
 2962 003c 04       		.byte	0x4
 2963 003d B00D0000 		.4byte	.LASF2
 2964 0041 04       		.uleb128 0x4
 2965 0042 C60E0000 		.4byte	.LASF4
 2966 0046 05       		.byte	0x5
 2967 0047 1B       		.byte	0x1b
 2968 0048 4C000000 		.4byte	0x4c
 2969 004c 02       		.uleb128 0x2
 2970 004d 01       		.byte	0x1
 2971 004e 06       		.byte	0x6
 2972 004f 67040000 		.4byte	.LASF3
 2973 0053 04       		.uleb128 0x4
 2974 0054 05030000 		.4byte	.LASF5
 2975 0058 05       		.byte	0x5
 2976 0059 1D       		.byte	0x1d
 2977 005a 5E000000 		.4byte	0x5e
 2978 005e 02       		.uleb128 0x2
 2979 005f 01       		.byte	0x1
 2980 0060 08       		.byte	0x8
ARM GAS  C:\Users\pearlstl\AppData\Local\Temp\ccQFxYtd.s 			page 90


 2981 0061 E1040000 		.4byte	.LASF6
 2982 0065 04       		.uleb128 0x4
 2983 0066 CA0F0000 		.4byte	.LASF7
 2984 006a 05       		.byte	0x5
 2985 006b 29       		.byte	0x29
 2986 006c 70000000 		.4byte	0x70
 2987 0070 02       		.uleb128 0x2
 2988 0071 02       		.byte	0x2
 2989 0072 05       		.byte	0x5
 2990 0073 A4100000 		.4byte	.LASF8
 2991 0077 04       		.uleb128 0x4
 2992 0078 25060000 		.4byte	.LASF9
 2993 007c 05       		.byte	0x5
 2994 007d 2B       		.byte	0x2b
 2995 007e 82000000 		.4byte	0x82
 2996 0082 02       		.uleb128 0x2
 2997 0083 02       		.byte	0x2
 2998 0084 07       		.byte	0x7
 2999 0085 15130000 		.4byte	.LASF10
 3000 0089 04       		.uleb128 0x4
 3001 008a 87130000 		.4byte	.LASF11
 3002 008e 05       		.byte	0x5
 3003 008f 3F       		.byte	0x3f
 3004 0090 94000000 		.4byte	0x94
 3005 0094 02       		.uleb128 0x2
 3006 0095 04       		.byte	0x4
 3007 0096 05       		.byte	0x5
 3008 0097 69030000 		.4byte	.LASF12
 3009 009b 04       		.uleb128 0x4
 3010 009c FD090000 		.4byte	.LASF13
 3011 00a0 05       		.byte	0x5
 3012 00a1 41       		.byte	0x41
 3013 00a2 A6000000 		.4byte	0xa6
 3014 00a6 02       		.uleb128 0x2
 3015 00a7 04       		.byte	0x4
 3016 00a8 07       		.byte	0x7
 3017 00a9 B2080000 		.4byte	.LASF14
 3018 00ad 02       		.uleb128 0x2
 3019 00ae 08       		.byte	0x8
 3020 00af 07       		.byte	0x7
 3021 00b0 E00E0000 		.4byte	.LASF15
 3022 00b4 02       		.uleb128 0x2
 3023 00b5 04       		.byte	0x4
 3024 00b6 07       		.byte	0x7
 3025 00b7 4A000000 		.4byte	.LASF16
 3026 00bb 05       		.uleb128 0x5
 3027 00bc 04       		.byte	0x4
 3028 00bd 02       		.uleb128 0x2
 3029 00be 01       		.byte	0x1
 3030 00bf 08       		.byte	0x8
 3031 00c0 CD050000 		.4byte	.LASF17
 3032 00c4 06       		.uleb128 0x6
 3033 00c5 04       		.byte	0x4
 3034 00c6 CA000000 		.4byte	0xca
 3035 00ca 07       		.uleb128 0x7
 3036 00cb BD000000 		.4byte	0xbd
 3037 00cf 06       		.uleb128 0x6
ARM GAS  C:\Users\pearlstl\AppData\Local\Temp\ccQFxYtd.s 			page 91


 3038 00d0 04       		.byte	0x4
 3039 00d1 D5000000 		.4byte	0xd5
 3040 00d5 08       		.uleb128 0x8
 3041 00d6 04       		.uleb128 0x4
 3042 00d7 00000000 		.4byte	.LASF18
 3043 00db 06       		.byte	0x6
 3044 00dc 14       		.byte	0x14
 3045 00dd 41000000 		.4byte	0x41
 3046 00e1 04       		.uleb128 0x4
 3047 00e2 73040000 		.4byte	.LASF19
 3048 00e6 06       		.byte	0x6
 3049 00e7 18       		.byte	0x18
 3050 00e8 53000000 		.4byte	0x53
 3051 00ec 04       		.uleb128 0x4
 3052 00ed F2100000 		.4byte	.LASF20
 3053 00f1 06       		.byte	0x6
 3054 00f2 20       		.byte	0x20
 3055 00f3 65000000 		.4byte	0x65
 3056 00f7 04       		.uleb128 0x4
 3057 00f8 F70E0000 		.4byte	.LASF21
 3058 00fc 06       		.byte	0x6
 3059 00fd 24       		.byte	0x24
 3060 00fe 77000000 		.4byte	0x77
 3061 0102 04       		.uleb128 0x4
 3062 0103 C4000000 		.4byte	.LASF22
 3063 0107 06       		.byte	0x6
 3064 0108 2C       		.byte	0x2c
 3065 0109 89000000 		.4byte	0x89
 3066 010d 04       		.uleb128 0x4
 3067 010e 91120000 		.4byte	.LASF23
 3068 0112 06       		.byte	0x6
 3069 0113 30       		.byte	0x30
 3070 0114 9B000000 		.4byte	0x9b
 3071 0118 04       		.uleb128 0x4
 3072 0119 28130000 		.4byte	.LASF24
 3073 011d 07       		.byte	0x7
 3074 011e 3A       		.byte	0x3a
 3075 011f EC000000 		.4byte	0xec
 3076 0123 09       		.uleb128 0x9
 3077 0124 08       		.byte	0x8
 3078 0125 08       		.byte	0x8
 3079 0126 2E       		.byte	0x2e
 3080 0127 74010000 		.4byte	0x174
 3081 012b 0A       		.uleb128 0xa
 3082 012c 38000000 		.4byte	.LASF25
 3083 0130 08       		.byte	0x8
 3084 0131 30       		.byte	0x30
 3085 0132 F7000000 		.4byte	0xf7
 3086 0136 00       		.byte	0
 3087 0137 0A       		.uleb128 0xa
 3088 0138 9E100000 		.4byte	.LASF26
 3089 013c 08       		.byte	0x8
 3090 013d 31       		.byte	0x31
 3091 013e E1000000 		.4byte	0xe1
 3092 0142 02       		.byte	0x2
 3093 0143 0A       		.uleb128 0xa
 3094 0144 93100000 		.4byte	.LASF27
ARM GAS  C:\Users\pearlstl\AppData\Local\Temp\ccQFxYtd.s 			page 92


 3095 0148 08       		.byte	0x8
 3096 0149 32       		.byte	0x32
 3097 014a E1000000 		.4byte	0xe1
 3098 014e 03       		.byte	0x3
 3099 014f 0A       		.uleb128 0xa
 3100 0150 6B050000 		.4byte	.LASF28
 3101 0154 08       		.byte	0x8
 3102 0155 33       		.byte	0x33
 3103 0156 D6000000 		.4byte	0xd6
 3104 015a 04       		.byte	0x4
 3105 015b 0A       		.uleb128 0xa
 3106 015c 71050000 		.4byte	.LASF29
 3107 0160 08       		.byte	0x8
 3108 0161 34       		.byte	0x34
 3109 0162 D6000000 		.4byte	0xd6
 3110 0166 05       		.byte	0x5
 3111 0167 0B       		.uleb128 0xb
 3112 0168 62707000 		.ascii	"bpp\000"
 3113 016c 08       		.byte	0x8
 3114 016d 35       		.byte	0x35
 3115 016e E1000000 		.4byte	0xe1
 3116 0172 06       		.byte	0x6
 3117 0173 00       		.byte	0
 3118 0174 04       		.uleb128 0x4
 3119 0175 1D0C0000 		.4byte	.LASF30
 3120 0179 08       		.byte	0x8
 3121 017a 36       		.byte	0x36
 3122 017b 23010000 		.4byte	0x123
 3123 017f 0C       		.uleb128 0xc
 3124 0180 05140000 		.4byte	.LASF98
 3125 0184 10       		.byte	0x10
 3126 0185 08       		.byte	0x8
 3127 0186 44       		.byte	0x44
 3128 0187 D7010000 		.4byte	0x1d7
 3129 018b 0A       		.uleb128 0xa
 3130 018c 79130000 		.4byte	.LASF31
 3131 0190 08       		.byte	0x8
 3132 0191 47       		.byte	0x47
 3133 0192 0D020000 		.4byte	0x20d
 3134 0196 00       		.byte	0
 3135 0197 0A       		.uleb128 0xa
 3136 0198 A8040000 		.4byte	.LASF32
 3137 019c 08       		.byte	0x8
 3138 019d 4A       		.byte	0x4a
 3139 019e 32020000 		.4byte	0x232
 3140 01a2 04       		.byte	0x4
 3141 01a3 0A       		.uleb128 0xa
 3142 01a4 37010000 		.4byte	.LASF33
 3143 01a8 08       		.byte	0x8
 3144 01a9 4D       		.byte	0x4d
 3145 01aa E1000000 		.4byte	0xe1
 3146 01ae 08       		.byte	0x8
 3147 01af 0A       		.uleb128 0xa
 3148 01b0 AE100000 		.4byte	.LASF34
 3149 01b4 08       		.byte	0x8
 3150 01b5 4E       		.byte	0x4e
 3151 01b6 D6000000 		.4byte	0xd6
ARM GAS  C:\Users\pearlstl\AppData\Local\Temp\ccQFxYtd.s 			page 93


 3152 01ba 09       		.byte	0x9
 3153 01bb 0D       		.uleb128 0xd
 3154 01bc 050E0000 		.4byte	.LASF80
 3155 01c0 08       		.byte	0x8
 3156 01c1 4F       		.byte	0x4f
 3157 01c2 E1000000 		.4byte	0xe1
 3158 01c6 01       		.byte	0x1
 3159 01c7 02       		.byte	0x2
 3160 01c8 06       		.byte	0x6
 3161 01c9 0A       		.byte	0xa
 3162 01ca 0B       		.uleb128 0xb
 3163 01cb 64736300 		.ascii	"dsc\000"
 3164 01cf 08       		.byte	0x8
 3165 01d0 50       		.byte	0x50
 3166 01d1 BB000000 		.4byte	0xbb
 3167 01d5 0C       		.byte	0xc
 3168 01d6 00       		.byte	0
 3169 01d7 0E       		.uleb128 0xe
 3170 01d8 F5010000 		.4byte	0x1f5
 3171 01dc F5010000 		.4byte	0x1f5
 3172 01e0 0F       		.uleb128 0xf
 3173 01e1 FC010000 		.4byte	0x1fc
 3174 01e5 0F       		.uleb128 0xf
 3175 01e6 07020000 		.4byte	0x207
 3176 01ea 0F       		.uleb128 0xf
 3177 01eb 0D010000 		.4byte	0x10d
 3178 01ef 0F       		.uleb128 0xf
 3179 01f0 0D010000 		.4byte	0x10d
 3180 01f4 00       		.byte	0
 3181 01f5 02       		.uleb128 0x2
 3182 01f6 01       		.byte	0x1
 3183 01f7 02       		.byte	0x2
 3184 01f8 A8050000 		.4byte	.LASF35
 3185 01fc 06       		.uleb128 0x6
 3186 01fd 04       		.byte	0x4
 3187 01fe 02020000 		.4byte	0x202
 3188 0202 07       		.uleb128 0x7
 3189 0203 7F010000 		.4byte	0x17f
 3190 0207 06       		.uleb128 0x6
 3191 0208 04       		.byte	0x4
 3192 0209 74010000 		.4byte	0x174
 3193 020d 06       		.uleb128 0x6
 3194 020e 04       		.byte	0x4
 3195 020f D7010000 		.4byte	0x1d7
 3196 0213 0E       		.uleb128 0xe
 3197 0214 27020000 		.4byte	0x227
 3198 0218 27020000 		.4byte	0x227
 3199 021c 0F       		.uleb128 0xf
 3200 021d FC010000 		.4byte	0x1fc
 3201 0221 0F       		.uleb128 0xf
 3202 0222 0D010000 		.4byte	0x10d
 3203 0226 00       		.byte	0
 3204 0227 06       		.uleb128 0x6
 3205 0228 04       		.byte	0x4
 3206 0229 2D020000 		.4byte	0x22d
 3207 022d 07       		.uleb128 0x7
 3208 022e E1000000 		.4byte	0xe1
ARM GAS  C:\Users\pearlstl\AppData\Local\Temp\ccQFxYtd.s 			page 94


 3209 0232 06       		.uleb128 0x6
 3210 0233 04       		.byte	0x4
 3211 0234 13020000 		.4byte	0x213
 3212 0238 04       		.uleb128 0x4
 3213 0239 D1120000 		.4byte	.LASF36
 3214 023d 08       		.byte	0x8
 3215 023e 56       		.byte	0x56
 3216 023f 7F010000 		.4byte	0x17f
 3217 0243 10       		.uleb128 0x10
 3218 0244 01       		.byte	0x1
 3219 0245 5E000000 		.4byte	0x5e
 3220 0249 03       		.byte	0x3
 3221 024a 3E       		.byte	0x3e
 3222 024b 9E020000 		.4byte	0x29e
 3223 024f 11       		.uleb128 0x11
 3224 0250 BA0A0000 		.4byte	.LASF37
 3225 0254 00       		.byte	0
 3226 0255 11       		.uleb128 0x11
 3227 0256 2E090000 		.4byte	.LASF38
 3228 025a 00       		.byte	0
 3229 025b 11       		.uleb128 0x11
 3230 025c 670F0000 		.4byte	.LASF39
 3231 0260 19       		.byte	0x19
 3232 0261 11       		.uleb128 0x11
 3233 0262 F30F0000 		.4byte	.LASF40
 3234 0266 33       		.byte	0x33
 3235 0267 11       		.uleb128 0x11
 3236 0268 73100000 		.4byte	.LASF41
 3237 026c 4C       		.byte	0x4c
 3238 026d 11       		.uleb128 0x11
 3239 026e E8100000 		.4byte	.LASF42
 3240 0272 66       		.byte	0x66
 3241 0273 11       		.uleb128 0x11
 3242 0274 E6110000 		.4byte	.LASF43
 3243 0278 7F       		.byte	0x7f
 3244 0279 11       		.uleb128 0x11
 3245 027a 67120000 		.4byte	.LASF44
 3246 027e 99       		.byte	0x99
 3247 027f 11       		.uleb128 0x11
 3248 0280 0B130000 		.4byte	.LASF45
 3249 0284 B2       		.byte	0xb2
 3250 0285 11       		.uleb128 0x11
 3251 0286 C1130000 		.4byte	.LASF46
 3252 028a CC       		.byte	0xcc
 3253 028b 11       		.uleb128 0x11
 3254 028c 3A140000 		.4byte	.LASF47
 3255 0290 E5       		.byte	0xe5
 3256 0291 11       		.uleb128 0x11
 3257 0292 CC0C0000 		.4byte	.LASF48
 3258 0296 FF       		.byte	0xff
 3259 0297 11       		.uleb128 0x11
 3260 0298 0B0E0000 		.4byte	.LASF49
 3261 029c FF       		.byte	0xff
 3262 029d 00       		.byte	0
 3263 029e 09       		.uleb128 0x9
 3264 029f 04       		.byte	0x4
 3265 02a0 03       		.byte	0x3
ARM GAS  C:\Users\pearlstl\AppData\Local\Temp\ccQFxYtd.s 			page 95


 3266 02a1 F3       		.byte	0xf3
 3267 02a2 D7020000 		.4byte	0x2d7
 3268 02a6 0A       		.uleb128 0xa
 3269 02a7 C3040000 		.4byte	.LASF50
 3270 02ab 03       		.byte	0x3
 3271 02ac F5       		.byte	0xf5
 3272 02ad E1000000 		.4byte	0xe1
 3273 02b1 00       		.byte	0
 3274 02b2 0A       		.uleb128 0xa
 3275 02b3 CB120000 		.4byte	.LASF51
 3276 02b7 03       		.byte	0x3
 3277 02b8 F6       		.byte	0xf6
 3278 02b9 E1000000 		.4byte	0xe1
 3279 02bd 01       		.byte	0x1
 3280 02be 0B       		.uleb128 0xb
 3281 02bf 72656400 		.ascii	"red\000"
 3282 02c3 03       		.byte	0x3
 3283 02c4 F7       		.byte	0xf7
 3284 02c5 E1000000 		.4byte	0xe1
 3285 02c9 02       		.byte	0x2
 3286 02ca 0A       		.uleb128 0xa
 3287 02cb 0F030000 		.4byte	.LASF52
 3288 02cf 03       		.byte	0x3
 3289 02d0 F8       		.byte	0xf8
 3290 02d1 E1000000 		.4byte	0xe1
 3291 02d5 03       		.byte	0x3
 3292 02d6 00       		.byte	0
 3293 02d7 12       		.uleb128 0x12
 3294 02d8 04       		.byte	0x4
 3295 02d9 03       		.byte	0x3
 3296 02da F1       		.byte	0xf1
 3297 02db F5020000 		.4byte	0x2f5
 3298 02df 13       		.uleb128 0x13
 3299 02e0 636800   		.ascii	"ch\000"
 3300 02e3 03       		.byte	0x3
 3301 02e4 F9       		.byte	0xf9
 3302 02e5 9E020000 		.4byte	0x29e
 3303 02e9 14       		.uleb128 0x14
 3304 02ea EE0F0000 		.4byte	.LASF53
 3305 02ee 03       		.byte	0x3
 3306 02ef FA       		.byte	0xfa
 3307 02f0 0D010000 		.4byte	0x10d
 3308 02f4 00       		.byte	0
 3309 02f5 04       		.uleb128 0x4
 3310 02f6 71000000 		.4byte	.LASF54
 3311 02fa 03       		.byte	0x3
 3312 02fb FB       		.byte	0xfb
 3313 02fc D7020000 		.4byte	0x2d7
 3314 0300 15       		.uleb128 0x15
 3315 0301 130F0000 		.4byte	.LASF55
 3316 0305 03       		.byte	0x3
 3317 0306 0801     		.2byte	0x108
 3318 0308 F5020000 		.4byte	0x2f5
 3319 030c 15       		.uleb128 0x15
 3320 030d BB000000 		.4byte	.LASF56
 3321 0311 03       		.byte	0x3
 3322 0312 0D01     		.2byte	0x10d
ARM GAS  C:\Users\pearlstl\AppData\Local\Temp\ccQFxYtd.s 			page 96


 3323 0314 E1000000 		.4byte	0xe1
 3324 0318 09       		.uleb128 0x9
 3325 0319 04       		.byte	0x4
 3326 031a 04       		.byte	0x4
 3327 031b 2A       		.byte	0x2a
 3328 031c 35030000 		.4byte	0x335
 3329 0320 0B       		.uleb128 0xb
 3330 0321 7800     		.ascii	"x\000"
 3331 0323 04       		.byte	0x4
 3332 0324 2C       		.byte	0x2c
 3333 0325 18010000 		.4byte	0x118
 3334 0329 00       		.byte	0
 3335 032a 0B       		.uleb128 0xb
 3336 032b 7900     		.ascii	"y\000"
 3337 032d 04       		.byte	0x4
 3338 032e 2D       		.byte	0x2d
 3339 032f 18010000 		.4byte	0x118
 3340 0333 02       		.byte	0x2
 3341 0334 00       		.byte	0
 3342 0335 04       		.uleb128 0x4
 3343 0336 EF000000 		.4byte	.LASF57
 3344 033a 04       		.byte	0x4
 3345 033b 2E       		.byte	0x2e
 3346 033c 18030000 		.4byte	0x318
 3347 0340 09       		.uleb128 0x9
 3348 0341 08       		.byte	0x8
 3349 0342 04       		.byte	0x4
 3350 0343 31       		.byte	0x31
 3351 0344 75030000 		.4byte	0x375
 3352 0348 0B       		.uleb128 0xb
 3353 0349 783100   		.ascii	"x1\000"
 3354 034c 04       		.byte	0x4
 3355 034d 33       		.byte	0x33
 3356 034e 18010000 		.4byte	0x118
 3357 0352 00       		.byte	0
 3358 0353 0B       		.uleb128 0xb
 3359 0354 793100   		.ascii	"y1\000"
 3360 0357 04       		.byte	0x4
 3361 0358 34       		.byte	0x34
 3362 0359 18010000 		.4byte	0x118
 3363 035d 02       		.byte	0x2
 3364 035e 0B       		.uleb128 0xb
 3365 035f 783200   		.ascii	"x2\000"
 3366 0362 04       		.byte	0x4
 3367 0363 35       		.byte	0x35
 3368 0364 18010000 		.4byte	0x118
 3369 0368 04       		.byte	0x4
 3370 0369 0B       		.uleb128 0xb
 3371 036a 793200   		.ascii	"y2\000"
 3372 036d 04       		.byte	0x4
 3373 036e 36       		.byte	0x36
 3374 036f 18010000 		.4byte	0x118
 3375 0373 06       		.byte	0x6
 3376 0374 00       		.byte	0
 3377 0375 04       		.uleb128 0x4
 3378 0376 03070000 		.4byte	.LASF58
 3379 037a 04       		.byte	0x4
ARM GAS  C:\Users\pearlstl\AppData\Local\Temp\ccQFxYtd.s 			page 97


 3380 037b 37       		.byte	0x37
 3381 037c 40030000 		.4byte	0x340
 3382 0380 04       		.uleb128 0x4
 3383 0381 9B130000 		.4byte	.LASF59
 3384 0385 09       		.byte	0x9
 3385 0386 2C       		.byte	0x2c
 3386 0387 E1000000 		.4byte	0xe1
 3387 038b 04       		.uleb128 0x4
 3388 038c 41100000 		.4byte	.LASF60
 3389 0390 09       		.byte	0x9
 3390 0391 33       		.byte	0x33
 3391 0392 E1000000 		.4byte	0xe1
 3392 0396 09       		.uleb128 0x9
 3393 0397 08       		.byte	0x8
 3394 0398 09       		.byte	0x9
 3395 0399 48       		.byte	0x48
 3396 039a CF030000 		.4byte	0x3cf
 3397 039e 0A       		.uleb128 0xa
 3398 039f FD0F0000 		.4byte	.LASF61
 3399 03a3 09       		.byte	0x9
 3400 03a4 4A       		.byte	0x4a
 3401 03a5 00030000 		.4byte	0x300
 3402 03a9 00       		.byte	0
 3403 03aa 0A       		.uleb128 0xa
 3404 03ab 490A0000 		.4byte	.LASF62
 3405 03af 09       		.byte	0x9
 3406 03b0 4B       		.byte	0x4b
 3407 03b1 18010000 		.4byte	0x118
 3408 03b5 04       		.byte	0x4
 3409 03b6 0A       		.uleb128 0xa
 3410 03b7 15140000 		.4byte	.LASF63
 3411 03bb 09       		.byte	0x9
 3412 03bc 4C       		.byte	0x4c
 3413 03bd 80030000 		.4byte	0x380
 3414 03c1 06       		.byte	0x6
 3415 03c2 0B       		.uleb128 0xb
 3416 03c3 6F706100 		.ascii	"opa\000"
 3417 03c7 09       		.byte	0x9
 3418 03c8 4D       		.byte	0x4d
 3419 03c9 0C030000 		.4byte	0x30c
 3420 03cd 07       		.byte	0x7
 3421 03ce 00       		.byte	0
 3422 03cf 09       		.uleb128 0x9
 3423 03d0 08       		.byte	0x8
 3424 03d1 09       		.byte	0x9
 3425 03d2 51       		.byte	0x51
 3426 03d3 FC030000 		.4byte	0x3fc
 3427 03d7 0A       		.uleb128 0xa
 3428 03d8 FD0F0000 		.4byte	.LASF61
 3429 03dc 09       		.byte	0x9
 3430 03dd 53       		.byte	0x53
 3431 03de 00030000 		.4byte	0x300
 3432 03e2 00       		.byte	0
 3433 03e3 0A       		.uleb128 0xa
 3434 03e4 490A0000 		.4byte	.LASF62
 3435 03e8 09       		.byte	0x9
 3436 03e9 54       		.byte	0x54
ARM GAS  C:\Users\pearlstl\AppData\Local\Temp\ccQFxYtd.s 			page 98


 3437 03ea 18010000 		.4byte	0x118
 3438 03ee 04       		.byte	0x4
 3439 03ef 0A       		.uleb128 0xa
 3440 03f0 FC010000 		.4byte	.LASF64
 3441 03f4 09       		.byte	0x9
 3442 03f5 55       		.byte	0x55
 3443 03f6 8B030000 		.4byte	0x38b
 3444 03fa 06       		.byte	0x6
 3445 03fb 00       		.byte	0
 3446 03fc 09       		.uleb128 0x9
 3447 03fd 0A       		.byte	0xa
 3448 03fe 09       		.byte	0x9
 3449 03ff 58       		.byte	0x58
 3450 0400 41040000 		.4byte	0x441
 3451 0404 0B       		.uleb128 0xb
 3452 0405 746F7000 		.ascii	"top\000"
 3453 0409 09       		.byte	0x9
 3454 040a 5A       		.byte	0x5a
 3455 040b 18010000 		.4byte	0x118
 3456 040f 00       		.byte	0
 3457 0410 0A       		.uleb128 0xa
 3458 0411 610A0000 		.4byte	.LASF65
 3459 0415 09       		.byte	0x9
 3460 0416 5B       		.byte	0x5b
 3461 0417 18010000 		.4byte	0x118
 3462 041b 02       		.byte	0x2
 3463 041c 0A       		.uleb128 0xa
 3464 041d A3070000 		.4byte	.LASF66
 3465 0421 09       		.byte	0x9
 3466 0422 5C       		.byte	0x5c
 3467 0423 18010000 		.4byte	0x118
 3468 0427 04       		.byte	0x4
 3469 0428 0A       		.uleb128 0xa
 3470 0429 2D0A0000 		.4byte	.LASF67
 3471 042d 09       		.byte	0x9
 3472 042e 5D       		.byte	0x5d
 3473 042f 18010000 		.4byte	0x118
 3474 0433 06       		.byte	0x6
 3475 0434 0A       		.uleb128 0xa
 3476 0435 63080000 		.4byte	.LASF68
 3477 0439 09       		.byte	0x9
 3478 043a 5E       		.byte	0x5e
 3479 043b 18010000 		.4byte	0x118
 3480 043f 08       		.byte	0x8
 3481 0440 00       		.byte	0
 3482 0441 09       		.uleb128 0x9
 3483 0442 28       		.byte	0x28
 3484 0443 09       		.byte	0x9
 3485 0444 41       		.byte	0x41
 3486 0445 9E040000 		.4byte	0x49e
 3487 0449 0A       		.uleb128 0xa
 3488 044a BB0E0000 		.4byte	.LASF69
 3489 044e 09       		.byte	0x9
 3490 044f 43       		.byte	0x43
 3491 0450 00030000 		.4byte	0x300
 3492 0454 00       		.byte	0
 3493 0455 0A       		.uleb128 0xa
ARM GAS  C:\Users\pearlstl\AppData\Local\Temp\ccQFxYtd.s 			page 99


 3494 0456 400C0000 		.4byte	.LASF70
 3495 045a 09       		.byte	0x9
 3496 045b 44       		.byte	0x44
 3497 045c 00030000 		.4byte	0x300
 3498 0460 04       		.byte	0x4
 3499 0461 0A       		.uleb128 0xa
 3500 0462 23010000 		.4byte	.LASF71
 3501 0466 09       		.byte	0x9
 3502 0467 45       		.byte	0x45
 3503 0468 18010000 		.4byte	0x118
 3504 046c 08       		.byte	0x8
 3505 046d 0B       		.uleb128 0xb
 3506 046e 6F706100 		.ascii	"opa\000"
 3507 0472 09       		.byte	0x9
 3508 0473 46       		.byte	0x46
 3509 0474 0C030000 		.4byte	0x30c
 3510 0478 0A       		.byte	0xa
 3511 0479 0A       		.uleb128 0xa
 3512 047a 72130000 		.4byte	.LASF72
 3513 047e 09       		.byte	0x9
 3514 047f 4E       		.byte	0x4e
 3515 0480 96030000 		.4byte	0x396
 3516 0484 0C       		.byte	0xc
 3517 0485 0A       		.uleb128 0xa
 3518 0486 DF110000 		.4byte	.LASF73
 3519 048a 09       		.byte	0x9
 3520 048b 56       		.byte	0x56
 3521 048c CF030000 		.4byte	0x3cf
 3522 0490 14       		.byte	0x14
 3523 0491 0A       		.uleb128 0xa
 3524 0492 55120000 		.4byte	.LASF74
 3525 0496 09       		.byte	0x9
 3526 0497 5F       		.byte	0x5f
 3527 0498 FC030000 		.4byte	0x3fc
 3528 049c 1C       		.byte	0x1c
 3529 049d 00       		.byte	0
 3530 049e 09       		.uleb128 0x9
 3531 049f 14       		.byte	0x14
 3532 04a0 09       		.byte	0x9
 3533 04a1 63       		.byte	0x63
 3534 04a2 EF040000 		.4byte	0x4ef
 3535 04a6 0A       		.uleb128 0xa
 3536 04a7 FD0F0000 		.4byte	.LASF61
 3537 04ab 09       		.byte	0x9
 3538 04ac 65       		.byte	0x65
 3539 04ad 00030000 		.4byte	0x300
 3540 04b1 00       		.byte	0
 3541 04b2 0A       		.uleb128 0xa
 3542 04b3 E0130000 		.4byte	.LASF75
 3543 04b7 09       		.byte	0x9
 3544 04b8 66       		.byte	0x66
 3545 04b9 00030000 		.4byte	0x300
 3546 04bd 04       		.byte	0x4
 3547 04be 0A       		.uleb128 0xa
 3548 04bf 61100000 		.4byte	.LASF76
 3549 04c3 09       		.byte	0x9
 3550 04c4 67       		.byte	0x67
ARM GAS  C:\Users\pearlstl\AppData\Local\Temp\ccQFxYtd.s 			page 100


 3551 04c5 EF040000 		.4byte	0x4ef
 3552 04c9 08       		.byte	0x8
 3553 04ca 0A       		.uleb128 0xa
 3554 04cb 66100000 		.4byte	.LASF77
 3555 04cf 09       		.byte	0x9
 3556 04d0 68       		.byte	0x68
 3557 04d1 18010000 		.4byte	0x118
 3558 04d5 0C       		.byte	0xc
 3559 04d6 0A       		.uleb128 0xa
 3560 04d7 03100000 		.4byte	.LASF78
 3561 04db 09       		.byte	0x9
 3562 04dc 69       		.byte	0x69
 3563 04dd 18010000 		.4byte	0x118
 3564 04e1 0E       		.byte	0xe
 3565 04e2 0B       		.uleb128 0xb
 3566 04e3 6F706100 		.ascii	"opa\000"
 3567 04e7 09       		.byte	0x9
 3568 04e8 6A       		.byte	0x6a
 3569 04e9 0C030000 		.4byte	0x30c
 3570 04ed 10       		.byte	0x10
 3571 04ee 00       		.byte	0
 3572 04ef 06       		.uleb128 0x6
 3573 04f0 04       		.byte	0x4
 3574 04f1 F5040000 		.4byte	0x4f5
 3575 04f5 07       		.uleb128 0x7
 3576 04f6 38020000 		.4byte	0x238
 3577 04fa 09       		.uleb128 0x9
 3578 04fb 08       		.byte	0x8
 3579 04fc 09       		.byte	0x9
 3580 04fd 6E       		.byte	0x6e
 3581 04fe 27050000 		.4byte	0x527
 3582 0502 0A       		.uleb128 0xa
 3583 0503 FD0F0000 		.4byte	.LASF61
 3584 0507 09       		.byte	0x9
 3585 0508 70       		.byte	0x70
 3586 0509 00030000 		.4byte	0x300
 3587 050d 00       		.byte	0
 3588 050e 0A       		.uleb128 0xa
 3589 050f E1000000 		.4byte	.LASF79
 3590 0513 09       		.byte	0x9
 3591 0514 71       		.byte	0x71
 3592 0515 0C030000 		.4byte	0x30c
 3593 0519 04       		.byte	0x4
 3594 051a 0B       		.uleb128 0xb
 3595 051b 6F706100 		.ascii	"opa\000"
 3596 051f 09       		.byte	0x9
 3597 0520 72       		.byte	0x72
 3598 0521 0C030000 		.4byte	0x30c
 3599 0525 05       		.byte	0x5
 3600 0526 00       		.byte	0
 3601 0527 09       		.uleb128 0x9
 3602 0528 08       		.byte	0x8
 3603 0529 09       		.byte	0x9
 3604 052a 76       		.byte	0x76
 3605 052b 63050000 		.4byte	0x563
 3606 052f 0A       		.uleb128 0xa
 3607 0530 FD0F0000 		.4byte	.LASF61
ARM GAS  C:\Users\pearlstl\AppData\Local\Temp\ccQFxYtd.s 			page 101


 3608 0534 09       		.byte	0x9
 3609 0535 78       		.byte	0x78
 3610 0536 00030000 		.4byte	0x300
 3611 053a 00       		.byte	0
 3612 053b 0A       		.uleb128 0xa
 3613 053c 490A0000 		.4byte	.LASF62
 3614 0540 09       		.byte	0x9
 3615 0541 79       		.byte	0x79
 3616 0542 18010000 		.4byte	0x118
 3617 0546 04       		.byte	0x4
 3618 0547 0B       		.uleb128 0xb
 3619 0548 6F706100 		.ascii	"opa\000"
 3620 054c 09       		.byte	0x9
 3621 054d 7A       		.byte	0x7a
 3622 054e 0C030000 		.4byte	0x30c
 3623 0552 06       		.byte	0x6
 3624 0553 0D       		.uleb128 0xd
 3625 0554 BA060000 		.4byte	.LASF81
 3626 0558 09       		.byte	0x9
 3627 0559 7B       		.byte	0x7b
 3628 055a E1000000 		.4byte	0xe1
 3629 055e 01       		.byte	0x1
 3630 055f 01       		.byte	0x1
 3631 0560 07       		.byte	0x7
 3632 0561 07       		.byte	0x7
 3633 0562 00       		.byte	0
 3634 0563 09       		.uleb128 0x9
 3635 0564 50       		.byte	0x50
 3636 0565 09       		.byte	0x9
 3637 0566 3C       		.byte	0x3c
 3638 0567 AB050000 		.4byte	0x5ab
 3639 056b 0D       		.uleb128 0xd
 3640 056c DD0A0000 		.4byte	.LASF82
 3641 0570 09       		.byte	0x9
 3642 0571 3E       		.byte	0x3e
 3643 0572 E1000000 		.4byte	0xe1
 3644 0576 01       		.byte	0x1
 3645 0577 01       		.byte	0x1
 3646 0578 07       		.byte	0x7
 3647 0579 00       		.byte	0
 3648 057a 0A       		.uleb128 0xa
 3649 057b F0050000 		.4byte	.LASF83
 3650 057f 09       		.byte	0x9
 3651 0580 60       		.byte	0x60
 3652 0581 41040000 		.4byte	0x441
 3653 0585 04       		.byte	0x4
 3654 0586 0A       		.uleb128 0xa
 3655 0587 AF060000 		.4byte	.LASF84
 3656 058b 09       		.byte	0x9
 3657 058c 6B       		.byte	0x6b
 3658 058d 9E040000 		.4byte	0x49e
 3659 0591 2C       		.byte	0x2c
 3660 0592 0A       		.uleb128 0xa
 3661 0593 B4060000 		.4byte	.LASF85
 3662 0597 09       		.byte	0x9
 3663 0598 73       		.byte	0x73
 3664 0599 FA040000 		.4byte	0x4fa
ARM GAS  C:\Users\pearlstl\AppData\Local\Temp\ccQFxYtd.s 			page 102


 3665 059d 40       		.byte	0x40
 3666 059e 0A       		.uleb128 0xa
 3667 059f F4080000 		.4byte	.LASF86
 3668 05a3 09       		.byte	0x9
 3669 05a4 7C       		.byte	0x7c
 3670 05a5 27050000 		.4byte	0x527
 3671 05a9 48       		.byte	0x48
 3672 05aa 00       		.byte	0
 3673 05ab 04       		.uleb128 0x4
 3674 05ac 58080000 		.4byte	.LASF87
 3675 05b0 09       		.byte	0x9
 3676 05b1 84       		.byte	0x84
 3677 05b2 63050000 		.4byte	0x563
 3678 05b6 10       		.uleb128 0x10
 3679 05b7 01       		.byte	0x1
 3680 05b8 5E000000 		.4byte	0x5e
 3681 05bc 0A       		.byte	0xa
 3682 05bd 27       		.byte	0x27
 3683 05be CF050000 		.4byte	0x5cf
 3684 05c2 11       		.uleb128 0x11
 3685 05c3 D2010000 		.4byte	.LASF88
 3686 05c7 00       		.byte	0
 3687 05c8 11       		.uleb128 0x11
 3688 05c9 000F0000 		.4byte	.LASF89
 3689 05cd 01       		.byte	0x1
 3690 05ce 00       		.byte	0
 3691 05cf 04       		.uleb128 0x4
 3692 05d0 9F0D0000 		.4byte	.LASF90
 3693 05d4 0A       		.byte	0xa
 3694 05d5 2C       		.byte	0x2c
 3695 05d6 E1000000 		.4byte	0xe1
 3696 05da 04       		.uleb128 0x4
 3697 05db 2B000000 		.4byte	.LASF91
 3698 05df 0B       		.byte	0xb
 3699 05e0 1E       		.byte	0x1e
 3700 05e1 E1000000 		.4byte	0xe1
 3701 05e5 09       		.uleb128 0x9
 3702 05e6 0C       		.byte	0xc
 3703 05e7 0B       		.byte	0xb
 3704 05e8 21       		.byte	0x21
 3705 05e9 12060000 		.4byte	0x612
 3706 05ed 0A       		.uleb128 0xa
 3707 05ee 1A140000 		.4byte	.LASF92
 3708 05f2 0B       		.byte	0xb
 3709 05f3 23       		.byte	0x23
 3710 05f4 0D010000 		.4byte	0x10d
 3711 05f8 00       		.byte	0
 3712 05f9 0A       		.uleb128 0xa
 3713 05fa FA030000 		.4byte	.LASF93
 3714 05fe 0B       		.byte	0xb
 3715 05ff 24       		.byte	0x24
 3716 0600 12060000 		.4byte	0x612
 3717 0604 04       		.byte	0x4
 3718 0605 0A       		.uleb128 0xa
 3719 0606 9A000000 		.4byte	.LASF94
 3720 060a 0B       		.byte	0xb
 3721 060b 25       		.byte	0x25
ARM GAS  C:\Users\pearlstl\AppData\Local\Temp\ccQFxYtd.s 			page 103


 3722 060c 12060000 		.4byte	0x612
 3723 0610 08       		.byte	0x8
 3724 0611 00       		.byte	0
 3725 0612 06       		.uleb128 0x6
 3726 0613 04       		.byte	0x4
 3727 0614 DA050000 		.4byte	0x5da
 3728 0618 04       		.uleb128 0x4
 3729 0619 BE100000 		.4byte	.LASF95
 3730 061d 0B       		.byte	0xb
 3731 061e 26       		.byte	0x26
 3732 061f E5050000 		.4byte	0x5e5
 3733 0623 04       		.uleb128 0x4
 3734 0624 E8060000 		.4byte	.LASF96
 3735 0628 0C       		.byte	0xc
 3736 0629 30       		.byte	0x30
 3737 062a E1000000 		.4byte	0xe1
 3738 062e 04       		.uleb128 0x4
 3739 062f EA130000 		.4byte	.LASF97
 3740 0633 0D       		.byte	0xd
 3741 0634 2B       		.byte	0x2b
 3742 0635 39060000 		.4byte	0x639
 3743 0639 06       		.uleb128 0x6
 3744 063a 04       		.byte	0x4
 3745 063b 3F060000 		.4byte	0x63f
 3746 063f 16       		.uleb128 0x16
 3747 0640 4A060000 		.4byte	0x64a
 3748 0644 0F       		.uleb128 0xf
 3749 0645 4A060000 		.4byte	0x64a
 3750 0649 00       		.byte	0
 3751 064a 06       		.uleb128 0x6
 3752 064b 04       		.byte	0x4
 3753 064c 50060000 		.4byte	0x650
 3754 0650 0C       		.uleb128 0xc
 3755 0651 1A060000 		.4byte	.LASF99
 3756 0655 14       		.byte	0x14
 3757 0656 0D       		.byte	0xd
 3758 0657 3E       		.byte	0x3e
 3759 0658 AB060000 		.4byte	0x6ab
 3760 065c 0A       		.uleb128 0xa
 3761 065d 8D0F0000 		.4byte	.LASF100
 3762 0661 0D       		.byte	0xd
 3763 0662 40       		.byte	0x40
 3764 0663 0D010000 		.4byte	0x10d
 3765 0667 00       		.byte	0
 3766 0668 0A       		.uleb128 0xa
 3767 0669 0A0F0000 		.4byte	.LASF101
 3768 066d 0D       		.byte	0xd
 3769 066e 41       		.byte	0x41
 3770 066f 0D010000 		.4byte	0x10d
 3771 0673 04       		.byte	0x4
 3772 0674 0A       		.uleb128 0xa
 3773 0675 63050000 		.4byte	.LASF102
 3774 0679 0D       		.byte	0xd
 3775 067a 42       		.byte	0x42
 3776 067b 2E060000 		.4byte	0x62e
 3777 067f 08       		.byte	0x8
 3778 0680 0A       		.uleb128 0xa
ARM GAS  C:\Users\pearlstl\AppData\Local\Temp\ccQFxYtd.s 			page 104


 3779 0681 45130000 		.4byte	.LASF103
 3780 0685 0D       		.byte	0xd
 3781 0686 44       		.byte	0x44
 3782 0687 BB000000 		.4byte	0xbb
 3783 068b 0C       		.byte	0xc
 3784 068c 0D       		.uleb128 0xd
 3785 068d F2020000 		.4byte	.LASF104
 3786 0691 0D       		.byte	0xd
 3787 0692 46       		.byte	0x46
 3788 0693 E1000000 		.4byte	0xe1
 3789 0697 01       		.byte	0x1
 3790 0698 03       		.byte	0x3
 3791 0699 05       		.byte	0x5
 3792 069a 10       		.byte	0x10
 3793 069b 0D       		.uleb128 0xd
 3794 069c 000C0000 		.4byte	.LASF105
 3795 06a0 0D       		.byte	0xd
 3796 06a1 47       		.byte	0x47
 3797 06a2 E1000000 		.4byte	0xe1
 3798 06a6 01       		.byte	0x1
 3799 06a7 01       		.byte	0x1
 3800 06a8 04       		.byte	0x4
 3801 06a9 10       		.byte	0x10
 3802 06aa 00       		.byte	0
 3803 06ab 04       		.uleb128 0x4
 3804 06ac 400F0000 		.4byte	.LASF106
 3805 06b0 0D       		.byte	0xd
 3806 06b1 48       		.byte	0x48
 3807 06b2 50060000 		.4byte	0x650
 3808 06b6 09       		.uleb128 0x9
 3809 06b7 1C       		.byte	0x1c
 3810 06b8 0E       		.byte	0xe
 3811 06b9 2F       		.byte	0x2f
 3812 06ba 0A070000 		.4byte	0x70a
 3813 06be 0A       		.uleb128 0xa
 3814 06bf 790A0000 		.4byte	.LASF107
 3815 06c3 0E       		.byte	0xe
 3816 06c4 31       		.byte	0x31
 3817 06c5 BB000000 		.4byte	0xbb
 3818 06c9 00       		.byte	0
 3819 06ca 0A       		.uleb128 0xa
 3820 06cb 7E0A0000 		.4byte	.LASF108
 3821 06cf 0E       		.byte	0xe
 3822 06d0 32       		.byte	0x32
 3823 06d1 BB000000 		.4byte	0xbb
 3824 06d5 04       		.byte	0x4
 3825 06d6 0A       		.uleb128 0xa
 3826 06d7 A80D0000 		.4byte	.LASF109
 3827 06db 0E       		.byte	0xe
 3828 06dc 35       		.byte	0x35
 3829 06dd BB000000 		.4byte	0xbb
 3830 06e1 08       		.byte	0x8
 3831 06e2 0A       		.uleb128 0xa
 3832 06e3 DB0E0000 		.4byte	.LASF110
 3833 06e7 0E       		.byte	0xe
 3834 06e8 36       		.byte	0x36
 3835 06e9 0D010000 		.4byte	0x10d
ARM GAS  C:\Users\pearlstl\AppData\Local\Temp\ccQFxYtd.s 			page 105


 3836 06ed 0C       		.byte	0xc
 3837 06ee 0A       		.uleb128 0xa
 3838 06ef FB070000 		.4byte	.LASF111
 3839 06f3 0E       		.byte	0xe
 3840 06f4 37       		.byte	0x37
 3841 06f5 75030000 		.4byte	0x375
 3842 06f9 10       		.byte	0x10
 3843 06fa 0D       		.uleb128 0xd
 3844 06fb 82060000 		.4byte	.LASF112
 3845 06ff 0E       		.byte	0xe
 3846 0700 38       		.byte	0x38
 3847 0701 0A070000 		.4byte	0x70a
 3848 0705 04       		.byte	0x4
 3849 0706 01       		.byte	0x1
 3850 0707 1F       		.byte	0x1f
 3851 0708 18       		.byte	0x18
 3852 0709 00       		.byte	0
 3853 070a 17       		.uleb128 0x17
 3854 070b 0D010000 		.4byte	0x10d
 3855 070f 04       		.uleb128 0x4
 3856 0710 EF090000 		.4byte	.LASF113
 3857 0714 0E       		.byte	0xe
 3858 0715 39       		.byte	0x39
 3859 0716 B6060000 		.4byte	0x6b6
 3860 071a 0C       		.uleb128 0xc
 3861 071b 82090000 		.4byte	.LASF114
 3862 071f 20       		.byte	0x20
 3863 0720 0E       		.byte	0xe
 3864 0721 3E       		.byte	0x3e
 3865 0722 96070000 		.4byte	0x796
 3866 0726 0A       		.uleb128 0xa
 3867 0727 7B040000 		.4byte	.LASF115
 3868 072b 0E       		.byte	0xe
 3869 072c 41       		.byte	0x41
 3870 072d 18010000 		.4byte	0x118
 3871 0731 00       		.byte	0
 3872 0732 0A       		.uleb128 0xa
 3873 0733 15030000 		.4byte	.LASF116
 3874 0737 0E       		.byte	0xe
 3875 0738 42       		.byte	0x42
 3876 0739 18010000 		.4byte	0x118
 3877 073d 02       		.byte	0x2
 3878 073e 0A       		.uleb128 0xa
 3879 073f 0D070000 		.4byte	.LASF117
 3880 0743 0E       		.byte	0xe
 3881 0744 46       		.byte	0x46
 3882 0745 96070000 		.4byte	0x796
 3883 0749 04       		.byte	0x4
 3884 074a 0D       		.uleb128 0xd
 3885 074b 83030000 		.4byte	.LASF118
 3886 074f 0E       		.byte	0xe
 3887 0750 4B       		.byte	0x4b
 3888 0751 0D010000 		.4byte	0x10d
 3889 0755 04       		.byte	0x4
 3890 0756 01       		.byte	0x1
 3891 0757 1F       		.byte	0x1f
 3892 0758 08       		.byte	0x8
ARM GAS  C:\Users\pearlstl\AppData\Local\Temp\ccQFxYtd.s 			page 106


 3893 0759 0A       		.uleb128 0xa
 3894 075a 3C130000 		.4byte	.LASF119
 3895 075e 0E       		.byte	0xe
 3896 075f 55       		.byte	0x55
 3897 0760 C8070000 		.4byte	0x7c8
 3898 0764 0C       		.byte	0xc
 3899 0765 0A       		.uleb128 0xa
 3900 0766 A70F0000 		.4byte	.LASF120
 3901 076a 0E       		.byte	0xe
 3902 076b 59       		.byte	0x59
 3903 076c E4070000 		.4byte	0x7e4
 3904 0770 10       		.byte	0x10
 3905 0771 0A       		.uleb128 0xa
 3906 0772 5D040000 		.4byte	.LASF121
 3907 0776 0E       		.byte	0xe
 3908 0777 5E       		.byte	0x5e
 3909 0778 19080000 		.4byte	0x819
 3910 077c 14       		.byte	0x14
 3911 077d 0A       		.uleb128 0xa
 3912 077e 00130000 		.4byte	.LASF122
 3913 0782 0E       		.byte	0xe
 3914 0783 63       		.byte	0x63
 3915 0784 34080000 		.4byte	0x834
 3916 0788 18       		.byte	0x18
 3917 0789 0A       		.uleb128 0xa
 3918 078a 1A000000 		.4byte	.LASF123
 3919 078e 0E       		.byte	0xe
 3920 078f 71       		.byte	0x71
 3921 0790 00030000 		.4byte	0x300
 3922 0794 1C       		.byte	0x1c
 3923 0795 00       		.byte	0
 3924 0796 06       		.uleb128 0x6
 3925 0797 04       		.byte	0x4
 3926 0798 0F070000 		.4byte	0x70f
 3927 079c 16       		.uleb128 0x16
 3928 079d B1070000 		.4byte	0x7b1
 3929 07a1 0F       		.uleb128 0xf
 3930 07a2 B1070000 		.4byte	0x7b1
 3931 07a6 0F       		.uleb128 0xf
 3932 07a7 B7070000 		.4byte	0x7b7
 3933 07ab 0F       		.uleb128 0xf
 3934 07ac C2070000 		.4byte	0x7c2
 3935 07b0 00       		.byte	0
 3936 07b1 06       		.uleb128 0x6
 3937 07b2 04       		.byte	0x4
 3938 07b3 1A070000 		.4byte	0x71a
 3939 07b7 06       		.uleb128 0x6
 3940 07b8 04       		.byte	0x4
 3941 07b9 BD070000 		.4byte	0x7bd
 3942 07bd 07       		.uleb128 0x7
 3943 07be 75030000 		.4byte	0x375
 3944 07c2 06       		.uleb128 0x6
 3945 07c3 04       		.byte	0x4
 3946 07c4 00030000 		.4byte	0x300
 3947 07c8 06       		.uleb128 0x6
 3948 07c9 04       		.byte	0x4
 3949 07ca 9C070000 		.4byte	0x79c
ARM GAS  C:\Users\pearlstl\AppData\Local\Temp\ccQFxYtd.s 			page 107


 3950 07ce 16       		.uleb128 0x16
 3951 07cf DE070000 		.4byte	0x7de
 3952 07d3 0F       		.uleb128 0xf
 3953 07d4 B1070000 		.4byte	0x7b1
 3954 07d8 0F       		.uleb128 0xf
 3955 07d9 DE070000 		.4byte	0x7de
 3956 07dd 00       		.byte	0
 3957 07de 06       		.uleb128 0x6
 3958 07df 04       		.byte	0x4
 3959 07e0 75030000 		.4byte	0x375
 3960 07e4 06       		.uleb128 0x6
 3961 07e5 04       		.byte	0x4
 3962 07e6 CE070000 		.4byte	0x7ce
 3963 07ea 16       		.uleb128 0x16
 3964 07eb 13080000 		.4byte	0x813
 3965 07ef 0F       		.uleb128 0xf
 3966 07f0 B1070000 		.4byte	0x7b1
 3967 07f4 0F       		.uleb128 0xf
 3968 07f5 13080000 		.4byte	0x813
 3969 07f9 0F       		.uleb128 0xf
 3970 07fa 18010000 		.4byte	0x118
 3971 07fe 0F       		.uleb128 0xf
 3972 07ff 18010000 		.4byte	0x118
 3973 0803 0F       		.uleb128 0xf
 3974 0804 18010000 		.4byte	0x118
 3975 0808 0F       		.uleb128 0xf
 3976 0809 00030000 		.4byte	0x300
 3977 080d 0F       		.uleb128 0xf
 3978 080e 0C030000 		.4byte	0x30c
 3979 0812 00       		.byte	0
 3980 0813 06       		.uleb128 0x6
 3981 0814 04       		.byte	0x4
 3982 0815 E1000000 		.4byte	0xe1
 3983 0819 06       		.uleb128 0x6
 3984 081a 04       		.byte	0x4
 3985 081b EA070000 		.4byte	0x7ea
 3986 081f 16       		.uleb128 0x16
 3987 0820 34080000 		.4byte	0x834
 3988 0824 0F       		.uleb128 0xf
 3989 0825 B1070000 		.4byte	0x7b1
 3990 0829 0F       		.uleb128 0xf
 3991 082a 0D010000 		.4byte	0x10d
 3992 082e 0F       		.uleb128 0xf
 3993 082f 0D010000 		.4byte	0x10d
 3994 0833 00       		.byte	0
 3995 0834 06       		.uleb128 0x6
 3996 0835 04       		.byte	0x4
 3997 0836 1F080000 		.4byte	0x81f
 3998 083a 04       		.uleb128 0x4
 3999 083b 22120000 		.4byte	.LASF124
 4000 083f 0E       		.byte	0xe
 4001 0840 77       		.byte	0x77
 4002 0841 1A070000 		.4byte	0x71a
 4003 0845 18       		.uleb128 0x18
 4004 0846 8F0C0000 		.4byte	.LASF125
 4005 084a 6401     		.2byte	0x164
 4006 084c 0E       		.byte	0xe
ARM GAS  C:\Users\pearlstl\AppData\Local\Temp\ccQFxYtd.s 			page 108


 4007 084d 7F       		.byte	0x7f
 4008 084e D1080000 		.4byte	0x8d1
 4009 0852 0A       		.uleb128 0xa
 4010 0853 3A100000 		.4byte	.LASF126
 4011 0857 0E       		.byte	0xe
 4012 0858 82       		.byte	0x82
 4013 0859 3A080000 		.4byte	0x83a
 4014 085d 00       		.byte	0
 4015 085e 0A       		.uleb128 0xa
 4016 085f 72030000 		.4byte	.LASF127
 4017 0863 0E       		.byte	0xe
 4018 0864 85       		.byte	0x85
 4019 0865 D1080000 		.4byte	0x8d1
 4020 0869 20       		.byte	0x20
 4021 086a 0A       		.uleb128 0xa
 4022 086b F7020000 		.4byte	.LASF128
 4023 086f 0E       		.byte	0xe
 4024 0870 88       		.byte	0x88
 4025 0871 18060000 		.4byte	0x618
 4026 0875 24       		.byte	0x24
 4027 0876 0A       		.uleb128 0xa
 4028 0877 B3000000 		.4byte	.LASF129
 4029 087b 0E       		.byte	0xe
 4030 087c 89       		.byte	0x89
 4031 087d 190A0000 		.4byte	0xa19
 4032 0881 30       		.byte	0x30
 4033 0882 0A       		.uleb128 0xa
 4034 0883 EF040000 		.4byte	.LASF130
 4035 0887 0E       		.byte	0xe
 4036 0888 8A       		.byte	0x8a
 4037 0889 190A0000 		.4byte	0xa19
 4038 088d 34       		.byte	0x34
 4039 088e 0A       		.uleb128 0xa
 4040 088f C1110000 		.4byte	.LASF131
 4041 0893 0E       		.byte	0xe
 4042 0894 8B       		.byte	0x8b
 4043 0895 190A0000 		.4byte	0xa19
 4044 0899 38       		.byte	0x38
 4045 089a 0A       		.uleb128 0xa
 4046 089b D20B0000 		.4byte	.LASF132
 4047 089f 0E       		.byte	0xe
 4048 08a0 8E       		.byte	0x8e
 4049 08a1 1F0A0000 		.4byte	0xa1f
 4050 08a5 3C       		.byte	0x3c
 4051 08a6 19       		.uleb128 0x19
 4052 08a7 BD050000 		.4byte	.LASF133
 4053 08ab 0E       		.byte	0xe
 4054 08ac 8F       		.byte	0x8f
 4055 08ad 2F0A0000 		.4byte	0xa2f
 4056 08b1 3C01     		.2byte	0x13c
 4057 08b3 1A       		.uleb128 0x1a
 4058 08b4 B8100000 		.4byte	.LASF134
 4059 08b8 0E       		.byte	0xe
 4060 08b9 90       		.byte	0x90
 4061 08ba 0D010000 		.4byte	0x10d
 4062 08be 04       		.byte	0x4
 4063 08bf 0A       		.byte	0xa
ARM GAS  C:\Users\pearlstl\AppData\Local\Temp\ccQFxYtd.s 			page 109


 4064 08c0 16       		.byte	0x16
 4065 08c1 5C01     		.2byte	0x15c
 4066 08c3 19       		.uleb128 0x19
 4067 08c4 56030000 		.4byte	.LASF135
 4068 08c8 0E       		.byte	0xe
 4069 08c9 93       		.byte	0x93
 4070 08ca 0D010000 		.4byte	0x10d
 4071 08ce 6001     		.2byte	0x160
 4072 08d0 00       		.byte	0
 4073 08d1 06       		.uleb128 0x6
 4074 08d2 04       		.byte	0x4
 4075 08d3 AB060000 		.4byte	0x6ab
 4076 08d7 0C       		.uleb128 0xc
 4077 08d8 57100000 		.4byte	.LASF136
 4078 08dc 40       		.byte	0x40
 4079 08dd 0F       		.byte	0xf
 4080 08de BB       		.byte	0xbb
 4081 08df 190A0000 		.4byte	0xa19
 4082 08e3 0B       		.uleb128 0xb
 4083 08e4 70617200 		.ascii	"par\000"
 4084 08e8 0F       		.byte	0xf
 4085 08e9 BD       		.byte	0xbd
 4086 08ea 190A0000 		.4byte	0xa19
 4087 08ee 00       		.byte	0
 4088 08ef 0A       		.uleb128 0xa
 4089 08f0 680A0000 		.4byte	.LASF137
 4090 08f4 0F       		.byte	0xf
 4091 08f5 BE       		.byte	0xbe
 4092 08f6 18060000 		.4byte	0x618
 4093 08fa 04       		.byte	0x4
 4094 08fb 0A       		.uleb128 0xa
 4095 08fc BA110000 		.4byte	.LASF138
 4096 0900 0F       		.byte	0xf
 4097 0901 C0       		.byte	0xc0
 4098 0902 75030000 		.4byte	0x375
 4099 0906 10       		.byte	0x10
 4100 0907 0A       		.uleb128 0xa
 4101 0908 080A0000 		.4byte	.LASF139
 4102 090c 0F       		.byte	0xf
 4103 090d C2       		.byte	0xc2
 4104 090e 950A0000 		.4byte	0xa95
 4105 0912 18       		.byte	0x18
 4106 0913 0A       		.uleb128 0xa
 4107 0914 5D120000 		.4byte	.LASF140
 4108 0918 0F       		.byte	0xf
 4109 0919 C3       		.byte	0xc3
 4110 091a 460B0000 		.4byte	0xb46
 4111 091e 1C       		.byte	0x1c
 4112 091f 0A       		.uleb128 0xa
 4113 0920 4E060000 		.4byte	.LASF141
 4114 0924 0F       		.byte	0xf
 4115 0925 C4       		.byte	0xc4
 4116 0926 600A0000 		.4byte	0xa60
 4117 092a 20       		.byte	0x20
 4118 092b 0A       		.uleb128 0xa
 4119 092c DB0D0000 		.4byte	.LASF142
 4120 0930 0F       		.byte	0xf
ARM GAS  C:\Users\pearlstl\AppData\Local\Temp\ccQFxYtd.s 			page 110


 4121 0931 C6       		.byte	0xc6
 4122 0932 BB000000 		.4byte	0xbb
 4123 0936 24       		.byte	0x24
 4124 0937 0A       		.uleb128 0xa
 4125 0938 330A0000 		.4byte	.LASF143
 4126 093c 0F       		.byte	0xf
 4127 093d C7       		.byte	0xc7
 4128 093e F30B0000 		.4byte	0xbf3
 4129 0942 28       		.byte	0x28
 4130 0943 0D       		.uleb128 0xd
 4131 0944 53010000 		.4byte	.LASF144
 4132 0948 0F       		.byte	0xf
 4133 0949 D7       		.byte	0xd7
 4134 094a E1000000 		.4byte	0xe1
 4135 094e 01       		.byte	0x1
 4136 094f 01       		.byte	0x1
 4137 0950 07       		.byte	0x7
 4138 0951 2C       		.byte	0x2c
 4139 0952 0D       		.uleb128 0xd
 4140 0953 52100000 		.4byte	.LASF145
 4141 0957 0F       		.byte	0xf
 4142 0958 D8       		.byte	0xd8
 4143 0959 E1000000 		.4byte	0xe1
 4144 095d 01       		.byte	0x1
 4145 095e 01       		.byte	0x1
 4146 095f 06       		.byte	0x6
 4147 0960 2C       		.byte	0x2c
 4148 0961 0D       		.uleb128 0xd
 4149 0962 DD060000 		.4byte	.LASF146
 4150 0966 0F       		.byte	0xf
 4151 0967 D9       		.byte	0xd9
 4152 0968 E1000000 		.4byte	0xe1
 4153 096c 01       		.byte	0x1
 4154 096d 01       		.byte	0x1
 4155 096e 05       		.byte	0x5
 4156 096f 2C       		.byte	0x2c
 4157 0970 0D       		.uleb128 0xd
 4158 0971 F0110000 		.4byte	.LASF147
 4159 0975 0F       		.byte	0xf
 4160 0976 DA       		.byte	0xda
 4161 0977 E1000000 		.4byte	0xe1
 4162 097b 01       		.byte	0x1
 4163 097c 01       		.byte	0x1
 4164 097d 04       		.byte	0x4
 4165 097e 2C       		.byte	0x2c
 4166 097f 0D       		.uleb128 0xd
 4167 0980 4F030000 		.4byte	.LASF148
 4168 0984 0F       		.byte	0xf
 4169 0985 DB       		.byte	0xdb
 4170 0986 E1000000 		.4byte	0xe1
 4171 098a 01       		.byte	0x1
 4172 098b 01       		.byte	0x1
 4173 098c 03       		.byte	0x3
 4174 098d 2C       		.byte	0x2c
 4175 098e 1B       		.uleb128 0x1b
 4176 098f 746F7000 		.ascii	"top\000"
 4177 0993 0F       		.byte	0xf
ARM GAS  C:\Users\pearlstl\AppData\Local\Temp\ccQFxYtd.s 			page 111


 4178 0994 DC       		.byte	0xdc
 4179 0995 E1000000 		.4byte	0xe1
 4180 0999 01       		.byte	0x1
 4181 099a 01       		.byte	0x1
 4182 099b 02       		.byte	0x2
 4183 099c 2C       		.byte	0x2c
 4184 099d 0D       		.uleb128 0xd
 4185 099e D2110000 		.4byte	.LASF149
 4186 09a2 0F       		.byte	0xf
 4187 09a3 DD       		.byte	0xdd
 4188 09a4 E1000000 		.4byte	0xe1
 4189 09a8 01       		.byte	0x1
 4190 09a9 01       		.byte	0x1
 4191 09aa 01       		.byte	0x1
 4192 09ab 2C       		.byte	0x2c
 4193 09ac 0D       		.uleb128 0xd
 4194 09ad 950A0000 		.4byte	.LASF150
 4195 09b1 0F       		.byte	0xf
 4196 09b2 DE       		.byte	0xde
 4197 09b3 E1000000 		.4byte	0xe1
 4198 09b7 01       		.byte	0x1
 4199 09b8 01       		.byte	0x1
 4200 09b9 00       		.byte	0
 4201 09ba 2C       		.byte	0x2c
 4202 09bb 0D       		.uleb128 0xd
 4203 09bc 3B050000 		.4byte	.LASF151
 4204 09c0 0F       		.byte	0xf
 4205 09c1 DF       		.byte	0xdf
 4206 09c2 E80B0000 		.4byte	0xbe8
 4207 09c6 01       		.byte	0x1
 4208 09c7 02       		.byte	0x2
 4209 09c8 06       		.byte	0x6
 4210 09c9 2D       		.byte	0x2d
 4211 09ca 0D       		.uleb128 0xd
 4212 09cb 7D100000 		.4byte	.LASF152
 4213 09cf 0F       		.byte	0xf
 4214 09d0 E0       		.byte	0xe0
 4215 09d1 23060000 		.4byte	0x623
 4216 09d5 01       		.byte	0x1
 4217 09d6 02       		.byte	0x2
 4218 09d7 04       		.byte	0x4
 4219 09d8 2D       		.byte	0x2d
 4220 09d9 0D       		.uleb128 0xd
 4221 09da DB120000 		.4byte	.LASF153
 4222 09de 0F       		.byte	0xf
 4223 09df E1       		.byte	0xe1
 4224 09e0 E1000000 		.4byte	0xe1
 4225 09e4 01       		.byte	0x1
 4226 09e5 03       		.byte	0x3
 4227 09e6 01       		.byte	0x1
 4228 09e7 2D       		.byte	0x2d
 4229 09e8 0A       		.uleb128 0xa
 4230 09e9 710A0000 		.4byte	.LASF154
 4231 09ed 0F       		.byte	0xf
 4232 09ee E2       		.byte	0xe2
 4233 09ef E1000000 		.4byte	0xe1
 4234 09f3 2E       		.byte	0x2e
ARM GAS  C:\Users\pearlstl\AppData\Local\Temp\ccQFxYtd.s 			page 112


 4235 09f4 0A       		.uleb128 0xa
 4236 09f5 44140000 		.4byte	.LASF155
 4237 09f9 0F       		.byte	0xf
 4238 09fa E4       		.byte	0xe4
 4239 09fb 0C030000 		.4byte	0x30c
 4240 09ff 2F       		.byte	0x2f
 4241 0a00 0A       		.uleb128 0xa
 4242 0a01 F6060000 		.4byte	.LASF156
 4243 0a05 0F       		.byte	0xf
 4244 0a06 E6       		.byte	0xe6
 4245 0a07 18010000 		.4byte	0x118
 4246 0a0b 30       		.byte	0x30
 4247 0a0c 0A       		.uleb128 0xa
 4248 0a0d A8070000 		.4byte	.LASF157
 4249 0a11 0F       		.byte	0xf
 4250 0a12 E9       		.byte	0xe9
 4251 0a13 DD0B0000 		.4byte	0xbdd
 4252 0a17 34       		.byte	0x34
 4253 0a18 00       		.byte	0
 4254 0a19 06       		.uleb128 0x6
 4255 0a1a 04       		.byte	0x4
 4256 0a1b D7080000 		.4byte	0x8d7
 4257 0a1f 1C       		.uleb128 0x1c
 4258 0a20 75030000 		.4byte	0x375
 4259 0a24 2F0A0000 		.4byte	0xa2f
 4260 0a28 1D       		.uleb128 0x1d
 4261 0a29 B4000000 		.4byte	0xb4
 4262 0a2d 1F       		.byte	0x1f
 4263 0a2e 00       		.byte	0
 4264 0a2f 1C       		.uleb128 0x1c
 4265 0a30 E1000000 		.4byte	0xe1
 4266 0a34 3F0A0000 		.4byte	0xa3f
 4267 0a38 1D       		.uleb128 0x1d
 4268 0a39 B4000000 		.4byte	0xb4
 4269 0a3d 1F       		.byte	0x1f
 4270 0a3e 00       		.byte	0
 4271 0a3f 04       		.uleb128 0x4
 4272 0a40 53000000 		.4byte	.LASF158
 4273 0a44 0E       		.byte	0xe
 4274 0a45 94       		.byte	0x94
 4275 0a46 45080000 		.4byte	0x845
 4276 0a4a 06       		.uleb128 0x6
 4277 0a4b 04       		.byte	0x4
 4278 0a4c 500A0000 		.4byte	0xa50
 4279 0a50 07       		.uleb128 0x7
 4280 0a51 35030000 		.4byte	0x335
 4281 0a55 04       		.uleb128 0x4
 4282 0a56 F40D0000 		.4byte	.LASF159
 4283 0a5a 0F       		.byte	0xf
 4284 0a5b 42       		.byte	0x42
 4285 0a5c E1000000 		.4byte	0xe1
 4286 0a60 04       		.uleb128 0x4
 4287 0a61 2B140000 		.4byte	.LASF160
 4288 0a65 0F       		.byte	0xf
 4289 0a66 48       		.byte	0x48
 4290 0a67 6B0A0000 		.4byte	0xa6b
 4291 0a6b 06       		.uleb128 0x6
ARM GAS  C:\Users\pearlstl\AppData\Local\Temp\ccQFxYtd.s 			page 113


 4292 0a6c 04       		.byte	0x4
 4293 0a6d 710A0000 		.4byte	0xa71
 4294 0a71 0E       		.uleb128 0xe
 4295 0a72 F5010000 		.4byte	0x1f5
 4296 0a76 8A0A0000 		.4byte	0xa8a
 4297 0a7a 0F       		.uleb128 0xf
 4298 0a7b 190A0000 		.4byte	0xa19
 4299 0a7f 0F       		.uleb128 0xf
 4300 0a80 B7070000 		.4byte	0x7b7
 4301 0a84 0F       		.uleb128 0xf
 4302 0a85 550A0000 		.4byte	0xa55
 4303 0a89 00       		.byte	0
 4304 0a8a 04       		.uleb128 0x4
 4305 0a8b 9D010000 		.4byte	.LASF161
 4306 0a8f 0F       		.byte	0xf
 4307 0a90 61       		.byte	0x61
 4308 0a91 E1000000 		.4byte	0xe1
 4309 0a95 04       		.uleb128 0x4
 4310 0a96 74060000 		.4byte	.LASF162
 4311 0a9a 0F       		.byte	0xf
 4312 0a9b 68       		.byte	0x68
 4313 0a9c A00A0000 		.4byte	0xaa0
 4314 0aa0 06       		.uleb128 0x6
 4315 0aa1 04       		.byte	0x4
 4316 0aa2 A60A0000 		.4byte	0xaa6
 4317 0aa6 16       		.uleb128 0x16
 4318 0aa7 B60A0000 		.4byte	0xab6
 4319 0aab 0F       		.uleb128 0xf
 4320 0aac 190A0000 		.4byte	0xa19
 4321 0ab0 0F       		.uleb128 0xf
 4322 0ab1 8A0A0000 		.4byte	0xa8a
 4323 0ab5 00       		.byte	0
 4324 0ab6 10       		.uleb128 0x10
 4325 0ab7 01       		.byte	0x1
 4326 0ab8 5E000000 		.4byte	0x5e
 4327 0abc 0F       		.byte	0xf
 4328 0abd 6D       		.byte	0x6d
 4329 0abe 3B0B0000 		.4byte	0xb3b
 4330 0ac2 11       		.uleb128 0x11
 4331 0ac3 A20A0000 		.4byte	.LASF163
 4332 0ac7 00       		.byte	0
 4333 0ac8 11       		.uleb128 0x11
 4334 0ac9 250B0000 		.4byte	.LASF164
 4335 0acd 01       		.byte	0x1
 4336 0ace 11       		.uleb128 0x11
 4337 0acf A7110000 		.4byte	.LASF165
 4338 0ad3 02       		.byte	0x2
 4339 0ad4 11       		.uleb128 0x11
 4340 0ad5 810E0000 		.4byte	.LASF166
 4341 0ad9 03       		.byte	0x3
 4342 0ada 11       		.uleb128 0x11
 4343 0adb 9F000000 		.4byte	.LASF167
 4344 0adf 04       		.byte	0x4
 4345 0ae0 11       		.uleb128 0x11
 4346 0ae1 FC110000 		.4byte	.LASF168
 4347 0ae5 05       		.byte	0x5
 4348 0ae6 11       		.uleb128 0x11
ARM GAS  C:\Users\pearlstl\AppData\Local\Temp\ccQFxYtd.s 			page 114


 4349 0ae7 1F050000 		.4byte	.LASF169
 4350 0aeb 06       		.byte	0x6
 4351 0aec 11       		.uleb128 0x11
 4352 0aed E8070000 		.4byte	.LASF170
 4353 0af1 07       		.byte	0x7
 4354 0af2 11       		.uleb128 0x11
 4355 0af3 EA010000 		.4byte	.LASF171
 4356 0af7 08       		.byte	0x8
 4357 0af8 11       		.uleb128 0x11
 4358 0af9 B90C0000 		.4byte	.LASF172
 4359 0afd 09       		.byte	0x9
 4360 0afe 11       		.uleb128 0x11
 4361 0aff 180E0000 		.4byte	.LASF173
 4362 0b03 0A       		.byte	0xa
 4363 0b04 11       		.uleb128 0x11
 4364 0b05 A80E0000 		.4byte	.LASF174
 4365 0b09 0B       		.byte	0xb
 4366 0b0a 11       		.uleb128 0x11
 4367 0b0b 0E010000 		.4byte	.LASF175
 4368 0b0f 0C       		.byte	0xc
 4369 0b10 11       		.uleb128 0x11
 4370 0b11 C8040000 		.4byte	.LASF176
 4371 0b15 0D       		.byte	0xd
 4372 0b16 11       		.uleb128 0x11
 4373 0b17 64010000 		.4byte	.LASF177
 4374 0b1b 0E       		.byte	0xe
 4375 0b1c 11       		.uleb128 0x11
 4376 0b1d 450E0000 		.4byte	.LASF178
 4377 0b21 0F       		.byte	0xf
 4378 0b22 11       		.uleb128 0x11
 4379 0b23 1E090000 		.4byte	.LASF179
 4380 0b27 10       		.byte	0x10
 4381 0b28 11       		.uleb128 0x11
 4382 0b29 8B060000 		.4byte	.LASF180
 4383 0b2d 11       		.byte	0x11
 4384 0b2e 11       		.uleb128 0x11
 4385 0b2f 4F0A0000 		.4byte	.LASF181
 4386 0b33 12       		.byte	0x12
 4387 0b34 11       		.uleb128 0x11
 4388 0b35 C4090000 		.4byte	.LASF182
 4389 0b39 13       		.byte	0x13
 4390 0b3a 00       		.byte	0
 4391 0b3b 04       		.uleb128 0x4
 4392 0b3c CF0E0000 		.4byte	.LASF183
 4393 0b40 0F       		.byte	0xf
 4394 0b41 88       		.byte	0x88
 4395 0b42 E1000000 		.4byte	0xe1
 4396 0b46 04       		.uleb128 0x4
 4397 0b47 AE050000 		.4byte	.LASF184
 4398 0b4b 0F       		.byte	0xf
 4399 0b4c 8A       		.byte	0x8a
 4400 0b4d 510B0000 		.4byte	0xb51
 4401 0b51 06       		.uleb128 0x6
 4402 0b52 04       		.byte	0x4
 4403 0b53 570B0000 		.4byte	0xb57
 4404 0b57 0E       		.uleb128 0xe
 4405 0b58 CF050000 		.4byte	0x5cf
ARM GAS  C:\Users\pearlstl\AppData\Local\Temp\ccQFxYtd.s 			page 115


 4406 0b5c 700B0000 		.4byte	0xb70
 4407 0b60 0F       		.uleb128 0xf
 4408 0b61 190A0000 		.4byte	0xa19
 4409 0b65 0F       		.uleb128 0xf
 4410 0b66 3B0B0000 		.4byte	0xb3b
 4411 0b6a 0F       		.uleb128 0xf
 4412 0b6b BB000000 		.4byte	0xbb
 4413 0b6f 00       		.byte	0
 4414 0b70 04       		.uleb128 0x4
 4415 0b71 59010000 		.4byte	.LASF185
 4416 0b75 0F       		.byte	0xf
 4417 0b76 A4       		.byte	0xa4
 4418 0b77 E1000000 		.4byte	0xe1
 4419 0b7b 09       		.uleb128 0x9
 4420 0b7c 0C       		.byte	0xc
 4421 0b7d 0F       		.byte	0xf
 4422 0b7e A7       		.byte	0xa7
 4423 0b7f D20B0000 		.4byte	0xbd2
 4424 0b83 0A       		.uleb128 0xa
 4425 0b84 99100000 		.4byte	.LASF186
 4426 0b88 0F       		.byte	0xf
 4427 0b89 A9       		.byte	0xa9
 4428 0b8a D20B0000 		.4byte	0xbd2
 4429 0b8e 00       		.byte	0
 4430 0b8f 0A       		.uleb128 0xa
 4431 0b90 0E100000 		.4byte	.LASF187
 4432 0b94 0F       		.byte	0xf
 4433 0b95 AA       		.byte	0xaa
 4434 0b96 18010000 		.4byte	0x118
 4435 0b9a 04       		.byte	0x4
 4436 0b9b 0A       		.uleb128 0xa
 4437 0b9c F5050000 		.4byte	.LASF188
 4438 0ba0 0F       		.byte	0xf
 4439 0ba1 AB       		.byte	0xab
 4440 0ba2 18010000 		.4byte	0x118
 4441 0ba6 06       		.byte	0x6
 4442 0ba7 0A       		.uleb128 0xa
 4443 0ba8 B40A0000 		.4byte	.LASF189
 4444 0bac 0F       		.byte	0xf
 4445 0bad AC       		.byte	0xac
 4446 0bae 700B0000 		.4byte	0xb70
 4447 0bb2 08       		.byte	0x8
 4448 0bb3 0D       		.uleb128 0xd
 4449 0bb4 F30B0000 		.4byte	.LASF190
 4450 0bb8 0F       		.byte	0xf
 4451 0bb9 AD       		.byte	0xad
 4452 0bba E1000000 		.4byte	0xe1
 4453 0bbe 01       		.byte	0x1
 4454 0bbf 01       		.byte	0x1
 4455 0bc0 07       		.byte	0x7
 4456 0bc1 09       		.byte	0x9
 4457 0bc2 0D       		.uleb128 0xd
 4458 0bc3 D4130000 		.4byte	.LASF191
 4459 0bc7 0F       		.byte	0xf
 4460 0bc8 AE       		.byte	0xae
 4461 0bc9 E1000000 		.4byte	0xe1
 4462 0bcd 01       		.byte	0x1
ARM GAS  C:\Users\pearlstl\AppData\Local\Temp\ccQFxYtd.s 			page 116


 4463 0bce 01       		.byte	0x1
 4464 0bcf 06       		.byte	0x6
 4465 0bd0 09       		.byte	0x9
 4466 0bd1 00       		.byte	0
 4467 0bd2 06       		.uleb128 0x6
 4468 0bd3 04       		.byte	0x4
 4469 0bd4 D80B0000 		.4byte	0xbd8
 4470 0bd8 07       		.uleb128 0x7
 4471 0bd9 D7080000 		.4byte	0x8d7
 4472 0bdd 04       		.uleb128 0x4
 4473 0bde 2A010000 		.4byte	.LASF192
 4474 0be2 0F       		.byte	0xf
 4475 0be3 B0       		.byte	0xb0
 4476 0be4 7B0B0000 		.4byte	0xb7b
 4477 0be8 04       		.uleb128 0x4
 4478 0be9 C70D0000 		.4byte	.LASF193
 4479 0bed 0F       		.byte	0xf
 4480 0bee B9       		.byte	0xb9
 4481 0bef E1000000 		.4byte	0xe1
 4482 0bf3 06       		.uleb128 0x6
 4483 0bf4 04       		.byte	0x4
 4484 0bf5 F90B0000 		.4byte	0xbf9
 4485 0bf9 07       		.uleb128 0x7
 4486 0bfa AB050000 		.4byte	0x5ab
 4487 0bfe 04       		.uleb128 0x4
 4488 0bff 31100000 		.4byte	.LASF194
 4489 0c03 0F       		.byte	0xf
 4490 0c04 F0       		.byte	0xf0
 4491 0c05 D7080000 		.4byte	0x8d7
 4492 0c09 10       		.uleb128 0x10
 4493 0c0a 01       		.byte	0x1
 4494 0c0b 5E000000 		.4byte	0x5e
 4495 0c0f 10       		.byte	0x10
 4496 0c10 2B       		.byte	0x2b
 4497 0c11 340C0000 		.4byte	0xc34
 4498 0c15 11       		.uleb128 0x11
 4499 0c16 58060000 		.4byte	.LASF195
 4500 0c1a 00       		.byte	0
 4501 0c1b 11       		.uleb128 0x11
 4502 0c1c 25040000 		.4byte	.LASF196
 4503 0c20 01       		.byte	0x1
 4504 0c21 11       		.uleb128 0x11
 4505 0c22 4C090000 		.4byte	.LASF197
 4506 0c26 02       		.byte	0x2
 4507 0c27 11       		.uleb128 0x11
 4508 0c28 90070000 		.4byte	.LASF198
 4509 0c2c 04       		.byte	0x4
 4510 0c2d 11       		.uleb128 0x11
 4511 0c2e E8030000 		.4byte	.LASF199
 4512 0c32 08       		.byte	0x8
 4513 0c33 00       		.byte	0
 4514 0c34 04       		.uleb128 0x4
 4515 0c35 390B0000 		.4byte	.LASF200
 4516 0c39 10       		.byte	0x10
 4517 0c3a 32       		.byte	0x32
 4518 0c3b E1000000 		.4byte	0xe1
 4519 0c3f 09       		.uleb128 0x9
ARM GAS  C:\Users\pearlstl\AppData\Local\Temp\ccQFxYtd.s 			page 117


 4520 0c40 04       		.byte	0x4
 4521 0c41 11       		.byte	0x11
 4522 0c42 39       		.byte	0x39
 4523 0c43 8E0C0000 		.4byte	0xc8e
 4524 0c47 1B       		.uleb128 0x1b
 4525 0c48 636600   		.ascii	"cf\000"
 4526 0c4b 11       		.byte	0x11
 4527 0c4c 3E       		.byte	0x3e
 4528 0c4d 0D010000 		.4byte	0x10d
 4529 0c51 04       		.byte	0x4
 4530 0c52 05       		.byte	0x5
 4531 0c53 1B       		.byte	0x1b
 4532 0c54 00       		.byte	0
 4533 0c55 0D       		.uleb128 0xd
 4534 0c56 4F130000 		.4byte	.LASF201
 4535 0c5a 11       		.byte	0x11
 4536 0c5b 3F       		.byte	0x3f
 4537 0c5c 0D010000 		.4byte	0x10d
 4538 0c60 04       		.byte	0x4
 4539 0c61 03       		.byte	0x3
 4540 0c62 18       		.byte	0x18
 4541 0c63 00       		.byte	0
 4542 0c64 0D       		.uleb128 0xd
 4543 0c65 DB120000 		.4byte	.LASF153
 4544 0c69 11       		.byte	0x11
 4545 0c6a 42       		.byte	0x42
 4546 0c6b 0D010000 		.4byte	0x10d
 4547 0c6f 04       		.byte	0x4
 4548 0c70 02       		.byte	0x2
 4549 0c71 16       		.byte	0x16
 4550 0c72 00       		.byte	0
 4551 0c73 1B       		.uleb128 0x1b
 4552 0c74 7700     		.ascii	"w\000"
 4553 0c76 11       		.byte	0x11
 4554 0c77 44       		.byte	0x44
 4555 0c78 0D010000 		.4byte	0x10d
 4556 0c7c 04       		.byte	0x4
 4557 0c7d 0B       		.byte	0xb
 4558 0c7e 0B       		.byte	0xb
 4559 0c7f 00       		.byte	0
 4560 0c80 1B       		.uleb128 0x1b
 4561 0c81 6800     		.ascii	"h\000"
 4562 0c83 11       		.byte	0x11
 4563 0c84 45       		.byte	0x45
 4564 0c85 0D010000 		.4byte	0x10d
 4565 0c89 04       		.byte	0x4
 4566 0c8a 0B       		.byte	0xb
 4567 0c8b 00       		.byte	0
 4568 0c8c 00       		.byte	0
 4569 0c8d 00       		.byte	0
 4570 0c8e 04       		.uleb128 0x4
 4571 0c8f E40D0000 		.4byte	.LASF202
 4572 0c93 11       		.byte	0x11
 4573 0c94 46       		.byte	0x46
 4574 0c95 3F0C0000 		.4byte	0xc3f
 4575 0c99 10       		.uleb128 0x10
 4576 0c9a 01       		.byte	0x1
ARM GAS  C:\Users\pearlstl\AppData\Local\Temp\ccQFxYtd.s 			page 118


 4577 0c9b 5E000000 		.4byte	0x5e
 4578 0c9f 11       		.byte	0x11
 4579 0ca0 49       		.byte	0x49
 4580 0ca1 660D0000 		.4byte	0xd66
 4581 0ca5 11       		.uleb128 0x11
 4582 0ca6 2E0F0000 		.4byte	.LASF203
 4583 0caa 00       		.byte	0
 4584 0cab 11       		.uleb128 0x11
 4585 0cac 44050000 		.4byte	.LASF204
 4586 0cb0 01       		.byte	0x1
 4587 0cb1 11       		.uleb128 0x11
 4588 0cb2 30120000 		.4byte	.LASF205
 4589 0cb6 02       		.byte	0x2
 4590 0cb7 11       		.uleb128 0x11
 4591 0cb8 620C0000 		.4byte	.LASF206
 4592 0cbc 03       		.byte	0x3
 4593 0cbd 11       		.uleb128 0x11
 4594 0cbe 710F0000 		.4byte	.LASF207
 4595 0cc2 04       		.byte	0x4
 4596 0cc3 11       		.uleb128 0x11
 4597 0cc4 4C0B0000 		.4byte	.LASF208
 4598 0cc8 05       		.byte	0x5
 4599 0cc9 11       		.uleb128 0x11
 4600 0cca 970C0000 		.4byte	.LASF209
 4601 0cce 06       		.byte	0x6
 4602 0ccf 11       		.uleb128 0x11
 4603 0cd0 A8010000 		.4byte	.LASF210
 4604 0cd4 07       		.byte	0x7
 4605 0cd5 11       		.uleb128 0x11
 4606 0cd6 910B0000 		.4byte	.LASF211
 4607 0cda 08       		.byte	0x8
 4608 0cdb 11       		.uleb128 0x11
 4609 0cdc DC0B0000 		.4byte	.LASF212
 4610 0ce0 09       		.byte	0x9
 4611 0ce1 11       		.uleb128 0x11
 4612 0ce2 4B0C0000 		.4byte	.LASF213
 4613 0ce6 0A       		.byte	0xa
 4614 0ce7 11       		.uleb128 0x11
 4615 0ce8 CC000000 		.4byte	.LASF214
 4616 0cec 0B       		.byte	0xb
 4617 0ced 11       		.uleb128 0x11
 4618 0cee C80A0000 		.4byte	.LASF215
 4619 0cf2 0C       		.byte	0xc
 4620 0cf3 11       		.uleb128 0x11
 4621 0cf4 E30A0000 		.4byte	.LASF216
 4622 0cf8 0D       		.byte	0xd
 4623 0cf9 11       		.uleb128 0x11
 4624 0cfa 7C0B0000 		.4byte	.LASF217
 4625 0cfe 0E       		.byte	0xe
 4626 0cff 11       		.uleb128 0x11
 4627 0d00 22070000 		.4byte	.LASF218
 4628 0d04 0F       		.byte	0xf
 4629 0d05 11       		.uleb128 0x11
 4630 0d06 38070000 		.4byte	.LASF219
 4631 0d0a 10       		.byte	0x10
 4632 0d0b 11       		.uleb128 0x11
 4633 0d0c 4E070000 		.4byte	.LASF220
ARM GAS  C:\Users\pearlstl\AppData\Local\Temp\ccQFxYtd.s 			page 119


 4634 0d10 11       		.byte	0x11
 4635 0d11 11       		.uleb128 0x11
 4636 0d12 64070000 		.4byte	.LASF221
 4637 0d16 12       		.byte	0x12
 4638 0d17 11       		.uleb128 0x11
 4639 0d18 7A070000 		.4byte	.LASF222
 4640 0d1c 13       		.byte	0x13
 4641 0d1d 11       		.uleb128 0x11
 4642 0d1e 00080000 		.4byte	.LASF223
 4643 0d22 14       		.byte	0x14
 4644 0d23 11       		.uleb128 0x11
 4645 0d24 16080000 		.4byte	.LASF224
 4646 0d28 15       		.byte	0x15
 4647 0d29 11       		.uleb128 0x11
 4648 0d2a 2C080000 		.4byte	.LASF225
 4649 0d2e 16       		.byte	0x16
 4650 0d2f 11       		.uleb128 0x11
 4651 0d30 42080000 		.4byte	.LASF226
 4652 0d34 17       		.byte	0x17
 4653 0d35 11       		.uleb128 0x11
 4654 0d36 D70C0000 		.4byte	.LASF227
 4655 0d3a 18       		.byte	0x18
 4656 0d3b 11       		.uleb128 0x11
 4657 0d3c F00C0000 		.4byte	.LASF228
 4658 0d40 19       		.byte	0x19
 4659 0d41 11       		.uleb128 0x11
 4660 0d42 090D0000 		.4byte	.LASF229
 4661 0d46 1A       		.byte	0x1a
 4662 0d47 11       		.uleb128 0x11
 4663 0d48 220D0000 		.4byte	.LASF230
 4664 0d4c 1B       		.byte	0x1b
 4665 0d4d 11       		.uleb128 0x11
 4666 0d4e 3B0D0000 		.4byte	.LASF231
 4667 0d52 1C       		.byte	0x1c
 4668 0d53 11       		.uleb128 0x11
 4669 0d54 540D0000 		.4byte	.LASF232
 4670 0d58 1D       		.byte	0x1d
 4671 0d59 11       		.uleb128 0x11
 4672 0d5a 6D0D0000 		.4byte	.LASF233
 4673 0d5e 1E       		.byte	0x1e
 4674 0d5f 11       		.uleb128 0x11
 4675 0d60 860D0000 		.4byte	.LASF234
 4676 0d64 1F       		.byte	0x1f
 4677 0d65 00       		.byte	0
 4678 0d66 04       		.uleb128 0x4
 4679 0d67 C4080000 		.4byte	.LASF235
 4680 0d6b 11       		.byte	0x11
 4681 0d6c 74       		.byte	0x74
 4682 0d6d E1000000 		.4byte	0xe1
 4683 0d71 09       		.uleb128 0x9
 4684 0d72 0C       		.byte	0xc
 4685 0d73 11       		.byte	0x11
 4686 0d74 78       		.byte	0x78
 4687 0d75 9E0D0000 		.4byte	0xd9e
 4688 0d79 0A       		.uleb128 0xa
 4689 0d7a 77050000 		.4byte	.LASF236
 4690 0d7e 11       		.byte	0x11
ARM GAS  C:\Users\pearlstl\AppData\Local\Temp\ccQFxYtd.s 			page 120


 4691 0d7f 7A       		.byte	0x7a
 4692 0d80 8E0C0000 		.4byte	0xc8e
 4693 0d84 00       		.byte	0
 4694 0d85 0A       		.uleb128 0xa
 4695 0d86 5F090000 		.4byte	.LASF237
 4696 0d8a 11       		.byte	0x11
 4697 0d8b 7B       		.byte	0x7b
 4698 0d8c 0D010000 		.4byte	0x10d
 4699 0d90 04       		.byte	0x4
 4700 0d91 0A       		.uleb128 0xa
 4701 0d92 F7130000 		.4byte	.LASF238
 4702 0d96 11       		.byte	0x11
 4703 0d97 7C       		.byte	0x7c
 4704 0d98 27020000 		.4byte	0x227
 4705 0d9c 08       		.byte	0x8
 4706 0d9d 00       		.byte	0
 4707 0d9e 04       		.uleb128 0x4
 4708 0d9f 5A0F0000 		.4byte	.LASF239
 4709 0da3 11       		.byte	0x11
 4710 0da4 7D       		.byte	0x7d
 4711 0da5 710D0000 		.4byte	0xd71
 4712 0da9 10       		.uleb128 0x10
 4713 0daa 01       		.byte	0x1
 4714 0dab 5E000000 		.4byte	0x5e
 4715 0daf 12       		.byte	0x12
 4716 0db0 3B       		.byte	0x3b
 4717 0db1 CE0D0000 		.4byte	0xdce
 4718 0db5 11       		.uleb128 0x11
 4719 0db6 E4120000 		.4byte	.LASF240
 4720 0dba 00       		.byte	0
 4721 0dbb 11       		.uleb128 0x11
 4722 0dbc 39030000 		.4byte	.LASF241
 4723 0dc0 01       		.byte	0x1
 4724 0dc1 11       		.uleb128 0x11
 4725 0dc2 F9040000 		.4byte	.LASF242
 4726 0dc6 02       		.byte	0x2
 4727 0dc7 11       		.uleb128 0x11
 4728 0dc8 FA000000 		.4byte	.LASF243
 4729 0dcc 03       		.byte	0x3
 4730 0dcd 00       		.byte	0
 4731 0dce 04       		.uleb128 0x4
 4732 0dcf 640E0000 		.4byte	.LASF244
 4733 0dd3 12       		.byte	0x12
 4734 0dd4 41       		.byte	0x41
 4735 0dd5 E1000000 		.4byte	0xe1
 4736 0dd9 09       		.uleb128 0x9
 4737 0dda 10       		.byte	0x10
 4738 0ddb 02       		.byte	0x2
 4739 0ddc 25       		.byte	0x25
 4740 0ddd 3A0E0000 		.4byte	0xe3a
 4741 0de1 0B       		.uleb128 0xb
 4742 0de2 73726300 		.ascii	"src\000"
 4743 0de6 02       		.byte	0x2
 4744 0de7 29       		.byte	0x29
 4745 0de8 CF000000 		.4byte	0xcf
 4746 0dec 00       		.byte	0
 4747 0ded 0A       		.uleb128 0xa
ARM GAS  C:\Users\pearlstl\AppData\Local\Temp\ccQFxYtd.s 			page 121


 4748 0dee 160C0000 		.4byte	.LASF245
 4749 0df2 02       		.byte	0x2
 4750 0df3 2A       		.byte	0x2a
 4751 0df4 35030000 		.4byte	0x335
 4752 0df8 04       		.byte	0x4
 4753 0df9 0B       		.uleb128 0xb
 4754 0dfa 7700     		.ascii	"w\000"
 4755 0dfc 02       		.byte	0x2
 4756 0dfd 2B       		.byte	0x2b
 4757 0dfe 18010000 		.4byte	0x118
 4758 0e02 08       		.byte	0x8
 4759 0e03 0B       		.uleb128 0xb
 4760 0e04 6800     		.ascii	"h\000"
 4761 0e06 02       		.byte	0x2
 4762 0e07 2C       		.byte	0x2c
 4763 0e08 18010000 		.4byte	0x118
 4764 0e0c 0A       		.byte	0xa
 4765 0e0d 0D       		.uleb128 0xd
 4766 0e0e CB130000 		.4byte	.LASF246
 4767 0e12 02       		.byte	0x2
 4768 0e13 2D       		.byte	0x2d
 4769 0e14 E1000000 		.4byte	0xe1
 4770 0e18 01       		.byte	0x1
 4771 0e19 02       		.byte	0x2
 4772 0e1a 06       		.byte	0x6
 4773 0e1b 0C       		.byte	0xc
 4774 0e1c 0D       		.uleb128 0xd
 4775 0e1d C8010000 		.4byte	.LASF247
 4776 0e21 02       		.byte	0x2
 4777 0e22 2E       		.byte	0x2e
 4778 0e23 E1000000 		.4byte	0xe1
 4779 0e27 01       		.byte	0x1
 4780 0e28 01       		.byte	0x1
 4781 0e29 05       		.byte	0x5
 4782 0e2a 0C       		.byte	0xc
 4783 0e2b 1B       		.uleb128 0x1b
 4784 0e2c 636600   		.ascii	"cf\000"
 4785 0e2f 02       		.byte	0x2
 4786 0e30 2F       		.byte	0x2f
 4787 0e31 E1000000 		.4byte	0xe1
 4788 0e35 01       		.byte	0x1
 4789 0e36 05       		.byte	0x5
 4790 0e37 00       		.byte	0
 4791 0e38 0C       		.byte	0xc
 4792 0e39 00       		.byte	0
 4793 0e3a 04       		.uleb128 0x4
 4794 0e3b 880A0000 		.4byte	.LASF248
 4795 0e3f 02       		.byte	0x2
 4796 0e40 30       		.byte	0x30
 4797 0e41 D90D0000 		.4byte	0xdd9
 4798 0e45 10       		.uleb128 0x10
 4799 0e46 01       		.byte	0x1
 4800 0e47 5E000000 		.4byte	0x5e
 4801 0e4b 02       		.byte	0x2
 4802 0e4c 33       		.byte	0x33
 4803 0e4d 580E0000 		.4byte	0xe58
 4804 0e51 11       		.uleb128 0x11
ARM GAS  C:\Users\pearlstl\AppData\Local\Temp\ccQFxYtd.s 			page 122


 4805 0e52 7D0C0000 		.4byte	.LASF249
 4806 0e56 00       		.byte	0
 4807 0e57 00       		.byte	0
 4808 0e58 04       		.uleb128 0x4
 4809 0e59 B9070000 		.4byte	.LASF250
 4810 0e5d 02       		.byte	0x2
 4811 0e5e 36       		.byte	0x36
 4812 0e5f E1000000 		.4byte	0xe1
 4813 0e63 09       		.uleb128 0x9
 4814 0e64 1C       		.byte	0x1c
 4815 0e65 13       		.byte	0x13
 4816 0e66 24       		.byte	0x24
 4817 0e67 840E0000 		.4byte	0xe84
 4818 0e6b 0B       		.uleb128 0xb
 4819 0e6c 696D6700 		.ascii	"img\000"
 4820 0e70 13       		.byte	0x13
 4821 0e71 26       		.byte	0x26
 4822 0e72 3A0E0000 		.4byte	0xe3a
 4823 0e76 00       		.byte	0
 4824 0e77 0B       		.uleb128 0xb
 4825 0e78 64736300 		.ascii	"dsc\000"
 4826 0e7c 13       		.byte	0x13
 4827 0e7d 28       		.byte	0x28
 4828 0e7e 9E0D0000 		.4byte	0xd9e
 4829 0e82 10       		.byte	0x10
 4830 0e83 00       		.byte	0
 4831 0e84 04       		.uleb128 0x4
 4832 0e85 69080000 		.4byte	.LASF251
 4833 0e89 13       		.byte	0x13
 4834 0e8a 29       		.byte	0x29
 4835 0e8b 630E0000 		.4byte	0xe63
 4836 0e8f 10       		.uleb128 0x10
 4837 0e90 01       		.byte	0x1
 4838 0e91 5E000000 		.4byte	0x5e
 4839 0e95 13       		.byte	0x13
 4840 0e96 2C       		.byte	0x2c
 4841 0e97 A20E0000 		.4byte	0xea2
 4842 0e9b 11       		.uleb128 0x11
 4843 0e9c AC130000 		.4byte	.LASF252
 4844 0ea0 00       		.byte	0
 4845 0ea1 00       		.byte	0
 4846 0ea2 04       		.uleb128 0x4
 4847 0ea3 27030000 		.4byte	.LASF253
 4848 0ea7 13       		.byte	0x13
 4849 0ea8 2F       		.byte	0x2f
 4850 0ea9 E1000000 		.4byte	0xe1
 4851 0ead 1E       		.uleb128 0x1e
 4852 0eae B7090000 		.4byte	.LASF254
 4853 0eb2 03       		.byte	0x3
 4854 0eb3 B001     		.2byte	0x1b0
 4855 0eb5 00030000 		.4byte	0x300
 4856 0eb9 03       		.byte	0x3
 4857 0eba ED0E0000 		.4byte	0xeed
 4858 0ebe 1F       		.uleb128 0x1f
 4859 0ebf 633100   		.ascii	"c1\000"
 4860 0ec2 03       		.byte	0x3
 4861 0ec3 B001     		.2byte	0x1b0
ARM GAS  C:\Users\pearlstl\AppData\Local\Temp\ccQFxYtd.s 			page 123


 4862 0ec5 00030000 		.4byte	0x300
 4863 0ec9 1F       		.uleb128 0x1f
 4864 0eca 633200   		.ascii	"c2\000"
 4865 0ecd 03       		.byte	0x3
 4866 0ece B001     		.2byte	0x1b0
 4867 0ed0 00030000 		.4byte	0x300
 4868 0ed4 1F       		.uleb128 0x1f
 4869 0ed5 6D697800 		.ascii	"mix\000"
 4870 0ed9 03       		.byte	0x3
 4871 0eda B001     		.2byte	0x1b0
 4872 0edc E1000000 		.4byte	0xe1
 4873 0ee0 20       		.uleb128 0x20
 4874 0ee1 72657400 		.ascii	"ret\000"
 4875 0ee5 03       		.byte	0x3
 4876 0ee6 B201     		.2byte	0x1b2
 4877 0ee8 00030000 		.4byte	0x300
 4878 0eec 00       		.byte	0
 4879 0eed 1E       		.uleb128 0x1e
 4880 0eee 8E090000 		.4byte	.LASF255
 4881 0ef2 01       		.byte	0x1
 4882 0ef3 5603     		.2byte	0x356
 4883 0ef5 CF050000 		.4byte	0x5cf
 4884 0ef9 01       		.byte	0x1
 4885 0efa 2F0F0000 		.4byte	0xf2f
 4886 0efe 21       		.uleb128 0x21
 4887 0eff 83040000 		.4byte	.LASF256
 4888 0f03 01       		.byte	0x1
 4889 0f04 5603     		.2byte	0x356
 4890 0f06 2F0F0000 		.4byte	0xf2f
 4891 0f0a 21       		.uleb128 0x21
 4892 0f0b 98010000 		.4byte	.LASF257
 4893 0f0f 01       		.byte	0x1
 4894 0f10 5603     		.2byte	0x356
 4895 0f12 3B0B0000 		.4byte	0xb3b
 4896 0f16 21       		.uleb128 0x21
 4897 0f17 DC080000 		.4byte	.LASF258
 4898 0f1b 01       		.byte	0x1
 4899 0f1c 5603     		.2byte	0x356
 4900 0f1e BB000000 		.4byte	0xbb
 4901 0f22 20       		.uleb128 0x20
 4902 0f23 72657300 		.ascii	"res\000"
 4903 0f27 01       		.byte	0x1
 4904 0f28 5803     		.2byte	0x358
 4905 0f2a CF050000 		.4byte	0x5cf
 4906 0f2e 00       		.byte	0
 4907 0f2f 06       		.uleb128 0x6
 4908 0f30 04       		.byte	0x4
 4909 0f31 FE0B0000 		.4byte	0xbfe
 4910 0f35 22       		.uleb128 0x22
 4911 0f36 97050000 		.4byte	.LASF263
 4912 0f3a 02       		.byte	0x2
 4913 0f3b 6D       		.byte	0x6d
 4914 0f3c 03       		.byte	0x3
 4915 0f3d 630F0000 		.4byte	0xf63
 4916 0f41 23       		.uleb128 0x23
 4917 0f42 696D6700 		.ascii	"img\000"
 4918 0f46 02       		.byte	0x2
ARM GAS  C:\Users\pearlstl\AppData\Local\Temp\ccQFxYtd.s 			page 124


 4919 0f47 6D       		.byte	0x6d
 4920 0f48 2F0F0000 		.4byte	0xf2f
 4921 0f4c 24       		.uleb128 0x24
 4922 0f4d FC010000 		.4byte	.LASF64
 4923 0f51 02       		.byte	0x2
 4924 0f52 6D       		.byte	0x6d
 4925 0f53 580E0000 		.4byte	0xe58
 4926 0f57 24       		.uleb128 0x24
 4927 0f58 D50D0000 		.4byte	.LASF259
 4928 0f5c 02       		.byte	0x2
 4929 0f5d 6D       		.byte	0x6d
 4930 0f5e F30B0000 		.4byte	0xbf3
 4931 0f62 00       		.byte	0
 4932 0f63 25       		.uleb128 0x25
 4933 0f64 050C0000 		.4byte	.LASF260
 4934 0f68 02       		.byte	0x2
 4935 0f69 A0       		.byte	0xa0
 4936 0f6a F30B0000 		.4byte	0xbf3
 4937 0f6e 03       		.byte	0x3
 4938 0f6f 8A0F0000 		.4byte	0xf8a
 4939 0f73 23       		.uleb128 0x23
 4940 0f74 696D6700 		.ascii	"img\000"
 4941 0f78 02       		.byte	0x2
 4942 0f79 A0       		.byte	0xa0
 4943 0f7a 8A0F0000 		.4byte	0xf8a
 4944 0f7e 24       		.uleb128 0x24
 4945 0f7f FC010000 		.4byte	.LASF64
 4946 0f83 02       		.byte	0x2
 4947 0f84 A0       		.byte	0xa0
 4948 0f85 580E0000 		.4byte	0xe58
 4949 0f89 00       		.byte	0
 4950 0f8a 06       		.uleb128 0x6
 4951 0f8b 04       		.byte	0x4
 4952 0f8c 900F0000 		.4byte	0xf90
 4953 0f90 07       		.uleb128 0x7
 4954 0f91 FE0B0000 		.4byte	0xbfe
 4955 0f95 26       		.uleb128 0x26
 4956 0f96 D4030000 		.4byte	.LASF261
 4957 0f9a 01       		.byte	0x1
 4958 0f9b DF       		.byte	0xdf
 4959 0f9c F30B0000 		.4byte	0xbf3
 4960 0fa0 01       		.byte	0x1
 4961 0fa1 C70F0000 		.4byte	0xfc7
 4962 0fa5 24       		.uleb128 0x24
 4963 0fa6 83040000 		.4byte	.LASF256
 4964 0faa 01       		.byte	0x1
 4965 0fab DF       		.byte	0xdf
 4966 0fac 8A0F0000 		.4byte	0xf8a
 4967 0fb0 24       		.uleb128 0x24
 4968 0fb1 FC010000 		.4byte	.LASF64
 4969 0fb5 01       		.byte	0x1
 4970 0fb6 DF       		.byte	0xdf
 4971 0fb7 A20E0000 		.4byte	0xea2
 4972 0fbb 27       		.uleb128 0x27
 4973 0fbc D50D0000 		.4byte	.LASF259
 4974 0fc0 01       		.byte	0x1
 4975 0fc1 E3       		.byte	0xe3
ARM GAS  C:\Users\pearlstl\AppData\Local\Temp\ccQFxYtd.s 			page 125


 4976 0fc2 F30B0000 		.4byte	0xbf3
 4977 0fc6 00       		.byte	0
 4978 0fc7 26       		.uleb128 0x26
 4979 0fc8 12110000 		.4byte	.LASF262
 4980 0fcc 01       		.byte	0x1
 4981 0fcd D0       		.byte	0xd0
 4982 0fce EE0F0000 		.4byte	0xfee
 4983 0fd2 01       		.byte	0x1
 4984 0fd3 EE0F0000 		.4byte	0xfee
 4985 0fd7 24       		.uleb128 0x24
 4986 0fd8 83040000 		.4byte	.LASF256
 4987 0fdc 01       		.byte	0x1
 4988 0fdd D0       		.byte	0xd0
 4989 0fde 2F0F0000 		.4byte	0xf2f
 4990 0fe2 28       		.uleb128 0x28
 4991 0fe3 65787400 		.ascii	"ext\000"
 4992 0fe7 01       		.byte	0x1
 4993 0fe8 D4       		.byte	0xd4
 4994 0fe9 F40F0000 		.4byte	0xff4
 4995 0fed 00       		.byte	0
 4996 0fee 06       		.uleb128 0x6
 4997 0fef 04       		.byte	0x4
 4998 0ff0 9E0D0000 		.4byte	0xd9e
 4999 0ff4 06       		.uleb128 0x6
 5000 0ff5 04       		.byte	0x4
 5001 0ff6 840E0000 		.4byte	0xe84
 5002 0ffa 22       		.uleb128 0x22
 5003 0ffb D2050000 		.4byte	.LASF264
 5004 0fff 04       		.byte	0x4
 5005 1000 4C       		.byte	0x4c
 5006 1001 03       		.byte	0x3
 5007 1002 1D100000 		.4byte	0x101d
 5008 1006 24       		.uleb128 0x24
 5009 1007 E90F0000 		.4byte	.LASF265
 5010 100b 04       		.byte	0x4
 5011 100c 4C       		.byte	0x4c
 5012 100d DE070000 		.4byte	0x7de
 5013 1011 23       		.uleb128 0x23
 5014 1012 73726300 		.ascii	"src\000"
 5015 1016 04       		.byte	0x4
 5016 1017 4C       		.byte	0x4c
 5017 1018 B7070000 		.4byte	0x7b7
 5018 101c 00       		.byte	0
 5019 101d 29       		.uleb128 0x29
 5020 101e ED0E0000 		.4byte	0xeed
 5021 1022 00000000 		.4byte	.LFB52
 5022 1026 2C000000 		.4byte	.LFE52-.LFB52
 5023 102a 01       		.uleb128 0x1
 5024 102b 9C       		.byte	0x9c
 5025 102c B6100000 		.4byte	0x10b6
 5026 1030 2A       		.uleb128 0x2a
 5027 1031 FE0E0000 		.4byte	0xefe
 5028 1035 00000000 		.4byte	.LLST0
 5029 1039 2A       		.uleb128 0x2a
 5030 103a 0A0F0000 		.4byte	0xf0a
 5031 103e 21000000 		.4byte	.LLST1
 5032 1042 2A       		.uleb128 0x2a
ARM GAS  C:\Users\pearlstl\AppData\Local\Temp\ccQFxYtd.s 			page 126


 5033 1043 160F0000 		.4byte	0xf16
 5034 1047 42000000 		.4byte	.LLST2
 5035 104b 2B       		.uleb128 0x2b
 5036 104c 220F0000 		.4byte	0xf22
 5037 1050 79000000 		.4byte	.LLST3
 5038 1054 2C       		.uleb128 0x2c
 5039 1055 00000000 		.4byte	.Ldebug_ranges0+0
 5040 1059 9C100000 		.4byte	0x109c
 5041 105d 2D       		.uleb128 0x2d
 5042 105e FE0E0000 		.4byte	0xefe
 5043 1062 04       		.uleb128 0x4
 5044 1063 F3       		.byte	0xf3
 5045 1064 01       		.uleb128 0x1
 5046 1065 50       		.byte	0x50
 5047 1066 9F       		.byte	0x9f
 5048 1067 2E       		.uleb128 0x2e
 5049 1068 0A0F0000 		.4byte	0xf0a
 5050 106c 07       		.byte	0x7
 5051 106d 2A       		.uleb128 0x2a
 5052 106e 160F0000 		.4byte	0xf16
 5053 1072 8C000000 		.4byte	.LLST4
 5054 1076 2F       		.uleb128 0x2f
 5055 1077 00000000 		.4byte	.Ldebug_ranges0+0
 5056 107b 30       		.uleb128 0x30
 5057 107c 220F0000 		.4byte	0xf22
 5058 1080 31       		.uleb128 0x31
 5059 1081 22000000 		.4byte	.LVL6
 5060 1085 B62A0000 		.4byte	0x2ab6
 5061 1089 32       		.uleb128 0x32
 5062 108a 01       		.uleb128 0x1
 5063 108b 50       		.byte	0x50
 5064 108c 03       		.uleb128 0x3
 5065 108d F3       		.byte	0xf3
 5066 108e 01       		.uleb128 0x1
 5067 108f 52       		.byte	0x52
 5068 1090 32       		.uleb128 0x32
 5069 1091 01       		.uleb128 0x1
 5070 1092 51       		.byte	0x51
 5071 1093 05       		.uleb128 0x5
 5072 1094 03       		.byte	0x3
 5073 1095 00000000 		.4byte	.LC0
 5074 1099 00       		.byte	0
 5075 109a 00       		.byte	0
 5076 109b 00       		.byte	0
 5077 109c 33       		.uleb128 0x33
 5078 109d 0C000000 		.4byte	.LVL1
 5079 10a1 32       		.uleb128 0x32
 5080 10a2 01       		.uleb128 0x1
 5081 10a3 50       		.byte	0x50
 5082 10a4 03       		.uleb128 0x3
 5083 10a5 F3       		.byte	0xf3
 5084 10a6 01       		.uleb128 0x1
 5085 10a7 50       		.byte	0x50
 5086 10a8 32       		.uleb128 0x32
 5087 10a9 01       		.uleb128 0x1
 5088 10aa 51       		.byte	0x51
 5089 10ab 02       		.uleb128 0x2
ARM GAS  C:\Users\pearlstl\AppData\Local\Temp\ccQFxYtd.s 			page 127


 5090 10ac 74       		.byte	0x74
 5091 10ad 00       		.sleb128 0
 5092 10ae 32       		.uleb128 0x32
 5093 10af 01       		.uleb128 0x1
 5094 10b0 52       		.byte	0x52
 5095 10b1 02       		.uleb128 0x2
 5096 10b2 75       		.byte	0x75
 5097 10b3 00       		.sleb128 0
 5098 10b4 00       		.byte	0
 5099 10b5 00       		.byte	0
 5100 10b6 34       		.uleb128 0x34
 5101 10b7 C10B0000 		.4byte	.LASF272
 5102 10bb 01       		.byte	0x1
 5103 10bc 34       		.byte	0x34
 5104 10bd 2F0F0000 		.4byte	0xf2f
 5105 10c1 00000000 		.4byte	.LFB35
 5106 10c5 7C000000 		.4byte	.LFE35-.LFB35
 5107 10c9 01       		.uleb128 0x1
 5108 10ca 9C       		.byte	0x9c
 5109 10cb AF110000 		.4byte	0x11af
 5110 10cf 35       		.uleb128 0x35
 5111 10d0 70617200 		.ascii	"par\000"
 5112 10d4 01       		.byte	0x1
 5113 10d5 34       		.byte	0x34
 5114 10d6 2F0F0000 		.4byte	0xf2f
 5115 10da B8000000 		.4byte	.LLST5
 5116 10de 36       		.uleb128 0x36
 5117 10df B2090000 		.4byte	.LASF266
 5118 10e3 01       		.byte	0x1
 5119 10e4 34       		.byte	0x34
 5120 10e5 8A0F0000 		.4byte	0xf8a
 5121 10e9 D9000000 		.4byte	.LLST6
 5122 10ed 37       		.uleb128 0x37
 5123 10ee 66000000 		.4byte	.LASF267
 5124 10f2 01       		.byte	0x1
 5125 10f3 39       		.byte	0x39
 5126 10f4 2F0F0000 		.4byte	0xf2f
 5127 10f8 F7000000 		.4byte	.LLST7
 5128 10fc 38       		.uleb128 0x38
 5129 10fd 65787400 		.ascii	"ext\000"
 5130 1101 01       		.byte	0x1
 5131 1102 3E       		.byte	0x3e
 5132 1103 F40F0000 		.4byte	0xff4
 5133 1107 41010000 		.4byte	.LLST8
 5134 110b 39       		.uleb128 0x39
 5135 110c 08000000 		.4byte	.LVL8
 5136 1110 C22A0000 		.4byte	0x2ac2
 5137 1114 26110000 		.4byte	0x1126
 5138 1118 32       		.uleb128 0x32
 5139 1119 01       		.uleb128 0x1
 5140 111a 50       		.byte	0x50
 5141 111b 03       		.uleb128 0x3
 5142 111c F3       		.byte	0xf3
 5143 111d 01       		.uleb128 0x1
 5144 111e 50       		.byte	0x50
 5145 111f 32       		.uleb128 0x32
 5146 1120 01       		.uleb128 0x1
ARM GAS  C:\Users\pearlstl\AppData\Local\Temp\ccQFxYtd.s 			page 128


 5147 1121 51       		.byte	0x51
 5148 1122 02       		.uleb128 0x2
 5149 1123 77       		.byte	0x77
 5150 1124 00       		.sleb128 0
 5151 1125 00       		.byte	0
 5152 1126 39       		.uleb128 0x39
 5153 1127 12000000 		.4byte	.LVL9
 5154 112b CD2A0000 		.4byte	0x2acd
 5155 112f 3F110000 		.4byte	0x113f
 5156 1133 32       		.uleb128 0x32
 5157 1134 01       		.uleb128 0x1
 5158 1135 50       		.byte	0x50
 5159 1136 02       		.uleb128 0x2
 5160 1137 75       		.byte	0x75
 5161 1138 00       		.sleb128 0
 5162 1139 32       		.uleb128 0x32
 5163 113a 01       		.uleb128 0x1
 5164 113b 51       		.byte	0x51
 5165 113c 01       		.uleb128 0x1
 5166 113d 4C       		.byte	0x4c
 5167 113e 00       		.byte	0
 5168 113f 39       		.uleb128 0x39
 5169 1140 46000000 		.4byte	.LVL11
 5170 1144 D92A0000 		.4byte	0x2ad9
 5171 1148 59110000 		.4byte	0x1159
 5172 114c 32       		.uleb128 0x32
 5173 114d 01       		.uleb128 0x1
 5174 114e 50       		.byte	0x50
 5175 114f 02       		.uleb128 0x2
 5176 1150 75       		.byte	0x75
 5177 1151 00       		.sleb128 0
 5178 1152 32       		.uleb128 0x32
 5179 1153 01       		.uleb128 0x1
 5180 1154 51       		.byte	0x51
 5181 1155 02       		.uleb128 0x2
 5182 1156 74       		.byte	0x74
 5183 1157 10       		.sleb128 16
 5184 1158 00       		.byte	0
 5185 1159 39       		.uleb128 0x39
 5186 115a 4E000000 		.4byte	.LVL12
 5187 115e E42A0000 		.4byte	0x2ae4
 5188 1162 76110000 		.4byte	0x1176
 5189 1166 32       		.uleb128 0x32
 5190 1167 01       		.uleb128 0x1
 5191 1168 50       		.byte	0x50
 5192 1169 02       		.uleb128 0x2
 5193 116a 75       		.byte	0x75
 5194 116b 00       		.sleb128 0
 5195 116c 32       		.uleb128 0x32
 5196 116d 01       		.uleb128 0x1
 5197 116e 51       		.byte	0x51
 5198 116f 05       		.uleb128 0x5
 5199 1170 03       		.byte	0x3
 5200 1171 00000000 		.4byte	lv_canvas_signal
 5201 1175 00       		.byte	0
 5202 1176 39       		.uleb128 0x39
 5203 1177 56000000 		.4byte	.LVL14
ARM GAS  C:\Users\pearlstl\AppData\Local\Temp\ccQFxYtd.s 			page 129


 5204 117b F02A0000 		.4byte	0x2af0
 5205 117f 8A110000 		.4byte	0x118a
 5206 1183 32       		.uleb128 0x32
 5207 1184 01       		.uleb128 0x1
 5208 1185 50       		.byte	0x50
 5209 1186 02       		.uleb128 0x2
 5210 1187 75       		.byte	0x75
 5211 1188 00       		.sleb128 0
 5212 1189 00       		.byte	0
 5213 118a 39       		.uleb128 0x39
 5214 118b 66000000 		.4byte	.LVL19
 5215 118f FC2A0000 		.4byte	0x2afc
 5216 1193 9E110000 		.4byte	0x119e
 5217 1197 32       		.uleb128 0x32
 5218 1198 01       		.uleb128 0x1
 5219 1199 50       		.byte	0x50
 5220 119a 02       		.uleb128 0x2
 5221 119b 75       		.byte	0x75
 5222 119c 00       		.sleb128 0
 5223 119d 00       		.byte	0
 5224 119e 3A       		.uleb128 0x3a
 5225 119f 70000000 		.4byte	.LVL20
 5226 11a3 082B0000 		.4byte	0x2b08
 5227 11a7 32       		.uleb128 0x32
 5228 11a8 01       		.uleb128 0x1
 5229 11a9 50       		.byte	0x50
 5230 11aa 02       		.uleb128 0x2
 5231 11ab 75       		.byte	0x75
 5232 11ac 00       		.sleb128 0
 5233 11ad 00       		.byte	0
 5234 11ae 00       		.byte	0
 5235 11af 3B       		.uleb128 0x3b
 5236 11b0 10040000 		.4byte	.LASF268
 5237 11b4 01       		.byte	0x1
 5238 11b5 72       		.byte	0x72
 5239 11b6 00000000 		.4byte	.LFB36
 5240 11ba 58000000 		.4byte	.LFE36-.LFB36
 5241 11be 01       		.uleb128 0x1
 5242 11bf 9C       		.byte	0x9c
 5243 11c0 53120000 		.4byte	0x1253
 5244 11c4 36       		.uleb128 0x36
 5245 11c5 83040000 		.4byte	.LASF256
 5246 11c9 01       		.byte	0x1
 5247 11ca 72       		.byte	0x72
 5248 11cb 2F0F0000 		.4byte	0xf2f
 5249 11cf 75010000 		.4byte	.LLST9
 5250 11d3 35       		.uleb128 0x35
 5251 11d4 62756600 		.ascii	"buf\000"
 5252 11d8 01       		.byte	0x1
 5253 11d9 72       		.byte	0x72
 5254 11da BB000000 		.4byte	0xbb
 5255 11de AC010000 		.4byte	.LLST10
 5256 11e2 35       		.uleb128 0x35
 5257 11e3 7700     		.ascii	"w\000"
 5258 11e5 01       		.byte	0x1
 5259 11e6 72       		.byte	0x72
 5260 11e7 18010000 		.4byte	0x118
ARM GAS  C:\Users\pearlstl\AppData\Local\Temp\ccQFxYtd.s 			page 130


 5261 11eb D8010000 		.4byte	.LLST11
 5262 11ef 35       		.uleb128 0x35
 5263 11f0 6800     		.ascii	"h\000"
 5264 11f2 01       		.byte	0x1
 5265 11f3 72       		.byte	0x72
 5266 11f4 18010000 		.4byte	0x118
 5267 11f8 F9010000 		.4byte	.LLST12
 5268 11fc 35       		.uleb128 0x35
 5269 11fd 636600   		.ascii	"cf\000"
 5270 1200 01       		.byte	0x1
 5271 1201 72       		.byte	0x72
 5272 1202 660D0000 		.4byte	0xd66
 5273 1206 1A020000 		.4byte	.LLST13
 5274 120a 38       		.uleb128 0x38
 5275 120b 65787400 		.ascii	"ext\000"
 5276 120f 01       		.byte	0x1
 5277 1210 77       		.byte	0x77
 5278 1211 F40F0000 		.4byte	0xff4
 5279 1215 3A020000 		.4byte	.LLST14
 5280 1219 39       		.uleb128 0x39
 5281 121a 14000000 		.4byte	.LVL22
 5282 121e 142B0000 		.4byte	0x2b14
 5283 1222 2D120000 		.4byte	0x122d
 5284 1226 32       		.uleb128 0x32
 5285 1227 01       		.uleb128 0x1
 5286 1228 50       		.byte	0x50
 5287 1229 02       		.uleb128 0x2
 5288 122a 77       		.byte	0x77
 5289 122b 00       		.sleb128 0
 5290 122c 00       		.byte	0
 5291 122d 39       		.uleb128 0x39
 5292 122e 38000000 		.4byte	.LVL26
 5293 1232 202B0000 		.4byte	0x2b20
 5294 1236 41120000 		.4byte	0x1241
 5295 123a 32       		.uleb128 0x32
 5296 123b 01       		.uleb128 0x1
 5297 123c 50       		.byte	0x50
 5298 123d 02       		.uleb128 0x2
 5299 123e 78       		.byte	0x78
 5300 123f 00       		.sleb128 0
 5301 1240 00       		.byte	0
 5302 1241 31       		.uleb128 0x31
 5303 1242 58000000 		.4byte	.LVL28
 5304 1246 D92A0000 		.4byte	0x2ad9
 5305 124a 32       		.uleb128 0x32
 5306 124b 01       		.uleb128 0x1
 5307 124c 50       		.byte	0x50
 5308 124d 03       		.uleb128 0x3
 5309 124e F3       		.byte	0xf3
 5310 124f 01       		.uleb128 0x1
 5311 1250 50       		.byte	0x50
 5312 1251 00       		.byte	0
 5313 1252 00       		.byte	0
 5314 1253 3B       		.uleb128 0x3b
 5315 1254 CC060000 		.4byte	.LASF269
 5316 1258 01       		.byte	0x1
 5317 1259 89       		.byte	0x89
ARM GAS  C:\Users\pearlstl\AppData\Local\Temp\ccQFxYtd.s 			page 131


 5318 125a 00000000 		.4byte	.LFB37
 5319 125e 24000000 		.4byte	.LFE37-.LFB37
 5320 1262 01       		.uleb128 0x1
 5321 1263 9C       		.byte	0x9c
 5322 1264 F3120000 		.4byte	0x12f3
 5323 1268 36       		.uleb128 0x36
 5324 1269 83040000 		.4byte	.LASF256
 5325 126d 01       		.byte	0x1
 5326 126e 89       		.byte	0x89
 5327 126f 2F0F0000 		.4byte	0xf2f
 5328 1273 65020000 		.4byte	.LLST15
 5329 1277 35       		.uleb128 0x35
 5330 1278 7800     		.ascii	"x\000"
 5331 127a 01       		.byte	0x1
 5332 127b 89       		.byte	0x89
 5333 127c 18010000 		.4byte	0x118
 5334 1280 9C020000 		.4byte	.LLST16
 5335 1284 35       		.uleb128 0x35
 5336 1285 7900     		.ascii	"y\000"
 5337 1287 01       		.byte	0x1
 5338 1288 89       		.byte	0x89
 5339 1289 18010000 		.4byte	0x118
 5340 128d BD020000 		.4byte	.LLST17
 5341 1291 35       		.uleb128 0x35
 5342 1292 6300     		.ascii	"c\000"
 5343 1294 01       		.byte	0x1
 5344 1295 89       		.byte	0x89
 5345 1296 00030000 		.4byte	0x300
 5346 129a DE020000 		.4byte	.LLST18
 5347 129e 38       		.uleb128 0x38
 5348 129f 65787400 		.ascii	"ext\000"
 5349 12a3 01       		.byte	0x1
 5350 12a4 8D       		.byte	0x8d
 5351 12a5 F40F0000 		.4byte	0xff4
 5352 12a9 FC020000 		.4byte	.LLST19
 5353 12ad 39       		.uleb128 0x39
 5354 12ae 0E000000 		.4byte	.LVL30
 5355 12b2 142B0000 		.4byte	0x2b14
 5356 12b6 C1120000 		.4byte	0x12c1
 5357 12ba 32       		.uleb128 0x32
 5358 12bb 01       		.uleb128 0x1
 5359 12bc 50       		.byte	0x50
 5360 12bd 02       		.uleb128 0x2
 5361 12be 74       		.byte	0x74
 5362 12bf 00       		.sleb128 0
 5363 12c0 00       		.byte	0
 5364 12c1 39       		.uleb128 0x39
 5365 12c2 1A000000 		.4byte	.LVL32
 5366 12c6 2B2B0000 		.4byte	0x2b2b
 5367 12ca E1120000 		.4byte	0x12e1
 5368 12ce 32       		.uleb128 0x32
 5369 12cf 01       		.uleb128 0x1
 5370 12d0 51       		.byte	0x51
 5371 12d1 02       		.uleb128 0x2
 5372 12d2 75       		.byte	0x75
 5373 12d3 00       		.sleb128 0
 5374 12d4 32       		.uleb128 0x32
ARM GAS  C:\Users\pearlstl\AppData\Local\Temp\ccQFxYtd.s 			page 132


 5375 12d5 01       		.uleb128 0x1
 5376 12d6 52       		.byte	0x52
 5377 12d7 02       		.uleb128 0x2
 5378 12d8 76       		.byte	0x76
 5379 12d9 00       		.sleb128 0
 5380 12da 32       		.uleb128 0x32
 5381 12db 01       		.uleb128 0x1
 5382 12dc 53       		.byte	0x53
 5383 12dd 02       		.uleb128 0x2
 5384 12de 77       		.byte	0x77
 5385 12df 00       		.sleb128 0
 5386 12e0 00       		.byte	0
 5387 12e1 31       		.uleb128 0x31
 5388 12e2 24000000 		.4byte	.LVL34
 5389 12e6 362B0000 		.4byte	0x2b36
 5390 12ea 32       		.uleb128 0x32
 5391 12eb 01       		.uleb128 0x1
 5392 12ec 50       		.byte	0x50
 5393 12ed 03       		.uleb128 0x3
 5394 12ee F3       		.byte	0xf3
 5395 12ef 01       		.uleb128 0x1
 5396 12f0 50       		.byte	0x50
 5397 12f1 00       		.byte	0
 5398 12f2 00       		.byte	0
 5399 12f3 3B       		.uleb128 0x3b
 5400 12f4 15020000 		.4byte	.LASF270
 5401 12f8 01       		.byte	0x1
 5402 12f9 9D       		.byte	0x9d
 5403 12fa 00000000 		.4byte	.LFB38
 5404 12fe 20000000 		.4byte	.LFE38-.LFB38
 5405 1302 01       		.uleb128 0x1
 5406 1303 9C       		.byte	0x9c
 5407 1304 81130000 		.4byte	0x1381
 5408 1308 36       		.uleb128 0x36
 5409 1309 83040000 		.4byte	.LASF256
 5410 130d 01       		.byte	0x1
 5411 130e 9D       		.byte	0x9d
 5412 130f 2F0F0000 		.4byte	0xf2f
 5413 1313 1C030000 		.4byte	.LLST20
 5414 1317 35       		.uleb128 0x35
 5415 1318 696400   		.ascii	"id\000"
 5416 131b 01       		.byte	0x1
 5417 131c 9D       		.byte	0x9d
 5418 131d E1000000 		.4byte	0xe1
 5419 1321 53030000 		.4byte	.LLST21
 5420 1325 35       		.uleb128 0x35
 5421 1326 6300     		.ascii	"c\000"
 5422 1328 01       		.byte	0x1
 5423 1329 9D       		.byte	0x9d
 5424 132a 00030000 		.4byte	0x300
 5425 132e 74030000 		.4byte	.LLST22
 5426 1332 38       		.uleb128 0x38
 5427 1333 65787400 		.ascii	"ext\000"
 5428 1337 01       		.byte	0x1
 5429 1338 A1       		.byte	0xa1
 5430 1339 F40F0000 		.4byte	0xff4
 5431 133d 92030000 		.4byte	.LLST23
ARM GAS  C:\Users\pearlstl\AppData\Local\Temp\ccQFxYtd.s 			page 133


 5432 1341 39       		.uleb128 0x39
 5433 1342 0C000000 		.4byte	.LVL36
 5434 1346 142B0000 		.4byte	0x2b14
 5435 134a 55130000 		.4byte	0x1355
 5436 134e 32       		.uleb128 0x32
 5437 134f 01       		.uleb128 0x1
 5438 1350 50       		.byte	0x50
 5439 1351 02       		.uleb128 0x2
 5440 1352 74       		.byte	0x74
 5441 1353 00       		.sleb128 0
 5442 1354 00       		.byte	0
 5443 1355 39       		.uleb128 0x39
 5444 1356 16000000 		.4byte	.LVL38
 5445 135a 422B0000 		.4byte	0x2b42
 5446 135e 6F130000 		.4byte	0x136f
 5447 1362 32       		.uleb128 0x32
 5448 1363 01       		.uleb128 0x1
 5449 1364 51       		.byte	0x51
 5450 1365 02       		.uleb128 0x2
 5451 1366 75       		.byte	0x75
 5452 1367 00       		.sleb128 0
 5453 1368 32       		.uleb128 0x32
 5454 1369 01       		.uleb128 0x1
 5455 136a 52       		.byte	0x52
 5456 136b 02       		.uleb128 0x2
 5457 136c 76       		.byte	0x76
 5458 136d 00       		.sleb128 0
 5459 136e 00       		.byte	0
 5460 136f 31       		.uleb128 0x31
 5461 1370 20000000 		.4byte	.LVL40
 5462 1374 362B0000 		.4byte	0x2b36
 5463 1378 32       		.uleb128 0x32
 5464 1379 01       		.uleb128 0x1
 5465 137a 50       		.byte	0x50
 5466 137b 03       		.uleb128 0x3
 5467 137c F3       		.byte	0xf3
 5468 137d 01       		.uleb128 0x1
 5469 137e 50       		.byte	0x50
 5470 137f 00       		.byte	0
 5471 1380 00       		.byte	0
 5472 1381 3B       		.uleb128 0x3b
 5473 1382 CD100000 		.4byte	.LASF271
 5474 1386 01       		.byte	0x1
 5475 1387 AD       		.byte	0xad
 5476 1388 00000000 		.4byte	.LFB39
 5477 138c 0A000000 		.4byte	.LFE39-.LFB39
 5478 1390 01       		.uleb128 0x1
 5479 1391 9C       		.byte	0x9c
 5480 1392 F9130000 		.4byte	0x13f9
 5481 1396 36       		.uleb128 0x36
 5482 1397 83040000 		.4byte	.LASF256
 5483 139b 01       		.byte	0x1
 5484 139c AD       		.byte	0xad
 5485 139d 2F0F0000 		.4byte	0xf2f
 5486 13a1 B2030000 		.4byte	.LLST24
 5487 13a5 36       		.uleb128 0x36
 5488 13a6 FC010000 		.4byte	.LASF64
ARM GAS  C:\Users\pearlstl\AppData\Local\Temp\ccQFxYtd.s 			page 134


 5489 13aa 01       		.byte	0x1
 5490 13ab AD       		.byte	0xad
 5491 13ac A20E0000 		.4byte	0xea2
 5492 13b0 D3030000 		.4byte	.LLST25
 5493 13b4 36       		.uleb128 0x36
 5494 13b5 D50D0000 		.4byte	.LASF259
 5495 13b9 01       		.byte	0x1
 5496 13ba AD       		.byte	0xad
 5497 13bb F30B0000 		.4byte	0xbf3
 5498 13bf F4030000 		.4byte	.LLST26
 5499 13c3 3C       		.uleb128 0x3c
 5500 13c4 350F0000 		.4byte	0xf35
 5501 13c8 04000000 		.4byte	.LBB63
 5502 13cc 06000000 		.4byte	.LBE63-.LBB63
 5503 13d0 01       		.byte	0x1
 5504 13d1 B2       		.byte	0xb2
 5505 13d2 2E       		.uleb128 0x2e
 5506 13d3 4C0F0000 		.4byte	0xf4c
 5507 13d7 00       		.byte	0
 5508 13d8 2A       		.uleb128 0x2a
 5509 13d9 570F0000 		.4byte	0xf57
 5510 13dd 15040000 		.4byte	.LLST27
 5511 13e1 3D       		.uleb128 0x3d
 5512 13e2 410F0000 		.4byte	0xf41
 5513 13e6 31       		.uleb128 0x31
 5514 13e7 0A000000 		.4byte	.LVL44
 5515 13eb 4D2B0000 		.4byte	0x2b4d
 5516 13ef 32       		.uleb128 0x32
 5517 13f0 01       		.uleb128 0x1
 5518 13f1 51       		.byte	0x51
 5519 13f2 03       		.uleb128 0x3
 5520 13f3 F3       		.byte	0xf3
 5521 13f4 01       		.uleb128 0x1
 5522 13f5 52       		.byte	0x52
 5523 13f6 00       		.byte	0
 5524 13f7 00       		.byte	0
 5525 13f8 00       		.byte	0
 5526 13f9 34       		.uleb128 0x34
 5527 13fa F9080000 		.4byte	.LASF273
 5528 13fe 01       		.byte	0x1
 5529 13ff C1       		.byte	0xc1
 5530 1400 00030000 		.4byte	0x300
 5531 1404 00000000 		.4byte	.LFB40
 5532 1408 24000000 		.4byte	.LFE40-.LFB40
 5533 140c 01       		.uleb128 0x1
 5534 140d 9C       		.byte	0x9c
 5535 140e EE140000 		.4byte	0x14ee
 5536 1412 36       		.uleb128 0x36
 5537 1413 83040000 		.4byte	.LASF256
 5538 1417 01       		.byte	0x1
 5539 1418 C1       		.byte	0xc1
 5540 1419 2F0F0000 		.4byte	0xf2f
 5541 141d 36040000 		.4byte	.LLST28
 5542 1421 35       		.uleb128 0x35
 5543 1422 7800     		.ascii	"x\000"
 5544 1424 01       		.byte	0x1
 5545 1425 C1       		.byte	0xc1
ARM GAS  C:\Users\pearlstl\AppData\Local\Temp\ccQFxYtd.s 			page 135


 5546 1426 18010000 		.4byte	0x118
 5547 142a 54040000 		.4byte	.LLST29
 5548 142e 35       		.uleb128 0x35
 5549 142f 7900     		.ascii	"y\000"
 5550 1431 01       		.byte	0x1
 5551 1432 C1       		.byte	0xc1
 5552 1433 18010000 		.4byte	0x118
 5553 1437 75040000 		.4byte	.LLST30
 5554 143b 38       		.uleb128 0x38
 5555 143c 65787400 		.ascii	"ext\000"
 5556 1440 01       		.byte	0x1
 5557 1441 C5       		.byte	0xc5
 5558 1442 F40F0000 		.4byte	0xff4
 5559 1446 96040000 		.4byte	.LLST31
 5560 144a 27       		.uleb128 0x27
 5561 144b D50D0000 		.4byte	.LASF259
 5562 144f 01       		.byte	0x1
 5563 1450 C6       		.byte	0xc6
 5564 1451 F30B0000 		.4byte	0xbf3
 5565 1455 3E       		.uleb128 0x3e
 5566 1456 950F0000 		.4byte	0xf95
 5567 145a 0E000000 		.4byte	.LBB65
 5568 145e 06000000 		.4byte	.LBE65-.LBB65
 5569 1462 01       		.byte	0x1
 5570 1463 C6       		.byte	0xc6
 5571 1464 BD140000 		.4byte	0x14bd
 5572 1468 2A       		.uleb128 0x2a
 5573 1469 B00F0000 		.4byte	0xfb0
 5574 146d B4040000 		.4byte	.LLST32
 5575 1471 2A       		.uleb128 0x2a
 5576 1472 A50F0000 		.4byte	0xfa5
 5577 1476 C8040000 		.4byte	.LLST33
 5578 147a 3F       		.uleb128 0x3f
 5579 147b 0E000000 		.4byte	.LBB66
 5580 147f 06000000 		.4byte	.LBE66-.LBB66
 5581 1483 2B       		.uleb128 0x2b
 5582 1484 BB0F0000 		.4byte	0xfbb
 5583 1488 B4040000 		.4byte	.LLST32
 5584 148c 3C       		.uleb128 0x3c
 5585 148d 630F0000 		.4byte	0xf63
 5586 1491 0E000000 		.4byte	.LBB67
 5587 1495 06000000 		.4byte	.LBE67-.LBB67
 5588 1499 01       		.byte	0x1
 5589 149a E6       		.byte	0xe6
 5590 149b 2E       		.uleb128 0x2e
 5591 149c 7E0F0000 		.4byte	0xf7e
 5592 14a0 00       		.byte	0
 5593 14a1 2A       		.uleb128 0x2a
 5594 14a2 730F0000 		.4byte	0xf73
 5595 14a6 C8040000 		.4byte	.LLST33
 5596 14aa 3A       		.uleb128 0x3a
 5597 14ab 14000000 		.4byte	.LVL49
 5598 14af 592B0000 		.4byte	0x2b59
 5599 14b3 32       		.uleb128 0x32
 5600 14b4 01       		.uleb128 0x1
 5601 14b5 50       		.byte	0x50
 5602 14b6 02       		.uleb128 0x2
ARM GAS  C:\Users\pearlstl\AppData\Local\Temp\ccQFxYtd.s 			page 136


 5603 14b7 77       		.byte	0x77
 5604 14b8 00       		.sleb128 0
 5605 14b9 00       		.byte	0
 5606 14ba 00       		.byte	0
 5607 14bb 00       		.byte	0
 5608 14bc 00       		.byte	0
 5609 14bd 39       		.uleb128 0x39
 5610 14be 0C000000 		.4byte	.LVL46
 5611 14c2 142B0000 		.4byte	0x2b14
 5612 14c6 D1140000 		.4byte	0x14d1
 5613 14ca 32       		.uleb128 0x32
 5614 14cb 01       		.uleb128 0x1
 5615 14cc 50       		.byte	0x50
 5616 14cd 02       		.uleb128 0x2
 5617 14ce 77       		.byte	0x77
 5618 14cf 00       		.sleb128 0
 5619 14d0 00       		.byte	0
 5620 14d1 3A       		.uleb128 0x3a
 5621 14d2 22000000 		.4byte	.LVL50
 5622 14d6 652B0000 		.4byte	0x2b65
 5623 14da 32       		.uleb128 0x32
 5624 14db 01       		.uleb128 0x1
 5625 14dc 50       		.byte	0x50
 5626 14dd 02       		.uleb128 0x2
 5627 14de 74       		.byte	0x74
 5628 14df 10       		.sleb128 16
 5629 14e0 32       		.uleb128 0x32
 5630 14e1 01       		.uleb128 0x1
 5631 14e2 51       		.byte	0x51
 5632 14e3 02       		.uleb128 0x2
 5633 14e4 75       		.byte	0x75
 5634 14e5 00       		.sleb128 0
 5635 14e6 32       		.uleb128 0x32
 5636 14e7 01       		.uleb128 0x1
 5637 14e8 52       		.byte	0x52
 5638 14e9 02       		.uleb128 0x2
 5639 14ea 76       		.byte	0x76
 5640 14eb 00       		.sleb128 0
 5641 14ec 00       		.byte	0
 5642 14ed 00       		.byte	0
 5643 14ee 29       		.uleb128 0x29
 5644 14ef C70F0000 		.4byte	0xfc7
 5645 14f3 00000000 		.4byte	.LFB41
 5646 14f7 0A000000 		.4byte	.LFE41-.LFB41
 5647 14fb 01       		.uleb128 0x1
 5648 14fc 9C       		.byte	0x9c
 5649 14fd 25150000 		.4byte	0x1525
 5650 1501 2A       		.uleb128 0x2a
 5651 1502 D70F0000 		.4byte	0xfd7
 5652 1506 DB040000 		.4byte	.LLST36
 5653 150a 2B       		.uleb128 0x2b
 5654 150b E20F0000 		.4byte	0xfe2
 5655 150f FC040000 		.4byte	.LLST37
 5656 1513 3A       		.uleb128 0x3a
 5657 1514 06000000 		.4byte	.LVL52
 5658 1518 142B0000 		.4byte	0x2b14
 5659 151c 32       		.uleb128 0x32
ARM GAS  C:\Users\pearlstl\AppData\Local\Temp\ccQFxYtd.s 			page 137


 5660 151d 01       		.uleb128 0x1
 5661 151e 50       		.byte	0x50
 5662 151f 03       		.uleb128 0x3
 5663 1520 F3       		.byte	0xf3
 5664 1521 01       		.uleb128 0x1
 5665 1522 50       		.byte	0x50
 5666 1523 00       		.byte	0
 5667 1524 00       		.byte	0
 5668 1525 29       		.uleb128 0x29
 5669 1526 950F0000 		.4byte	0xf95
 5670 152a 00000000 		.4byte	.LFB42
 5671 152e 0A000000 		.4byte	.LFE42-.LFB42
 5672 1532 01       		.uleb128 0x1
 5673 1533 9C       		.byte	0x9c
 5674 1534 80150000 		.4byte	0x1580
 5675 1538 2A       		.uleb128 0x2a
 5676 1539 A50F0000 		.4byte	0xfa5
 5677 153d 1C050000 		.4byte	.LLST38
 5678 1541 2A       		.uleb128 0x2a
 5679 1542 B00F0000 		.4byte	0xfb0
 5680 1546 56050000 		.4byte	.LLST39
 5681 154a 40       		.uleb128 0x40
 5682 154b BB0F0000 		.4byte	0xfbb
 5683 154f 00       		.byte	0
 5684 1550 3C       		.uleb128 0x3c
 5685 1551 630F0000 		.4byte	0xf63
 5686 1555 02000000 		.4byte	.LBB69
 5687 1559 04000000 		.4byte	.LBE69-.LBB69
 5688 155d 01       		.byte	0x1
 5689 155e E6       		.byte	0xe6
 5690 155f 2A       		.uleb128 0x2a
 5691 1560 7E0F0000 		.4byte	0xf7e
 5692 1564 82050000 		.4byte	.LLST40
 5693 1568 3D       		.uleb128 0x3d
 5694 1569 730F0000 		.4byte	0xf73
 5695 156d 31       		.uleb128 0x31
 5696 156e 06000000 		.4byte	.LVL56
 5697 1572 592B0000 		.4byte	0x2b59
 5698 1576 32       		.uleb128 0x32
 5699 1577 01       		.uleb128 0x1
 5700 1578 50       		.byte	0x50
 5701 1579 03       		.uleb128 0x3
 5702 157a F3       		.byte	0xf3
 5703 157b 01       		.uleb128 0x1
 5704 157c 50       		.byte	0x50
 5705 157d 00       		.byte	0
 5706 157e 00       		.byte	0
 5707 157f 00       		.byte	0
 5708 1580 3B       		.uleb128 0x3b
 5709 1581 940F0000 		.4byte	.LASF274
 5710 1585 01       		.byte	0x1
 5711 1586 FB       		.byte	0xfb
 5712 1587 00000000 		.4byte	.LFB43
 5713 158b 82000000 		.4byte	.LFE43-.LFB43
 5714 158f 01       		.uleb128 0x1
 5715 1590 9C       		.byte	0x9c
 5716 1591 6A160000 		.4byte	0x166a
ARM GAS  C:\Users\pearlstl\AppData\Local\Temp\ccQFxYtd.s 			page 138


 5717 1595 36       		.uleb128 0x36
 5718 1596 83040000 		.4byte	.LASF256
 5719 159a 01       		.byte	0x1
 5720 159b FB       		.byte	0xfb
 5721 159c 2F0F0000 		.4byte	0xf2f
 5722 15a0 96050000 		.4byte	.LLST41
 5723 15a4 36       		.uleb128 0x36
 5724 15a5 1A120000 		.4byte	.LASF275
 5725 15a9 01       		.byte	0x1
 5726 15aa FB       		.byte	0xfb
 5727 15ab CF000000 		.4byte	0xcf
 5728 15af B7050000 		.4byte	.LLST42
 5729 15b3 35       		.uleb128 0x35
 5730 15b4 7800     		.ascii	"x\000"
 5731 15b6 01       		.byte	0x1
 5732 15b7 FB       		.byte	0xfb
 5733 15b8 18010000 		.4byte	0x118
 5734 15bc E3050000 		.4byte	.LLST43
 5735 15c0 35       		.uleb128 0x35
 5736 15c1 7900     		.ascii	"y\000"
 5737 15c3 01       		.byte	0x1
 5738 15c4 FB       		.byte	0xfb
 5739 15c5 18010000 		.4byte	0x118
 5740 15c9 04060000 		.4byte	.LLST44
 5741 15cd 35       		.uleb128 0x35
 5742 15ce 7700     		.ascii	"w\000"
 5743 15d0 01       		.byte	0x1
 5744 15d1 FB       		.byte	0xfb
 5745 15d2 18010000 		.4byte	0x118
 5746 15d6 25060000 		.4byte	.LLST45
 5747 15da 35       		.uleb128 0x35
 5748 15db 6800     		.ascii	"h\000"
 5749 15dd 01       		.byte	0x1
 5750 15de FB       		.byte	0xfb
 5751 15df 18010000 		.4byte	0x118
 5752 15e3 45060000 		.4byte	.LLST46
 5753 15e7 41       		.uleb128 0x41
 5754 15e8 65787400 		.ascii	"ext\000"
 5755 15ec 01       		.byte	0x1
 5756 15ed 0001     		.2byte	0x100
 5757 15ef F40F0000 		.4byte	0xff4
 5758 15f3 65060000 		.4byte	.LLST47
 5759 15f7 42       		.uleb128 0x42
 5760 15f8 E0070000 		.4byte	.LASF276
 5761 15fc 01       		.byte	0x1
 5762 15fd 0601     		.2byte	0x106
 5763 15ff 0D010000 		.4byte	0x10d
 5764 1603 06       		.uleb128 0x6
 5765 1604 79       		.byte	0x79
 5766 1605 00       		.sleb128 0
 5767 1606 08       		.byte	0x8
 5768 1607 FF       		.byte	0xff
 5769 1608 1A       		.byte	0x1a
 5770 1609 9F       		.byte	0x9f
 5771 160a 43       		.uleb128 0x43
 5772 160b 707800   		.ascii	"px\000"
 5773 160e 01       		.byte	0x1
ARM GAS  C:\Users\pearlstl\AppData\Local\Temp\ccQFxYtd.s 			page 139


 5774 160f 0701     		.2byte	0x107
 5775 1611 0D010000 		.4byte	0x10d
 5776 1615 01       		.uleb128 0x1
 5777 1616 55       		.byte	0x55
 5778 1617 44       		.uleb128 0x44
 5779 1618 FC130000 		.4byte	.LASF277
 5780 161c 01       		.byte	0x1
 5781 161d 0801     		.2byte	0x108
 5782 161f 13080000 		.4byte	0x813
 5783 1623 8E060000 		.4byte	.LLST48
 5784 1627 41       		.uleb128 0x41
 5785 1628 6900     		.ascii	"i\000"
 5786 162a 01       		.byte	0x1
 5787 162b 0901     		.2byte	0x109
 5788 162d 18010000 		.4byte	0x118
 5789 1631 AC060000 		.4byte	.LLST49
 5790 1635 39       		.uleb128 0x39
 5791 1636 16000000 		.4byte	.LVL59
 5792 163a 142B0000 		.4byte	0x2b14
 5793 163e 4A160000 		.4byte	0x164a
 5794 1642 32       		.uleb128 0x32
 5795 1643 01       		.uleb128 0x1
 5796 1644 50       		.byte	0x50
 5797 1645 03       		.uleb128 0x3
 5798 1646 F3       		.byte	0xf3
 5799 1647 01       		.uleb128 0x1
 5800 1648 50       		.byte	0x50
 5801 1649 00       		.byte	0
 5802 164a 45       		.uleb128 0x45
 5803 164b 40000000 		.4byte	.LVL63
 5804 164f 202B0000 		.4byte	0x2b20
 5805 1653 3A       		.uleb128 0x3a
 5806 1654 6A000000 		.4byte	.LVL67
 5807 1658 702B0000 		.4byte	0x2b70
 5808 165c 32       		.uleb128 0x32
 5809 165d 01       		.uleb128 0x1
 5810 165e 51       		.byte	0x51
 5811 165f 02       		.uleb128 0x2
 5812 1660 76       		.byte	0x76
 5813 1661 00       		.sleb128 0
 5814 1662 32       		.uleb128 0x32
 5815 1663 01       		.uleb128 0x1
 5816 1664 52       		.byte	0x52
 5817 1665 02       		.uleb128 0x2
 5818 1666 7A       		.byte	0x7a
 5819 1667 00       		.sleb128 0
 5820 1668 00       		.byte	0
 5821 1669 00       		.byte	0
 5822 166a 46       		.uleb128 0x46
 5823 166b 9A030000 		.4byte	.LASF278
 5824 166f 01       		.byte	0x1
 5825 1670 1E01     		.2byte	0x11e
 5826 1672 00000000 		.4byte	.LFB44
 5827 1676 A2050000 		.4byte	.LFE44-.LFB44
 5828 167a 01       		.uleb128 0x1
 5829 167b 9C       		.byte	0x9c
 5830 167c D21D0000 		.4byte	0x1dd2
ARM GAS  C:\Users\pearlstl\AppData\Local\Temp\ccQFxYtd.s 			page 140


 5831 1680 47       		.uleb128 0x47
 5832 1681 83040000 		.4byte	.LASF256
 5833 1685 01       		.byte	0x1
 5834 1686 1E01     		.2byte	0x11e
 5835 1688 2F0F0000 		.4byte	0xf2f
 5836 168c D6060000 		.4byte	.LLST50
 5837 1690 48       		.uleb128 0x48
 5838 1691 696D6700 		.ascii	"img\000"
 5839 1695 01       		.byte	0x1
 5840 1696 1E01     		.2byte	0x11e
 5841 1698 EE0F0000 		.4byte	0xfee
 5842 169c 1B070000 		.4byte	.LLST51
 5843 16a0 47       		.uleb128 0x47
 5844 16a1 7C090000 		.4byte	.LASF279
 5845 16a5 01       		.byte	0x1
 5846 16a6 1E01     		.2byte	0x11e
 5847 16a8 EC000000 		.4byte	0xec
 5848 16ac 60070000 		.4byte	.LLST52
 5849 16b0 47       		.uleb128 0x47
 5850 16b1 E2080000 		.4byte	.LASF280
 5851 16b5 01       		.byte	0x1
 5852 16b6 1E01     		.2byte	0x11e
 5853 16b8 18010000 		.4byte	0x118
 5854 16bc 8C070000 		.4byte	.LLST53
 5855 16c0 47       		.uleb128 0x47
 5856 16c1 EB080000 		.4byte	.LASF281
 5857 16c5 01       		.byte	0x1
 5858 16c6 1E01     		.2byte	0x11e
 5859 16c8 18010000 		.4byte	0x118
 5860 16cc AD070000 		.4byte	.LLST54
 5861 16d0 47       		.uleb128 0x47
 5862 16d1 12060000 		.4byte	.LASF282
 5863 16d5 01       		.byte	0x1
 5864 16d6 1F01     		.2byte	0x11f
 5865 16d8 02010000 		.4byte	0x102
 5866 16dc D9070000 		.4byte	.LLST55
 5867 16e0 47       		.uleb128 0x47
 5868 16e1 37020000 		.4byte	.LASF283
 5869 16e5 01       		.byte	0x1
 5870 16e6 1F01     		.2byte	0x11f
 5871 16e8 02010000 		.4byte	0x102
 5872 16ec 05080000 		.4byte	.LLST56
 5873 16f0 44       		.uleb128 0x44
 5874 16f1 F8120000 		.4byte	.LASF284
 5875 16f5 01       		.byte	0x1
 5876 16f6 2401     		.2byte	0x124
 5877 16f8 F40F0000 		.4byte	0xff4
 5878 16fc 31080000 		.4byte	.LLST57
 5879 1700 49       		.uleb128 0x49
 5880 1701 D50D0000 		.4byte	.LASF259
 5881 1705 01       		.byte	0x1
 5882 1706 2501     		.2byte	0x125
 5883 1708 F30B0000 		.4byte	0xbf3
 5884 170c 44       		.uleb128 0x44
 5885 170d AC120000 		.4byte	.LASF285
 5886 1711 01       		.byte	0x1
 5887 1712 2601     		.2byte	0x126
ARM GAS  C:\Users\pearlstl\AppData\Local\Temp\ccQFxYtd.s 			page 141


 5888 1714 02010000 		.4byte	0x102
 5889 1718 76080000 		.4byte	.LLST58
 5890 171c 44       		.uleb128 0x44
 5891 171d 2B020000 		.4byte	.LASF286
 5892 1721 01       		.byte	0x1
 5893 1722 2701     		.2byte	0x127
 5894 1724 02010000 		.4byte	0x102
 5895 1728 AA080000 		.4byte	.LLST59
 5896 172c 44       		.uleb128 0x44
 5897 172d C2060000 		.4byte	.LASF287
 5898 1731 01       		.byte	0x1
 5899 1732 2901     		.2byte	0x129
 5900 1734 02010000 		.4byte	0x102
 5901 1738 DE080000 		.4byte	.LLST60
 5902 173c 44       		.uleb128 0x44
 5903 173d BC0D0000 		.4byte	.LASF288
 5904 1741 01       		.byte	0x1
 5905 1742 2A01     		.2byte	0x12a
 5906 1744 02010000 		.4byte	0x102
 5907 1748 07090000 		.4byte	.LLST61
 5908 174c 44       		.uleb128 0x44
 5909 174d C0120000 		.4byte	.LASF289
 5910 1751 01       		.byte	0x1
 5911 1752 2B01     		.2byte	0x12b
 5912 1754 02010000 		.4byte	0x102
 5913 1758 41090000 		.4byte	.LLST62
 5914 175c 44       		.uleb128 0x44
 5915 175d AD0B0000 		.4byte	.LASF290
 5916 1761 01       		.byte	0x1
 5917 1762 2C01     		.2byte	0x12c
 5918 1764 02010000 		.4byte	0x102
 5919 1768 70090000 		.4byte	.LLST63
 5920 176c 41       		.uleb128 0x41
 5921 176d 7800     		.ascii	"x\000"
 5922 176f 01       		.byte	0x1
 5923 1770 2E01     		.2byte	0x12e
 5924 1772 02010000 		.4byte	0x102
 5925 1776 AA090000 		.4byte	.LLST64
 5926 177a 20       		.uleb128 0x20
 5927 177b 7900     		.ascii	"y\000"
 5928 177d 01       		.byte	0x1
 5929 177e 2F01     		.2byte	0x12f
 5930 1780 02010000 		.4byte	0x102
 5931 1784 4A       		.uleb128 0x4a
 5932 1785 950F0000 		.4byte	0xf95
 5933 1789 24000000 		.4byte	.LBB71
 5934 178d 08000000 		.4byte	.LBE71-.LBB71
 5935 1791 01       		.byte	0x1
 5936 1792 2501     		.2byte	0x125
 5937 1794 ED170000 		.4byte	0x17ed
 5938 1798 2A       		.uleb128 0x2a
 5939 1799 B00F0000 		.4byte	0xfb0
 5940 179d CB090000 		.4byte	.LLST65
 5941 17a1 2A       		.uleb128 0x2a
 5942 17a2 A50F0000 		.4byte	0xfa5
 5943 17a6 DF090000 		.4byte	.LLST66
 5944 17aa 3F       		.uleb128 0x3f
ARM GAS  C:\Users\pearlstl\AppData\Local\Temp\ccQFxYtd.s 			page 142


 5945 17ab 24000000 		.4byte	.LBB72
 5946 17af 08000000 		.4byte	.LBE72-.LBB72
 5947 17b3 2B       		.uleb128 0x2b
 5948 17b4 BB0F0000 		.4byte	0xfbb
 5949 17b8 CB090000 		.4byte	.LLST65
 5950 17bc 3C       		.uleb128 0x3c
 5951 17bd 630F0000 		.4byte	0xf63
 5952 17c1 24000000 		.4byte	.LBB73
 5953 17c5 08000000 		.4byte	.LBE73-.LBB73
 5954 17c9 01       		.byte	0x1
 5955 17ca E6       		.byte	0xe6
 5956 17cb 2E       		.uleb128 0x2e
 5957 17cc 7E0F0000 		.4byte	0xf7e
 5958 17d0 00       		.byte	0
 5959 17d1 2A       		.uleb128 0x2a
 5960 17d2 730F0000 		.4byte	0xf73
 5961 17d6 DF090000 		.4byte	.LLST66
 5962 17da 3A       		.uleb128 0x3a
 5963 17db 2A000000 		.4byte	.LVL76
 5964 17df 592B0000 		.4byte	0x2b59
 5965 17e3 32       		.uleb128 0x32
 5966 17e4 01       		.uleb128 0x1
 5967 17e5 50       		.byte	0x50
 5968 17e6 02       		.uleb128 0x2
 5969 17e7 78       		.byte	0x78
 5970 17e8 00       		.sleb128 0
 5971 17e9 00       		.byte	0
 5972 17ea 00       		.byte	0
 5973 17eb 00       		.byte	0
 5974 17ec 00       		.byte	0
 5975 17ed 2C       		.uleb128 0x2c
 5976 17ee 18000000 		.4byte	.Ldebug_ranges0+0x18
 5977 17f2 7F1D0000 		.4byte	0x1d7f
 5978 17f6 20       		.uleb128 0x20
 5979 17f7 787400   		.ascii	"xt\000"
 5980 17fa 01       		.byte	0x1
 5981 17fb 3301     		.2byte	0x133
 5982 17fd 02010000 		.4byte	0x102
 5983 1801 20       		.uleb128 0x20
 5984 1802 797400   		.ascii	"yt\000"
 5985 1805 01       		.byte	0x1
 5986 1806 3401     		.2byte	0x134
 5987 1808 02010000 		.4byte	0x102
 5988 180c 41       		.uleb128 0x41
 5989 180d 787300   		.ascii	"xs\000"
 5990 1810 01       		.byte	0x1
 5991 1811 3701     		.2byte	0x137
 5992 1813 02010000 		.4byte	0x102
 5993 1817 F2090000 		.4byte	.LLST69
 5994 181b 20       		.uleb128 0x20
 5995 181c 797300   		.ascii	"ys\000"
 5996 181f 01       		.byte	0x1
 5997 1820 3801     		.2byte	0x138
 5998 1822 02010000 		.4byte	0x102
 5999 1826 44       		.uleb128 0x44
 6000 1827 CB110000 		.4byte	.LASF291
 6001 182b 01       		.byte	0x1
ARM GAS  C:\Users\pearlstl\AppData\Local\Temp\ccQFxYtd.s 			page 143


 6002 182c 3B01     		.2byte	0x13b
 6003 182e 2C000000 		.4byte	0x2c
 6004 1832 720A0000 		.4byte	.LLST70
 6005 1836 49       		.uleb128 0x49
 6006 1837 9F090000 		.4byte	.LASF292
 6007 183b 01       		.byte	0x1
 6008 183c 3C01     		.2byte	0x13c
 6009 183e 2C000000 		.4byte	0x2c
 6010 1842 44       		.uleb128 0x44
 6011 1843 B0070000 		.4byte	.LASF293
 6012 1847 01       		.byte	0x1
 6013 1848 4901     		.2byte	0x149
 6014 184a 2C000000 		.4byte	0x2c
 6015 184e BA0A0000 		.4byte	.LLST71
 6016 1852 49       		.uleb128 0x49
 6017 1853 5D000000 		.4byte	.LASF294
 6018 1857 01       		.byte	0x1
 6019 1858 4A01     		.2byte	0x14a
 6020 185a 2C000000 		.4byte	0x2c
 6021 185e 41       		.uleb128 0x41
 6022 185f 786E00   		.ascii	"xn\000"
 6023 1862 01       		.byte	0x1
 6024 1863 5001     		.2byte	0x150
 6025 1865 2C000000 		.4byte	0x2c
 6026 1869 EE0A0000 		.4byte	.LLST72
 6027 186d 41       		.uleb128 0x41
 6028 186e 787200   		.ascii	"xr\000"
 6029 1871 01       		.byte	0x1
 6030 1872 5101     		.2byte	0x151
 6031 1874 0C030000 		.4byte	0x30c
 6032 1878 330B0000 		.4byte	.LLST73
 6033 187c 41       		.uleb128 0x41
 6034 187d 796E00   		.ascii	"yn\000"
 6035 1880 01       		.byte	0x1
 6036 1881 6301     		.2byte	0x163
 6037 1883 2C000000 		.4byte	0x2c
 6038 1887 9B0B0000 		.4byte	.LLST74
 6039 188b 20       		.uleb128 0x20
 6040 188c 797200   		.ascii	"yr\000"
 6041 188f 01       		.byte	0x1
 6042 1890 6401     		.2byte	0x164
 6043 1892 0C030000 		.4byte	0x30c
 6044 1896 44       		.uleb128 0x44
 6045 1897 69060000 		.4byte	.LASF295
 6046 189b 01       		.byte	0x1
 6047 189c 7701     		.2byte	0x177
 6048 189e 00030000 		.4byte	0x300
 6049 18a2 C60B0000 		.4byte	.LLST75
 6050 18a6 44       		.uleb128 0x44
 6051 18a7 91130000 		.4byte	.LASF296
 6052 18ab 01       		.byte	0x1
 6053 18ac 7E01     		.2byte	0x17e
 6054 18ae 00030000 		.4byte	0x300
 6055 18b2 FA0B0000 		.4byte	.LLST76
 6056 18b6 44       		.uleb128 0x44
 6057 18b7 21140000 		.4byte	.LASF297
 6058 18bb 01       		.byte	0x1
ARM GAS  C:\Users\pearlstl\AppData\Local\Temp\ccQFxYtd.s 			page 144


 6059 18bc 7F01     		.2byte	0x17f
 6060 18be 00030000 		.4byte	0x300
 6061 18c2 180C0000 		.4byte	.LLST77
 6062 18c6 42       		.uleb128 0x42
 6063 18c7 E1100000 		.4byte	.LASF298
 6064 18cb 01       		.byte	0x1
 6065 18cc 8001     		.2byte	0x180
 6066 18ce 00030000 		.4byte	0x300
 6067 18d2 07       		.uleb128 0x7
 6068 18d3 93       		.byte	0x93
 6069 18d4 03       		.uleb128 0x3
 6070 18d5 09       		.byte	0x9
 6071 18d6 FF       		.byte	0xff
 6072 18d7 9F       		.byte	0x9f
 6073 18d8 93       		.byte	0x93
 6074 18d9 01       		.uleb128 0x1
 6075 18da 42       		.uleb128 0x42
 6076 18db 37090000 		.4byte	.LASF299
 6077 18df 01       		.byte	0x1
 6078 18e0 8101     		.2byte	0x181
 6079 18e2 00030000 		.4byte	0x300
 6080 18e6 07       		.uleb128 0x7
 6081 18e7 93       		.byte	0x93
 6082 18e8 03       		.uleb128 0x3
 6083 18e9 09       		.byte	0x9
 6084 18ea FF       		.byte	0xff
 6085 18eb 9F       		.byte	0x9f
 6086 18ec 93       		.byte	0x93
 6087 18ed 01       		.uleb128 0x1
 6088 18ee 44       		.uleb128 0x44
 6089 18ef 8E010000 		.4byte	.LASF300
 6090 18f3 01       		.byte	0x1
 6091 18f4 8201     		.2byte	0x182
 6092 18f6 00030000 		.4byte	0x300
 6093 18fa 410C0000 		.4byte	.LLST78
 6094 18fe 2C       		.uleb128 0x2c
 6095 18ff 38000000 		.4byte	.Ldebug_ranges0+0x38
 6096 1903 261C0000 		.4byte	0x1c26
 6097 1907 44       		.uleb128 0x44
 6098 1908 B90B0000 		.4byte	.LASF301
 6099 190c 01       		.byte	0x1
 6100 190d 8A01     		.2byte	0x18a
 6101 190f 0C030000 		.4byte	0x30c
 6102 1913 EC0C0000 		.4byte	.LLST79
 6103 1917 44       		.uleb128 0x44
 6104 1918 FE020000 		.4byte	.LASF302
 6105 191c 01       		.byte	0x1
 6106 191d 8B01     		.2byte	0x18b
 6107 191f 0C030000 		.4byte	0x30c
 6108 1923 010D0000 		.4byte	.LLST80
 6109 1927 44       		.uleb128 0x44
 6110 1928 7C030000 		.4byte	.LASF303
 6111 192c 01       		.byte	0x1
 6112 192d 8C01     		.2byte	0x18c
 6113 192f 0C030000 		.4byte	0x30c
 6114 1933 160D0000 		.4byte	.LLST81
 6115 1937 44       		.uleb128 0x44
ARM GAS  C:\Users\pearlstl\AppData\Local\Temp\ccQFxYtd.s 			page 145


 6116 1938 580E0000 		.4byte	.LASF304
 6117 193c 01       		.byte	0x1
 6118 193d 8D01     		.2byte	0x18d
 6119 193f 0C030000 		.4byte	0x30c
 6120 1943 290D0000 		.4byte	.LLST82
 6121 1947 44       		.uleb128 0x44
 6122 1948 5E0E0000 		.4byte	.LASF305
 6123 194c 01       		.byte	0x1
 6124 194d 8E01     		.2byte	0x18e
 6125 194f 0C030000 		.4byte	0x30c
 6126 1953 5C0D0000 		.4byte	.LLST83
 6127 1957 44       		.uleb128 0x44
 6128 1958 8B030000 		.4byte	.LASF306
 6129 195c 01       		.byte	0x1
 6130 195d 8F01     		.2byte	0x18f
 6131 195f 0C030000 		.4byte	0x30c
 6132 1963 8C0D0000 		.4byte	.LLST84
 6133 1967 44       		.uleb128 0x44
 6134 1968 33130000 		.4byte	.LASF307
 6135 196c 01       		.byte	0x1
 6136 196d 9201     		.2byte	0x192
 6137 196f 00030000 		.4byte	0x300
 6138 1973 AC0D0000 		.4byte	.LLST85
 6139 1977 4A       		.uleb128 0x4a
 6140 1978 AD0E0000 		.4byte	0xead
 6141 197c 1C040000 		.4byte	.LBB77
 6142 1980 42000000 		.4byte	.LBE77-.LBB77
 6143 1984 01       		.byte	0x1
 6144 1985 9701     		.2byte	0x197
 6145 1987 A4190000 		.4byte	0x19a4
 6146 198b 2A       		.uleb128 0x2a
 6147 198c D40E0000 		.4byte	0xed4
 6148 1990 060E0000 		.4byte	.LLST86
 6149 1994 3F       		.uleb128 0x3f
 6150 1995 1C040000 		.4byte	.LBB78
 6151 1999 42000000 		.4byte	.LBE78-.LBB78
 6152 199d 30       		.uleb128 0x30
 6153 199e E00E0000 		.4byte	0xee0
 6154 19a2 00       		.byte	0
 6155 19a3 00       		.byte	0
 6156 19a4 4B       		.uleb128 0x4b
 6157 19a5 80040000 		.4byte	.LBB79
 6158 19a9 22010000 		.4byte	.LBE79-.LBB79
 6159 19ad 4E1B0000 		.4byte	0x1b4e
 6160 19b1 44       		.uleb128 0x44
 6161 19b2 93030000 		.4byte	.LASF308
 6162 19b6 01       		.byte	0x1
 6163 19b7 9D01     		.2byte	0x19d
 6164 19b9 0C030000 		.4byte	0x30c
 6165 19bd 1B0E0000 		.4byte	.LLST87
 6166 19c1 4B       		.uleb128 0x4b
 6167 19c2 B4040000 		.4byte	.LBB80
 6168 19c6 90000000 		.4byte	.LBE80-.LBB80
 6169 19ca 701A0000 		.4byte	0x1a70
 6170 19ce 44       		.uleb128 0x44
 6171 19cf 44060000 		.4byte	.LASF309
 6172 19d3 01       		.byte	0x1
ARM GAS  C:\Users\pearlstl\AppData\Local\Temp\ccQFxYtd.s 			page 146


 6173 19d4 AE01     		.2byte	0x1ae
 6174 19d6 0C030000 		.4byte	0x30c
 6175 19da 440E0000 		.4byte	.LLST88
 6176 19de 44       		.uleb128 0x44
 6177 19df 31020000 		.4byte	.LASF310
 6178 19e3 01       		.byte	0x1
 6179 19e4 B201     		.2byte	0x1b2
 6180 19e6 0C030000 		.4byte	0x30c
 6181 19ea 640E0000 		.4byte	.LLST89
 6182 19ee 4C       		.uleb128 0x4c
 6183 19ef AD0E0000 		.4byte	0xead
 6184 19f3 D6040000 		.4byte	.LBB81
 6185 19f7 58000000 		.4byte	.Ldebug_ranges0+0x58
 6186 19fb 01       		.byte	0x1
 6187 19fc B401     		.2byte	0x1b4
 6188 19fe 171A0000 		.4byte	0x1a17
 6189 1a02 2A       		.uleb128 0x2a
 6190 1a03 D40E0000 		.4byte	0xed4
 6191 1a07 970E0000 		.4byte	.LLST90
 6192 1a0b 2F       		.uleb128 0x2f
 6193 1a0c 58000000 		.4byte	.Ldebug_ranges0+0x58
 6194 1a10 30       		.uleb128 0x30
 6195 1a11 E00E0000 		.4byte	0xee0
 6196 1a15 00       		.byte	0
 6197 1a16 00       		.byte	0
 6198 1a17 39       		.uleb128 0x39
 6199 1a18 36050000 		.4byte	.LVL190
 6200 1a1c 2B2B0000 		.4byte	0x2b2b
 6201 1a20 441A0000 		.4byte	0x1a44
 6202 1a24 32       		.uleb128 0x32
 6203 1a25 01       		.uleb128 0x1
 6204 1a26 50       		.byte	0x50
 6205 1a27 02       		.uleb128 0x2
 6206 1a28 77       		.byte	0x77
 6207 1a29 00       		.sleb128 0
 6208 1a2a 32       		.uleb128 0x32
 6209 1a2b 01       		.uleb128 0x1
 6210 1a2c 51       		.byte	0x51
 6211 1a2d 05       		.uleb128 0x5
 6212 1a2e 91       		.byte	0x91
 6213 1a2f E47E     		.sleb128 -156
 6214 1a31 94       		.byte	0x94
 6215 1a32 02       		.byte	0x2
 6216 1a33 32       		.uleb128 0x32
 6217 1a34 01       		.uleb128 0x1
 6218 1a35 52       		.byte	0x52
 6219 1a36 05       		.uleb128 0x5
 6220 1a37 91       		.byte	0x91
 6221 1a38 F87E     		.sleb128 -136
 6222 1a3a 94       		.byte	0x94
 6223 1a3b 02       		.byte	0x2
 6224 1a3c 32       		.uleb128 0x32
 6225 1a3d 01       		.uleb128 0x1
 6226 1a3e 53       		.byte	0x53
 6227 1a3f 03       		.uleb128 0x3
 6228 1a40 91       		.byte	0x91
 6229 1a41 48       		.sleb128 -56
ARM GAS  C:\Users\pearlstl\AppData\Local\Temp\ccQFxYtd.s 			page 147


 6230 1a42 06       		.byte	0x6
 6231 1a43 00       		.byte	0
 6232 1a44 3A       		.uleb128 0x3a
 6233 1a45 42050000 		.4byte	.LVL191
 6234 1a49 792B0000 		.4byte	0x2b79
 6235 1a4d 32       		.uleb128 0x32
 6236 1a4e 01       		.uleb128 0x1
 6237 1a4f 50       		.byte	0x50
 6238 1a50 02       		.uleb128 0x2
 6239 1a51 77       		.byte	0x77
 6240 1a52 00       		.sleb128 0
 6241 1a53 32       		.uleb128 0x32
 6242 1a54 01       		.uleb128 0x1
 6243 1a55 51       		.byte	0x51
 6244 1a56 05       		.uleb128 0x5
 6245 1a57 91       		.byte	0x91
 6246 1a58 E47E     		.sleb128 -156
 6247 1a5a 94       		.byte	0x94
 6248 1a5b 02       		.byte	0x2
 6249 1a5c 32       		.uleb128 0x32
 6250 1a5d 01       		.uleb128 0x1
 6251 1a5e 52       		.byte	0x52
 6252 1a5f 05       		.uleb128 0x5
 6253 1a60 91       		.byte	0x91
 6254 1a61 F87E     		.sleb128 -136
 6255 1a63 94       		.byte	0x94
 6256 1a64 02       		.byte	0x2
 6257 1a65 32       		.uleb128 0x32
 6258 1a66 01       		.uleb128 0x1
 6259 1a67 53       		.byte	0x53
 6260 1a68 05       		.uleb128 0x5
 6261 1a69 91       		.byte	0x91
 6262 1a6a 887F     		.sleb128 -120
 6263 1a6c 94       		.byte	0x94
 6264 1a6d 01       		.byte	0x1
 6265 1a6e 00       		.byte	0
 6266 1a6f 00       		.byte	0
 6267 1a70 4A       		.uleb128 0x4a
 6268 1a71 AD0E0000 		.4byte	0xead
 6269 1a75 44050000 		.4byte	.LBB85
 6270 1a79 50000000 		.4byte	.LBE85-.LBB85
 6271 1a7d 01       		.byte	0x1
 6272 1a7e A601     		.2byte	0x1a6
 6273 1a80 9D1A0000 		.4byte	0x1a9d
 6274 1a84 2A       		.uleb128 0x2a
 6275 1a85 D40E0000 		.4byte	0xed4
 6276 1a89 CA0E0000 		.4byte	.LLST91
 6277 1a8d 3F       		.uleb128 0x3f
 6278 1a8e 44050000 		.4byte	.LBB86
 6279 1a92 50000000 		.4byte	.LBE86-.LBB86
 6280 1a96 30       		.uleb128 0x30
 6281 1a97 E00E0000 		.4byte	0xee0
 6282 1a9b 00       		.byte	0
 6283 1a9c 00       		.byte	0
 6284 1a9d 39       		.uleb128 0x39
 6285 1a9e 8A040000 		.4byte	.LVL176
 6286 1aa2 842B0000 		.4byte	0x2b84
ARM GAS  C:\Users\pearlstl\AppData\Local\Temp\ccQFxYtd.s 			page 148


 6287 1aa6 C51A0000 		.4byte	0x1ac5
 6288 1aaa 32       		.uleb128 0x32
 6289 1aab 01       		.uleb128 0x1
 6290 1aac 50       		.byte	0x50
 6291 1aad 04       		.uleb128 0x4
 6292 1aae 91       		.byte	0x91
 6293 1aaf F07E     		.sleb128 -144
 6294 1ab1 06       		.byte	0x6
 6295 1ab2 32       		.uleb128 0x32
 6296 1ab3 01       		.uleb128 0x1
 6297 1ab4 51       		.byte	0x51
 6298 1ab5 05       		.uleb128 0x5
 6299 1ab6 91       		.byte	0x91
 6300 1ab7 E47E     		.sleb128 -156
 6301 1ab9 94       		.byte	0x94
 6302 1aba 02       		.byte	0x2
 6303 1abb 32       		.uleb128 0x32
 6304 1abc 01       		.uleb128 0x1
 6305 1abd 52       		.byte	0x52
 6306 1abe 05       		.uleb128 0x5
 6307 1abf 91       		.byte	0x91
 6308 1ac0 F87E     		.sleb128 -136
 6309 1ac2 94       		.byte	0x94
 6310 1ac3 02       		.byte	0x2
 6311 1ac4 00       		.byte	0
 6312 1ac5 39       		.uleb128 0x39
 6313 1ac6 A2040000 		.4byte	.LVL179
 6314 1aca 2B2B0000 		.4byte	0x2b2b
 6315 1ace F31A0000 		.4byte	0x1af3
 6316 1ad2 32       		.uleb128 0x32
 6317 1ad3 01       		.uleb128 0x1
 6318 1ad4 50       		.byte	0x50
 6319 1ad5 02       		.uleb128 0x2
 6320 1ad6 77       		.byte	0x77
 6321 1ad7 00       		.sleb128 0
 6322 1ad8 32       		.uleb128 0x32
 6323 1ad9 01       		.uleb128 0x1
 6324 1ada 51       		.byte	0x51
 6325 1adb 05       		.uleb128 0x5
 6326 1adc 91       		.byte	0x91
 6327 1add E47E     		.sleb128 -156
 6328 1adf 94       		.byte	0x94
 6329 1ae0 02       		.byte	0x2
 6330 1ae1 32       		.uleb128 0x32
 6331 1ae2 01       		.uleb128 0x1
 6332 1ae3 52       		.byte	0x52
 6333 1ae4 05       		.uleb128 0x5
 6334 1ae5 91       		.byte	0x91
 6335 1ae6 F87E     		.sleb128 -136
 6336 1ae8 94       		.byte	0x94
 6337 1ae9 02       		.byte	0x2
 6338 1aea 32       		.uleb128 0x32
 6339 1aeb 01       		.uleb128 0x1
 6340 1aec 53       		.byte	0x53
 6341 1aed 04       		.uleb128 0x4
 6342 1aee 91       		.byte	0x91
 6343 1aef 987F     		.sleb128 -104
ARM GAS  C:\Users\pearlstl\AppData\Local\Temp\ccQFxYtd.s 			page 149


 6344 1af1 06       		.byte	0x6
 6345 1af2 00       		.byte	0
 6346 1af3 39       		.uleb128 0x39
 6347 1af4 AE040000 		.4byte	.LVL180
 6348 1af8 792B0000 		.4byte	0x2b79
 6349 1afc 221B0000 		.4byte	0x1b22
 6350 1b00 32       		.uleb128 0x32
 6351 1b01 01       		.uleb128 0x1
 6352 1b02 50       		.byte	0x50
 6353 1b03 02       		.uleb128 0x2
 6354 1b04 77       		.byte	0x77
 6355 1b05 00       		.sleb128 0
 6356 1b06 32       		.uleb128 0x32
 6357 1b07 01       		.uleb128 0x1
 6358 1b08 51       		.byte	0x51
 6359 1b09 05       		.uleb128 0x5
 6360 1b0a 91       		.byte	0x91
 6361 1b0b E47E     		.sleb128 -156
 6362 1b0d 94       		.byte	0x94
 6363 1b0e 02       		.byte	0x2
 6364 1b0f 32       		.uleb128 0x32
 6365 1b10 01       		.uleb128 0x1
 6366 1b11 52       		.byte	0x52
 6367 1b12 05       		.uleb128 0x5
 6368 1b13 91       		.byte	0x91
 6369 1b14 F87E     		.sleb128 -136
 6370 1b16 94       		.byte	0x94
 6371 1b17 02       		.byte	0x2
 6372 1b18 32       		.uleb128 0x32
 6373 1b19 01       		.uleb128 0x1
 6374 1b1a 53       		.byte	0x53
 6375 1b1b 05       		.uleb128 0x5
 6376 1b1c 91       		.byte	0x91
 6377 1b1d 907F     		.sleb128 -112
 6378 1b1f 94       		.byte	0x94
 6379 1b20 01       		.byte	0x1
 6380 1b21 00       		.byte	0
 6381 1b22 3A       		.uleb128 0x3a
 6382 1b23 A0050000 		.4byte	.LVL196
 6383 1b27 2B2B0000 		.4byte	0x2b2b
 6384 1b2b 32       		.uleb128 0x32
 6385 1b2c 01       		.uleb128 0x1
 6386 1b2d 50       		.byte	0x50
 6387 1b2e 04       		.uleb128 0x4
 6388 1b2f 91       		.byte	0x91
 6389 1b30 F07E     		.sleb128 -144
 6390 1b32 06       		.byte	0x6
 6391 1b33 32       		.uleb128 0x32
 6392 1b34 01       		.uleb128 0x1
 6393 1b35 51       		.byte	0x51
 6394 1b36 05       		.uleb128 0x5
 6395 1b37 91       		.byte	0x91
 6396 1b38 E47E     		.sleb128 -156
 6397 1b3a 94       		.byte	0x94
 6398 1b3b 02       		.byte	0x2
 6399 1b3c 32       		.uleb128 0x32
 6400 1b3d 01       		.uleb128 0x1
ARM GAS  C:\Users\pearlstl\AppData\Local\Temp\ccQFxYtd.s 			page 150


 6401 1b3e 52       		.byte	0x52
 6402 1b3f 05       		.uleb128 0x5
 6403 1b40 91       		.byte	0x91
 6404 1b41 F87E     		.sleb128 -136
 6405 1b43 94       		.byte	0x94
 6406 1b44 02       		.byte	0x2
 6407 1b45 32       		.uleb128 0x32
 6408 1b46 01       		.uleb128 0x1
 6409 1b47 53       		.byte	0x53
 6410 1b48 03       		.uleb128 0x3
 6411 1b49 91       		.byte	0x91
 6412 1b4a 4C       		.sleb128 -52
 6413 1b4b 06       		.byte	0x6
 6414 1b4c 00       		.byte	0
 6415 1b4d 00       		.byte	0
 6416 1b4e 39       		.uleb128 0x39
 6417 1b4f 90030000 		.4byte	.LVL152
 6418 1b53 842B0000 		.4byte	0x2b84
 6419 1b57 741B0000 		.4byte	0x1b74
 6420 1b5b 32       		.uleb128 0x32
 6421 1b5c 01       		.uleb128 0x1
 6422 1b5d 50       		.byte	0x50
 6423 1b5e 02       		.uleb128 0x2
 6424 1b5f 77       		.byte	0x77
 6425 1b60 00       		.sleb128 0
 6426 1b61 32       		.uleb128 0x32
 6427 1b62 01       		.uleb128 0x1
 6428 1b63 51       		.byte	0x51
 6429 1b64 05       		.uleb128 0x5
 6430 1b65 91       		.byte	0x91
 6431 1b66 907F     		.sleb128 -112
 6432 1b68 94       		.byte	0x94
 6433 1b69 02       		.byte	0x2
 6434 1b6a 32       		.uleb128 0x32
 6435 1b6b 01       		.uleb128 0x1
 6436 1b6c 52       		.byte	0x52
 6437 1b6d 05       		.uleb128 0x5
 6438 1b6e 91       		.byte	0x91
 6439 1b6f 947F     		.sleb128 -108
 6440 1b71 94       		.byte	0x94
 6441 1b72 02       		.byte	0x2
 6442 1b73 00       		.byte	0
 6443 1b74 39       		.uleb128 0x39
 6444 1b75 9C030000 		.4byte	.LVL154
 6445 1b79 842B0000 		.4byte	0x2b84
 6446 1b7d 9A1B0000 		.4byte	0x1b9a
 6447 1b81 32       		.uleb128 0x32
 6448 1b82 01       		.uleb128 0x1
 6449 1b83 50       		.byte	0x50
 6450 1b84 02       		.uleb128 0x2
 6451 1b85 77       		.byte	0x77
 6452 1b86 00       		.sleb128 0
 6453 1b87 32       		.uleb128 0x32
 6454 1b88 01       		.uleb128 0x1
 6455 1b89 51       		.byte	0x51
 6456 1b8a 05       		.uleb128 0x5
 6457 1b8b 91       		.byte	0x91
ARM GAS  C:\Users\pearlstl\AppData\Local\Temp\ccQFxYtd.s 			page 151


 6458 1b8c B87F     		.sleb128 -72
 6459 1b8e 94       		.byte	0x94
 6460 1b8f 02       		.byte	0x2
 6461 1b90 32       		.uleb128 0x32
 6462 1b91 01       		.uleb128 0x1
 6463 1b92 52       		.byte	0x52
 6464 1b93 05       		.uleb128 0x5
 6465 1b94 91       		.byte	0x91
 6466 1b95 947F     		.sleb128 -108
 6467 1b97 94       		.byte	0x94
 6468 1b98 02       		.byte	0x2
 6469 1b99 00       		.byte	0
 6470 1b9a 39       		.uleb128 0x39
 6471 1b9b A8030000 		.4byte	.LVL156
 6472 1b9f 842B0000 		.4byte	0x2b84
 6473 1ba3 C01B0000 		.4byte	0x1bc0
 6474 1ba7 32       		.uleb128 0x32
 6475 1ba8 01       		.uleb128 0x1
 6476 1ba9 50       		.byte	0x50
 6477 1baa 02       		.uleb128 0x2
 6478 1bab 77       		.byte	0x77
 6479 1bac 00       		.sleb128 0
 6480 1bad 32       		.uleb128 0x32
 6481 1bae 01       		.uleb128 0x1
 6482 1baf 51       		.byte	0x51
 6483 1bb0 05       		.uleb128 0x5
 6484 1bb1 91       		.byte	0x91
 6485 1bb2 907F     		.sleb128 -112
 6486 1bb4 94       		.byte	0x94
 6487 1bb5 02       		.byte	0x2
 6488 1bb6 32       		.uleb128 0x32
 6489 1bb7 01       		.uleb128 0x1
 6490 1bb8 52       		.byte	0x52
 6491 1bb9 05       		.uleb128 0x5
 6492 1bba 91       		.byte	0x91
 6493 1bbb BC7F     		.sleb128 -68
 6494 1bbd 94       		.byte	0x94
 6495 1bbe 02       		.byte	0x2
 6496 1bbf 00       		.byte	0
 6497 1bc0 39       		.uleb128 0x39
 6498 1bc1 EE030000 		.4byte	.LVL161
 6499 1bc5 652B0000 		.4byte	0x2b65
 6500 1bc9 F01B0000 		.4byte	0x1bf0
 6501 1bcd 32       		.uleb128 0x32
 6502 1bce 01       		.uleb128 0x1
 6503 1bcf 50       		.byte	0x50
 6504 1bd0 04       		.uleb128 0x4
 6505 1bd1 91       		.byte	0x91
 6506 1bd2 F07E     		.sleb128 -144
 6507 1bd4 06       		.byte	0x6
 6508 1bd5 32       		.uleb128 0x32
 6509 1bd6 01       		.uleb128 0x1
 6510 1bd7 51       		.byte	0x51
 6511 1bd8 05       		.uleb128 0x5
 6512 1bd9 91       		.byte	0x91
 6513 1bda E47E     		.sleb128 -156
 6514 1bdc 94       		.byte	0x94
ARM GAS  C:\Users\pearlstl\AppData\Local\Temp\ccQFxYtd.s 			page 152


 6515 1bdd 02       		.byte	0x2
 6516 1bde 32       		.uleb128 0x32
 6517 1bdf 01       		.uleb128 0x1
 6518 1be0 52       		.byte	0x52
 6519 1be1 05       		.uleb128 0x5
 6520 1be2 91       		.byte	0x91
 6521 1be3 F87E     		.sleb128 -136
 6522 1be5 94       		.byte	0x94
 6523 1be6 02       		.byte	0x2
 6524 1be7 32       		.uleb128 0x32
 6525 1be8 01       		.uleb128 0x1
 6526 1be9 53       		.byte	0x53
 6527 1bea 04       		.uleb128 0x4
 6528 1beb 91       		.byte	0x91
 6529 1bec 847F     		.sleb128 -124
 6530 1bee 06       		.byte	0x6
 6531 1bef 00       		.byte	0
 6532 1bf0 45       		.uleb128 0x45
 6533 1bf1 12040000 		.4byte	.LVL166
 6534 1bf5 8F2B0000 		.4byte	0x2b8f
 6535 1bf9 3A       		.uleb128 0x3a
 6536 1bfa 7E040000 		.4byte	.LVL174
 6537 1bfe 2B2B0000 		.4byte	0x2b2b
 6538 1c02 32       		.uleb128 0x32
 6539 1c03 01       		.uleb128 0x1
 6540 1c04 50       		.byte	0x50
 6541 1c05 04       		.uleb128 0x4
 6542 1c06 91       		.byte	0x91
 6543 1c07 F07E     		.sleb128 -144
 6544 1c09 06       		.byte	0x6
 6545 1c0a 32       		.uleb128 0x32
 6546 1c0b 01       		.uleb128 0x1
 6547 1c0c 51       		.byte	0x51
 6548 1c0d 05       		.uleb128 0x5
 6549 1c0e 91       		.byte	0x91
 6550 1c0f E47E     		.sleb128 -156
 6551 1c11 94       		.byte	0x94
 6552 1c12 02       		.byte	0x2
 6553 1c13 32       		.uleb128 0x32
 6554 1c14 01       		.uleb128 0x1
 6555 1c15 52       		.byte	0x52
 6556 1c16 05       		.uleb128 0x5
 6557 1c17 91       		.byte	0x91
 6558 1c18 F87E     		.sleb128 -136
 6559 1c1a 94       		.byte	0x94
 6560 1c1b 02       		.byte	0x2
 6561 1c1c 32       		.uleb128 0x32
 6562 1c1d 01       		.uleb128 0x1
 6563 1c1e 53       		.byte	0x53
 6564 1c1f 04       		.uleb128 0x4
 6565 1c20 91       		.byte	0x91
 6566 1c21 987F     		.sleb128 -104
 6567 1c23 06       		.byte	0x6
 6568 1c24 00       		.byte	0
 6569 1c25 00       		.byte	0
 6570 1c26 2C       		.uleb128 0x2c
 6571 1c27 70000000 		.4byte	.Ldebug_ranges0+0x70
ARM GAS  C:\Users\pearlstl\AppData\Local\Temp\ccQFxYtd.s 			page 153


 6572 1c2b 3E1C0000 		.4byte	0x1c3e
 6573 1c2f 43       		.uleb128 0x43
 6574 1c30 637400   		.ascii	"ct\000"
 6575 1c33 01       		.byte	0x1
 6576 1c34 7A01     		.2byte	0x17a
 6577 1c36 00030000 		.4byte	0x300
 6578 1c3a 02       		.uleb128 0x2
 6579 1c3b 91       		.byte	0x91
 6580 1c3c 54       		.sleb128 -44
 6581 1c3d 00       		.byte	0
 6582 1c3e 4C       		.uleb128 0x4c
 6583 1c3f AD0E0000 		.4byte	0xead
 6584 1c43 14020000 		.4byte	.LBB90
 6585 1c47 88000000 		.4byte	.Ldebug_ranges0+0x88
 6586 1c4b 01       		.byte	0x1
 6587 1c4c 8001     		.2byte	0x180
 6588 1c4e 671C0000 		.4byte	0x1c67
 6589 1c52 2A       		.uleb128 0x2a
 6590 1c53 D40E0000 		.4byte	0xed4
 6591 1c57 DF0E0000 		.4byte	.LLST92
 6592 1c5b 2F       		.uleb128 0x2f
 6593 1c5c 88000000 		.4byte	.Ldebug_ranges0+0x88
 6594 1c60 30       		.uleb128 0x30
 6595 1c61 E00E0000 		.4byte	0xee0
 6596 1c65 00       		.byte	0
 6597 1c66 00       		.byte	0
 6598 1c67 4C       		.uleb128 0x4c
 6599 1c68 AD0E0000 		.4byte	0xead
 6600 1c6c 28020000 		.4byte	.LBB101
 6601 1c70 D0000000 		.4byte	.Ldebug_ranges0+0xd0
 6602 1c74 01       		.byte	0x1
 6603 1c75 8101     		.2byte	0x181
 6604 1c77 8C1C0000 		.4byte	0x1c8c
 6605 1c7b 3D       		.uleb128 0x3d
 6606 1c7c D40E0000 		.4byte	0xed4
 6607 1c80 2F       		.uleb128 0x2f
 6608 1c81 D0000000 		.4byte	.Ldebug_ranges0+0xd0
 6609 1c85 30       		.uleb128 0x30
 6610 1c86 E00E0000 		.4byte	0xee0
 6611 1c8a 00       		.byte	0
 6612 1c8b 00       		.byte	0
 6613 1c8c 4C       		.uleb128 0x4c
 6614 1c8d AD0E0000 		.4byte	0xead
 6615 1c91 2A020000 		.4byte	.LBB108
 6616 1c95 08010000 		.4byte	.Ldebug_ranges0+0x108
 6617 1c99 01       		.byte	0x1
 6618 1c9a 8201     		.2byte	0x182
 6619 1c9c B51C0000 		.4byte	0x1cb5
 6620 1ca0 2A       		.uleb128 0x2a
 6621 1ca1 D40E0000 		.4byte	0xed4
 6622 1ca5 F40E0000 		.4byte	.LLST93
 6623 1ca9 2F       		.uleb128 0x2f
 6624 1caa 08010000 		.4byte	.Ldebug_ranges0+0x108
 6625 1cae 30       		.uleb128 0x30
 6626 1caf E00E0000 		.4byte	0xee0
 6627 1cb3 00       		.byte	0
 6628 1cb4 00       		.byte	0
ARM GAS  C:\Users\pearlstl\AppData\Local\Temp\ccQFxYtd.s 			page 154


 6629 1cb5 39       		.uleb128 0x39
 6630 1cb6 DC010000 		.4byte	.LVL120
 6631 1cba 652B0000 		.4byte	0x2b65
 6632 1cbe E31C0000 		.4byte	0x1ce3
 6633 1cc2 32       		.uleb128 0x32
 6634 1cc3 01       		.uleb128 0x1
 6635 1cc4 50       		.byte	0x50
 6636 1cc5 02       		.uleb128 0x2
 6637 1cc6 77       		.byte	0x77
 6638 1cc7 00       		.sleb128 0
 6639 1cc8 32       		.uleb128 0x32
 6640 1cc9 01       		.uleb128 0x1
 6641 1cca 51       		.byte	0x51
 6642 1ccb 05       		.uleb128 0x5
 6643 1ccc 91       		.byte	0x91
 6644 1ccd 907F     		.sleb128 -112
 6645 1ccf 94       		.byte	0x94
 6646 1cd0 02       		.byte	0x2
 6647 1cd1 32       		.uleb128 0x32
 6648 1cd2 01       		.uleb128 0x1
 6649 1cd3 52       		.byte	0x52
 6650 1cd4 05       		.uleb128 0x5
 6651 1cd5 91       		.byte	0x91
 6652 1cd6 947F     		.sleb128 -108
 6653 1cd8 94       		.byte	0x94
 6654 1cd9 02       		.byte	0x2
 6655 1cda 32       		.uleb128 0x32
 6656 1cdb 01       		.uleb128 0x1
 6657 1cdc 53       		.byte	0x53
 6658 1cdd 04       		.uleb128 0x4
 6659 1cde 91       		.byte	0x91
 6660 1cdf 847F     		.sleb128 -124
 6661 1ce1 06       		.byte	0x6
 6662 1ce2 00       		.byte	0
 6663 1ce3 45       		.uleb128 0x45
 6664 1ce4 E8010000 		.4byte	.LVL121
 6665 1ce8 9A2B0000 		.4byte	0x2b9a
 6666 1cec 39       		.uleb128 0x39
 6667 1ced 12020000 		.4byte	.LVL124
 6668 1cf1 652B0000 		.4byte	0x2b65
 6669 1cf5 1C1D0000 		.4byte	0x1d1c
 6670 1cf9 32       		.uleb128 0x32
 6671 1cfa 01       		.uleb128 0x1
 6672 1cfb 50       		.byte	0x50
 6673 1cfc 04       		.uleb128 0x4
 6674 1cfd 91       		.byte	0x91
 6675 1cfe 807F     		.sleb128 -128
 6676 1d00 06       		.byte	0x6
 6677 1d01 32       		.uleb128 0x32
 6678 1d02 01       		.uleb128 0x1
 6679 1d03 51       		.byte	0x51
 6680 1d04 05       		.uleb128 0x5
 6681 1d05 91       		.byte	0x91
 6682 1d06 B87F     		.sleb128 -72
 6683 1d08 94       		.byte	0x94
 6684 1d09 02       		.byte	0x2
 6685 1d0a 32       		.uleb128 0x32
ARM GAS  C:\Users\pearlstl\AppData\Local\Temp\ccQFxYtd.s 			page 155


 6686 1d0b 01       		.uleb128 0x1
 6687 1d0c 52       		.byte	0x52
 6688 1d0d 05       		.uleb128 0x5
 6689 1d0e 91       		.byte	0x91
 6690 1d0f 947F     		.sleb128 -108
 6691 1d11 94       		.byte	0x94
 6692 1d12 02       		.byte	0x2
 6693 1d13 32       		.uleb128 0x32
 6694 1d14 01       		.uleb128 0x1
 6695 1d15 53       		.byte	0x53
 6696 1d16 04       		.uleb128 0x4
 6697 1d17 91       		.byte	0x91
 6698 1d18 847F     		.sleb128 -124
 6699 1d1a 06       		.byte	0x6
 6700 1d1b 00       		.byte	0
 6701 1d1c 39       		.uleb128 0x39
 6702 1d1d 28020000 		.4byte	.LVL125
 6703 1d21 652B0000 		.4byte	0x2b65
 6704 1d25 4C1D0000 		.4byte	0x1d4c
 6705 1d29 32       		.uleb128 0x32
 6706 1d2a 01       		.uleb128 0x1
 6707 1d2b 50       		.byte	0x50
 6708 1d2c 04       		.uleb128 0x4
 6709 1d2d 91       		.byte	0x91
 6710 1d2e 807F     		.sleb128 -128
 6711 1d30 06       		.byte	0x6
 6712 1d31 32       		.uleb128 0x32
 6713 1d32 01       		.uleb128 0x1
 6714 1d33 51       		.byte	0x51
 6715 1d34 05       		.uleb128 0x5
 6716 1d35 91       		.byte	0x91
 6717 1d36 907F     		.sleb128 -112
 6718 1d38 94       		.byte	0x94
 6719 1d39 02       		.byte	0x2
 6720 1d3a 32       		.uleb128 0x32
 6721 1d3b 01       		.uleb128 0x1
 6722 1d3c 52       		.byte	0x52
 6723 1d3d 05       		.uleb128 0x5
 6724 1d3e 91       		.byte	0x91
 6725 1d3f BC7F     		.sleb128 -68
 6726 1d41 94       		.byte	0x94
 6727 1d42 02       		.byte	0x2
 6728 1d43 32       		.uleb128 0x32
 6729 1d44 01       		.uleb128 0x1
 6730 1d45 53       		.byte	0x53
 6731 1d46 04       		.uleb128 0x4
 6732 1d47 91       		.byte	0x91
 6733 1d48 847F     		.sleb128 -124
 6734 1d4a 06       		.byte	0x6
 6735 1d4b 00       		.byte	0
 6736 1d4c 45       		.uleb128 0x45
 6737 1d4d 72030000 		.4byte	.LVL150
 6738 1d51 8F2B0000 		.4byte	0x2b8f
 6739 1d55 3A       		.uleb128 0x3a
 6740 1d56 82030000 		.4byte	.LVL151
 6741 1d5a 2B2B0000 		.4byte	0x2b2b
 6742 1d5e 32       		.uleb128 0x32
ARM GAS  C:\Users\pearlstl\AppData\Local\Temp\ccQFxYtd.s 			page 156


 6743 1d5f 01       		.uleb128 0x1
 6744 1d60 50       		.byte	0x50
 6745 1d61 04       		.uleb128 0x4
 6746 1d62 91       		.byte	0x91
 6747 1d63 F07E     		.sleb128 -144
 6748 1d65 06       		.byte	0x6
 6749 1d66 32       		.uleb128 0x32
 6750 1d67 01       		.uleb128 0x1
 6751 1d68 51       		.byte	0x51
 6752 1d69 05       		.uleb128 0x5
 6753 1d6a 91       		.byte	0x91
 6754 1d6b E47E     		.sleb128 -156
 6755 1d6d 94       		.byte	0x94
 6756 1d6e 02       		.byte	0x2
 6757 1d6f 32       		.uleb128 0x32
 6758 1d70 01       		.uleb128 0x1
 6759 1d71 52       		.byte	0x52
 6760 1d72 02       		.uleb128 0x2
 6761 1d73 7A       		.byte	0x7a
 6762 1d74 00       		.sleb128 0
 6763 1d75 32       		.uleb128 0x32
 6764 1d76 01       		.uleb128 0x1
 6765 1d77 53       		.byte	0x53
 6766 1d78 04       		.uleb128 0x4
 6767 1d79 91       		.byte	0x91
 6768 1d7a 987F     		.sleb128 -104
 6769 1d7c 06       		.byte	0x6
 6770 1d7d 00       		.byte	0
 6771 1d7e 00       		.byte	0
 6772 1d7f 39       		.uleb128 0x39
 6773 1d80 20000000 		.4byte	.LVL73
 6774 1d84 142B0000 		.4byte	0x2b14
 6775 1d88 931D0000 		.4byte	0x1d93
 6776 1d8c 32       		.uleb128 0x32
 6777 1d8d 01       		.uleb128 0x1
 6778 1d8e 50       		.byte	0x50
 6779 1d8f 02       		.uleb128 0x2
 6780 1d90 78       		.byte	0x78
 6781 1d91 00       		.sleb128 0
 6782 1d92 00       		.byte	0
 6783 1d93 39       		.uleb128 0x39
 6784 1d94 34000000 		.4byte	.LVL78
 6785 1d98 A52B0000 		.4byte	0x2ba5
 6786 1d9c A81D0000 		.4byte	0x1da8
 6787 1da0 32       		.uleb128 0x32
 6788 1da1 01       		.uleb128 0x1
 6789 1da2 50       		.byte	0x50
 6790 1da3 03       		.uleb128 0x3
 6791 1da4 77       		.byte	0x77
 6792 1da5 00       		.sleb128 0
 6793 1da6 1F       		.byte	0x1f
 6794 1da7 00       		.byte	0
 6795 1da8 39       		.uleb128 0x39
 6796 1da9 40000000 		.4byte	.LVL81
 6797 1dad A52B0000 		.4byte	0x2ba5
 6798 1db1 BF1D0000 		.4byte	0x1dbf
 6799 1db5 32       		.uleb128 0x32
ARM GAS  C:\Users\pearlstl\AppData\Local\Temp\ccQFxYtd.s 			page 157


 6800 1db6 01       		.uleb128 0x1
 6801 1db7 50       		.byte	0x50
 6802 1db8 05       		.uleb128 0x5
 6803 1db9 08       		.byte	0x8
 6804 1dba 5A       		.byte	0x5a
 6805 1dbb 77       		.byte	0x77
 6806 1dbc 00       		.sleb128 0
 6807 1dbd 1C       		.byte	0x1c
 6808 1dbe 00       		.byte	0
 6809 1dbf 31       		.uleb128 0x31
 6810 1dc0 64010000 		.4byte	.LVL105
 6811 1dc4 362B0000 		.4byte	0x2b36
 6812 1dc8 32       		.uleb128 0x32
 6813 1dc9 01       		.uleb128 0x1
 6814 1dca 50       		.byte	0x50
 6815 1dcb 04       		.uleb128 0x4
 6816 1dcc 7D       		.byte	0x7d
 6817 1dcd B07F     		.sleb128 -80
 6818 1dcf 06       		.byte	0x6
 6819 1dd0 00       		.byte	0
 6820 1dd1 00       		.byte	0
 6821 1dd2 46       		.uleb128 0x46
 6822 1dd3 9D060000 		.4byte	.LASF311
 6823 1dd7 01       		.byte	0x1
 6824 1dd8 C601     		.2byte	0x1c6
 6825 1dda 00000000 		.4byte	.LFB45
 6826 1dde 54000000 		.4byte	.LFE45-.LFB45
 6827 1de2 01       		.uleb128 0x1
 6828 1de3 9C       		.byte	0x9c
 6829 1de4 911E0000 		.4byte	0x1e91
 6830 1de8 47       		.uleb128 0x47
 6831 1de9 83040000 		.4byte	.LASF256
 6832 1ded 01       		.byte	0x1
 6833 1dee C601     		.2byte	0x1c6
 6834 1df0 2F0F0000 		.4byte	0xf2f
 6835 1df4 090F0000 		.4byte	.LLST94
 6836 1df8 47       		.uleb128 0x47
 6837 1df9 FD0F0000 		.4byte	.LASF61
 6838 1dfd 01       		.byte	0x1
 6839 1dfe C601     		.2byte	0x1c6
 6840 1e00 00030000 		.4byte	0x300
 6841 1e04 2A0F0000 		.4byte	.LLST95
 6842 1e08 20       		.uleb128 0x20
 6843 1e09 64736300 		.ascii	"dsc\000"
 6844 1e0d 01       		.byte	0x1
 6845 1e0e CA01     		.2byte	0x1ca
 6846 1e10 EE0F0000 		.4byte	0xfee
 6847 1e14 41       		.uleb128 0x41
 6848 1e15 7800     		.ascii	"x\000"
 6849 1e17 01       		.byte	0x1
 6850 1e18 CC01     		.2byte	0x1cc
 6851 1e1a 0D010000 		.4byte	0x10d
 6852 1e1e 480F0000 		.4byte	.LLST96
 6853 1e22 41       		.uleb128 0x41
 6854 1e23 7900     		.ascii	"y\000"
 6855 1e25 01       		.byte	0x1
 6856 1e26 CD01     		.2byte	0x1cd
ARM GAS  C:\Users\pearlstl\AppData\Local\Temp\ccQFxYtd.s 			page 158


 6857 1e28 0D010000 		.4byte	0x10d
 6858 1e2c 8F0F0000 		.4byte	.LLST97
 6859 1e30 4A       		.uleb128 0x4a
 6860 1e31 C70F0000 		.4byte	0xfc7
 6861 1e35 06000000 		.4byte	.LBB139
 6862 1e39 04000000 		.4byte	.LBE139-.LBB139
 6863 1e3d 01       		.byte	0x1
 6864 1e3e CA01     		.2byte	0x1ca
 6865 1e40 6E1E0000 		.4byte	0x1e6e
 6866 1e44 2A       		.uleb128 0x2a
 6867 1e45 D70F0000 		.4byte	0xfd7
 6868 1e49 AE0F0000 		.4byte	.LLST98
 6869 1e4d 3F       		.uleb128 0x3f
 6870 1e4e 06000000 		.4byte	.LBB140
 6871 1e52 04000000 		.4byte	.LBE140-.LBB140
 6872 1e56 30       		.uleb128 0x30
 6873 1e57 E20F0000 		.4byte	0xfe2
 6874 1e5b 3A       		.uleb128 0x3a
 6875 1e5c 0A000000 		.4byte	.LVL198
 6876 1e60 142B0000 		.4byte	0x2b14
 6877 1e64 32       		.uleb128 0x32
 6878 1e65 01       		.uleb128 0x1
 6879 1e66 50       		.byte	0x50
 6880 1e67 03       		.uleb128 0x3
 6881 1e68 F3       		.byte	0xf3
 6882 1e69 01       		.uleb128 0x1
 6883 1e6a 50       		.byte	0x50
 6884 1e6b 00       		.byte	0
 6885 1e6c 00       		.byte	0
 6886 1e6d 00       		.byte	0
 6887 1e6e 3A       		.uleb128 0x3a
 6888 1e6f 36000000 		.4byte	.LVL201
 6889 1e73 2B2B0000 		.4byte	0x2b2b
 6890 1e77 32       		.uleb128 0x32
 6891 1e78 01       		.uleb128 0x1
 6892 1e79 50       		.byte	0x50
 6893 1e7a 02       		.uleb128 0x2
 6894 1e7b 76       		.byte	0x76
 6895 1e7c 00       		.sleb128 0
 6896 1e7d 32       		.uleb128 0x32
 6897 1e7e 01       		.uleb128 0x1
 6898 1e7f 51       		.byte	0x51
 6899 1e80 02       		.uleb128 0x2
 6900 1e81 74       		.byte	0x74
 6901 1e82 00       		.sleb128 0
 6902 1e83 32       		.uleb128 0x32
 6903 1e84 01       		.uleb128 0x1
 6904 1e85 52       		.byte	0x52
 6905 1e86 02       		.uleb128 0x2
 6906 1e87 79       		.byte	0x79
 6907 1e88 00       		.sleb128 0
 6908 1e89 32       		.uleb128 0x32
 6909 1e8a 01       		.uleb128 0x1
 6910 1e8b 53       		.byte	0x53
 6911 1e8c 02       		.uleb128 0x2
 6912 1e8d 77       		.byte	0x77
 6913 1e8e 00       		.sleb128 0
ARM GAS  C:\Users\pearlstl\AppData\Local\Temp\ccQFxYtd.s 			page 159


 6914 1e8f 00       		.byte	0
 6915 1e90 00       		.byte	0
 6916 1e91 46       		.uleb128 0x46
 6917 1e92 DB090000 		.4byte	.LASF312
 6918 1e96 01       		.byte	0x1
 6919 1e97 DE01     		.2byte	0x1de
 6920 1e99 00000000 		.4byte	.LFB46
 6921 1e9d C4000000 		.4byte	.LFE46-.LFB46
 6922 1ea1 01       		.uleb128 0x1
 6923 1ea2 9C       		.byte	0x9c
 6924 1ea3 64200000 		.4byte	0x2064
 6925 1ea7 47       		.uleb128 0x47
 6926 1ea8 83040000 		.4byte	.LASF256
 6927 1eac 01       		.byte	0x1
 6928 1ead DE01     		.2byte	0x1de
 6929 1eaf 2F0F0000 		.4byte	0xf2f
 6930 1eb3 CF0F0000 		.4byte	.LLST99
 6931 1eb7 48       		.uleb128 0x48
 6932 1eb8 7800     		.ascii	"x\000"
 6933 1eba 01       		.byte	0x1
 6934 1ebb DE01     		.2byte	0x1de
 6935 1ebd 18010000 		.4byte	0x118
 6936 1ec1 F00F0000 		.4byte	.LLST100
 6937 1ec5 48       		.uleb128 0x48
 6938 1ec6 7900     		.ascii	"y\000"
 6939 1ec8 01       		.byte	0x1
 6940 1ec9 DE01     		.2byte	0x1de
 6941 1ecb 18010000 		.4byte	0x118
 6942 1ecf 11100000 		.4byte	.LLST101
 6943 1ed3 48       		.uleb128 0x48
 6944 1ed4 7700     		.ascii	"w\000"
 6945 1ed6 01       		.byte	0x1
 6946 1ed7 DE01     		.2byte	0x1de
 6947 1ed9 18010000 		.4byte	0x118
 6948 1edd 32100000 		.4byte	.LLST102
 6949 1ee1 4D       		.uleb128 0x4d
 6950 1ee2 6800     		.ascii	"h\000"
 6951 1ee4 01       		.byte	0x1
 6952 1ee5 DE01     		.2byte	0x1de
 6953 1ee7 18010000 		.4byte	0x118
 6954 1eeb 02       		.uleb128 0x2
 6955 1eec 91       		.byte	0x91
 6956 1eed 00       		.sleb128 0
 6957 1eee 4E       		.uleb128 0x4e
 6958 1eef D50D0000 		.4byte	.LASF259
 6959 1ef3 01       		.byte	0x1
 6960 1ef4 DF01     		.2byte	0x1df
 6961 1ef6 F30B0000 		.4byte	0xbf3
 6962 1efa 02       		.uleb128 0x2
 6963 1efb 91       		.byte	0x91
 6964 1efc 04       		.sleb128 4
 6965 1efd 20       		.uleb128 0x20
 6966 1efe 64736300 		.ascii	"dsc\000"
 6967 1f02 01       		.byte	0x1
 6968 1f03 E401     		.2byte	0x1e4
 6969 1f05 EE0F0000 		.4byte	0xfee
 6970 1f09 42       		.uleb128 0x42
ARM GAS  C:\Users\pearlstl\AppData\Local\Temp\ccQFxYtd.s 			page 160


 6971 1f0a 830A0000 		.4byte	.LASF313
 6972 1f0e 01       		.byte	0x1
 6973 1f0f E801     		.2byte	0x1e8
 6974 1f11 75030000 		.4byte	0x375
 6975 1f15 03       		.uleb128 0x3
 6976 1f16 91       		.byte	0x91
 6977 1f17 D07C     		.sleb128 -432
 6978 1f19 42       		.uleb128 0x42
 6979 1f1a BA110000 		.4byte	.LASF138
 6980 1f1e 01       		.byte	0x1
 6981 1f1f EE01     		.2byte	0x1ee
 6982 1f21 75030000 		.4byte	0x375
 6983 1f25 03       		.uleb128 0x3
 6984 1f26 91       		.byte	0x91
 6985 1f27 D87C     		.sleb128 -424
 6986 1f29 42       		.uleb128 0x42
 6987 1f2a 470B0000 		.4byte	.LASF314
 6988 1f2e 01       		.byte	0x1
 6989 1f2f F401     		.2byte	0x1f4
 6990 1f31 3F0A0000 		.4byte	0xa3f
 6991 1f35 03       		.uleb128 0x3
 6992 1f36 91       		.byte	0x91
 6993 1f37 FC7C     		.sleb128 -388
 6994 1f39 42       		.uleb128 0x42
 6995 1f3a BF010000 		.4byte	.LASF315
 6996 1f3e 01       		.byte	0x1
 6997 1f3f F701     		.2byte	0x1f7
 6998 1f41 0F070000 		.4byte	0x70f
 6999 1f45 03       		.uleb128 0x3
 7000 1f46 91       		.byte	0x91
 7001 1f47 E07C     		.sleb128 -416
 7002 1f49 44       		.uleb128 0x44
 7003 1f4a F80A0000 		.4byte	.LASF316
 7004 1f4e 01       		.byte	0x1
 7005 1f4f 0C02     		.2byte	0x20c
 7006 1f51 64200000 		.4byte	0x2064
 7007 1f55 53100000 		.4byte	.LLST103
 7008 1f59 4C       		.uleb128 0x4c
 7009 1f5a C70F0000 		.4byte	0xfc7
 7010 1f5e 10000000 		.4byte	.LBB141
 7011 1f62 58010000 		.4byte	.Ldebug_ranges0+0x158
 7012 1f66 01       		.byte	0x1
 7013 1f67 E401     		.2byte	0x1e4
 7014 1f69 951F0000 		.4byte	0x1f95
 7015 1f6d 2A       		.uleb128 0x2a
 7016 1f6e D70F0000 		.4byte	0xfd7
 7017 1f72 71100000 		.4byte	.LLST104
 7018 1f76 2F       		.uleb128 0x2f
 7019 1f77 58010000 		.4byte	.Ldebug_ranges0+0x158
 7020 1f7b 4F       		.uleb128 0x4f
 7021 1f7c E20F0000 		.4byte	0xfe2
 7022 1f80 01       		.uleb128 0x1
 7023 1f81 55       		.byte	0x55
 7024 1f82 3A       		.uleb128 0x3a
 7025 1f83 14000000 		.4byte	.LVL207
 7026 1f87 142B0000 		.4byte	0x2b14
 7027 1f8b 32       		.uleb128 0x32
ARM GAS  C:\Users\pearlstl\AppData\Local\Temp\ccQFxYtd.s 			page 161


 7028 1f8c 01       		.uleb128 0x1
 7029 1f8d 50       		.byte	0x50
 7030 1f8e 03       		.uleb128 0x3
 7031 1f8f F3       		.byte	0xf3
 7032 1f90 01       		.uleb128 0x1
 7033 1f91 50       		.byte	0x50
 7034 1f92 00       		.byte	0
 7035 1f93 00       		.byte	0
 7036 1f94 00       		.byte	0
 7037 1f95 4A       		.uleb128 0x4a
 7038 1f96 FA0F0000 		.4byte	0xffa
 7039 1f9a 7A000000 		.4byte	.LBB145
 7040 1f9e 0A000000 		.4byte	.LBE145-.LBB145
 7041 1fa2 01       		.byte	0x1
 7042 1fa3 F901     		.2byte	0x1f9
 7043 1fa5 BC1F0000 		.4byte	0x1fbc
 7044 1fa9 2A       		.uleb128 0x2a
 7045 1faa 11100000 		.4byte	0x1011
 7046 1fae 92100000 		.4byte	.LLST105
 7047 1fb2 2A       		.uleb128 0x2a
 7048 1fb3 06100000 		.4byte	0x1006
 7049 1fb7 A5100000 		.4byte	.LLST106
 7050 1fbb 00       		.byte	0
 7051 1fbc 39       		.uleb128 0x39
 7052 1fbd 5E000000 		.4byte	.LVL209
 7053 1fc1 B02B0000 		.4byte	0x2bb0
 7054 1fc5 DE1F0000 		.4byte	0x1fde
 7055 1fc9 32       		.uleb128 0x32
 7056 1fca 01       		.uleb128 0x1
 7057 1fcb 50       		.byte	0x50
 7058 1fcc 03       		.uleb128 0x3
 7059 1fcd 91       		.byte	0x91
 7060 1fce FC7C     		.sleb128 -388
 7061 1fd0 32       		.uleb128 0x32
 7062 1fd1 01       		.uleb128 0x1
 7063 1fd2 51       		.byte	0x51
 7064 1fd3 02       		.uleb128 0x2
 7065 1fd4 7A       		.byte	0x7a
 7066 1fd5 00       		.sleb128 0
 7067 1fd6 32       		.uleb128 0x32
 7068 1fd7 01       		.uleb128 0x1
 7069 1fd8 52       		.byte	0x52
 7070 1fd9 03       		.uleb128 0x3
 7071 1fda 0A       		.byte	0xa
 7072 1fdb 6401     		.2byte	0x164
 7073 1fdd 00       		.byte	0
 7074 1fde 39       		.uleb128 0x39
 7075 1fdf 7A000000 		.4byte	.LVL210
 7076 1fe3 B92B0000 		.4byte	0x2bb9
 7077 1fe7 F81F0000 		.4byte	0x1ff8
 7078 1feb 32       		.uleb128 0x32
 7079 1fec 01       		.uleb128 0x1
 7080 1fed 50       		.byte	0x50
 7081 1fee 02       		.uleb128 0x2
 7082 1fef 76       		.byte	0x76
 7083 1ff0 00       		.sleb128 0
 7084 1ff1 32       		.uleb128 0x32
ARM GAS  C:\Users\pearlstl\AppData\Local\Temp\ccQFxYtd.s 			page 162


 7085 1ff2 01       		.uleb128 0x1
 7086 1ff3 52       		.byte	0x52
 7087 1ff4 02       		.uleb128 0x2
 7088 1ff5 7A       		.byte	0x7a
 7089 1ff6 00       		.sleb128 0
 7090 1ff7 00       		.byte	0
 7091 1ff8 39       		.uleb128 0x39
 7092 1ff9 8A000000 		.4byte	.LVL213
 7093 1ffd C42B0000 		.4byte	0x2bc4
 7094 2001 0D200000 		.4byte	0x200d
 7095 2005 32       		.uleb128 0x32
 7096 2006 01       		.uleb128 0x1
 7097 2007 50       		.byte	0x50
 7098 2008 03       		.uleb128 0x3
 7099 2009 91       		.byte	0x91
 7100 200a FC7C     		.sleb128 -388
 7101 200c 00       		.byte	0
 7102 200d 45       		.uleb128 0x45
 7103 200e A4000000 		.4byte	.LVL214
 7104 2012 CF2B0000 		.4byte	0x2bcf
 7105 2016 39       		.uleb128 0x39
 7106 2017 AC000000 		.4byte	.LVL217
 7107 201b DA2B0000 		.4byte	0x2bda
 7108 201f 2B200000 		.4byte	0x202b
 7109 2023 32       		.uleb128 0x32
 7110 2024 01       		.uleb128 0x1
 7111 2025 50       		.byte	0x50
 7112 2026 03       		.uleb128 0x3
 7113 2027 91       		.byte	0x91
 7114 2028 FC7C     		.sleb128 -388
 7115 202a 00       		.byte	0
 7116 202b 39       		.uleb128 0x39
 7117 202c B8000000 		.4byte	.LVL218
 7118 2030 E52B0000 		.4byte	0x2be5
 7119 2034 53200000 		.4byte	0x2053
 7120 2038 32       		.uleb128 0x32
 7121 2039 01       		.uleb128 0x1
 7122 203a 50       		.byte	0x50
 7123 203b 03       		.uleb128 0x3
 7124 203c 91       		.byte	0x91
 7125 203d D87C     		.sleb128 -424
 7126 203f 32       		.uleb128 0x32
 7127 2040 01       		.uleb128 0x1
 7128 2041 51       		.byte	0x51
 7129 2042 02       		.uleb128 0x2
 7130 2043 7D       		.byte	0x7d
 7131 2044 00       		.sleb128 0
 7132 2045 32       		.uleb128 0x32
 7133 2046 01       		.uleb128 0x1
 7134 2047 52       		.byte	0x52
 7135 2048 03       		.uleb128 0x3
 7136 2049 91       		.byte	0x91
 7137 204a 04       		.sleb128 4
 7138 204b 06       		.byte	0x6
 7139 204c 32       		.uleb128 0x32
 7140 204d 01       		.uleb128 0x1
 7141 204e 53       		.byte	0x53
ARM GAS  C:\Users\pearlstl\AppData\Local\Temp\ccQFxYtd.s 			page 163


 7142 204f 02       		.uleb128 0x2
 7143 2050 09       		.byte	0x9
 7144 2051 FF       		.byte	0xff
 7145 2052 00       		.byte	0
 7146 2053 3A       		.uleb128 0x3a
 7147 2054 BE000000 		.4byte	.LVL219
 7148 2058 DA2B0000 		.4byte	0x2bda
 7149 205c 32       		.uleb128 0x32
 7150 205d 01       		.uleb128 0x1
 7151 205e 50       		.byte	0x50
 7152 205f 02       		.uleb128 0x2
 7153 2060 75       		.byte	0x75
 7154 2061 00       		.sleb128 0
 7155 2062 00       		.byte	0
 7156 2063 00       		.byte	0
 7157 2064 06       		.uleb128 0x6
 7158 2065 04       		.byte	0x4
 7159 2066 3F0A0000 		.4byte	0xa3f
 7160 206a 46       		.uleb128 0x46
 7161 206b C0030000 		.4byte	.LASF317
 7162 206f 01       		.byte	0x1
 7163 2070 1E02     		.2byte	0x21e
 7164 2072 00000000 		.4byte	.LFB47
 7165 2076 F0000000 		.4byte	.LFE47-.LFB47
 7166 207a 01       		.uleb128 0x1
 7167 207b 9C       		.byte	0x9c
 7168 207c 9A220000 		.4byte	0x229a
 7169 2080 47       		.uleb128 0x47
 7170 2081 83040000 		.4byte	.LASF256
 7171 2085 01       		.byte	0x1
 7172 2086 1E02     		.2byte	0x21e
 7173 2088 2F0F0000 		.4byte	0xf2f
 7174 208c C6100000 		.4byte	.LLST107
 7175 2090 48       		.uleb128 0x48
 7176 2091 7800     		.ascii	"x\000"
 7177 2093 01       		.byte	0x1
 7178 2094 1E02     		.2byte	0x21e
 7179 2096 18010000 		.4byte	0x118
 7180 209a E4100000 		.4byte	.LLST108
 7181 209e 48       		.uleb128 0x48
 7182 209f 7900     		.ascii	"y\000"
 7183 20a1 01       		.byte	0x1
 7184 20a2 1E02     		.2byte	0x21e
 7185 20a4 18010000 		.4byte	0x118
 7186 20a8 05110000 		.4byte	.LLST109
 7187 20ac 47       		.uleb128 0x47
 7188 20ad E9000000 		.4byte	.LASF318
 7189 20b1 01       		.byte	0x1
 7190 20b2 1E02     		.2byte	0x21e
 7191 20b4 18010000 		.4byte	0x118
 7192 20b8 26110000 		.4byte	.LLST110
 7193 20bc 47       		.uleb128 0x47
 7194 20bd D50D0000 		.4byte	.LASF259
 7195 20c1 01       		.byte	0x1
 7196 20c2 1E02     		.2byte	0x21e
 7197 20c4 F30B0000 		.4byte	0xbf3
 7198 20c8 47110000 		.4byte	.LLST111
ARM GAS  C:\Users\pearlstl\AppData\Local\Temp\ccQFxYtd.s 			page 164


 7199 20cc 48       		.uleb128 0x48
 7200 20cd 74787400 		.ascii	"txt\000"
 7201 20d1 01       		.byte	0x1
 7202 20d2 1F02     		.2byte	0x21f
 7203 20d4 C4000000 		.4byte	0xc4
 7204 20d8 67110000 		.4byte	.LLST112
 7205 20dc 47       		.uleb128 0x47
 7206 20dd B40A0000 		.4byte	.LASF189
 7207 20e1 01       		.byte	0x1
 7208 20e2 1F02     		.2byte	0x21f
 7209 20e4 CE0D0000 		.4byte	0xdce
 7210 20e8 87110000 		.4byte	.LLST113
 7211 20ec 20       		.uleb128 0x20
 7212 20ed 64736300 		.ascii	"dsc\000"
 7213 20f1 01       		.byte	0x1
 7214 20f2 2402     		.2byte	0x224
 7215 20f4 EE0F0000 		.4byte	0xfee
 7216 20f8 42       		.uleb128 0x42
 7217 20f9 830A0000 		.4byte	.LASF313
 7218 20fd 01       		.byte	0x1
 7219 20fe 2802     		.2byte	0x228
 7220 2100 75030000 		.4byte	0x375
 7221 2104 03       		.uleb128 0x3
 7222 2105 91       		.byte	0x91
 7223 2106 C87C     		.sleb128 -440
 7224 2108 42       		.uleb128 0x42
 7225 2109 BA110000 		.4byte	.LASF138
 7226 210d 01       		.byte	0x1
 7227 210e 2E02     		.2byte	0x22e
 7228 2110 75030000 		.4byte	0x375
 7229 2114 03       		.uleb128 0x3
 7230 2115 91       		.byte	0x91
 7231 2116 D07C     		.sleb128 -432
 7232 2118 42       		.uleb128 0x42
 7233 2119 470B0000 		.4byte	.LASF314
 7234 211d 01       		.byte	0x1
 7235 211e 3402     		.2byte	0x234
 7236 2120 3F0A0000 		.4byte	0xa3f
 7237 2124 03       		.uleb128 0x3
 7238 2125 91       		.byte	0x91
 7239 2126 F47C     		.sleb128 -396
 7240 2128 42       		.uleb128 0x42
 7241 2129 BF010000 		.4byte	.LASF315
 7242 212d 01       		.byte	0x1
 7243 212e 3702     		.2byte	0x237
 7244 2130 0F070000 		.4byte	0x70f
 7245 2134 03       		.uleb128 0x3
 7246 2135 91       		.byte	0x91
 7247 2136 D87C     		.sleb128 -424
 7248 2138 44       		.uleb128 0x44
 7249 2139 F80A0000 		.4byte	.LASF316
 7250 213d 01       		.byte	0x1
 7251 213e 4102     		.2byte	0x241
 7252 2140 64200000 		.4byte	0x2064
 7253 2144 A7110000 		.4byte	.LLST114
 7254 2148 44       		.uleb128 0x44
 7255 2149 A80B0000 		.4byte	.LASF319
ARM GAS  C:\Users\pearlstl\AppData\Local\Temp\ccQFxYtd.s 			page 165


 7256 214d 01       		.byte	0x1
 7257 214e 4402     		.2byte	0x244
 7258 2150 340C0000 		.4byte	0xc34
 7259 2154 C5110000 		.4byte	.LLST115
 7260 2158 4C       		.uleb128 0x4c
 7261 2159 C70F0000 		.4byte	0xfc7
 7262 215d 12000000 		.4byte	.LBB147
 7263 2161 70010000 		.4byte	.Ldebug_ranges0+0x170
 7264 2165 01       		.byte	0x1
 7265 2166 2402     		.2byte	0x224
 7266 2168 93210000 		.4byte	0x2193
 7267 216c 2A       		.uleb128 0x2a
 7268 216d D70F0000 		.4byte	0xfd7
 7269 2171 E4110000 		.4byte	.LLST116
 7270 2175 2F       		.uleb128 0x2f
 7271 2176 70010000 		.4byte	.Ldebug_ranges0+0x170
 7272 217a 4F       		.uleb128 0x4f
 7273 217b E20F0000 		.4byte	0xfe2
 7274 217f 01       		.uleb128 0x1
 7275 2180 55       		.byte	0x55
 7276 2181 3A       		.uleb128 0x3a
 7277 2182 16000000 		.4byte	.LVL222
 7278 2186 142B0000 		.4byte	0x2b14
 7279 218a 32       		.uleb128 0x32
 7280 218b 01       		.uleb128 0x1
 7281 218c 50       		.byte	0x50
 7282 218d 02       		.uleb128 0x2
 7283 218e 79       		.byte	0x79
 7284 218f 00       		.sleb128 0
 7285 2190 00       		.byte	0
 7286 2191 00       		.byte	0
 7287 2192 00       		.byte	0
 7288 2193 4A       		.uleb128 0x4a
 7289 2194 FA0F0000 		.4byte	0xffa
 7290 2198 7C000000 		.4byte	.LBB151
 7291 219c 0A000000 		.4byte	.LBE151-.LBB151
 7292 21a0 01       		.byte	0x1
 7293 21a1 3902     		.2byte	0x239
 7294 21a3 BA210000 		.4byte	0x21ba
 7295 21a7 2A       		.uleb128 0x2a
 7296 21a8 11100000 		.4byte	0x1011
 7297 21ac 02120000 		.4byte	.LLST117
 7298 21b0 2A       		.uleb128 0x2a
 7299 21b1 06100000 		.4byte	0x1006
 7300 21b5 15120000 		.4byte	.LLST118
 7301 21b9 00       		.byte	0
 7302 21ba 39       		.uleb128 0x39
 7303 21bb 60000000 		.4byte	.LVL224
 7304 21bf B02B0000 		.4byte	0x2bb0
 7305 21c3 DC210000 		.4byte	0x21dc
 7306 21c7 32       		.uleb128 0x32
 7307 21c8 01       		.uleb128 0x1
 7308 21c9 50       		.byte	0x50
 7309 21ca 03       		.uleb128 0x3
 7310 21cb 91       		.byte	0x91
 7311 21cc F47C     		.sleb128 -396
 7312 21ce 32       		.uleb128 0x32
ARM GAS  C:\Users\pearlstl\AppData\Local\Temp\ccQFxYtd.s 			page 166


 7313 21cf 01       		.uleb128 0x1
 7314 21d0 51       		.byte	0x51
 7315 21d1 02       		.uleb128 0x2
 7316 21d2 7B       		.byte	0x7b
 7317 21d3 00       		.sleb128 0
 7318 21d4 32       		.uleb128 0x32
 7319 21d5 01       		.uleb128 0x1
 7320 21d6 52       		.byte	0x52
 7321 21d7 03       		.uleb128 0x3
 7322 21d8 0A       		.byte	0xa
 7323 21d9 6401     		.2byte	0x164
 7324 21db 00       		.byte	0
 7325 21dc 39       		.uleb128 0x39
 7326 21dd 7C000000 		.4byte	.LVL225
 7327 21e1 B92B0000 		.4byte	0x2bb9
 7328 21e5 F6210000 		.4byte	0x21f6
 7329 21e9 32       		.uleb128 0x32
 7330 21ea 01       		.uleb128 0x1
 7331 21eb 50       		.byte	0x50
 7332 21ec 02       		.uleb128 0x2
 7333 21ed 74       		.byte	0x74
 7334 21ee 00       		.sleb128 0
 7335 21ef 32       		.uleb128 0x32
 7336 21f0 01       		.uleb128 0x1
 7337 21f1 52       		.byte	0x52
 7338 21f2 02       		.uleb128 0x2
 7339 21f3 7B       		.byte	0x7b
 7340 21f4 00       		.sleb128 0
 7341 21f5 00       		.byte	0
 7342 21f6 39       		.uleb128 0x39
 7343 21f7 8C000000 		.4byte	.LVL228
 7344 21fb C42B0000 		.4byte	0x2bc4
 7345 21ff 0B220000 		.4byte	0x220b
 7346 2203 32       		.uleb128 0x32
 7347 2204 01       		.uleb128 0x1
 7348 2205 50       		.byte	0x50
 7349 2206 03       		.uleb128 0x3
 7350 2207 91       		.byte	0x91
 7351 2208 F47C     		.sleb128 -396
 7352 220a 00       		.byte	0
 7353 220b 45       		.uleb128 0x45
 7354 220c A6000000 		.4byte	.LVL229
 7355 2210 CF2B0000 		.4byte	0x2bcf
 7356 2214 39       		.uleb128 0x39
 7357 2215 AE000000 		.4byte	.LVL232
 7358 2219 DA2B0000 		.4byte	0x2bda
 7359 221d 29220000 		.4byte	0x2229
 7360 2221 32       		.uleb128 0x32
 7361 2222 01       		.uleb128 0x1
 7362 2223 50       		.byte	0x50
 7363 2224 03       		.uleb128 0x3
 7364 2225 91       		.byte	0x91
 7365 2226 F47C     		.sleb128 -396
 7366 2228 00       		.byte	0
 7367 2229 39       		.uleb128 0x39
 7368 222a C4000000 		.4byte	.LVL234
 7369 222e F02B0000 		.4byte	0x2bf0
ARM GAS  C:\Users\pearlstl\AppData\Local\Temp\ccQFxYtd.s 			page 167


 7370 2232 3D220000 		.4byte	0x223d
 7371 2236 32       		.uleb128 0x32
 7372 2237 01       		.uleb128 0x1
 7373 2238 50       		.byte	0x50
 7374 2239 02       		.uleb128 0x2
 7375 223a 79       		.byte	0x79
 7376 223b 00       		.sleb128 0
 7377 223c 00       		.byte	0
 7378 223d 39       		.uleb128 0x39
 7379 223e E0000000 		.4byte	.LVL235
 7380 2242 FC2B0000 		.4byte	0x2bfc
 7381 2246 89220000 		.4byte	0x2289
 7382 224a 32       		.uleb128 0x32
 7383 224b 01       		.uleb128 0x1
 7384 224c 50       		.byte	0x50
 7385 224d 03       		.uleb128 0x3
 7386 224e 91       		.byte	0x91
 7387 224f D07C     		.sleb128 -432
 7388 2251 32       		.uleb128 0x32
 7389 2252 01       		.uleb128 0x1
 7390 2253 51       		.byte	0x51
 7391 2254 02       		.uleb128 0x2
 7392 2255 76       		.byte	0x76
 7393 2256 00       		.sleb128 0
 7394 2257 32       		.uleb128 0x32
 7395 2258 01       		.uleb128 0x1
 7396 2259 52       		.byte	0x52
 7397 225a 03       		.uleb128 0x3
 7398 225b 91       		.byte	0x91
 7399 225c 00       		.sleb128 0
 7400 225d 06       		.byte	0x6
 7401 225e 32       		.uleb128 0x32
 7402 225f 01       		.uleb128 0x1
 7403 2260 53       		.byte	0x53
 7404 2261 02       		.uleb128 0x2
 7405 2262 09       		.byte	0x9
 7406 2263 FF       		.byte	0xff
 7407 2264 32       		.uleb128 0x32
 7408 2265 02       		.uleb128 0x2
 7409 2266 7D       		.byte	0x7d
 7410 2267 00       		.sleb128 0
 7411 2268 03       		.uleb128 0x3
 7412 2269 91       		.byte	0x91
 7413 226a 04       		.sleb128 4
 7414 226b 06       		.byte	0x6
 7415 226c 32       		.uleb128 0x32
 7416 226d 02       		.uleb128 0x2
 7417 226e 7D       		.byte	0x7d
 7418 226f 04       		.sleb128 4
 7419 2270 02       		.uleb128 0x2
 7420 2271 75       		.byte	0x75
 7421 2272 00       		.sleb128 0
 7422 2273 32       		.uleb128 0x32
 7423 2274 02       		.uleb128 0x2
 7424 2275 7D       		.byte	0x7d
 7425 2276 08       		.sleb128 8
 7426 2277 02       		.uleb128 0x2
ARM GAS  C:\Users\pearlstl\AppData\Local\Temp\ccQFxYtd.s 			page 168


 7427 2278 7B       		.byte	0x7b
 7428 2279 00       		.sleb128 0
 7429 227a 32       		.uleb128 0x32
 7430 227b 02       		.uleb128 0x2
 7431 227c 7D       		.byte	0x7d
 7432 227d 0C       		.sleb128 12
 7433 227e 02       		.uleb128 0x2
 7434 227f 7B       		.byte	0x7b
 7435 2280 00       		.sleb128 0
 7436 2281 32       		.uleb128 0x32
 7437 2282 02       		.uleb128 0x2
 7438 2283 7D       		.byte	0x7d
 7439 2284 10       		.sleb128 16
 7440 2285 02       		.uleb128 0x2
 7441 2286 7B       		.byte	0x7b
 7442 2287 00       		.sleb128 0
 7443 2288 00       		.byte	0
 7444 2289 3A       		.uleb128 0x3a
 7445 228a E6000000 		.4byte	.LVL236
 7446 228e DA2B0000 		.4byte	0x2bda
 7447 2292 32       		.uleb128 0x32
 7448 2293 01       		.uleb128 0x1
 7449 2294 50       		.byte	0x50
 7450 2295 02       		.uleb128 0x2
 7451 2296 74       		.byte	0x74
 7452 2297 00       		.sleb128 0
 7453 2298 00       		.byte	0
 7454 2299 00       		.byte	0
 7455 229a 46       		.uleb128 0x46
 7456 229b 69090000 		.4byte	.LASF320
 7457 229f 01       		.byte	0x1
 7458 22a0 5702     		.2byte	0x257
 7459 22a2 00000000 		.4byte	.LFB48
 7460 22a6 E2000000 		.4byte	.LFE48-.LFB48
 7461 22aa 01       		.uleb128 0x1
 7462 22ab 9C       		.byte	0x9c
 7463 22ac A5240000 		.4byte	0x24a5
 7464 22b0 47       		.uleb128 0x47
 7465 22b1 83040000 		.4byte	.LASF256
 7466 22b5 01       		.byte	0x1
 7467 22b6 5702     		.2byte	0x257
 7468 22b8 2F0F0000 		.4byte	0xf2f
 7469 22bc 36120000 		.4byte	.LLST119
 7470 22c0 48       		.uleb128 0x48
 7471 22c1 7800     		.ascii	"x\000"
 7472 22c3 01       		.byte	0x1
 7473 22c4 5702     		.2byte	0x257
 7474 22c6 18010000 		.4byte	0x118
 7475 22ca 57120000 		.4byte	.LLST120
 7476 22ce 48       		.uleb128 0x48
 7477 22cf 7900     		.ascii	"y\000"
 7478 22d1 01       		.byte	0x1
 7479 22d2 5702     		.2byte	0x257
 7480 22d4 18010000 		.4byte	0x118
 7481 22d8 78120000 		.4byte	.LLST121
 7482 22dc 48       		.uleb128 0x48
 7483 22dd 73726300 		.ascii	"src\000"
ARM GAS  C:\Users\pearlstl\AppData\Local\Temp\ccQFxYtd.s 			page 169


 7484 22e1 01       		.byte	0x1
 7485 22e2 5702     		.2byte	0x257
 7486 22e4 CF000000 		.4byte	0xcf
 7487 22e8 99120000 		.4byte	.LLST122
 7488 22ec 47       		.uleb128 0x47
 7489 22ed D50D0000 		.4byte	.LASF259
 7490 22f1 01       		.byte	0x1
 7491 22f2 5702     		.2byte	0x257
 7492 22f4 F30B0000 		.4byte	0xbf3
 7493 22f8 B7120000 		.4byte	.LLST123
 7494 22fc 20       		.uleb128 0x20
 7495 22fd 64736300 		.ascii	"dsc\000"
 7496 2301 01       		.byte	0x1
 7497 2302 5C02     		.2byte	0x25c
 7498 2304 EE0F0000 		.4byte	0xfee
 7499 2308 42       		.uleb128 0x42
 7500 2309 830A0000 		.4byte	.LASF313
 7501 230d 01       		.byte	0x1
 7502 230e 6002     		.2byte	0x260
 7503 2310 75030000 		.4byte	0x375
 7504 2314 03       		.uleb128 0x3
 7505 2315 91       		.byte	0x91
 7506 2316 D07C     		.sleb128 -432
 7507 2318 42       		.uleb128 0x42
 7508 2319 77050000 		.4byte	.LASF236
 7509 231d 01       		.byte	0x1
 7510 231e 6602     		.2byte	0x266
 7511 2320 8E0C0000 		.4byte	0xc8e
 7512 2324 03       		.uleb128 0x3
 7513 2325 91       		.byte	0x91
 7514 2326 CC7C     		.sleb128 -436
 7515 2328 41       		.uleb128 0x41
 7516 2329 72657300 		.ascii	"res\000"
 7517 232d 01       		.byte	0x1
 7518 232e 6702     		.2byte	0x267
 7519 2330 CF050000 		.4byte	0x5cf
 7520 2334 D7120000 		.4byte	.LLST124
 7521 2338 42       		.uleb128 0x42
 7522 2339 BA110000 		.4byte	.LASF138
 7523 233d 01       		.byte	0x1
 7524 233e 6D02     		.2byte	0x26d
 7525 2340 75030000 		.4byte	0x375
 7526 2344 03       		.uleb128 0x3
 7527 2345 91       		.byte	0x91
 7528 2346 D87C     		.sleb128 -424
 7529 2348 42       		.uleb128 0x42
 7530 2349 470B0000 		.4byte	.LASF314
 7531 234d 01       		.byte	0x1
 7532 234e 7302     		.2byte	0x273
 7533 2350 3F0A0000 		.4byte	0xa3f
 7534 2354 03       		.uleb128 0x3
 7535 2355 91       		.byte	0x91
 7536 2356 FC7C     		.sleb128 -388
 7537 2358 42       		.uleb128 0x42
 7538 2359 BF010000 		.4byte	.LASF315
 7539 235d 01       		.byte	0x1
 7540 235e 7602     		.2byte	0x276
ARM GAS  C:\Users\pearlstl\AppData\Local\Temp\ccQFxYtd.s 			page 170


 7541 2360 0F070000 		.4byte	0x70f
 7542 2364 03       		.uleb128 0x3
 7543 2365 91       		.byte	0x91
 7544 2366 E07C     		.sleb128 -416
 7545 2368 44       		.uleb128 0x44
 7546 2369 F80A0000 		.4byte	.LASF316
 7547 236d 01       		.byte	0x1
 7548 236e 8002     		.2byte	0x280
 7549 2370 64200000 		.4byte	0x2064
 7550 2374 F5120000 		.4byte	.LLST125
 7551 2378 4C       		.uleb128 0x4c
 7552 2379 C70F0000 		.4byte	0xfc7
 7553 237d 0C000000 		.4byte	.LBB153
 7554 2381 88010000 		.4byte	.Ldebug_ranges0+0x188
 7555 2385 01       		.byte	0x1
 7556 2386 5C02     		.2byte	0x25c
 7557 2388 B4230000 		.4byte	0x23b4
 7558 238c 2A       		.uleb128 0x2a
 7559 238d D70F0000 		.4byte	0xfd7
 7560 2391 13130000 		.4byte	.LLST126
 7561 2395 2F       		.uleb128 0x2f
 7562 2396 88010000 		.4byte	.Ldebug_ranges0+0x188
 7563 239a 4F       		.uleb128 0x4f
 7564 239b E20F0000 		.4byte	0xfe2
 7565 239f 01       		.uleb128 0x1
 7566 23a0 55       		.byte	0x55
 7567 23a1 3A       		.uleb128 0x3a
 7568 23a2 10000000 		.4byte	.LVL239
 7569 23a6 142B0000 		.4byte	0x2b14
 7570 23aa 32       		.uleb128 0x32
 7571 23ab 01       		.uleb128 0x1
 7572 23ac 50       		.byte	0x50
 7573 23ad 03       		.uleb128 0x3
 7574 23ae F3       		.byte	0xf3
 7575 23af 01       		.uleb128 0x1
 7576 23b0 50       		.byte	0x50
 7577 23b1 00       		.byte	0
 7578 23b2 00       		.byte	0
 7579 23b3 00       		.byte	0
 7580 23b4 4A       		.uleb128 0x4a
 7581 23b5 FA0F0000 		.4byte	0xffa
 7582 23b9 98000000 		.4byte	.LBB157
 7583 23bd 0A000000 		.4byte	.LBE157-.LBB157
 7584 23c1 01       		.byte	0x1
 7585 23c2 7802     		.2byte	0x278
 7586 23c4 DB230000 		.4byte	0x23db
 7587 23c8 2A       		.uleb128 0x2a
 7588 23c9 11100000 		.4byte	0x1011
 7589 23cd 34130000 		.4byte	.LLST127
 7590 23d1 2A       		.uleb128 0x2a
 7591 23d2 06100000 		.4byte	0x1006
 7592 23d6 47130000 		.4byte	.LLST128
 7593 23da 00       		.byte	0
 7594 23db 39       		.uleb128 0x39
 7595 23dc 3E000000 		.4byte	.LVL241
 7596 23e0 072C0000 		.4byte	0x2c07
 7597 23e4 F6230000 		.4byte	0x23f6
ARM GAS  C:\Users\pearlstl\AppData\Local\Temp\ccQFxYtd.s 			page 171


 7598 23e8 32       		.uleb128 0x32
 7599 23e9 01       		.uleb128 0x1
 7600 23ea 50       		.byte	0x50
 7601 23eb 02       		.uleb128 0x2
 7602 23ec 76       		.byte	0x76
 7603 23ed 00       		.sleb128 0
 7604 23ee 32       		.uleb128 0x32
 7605 23ef 01       		.uleb128 0x1
 7606 23f0 51       		.byte	0x51
 7607 23f1 03       		.uleb128 0x3
 7608 23f2 91       		.byte	0x91
 7609 23f3 CC7C     		.sleb128 -436
 7610 23f5 00       		.byte	0
 7611 23f6 39       		.uleb128 0x39
 7612 23f7 7A000000 		.4byte	.LVL245
 7613 23fb B02B0000 		.4byte	0x2bb0
 7614 23ff 18240000 		.4byte	0x2418
 7615 2403 32       		.uleb128 0x32
 7616 2404 01       		.uleb128 0x1
 7617 2405 50       		.byte	0x50
 7618 2406 03       		.uleb128 0x3
 7619 2407 91       		.byte	0x91
 7620 2408 FC7C     		.sleb128 -388
 7621 240a 32       		.uleb128 0x32
 7622 240b 01       		.uleb128 0x1
 7623 240c 51       		.byte	0x51
 7624 240d 02       		.uleb128 0x2
 7625 240e 79       		.byte	0x79
 7626 240f 00       		.sleb128 0
 7627 2410 32       		.uleb128 0x32
 7628 2411 01       		.uleb128 0x1
 7629 2412 52       		.byte	0x52
 7630 2413 03       		.uleb128 0x3
 7631 2414 0A       		.byte	0xa
 7632 2415 6401     		.2byte	0x164
 7633 2417 00       		.byte	0
 7634 2418 39       		.uleb128 0x39
 7635 2419 98000000 		.4byte	.LVL246
 7636 241d B92B0000 		.4byte	0x2bb9
 7637 2421 32240000 		.4byte	0x2432
 7638 2425 32       		.uleb128 0x32
 7639 2426 01       		.uleb128 0x1
 7640 2427 50       		.byte	0x50
 7641 2428 02       		.uleb128 0x2
 7642 2429 77       		.byte	0x77
 7643 242a 00       		.sleb128 0
 7644 242b 32       		.uleb128 0x32
 7645 242c 01       		.uleb128 0x1
 7646 242d 52       		.byte	0x52
 7647 242e 02       		.uleb128 0x2
 7648 242f 79       		.byte	0x79
 7649 2430 00       		.sleb128 0
 7650 2431 00       		.byte	0
 7651 2432 39       		.uleb128 0x39
 7652 2433 A8000000 		.4byte	.LVL249
 7653 2437 C42B0000 		.4byte	0x2bc4
 7654 243b 47240000 		.4byte	0x2447
ARM GAS  C:\Users\pearlstl\AppData\Local\Temp\ccQFxYtd.s 			page 172


 7655 243f 32       		.uleb128 0x32
 7656 2440 01       		.uleb128 0x1
 7657 2441 50       		.byte	0x50
 7658 2442 03       		.uleb128 0x3
 7659 2443 91       		.byte	0x91
 7660 2444 FC7C     		.sleb128 -388
 7661 2446 00       		.byte	0
 7662 2447 45       		.uleb128 0x45
 7663 2448 C2000000 		.4byte	.LVL250
 7664 244c CF2B0000 		.4byte	0x2bcf
 7665 2450 39       		.uleb128 0x39
 7666 2451 CA000000 		.4byte	.LVL253
 7667 2455 DA2B0000 		.4byte	0x2bda
 7668 2459 65240000 		.4byte	0x2465
 7669 245d 32       		.uleb128 0x32
 7670 245e 01       		.uleb128 0x1
 7671 245f 50       		.byte	0x50
 7672 2460 03       		.uleb128 0x3
 7673 2461 91       		.byte	0x91
 7674 2462 FC7C     		.sleb128 -388
 7675 2464 00       		.byte	0
 7676 2465 39       		.uleb128 0x39
 7677 2466 DA000000 		.4byte	.LVL254
 7678 246a 122C0000 		.4byte	0x2c12
 7679 246e 94240000 		.4byte	0x2494
 7680 2472 32       		.uleb128 0x32
 7681 2473 01       		.uleb128 0x1
 7682 2474 50       		.byte	0x50
 7683 2475 03       		.uleb128 0x3
 7684 2476 91       		.byte	0x91
 7685 2477 D87C     		.sleb128 -424
 7686 2479 32       		.uleb128 0x32
 7687 247a 01       		.uleb128 0x1
 7688 247b 51       		.byte	0x51
 7689 247c 02       		.uleb128 0x2
 7690 247d 74       		.byte	0x74
 7691 247e 00       		.sleb128 0
 7692 247f 32       		.uleb128 0x32
 7693 2480 01       		.uleb128 0x1
 7694 2481 52       		.byte	0x52
 7695 2482 02       		.uleb128 0x2
 7696 2483 76       		.byte	0x76
 7697 2484 00       		.sleb128 0
 7698 2485 32       		.uleb128 0x32
 7699 2486 01       		.uleb128 0x1
 7700 2487 53       		.byte	0x53
 7701 2488 03       		.uleb128 0x3
 7702 2489 91       		.byte	0x91
 7703 248a 00       		.sleb128 0
 7704 248b 06       		.byte	0x6
 7705 248c 32       		.uleb128 0x32
 7706 248d 02       		.uleb128 0x2
 7707 248e 7D       		.byte	0x7d
 7708 248f 00       		.sleb128 0
 7709 2490 02       		.uleb128 0x2
 7710 2491 09       		.byte	0x9
 7711 2492 FF       		.byte	0xff
ARM GAS  C:\Users\pearlstl\AppData\Local\Temp\ccQFxYtd.s 			page 173


 7712 2493 00       		.byte	0
 7713 2494 3A       		.uleb128 0x3a
 7714 2495 E0000000 		.4byte	.LVL255
 7715 2499 DA2B0000 		.4byte	0x2bda
 7716 249d 32       		.uleb128 0x32
 7717 249e 01       		.uleb128 0x1
 7718 249f 50       		.byte	0x50
 7719 24a0 02       		.uleb128 0x2
 7720 24a1 75       		.byte	0x75
 7721 24a2 00       		.sleb128 0
 7722 24a3 00       		.byte	0
 7723 24a4 00       		.byte	0
 7724 24a5 46       		.uleb128 0x46
 7725 24a6 01020000 		.4byte	.LASF321
 7726 24aa 01       		.byte	0x1
 7727 24ab 8F02     		.2byte	0x28f
 7728 24ad 00000000 		.4byte	.LFB49
 7729 24b1 82010000 		.4byte	.LFE49-.LFB49
 7730 24b5 01       		.uleb128 0x1
 7731 24b6 9C       		.byte	0x9c
 7732 24b7 F1260000 		.4byte	0x26f1
 7733 24bb 47       		.uleb128 0x47
 7734 24bc 83040000 		.4byte	.LASF256
 7735 24c0 01       		.byte	0x1
 7736 24c1 8F02     		.2byte	0x28f
 7737 24c3 2F0F0000 		.4byte	0xf2f
 7738 24c7 68130000 		.4byte	.LLST129
 7739 24cb 47       		.uleb128 0x47
 7740 24cc C6100000 		.4byte	.LASF322
 7741 24d0 01       		.byte	0x1
 7742 24d1 8F02     		.2byte	0x28f
 7743 24d3 4A0A0000 		.4byte	0xa4a
 7744 24d7 89130000 		.4byte	.LLST130
 7745 24db 47       		.uleb128 0x47
 7746 24dc 1D030000 		.4byte	.LASF323
 7747 24e0 01       		.byte	0x1
 7748 24e1 8F02     		.2byte	0x28f
 7749 24e3 0D010000 		.4byte	0x10d
 7750 24e7 A7130000 		.4byte	.LLST131
 7751 24eb 47       		.uleb128 0x47
 7752 24ec D50D0000 		.4byte	.LASF259
 7753 24f0 01       		.byte	0x1
 7754 24f1 8F02     		.2byte	0x28f
 7755 24f3 F30B0000 		.4byte	0xbf3
 7756 24f7 DD130000 		.4byte	.LLST132
 7757 24fb 20       		.uleb128 0x20
 7758 24fc 64736300 		.ascii	"dsc\000"
 7759 2500 01       		.byte	0x1
 7760 2501 9402     		.2byte	0x294
 7761 2503 EE0F0000 		.4byte	0xfee
 7762 2507 42       		.uleb128 0x42
 7763 2508 830A0000 		.4byte	.LASF313
 7764 250c 01       		.byte	0x1
 7765 250d 9802     		.2byte	0x298
 7766 250f 75030000 		.4byte	0x375
 7767 2513 03       		.uleb128 0x3
 7768 2514 91       		.byte	0x91
ARM GAS  C:\Users\pearlstl\AppData\Local\Temp\ccQFxYtd.s 			page 174


 7769 2515 F87B     		.sleb128 -520
 7770 2517 42       		.uleb128 0x42
 7771 2518 470B0000 		.4byte	.LASF314
 7772 251c 01       		.byte	0x1
 7773 251d 9E02     		.2byte	0x29e
 7774 251f 3F0A0000 		.4byte	0xa3f
 7775 2523 03       		.uleb128 0x3
 7776 2524 91       		.byte	0x91
 7777 2525 F47C     		.sleb128 -396
 7778 2527 42       		.uleb128 0x42
 7779 2528 BF010000 		.4byte	.LASF315
 7780 252c 01       		.byte	0x1
 7781 252d A102     		.2byte	0x2a1
 7782 252f 0F070000 		.4byte	0x70f
 7783 2533 03       		.uleb128 0x3
 7784 2534 91       		.byte	0x91
 7785 2535 887C     		.sleb128 -504
 7786 2537 44       		.uleb128 0x44
 7787 2538 F80A0000 		.4byte	.LASF316
 7788 253c 01       		.byte	0x1
 7789 253d B602     		.2byte	0x2b6
 7790 253f 64200000 		.4byte	0x2064
 7791 2543 40140000 		.4byte	.LLST133
 7792 2547 42       		.uleb128 0x42
 7793 2548 52050000 		.4byte	.LASF324
 7794 254c 01       		.byte	0x1
 7795 254d B902     		.2byte	0x2b9
 7796 254f AB050000 		.4byte	0x5ab
 7797 2553 03       		.uleb128 0x3
 7798 2554 91       		.byte	0x91
 7799 2555 A47C     		.sleb128 -476
 7800 2557 42       		.uleb128 0x42
 7801 2558 750E0000 		.4byte	.LASF325
 7802 255c 01       		.byte	0x1
 7803 255d C102     		.2byte	0x2c1
 7804 255f 75030000 		.4byte	0x375
 7805 2563 03       		.uleb128 0x3
 7806 2564 91       		.byte	0x91
 7807 2565 807C     		.sleb128 -512
 7808 2567 41       		.uleb128 0x41
 7809 2568 6900     		.ascii	"i\000"
 7810 256a 01       		.byte	0x1
 7811 256b C202     		.2byte	0x2c2
 7812 256d 0D010000 		.4byte	0x10d
 7813 2571 5E140000 		.4byte	.LLST134
 7814 2575 4C       		.uleb128 0x4c
 7815 2576 C70F0000 		.4byte	0xfc7
 7816 257a 0C000000 		.4byte	.LBB159
 7817 257e A0010000 		.4byte	.Ldebug_ranges0+0x1a0
 7818 2582 01       		.byte	0x1
 7819 2583 9402     		.2byte	0x294
 7820 2585 B1250000 		.4byte	0x25b1
 7821 2589 2A       		.uleb128 0x2a
 7822 258a D70F0000 		.4byte	0xfd7
 7823 258e 96140000 		.4byte	.LLST135
 7824 2592 2F       		.uleb128 0x2f
 7825 2593 A0010000 		.4byte	.Ldebug_ranges0+0x1a0
ARM GAS  C:\Users\pearlstl\AppData\Local\Temp\ccQFxYtd.s 			page 175


 7826 2597 4F       		.uleb128 0x4f
 7827 2598 E20F0000 		.4byte	0xfe2
 7828 259c 01       		.uleb128 0x1
 7829 259d 54       		.byte	0x54
 7830 259e 3A       		.uleb128 0x3a
 7831 259f 10000000 		.4byte	.LVL257
 7832 25a3 142B0000 		.4byte	0x2b14
 7833 25a7 32       		.uleb128 0x32
 7834 25a8 01       		.uleb128 0x1
 7835 25a9 50       		.byte	0x50
 7836 25aa 03       		.uleb128 0x3
 7837 25ab F3       		.byte	0xf3
 7838 25ac 01       		.uleb128 0x1
 7839 25ad 50       		.byte	0x50
 7840 25ae 00       		.byte	0
 7841 25af 00       		.byte	0
 7842 25b0 00       		.byte	0
 7843 25b1 4A       		.uleb128 0x4a
 7844 25b2 FA0F0000 		.4byte	0xffa
 7845 25b6 5C000000 		.4byte	.LBB163
 7846 25ba 0A000000 		.4byte	.LBE163-.LBB163
 7847 25be 01       		.byte	0x1
 7848 25bf A302     		.2byte	0x2a3
 7849 25c1 D8250000 		.4byte	0x25d8
 7850 25c5 2A       		.uleb128 0x2a
 7851 25c6 11100000 		.4byte	0x1011
 7852 25ca B7140000 		.4byte	.LLST136
 7853 25ce 2A       		.uleb128 0x2a
 7854 25cf 06100000 		.4byte	0x1006
 7855 25d3 CA140000 		.4byte	.LLST137
 7856 25d7 00       		.byte	0
 7857 25d8 39       		.uleb128 0x39
 7858 25d9 40000000 		.4byte	.LVL259
 7859 25dd B02B0000 		.4byte	0x2bb0
 7860 25e1 FA250000 		.4byte	0x25fa
 7861 25e5 32       		.uleb128 0x32
 7862 25e6 01       		.uleb128 0x1
 7863 25e7 50       		.byte	0x50
 7864 25e8 03       		.uleb128 0x3
 7865 25e9 91       		.byte	0x91
 7866 25ea F47C     		.sleb128 -396
 7867 25ec 32       		.uleb128 0x32
 7868 25ed 01       		.uleb128 0x1
 7869 25ee 51       		.byte	0x51
 7870 25ef 02       		.uleb128 0x2
 7871 25f0 79       		.byte	0x79
 7872 25f1 00       		.sleb128 0
 7873 25f2 32       		.uleb128 0x32
 7874 25f3 01       		.uleb128 0x1
 7875 25f4 52       		.byte	0x52
 7876 25f5 03       		.uleb128 0x3
 7877 25f6 0A       		.byte	0xa
 7878 25f7 6401     		.2byte	0x164
 7879 25f9 00       		.byte	0
 7880 25fa 39       		.uleb128 0x39
 7881 25fb 5C000000 		.4byte	.LVL260
 7882 25ff B92B0000 		.4byte	0x2bb9
ARM GAS  C:\Users\pearlstl\AppData\Local\Temp\ccQFxYtd.s 			page 176


 7883 2603 14260000 		.4byte	0x2614
 7884 2607 32       		.uleb128 0x32
 7885 2608 01       		.uleb128 0x1
 7886 2609 50       		.byte	0x50
 7887 260a 02       		.uleb128 0x2
 7888 260b 75       		.byte	0x75
 7889 260c 00       		.sleb128 0
 7890 260d 32       		.uleb128 0x32
 7891 260e 01       		.uleb128 0x1
 7892 260f 52       		.byte	0x52
 7893 2610 02       		.uleb128 0x2
 7894 2611 79       		.byte	0x79
 7895 2612 00       		.sleb128 0
 7896 2613 00       		.byte	0
 7897 2614 39       		.uleb128 0x39
 7898 2615 6C000000 		.4byte	.LVL263
 7899 2619 C42B0000 		.4byte	0x2bc4
 7900 261d 29260000 		.4byte	0x2629
 7901 2621 32       		.uleb128 0x32
 7902 2622 01       		.uleb128 0x1
 7903 2623 50       		.byte	0x50
 7904 2624 03       		.uleb128 0x3
 7905 2625 91       		.byte	0x91
 7906 2626 F47C     		.sleb128 -396
 7907 2628 00       		.byte	0
 7908 2629 45       		.uleb128 0x45
 7909 262a 86000000 		.4byte	.LVL264
 7910 262e CF2B0000 		.4byte	0x2bcf
 7911 2632 39       		.uleb128 0x39
 7912 2633 8E000000 		.4byte	.LVL267
 7913 2637 DA2B0000 		.4byte	0x2bda
 7914 263b 47260000 		.4byte	0x2647
 7915 263f 32       		.uleb128 0x32
 7916 2640 01       		.uleb128 0x1
 7917 2641 50       		.byte	0x50
 7918 2642 03       		.uleb128 0x3
 7919 2643 91       		.byte	0x91
 7920 2644 F47C     		.sleb128 -396
 7921 2646 00       		.byte	0
 7922 2647 39       		.uleb128 0x39
 7923 2648 BE000000 		.4byte	.LVL272
 7924 264c 1D2C0000 		.4byte	0x2c1d
 7925 2650 74260000 		.4byte	0x2674
 7926 2654 32       		.uleb128 0x32
 7927 2655 01       		.uleb128 0x1
 7928 2656 50       		.byte	0x50
 7929 2657 02       		.uleb128 0x2
 7930 2658 74       		.byte	0x74
 7931 2659 7C       		.sleb128 -4
 7932 265a 32       		.uleb128 0x32
 7933 265b 01       		.uleb128 0x1
 7934 265c 51       		.byte	0x51
 7935 265d 02       		.uleb128 0x2
 7936 265e 74       		.byte	0x74
 7937 265f 00       		.sleb128 0
 7938 2660 32       		.uleb128 0x32
 7939 2661 01       		.uleb128 0x1
ARM GAS  C:\Users\pearlstl\AppData\Local\Temp\ccQFxYtd.s 			page 177


 7940 2662 52       		.byte	0x52
 7941 2663 02       		.uleb128 0x2
 7942 2664 77       		.byte	0x77
 7943 2665 00       		.sleb128 0
 7944 2666 32       		.uleb128 0x32
 7945 2667 01       		.uleb128 0x1
 7946 2668 53       		.byte	0x53
 7947 2669 02       		.uleb128 0x2
 7948 266a 76       		.byte	0x76
 7949 266b 00       		.sleb128 0
 7950 266c 32       		.uleb128 0x32
 7951 266d 02       		.uleb128 0x2
 7952 266e 7D       		.byte	0x7d
 7953 266f 00       		.sleb128 0
 7954 2670 02       		.uleb128 0x2
 7955 2671 79       		.byte	0x79
 7956 2672 00       		.sleb128 0
 7957 2673 00       		.byte	0
 7958 2674 39       		.uleb128 0x39
 7959 2675 0C010000 		.4byte	.LVL274
 7960 2679 E52B0000 		.4byte	0x2be5
 7961 267d 9C260000 		.4byte	0x269c
 7962 2681 32       		.uleb128 0x32
 7963 2682 01       		.uleb128 0x1
 7964 2683 50       		.byte	0x50
 7965 2684 03       		.uleb128 0x3
 7966 2685 91       		.byte	0x91
 7967 2686 807C     		.sleb128 -512
 7968 2688 32       		.uleb128 0x32
 7969 2689 01       		.uleb128 0x1
 7970 268a 51       		.byte	0x51
 7971 268b 02       		.uleb128 0x2
 7972 268c 77       		.byte	0x77
 7973 268d 00       		.sleb128 0
 7974 268e 32       		.uleb128 0x32
 7975 268f 01       		.uleb128 0x1
 7976 2690 52       		.byte	0x52
 7977 2691 03       		.uleb128 0x3
 7978 2692 91       		.byte	0x91
 7979 2693 A47C     		.sleb128 -476
 7980 2695 32       		.uleb128 0x32
 7981 2696 01       		.uleb128 0x1
 7982 2697 53       		.byte	0x53
 7983 2698 02       		.uleb128 0x2
 7984 2699 79       		.byte	0x79
 7985 269a 00       		.sleb128 0
 7986 269b 00       		.byte	0
 7987 269c 39       		.uleb128 0x39
 7988 269d 56010000 		.4byte	.LVL279
 7989 26a1 E52B0000 		.4byte	0x2be5
 7990 26a5 C5260000 		.4byte	0x26c5
 7991 26a9 32       		.uleb128 0x32
 7992 26aa 01       		.uleb128 0x1
 7993 26ab 50       		.byte	0x50
 7994 26ac 03       		.uleb128 0x3
 7995 26ad 91       		.byte	0x91
 7996 26ae 807C     		.sleb128 -512
ARM GAS  C:\Users\pearlstl\AppData\Local\Temp\ccQFxYtd.s 			page 178


 7997 26b0 32       		.uleb128 0x32
 7998 26b1 01       		.uleb128 0x1
 7999 26b2 51       		.byte	0x51
 8000 26b3 03       		.uleb128 0x3
 8001 26b4 91       		.byte	0x91
 8002 26b5 F87B     		.sleb128 -520
 8003 26b7 32       		.uleb128 0x32
 8004 26b8 01       		.uleb128 0x1
 8005 26b9 52       		.byte	0x52
 8006 26ba 03       		.uleb128 0x3
 8007 26bb 91       		.byte	0x91
 8008 26bc A47C     		.sleb128 -476
 8009 26be 32       		.uleb128 0x32
 8010 26bf 01       		.uleb128 0x1
 8011 26c0 53       		.byte	0x53
 8012 26c1 02       		.uleb128 0x2
 8013 26c2 79       		.byte	0x79
 8014 26c3 00       		.sleb128 0
 8015 26c4 00       		.byte	0
 8016 26c5 39       		.uleb128 0x39
 8017 26c6 5C010000 		.4byte	.LVL280
 8018 26ca DA2B0000 		.4byte	0x2bda
 8019 26ce D9260000 		.4byte	0x26d9
 8020 26d2 32       		.uleb128 0x32
 8021 26d3 01       		.uleb128 0x1
 8022 26d4 50       		.byte	0x50
 8023 26d5 02       		.uleb128 0x2
 8024 26d6 7B       		.byte	0x7b
 8025 26d7 00       		.sleb128 0
 8026 26d8 00       		.byte	0
 8027 26d9 3A       		.uleb128 0x3a
 8028 26da 6A010000 		.4byte	.LVL282
 8029 26de 282C0000 		.4byte	0x2c28
 8030 26e2 32       		.uleb128 0x32
 8031 26e3 01       		.uleb128 0x1
 8032 26e4 50       		.byte	0x50
 8033 26e5 03       		.uleb128 0x3
 8034 26e6 91       		.byte	0x91
 8035 26e7 A47C     		.sleb128 -476
 8036 26e9 32       		.uleb128 0x32
 8037 26ea 01       		.uleb128 0x1
 8038 26eb 51       		.byte	0x51
 8039 26ec 02       		.uleb128 0x2
 8040 26ed 76       		.byte	0x76
 8041 26ee 00       		.sleb128 0
 8042 26ef 00       		.byte	0
 8043 26f0 00       		.byte	0
 8044 26f1 46       		.uleb128 0x46
 8045 26f2 5B130000 		.4byte	.LASF326
 8046 26f6 01       		.byte	0x1
 8047 26f7 E202     		.2byte	0x2e2
 8048 26f9 00000000 		.4byte	.LFB50
 8049 26fd B8000000 		.4byte	.LFE50-.LFB50
 8050 2701 01       		.uleb128 0x1
 8051 2702 9C       		.byte	0x9c
 8052 2703 A3280000 		.4byte	0x28a3
 8053 2707 47       		.uleb128 0x47
ARM GAS  C:\Users\pearlstl\AppData\Local\Temp\ccQFxYtd.s 			page 179


 8054 2708 83040000 		.4byte	.LASF256
 8055 270c 01       		.byte	0x1
 8056 270d E202     		.2byte	0x2e2
 8057 270f 2F0F0000 		.4byte	0xf2f
 8058 2713 EB140000 		.4byte	.LLST138
 8059 2717 47       		.uleb128 0x47
 8060 2718 C6100000 		.4byte	.LASF322
 8061 271c 01       		.byte	0x1
 8062 271d E202     		.2byte	0x2e2
 8063 271f 4A0A0000 		.4byte	0xa4a
 8064 2723 0C150000 		.4byte	.LLST139
 8065 2727 47       		.uleb128 0x47
 8066 2728 1D030000 		.4byte	.LASF323
 8067 272c 01       		.byte	0x1
 8068 272d E202     		.2byte	0x2e2
 8069 272f 0D010000 		.4byte	0x10d
 8070 2733 2A150000 		.4byte	.LLST140
 8071 2737 47       		.uleb128 0x47
 8072 2738 D50D0000 		.4byte	.LASF259
 8073 273c 01       		.byte	0x1
 8074 273d E202     		.2byte	0x2e2
 8075 273f F30B0000 		.4byte	0xbf3
 8076 2743 48150000 		.4byte	.LLST141
 8077 2747 20       		.uleb128 0x20
 8078 2748 64736300 		.ascii	"dsc\000"
 8079 274c 01       		.byte	0x1
 8080 274d E702     		.2byte	0x2e7
 8081 274f EE0F0000 		.4byte	0xfee
 8082 2753 42       		.uleb128 0x42
 8083 2754 830A0000 		.4byte	.LASF313
 8084 2758 01       		.byte	0x1
 8085 2759 EB02     		.2byte	0x2eb
 8086 275b 75030000 		.4byte	0x375
 8087 275f 03       		.uleb128 0x3
 8088 2760 91       		.byte	0x91
 8089 2761 D87C     		.sleb128 -424
 8090 2763 42       		.uleb128 0x42
 8091 2764 470B0000 		.4byte	.LASF314
 8092 2768 01       		.byte	0x1
 8093 2769 F102     		.2byte	0x2f1
 8094 276b 3F0A0000 		.4byte	0xa3f
 8095 276f 03       		.uleb128 0x3
 8096 2770 91       		.byte	0x91
 8097 2771 FC7C     		.sleb128 -388
 8098 2773 42       		.uleb128 0x42
 8099 2774 BF010000 		.4byte	.LASF315
 8100 2778 01       		.byte	0x1
 8101 2779 F402     		.2byte	0x2f4
 8102 277b 0F070000 		.4byte	0x70f
 8103 277f 03       		.uleb128 0x3
 8104 2780 91       		.byte	0x91
 8105 2781 E07C     		.sleb128 -416
 8106 2783 44       		.uleb128 0x44
 8107 2784 F80A0000 		.4byte	.LASF316
 8108 2788 01       		.byte	0x1
 8109 2789 0903     		.2byte	0x309
 8110 278b 64200000 		.4byte	0x2064
ARM GAS  C:\Users\pearlstl\AppData\Local\Temp\ccQFxYtd.s 			page 180


 8111 278f 66150000 		.4byte	.LLST142
 8112 2793 4C       		.uleb128 0x4c
 8113 2794 C70F0000 		.4byte	0xfc7
 8114 2798 0C000000 		.4byte	.LBB165
 8115 279c B8010000 		.4byte	.Ldebug_ranges0+0x1b8
 8116 27a0 01       		.byte	0x1
 8117 27a1 E702     		.2byte	0x2e7
 8118 27a3 CF270000 		.4byte	0x27cf
 8119 27a7 2A       		.uleb128 0x2a
 8120 27a8 D70F0000 		.4byte	0xfd7
 8121 27ac 84150000 		.4byte	.LLST143
 8122 27b0 2F       		.uleb128 0x2f
 8123 27b1 B8010000 		.4byte	.Ldebug_ranges0+0x1b8
 8124 27b5 4F       		.uleb128 0x4f
 8125 27b6 E20F0000 		.4byte	0xfe2
 8126 27ba 01       		.uleb128 0x1
 8127 27bb 55       		.byte	0x55
 8128 27bc 3A       		.uleb128 0x3a
 8129 27bd 10000000 		.4byte	.LVL284
 8130 27c1 142B0000 		.4byte	0x2b14
 8131 27c5 32       		.uleb128 0x32
 8132 27c6 01       		.uleb128 0x1
 8133 27c7 50       		.byte	0x50
 8134 27c8 03       		.uleb128 0x3
 8135 27c9 F3       		.byte	0xf3
 8136 27ca 01       		.uleb128 0x1
 8137 27cb 50       		.byte	0x50
 8138 27cc 00       		.byte	0
 8139 27cd 00       		.byte	0
 8140 27ce 00       		.byte	0
 8141 27cf 4A       		.uleb128 0x4a
 8142 27d0 FA0F0000 		.4byte	0xffa
 8143 27d4 64000000 		.4byte	.LBB169
 8144 27d8 0A000000 		.4byte	.LBE169-.LBB169
 8145 27dc 01       		.byte	0x1
 8146 27dd F602     		.2byte	0x2f6
 8147 27df F6270000 		.4byte	0x27f6
 8148 27e3 2A       		.uleb128 0x2a
 8149 27e4 11100000 		.4byte	0x1011
 8150 27e8 A5150000 		.4byte	.LLST144
 8151 27ec 2A       		.uleb128 0x2a
 8152 27ed 06100000 		.4byte	0x1006
 8153 27f1 B8150000 		.4byte	.LLST145
 8154 27f5 00       		.byte	0
 8155 27f6 39       		.uleb128 0x39
 8156 27f7 44000000 		.4byte	.LVL286
 8157 27fb B02B0000 		.4byte	0x2bb0
 8158 27ff 18280000 		.4byte	0x2818
 8159 2803 32       		.uleb128 0x32
 8160 2804 01       		.uleb128 0x1
 8161 2805 50       		.byte	0x50
 8162 2806 03       		.uleb128 0x3
 8163 2807 91       		.byte	0x91
 8164 2808 FC7C     		.sleb128 -388
 8165 280a 32       		.uleb128 0x32
 8166 280b 01       		.uleb128 0x1
 8167 280c 51       		.byte	0x51
ARM GAS  C:\Users\pearlstl\AppData\Local\Temp\ccQFxYtd.s 			page 181


 8168 280d 02       		.uleb128 0x2
 8169 280e 79       		.byte	0x79
 8170 280f 00       		.sleb128 0
 8171 2810 32       		.uleb128 0x32
 8172 2811 01       		.uleb128 0x1
 8173 2812 52       		.byte	0x52
 8174 2813 03       		.uleb128 0x3
 8175 2814 0A       		.byte	0xa
 8176 2815 6401     		.2byte	0x164
 8177 2817 00       		.byte	0
 8178 2818 39       		.uleb128 0x39
 8179 2819 64000000 		.4byte	.LVL287
 8180 281d B92B0000 		.4byte	0x2bb9
 8181 2821 32280000 		.4byte	0x2832
 8182 2825 32       		.uleb128 0x32
 8183 2826 01       		.uleb128 0x1
 8184 2827 50       		.byte	0x50
 8185 2828 02       		.uleb128 0x2
 8186 2829 7A       		.byte	0x7a
 8187 282a 00       		.sleb128 0
 8188 282b 32       		.uleb128 0x32
 8189 282c 01       		.uleb128 0x1
 8190 282d 52       		.byte	0x52
 8191 282e 02       		.uleb128 0x2
 8192 282f 79       		.byte	0x79
 8193 2830 00       		.sleb128 0
 8194 2831 00       		.byte	0
 8195 2832 39       		.uleb128 0x39
 8196 2833 74000000 		.4byte	.LVL290
 8197 2837 C42B0000 		.4byte	0x2bc4
 8198 283b 47280000 		.4byte	0x2847
 8199 283f 32       		.uleb128 0x32
 8200 2840 01       		.uleb128 0x1
 8201 2841 50       		.byte	0x50
 8202 2842 03       		.uleb128 0x3
 8203 2843 91       		.byte	0x91
 8204 2844 FC7C     		.sleb128 -388
 8205 2846 00       		.byte	0
 8206 2847 45       		.uleb128 0x45
 8207 2848 90000000 		.4byte	.LVL291
 8208 284c CF2B0000 		.4byte	0x2bcf
 8209 2850 39       		.uleb128 0x39
 8210 2851 98000000 		.4byte	.LVL294
 8211 2855 DA2B0000 		.4byte	0x2bda
 8212 2859 65280000 		.4byte	0x2865
 8213 285d 32       		.uleb128 0x32
 8214 285e 01       		.uleb128 0x1
 8215 285f 50       		.byte	0x50
 8216 2860 03       		.uleb128 0x3
 8217 2861 91       		.byte	0x91
 8218 2862 FC7C     		.sleb128 -388
 8219 2864 00       		.byte	0
 8220 2865 39       		.uleb128 0x39
 8221 2866 AC000000 		.4byte	.LVL295
 8222 286a 332C0000 		.4byte	0x2c33
 8223 286e 92280000 		.4byte	0x2892
 8224 2872 32       		.uleb128 0x32
ARM GAS  C:\Users\pearlstl\AppData\Local\Temp\ccQFxYtd.s 			page 182


 8225 2873 01       		.uleb128 0x1
 8226 2874 50       		.byte	0x50
 8227 2875 02       		.uleb128 0x2
 8228 2876 76       		.byte	0x76
 8229 2877 00       		.sleb128 0
 8230 2878 32       		.uleb128 0x32
 8231 2879 01       		.uleb128 0x1
 8232 287a 51       		.byte	0x51
 8233 287b 02       		.uleb128 0x2
 8234 287c 77       		.byte	0x77
 8235 287d 00       		.sleb128 0
 8236 287e 32       		.uleb128 0x32
 8237 287f 01       		.uleb128 0x1
 8238 2880 52       		.byte	0x52
 8239 2881 02       		.uleb128 0x2
 8240 2882 74       		.byte	0x74
 8241 2883 00       		.sleb128 0
 8242 2884 32       		.uleb128 0x32
 8243 2885 01       		.uleb128 0x1
 8244 2886 53       		.byte	0x53
 8245 2887 02       		.uleb128 0x2
 8246 2888 78       		.byte	0x78
 8247 2889 00       		.sleb128 0
 8248 288a 32       		.uleb128 0x32
 8249 288b 02       		.uleb128 0x2
 8250 288c 7D       		.byte	0x7d
 8251 288d 00       		.sleb128 0
 8252 288e 02       		.uleb128 0x2
 8253 288f 09       		.byte	0x9
 8254 2890 FF       		.byte	0xff
 8255 2891 00       		.byte	0
 8256 2892 3A       		.uleb128 0x3a
 8257 2893 B2000000 		.4byte	.LVL296
 8258 2897 DA2B0000 		.4byte	0x2bda
 8259 289b 32       		.uleb128 0x32
 8260 289c 01       		.uleb128 0x1
 8261 289d 50       		.byte	0x50
 8262 289e 02       		.uleb128 0x2
 8263 289f 75       		.byte	0x75
 8264 28a0 00       		.sleb128 0
 8265 28a1 00       		.byte	0
 8266 28a2 00       		.byte	0
 8267 28a3 46       		.uleb128 0x46
 8268 28a4 07000000 		.4byte	.LASF327
 8269 28a8 01       		.byte	0x1
 8270 28a9 1B03     		.2byte	0x31b
 8271 28ab 00000000 		.4byte	.LFB51
 8272 28af C2000000 		.4byte	.LFE51-.LFB51
 8273 28b3 01       		.uleb128 0x1
 8274 28b4 9C       		.byte	0x9c
 8275 28b5 942A0000 		.4byte	0x2a94
 8276 28b9 47       		.uleb128 0x47
 8277 28ba 83040000 		.4byte	.LASF256
 8278 28be 01       		.byte	0x1
 8279 28bf 1B03     		.2byte	0x31b
 8280 28c1 2F0F0000 		.4byte	0xf2f
 8281 28c5 D9150000 		.4byte	.LLST146
ARM GAS  C:\Users\pearlstl\AppData\Local\Temp\ccQFxYtd.s 			page 183


 8282 28c9 48       		.uleb128 0x48
 8283 28ca 7800     		.ascii	"x\000"
 8284 28cc 01       		.byte	0x1
 8285 28cd 1B03     		.2byte	0x31b
 8286 28cf 18010000 		.4byte	0x118
 8287 28d3 FA150000 		.4byte	.LLST147
 8288 28d7 48       		.uleb128 0x48
 8289 28d8 7900     		.ascii	"y\000"
 8290 28da 01       		.byte	0x1
 8291 28db 1B03     		.2byte	0x31b
 8292 28dd 18010000 		.4byte	0x118
 8293 28e1 1B160000 		.4byte	.LLST148
 8294 28e5 48       		.uleb128 0x48
 8295 28e6 7200     		.ascii	"r\000"
 8296 28e8 01       		.byte	0x1
 8297 28e9 1B03     		.2byte	0x31b
 8298 28eb 18010000 		.4byte	0x118
 8299 28ef 3C160000 		.4byte	.LLST149
 8300 28f3 4E       		.uleb128 0x4e
 8301 28f4 D0080000 		.4byte	.LASF328
 8302 28f8 01       		.byte	0x1
 8303 28f9 1B03     		.2byte	0x31b
 8304 28fb 02010000 		.4byte	0x102
 8305 28ff 02       		.uleb128 0x2
 8306 2900 91       		.byte	0x91
 8307 2901 00       		.sleb128 0
 8308 2902 4E       		.uleb128 0x4e
 8309 2903 B9040000 		.4byte	.LASF329
 8310 2907 01       		.byte	0x1
 8311 2908 1C03     		.2byte	0x31c
 8312 290a 02010000 		.4byte	0x102
 8313 290e 02       		.uleb128 0x2
 8314 290f 91       		.byte	0x91
 8315 2910 04       		.sleb128 4
 8316 2911 4E       		.uleb128 0x4e
 8317 2912 D50D0000 		.4byte	.LASF259
 8318 2916 01       		.byte	0x1
 8319 2917 1C03     		.2byte	0x31c
 8320 2919 F30B0000 		.4byte	0xbf3
 8321 291d 02       		.uleb128 0x2
 8322 291e 91       		.byte	0x91
 8323 291f 08       		.sleb128 8
 8324 2920 20       		.uleb128 0x20
 8325 2921 64736300 		.ascii	"dsc\000"
 8326 2925 01       		.byte	0x1
 8327 2926 2103     		.2byte	0x321
 8328 2928 EE0F0000 		.4byte	0xfee
 8329 292c 42       		.uleb128 0x42
 8330 292d 830A0000 		.4byte	.LASF313
 8331 2931 01       		.byte	0x1
 8332 2932 2503     		.2byte	0x325
 8333 2934 75030000 		.4byte	0x375
 8334 2938 03       		.uleb128 0x3
 8335 2939 91       		.byte	0x91
 8336 293a D87C     		.sleb128 -424
 8337 293c 42       		.uleb128 0x42
 8338 293d 470B0000 		.4byte	.LASF314
ARM GAS  C:\Users\pearlstl\AppData\Local\Temp\ccQFxYtd.s 			page 184


 8339 2941 01       		.byte	0x1
 8340 2942 2B03     		.2byte	0x32b
 8341 2944 3F0A0000 		.4byte	0xa3f
 8342 2948 03       		.uleb128 0x3
 8343 2949 91       		.byte	0x91
 8344 294a FC7C     		.sleb128 -388
 8345 294c 42       		.uleb128 0x42
 8346 294d BF010000 		.4byte	.LASF315
 8347 2951 01       		.byte	0x1
 8348 2952 2E03     		.2byte	0x32e
 8349 2954 0F070000 		.4byte	0x70f
 8350 2958 03       		.uleb128 0x3
 8351 2959 91       		.byte	0x91
 8352 295a E07C     		.sleb128 -416
 8353 295c 44       		.uleb128 0x44
 8354 295d F80A0000 		.4byte	.LASF316
 8355 2961 01       		.byte	0x1
 8356 2962 4303     		.2byte	0x343
 8357 2964 64200000 		.4byte	0x2064
 8358 2968 5D160000 		.4byte	.LLST150
 8359 296c 4C       		.uleb128 0x4c
 8360 296d C70F0000 		.4byte	0xfc7
 8361 2971 0C000000 		.4byte	.LBB171
 8362 2975 D0010000 		.4byte	.Ldebug_ranges0+0x1d0
 8363 2979 01       		.byte	0x1
 8364 297a 2103     		.2byte	0x321
 8365 297c A8290000 		.4byte	0x29a8
 8366 2980 2A       		.uleb128 0x2a
 8367 2981 D70F0000 		.4byte	0xfd7
 8368 2985 7B160000 		.4byte	.LLST151
 8369 2989 2F       		.uleb128 0x2f
 8370 298a D0010000 		.4byte	.Ldebug_ranges0+0x1d0
 8371 298e 4F       		.uleb128 0x4f
 8372 298f E20F0000 		.4byte	0xfe2
 8373 2993 01       		.uleb128 0x1
 8374 2994 55       		.byte	0x55
 8375 2995 3A       		.uleb128 0x3a
 8376 2996 10000000 		.4byte	.LVL298
 8377 299a 142B0000 		.4byte	0x2b14
 8378 299e 32       		.uleb128 0x32
 8379 299f 01       		.uleb128 0x1
 8380 29a0 50       		.byte	0x50
 8381 29a1 03       		.uleb128 0x3
 8382 29a2 F3       		.byte	0xf3
 8383 29a3 01       		.uleb128 0x1
 8384 29a4 50       		.byte	0x50
 8385 29a5 00       		.byte	0
 8386 29a6 00       		.byte	0
 8387 29a7 00       		.byte	0
 8388 29a8 4A       		.uleb128 0x4a
 8389 29a9 FA0F0000 		.4byte	0xffa
 8390 29ad 62000000 		.4byte	.LBB175
 8391 29b1 0A000000 		.4byte	.LBE175-.LBB175
 8392 29b5 01       		.byte	0x1
 8393 29b6 3003     		.2byte	0x330
 8394 29b8 CF290000 		.4byte	0x29cf
 8395 29bc 2A       		.uleb128 0x2a
ARM GAS  C:\Users\pearlstl\AppData\Local\Temp\ccQFxYtd.s 			page 185


 8396 29bd 11100000 		.4byte	0x1011
 8397 29c1 9C160000 		.4byte	.LLST152
 8398 29c5 2A       		.uleb128 0x2a
 8399 29c6 06100000 		.4byte	0x1006
 8400 29ca AF160000 		.4byte	.LLST153
 8401 29ce 00       		.byte	0
 8402 29cf 39       		.uleb128 0x39
 8403 29d0 44000000 		.4byte	.LVL300
 8404 29d4 B02B0000 		.4byte	0x2bb0
 8405 29d8 F1290000 		.4byte	0x29f1
 8406 29dc 32       		.uleb128 0x32
 8407 29dd 01       		.uleb128 0x1
 8408 29de 50       		.byte	0x50
 8409 29df 03       		.uleb128 0x3
 8410 29e0 91       		.byte	0x91
 8411 29e1 FC7C     		.sleb128 -388
 8412 29e3 32       		.uleb128 0x32
 8413 29e4 01       		.uleb128 0x1
 8414 29e5 51       		.byte	0x51
 8415 29e6 02       		.uleb128 0x2
 8416 29e7 7A       		.byte	0x7a
 8417 29e8 00       		.sleb128 0
 8418 29e9 32       		.uleb128 0x32
 8419 29ea 01       		.uleb128 0x1
 8420 29eb 52       		.byte	0x52
 8421 29ec 03       		.uleb128 0x3
 8422 29ed 0A       		.byte	0xa
 8423 29ee 6401     		.2byte	0x164
 8424 29f0 00       		.byte	0
 8425 29f1 39       		.uleb128 0x39
 8426 29f2 62000000 		.4byte	.LVL301
 8427 29f6 B92B0000 		.4byte	0x2bb9
 8428 29fa 0B2A0000 		.4byte	0x2a0b
 8429 29fe 32       		.uleb128 0x32
 8430 29ff 01       		.uleb128 0x1
 8431 2a00 50       		.byte	0x50
 8432 2a01 02       		.uleb128 0x2
 8433 2a02 76       		.byte	0x76
 8434 2a03 00       		.sleb128 0
 8435 2a04 32       		.uleb128 0x32
 8436 2a05 01       		.uleb128 0x1
 8437 2a06 52       		.byte	0x52
 8438 2a07 02       		.uleb128 0x2
 8439 2a08 7A       		.byte	0x7a
 8440 2a09 00       		.sleb128 0
 8441 2a0a 00       		.byte	0
 8442 2a0b 39       		.uleb128 0x39
 8443 2a0c 72000000 		.4byte	.LVL304
 8444 2a10 C42B0000 		.4byte	0x2bc4
 8445 2a14 202A0000 		.4byte	0x2a20
 8446 2a18 32       		.uleb128 0x32
 8447 2a19 01       		.uleb128 0x1
 8448 2a1a 50       		.byte	0x50
 8449 2a1b 03       		.uleb128 0x3
 8450 2a1c 91       		.byte	0x91
 8451 2a1d FC7C     		.sleb128 -388
 8452 2a1f 00       		.byte	0
ARM GAS  C:\Users\pearlstl\AppData\Local\Temp\ccQFxYtd.s 			page 186


 8453 2a20 45       		.uleb128 0x45
 8454 2a21 8C000000 		.4byte	.LVL305
 8455 2a25 CF2B0000 		.4byte	0x2bcf
 8456 2a29 39       		.uleb128 0x39
 8457 2a2a 94000000 		.4byte	.LVL308
 8458 2a2e DA2B0000 		.4byte	0x2bda
 8459 2a32 3E2A0000 		.4byte	0x2a3e
 8460 2a36 32       		.uleb128 0x32
 8461 2a37 01       		.uleb128 0x1
 8462 2a38 50       		.byte	0x50
 8463 2a39 03       		.uleb128 0x3
 8464 2a3a 91       		.byte	0x91
 8465 2a3b FC7C     		.sleb128 -388
 8466 2a3d 00       		.byte	0
 8467 2a3e 39       		.uleb128 0x39
 8468 2a3f B6000000 		.4byte	.LVL309
 8469 2a43 3E2C0000 		.4byte	0x2c3e
 8470 2a47 832A0000 		.4byte	0x2a83
 8471 2a4b 32       		.uleb128 0x32
 8472 2a4c 01       		.uleb128 0x1
 8473 2a4d 50       		.byte	0x50
 8474 2a4e 02       		.uleb128 0x2
 8475 2a4f 77       		.byte	0x77
 8476 2a50 00       		.sleb128 0
 8477 2a51 32       		.uleb128 0x32
 8478 2a52 01       		.uleb128 0x1
 8479 2a53 51       		.byte	0x51
 8480 2a54 02       		.uleb128 0x2
 8481 2a55 78       		.byte	0x78
 8482 2a56 00       		.sleb128 0
 8483 2a57 32       		.uleb128 0x32
 8484 2a58 01       		.uleb128 0x1
 8485 2a59 52       		.byte	0x52
 8486 2a5a 02       		.uleb128 0x2
 8487 2a5b 79       		.byte	0x79
 8488 2a5c 00       		.sleb128 0
 8489 2a5d 32       		.uleb128 0x32
 8490 2a5e 01       		.uleb128 0x1
 8491 2a5f 53       		.byte	0x53
 8492 2a60 02       		.uleb128 0x2
 8493 2a61 74       		.byte	0x74
 8494 2a62 00       		.sleb128 0
 8495 2a63 32       		.uleb128 0x32
 8496 2a64 02       		.uleb128 0x2
 8497 2a65 7D       		.byte	0x7d
 8498 2a66 00       		.sleb128 0
 8499 2a67 02       		.uleb128 0x2
 8500 2a68 75       		.byte	0x75
 8501 2a69 00       		.sleb128 0
 8502 2a6a 32       		.uleb128 0x32
 8503 2a6b 02       		.uleb128 0x2
 8504 2a6c 7D       		.byte	0x7d
 8505 2a6d 04       		.sleb128 4
 8506 2a6e 04       		.uleb128 0x4
 8507 2a6f 91       		.byte	0x91
 8508 2a70 04       		.sleb128 4
 8509 2a71 94       		.byte	0x94
ARM GAS  C:\Users\pearlstl\AppData\Local\Temp\ccQFxYtd.s 			page 187


 8510 2a72 02       		.byte	0x2
 8511 2a73 32       		.uleb128 0x32
 8512 2a74 02       		.uleb128 0x2
 8513 2a75 7D       		.byte	0x7d
 8514 2a76 08       		.sleb128 8
 8515 2a77 03       		.uleb128 0x3
 8516 2a78 91       		.byte	0x91
 8517 2a79 08       		.sleb128 8
 8518 2a7a 06       		.byte	0x6
 8519 2a7b 32       		.uleb128 0x32
 8520 2a7c 02       		.uleb128 0x2
 8521 2a7d 7D       		.byte	0x7d
 8522 2a7e 0C       		.sleb128 12
 8523 2a7f 02       		.uleb128 0x2
 8524 2a80 76       		.byte	0x76
 8525 2a81 00       		.sleb128 0
 8526 2a82 00       		.byte	0
 8527 2a83 3A       		.uleb128 0x3a
 8528 2a84 BC000000 		.4byte	.LVL310
 8529 2a88 DA2B0000 		.4byte	0x2bda
 8530 2a8c 32       		.uleb128 0x32
 8531 2a8d 01       		.uleb128 0x1
 8532 2a8e 50       		.byte	0x50
 8533 2a8f 02       		.uleb128 0x2
 8534 2a90 7A       		.byte	0x7a
 8535 2a91 00       		.sleb128 0
 8536 2a92 00       		.byte	0
 8537 2a93 00       		.byte	0
 8538 2a94 50       		.uleb128 0x50
 8539 2a95 1E0F0000 		.4byte	.LASF330
 8540 2a99 01       		.byte	0x1
 8541 2a9a 23       		.byte	0x23
 8542 2a9b 460B0000 		.4byte	0xb46
 8543 2a9f 05       		.uleb128 0x5
 8544 2aa0 03       		.byte	0x3
 8545 2aa1 00000000 		.4byte	ancestor_signal
 8546 2aa5 50       		.uleb128 0x50
 8547 2aa6 4A0F0000 		.4byte	.LASF331
 8548 2aaa 01       		.byte	0x1
 8549 2aab 24       		.byte	0x24
 8550 2aac 600A0000 		.4byte	0xa60
 8551 2ab0 05       		.uleb128 0x5
 8552 2ab1 03       		.byte	0x3
 8553 2ab2 04000000 		.4byte	ancestor_design
 8554 2ab6 51       		.uleb128 0x51
 8555 2ab7 13100000 		.4byte	.LASF332
 8556 2abb 13100000 		.4byte	.LASF332
 8557 2abf 0F       		.byte	0xf
 8558 2ac0 E703     		.2byte	0x3e7
 8559 2ac2 52       		.uleb128 0x52
 8560 2ac3 B2120000 		.4byte	.LASF333
 8561 2ac7 B2120000 		.4byte	.LASF333
 8562 2acb 02       		.byte	0x2
 8563 2acc 42       		.byte	0x42
 8564 2acd 51       		.uleb128 0x51
 8565 2ace 7E050000 		.4byte	.LASF334
 8566 2ad2 7E050000 		.4byte	.LASF334
ARM GAS  C:\Users\pearlstl\AppData\Local\Temp\ccQFxYtd.s 			page 188


 8567 2ad6 0F       		.byte	0xf
 8568 2ad7 7A02     		.2byte	0x27a
 8569 2ad9 52       		.uleb128 0x52
 8570 2ada 310C0000 		.4byte	.LASF335
 8571 2ade 310C0000 		.4byte	.LASF335
 8572 2ae2 02       		.byte	0x2
 8573 2ae3 4D       		.byte	0x4d
 8574 2ae4 51       		.uleb128 0x51
 8575 2ae5 79010000 		.4byte	.LASF336
 8576 2ae9 79010000 		.4byte	.LASF336
 8577 2aed 0F       		.byte	0xf
 8578 2aee 6002     		.2byte	0x260
 8579 2af0 51       		.uleb128 0x51
 8580 2af1 670B0000 		.4byte	.LASF337
 8581 2af5 670B0000 		.4byte	.LASF337
 8582 2af9 0F       		.byte	0xf
 8583 2afa D001     		.2byte	0x1d0
 8584 2afc 51       		.uleb128 0x51
 8585 2afd D40F0000 		.4byte	.LASF338
 8586 2b01 D40F0000 		.4byte	.LASF338
 8587 2b05 0F       		.byte	0xf
 8588 2b06 9003     		.2byte	0x390
 8589 2b08 51       		.uleb128 0x51
 8590 2b09 AB030000 		.4byte	.LASF339
 8591 2b0d AB030000 		.4byte	.LASF339
 8592 2b11 0F       		.byte	0xf
 8593 2b12 9703     		.2byte	0x397
 8594 2b14 51       		.uleb128 0x51
 8595 2b15 30060000 		.4byte	.LASF340
 8596 2b19 30060000 		.4byte	.LASF340
 8597 2b1d 0F       		.byte	0xf
 8598 2b1e AA03     		.2byte	0x3aa
 8599 2b20 52       		.uleb128 0x52
 8600 2b21 71120000 		.4byte	.LASF341
 8601 2b25 71120000 		.4byte	.LASF341
 8602 2b29 14       		.byte	0x14
 8603 2b2a 7F       		.byte	0x7f
 8604 2b2b 52       		.uleb128 0x52
 8605 2b2c 2D0E0000 		.4byte	.LASF342
 8606 2b30 2D0E0000 		.4byte	.LASF342
 8607 2b34 14       		.byte	0x14
 8608 2b35 63       		.byte	0x63
 8609 2b36 51       		.uleb128 0x51
 8610 2b37 9A120000 		.4byte	.LASF343
 8611 2b3b 9A120000 		.4byte	.LASF343
 8612 2b3f 0F       		.byte	0xf
 8613 2b40 4801     		.2byte	0x148
 8614 2b42 52       		.uleb128 0x52
 8615 2b43 010B0000 		.4byte	.LASF344
 8616 2b47 010B0000 		.4byte	.LASF344
 8617 2b4b 14       		.byte	0x14
 8618 2b4c 78       		.byte	0x78
 8619 2b4d 51       		.uleb128 0x51
 8620 2b4e 44120000 		.4byte	.LASF345
 8621 2b52 44120000 		.4byte	.LASF345
 8622 2b56 0F       		.byte	0xf
 8623 2b57 CA01     		.2byte	0x1ca
ARM GAS  C:\Users\pearlstl\AppData\Local\Temp\ccQFxYtd.s 			page 189


 8624 2b59 51       		.uleb128 0x51
 8625 2b5a 0E050000 		.4byte	.LASF346
 8626 2b5e 0E050000 		.4byte	.LASF346
 8627 2b62 0F       		.byte	0xf
 8628 2b63 2D03     		.2byte	0x32d
 8629 2b65 52       		.uleb128 0x52
 8630 2b66 C8070000 		.4byte	.LASF347
 8631 2b6a C8070000 		.4byte	.LASF347
 8632 2b6e 14       		.byte	0x14
 8633 2b6f 52       		.byte	0x52
 8634 2b70 53       		.uleb128 0x53
 8635 2b71 13120000 		.4byte	.LASF353
 8636 2b75 13120000 		.4byte	.LASF353
 8637 2b79 52       		.uleb128 0x52
 8638 2b7a FA050000 		.4byte	.LASF348
 8639 2b7e FA050000 		.4byte	.LASF348
 8640 2b82 14       		.byte	0x14
 8641 2b83 6C       		.byte	0x6c
 8642 2b84 52       		.uleb128 0x52
 8643 2b85 B20F0000 		.4byte	.LASF349
 8644 2b89 B20F0000 		.4byte	.LASF349
 8645 2b8d 14       		.byte	0x14
 8646 2b8e 5A       		.byte	0x5a
 8647 2b8f 52       		.uleb128 0x52
 8648 2b90 8A040000 		.4byte	.LASF350
 8649 2b94 8A040000 		.4byte	.LASF350
 8650 2b98 14       		.byte	0x14
 8651 2b99 8D       		.byte	0x8d
 8652 2b9a 52       		.uleb128 0x52
 8653 2b9b 39040000 		.4byte	.LASF351
 8654 2b9f 39040000 		.4byte	.LASF351
 8655 2ba3 14       		.byte	0x14
 8656 2ba4 86       		.byte	0x86
 8657 2ba5 52       		.uleb128 0x52
 8658 2ba6 DD010000 		.4byte	.LASF352
 8659 2baa DD010000 		.4byte	.LASF352
 8660 2bae 15       		.byte	0x15
 8661 2baf 31       		.byte	0x31
 8662 2bb0 53       		.uleb128 0x53
 8663 2bb1 860F0000 		.4byte	.LASF354
 8664 2bb5 860F0000 		.4byte	.LASF354
 8665 2bb9 52       		.uleb128 0x52
 8666 2bba FF030000 		.4byte	.LASF355
 8667 2bbe FF030000 		.4byte	.LASF355
 8668 2bc2 0E       		.byte	0xe
 8669 2bc3 B1       		.byte	0xb1
 8670 2bc4 52       		.uleb128 0x52
 8671 2bc5 DF050000 		.4byte	.LASF356
 8672 2bc9 DF050000 		.4byte	.LASF356
 8673 2bcd 0E       		.byte	0xe
 8674 2bce A0       		.byte	0xa0
 8675 2bcf 52       		.uleb128 0x52
 8676 2bd0 7E000000 		.4byte	.LASF357
 8677 2bd4 7E000000 		.4byte	.LASF357
 8678 2bd8 16       		.byte	0x16
 8679 2bd9 45       		.byte	0x45
 8680 2bda 52       		.uleb128 0x52
ARM GAS  C:\Users\pearlstl\AppData\Local\Temp\ccQFxYtd.s 			page 190


 8681 2bdb 110A0000 		.4byte	.LASF358
 8682 2bdf 110A0000 		.4byte	.LASF358
 8683 2be3 16       		.byte	0x16
 8684 2be4 4D       		.byte	0x4d
 8685 2be5 52       		.uleb128 0x52
 8686 2be6 9B0E0000 		.4byte	.LASF359
 8687 2bea 9B0E0000 		.4byte	.LASF359
 8688 2bee 17       		.byte	0x17
 8689 2bef 25       		.byte	0x25
 8690 2bf0 51       		.uleb128 0x51
 8691 2bf1 0A090000 		.4byte	.LASF360
 8692 2bf5 0A090000 		.4byte	.LASF360
 8693 2bf9 0F       		.byte	0xf
 8694 2bfa 6C03     		.2byte	0x36c
 8695 2bfc 52       		.uleb128 0x52
 8696 2bfd 14070000 		.4byte	.LASF361
 8697 2c01 14070000 		.4byte	.LASF361
 8698 2c05 18       		.byte	0x18
 8699 2c06 44       		.byte	0x44
 8700 2c07 52       		.uleb128 0x52
 8701 2c08 FA100000 		.4byte	.LASF362
 8702 2c0c FA100000 		.4byte	.LASF362
 8703 2c10 11       		.byte	0x11
 8704 2c11 EB       		.byte	0xeb
 8705 2c12 52       		.uleb128 0x52
 8706 2c13 A6090000 		.4byte	.LASF363
 8707 2c17 A6090000 		.4byte	.LASF363
 8708 2c1b 14       		.byte	0x14
 8709 2c1c 3B       		.byte	0x3b
 8710 2c1d 52       		.uleb128 0x52
 8711 2c1e 86100000 		.4byte	.LASF364
 8712 2c22 86100000 		.4byte	.LASF364
 8713 2c26 19       		.byte	0x19
 8714 2c27 25       		.byte	0x25
 8715 2c28 52       		.uleb128 0x52
 8716 2c29 3E090000 		.4byte	.LASF365
 8717 2c2d 3E090000 		.4byte	.LASF365
 8718 2c31 09       		.byte	0x9
 8719 2c32 A0       		.byte	0xa0
 8720 2c33 52       		.uleb128 0x52
 8721 2c34 43010000 		.4byte	.LASF366
 8722 2c38 43010000 		.4byte	.LASF366
 8723 2c3c 1A       		.byte	0x1a
 8724 2c3d 2F       		.byte	0x2f
 8725 2c3e 52       		.uleb128 0x52
 8726 2c3f 3E000000 		.4byte	.LASF367
 8727 2c43 3E000000 		.4byte	.LASF367
 8728 2c47 1B       		.byte	0x1b
 8729 2c48 29       		.byte	0x29
 8730 2c49 00       		.byte	0
 8731              		.section	.debug_abbrev,"",%progbits
 8732              	.Ldebug_abbrev0:
 8733 0000 01       		.uleb128 0x1
 8734 0001 11       		.uleb128 0x11
 8735 0002 01       		.byte	0x1
 8736 0003 25       		.uleb128 0x25
 8737 0004 0E       		.uleb128 0xe
ARM GAS  C:\Users\pearlstl\AppData\Local\Temp\ccQFxYtd.s 			page 191


 8738 0005 13       		.uleb128 0x13
 8739 0006 0B       		.uleb128 0xb
 8740 0007 03       		.uleb128 0x3
 8741 0008 0E       		.uleb128 0xe
 8742 0009 1B       		.uleb128 0x1b
 8743 000a 0E       		.uleb128 0xe
 8744 000b 55       		.uleb128 0x55
 8745 000c 17       		.uleb128 0x17
 8746 000d 11       		.uleb128 0x11
 8747 000e 01       		.uleb128 0x1
 8748 000f 10       		.uleb128 0x10
 8749 0010 17       		.uleb128 0x17
 8750 0011 00       		.byte	0
 8751 0012 00       		.byte	0
 8752 0013 02       		.uleb128 0x2
 8753 0014 24       		.uleb128 0x24
 8754 0015 00       		.byte	0
 8755 0016 0B       		.uleb128 0xb
 8756 0017 0B       		.uleb128 0xb
 8757 0018 3E       		.uleb128 0x3e
 8758 0019 0B       		.uleb128 0xb
 8759 001a 03       		.uleb128 0x3
 8760 001b 0E       		.uleb128 0xe
 8761 001c 00       		.byte	0
 8762 001d 00       		.byte	0
 8763 001e 03       		.uleb128 0x3
 8764 001f 24       		.uleb128 0x24
 8765 0020 00       		.byte	0
 8766 0021 0B       		.uleb128 0xb
 8767 0022 0B       		.uleb128 0xb
 8768 0023 3E       		.uleb128 0x3e
 8769 0024 0B       		.uleb128 0xb
 8770 0025 03       		.uleb128 0x3
 8771 0026 08       		.uleb128 0x8
 8772 0027 00       		.byte	0
 8773 0028 00       		.byte	0
 8774 0029 04       		.uleb128 0x4
 8775 002a 16       		.uleb128 0x16
 8776 002b 00       		.byte	0
 8777 002c 03       		.uleb128 0x3
 8778 002d 0E       		.uleb128 0xe
 8779 002e 3A       		.uleb128 0x3a
 8780 002f 0B       		.uleb128 0xb
 8781 0030 3B       		.uleb128 0x3b
 8782 0031 0B       		.uleb128 0xb
 8783 0032 49       		.uleb128 0x49
 8784 0033 13       		.uleb128 0x13
 8785 0034 00       		.byte	0
 8786 0035 00       		.byte	0
 8787 0036 05       		.uleb128 0x5
 8788 0037 0F       		.uleb128 0xf
 8789 0038 00       		.byte	0
 8790 0039 0B       		.uleb128 0xb
 8791 003a 0B       		.uleb128 0xb
 8792 003b 00       		.byte	0
 8793 003c 00       		.byte	0
 8794 003d 06       		.uleb128 0x6
ARM GAS  C:\Users\pearlstl\AppData\Local\Temp\ccQFxYtd.s 			page 192


 8795 003e 0F       		.uleb128 0xf
 8796 003f 00       		.byte	0
 8797 0040 0B       		.uleb128 0xb
 8798 0041 0B       		.uleb128 0xb
 8799 0042 49       		.uleb128 0x49
 8800 0043 13       		.uleb128 0x13
 8801 0044 00       		.byte	0
 8802 0045 00       		.byte	0
 8803 0046 07       		.uleb128 0x7
 8804 0047 26       		.uleb128 0x26
 8805 0048 00       		.byte	0
 8806 0049 49       		.uleb128 0x49
 8807 004a 13       		.uleb128 0x13
 8808 004b 00       		.byte	0
 8809 004c 00       		.byte	0
 8810 004d 08       		.uleb128 0x8
 8811 004e 26       		.uleb128 0x26
 8812 004f 00       		.byte	0
 8813 0050 00       		.byte	0
 8814 0051 00       		.byte	0
 8815 0052 09       		.uleb128 0x9
 8816 0053 13       		.uleb128 0x13
 8817 0054 01       		.byte	0x1
 8818 0055 0B       		.uleb128 0xb
 8819 0056 0B       		.uleb128 0xb
 8820 0057 3A       		.uleb128 0x3a
 8821 0058 0B       		.uleb128 0xb
 8822 0059 3B       		.uleb128 0x3b
 8823 005a 0B       		.uleb128 0xb
 8824 005b 01       		.uleb128 0x1
 8825 005c 13       		.uleb128 0x13
 8826 005d 00       		.byte	0
 8827 005e 00       		.byte	0
 8828 005f 0A       		.uleb128 0xa
 8829 0060 0D       		.uleb128 0xd
 8830 0061 00       		.byte	0
 8831 0062 03       		.uleb128 0x3
 8832 0063 0E       		.uleb128 0xe
 8833 0064 3A       		.uleb128 0x3a
 8834 0065 0B       		.uleb128 0xb
 8835 0066 3B       		.uleb128 0x3b
 8836 0067 0B       		.uleb128 0xb
 8837 0068 49       		.uleb128 0x49
 8838 0069 13       		.uleb128 0x13
 8839 006a 38       		.uleb128 0x38
 8840 006b 0B       		.uleb128 0xb
 8841 006c 00       		.byte	0
 8842 006d 00       		.byte	0
 8843 006e 0B       		.uleb128 0xb
 8844 006f 0D       		.uleb128 0xd
 8845 0070 00       		.byte	0
 8846 0071 03       		.uleb128 0x3
 8847 0072 08       		.uleb128 0x8
 8848 0073 3A       		.uleb128 0x3a
 8849 0074 0B       		.uleb128 0xb
 8850 0075 3B       		.uleb128 0x3b
 8851 0076 0B       		.uleb128 0xb
ARM GAS  C:\Users\pearlstl\AppData\Local\Temp\ccQFxYtd.s 			page 193


 8852 0077 49       		.uleb128 0x49
 8853 0078 13       		.uleb128 0x13
 8854 0079 38       		.uleb128 0x38
 8855 007a 0B       		.uleb128 0xb
 8856 007b 00       		.byte	0
 8857 007c 00       		.byte	0
 8858 007d 0C       		.uleb128 0xc
 8859 007e 13       		.uleb128 0x13
 8860 007f 01       		.byte	0x1
 8861 0080 03       		.uleb128 0x3
 8862 0081 0E       		.uleb128 0xe
 8863 0082 0B       		.uleb128 0xb
 8864 0083 0B       		.uleb128 0xb
 8865 0084 3A       		.uleb128 0x3a
 8866 0085 0B       		.uleb128 0xb
 8867 0086 3B       		.uleb128 0x3b
 8868 0087 0B       		.uleb128 0xb
 8869 0088 01       		.uleb128 0x1
 8870 0089 13       		.uleb128 0x13
 8871 008a 00       		.byte	0
 8872 008b 00       		.byte	0
 8873 008c 0D       		.uleb128 0xd
 8874 008d 0D       		.uleb128 0xd
 8875 008e 00       		.byte	0
 8876 008f 03       		.uleb128 0x3
 8877 0090 0E       		.uleb128 0xe
 8878 0091 3A       		.uleb128 0x3a
 8879 0092 0B       		.uleb128 0xb
 8880 0093 3B       		.uleb128 0x3b
 8881 0094 0B       		.uleb128 0xb
 8882 0095 49       		.uleb128 0x49
 8883 0096 13       		.uleb128 0x13
 8884 0097 0B       		.uleb128 0xb
 8885 0098 0B       		.uleb128 0xb
 8886 0099 0D       		.uleb128 0xd
 8887 009a 0B       		.uleb128 0xb
 8888 009b 0C       		.uleb128 0xc
 8889 009c 0B       		.uleb128 0xb
 8890 009d 38       		.uleb128 0x38
 8891 009e 0B       		.uleb128 0xb
 8892 009f 00       		.byte	0
 8893 00a0 00       		.byte	0
 8894 00a1 0E       		.uleb128 0xe
 8895 00a2 15       		.uleb128 0x15
 8896 00a3 01       		.byte	0x1
 8897 00a4 27       		.uleb128 0x27
 8898 00a5 19       		.uleb128 0x19
 8899 00a6 49       		.uleb128 0x49
 8900 00a7 13       		.uleb128 0x13
 8901 00a8 01       		.uleb128 0x1
 8902 00a9 13       		.uleb128 0x13
 8903 00aa 00       		.byte	0
 8904 00ab 00       		.byte	0
 8905 00ac 0F       		.uleb128 0xf
 8906 00ad 05       		.uleb128 0x5
 8907 00ae 00       		.byte	0
 8908 00af 49       		.uleb128 0x49
ARM GAS  C:\Users\pearlstl\AppData\Local\Temp\ccQFxYtd.s 			page 194


 8909 00b0 13       		.uleb128 0x13
 8910 00b1 00       		.byte	0
 8911 00b2 00       		.byte	0
 8912 00b3 10       		.uleb128 0x10
 8913 00b4 04       		.uleb128 0x4
 8914 00b5 01       		.byte	0x1
 8915 00b6 0B       		.uleb128 0xb
 8916 00b7 0B       		.uleb128 0xb
 8917 00b8 49       		.uleb128 0x49
 8918 00b9 13       		.uleb128 0x13
 8919 00ba 3A       		.uleb128 0x3a
 8920 00bb 0B       		.uleb128 0xb
 8921 00bc 3B       		.uleb128 0x3b
 8922 00bd 0B       		.uleb128 0xb
 8923 00be 01       		.uleb128 0x1
 8924 00bf 13       		.uleb128 0x13
 8925 00c0 00       		.byte	0
 8926 00c1 00       		.byte	0
 8927 00c2 11       		.uleb128 0x11
 8928 00c3 28       		.uleb128 0x28
 8929 00c4 00       		.byte	0
 8930 00c5 03       		.uleb128 0x3
 8931 00c6 0E       		.uleb128 0xe
 8932 00c7 1C       		.uleb128 0x1c
 8933 00c8 0B       		.uleb128 0xb
 8934 00c9 00       		.byte	0
 8935 00ca 00       		.byte	0
 8936 00cb 12       		.uleb128 0x12
 8937 00cc 17       		.uleb128 0x17
 8938 00cd 01       		.byte	0x1
 8939 00ce 0B       		.uleb128 0xb
 8940 00cf 0B       		.uleb128 0xb
 8941 00d0 3A       		.uleb128 0x3a
 8942 00d1 0B       		.uleb128 0xb
 8943 00d2 3B       		.uleb128 0x3b
 8944 00d3 0B       		.uleb128 0xb
 8945 00d4 01       		.uleb128 0x1
 8946 00d5 13       		.uleb128 0x13
 8947 00d6 00       		.byte	0
 8948 00d7 00       		.byte	0
 8949 00d8 13       		.uleb128 0x13
 8950 00d9 0D       		.uleb128 0xd
 8951 00da 00       		.byte	0
 8952 00db 03       		.uleb128 0x3
 8953 00dc 08       		.uleb128 0x8
 8954 00dd 3A       		.uleb128 0x3a
 8955 00de 0B       		.uleb128 0xb
 8956 00df 3B       		.uleb128 0x3b
 8957 00e0 0B       		.uleb128 0xb
 8958 00e1 49       		.uleb128 0x49
 8959 00e2 13       		.uleb128 0x13
 8960 00e3 00       		.byte	0
 8961 00e4 00       		.byte	0
 8962 00e5 14       		.uleb128 0x14
 8963 00e6 0D       		.uleb128 0xd
 8964 00e7 00       		.byte	0
 8965 00e8 03       		.uleb128 0x3
ARM GAS  C:\Users\pearlstl\AppData\Local\Temp\ccQFxYtd.s 			page 195


 8966 00e9 0E       		.uleb128 0xe
 8967 00ea 3A       		.uleb128 0x3a
 8968 00eb 0B       		.uleb128 0xb
 8969 00ec 3B       		.uleb128 0x3b
 8970 00ed 0B       		.uleb128 0xb
 8971 00ee 49       		.uleb128 0x49
 8972 00ef 13       		.uleb128 0x13
 8973 00f0 00       		.byte	0
 8974 00f1 00       		.byte	0
 8975 00f2 15       		.uleb128 0x15
 8976 00f3 16       		.uleb128 0x16
 8977 00f4 00       		.byte	0
 8978 00f5 03       		.uleb128 0x3
 8979 00f6 0E       		.uleb128 0xe
 8980 00f7 3A       		.uleb128 0x3a
 8981 00f8 0B       		.uleb128 0xb
 8982 00f9 3B       		.uleb128 0x3b
 8983 00fa 05       		.uleb128 0x5
 8984 00fb 49       		.uleb128 0x49
 8985 00fc 13       		.uleb128 0x13
 8986 00fd 00       		.byte	0
 8987 00fe 00       		.byte	0
 8988 00ff 16       		.uleb128 0x16
 8989 0100 15       		.uleb128 0x15
 8990 0101 01       		.byte	0x1
 8991 0102 27       		.uleb128 0x27
 8992 0103 19       		.uleb128 0x19
 8993 0104 01       		.uleb128 0x1
 8994 0105 13       		.uleb128 0x13
 8995 0106 00       		.byte	0
 8996 0107 00       		.byte	0
 8997 0108 17       		.uleb128 0x17
 8998 0109 35       		.uleb128 0x35
 8999 010a 00       		.byte	0
 9000 010b 49       		.uleb128 0x49
 9001 010c 13       		.uleb128 0x13
 9002 010d 00       		.byte	0
 9003 010e 00       		.byte	0
 9004 010f 18       		.uleb128 0x18
 9005 0110 13       		.uleb128 0x13
 9006 0111 01       		.byte	0x1
 9007 0112 03       		.uleb128 0x3
 9008 0113 0E       		.uleb128 0xe
 9009 0114 0B       		.uleb128 0xb
 9010 0115 05       		.uleb128 0x5
 9011 0116 3A       		.uleb128 0x3a
 9012 0117 0B       		.uleb128 0xb
 9013 0118 3B       		.uleb128 0x3b
 9014 0119 0B       		.uleb128 0xb
 9015 011a 01       		.uleb128 0x1
 9016 011b 13       		.uleb128 0x13
 9017 011c 00       		.byte	0
 9018 011d 00       		.byte	0
 9019 011e 19       		.uleb128 0x19
 9020 011f 0D       		.uleb128 0xd
 9021 0120 00       		.byte	0
 9022 0121 03       		.uleb128 0x3
ARM GAS  C:\Users\pearlstl\AppData\Local\Temp\ccQFxYtd.s 			page 196


 9023 0122 0E       		.uleb128 0xe
 9024 0123 3A       		.uleb128 0x3a
 9025 0124 0B       		.uleb128 0xb
 9026 0125 3B       		.uleb128 0x3b
 9027 0126 0B       		.uleb128 0xb
 9028 0127 49       		.uleb128 0x49
 9029 0128 13       		.uleb128 0x13
 9030 0129 38       		.uleb128 0x38
 9031 012a 05       		.uleb128 0x5
 9032 012b 00       		.byte	0
 9033 012c 00       		.byte	0
 9034 012d 1A       		.uleb128 0x1a
 9035 012e 0D       		.uleb128 0xd
 9036 012f 00       		.byte	0
 9037 0130 03       		.uleb128 0x3
 9038 0131 0E       		.uleb128 0xe
 9039 0132 3A       		.uleb128 0x3a
 9040 0133 0B       		.uleb128 0xb
 9041 0134 3B       		.uleb128 0x3b
 9042 0135 0B       		.uleb128 0xb
 9043 0136 49       		.uleb128 0x49
 9044 0137 13       		.uleb128 0x13
 9045 0138 0B       		.uleb128 0xb
 9046 0139 0B       		.uleb128 0xb
 9047 013a 0D       		.uleb128 0xd
 9048 013b 0B       		.uleb128 0xb
 9049 013c 0C       		.uleb128 0xc
 9050 013d 0B       		.uleb128 0xb
 9051 013e 38       		.uleb128 0x38
 9052 013f 05       		.uleb128 0x5
 9053 0140 00       		.byte	0
 9054 0141 00       		.byte	0
 9055 0142 1B       		.uleb128 0x1b
 9056 0143 0D       		.uleb128 0xd
 9057 0144 00       		.byte	0
 9058 0145 03       		.uleb128 0x3
 9059 0146 08       		.uleb128 0x8
 9060 0147 3A       		.uleb128 0x3a
 9061 0148 0B       		.uleb128 0xb
 9062 0149 3B       		.uleb128 0x3b
 9063 014a 0B       		.uleb128 0xb
 9064 014b 49       		.uleb128 0x49
 9065 014c 13       		.uleb128 0x13
 9066 014d 0B       		.uleb128 0xb
 9067 014e 0B       		.uleb128 0xb
 9068 014f 0D       		.uleb128 0xd
 9069 0150 0B       		.uleb128 0xb
 9070 0151 0C       		.uleb128 0xc
 9071 0152 0B       		.uleb128 0xb
 9072 0153 38       		.uleb128 0x38
 9073 0154 0B       		.uleb128 0xb
 9074 0155 00       		.byte	0
 9075 0156 00       		.byte	0
 9076 0157 1C       		.uleb128 0x1c
 9077 0158 01       		.uleb128 0x1
 9078 0159 01       		.byte	0x1
 9079 015a 49       		.uleb128 0x49
ARM GAS  C:\Users\pearlstl\AppData\Local\Temp\ccQFxYtd.s 			page 197


 9080 015b 13       		.uleb128 0x13
 9081 015c 01       		.uleb128 0x1
 9082 015d 13       		.uleb128 0x13
 9083 015e 00       		.byte	0
 9084 015f 00       		.byte	0
 9085 0160 1D       		.uleb128 0x1d
 9086 0161 21       		.uleb128 0x21
 9087 0162 00       		.byte	0
 9088 0163 49       		.uleb128 0x49
 9089 0164 13       		.uleb128 0x13
 9090 0165 2F       		.uleb128 0x2f
 9091 0166 0B       		.uleb128 0xb
 9092 0167 00       		.byte	0
 9093 0168 00       		.byte	0
 9094 0169 1E       		.uleb128 0x1e
 9095 016a 2E       		.uleb128 0x2e
 9096 016b 01       		.byte	0x1
 9097 016c 03       		.uleb128 0x3
 9098 016d 0E       		.uleb128 0xe
 9099 016e 3A       		.uleb128 0x3a
 9100 016f 0B       		.uleb128 0xb
 9101 0170 3B       		.uleb128 0x3b
 9102 0171 05       		.uleb128 0x5
 9103 0172 27       		.uleb128 0x27
 9104 0173 19       		.uleb128 0x19
 9105 0174 49       		.uleb128 0x49
 9106 0175 13       		.uleb128 0x13
 9107 0176 20       		.uleb128 0x20
 9108 0177 0B       		.uleb128 0xb
 9109 0178 01       		.uleb128 0x1
 9110 0179 13       		.uleb128 0x13
 9111 017a 00       		.byte	0
 9112 017b 00       		.byte	0
 9113 017c 1F       		.uleb128 0x1f
 9114 017d 05       		.uleb128 0x5
 9115 017e 00       		.byte	0
 9116 017f 03       		.uleb128 0x3
 9117 0180 08       		.uleb128 0x8
 9118 0181 3A       		.uleb128 0x3a
 9119 0182 0B       		.uleb128 0xb
 9120 0183 3B       		.uleb128 0x3b
 9121 0184 05       		.uleb128 0x5
 9122 0185 49       		.uleb128 0x49
 9123 0186 13       		.uleb128 0x13
 9124 0187 00       		.byte	0
 9125 0188 00       		.byte	0
 9126 0189 20       		.uleb128 0x20
 9127 018a 34       		.uleb128 0x34
 9128 018b 00       		.byte	0
 9129 018c 03       		.uleb128 0x3
 9130 018d 08       		.uleb128 0x8
 9131 018e 3A       		.uleb128 0x3a
 9132 018f 0B       		.uleb128 0xb
 9133 0190 3B       		.uleb128 0x3b
 9134 0191 05       		.uleb128 0x5
 9135 0192 49       		.uleb128 0x49
 9136 0193 13       		.uleb128 0x13
ARM GAS  C:\Users\pearlstl\AppData\Local\Temp\ccQFxYtd.s 			page 198


 9137 0194 00       		.byte	0
 9138 0195 00       		.byte	0
 9139 0196 21       		.uleb128 0x21
 9140 0197 05       		.uleb128 0x5
 9141 0198 00       		.byte	0
 9142 0199 03       		.uleb128 0x3
 9143 019a 0E       		.uleb128 0xe
 9144 019b 3A       		.uleb128 0x3a
 9145 019c 0B       		.uleb128 0xb
 9146 019d 3B       		.uleb128 0x3b
 9147 019e 05       		.uleb128 0x5
 9148 019f 49       		.uleb128 0x49
 9149 01a0 13       		.uleb128 0x13
 9150 01a1 00       		.byte	0
 9151 01a2 00       		.byte	0
 9152 01a3 22       		.uleb128 0x22
 9153 01a4 2E       		.uleb128 0x2e
 9154 01a5 01       		.byte	0x1
 9155 01a6 03       		.uleb128 0x3
 9156 01a7 0E       		.uleb128 0xe
 9157 01a8 3A       		.uleb128 0x3a
 9158 01a9 0B       		.uleb128 0xb
 9159 01aa 3B       		.uleb128 0x3b
 9160 01ab 0B       		.uleb128 0xb
 9161 01ac 27       		.uleb128 0x27
 9162 01ad 19       		.uleb128 0x19
 9163 01ae 20       		.uleb128 0x20
 9164 01af 0B       		.uleb128 0xb
 9165 01b0 01       		.uleb128 0x1
 9166 01b1 13       		.uleb128 0x13
 9167 01b2 00       		.byte	0
 9168 01b3 00       		.byte	0
 9169 01b4 23       		.uleb128 0x23
 9170 01b5 05       		.uleb128 0x5
 9171 01b6 00       		.byte	0
 9172 01b7 03       		.uleb128 0x3
 9173 01b8 08       		.uleb128 0x8
 9174 01b9 3A       		.uleb128 0x3a
 9175 01ba 0B       		.uleb128 0xb
 9176 01bb 3B       		.uleb128 0x3b
 9177 01bc 0B       		.uleb128 0xb
 9178 01bd 49       		.uleb128 0x49
 9179 01be 13       		.uleb128 0x13
 9180 01bf 00       		.byte	0
 9181 01c0 00       		.byte	0
 9182 01c1 24       		.uleb128 0x24
 9183 01c2 05       		.uleb128 0x5
 9184 01c3 00       		.byte	0
 9185 01c4 03       		.uleb128 0x3
 9186 01c5 0E       		.uleb128 0xe
 9187 01c6 3A       		.uleb128 0x3a
 9188 01c7 0B       		.uleb128 0xb
 9189 01c8 3B       		.uleb128 0x3b
 9190 01c9 0B       		.uleb128 0xb
 9191 01ca 49       		.uleb128 0x49
 9192 01cb 13       		.uleb128 0x13
 9193 01cc 00       		.byte	0
ARM GAS  C:\Users\pearlstl\AppData\Local\Temp\ccQFxYtd.s 			page 199


 9194 01cd 00       		.byte	0
 9195 01ce 25       		.uleb128 0x25
 9196 01cf 2E       		.uleb128 0x2e
 9197 01d0 01       		.byte	0x1
 9198 01d1 03       		.uleb128 0x3
 9199 01d2 0E       		.uleb128 0xe
 9200 01d3 3A       		.uleb128 0x3a
 9201 01d4 0B       		.uleb128 0xb
 9202 01d5 3B       		.uleb128 0x3b
 9203 01d6 0B       		.uleb128 0xb
 9204 01d7 27       		.uleb128 0x27
 9205 01d8 19       		.uleb128 0x19
 9206 01d9 49       		.uleb128 0x49
 9207 01da 13       		.uleb128 0x13
 9208 01db 20       		.uleb128 0x20
 9209 01dc 0B       		.uleb128 0xb
 9210 01dd 01       		.uleb128 0x1
 9211 01de 13       		.uleb128 0x13
 9212 01df 00       		.byte	0
 9213 01e0 00       		.byte	0
 9214 01e1 26       		.uleb128 0x26
 9215 01e2 2E       		.uleb128 0x2e
 9216 01e3 01       		.byte	0x1
 9217 01e4 3F       		.uleb128 0x3f
 9218 01e5 19       		.uleb128 0x19
 9219 01e6 03       		.uleb128 0x3
 9220 01e7 0E       		.uleb128 0xe
 9221 01e8 3A       		.uleb128 0x3a
 9222 01e9 0B       		.uleb128 0xb
 9223 01ea 3B       		.uleb128 0x3b
 9224 01eb 0B       		.uleb128 0xb
 9225 01ec 27       		.uleb128 0x27
 9226 01ed 19       		.uleb128 0x19
 9227 01ee 49       		.uleb128 0x49
 9228 01ef 13       		.uleb128 0x13
 9229 01f0 20       		.uleb128 0x20
 9230 01f1 0B       		.uleb128 0xb
 9231 01f2 01       		.uleb128 0x1
 9232 01f3 13       		.uleb128 0x13
 9233 01f4 00       		.byte	0
 9234 01f5 00       		.byte	0
 9235 01f6 27       		.uleb128 0x27
 9236 01f7 34       		.uleb128 0x34
 9237 01f8 00       		.byte	0
 9238 01f9 03       		.uleb128 0x3
 9239 01fa 0E       		.uleb128 0xe
 9240 01fb 3A       		.uleb128 0x3a
 9241 01fc 0B       		.uleb128 0xb
 9242 01fd 3B       		.uleb128 0x3b
 9243 01fe 0B       		.uleb128 0xb
 9244 01ff 49       		.uleb128 0x49
 9245 0200 13       		.uleb128 0x13
 9246 0201 00       		.byte	0
 9247 0202 00       		.byte	0
 9248 0203 28       		.uleb128 0x28
 9249 0204 34       		.uleb128 0x34
 9250 0205 00       		.byte	0
ARM GAS  C:\Users\pearlstl\AppData\Local\Temp\ccQFxYtd.s 			page 200


 9251 0206 03       		.uleb128 0x3
 9252 0207 08       		.uleb128 0x8
 9253 0208 3A       		.uleb128 0x3a
 9254 0209 0B       		.uleb128 0xb
 9255 020a 3B       		.uleb128 0x3b
 9256 020b 0B       		.uleb128 0xb
 9257 020c 49       		.uleb128 0x49
 9258 020d 13       		.uleb128 0x13
 9259 020e 00       		.byte	0
 9260 020f 00       		.byte	0
 9261 0210 29       		.uleb128 0x29
 9262 0211 2E       		.uleb128 0x2e
 9263 0212 01       		.byte	0x1
 9264 0213 31       		.uleb128 0x31
 9265 0214 13       		.uleb128 0x13
 9266 0215 11       		.uleb128 0x11
 9267 0216 01       		.uleb128 0x1
 9268 0217 12       		.uleb128 0x12
 9269 0218 06       		.uleb128 0x6
 9270 0219 40       		.uleb128 0x40
 9271 021a 18       		.uleb128 0x18
 9272 021b 9742     		.uleb128 0x2117
 9273 021d 19       		.uleb128 0x19
 9274 021e 01       		.uleb128 0x1
 9275 021f 13       		.uleb128 0x13
 9276 0220 00       		.byte	0
 9277 0221 00       		.byte	0
 9278 0222 2A       		.uleb128 0x2a
 9279 0223 05       		.uleb128 0x5
 9280 0224 00       		.byte	0
 9281 0225 31       		.uleb128 0x31
 9282 0226 13       		.uleb128 0x13
 9283 0227 02       		.uleb128 0x2
 9284 0228 17       		.uleb128 0x17
 9285 0229 00       		.byte	0
 9286 022a 00       		.byte	0
 9287 022b 2B       		.uleb128 0x2b
 9288 022c 34       		.uleb128 0x34
 9289 022d 00       		.byte	0
 9290 022e 31       		.uleb128 0x31
 9291 022f 13       		.uleb128 0x13
 9292 0230 02       		.uleb128 0x2
 9293 0231 17       		.uleb128 0x17
 9294 0232 00       		.byte	0
 9295 0233 00       		.byte	0
 9296 0234 2C       		.uleb128 0x2c
 9297 0235 0B       		.uleb128 0xb
 9298 0236 01       		.byte	0x1
 9299 0237 55       		.uleb128 0x55
 9300 0238 17       		.uleb128 0x17
 9301 0239 01       		.uleb128 0x1
 9302 023a 13       		.uleb128 0x13
 9303 023b 00       		.byte	0
 9304 023c 00       		.byte	0
 9305 023d 2D       		.uleb128 0x2d
 9306 023e 05       		.uleb128 0x5
 9307 023f 00       		.byte	0
ARM GAS  C:\Users\pearlstl\AppData\Local\Temp\ccQFxYtd.s 			page 201


 9308 0240 31       		.uleb128 0x31
 9309 0241 13       		.uleb128 0x13
 9310 0242 02       		.uleb128 0x2
 9311 0243 18       		.uleb128 0x18
 9312 0244 00       		.byte	0
 9313 0245 00       		.byte	0
 9314 0246 2E       		.uleb128 0x2e
 9315 0247 05       		.uleb128 0x5
 9316 0248 00       		.byte	0
 9317 0249 31       		.uleb128 0x31
 9318 024a 13       		.uleb128 0x13
 9319 024b 1C       		.uleb128 0x1c
 9320 024c 0B       		.uleb128 0xb
 9321 024d 00       		.byte	0
 9322 024e 00       		.byte	0
 9323 024f 2F       		.uleb128 0x2f
 9324 0250 0B       		.uleb128 0xb
 9325 0251 01       		.byte	0x1
 9326 0252 55       		.uleb128 0x55
 9327 0253 17       		.uleb128 0x17
 9328 0254 00       		.byte	0
 9329 0255 00       		.byte	0
 9330 0256 30       		.uleb128 0x30
 9331 0257 34       		.uleb128 0x34
 9332 0258 00       		.byte	0
 9333 0259 31       		.uleb128 0x31
 9334 025a 13       		.uleb128 0x13
 9335 025b 00       		.byte	0
 9336 025c 00       		.byte	0
 9337 025d 31       		.uleb128 0x31
 9338 025e 898201   		.uleb128 0x4109
 9339 0261 01       		.byte	0x1
 9340 0262 11       		.uleb128 0x11
 9341 0263 01       		.uleb128 0x1
 9342 0264 9542     		.uleb128 0x2115
 9343 0266 19       		.uleb128 0x19
 9344 0267 31       		.uleb128 0x31
 9345 0268 13       		.uleb128 0x13
 9346 0269 00       		.byte	0
 9347 026a 00       		.byte	0
 9348 026b 32       		.uleb128 0x32
 9349 026c 8A8201   		.uleb128 0x410a
 9350 026f 00       		.byte	0
 9351 0270 02       		.uleb128 0x2
 9352 0271 18       		.uleb128 0x18
 9353 0272 9142     		.uleb128 0x2111
 9354 0274 18       		.uleb128 0x18
 9355 0275 00       		.byte	0
 9356 0276 00       		.byte	0
 9357 0277 33       		.uleb128 0x33
 9358 0278 898201   		.uleb128 0x4109
 9359 027b 01       		.byte	0x1
 9360 027c 11       		.uleb128 0x11
 9361 027d 01       		.uleb128 0x1
 9362 027e 00       		.byte	0
 9363 027f 00       		.byte	0
 9364 0280 34       		.uleb128 0x34
ARM GAS  C:\Users\pearlstl\AppData\Local\Temp\ccQFxYtd.s 			page 202


 9365 0281 2E       		.uleb128 0x2e
 9366 0282 01       		.byte	0x1
 9367 0283 3F       		.uleb128 0x3f
 9368 0284 19       		.uleb128 0x19
 9369 0285 03       		.uleb128 0x3
 9370 0286 0E       		.uleb128 0xe
 9371 0287 3A       		.uleb128 0x3a
 9372 0288 0B       		.uleb128 0xb
 9373 0289 3B       		.uleb128 0x3b
 9374 028a 0B       		.uleb128 0xb
 9375 028b 27       		.uleb128 0x27
 9376 028c 19       		.uleb128 0x19
 9377 028d 49       		.uleb128 0x49
 9378 028e 13       		.uleb128 0x13
 9379 028f 11       		.uleb128 0x11
 9380 0290 01       		.uleb128 0x1
 9381 0291 12       		.uleb128 0x12
 9382 0292 06       		.uleb128 0x6
 9383 0293 40       		.uleb128 0x40
 9384 0294 18       		.uleb128 0x18
 9385 0295 9742     		.uleb128 0x2117
 9386 0297 19       		.uleb128 0x19
 9387 0298 01       		.uleb128 0x1
 9388 0299 13       		.uleb128 0x13
 9389 029a 00       		.byte	0
 9390 029b 00       		.byte	0
 9391 029c 35       		.uleb128 0x35
 9392 029d 05       		.uleb128 0x5
 9393 029e 00       		.byte	0
 9394 029f 03       		.uleb128 0x3
 9395 02a0 08       		.uleb128 0x8
 9396 02a1 3A       		.uleb128 0x3a
 9397 02a2 0B       		.uleb128 0xb
 9398 02a3 3B       		.uleb128 0x3b
 9399 02a4 0B       		.uleb128 0xb
 9400 02a5 49       		.uleb128 0x49
 9401 02a6 13       		.uleb128 0x13
 9402 02a7 02       		.uleb128 0x2
 9403 02a8 17       		.uleb128 0x17
 9404 02a9 00       		.byte	0
 9405 02aa 00       		.byte	0
 9406 02ab 36       		.uleb128 0x36
 9407 02ac 05       		.uleb128 0x5
 9408 02ad 00       		.byte	0
 9409 02ae 03       		.uleb128 0x3
 9410 02af 0E       		.uleb128 0xe
 9411 02b0 3A       		.uleb128 0x3a
 9412 02b1 0B       		.uleb128 0xb
 9413 02b2 3B       		.uleb128 0x3b
 9414 02b3 0B       		.uleb128 0xb
 9415 02b4 49       		.uleb128 0x49
 9416 02b5 13       		.uleb128 0x13
 9417 02b6 02       		.uleb128 0x2
 9418 02b7 17       		.uleb128 0x17
 9419 02b8 00       		.byte	0
 9420 02b9 00       		.byte	0
 9421 02ba 37       		.uleb128 0x37
ARM GAS  C:\Users\pearlstl\AppData\Local\Temp\ccQFxYtd.s 			page 203


 9422 02bb 34       		.uleb128 0x34
 9423 02bc 00       		.byte	0
 9424 02bd 03       		.uleb128 0x3
 9425 02be 0E       		.uleb128 0xe
 9426 02bf 3A       		.uleb128 0x3a
 9427 02c0 0B       		.uleb128 0xb
 9428 02c1 3B       		.uleb128 0x3b
 9429 02c2 0B       		.uleb128 0xb
 9430 02c3 49       		.uleb128 0x49
 9431 02c4 13       		.uleb128 0x13
 9432 02c5 02       		.uleb128 0x2
 9433 02c6 17       		.uleb128 0x17
 9434 02c7 00       		.byte	0
 9435 02c8 00       		.byte	0
 9436 02c9 38       		.uleb128 0x38
 9437 02ca 34       		.uleb128 0x34
 9438 02cb 00       		.byte	0
 9439 02cc 03       		.uleb128 0x3
 9440 02cd 08       		.uleb128 0x8
 9441 02ce 3A       		.uleb128 0x3a
 9442 02cf 0B       		.uleb128 0xb
 9443 02d0 3B       		.uleb128 0x3b
 9444 02d1 0B       		.uleb128 0xb
 9445 02d2 49       		.uleb128 0x49
 9446 02d3 13       		.uleb128 0x13
 9447 02d4 02       		.uleb128 0x2
 9448 02d5 17       		.uleb128 0x17
 9449 02d6 00       		.byte	0
 9450 02d7 00       		.byte	0
 9451 02d8 39       		.uleb128 0x39
 9452 02d9 898201   		.uleb128 0x4109
 9453 02dc 01       		.byte	0x1
 9454 02dd 11       		.uleb128 0x11
 9455 02de 01       		.uleb128 0x1
 9456 02df 31       		.uleb128 0x31
 9457 02e0 13       		.uleb128 0x13
 9458 02e1 01       		.uleb128 0x1
 9459 02e2 13       		.uleb128 0x13
 9460 02e3 00       		.byte	0
 9461 02e4 00       		.byte	0
 9462 02e5 3A       		.uleb128 0x3a
 9463 02e6 898201   		.uleb128 0x4109
 9464 02e9 01       		.byte	0x1
 9465 02ea 11       		.uleb128 0x11
 9466 02eb 01       		.uleb128 0x1
 9467 02ec 31       		.uleb128 0x31
 9468 02ed 13       		.uleb128 0x13
 9469 02ee 00       		.byte	0
 9470 02ef 00       		.byte	0
 9471 02f0 3B       		.uleb128 0x3b
 9472 02f1 2E       		.uleb128 0x2e
 9473 02f2 01       		.byte	0x1
 9474 02f3 3F       		.uleb128 0x3f
 9475 02f4 19       		.uleb128 0x19
 9476 02f5 03       		.uleb128 0x3
 9477 02f6 0E       		.uleb128 0xe
 9478 02f7 3A       		.uleb128 0x3a
ARM GAS  C:\Users\pearlstl\AppData\Local\Temp\ccQFxYtd.s 			page 204


 9479 02f8 0B       		.uleb128 0xb
 9480 02f9 3B       		.uleb128 0x3b
 9481 02fa 0B       		.uleb128 0xb
 9482 02fb 27       		.uleb128 0x27
 9483 02fc 19       		.uleb128 0x19
 9484 02fd 11       		.uleb128 0x11
 9485 02fe 01       		.uleb128 0x1
 9486 02ff 12       		.uleb128 0x12
 9487 0300 06       		.uleb128 0x6
 9488 0301 40       		.uleb128 0x40
 9489 0302 18       		.uleb128 0x18
 9490 0303 9742     		.uleb128 0x2117
 9491 0305 19       		.uleb128 0x19
 9492 0306 01       		.uleb128 0x1
 9493 0307 13       		.uleb128 0x13
 9494 0308 00       		.byte	0
 9495 0309 00       		.byte	0
 9496 030a 3C       		.uleb128 0x3c
 9497 030b 1D       		.uleb128 0x1d
 9498 030c 01       		.byte	0x1
 9499 030d 31       		.uleb128 0x31
 9500 030e 13       		.uleb128 0x13
 9501 030f 11       		.uleb128 0x11
 9502 0310 01       		.uleb128 0x1
 9503 0311 12       		.uleb128 0x12
 9504 0312 06       		.uleb128 0x6
 9505 0313 58       		.uleb128 0x58
 9506 0314 0B       		.uleb128 0xb
 9507 0315 59       		.uleb128 0x59
 9508 0316 0B       		.uleb128 0xb
 9509 0317 00       		.byte	0
 9510 0318 00       		.byte	0
 9511 0319 3D       		.uleb128 0x3d
 9512 031a 05       		.uleb128 0x5
 9513 031b 00       		.byte	0
 9514 031c 31       		.uleb128 0x31
 9515 031d 13       		.uleb128 0x13
 9516 031e 00       		.byte	0
 9517 031f 00       		.byte	0
 9518 0320 3E       		.uleb128 0x3e
 9519 0321 1D       		.uleb128 0x1d
 9520 0322 01       		.byte	0x1
 9521 0323 31       		.uleb128 0x31
 9522 0324 13       		.uleb128 0x13
 9523 0325 11       		.uleb128 0x11
 9524 0326 01       		.uleb128 0x1
 9525 0327 12       		.uleb128 0x12
 9526 0328 06       		.uleb128 0x6
 9527 0329 58       		.uleb128 0x58
 9528 032a 0B       		.uleb128 0xb
 9529 032b 59       		.uleb128 0x59
 9530 032c 0B       		.uleb128 0xb
 9531 032d 01       		.uleb128 0x1
 9532 032e 13       		.uleb128 0x13
 9533 032f 00       		.byte	0
 9534 0330 00       		.byte	0
 9535 0331 3F       		.uleb128 0x3f
ARM GAS  C:\Users\pearlstl\AppData\Local\Temp\ccQFxYtd.s 			page 205


 9536 0332 0B       		.uleb128 0xb
 9537 0333 01       		.byte	0x1
 9538 0334 11       		.uleb128 0x11
 9539 0335 01       		.uleb128 0x1
 9540 0336 12       		.uleb128 0x12
 9541 0337 06       		.uleb128 0x6
 9542 0338 00       		.byte	0
 9543 0339 00       		.byte	0
 9544 033a 40       		.uleb128 0x40
 9545 033b 34       		.uleb128 0x34
 9546 033c 00       		.byte	0
 9547 033d 31       		.uleb128 0x31
 9548 033e 13       		.uleb128 0x13
 9549 033f 1C       		.uleb128 0x1c
 9550 0340 0B       		.uleb128 0xb
 9551 0341 00       		.byte	0
 9552 0342 00       		.byte	0
 9553 0343 41       		.uleb128 0x41
 9554 0344 34       		.uleb128 0x34
 9555 0345 00       		.byte	0
 9556 0346 03       		.uleb128 0x3
 9557 0347 08       		.uleb128 0x8
 9558 0348 3A       		.uleb128 0x3a
 9559 0349 0B       		.uleb128 0xb
 9560 034a 3B       		.uleb128 0x3b
 9561 034b 05       		.uleb128 0x5
 9562 034c 49       		.uleb128 0x49
 9563 034d 13       		.uleb128 0x13
 9564 034e 02       		.uleb128 0x2
 9565 034f 17       		.uleb128 0x17
 9566 0350 00       		.byte	0
 9567 0351 00       		.byte	0
 9568 0352 42       		.uleb128 0x42
 9569 0353 34       		.uleb128 0x34
 9570 0354 00       		.byte	0
 9571 0355 03       		.uleb128 0x3
 9572 0356 0E       		.uleb128 0xe
 9573 0357 3A       		.uleb128 0x3a
 9574 0358 0B       		.uleb128 0xb
 9575 0359 3B       		.uleb128 0x3b
 9576 035a 05       		.uleb128 0x5
 9577 035b 49       		.uleb128 0x49
 9578 035c 13       		.uleb128 0x13
 9579 035d 02       		.uleb128 0x2
 9580 035e 18       		.uleb128 0x18
 9581 035f 00       		.byte	0
 9582 0360 00       		.byte	0
 9583 0361 43       		.uleb128 0x43
 9584 0362 34       		.uleb128 0x34
 9585 0363 00       		.byte	0
 9586 0364 03       		.uleb128 0x3
 9587 0365 08       		.uleb128 0x8
 9588 0366 3A       		.uleb128 0x3a
 9589 0367 0B       		.uleb128 0xb
 9590 0368 3B       		.uleb128 0x3b
 9591 0369 05       		.uleb128 0x5
 9592 036a 49       		.uleb128 0x49
ARM GAS  C:\Users\pearlstl\AppData\Local\Temp\ccQFxYtd.s 			page 206


 9593 036b 13       		.uleb128 0x13
 9594 036c 02       		.uleb128 0x2
 9595 036d 18       		.uleb128 0x18
 9596 036e 00       		.byte	0
 9597 036f 00       		.byte	0
 9598 0370 44       		.uleb128 0x44
 9599 0371 34       		.uleb128 0x34
 9600 0372 00       		.byte	0
 9601 0373 03       		.uleb128 0x3
 9602 0374 0E       		.uleb128 0xe
 9603 0375 3A       		.uleb128 0x3a
 9604 0376 0B       		.uleb128 0xb
 9605 0377 3B       		.uleb128 0x3b
 9606 0378 05       		.uleb128 0x5
 9607 0379 49       		.uleb128 0x49
 9608 037a 13       		.uleb128 0x13
 9609 037b 02       		.uleb128 0x2
 9610 037c 17       		.uleb128 0x17
 9611 037d 00       		.byte	0
 9612 037e 00       		.byte	0
 9613 037f 45       		.uleb128 0x45
 9614 0380 898201   		.uleb128 0x4109
 9615 0383 00       		.byte	0
 9616 0384 11       		.uleb128 0x11
 9617 0385 01       		.uleb128 0x1
 9618 0386 31       		.uleb128 0x31
 9619 0387 13       		.uleb128 0x13
 9620 0388 00       		.byte	0
 9621 0389 00       		.byte	0
 9622 038a 46       		.uleb128 0x46
 9623 038b 2E       		.uleb128 0x2e
 9624 038c 01       		.byte	0x1
 9625 038d 3F       		.uleb128 0x3f
 9626 038e 19       		.uleb128 0x19
 9627 038f 03       		.uleb128 0x3
 9628 0390 0E       		.uleb128 0xe
 9629 0391 3A       		.uleb128 0x3a
 9630 0392 0B       		.uleb128 0xb
 9631 0393 3B       		.uleb128 0x3b
 9632 0394 05       		.uleb128 0x5
 9633 0395 27       		.uleb128 0x27
 9634 0396 19       		.uleb128 0x19
 9635 0397 11       		.uleb128 0x11
 9636 0398 01       		.uleb128 0x1
 9637 0399 12       		.uleb128 0x12
 9638 039a 06       		.uleb128 0x6
 9639 039b 40       		.uleb128 0x40
 9640 039c 18       		.uleb128 0x18
 9641 039d 9742     		.uleb128 0x2117
 9642 039f 19       		.uleb128 0x19
 9643 03a0 01       		.uleb128 0x1
 9644 03a1 13       		.uleb128 0x13
 9645 03a2 00       		.byte	0
 9646 03a3 00       		.byte	0
 9647 03a4 47       		.uleb128 0x47
 9648 03a5 05       		.uleb128 0x5
 9649 03a6 00       		.byte	0
ARM GAS  C:\Users\pearlstl\AppData\Local\Temp\ccQFxYtd.s 			page 207


 9650 03a7 03       		.uleb128 0x3
 9651 03a8 0E       		.uleb128 0xe
 9652 03a9 3A       		.uleb128 0x3a
 9653 03aa 0B       		.uleb128 0xb
 9654 03ab 3B       		.uleb128 0x3b
 9655 03ac 05       		.uleb128 0x5
 9656 03ad 49       		.uleb128 0x49
 9657 03ae 13       		.uleb128 0x13
 9658 03af 02       		.uleb128 0x2
 9659 03b0 17       		.uleb128 0x17
 9660 03b1 00       		.byte	0
 9661 03b2 00       		.byte	0
 9662 03b3 48       		.uleb128 0x48
 9663 03b4 05       		.uleb128 0x5
 9664 03b5 00       		.byte	0
 9665 03b6 03       		.uleb128 0x3
 9666 03b7 08       		.uleb128 0x8
 9667 03b8 3A       		.uleb128 0x3a
 9668 03b9 0B       		.uleb128 0xb
 9669 03ba 3B       		.uleb128 0x3b
 9670 03bb 05       		.uleb128 0x5
 9671 03bc 49       		.uleb128 0x49
 9672 03bd 13       		.uleb128 0x13
 9673 03be 02       		.uleb128 0x2
 9674 03bf 17       		.uleb128 0x17
 9675 03c0 00       		.byte	0
 9676 03c1 00       		.byte	0
 9677 03c2 49       		.uleb128 0x49
 9678 03c3 34       		.uleb128 0x34
 9679 03c4 00       		.byte	0
 9680 03c5 03       		.uleb128 0x3
 9681 03c6 0E       		.uleb128 0xe
 9682 03c7 3A       		.uleb128 0x3a
 9683 03c8 0B       		.uleb128 0xb
 9684 03c9 3B       		.uleb128 0x3b
 9685 03ca 05       		.uleb128 0x5
 9686 03cb 49       		.uleb128 0x49
 9687 03cc 13       		.uleb128 0x13
 9688 03cd 00       		.byte	0
 9689 03ce 00       		.byte	0
 9690 03cf 4A       		.uleb128 0x4a
 9691 03d0 1D       		.uleb128 0x1d
 9692 03d1 01       		.byte	0x1
 9693 03d2 31       		.uleb128 0x31
 9694 03d3 13       		.uleb128 0x13
 9695 03d4 11       		.uleb128 0x11
 9696 03d5 01       		.uleb128 0x1
 9697 03d6 12       		.uleb128 0x12
 9698 03d7 06       		.uleb128 0x6
 9699 03d8 58       		.uleb128 0x58
 9700 03d9 0B       		.uleb128 0xb
 9701 03da 59       		.uleb128 0x59
 9702 03db 05       		.uleb128 0x5
 9703 03dc 01       		.uleb128 0x1
 9704 03dd 13       		.uleb128 0x13
 9705 03de 00       		.byte	0
 9706 03df 00       		.byte	0
ARM GAS  C:\Users\pearlstl\AppData\Local\Temp\ccQFxYtd.s 			page 208


 9707 03e0 4B       		.uleb128 0x4b
 9708 03e1 0B       		.uleb128 0xb
 9709 03e2 01       		.byte	0x1
 9710 03e3 11       		.uleb128 0x11
 9711 03e4 01       		.uleb128 0x1
 9712 03e5 12       		.uleb128 0x12
 9713 03e6 06       		.uleb128 0x6
 9714 03e7 01       		.uleb128 0x1
 9715 03e8 13       		.uleb128 0x13
 9716 03e9 00       		.byte	0
 9717 03ea 00       		.byte	0
 9718 03eb 4C       		.uleb128 0x4c
 9719 03ec 1D       		.uleb128 0x1d
 9720 03ed 01       		.byte	0x1
 9721 03ee 31       		.uleb128 0x31
 9722 03ef 13       		.uleb128 0x13
 9723 03f0 52       		.uleb128 0x52
 9724 03f1 01       		.uleb128 0x1
 9725 03f2 55       		.uleb128 0x55
 9726 03f3 17       		.uleb128 0x17
 9727 03f4 58       		.uleb128 0x58
 9728 03f5 0B       		.uleb128 0xb
 9729 03f6 59       		.uleb128 0x59
 9730 03f7 05       		.uleb128 0x5
 9731 03f8 01       		.uleb128 0x1
 9732 03f9 13       		.uleb128 0x13
 9733 03fa 00       		.byte	0
 9734 03fb 00       		.byte	0
 9735 03fc 4D       		.uleb128 0x4d
 9736 03fd 05       		.uleb128 0x5
 9737 03fe 00       		.byte	0
 9738 03ff 03       		.uleb128 0x3
 9739 0400 08       		.uleb128 0x8
 9740 0401 3A       		.uleb128 0x3a
 9741 0402 0B       		.uleb128 0xb
 9742 0403 3B       		.uleb128 0x3b
 9743 0404 05       		.uleb128 0x5
 9744 0405 49       		.uleb128 0x49
 9745 0406 13       		.uleb128 0x13
 9746 0407 02       		.uleb128 0x2
 9747 0408 18       		.uleb128 0x18
 9748 0409 00       		.byte	0
 9749 040a 00       		.byte	0
 9750 040b 4E       		.uleb128 0x4e
 9751 040c 05       		.uleb128 0x5
 9752 040d 00       		.byte	0
 9753 040e 03       		.uleb128 0x3
 9754 040f 0E       		.uleb128 0xe
 9755 0410 3A       		.uleb128 0x3a
 9756 0411 0B       		.uleb128 0xb
 9757 0412 3B       		.uleb128 0x3b
 9758 0413 05       		.uleb128 0x5
 9759 0414 49       		.uleb128 0x49
 9760 0415 13       		.uleb128 0x13
 9761 0416 02       		.uleb128 0x2
 9762 0417 18       		.uleb128 0x18
 9763 0418 00       		.byte	0
ARM GAS  C:\Users\pearlstl\AppData\Local\Temp\ccQFxYtd.s 			page 209


 9764 0419 00       		.byte	0
 9765 041a 4F       		.uleb128 0x4f
 9766 041b 34       		.uleb128 0x34
 9767 041c 00       		.byte	0
 9768 041d 31       		.uleb128 0x31
 9769 041e 13       		.uleb128 0x13
 9770 041f 02       		.uleb128 0x2
 9771 0420 18       		.uleb128 0x18
 9772 0421 00       		.byte	0
 9773 0422 00       		.byte	0
 9774 0423 50       		.uleb128 0x50
 9775 0424 34       		.uleb128 0x34
 9776 0425 00       		.byte	0
 9777 0426 03       		.uleb128 0x3
 9778 0427 0E       		.uleb128 0xe
 9779 0428 3A       		.uleb128 0x3a
 9780 0429 0B       		.uleb128 0xb
 9781 042a 3B       		.uleb128 0x3b
 9782 042b 0B       		.uleb128 0xb
 9783 042c 49       		.uleb128 0x49
 9784 042d 13       		.uleb128 0x13
 9785 042e 02       		.uleb128 0x2
 9786 042f 18       		.uleb128 0x18
 9787 0430 00       		.byte	0
 9788 0431 00       		.byte	0
 9789 0432 51       		.uleb128 0x51
 9790 0433 2E       		.uleb128 0x2e
 9791 0434 00       		.byte	0
 9792 0435 3F       		.uleb128 0x3f
 9793 0436 19       		.uleb128 0x19
 9794 0437 3C       		.uleb128 0x3c
 9795 0438 19       		.uleb128 0x19
 9796 0439 6E       		.uleb128 0x6e
 9797 043a 0E       		.uleb128 0xe
 9798 043b 03       		.uleb128 0x3
 9799 043c 0E       		.uleb128 0xe
 9800 043d 3A       		.uleb128 0x3a
 9801 043e 0B       		.uleb128 0xb
 9802 043f 3B       		.uleb128 0x3b
 9803 0440 05       		.uleb128 0x5
 9804 0441 00       		.byte	0
 9805 0442 00       		.byte	0
 9806 0443 52       		.uleb128 0x52
 9807 0444 2E       		.uleb128 0x2e
 9808 0445 00       		.byte	0
 9809 0446 3F       		.uleb128 0x3f
 9810 0447 19       		.uleb128 0x19
 9811 0448 3C       		.uleb128 0x3c
 9812 0449 19       		.uleb128 0x19
 9813 044a 6E       		.uleb128 0x6e
 9814 044b 0E       		.uleb128 0xe
 9815 044c 03       		.uleb128 0x3
 9816 044d 0E       		.uleb128 0xe
 9817 044e 3A       		.uleb128 0x3a
 9818 044f 0B       		.uleb128 0xb
 9819 0450 3B       		.uleb128 0x3b
 9820 0451 0B       		.uleb128 0xb
ARM GAS  C:\Users\pearlstl\AppData\Local\Temp\ccQFxYtd.s 			page 210


 9821 0452 00       		.byte	0
 9822 0453 00       		.byte	0
 9823 0454 53       		.uleb128 0x53
 9824 0455 2E       		.uleb128 0x2e
 9825 0456 00       		.byte	0
 9826 0457 3F       		.uleb128 0x3f
 9827 0458 19       		.uleb128 0x19
 9828 0459 3C       		.uleb128 0x3c
 9829 045a 19       		.uleb128 0x19
 9830 045b 6E       		.uleb128 0x6e
 9831 045c 0E       		.uleb128 0xe
 9832 045d 03       		.uleb128 0x3
 9833 045e 0E       		.uleb128 0xe
 9834 045f 00       		.byte	0
 9835 0460 00       		.byte	0
 9836 0461 00       		.byte	0
 9837              		.section	.debug_loc,"",%progbits
 9838              	.Ldebug_loc0:
 9839              	.LLST0:
 9840 0000 00000000 		.4byte	.LVL0
 9841 0004 0B000000 		.4byte	.LVL1-1
 9842 0008 0100     		.2byte	0x1
 9843 000a 50       		.byte	0x50
 9844 000b 0B000000 		.4byte	.LVL1-1
 9845 000f 2C000000 		.4byte	.LFE52
 9846 0013 0400     		.2byte	0x4
 9847 0015 F3       		.byte	0xf3
 9848 0016 01       		.uleb128 0x1
 9849 0017 50       		.byte	0x50
 9850 0018 9F       		.byte	0x9f
 9851 0019 00000000 		.4byte	0
 9852 001d 00000000 		.4byte	0
 9853              	.LLST1:
 9854 0021 00000000 		.4byte	.LVL0
 9855 0025 0B000000 		.4byte	.LVL1-1
 9856 0029 0100     		.2byte	0x1
 9857 002b 51       		.byte	0x51
 9858 002c 0B000000 		.4byte	.LVL1-1
 9859 0030 2C000000 		.4byte	.LFE52
 9860 0034 0400     		.2byte	0x4
 9861 0036 F3       		.byte	0xf3
 9862 0037 01       		.uleb128 0x1
 9863 0038 51       		.byte	0x51
 9864 0039 9F       		.byte	0x9f
 9865 003a 00000000 		.4byte	0
 9866 003e 00000000 		.4byte	0
 9867              	.LLST2:
 9868 0042 00000000 		.4byte	.LVL0
 9869 0046 0B000000 		.4byte	.LVL1-1
 9870 004a 0100     		.2byte	0x1
 9871 004c 52       		.byte	0x52
 9872 004d 0B000000 		.4byte	.LVL1-1
 9873 0051 1E000000 		.4byte	.LVL5
 9874 0055 0100     		.2byte	0x1
 9875 0057 55       		.byte	0x55
 9876 0058 1E000000 		.4byte	.LVL5
 9877 005c 21000000 		.4byte	.LVL6-1
ARM GAS  C:\Users\pearlstl\AppData\Local\Temp\ccQFxYtd.s 			page 211


 9878 0060 0100     		.2byte	0x1
 9879 0062 50       		.byte	0x50
 9880 0063 21000000 		.4byte	.LVL6-1
 9881 0067 2C000000 		.4byte	.LFE52
 9882 006b 0400     		.2byte	0x4
 9883 006d F3       		.byte	0xf3
 9884 006e 01       		.uleb128 0x1
 9885 006f 52       		.byte	0x52
 9886 0070 9F       		.byte	0x9f
 9887 0071 00000000 		.4byte	0
 9888 0075 00000000 		.4byte	0
 9889              	.LLST3:
 9890 0079 0C000000 		.4byte	.LVL1
 9891 007d 18000000 		.4byte	.LVL4
 9892 0081 0100     		.2byte	0x1
 9893 0083 50       		.byte	0x50
 9894 0084 00000000 		.4byte	0
 9895 0088 00000000 		.4byte	0
 9896              	.LLST4:
 9897 008c 16000000 		.4byte	.LVL3
 9898 0090 1E000000 		.4byte	.LVL5
 9899 0094 0100     		.2byte	0x1
 9900 0096 55       		.byte	0x55
 9901 0097 1E000000 		.4byte	.LVL5
 9902 009b 21000000 		.4byte	.LVL6-1
 9903 009f 0100     		.2byte	0x1
 9904 00a1 50       		.byte	0x50
 9905 00a2 21000000 		.4byte	.LVL6-1
 9906 00a6 2C000000 		.4byte	.LFE52
 9907 00aa 0400     		.2byte	0x4
 9908 00ac F3       		.byte	0xf3
 9909 00ad 01       		.uleb128 0x1
 9910 00ae 52       		.byte	0x52
 9911 00af 9F       		.byte	0x9f
 9912 00b0 00000000 		.4byte	0
 9913 00b4 00000000 		.4byte	0
 9914              	.LLST5:
 9915 00b8 00000000 		.4byte	.LVL7
 9916 00bc 07000000 		.4byte	.LVL8-1
 9917 00c0 0100     		.2byte	0x1
 9918 00c2 50       		.byte	0x50
 9919 00c3 07000000 		.4byte	.LVL8-1
 9920 00c7 7C000000 		.4byte	.LFE35
 9921 00cb 0400     		.2byte	0x4
 9922 00cd F3       		.byte	0xf3
 9923 00ce 01       		.uleb128 0x1
 9924 00cf 50       		.byte	0x50
 9925 00d0 9F       		.byte	0x9f
 9926 00d1 00000000 		.4byte	0
 9927 00d5 00000000 		.4byte	0
 9928              	.LLST6:
 9929 00d9 00000000 		.4byte	.LVL7
 9930 00dd 07000000 		.4byte	.LVL8-1
 9931 00e1 0100     		.2byte	0x1
 9932 00e3 51       		.byte	0x51
 9933 00e4 07000000 		.4byte	.LVL8-1
 9934 00e8 7C000000 		.4byte	.LFE35
ARM GAS  C:\Users\pearlstl\AppData\Local\Temp\ccQFxYtd.s 			page 212


 9935 00ec 0100     		.2byte	0x1
 9936 00ee 57       		.byte	0x57
 9937 00ef 00000000 		.4byte	0
 9938 00f3 00000000 		.4byte	0
 9939              	.LLST7:
 9940 00f7 08000000 		.4byte	.LVL8
 9941 00fb 11000000 		.4byte	.LVL9-1
 9942 00ff 0100     		.2byte	0x1
 9943 0101 50       		.byte	0x50
 9944 0102 11000000 		.4byte	.LVL9-1
 9945 0106 52000000 		.4byte	.LVL13
 9946 010a 0100     		.2byte	0x1
 9947 010c 55       		.byte	0x55
 9948 010d 52000000 		.4byte	.LVL13
 9949 0111 55000000 		.4byte	.LVL14-1
 9950 0115 0100     		.2byte	0x1
 9951 0117 50       		.byte	0x50
 9952 0118 55000000 		.4byte	.LVL14-1
 9953 011c 5A000000 		.4byte	.LVL15
 9954 0120 0100     		.2byte	0x1
 9955 0122 55       		.byte	0x55
 9956 0123 5A000000 		.4byte	.LVL15
 9957 0127 5C000000 		.4byte	.LVL16
 9958 012b 0100     		.2byte	0x1
 9959 012d 50       		.byte	0x50
 9960 012e 60000000 		.4byte	.LVL17
 9961 0132 7C000000 		.4byte	.LFE35
 9962 0136 0100     		.2byte	0x1
 9963 0138 55       		.byte	0x55
 9964 0139 00000000 		.4byte	0
 9965 013d 00000000 		.4byte	0
 9966              	.LLST8:
 9967 0141 12000000 		.4byte	.LVL9
 9968 0145 1C000000 		.4byte	.LVL10
 9969 0149 0100     		.2byte	0x1
 9970 014b 50       		.byte	0x50
 9971 014c 1C000000 		.4byte	.LVL10
 9972 0150 5C000000 		.4byte	.LVL16
 9973 0154 0100     		.2byte	0x1
 9974 0156 54       		.byte	0x54
 9975 0157 60000000 		.4byte	.LVL17
 9976 015b 62000000 		.4byte	.LVL18
 9977 015f 0100     		.2byte	0x1
 9978 0161 50       		.byte	0x50
 9979 0162 62000000 		.4byte	.LVL18
 9980 0166 7C000000 		.4byte	.LFE35
 9981 016a 0100     		.2byte	0x1
 9982 016c 54       		.byte	0x54
 9983 016d 00000000 		.4byte	0
 9984 0171 00000000 		.4byte	0
 9985              	.LLST9:
 9986 0175 00000000 		.4byte	.LVL21
 9987 0179 13000000 		.4byte	.LVL22-1
 9988 017d 0100     		.2byte	0x1
 9989 017f 50       		.byte	0x50
 9990 0180 13000000 		.4byte	.LVL22-1
 9991 0184 54000000 		.4byte	.LVL27
ARM GAS  C:\Users\pearlstl\AppData\Local\Temp\ccQFxYtd.s 			page 213


 9992 0188 0100     		.2byte	0x1
 9993 018a 57       		.byte	0x57
 9994 018b 54000000 		.4byte	.LVL27
 9995 018f 57000000 		.4byte	.LVL28-1
 9996 0193 0100     		.2byte	0x1
 9997 0195 50       		.byte	0x50
 9998 0196 57000000 		.4byte	.LVL28-1
 9999 019a 58000000 		.4byte	.LFE36
 10000 019e 0400     		.2byte	0x4
 10001 01a0 F3       		.byte	0xf3
 10002 01a1 01       		.uleb128 0x1
 10003 01a2 50       		.byte	0x50
 10004 01a3 9F       		.byte	0x9f
 10005 01a4 00000000 		.4byte	0
 10006 01a8 00000000 		.4byte	0
 10007              	.LLST10:
 10008 01ac 00000000 		.4byte	.LVL21
 10009 01b0 13000000 		.4byte	.LVL22-1
 10010 01b4 0100     		.2byte	0x1
 10011 01b6 51       		.byte	0x51
 10012 01b7 13000000 		.4byte	.LVL22-1
 10013 01bb 54000000 		.4byte	.LVL27
 10014 01bf 0100     		.2byte	0x1
 10015 01c1 59       		.byte	0x59
 10016 01c2 54000000 		.4byte	.LVL27
 10017 01c6 58000000 		.4byte	.LFE36
 10018 01ca 0400     		.2byte	0x4
 10019 01cc F3       		.byte	0xf3
 10020 01cd 01       		.uleb128 0x1
 10021 01ce 51       		.byte	0x51
 10022 01cf 9F       		.byte	0x9f
 10023 01d0 00000000 		.4byte	0
 10024 01d4 00000000 		.4byte	0
 10025              	.LLST11:
 10026 01d8 00000000 		.4byte	.LVL21
 10027 01dc 13000000 		.4byte	.LVL22-1
 10028 01e0 0100     		.2byte	0x1
 10029 01e2 52       		.byte	0x52
 10030 01e3 13000000 		.4byte	.LVL22-1
 10031 01e7 58000000 		.4byte	.LFE36
 10032 01eb 0400     		.2byte	0x4
 10033 01ed F3       		.byte	0xf3
 10034 01ee 01       		.uleb128 0x1
 10035 01ef 52       		.byte	0x52
 10036 01f0 9F       		.byte	0x9f
 10037 01f1 00000000 		.4byte	0
 10038 01f5 00000000 		.4byte	0
 10039              	.LLST12:
 10040 01f9 00000000 		.4byte	.LVL21
 10041 01fd 13000000 		.4byte	.LVL22-1
 10042 0201 0100     		.2byte	0x1
 10043 0203 53       		.byte	0x53
 10044 0204 13000000 		.4byte	.LVL22-1
 10045 0208 30000000 		.4byte	.LVL25
 10046 020c 0400     		.2byte	0x4
 10047 020e F3       		.byte	0xf3
 10048 020f 01       		.uleb128 0x1
ARM GAS  C:\Users\pearlstl\AppData\Local\Temp\ccQFxYtd.s 			page 214


 10049 0210 53       		.byte	0x53
 10050 0211 9F       		.byte	0x9f
 10051 0212 00000000 		.4byte	0
 10052 0216 00000000 		.4byte	0
 10053              	.LLST13:
 10054 021a 00000000 		.4byte	.LVL21
 10055 021e 54000000 		.4byte	.LVL27
 10056 0222 0200     		.2byte	0x2
 10057 0224 91       		.byte	0x91
 10058 0225 00       		.sleb128 0
 10059 0226 54000000 		.4byte	.LVL27
 10060 022a 58000000 		.4byte	.LFE36
 10061 022e 0200     		.2byte	0x2
 10062 0230 7D       		.byte	0x7d
 10063 0231 00       		.sleb128 0
 10064 0232 00000000 		.4byte	0
 10065 0236 00000000 		.4byte	0
 10066              	.LLST14:
 10067 023a 16000000 		.4byte	.LVL23
 10068 023e 18000000 		.4byte	.LVL24
 10069 0242 0100     		.2byte	0x1
 10070 0244 50       		.byte	0x50
 10071 0245 18000000 		.4byte	.LVL24
 10072 0249 54000000 		.4byte	.LVL27
 10073 024d 0100     		.2byte	0x1
 10074 024f 54       		.byte	0x54
 10075 0250 54000000 		.4byte	.LVL27
 10076 0254 57000000 		.4byte	.LVL28-1
 10077 0258 0300     		.2byte	0x3
 10078 025a 71       		.byte	0x71
 10079 025b 70       		.sleb128 -16
 10080 025c 9F       		.byte	0x9f
 10081 025d 00000000 		.4byte	0
 10082 0261 00000000 		.4byte	0
 10083              	.LLST15:
 10084 0265 00000000 		.4byte	.LVL29
 10085 0269 0D000000 		.4byte	.LVL30-1
 10086 026d 0100     		.2byte	0x1
 10087 026f 50       		.byte	0x50
 10088 0270 0D000000 		.4byte	.LVL30-1
 10089 0274 20000000 		.4byte	.LVL33
 10090 0278 0100     		.2byte	0x1
 10091 027a 54       		.byte	0x54
 10092 027b 20000000 		.4byte	.LVL33
 10093 027f 23000000 		.4byte	.LVL34-1
 10094 0283 0100     		.2byte	0x1
 10095 0285 50       		.byte	0x50
 10096 0286 23000000 		.4byte	.LVL34-1
 10097 028a 24000000 		.4byte	.LFE37
 10098 028e 0400     		.2byte	0x4
 10099 0290 F3       		.byte	0xf3
 10100 0291 01       		.uleb128 0x1
 10101 0292 50       		.byte	0x50
 10102 0293 9F       		.byte	0x9f
 10103 0294 00000000 		.4byte	0
 10104 0298 00000000 		.4byte	0
 10105              	.LLST16:
ARM GAS  C:\Users\pearlstl\AppData\Local\Temp\ccQFxYtd.s 			page 215


 10106 029c 00000000 		.4byte	.LVL29
 10107 02a0 0D000000 		.4byte	.LVL30-1
 10108 02a4 0100     		.2byte	0x1
 10109 02a6 51       		.byte	0x51
 10110 02a7 0D000000 		.4byte	.LVL30-1
 10111 02ab 24000000 		.4byte	.LFE37
 10112 02af 0400     		.2byte	0x4
 10113 02b1 F3       		.byte	0xf3
 10114 02b2 01       		.uleb128 0x1
 10115 02b3 51       		.byte	0x51
 10116 02b4 9F       		.byte	0x9f
 10117 02b5 00000000 		.4byte	0
 10118 02b9 00000000 		.4byte	0
 10119              	.LLST17:
 10120 02bd 00000000 		.4byte	.LVL29
 10121 02c1 0D000000 		.4byte	.LVL30-1
 10122 02c5 0100     		.2byte	0x1
 10123 02c7 52       		.byte	0x52
 10124 02c8 0D000000 		.4byte	.LVL30-1
 10125 02cc 24000000 		.4byte	.LFE37
 10126 02d0 0400     		.2byte	0x4
 10127 02d2 F3       		.byte	0xf3
 10128 02d3 01       		.uleb128 0x1
 10129 02d4 52       		.byte	0x52
 10130 02d5 9F       		.byte	0x9f
 10131 02d6 00000000 		.4byte	0
 10132 02da 00000000 		.4byte	0
 10133              	.LLST18:
 10134 02de 00000000 		.4byte	.LVL29
 10135 02e2 0D000000 		.4byte	.LVL30-1
 10136 02e6 0100     		.2byte	0x1
 10137 02e8 53       		.byte	0x53
 10138 02e9 0E000000 		.4byte	.LVL30
 10139 02ed 20000000 		.4byte	.LVL33
 10140 02f1 0100     		.2byte	0x1
 10141 02f3 57       		.byte	0x57
 10142 02f4 00000000 		.4byte	0
 10143 02f8 00000000 		.4byte	0
 10144              	.LLST19:
 10145 02fc 0E000000 		.4byte	.LVL30
 10146 0300 16000000 		.4byte	.LVL31
 10147 0304 0100     		.2byte	0x1
 10148 0306 50       		.byte	0x50
 10149 0307 16000000 		.4byte	.LVL31
 10150 030b 19000000 		.4byte	.LVL32-1
 10151 030f 0300     		.2byte	0x3
 10152 0311 70       		.byte	0x70
 10153 0312 70       		.sleb128 -16
 10154 0313 9F       		.byte	0x9f
 10155 0314 00000000 		.4byte	0
 10156 0318 00000000 		.4byte	0
 10157              	.LLST20:
 10158 031c 00000000 		.4byte	.LVL35
 10159 0320 0B000000 		.4byte	.LVL36-1
 10160 0324 0100     		.2byte	0x1
 10161 0326 50       		.byte	0x50
 10162 0327 0B000000 		.4byte	.LVL36-1
ARM GAS  C:\Users\pearlstl\AppData\Local\Temp\ccQFxYtd.s 			page 216


 10163 032b 1C000000 		.4byte	.LVL39
 10164 032f 0100     		.2byte	0x1
 10165 0331 54       		.byte	0x54
 10166 0332 1C000000 		.4byte	.LVL39
 10167 0336 1F000000 		.4byte	.LVL40-1
 10168 033a 0100     		.2byte	0x1
 10169 033c 50       		.byte	0x50
 10170 033d 1F000000 		.4byte	.LVL40-1
 10171 0341 20000000 		.4byte	.LFE38
 10172 0345 0400     		.2byte	0x4
 10173 0347 F3       		.byte	0xf3
 10174 0348 01       		.uleb128 0x1
 10175 0349 50       		.byte	0x50
 10176 034a 9F       		.byte	0x9f
 10177 034b 00000000 		.4byte	0
 10178 034f 00000000 		.4byte	0
 10179              	.LLST21:
 10180 0353 00000000 		.4byte	.LVL35
 10181 0357 0B000000 		.4byte	.LVL36-1
 10182 035b 0100     		.2byte	0x1
 10183 035d 51       		.byte	0x51
 10184 035e 0B000000 		.4byte	.LVL36-1
 10185 0362 20000000 		.4byte	.LFE38
 10186 0366 0400     		.2byte	0x4
 10187 0368 F3       		.byte	0xf3
 10188 0369 01       		.uleb128 0x1
 10189 036a 51       		.byte	0x51
 10190 036b 9F       		.byte	0x9f
 10191 036c 00000000 		.4byte	0
 10192 0370 00000000 		.4byte	0
 10193              	.LLST22:
 10194 0374 00000000 		.4byte	.LVL35
 10195 0378 0B000000 		.4byte	.LVL36-1
 10196 037c 0100     		.2byte	0x1
 10197 037e 52       		.byte	0x52
 10198 037f 0C000000 		.4byte	.LVL36
 10199 0383 1C000000 		.4byte	.LVL39
 10200 0387 0100     		.2byte	0x1
 10201 0389 56       		.byte	0x56
 10202 038a 00000000 		.4byte	0
 10203 038e 00000000 		.4byte	0
 10204              	.LLST23:
 10205 0392 0C000000 		.4byte	.LVL36
 10206 0396 12000000 		.4byte	.LVL37
 10207 039a 0100     		.2byte	0x1
 10208 039c 50       		.byte	0x50
 10209 039d 12000000 		.4byte	.LVL37
 10210 03a1 15000000 		.4byte	.LVL38-1
 10211 03a5 0300     		.2byte	0x3
 10212 03a7 70       		.byte	0x70
 10213 03a8 70       		.sleb128 -16
 10214 03a9 9F       		.byte	0x9f
 10215 03aa 00000000 		.4byte	0
 10216 03ae 00000000 		.4byte	0
 10217              	.LLST24:
 10218 03b2 00000000 		.4byte	.LVL41
 10219 03b6 09000000 		.4byte	.LVL44-1
ARM GAS  C:\Users\pearlstl\AppData\Local\Temp\ccQFxYtd.s 			page 217


 10220 03ba 0100     		.2byte	0x1
 10221 03bc 50       		.byte	0x50
 10222 03bd 09000000 		.4byte	.LVL44-1
 10223 03c1 0A000000 		.4byte	.LFE39
 10224 03c5 0400     		.2byte	0x4
 10225 03c7 F3       		.byte	0xf3
 10226 03c8 01       		.uleb128 0x1
 10227 03c9 50       		.byte	0x50
 10228 03ca 9F       		.byte	0x9f
 10229 03cb 00000000 		.4byte	0
 10230 03cf 00000000 		.4byte	0
 10231              	.LLST25:
 10232 03d3 00000000 		.4byte	.LVL41
 10233 03d7 06000000 		.4byte	.LVL43
 10234 03db 0100     		.2byte	0x1
 10235 03dd 51       		.byte	0x51
 10236 03de 06000000 		.4byte	.LVL43
 10237 03e2 0A000000 		.4byte	.LFE39
 10238 03e6 0400     		.2byte	0x4
 10239 03e8 F3       		.byte	0xf3
 10240 03e9 01       		.uleb128 0x1
 10241 03ea 51       		.byte	0x51
 10242 03eb 9F       		.byte	0x9f
 10243 03ec 00000000 		.4byte	0
 10244 03f0 00000000 		.4byte	0
 10245              	.LLST26:
 10246 03f4 00000000 		.4byte	.LVL41
 10247 03f8 09000000 		.4byte	.LVL44-1
 10248 03fc 0100     		.2byte	0x1
 10249 03fe 52       		.byte	0x52
 10250 03ff 09000000 		.4byte	.LVL44-1
 10251 0403 0A000000 		.4byte	.LFE39
 10252 0407 0400     		.2byte	0x4
 10253 0409 F3       		.byte	0xf3
 10254 040a 01       		.uleb128 0x1
 10255 040b 52       		.byte	0x52
 10256 040c 9F       		.byte	0x9f
 10257 040d 00000000 		.4byte	0
 10258 0411 00000000 		.4byte	0
 10259              	.LLST27:
 10260 0415 04000000 		.4byte	.LVL42
 10261 0419 09000000 		.4byte	.LVL44-1
 10262 041d 0100     		.2byte	0x1
 10263 041f 52       		.byte	0x52
 10264 0420 09000000 		.4byte	.LVL44-1
 10265 0424 0A000000 		.4byte	.LFE39
 10266 0428 0400     		.2byte	0x4
 10267 042a F3       		.byte	0xf3
 10268 042b 01       		.uleb128 0x1
 10269 042c 52       		.byte	0x52
 10270 042d 9F       		.byte	0x9f
 10271 042e 00000000 		.4byte	0
 10272 0432 00000000 		.4byte	0
 10273              	.LLST28:
 10274 0436 00000000 		.4byte	.LVL45
 10275 043a 0B000000 		.4byte	.LVL46-1
 10276 043e 0100     		.2byte	0x1
ARM GAS  C:\Users\pearlstl\AppData\Local\Temp\ccQFxYtd.s 			page 218


 10277 0440 50       		.byte	0x50
 10278 0441 0B000000 		.4byte	.LVL46-1
 10279 0445 24000000 		.4byte	.LFE40
 10280 0449 0100     		.2byte	0x1
 10281 044b 57       		.byte	0x57
 10282 044c 00000000 		.4byte	0
 10283 0450 00000000 		.4byte	0
 10284              	.LLST29:
 10285 0454 00000000 		.4byte	.LVL45
 10286 0458 0B000000 		.4byte	.LVL46-1
 10287 045c 0100     		.2byte	0x1
 10288 045e 51       		.byte	0x51
 10289 045f 0B000000 		.4byte	.LVL46-1
 10290 0463 24000000 		.4byte	.LFE40
 10291 0467 0400     		.2byte	0x4
 10292 0469 F3       		.byte	0xf3
 10293 046a 01       		.uleb128 0x1
 10294 046b 51       		.byte	0x51
 10295 046c 9F       		.byte	0x9f
 10296 046d 00000000 		.4byte	0
 10297 0471 00000000 		.4byte	0
 10298              	.LLST30:
 10299 0475 00000000 		.4byte	.LVL45
 10300 0479 0B000000 		.4byte	.LVL46-1
 10301 047d 0100     		.2byte	0x1
 10302 047f 52       		.byte	0x52
 10303 0480 0B000000 		.4byte	.LVL46-1
 10304 0484 24000000 		.4byte	.LFE40
 10305 0488 0400     		.2byte	0x4
 10306 048a F3       		.byte	0xf3
 10307 048b 01       		.uleb128 0x1
 10308 048c 52       		.byte	0x52
 10309 048d 9F       		.byte	0x9f
 10310 048e 00000000 		.4byte	0
 10311 0492 00000000 		.4byte	0
 10312              	.LLST31:
 10313 0496 0E000000 		.4byte	.LVL47
 10314 049a 10000000 		.4byte	.LVL48
 10315 049e 0100     		.2byte	0x1
 10316 04a0 50       		.byte	0x50
 10317 04a1 10000000 		.4byte	.LVL48
 10318 04a5 24000000 		.4byte	.LFE40
 10319 04a9 0100     		.2byte	0x1
 10320 04ab 54       		.byte	0x54
 10321 04ac 00000000 		.4byte	0
 10322 04b0 00000000 		.4byte	0
 10323              	.LLST32:
 10324 04b4 0E000000 		.4byte	.LVL47
 10325 04b8 14000000 		.4byte	.LVL49
 10326 04bc 0200     		.2byte	0x2
 10327 04be 30       		.byte	0x30
 10328 04bf 9F       		.byte	0x9f
 10329 04c0 00000000 		.4byte	0
 10330 04c4 00000000 		.4byte	0
 10331              	.LLST33:
 10332 04c8 0E000000 		.4byte	.LVL47
 10333 04cc 14000000 		.4byte	.LVL49
ARM GAS  C:\Users\pearlstl\AppData\Local\Temp\ccQFxYtd.s 			page 219


 10334 04d0 0100     		.2byte	0x1
 10335 04d2 57       		.byte	0x57
 10336 04d3 00000000 		.4byte	0
 10337 04d7 00000000 		.4byte	0
 10338              	.LLST36:
 10339 04db 00000000 		.4byte	.LVL51
 10340 04df 05000000 		.4byte	.LVL52-1
 10341 04e3 0100     		.2byte	0x1
 10342 04e5 50       		.byte	0x50
 10343 04e6 05000000 		.4byte	.LVL52-1
 10344 04ea 0A000000 		.4byte	.LFE41
 10345 04ee 0400     		.2byte	0x4
 10346 04f0 F3       		.byte	0xf3
 10347 04f1 01       		.uleb128 0x1
 10348 04f2 50       		.byte	0x50
 10349 04f3 9F       		.byte	0x9f
 10350 04f4 00000000 		.4byte	0
 10351 04f8 00000000 		.4byte	0
 10352              	.LLST37:
 10353 04fc 06000000 		.4byte	.LVL52
 10354 0500 08000000 		.4byte	.LVL53
 10355 0504 0100     		.2byte	0x1
 10356 0506 50       		.byte	0x50
 10357 0507 08000000 		.4byte	.LVL53
 10358 050b 0A000000 		.4byte	.LFE41
 10359 050f 0300     		.2byte	0x3
 10360 0511 70       		.byte	0x70
 10361 0512 70       		.sleb128 -16
 10362 0513 9F       		.byte	0x9f
 10363 0514 00000000 		.4byte	0
 10364 0518 00000000 		.4byte	0
 10365              	.LLST38:
 10366 051c 00000000 		.4byte	.LVL54
 10367 0520 05000000 		.4byte	.LVL56-1
 10368 0524 0100     		.2byte	0x1
 10369 0526 50       		.byte	0x50
 10370 0527 05000000 		.4byte	.LVL56-1
 10371 052b 06000000 		.4byte	.LVL56
 10372 052f 0400     		.2byte	0x4
 10373 0531 F3       		.byte	0xf3
 10374 0532 01       		.uleb128 0x1
 10375 0533 50       		.byte	0x50
 10376 0534 9F       		.byte	0x9f
 10377 0535 06000000 		.4byte	.LVL56
 10378 0539 08000000 		.4byte	.LVL57
 10379 053d 0100     		.2byte	0x1
 10380 053f 50       		.byte	0x50
 10381 0540 08000000 		.4byte	.LVL57
 10382 0544 0A000000 		.4byte	.LFE42
 10383 0548 0400     		.2byte	0x4
 10384 054a F3       		.byte	0xf3
 10385 054b 01       		.uleb128 0x1
 10386 054c 50       		.byte	0x50
 10387 054d 9F       		.byte	0x9f
 10388 054e 00000000 		.4byte	0
 10389 0552 00000000 		.4byte	0
 10390              	.LLST39:
ARM GAS  C:\Users\pearlstl\AppData\Local\Temp\ccQFxYtd.s 			page 220


 10391 0556 00000000 		.4byte	.LVL54
 10392 055a 05000000 		.4byte	.LVL56-1
 10393 055e 0100     		.2byte	0x1
 10394 0560 51       		.byte	0x51
 10395 0561 05000000 		.4byte	.LVL56-1
 10396 0565 06000000 		.4byte	.LVL56
 10397 0569 0400     		.2byte	0x4
 10398 056b F3       		.byte	0xf3
 10399 056c 01       		.uleb128 0x1
 10400 056d 51       		.byte	0x51
 10401 056e 9F       		.byte	0x9f
 10402 056f 06000000 		.4byte	.LVL56
 10403 0573 0A000000 		.4byte	.LFE42
 10404 0577 0100     		.2byte	0x1
 10405 0579 51       		.byte	0x51
 10406 057a 00000000 		.4byte	0
 10407 057e 00000000 		.4byte	0
 10408              	.LLST40:
 10409 0582 02000000 		.4byte	.LVL55
 10410 0586 06000000 		.4byte	.LVL56
 10411 058a 0200     		.2byte	0x2
 10412 058c 30       		.byte	0x30
 10413 058d 9F       		.byte	0x9f
 10414 058e 00000000 		.4byte	0
 10415 0592 00000000 		.4byte	0
 10416              	.LLST41:
 10417 0596 00000000 		.4byte	.LVL58
 10418 059a 15000000 		.4byte	.LVL59-1
 10419 059e 0100     		.2byte	0x1
 10420 05a0 50       		.byte	0x50
 10421 05a1 15000000 		.4byte	.LVL59-1
 10422 05a5 82000000 		.4byte	.LFE43
 10423 05a9 0400     		.2byte	0x4
 10424 05ab F3       		.byte	0xf3
 10425 05ac 01       		.uleb128 0x1
 10426 05ad 50       		.byte	0x50
 10427 05ae 9F       		.byte	0x9f
 10428 05af 00000000 		.4byte	0
 10429 05b3 00000000 		.4byte	0
 10430              	.LLST42:
 10431 05b7 00000000 		.4byte	.LVL58
 10432 05bb 15000000 		.4byte	.LVL59-1
 10433 05bf 0100     		.2byte	0x1
 10434 05c1 51       		.byte	0x51
 10435 05c2 15000000 		.4byte	.LVL59-1
 10436 05c6 5E000000 		.4byte	.LVL66
 10437 05ca 0100     		.2byte	0x1
 10438 05cc 56       		.byte	0x56
 10439 05cd 5E000000 		.4byte	.LVL66
 10440 05d1 82000000 		.4byte	.LFE43
 10441 05d5 0400     		.2byte	0x4
 10442 05d7 F3       		.byte	0xf3
 10443 05d8 01       		.uleb128 0x1
 10444 05d9 51       		.byte	0x51
 10445 05da 9F       		.byte	0x9f
 10446 05db 00000000 		.4byte	0
 10447 05df 00000000 		.4byte	0
ARM GAS  C:\Users\pearlstl\AppData\Local\Temp\ccQFxYtd.s 			page 221


 10448              	.LLST43:
 10449 05e3 00000000 		.4byte	.LVL58
 10450 05e7 15000000 		.4byte	.LVL59-1
 10451 05eb 0100     		.2byte	0x1
 10452 05ed 52       		.byte	0x52
 10453 05ee 15000000 		.4byte	.LVL59-1
 10454 05f2 82000000 		.4byte	.LFE43
 10455 05f6 0400     		.2byte	0x4
 10456 05f8 F3       		.byte	0xf3
 10457 05f9 01       		.uleb128 0x1
 10458 05fa 52       		.byte	0x52
 10459 05fb 9F       		.byte	0x9f
 10460 05fc 00000000 		.4byte	0
 10461 0600 00000000 		.4byte	0
 10462              	.LLST44:
 10463 0604 00000000 		.4byte	.LVL58
 10464 0608 15000000 		.4byte	.LVL59-1
 10465 060c 0100     		.2byte	0x1
 10466 060e 53       		.byte	0x53
 10467 060f 15000000 		.4byte	.LVL59-1
 10468 0613 82000000 		.4byte	.LFE43
 10469 0617 0400     		.2byte	0x4
 10470 0619 F3       		.byte	0xf3
 10471 061a 01       		.uleb128 0x1
 10472 061b 53       		.byte	0x53
 10473 061c 9F       		.byte	0x9f
 10474 061d 00000000 		.4byte	0
 10475 0621 00000000 		.4byte	0
 10476              	.LLST45:
 10477 0625 00000000 		.4byte	.LVL58
 10478 0629 36000000 		.4byte	.LVL61
 10479 062d 0200     		.2byte	0x2
 10480 062f 91       		.byte	0x91
 10481 0630 00       		.sleb128 0
 10482 0631 36000000 		.4byte	.LVL61
 10483 0635 82000000 		.4byte	.LFE43
 10484 0639 0200     		.2byte	0x2
 10485 063b 91       		.byte	0x91
 10486 063c 00       		.sleb128 0
 10487 063d 00000000 		.4byte	0
 10488 0641 00000000 		.4byte	0
 10489              	.LLST46:
 10490 0645 00000000 		.4byte	.LVL58
 10491 0649 36000000 		.4byte	.LVL61
 10492 064d 0200     		.2byte	0x2
 10493 064f 91       		.byte	0x91
 10494 0650 04       		.sleb128 4
 10495 0651 36000000 		.4byte	.LVL61
 10496 0655 82000000 		.4byte	.LFE43
 10497 0659 0200     		.2byte	0x2
 10498 065b 91       		.byte	0x91
 10499 065c 04       		.sleb128 4
 10500 065d 00000000 		.4byte	0
 10501 0661 00000000 		.4byte	0
 10502              	.LLST47:
 10503 0665 16000000 		.4byte	.LVL59
 10504 0669 32000000 		.4byte	.LVL60
ARM GAS  C:\Users\pearlstl\AppData\Local\Temp\ccQFxYtd.s 			page 222


 10505 066d 0100     		.2byte	0x1
 10506 066f 50       		.byte	0x50
 10507 0670 36000000 		.4byte	.LVL61
 10508 0674 38000000 		.4byte	.LVL62
 10509 0678 0100     		.2byte	0x1
 10510 067a 50       		.byte	0x50
 10511 067b 38000000 		.4byte	.LVL62
 10512 067f 82000000 		.4byte	.LFE43
 10513 0683 0100     		.2byte	0x1
 10514 0685 57       		.byte	0x57
 10515 0686 00000000 		.4byte	0
 10516 068a 00000000 		.4byte	0
 10517              	.LLST48:
 10518 068e 56000000 		.4byte	.LVL65
 10519 0692 78000000 		.4byte	.LVL69
 10520 0696 0100     		.2byte	0x1
 10521 0698 56       		.byte	0x56
 10522 0699 7C000000 		.4byte	.LVL70
 10523 069d 82000000 		.4byte	.LFE43
 10524 06a1 0100     		.2byte	0x1
 10525 06a3 56       		.byte	0x56
 10526 06a4 00000000 		.4byte	0
 10527 06a8 00000000 		.4byte	0
 10528              	.LLST49:
 10529 06ac 56000000 		.4byte	.LVL65
 10530 06b0 5E000000 		.4byte	.LVL66
 10531 06b4 0200     		.2byte	0x2
 10532 06b6 30       		.byte	0x30
 10533 06b7 9F       		.byte	0x9f
 10534 06b8 5E000000 		.4byte	.LVL66
 10535 06bc 6C000000 		.4byte	.LVL68
 10536 06c0 0100     		.2byte	0x1
 10537 06c2 54       		.byte	0x54
 10538 06c3 7C000000 		.4byte	.LVL70
 10539 06c7 82000000 		.4byte	.LFE43
 10540 06cb 0100     		.2byte	0x1
 10541 06cd 54       		.byte	0x54
 10542 06ce 00000000 		.4byte	0
 10543 06d2 00000000 		.4byte	0
 10544              	.LLST50:
 10545 06d6 00000000 		.4byte	.LVL71
 10546 06da 1F000000 		.4byte	.LVL73-1
 10547 06de 0100     		.2byte	0x1
 10548 06e0 50       		.byte	0x50
 10549 06e1 1F000000 		.4byte	.LVL73-1
 10550 06e5 52000000 		.4byte	.LVL83
 10551 06e9 0100     		.2byte	0x1
 10552 06eb 58       		.byte	0x58
 10553 06ec 52000000 		.4byte	.LVL83
 10554 06f0 60010000 		.4byte	.LVL104
 10555 06f4 0300     		.2byte	0x3
 10556 06f6 91       		.byte	0x91
 10557 06f7 B07F     		.sleb128 -80
 10558 06f9 60010000 		.4byte	.LVL104
 10559 06fd 64010000 		.4byte	.LVL105
 10560 0701 0300     		.2byte	0x3
 10561 0703 7D       		.byte	0x7d
ARM GAS  C:\Users\pearlstl\AppData\Local\Temp\ccQFxYtd.s 			page 223


 10562 0704 B07F     		.sleb128 -80
 10563 0706 64010000 		.4byte	.LVL105
 10564 070a A2050000 		.4byte	.LFE44
 10565 070e 0300     		.2byte	0x3
 10566 0710 91       		.byte	0x91
 10567 0711 B07F     		.sleb128 -80
 10568 0713 00000000 		.4byte	0
 10569 0717 00000000 		.4byte	0
 10570              	.LLST51:
 10571 071b 00000000 		.4byte	.LVL71
 10572 071f 1F000000 		.4byte	.LVL73-1
 10573 0723 0100     		.2byte	0x1
 10574 0725 51       		.byte	0x51
 10575 0726 1F000000 		.4byte	.LVL73-1
 10576 072a A0000000 		.4byte	.LVL92
 10577 072e 0100     		.2byte	0x1
 10578 0730 5B       		.byte	0x5b
 10579 0731 A0000000 		.4byte	.LVL92
 10580 0735 60010000 		.4byte	.LVL104
 10581 0739 0300     		.2byte	0x3
 10582 073b 91       		.byte	0x91
 10583 073c 807F     		.sleb128 -128
 10584 073e 60010000 		.4byte	.LVL104
 10585 0742 64010000 		.4byte	.LVL105
 10586 0746 0300     		.2byte	0x3
 10587 0748 7D       		.byte	0x7d
 10588 0749 807F     		.sleb128 -128
 10589 074b 64010000 		.4byte	.LVL105
 10590 074f A2050000 		.4byte	.LFE44
 10591 0753 0300     		.2byte	0x3
 10592 0755 91       		.byte	0x91
 10593 0756 807F     		.sleb128 -128
 10594 0758 00000000 		.4byte	0
 10595 075c 00000000 		.4byte	0
 10596              	.LLST52:
 10597 0760 00000000 		.4byte	.LVL71
 10598 0764 1F000000 		.4byte	.LVL73-1
 10599 0768 0100     		.2byte	0x1
 10600 076a 52       		.byte	0x52
 10601 076b 1F000000 		.4byte	.LVL73-1
 10602 076f 4C000000 		.4byte	.LVL82
 10603 0773 0100     		.2byte	0x1
 10604 0775 57       		.byte	0x57
 10605 0776 4C000000 		.4byte	.LVL82
 10606 077a A2050000 		.4byte	.LFE44
 10607 077e 0400     		.2byte	0x4
 10608 0780 F3       		.byte	0xf3
 10609 0781 01       		.uleb128 0x1
 10610 0782 52       		.byte	0x52
 10611 0783 9F       		.byte	0x9f
 10612 0784 00000000 		.4byte	0
 10613 0788 00000000 		.4byte	0
 10614              	.LLST53:
 10615 078c 00000000 		.4byte	.LVL71
 10616 0790 0A000000 		.4byte	.LVL72
 10617 0794 0100     		.2byte	0x1
 10618 0796 53       		.byte	0x53
ARM GAS  C:\Users\pearlstl\AppData\Local\Temp\ccQFxYtd.s 			page 224


 10619 0797 0A000000 		.4byte	.LVL72
 10620 079b A2050000 		.4byte	.LFE44
 10621 079f 0400     		.2byte	0x4
 10622 07a1 F3       		.byte	0xf3
 10623 07a2 01       		.uleb128 0x1
 10624 07a3 53       		.byte	0x53
 10625 07a4 9F       		.byte	0x9f
 10626 07a5 00000000 		.4byte	0
 10627 07a9 00000000 		.4byte	0
 10628              	.LLST54:
 10629 07ad 00000000 		.4byte	.LVL71
 10630 07b1 60010000 		.4byte	.LVL104
 10631 07b5 0200     		.2byte	0x2
 10632 07b7 91       		.byte	0x91
 10633 07b8 00       		.sleb128 0
 10634 07b9 60010000 		.4byte	.LVL104
 10635 07bd 64010000 		.4byte	.LVL105
 10636 07c1 0200     		.2byte	0x2
 10637 07c3 7D       		.byte	0x7d
 10638 07c4 00       		.sleb128 0
 10639 07c5 64010000 		.4byte	.LVL105
 10640 07c9 A2050000 		.4byte	.LFE44
 10641 07cd 0200     		.2byte	0x2
 10642 07cf 91       		.byte	0x91
 10643 07d0 00       		.sleb128 0
 10644 07d1 00000000 		.4byte	0
 10645 07d5 00000000 		.4byte	0
 10646              	.LLST55:
 10647 07d9 00000000 		.4byte	.LVL71
 10648 07dd 60010000 		.4byte	.LVL104
 10649 07e1 0200     		.2byte	0x2
 10650 07e3 91       		.byte	0x91
 10651 07e4 04       		.sleb128 4
 10652 07e5 60010000 		.4byte	.LVL104
 10653 07e9 64010000 		.4byte	.LVL105
 10654 07ed 0200     		.2byte	0x2
 10655 07ef 7D       		.byte	0x7d
 10656 07f0 04       		.sleb128 4
 10657 07f1 64010000 		.4byte	.LVL105
 10658 07f5 A2050000 		.4byte	.LFE44
 10659 07f9 0200     		.2byte	0x2
 10660 07fb 91       		.byte	0x91
 10661 07fc 04       		.sleb128 4
 10662 07fd 00000000 		.4byte	0
 10663 0801 00000000 		.4byte	0
 10664              	.LLST56:
 10665 0805 00000000 		.4byte	.LVL71
 10666 0809 60010000 		.4byte	.LVL104
 10667 080d 0200     		.2byte	0x2
 10668 080f 91       		.byte	0x91
 10669 0810 08       		.sleb128 8
 10670 0811 60010000 		.4byte	.LVL104
 10671 0815 64010000 		.4byte	.LVL105
 10672 0819 0200     		.2byte	0x2
 10673 081b 7D       		.byte	0x7d
 10674 081c 08       		.sleb128 8
 10675 081d 64010000 		.4byte	.LVL105
ARM GAS  C:\Users\pearlstl\AppData\Local\Temp\ccQFxYtd.s 			page 225


 10676 0821 A2050000 		.4byte	.LFE44
 10677 0825 0200     		.2byte	0x2
 10678 0827 91       		.byte	0x91
 10679 0828 08       		.sleb128 8
 10680 0829 00000000 		.4byte	0
 10681 082d 00000000 		.4byte	0
 10682              	.LLST57:
 10683 0831 24000000 		.4byte	.LVL74
 10684 0835 26000000 		.4byte	.LVL75
 10685 0839 0100     		.2byte	0x1
 10686 083b 50       		.byte	0x50
 10687 083c 26000000 		.4byte	.LVL75
 10688 0840 5E000000 		.4byte	.LVL85
 10689 0844 0100     		.2byte	0x1
 10690 0846 59       		.byte	0x59
 10691 0847 5E000000 		.4byte	.LVL85
 10692 084b 60010000 		.4byte	.LVL104
 10693 084f 0300     		.2byte	0x3
 10694 0851 91       		.byte	0x91
 10695 0852 E07E     		.sleb128 -160
 10696 0854 60010000 		.4byte	.LVL104
 10697 0858 64010000 		.4byte	.LVL105
 10698 085c 0300     		.2byte	0x3
 10699 085e 7D       		.byte	0x7d
 10700 085f E07E     		.sleb128 -160
 10701 0861 64010000 		.4byte	.LVL105
 10702 0865 A2050000 		.4byte	.LFE44
 10703 0869 0300     		.2byte	0x3
 10704 086b 91       		.byte	0x91
 10705 086c E07E     		.sleb128 -160
 10706 086e 00000000 		.4byte	0
 10707 0872 00000000 		.4byte	0
 10708              	.LLST58:
 10709 0876 36000000 		.4byte	.LVL79
 10710 087a 3A000000 		.4byte	.LVL80
 10711 087e 0100     		.2byte	0x1
 10712 0880 50       		.byte	0x50
 10713 0881 3A000000 		.4byte	.LVL80
 10714 0885 C2000000 		.4byte	.LVL93
 10715 0889 0100     		.2byte	0x1
 10716 088b 5A       		.byte	0x5a
 10717 088c C2000000 		.4byte	.LVL93
 10718 0890 58010000 		.4byte	.LVL103
 10719 0894 0100     		.2byte	0x1
 10720 0896 54       		.byte	0x54
 10721 0897 64010000 		.4byte	.LVL105
 10722 089b A2050000 		.4byte	.LFE44
 10723 089f 0100     		.2byte	0x1
 10724 08a1 54       		.byte	0x54
 10725 08a2 00000000 		.4byte	0
 10726 08a6 00000000 		.4byte	0
 10727              	.LLST59:
 10728 08aa 52000000 		.4byte	.LVL83
 10729 08ae 56000000 		.4byte	.LVL84
 10730 08b2 0100     		.2byte	0x1
 10731 08b4 50       		.byte	0x50
 10732 08b5 56000000 		.4byte	.LVL84
ARM GAS  C:\Users\pearlstl\AppData\Local\Temp\ccQFxYtd.s 			page 226


 10733 08b9 C2000000 		.4byte	.LVL93
 10734 08bd 0100     		.2byte	0x1
 10735 08bf 58       		.byte	0x58
 10736 08c0 C2000000 		.4byte	.LVL93
 10737 08c4 58010000 		.4byte	.LVL103
 10738 08c8 0100     		.2byte	0x1
 10739 08ca 59       		.byte	0x59
 10740 08cb 64010000 		.4byte	.LVL105
 10741 08cf A2050000 		.4byte	.LFE44
 10742 08d3 0100     		.2byte	0x1
 10743 08d5 59       		.byte	0x59
 10744 08d6 00000000 		.4byte	0
 10745 08da 00000000 		.4byte	0
 10746              	.LLST60:
 10747 08de 5E000000 		.4byte	.LVL85
 10748 08e2 C2000000 		.4byte	.LVL93
 10749 08e6 0100     		.2byte	0x1
 10750 08e8 59       		.byte	0x59
 10751 08e9 C2000000 		.4byte	.LVL93
 10752 08ed 58010000 		.4byte	.LVL103
 10753 08f1 0100     		.2byte	0x1
 10754 08f3 56       		.byte	0x56
 10755 08f4 64010000 		.4byte	.LVL105
 10756 08f8 A2050000 		.4byte	.LFE44
 10757 08fc 0100     		.2byte	0x1
 10758 08fe 56       		.byte	0x56
 10759 08ff 00000000 		.4byte	0
 10760 0903 00000000 		.4byte	0
 10761              	.LLST61:
 10762 0907 66000000 		.4byte	.LVL86
 10763 090b 6C000000 		.4byte	.LVL87
 10764 090f 0100     		.2byte	0x1
 10765 0911 53       		.byte	0x53
 10766 0912 6C000000 		.4byte	.LVL87
 10767 0916 60010000 		.4byte	.LVL104
 10768 091a 0300     		.2byte	0x3
 10769 091c 91       		.byte	0x91
 10770 091d B87E     		.sleb128 -200
 10771 091f 60010000 		.4byte	.LVL104
 10772 0923 64010000 		.4byte	.LVL105
 10773 0927 0300     		.2byte	0x3
 10774 0929 7D       		.byte	0x7d
 10775 092a B87E     		.sleb128 -200
 10776 092c 64010000 		.4byte	.LVL105
 10777 0930 A2050000 		.4byte	.LFE44
 10778 0934 0300     		.2byte	0x3
 10779 0936 91       		.byte	0x91
 10780 0937 B87E     		.sleb128 -200
 10781 0939 00000000 		.4byte	0
 10782 093d 00000000 		.4byte	0
 10783              	.LLST62:
 10784 0941 66000000 		.4byte	.LVL86
 10785 0945 60010000 		.4byte	.LVL104
 10786 0949 0300     		.2byte	0x3
 10787 094b 91       		.byte	0x91
 10788 094c B47F     		.sleb128 -76
 10789 094e 60010000 		.4byte	.LVL104
ARM GAS  C:\Users\pearlstl\AppData\Local\Temp\ccQFxYtd.s 			page 227


 10790 0952 64010000 		.4byte	.LVL105
 10791 0956 0300     		.2byte	0x3
 10792 0958 7D       		.byte	0x7d
 10793 0959 B47F     		.sleb128 -76
 10794 095b 64010000 		.4byte	.LVL105
 10795 095f A2050000 		.4byte	.LFE44
 10796 0963 0300     		.2byte	0x3
 10797 0965 91       		.byte	0x91
 10798 0966 B47F     		.sleb128 -76
 10799 0968 00000000 		.4byte	0
 10800 096c 00000000 		.4byte	0
 10801              	.LLST63:
 10802 0970 6E000000 		.4byte	.LVL88
 10803 0974 72000000 		.4byte	.LVL89
 10804 0978 0100     		.2byte	0x1
 10805 097a 53       		.byte	0x53
 10806 097b 72000000 		.4byte	.LVL89
 10807 097f 60010000 		.4byte	.LVL104
 10808 0983 0300     		.2byte	0x3
 10809 0985 91       		.byte	0x91
 10810 0986 9C7F     		.sleb128 -100
 10811 0988 60010000 		.4byte	.LVL104
 10812 098c 64010000 		.4byte	.LVL105
 10813 0990 0300     		.2byte	0x3
 10814 0992 7D       		.byte	0x7d
 10815 0993 9C7F     		.sleb128 -100
 10816 0995 64010000 		.4byte	.LVL105
 10817 0999 A2050000 		.4byte	.LFE44
 10818 099d 0300     		.2byte	0x3
 10819 099f 91       		.byte	0x91
 10820 09a0 9C7F     		.sleb128 -100
 10821 09a2 00000000 		.4byte	0
 10822 09a6 00000000 		.4byte	0
 10823              	.LLST64:
 10824 09aa 6E000000 		.4byte	.LVL88
 10825 09ae 7A000000 		.4byte	.LVL90
 10826 09b2 0100     		.2byte	0x1
 10827 09b4 52       		.byte	0x52
 10828 09b5 7A000000 		.4byte	.LVL90
 10829 09b9 88000000 		.4byte	.LVL91
 10830 09bd 0400     		.2byte	0x4
 10831 09bf 75       		.byte	0x75
 10832 09c0 00       		.sleb128 0
 10833 09c1 1F       		.byte	0x1f
 10834 09c2 9F       		.byte	0x9f
 10835 09c3 00000000 		.4byte	0
 10836 09c7 00000000 		.4byte	0
 10837              	.LLST65:
 10838 09cb 24000000 		.4byte	.LVL74
 10839 09cf 2C000000 		.4byte	.LVL77
 10840 09d3 0200     		.2byte	0x2
 10841 09d5 30       		.byte	0x30
 10842 09d6 9F       		.byte	0x9f
 10843 09d7 00000000 		.4byte	0
 10844 09db 00000000 		.4byte	0
 10845              	.LLST66:
 10846 09df 24000000 		.4byte	.LVL74
ARM GAS  C:\Users\pearlstl\AppData\Local\Temp\ccQFxYtd.s 			page 228


 10847 09e3 2C000000 		.4byte	.LVL77
 10848 09e7 0100     		.2byte	0x1
 10849 09e9 58       		.byte	0x58
 10850 09ea 00000000 		.4byte	0
 10851 09ee 00000000 		.4byte	0
 10852              	.LLST69:
 10853 09f2 EE000000 		.4byte	.LVL95
 10854 09f6 20010000 		.4byte	.LVL100
 10855 09fa 0100     		.2byte	0x1
 10856 09fc 52       		.byte	0x52
 10857 09fd 20010000 		.4byte	.LVL100
 10858 0a01 34010000 		.4byte	.LVL102
 10859 0a05 0900     		.2byte	0x9
 10860 0a07 7B       		.byte	0x7b
 10861 0a08 00       		.sleb128 0
 10862 0a09 37       		.byte	0x37
 10863 0a0a 26       		.byte	0x26
 10864 0a0b 7D       		.byte	0x7d
 10865 0a0c 00       		.sleb128 0
 10866 0a0d 06       		.byte	0x6
 10867 0a0e 22       		.byte	0x22
 10868 0a0f 9F       		.byte	0x9f
 10869 0a10 64010000 		.4byte	.LVL105
 10870 0a14 6C010000 		.4byte	.LVL106
 10871 0a18 0100     		.2byte	0x1
 10872 0a1a 52       		.byte	0x52
 10873 0a1b 6C010000 		.4byte	.LVL106
 10874 0a1f 7E010000 		.4byte	.LVL110
 10875 0a23 0900     		.2byte	0x9
 10876 0a25 7B       		.byte	0x7b
 10877 0a26 00       		.sleb128 0
 10878 0a27 37       		.byte	0x37
 10879 0a28 26       		.byte	0x26
 10880 0a29 7D       		.byte	0x7d
 10881 0a2a 00       		.sleb128 0
 10882 0a2b 06       		.byte	0x6
 10883 0a2c 22       		.byte	0x22
 10884 0a2d 9F       		.byte	0x9f
 10885 0a2e 7E010000 		.4byte	.LVL110
 10886 0a32 80010000 		.4byte	.LVL111
 10887 0a36 0100     		.2byte	0x1
 10888 0a38 52       		.byte	0x52
 10889 0a39 80010000 		.4byte	.LVL111
 10890 0a3d BA010000 		.4byte	.LVL116
 10891 0a41 0900     		.2byte	0x9
 10892 0a43 7B       		.byte	0x7b
 10893 0a44 00       		.sleb128 0
 10894 0a45 37       		.byte	0x37
 10895 0a46 26       		.byte	0x26
 10896 0a47 7D       		.byte	0x7d
 10897 0a48 00       		.sleb128 0
 10898 0a49 06       		.byte	0x6
 10899 0a4a 22       		.byte	0x22
 10900 0a4b 9F       		.byte	0x9f
 10901 0a4c BA010000 		.4byte	.LVL116
 10902 0a50 BC010000 		.4byte	.LVL117
 10903 0a54 0100     		.2byte	0x1
ARM GAS  C:\Users\pearlstl\AppData\Local\Temp\ccQFxYtd.s 			page 229


 10904 0a56 52       		.byte	0x52
 10905 0a57 BC010000 		.4byte	.LVL117
 10906 0a5b A2050000 		.4byte	.LFE44
 10907 0a5f 0900     		.2byte	0x9
 10908 0a61 7B       		.byte	0x7b
 10909 0a62 00       		.sleb128 0
 10910 0a63 37       		.byte	0x37
 10911 0a64 26       		.byte	0x26
 10912 0a65 7D       		.byte	0x7d
 10913 0a66 00       		.sleb128 0
 10914 0a67 06       		.byte	0x6
 10915 0a68 22       		.byte	0x22
 10916 0a69 9F       		.byte	0x9f
 10917 0a6a 00000000 		.4byte	0
 10918 0a6e 00000000 		.4byte	0
 10919              	.LLST70:
 10920 0a72 F0000000 		.4byte	.LVL96
 10921 0a76 20010000 		.4byte	.LVL100
 10922 0a7a 0100     		.2byte	0x1
 10923 0a7c 53       		.byte	0x53
 10924 0a7d 20010000 		.4byte	.LVL100
 10925 0a81 34010000 		.4byte	.LVL102
 10926 0a85 0B00     		.2byte	0xb
 10927 0a87 7B       		.byte	0x7b
 10928 0a88 00       		.sleb128 0
 10929 0a89 37       		.byte	0x37
 10930 0a8a 26       		.byte	0x26
 10931 0a8b 7D       		.byte	0x7d
 10932 0a8c 00       		.sleb128 0
 10933 0a8d 06       		.byte	0x6
 10934 0a8e 22       		.byte	0x22
 10935 0a8f 38       		.byte	0x38
 10936 0a90 26       		.byte	0x26
 10937 0a91 9F       		.byte	0x9f
 10938 0a92 64010000 		.4byte	.LVL105
 10939 0a96 CC010000 		.4byte	.LVL119
 10940 0a9a 0100     		.2byte	0x1
 10941 0a9c 53       		.byte	0x53
 10942 0a9d CC010000 		.4byte	.LVL119
 10943 0aa1 A2050000 		.4byte	.LFE44
 10944 0aa5 0B00     		.2byte	0xb
 10945 0aa7 7B       		.byte	0x7b
 10946 0aa8 00       		.sleb128 0
 10947 0aa9 37       		.byte	0x37
 10948 0aaa 26       		.byte	0x26
 10949 0aab 7D       		.byte	0x7d
 10950 0aac 00       		.sleb128 0
 10951 0aad 06       		.byte	0x6
 10952 0aae 22       		.byte	0x22
 10953 0aaf 38       		.byte	0x38
 10954 0ab0 26       		.byte	0x26
 10955 0ab1 9F       		.byte	0x9f
 10956 0ab2 00000000 		.4byte	0
 10957 0ab6 00000000 		.4byte	0
 10958              	.LLST71:
 10959 0aba 0E010000 		.4byte	.LVL97
 10960 0abe 20010000 		.4byte	.LVL100
ARM GAS  C:\Users\pearlstl\AppData\Local\Temp\ccQFxYtd.s 			page 230


 10961 0ac2 0100     		.2byte	0x1
 10962 0ac4 5E       		.byte	0x5e
 10963 0ac5 64010000 		.4byte	.LVL105
 10964 0ac9 DB010000 		.4byte	.LVL120-1
 10965 0acd 0100     		.2byte	0x1
 10966 0acf 5E       		.byte	0x5e
 10967 0ad0 DB010000 		.4byte	.LVL120-1
 10968 0ad4 A2050000 		.4byte	.LFE44
 10969 0ad8 0C00     		.2byte	0xc
 10970 0ada 7B       		.byte	0x7b
 10971 0adb 00       		.sleb128 0
 10972 0adc 37       		.byte	0x37
 10973 0add 26       		.byte	0x26
 10974 0ade 7D       		.byte	0x7d
 10975 0adf 00       		.sleb128 0
 10976 0ae0 06       		.byte	0x6
 10977 0ae1 22       		.byte	0x22
 10978 0ae2 08       		.byte	0x8
 10979 0ae3 FF       		.byte	0xff
 10980 0ae4 1A       		.byte	0x1a
 10981 0ae5 9F       		.byte	0x9f
 10982 0ae6 00000000 		.4byte	0
 10983 0aea 00000000 		.4byte	0
 10984              	.LLST72:
 10985 0aee 1A010000 		.4byte	.LVL98
 10986 0af2 1E010000 		.4byte	.LVL99
 10987 0af6 0100     		.2byte	0x1
 10988 0af8 57       		.byte	0x57
 10989 0af9 1E010000 		.4byte	.LVL99
 10990 0afd 20010000 		.4byte	.LVL100
 10991 0b01 0300     		.2byte	0x3
 10992 0b03 91       		.byte	0x91
 10993 0b04 D07E     		.sleb128 -176
 10994 0b06 70010000 		.4byte	.LVL107
 10995 0b0a 76010000 		.4byte	.LVL108
 10996 0b0e 0100     		.2byte	0x1
 10997 0b10 52       		.byte	0x52
 10998 0b11 76010000 		.4byte	.LVL108
 10999 0b15 7E010000 		.4byte	.LVL110
 11000 0b19 0300     		.2byte	0x3
 11001 0b1b 91       		.byte	0x91
 11002 0b1c D07E     		.sleb128 -176
 11003 0b1e BA010000 		.4byte	.LVL116
 11004 0b22 C2010000 		.4byte	.LVL118
 11005 0b26 0300     		.2byte	0x3
 11006 0b28 91       		.byte	0x91
 11007 0b29 D07E     		.sleb128 -176
 11008 0b2b 00000000 		.4byte	0
 11009 0b2f 00000000 		.4byte	0
 11010              	.LLST73:
 11011 0b33 1A010000 		.4byte	.LVL98
 11012 0b37 20010000 		.4byte	.LVL100
 11013 0b3b 0500     		.2byte	0x5
 11014 0b3d 72       		.byte	0x72
 11015 0b3e 00       		.sleb128 0
 11016 0b3f 31       		.byte	0x31
 11017 0b40 24       		.byte	0x24
ARM GAS  C:\Users\pearlstl\AppData\Local\Temp\ccQFxYtd.s 			page 231


 11018 0b41 9F       		.byte	0x9f
 11019 0b42 70010000 		.4byte	.LVL107
 11020 0b46 76010000 		.4byte	.LVL108
 11021 0b4a 0800     		.2byte	0x8
 11022 0b4c 08       		.byte	0x8
 11023 0b4d FF       		.byte	0xff
 11024 0b4e 7E       		.byte	0x7e
 11025 0b4f 00       		.sleb128 0
 11026 0b50 1C       		.byte	0x1c
 11027 0b51 31       		.byte	0x31
 11028 0b52 24       		.byte	0x24
 11029 0b53 9F       		.byte	0x9f
 11030 0b54 76010000 		.4byte	.LVL108
 11031 0b58 78010000 		.4byte	.LVL109
 11032 0b5c 0500     		.2byte	0x5
 11033 0b5e 72       		.byte	0x72
 11034 0b5f 00       		.sleb128 0
 11035 0b60 31       		.byte	0x31
 11036 0b61 24       		.byte	0x24
 11037 0b62 9F       		.byte	0x9f
 11038 0b63 78010000 		.4byte	.LVL109
 11039 0b67 7E010000 		.4byte	.LVL110
 11040 0b6b 0800     		.2byte	0x8
 11041 0b6d 08       		.byte	0x8
 11042 0b6e FF       		.byte	0xff
 11043 0b6f 7E       		.byte	0x7e
 11044 0b70 00       		.sleb128 0
 11045 0b71 1C       		.byte	0x1c
 11046 0b72 31       		.byte	0x31
 11047 0b73 24       		.byte	0x24
 11048 0b74 9F       		.byte	0x9f
 11049 0b75 BA010000 		.4byte	.LVL116
 11050 0b79 BC010000 		.4byte	.LVL117
 11051 0b7d 0500     		.2byte	0x5
 11052 0b7f 72       		.byte	0x72
 11053 0b80 00       		.sleb128 0
 11054 0b81 31       		.byte	0x31
 11055 0b82 24       		.byte	0x24
 11056 0b83 9F       		.byte	0x9f
 11057 0b84 BC010000 		.4byte	.LVL117
 11058 0b88 C2010000 		.4byte	.LVL118
 11059 0b8c 0500     		.2byte	0x5
 11060 0b8e 7E       		.byte	0x7e
 11061 0b8f 00       		.sleb128 0
 11062 0b90 31       		.byte	0x31
 11063 0b91 24       		.byte	0x24
 11064 0b92 9F       		.byte	0x9f
 11065 0b93 00000000 		.4byte	0
 11066 0b97 00000000 		.4byte	0
 11067              	.LLST74:
 11068 0b9b 92010000 		.4byte	.LVL112
 11069 0b9f 96010000 		.4byte	.LVL113
 11070 0ba3 0100     		.2byte	0x1
 11071 0ba5 52       		.byte	0x52
 11072 0ba6 96010000 		.4byte	.LVL113
 11073 0baa A0010000 		.4byte	.LVL114
 11074 0bae 0300     		.2byte	0x3
ARM GAS  C:\Users\pearlstl\AppData\Local\Temp\ccQFxYtd.s 			page 232


 11075 0bb0 91       		.byte	0x91
 11076 0bb1 F47E     		.sleb128 -140
 11077 0bb3 AC010000 		.4byte	.LVL115
 11078 0bb7 BA010000 		.4byte	.LVL116
 11079 0bbb 0100     		.2byte	0x1
 11080 0bbd 50       		.byte	0x50
 11081 0bbe 00000000 		.4byte	0
 11082 0bc2 00000000 		.4byte	0
 11083              	.LLST75:
 11084 0bc6 20010000 		.4byte	.LVL100
 11085 0bca 22010000 		.4byte	.LVL101
 11086 0bce 0100     		.2byte	0x1
 11087 0bd0 53       		.byte	0x53
 11088 0bd1 F2010000 		.4byte	.LVL122
 11089 0bd5 FC010000 		.4byte	.LVL123
 11090 0bd9 0100     		.2byte	0x1
 11091 0bdb 53       		.byte	0x53
 11092 0bdc 88020000 		.4byte	.LVL135
 11093 0be0 90020000 		.4byte	.LVL136
 11094 0be4 0100     		.2byte	0x1
 11095 0be6 53       		.byte	0x53
 11096 0be7 9E020000 		.4byte	.LVL137
 11097 0beb A8020000 		.4byte	.LVL138
 11098 0bef 0100     		.2byte	0x1
 11099 0bf1 57       		.byte	0x57
 11100 0bf2 00000000 		.4byte	0
 11101 0bf6 00000000 		.4byte	0
 11102              	.LLST76:
 11103 0bfa 46020000 		.4byte	.LVL129
 11104 0bfe 54020000 		.4byte	.LVL131
 11105 0c02 0100     		.2byte	0x1
 11106 0c04 5C       		.byte	0x5c
 11107 0c05 78020000 		.4byte	.LVL133
 11108 0c09 7E020000 		.4byte	.LVL134
 11109 0c0d 0100     		.2byte	0x1
 11110 0c0f 52       		.byte	0x52
 11111 0c10 00000000 		.4byte	0
 11112 0c14 00000000 		.4byte	0
 11113              	.LLST77:
 11114 0c18 4E020000 		.4byte	.LVL130
 11115 0c1c 60020000 		.4byte	.LVL132
 11116 0c20 0100     		.2byte	0x1
 11117 0c22 5E       		.byte	0x5e
 11118 0c23 B0020000 		.4byte	.LVL139
 11119 0c27 B4020000 		.4byte	.LVL140
 11120 0c2b 0100     		.2byte	0x1
 11121 0c2d 50       		.byte	0x50
 11122 0c2e B8020000 		.4byte	.LVL141
 11123 0c32 C0020000 		.4byte	.LVL142
 11124 0c36 0100     		.2byte	0x1
 11125 0c38 57       		.byte	0x57
 11126 0c39 00000000 		.4byte	0
 11127 0c3d 00000000 		.4byte	0
 11128              	.LLST78:
 11129 0c41 24030000 		.4byte	.LVL144
 11130 0c45 36030000 		.4byte	.LVL145
 11131 0c49 0100     		.2byte	0x1
ARM GAS  C:\Users\pearlstl\AppData\Local\Temp\ccQFxYtd.s 			page 233


 11132 0c4b 50       		.byte	0x50
 11133 0c4c 36030000 		.4byte	.LVL145
 11134 0c50 42030000 		.4byte	.LVL146
 11135 0c54 0100     		.2byte	0x1
 11136 0c56 51       		.byte	0x51
 11137 0c57 42030000 		.4byte	.LVL146
 11138 0c5b 44030000 		.4byte	.LVL147
 11139 0c5f 0100     		.2byte	0x1
 11140 0c61 53       		.byte	0x53
 11141 0c62 44030000 		.4byte	.LVL147
 11142 0c66 46030000 		.4byte	.LVL148
 11143 0c6a 1100     		.2byte	0x11
 11144 0c6c 91       		.byte	0x91
 11145 0c6d A47F     		.sleb128 -92
 11146 0c6f 93       		.byte	0x93
 11147 0c70 01       		.uleb128 0x1
 11148 0c71 91       		.byte	0x91
 11149 0c72 A07F     		.sleb128 -96
 11150 0c74 93       		.byte	0x93
 11151 0c75 01       		.uleb128 0x1
 11152 0c76 91       		.byte	0x91
 11153 0c77 887F     		.sleb128 -120
 11154 0c79 93       		.byte	0x93
 11155 0c7a 01       		.uleb128 0x1
 11156 0c7b 93       		.byte	0x93
 11157 0c7c 01       		.uleb128 0x1
 11158 0c7d 5E040000 		.4byte	.LVL171
 11159 0c81 60040000 		.4byte	.LVL172
 11160 0c85 1100     		.2byte	0x11
 11161 0c87 91       		.byte	0x91
 11162 0c88 A47F     		.sleb128 -92
 11163 0c8a 93       		.byte	0x93
 11164 0c8b 01       		.uleb128 0x1
 11165 0c8c 91       		.byte	0x91
 11166 0c8d A07F     		.sleb128 -96
 11167 0c8f 93       		.byte	0x93
 11168 0c90 01       		.uleb128 0x1
 11169 0c91 91       		.byte	0x91
 11170 0c92 887F     		.sleb128 -120
 11171 0c94 93       		.byte	0x93
 11172 0c95 01       		.uleb128 0x1
 11173 0c96 93       		.byte	0x93
 11174 0c97 01       		.uleb128 0x1
 11175 0c98 6A040000 		.4byte	.LVL173
 11176 0c9c 7D040000 		.4byte	.LVL174-1
 11177 0ca0 0100     		.2byte	0x1
 11178 0ca2 53       		.byte	0x53
 11179 0ca3 80040000 		.4byte	.LVL175
 11180 0ca7 E8040000 		.4byte	.LVL186
 11181 0cab 0E00     		.2byte	0xe
 11182 0cad 91       		.byte	0x91
 11183 0cae A47F     		.sleb128 -92
 11184 0cb0 93       		.byte	0x93
 11185 0cb1 01       		.uleb128 0x1
 11186 0cb2 93       		.byte	0x93
 11187 0cb3 01       		.uleb128 0x1
 11188 0cb4 91       		.byte	0x91
ARM GAS  C:\Users\pearlstl\AppData\Local\Temp\ccQFxYtd.s 			page 234


 11189 0cb5 887F     		.sleb128 -120
 11190 0cb7 93       		.byte	0x93
 11191 0cb8 01       		.uleb128 0x1
 11192 0cb9 93       		.byte	0x93
 11193 0cba 01       		.uleb128 0x1
 11194 0cbb E8040000 		.4byte	.LVL186
 11195 0cbf 42050000 		.4byte	.LVL191
 11196 0cc3 0700     		.2byte	0x7
 11197 0cc5 91       		.byte	0x91
 11198 0cc6 A47F     		.sleb128 -92
 11199 0cc8 93       		.byte	0x93
 11200 0cc9 01       		.uleb128 0x1
 11201 0cca 93       		.byte	0x93
 11202 0ccb 03       		.uleb128 0x3
 11203 0ccc 44050000 		.4byte	.LVL192
 11204 0cd0 A2050000 		.4byte	.LFE44
 11205 0cd4 0E00     		.2byte	0xe
 11206 0cd6 91       		.byte	0x91
 11207 0cd7 A47F     		.sleb128 -92
 11208 0cd9 93       		.byte	0x93
 11209 0cda 01       		.uleb128 0x1
 11210 0cdb 93       		.byte	0x93
 11211 0cdc 01       		.uleb128 0x1
 11212 0cdd 91       		.byte	0x91
 11213 0cde 887F     		.sleb128 -120
 11214 0ce0 93       		.byte	0x93
 11215 0ce1 01       		.uleb128 0x1
 11216 0ce2 93       		.byte	0x93
 11217 0ce3 01       		.uleb128 0x1
 11218 0ce4 00000000 		.4byte	0
 11219 0ce8 00000000 		.4byte	0
 11220              	.LLST79:
 11221 0cec 94030000 		.4byte	.LVL153
 11222 0cf0 0C040000 		.4byte	.LVL165
 11223 0cf4 0300     		.2byte	0x3
 11224 0cf6 91       		.byte	0x91
 11225 0cf7 A87F     		.sleb128 -88
 11226 0cf9 00000000 		.4byte	0
 11227 0cfd 00000000 		.4byte	0
 11228              	.LLST80:
 11229 0d01 9C030000 		.4byte	.LVL154
 11230 0d05 A0030000 		.4byte	.LVL155
 11231 0d09 0300     		.2byte	0x3
 11232 0d0b 91       		.byte	0x91
 11233 0d0c 947F     		.sleb128 -108
 11234 0d0e 00000000 		.4byte	0
 11235 0d12 00000000 		.4byte	0
 11236              	.LLST81:
 11237 0d16 A8030000 		.4byte	.LVL156
 11238 0d1a C0030000 		.4byte	.LVL157
 11239 0d1e 0100     		.2byte	0x1
 11240 0d20 50       		.byte	0x50
 11241 0d21 00000000 		.4byte	0
 11242 0d25 00000000 		.4byte	0
 11243              	.LLST82:
 11244 0d29 A8030000 		.4byte	.LVL156
 11245 0d2d E4030000 		.4byte	.LVL160
ARM GAS  C:\Users\pearlstl\AppData\Local\Temp\ccQFxYtd.s 			page 235


 11246 0d31 2100     		.2byte	0x21
 11247 0d33 91       		.byte	0x91
 11248 0d34 A87F     		.sleb128 -88
 11249 0d36 94       		.byte	0x94
 11250 0d37 01       		.byte	0x1
 11251 0d38 08       		.byte	0x8
 11252 0d39 FF       		.byte	0xff
 11253 0d3a 1A       		.byte	0x1a
 11254 0d3b 91       		.byte	0x91
 11255 0d3c F87E     		.sleb128 -136
 11256 0d3e 94       		.byte	0x94
 11257 0d3f 01       		.byte	0x1
 11258 0d40 08       		.byte	0x8
 11259 0d41 FF       		.byte	0xff
 11260 0d42 1A       		.byte	0x1a
 11261 0d43 1E       		.byte	0x1e
 11262 0d44 91       		.byte	0x91
 11263 0d45 947F     		.sleb128 -108
 11264 0d47 94       		.byte	0x94
 11265 0d48 01       		.byte	0x1
 11266 0d49 08       		.byte	0x8
 11267 0d4a FF       		.byte	0xff
 11268 0d4b 1A       		.byte	0x1a
 11269 0d4c 91       		.byte	0x91
 11270 0d4d 44       		.sleb128 -60
 11271 0d4e 06       		.byte	0x6
 11272 0d4f 1E       		.byte	0x1e
 11273 0d50 22       		.byte	0x22
 11274 0d51 38       		.byte	0x38
 11275 0d52 26       		.byte	0x26
 11276 0d53 9F       		.byte	0x9f
 11277 0d54 00000000 		.4byte	0
 11278 0d58 00000000 		.4byte	0
 11279              	.LLST83:
 11280 0d5c A8030000 		.4byte	.LVL156
 11281 0d60 C0030000 		.4byte	.LVL157
 11282 0d64 1E00     		.2byte	0x1e
 11283 0d66 91       		.byte	0x91
 11284 0d67 A87F     		.sleb128 -88
 11285 0d69 94       		.byte	0x94
 11286 0d6a 01       		.byte	0x1
 11287 0d6b 08       		.byte	0x8
 11288 0d6c FF       		.byte	0xff
 11289 0d6d 1A       		.byte	0x1a
 11290 0d6e 91       		.byte	0x91
 11291 0d6f 8C7F     		.sleb128 -116
 11292 0d71 94       		.byte	0x94
 11293 0d72 01       		.byte	0x1
 11294 0d73 08       		.byte	0x8
 11295 0d74 FF       		.byte	0xff
 11296 0d75 1A       		.byte	0x1a
 11297 0d76 1E       		.byte	0x1e
 11298 0d77 70       		.byte	0x70
 11299 0d78 00       		.sleb128 0
 11300 0d79 08       		.byte	0x8
 11301 0d7a FF       		.byte	0xff
 11302 0d7b 1A       		.byte	0x1a
ARM GAS  C:\Users\pearlstl\AppData\Local\Temp\ccQFxYtd.s 			page 236


 11303 0d7c 91       		.byte	0x91
 11304 0d7d 40       		.sleb128 -64
 11305 0d7e 06       		.byte	0x6
 11306 0d7f 1E       		.byte	0x1e
 11307 0d80 22       		.byte	0x22
 11308 0d81 38       		.byte	0x38
 11309 0d82 26       		.byte	0x26
 11310 0d83 9F       		.byte	0x9f
 11311 0d84 00000000 		.4byte	0
 11312 0d88 00000000 		.4byte	0
 11313              	.LLST84:
 11314 0d8c D8030000 		.4byte	.LVL158
 11315 0d90 E0030000 		.4byte	.LVL159
 11316 0d94 0100     		.2byte	0x1
 11317 0d96 53       		.byte	0x53
 11318 0d97 E0030000 		.4byte	.LVL159
 11319 0d9b A2050000 		.4byte	.LFE44
 11320 0d9f 0300     		.2byte	0x3
 11321 0da1 91       		.byte	0x91
 11322 0da2 8C7F     		.sleb128 -116
 11323 0da4 00000000 		.4byte	0
 11324 0da8 00000000 		.4byte	0
 11325              	.LLST85:
 11326 0dac FE030000 		.4byte	.LVL163
 11327 0db0 0A040000 		.4byte	.LVL164
 11328 0db4 1B00     		.2byte	0x1b
 11329 0db6 57       		.byte	0x57
 11330 0db7 93       		.byte	0x93
 11331 0db8 01       		.uleb128 0x1
 11332 0db9 72       		.byte	0x72
 11333 0dba 00       		.sleb128 0
 11334 0dbb 09       		.byte	0x9
 11335 0dbc F4       		.byte	0xf4
 11336 0dbd 24       		.byte	0x24
 11337 0dbe 09       		.byte	0x9
 11338 0dbf FC       		.byte	0xfc
 11339 0dc0 25       		.byte	0x25
 11340 0dc1 9F       		.byte	0x9f
 11341 0dc2 93       		.byte	0x93
 11342 0dc3 01       		.uleb128 0x1
 11343 0dc4 72       		.byte	0x72
 11344 0dc5 00       		.sleb128 0
 11345 0dc6 09       		.byte	0x9
 11346 0dc7 EC       		.byte	0xec
 11347 0dc8 24       		.byte	0x24
 11348 0dc9 09       		.byte	0x9
 11349 0dca FC       		.byte	0xfc
 11350 0dcb 25       		.byte	0x25
 11351 0dcc 9F       		.byte	0x9f
 11352 0dcd 93       		.byte	0x93
 11353 0dce 01       		.uleb128 0x1
 11354 0dcf 93       		.byte	0x93
 11355 0dd0 01       		.uleb128 0x1
 11356 0dd1 80040000 		.4byte	.LVL175
 11357 0dd5 96040000 		.4byte	.LVL177
 11358 0dd9 0500     		.2byte	0x5
 11359 0ddb 57       		.byte	0x57
ARM GAS  C:\Users\pearlstl\AppData\Local\Temp\ccQFxYtd.s 			page 237


 11360 0ddc 93       		.byte	0x93
 11361 0ddd 01       		.uleb128 0x1
 11362 0dde 93       		.byte	0x93
 11363 0ddf 03       		.uleb128 0x3
 11364 0de0 B0040000 		.4byte	.LVL181
 11365 0de4 E6040000 		.4byte	.LVL185
 11366 0de8 0500     		.2byte	0x5
 11367 0dea 57       		.byte	0x57
 11368 0deb 93       		.byte	0x93
 11369 0dec 01       		.uleb128 0x1
 11370 0ded 93       		.byte	0x93
 11371 0dee 03       		.uleb128 0x3
 11372 0def 44050000 		.4byte	.LVL192
 11373 0df3 58050000 		.4byte	.LVL194
 11374 0df7 0500     		.2byte	0x5
 11375 0df9 57       		.byte	0x57
 11376 0dfa 93       		.byte	0x93
 11377 0dfb 01       		.uleb128 0x1
 11378 0dfc 93       		.byte	0x93
 11379 0dfd 03       		.uleb128 0x3
 11380 0dfe 00000000 		.4byte	0
 11381 0e02 00000000 		.4byte	0
 11382              	.LLST86:
 11383 0e06 1C040000 		.4byte	.LVL167
 11384 0e0a 5E040000 		.4byte	.LVL171
 11385 0e0e 0300     		.2byte	0x3
 11386 0e10 91       		.byte	0x91
 11387 0e11 8C7F     		.sleb128 -116
 11388 0e13 00000000 		.4byte	0
 11389 0e17 00000000 		.4byte	0
 11390              	.LLST87:
 11391 0e1b 8A040000 		.4byte	.LVL176
 11392 0e1f 9E040000 		.4byte	.LVL178
 11393 0e23 0100     		.2byte	0x1
 11394 0e25 50       		.byte	0x50
 11395 0e26 B0040000 		.4byte	.LVL181
 11396 0e2a BC040000 		.4byte	.LVL182
 11397 0e2e 0100     		.2byte	0x1
 11398 0e30 50       		.byte	0x50
 11399 0e31 44050000 		.4byte	.LVL192
 11400 0e35 4E050000 		.4byte	.LVL193
 11401 0e39 0100     		.2byte	0x1
 11402 0e3b 50       		.byte	0x50
 11403 0e3c 00000000 		.4byte	0
 11404 0e40 00000000 		.4byte	0
 11405              	.LLST88:
 11406 0e44 D0040000 		.4byte	.LVL183
 11407 0e48 EC040000 		.4byte	.LVL187
 11408 0e4c 0100     		.2byte	0x1
 11409 0e4e 53       		.byte	0x53
 11410 0e4f EC040000 		.4byte	.LVL187
 11411 0e53 44050000 		.4byte	.LVL192
 11412 0e57 0300     		.2byte	0x3
 11413 0e59 91       		.byte	0x91
 11414 0e5a 887F     		.sleb128 -120
 11415 0e5c 00000000 		.4byte	0
 11416 0e60 00000000 		.4byte	0
ARM GAS  C:\Users\pearlstl\AppData\Local\Temp\ccQFxYtd.s 			page 238


 11417              	.LLST89:
 11418 0e64 D6040000 		.4byte	.LVL184
 11419 0e68 F0040000 		.4byte	.LVL188
 11420 0e6c 0100     		.2byte	0x1
 11421 0e6e 51       		.byte	0x51
 11422 0e6f F0040000 		.4byte	.LVL188
 11423 0e73 44050000 		.4byte	.LVL192
 11424 0e77 1600     		.2byte	0x16
 11425 0e79 91       		.byte	0x91
 11426 0e7a 907F     		.sleb128 -112
 11427 0e7c 94       		.byte	0x94
 11428 0e7d 02       		.byte	0x2
 11429 0e7e 0A       		.byte	0xa
 11430 0e7f FFFF     		.2byte	0xffff
 11431 0e81 1A       		.byte	0x1a
 11432 0e82 08       		.byte	0x8
 11433 0e83 FF       		.byte	0xff
 11434 0e84 1E       		.byte	0x1e
 11435 0e85 0A       		.byte	0xa
 11436 0e86 FFFF     		.2byte	0xffff
 11437 0e88 1A       		.byte	0x1a
 11438 0e89 91       		.byte	0x91
 11439 0e8a 887F     		.sleb128 -120
 11440 0e8c 06       		.byte	0x6
 11441 0e8d 1B       		.byte	0x1b
 11442 0e8e 9F       		.byte	0x9f
 11443 0e8f 00000000 		.4byte	0
 11444 0e93 00000000 		.4byte	0
 11445              	.LLST90:
 11446 0e97 D6040000 		.4byte	.LVL184
 11447 0e9b F0040000 		.4byte	.LVL188
 11448 0e9f 0100     		.2byte	0x1
 11449 0ea1 51       		.byte	0x51
 11450 0ea2 F0040000 		.4byte	.LVL188
 11451 0ea6 2A050000 		.4byte	.LVL189
 11452 0eaa 1600     		.2byte	0x16
 11453 0eac 91       		.byte	0x91
 11454 0ead 907F     		.sleb128 -112
 11455 0eaf 94       		.byte	0x94
 11456 0eb0 02       		.byte	0x2
 11457 0eb1 0A       		.byte	0xa
 11458 0eb2 FFFF     		.2byte	0xffff
 11459 0eb4 1A       		.byte	0x1a
 11460 0eb5 08       		.byte	0x8
 11461 0eb6 FF       		.byte	0xff
 11462 0eb7 1E       		.byte	0x1e
 11463 0eb8 0A       		.byte	0xa
 11464 0eb9 FFFF     		.2byte	0xffff
 11465 0ebb 1A       		.byte	0x1a
 11466 0ebc 91       		.byte	0x91
 11467 0ebd 887F     		.sleb128 -120
 11468 0ebf 06       		.byte	0x6
 11469 0ec0 1B       		.byte	0x1b
 11470 0ec1 9F       		.byte	0x9f
 11471 0ec2 00000000 		.4byte	0
 11472 0ec6 00000000 		.4byte	0
 11473              	.LLST91:
ARM GAS  C:\Users\pearlstl\AppData\Local\Temp\ccQFxYtd.s 			page 239


 11474 0eca 44050000 		.4byte	.LVL192
 11475 0ece 9C050000 		.4byte	.LVL195
 11476 0ed2 0300     		.2byte	0x3
 11477 0ed4 91       		.byte	0x91
 11478 0ed5 8C7F     		.sleb128 -116
 11479 0ed7 00000000 		.4byte	0
 11480 0edb 00000000 		.4byte	0
 11481              	.LLST92:
 11482 0edf 28020000 		.4byte	.LVL125
 11483 0ee3 B0020000 		.4byte	.LVL139
 11484 0ee7 0300     		.2byte	0x3
 11485 0ee9 91       		.byte	0x91
 11486 0eea F87E     		.sleb128 -136
 11487 0eec 00000000 		.4byte	0
 11488 0ef0 00000000 		.4byte	0
 11489              	.LLST93:
 11490 0ef4 B0020000 		.4byte	.LVL139
 11491 0ef8 44030000 		.4byte	.LVL147
 11492 0efc 0300     		.2byte	0x3
 11493 0efe 08       		.byte	0x8
 11494 0eff 7F       		.byte	0x7f
 11495 0f00 9F       		.byte	0x9f
 11496 0f01 00000000 		.4byte	0
 11497 0f05 00000000 		.4byte	0
 11498              	.LLST94:
 11499 0f09 00000000 		.4byte	.LVL197
 11500 0f0d 09000000 		.4byte	.LVL198-1
 11501 0f11 0100     		.2byte	0x1
 11502 0f13 50       		.byte	0x50
 11503 0f14 09000000 		.4byte	.LVL198-1
 11504 0f18 54000000 		.4byte	.LFE45
 11505 0f1c 0400     		.2byte	0x4
 11506 0f1e F3       		.byte	0xf3
 11507 0f1f 01       		.uleb128 0x1
 11508 0f20 50       		.byte	0x50
 11509 0f21 9F       		.byte	0x9f
 11510 0f22 00000000 		.4byte	0
 11511 0f26 00000000 		.4byte	0
 11512              	.LLST95:
 11513 0f2a 00000000 		.4byte	.LVL197
 11514 0f2e 09000000 		.4byte	.LVL198-1
 11515 0f32 0100     		.2byte	0x1
 11516 0f34 51       		.byte	0x51
 11517 0f35 22000000 		.4byte	.LVL199
 11518 0f39 54000000 		.4byte	.LFE45
 11519 0f3d 0100     		.2byte	0x1
 11520 0f3f 57       		.byte	0x57
 11521 0f40 00000000 		.4byte	0
 11522 0f44 00000000 		.4byte	0
 11523              	.LLST96:
 11524 0f48 0A000000 		.4byte	.LVL198
 11525 0f4c 22000000 		.4byte	.LVL199
 11526 0f50 1E00     		.2byte	0x1e
 11527 0f52 70       		.byte	0x70
 11528 0f53 11       		.sleb128 17
 11529 0f54 94       		.byte	0x94
 11530 0f55 02       		.byte	0x2
ARM GAS  C:\Users\pearlstl\AppData\Local\Temp\ccQFxYtd.s 			page 240


 11531 0f56 09       		.byte	0x9
 11532 0f57 F7       		.byte	0xf7
 11533 0f58 24       		.byte	0x24
 11534 0f59 09       		.byte	0x9
 11535 0f5a F9       		.byte	0xf9
 11536 0f5b 26       		.byte	0x26
 11537 0f5c 0A       		.byte	0xa
 11538 0f5d FFFF     		.2byte	0xffff
 11539 0f5f 1A       		.byte	0x1a
 11540 0f60 70       		.byte	0x70
 11541 0f61 12       		.sleb128 18
 11542 0f62 94       		.byte	0x94
 11543 0f63 02       		.byte	0x2
 11544 0f64 09       		.byte	0x9
 11545 0f65 F4       		.byte	0xf4
 11546 0f66 24       		.byte	0x24
 11547 0f67 09       		.byte	0x9
 11548 0f68 F9       		.byte	0xf9
 11549 0f69 26       		.byte	0x26
 11550 0f6a 0A       		.byte	0xa
 11551 0f6b FFFF     		.2byte	0xffff
 11552 0f6d 1A       		.byte	0x1a
 11553 0f6e 1E       		.byte	0x1e
 11554 0f6f 9F       		.byte	0x9f
 11555 0f70 22000000 		.4byte	.LVL199
 11556 0f74 2A000000 		.4byte	.LVL200
 11557 0f78 0200     		.2byte	0x2
 11558 0f7a 30       		.byte	0x30
 11559 0f7b 9F       		.byte	0x9f
 11560 0f7c 2A000000 		.4byte	.LVL200
 11561 0f80 48000000 		.4byte	.LVL203
 11562 0f84 0100     		.2byte	0x1
 11563 0f86 54       		.byte	0x54
 11564 0f87 00000000 		.4byte	0
 11565 0f8b 00000000 		.4byte	0
 11566              	.LLST97:
 11567 0f8f 0A000000 		.4byte	.LVL198
 11568 0f93 22000000 		.4byte	.LVL199
 11569 0f97 0200     		.2byte	0x2
 11570 0f99 30       		.byte	0x30
 11571 0f9a 9F       		.byte	0x9f
 11572 0f9b 22000000 		.4byte	.LVL199
 11573 0f9f 50000000 		.4byte	.LVL205
 11574 0fa3 0100     		.2byte	0x1
 11575 0fa5 58       		.byte	0x58
 11576 0fa6 00000000 		.4byte	0
 11577 0faa 00000000 		.4byte	0
 11578              	.LLST98:
 11579 0fae 00000000 		.4byte	.LVL197
 11580 0fb2 09000000 		.4byte	.LVL198-1
 11581 0fb6 0100     		.2byte	0x1
 11582 0fb8 50       		.byte	0x50
 11583 0fb9 09000000 		.4byte	.LVL198-1
 11584 0fbd 0A000000 		.4byte	.LVL198
 11585 0fc1 0400     		.2byte	0x4
 11586 0fc3 F3       		.byte	0xf3
 11587 0fc4 01       		.uleb128 0x1
ARM GAS  C:\Users\pearlstl\AppData\Local\Temp\ccQFxYtd.s 			page 241


 11588 0fc5 50       		.byte	0x50
 11589 0fc6 9F       		.byte	0x9f
 11590 0fc7 00000000 		.4byte	0
 11591 0fcb 00000000 		.4byte	0
 11592              	.LLST99:
 11593 0fcf 00000000 		.4byte	.LVL206
 11594 0fd3 13000000 		.4byte	.LVL207-1
 11595 0fd7 0100     		.2byte	0x1
 11596 0fd9 50       		.byte	0x50
 11597 0fda 13000000 		.4byte	.LVL207-1
 11598 0fde C4000000 		.4byte	.LFE46
 11599 0fe2 0400     		.2byte	0x4
 11600 0fe4 F3       		.byte	0xf3
 11601 0fe5 01       		.uleb128 0x1
 11602 0fe6 50       		.byte	0x50
 11603 0fe7 9F       		.byte	0x9f
 11604 0fe8 00000000 		.4byte	0
 11605 0fec 00000000 		.4byte	0
 11606              	.LLST100:
 11607 0ff0 00000000 		.4byte	.LVL206
 11608 0ff4 13000000 		.4byte	.LVL207-1
 11609 0ff8 0100     		.2byte	0x1
 11610 0ffa 51       		.byte	0x51
 11611 0ffb 13000000 		.4byte	.LVL207-1
 11612 0fff C4000000 		.4byte	.LFE46
 11613 1003 0400     		.2byte	0x4
 11614 1005 F3       		.byte	0xf3
 11615 1006 01       		.uleb128 0x1
 11616 1007 51       		.byte	0x51
 11617 1008 9F       		.byte	0x9f
 11618 1009 00000000 		.4byte	0
 11619 100d 00000000 		.4byte	0
 11620              	.LLST101:
 11621 1011 00000000 		.4byte	.LVL206
 11622 1015 13000000 		.4byte	.LVL207-1
 11623 1019 0100     		.2byte	0x1
 11624 101b 52       		.byte	0x52
 11625 101c 13000000 		.4byte	.LVL207-1
 11626 1020 C4000000 		.4byte	.LFE46
 11627 1024 0400     		.2byte	0x4
 11628 1026 F3       		.byte	0xf3
 11629 1027 01       		.uleb128 0x1
 11630 1028 52       		.byte	0x52
 11631 1029 9F       		.byte	0x9f
 11632 102a 00000000 		.4byte	0
 11633 102e 00000000 		.4byte	0
 11634              	.LLST102:
 11635 1032 00000000 		.4byte	.LVL206
 11636 1036 13000000 		.4byte	.LVL207-1
 11637 103a 0100     		.2byte	0x1
 11638 103c 53       		.byte	0x53
 11639 103d 13000000 		.4byte	.LVL207-1
 11640 1041 C4000000 		.4byte	.LFE46
 11641 1045 0400     		.2byte	0x4
 11642 1047 F3       		.byte	0xf3
 11643 1048 01       		.uleb128 0x1
 11644 1049 53       		.byte	0x53
ARM GAS  C:\Users\pearlstl\AppData\Local\Temp\ccQFxYtd.s 			page 242


 11645 104a 9F       		.byte	0x9f
 11646 104b 00000000 		.4byte	0
 11647 104f 00000000 		.4byte	0
 11648              	.LLST103:
 11649 1053 A6000000 		.4byte	.LVL215
 11650 1057 A8000000 		.4byte	.LVL216
 11651 105b 0100     		.2byte	0x1
 11652 105d 50       		.byte	0x50
 11653 105e A8000000 		.4byte	.LVL216
 11654 1062 C4000000 		.4byte	.LFE46
 11655 1066 0100     		.2byte	0x1
 11656 1068 55       		.byte	0x55
 11657 1069 00000000 		.4byte	0
 11658 106d 00000000 		.4byte	0
 11659              	.LLST104:
 11660 1071 00000000 		.4byte	.LVL206
 11661 1075 13000000 		.4byte	.LVL207-1
 11662 1079 0100     		.2byte	0x1
 11663 107b 50       		.byte	0x50
 11664 107c 13000000 		.4byte	.LVL207-1
 11665 1080 22000000 		.4byte	.LVL208
 11666 1084 0400     		.2byte	0x4
 11667 1086 F3       		.byte	0xf3
 11668 1087 01       		.uleb128 0x1
 11669 1088 50       		.byte	0x50
 11670 1089 9F       		.byte	0x9f
 11671 108a 00000000 		.4byte	0
 11672 108e 00000000 		.4byte	0
 11673              	.LLST105:
 11674 1092 7A000000 		.4byte	.LVL210
 11675 1096 84000000 		.4byte	.LVL212
 11676 109a 0100     		.2byte	0x1
 11677 109c 5D       		.byte	0x5d
 11678 109d 00000000 		.4byte	0
 11679 10a1 00000000 		.4byte	0
 11680              	.LLST106:
 11681 10a5 7A000000 		.4byte	.LVL210
 11682 10a9 80000000 		.4byte	.LVL211
 11683 10ad 0400     		.2byte	0x4
 11684 10af 91       		.byte	0x91
 11685 10b0 F07C     		.sleb128 -400
 11686 10b2 9F       		.byte	0x9f
 11687 10b3 80000000 		.4byte	.LVL211
 11688 10b7 84000000 		.4byte	.LVL212
 11689 10bb 0100     		.2byte	0x1
 11690 10bd 53       		.byte	0x53
 11691 10be 00000000 		.4byte	0
 11692 10c2 00000000 		.4byte	0
 11693              	.LLST107:
 11694 10c6 00000000 		.4byte	.LVL220
 11695 10ca 15000000 		.4byte	.LVL222-1
 11696 10ce 0100     		.2byte	0x1
 11697 10d0 50       		.byte	0x50
 11698 10d1 15000000 		.4byte	.LVL222-1
 11699 10d5 F0000000 		.4byte	.LFE47
 11700 10d9 0100     		.2byte	0x1
 11701 10db 59       		.byte	0x59
ARM GAS  C:\Users\pearlstl\AppData\Local\Temp\ccQFxYtd.s 			page 243


 11702 10dc 00000000 		.4byte	0
 11703 10e0 00000000 		.4byte	0
 11704              	.LLST108:
 11705 10e4 00000000 		.4byte	.LVL220
 11706 10e8 15000000 		.4byte	.LVL222-1
 11707 10ec 0100     		.2byte	0x1
 11708 10ee 51       		.byte	0x51
 11709 10ef 15000000 		.4byte	.LVL222-1
 11710 10f3 F0000000 		.4byte	.LFE47
 11711 10f7 0400     		.2byte	0x4
 11712 10f9 F3       		.byte	0xf3
 11713 10fa 01       		.uleb128 0x1
 11714 10fb 51       		.byte	0x51
 11715 10fc 9F       		.byte	0x9f
 11716 10fd 00000000 		.4byte	0
 11717 1101 00000000 		.4byte	0
 11718              	.LLST109:
 11719 1105 00000000 		.4byte	.LVL220
 11720 1109 15000000 		.4byte	.LVL222-1
 11721 110d 0100     		.2byte	0x1
 11722 110f 52       		.byte	0x52
 11723 1110 15000000 		.4byte	.LVL222-1
 11724 1114 F0000000 		.4byte	.LFE47
 11725 1118 0400     		.2byte	0x4
 11726 111a F3       		.byte	0xf3
 11727 111b 01       		.uleb128 0x1
 11728 111c 52       		.byte	0x52
 11729 111d 9F       		.byte	0x9f
 11730 111e 00000000 		.4byte	0
 11731 1122 00000000 		.4byte	0
 11732              	.LLST110:
 11733 1126 00000000 		.4byte	.LVL220
 11734 112a 15000000 		.4byte	.LVL222-1
 11735 112e 0100     		.2byte	0x1
 11736 1130 53       		.byte	0x53
 11737 1131 15000000 		.4byte	.LVL222-1
 11738 1135 F0000000 		.4byte	.LFE47
 11739 1139 0400     		.2byte	0x4
 11740 113b F3       		.byte	0xf3
 11741 113c 01       		.uleb128 0x1
 11742 113d 53       		.byte	0x53
 11743 113e 9F       		.byte	0x9f
 11744 113f 00000000 		.4byte	0
 11745 1143 00000000 		.4byte	0
 11746              	.LLST111:
 11747 1147 00000000 		.4byte	.LVL220
 11748 114b EC000000 		.4byte	.LVL237
 11749 114f 0200     		.2byte	0x2
 11750 1151 91       		.byte	0x91
 11751 1152 00       		.sleb128 0
 11752 1153 EC000000 		.4byte	.LVL237
 11753 1157 F0000000 		.4byte	.LFE47
 11754 115b 0200     		.2byte	0x2
 11755 115d 91       		.byte	0x91
 11756 115e 00       		.sleb128 0
 11757 115f 00000000 		.4byte	0
 11758 1163 00000000 		.4byte	0
ARM GAS  C:\Users\pearlstl\AppData\Local\Temp\ccQFxYtd.s 			page 244


 11759              	.LLST112:
 11760 1167 00000000 		.4byte	.LVL220
 11761 116b EC000000 		.4byte	.LVL237
 11762 116f 0200     		.2byte	0x2
 11763 1171 91       		.byte	0x91
 11764 1172 04       		.sleb128 4
 11765 1173 EC000000 		.4byte	.LVL237
 11766 1177 F0000000 		.4byte	.LFE47
 11767 117b 0200     		.2byte	0x2
 11768 117d 91       		.byte	0x91
 11769 117e 04       		.sleb128 4
 11770 117f 00000000 		.4byte	0
 11771 1183 00000000 		.4byte	0
 11772              	.LLST113:
 11773 1187 00000000 		.4byte	.LVL220
 11774 118b EC000000 		.4byte	.LVL237
 11775 118f 0200     		.2byte	0x2
 11776 1191 91       		.byte	0x91
 11777 1192 08       		.sleb128 8
 11778 1193 EC000000 		.4byte	.LVL237
 11779 1197 F0000000 		.4byte	.LFE47
 11780 119b 0200     		.2byte	0x2
 11781 119d 91       		.byte	0x91
 11782 119e 08       		.sleb128 8
 11783 119f 00000000 		.4byte	0
 11784 11a3 00000000 		.4byte	0
 11785              	.LLST114:
 11786 11a7 A8000000 		.4byte	.LVL230
 11787 11ab AA000000 		.4byte	.LVL231
 11788 11af 0100     		.2byte	0x1
 11789 11b1 50       		.byte	0x50
 11790 11b2 AA000000 		.4byte	.LVL231
 11791 11b6 F0000000 		.4byte	.LFE47
 11792 11ba 0100     		.2byte	0x1
 11793 11bc 54       		.byte	0x54
 11794 11bd 00000000 		.4byte	0
 11795 11c1 00000000 		.4byte	0
 11796              	.LLST115:
 11797 11c5 BE000000 		.4byte	.LVL233
 11798 11c9 EC000000 		.4byte	.LVL237
 11799 11cd 0100     		.2byte	0x1
 11800 11cf 55       		.byte	0x55
 11801 11d0 EC000000 		.4byte	.LVL237
 11802 11d4 F0000000 		.4byte	.LFE47
 11803 11d8 0200     		.2byte	0x2
 11804 11da 34       		.byte	0x34
 11805 11db 9F       		.byte	0x9f
 11806 11dc 00000000 		.4byte	0
 11807 11e0 00000000 		.4byte	0
 11808              	.LLST116:
 11809 11e4 12000000 		.4byte	.LVL221
 11810 11e8 15000000 		.4byte	.LVL222-1
 11811 11ec 0100     		.2byte	0x1
 11812 11ee 50       		.byte	0x50
 11813 11ef 15000000 		.4byte	.LVL222-1
 11814 11f3 26000000 		.4byte	.LVL223
 11815 11f7 0100     		.2byte	0x1
ARM GAS  C:\Users\pearlstl\AppData\Local\Temp\ccQFxYtd.s 			page 245


 11816 11f9 59       		.byte	0x59
 11817 11fa 00000000 		.4byte	0
 11818 11fe 00000000 		.4byte	0
 11819              	.LLST117:
 11820 1202 7C000000 		.4byte	.LVL225
 11821 1206 86000000 		.4byte	.LVL227
 11822 120a 0100     		.2byte	0x1
 11823 120c 56       		.byte	0x56
 11824 120d 00000000 		.4byte	0
 11825 1211 00000000 		.4byte	0
 11826              	.LLST118:
 11827 1215 7C000000 		.4byte	.LVL225
 11828 1219 82000000 		.4byte	.LVL226
 11829 121d 0400     		.2byte	0x4
 11830 121f 91       		.byte	0x91
 11831 1220 E87C     		.sleb128 -408
 11832 1222 9F       		.byte	0x9f
 11833 1223 82000000 		.4byte	.LVL226
 11834 1227 86000000 		.4byte	.LVL227
 11835 122b 0100     		.2byte	0x1
 11836 122d 53       		.byte	0x53
 11837 122e 00000000 		.4byte	0
 11838 1232 00000000 		.4byte	0
 11839              	.LLST119:
 11840 1236 00000000 		.4byte	.LVL238
 11841 123a 0F000000 		.4byte	.LVL239-1
 11842 123e 0100     		.2byte	0x1
 11843 1240 50       		.byte	0x50
 11844 1241 0F000000 		.4byte	.LVL239-1
 11845 1245 E2000000 		.4byte	.LFE48
 11846 1249 0400     		.2byte	0x4
 11847 124b F3       		.byte	0xf3
 11848 124c 01       		.uleb128 0x1
 11849 124d 50       		.byte	0x50
 11850 124e 9F       		.byte	0x9f
 11851 124f 00000000 		.4byte	0
 11852 1253 00000000 		.4byte	0
 11853              	.LLST120:
 11854 1257 00000000 		.4byte	.LVL238
 11855 125b 0F000000 		.4byte	.LVL239-1
 11856 125f 0100     		.2byte	0x1
 11857 1261 51       		.byte	0x51
 11858 1262 0F000000 		.4byte	.LVL239-1
 11859 1266 E2000000 		.4byte	.LFE48
 11860 126a 0400     		.2byte	0x4
 11861 126c F3       		.byte	0xf3
 11862 126d 01       		.uleb128 0x1
 11863 126e 51       		.byte	0x51
 11864 126f 9F       		.byte	0x9f
 11865 1270 00000000 		.4byte	0
 11866 1274 00000000 		.4byte	0
 11867              	.LLST121:
 11868 1278 00000000 		.4byte	.LVL238
 11869 127c 0F000000 		.4byte	.LVL239-1
 11870 1280 0100     		.2byte	0x1
 11871 1282 52       		.byte	0x52
 11872 1283 0F000000 		.4byte	.LVL239-1
ARM GAS  C:\Users\pearlstl\AppData\Local\Temp\ccQFxYtd.s 			page 246


 11873 1287 E2000000 		.4byte	.LFE48
 11874 128b 0400     		.2byte	0x4
 11875 128d F3       		.byte	0xf3
 11876 128e 01       		.uleb128 0x1
 11877 128f 52       		.byte	0x52
 11878 1290 9F       		.byte	0x9f
 11879 1291 00000000 		.4byte	0
 11880 1295 00000000 		.4byte	0
 11881              	.LLST122:
 11882 1299 00000000 		.4byte	.LVL238
 11883 129d 0F000000 		.4byte	.LVL239-1
 11884 12a1 0100     		.2byte	0x1
 11885 12a3 53       		.byte	0x53
 11886 12a4 0F000000 		.4byte	.LVL239-1
 11887 12a8 E2000000 		.4byte	.LFE48
 11888 12ac 0100     		.2byte	0x1
 11889 12ae 56       		.byte	0x56
 11890 12af 00000000 		.4byte	0
 11891 12b3 00000000 		.4byte	0
 11892              	.LLST123:
 11893 12b7 00000000 		.4byte	.LVL238
 11894 12bb 48000000 		.4byte	.LVL243
 11895 12bf 0200     		.2byte	0x2
 11896 12c1 91       		.byte	0x91
 11897 12c2 00       		.sleb128 0
 11898 12c3 48000000 		.4byte	.LVL243
 11899 12c7 E2000000 		.4byte	.LFE48
 11900 12cb 0200     		.2byte	0x2
 11901 12cd 91       		.byte	0x91
 11902 12ce 00       		.sleb128 0
 11903 12cf 00000000 		.4byte	0
 11904 12d3 00000000 		.4byte	0
 11905              	.LLST124:
 11906 12d7 3E000000 		.4byte	.LVL241
 11907 12db 42000000 		.4byte	.LVL242
 11908 12df 0100     		.2byte	0x1
 11909 12e1 50       		.byte	0x50
 11910 12e2 48000000 		.4byte	.LVL243
 11911 12e6 6A000000 		.4byte	.LVL244
 11912 12ea 0100     		.2byte	0x1
 11913 12ec 50       		.byte	0x50
 11914 12ed 00000000 		.4byte	0
 11915 12f1 00000000 		.4byte	0
 11916              	.LLST125:
 11917 12f5 C4000000 		.4byte	.LVL251
 11918 12f9 C6000000 		.4byte	.LVL252
 11919 12fd 0100     		.2byte	0x1
 11920 12ff 50       		.byte	0x50
 11921 1300 C6000000 		.4byte	.LVL252
 11922 1304 E2000000 		.4byte	.LFE48
 11923 1308 0100     		.2byte	0x1
 11924 130a 55       		.byte	0x55
 11925 130b 00000000 		.4byte	0
 11926 130f 00000000 		.4byte	0
 11927              	.LLST126:
 11928 1313 00000000 		.4byte	.LVL238
 11929 1317 0F000000 		.4byte	.LVL239-1
ARM GAS  C:\Users\pearlstl\AppData\Local\Temp\ccQFxYtd.s 			page 247


 11930 131b 0100     		.2byte	0x1
 11931 131d 50       		.byte	0x50
 11932 131e 0F000000 		.4byte	.LVL239-1
 11933 1322 26000000 		.4byte	.LVL240
 11934 1326 0400     		.2byte	0x4
 11935 1328 F3       		.byte	0xf3
 11936 1329 01       		.uleb128 0x1
 11937 132a 50       		.byte	0x50
 11938 132b 9F       		.byte	0x9f
 11939 132c 00000000 		.4byte	0
 11940 1330 00000000 		.4byte	0
 11941              	.LLST127:
 11942 1334 98000000 		.4byte	.LVL246
 11943 1338 A2000000 		.4byte	.LVL248
 11944 133c 0100     		.2byte	0x1
 11945 133e 54       		.byte	0x54
 11946 133f 00000000 		.4byte	0
 11947 1343 00000000 		.4byte	0
 11948              	.LLST128:
 11949 1347 98000000 		.4byte	.LVL246
 11950 134b 9E000000 		.4byte	.LVL247
 11951 134f 0400     		.2byte	0x4
 11952 1351 91       		.byte	0x91
 11953 1352 F07C     		.sleb128 -400
 11954 1354 9F       		.byte	0x9f
 11955 1355 9E000000 		.4byte	.LVL247
 11956 1359 A2000000 		.4byte	.LVL248
 11957 135d 0100     		.2byte	0x1
 11958 135f 53       		.byte	0x53
 11959 1360 00000000 		.4byte	0
 11960 1364 00000000 		.4byte	0
 11961              	.LLST129:
 11962 1368 00000000 		.4byte	.LVL256
 11963 136c 0F000000 		.4byte	.LVL257-1
 11964 1370 0100     		.2byte	0x1
 11965 1372 50       		.byte	0x50
 11966 1373 0F000000 		.4byte	.LVL257-1
 11967 1377 82010000 		.4byte	.LFE49
 11968 137b 0400     		.2byte	0x4
 11969 137d F3       		.byte	0xf3
 11970 137e 01       		.uleb128 0x1
 11971 137f 50       		.byte	0x50
 11972 1380 9F       		.byte	0x9f
 11973 1381 00000000 		.4byte	0
 11974 1385 00000000 		.4byte	0
 11975              	.LLST130:
 11976 1389 00000000 		.4byte	.LVL256
 11977 138d 0F000000 		.4byte	.LVL257-1
 11978 1391 0100     		.2byte	0x1
 11979 1393 51       		.byte	0x51
 11980 1394 0F000000 		.4byte	.LVL257-1
 11981 1398 82010000 		.4byte	.LFE49
 11982 139c 0100     		.2byte	0x1
 11983 139e 5A       		.byte	0x5a
 11984 139f 00000000 		.4byte	0
 11985 13a3 00000000 		.4byte	0
 11986              	.LLST131:
ARM GAS  C:\Users\pearlstl\AppData\Local\Temp\ccQFxYtd.s 			page 248


 11987 13a7 00000000 		.4byte	.LVL256
 11988 13ab 0F000000 		.4byte	.LVL257-1
 11989 13af 0100     		.2byte	0x1
 11990 13b1 52       		.byte	0x52
 11991 13b2 0F000000 		.4byte	.LVL257-1
 11992 13b6 9A000000 		.4byte	.LVL268
 11993 13ba 0100     		.2byte	0x1
 11994 13bc 58       		.byte	0x58
 11995 13bd 9A000000 		.4byte	.LVL268
 11996 13c1 62010000 		.4byte	.LVL281
 11997 13c5 0300     		.2byte	0x3
 11998 13c7 78       		.byte	0x78
 11999 13c8 01       		.sleb128 1
 12000 13c9 9F       		.byte	0x9f
 12001 13ca 62010000 		.4byte	.LVL281
 12002 13ce 82010000 		.4byte	.LFE49
 12003 13d2 0100     		.2byte	0x1
 12004 13d4 58       		.byte	0x58
 12005 13d5 00000000 		.4byte	0
 12006 13d9 00000000 		.4byte	0
 12007              	.LLST132:
 12008 13dd 00000000 		.4byte	.LVL256
 12009 13e1 0F000000 		.4byte	.LVL257-1
 12010 13e5 0100     		.2byte	0x1
 12011 13e7 53       		.byte	0x53
 12012 13e8 0F000000 		.4byte	.LVL257-1
 12013 13ec B6000000 		.4byte	.LVL271
 12014 13f0 0100     		.2byte	0x1
 12015 13f2 56       		.byte	0x56
 12016 13f3 B6000000 		.4byte	.LVL271
 12017 13f7 BD000000 		.4byte	.LVL272-1
 12018 13fb 0100     		.2byte	0x1
 12019 13fd 53       		.byte	0x53
 12020 13fe BD000000 		.4byte	.LVL272-1
 12021 1402 0E010000 		.4byte	.LVL275
 12022 1406 0100     		.2byte	0x1
 12023 1408 56       		.byte	0x56
 12024 1409 0E010000 		.4byte	.LVL275
 12025 140d 12010000 		.4byte	.LVL276
 12026 1411 0100     		.2byte	0x1
 12027 1413 53       		.byte	0x53
 12028 1414 12010000 		.4byte	.LVL276
 12029 1418 32010000 		.4byte	.LVL278
 12030 141c 0100     		.2byte	0x1
 12031 141e 56       		.byte	0x56
 12032 141f 32010000 		.4byte	.LVL278
 12033 1423 62010000 		.4byte	.LVL281
 12034 1427 0400     		.2byte	0x4
 12035 1429 F3       		.byte	0xf3
 12036 142a 01       		.uleb128 0x1
 12037 142b 53       		.byte	0x53
 12038 142c 9F       		.byte	0x9f
 12039 142d 62010000 		.4byte	.LVL281
 12040 1431 82010000 		.4byte	.LFE49
 12041 1435 0100     		.2byte	0x1
 12042 1437 56       		.byte	0x56
 12043 1438 00000000 		.4byte	0
ARM GAS  C:\Users\pearlstl\AppData\Local\Temp\ccQFxYtd.s 			page 249


 12044 143c 00000000 		.4byte	0
 12045              	.LLST133:
 12046 1440 88000000 		.4byte	.LVL265
 12047 1444 8A000000 		.4byte	.LVL266
 12048 1448 0100     		.2byte	0x1
 12049 144a 50       		.byte	0x50
 12050 144b 8A000000 		.4byte	.LVL266
 12051 144f 82010000 		.4byte	.LFE49
 12052 1453 0100     		.2byte	0x1
 12053 1455 5B       		.byte	0x5b
 12054 1456 00000000 		.4byte	0
 12055 145a 00000000 		.4byte	0
 12056              	.LLST134:
 12057 145e A6000000 		.4byte	.LVL269
 12058 1462 A8000000 		.4byte	.LVL270
 12059 1466 0300     		.2byte	0x3
 12060 1468 75       		.byte	0x75
 12061 1469 7F       		.sleb128 -1
 12062 146a 9F       		.byte	0x9f
 12063 146b A8000000 		.4byte	.LVL270
 12064 146f C8000000 		.4byte	.LVL273
 12065 1473 0100     		.2byte	0x1
 12066 1475 55       		.byte	0x55
 12067 1476 C8000000 		.4byte	.LVL273
 12068 147a 0E010000 		.4byte	.LVL275
 12069 147e 0300     		.2byte	0x3
 12070 1480 75       		.byte	0x75
 12071 1481 7F       		.sleb128 -1
 12072 1482 9F       		.byte	0x9f
 12073 1483 0E010000 		.4byte	.LVL275
 12074 1487 22010000 		.4byte	.LVL277
 12075 148b 0100     		.2byte	0x1
 12076 148d 55       		.byte	0x55
 12077 148e 00000000 		.4byte	0
 12078 1492 00000000 		.4byte	0
 12079              	.LLST135:
 12080 1496 00000000 		.4byte	.LVL256
 12081 149a 0F000000 		.4byte	.LVL257-1
 12082 149e 0100     		.2byte	0x1
 12083 14a0 50       		.byte	0x50
 12084 14a1 0F000000 		.4byte	.LVL257-1
 12085 14a5 16000000 		.4byte	.LVL258
 12086 14a9 0400     		.2byte	0x4
 12087 14ab F3       		.byte	0xf3
 12088 14ac 01       		.uleb128 0x1
 12089 14ad 50       		.byte	0x50
 12090 14ae 9F       		.byte	0x9f
 12091 14af 00000000 		.4byte	0
 12092 14b3 00000000 		.4byte	0
 12093              	.LLST136:
 12094 14b7 5C000000 		.4byte	.LVL260
 12095 14bb 66000000 		.4byte	.LVL262
 12096 14bf 0100     		.2byte	0x1
 12097 14c1 57       		.byte	0x57
 12098 14c2 00000000 		.4byte	0
 12099 14c6 00000000 		.4byte	0
 12100              	.LLST137:
ARM GAS  C:\Users\pearlstl\AppData\Local\Temp\ccQFxYtd.s 			page 250


 12101 14ca 5C000000 		.4byte	.LVL260
 12102 14ce 62000000 		.4byte	.LVL261
 12103 14d2 0400     		.2byte	0x4
 12104 14d4 91       		.byte	0x91
 12105 14d5 987C     		.sleb128 -488
 12106 14d7 9F       		.byte	0x9f
 12107 14d8 62000000 		.4byte	.LVL261
 12108 14dc 66000000 		.4byte	.LVL262
 12109 14e0 0100     		.2byte	0x1
 12110 14e2 53       		.byte	0x53
 12111 14e3 00000000 		.4byte	0
 12112 14e7 00000000 		.4byte	0
 12113              	.LLST138:
 12114 14eb 00000000 		.4byte	.LVL283
 12115 14ef 0F000000 		.4byte	.LVL284-1
 12116 14f3 0100     		.2byte	0x1
 12117 14f5 50       		.byte	0x50
 12118 14f6 0F000000 		.4byte	.LVL284-1
 12119 14fa B8000000 		.4byte	.LFE50
 12120 14fe 0400     		.2byte	0x4
 12121 1500 F3       		.byte	0xf3
 12122 1501 01       		.uleb128 0x1
 12123 1502 50       		.byte	0x50
 12124 1503 9F       		.byte	0x9f
 12125 1504 00000000 		.4byte	0
 12126 1508 00000000 		.4byte	0
 12127              	.LLST139:
 12128 150c 00000000 		.4byte	.LVL283
 12129 1510 0F000000 		.4byte	.LVL284-1
 12130 1514 0100     		.2byte	0x1
 12131 1516 51       		.byte	0x51
 12132 1517 0F000000 		.4byte	.LVL284-1
 12133 151b B8000000 		.4byte	.LFE50
 12134 151f 0100     		.2byte	0x1
 12135 1521 56       		.byte	0x56
 12136 1522 00000000 		.4byte	0
 12137 1526 00000000 		.4byte	0
 12138              	.LLST140:
 12139 152a 00000000 		.4byte	.LVL283
 12140 152e 0F000000 		.4byte	.LVL284-1
 12141 1532 0100     		.2byte	0x1
 12142 1534 52       		.byte	0x52
 12143 1535 0F000000 		.4byte	.LVL284-1
 12144 1539 B8000000 		.4byte	.LFE50
 12145 153d 0100     		.2byte	0x1
 12146 153f 57       		.byte	0x57
 12147 1540 00000000 		.4byte	0
 12148 1544 00000000 		.4byte	0
 12149              	.LLST141:
 12150 1548 00000000 		.4byte	.LVL283
 12151 154c 0F000000 		.4byte	.LVL284-1
 12152 1550 0100     		.2byte	0x1
 12153 1552 53       		.byte	0x53
 12154 1553 0F000000 		.4byte	.LVL284-1
 12155 1557 B8000000 		.4byte	.LFE50
 12156 155b 0100     		.2byte	0x1
 12157 155d 58       		.byte	0x58
ARM GAS  C:\Users\pearlstl\AppData\Local\Temp\ccQFxYtd.s 			page 251


 12158 155e 00000000 		.4byte	0
 12159 1562 00000000 		.4byte	0
 12160              	.LLST142:
 12161 1566 92000000 		.4byte	.LVL292
 12162 156a 94000000 		.4byte	.LVL293
 12163 156e 0100     		.2byte	0x1
 12164 1570 50       		.byte	0x50
 12165 1571 94000000 		.4byte	.LVL293
 12166 1575 B8000000 		.4byte	.LFE50
 12167 1579 0100     		.2byte	0x1
 12168 157b 55       		.byte	0x55
 12169 157c 00000000 		.4byte	0
 12170 1580 00000000 		.4byte	0
 12171              	.LLST143:
 12172 1584 00000000 		.4byte	.LVL283
 12173 1588 0F000000 		.4byte	.LVL284-1
 12174 158c 0100     		.2byte	0x1
 12175 158e 50       		.byte	0x50
 12176 158f 0F000000 		.4byte	.LVL284-1
 12177 1593 16000000 		.4byte	.LVL285
 12178 1597 0400     		.2byte	0x4
 12179 1599 F3       		.byte	0xf3
 12180 159a 01       		.uleb128 0x1
 12181 159b 50       		.byte	0x50
 12182 159c 9F       		.byte	0x9f
 12183 159d 00000000 		.4byte	0
 12184 15a1 00000000 		.4byte	0
 12185              	.LLST144:
 12186 15a5 64000000 		.4byte	.LVL287
 12187 15a9 6E000000 		.4byte	.LVL289
 12188 15ad 0100     		.2byte	0x1
 12189 15af 54       		.byte	0x54
 12190 15b0 00000000 		.4byte	0
 12191 15b4 00000000 		.4byte	0
 12192              	.LLST145:
 12193 15b8 64000000 		.4byte	.LVL287
 12194 15bc 6A000000 		.4byte	.LVL288
 12195 15c0 0400     		.2byte	0x4
 12196 15c2 91       		.byte	0x91
 12197 15c3 F07C     		.sleb128 -400
 12198 15c5 9F       		.byte	0x9f
 12199 15c6 6A000000 		.4byte	.LVL288
 12200 15ca 6E000000 		.4byte	.LVL289
 12201 15ce 0100     		.2byte	0x1
 12202 15d0 53       		.byte	0x53
 12203 15d1 00000000 		.4byte	0
 12204 15d5 00000000 		.4byte	0
 12205              	.LLST146:
 12206 15d9 00000000 		.4byte	.LVL297
 12207 15dd 0F000000 		.4byte	.LVL298-1
 12208 15e1 0100     		.2byte	0x1
 12209 15e3 50       		.byte	0x50
 12210 15e4 0F000000 		.4byte	.LVL298-1
 12211 15e8 C2000000 		.4byte	.LFE51
 12212 15ec 0400     		.2byte	0x4
 12213 15ee F3       		.byte	0xf3
 12214 15ef 01       		.uleb128 0x1
ARM GAS  C:\Users\pearlstl\AppData\Local\Temp\ccQFxYtd.s 			page 252


 12215 15f0 50       		.byte	0x50
 12216 15f1 9F       		.byte	0x9f
 12217 15f2 00000000 		.4byte	0
 12218 15f6 00000000 		.4byte	0
 12219              	.LLST147:
 12220 15fa 00000000 		.4byte	.LVL297
 12221 15fe 0F000000 		.4byte	.LVL298-1
 12222 1602 0100     		.2byte	0x1
 12223 1604 51       		.byte	0x51
 12224 1605 0F000000 		.4byte	.LVL298-1
 12225 1609 C2000000 		.4byte	.LFE51
 12226 160d 0400     		.2byte	0x4
 12227 160f F3       		.byte	0xf3
 12228 1610 01       		.uleb128 0x1
 12229 1611 51       		.byte	0x51
 12230 1612 9F       		.byte	0x9f
 12231 1613 00000000 		.4byte	0
 12232 1617 00000000 		.4byte	0
 12233              	.LLST148:
 12234 161b 00000000 		.4byte	.LVL297
 12235 161f 0F000000 		.4byte	.LVL298-1
 12236 1623 0100     		.2byte	0x1
 12237 1625 52       		.byte	0x52
 12238 1626 0F000000 		.4byte	.LVL298-1
 12239 162a C2000000 		.4byte	.LFE51
 12240 162e 0400     		.2byte	0x4
 12241 1630 F3       		.byte	0xf3
 12242 1631 01       		.uleb128 0x1
 12243 1632 52       		.byte	0x52
 12244 1633 9F       		.byte	0x9f
 12245 1634 00000000 		.4byte	0
 12246 1638 00000000 		.4byte	0
 12247              	.LLST149:
 12248 163c 00000000 		.4byte	.LVL297
 12249 1640 0F000000 		.4byte	.LVL298-1
 12250 1644 0100     		.2byte	0x1
 12251 1646 53       		.byte	0x53
 12252 1647 0F000000 		.4byte	.LVL298-1
 12253 164b C2000000 		.4byte	.LFE51
 12254 164f 0400     		.2byte	0x4
 12255 1651 F3       		.byte	0xf3
 12256 1652 01       		.uleb128 0x1
 12257 1653 53       		.byte	0x53
 12258 1654 9F       		.byte	0x9f
 12259 1655 00000000 		.4byte	0
 12260 1659 00000000 		.4byte	0
 12261              	.LLST150:
 12262 165d 8E000000 		.4byte	.LVL306
 12263 1661 90000000 		.4byte	.LVL307
 12264 1665 0100     		.2byte	0x1
 12265 1667 50       		.byte	0x50
 12266 1668 90000000 		.4byte	.LVL307
 12267 166c C2000000 		.4byte	.LFE51
 12268 1670 0100     		.2byte	0x1
 12269 1672 5A       		.byte	0x5a
 12270 1673 00000000 		.4byte	0
 12271 1677 00000000 		.4byte	0
ARM GAS  C:\Users\pearlstl\AppData\Local\Temp\ccQFxYtd.s 			page 253


 12272              	.LLST151:
 12273 167b 00000000 		.4byte	.LVL297
 12274 167f 0F000000 		.4byte	.LVL298-1
 12275 1683 0100     		.2byte	0x1
 12276 1685 50       		.byte	0x50
 12277 1686 0F000000 		.4byte	.LVL298-1
 12278 168a 16000000 		.4byte	.LVL299
 12279 168e 0400     		.2byte	0x4
 12280 1690 F3       		.byte	0xf3
 12281 1691 01       		.uleb128 0x1
 12282 1692 50       		.byte	0x50
 12283 1693 9F       		.byte	0x9f
 12284 1694 00000000 		.4byte	0
 12285 1698 00000000 		.4byte	0
 12286              	.LLST152:
 12287 169c 62000000 		.4byte	.LVL301
 12288 16a0 6C000000 		.4byte	.LVL303
 12289 16a4 0100     		.2byte	0x1
 12290 16a6 54       		.byte	0x54
 12291 16a7 00000000 		.4byte	0
 12292 16ab 00000000 		.4byte	0
 12293              	.LLST153:
 12294 16af 62000000 		.4byte	.LVL301
 12295 16b3 68000000 		.4byte	.LVL302
 12296 16b7 0400     		.2byte	0x4
 12297 16b9 91       		.byte	0x91
 12298 16ba F07C     		.sleb128 -400
 12299 16bc 9F       		.byte	0x9f
 12300 16bd 68000000 		.4byte	.LVL302
 12301 16c1 6C000000 		.4byte	.LVL303
 12302 16c5 0100     		.2byte	0x1
 12303 16c7 53       		.byte	0x53
 12304 16c8 00000000 		.4byte	0
 12305 16cc 00000000 		.4byte	0
 12306              		.section	.debug_aranges,"",%progbits
 12307 0000 A4000000 		.4byte	0xa4
 12308 0004 0200     		.2byte	0x2
 12309 0006 00000000 		.4byte	.Ldebug_info0
 12310 000a 04       		.byte	0x4
 12311 000b 00       		.byte	0
 12312 000c 0000     		.2byte	0
 12313 000e 0000     		.2byte	0
 12314 0010 00000000 		.4byte	.LFB52
 12315 0014 2C000000 		.4byte	.LFE52-.LFB52
 12316 0018 00000000 		.4byte	.LFB35
 12317 001c 7C000000 		.4byte	.LFE35-.LFB35
 12318 0020 00000000 		.4byte	.LFB36
 12319 0024 58000000 		.4byte	.LFE36-.LFB36
 12320 0028 00000000 		.4byte	.LFB37
 12321 002c 24000000 		.4byte	.LFE37-.LFB37
 12322 0030 00000000 		.4byte	.LFB38
 12323 0034 20000000 		.4byte	.LFE38-.LFB38
 12324 0038 00000000 		.4byte	.LFB39
 12325 003c 0A000000 		.4byte	.LFE39-.LFB39
 12326 0040 00000000 		.4byte	.LFB40
 12327 0044 24000000 		.4byte	.LFE40-.LFB40
 12328 0048 00000000 		.4byte	.LFB41
ARM GAS  C:\Users\pearlstl\AppData\Local\Temp\ccQFxYtd.s 			page 254


 12329 004c 0A000000 		.4byte	.LFE41-.LFB41
 12330 0050 00000000 		.4byte	.LFB42
 12331 0054 0A000000 		.4byte	.LFE42-.LFB42
 12332 0058 00000000 		.4byte	.LFB43
 12333 005c 82000000 		.4byte	.LFE43-.LFB43
 12334 0060 00000000 		.4byte	.LFB44
 12335 0064 A2050000 		.4byte	.LFE44-.LFB44
 12336 0068 00000000 		.4byte	.LFB45
 12337 006c 54000000 		.4byte	.LFE45-.LFB45
 12338 0070 00000000 		.4byte	.LFB46
 12339 0074 C4000000 		.4byte	.LFE46-.LFB46
 12340 0078 00000000 		.4byte	.LFB47
 12341 007c F0000000 		.4byte	.LFE47-.LFB47
 12342 0080 00000000 		.4byte	.LFB48
 12343 0084 E2000000 		.4byte	.LFE48-.LFB48
 12344 0088 00000000 		.4byte	.LFB49
 12345 008c 82010000 		.4byte	.LFE49-.LFB49
 12346 0090 00000000 		.4byte	.LFB50
 12347 0094 B8000000 		.4byte	.LFE50-.LFB50
 12348 0098 00000000 		.4byte	.LFB51
 12349 009c C2000000 		.4byte	.LFE51-.LFB51
 12350 00a0 00000000 		.4byte	0
 12351 00a4 00000000 		.4byte	0
 12352              		.section	.debug_ranges,"",%progbits
 12353              	.Ldebug_ranges0:
 12354 0000 16000000 		.4byte	.LBB59
 12355 0004 1A000000 		.4byte	.LBE59
 12356 0008 1E000000 		.4byte	.LBB62
 12357 000c 2C000000 		.4byte	.LBE62
 12358 0010 00000000 		.4byte	0
 12359 0014 00000000 		.4byte	0
 12360 0018 CA000000 		.4byte	.LBB75
 12361 001c D0000000 		.4byte	.LBE75
 12362 0020 D6000000 		.4byte	.LBB137
 12363 0024 20010000 		.4byte	.LBE137
 12364 0028 64010000 		.4byte	.LBB138
 12365 002c A2050000 		.4byte	.LBE138
 12366 0030 00000000 		.4byte	0
 12367 0034 00000000 		.4byte	0
 12368 0038 CA000000 		.4byte	.LBB76
 12369 003c D0000000 		.4byte	.LBE76
 12370 0040 D6000000 		.4byte	.LBB87
 12371 0044 E0000000 		.4byte	.LBE87
 12372 0048 84030000 		.4byte	.LBB136
 12373 004c A2050000 		.4byte	.LBE136
 12374 0050 00000000 		.4byte	0
 12375 0054 00000000 		.4byte	0
 12376 0058 D6040000 		.4byte	.LBB81
 12377 005c E6040000 		.4byte	.LBE81
 12378 0060 EE040000 		.4byte	.LBB84
 12379 0064 26050000 		.4byte	.LBE84
 12380 0068 00000000 		.4byte	0
 12381 006c 00000000 		.4byte	0
 12382 0070 E0000000 		.4byte	.LBB88
 12383 0074 E8000000 		.4byte	.LBE88
 12384 0078 EA010000 		.4byte	.LBB89
 12385 007c F8010000 		.4byte	.LBE89
ARM GAS  C:\Users\pearlstl\AppData\Local\Temp\ccQFxYtd.s 			page 255


 12386 0080 00000000 		.4byte	0
 12387 0084 00000000 		.4byte	0
 12388 0088 14020000 		.4byte	.LBB90
 12389 008c 16020000 		.4byte	.LBE90
 12390 0090 18020000 		.4byte	.LBB99
 12391 0094 1C020000 		.4byte	.LBE99
 12392 0098 22020000 		.4byte	.LBB100
 12393 009c 24020000 		.4byte	.LBE100
 12394 00a0 38020000 		.4byte	.LBB120
 12395 00a4 3E020000 		.4byte	.LBE120
 12396 00a8 4A020000 		.4byte	.LBB125
 12397 00ac 4E020000 		.4byte	.LBE125
 12398 00b0 86020000 		.4byte	.LBB129
 12399 00b4 8C020000 		.4byte	.LBE129
 12400 00b8 9A020000 		.4byte	.LBB131
 12401 00bc 9C020000 		.4byte	.LBE131
 12402 00c0 9E020000 		.4byte	.LBB133
 12403 00c4 A6020000 		.4byte	.LBE133
 12404 00c8 00000000 		.4byte	0
 12405 00cc 00000000 		.4byte	0
 12406 00d0 28020000 		.4byte	.LBB101
 12407 00d4 2A020000 		.4byte	.LBE101
 12408 00d8 2E020000 		.4byte	.LBB118
 12409 00dc 34020000 		.4byte	.LBE118
 12410 00e0 36020000 		.4byte	.LBB119
 12411 00e4 38020000 		.4byte	.LBE119
 12412 00e8 3E020000 		.4byte	.LBB121
 12413 00ec 40020000 		.4byte	.LBE121
 12414 00f0 44020000 		.4byte	.LBB123
 12415 00f4 46020000 		.4byte	.LBE123
 12416 00f8 74020000 		.4byte	.LBB127
 12417 00fc 78020000 		.4byte	.LBE127
 12418 0100 00000000 		.4byte	0
 12419 0104 00000000 		.4byte	0
 12420 0108 2A020000 		.4byte	.LBB108
 12421 010c 2E020000 		.4byte	.LBE108
 12422 0110 40020000 		.4byte	.LBB122
 12423 0114 44020000 		.4byte	.LBE122
 12424 0118 46020000 		.4byte	.LBB124
 12425 011c 4A020000 		.4byte	.LBE124
 12426 0120 4E020000 		.4byte	.LBB126
 12427 0124 74020000 		.4byte	.LBE126
 12428 0128 78020000 		.4byte	.LBB128
 12429 012c 86020000 		.4byte	.LBE128
 12430 0130 8C020000 		.4byte	.LBB130
 12431 0134 9A020000 		.4byte	.LBE130
 12432 0138 9C020000 		.4byte	.LBB132
 12433 013c 9E020000 		.4byte	.LBE132
 12434 0140 A6020000 		.4byte	.LBB134
 12435 0144 44030000 		.4byte	.LBE134
 12436 0148 46030000 		.4byte	.LBB135
 12437 014c 48030000 		.4byte	.LBE135
 12438 0150 00000000 		.4byte	0
 12439 0154 00000000 		.4byte	0
 12440 0158 10000000 		.4byte	.LBB141
 12441 015c 14000000 		.4byte	.LBE141
 12442 0160 20000000 		.4byte	.LBB144
ARM GAS  C:\Users\pearlstl\AppData\Local\Temp\ccQFxYtd.s 			page 256


 12443 0164 22000000 		.4byte	.LBE144
 12444 0168 00000000 		.4byte	0
 12445 016c 00000000 		.4byte	0
 12446 0170 12000000 		.4byte	.LBB147
 12447 0174 16000000 		.4byte	.LBE147
 12448 0178 24000000 		.4byte	.LBB150
 12449 017c 26000000 		.4byte	.LBE150
 12450 0180 00000000 		.4byte	0
 12451 0184 00000000 		.4byte	0
 12452 0188 0C000000 		.4byte	.LBB153
 12453 018c 10000000 		.4byte	.LBE153
 12454 0190 24000000 		.4byte	.LBB156
 12455 0194 26000000 		.4byte	.LBE156
 12456 0198 00000000 		.4byte	0
 12457 019c 00000000 		.4byte	0
 12458 01a0 0C000000 		.4byte	.LBB159
 12459 01a4 10000000 		.4byte	.LBE159
 12460 01a8 14000000 		.4byte	.LBB162
 12461 01ac 16000000 		.4byte	.LBE162
 12462 01b0 00000000 		.4byte	0
 12463 01b4 00000000 		.4byte	0
 12464 01b8 0C000000 		.4byte	.LBB165
 12465 01bc 10000000 		.4byte	.LBE165
 12466 01c0 14000000 		.4byte	.LBB168
 12467 01c4 16000000 		.4byte	.LBE168
 12468 01c8 00000000 		.4byte	0
 12469 01cc 00000000 		.4byte	0
 12470 01d0 0C000000 		.4byte	.LBB171
 12471 01d4 10000000 		.4byte	.LBE171
 12472 01d8 14000000 		.4byte	.LBB174
 12473 01dc 16000000 		.4byte	.LBE174
 12474 01e0 00000000 		.4byte	0
 12475 01e4 00000000 		.4byte	0
 12476 01e8 00000000 		.4byte	.LFB52
 12477 01ec 2C000000 		.4byte	.LFE52
 12478 01f0 00000000 		.4byte	.LFB35
 12479 01f4 7C000000 		.4byte	.LFE35
 12480 01f8 00000000 		.4byte	.LFB36
 12481 01fc 58000000 		.4byte	.LFE36
 12482 0200 00000000 		.4byte	.LFB37
 12483 0204 24000000 		.4byte	.LFE37
 12484 0208 00000000 		.4byte	.LFB38
 12485 020c 20000000 		.4byte	.LFE38
 12486 0210 00000000 		.4byte	.LFB39
 12487 0214 0A000000 		.4byte	.LFE39
 12488 0218 00000000 		.4byte	.LFB40
 12489 021c 24000000 		.4byte	.LFE40
 12490 0220 00000000 		.4byte	.LFB41
 12491 0224 0A000000 		.4byte	.LFE41
 12492 0228 00000000 		.4byte	.LFB42
 12493 022c 0A000000 		.4byte	.LFE42
 12494 0230 00000000 		.4byte	.LFB43
 12495 0234 82000000 		.4byte	.LFE43
 12496 0238 00000000 		.4byte	.LFB44
 12497 023c A2050000 		.4byte	.LFE44
 12498 0240 00000000 		.4byte	.LFB45
 12499 0244 54000000 		.4byte	.LFE45
ARM GAS  C:\Users\pearlstl\AppData\Local\Temp\ccQFxYtd.s 			page 257


 12500 0248 00000000 		.4byte	.LFB46
 12501 024c C4000000 		.4byte	.LFE46
 12502 0250 00000000 		.4byte	.LFB47
 12503 0254 F0000000 		.4byte	.LFE47
 12504 0258 00000000 		.4byte	.LFB48
 12505 025c E2000000 		.4byte	.LFE48
 12506 0260 00000000 		.4byte	.LFB49
 12507 0264 82010000 		.4byte	.LFE49
 12508 0268 00000000 		.4byte	.LFB50
 12509 026c B8000000 		.4byte	.LFE50
 12510 0270 00000000 		.4byte	.LFB51
 12511 0274 C2000000 		.4byte	.LFE51
 12512 0278 00000000 		.4byte	0
 12513 027c 00000000 		.4byte	0
 12514              		.section	.debug_line,"",%progbits
 12515              	.Ldebug_line0:
 12516 0000 A50A0000 		.section	.debug_str,"MS",%progbits,1
 12516      02002A05 
 12516      00000201 
 12516      FB0E0D00 
 12516      01010101 
 12517              	.LASF18:
 12518 0000 696E7438 		.ascii	"int8_t\000"
 12518      5F7400
 12519              	.LASF327:
 12520 0007 6C765F63 		.ascii	"lv_canvas_draw_arc\000"
 12520      616E7661 
 12520      735F6472 
 12520      61775F61 
 12520      726300
 12521              	.LASF123:
 12522 001a 636F6C6F 		.ascii	"color_chroma_key\000"
 12522      725F6368 
 12522      726F6D61 
 12522      5F6B6579 
 12522      00
 12523              	.LASF91:
 12524 002b 6C765F6C 		.ascii	"lv_ll_node_t\000"
 12524      6C5F6E6F 
 12524      64655F74 
 12524      00
 12525              	.LASF25:
 12526 0038 6164765F 		.ascii	"adv_w\000"
 12526      7700
 12527              	.LASF367:
 12528 003e 6C765F64 		.ascii	"lv_draw_arc\000"
 12528      7261775F 
 12528      61726300 
 12529              	.LASF16:
 12530 004a 73697A65 		.ascii	"sizetype\000"
 12530      74797065 
 12530      00
 12531              	.LASF158:
 12532 0053 6C765F64 		.ascii	"lv_disp_t\000"
 12532      6973705F 
 12532      7400
 12533              	.LASF294:
ARM GAS  C:\Users\pearlstl\AppData\Local\Temp\ccQFxYtd.s 			page 258


 12534 005d 79735F66 		.ascii	"ys_fract\000"
 12534      72616374 
 12534      00
 12535              	.LASF267:
 12536 0066 6E65775F 		.ascii	"new_canvas\000"
 12536      63616E76 
 12536      617300
 12537              	.LASF54:
 12538 0071 6C765F63 		.ascii	"lv_color32_t\000"
 12538      6F6C6F72 
 12538      33325F74 
 12538      00
 12539              	.LASF357:
 12540 007e 6C765F72 		.ascii	"lv_refr_get_disp_refreshing\000"
 12540      6566725F 
 12540      6765745F 
 12540      64697370 
 12540      5F726566 
 12541              	.LASF94:
 12542 009a 7461696C 		.ascii	"tail\000"
 12542      00
 12543              	.LASF167:
 12544 009f 4C565F53 		.ascii	"LV_SIGNAL_STYLE_CHG\000"
 12544      49474E41 
 12544      4C5F5354 
 12544      594C455F 
 12544      43484700 
 12545              	.LASF129:
 12546 00b3 6163745F 		.ascii	"act_scr\000"
 12546      73637200 
 12547              	.LASF56:
 12548 00bb 6C765F6F 		.ascii	"lv_opa_t\000"
 12548      70615F74 
 12548      00
 12549              	.LASF22:
 12550 00c4 696E7433 		.ascii	"int32_t\000"
 12550      325F7400 
 12551              	.LASF214:
 12552 00cc 4C565F49 		.ascii	"LV_IMG_CF_ALPHA_1BIT\000"
 12552      4D475F43 
 12552      465F414C 
 12552      5048415F 
 12552      31424954 
 12553              	.LASF79:
 12554 00e1 696E7465 		.ascii	"intense\000"
 12554      6E736500 
 12555              	.LASF318:
 12556 00e9 6D61785F 		.ascii	"max_w\000"
 12556      7700
 12557              	.LASF57:
 12558 00ef 6C765F70 		.ascii	"lv_point_t\000"
 12558      6F696E74 
 12558      5F7400
 12559              	.LASF243:
 12560 00fa 4C565F4C 		.ascii	"LV_LABEL_ALIGN_AUTO\000"
 12560      4142454C 
 12560      5F414C49 
ARM GAS  C:\Users\pearlstl\AppData\Local\Temp\ccQFxYtd.s 			page 259


 12560      474E5F41 
 12560      55544F00 
 12561              	.LASF175:
 12562 010e 4C565F53 		.ascii	"LV_SIGNAL_LONG_PRESS\000"
 12562      49474E41 
 12562      4C5F4C4F 
 12562      4E475F50 
 12562      52455353 
 12563              	.LASF71:
 12564 0123 72616469 		.ascii	"radius\000"
 12564      757300
 12565              	.LASF192:
 12566 012a 6C765F72 		.ascii	"lv_reailgn_t\000"
 12566      6561696C 
 12566      676E5F74 
 12566      00
 12567              	.LASF33:
 12568 0137 6C696E65 		.ascii	"line_height\000"
 12568      5F686569 
 12568      67687400 
 12569              	.LASF366:
 12570 0143 6C765F64 		.ascii	"lv_draw_polygon\000"
 12570      7261775F 
 12570      706F6C79 
 12570      676F6E00 
 12571              	.LASF144:
 12572 0153 636C6963 		.ascii	"click\000"
 12572      6B00
 12573              	.LASF185:
 12574 0159 6C765F61 		.ascii	"lv_align_t\000"
 12574      6C69676E 
 12574      5F7400
 12575              	.LASF177:
 12576 0164 4C565F53 		.ascii	"LV_SIGNAL_DRAG_BEGIN\000"
 12576      49474E41 
 12576      4C5F4452 
 12576      41475F42 
 12576      4547494E 
 12577              	.LASF336:
 12578 0179 6C765F6F 		.ascii	"lv_obj_set_signal_cb\000"
 12578      626A5F73 
 12578      65745F73 
 12578      69676E61 
 12578      6C5F6362 
 12579              	.LASF300:
 12580 018e 636F6C6F 		.ascii	"color_res\000"
 12580      725F7265 
 12580      7300
 12581              	.LASF257:
 12582 0198 7369676E 		.ascii	"sign\000"
 12582      00
 12583              	.LASF161:
 12584 019d 6C765F65 		.ascii	"lv_event_t\000"
 12584      76656E74 
 12584      5F7400
 12585              	.LASF210:
 12586 01a8 4C565F49 		.ascii	"LV_IMG_CF_INDEXED_1BIT\000"
ARM GAS  C:\Users\pearlstl\AppData\Local\Temp\ccQFxYtd.s 			page 260


 12586      4D475F43 
 12586      465F494E 
 12586      44455845 
 12586      445F3142 
 12587              	.LASF315:
 12588 01bf 64697370 		.ascii	"disp_buf\000"
 12588      5F627566 
 12588      00
 12589              	.LASF247:
 12590 01c8 6175746F 		.ascii	"auto_size\000"
 12590      5F73697A 
 12590      6500
 12591              	.LASF88:
 12592 01d2 4C565F52 		.ascii	"LV_RES_INV\000"
 12592      45535F49 
 12592      4E5600
 12593              	.LASF352:
 12594 01dd 6C765F74 		.ascii	"lv_trigo_sin\000"
 12594      7269676F 
 12594      5F73696E 
 12594      00
 12595              	.LASF171:
 12596 01ea 4C565F53 		.ascii	"LV_SIGNAL_PRESSED\000"
 12596      49474E41 
 12596      4C5F5052 
 12596      45535345 
 12596      4400
 12597              	.LASF64:
 12598 01fc 74797065 		.ascii	"type\000"
 12598      00
 12599              	.LASF321:
 12600 0201 6C765F63 		.ascii	"lv_canvas_draw_line\000"
 12600      616E7661 
 12600      735F6472 
 12600      61775F6C 
 12600      696E6500 
 12601              	.LASF270:
 12602 0215 6C765F63 		.ascii	"lv_canvas_set_palette\000"
 12602      616E7661 
 12602      735F7365 
 12602      745F7061 
 12602      6C657474 
 12603              	.LASF286:
 12604 022b 636F736D 		.ascii	"cosma\000"
 12604      6100
 12605              	.LASF310:
 12606 0231 72617469 		.ascii	"ratio\000"
 12606      6F00
 12607              	.LASF283:
 12608 0237 7069766F 		.ascii	"pivot_y\000"
 12608      745F7900 
 12609              	.LASF368:
 12610 023f 474E5520 		.ascii	"GNU C11 5.4.1 20160609 (release) [ARM/embedded-5-br"
 12610      43313120 
 12610      352E342E 
 12610      31203230 
 12610      31363036 
ARM GAS  C:\Users\pearlstl\AppData\Local\Temp\ccQFxYtd.s 			page 261


 12611 0272 616E6368 		.ascii	"anch revision 237715] -mcpu=cortex-m4 -mfloat-abi=s"
 12611      20726576 
 12611      6973696F 
 12611      6E203233 
 12611      37373135 
 12612 02a5 6F667466 		.ascii	"oftfp -mfpu=fpv4-sp-d16 -mthumb -g -O3 -ffunction-s"
 12612      70202D6D 
 12612      6670753D 
 12612      66707634 
 12612      2D73702D 
 12613 02d8 65637469 		.ascii	"ections -ffat-lto-objects\000"
 12613      6F6E7320 
 12613      2D666661 
 12613      742D6C74 
 12613      6F2D6F62 
 12614              	.LASF104:
 12615 02f2 7072696F 		.ascii	"prio\000"
 12615      00
 12616              	.LASF128:
 12617 02f7 7363725F 		.ascii	"scr_ll\000"
 12617      6C6C00
 12618              	.LASF302:
 12619 02fe 6F70615F 		.ascii	"opa_xn\000"
 12619      786E00
 12620              	.LASF5:
 12621 0305 5F5F7569 		.ascii	"__uint8_t\000"
 12621      6E74385F 
 12621      7400
 12622              	.LASF52:
 12623 030f 616C7068 		.ascii	"alpha\000"
 12623      6100
 12624              	.LASF116:
 12625 0315 7665725F 		.ascii	"ver_res\000"
 12625      72657300 
 12626              	.LASF323:
 12627 031d 706F696E 		.ascii	"point_cnt\000"
 12627      745F636E 
 12627      7400
 12628              	.LASF253:
 12629 0327 6C765F63 		.ascii	"lv_canvas_style_t\000"
 12629      616E7661 
 12629      735F7374 
 12629      796C655F 
 12629      7400
 12630              	.LASF241:
 12631 0339 4C565F4C 		.ascii	"LV_LABEL_ALIGN_CENTER\000"
 12631      4142454C 
 12631      5F414C49 
 12631      474E5F43 
 12631      454E5445 
 12632              	.LASF148:
 12633 034f 68696464 		.ascii	"hidden\000"
 12633      656E00
 12634              	.LASF135:
 12635 0356 6C617374 		.ascii	"last_activity_time\000"
 12635      5F616374 
 12635      69766974 
ARM GAS  C:\Users\pearlstl\AppData\Local\Temp\ccQFxYtd.s 			page 262


 12635      795F7469 
 12635      6D6500
 12636              	.LASF12:
 12637 0369 6C6F6E67 		.ascii	"long int\000"
 12637      20696E74 
 12637      00
 12638              	.LASF127:
 12639 0372 72656672 		.ascii	"refr_task\000"
 12639      5F746173 
 12639      6B00
 12640              	.LASF303:
 12641 037c 6F70615F 		.ascii	"opa_yn\000"
 12641      796E00
 12642              	.LASF118:
 12643 0383 726F7461 		.ascii	"rotated\000"
 12643      74656400 
 12644              	.LASF306:
 12645 038b 6F70615F 		.ascii	"opa_res\000"
 12645      72657300 
 12646              	.LASF308:
 12647 0393 62675F6F 		.ascii	"bg_opa\000"
 12647      706100
 12648              	.LASF278:
 12649 039a 6C765F63 		.ascii	"lv_canvas_rotate\000"
 12649      616E7661 
 12649      735F726F 
 12649      74617465 
 12649      00
 12650              	.LASF339:
 12651 03ab 6C765F6F 		.ascii	"lv_obj_get_design_cb\000"
 12651      626A5F67 
 12651      65745F64 
 12651      65736967 
 12651      6E5F6362 
 12652              	.LASF317:
 12653 03c0 6C765F63 		.ascii	"lv_canvas_draw_text\000"
 12653      616E7661 
 12653      735F6472 
 12653      61775F74 
 12653      65787400 
 12654              	.LASF261:
 12655 03d4 6C765F63 		.ascii	"lv_canvas_get_style\000"
 12655      616E7661 
 12655      735F6765 
 12655      745F7374 
 12655      796C6500 
 12656              	.LASF199:
 12657 03e8 4C565F54 		.ascii	"LV_TXT_FLAG_RIGHT\000"
 12657      58545F46 
 12657      4C41475F 
 12657      52494748 
 12657      5400
 12658              	.LASF93:
 12659 03fa 68656164 		.ascii	"head\000"
 12659      00
 12660              	.LASF355:
 12661 03ff 6C765F64 		.ascii	"lv_disp_buf_init\000"
ARM GAS  C:\Users\pearlstl\AppData\Local\Temp\ccQFxYtd.s 			page 263


 12661      6973705F 
 12661      6275665F 
 12661      696E6974 
 12661      00
 12662              	.LASF268:
 12663 0410 6C765F63 		.ascii	"lv_canvas_set_buffer\000"
 12663      616E7661 
 12663      735F7365 
 12663      745F6275 
 12663      66666572 
 12664              	.LASF196:
 12665 0425 4C565F54 		.ascii	"LV_TXT_FLAG_RECOLOR\000"
 12665      58545F46 
 12665      4C41475F 
 12665      5245434F 
 12665      4C4F5200 
 12666              	.LASF351:
 12667 0439 6C765F69 		.ascii	"lv_img_color_format_is_chroma_keyed\000"
 12667      6D675F63 
 12667      6F6C6F72 
 12667      5F666F72 
 12667      6D61745F 
 12668              	.LASF121:
 12669 045d 7365745F 		.ascii	"set_px_cb\000"
 12669      70785F63 
 12669      6200
 12670              	.LASF3:
 12671 0467 7369676E 		.ascii	"signed char\000"
 12671      65642063 
 12671      68617200 
 12672              	.LASF19:
 12673 0473 75696E74 		.ascii	"uint8_t\000"
 12673      385F7400 
 12674              	.LASF115:
 12675 047b 686F725F 		.ascii	"hor_res\000"
 12675      72657300 
 12676              	.LASF256:
 12677 0483 63616E76 		.ascii	"canvas\000"
 12677      617300
 12678              	.LASF350:
 12679 048a 6C765F69 		.ascii	"lv_img_color_format_has_alpha\000"
 12679      6D675F63 
 12679      6F6C6F72 
 12679      5F666F72 
 12679      6D61745F 
 12680              	.LASF32:
 12681 04a8 6765745F 		.ascii	"get_glyph_bitmap\000"
 12681      676C7970 
 12681      685F6269 
 12681      746D6170 
 12681      00
 12682              	.LASF329:
 12683 04b9 656E645F 		.ascii	"end_angle\000"
 12683      616E676C 
 12683      6500
 12684              	.LASF50:
 12685 04c3 626C7565 		.ascii	"blue\000"
ARM GAS  C:\Users\pearlstl\AppData\Local\Temp\ccQFxYtd.s 			page 264


 12685      00
 12686              	.LASF176:
 12687 04c8 4C565F53 		.ascii	"LV_SIGNAL_LONG_PRESS_REP\000"
 12687      49474E41 
 12687      4C5F4C4F 
 12687      4E475F50 
 12687      52455353 
 12688              	.LASF6:
 12689 04e1 756E7369 		.ascii	"unsigned char\000"
 12689      676E6564 
 12689      20636861 
 12689      7200
 12690              	.LASF130:
 12691 04ef 746F705F 		.ascii	"top_layer\000"
 12691      6C617965 
 12691      7200
 12692              	.LASF242:
 12693 04f9 4C565F4C 		.ascii	"LV_LABEL_ALIGN_RIGHT\000"
 12693      4142454C 
 12693      5F414C49 
 12693      474E5F52 
 12693      49474854 
 12694              	.LASF346:
 12695 050e 6C765F6F 		.ascii	"lv_obj_get_style\000"
 12695      626A5F67 
 12695      65745F73 
 12695      74796C65 
 12695      00
 12696              	.LASF169:
 12697 051f 4C565F53 		.ascii	"LV_SIGNAL_REFR_EXT_DRAW_PAD\000"
 12697      49474E41 
 12697      4C5F5245 
 12697      46525F45 
 12697      58545F44 
 12698              	.LASF151:
 12699 053b 64726167 		.ascii	"drag_dir\000"
 12699      5F646972 
 12699      00
 12700              	.LASF204:
 12701 0544 4C565F49 		.ascii	"LV_IMG_CF_RAW\000"
 12701      4D475F43 
 12701      465F5241 
 12701      5700
 12702              	.LASF324:
 12703 0552 63697263 		.ascii	"circle_style_tmp\000"
 12703      6C655F73 
 12703      74796C65 
 12703      5F746D70 
 12703      00
 12704              	.LASF102:
 12705 0563 7461736B 		.ascii	"task_cb\000"
 12705      5F636200 
 12706              	.LASF28:
 12707 056b 6F66735F 		.ascii	"ofs_x\000"
 12707      7800
 12708              	.LASF29:
 12709 0571 6F66735F 		.ascii	"ofs_y\000"
ARM GAS  C:\Users\pearlstl\AppData\Local\Temp\ccQFxYtd.s 			page 265


 12709      7900
 12710              	.LASF236:
 12711 0577 68656164 		.ascii	"header\000"
 12711      657200
 12712              	.LASF334:
 12713 057e 6C765F6F 		.ascii	"lv_obj_allocate_ext_attr\000"
 12713      626A5F61 
 12713      6C6C6F63 
 12713      6174655F 
 12713      6578745F 
 12714              	.LASF263:
 12715 0597 6C765F69 		.ascii	"lv_img_set_style\000"
 12715      6D675F73 
 12715      65745F73 
 12715      74796C65 
 12715      00
 12716              	.LASF35:
 12717 05a8 5F426F6F 		.ascii	"_Bool\000"
 12717      6C00
 12718              	.LASF184:
 12719 05ae 6C765F73 		.ascii	"lv_signal_cb_t\000"
 12719      69676E61 
 12719      6C5F6362 
 12719      5F7400
 12720              	.LASF133:
 12721 05bd 696E765F 		.ascii	"inv_area_joined\000"
 12721      61726561 
 12721      5F6A6F69 
 12721      6E656400 
 12722              	.LASF17:
 12723 05cd 63686172 		.ascii	"char\000"
 12723      00
 12724              	.LASF264:
 12725 05d2 6C765F61 		.ascii	"lv_area_copy\000"
 12725      7265615F 
 12725      636F7079 
 12725      00
 12726              	.LASF356:
 12727 05df 6C765F64 		.ascii	"lv_disp_drv_init\000"
 12727      6973705F 
 12727      6472765F 
 12727      696E6974 
 12727      00
 12728              	.LASF83:
 12729 05f0 626F6479 		.ascii	"body\000"
 12729      00
 12730              	.LASF188:
 12731 05f5 796F6673 		.ascii	"yofs\000"
 12731      00
 12732              	.LASF348:
 12733 05fa 6C765F69 		.ascii	"lv_img_buf_set_px_alpha\000"
 12733      6D675F62 
 12733      75665F73 
 12733      65745F70 
 12733      785F616C 
 12734              	.LASF282:
 12735 0612 7069766F 		.ascii	"pivot_x\000"
ARM GAS  C:\Users\pearlstl\AppData\Local\Temp\ccQFxYtd.s 			page 266


 12735      745F7800 
 12736              	.LASF99:
 12737 061a 5F6C765F 		.ascii	"_lv_task_t\000"
 12737      7461736B 
 12737      5F7400
 12738              	.LASF9:
 12739 0625 5F5F7569 		.ascii	"__uint16_t\000"
 12739      6E743136 
 12739      5F7400
 12740              	.LASF340:
 12741 0630 6C765F6F 		.ascii	"lv_obj_get_ext_attr\000"
 12741      626A5F67 
 12741      65745F65 
 12741      78745F61 
 12741      74747200 
 12742              	.LASF309:
 12743 0644 6F70615F 		.ascii	"opa_res_2\000"
 12743      7265735F 
 12743      3200
 12744              	.LASF141:
 12745 064e 64657369 		.ascii	"design_cb\000"
 12745      676E5F63 
 12745      6200
 12746              	.LASF195:
 12747 0658 4C565F54 		.ascii	"LV_TXT_FLAG_NONE\000"
 12747      58545F46 
 12747      4C41475F 
 12747      4E4F4E45 
 12747      00
 12748              	.LASF295:
 12749 0669 635F6465 		.ascii	"c_dest_int\000"
 12749      73745F69 
 12749      6E7400
 12750              	.LASF162:
 12751 0674 6C765F65 		.ascii	"lv_event_cb_t\000"
 12751      76656E74 
 12751      5F63625F 
 12751      7400
 12752              	.LASF112:
 12753 0682 666C7573 		.ascii	"flushing\000"
 12753      68696E67 
 12753      00
 12754              	.LASF180:
 12755 068b 4C565F53 		.ascii	"LV_SIGNAL_DEFOCUS\000"
 12755      49474E41 
 12755      4C5F4445 
 12755      464F4355 
 12755      5300
 12756              	.LASF311:
 12757 069d 6C765F63 		.ascii	"lv_canvas_fill_bg\000"
 12757      616E7661 
 12757      735F6669 
 12757      6C6C5F62 
 12757      6700
 12758              	.LASF84:
 12759 06af 74657874 		.ascii	"text\000"
 12759      00
ARM GAS  C:\Users\pearlstl\AppData\Local\Temp\ccQFxYtd.s 			page 267


 12760              	.LASF85:
 12761 06b4 696D6167 		.ascii	"image\000"
 12761      6500
 12762              	.LASF81:
 12763 06ba 726F756E 		.ascii	"rounded\000"
 12763      64656400 
 12764              	.LASF287:
 12765 06c2 696D675F 		.ascii	"img_width\000"
 12765      77696474 
 12765      6800
 12766              	.LASF269:
 12767 06cc 6C765F63 		.ascii	"lv_canvas_set_px\000"
 12767      616E7661 
 12767      735F7365 
 12767      745F7078 
 12767      00
 12768              	.LASF146:
 12769 06dd 64726167 		.ascii	"drag_throw\000"
 12769      5F746872 
 12769      6F7700
 12770              	.LASF96:
 12771 06e8 6C765F62 		.ascii	"lv_bidi_dir_t\000"
 12771      6964695F 
 12771      6469725F 
 12771      7400
 12772              	.LASF156:
 12773 06f6 6578745F 		.ascii	"ext_draw_pad\000"
 12773      64726177 
 12773      5F706164 
 12773      00
 12774              	.LASF58:
 12775 0703 6C765F61 		.ascii	"lv_area_t\000"
 12775      7265615F 
 12775      7400
 12776              	.LASF117:
 12777 070d 62756666 		.ascii	"buffer\000"
 12777      657200
 12778              	.LASF361:
 12779 0714 6C765F64 		.ascii	"lv_draw_label\000"
 12779      7261775F 
 12779      6C616265 
 12779      6C00
 12780              	.LASF218:
 12781 0722 4C565F49 		.ascii	"LV_IMG_CF_RESERVED_15\000"
 12781      4D475F43 
 12781      465F5245 
 12781      53455256 
 12781      45445F31 
 12782              	.LASF219:
 12783 0738 4C565F49 		.ascii	"LV_IMG_CF_RESERVED_16\000"
 12783      4D475F43 
 12783      465F5245 
 12783      53455256 
 12783      45445F31 
 12784              	.LASF220:
 12785 074e 4C565F49 		.ascii	"LV_IMG_CF_RESERVED_17\000"
 12785      4D475F43 
ARM GAS  C:\Users\pearlstl\AppData\Local\Temp\ccQFxYtd.s 			page 268


 12785      465F5245 
 12785      53455256 
 12785      45445F31 
 12786              	.LASF221:
 12787 0764 4C565F49 		.ascii	"LV_IMG_CF_RESERVED_18\000"
 12787      4D475F43 
 12787      465F5245 
 12787      53455256 
 12787      45445F31 
 12788              	.LASF222:
 12789 077a 4C565F49 		.ascii	"LV_IMG_CF_RESERVED_19\000"
 12789      4D475F43 
 12789      465F5245 
 12789      53455256 
 12789      45445F31 
 12790              	.LASF198:
 12791 0790 4C565F54 		.ascii	"LV_TXT_FLAG_CENTER\000"
 12791      58545F46 
 12791      4C41475F 
 12791      43454E54 
 12791      455200
 12792              	.LASF66:
 12793 07a3 6C656674 		.ascii	"left\000"
 12793      00
 12794              	.LASF157:
 12795 07a8 7265616C 		.ascii	"realign\000"
 12795      69676E00 
 12796              	.LASF293:
 12797 07b0 78735F66 		.ascii	"xs_fract\000"
 12797      72616374 
 12797      00
 12798              	.LASF250:
 12799 07b9 6C765F69 		.ascii	"lv_img_style_t\000"
 12799      6D675F73 
 12799      74796C65 
 12799      5F7400
 12800              	.LASF347:
 12801 07c8 6C765F69 		.ascii	"lv_img_buf_get_px_color\000"
 12801      6D675F62 
 12801      75665F67 
 12801      65745F70 
 12801      785F636F 
 12802              	.LASF276:
 12803 07e0 70785F73 		.ascii	"px_size\000"
 12803      697A6500 
 12804              	.LASF170:
 12805 07e8 4C565F53 		.ascii	"LV_SIGNAL_GET_TYPE\000"
 12805      49474E41 
 12805      4C5F4745 
 12805      545F5459 
 12805      504500
 12806              	.LASF111:
 12807 07fb 61726561 		.ascii	"area\000"
 12807      00
 12808              	.LASF223:
 12809 0800 4C565F49 		.ascii	"LV_IMG_CF_RESERVED_20\000"
 12809      4D475F43 
ARM GAS  C:\Users\pearlstl\AppData\Local\Temp\ccQFxYtd.s 			page 269


 12809      465F5245 
 12809      53455256 
 12809      45445F32 
 12810              	.LASF224:
 12811 0816 4C565F49 		.ascii	"LV_IMG_CF_RESERVED_21\000"
 12811      4D475F43 
 12811      465F5245 
 12811      53455256 
 12811      45445F32 
 12812              	.LASF225:
 12813 082c 4C565F49 		.ascii	"LV_IMG_CF_RESERVED_22\000"
 12813      4D475F43 
 12813      465F5245 
 12813      53455256 
 12813      45445F32 
 12814              	.LASF226:
 12815 0842 4C565F49 		.ascii	"LV_IMG_CF_RESERVED_23\000"
 12815      4D475F43 
 12815      465F5245 
 12815      53455256 
 12815      45445F32 
 12816              	.LASF87:
 12817 0858 6C765F73 		.ascii	"lv_style_t\000"
 12817      74796C65 
 12817      5F7400
 12818              	.LASF68:
 12819 0863 696E6E65 		.ascii	"inner\000"
 12819      7200
 12820              	.LASF251:
 12821 0869 6C765F63 		.ascii	"lv_canvas_ext_t\000"
 12821      616E7661 
 12821      735F6578 
 12821      745F7400 
 12822              	.LASF369:
 12823 0879 2E2E5C2E 		.ascii	"..\\..\\..\\lvgl\\version_6.1.2\\lvgl\\src\\lv_objx"
 12823      2E5C2E2E 
 12823      5C6C7667 
 12823      6C5C7665 
 12823      7273696F 
 12824 08a5 5C6C765F 		.ascii	"\\lv_canvas.c\000"
 12824      63616E76 
 12824      61732E63 
 12824      00
 12825              	.LASF14:
 12826 08b2 6C6F6E67 		.ascii	"long unsigned int\000"
 12826      20756E73 
 12826      69676E65 
 12826      6420696E 
 12826      7400
 12827              	.LASF235:
 12828 08c4 6C765F69 		.ascii	"lv_img_cf_t\000"
 12828      6D675F63 
 12828      665F7400 
 12829              	.LASF328:
 12830 08d0 73746172 		.ascii	"start_angle\000"
 12830      745F616E 
 12830      676C6500 
ARM GAS  C:\Users\pearlstl\AppData\Local\Temp\ccQFxYtd.s 			page 270


 12831              	.LASF258:
 12832 08dc 70617261 		.ascii	"param\000"
 12832      6D00
 12833              	.LASF280:
 12834 08e2 6F666673 		.ascii	"offset_x\000"
 12834      65745F78 
 12834      00
 12835              	.LASF281:
 12836 08eb 6F666673 		.ascii	"offset_y\000"
 12836      65745F79 
 12836      00
 12837              	.LASF86:
 12838 08f4 6C696E65 		.ascii	"line\000"
 12838      00
 12839              	.LASF273:
 12840 08f9 6C765F63 		.ascii	"lv_canvas_get_px\000"
 12840      616E7661 
 12840      735F6765 
 12840      745F7078 
 12840      00
 12841              	.LASF360:
 12842 090a 6C765F6F 		.ascii	"lv_obj_get_base_dir\000"
 12842      626A5F67 
 12842      65745F62 
 12842      6173655F 
 12842      64697200 
 12843              	.LASF179:
 12844 091e 4C565F53 		.ascii	"LV_SIGNAL_FOCUS\000"
 12844      49474E41 
 12844      4C5F464F 
 12844      43555300 
 12845              	.LASF38:
 12846 092e 4C565F4F 		.ascii	"LV_OPA_0\000"
 12846      50415F30 
 12846      00
 12847              	.LASF299:
 12848 0937 795F6465 		.ascii	"y_dest\000"
 12848      737400
 12849              	.LASF365:
 12850 093e 6C765F73 		.ascii	"lv_style_copy\000"
 12850      74796C65 
 12850      5F636F70 
 12850      7900
 12851              	.LASF197:
 12852 094c 4C565F54 		.ascii	"LV_TXT_FLAG_EXPAND\000"
 12852      58545F46 
 12852      4C41475F 
 12852      45585041 
 12852      4E4400
 12853              	.LASF237:
 12854 095f 64617461 		.ascii	"data_size\000"
 12854      5F73697A 
 12854      6500
 12855              	.LASF320:
 12856 0969 6C765F63 		.ascii	"lv_canvas_draw_img\000"
 12856      616E7661 
 12856      735F6472 
ARM GAS  C:\Users\pearlstl\AppData\Local\Temp\ccQFxYtd.s 			page 271


 12856      61775F69 
 12856      6D6700
 12857              	.LASF279:
 12858 097c 616E676C 		.ascii	"angle\000"
 12858      6500
 12859              	.LASF114:
 12860 0982 5F646973 		.ascii	"_disp_drv_t\000"
 12860      705F6472 
 12860      765F7400 
 12861              	.LASF255:
 12862 098e 6C765F63 		.ascii	"lv_canvas_signal\000"
 12862      616E7661 
 12862      735F7369 
 12862      676E616C 
 12862      00
 12863              	.LASF292:
 12864 099f 79735F69 		.ascii	"ys_int\000"
 12864      6E7400
 12865              	.LASF363:
 12866 09a6 6C765F64 		.ascii	"lv_draw_img\000"
 12866      7261775F 
 12866      696D6700 
 12867              	.LASF266:
 12868 09b2 636F7079 		.ascii	"copy\000"
 12868      00
 12869              	.LASF254:
 12870 09b7 6C765F63 		.ascii	"lv_color_mix\000"
 12870      6F6C6F72 
 12870      5F6D6978 
 12870      00
 12871              	.LASF182:
 12872 09c4 4C565F53 		.ascii	"LV_SIGNAL_GET_EDITABLE\000"
 12872      49474E41 
 12872      4C5F4745 
 12872      545F4544 
 12872      49544142 
 12873              	.LASF312:
 12874 09db 6C765F63 		.ascii	"lv_canvas_draw_rect\000"
 12874      616E7661 
 12874      735F6472 
 12874      61775F72 
 12874      65637400 
 12875              	.LASF113:
 12876 09ef 6C765F64 		.ascii	"lv_disp_buf_t\000"
 12876      6973705F 
 12876      6275665F 
 12876      7400
 12877              	.LASF13:
 12878 09fd 5F5F7569 		.ascii	"__uint32_t\000"
 12878      6E743332 
 12878      5F7400
 12879              	.LASF139:
 12880 0a08 6576656E 		.ascii	"event_cb\000"
 12880      745F6362 
 12880      00
 12881              	.LASF358:
 12882 0a11 6C765F72 		.ascii	"lv_refr_set_disp_refreshing\000"
ARM GAS  C:\Users\pearlstl\AppData\Local\Temp\ccQFxYtd.s 			page 272


 12882      6566725F 
 12882      7365745F 
 12882      64697370 
 12882      5F726566 
 12883              	.LASF67:
 12884 0a2d 72696768 		.ascii	"right\000"
 12884      7400
 12885              	.LASF143:
 12886 0a33 7374796C 		.ascii	"style_p\000"
 12886      655F7000 
 12887              	.LASF1:
 12888 0a3b 6C6F6E67 		.ascii	"long long int\000"
 12888      206C6F6E 
 12888      6720696E 
 12888      7400
 12889              	.LASF62:
 12890 0a49 77696474 		.ascii	"width\000"
 12890      6800
 12891              	.LASF181:
 12892 0a4f 4C565F53 		.ascii	"LV_SIGNAL_CONTROL\000"
 12892      49474E41 
 12892      4C5F434F 
 12892      4E54524F 
 12892      4C00
 12893              	.LASF65:
 12894 0a61 626F7474 		.ascii	"bottom\000"
 12894      6F6D00
 12895              	.LASF137:
 12896 0a68 6368696C 		.ascii	"child_ll\000"
 12896      645F6C6C 
 12896      00
 12897              	.LASF154:
 12898 0a71 70726F74 		.ascii	"protect\000"
 12898      65637400 
 12899              	.LASF107:
 12900 0a79 62756631 		.ascii	"buf1\000"
 12900      00
 12901              	.LASF108:
 12902 0a7e 62756632 		.ascii	"buf2\000"
 12902      00
 12903              	.LASF313:
 12904 0a83 6D61736B 		.ascii	"mask\000"
 12904      00
 12905              	.LASF248:
 12906 0a88 6C765F69 		.ascii	"lv_img_ext_t\000"
 12906      6D675F65 
 12906      78745F74 
 12906      00
 12907              	.LASF150:
 12908 0a95 70617265 		.ascii	"parent_event\000"
 12908      6E745F65 
 12908      76656E74 
 12908      00
 12909              	.LASF163:
 12910 0aa2 4C565F53 		.ascii	"LV_SIGNAL_CLEANUP\000"
 12910      49474E41 
 12910      4C5F434C 
ARM GAS  C:\Users\pearlstl\AppData\Local\Temp\ccQFxYtd.s 			page 273


 12910      45414E55 
 12910      5000
 12911              	.LASF189:
 12912 0ab4 616C6967 		.ascii	"align\000"
 12912      6E00
 12913              	.LASF37:
 12914 0aba 4C565F4F 		.ascii	"LV_OPA_TRANSP\000"
 12914      50415F54 
 12914      52414E53 
 12914      5000
 12915              	.LASF215:
 12916 0ac8 4C565F49 		.ascii	"LV_IMG_CF_ALPHA_2BIT\000"
 12916      4D475F43 
 12916      465F414C 
 12916      5048415F 
 12916      32424954 
 12917              	.LASF82:
 12918 0add 676C6173 		.ascii	"glass\000"
 12918      7300
 12919              	.LASF216:
 12920 0ae3 4C565F49 		.ascii	"LV_IMG_CF_ALPHA_4BIT\000"
 12920      4D475F43 
 12920      465F414C 
 12920      5048415F 
 12920      34424954 
 12921              	.LASF316:
 12922 0af8 72656672 		.ascii	"refr_ori\000"
 12922      5F6F7269 
 12922      00
 12923              	.LASF344:
 12924 0b01 6C765F69 		.ascii	"lv_img_buf_set_palette\000"
 12924      6D675F62 
 12924      75665F73 
 12924      65745F70 
 12924      616C6574 
 12925              	.LASF0:
 12926 0b18 756E7369 		.ascii	"unsigned int\000"
 12926      676E6564 
 12926      20696E74 
 12926      00
 12927              	.LASF164:
 12928 0b25 4C565F53 		.ascii	"LV_SIGNAL_CHILD_CHG\000"
 12928      49474E41 
 12928      4C5F4348 
 12928      494C445F 
 12928      43484700 
 12929              	.LASF200:
 12930 0b39 6C765F74 		.ascii	"lv_txt_flag_t\000"
 12930      78745F66 
 12930      6C61675F 
 12930      7400
 12931              	.LASF314:
 12932 0b47 64697370 		.ascii	"disp\000"
 12932      00
 12933              	.LASF208:
 12934 0b4c 4C565F49 		.ascii	"LV_IMG_CF_TRUE_COLOR_ALPHA\000"
 12934      4D475F43 
ARM GAS  C:\Users\pearlstl\AppData\Local\Temp\ccQFxYtd.s 			page 274


 12934      465F5452 
 12934      55455F43 
 12934      4F4C4F52 
 12935              	.LASF337:
 12936 0b67 6C765F6F 		.ascii	"lv_obj_refresh_style\000"
 12936      626A5F72 
 12936      65667265 
 12936      73685F73 
 12936      74796C65 
 12937              	.LASF217:
 12938 0b7c 4C565F49 		.ascii	"LV_IMG_CF_ALPHA_8BIT\000"
 12938      4D475F43 
 12938      465F414C 
 12938      5048415F 
 12938      38424954 
 12939              	.LASF211:
 12940 0b91 4C565F49 		.ascii	"LV_IMG_CF_INDEXED_2BIT\000"
 12940      4D475F43 
 12940      465F494E 
 12940      44455845 
 12940      445F3242 
 12941              	.LASF319:
 12942 0ba8 666C6167 		.ascii	"flag\000"
 12942      00
 12943              	.LASF290:
 12944 0bad 64657374 		.ascii	"dest_height\000"
 12944      5F686569 
 12944      67687400 
 12945              	.LASF301:
 12946 0bb9 6F70615F 		.ascii	"opa_int\000"
 12946      696E7400 
 12947              	.LASF272:
 12948 0bc1 6C765F63 		.ascii	"lv_canvas_create\000"
 12948      616E7661 
 12948      735F6372 
 12948      65617465 
 12948      00
 12949              	.LASF132:
 12950 0bd2 696E765F 		.ascii	"inv_areas\000"
 12950      61726561 
 12950      7300
 12951              	.LASF212:
 12952 0bdc 4C565F49 		.ascii	"LV_IMG_CF_INDEXED_4BIT\000"
 12952      4D475F43 
 12952      465F494E 
 12952      44455845 
 12952      445F3442 
 12953              	.LASF190:
 12954 0bf3 6175746F 		.ascii	"auto_realign\000"
 12954      5F726561 
 12954      6C69676E 
 12954      00
 12955              	.LASF105:
 12956 0c00 6F6E6365 		.ascii	"once\000"
 12956      00
 12957              	.LASF260:
 12958 0c05 6C765F69 		.ascii	"lv_img_get_style\000"
ARM GAS  C:\Users\pearlstl\AppData\Local\Temp\ccQFxYtd.s 			page 275


 12958      6D675F67 
 12958      65745F73 
 12958      74796C65 
 12958      00
 12959              	.LASF245:
 12960 0c16 6F666673 		.ascii	"offset\000"
 12960      657400
 12961              	.LASF30:
 12962 0c1d 6C765F66 		.ascii	"lv_font_glyph_dsc_t\000"
 12962      6F6E745F 
 12962      676C7970 
 12962      685F6473 
 12962      635F7400 
 12963              	.LASF335:
 12964 0c31 6C765F69 		.ascii	"lv_img_set_src\000"
 12964      6D675F73 
 12964      65745F73 
 12964      726300
 12965              	.LASF70:
 12966 0c40 67726164 		.ascii	"grad_color\000"
 12966      5F636F6C 
 12966      6F7200
 12967              	.LASF213:
 12968 0c4b 4C565F49 		.ascii	"LV_IMG_CF_INDEXED_8BIT\000"
 12968      4D475F43 
 12968      465F494E 
 12968      44455845 
 12968      445F3842 
 12969              	.LASF206:
 12970 0c62 4C565F49 		.ascii	"LV_IMG_CF_RAW_CHROMA_KEYED\000"
 12970      4D475F43 
 12970      465F5241 
 12970      575F4348 
 12970      524F4D41 
 12971              	.LASF249:
 12972 0c7d 4C565F49 		.ascii	"LV_IMG_STYLE_MAIN\000"
 12972      4D475F53 
 12972      54594C45 
 12972      5F4D4149 
 12972      4E00
 12973              	.LASF125:
 12974 0c8f 5F646973 		.ascii	"_disp_t\000"
 12974      705F7400 
 12975              	.LASF209:
 12976 0c97 4C565F49 		.ascii	"LV_IMG_CF_TRUE_COLOR_CHROMA_KEYED\000"
 12976      4D475F43 
 12976      465F5452 
 12976      55455F43 
 12976      4F4C4F52 
 12977              	.LASF172:
 12978 0cb9 4C565F53 		.ascii	"LV_SIGNAL_PRESSING\000"
 12978      49474E41 
 12978      4C5F5052 
 12978      45535349 
 12978      4E4700
 12979              	.LASF48:
 12980 0ccc 4C565F4F 		.ascii	"LV_OPA_100\000"
ARM GAS  C:\Users\pearlstl\AppData\Local\Temp\ccQFxYtd.s 			page 276


 12980      50415F31 
 12980      303000
 12981              	.LASF227:
 12982 0cd7 4C565F49 		.ascii	"LV_IMG_CF_USER_ENCODED_0\000"
 12982      4D475F43 
 12982      465F5553 
 12982      45525F45 
 12982      4E434F44 
 12983              	.LASF228:
 12984 0cf0 4C565F49 		.ascii	"LV_IMG_CF_USER_ENCODED_1\000"
 12984      4D475F43 
 12984      465F5553 
 12984      45525F45 
 12984      4E434F44 
 12985              	.LASF229:
 12986 0d09 4C565F49 		.ascii	"LV_IMG_CF_USER_ENCODED_2\000"
 12986      4D475F43 
 12986      465F5553 
 12986      45525F45 
 12986      4E434F44 
 12987              	.LASF230:
 12988 0d22 4C565F49 		.ascii	"LV_IMG_CF_USER_ENCODED_3\000"
 12988      4D475F43 
 12988      465F5553 
 12988      45525F45 
 12988      4E434F44 
 12989              	.LASF231:
 12990 0d3b 4C565F49 		.ascii	"LV_IMG_CF_USER_ENCODED_4\000"
 12990      4D475F43 
 12990      465F5553 
 12990      45525F45 
 12990      4E434F44 
 12991              	.LASF232:
 12992 0d54 4C565F49 		.ascii	"LV_IMG_CF_USER_ENCODED_5\000"
 12992      4D475F43 
 12992      465F5553 
 12992      45525F45 
 12992      4E434F44 
 12993              	.LASF233:
 12994 0d6d 4C565F49 		.ascii	"LV_IMG_CF_USER_ENCODED_6\000"
 12994      4D475F43 
 12994      465F5553 
 12994      45525F45 
 12994      4E434F44 
 12995              	.LASF234:
 12996 0d86 4C565F49 		.ascii	"LV_IMG_CF_USER_ENCODED_7\000"
 12996      4D475F43 
 12996      465F5553 
 12996      45525F45 
 12996      4E434F44 
 12997              	.LASF90:
 12998 0d9f 6C765F72 		.ascii	"lv_res_t\000"
 12998      65735F74 
 12998      00
 12999              	.LASF109:
 13000 0da8 6275665F 		.ascii	"buf_act\000"
 13000      61637400 
ARM GAS  C:\Users\pearlstl\AppData\Local\Temp\ccQFxYtd.s 			page 277


 13001              	.LASF2:
 13002 0db0 6C6F6E67 		.ascii	"long double\000"
 13002      20646F75 
 13002      626C6500 
 13003              	.LASF288:
 13004 0dbc 696D675F 		.ascii	"img_height\000"
 13004      68656967 
 13004      687400
 13005              	.LASF193:
 13006 0dc7 6C765F64 		.ascii	"lv_drag_dir_t\000"
 13006      7261675F 
 13006      6469725F 
 13006      7400
 13007              	.LASF259:
 13008 0dd5 7374796C 		.ascii	"style\000"
 13008      6500
 13009              	.LASF142:
 13010 0ddb 6578745F 		.ascii	"ext_attr\000"
 13010      61747472 
 13010      00
 13011              	.LASF202:
 13012 0de4 6C765F69 		.ascii	"lv_img_header_t\000"
 13012      6D675F68 
 13012      65616465 
 13012      725F7400 
 13013              	.LASF159:
 13014 0df4 6C765F64 		.ascii	"lv_design_mode_t\000"
 13014      65736967 
 13014      6E5F6D6F 
 13014      64655F74 
 13014      00
 13015              	.LASF80:
 13016 0e05 73756270 		.ascii	"subpx\000"
 13016      7800
 13017              	.LASF49:
 13018 0e0b 4C565F4F 		.ascii	"LV_OPA_COVER\000"
 13018      50415F43 
 13018      4F564552 
 13018      00
 13019              	.LASF173:
 13020 0e18 4C565F53 		.ascii	"LV_SIGNAL_PRESS_LOST\000"
 13020      49474E41 
 13020      4C5F5052 
 13020      4553535F 
 13020      4C4F5354 
 13021              	.LASF342:
 13022 0e2d 6C765F69 		.ascii	"lv_img_buf_set_px_color\000"
 13022      6D675F62 
 13022      75665F73 
 13022      65745F70 
 13022      785F636F 
 13023              	.LASF178:
 13024 0e45 4C565F53 		.ascii	"LV_SIGNAL_DRAG_END\000"
 13024      49474E41 
 13024      4C5F4452 
 13024      41475F45 
 13024      4E4400
ARM GAS  C:\Users\pearlstl\AppData\Local\Temp\ccQFxYtd.s 			page 278


 13025              	.LASF304:
 13026 0e58 6F70615F 		.ascii	"opa_x\000"
 13026      7800
 13027              	.LASF305:
 13028 0e5e 6F70615F 		.ascii	"opa_y\000"
 13028      7900
 13029              	.LASF244:
 13030 0e64 6C765F6C 		.ascii	"lv_label_align_t\000"
 13030      6162656C 
 13030      5F616C69 
 13030      676E5F74 
 13030      00
 13031              	.LASF325:
 13032 0e75 63697263 		.ascii	"circle_area\000"
 13032      6C655F61 
 13032      72656100 
 13033              	.LASF166:
 13034 0e81 4C565F53 		.ascii	"LV_SIGNAL_PARENT_SIZE_CHG\000"
 13034      49474E41 
 13034      4C5F5041 
 13034      52454E54 
 13034      5F53495A 
 13035              	.LASF359:
 13036 0e9b 6C765F64 		.ascii	"lv_draw_rect\000"
 13036      7261775F 
 13036      72656374 
 13036      00
 13037              	.LASF174:
 13038 0ea8 4C565F53 		.ascii	"LV_SIGNAL_RELEASED\000"
 13038      49474E41 
 13038      4C5F5245 
 13038      4C454153 
 13038      454400
 13039              	.LASF69:
 13040 0ebb 6D61696E 		.ascii	"main_color\000"
 13040      5F636F6C 
 13040      6F7200
 13041              	.LASF4:
 13042 0ec6 5F5F696E 		.ascii	"__int8_t\000"
 13042      74385F74 
 13042      00
 13043              	.LASF183:
 13044 0ecf 6C765F73 		.ascii	"lv_signal_t\000"
 13044      69676E61 
 13044      6C5F7400 
 13045              	.LASF110:
 13046 0edb 73697A65 		.ascii	"size\000"
 13046      00
 13047              	.LASF15:
 13048 0ee0 6C6F6E67 		.ascii	"long long unsigned int\000"
 13048      206C6F6E 
 13048      6720756E 
 13048      7369676E 
 13048      65642069 
 13049              	.LASF21:
 13050 0ef7 75696E74 		.ascii	"uint16_t\000"
 13050      31365F74 
ARM GAS  C:\Users\pearlstl\AppData\Local\Temp\ccQFxYtd.s 			page 279


 13050      00
 13051              	.LASF89:
 13052 0f00 4C565F52 		.ascii	"LV_RES_OK\000"
 13052      45535F4F 
 13052      4B00
 13053              	.LASF101:
 13054 0f0a 6C617374 		.ascii	"last_run\000"
 13054      5F72756E 
 13054      00
 13055              	.LASF55:
 13056 0f13 6C765F63 		.ascii	"lv_color_t\000"
 13056      6F6C6F72 
 13056      5F7400
 13057              	.LASF330:
 13058 0f1e 616E6365 		.ascii	"ancestor_signal\000"
 13058      73746F72 
 13058      5F736967 
 13058      6E616C00 
 13059              	.LASF203:
 13060 0f2e 4C565F49 		.ascii	"LV_IMG_CF_UNKNOWN\000"
 13060      4D475F43 
 13060      465F554E 
 13060      4B4E4F57 
 13060      4E00
 13061              	.LASF106:
 13062 0f40 6C765F74 		.ascii	"lv_task_t\000"
 13062      61736B5F 
 13062      7400
 13063              	.LASF331:
 13064 0f4a 616E6365 		.ascii	"ancestor_design\000"
 13064      73746F72 
 13064      5F646573 
 13064      69676E00 
 13065              	.LASF239:
 13066 0f5a 6C765F69 		.ascii	"lv_img_dsc_t\000"
 13066      6D675F64 
 13066      73635F74 
 13066      00
 13067              	.LASF39:
 13068 0f67 4C565F4F 		.ascii	"LV_OPA_10\000"
 13068      50415F31 
 13068      3000
 13069              	.LASF207:
 13070 0f71 4C565F49 		.ascii	"LV_IMG_CF_TRUE_COLOR\000"
 13070      4D475F43 
 13070      465F5452 
 13070      55455F43 
 13070      4F4C4F52 
 13071              	.LASF354:
 13072 0f86 6D656D73 		.ascii	"memset\000"
 13072      657400
 13073              	.LASF100:
 13074 0f8d 70657269 		.ascii	"period\000"
 13074      6F6400
 13075              	.LASF274:
 13076 0f94 6C765F63 		.ascii	"lv_canvas_copy_buf\000"
 13076      616E7661 
ARM GAS  C:\Users\pearlstl\AppData\Local\Temp\ccQFxYtd.s 			page 280


 13076      735F636F 
 13076      70795F62 
 13076      756600
 13077              	.LASF120:
 13078 0fa7 726F756E 		.ascii	"rounder_cb\000"
 13078      6465725F 
 13078      636200
 13079              	.LASF349:
 13080 0fb2 6C765F69 		.ascii	"lv_img_buf_get_px_alpha\000"
 13080      6D675F62 
 13080      75665F67 
 13080      65745F70 
 13080      785F616C 
 13081              	.LASF7:
 13082 0fca 5F5F696E 		.ascii	"__int16_t\000"
 13082      7431365F 
 13082      7400
 13083              	.LASF338:
 13084 0fd4 6C765F6F 		.ascii	"lv_obj_get_signal_cb\000"
 13084      626A5F67 
 13084      65745F73 
 13084      69676E61 
 13084      6C5F6362 
 13085              	.LASF265:
 13086 0fe9 64657374 		.ascii	"dest\000"
 13086      00
 13087              	.LASF53:
 13088 0fee 66756C6C 		.ascii	"full\000"
 13088      00
 13089              	.LASF40:
 13090 0ff3 4C565F4F 		.ascii	"LV_OPA_20\000"
 13090      50415F32 
 13090      3000
 13091              	.LASF61:
 13092 0ffd 636F6C6F 		.ascii	"color\000"
 13092      7200
 13093              	.LASF78:
 13094 1003 6C696E65 		.ascii	"line_space\000"
 13094      5F737061 
 13094      636500
 13095              	.LASF187:
 13096 100e 786F6673 		.ascii	"xofs\000"
 13096      00
 13097              	.LASF332:
 13098 1013 6C765F6F 		.ascii	"lv_obj_handle_get_type_signal\000"
 13098      626A5F68 
 13098      616E646C 
 13098      655F6765 
 13098      745F7479 
 13099              	.LASF194:
 13100 1031 6C765F6F 		.ascii	"lv_obj_t\000"
 13100      626A5F74 
 13100      00
 13101              	.LASF126:
 13102 103a 64726976 		.ascii	"driver\000"
 13102      657200
 13103              	.LASF60:
ARM GAS  C:\Users\pearlstl\AppData\Local\Temp\ccQFxYtd.s 			page 281


 13104 1041 6C765F73 		.ascii	"lv_shadow_type_t\000"
 13104      6861646F 
 13104      775F7479 
 13104      70655F74 
 13104      00
 13105              	.LASF145:
 13106 1052 64726167 		.ascii	"drag\000"
 13106      00
 13107              	.LASF136:
 13108 1057 5F6C765F 		.ascii	"_lv_obj_t\000"
 13108      6F626A5F 
 13108      7400
 13109              	.LASF76:
 13110 1061 666F6E74 		.ascii	"font\000"
 13110      00
 13111              	.LASF77:
 13112 1066 6C657474 		.ascii	"letter_space\000"
 13112      65725F73 
 13112      70616365 
 13112      00
 13113              	.LASF41:
 13114 1073 4C565F4F 		.ascii	"LV_OPA_30\000"
 13114      50415F33 
 13114      3000
 13115              	.LASF152:
 13116 107d 62617365 		.ascii	"base_dir\000"
 13116      5F646972 
 13116      00
 13117              	.LASF364:
 13118 1086 6C765F64 		.ascii	"lv_draw_line\000"
 13118      7261775F 
 13118      6C696E65 
 13118      00
 13119              	.LASF27:
 13120 1093 626F785F 		.ascii	"box_h\000"
 13120      6800
 13121              	.LASF186:
 13122 1099 62617365 		.ascii	"base\000"
 13122      00
 13123              	.LASF26:
 13124 109e 626F785F 		.ascii	"box_w\000"
 13124      7700
 13125              	.LASF8:
 13126 10a4 73686F72 		.ascii	"short int\000"
 13126      7420696E 
 13126      7400
 13127              	.LASF34:
 13128 10ae 62617365 		.ascii	"base_line\000"
 13128      5F6C696E 
 13128      6500
 13129              	.LASF134:
 13130 10b8 696E765F 		.ascii	"inv_p\000"
 13130      7000
 13131              	.LASF95:
 13132 10be 6C765F6C 		.ascii	"lv_ll_t\000"
 13132      6C5F7400 
 13133              	.LASF322:
ARM GAS  C:\Users\pearlstl\AppData\Local\Temp\ccQFxYtd.s 			page 282


 13134 10c6 706F696E 		.ascii	"points\000"
 13134      747300
 13135              	.LASF271:
 13136 10cd 6C765F63 		.ascii	"lv_canvas_set_style\000"
 13136      616E7661 
 13136      735F7365 
 13136      745F7374 
 13136      796C6500 
 13137              	.LASF298:
 13138 10e1 785F6465 		.ascii	"x_dest\000"
 13138      737400
 13139              	.LASF42:
 13140 10e8 4C565F4F 		.ascii	"LV_OPA_40\000"
 13140      50415F34 
 13140      3000
 13141              	.LASF20:
 13142 10f2 696E7431 		.ascii	"int16_t\000"
 13142      365F7400 
 13143              	.LASF362:
 13144 10fa 6C765F69 		.ascii	"lv_img_decoder_get_info\000"
 13144      6D675F64 
 13144      65636F64 
 13144      65725F67 
 13144      65745F69 
 13145              	.LASF262:
 13146 1112 6C765F63 		.ascii	"lv_canvas_get_img\000"
 13146      616E7661 
 13146      735F6765 
 13146      745F696D 
 13146      6700
 13147              	.LASF370:
 13148 1124 433A5C55 		.ascii	"C:\\Users\\pearlstl\\Documents\\_Research\\projects"
 13148      73657273 
 13148      5C706561 
 13148      726C7374 
 13148      6C5C446F 
 13149 1152 5C74636F 		.ascii	"\\tcom_engineering\\embed_sw\\tcom_app\\tcom_app_ps"
 13149      6D5F656E 
 13149      67696E65 
 13149      6572696E 
 13149      675C656D 
 13150 1181 6F63365F 		.ascii	"oc6_lvgl6\\tcom_displ_test_psoc6.cydsn\000"
 13150      6C76676C 
 13150      365C7463 
 13150      6F6D5F64 
 13150      6973706C 
 13151              	.LASF165:
 13152 11a7 4C565F53 		.ascii	"LV_SIGNAL_CORD_CHG\000"
 13152      49474E41 
 13152      4C5F434F 
 13152      52445F43 
 13152      484700
 13153              	.LASF138:
 13154 11ba 636F6F72 		.ascii	"coords\000"
 13154      647300
 13155              	.LASF131:
 13156 11c1 7379735F 		.ascii	"sys_layer\000"
ARM GAS  C:\Users\pearlstl\AppData\Local\Temp\ccQFxYtd.s 			page 283


 13156      6C617965 
 13156      7200
 13157              	.LASF291:
 13158 11cb 78735F69 		.ascii	"xs_int\000"
 13158      6E7400
 13159              	.LASF149:
 13160 11d2 6F70615F 		.ascii	"opa_scale_en\000"
 13160      7363616C 
 13160      655F656E 
 13160      00
 13161              	.LASF73:
 13162 11df 73686164 		.ascii	"shadow\000"
 13162      6F7700
 13163              	.LASF43:
 13164 11e6 4C565F4F 		.ascii	"LV_OPA_50\000"
 13164      50415F35 
 13164      3000
 13165              	.LASF147:
 13166 11f0 64726167 		.ascii	"drag_parent\000"
 13166      5F706172 
 13166      656E7400 
 13167              	.LASF168:
 13168 11fc 4C565F53 		.ascii	"LV_SIGNAL_BASE_DIR_CHG\000"
 13168      49474E41 
 13168      4C5F4241 
 13168      53455F44 
 13168      49525F43 
 13169              	.LASF353:
 13170 1213 6D656D63 		.ascii	"memcpy\000"
 13170      707900
 13171              	.LASF275:
 13172 121a 746F5F63 		.ascii	"to_copy\000"
 13172      6F707900 
 13173              	.LASF124:
 13174 1222 6C765F64 		.ascii	"lv_disp_drv_t\000"
 13174      6973705F 
 13174      6472765F 
 13174      7400
 13175              	.LASF205:
 13176 1230 4C565F49 		.ascii	"LV_IMG_CF_RAW_ALPHA\000"
 13176      4D475F43 
 13176      465F5241 
 13176      575F414C 
 13176      50484100 
 13177              	.LASF345:
 13178 1244 6C765F6F 		.ascii	"lv_obj_set_style\000"
 13178      626A5F73 
 13178      65745F73 
 13178      74796C65 
 13178      00
 13179              	.LASF74:
 13180 1255 70616464 		.ascii	"padding\000"
 13180      696E6700 
 13181              	.LASF140:
 13182 125d 7369676E 		.ascii	"signal_cb\000"
 13182      616C5F63 
 13182      6200
ARM GAS  C:\Users\pearlstl\AppData\Local\Temp\ccQFxYtd.s 			page 284


 13183              	.LASF44:
 13184 1267 4C565F4F 		.ascii	"LV_OPA_60\000"
 13184      50415F36 
 13184      3000
 13185              	.LASF341:
 13186 1271 6C765F69 		.ascii	"lv_img_color_format_get_px_size\000"
 13186      6D675F63 
 13186      6F6C6F72 
 13186      5F666F72 
 13186      6D61745F 
 13187              	.LASF23:
 13188 1291 75696E74 		.ascii	"uint32_t\000"
 13188      33325F74 
 13188      00
 13189              	.LASF343:
 13190 129a 6C765F6F 		.ascii	"lv_obj_invalidate\000"
 13190      626A5F69 
 13190      6E76616C 
 13190      69646174 
 13190      6500
 13191              	.LASF285:
 13192 12ac 73696E6D 		.ascii	"sinma\000"
 13192      6100
 13193              	.LASF333:
 13194 12b2 6C765F69 		.ascii	"lv_img_create\000"
 13194      6D675F63 
 13194      72656174 
 13194      6500
 13195              	.LASF289:
 13196 12c0 64657374 		.ascii	"dest_width\000"
 13196      5F776964 
 13196      746800
 13197              	.LASF51:
 13198 12cb 67726565 		.ascii	"green\000"
 13198      6E00
 13199              	.LASF36:
 13200 12d1 6C765F66 		.ascii	"lv_font_t\000"
 13200      6F6E745F 
 13200      7400
 13201              	.LASF153:
 13202 12db 72657365 		.ascii	"reserved\000"
 13202      72766564 
 13202      00
 13203              	.LASF240:
 13204 12e4 4C565F4C 		.ascii	"LV_LABEL_ALIGN_LEFT\000"
 13204      4142454C 
 13204      5F414C49 
 13204      474E5F4C 
 13204      45465400 
 13205              	.LASF284:
 13206 12f8 6578745F 		.ascii	"ext_dst\000"
 13206      64737400 
 13207              	.LASF122:
 13208 1300 6D6F6E69 		.ascii	"monitor_cb\000"
 13208      746F725F 
 13208      636200
 13209              	.LASF45:
ARM GAS  C:\Users\pearlstl\AppData\Local\Temp\ccQFxYtd.s 			page 285


 13210 130b 4C565F4F 		.ascii	"LV_OPA_70\000"
 13210      50415F37 
 13210      3000
 13211              	.LASF10:
 13212 1315 73686F72 		.ascii	"short unsigned int\000"
 13212      7420756E 
 13212      7369676E 
 13212      65642069 
 13212      6E7400
 13213              	.LASF24:
 13214 1328 6C765F63 		.ascii	"lv_coord_t\000"
 13214      6F6F7264 
 13214      5F7400
 13215              	.LASF307:
 13216 1333 62675F63 		.ascii	"bg_color\000"
 13216      6F6C6F72 
 13216      00
 13217              	.LASF119:
 13218 133c 666C7573 		.ascii	"flush_cb\000"
 13218      685F6362 
 13218      00
 13219              	.LASF103:
 13220 1345 75736572 		.ascii	"user_data\000"
 13220      5F646174 
 13220      6100
 13221              	.LASF201:
 13222 134f 616C7761 		.ascii	"always_zero\000"
 13222      79735F7A 
 13222      65726F00 
 13223              	.LASF326:
 13224 135b 6C765F63 		.ascii	"lv_canvas_draw_polygon\000"
 13224      616E7661 
 13224      735F6472 
 13224      61775F70 
 13224      6F6C7967 
 13225              	.LASF72:
 13226 1372 626F7264 		.ascii	"border\000"
 13226      657200
 13227              	.LASF31:
 13228 1379 6765745F 		.ascii	"get_glyph_dsc\000"
 13228      676C7970 
 13228      685F6473 
 13228      6300
 13229              	.LASF11:
 13230 1387 5F5F696E 		.ascii	"__int32_t\000"
 13230      7433325F 
 13230      7400
 13231              	.LASF296:
 13232 1391 635F6465 		.ascii	"c_dest_xn\000"
 13232      73745F78 
 13232      6E00
 13233              	.LASF59:
 13234 139b 6C765F62 		.ascii	"lv_border_part_t\000"
 13234      6F726465 
 13234      725F7061 
 13234      72745F74 
 13234      00
ARM GAS  C:\Users\pearlstl\AppData\Local\Temp\ccQFxYtd.s 			page 286


 13235              	.LASF252:
 13236 13ac 4C565F43 		.ascii	"LV_CANVAS_STYLE_MAIN\000"
 13236      414E5641 
 13236      535F5354 
 13236      594C455F 
 13236      4D41494E 
 13237              	.LASF46:
 13238 13c1 4C565F4F 		.ascii	"LV_OPA_80\000"
 13238      50415F38 
 13238      3000
 13239              	.LASF246:
 13240 13cb 7372635F 		.ascii	"src_type\000"
 13240      74797065 
 13240      00
 13241              	.LASF191:
 13242 13d4 6F726967 		.ascii	"origo_align\000"
 13242      6F5F616C 
 13242      69676E00 
 13243              	.LASF75:
 13244 13e0 73656C5F 		.ascii	"sel_color\000"
 13244      636F6C6F 
 13244      7200
 13245              	.LASF97:
 13246 13ea 6C765F74 		.ascii	"lv_task_cb_t\000"
 13246      61736B5F 
 13246      63625F74 
 13246      00
 13247              	.LASF238:
 13248 13f7 64617461 		.ascii	"data\000"
 13248      00
 13249              	.LASF277:
 13250 13fc 746F5F63 		.ascii	"to_copy8\000"
 13250      6F707938 
 13250      00
 13251              	.LASF98:
 13252 1405 5F6C765F 		.ascii	"_lv_font_struct\000"
 13252      666F6E74 
 13252      5F737472 
 13252      75637400 
 13253              	.LASF63:
 13254 1415 70617274 		.ascii	"part\000"
 13254      00
 13255              	.LASF92:
 13256 141a 6E5F7369 		.ascii	"n_size\000"
 13256      7A6500
 13257              	.LASF297:
 13258 1421 635F6465 		.ascii	"c_dest_yn\000"
 13258      73745F79 
 13258      6E00
 13259              	.LASF160:
 13260 142b 6C765F64 		.ascii	"lv_design_cb_t\000"
 13260      65736967 
 13260      6E5F6362 
 13260      5F7400
 13261              	.LASF47:
 13262 143a 4C565F4F 		.ascii	"LV_OPA_90\000"
 13262      50415F39 
ARM GAS  C:\Users\pearlstl\AppData\Local\Temp\ccQFxYtd.s 			page 287


 13262      3000
 13263              	.LASF155:
 13264 1444 6F70615F 		.ascii	"opa_scale\000"
 13264      7363616C 
 13264      6500
 13265              		.ident	"GCC: (GNU Tools for ARM Embedded Processors) 5.4.1 20160609 (release) [ARM/embedded-5-bran
