ARM GAS  C:\Users\pearlstl\AppData\Local\Temp\ccadfCp2.s 			page 1


   1              		.syntax unified
   2              		.cpu cortex-m4
   3              		.eabi_attribute 27, 1
   4              		.fpu fpv4-sp-d16
   5              		.eabi_attribute 20, 1
   6              		.eabi_attribute 21, 1
   7              		.eabi_attribute 23, 3
   8              		.eabi_attribute 24, 1
   9              		.eabi_attribute 25, 1
  10              		.eabi_attribute 26, 1
  11              		.eabi_attribute 30, 2
  12              		.eabi_attribute 34, 1
  13              		.eabi_attribute 18, 4
  14              		.thumb
  15              		.syntax unified
  16              		.file	"lv_cpicker.c"
  17              		.text
  18              	.Ltext0:
  19              		.cfi_sections	.debug_frame
  20              		.section	.text.refr_indic_pos,"ax",%progbits
  21              		.align	2
  22              		.thumb
  23              		.thumb_func
  24              		.type	refr_indic_pos, %function
  25              	refr_indic_pos:
  26              	.LFB61:
  27              		.file 1 "..\\..\\..\\lvgl\\version_6.1.2\\lvgl\\src\\lv_objx\\lv_cpicker.c"
   1:..\..\..\lvgl\version_6.1.2\lvgl\src\lv_objx/lv_cpicker.c **** /**
   2:..\..\..\lvgl\version_6.1.2\lvgl\src\lv_objx/lv_cpicker.c ****  * @file lv_cpicker.c
   3:..\..\..\lvgl\version_6.1.2\lvgl\src\lv_objx/lv_cpicker.c ****  *
   4:..\..\..\lvgl\version_6.1.2\lvgl\src\lv_objx/lv_cpicker.c ****  * From @AloyseTech and @paulpv.
   5:..\..\..\lvgl\version_6.1.2\lvgl\src\lv_objx/lv_cpicker.c ****  */
   6:..\..\..\lvgl\version_6.1.2\lvgl\src\lv_objx/lv_cpicker.c **** 
   7:..\..\..\lvgl\version_6.1.2\lvgl\src\lv_objx/lv_cpicker.c **** /*********************
   8:..\..\..\lvgl\version_6.1.2\lvgl\src\lv_objx/lv_cpicker.c ****  *      INCLUDES
   9:..\..\..\lvgl\version_6.1.2\lvgl\src\lv_objx/lv_cpicker.c ****  *********************/
  10:..\..\..\lvgl\version_6.1.2\lvgl\src\lv_objx/lv_cpicker.c **** #include "lv_cpicker.h"
  11:..\..\..\lvgl\version_6.1.2\lvgl\src\lv_objx/lv_cpicker.c **** #if LV_USE_CPICKER != 0
  12:..\..\..\lvgl\version_6.1.2\lvgl\src\lv_objx/lv_cpicker.c **** 
  13:..\..\..\lvgl\version_6.1.2\lvgl\src\lv_objx/lv_cpicker.c **** #include "../lv_core/lv_debug.h"
  14:..\..\..\lvgl\version_6.1.2\lvgl\src\lv_objx/lv_cpicker.c **** #include "../lv_draw/lv_draw_arc.h"
  15:..\..\..\lvgl\version_6.1.2\lvgl\src\lv_objx/lv_cpicker.c **** #include "../lv_themes/lv_theme.h"
  16:..\..\..\lvgl\version_6.1.2\lvgl\src\lv_objx/lv_cpicker.c **** #include "../lv_core/lv_indev.h"
  17:..\..\..\lvgl\version_6.1.2\lvgl\src\lv_objx/lv_cpicker.c **** #include "../lv_core/lv_refr.h"
  18:..\..\..\lvgl\version_6.1.2\lvgl\src\lv_objx/lv_cpicker.c **** #include "../lv_misc/lv_math.h"
  19:..\..\..\lvgl\version_6.1.2\lvgl\src\lv_objx/lv_cpicker.c **** 
  20:..\..\..\lvgl\version_6.1.2\lvgl\src\lv_objx/lv_cpicker.c **** /*********************
  21:..\..\..\lvgl\version_6.1.2\lvgl\src\lv_objx/lv_cpicker.c ****  *      DEFINES
  22:..\..\..\lvgl\version_6.1.2\lvgl\src\lv_objx/lv_cpicker.c ****  *********************/
  23:..\..\..\lvgl\version_6.1.2\lvgl\src\lv_objx/lv_cpicker.c **** #define LV_OBJX_NAME "lv_cpicker"
  24:..\..\..\lvgl\version_6.1.2\lvgl\src\lv_objx/lv_cpicker.c **** 
  25:..\..\..\lvgl\version_6.1.2\lvgl\src\lv_objx/lv_cpicker.c **** #ifndef LV_CPICKER_DEF_TYPE
  26:..\..\..\lvgl\version_6.1.2\lvgl\src\lv_objx/lv_cpicker.c **** #define LV_CPICKER_DEF_TYPE LV_CPICKER_TYPE_DISC
  27:..\..\..\lvgl\version_6.1.2\lvgl\src\lv_objx/lv_cpicker.c **** #endif
  28:..\..\..\lvgl\version_6.1.2\lvgl\src\lv_objx/lv_cpicker.c **** 
  29:..\..\..\lvgl\version_6.1.2\lvgl\src\lv_objx/lv_cpicker.c **** #ifndef LV_CPICKER_DEF_HUE
  30:..\..\..\lvgl\version_6.1.2\lvgl\src\lv_objx/lv_cpicker.c **** #define LV_CPICKER_DEF_HUE 0
ARM GAS  C:\Users\pearlstl\AppData\Local\Temp\ccadfCp2.s 			page 2


  31:..\..\..\lvgl\version_6.1.2\lvgl\src\lv_objx/lv_cpicker.c **** #endif
  32:..\..\..\lvgl\version_6.1.2\lvgl\src\lv_objx/lv_cpicker.c **** 
  33:..\..\..\lvgl\version_6.1.2\lvgl\src\lv_objx/lv_cpicker.c **** #ifndef LV_CPICKER_DEF_SATURATION
  34:..\..\..\lvgl\version_6.1.2\lvgl\src\lv_objx/lv_cpicker.c **** #define LV_CPICKER_DEF_SATURATION 100
  35:..\..\..\lvgl\version_6.1.2\lvgl\src\lv_objx/lv_cpicker.c **** #endif
  36:..\..\..\lvgl\version_6.1.2\lvgl\src\lv_objx/lv_cpicker.c **** 
  37:..\..\..\lvgl\version_6.1.2\lvgl\src\lv_objx/lv_cpicker.c **** #ifndef LV_CPICKER_DEF_VALUE
  38:..\..\..\lvgl\version_6.1.2\lvgl\src\lv_objx/lv_cpicker.c **** #define LV_CPICKER_DEF_VALUE 100
  39:..\..\..\lvgl\version_6.1.2\lvgl\src\lv_objx/lv_cpicker.c **** #endif
  40:..\..\..\lvgl\version_6.1.2\lvgl\src\lv_objx/lv_cpicker.c **** 
  41:..\..\..\lvgl\version_6.1.2\lvgl\src\lv_objx/lv_cpicker.c **** #ifndef LV_CPICKER_DEF_HSV
  42:..\..\..\lvgl\version_6.1.2\lvgl\src\lv_objx/lv_cpicker.c **** #define LV_CPICKER_DEF_HSV ((lv_color_hsv_t){LV_CPICKER_DEF_HUE, LV_CPICKER_DEF_SATURATION, LV_CPIC
  43:..\..\..\lvgl\version_6.1.2\lvgl\src\lv_objx/lv_cpicker.c **** #endif
  44:..\..\..\lvgl\version_6.1.2\lvgl\src\lv_objx/lv_cpicker.c **** 
  45:..\..\..\lvgl\version_6.1.2\lvgl\src\lv_objx/lv_cpicker.c **** #ifndef LV_CPICKER_DEF_QF /*quantization factor*/
  46:..\..\..\lvgl\version_6.1.2\lvgl\src\lv_objx/lv_cpicker.c **** #define LV_CPICKER_DEF_QF 3
  47:..\..\..\lvgl\version_6.1.2\lvgl\src\lv_objx/lv_cpicker.c **** #endif
  48:..\..\..\lvgl\version_6.1.2\lvgl\src\lv_objx/lv_cpicker.c **** 
  49:..\..\..\lvgl\version_6.1.2\lvgl\src\lv_objx/lv_cpicker.c **** #define TRI_OFFSET 2
  50:..\..\..\lvgl\version_6.1.2\lvgl\src\lv_objx/lv_cpicker.c **** 
  51:..\..\..\lvgl\version_6.1.2\lvgl\src\lv_objx/lv_cpicker.c **** /**********************
  52:..\..\..\lvgl\version_6.1.2\lvgl\src\lv_objx/lv_cpicker.c ****  *      TYPEDEFS
  53:..\..\..\lvgl\version_6.1.2\lvgl\src\lv_objx/lv_cpicker.c ****  **********************/
  54:..\..\..\lvgl\version_6.1.2\lvgl\src\lv_objx/lv_cpicker.c **** 
  55:..\..\..\lvgl\version_6.1.2\lvgl\src\lv_objx/lv_cpicker.c **** /**********************
  56:..\..\..\lvgl\version_6.1.2\lvgl\src\lv_objx/lv_cpicker.c ****  *  STATIC PROTOTYPES
  57:..\..\..\lvgl\version_6.1.2\lvgl\src\lv_objx/lv_cpicker.c ****  **********************/
  58:..\..\..\lvgl\version_6.1.2\lvgl\src\lv_objx/lv_cpicker.c **** static bool lv_cpicker_design(lv_obj_t * cpicker, const lv_area_t * mask, lv_design_mode_t mode);
  59:..\..\..\lvgl\version_6.1.2\lvgl\src\lv_objx/lv_cpicker.c **** static lv_res_t lv_cpicker_signal(lv_obj_t * cpicker, lv_signal_t sign, void * param);
  60:..\..\..\lvgl\version_6.1.2\lvgl\src\lv_objx/lv_cpicker.c **** 
  61:..\..\..\lvgl\version_6.1.2\lvgl\src\lv_objx/lv_cpicker.c **** static void draw_rect_grad(lv_obj_t * cpicker, const lv_area_t * mask, lv_opa_t opa_scale);
  62:..\..\..\lvgl\version_6.1.2\lvgl\src\lv_objx/lv_cpicker.c **** static void draw_disc_grad(lv_obj_t * cpicker, const lv_area_t * mask, lv_opa_t opa_scale);
  63:..\..\..\lvgl\version_6.1.2\lvgl\src\lv_objx/lv_cpicker.c **** static void draw_indic(lv_obj_t * cpicker, const lv_area_t * mask, lv_opa_t opa_scale);
  64:..\..\..\lvgl\version_6.1.2\lvgl\src\lv_objx/lv_cpicker.c **** static void invalidate_indic(lv_obj_t * cpicker);
  65:..\..\..\lvgl\version_6.1.2\lvgl\src\lv_objx/lv_cpicker.c **** static lv_area_t get_indic_area(lv_obj_t * cpicker);
  66:..\..\..\lvgl\version_6.1.2\lvgl\src\lv_objx/lv_cpicker.c **** 
  67:..\..\..\lvgl\version_6.1.2\lvgl\src\lv_objx/lv_cpicker.c **** static void next_color_mode(lv_obj_t * cpicker);
  68:..\..\..\lvgl\version_6.1.2\lvgl\src\lv_objx/lv_cpicker.c **** static lv_res_t double_click_reset(lv_obj_t * cpicker);
  69:..\..\..\lvgl\version_6.1.2\lvgl\src\lv_objx/lv_cpicker.c **** static void refr_indic_pos(lv_obj_t * cpicker);
  70:..\..\..\lvgl\version_6.1.2\lvgl\src\lv_objx/lv_cpicker.c **** static lv_color_t angle_to_mode_color(lv_obj_t * cpicker, uint16_t angle);
  71:..\..\..\lvgl\version_6.1.2\lvgl\src\lv_objx/lv_cpicker.c **** static uint16_t get_angle(lv_obj_t * cpicker);
  72:..\..\..\lvgl\version_6.1.2\lvgl\src\lv_objx/lv_cpicker.c **** 
  73:..\..\..\lvgl\version_6.1.2\lvgl\src\lv_objx/lv_cpicker.c **** /**********************
  74:..\..\..\lvgl\version_6.1.2\lvgl\src\lv_objx/lv_cpicker.c ****  *  STATIC VARIABLES
  75:..\..\..\lvgl\version_6.1.2\lvgl\src\lv_objx/lv_cpicker.c ****  **********************/
  76:..\..\..\lvgl\version_6.1.2\lvgl\src\lv_objx/lv_cpicker.c **** static lv_signal_cb_t ancestor_signal;
  77:..\..\..\lvgl\version_6.1.2\lvgl\src\lv_objx/lv_cpicker.c **** static lv_design_cb_t ancestor_design;
  78:..\..\..\lvgl\version_6.1.2\lvgl\src\lv_objx/lv_cpicker.c **** 
  79:..\..\..\lvgl\version_6.1.2\lvgl\src\lv_objx/lv_cpicker.c **** /**********************
  80:..\..\..\lvgl\version_6.1.2\lvgl\src\lv_objx/lv_cpicker.c ****  *      MACROS
  81:..\..\..\lvgl\version_6.1.2\lvgl\src\lv_objx/lv_cpicker.c ****  **********************/
  82:..\..\..\lvgl\version_6.1.2\lvgl\src\lv_objx/lv_cpicker.c **** 
  83:..\..\..\lvgl\version_6.1.2\lvgl\src\lv_objx/lv_cpicker.c **** /**********************
  84:..\..\..\lvgl\version_6.1.2\lvgl\src\lv_objx/lv_cpicker.c ****  *   GLOBAL FUNCTIONS
  85:..\..\..\lvgl\version_6.1.2\lvgl\src\lv_objx/lv_cpicker.c ****  **********************/
  86:..\..\..\lvgl\version_6.1.2\lvgl\src\lv_objx/lv_cpicker.c **** 
  87:..\..\..\lvgl\version_6.1.2\lvgl\src\lv_objx/lv_cpicker.c **** /**
ARM GAS  C:\Users\pearlstl\AppData\Local\Temp\ccadfCp2.s 			page 3


  88:..\..\..\lvgl\version_6.1.2\lvgl\src\lv_objx/lv_cpicker.c ****  * Create a color_picker object
  89:..\..\..\lvgl\version_6.1.2\lvgl\src\lv_objx/lv_cpicker.c ****  * @param par pointer to an object, it will be the parent of the new color_picker
  90:..\..\..\lvgl\version_6.1.2\lvgl\src\lv_objx/lv_cpicker.c ****  * @param copy pointer to a color_picker object, if not NULL then the new object will be copied fro
  91:..\..\..\lvgl\version_6.1.2\lvgl\src\lv_objx/lv_cpicker.c ****  * @return pointer to the created color_picker
  92:..\..\..\lvgl\version_6.1.2\lvgl\src\lv_objx/lv_cpicker.c ****  */
  93:..\..\..\lvgl\version_6.1.2\lvgl\src\lv_objx/lv_cpicker.c **** lv_obj_t * lv_cpicker_create(lv_obj_t * par, const lv_obj_t * copy)
  94:..\..\..\lvgl\version_6.1.2\lvgl\src\lv_objx/lv_cpicker.c **** {
  95:..\..\..\lvgl\version_6.1.2\lvgl\src\lv_objx/lv_cpicker.c ****     LV_LOG_TRACE("color_picker create started");
  96:..\..\..\lvgl\version_6.1.2\lvgl\src\lv_objx/lv_cpicker.c **** 
  97:..\..\..\lvgl\version_6.1.2\lvgl\src\lv_objx/lv_cpicker.c ****     lv_obj_t * new_cpicker = lv_obj_create(par, copy);
  98:..\..\..\lvgl\version_6.1.2\lvgl\src\lv_objx/lv_cpicker.c ****     LV_ASSERT_MEM(new_cpicker);
  99:..\..\..\lvgl\version_6.1.2\lvgl\src\lv_objx/lv_cpicker.c ****     if(new_cpicker == NULL) return NULL;
 100:..\..\..\lvgl\version_6.1.2\lvgl\src\lv_objx/lv_cpicker.c **** 
 101:..\..\..\lvgl\version_6.1.2\lvgl\src\lv_objx/lv_cpicker.c ****     if(ancestor_signal == NULL) ancestor_signal = lv_obj_get_signal_cb(new_cpicker);
 102:..\..\..\lvgl\version_6.1.2\lvgl\src\lv_objx/lv_cpicker.c ****     if(ancestor_design == NULL) ancestor_design = lv_obj_get_design_cb(new_cpicker);
 103:..\..\..\lvgl\version_6.1.2\lvgl\src\lv_objx/lv_cpicker.c **** 
 104:..\..\..\lvgl\version_6.1.2\lvgl\src\lv_objx/lv_cpicker.c ****     /*Allocate the extended data*/
 105:..\..\..\lvgl\version_6.1.2\lvgl\src\lv_objx/lv_cpicker.c ****     lv_cpicker_ext_t * ext = lv_obj_allocate_ext_attr(new_cpicker, sizeof(lv_cpicker_ext_t));
 106:..\..\..\lvgl\version_6.1.2\lvgl\src\lv_objx/lv_cpicker.c ****     LV_ASSERT_MEM(ext);
 107:..\..\..\lvgl\version_6.1.2\lvgl\src\lv_objx/lv_cpicker.c ****     if(ext == NULL) return NULL;
 108:..\..\..\lvgl\version_6.1.2\lvgl\src\lv_objx/lv_cpicker.c **** 
 109:..\..\..\lvgl\version_6.1.2\lvgl\src\lv_objx/lv_cpicker.c ****     /*Initialize the allocated 'ext' */
 110:..\..\..\lvgl\version_6.1.2\lvgl\src\lv_objx/lv_cpicker.c ****     ext->type = LV_CPICKER_DEF_TYPE;
 111:..\..\..\lvgl\version_6.1.2\lvgl\src\lv_objx/lv_cpicker.c ****     ext->hsv = LV_CPICKER_DEF_HSV;
 112:..\..\..\lvgl\version_6.1.2\lvgl\src\lv_objx/lv_cpicker.c ****     ext->indic.style = &lv_style_plain;
 113:..\..\..\lvgl\version_6.1.2\lvgl\src\lv_objx/lv_cpicker.c ****     ext->indic.colored = 0;
 114:..\..\..\lvgl\version_6.1.2\lvgl\src\lv_objx/lv_cpicker.c ****     ext->color_mode = LV_CPICKER_COLOR_MODE_HUE;
 115:..\..\..\lvgl\version_6.1.2\lvgl\src\lv_objx/lv_cpicker.c ****     ext->color_mode_fixed = 0;
 116:..\..\..\lvgl\version_6.1.2\lvgl\src\lv_objx/lv_cpicker.c ****     ext->preview = 0;
 117:..\..\..\lvgl\version_6.1.2\lvgl\src\lv_objx/lv_cpicker.c ****     ext->last_click_time = 0;
 118:..\..\..\lvgl\version_6.1.2\lvgl\src\lv_objx/lv_cpicker.c ****     ext->last_change_time = 0;
 119:..\..\..\lvgl\version_6.1.2\lvgl\src\lv_objx/lv_cpicker.c **** 
 120:..\..\..\lvgl\version_6.1.2\lvgl\src\lv_objx/lv_cpicker.c ****     /*The signal and design functions are not copied so set them here*/
 121:..\..\..\lvgl\version_6.1.2\lvgl\src\lv_objx/lv_cpicker.c ****     lv_obj_set_signal_cb(new_cpicker, lv_cpicker_signal);
 122:..\..\..\lvgl\version_6.1.2\lvgl\src\lv_objx/lv_cpicker.c ****     lv_obj_set_design_cb(new_cpicker, lv_cpicker_design);
 123:..\..\..\lvgl\version_6.1.2\lvgl\src\lv_objx/lv_cpicker.c **** 
 124:..\..\..\lvgl\version_6.1.2\lvgl\src\lv_objx/lv_cpicker.c ****     /*If no copy do the basic initialization*/
 125:..\..\..\lvgl\version_6.1.2\lvgl\src\lv_objx/lv_cpicker.c ****     if(copy == NULL) {
 126:..\..\..\lvgl\version_6.1.2\lvgl\src\lv_objx/lv_cpicker.c ****         lv_obj_set_size(new_cpicker, LV_DPI * 2, LV_DPI * 2);
 127:..\..\..\lvgl\version_6.1.2\lvgl\src\lv_objx/lv_cpicker.c ****         lv_obj_set_protect(new_cpicker, LV_PROTECT_PRESS_LOST);
 128:..\..\..\lvgl\version_6.1.2\lvgl\src\lv_objx/lv_cpicker.c ****         lv_theme_t * th = lv_theme_get_current();
 129:..\..\..\lvgl\version_6.1.2\lvgl\src\lv_objx/lv_cpicker.c ****         if(th) {
 130:..\..\..\lvgl\version_6.1.2\lvgl\src\lv_objx/lv_cpicker.c ****             lv_cpicker_set_style(new_cpicker, LV_CPICKER_STYLE_MAIN, th->style.bg);
 131:..\..\..\lvgl\version_6.1.2\lvgl\src\lv_objx/lv_cpicker.c ****         } else {
 132:..\..\..\lvgl\version_6.1.2\lvgl\src\lv_objx/lv_cpicker.c ****             lv_cpicker_set_style(new_cpicker, LV_CPICKER_STYLE_MAIN, &lv_style_plain);
 133:..\..\..\lvgl\version_6.1.2\lvgl\src\lv_objx/lv_cpicker.c ****         }
 134:..\..\..\lvgl\version_6.1.2\lvgl\src\lv_objx/lv_cpicker.c ****     }
 135:..\..\..\lvgl\version_6.1.2\lvgl\src\lv_objx/lv_cpicker.c ****     /*Copy 'copy'*/
 136:..\..\..\lvgl\version_6.1.2\lvgl\src\lv_objx/lv_cpicker.c ****     else {
 137:..\..\..\lvgl\version_6.1.2\lvgl\src\lv_objx/lv_cpicker.c ****         lv_cpicker_ext_t * copy_ext = lv_obj_get_ext_attr(copy);
 138:..\..\..\lvgl\version_6.1.2\lvgl\src\lv_objx/lv_cpicker.c ****         ext->type = copy_ext->type;
 139:..\..\..\lvgl\version_6.1.2\lvgl\src\lv_objx/lv_cpicker.c ****         ext->color_mode = copy_ext->color_mode;
 140:..\..\..\lvgl\version_6.1.2\lvgl\src\lv_objx/lv_cpicker.c ****         ext->color_mode_fixed = copy_ext->color_mode_fixed;
 141:..\..\..\lvgl\version_6.1.2\lvgl\src\lv_objx/lv_cpicker.c ****         ext->preview = copy_ext->preview;
 142:..\..\..\lvgl\version_6.1.2\lvgl\src\lv_objx/lv_cpicker.c ****         ext->hsv = copy_ext->hsv;
 143:..\..\..\lvgl\version_6.1.2\lvgl\src\lv_objx/lv_cpicker.c ****         ext->indic.colored = copy_ext->indic.colored;
 144:..\..\..\lvgl\version_6.1.2\lvgl\src\lv_objx/lv_cpicker.c ****         ext->indic.style = copy_ext->indic.style;
ARM GAS  C:\Users\pearlstl\AppData\Local\Temp\ccadfCp2.s 			page 4


 145:..\..\..\lvgl\version_6.1.2\lvgl\src\lv_objx/lv_cpicker.c **** 
 146:..\..\..\lvgl\version_6.1.2\lvgl\src\lv_objx/lv_cpicker.c ****         /*Refresh the style with new signal function*/
 147:..\..\..\lvgl\version_6.1.2\lvgl\src\lv_objx/lv_cpicker.c ****         lv_obj_refresh_style(new_cpicker);
 148:..\..\..\lvgl\version_6.1.2\lvgl\src\lv_objx/lv_cpicker.c ****     }
 149:..\..\..\lvgl\version_6.1.2\lvgl\src\lv_objx/lv_cpicker.c ****     refr_indic_pos(new_cpicker);
 150:..\..\..\lvgl\version_6.1.2\lvgl\src\lv_objx/lv_cpicker.c **** 
 151:..\..\..\lvgl\version_6.1.2\lvgl\src\lv_objx/lv_cpicker.c ****     LV_LOG_INFO("color_picker created");
 152:..\..\..\lvgl\version_6.1.2\lvgl\src\lv_objx/lv_cpicker.c **** 
 153:..\..\..\lvgl\version_6.1.2\lvgl\src\lv_objx/lv_cpicker.c ****     return new_cpicker;
 154:..\..\..\lvgl\version_6.1.2\lvgl\src\lv_objx/lv_cpicker.c **** }
 155:..\..\..\lvgl\version_6.1.2\lvgl\src\lv_objx/lv_cpicker.c **** 
 156:..\..\..\lvgl\version_6.1.2\lvgl\src\lv_objx/lv_cpicker.c **** /*=====================
 157:..\..\..\lvgl\version_6.1.2\lvgl\src\lv_objx/lv_cpicker.c ****  * Setter functions
 158:..\..\..\lvgl\version_6.1.2\lvgl\src\lv_objx/lv_cpicker.c ****  *====================*/
 159:..\..\..\lvgl\version_6.1.2\lvgl\src\lv_objx/lv_cpicker.c **** 
 160:..\..\..\lvgl\version_6.1.2\lvgl\src\lv_objx/lv_cpicker.c **** /**
 161:..\..\..\lvgl\version_6.1.2\lvgl\src\lv_objx/lv_cpicker.c ****  * Set a new type for a cpicker
 162:..\..\..\lvgl\version_6.1.2\lvgl\src\lv_objx/lv_cpicker.c ****  * @param cpicker pointer to a cpicker object
 163:..\..\..\lvgl\version_6.1.2\lvgl\src\lv_objx/lv_cpicker.c ****  * @param type new type of the cpicker (from 'lv_cpicker_type_t' enum)
 164:..\..\..\lvgl\version_6.1.2\lvgl\src\lv_objx/lv_cpicker.c ****  */
 165:..\..\..\lvgl\version_6.1.2\lvgl\src\lv_objx/lv_cpicker.c **** void lv_cpicker_set_type(lv_obj_t * cpicker, lv_cpicker_type_t type)
 166:..\..\..\lvgl\version_6.1.2\lvgl\src\lv_objx/lv_cpicker.c **** {
 167:..\..\..\lvgl\version_6.1.2\lvgl\src\lv_objx/lv_cpicker.c ****     LV_ASSERT_OBJ(cpicker, LV_OBJX_NAME);
 168:..\..\..\lvgl\version_6.1.2\lvgl\src\lv_objx/lv_cpicker.c **** 
 169:..\..\..\lvgl\version_6.1.2\lvgl\src\lv_objx/lv_cpicker.c ****     lv_cpicker_ext_t * ext = lv_obj_get_ext_attr(cpicker);
 170:..\..\..\lvgl\version_6.1.2\lvgl\src\lv_objx/lv_cpicker.c ****     if(ext->type == type) return;
 171:..\..\..\lvgl\version_6.1.2\lvgl\src\lv_objx/lv_cpicker.c **** 
 172:..\..\..\lvgl\version_6.1.2\lvgl\src\lv_objx/lv_cpicker.c ****     ext->type = type;
 173:..\..\..\lvgl\version_6.1.2\lvgl\src\lv_objx/lv_cpicker.c ****     lv_obj_refresh_ext_draw_pad(cpicker);
 174:..\..\..\lvgl\version_6.1.2\lvgl\src\lv_objx/lv_cpicker.c ****     refr_indic_pos(cpicker);
 175:..\..\..\lvgl\version_6.1.2\lvgl\src\lv_objx/lv_cpicker.c **** 
 176:..\..\..\lvgl\version_6.1.2\lvgl\src\lv_objx/lv_cpicker.c ****     lv_obj_invalidate(cpicker);
 177:..\..\..\lvgl\version_6.1.2\lvgl\src\lv_objx/lv_cpicker.c **** }
 178:..\..\..\lvgl\version_6.1.2\lvgl\src\lv_objx/lv_cpicker.c **** 
 179:..\..\..\lvgl\version_6.1.2\lvgl\src\lv_objx/lv_cpicker.c **** /**
 180:..\..\..\lvgl\version_6.1.2\lvgl\src\lv_objx/lv_cpicker.c ****  * Set a style of a colorpicker.
 181:..\..\..\lvgl\version_6.1.2\lvgl\src\lv_objx/lv_cpicker.c ****  * @param cpicker pointer to colorpicker object
 182:..\..\..\lvgl\version_6.1.2\lvgl\src\lv_objx/lv_cpicker.c ****  * @param type which style should be set
 183:..\..\..\lvgl\version_6.1.2\lvgl\src\lv_objx/lv_cpicker.c ****  * @param style pointer to a style
 184:..\..\..\lvgl\version_6.1.2\lvgl\src\lv_objx/lv_cpicker.c ****  */
 185:..\..\..\lvgl\version_6.1.2\lvgl\src\lv_objx/lv_cpicker.c **** void lv_cpicker_set_style(lv_obj_t * cpicker, lv_cpicker_style_t type, lv_style_t * style)
 186:..\..\..\lvgl\version_6.1.2\lvgl\src\lv_objx/lv_cpicker.c **** {
 187:..\..\..\lvgl\version_6.1.2\lvgl\src\lv_objx/lv_cpicker.c ****     LV_ASSERT_OBJ(cpicker, LV_OBJX_NAME);
 188:..\..\..\lvgl\version_6.1.2\lvgl\src\lv_objx/lv_cpicker.c **** 
 189:..\..\..\lvgl\version_6.1.2\lvgl\src\lv_objx/lv_cpicker.c ****     lv_cpicker_ext_t * ext = lv_obj_get_ext_attr(cpicker);
 190:..\..\..\lvgl\version_6.1.2\lvgl\src\lv_objx/lv_cpicker.c **** 
 191:..\..\..\lvgl\version_6.1.2\lvgl\src\lv_objx/lv_cpicker.c ****     switch(type) {
 192:..\..\..\lvgl\version_6.1.2\lvgl\src\lv_objx/lv_cpicker.c ****     case LV_CPICKER_STYLE_MAIN:
 193:..\..\..\lvgl\version_6.1.2\lvgl\src\lv_objx/lv_cpicker.c ****         lv_obj_set_style(cpicker, style);
 194:..\..\..\lvgl\version_6.1.2\lvgl\src\lv_objx/lv_cpicker.c ****         break;
 195:..\..\..\lvgl\version_6.1.2\lvgl\src\lv_objx/lv_cpicker.c ****     case LV_CPICKER_STYLE_INDICATOR:
 196:..\..\..\lvgl\version_6.1.2\lvgl\src\lv_objx/lv_cpicker.c ****         ext->indic.style = style;
 197:..\..\..\lvgl\version_6.1.2\lvgl\src\lv_objx/lv_cpicker.c ****         lv_obj_invalidate(cpicker);
 198:..\..\..\lvgl\version_6.1.2\lvgl\src\lv_objx/lv_cpicker.c ****         break;
 199:..\..\..\lvgl\version_6.1.2\lvgl\src\lv_objx/lv_cpicker.c ****     }
 200:..\..\..\lvgl\version_6.1.2\lvgl\src\lv_objx/lv_cpicker.c **** }
 201:..\..\..\lvgl\version_6.1.2\lvgl\src\lv_objx/lv_cpicker.c **** 
ARM GAS  C:\Users\pearlstl\AppData\Local\Temp\ccadfCp2.s 			page 5


 202:..\..\..\lvgl\version_6.1.2\lvgl\src\lv_objx/lv_cpicker.c **** /**
 203:..\..\..\lvgl\version_6.1.2\lvgl\src\lv_objx/lv_cpicker.c ****  * Set the current hue of a colorpicker.
 204:..\..\..\lvgl\version_6.1.2\lvgl\src\lv_objx/lv_cpicker.c ****  * @param cpicker pointer to colorpicker object
 205:..\..\..\lvgl\version_6.1.2\lvgl\src\lv_objx/lv_cpicker.c ****  * @param hue current selected hue [0..360]
 206:..\..\..\lvgl\version_6.1.2\lvgl\src\lv_objx/lv_cpicker.c ****  * @return true if changed, otherwise false
 207:..\..\..\lvgl\version_6.1.2\lvgl\src\lv_objx/lv_cpicker.c ****  */
 208:..\..\..\lvgl\version_6.1.2\lvgl\src\lv_objx/lv_cpicker.c **** bool lv_cpicker_set_hue(lv_obj_t * cpicker, uint16_t hue)
 209:..\..\..\lvgl\version_6.1.2\lvgl\src\lv_objx/lv_cpicker.c **** {
 210:..\..\..\lvgl\version_6.1.2\lvgl\src\lv_objx/lv_cpicker.c ****     lv_color_hsv_t hsv = lv_cpicker_get_hsv(cpicker);
 211:..\..\..\lvgl\version_6.1.2\lvgl\src\lv_objx/lv_cpicker.c ****     hsv.h = hue;
 212:..\..\..\lvgl\version_6.1.2\lvgl\src\lv_objx/lv_cpicker.c ****     return lv_cpicker_set_hsv(cpicker, hsv);
 213:..\..\..\lvgl\version_6.1.2\lvgl\src\lv_objx/lv_cpicker.c **** }
 214:..\..\..\lvgl\version_6.1.2\lvgl\src\lv_objx/lv_cpicker.c **** 
 215:..\..\..\lvgl\version_6.1.2\lvgl\src\lv_objx/lv_cpicker.c **** /**
 216:..\..\..\lvgl\version_6.1.2\lvgl\src\lv_objx/lv_cpicker.c ****  * Set the current saturation of a colorpicker.
 217:..\..\..\lvgl\version_6.1.2\lvgl\src\lv_objx/lv_cpicker.c ****  * @param cpicker pointer to colorpicker object
 218:..\..\..\lvgl\version_6.1.2\lvgl\src\lv_objx/lv_cpicker.c ****  * @param saturation current selected saturation [0..100]
 219:..\..\..\lvgl\version_6.1.2\lvgl\src\lv_objx/lv_cpicker.c ****  * @return true if changed, otherwise false
 220:..\..\..\lvgl\version_6.1.2\lvgl\src\lv_objx/lv_cpicker.c ****  */
 221:..\..\..\lvgl\version_6.1.2\lvgl\src\lv_objx/lv_cpicker.c **** bool lv_cpicker_set_saturation(lv_obj_t * cpicker, uint8_t saturation)
 222:..\..\..\lvgl\version_6.1.2\lvgl\src\lv_objx/lv_cpicker.c **** {
 223:..\..\..\lvgl\version_6.1.2\lvgl\src\lv_objx/lv_cpicker.c ****     lv_color_hsv_t hsv = lv_cpicker_get_hsv(cpicker);
 224:..\..\..\lvgl\version_6.1.2\lvgl\src\lv_objx/lv_cpicker.c ****     hsv.s = saturation;
 225:..\..\..\lvgl\version_6.1.2\lvgl\src\lv_objx/lv_cpicker.c ****     return lv_cpicker_set_hsv(cpicker, hsv);
 226:..\..\..\lvgl\version_6.1.2\lvgl\src\lv_objx/lv_cpicker.c **** }
 227:..\..\..\lvgl\version_6.1.2\lvgl\src\lv_objx/lv_cpicker.c **** 
 228:..\..\..\lvgl\version_6.1.2\lvgl\src\lv_objx/lv_cpicker.c **** /**
 229:..\..\..\lvgl\version_6.1.2\lvgl\src\lv_objx/lv_cpicker.c ****  * Set the current value of a colorpicker.
 230:..\..\..\lvgl\version_6.1.2\lvgl\src\lv_objx/lv_cpicker.c ****  * @param cpicker pointer to colorpicker object
 231:..\..\..\lvgl\version_6.1.2\lvgl\src\lv_objx/lv_cpicker.c ****  * @param val current selected value [0..100]
 232:..\..\..\lvgl\version_6.1.2\lvgl\src\lv_objx/lv_cpicker.c ****  * @return true if changed, otherwise false
 233:..\..\..\lvgl\version_6.1.2\lvgl\src\lv_objx/lv_cpicker.c ****  */
 234:..\..\..\lvgl\version_6.1.2\lvgl\src\lv_objx/lv_cpicker.c **** bool lv_cpicker_set_value(lv_obj_t * cpicker, uint8_t val)
 235:..\..\..\lvgl\version_6.1.2\lvgl\src\lv_objx/lv_cpicker.c **** {
 236:..\..\..\lvgl\version_6.1.2\lvgl\src\lv_objx/lv_cpicker.c ****     lv_color_hsv_t hsv = lv_cpicker_get_hsv(cpicker);
 237:..\..\..\lvgl\version_6.1.2\lvgl\src\lv_objx/lv_cpicker.c ****     hsv.v = val;
 238:..\..\..\lvgl\version_6.1.2\lvgl\src\lv_objx/lv_cpicker.c ****     return lv_cpicker_set_hsv(cpicker, hsv);
 239:..\..\..\lvgl\version_6.1.2\lvgl\src\lv_objx/lv_cpicker.c **** }
 240:..\..\..\lvgl\version_6.1.2\lvgl\src\lv_objx/lv_cpicker.c **** 
 241:..\..\..\lvgl\version_6.1.2\lvgl\src\lv_objx/lv_cpicker.c **** /**
 242:..\..\..\lvgl\version_6.1.2\lvgl\src\lv_objx/lv_cpicker.c ****  * Set the current hsv of a colorpicker.
 243:..\..\..\lvgl\version_6.1.2\lvgl\src\lv_objx/lv_cpicker.c ****  * @param cpicker pointer to colorpicker object
 244:..\..\..\lvgl\version_6.1.2\lvgl\src\lv_objx/lv_cpicker.c ****  * @param color current selected hsv
 245:..\..\..\lvgl\version_6.1.2\lvgl\src\lv_objx/lv_cpicker.c ****  * @return true if changed, otherwise false
 246:..\..\..\lvgl\version_6.1.2\lvgl\src\lv_objx/lv_cpicker.c ****  */
 247:..\..\..\lvgl\version_6.1.2\lvgl\src\lv_objx/lv_cpicker.c **** bool lv_cpicker_set_hsv(lv_obj_t * cpicker, lv_color_hsv_t hsv)
 248:..\..\..\lvgl\version_6.1.2\lvgl\src\lv_objx/lv_cpicker.c **** {
 249:..\..\..\lvgl\version_6.1.2\lvgl\src\lv_objx/lv_cpicker.c ****     LV_ASSERT_OBJ(cpicker, LV_OBJX_NAME);
 250:..\..\..\lvgl\version_6.1.2\lvgl\src\lv_objx/lv_cpicker.c **** 
 251:..\..\..\lvgl\version_6.1.2\lvgl\src\lv_objx/lv_cpicker.c ****     if (hsv.h > 360) hsv.h %= 360;
 252:..\..\..\lvgl\version_6.1.2\lvgl\src\lv_objx/lv_cpicker.c ****     if (hsv.s > 100) hsv.s = 100;
 253:..\..\..\lvgl\version_6.1.2\lvgl\src\lv_objx/lv_cpicker.c ****     if (hsv.v > 100) hsv.v = 100;
 254:..\..\..\lvgl\version_6.1.2\lvgl\src\lv_objx/lv_cpicker.c **** 
 255:..\..\..\lvgl\version_6.1.2\lvgl\src\lv_objx/lv_cpicker.c ****     lv_cpicker_ext_t * ext = lv_obj_get_ext_attr(cpicker);
 256:..\..\..\lvgl\version_6.1.2\lvgl\src\lv_objx/lv_cpicker.c **** 
 257:..\..\..\lvgl\version_6.1.2\lvgl\src\lv_objx/lv_cpicker.c ****     if (ext->hsv.h == hsv.h && ext->hsv.s == hsv.s && ext->hsv.v == hsv.v) return false;
 258:..\..\..\lvgl\version_6.1.2\lvgl\src\lv_objx/lv_cpicker.c **** 
ARM GAS  C:\Users\pearlstl\AppData\Local\Temp\ccadfCp2.s 			page 6


 259:..\..\..\lvgl\version_6.1.2\lvgl\src\lv_objx/lv_cpicker.c ****     ext->hsv = hsv;
 260:..\..\..\lvgl\version_6.1.2\lvgl\src\lv_objx/lv_cpicker.c **** 
 261:..\..\..\lvgl\version_6.1.2\lvgl\src\lv_objx/lv_cpicker.c ****     refr_indic_pos(cpicker);
 262:..\..\..\lvgl\version_6.1.2\lvgl\src\lv_objx/lv_cpicker.c **** 
 263:..\..\..\lvgl\version_6.1.2\lvgl\src\lv_objx/lv_cpicker.c ****     if (ext->preview && ext->type == LV_CPICKER_TYPE_DISC) {
 264:..\..\..\lvgl\version_6.1.2\lvgl\src\lv_objx/lv_cpicker.c ****         lv_obj_invalidate(cpicker);
 265:..\..\..\lvgl\version_6.1.2\lvgl\src\lv_objx/lv_cpicker.c ****     }
 266:..\..\..\lvgl\version_6.1.2\lvgl\src\lv_objx/lv_cpicker.c **** 
 267:..\..\..\lvgl\version_6.1.2\lvgl\src\lv_objx/lv_cpicker.c ****     return true;
 268:..\..\..\lvgl\version_6.1.2\lvgl\src\lv_objx/lv_cpicker.c **** }
 269:..\..\..\lvgl\version_6.1.2\lvgl\src\lv_objx/lv_cpicker.c **** 
 270:..\..\..\lvgl\version_6.1.2\lvgl\src\lv_objx/lv_cpicker.c **** /**
 271:..\..\..\lvgl\version_6.1.2\lvgl\src\lv_objx/lv_cpicker.c ****  * Set the current color of a colorpicker.
 272:..\..\..\lvgl\version_6.1.2\lvgl\src\lv_objx/lv_cpicker.c ****  * @param cpicker pointer to colorpicker object
 273:..\..\..\lvgl\version_6.1.2\lvgl\src\lv_objx/lv_cpicker.c ****  * @param color current selected color
 274:..\..\..\lvgl\version_6.1.2\lvgl\src\lv_objx/lv_cpicker.c ****  * @return true if changed, otherwise false
 275:..\..\..\lvgl\version_6.1.2\lvgl\src\lv_objx/lv_cpicker.c ****  */
 276:..\..\..\lvgl\version_6.1.2\lvgl\src\lv_objx/lv_cpicker.c **** bool lv_cpicker_set_color(lv_obj_t * cpicker, lv_color_t color)
 277:..\..\..\lvgl\version_6.1.2\lvgl\src\lv_objx/lv_cpicker.c **** {
 278:..\..\..\lvgl\version_6.1.2\lvgl\src\lv_objx/lv_cpicker.c ****     lv_color32_t c32;
 279:..\..\..\lvgl\version_6.1.2\lvgl\src\lv_objx/lv_cpicker.c ****     c32.full = lv_color_to32(color);
 280:..\..\..\lvgl\version_6.1.2\lvgl\src\lv_objx/lv_cpicker.c **** 
 281:..\..\..\lvgl\version_6.1.2\lvgl\src\lv_objx/lv_cpicker.c ****     return lv_cpicker_set_hsv(cpicker,
 282:..\..\..\lvgl\version_6.1.2\lvgl\src\lv_objx/lv_cpicker.c ****             lv_color_rgb_to_hsv(c32.ch.red, c32.ch.green, c32.ch.blue));
 283:..\..\..\lvgl\version_6.1.2\lvgl\src\lv_objx/lv_cpicker.c **** }
 284:..\..\..\lvgl\version_6.1.2\lvgl\src\lv_objx/lv_cpicker.c **** 
 285:..\..\..\lvgl\version_6.1.2\lvgl\src\lv_objx/lv_cpicker.c **** /**
 286:..\..\..\lvgl\version_6.1.2\lvgl\src\lv_objx/lv_cpicker.c ****  * Set the current color mode.
 287:..\..\..\lvgl\version_6.1.2\lvgl\src\lv_objx/lv_cpicker.c ****  * @param cpicker pointer to colorpicker object
 288:..\..\..\lvgl\version_6.1.2\lvgl\src\lv_objx/lv_cpicker.c ****  * @param mode color mode (hue/sat/val)
 289:..\..\..\lvgl\version_6.1.2\lvgl\src\lv_objx/lv_cpicker.c ****  */
 290:..\..\..\lvgl\version_6.1.2\lvgl\src\lv_objx/lv_cpicker.c **** void lv_cpicker_set_color_mode(lv_obj_t * cpicker, lv_cpicker_color_mode_t mode)
 291:..\..\..\lvgl\version_6.1.2\lvgl\src\lv_objx/lv_cpicker.c **** {
 292:..\..\..\lvgl\version_6.1.2\lvgl\src\lv_objx/lv_cpicker.c ****     LV_ASSERT_OBJ(cpicker, LV_OBJX_NAME);
 293:..\..\..\lvgl\version_6.1.2\lvgl\src\lv_objx/lv_cpicker.c **** 
 294:..\..\..\lvgl\version_6.1.2\lvgl\src\lv_objx/lv_cpicker.c ****     lv_cpicker_ext_t * ext = lv_obj_get_ext_attr(cpicker);
 295:..\..\..\lvgl\version_6.1.2\lvgl\src\lv_objx/lv_cpicker.c **** 
 296:..\..\..\lvgl\version_6.1.2\lvgl\src\lv_objx/lv_cpicker.c ****     ext->color_mode = mode;
 297:..\..\..\lvgl\version_6.1.2\lvgl\src\lv_objx/lv_cpicker.c ****     refr_indic_pos(cpicker);
 298:..\..\..\lvgl\version_6.1.2\lvgl\src\lv_objx/lv_cpicker.c ****     lv_obj_invalidate(cpicker);
 299:..\..\..\lvgl\version_6.1.2\lvgl\src\lv_objx/lv_cpicker.c **** }
 300:..\..\..\lvgl\version_6.1.2\lvgl\src\lv_objx/lv_cpicker.c **** 
 301:..\..\..\lvgl\version_6.1.2\lvgl\src\lv_objx/lv_cpicker.c **** /**
 302:..\..\..\lvgl\version_6.1.2\lvgl\src\lv_objx/lv_cpicker.c ****  * Set if the color mode is changed on long press on center
 303:..\..\..\lvgl\version_6.1.2\lvgl\src\lv_objx/lv_cpicker.c ****  * @param cpicker pointer to colorpicker object
 304:..\..\..\lvgl\version_6.1.2\lvgl\src\lv_objx/lv_cpicker.c ****  * @param fixed color mode cannot be changed on long press
 305:..\..\..\lvgl\version_6.1.2\lvgl\src\lv_objx/lv_cpicker.c ****  */
 306:..\..\..\lvgl\version_6.1.2\lvgl\src\lv_objx/lv_cpicker.c **** void lv_cpicker_set_color_mode_fixed(lv_obj_t * cpicker, bool fixed)
 307:..\..\..\lvgl\version_6.1.2\lvgl\src\lv_objx/lv_cpicker.c **** {
 308:..\..\..\lvgl\version_6.1.2\lvgl\src\lv_objx/lv_cpicker.c ****     LV_ASSERT_OBJ(cpicker, LV_OBJX_NAME);
 309:..\..\..\lvgl\version_6.1.2\lvgl\src\lv_objx/lv_cpicker.c **** 
 310:..\..\..\lvgl\version_6.1.2\lvgl\src\lv_objx/lv_cpicker.c ****     lv_cpicker_ext_t * ext = lv_obj_get_ext_attr(cpicker);
 311:..\..\..\lvgl\version_6.1.2\lvgl\src\lv_objx/lv_cpicker.c **** 
 312:..\..\..\lvgl\version_6.1.2\lvgl\src\lv_objx/lv_cpicker.c ****     ext->color_mode_fixed = fixed;
 313:..\..\..\lvgl\version_6.1.2\lvgl\src\lv_objx/lv_cpicker.c **** }
 314:..\..\..\lvgl\version_6.1.2\lvgl\src\lv_objx/lv_cpicker.c **** 
 315:..\..\..\lvgl\version_6.1.2\lvgl\src\lv_objx/lv_cpicker.c **** /**
ARM GAS  C:\Users\pearlstl\AppData\Local\Temp\ccadfCp2.s 			page 7


 316:..\..\..\lvgl\version_6.1.2\lvgl\src\lv_objx/lv_cpicker.c ****  * Make the indicator to be colored to the current color
 317:..\..\..\lvgl\version_6.1.2\lvgl\src\lv_objx/lv_cpicker.c ****  * @param cpicker pointer to colorpicker object
 318:..\..\..\lvgl\version_6.1.2\lvgl\src\lv_objx/lv_cpicker.c ****  * @param en true: color the indicator; false: not color the indicator
 319:..\..\..\lvgl\version_6.1.2\lvgl\src\lv_objx/lv_cpicker.c ****  */
 320:..\..\..\lvgl\version_6.1.2\lvgl\src\lv_objx/lv_cpicker.c **** void lv_cpicker_set_indic_colored(lv_obj_t * cpicker, bool en)
 321:..\..\..\lvgl\version_6.1.2\lvgl\src\lv_objx/lv_cpicker.c **** {
 322:..\..\..\lvgl\version_6.1.2\lvgl\src\lv_objx/lv_cpicker.c ****     LV_ASSERT_OBJ(cpicker, LV_OBJX_NAME);
 323:..\..\..\lvgl\version_6.1.2\lvgl\src\lv_objx/lv_cpicker.c **** 
 324:..\..\..\lvgl\version_6.1.2\lvgl\src\lv_objx/lv_cpicker.c ****     lv_cpicker_ext_t * ext = lv_obj_get_ext_attr(cpicker);
 325:..\..\..\lvgl\version_6.1.2\lvgl\src\lv_objx/lv_cpicker.c ****     ext->indic.colored = en ? 1 : 0;
 326:..\..\..\lvgl\version_6.1.2\lvgl\src\lv_objx/lv_cpicker.c ****     invalidate_indic(cpicker);
 327:..\..\..\lvgl\version_6.1.2\lvgl\src\lv_objx/lv_cpicker.c **** }
 328:..\..\..\lvgl\version_6.1.2\lvgl\src\lv_objx/lv_cpicker.c **** 
 329:..\..\..\lvgl\version_6.1.2\lvgl\src\lv_objx/lv_cpicker.c **** /**
 330:..\..\..\lvgl\version_6.1.2\lvgl\src\lv_objx/lv_cpicker.c ****  * Add a color preview in the middle of the DISC type color picker
 331:..\..\..\lvgl\version_6.1.2\lvgl\src\lv_objx/lv_cpicker.c ****  * @param cpicker pointer to colorpicker object
 332:..\..\..\lvgl\version_6.1.2\lvgl\src\lv_objx/lv_cpicker.c ****  * @param en true: enable preview; false: disable preview
 333:..\..\..\lvgl\version_6.1.2\lvgl\src\lv_objx/lv_cpicker.c ****  */
 334:..\..\..\lvgl\version_6.1.2\lvgl\src\lv_objx/lv_cpicker.c **** void lv_cpicker_set_preview(lv_obj_t * cpicker, bool en)
 335:..\..\..\lvgl\version_6.1.2\lvgl\src\lv_objx/lv_cpicker.c **** {
 336:..\..\..\lvgl\version_6.1.2\lvgl\src\lv_objx/lv_cpicker.c ****     LV_ASSERT_OBJ(cpicker, LV_OBJX_NAME);
 337:..\..\..\lvgl\version_6.1.2\lvgl\src\lv_objx/lv_cpicker.c **** 
 338:..\..\..\lvgl\version_6.1.2\lvgl\src\lv_objx/lv_cpicker.c ****     lv_cpicker_ext_t * ext = lv_obj_get_ext_attr(cpicker);
 339:..\..\..\lvgl\version_6.1.2\lvgl\src\lv_objx/lv_cpicker.c ****     ext->preview = en ? 1 : 0;
 340:..\..\..\lvgl\version_6.1.2\lvgl\src\lv_objx/lv_cpicker.c ****     lv_obj_invalidate(cpicker);
 341:..\..\..\lvgl\version_6.1.2\lvgl\src\lv_objx/lv_cpicker.c **** }
 342:..\..\..\lvgl\version_6.1.2\lvgl\src\lv_objx/lv_cpicker.c **** /*=====================
 343:..\..\..\lvgl\version_6.1.2\lvgl\src\lv_objx/lv_cpicker.c ****  * Getter functions
 344:..\..\..\lvgl\version_6.1.2\lvgl\src\lv_objx/lv_cpicker.c ****  *====================*/
 345:..\..\..\lvgl\version_6.1.2\lvgl\src\lv_objx/lv_cpicker.c **** 
 346:..\..\..\lvgl\version_6.1.2\lvgl\src\lv_objx/lv_cpicker.c **** /** 
 347:..\..\..\lvgl\version_6.1.2\lvgl\src\lv_objx/lv_cpicker.c ****  * Get the current color mode.
 348:..\..\..\lvgl\version_6.1.2\lvgl\src\lv_objx/lv_cpicker.c ****  * @param cpicker pointer to colorpicker object
 349:..\..\..\lvgl\version_6.1.2\lvgl\src\lv_objx/lv_cpicker.c ****  * @return color mode (hue/sat/val)
 350:..\..\..\lvgl\version_6.1.2\lvgl\src\lv_objx/lv_cpicker.c ****  */
 351:..\..\..\lvgl\version_6.1.2\lvgl\src\lv_objx/lv_cpicker.c **** lv_cpicker_color_mode_t lv_cpicker_get_color_mode(lv_obj_t * cpicker)
 352:..\..\..\lvgl\version_6.1.2\lvgl\src\lv_objx/lv_cpicker.c **** {
 353:..\..\..\lvgl\version_6.1.2\lvgl\src\lv_objx/lv_cpicker.c ****     LV_ASSERT_OBJ(cpicker, LV_OBJX_NAME);
 354:..\..\..\lvgl\version_6.1.2\lvgl\src\lv_objx/lv_cpicker.c **** 
 355:..\..\..\lvgl\version_6.1.2\lvgl\src\lv_objx/lv_cpicker.c ****     lv_cpicker_ext_t * ext = lv_obj_get_ext_attr(cpicker);
 356:..\..\..\lvgl\version_6.1.2\lvgl\src\lv_objx/lv_cpicker.c **** 
 357:..\..\..\lvgl\version_6.1.2\lvgl\src\lv_objx/lv_cpicker.c ****     return ext->color_mode;
 358:..\..\..\lvgl\version_6.1.2\lvgl\src\lv_objx/lv_cpicker.c **** }
 359:..\..\..\lvgl\version_6.1.2\lvgl\src\lv_objx/lv_cpicker.c **** 
 360:..\..\..\lvgl\version_6.1.2\lvgl\src\lv_objx/lv_cpicker.c **** /**
 361:..\..\..\lvgl\version_6.1.2\lvgl\src\lv_objx/lv_cpicker.c ****  * Get if the color mode is changed on long press on center
 362:..\..\..\lvgl\version_6.1.2\lvgl\src\lv_objx/lv_cpicker.c ****  * @param cpicker pointer to colorpicker object
 363:..\..\..\lvgl\version_6.1.2\lvgl\src\lv_objx/lv_cpicker.c ****  * @return mode cannot be changed on long press
 364:..\..\..\lvgl\version_6.1.2\lvgl\src\lv_objx/lv_cpicker.c ****  */
 365:..\..\..\lvgl\version_6.1.2\lvgl\src\lv_objx/lv_cpicker.c **** bool lv_cpicker_get_color_mode_fixed(lv_obj_t * cpicker)
 366:..\..\..\lvgl\version_6.1.2\lvgl\src\lv_objx/lv_cpicker.c **** {
 367:..\..\..\lvgl\version_6.1.2\lvgl\src\lv_objx/lv_cpicker.c ****     LV_ASSERT_OBJ(cpicker, LV_OBJX_NAME);
 368:..\..\..\lvgl\version_6.1.2\lvgl\src\lv_objx/lv_cpicker.c **** 
 369:..\..\..\lvgl\version_6.1.2\lvgl\src\lv_objx/lv_cpicker.c ****     lv_cpicker_ext_t * ext = lv_obj_get_ext_attr(cpicker);
 370:..\..\..\lvgl\version_6.1.2\lvgl\src\lv_objx/lv_cpicker.c **** 
 371:..\..\..\lvgl\version_6.1.2\lvgl\src\lv_objx/lv_cpicker.c ****     return ext->color_mode_fixed;
 372:..\..\..\lvgl\version_6.1.2\lvgl\src\lv_objx/lv_cpicker.c **** }
ARM GAS  C:\Users\pearlstl\AppData\Local\Temp\ccadfCp2.s 			page 8


 373:..\..\..\lvgl\version_6.1.2\lvgl\src\lv_objx/lv_cpicker.c **** 
 374:..\..\..\lvgl\version_6.1.2\lvgl\src\lv_objx/lv_cpicker.c **** /**
 375:..\..\..\lvgl\version_6.1.2\lvgl\src\lv_objx/lv_cpicker.c ****  * Get style of a color_picker.
 376:..\..\..\lvgl\version_6.1.2\lvgl\src\lv_objx/lv_cpicker.c ****  * @param cpicker pointer to color_picker object
 377:..\..\..\lvgl\version_6.1.2\lvgl\src\lv_objx/lv_cpicker.c ****  * @param type which style should be get
 378:..\..\..\lvgl\version_6.1.2\lvgl\src\lv_objx/lv_cpicker.c ****  * @return style pointer to the style
 379:..\..\..\lvgl\version_6.1.2\lvgl\src\lv_objx/lv_cpicker.c ****  */
 380:..\..\..\lvgl\version_6.1.2\lvgl\src\lv_objx/lv_cpicker.c **** const lv_style_t * lv_cpicker_get_style(const lv_obj_t * cpicker, lv_cpicker_style_t type)
 381:..\..\..\lvgl\version_6.1.2\lvgl\src\lv_objx/lv_cpicker.c **** {
 382:..\..\..\lvgl\version_6.1.2\lvgl\src\lv_objx/lv_cpicker.c ****     LV_ASSERT_OBJ(cpicker, LV_OBJX_NAME);
 383:..\..\..\lvgl\version_6.1.2\lvgl\src\lv_objx/lv_cpicker.c **** 
 384:..\..\..\lvgl\version_6.1.2\lvgl\src\lv_objx/lv_cpicker.c ****     lv_cpicker_ext_t * ext = lv_obj_get_ext_attr(cpicker);
 385:..\..\..\lvgl\version_6.1.2\lvgl\src\lv_objx/lv_cpicker.c **** 
 386:..\..\..\lvgl\version_6.1.2\lvgl\src\lv_objx/lv_cpicker.c ****     switch(type) {
 387:..\..\..\lvgl\version_6.1.2\lvgl\src\lv_objx/lv_cpicker.c ****     case LV_CPICKER_STYLE_MAIN:
 388:..\..\..\lvgl\version_6.1.2\lvgl\src\lv_objx/lv_cpicker.c ****         return lv_obj_get_style(cpicker);
 389:..\..\..\lvgl\version_6.1.2\lvgl\src\lv_objx/lv_cpicker.c ****     case LV_CPICKER_STYLE_INDICATOR:
 390:..\..\..\lvgl\version_6.1.2\lvgl\src\lv_objx/lv_cpicker.c ****         return ext->indic.style;
 391:..\..\..\lvgl\version_6.1.2\lvgl\src\lv_objx/lv_cpicker.c ****     default:
 392:..\..\..\lvgl\version_6.1.2\lvgl\src\lv_objx/lv_cpicker.c ****         return NULL;
 393:..\..\..\lvgl\version_6.1.2\lvgl\src\lv_objx/lv_cpicker.c ****     }
 394:..\..\..\lvgl\version_6.1.2\lvgl\src\lv_objx/lv_cpicker.c **** 
 395:..\..\..\lvgl\version_6.1.2\lvgl\src\lv_objx/lv_cpicker.c ****     /*To avoid warning*/
 396:..\..\..\lvgl\version_6.1.2\lvgl\src\lv_objx/lv_cpicker.c ****     return NULL;
 397:..\..\..\lvgl\version_6.1.2\lvgl\src\lv_objx/lv_cpicker.c **** }
 398:..\..\..\lvgl\version_6.1.2\lvgl\src\lv_objx/lv_cpicker.c **** 
 399:..\..\..\lvgl\version_6.1.2\lvgl\src\lv_objx/lv_cpicker.c **** /**
 400:..\..\..\lvgl\version_6.1.2\lvgl\src\lv_objx/lv_cpicker.c ****  * Get the current selected hue of a colorpicker.
 401:..\..\..\lvgl\version_6.1.2\lvgl\src\lv_objx/lv_cpicker.c ****  * @param cpicker pointer to colorpicker object
 402:..\..\..\lvgl\version_6.1.2\lvgl\src\lv_objx/lv_cpicker.c ****  * @return hue current selected hue
 403:..\..\..\lvgl\version_6.1.2\lvgl\src\lv_objx/lv_cpicker.c ****  */
 404:..\..\..\lvgl\version_6.1.2\lvgl\src\lv_objx/lv_cpicker.c **** uint16_t lv_cpicker_get_hue(lv_obj_t * cpicker)
 405:..\..\..\lvgl\version_6.1.2\lvgl\src\lv_objx/lv_cpicker.c **** {
 406:..\..\..\lvgl\version_6.1.2\lvgl\src\lv_objx/lv_cpicker.c ****     LV_ASSERT_OBJ(cpicker, LV_OBJX_NAME);
 407:..\..\..\lvgl\version_6.1.2\lvgl\src\lv_objx/lv_cpicker.c **** 
 408:..\..\..\lvgl\version_6.1.2\lvgl\src\lv_objx/lv_cpicker.c ****     lv_cpicker_ext_t * ext = lv_obj_get_ext_attr(cpicker);
 409:..\..\..\lvgl\version_6.1.2\lvgl\src\lv_objx/lv_cpicker.c **** 
 410:..\..\..\lvgl\version_6.1.2\lvgl\src\lv_objx/lv_cpicker.c ****     return ext->hsv.h;
 411:..\..\..\lvgl\version_6.1.2\lvgl\src\lv_objx/lv_cpicker.c **** }
 412:..\..\..\lvgl\version_6.1.2\lvgl\src\lv_objx/lv_cpicker.c **** 
 413:..\..\..\lvgl\version_6.1.2\lvgl\src\lv_objx/lv_cpicker.c **** /**
 414:..\..\..\lvgl\version_6.1.2\lvgl\src\lv_objx/lv_cpicker.c ****  * Get the current selected saturation of a colorpicker.
 415:..\..\..\lvgl\version_6.1.2\lvgl\src\lv_objx/lv_cpicker.c ****  * @param cpicker pointer to colorpicker object
 416:..\..\..\lvgl\version_6.1.2\lvgl\src\lv_objx/lv_cpicker.c ****  * @return current selected saturation
 417:..\..\..\lvgl\version_6.1.2\lvgl\src\lv_objx/lv_cpicker.c ****  */
 418:..\..\..\lvgl\version_6.1.2\lvgl\src\lv_objx/lv_cpicker.c **** uint8_t lv_cpicker_get_saturation(lv_obj_t * cpicker)
 419:..\..\..\lvgl\version_6.1.2\lvgl\src\lv_objx/lv_cpicker.c **** {
 420:..\..\..\lvgl\version_6.1.2\lvgl\src\lv_objx/lv_cpicker.c ****     LV_ASSERT_OBJ(cpicker, LV_OBJX_NAME);
 421:..\..\..\lvgl\version_6.1.2\lvgl\src\lv_objx/lv_cpicker.c **** 
 422:..\..\..\lvgl\version_6.1.2\lvgl\src\lv_objx/lv_cpicker.c ****     lv_cpicker_ext_t * ext = lv_obj_get_ext_attr(cpicker);
 423:..\..\..\lvgl\version_6.1.2\lvgl\src\lv_objx/lv_cpicker.c **** 
 424:..\..\..\lvgl\version_6.1.2\lvgl\src\lv_objx/lv_cpicker.c ****     return ext->hsv.s;
 425:..\..\..\lvgl\version_6.1.2\lvgl\src\lv_objx/lv_cpicker.c **** }
 426:..\..\..\lvgl\version_6.1.2\lvgl\src\lv_objx/lv_cpicker.c **** 
 427:..\..\..\lvgl\version_6.1.2\lvgl\src\lv_objx/lv_cpicker.c **** /**
 428:..\..\..\lvgl\version_6.1.2\lvgl\src\lv_objx/lv_cpicker.c ****  * Get the current selected hue of a colorpicker.
 429:..\..\..\lvgl\version_6.1.2\lvgl\src\lv_objx/lv_cpicker.c ****  * @param cpicker pointer to colorpicker object
ARM GAS  C:\Users\pearlstl\AppData\Local\Temp\ccadfCp2.s 			page 9


 430:..\..\..\lvgl\version_6.1.2\lvgl\src\lv_objx/lv_cpicker.c ****  * @return current selected value
 431:..\..\..\lvgl\version_6.1.2\lvgl\src\lv_objx/lv_cpicker.c ****  */
 432:..\..\..\lvgl\version_6.1.2\lvgl\src\lv_objx/lv_cpicker.c **** uint8_t lv_cpicker_get_value(lv_obj_t * cpicker)
 433:..\..\..\lvgl\version_6.1.2\lvgl\src\lv_objx/lv_cpicker.c **** {
 434:..\..\..\lvgl\version_6.1.2\lvgl\src\lv_objx/lv_cpicker.c ****     LV_ASSERT_OBJ(cpicker, LV_OBJX_NAME);
 435:..\..\..\lvgl\version_6.1.2\lvgl\src\lv_objx/lv_cpicker.c **** 
 436:..\..\..\lvgl\version_6.1.2\lvgl\src\lv_objx/lv_cpicker.c ****     lv_cpicker_ext_t * ext = lv_obj_get_ext_attr(cpicker);
 437:..\..\..\lvgl\version_6.1.2\lvgl\src\lv_objx/lv_cpicker.c **** 
 438:..\..\..\lvgl\version_6.1.2\lvgl\src\lv_objx/lv_cpicker.c ****     return ext->hsv.v;
 439:..\..\..\lvgl\version_6.1.2\lvgl\src\lv_objx/lv_cpicker.c **** }
 440:..\..\..\lvgl\version_6.1.2\lvgl\src\lv_objx/lv_cpicker.c **** 
 441:..\..\..\lvgl\version_6.1.2\lvgl\src\lv_objx/lv_cpicker.c **** /**
 442:..\..\..\lvgl\version_6.1.2\lvgl\src\lv_objx/lv_cpicker.c ****  * Get the current selected hsv of a colorpicker.
 443:..\..\..\lvgl\version_6.1.2\lvgl\src\lv_objx/lv_cpicker.c ****  * @param cpicker pointer to colorpicker object
 444:..\..\..\lvgl\version_6.1.2\lvgl\src\lv_objx/lv_cpicker.c ****  * @return current selected hsv
 445:..\..\..\lvgl\version_6.1.2\lvgl\src\lv_objx/lv_cpicker.c ****  */
 446:..\..\..\lvgl\version_6.1.2\lvgl\src\lv_objx/lv_cpicker.c **** lv_color_hsv_t lv_cpicker_get_hsv(lv_obj_t * cpicker)
 447:..\..\..\lvgl\version_6.1.2\lvgl\src\lv_objx/lv_cpicker.c **** {
 448:..\..\..\lvgl\version_6.1.2\lvgl\src\lv_objx/lv_cpicker.c ****     LV_ASSERT_OBJ(cpicker, LV_OBJX_NAME);
 449:..\..\..\lvgl\version_6.1.2\lvgl\src\lv_objx/lv_cpicker.c **** 
 450:..\..\..\lvgl\version_6.1.2\lvgl\src\lv_objx/lv_cpicker.c ****     lv_cpicker_ext_t * ext = lv_obj_get_ext_attr(cpicker);
 451:..\..\..\lvgl\version_6.1.2\lvgl\src\lv_objx/lv_cpicker.c **** 
 452:..\..\..\lvgl\version_6.1.2\lvgl\src\lv_objx/lv_cpicker.c ****     return ext->hsv;
 453:..\..\..\lvgl\version_6.1.2\lvgl\src\lv_objx/lv_cpicker.c **** }
 454:..\..\..\lvgl\version_6.1.2\lvgl\src\lv_objx/lv_cpicker.c **** 
 455:..\..\..\lvgl\version_6.1.2\lvgl\src\lv_objx/lv_cpicker.c **** /**
 456:..\..\..\lvgl\version_6.1.2\lvgl\src\lv_objx/lv_cpicker.c ****  * Get the current selected color of a colorpicker.
 457:..\..\..\lvgl\version_6.1.2\lvgl\src\lv_objx/lv_cpicker.c ****  * @param cpicker pointer to colorpicker object
 458:..\..\..\lvgl\version_6.1.2\lvgl\src\lv_objx/lv_cpicker.c ****  * @return color current selected color
 459:..\..\..\lvgl\version_6.1.2\lvgl\src\lv_objx/lv_cpicker.c ****  */
 460:..\..\..\lvgl\version_6.1.2\lvgl\src\lv_objx/lv_cpicker.c **** lv_color_t lv_cpicker_get_color(lv_obj_t * cpicker)
 461:..\..\..\lvgl\version_6.1.2\lvgl\src\lv_objx/lv_cpicker.c **** {
 462:..\..\..\lvgl\version_6.1.2\lvgl\src\lv_objx/lv_cpicker.c ****     LV_ASSERT_OBJ(cpicker, LV_OBJX_NAME);
 463:..\..\..\lvgl\version_6.1.2\lvgl\src\lv_objx/lv_cpicker.c **** 
 464:..\..\..\lvgl\version_6.1.2\lvgl\src\lv_objx/lv_cpicker.c ****     lv_cpicker_ext_t * ext = lv_obj_get_ext_attr(cpicker);
 465:..\..\..\lvgl\version_6.1.2\lvgl\src\lv_objx/lv_cpicker.c **** 
 466:..\..\..\lvgl\version_6.1.2\lvgl\src\lv_objx/lv_cpicker.c ****     return lv_color_hsv_to_rgb(ext->hsv.h, ext->hsv.s, ext->hsv.v);
 467:..\..\..\lvgl\version_6.1.2\lvgl\src\lv_objx/lv_cpicker.c **** }
 468:..\..\..\lvgl\version_6.1.2\lvgl\src\lv_objx/lv_cpicker.c **** 
 469:..\..\..\lvgl\version_6.1.2\lvgl\src\lv_objx/lv_cpicker.c **** /**
 470:..\..\..\lvgl\version_6.1.2\lvgl\src\lv_objx/lv_cpicker.c ****  * Whether the indicator is colored to the current color or not
 471:..\..\..\lvgl\version_6.1.2\lvgl\src\lv_objx/lv_cpicker.c ****  * @param cpicker pointer to colorpicker object
 472:..\..\..\lvgl\version_6.1.2\lvgl\src\lv_objx/lv_cpicker.c ****  * @return true: color the indicator; false: not color the indicator
 473:..\..\..\lvgl\version_6.1.2\lvgl\src\lv_objx/lv_cpicker.c ****  */
 474:..\..\..\lvgl\version_6.1.2\lvgl\src\lv_objx/lv_cpicker.c **** bool lv_cpicker_get_indic_colored(lv_obj_t * cpicker)
 475:..\..\..\lvgl\version_6.1.2\lvgl\src\lv_objx/lv_cpicker.c **** {
 476:..\..\..\lvgl\version_6.1.2\lvgl\src\lv_objx/lv_cpicker.c ****     LV_ASSERT_OBJ(cpicker, LV_OBJX_NAME);
 477:..\..\..\lvgl\version_6.1.2\lvgl\src\lv_objx/lv_cpicker.c **** 
 478:..\..\..\lvgl\version_6.1.2\lvgl\src\lv_objx/lv_cpicker.c ****     lv_cpicker_ext_t * ext = lv_obj_get_ext_attr(cpicker);
 479:..\..\..\lvgl\version_6.1.2\lvgl\src\lv_objx/lv_cpicker.c **** 
 480:..\..\..\lvgl\version_6.1.2\lvgl\src\lv_objx/lv_cpicker.c ****     return ext->indic.colored ? true : false;
 481:..\..\..\lvgl\version_6.1.2\lvgl\src\lv_objx/lv_cpicker.c **** }
 482:..\..\..\lvgl\version_6.1.2\lvgl\src\lv_objx/lv_cpicker.c **** 
 483:..\..\..\lvgl\version_6.1.2\lvgl\src\lv_objx/lv_cpicker.c **** /**
 484:..\..\..\lvgl\version_6.1.2\lvgl\src\lv_objx/lv_cpicker.c ****  *  Whether the preview is enabled or not
 485:..\..\..\lvgl\version_6.1.2\lvgl\src\lv_objx/lv_cpicker.c ****  * @param cpicker pointer to colorpicker object
 486:..\..\..\lvgl\version_6.1.2\lvgl\src\lv_objx/lv_cpicker.c ****  * @return en true: preview is enabled; false: preview is disabled
ARM GAS  C:\Users\pearlstl\AppData\Local\Temp\ccadfCp2.s 			page 10


 487:..\..\..\lvgl\version_6.1.2\lvgl\src\lv_objx/lv_cpicker.c ****  */
 488:..\..\..\lvgl\version_6.1.2\lvgl\src\lv_objx/lv_cpicker.c **** bool lv_cpicker_get_preview(lv_obj_t * cpicker)
 489:..\..\..\lvgl\version_6.1.2\lvgl\src\lv_objx/lv_cpicker.c **** {
 490:..\..\..\lvgl\version_6.1.2\lvgl\src\lv_objx/lv_cpicker.c ****     LV_ASSERT_OBJ(cpicker, LV_OBJX_NAME);
 491:..\..\..\lvgl\version_6.1.2\lvgl\src\lv_objx/lv_cpicker.c **** 
 492:..\..\..\lvgl\version_6.1.2\lvgl\src\lv_objx/lv_cpicker.c ****     lv_cpicker_ext_t * ext = lv_obj_get_ext_attr(cpicker);
 493:..\..\..\lvgl\version_6.1.2\lvgl\src\lv_objx/lv_cpicker.c **** 
 494:..\..\..\lvgl\version_6.1.2\lvgl\src\lv_objx/lv_cpicker.c ****     return ext->preview ? true : false;
 495:..\..\..\lvgl\version_6.1.2\lvgl\src\lv_objx/lv_cpicker.c **** }
 496:..\..\..\lvgl\version_6.1.2\lvgl\src\lv_objx/lv_cpicker.c **** 
 497:..\..\..\lvgl\version_6.1.2\lvgl\src\lv_objx/lv_cpicker.c **** 
 498:..\..\..\lvgl\version_6.1.2\lvgl\src\lv_objx/lv_cpicker.c **** /*=====================
 499:..\..\..\lvgl\version_6.1.2\lvgl\src\lv_objx/lv_cpicker.c ****  * Other functions
 500:..\..\..\lvgl\version_6.1.2\lvgl\src\lv_objx/lv_cpicker.c ****  *====================*/
 501:..\..\..\lvgl\version_6.1.2\lvgl\src\lv_objx/lv_cpicker.c **** 
 502:..\..\..\lvgl\version_6.1.2\lvgl\src\lv_objx/lv_cpicker.c **** /**********************
 503:..\..\..\lvgl\version_6.1.2\lvgl\src\lv_objx/lv_cpicker.c ****  *   STATIC FUNCTIONS
 504:..\..\..\lvgl\version_6.1.2\lvgl\src\lv_objx/lv_cpicker.c ****  **********************/
 505:..\..\..\lvgl\version_6.1.2\lvgl\src\lv_objx/lv_cpicker.c **** 
 506:..\..\..\lvgl\version_6.1.2\lvgl\src\lv_objx/lv_cpicker.c **** 
 507:..\..\..\lvgl\version_6.1.2\lvgl\src\lv_objx/lv_cpicker.c **** /**
 508:..\..\..\lvgl\version_6.1.2\lvgl\src\lv_objx/lv_cpicker.c ****  * Handle the drawing related tasks of the color_picker
 509:..\..\..\lvgl\version_6.1.2\lvgl\src\lv_objx/lv_cpicker.c ****  * @param cpicker pointer to an object
 510:..\..\..\lvgl\version_6.1.2\lvgl\src\lv_objx/lv_cpicker.c ****  * @param mask the object will be drawn only in this area
 511:..\..\..\lvgl\version_6.1.2\lvgl\src\lv_objx/lv_cpicker.c ****  * @param mode LV_DESIGN_COVER_CHK: only check if the object fully covers the 'mask_p' area
 512:..\..\..\lvgl\version_6.1.2\lvgl\src\lv_objx/lv_cpicker.c ****  *                                  (return 'true' if yes)
 513:..\..\..\lvgl\version_6.1.2\lvgl\src\lv_objx/lv_cpicker.c ****  *             LV_DESIGN_DRAW: draw the object (always return 'true')
 514:..\..\..\lvgl\version_6.1.2\lvgl\src\lv_objx/lv_cpicker.c ****  *             LV_DESIGN_DRAW_POST: drawing after every children are drawn
 515:..\..\..\lvgl\version_6.1.2\lvgl\src\lv_objx/lv_cpicker.c ****  * @return true/false, depends on 'mode'
 516:..\..\..\lvgl\version_6.1.2\lvgl\src\lv_objx/lv_cpicker.c ****  */
 517:..\..\..\lvgl\version_6.1.2\lvgl\src\lv_objx/lv_cpicker.c **** static bool lv_cpicker_design(lv_obj_t * cpicker, const lv_area_t * mask, lv_design_mode_t mode)
 518:..\..\..\lvgl\version_6.1.2\lvgl\src\lv_objx/lv_cpicker.c **** {
 519:..\..\..\lvgl\version_6.1.2\lvgl\src\lv_objx/lv_cpicker.c ****     /*Return false if the object is not covers the mask_p area*/
 520:..\..\..\lvgl\version_6.1.2\lvgl\src\lv_objx/lv_cpicker.c ****     if(mode == LV_DESIGN_COVER_CHK)  {
 521:..\..\..\lvgl\version_6.1.2\lvgl\src\lv_objx/lv_cpicker.c ****         return false;
 522:..\..\..\lvgl\version_6.1.2\lvgl\src\lv_objx/lv_cpicker.c ****     }
 523:..\..\..\lvgl\version_6.1.2\lvgl\src\lv_objx/lv_cpicker.c ****     /*Draw the object*/
 524:..\..\..\lvgl\version_6.1.2\lvgl\src\lv_objx/lv_cpicker.c ****     else if(mode == LV_DESIGN_DRAW_MAIN) {
 525:..\..\..\lvgl\version_6.1.2\lvgl\src\lv_objx/lv_cpicker.c ****         lv_cpicker_ext_t * ext = lv_obj_get_ext_attr(cpicker);
 526:..\..\..\lvgl\version_6.1.2\lvgl\src\lv_objx/lv_cpicker.c ****         lv_opa_t opa_scale = lv_obj_get_opa_scale(cpicker);
 527:..\..\..\lvgl\version_6.1.2\lvgl\src\lv_objx/lv_cpicker.c **** 
 528:..\..\..\lvgl\version_6.1.2\lvgl\src\lv_objx/lv_cpicker.c ****         if(ext->type == LV_CPICKER_TYPE_DISC) {
 529:..\..\..\lvgl\version_6.1.2\lvgl\src\lv_objx/lv_cpicker.c ****             draw_disc_grad(cpicker, mask, opa_scale);
 530:..\..\..\lvgl\version_6.1.2\lvgl\src\lv_objx/lv_cpicker.c ****         } else if(ext->type == LV_CPICKER_TYPE_RECT) {
 531:..\..\..\lvgl\version_6.1.2\lvgl\src\lv_objx/lv_cpicker.c ****             draw_rect_grad(cpicker, mask, opa_scale);
 532:..\..\..\lvgl\version_6.1.2\lvgl\src\lv_objx/lv_cpicker.c ****         }
 533:..\..\..\lvgl\version_6.1.2\lvgl\src\lv_objx/lv_cpicker.c **** 
 534:..\..\..\lvgl\version_6.1.2\lvgl\src\lv_objx/lv_cpicker.c ****         draw_indic(cpicker, mask, opa_scale);
 535:..\..\..\lvgl\version_6.1.2\lvgl\src\lv_objx/lv_cpicker.c ****     }
 536:..\..\..\lvgl\version_6.1.2\lvgl\src\lv_objx/lv_cpicker.c ****     /*Post draw when the children are drawn*/
 537:..\..\..\lvgl\version_6.1.2\lvgl\src\lv_objx/lv_cpicker.c ****     else if(mode == LV_DESIGN_DRAW_POST) {
 538:..\..\..\lvgl\version_6.1.2\lvgl\src\lv_objx/lv_cpicker.c ****     }
 539:..\..\..\lvgl\version_6.1.2\lvgl\src\lv_objx/lv_cpicker.c **** 
 540:..\..\..\lvgl\version_6.1.2\lvgl\src\lv_objx/lv_cpicker.c ****     return true;
 541:..\..\..\lvgl\version_6.1.2\lvgl\src\lv_objx/lv_cpicker.c **** }
 542:..\..\..\lvgl\version_6.1.2\lvgl\src\lv_objx/lv_cpicker.c **** 
 543:..\..\..\lvgl\version_6.1.2\lvgl\src\lv_objx/lv_cpicker.c **** static void draw_disc_grad(lv_obj_t * cpicker, const lv_area_t * mask, lv_opa_t opa_scale)
ARM GAS  C:\Users\pearlstl\AppData\Local\Temp\ccadfCp2.s 			page 11


 544:..\..\..\lvgl\version_6.1.2\lvgl\src\lv_objx/lv_cpicker.c **** {
 545:..\..\..\lvgl\version_6.1.2\lvgl\src\lv_objx/lv_cpicker.c ****     lv_cpicker_ext_t * ext = lv_obj_get_ext_attr(cpicker);
 546:..\..\..\lvgl\version_6.1.2\lvgl\src\lv_objx/lv_cpicker.c ****     int16_t start_angle = 0; /*Default*/
 547:..\..\..\lvgl\version_6.1.2\lvgl\src\lv_objx/lv_cpicker.c ****     int16_t end_angle = 360 - LV_CPICKER_DEF_QF; /*Default*/
 548:..\..\..\lvgl\version_6.1.2\lvgl\src\lv_objx/lv_cpicker.c **** 
 549:..\..\..\lvgl\version_6.1.2\lvgl\src\lv_objx/lv_cpicker.c ****     lv_coord_t w = lv_obj_get_width(cpicker);
 550:..\..\..\lvgl\version_6.1.2\lvgl\src\lv_objx/lv_cpicker.c ****     lv_coord_t h = lv_obj_get_height(cpicker);
 551:..\..\..\lvgl\version_6.1.2\lvgl\src\lv_objx/lv_cpicker.c ****     lv_coord_t cx = cpicker->coords.x1 + w / 2;
 552:..\..\..\lvgl\version_6.1.2\lvgl\src\lv_objx/lv_cpicker.c ****     lv_coord_t cy = cpicker->coords.y1 + h / 2;
 553:..\..\..\lvgl\version_6.1.2\lvgl\src\lv_objx/lv_cpicker.c ****     lv_coord_t r = w / 2;
 554:..\..\..\lvgl\version_6.1.2\lvgl\src\lv_objx/lv_cpicker.c **** 
 555:..\..\..\lvgl\version_6.1.2\lvgl\src\lv_objx/lv_cpicker.c ****     /*if the mask does not include the center of the object
 556:..\..\..\lvgl\version_6.1.2\lvgl\src\lv_objx/lv_cpicker.c ****     * redrawing all the wheel is not necessary;
 557:..\..\..\lvgl\version_6.1.2\lvgl\src\lv_objx/lv_cpicker.c ****     * only a given angular range
 558:..\..\..\lvgl\version_6.1.2\lvgl\src\lv_objx/lv_cpicker.c ****     */
 559:..\..\..\lvgl\version_6.1.2\lvgl\src\lv_objx/lv_cpicker.c ****     lv_point_t center = {cx, cy};
 560:..\..\..\lvgl\version_6.1.2\lvgl\src\lv_objx/lv_cpicker.c ****     if(!lv_area_is_point_on(mask, &center))
 561:..\..\..\lvgl\version_6.1.2\lvgl\src\lv_objx/lv_cpicker.c ****     {
 562:..\..\..\lvgl\version_6.1.2\lvgl\src\lv_objx/lv_cpicker.c ****         /*get angle from center of object to each corners of the area*/
 563:..\..\..\lvgl\version_6.1.2\lvgl\src\lv_objx/lv_cpicker.c ****         int16_t dr, ur, ul, dl;
 564:..\..\..\lvgl\version_6.1.2\lvgl\src\lv_objx/lv_cpicker.c ****         dr = lv_atan2(mask->x2 - cx, mask->y2 - cy);
 565:..\..\..\lvgl\version_6.1.2\lvgl\src\lv_objx/lv_cpicker.c ****         ur = lv_atan2(mask->x2 - cx, mask->y1 - cy);
 566:..\..\..\lvgl\version_6.1.2\lvgl\src\lv_objx/lv_cpicker.c ****         ul = lv_atan2(mask->x1 - cx, mask->y1 - cy);
 567:..\..\..\lvgl\version_6.1.2\lvgl\src\lv_objx/lv_cpicker.c ****         dl = lv_atan2(mask->x1 - cx, mask->y2 - cy);
 568:..\..\..\lvgl\version_6.1.2\lvgl\src\lv_objx/lv_cpicker.c **** 
 569:..\..\..\lvgl\version_6.1.2\lvgl\src\lv_objx/lv_cpicker.c ****         /*check area position from object axis*/
 570:..\..\..\lvgl\version_6.1.2\lvgl\src\lv_objx/lv_cpicker.c ****         bool left = (mask->x2 < cx && mask->x1 < cx) ? true : false;
 571:..\..\..\lvgl\version_6.1.2\lvgl\src\lv_objx/lv_cpicker.c ****         bool onYaxis = (mask->x2 > cx && mask->x1 < cx) ? true : false;
 572:..\..\..\lvgl\version_6.1.2\lvgl\src\lv_objx/lv_cpicker.c ****         bool right = (mask->x2 > cx && mask->x1 > cx) ? true : false;
 573:..\..\..\lvgl\version_6.1.2\lvgl\src\lv_objx/lv_cpicker.c ****         bool top = (mask->y2 < cy && mask->y1 < cy) ? true : false;
 574:..\..\..\lvgl\version_6.1.2\lvgl\src\lv_objx/lv_cpicker.c ****         bool onXaxis = (mask->y2 > cy && mask->y1 < cy) ? true : false;
 575:..\..\..\lvgl\version_6.1.2\lvgl\src\lv_objx/lv_cpicker.c ****         bool bottom = (mask->y2 > cy && mask->y1 > cy) ? true : false;
 576:..\..\..\lvgl\version_6.1.2\lvgl\src\lv_objx/lv_cpicker.c **** 
 577:..\..\..\lvgl\version_6.1.2\lvgl\src\lv_objx/lv_cpicker.c ****         /*store angular range*/
 578:..\..\..\lvgl\version_6.1.2\lvgl\src\lv_objx/lv_cpicker.c ****         if(right && bottom) {
 579:..\..\..\lvgl\version_6.1.2\lvgl\src\lv_objx/lv_cpicker.c ****             start_angle = dl;
 580:..\..\..\lvgl\version_6.1.2\lvgl\src\lv_objx/lv_cpicker.c ****             end_angle = ur;
 581:..\..\..\lvgl\version_6.1.2\lvgl\src\lv_objx/lv_cpicker.c ****         } else if(right && onXaxis) {
 582:..\..\..\lvgl\version_6.1.2\lvgl\src\lv_objx/lv_cpicker.c ****             start_angle = dl;
 583:..\..\..\lvgl\version_6.1.2\lvgl\src\lv_objx/lv_cpicker.c ****             end_angle = ul;
 584:..\..\..\lvgl\version_6.1.2\lvgl\src\lv_objx/lv_cpicker.c ****         } else if(right && top)  {
 585:..\..\..\lvgl\version_6.1.2\lvgl\src\lv_objx/lv_cpicker.c ****             start_angle = dr;
 586:..\..\..\lvgl\version_6.1.2\lvgl\src\lv_objx/lv_cpicker.c ****             end_angle = ul;
 587:..\..\..\lvgl\version_6.1.2\lvgl\src\lv_objx/lv_cpicker.c ****         } else if(onYaxis && top) {
 588:..\..\..\lvgl\version_6.1.2\lvgl\src\lv_objx/lv_cpicker.c ****             start_angle = dr;
 589:..\..\..\lvgl\version_6.1.2\lvgl\src\lv_objx/lv_cpicker.c ****             end_angle = dl;
 590:..\..\..\lvgl\version_6.1.2\lvgl\src\lv_objx/lv_cpicker.c ****         } else if(left && top)  {
 591:..\..\..\lvgl\version_6.1.2\lvgl\src\lv_objx/lv_cpicker.c ****             start_angle = ur;
 592:..\..\..\lvgl\version_6.1.2\lvgl\src\lv_objx/lv_cpicker.c ****             end_angle = dl;
 593:..\..\..\lvgl\version_6.1.2\lvgl\src\lv_objx/lv_cpicker.c ****         } else if(left && onXaxis) {
 594:..\..\..\lvgl\version_6.1.2\lvgl\src\lv_objx/lv_cpicker.c ****             start_angle = ur;
 595:..\..\..\lvgl\version_6.1.2\lvgl\src\lv_objx/lv_cpicker.c ****             end_angle = dr;
 596:..\..\..\lvgl\version_6.1.2\lvgl\src\lv_objx/lv_cpicker.c ****         } else if(left && bottom) {
 597:..\..\..\lvgl\version_6.1.2\lvgl\src\lv_objx/lv_cpicker.c ****             start_angle = ul;
 598:..\..\..\lvgl\version_6.1.2\lvgl\src\lv_objx/lv_cpicker.c ****             end_angle = dr;
 599:..\..\..\lvgl\version_6.1.2\lvgl\src\lv_objx/lv_cpicker.c ****         } else if(onYaxis && bottom) {
 600:..\..\..\lvgl\version_6.1.2\lvgl\src\lv_objx/lv_cpicker.c ****             start_angle = ul;
ARM GAS  C:\Users\pearlstl\AppData\Local\Temp\ccadfCp2.s 			page 12


 601:..\..\..\lvgl\version_6.1.2\lvgl\src\lv_objx/lv_cpicker.c ****             end_angle = ur;
 602:..\..\..\lvgl\version_6.1.2\lvgl\src\lv_objx/lv_cpicker.c ****         }
 603:..\..\..\lvgl\version_6.1.2\lvgl\src\lv_objx/lv_cpicker.c **** 
 604:..\..\..\lvgl\version_6.1.2\lvgl\src\lv_objx/lv_cpicker.c ****         /*rollover angle*/
 605:..\..\..\lvgl\version_6.1.2\lvgl\src\lv_objx/lv_cpicker.c ****         if(start_angle > end_angle) end_angle += 360;
 606:..\..\..\lvgl\version_6.1.2\lvgl\src\lv_objx/lv_cpicker.c **** 
 607:..\..\..\lvgl\version_6.1.2\lvgl\src\lv_objx/lv_cpicker.c ****         /*round to QF factor*/
 608:..\..\..\lvgl\version_6.1.2\lvgl\src\lv_objx/lv_cpicker.c ****         start_angle = (start_angle/LV_CPICKER_DEF_QF) * LV_CPICKER_DEF_QF;
 609:..\..\..\lvgl\version_6.1.2\lvgl\src\lv_objx/lv_cpicker.c ****         end_angle = (end_angle / LV_CPICKER_DEF_QF) * LV_CPICKER_DEF_QF;
 610:..\..\..\lvgl\version_6.1.2\lvgl\src\lv_objx/lv_cpicker.c **** 
 611:..\..\..\lvgl\version_6.1.2\lvgl\src\lv_objx/lv_cpicker.c ****         /*shift angle if necessary before adding offset*/
 612:..\..\..\lvgl\version_6.1.2\lvgl\src\lv_objx/lv_cpicker.c ****         if((start_angle - LV_CPICKER_DEF_QF) < 0) {
 613:..\..\..\lvgl\version_6.1.2\lvgl\src\lv_objx/lv_cpicker.c ****             start_angle += 360;
 614:..\..\..\lvgl\version_6.1.2\lvgl\src\lv_objx/lv_cpicker.c ****             end_angle += 360;
 615:..\..\..\lvgl\version_6.1.2\lvgl\src\lv_objx/lv_cpicker.c ****         }
 616:..\..\..\lvgl\version_6.1.2\lvgl\src\lv_objx/lv_cpicker.c **** 
 617:..\..\..\lvgl\version_6.1.2\lvgl\src\lv_objx/lv_cpicker.c ****         /*ensure overlapping by adding offset*/
 618:..\..\..\lvgl\version_6.1.2\lvgl\src\lv_objx/lv_cpicker.c ****         start_angle -= LV_CPICKER_DEF_QF;
 619:..\..\..\lvgl\version_6.1.2\lvgl\src\lv_objx/lv_cpicker.c ****         end_angle += LV_CPICKER_DEF_QF;
 620:..\..\..\lvgl\version_6.1.2\lvgl\src\lv_objx/lv_cpicker.c ****     }
 621:..\..\..\lvgl\version_6.1.2\lvgl\src\lv_objx/lv_cpicker.c **** 
 622:..\..\..\lvgl\version_6.1.2\lvgl\src\lv_objx/lv_cpicker.c ****     lv_point_t triangle_points[3];
 623:..\..\..\lvgl\version_6.1.2\lvgl\src\lv_objx/lv_cpicker.c ****     lv_style_t style;
 624:..\..\..\lvgl\version_6.1.2\lvgl\src\lv_objx/lv_cpicker.c ****     lv_style_copy(&style, &lv_style_plain);
 625:..\..\..\lvgl\version_6.1.2\lvgl\src\lv_objx/lv_cpicker.c ****     uint16_t i;
 626:..\..\..\lvgl\version_6.1.2\lvgl\src\lv_objx/lv_cpicker.c ****     for(i = start_angle; i <= end_angle; i+= LV_CPICKER_DEF_QF) {
 627:..\..\..\lvgl\version_6.1.2\lvgl\src\lv_objx/lv_cpicker.c ****         style.body.main_color = angle_to_mode_color(cpicker, i);
 628:..\..\..\lvgl\version_6.1.2\lvgl\src\lv_objx/lv_cpicker.c ****         style.body.grad_color = style.body.main_color;
 629:..\..\..\lvgl\version_6.1.2\lvgl\src\lv_objx/lv_cpicker.c **** 
 630:..\..\..\lvgl\version_6.1.2\lvgl\src\lv_objx/lv_cpicker.c ****         triangle_points[0].x = cx;
 631:..\..\..\lvgl\version_6.1.2\lvgl\src\lv_objx/lv_cpicker.c ****         triangle_points[0].y = cy;
 632:..\..\..\lvgl\version_6.1.2\lvgl\src\lv_objx/lv_cpicker.c **** 
 633:..\..\..\lvgl\version_6.1.2\lvgl\src\lv_objx/lv_cpicker.c ****         triangle_points[1].x = cx + (r * lv_trigo_sin(i) >> LV_TRIGO_SHIFT);
 634:..\..\..\lvgl\version_6.1.2\lvgl\src\lv_objx/lv_cpicker.c ****         triangle_points[1].y = cy + (r * lv_trigo_sin(i + 90) >> LV_TRIGO_SHIFT);
 635:..\..\..\lvgl\version_6.1.2\lvgl\src\lv_objx/lv_cpicker.c **** 
 636:..\..\..\lvgl\version_6.1.2\lvgl\src\lv_objx/lv_cpicker.c ****         if(i == end_angle || i == (360 - LV_CPICKER_DEF_QF)) {
 637:..\..\..\lvgl\version_6.1.2\lvgl\src\lv_objx/lv_cpicker.c ****             /*the last triangle is drawn without additional overlapping pixels*/
 638:..\..\..\lvgl\version_6.1.2\lvgl\src\lv_objx/lv_cpicker.c ****             triangle_points[2].x = cx + (r * lv_trigo_sin(i + LV_CPICKER_DEF_QF) >> LV_TRIGO_SHIFT)
 639:..\..\..\lvgl\version_6.1.2\lvgl\src\lv_objx/lv_cpicker.c ****             triangle_points[2].y = cy + (r * lv_trigo_sin(i + LV_CPICKER_DEF_QF + 90) >> LV_TRIGO_S
 640:..\..\..\lvgl\version_6.1.2\lvgl\src\lv_objx/lv_cpicker.c ****         } else {
 641:..\..\..\lvgl\version_6.1.2\lvgl\src\lv_objx/lv_cpicker.c ****             triangle_points[2].x = cx + (r * lv_trigo_sin(i + LV_CPICKER_DEF_QF + TRI_OFFSET) >> LV
 642:..\..\..\lvgl\version_6.1.2\lvgl\src\lv_objx/lv_cpicker.c ****             triangle_points[2].y = cy + (r * lv_trigo_sin(i + LV_CPICKER_DEF_QF + TRI_OFFSET + 90) 
 643:..\..\..\lvgl\version_6.1.2\lvgl\src\lv_objx/lv_cpicker.c ****         }
 644:..\..\..\lvgl\version_6.1.2\lvgl\src\lv_objx/lv_cpicker.c **** 
 645:..\..\..\lvgl\version_6.1.2\lvgl\src\lv_objx/lv_cpicker.c ****         lv_draw_triangle(triangle_points, mask, &style, LV_OPA_COVER);
 646:..\..\..\lvgl\version_6.1.2\lvgl\src\lv_objx/lv_cpicker.c ****     }
 647:..\..\..\lvgl\version_6.1.2\lvgl\src\lv_objx/lv_cpicker.c **** 
 648:..\..\..\lvgl\version_6.1.2\lvgl\src\lv_objx/lv_cpicker.c ****     /*Mask out the center area*/
 649:..\..\..\lvgl\version_6.1.2\lvgl\src\lv_objx/lv_cpicker.c ****     const lv_style_t * style_main = lv_cpicker_get_style(cpicker, LV_CPICKER_STYLE_MAIN);
 650:..\..\..\lvgl\version_6.1.2\lvgl\src\lv_objx/lv_cpicker.c ****     lv_style_copy(&style, style_main);
 651:..\..\..\lvgl\version_6.1.2\lvgl\src\lv_objx/lv_cpicker.c ****     style.body.radius = LV_RADIUS_CIRCLE;
 652:..\..\..\lvgl\version_6.1.2\lvgl\src\lv_objx/lv_cpicker.c ****     lv_area_t area_mid;
 653:..\..\..\lvgl\version_6.1.2\lvgl\src\lv_objx/lv_cpicker.c ****     lv_area_copy(&area_mid, &cpicker->coords);
 654:..\..\..\lvgl\version_6.1.2\lvgl\src\lv_objx/lv_cpicker.c ****     lv_area_increment(&area_mid, -style_main->line.width);
 655:..\..\..\lvgl\version_6.1.2\lvgl\src\lv_objx/lv_cpicker.c **** 
 656:..\..\..\lvgl\version_6.1.2\lvgl\src\lv_objx/lv_cpicker.c ****     lv_draw_rect(&area_mid, mask, &style, opa_scale);
 657:..\..\..\lvgl\version_6.1.2\lvgl\src\lv_objx/lv_cpicker.c **** 
ARM GAS  C:\Users\pearlstl\AppData\Local\Temp\ccadfCp2.s 			page 13


 658:..\..\..\lvgl\version_6.1.2\lvgl\src\lv_objx/lv_cpicker.c ****     if(ext->preview) {
 659:..\..\..\lvgl\version_6.1.2\lvgl\src\lv_objx/lv_cpicker.c ****         lv_color_t color = lv_cpicker_get_color(cpicker);
 660:..\..\..\lvgl\version_6.1.2\lvgl\src\lv_objx/lv_cpicker.c ****         style.body.main_color = color;
 661:..\..\..\lvgl\version_6.1.2\lvgl\src\lv_objx/lv_cpicker.c ****         style.body.grad_color = color;
 662:..\..\..\lvgl\version_6.1.2\lvgl\src\lv_objx/lv_cpicker.c ****         lv_area_increment(&area_mid, -style_main->line.width / 2);
 663:..\..\..\lvgl\version_6.1.2\lvgl\src\lv_objx/lv_cpicker.c **** 
 664:..\..\..\lvgl\version_6.1.2\lvgl\src\lv_objx/lv_cpicker.c ****         lv_draw_rect(&area_mid, mask, &style, opa_scale);
 665:..\..\..\lvgl\version_6.1.2\lvgl\src\lv_objx/lv_cpicker.c ****     }
 666:..\..\..\lvgl\version_6.1.2\lvgl\src\lv_objx/lv_cpicker.c **** }
 667:..\..\..\lvgl\version_6.1.2\lvgl\src\lv_objx/lv_cpicker.c **** 
 668:..\..\..\lvgl\version_6.1.2\lvgl\src\lv_objx/lv_cpicker.c **** static void draw_rect_grad(lv_obj_t * cpicker, const lv_area_t * mask, lv_opa_t opa_scale)
 669:..\..\..\lvgl\version_6.1.2\lvgl\src\lv_objx/lv_cpicker.c **** {
 670:..\..\..\lvgl\version_6.1.2\lvgl\src\lv_objx/lv_cpicker.c ****     lv_style_t style;
 671:..\..\..\lvgl\version_6.1.2\lvgl\src\lv_objx/lv_cpicker.c ****     lv_style_copy(&style, lv_cpicker_get_style(cpicker, LV_CPICKER_STYLE_MAIN));
 672:..\..\..\lvgl\version_6.1.2\lvgl\src\lv_objx/lv_cpicker.c **** 
 673:..\..\..\lvgl\version_6.1.2\lvgl\src\lv_objx/lv_cpicker.c ****     lv_area_t grad_area;
 674:..\..\..\lvgl\version_6.1.2\lvgl\src\lv_objx/lv_cpicker.c ****     lv_obj_get_coords(cpicker, &grad_area);
 675:..\..\..\lvgl\version_6.1.2\lvgl\src\lv_objx/lv_cpicker.c **** 
 676:..\..\..\lvgl\version_6.1.2\lvgl\src\lv_objx/lv_cpicker.c ****     if(style.body.radius) {
 677:..\..\..\lvgl\version_6.1.2\lvgl\src\lv_objx/lv_cpicker.c ****         lv_coord_t h = lv_obj_get_height(cpicker);
 678:..\..\..\lvgl\version_6.1.2\lvgl\src\lv_objx/lv_cpicker.c ****         lv_coord_t r = style.body.radius;
 679:..\..\..\lvgl\version_6.1.2\lvgl\src\lv_objx/lv_cpicker.c ****         if(r > h / 2) r = h / 2;
 680:..\..\..\lvgl\version_6.1.2\lvgl\src\lv_objx/lv_cpicker.c ****         /*Make the gradient area smaller with a half circle on both ends*/
 681:..\..\..\lvgl\version_6.1.2\lvgl\src\lv_objx/lv_cpicker.c ****         grad_area.x1 += r;
 682:..\..\..\lvgl\version_6.1.2\lvgl\src\lv_objx/lv_cpicker.c ****         grad_area.x2 -= r;
 683:..\..\..\lvgl\version_6.1.2\lvgl\src\lv_objx/lv_cpicker.c **** 
 684:..\..\..\lvgl\version_6.1.2\lvgl\src\lv_objx/lv_cpicker.c ****         /*Draw the left rounded end*/
 685:..\..\..\lvgl\version_6.1.2\lvgl\src\lv_objx/lv_cpicker.c ****         lv_area_t rounded_edge_area;
 686:..\..\..\lvgl\version_6.1.2\lvgl\src\lv_objx/lv_cpicker.c ****         lv_obj_get_coords(cpicker, &rounded_edge_area);
 687:..\..\..\lvgl\version_6.1.2\lvgl\src\lv_objx/lv_cpicker.c ****         rounded_edge_area.x2 = rounded_edge_area.x1 + 2 * r;
 688:..\..\..\lvgl\version_6.1.2\lvgl\src\lv_objx/lv_cpicker.c **** 
 689:..\..\..\lvgl\version_6.1.2\lvgl\src\lv_objx/lv_cpicker.c ****         style.body.main_color = angle_to_mode_color(cpicker, 0);
 690:..\..\..\lvgl\version_6.1.2\lvgl\src\lv_objx/lv_cpicker.c ****         style.body.grad_color = style.body.main_color;
 691:..\..\..\lvgl\version_6.1.2\lvgl\src\lv_objx/lv_cpicker.c **** 
 692:..\..\..\lvgl\version_6.1.2\lvgl\src\lv_objx/lv_cpicker.c ****         lv_draw_rect(&rounded_edge_area, mask, &style, opa_scale);
 693:..\..\..\lvgl\version_6.1.2\lvgl\src\lv_objx/lv_cpicker.c **** 
 694:..\..\..\lvgl\version_6.1.2\lvgl\src\lv_objx/lv_cpicker.c ****         /*Draw the right rounded end*/
 695:..\..\..\lvgl\version_6.1.2\lvgl\src\lv_objx/lv_cpicker.c ****         lv_obj_get_coords(cpicker, &rounded_edge_area);
 696:..\..\..\lvgl\version_6.1.2\lvgl\src\lv_objx/lv_cpicker.c ****         rounded_edge_area.x1 = rounded_edge_area.x2 - 2 * r;
 697:..\..\..\lvgl\version_6.1.2\lvgl\src\lv_objx/lv_cpicker.c **** 
 698:..\..\..\lvgl\version_6.1.2\lvgl\src\lv_objx/lv_cpicker.c ****         style.body.main_color = angle_to_mode_color(cpicker, 359);
 699:..\..\..\lvgl\version_6.1.2\lvgl\src\lv_objx/lv_cpicker.c ****         style.body.grad_color = style.body.main_color;
 700:..\..\..\lvgl\version_6.1.2\lvgl\src\lv_objx/lv_cpicker.c **** 
 701:..\..\..\lvgl\version_6.1.2\lvgl\src\lv_objx/lv_cpicker.c ****         lv_draw_rect(&rounded_edge_area, mask, &style, opa_scale);
 702:..\..\..\lvgl\version_6.1.2\lvgl\src\lv_objx/lv_cpicker.c ****     }
 703:..\..\..\lvgl\version_6.1.2\lvgl\src\lv_objx/lv_cpicker.c **** 
 704:..\..\..\lvgl\version_6.1.2\lvgl\src\lv_objx/lv_cpicker.c ****     lv_coord_t grad_w = lv_area_get_width(&grad_area);
 705:..\..\..\lvgl\version_6.1.2\lvgl\src\lv_objx/lv_cpicker.c ****     uint16_t i_step = LV_MATH_MAX(LV_CPICKER_DEF_QF, 360 / grad_w);
 706:..\..\..\lvgl\version_6.1.2\lvgl\src\lv_objx/lv_cpicker.c ****     style.body.radius = 0;
 707:..\..\..\lvgl\version_6.1.2\lvgl\src\lv_objx/lv_cpicker.c ****     style.body.border.width = 0;
 708:..\..\..\lvgl\version_6.1.2\lvgl\src\lv_objx/lv_cpicker.c ****     style.body.shadow.width = 0;
 709:..\..\..\lvgl\version_6.1.2\lvgl\src\lv_objx/lv_cpicker.c ****     style.body.opa = LV_OPA_COVER;
 710:..\..\..\lvgl\version_6.1.2\lvgl\src\lv_objx/lv_cpicker.c **** 
 711:..\..\..\lvgl\version_6.1.2\lvgl\src\lv_objx/lv_cpicker.c ****     uint16_t i;
 712:..\..\..\lvgl\version_6.1.2\lvgl\src\lv_objx/lv_cpicker.c ****     for(i = 0; i < 360; i += i_step) {
 713:..\..\..\lvgl\version_6.1.2\lvgl\src\lv_objx/lv_cpicker.c ****         style.body.main_color = angle_to_mode_color(cpicker, i);
 714:..\..\..\lvgl\version_6.1.2\lvgl\src\lv_objx/lv_cpicker.c ****         style.body.grad_color = style.body.main_color;
ARM GAS  C:\Users\pearlstl\AppData\Local\Temp\ccadfCp2.s 			page 14


 715:..\..\..\lvgl\version_6.1.2\lvgl\src\lv_objx/lv_cpicker.c **** 
 716:..\..\..\lvgl\version_6.1.2\lvgl\src\lv_objx/lv_cpicker.c ****         /*the following attribute might need changing between index to add border, shadow, radius e
 717:..\..\..\lvgl\version_6.1.2\lvgl\src\lv_objx/lv_cpicker.c ****         lv_area_t rect_area;
 718:..\..\..\lvgl\version_6.1.2\lvgl\src\lv_objx/lv_cpicker.c **** 
 719:..\..\..\lvgl\version_6.1.2\lvgl\src\lv_objx/lv_cpicker.c ****         /*scale angle (hue/sat/val) to linear coordinate*/
 720:..\..\..\lvgl\version_6.1.2\lvgl\src\lv_objx/lv_cpicker.c ****         lv_coord_t xi = (i * grad_w) / 360;
 721:..\..\..\lvgl\version_6.1.2\lvgl\src\lv_objx/lv_cpicker.c **** 
 722:..\..\..\lvgl\version_6.1.2\lvgl\src\lv_objx/lv_cpicker.c ****         rect_area.x1 = LV_MATH_MIN(grad_area.x1 + xi, grad_area.x1 + grad_w - i_step);
 723:..\..\..\lvgl\version_6.1.2\lvgl\src\lv_objx/lv_cpicker.c ****         rect_area.y1 = grad_area.y1;
 724:..\..\..\lvgl\version_6.1.2\lvgl\src\lv_objx/lv_cpicker.c ****         rect_area.x2 = rect_area.x1 + i_step;
 725:..\..\..\lvgl\version_6.1.2\lvgl\src\lv_objx/lv_cpicker.c ****         rect_area.y2 = grad_area.y2;
 726:..\..\..\lvgl\version_6.1.2\lvgl\src\lv_objx/lv_cpicker.c **** 
 727:..\..\..\lvgl\version_6.1.2\lvgl\src\lv_objx/lv_cpicker.c ****         lv_draw_rect(&rect_area, mask, &style, opa_scale);
 728:..\..\..\lvgl\version_6.1.2\lvgl\src\lv_objx/lv_cpicker.c ****     }
 729:..\..\..\lvgl\version_6.1.2\lvgl\src\lv_objx/lv_cpicker.c **** }
 730:..\..\..\lvgl\version_6.1.2\lvgl\src\lv_objx/lv_cpicker.c **** 
 731:..\..\..\lvgl\version_6.1.2\lvgl\src\lv_objx/lv_cpicker.c **** static void draw_indic(lv_obj_t * cpicker, const lv_area_t * mask, lv_opa_t opa_scale)
 732:..\..\..\lvgl\version_6.1.2\lvgl\src\lv_objx/lv_cpicker.c **** {
 733:..\..\..\lvgl\version_6.1.2\lvgl\src\lv_objx/lv_cpicker.c ****     lv_cpicker_ext_t * ext = lv_obj_get_ext_attr(cpicker);
 734:..\..\..\lvgl\version_6.1.2\lvgl\src\lv_objx/lv_cpicker.c **** 
 735:..\..\..\lvgl\version_6.1.2\lvgl\src\lv_objx/lv_cpicker.c ****     lv_style_t style_cir;
 736:..\..\..\lvgl\version_6.1.2\lvgl\src\lv_objx/lv_cpicker.c ****     lv_style_copy(&style_cir, ext->indic.style);
 737:..\..\..\lvgl\version_6.1.2\lvgl\src\lv_objx/lv_cpicker.c ****     style_cir.body.radius = LV_RADIUS_CIRCLE;
 738:..\..\..\lvgl\version_6.1.2\lvgl\src\lv_objx/lv_cpicker.c **** 
 739:..\..\..\lvgl\version_6.1.2\lvgl\src\lv_objx/lv_cpicker.c ****     if(ext->indic.colored) {
 740:..\..\..\lvgl\version_6.1.2\lvgl\src\lv_objx/lv_cpicker.c ****         style_cir.body.main_color = lv_cpicker_get_color(cpicker);
 741:..\..\..\lvgl\version_6.1.2\lvgl\src\lv_objx/lv_cpicker.c ****         style_cir.body.grad_color = style_cir.body.main_color;
 742:..\..\..\lvgl\version_6.1.2\lvgl\src\lv_objx/lv_cpicker.c ****     }
 743:..\..\..\lvgl\version_6.1.2\lvgl\src\lv_objx/lv_cpicker.c **** 
 744:..\..\..\lvgl\version_6.1.2\lvgl\src\lv_objx/lv_cpicker.c ****     lv_area_t indic_area = get_indic_area(cpicker);
 745:..\..\..\lvgl\version_6.1.2\lvgl\src\lv_objx/lv_cpicker.c **** 
 746:..\..\..\lvgl\version_6.1.2\lvgl\src\lv_objx/lv_cpicker.c ****     lv_draw_rect(&indic_area, mask, &style_cir, opa_scale);
 747:..\..\..\lvgl\version_6.1.2\lvgl\src\lv_objx/lv_cpicker.c **** }
 748:..\..\..\lvgl\version_6.1.2\lvgl\src\lv_objx/lv_cpicker.c **** 
 749:..\..\..\lvgl\version_6.1.2\lvgl\src\lv_objx/lv_cpicker.c **** static void invalidate_indic(lv_obj_t * cpicker)
 750:..\..\..\lvgl\version_6.1.2\lvgl\src\lv_objx/lv_cpicker.c **** {
 751:..\..\..\lvgl\version_6.1.2\lvgl\src\lv_objx/lv_cpicker.c ****     lv_area_t indic_area = get_indic_area(cpicker);
 752:..\..\..\lvgl\version_6.1.2\lvgl\src\lv_objx/lv_cpicker.c **** 
 753:..\..\..\lvgl\version_6.1.2\lvgl\src\lv_objx/lv_cpicker.c ****     lv_obj_invalidate_area(cpicker, &indic_area);
 754:..\..\..\lvgl\version_6.1.2\lvgl\src\lv_objx/lv_cpicker.c **** }
 755:..\..\..\lvgl\version_6.1.2\lvgl\src\lv_objx/lv_cpicker.c **** 
 756:..\..\..\lvgl\version_6.1.2\lvgl\src\lv_objx/lv_cpicker.c **** static lv_area_t get_indic_area(lv_obj_t * cpicker)
 757:..\..\..\lvgl\version_6.1.2\lvgl\src\lv_objx/lv_cpicker.c **** {
 758:..\..\..\lvgl\version_6.1.2\lvgl\src\lv_objx/lv_cpicker.c ****     lv_cpicker_ext_t * ext = lv_obj_get_ext_attr(cpicker);
 759:..\..\..\lvgl\version_6.1.2\lvgl\src\lv_objx/lv_cpicker.c ****     const lv_style_t * style_main = lv_cpicker_get_style(cpicker, LV_CPICKER_STYLE_MAIN);
 760:..\..\..\lvgl\version_6.1.2\lvgl\src\lv_objx/lv_cpicker.c ****     const lv_style_t * style_indic = lv_cpicker_get_style(cpicker, LV_CPICKER_STYLE_INDICATOR);
 761:..\..\..\lvgl\version_6.1.2\lvgl\src\lv_objx/lv_cpicker.c **** 
 762:..\..\..\lvgl\version_6.1.2\lvgl\src\lv_objx/lv_cpicker.c ****     uint16_t r = 0;
 763:..\..\..\lvgl\version_6.1.2\lvgl\src\lv_objx/lv_cpicker.c ****     if(ext->type == LV_CPICKER_TYPE_DISC) r = style_main->line.width / 2;
 764:..\..\..\lvgl\version_6.1.2\lvgl\src\lv_objx/lv_cpicker.c ****     else if(ext->type == LV_CPICKER_TYPE_RECT) {
 765:..\..\..\lvgl\version_6.1.2\lvgl\src\lv_objx/lv_cpicker.c ****         lv_coord_t h = lv_obj_get_height(cpicker);
 766:..\..\..\lvgl\version_6.1.2\lvgl\src\lv_objx/lv_cpicker.c ****         r = h / 2;
 767:..\..\..\lvgl\version_6.1.2\lvgl\src\lv_objx/lv_cpicker.c ****     }
 768:..\..\..\lvgl\version_6.1.2\lvgl\src\lv_objx/lv_cpicker.c **** 
 769:..\..\..\lvgl\version_6.1.2\lvgl\src\lv_objx/lv_cpicker.c ****     lv_area_t indic_area;
 770:..\..\..\lvgl\version_6.1.2\lvgl\src\lv_objx/lv_cpicker.c ****     indic_area.x1 = cpicker->coords.x1 + ext->indic.pos.x - r - style_indic->body.padding.left;
 771:..\..\..\lvgl\version_6.1.2\lvgl\src\lv_objx/lv_cpicker.c ****     indic_area.y1 = cpicker->coords.y1 + ext->indic.pos.y - r - style_indic->body.padding.right;
ARM GAS  C:\Users\pearlstl\AppData\Local\Temp\ccadfCp2.s 			page 15


 772:..\..\..\lvgl\version_6.1.2\lvgl\src\lv_objx/lv_cpicker.c ****     indic_area.x2 = cpicker->coords.x1 + ext->indic.pos.x + r + style_indic->body.padding.top;
 773:..\..\..\lvgl\version_6.1.2\lvgl\src\lv_objx/lv_cpicker.c ****     indic_area.y2 = cpicker->coords.y1 + ext->indic.pos.y + r + style_indic->body.padding.bottom;
 774:..\..\..\lvgl\version_6.1.2\lvgl\src\lv_objx/lv_cpicker.c **** 
 775:..\..\..\lvgl\version_6.1.2\lvgl\src\lv_objx/lv_cpicker.c ****     return indic_area;
 776:..\..\..\lvgl\version_6.1.2\lvgl\src\lv_objx/lv_cpicker.c **** }
 777:..\..\..\lvgl\version_6.1.2\lvgl\src\lv_objx/lv_cpicker.c **** 
 778:..\..\..\lvgl\version_6.1.2\lvgl\src\lv_objx/lv_cpicker.c **** /**
 779:..\..\..\lvgl\version_6.1.2\lvgl\src\lv_objx/lv_cpicker.c ****  * Signal function of the color_picker
 780:..\..\..\lvgl\version_6.1.2\lvgl\src\lv_objx/lv_cpicker.c ****  * @param cpicker pointer to a color_picker object
 781:..\..\..\lvgl\version_6.1.2\lvgl\src\lv_objx/lv_cpicker.c ****  * @param sign a signal type from lv_signal_t enum
 782:..\..\..\lvgl\version_6.1.2\lvgl\src\lv_objx/lv_cpicker.c ****  * @param param pointer to a signal specific variable
 783:..\..\..\lvgl\version_6.1.2\lvgl\src\lv_objx/lv_cpicker.c ****  * @return LV_RES_OK: the object is not deleted in the function; LV_RES_INV: the object is deleted
 784:..\..\..\lvgl\version_6.1.2\lvgl\src\lv_objx/lv_cpicker.c ****  */
 785:..\..\..\lvgl\version_6.1.2\lvgl\src\lv_objx/lv_cpicker.c **** static lv_res_t lv_cpicker_signal(lv_obj_t * cpicker, lv_signal_t sign, void * param)
 786:..\..\..\lvgl\version_6.1.2\lvgl\src\lv_objx/lv_cpicker.c **** {
 787:..\..\..\lvgl\version_6.1.2\lvgl\src\lv_objx/lv_cpicker.c ****     /* Include the ancient signal function */
 788:..\..\..\lvgl\version_6.1.2\lvgl\src\lv_objx/lv_cpicker.c ****     lv_res_t res = ancestor_signal(cpicker, sign, param);
 789:..\..\..\lvgl\version_6.1.2\lvgl\src\lv_objx/lv_cpicker.c ****     if(res != LV_RES_OK) return res;
 790:..\..\..\lvgl\version_6.1.2\lvgl\src\lv_objx/lv_cpicker.c ****     if(sign == LV_SIGNAL_GET_TYPE) return lv_obj_handle_get_type_signal(param, LV_OBJX_NAME);
 791:..\..\..\lvgl\version_6.1.2\lvgl\src\lv_objx/lv_cpicker.c **** 
 792:..\..\..\lvgl\version_6.1.2\lvgl\src\lv_objx/lv_cpicker.c ****     lv_cpicker_ext_t * ext = lv_obj_get_ext_attr(cpicker);
 793:..\..\..\lvgl\version_6.1.2\lvgl\src\lv_objx/lv_cpicker.c **** 
 794:..\..\..\lvgl\version_6.1.2\lvgl\src\lv_objx/lv_cpicker.c ****     if(sign == LV_SIGNAL_CLEANUP) {
 795:..\..\..\lvgl\version_6.1.2\lvgl\src\lv_objx/lv_cpicker.c ****         /*Nothing to cleanup. (No dynamically allocated memory in 'ext')*/
 796:..\..\..\lvgl\version_6.1.2\lvgl\src\lv_objx/lv_cpicker.c ****     } else if(sign == LV_SIGNAL_REFR_EXT_DRAW_PAD) {
 797:..\..\..\lvgl\version_6.1.2\lvgl\src\lv_objx/lv_cpicker.c ****         const lv_style_t * style_indic = lv_cpicker_get_style(cpicker, LV_CPICKER_STYLE_INDICATOR);
 798:..\..\..\lvgl\version_6.1.2\lvgl\src\lv_objx/lv_cpicker.c ****         lv_coord_t indic_pad = LV_MATH_MAX(style_indic->body.padding.left, style_indic->body.paddin
 799:..\..\..\lvgl\version_6.1.2\lvgl\src\lv_objx/lv_cpicker.c ****         indic_pad = LV_MATH_MAX(indic_pad, style_indic->body.padding.top);
 800:..\..\..\lvgl\version_6.1.2\lvgl\src\lv_objx/lv_cpicker.c ****         indic_pad = LV_MATH_MAX(indic_pad, style_indic->body.padding.bottom);
 801:..\..\..\lvgl\version_6.1.2\lvgl\src\lv_objx/lv_cpicker.c **** 
 802:..\..\..\lvgl\version_6.1.2\lvgl\src\lv_objx/lv_cpicker.c ****         if(ext->type == LV_CPICKER_TYPE_RECT) indic_pad += LV_MATH_MAX(indic_pad, lv_obj_get_height
 803:..\..\..\lvgl\version_6.1.2\lvgl\src\lv_objx/lv_cpicker.c **** 
 804:..\..\..\lvgl\version_6.1.2\lvgl\src\lv_objx/lv_cpicker.c ****         cpicker->ext_draw_pad = LV_MATH_MAX(cpicker->ext_draw_pad, indic_pad);
 805:..\..\..\lvgl\version_6.1.2\lvgl\src\lv_objx/lv_cpicker.c ****     } else if(sign == LV_SIGNAL_CORD_CHG) {
 806:..\..\..\lvgl\version_6.1.2\lvgl\src\lv_objx/lv_cpicker.c ****         /*Refresh extended draw area to make knob visible*/
 807:..\..\..\lvgl\version_6.1.2\lvgl\src\lv_objx/lv_cpicker.c ****         if(lv_obj_get_width(cpicker) != lv_area_get_width(param) ||
 808:..\..\..\lvgl\version_6.1.2\lvgl\src\lv_objx/lv_cpicker.c ****            lv_obj_get_height(cpicker) != lv_area_get_height(param)) {
 809:..\..\..\lvgl\version_6.1.2\lvgl\src\lv_objx/lv_cpicker.c ****             lv_obj_refresh_ext_draw_pad(cpicker);
 810:..\..\..\lvgl\version_6.1.2\lvgl\src\lv_objx/lv_cpicker.c ****             refr_indic_pos(cpicker);
 811:..\..\..\lvgl\version_6.1.2\lvgl\src\lv_objx/lv_cpicker.c ****         }
 812:..\..\..\lvgl\version_6.1.2\lvgl\src\lv_objx/lv_cpicker.c ****     }  else if(sign == LV_SIGNAL_STYLE_CHG) {
 813:..\..\..\lvgl\version_6.1.2\lvgl\src\lv_objx/lv_cpicker.c ****         /*Refresh extended draw area to make knob visible*/
 814:..\..\..\lvgl\version_6.1.2\lvgl\src\lv_objx/lv_cpicker.c ****         lv_obj_refresh_ext_draw_pad(cpicker);
 815:..\..\..\lvgl\version_6.1.2\lvgl\src\lv_objx/lv_cpicker.c ****         refr_indic_pos(cpicker);
 816:..\..\..\lvgl\version_6.1.2\lvgl\src\lv_objx/lv_cpicker.c ****     }
 817:..\..\..\lvgl\version_6.1.2\lvgl\src\lv_objx/lv_cpicker.c ****     else if(sign == LV_SIGNAL_CONTROL) {
 818:..\..\..\lvgl\version_6.1.2\lvgl\src\lv_objx/lv_cpicker.c ****         uint32_t c = *((uint32_t *)param); /*uint32_t because can be UTF-8*/
 819:..\..\..\lvgl\version_6.1.2\lvgl\src\lv_objx/lv_cpicker.c ****         if(c == LV_KEY_RIGHT || c == LV_KEY_UP) {
 820:..\..\..\lvgl\version_6.1.2\lvgl\src\lv_objx/lv_cpicker.c ****             lv_color_hsv_t hsv_cur;
 821:..\..\..\lvgl\version_6.1.2\lvgl\src\lv_objx/lv_cpicker.c ****             hsv_cur = ext->hsv;
 822:..\..\..\lvgl\version_6.1.2\lvgl\src\lv_objx/lv_cpicker.c **** 
 823:..\..\..\lvgl\version_6.1.2\lvgl\src\lv_objx/lv_cpicker.c ****             switch(ext->color_mode) {
 824:..\..\..\lvgl\version_6.1.2\lvgl\src\lv_objx/lv_cpicker.c ****             case LV_CPICKER_COLOR_MODE_HUE:
 825:..\..\..\lvgl\version_6.1.2\lvgl\src\lv_objx/lv_cpicker.c ****                 hsv_cur.h = (ext->hsv.h + 1) % 360;
 826:..\..\..\lvgl\version_6.1.2\lvgl\src\lv_objx/lv_cpicker.c ****                 break;
 827:..\..\..\lvgl\version_6.1.2\lvgl\src\lv_objx/lv_cpicker.c ****             case LV_CPICKER_COLOR_MODE_SATURATION:
 828:..\..\..\lvgl\version_6.1.2\lvgl\src\lv_objx/lv_cpicker.c ****                 hsv_cur.s = (ext->hsv.s + 1) % 100;
ARM GAS  C:\Users\pearlstl\AppData\Local\Temp\ccadfCp2.s 			page 16


 829:..\..\..\lvgl\version_6.1.2\lvgl\src\lv_objx/lv_cpicker.c ****                 break;
 830:..\..\..\lvgl\version_6.1.2\lvgl\src\lv_objx/lv_cpicker.c ****             case LV_CPICKER_COLOR_MODE_VALUE:
 831:..\..\..\lvgl\version_6.1.2\lvgl\src\lv_objx/lv_cpicker.c ****                 hsv_cur.v = (ext->hsv.v + 1) % 100;
 832:..\..\..\lvgl\version_6.1.2\lvgl\src\lv_objx/lv_cpicker.c ****                 break;
 833:..\..\..\lvgl\version_6.1.2\lvgl\src\lv_objx/lv_cpicker.c ****             }
 834:..\..\..\lvgl\version_6.1.2\lvgl\src\lv_objx/lv_cpicker.c **** 
 835:..\..\..\lvgl\version_6.1.2\lvgl\src\lv_objx/lv_cpicker.c ****             if (lv_cpicker_set_hsv(cpicker, hsv_cur)) {
 836:..\..\..\lvgl\version_6.1.2\lvgl\src\lv_objx/lv_cpicker.c ****                 res = lv_event_send(cpicker, LV_EVENT_VALUE_CHANGED, NULL);
 837:..\..\..\lvgl\version_6.1.2\lvgl\src\lv_objx/lv_cpicker.c ****                 if(res != LV_RES_OK) return res;
 838:..\..\..\lvgl\version_6.1.2\lvgl\src\lv_objx/lv_cpicker.c ****             }
 839:..\..\..\lvgl\version_6.1.2\lvgl\src\lv_objx/lv_cpicker.c ****         }
 840:..\..\..\lvgl\version_6.1.2\lvgl\src\lv_objx/lv_cpicker.c ****         else if(c == LV_KEY_LEFT || c == LV_KEY_DOWN)  {
 841:..\..\..\lvgl\version_6.1.2\lvgl\src\lv_objx/lv_cpicker.c ****             lv_color_hsv_t hsv_cur;
 842:..\..\..\lvgl\version_6.1.2\lvgl\src\lv_objx/lv_cpicker.c ****             hsv_cur = ext->hsv;
 843:..\..\..\lvgl\version_6.1.2\lvgl\src\lv_objx/lv_cpicker.c **** 
 844:..\..\..\lvgl\version_6.1.2\lvgl\src\lv_objx/lv_cpicker.c ****             switch(ext->color_mode) {
 845:..\..\..\lvgl\version_6.1.2\lvgl\src\lv_objx/lv_cpicker.c ****             case LV_CPICKER_COLOR_MODE_HUE:
 846:..\..\..\lvgl\version_6.1.2\lvgl\src\lv_objx/lv_cpicker.c ****                 hsv_cur.h = ext->hsv.h > 0?(ext->hsv.h - 1) : 360;
 847:..\..\..\lvgl\version_6.1.2\lvgl\src\lv_objx/lv_cpicker.c ****                 break;
 848:..\..\..\lvgl\version_6.1.2\lvgl\src\lv_objx/lv_cpicker.c ****             case LV_CPICKER_COLOR_MODE_SATURATION:
 849:..\..\..\lvgl\version_6.1.2\lvgl\src\lv_objx/lv_cpicker.c ****                 hsv_cur.s = ext->hsv.s > 0?(ext->hsv.s - 1) : 100;
 850:..\..\..\lvgl\version_6.1.2\lvgl\src\lv_objx/lv_cpicker.c ****                 break;
 851:..\..\..\lvgl\version_6.1.2\lvgl\src\lv_objx/lv_cpicker.c ****             case LV_CPICKER_COLOR_MODE_VALUE:
 852:..\..\..\lvgl\version_6.1.2\lvgl\src\lv_objx/lv_cpicker.c ****                 hsv_cur.v = ext->hsv.v > 0?(ext->hsv.v - 1) : 100;
 853:..\..\..\lvgl\version_6.1.2\lvgl\src\lv_objx/lv_cpicker.c ****                 break;
 854:..\..\..\lvgl\version_6.1.2\lvgl\src\lv_objx/lv_cpicker.c ****             }
 855:..\..\..\lvgl\version_6.1.2\lvgl\src\lv_objx/lv_cpicker.c **** 
 856:..\..\..\lvgl\version_6.1.2\lvgl\src\lv_objx/lv_cpicker.c ****             if (lv_cpicker_set_hsv(cpicker, hsv_cur)) {
 857:..\..\..\lvgl\version_6.1.2\lvgl\src\lv_objx/lv_cpicker.c ****                 res = lv_event_send(cpicker, LV_EVENT_VALUE_CHANGED, NULL);
 858:..\..\..\lvgl\version_6.1.2\lvgl\src\lv_objx/lv_cpicker.c ****                 if(res != LV_RES_OK) return res;
 859:..\..\..\lvgl\version_6.1.2\lvgl\src\lv_objx/lv_cpicker.c ****             }
 860:..\..\..\lvgl\version_6.1.2\lvgl\src\lv_objx/lv_cpicker.c ****         }
 861:..\..\..\lvgl\version_6.1.2\lvgl\src\lv_objx/lv_cpicker.c ****     }
 862:..\..\..\lvgl\version_6.1.2\lvgl\src\lv_objx/lv_cpicker.c ****     else if(sign == LV_SIGNAL_PRESSED) {
 863:..\..\..\lvgl\version_6.1.2\lvgl\src\lv_objx/lv_cpicker.c ****         ext->last_change_time = lv_tick_get();
 864:..\..\..\lvgl\version_6.1.2\lvgl\src\lv_objx/lv_cpicker.c ****         lv_indev_get_point(lv_indev_get_act(), &ext->last_press_point);
 865:..\..\..\lvgl\version_6.1.2\lvgl\src\lv_objx/lv_cpicker.c ****         res = double_click_reset(cpicker);
 866:..\..\..\lvgl\version_6.1.2\lvgl\src\lv_objx/lv_cpicker.c ****         if(res != LV_RES_OK) return res;
 867:..\..\..\lvgl\version_6.1.2\lvgl\src\lv_objx/lv_cpicker.c ****     } else if(sign == LV_SIGNAL_PRESSING) {
 868:..\..\..\lvgl\version_6.1.2\lvgl\src\lv_objx/lv_cpicker.c ****         lv_indev_t * indev = lv_indev_get_act();
 869:..\..\..\lvgl\version_6.1.2\lvgl\src\lv_objx/lv_cpicker.c ****         if(indev == NULL) return res;
 870:..\..\..\lvgl\version_6.1.2\lvgl\src\lv_objx/lv_cpicker.c **** 
 871:..\..\..\lvgl\version_6.1.2\lvgl\src\lv_objx/lv_cpicker.c ****         lv_point_t p;
 872:..\..\..\lvgl\version_6.1.2\lvgl\src\lv_objx/lv_cpicker.c ****         lv_indev_get_point(indev, &p);
 873:..\..\..\lvgl\version_6.1.2\lvgl\src\lv_objx/lv_cpicker.c **** 
 874:..\..\..\lvgl\version_6.1.2\lvgl\src\lv_objx/lv_cpicker.c ****         if((LV_MATH_ABS(p.x - ext->last_press_point.x) > indev->driver.drag_limit / 2) ||
 875:..\..\..\lvgl\version_6.1.2\lvgl\src\lv_objx/lv_cpicker.c ****            (LV_MATH_ABS(p.y - ext->last_press_point.y) > indev->driver.drag_limit / 2)) {
 876:..\..\..\lvgl\version_6.1.2\lvgl\src\lv_objx/lv_cpicker.c ****             ext->last_change_time = lv_tick_get();
 877:..\..\..\lvgl\version_6.1.2\lvgl\src\lv_objx/lv_cpicker.c ****             ext->last_press_point.x = p.x;
 878:..\..\..\lvgl\version_6.1.2\lvgl\src\lv_objx/lv_cpicker.c ****             ext->last_press_point.y = p.y;
 879:..\..\..\lvgl\version_6.1.2\lvgl\src\lv_objx/lv_cpicker.c ****         }
 880:..\..\..\lvgl\version_6.1.2\lvgl\src\lv_objx/lv_cpicker.c **** 
 881:..\..\..\lvgl\version_6.1.2\lvgl\src\lv_objx/lv_cpicker.c ****         p.x -= cpicker->coords.x1;
 882:..\..\..\lvgl\version_6.1.2\lvgl\src\lv_objx/lv_cpicker.c ****         p.y -= cpicker->coords.y1;
 883:..\..\..\lvgl\version_6.1.2\lvgl\src\lv_objx/lv_cpicker.c **** 
 884:..\..\..\lvgl\version_6.1.2\lvgl\src\lv_objx/lv_cpicker.c ****         /*Ignore pressing in the inner area*/
 885:..\..\..\lvgl\version_6.1.2\lvgl\src\lv_objx/lv_cpicker.c ****         uint16_t w = lv_obj_get_width(cpicker);
ARM GAS  C:\Users\pearlstl\AppData\Local\Temp\ccadfCp2.s 			page 17


 886:..\..\..\lvgl\version_6.1.2\lvgl\src\lv_objx/lv_cpicker.c **** 
 887:..\..\..\lvgl\version_6.1.2\lvgl\src\lv_objx/lv_cpicker.c ****         int16_t angle = 0;
 888:..\..\..\lvgl\version_6.1.2\lvgl\src\lv_objx/lv_cpicker.c **** 
 889:..\..\..\lvgl\version_6.1.2\lvgl\src\lv_objx/lv_cpicker.c ****         if(ext->type == LV_CPICKER_TYPE_RECT) {
 890:..\..\..\lvgl\version_6.1.2\lvgl\src\lv_objx/lv_cpicker.c ****             /*If pressed long enough without change go to next color mode*/
 891:..\..\..\lvgl\version_6.1.2\lvgl\src\lv_objx/lv_cpicker.c ****             uint32_t diff = lv_tick_elaps(ext->last_change_time);
 892:..\..\..\lvgl\version_6.1.2\lvgl\src\lv_objx/lv_cpicker.c ****             if(diff > (uint32_t)indev->driver.long_press_time * 2 && !ext->color_mode_fixed) {
 893:..\..\..\lvgl\version_6.1.2\lvgl\src\lv_objx/lv_cpicker.c ****                 next_color_mode(cpicker);
 894:..\..\..\lvgl\version_6.1.2\lvgl\src\lv_objx/lv_cpicker.c ****                 lv_indev_wait_release(lv_indev_get_act());
 895:..\..\..\lvgl\version_6.1.2\lvgl\src\lv_objx/lv_cpicker.c ****                 return res;
 896:..\..\..\lvgl\version_6.1.2\lvgl\src\lv_objx/lv_cpicker.c ****             }
 897:..\..\..\lvgl\version_6.1.2\lvgl\src\lv_objx/lv_cpicker.c **** 
 898:..\..\..\lvgl\version_6.1.2\lvgl\src\lv_objx/lv_cpicker.c ****             angle = (p.x * 360) / w;
 899:..\..\..\lvgl\version_6.1.2\lvgl\src\lv_objx/lv_cpicker.c ****             if(angle < 0) angle = 0;
 900:..\..\..\lvgl\version_6.1.2\lvgl\src\lv_objx/lv_cpicker.c ****             if(angle >= 360) angle = 359;
 901:..\..\..\lvgl\version_6.1.2\lvgl\src\lv_objx/lv_cpicker.c **** 
 902:..\..\..\lvgl\version_6.1.2\lvgl\src\lv_objx/lv_cpicker.c ****         } else if(ext->type == LV_CPICKER_TYPE_DISC) {
 903:..\..\..\lvgl\version_6.1.2\lvgl\src\lv_objx/lv_cpicker.c ****             const lv_style_t * style_main = lv_cpicker_get_style(cpicker, LV_CPICKER_STYLE_MAIN);
 904:..\..\..\lvgl\version_6.1.2\lvgl\src\lv_objx/lv_cpicker.c ****             lv_coord_t r_in = w / 2;
 905:..\..\..\lvgl\version_6.1.2\lvgl\src\lv_objx/lv_cpicker.c ****             p.x -= r_in;
 906:..\..\..\lvgl\version_6.1.2\lvgl\src\lv_objx/lv_cpicker.c ****             p.y -= r_in;
 907:..\..\..\lvgl\version_6.1.2\lvgl\src\lv_objx/lv_cpicker.c ****             r_in -= style_main->line.width;
 908:..\..\..\lvgl\version_6.1.2\lvgl\src\lv_objx/lv_cpicker.c **** 
 909:..\..\..\lvgl\version_6.1.2\lvgl\src\lv_objx/lv_cpicker.c ****             if(r_in > LV_DPI / 2) {
 910:..\..\..\lvgl\version_6.1.2\lvgl\src\lv_objx/lv_cpicker.c ****             	r_in -= style_main->line.width; /* to let some sensitive space inside*/
 911:..\..\..\lvgl\version_6.1.2\lvgl\src\lv_objx/lv_cpicker.c **** 
 912:..\..\..\lvgl\version_6.1.2\lvgl\src\lv_objx/lv_cpicker.c ****             	if(r_in < LV_DPI / 2) r_in = LV_DPI / 2;
 913:..\..\..\lvgl\version_6.1.2\lvgl\src\lv_objx/lv_cpicker.c ****             }
 914:..\..\..\lvgl\version_6.1.2\lvgl\src\lv_objx/lv_cpicker.c **** 
 915:..\..\..\lvgl\version_6.1.2\lvgl\src\lv_objx/lv_cpicker.c ****             /*If the inner area is being pressed, go to the next color mode on long press*/
 916:..\..\..\lvgl\version_6.1.2\lvgl\src\lv_objx/lv_cpicker.c ****             if(p.x * p.x + p.y * p.y < r_in * r_in) {
 917:..\..\..\lvgl\version_6.1.2\lvgl\src\lv_objx/lv_cpicker.c ****                 uint32_t diff = lv_tick_elaps(ext->last_change_time);
 918:..\..\..\lvgl\version_6.1.2\lvgl\src\lv_objx/lv_cpicker.c ****                 if(diff > indev->driver.long_press_time && !ext->color_mode_fixed) {
 919:..\..\..\lvgl\version_6.1.2\lvgl\src\lv_objx/lv_cpicker.c ****                     next_color_mode(cpicker);
 920:..\..\..\lvgl\version_6.1.2\lvgl\src\lv_objx/lv_cpicker.c ****                     lv_indev_wait_release(lv_indev_get_act());
 921:..\..\..\lvgl\version_6.1.2\lvgl\src\lv_objx/lv_cpicker.c ****                 }
 922:..\..\..\lvgl\version_6.1.2\lvgl\src\lv_objx/lv_cpicker.c ****                 return res;
 923:..\..\..\lvgl\version_6.1.2\lvgl\src\lv_objx/lv_cpicker.c ****             }
 924:..\..\..\lvgl\version_6.1.2\lvgl\src\lv_objx/lv_cpicker.c **** 
 925:..\..\..\lvgl\version_6.1.2\lvgl\src\lv_objx/lv_cpicker.c ****             angle = lv_atan2(p.x, p.y) % 360;
 926:..\..\..\lvgl\version_6.1.2\lvgl\src\lv_objx/lv_cpicker.c ****         }
 927:..\..\..\lvgl\version_6.1.2\lvgl\src\lv_objx/lv_cpicker.c **** 
 928:..\..\..\lvgl\version_6.1.2\lvgl\src\lv_objx/lv_cpicker.c ****         lv_color_hsv_t hsv_cur;
 929:..\..\..\lvgl\version_6.1.2\lvgl\src\lv_objx/lv_cpicker.c ****         hsv_cur = ext->hsv;
 930:..\..\..\lvgl\version_6.1.2\lvgl\src\lv_objx/lv_cpicker.c **** 
 931:..\..\..\lvgl\version_6.1.2\lvgl\src\lv_objx/lv_cpicker.c ****         switch(ext->color_mode) {
 932:..\..\..\lvgl\version_6.1.2\lvgl\src\lv_objx/lv_cpicker.c ****         case LV_CPICKER_COLOR_MODE_HUE:
 933:..\..\..\lvgl\version_6.1.2\lvgl\src\lv_objx/lv_cpicker.c ****             hsv_cur.h = angle;
 934:..\..\..\lvgl\version_6.1.2\lvgl\src\lv_objx/lv_cpicker.c ****             break;
 935:..\..\..\lvgl\version_6.1.2\lvgl\src\lv_objx/lv_cpicker.c ****         case LV_CPICKER_COLOR_MODE_SATURATION:
 936:..\..\..\lvgl\version_6.1.2\lvgl\src\lv_objx/lv_cpicker.c ****             hsv_cur.s = (angle * 100) / 360;
 937:..\..\..\lvgl\version_6.1.2\lvgl\src\lv_objx/lv_cpicker.c ****             break;
 938:..\..\..\lvgl\version_6.1.2\lvgl\src\lv_objx/lv_cpicker.c ****         case LV_CPICKER_COLOR_MODE_VALUE:
 939:..\..\..\lvgl\version_6.1.2\lvgl\src\lv_objx/lv_cpicker.c ****             hsv_cur.v = (angle * 100) / 360;
 940:..\..\..\lvgl\version_6.1.2\lvgl\src\lv_objx/lv_cpicker.c ****             break;
 941:..\..\..\lvgl\version_6.1.2\lvgl\src\lv_objx/lv_cpicker.c ****         }
 942:..\..\..\lvgl\version_6.1.2\lvgl\src\lv_objx/lv_cpicker.c **** 
ARM GAS  C:\Users\pearlstl\AppData\Local\Temp\ccadfCp2.s 			page 18


 943:..\..\..\lvgl\version_6.1.2\lvgl\src\lv_objx/lv_cpicker.c ****         if (lv_cpicker_set_hsv(cpicker, hsv_cur)) {
 944:..\..\..\lvgl\version_6.1.2\lvgl\src\lv_objx/lv_cpicker.c ****             res = lv_event_send(cpicker, LV_EVENT_VALUE_CHANGED, NULL);
 945:..\..\..\lvgl\version_6.1.2\lvgl\src\lv_objx/lv_cpicker.c ****             if(res != LV_RES_OK) return res;
 946:..\..\..\lvgl\version_6.1.2\lvgl\src\lv_objx/lv_cpicker.c ****         }
 947:..\..\..\lvgl\version_6.1.2\lvgl\src\lv_objx/lv_cpicker.c ****     }
 948:..\..\..\lvgl\version_6.1.2\lvgl\src\lv_objx/lv_cpicker.c **** 
 949:..\..\..\lvgl\version_6.1.2\lvgl\src\lv_objx/lv_cpicker.c ****     return res;
 950:..\..\..\lvgl\version_6.1.2\lvgl\src\lv_objx/lv_cpicker.c **** }
 951:..\..\..\lvgl\version_6.1.2\lvgl\src\lv_objx/lv_cpicker.c **** 
 952:..\..\..\lvgl\version_6.1.2\lvgl\src\lv_objx/lv_cpicker.c **** static void next_color_mode(lv_obj_t * cpicker)
 953:..\..\..\lvgl\version_6.1.2\lvgl\src\lv_objx/lv_cpicker.c **** {
 954:..\..\..\lvgl\version_6.1.2\lvgl\src\lv_objx/lv_cpicker.c ****     lv_cpicker_ext_t * ext = lv_obj_get_ext_attr(cpicker);
 955:..\..\..\lvgl\version_6.1.2\lvgl\src\lv_objx/lv_cpicker.c ****     ext->color_mode = (ext->color_mode + 1) % 3;
 956:..\..\..\lvgl\version_6.1.2\lvgl\src\lv_objx/lv_cpicker.c ****     refr_indic_pos(cpicker);
 957:..\..\..\lvgl\version_6.1.2\lvgl\src\lv_objx/lv_cpicker.c ****     lv_obj_invalidate(cpicker);
 958:..\..\..\lvgl\version_6.1.2\lvgl\src\lv_objx/lv_cpicker.c **** }
 959:..\..\..\lvgl\version_6.1.2\lvgl\src\lv_objx/lv_cpicker.c **** 
 960:..\..\..\lvgl\version_6.1.2\lvgl\src\lv_objx/lv_cpicker.c **** static void refr_indic_pos(lv_obj_t * cpicker)
 961:..\..\..\lvgl\version_6.1.2\lvgl\src\lv_objx/lv_cpicker.c **** {
  28              		.loc 1 961 0
  29              		.cfi_startproc
  30              		@ args = 0, pretend = 0, frame = 8
  31              		@ frame_needed = 0, uses_anonymous_args = 0
  32              	.LVL0:
  33 0000 2DE9F043 		push	{r4, r5, r6, r7, r8, r9, lr}
  34              		.cfi_def_cfa_offset 28
  35              		.cfi_offset 4, -28
  36              		.cfi_offset 5, -24
  37              		.cfi_offset 6, -20
  38              		.cfi_offset 7, -16
  39              		.cfi_offset 8, -12
  40              		.cfi_offset 9, -8
  41              		.cfi_offset 14, -4
  42 0004 83B0     		sub	sp, sp, #12
  43              		.cfi_def_cfa_offset 40
  44              		.loc 1 961 0
  45 0006 0446     		mov	r4, r0
  46              	.LVL1:
  47              	.LBB78:
  48              	.LBB79:
  49              	.LBB80:
  50              	.LBB81:
 758:..\..\..\lvgl\version_6.1.2\lvgl\src\lv_objx/lv_cpicker.c ****     const lv_style_t * style_main = lv_cpicker_get_style(cpicker, LV_CPICKER_STYLE_MAIN);
  51              		.loc 1 758 0
  52 0008 FFF7FEFF 		bl	lv_obj_get_ext_attr
  53              	.LVL2:
  54 000c 0546     		mov	r5, r0
  55              	.LVL3:
  56              	.LBB82:
  57              	.LBB83:
 384:..\..\..\lvgl\version_6.1.2\lvgl\src\lv_objx/lv_cpicker.c **** 
  58              		.loc 1 384 0
  59 000e 2046     		mov	r0, r4
  60              	.LVL4:
  61 0010 FFF7FEFF 		bl	lv_obj_get_ext_attr
  62              	.LVL5:
 388:..\..\..\lvgl\version_6.1.2\lvgl\src\lv_objx/lv_cpicker.c ****     case LV_CPICKER_STYLE_INDICATOR:
ARM GAS  C:\Users\pearlstl\AppData\Local\Temp\ccadfCp2.s 			page 19


  63              		.loc 1 388 0
  64 0014 2046     		mov	r0, r4
  65 0016 FFF7FEFF 		bl	lv_obj_get_style
  66              	.LVL6:
  67 001a 0646     		mov	r6, r0
  68              	.LVL7:
  69              	.LBE83:
  70              	.LBE82:
  71              	.LBB84:
  72              	.LBB85:
 384:..\..\..\lvgl\version_6.1.2\lvgl\src\lv_objx/lv_cpicker.c **** 
  73              		.loc 1 384 0
  74 001c 2046     		mov	r0, r4
  75 001e FFF7FEFF 		bl	lv_obj_get_ext_attr
  76              	.LVL8:
  77              	.LBE85:
  78              	.LBE84:
 763:..\..\..\lvgl\version_6.1.2\lvgl\src\lv_objx/lv_cpicker.c ****     else if(ext->type == LV_CPICKER_TYPE_RECT) {
  79              		.loc 1 763 0
  80 0022 2B7F     		ldrb	r3, [r5, #28]	@ zero_extendqisi2
  81              	.LBB87:
  82              	.LBB86:
 390:..\..\..\lvgl\version_6.1.2\lvgl\src\lv_objx/lv_cpicker.c ****     default:
  83              		.loc 1 390 0
  84 0024 4768     		ldr	r7, [r0, #4]
  85              	.LVL9:
  86              	.LBE86:
  87              	.LBE87:
 763:..\..\..\lvgl\version_6.1.2\lvgl\src\lv_objx/lv_cpicker.c ****     else if(ext->type == LV_CPICKER_TYPE_RECT) {
  88              		.loc 1 763 0
  89 0026 1A07     		lsls	r2, r3, #28
  90 0028 00F1C380 		bmi	.L26
  91              	.LBB88:
 765:..\..\..\lvgl\version_6.1.2\lvgl\src\lv_objx/lv_cpicker.c ****         r = h / 2;
  92              		.loc 1 765 0
  93 002c 2046     		mov	r0, r4
  94 002e FFF7FEFF 		bl	lv_obj_get_height
  95              	.LVL10:
 766:..\..\..\lvgl\version_6.1.2\lvgl\src\lv_objx/lv_cpicker.c ****     }
  96              		.loc 1 766 0
  97 0032 00EBD070 		add	r0, r0, r0, lsr #31
  98              	.LVL11:
  99 0036 C0F34F00 		ubfx	r0, r0, #1, #16
 100              	.LVL12:
 101              	.L3:
 102              	.LBE88:
 771:..\..\..\lvgl\version_6.1.2\lvgl\src\lv_objx/lv_cpicker.c ****     indic_area.x2 = cpicker->coords.x1 + ext->indic.pos.x + r + style_indic->body.padding.top;
 103              		.loc 1 771 0
 104 003a 6989     		ldrh	r1, [r5, #10]
 770:..\..\..\lvgl\version_6.1.2\lvgl\src\lv_objx/lv_cpicker.c ****     indic_area.y1 = cpicker->coords.y1 + ext->indic.pos.y - r - style_indic->body.padding.right;
 105              		.loc 1 770 0
 106 003c 2B89     		ldrh	r3, [r5, #8]
 107 003e B4F810E0 		ldrh	lr, [r4, #16]
 771:..\..\..\lvgl\version_6.1.2\lvgl\src\lv_objx/lv_cpicker.c ****     indic_area.x2 = cpicker->coords.x1 + ext->indic.pos.x + r + style_indic->body.padding.top;
 108              		.loc 1 771 0
 109 0042 628A     		ldrh	r2, [r4, #18]
 772:..\..\..\lvgl\version_6.1.2\lvgl\src\lv_objx/lv_cpicker.c ****     indic_area.y2 = cpicker->coords.y1 + ext->indic.pos.y + r + style_indic->body.padding.bottom;
ARM GAS  C:\Users\pearlstl\AppData\Local\Temp\ccadfCp2.s 			page 20


 110              		.loc 1 772 0
 111 0044 3E8C     		ldrh	r6, [r7, #32]
 773:..\..\..\lvgl\version_6.1.2\lvgl\src\lv_objx/lv_cpicker.c **** 
 112              		.loc 1 773 0
 113 0046 7D8C     		ldrh	r5, [r7, #34]
 114              	.LVL13:
 771:..\..\..\lvgl\version_6.1.2\lvgl\src\lv_objx/lv_cpicker.c ****     indic_area.x2 = cpicker->coords.x1 + ext->indic.pos.x + r + style_indic->body.padding.top;
 115              		.loc 1 771 0
 116 0048 B7F826C0 		ldrh	ip, [r7, #38]
 770:..\..\..\lvgl\version_6.1.2\lvgl\src\lv_objx/lv_cpicker.c ****     indic_area.y1 = cpicker->coords.y1 + ext->indic.pos.y - r - style_indic->body.padding.right;
 117              		.loc 1 770 0
 118 004c 7344     		add	r3, r3, lr
 771:..\..\..\lvgl\version_6.1.2\lvgl\src\lv_objx/lv_cpicker.c ****     indic_area.x2 = cpicker->coords.x1 + ext->indic.pos.x + r + style_indic->body.padding.top;
 119              		.loc 1 771 0
 120 004e 0A44     		add	r2, r2, r1
 775:..\..\..\lvgl\version_6.1.2\lvgl\src\lv_objx/lv_cpicker.c **** }
 121              		.loc 1 775 0
 122 0050 B7F824E0 		ldrh	lr, [r7, #36]
 770:..\..\..\lvgl\version_6.1.2\lvgl\src\lv_objx/lv_cpicker.c ****     indic_area.y1 = cpicker->coords.y1 + ext->indic.pos.y - r - style_indic->body.padding.right;
 123              		.loc 1 770 0
 124 0054 9BB2     		uxth	r3, r3
 125              	.LVL14:
 771:..\..\..\lvgl\version_6.1.2\lvgl\src\lv_objx/lv_cpicker.c ****     indic_area.x2 = cpicker->coords.x1 + ext->indic.pos.x + r + style_indic->body.padding.top;
 126              		.loc 1 771 0
 127 0056 92B2     		uxth	r2, r2
 128 0058 171A     		subs	r7, r2, r0
 129              	.LVL15:
 772:..\..\..\lvgl\version_6.1.2\lvgl\src\lv_objx/lv_cpicker.c ****     indic_area.y2 = cpicker->coords.y1 + ext->indic.pos.y + r + style_indic->body.padding.bottom;
 130              		.loc 1 772 0
 131 005a 9919     		adds	r1, r3, r6
 773:..\..\..\lvgl\version_6.1.2\lvgl\src\lv_objx/lv_cpicker.c **** 
 132              		.loc 1 773 0
 133 005c 2A44     		add	r2, r2, r5
 775:..\..\..\lvgl\version_6.1.2\lvgl\src\lv_objx/lv_cpicker.c **** }
 134              		.loc 1 775 0
 135 005e 1B1A     		subs	r3, r3, r0
 136              	.LVL16:
 771:..\..\..\lvgl\version_6.1.2\lvgl\src\lv_objx/lv_cpicker.c ****     indic_area.x2 = cpicker->coords.x1 + ext->indic.pos.x + r + style_indic->body.padding.top;
 137              		.loc 1 771 0
 138 0060 CCEB0706 		rsb	r6, ip, r7
 139              	.LVL17:
 773:..\..\..\lvgl\version_6.1.2\lvgl\src\lv_objx/lv_cpicker.c **** 
 140              		.loc 1 773 0
 141 0064 0244     		add	r2, r2, r0
 775:..\..\..\lvgl\version_6.1.2\lvgl\src\lv_objx/lv_cpicker.c **** }
 142              		.loc 1 775 0
 143 0066 CEEB0303 		rsb	r3, lr, r3
 772:..\..\..\lvgl\version_6.1.2\lvgl\src\lv_objx/lv_cpicker.c ****     indic_area.y2 = cpicker->coords.y1 + ext->indic.pos.y + r + style_indic->body.padding.bottom;
 144              		.loc 1 772 0
 145 006a 4518     		adds	r5, r0, r1
 146              	.LVL18:
 147              	.LBE81:
 148              	.LBE80:
 753:..\..\..\lvgl\version_6.1.2\lvgl\src\lv_objx/lv_cpicker.c **** }
 149              		.loc 1 753 0
 150 006c 6946     		mov	r1, sp
 151 006e 2046     		mov	r0, r4
ARM GAS  C:\Users\pearlstl\AppData\Local\Temp\ccadfCp2.s 			page 21


 152              	.LVL19:
 153              	.LBB91:
 154              	.LBB89:
 775:..\..\..\lvgl\version_6.1.2\lvgl\src\lv_objx/lv_cpicker.c **** }
 155              		.loc 1 775 0
 156 0070 ADF80030 		strh	r3, [sp]	@ movhi
 157 0074 ADF80620 		strh	r2, [sp, #6]	@ movhi
 158              	.LVL20:
 159 0078 ADF80260 		strh	r6, [sp, #2]	@ movhi
 160 007c ADF80450 		strh	r5, [sp, #4]	@ movhi
 161              	.LBE89:
 162              	.LBE91:
 753:..\..\..\lvgl\version_6.1.2\lvgl\src\lv_objx/lv_cpicker.c **** }
 163              		.loc 1 753 0
 164 0080 FFF7FEFF 		bl	lv_obj_invalidate_area
 165              	.LVL21:
 166              	.LBE79:
 167              	.LBE78:
 962:..\..\..\lvgl\version_6.1.2\lvgl\src\lv_objx/lv_cpicker.c ****     invalidate_indic(cpicker);
 963:..\..\..\lvgl\version_6.1.2\lvgl\src\lv_objx/lv_cpicker.c **** 
 964:..\..\..\lvgl\version_6.1.2\lvgl\src\lv_objx/lv_cpicker.c ****     lv_cpicker_ext_t * ext = lv_obj_get_ext_attr(cpicker);
 168              		.loc 1 964 0
 169 0084 2046     		mov	r0, r4
 170 0086 FFF7FEFF 		bl	lv_obj_get_ext_attr
 171              	.LVL22:
 172 008a 0646     		mov	r6, r0
 173              	.LVL23:
 965:..\..\..\lvgl\version_6.1.2\lvgl\src\lv_objx/lv_cpicker.c ****     lv_coord_t w = lv_obj_get_width(cpicker);
 174              		.loc 1 965 0
 175 008c 2046     		mov	r0, r4
 176              	.LVL24:
 177 008e FFF7FEFF 		bl	lv_obj_get_width
 178              	.LVL25:
 179 0092 0746     		mov	r7, r0
 180              	.LVL26:
 966:..\..\..\lvgl\version_6.1.2\lvgl\src\lv_objx/lv_cpicker.c ****     lv_coord_t h = lv_obj_get_height(cpicker);
 181              		.loc 1 966 0
 182 0094 2046     		mov	r0, r4
 183 0096 FFF7FEFF 		bl	lv_obj_get_height
 184              	.LVL27:
 967:..\..\..\lvgl\version_6.1.2\lvgl\src\lv_objx/lv_cpicker.c **** 
 968:..\..\..\lvgl\version_6.1.2\lvgl\src\lv_objx/lv_cpicker.c ****     if(ext->type == LV_CPICKER_TYPE_RECT) {
 185              		.loc 1 968 0
 186 009a 327F     		ldrb	r2, [r6, #28]	@ zero_extendqisi2
 187 009c 02F00801 		and	r1, r2, #8
 966:..\..\..\lvgl\version_6.1.2\lvgl\src\lv_objx/lv_cpicker.c ****     lv_coord_t h = lv_obj_get_height(cpicker);
 188              		.loc 1 966 0
 189 00a0 0546     		mov	r5, r0
 190              	.LVL28:
 191              		.loc 1 968 0
 192 00a2 01F0FF03 		and	r3, r1, #255
 193 00a6 C1B3     		cbz	r1, .L27
 194              	.LVL29:
 195              	.LBB94:
 196              	.LBB95:
 197              	.LBB96:
 384:..\..\..\lvgl\version_6.1.2\lvgl\src\lv_objx/lv_cpicker.c **** 
ARM GAS  C:\Users\pearlstl\AppData\Local\Temp\ccadfCp2.s 			page 22


 198              		.loc 1 384 0
 199 00a8 2046     		mov	r0, r4
 200 00aa FFF7FEFF 		bl	lv_obj_get_ext_attr
 201              	.LVL30:
 388:..\..\..\lvgl\version_6.1.2\lvgl\src\lv_objx/lv_cpicker.c ****     case LV_CPICKER_STYLE_INDICATOR:
 202              		.loc 1 388 0
 203 00ae 2046     		mov	r0, r4
 204 00b0 FFF7FEFF 		bl	lv_obj_get_style
 205              	.LVL31:
 206              	.LBE96:
 207              	.LBE95:
 969:..\..\..\lvgl\version_6.1.2\lvgl\src\lv_objx/lv_cpicker.c ****         lv_coord_t ind_pos = 0;
 970:..\..\..\lvgl\version_6.1.2\lvgl\src\lv_objx/lv_cpicker.c ****         switch(ext->color_mode) {
 971:..\..\..\lvgl\version_6.1.2\lvgl\src\lv_objx/lv_cpicker.c ****         case LV_CPICKER_COLOR_MODE_HUE:
 972:..\..\..\lvgl\version_6.1.2\lvgl\src\lv_objx/lv_cpicker.c ****             ind_pos += (ext->hsv.h * w) / 360;
 973:..\..\..\lvgl\version_6.1.2\lvgl\src\lv_objx/lv_cpicker.c ****             break;
 974:..\..\..\lvgl\version_6.1.2\lvgl\src\lv_objx/lv_cpicker.c ****         case LV_CPICKER_COLOR_MODE_SATURATION:
 975:..\..\..\lvgl\version_6.1.2\lvgl\src\lv_objx/lv_cpicker.c ****             ind_pos += (ext->hsv.s * w) / 100;
 976:..\..\..\lvgl\version_6.1.2\lvgl\src\lv_objx/lv_cpicker.c ****             break;
 977:..\..\..\lvgl\version_6.1.2\lvgl\src\lv_objx/lv_cpicker.c ****         case LV_CPICKER_COLOR_MODE_VALUE:
 978:..\..\..\lvgl\version_6.1.2\lvgl\src\lv_objx/lv_cpicker.c ****             ind_pos += (ext->hsv.v * w) / 100;
 979:..\..\..\lvgl\version_6.1.2\lvgl\src\lv_objx/lv_cpicker.c ****             break;
 980:..\..\..\lvgl\version_6.1.2\lvgl\src\lv_objx/lv_cpicker.c ****         }
 981:..\..\..\lvgl\version_6.1.2\lvgl\src\lv_objx/lv_cpicker.c **** 
 982:..\..\..\lvgl\version_6.1.2\lvgl\src\lv_objx/lv_cpicker.c ****         ext->indic.pos.x = ind_pos;
 983:..\..\..\lvgl\version_6.1.2\lvgl\src\lv_objx/lv_cpicker.c ****         ext->indic.pos.y = h / 2;
 984:..\..\..\lvgl\version_6.1.2\lvgl\src\lv_objx/lv_cpicker.c ****     } else if(ext->type == LV_CPICKER_TYPE_DISC) {
 985:..\..\..\lvgl\version_6.1.2\lvgl\src\lv_objx/lv_cpicker.c ****         const lv_style_t * style_main = lv_cpicker_get_style(cpicker, LV_CPICKER_STYLE_MAIN);
 986:..\..\..\lvgl\version_6.1.2\lvgl\src\lv_objx/lv_cpicker.c ****         lv_coord_t r = w / 2 - style_main->line.width / 2;
 208              		.loc 1 986 0
 209 00b4 B0F94C80 		ldrsh	r8, [r0, #76]
 210 00b8 07EBD770 		add	r0, r7, r7, lsr #31
 211 00bc C0F34F07 		ubfx	r7, r0, #1, #16
 212              	.LVL32:
 213              	.LBB97:
 214              	.LBB98:
 987:..\..\..\lvgl\version_6.1.2\lvgl\src\lv_objx/lv_cpicker.c ****         uint16_t angle = get_angle(cpicker);
 988:..\..\..\lvgl\version_6.1.2\lvgl\src\lv_objx/lv_cpicker.c ****         ext->indic.pos.x = (((int32_t)r * lv_trigo_sin(angle)) >> LV_TRIGO_SHIFT);
 989:..\..\..\lvgl\version_6.1.2\lvgl\src\lv_objx/lv_cpicker.c ****         ext->indic.pos.y = (((int32_t)r * lv_trigo_sin(angle + 90)) >> LV_TRIGO_SHIFT);
 990:..\..\..\lvgl\version_6.1.2\lvgl\src\lv_objx/lv_cpicker.c ****         ext->indic.pos.x = ext->indic.pos.x + w / 2;
 991:..\..\..\lvgl\version_6.1.2\lvgl\src\lv_objx/lv_cpicker.c ****         ext->indic.pos.y = ext->indic.pos.y + h / 2;
 992:..\..\..\lvgl\version_6.1.2\lvgl\src\lv_objx/lv_cpicker.c ****     }
 993:..\..\..\lvgl\version_6.1.2\lvgl\src\lv_objx/lv_cpicker.c **** 
 994:..\..\..\lvgl\version_6.1.2\lvgl\src\lv_objx/lv_cpicker.c ****     invalidate_indic(cpicker);
 995:..\..\..\lvgl\version_6.1.2\lvgl\src\lv_objx/lv_cpicker.c **** }
 996:..\..\..\lvgl\version_6.1.2\lvgl\src\lv_objx/lv_cpicker.c **** 
 997:..\..\..\lvgl\version_6.1.2\lvgl\src\lv_objx/lv_cpicker.c **** static lv_res_t double_click_reset(lv_obj_t * cpicker)
 998:..\..\..\lvgl\version_6.1.2\lvgl\src\lv_objx/lv_cpicker.c **** {
 999:..\..\..\lvgl\version_6.1.2\lvgl\src\lv_objx/lv_cpicker.c ****     lv_cpicker_ext_t * ext = lv_obj_get_ext_attr(cpicker);
1000:..\..\..\lvgl\version_6.1.2\lvgl\src\lv_objx/lv_cpicker.c ****     lv_indev_t * indev = lv_indev_get_act();
1001:..\..\..\lvgl\version_6.1.2\lvgl\src\lv_objx/lv_cpicker.c ****     /*Double clicked? Use long press time as double click time out*/
1002:..\..\..\lvgl\version_6.1.2\lvgl\src\lv_objx/lv_cpicker.c ****     if(lv_tick_elaps(ext->last_click_time) < indev->driver.long_press_time) {
1003:..\..\..\lvgl\version_6.1.2\lvgl\src\lv_objx/lv_cpicker.c ****         lv_color_hsv_t hsv_cur;
1004:..\..\..\lvgl\version_6.1.2\lvgl\src\lv_objx/lv_cpicker.c ****         hsv_cur = ext->hsv;
1005:..\..\..\lvgl\version_6.1.2\lvgl\src\lv_objx/lv_cpicker.c **** 
1006:..\..\..\lvgl\version_6.1.2\lvgl\src\lv_objx/lv_cpicker.c ****         switch(ext->color_mode) {
1007:..\..\..\lvgl\version_6.1.2\lvgl\src\lv_objx/lv_cpicker.c ****         case LV_CPICKER_COLOR_MODE_HUE:
ARM GAS  C:\Users\pearlstl\AppData\Local\Temp\ccadfCp2.s 			page 23


1008:..\..\..\lvgl\version_6.1.2\lvgl\src\lv_objx/lv_cpicker.c ****             hsv_cur.h = LV_CPICKER_DEF_HUE;
1009:..\..\..\lvgl\version_6.1.2\lvgl\src\lv_objx/lv_cpicker.c ****             break;
1010:..\..\..\lvgl\version_6.1.2\lvgl\src\lv_objx/lv_cpicker.c ****         case LV_CPICKER_COLOR_MODE_SATURATION:
1011:..\..\..\lvgl\version_6.1.2\lvgl\src\lv_objx/lv_cpicker.c ****             hsv_cur.s = LV_CPICKER_DEF_SATURATION;
1012:..\..\..\lvgl\version_6.1.2\lvgl\src\lv_objx/lv_cpicker.c ****             break;
1013:..\..\..\lvgl\version_6.1.2\lvgl\src\lv_objx/lv_cpicker.c ****         case LV_CPICKER_COLOR_MODE_VALUE:
1014:..\..\..\lvgl\version_6.1.2\lvgl\src\lv_objx/lv_cpicker.c ****             hsv_cur.v = LV_CPICKER_DEF_VALUE;
1015:..\..\..\lvgl\version_6.1.2\lvgl\src\lv_objx/lv_cpicker.c ****             break;
1016:..\..\..\lvgl\version_6.1.2\lvgl\src\lv_objx/lv_cpicker.c ****         }
1017:..\..\..\lvgl\version_6.1.2\lvgl\src\lv_objx/lv_cpicker.c **** 
1018:..\..\..\lvgl\version_6.1.2\lvgl\src\lv_objx/lv_cpicker.c ****         if (lv_cpicker_set_hsv(cpicker, hsv_cur)) {
1019:..\..\..\lvgl\version_6.1.2\lvgl\src\lv_objx/lv_cpicker.c ****             lv_res_t res = lv_event_send(cpicker, LV_EVENT_VALUE_CHANGED, NULL);
1020:..\..\..\lvgl\version_6.1.2\lvgl\src\lv_objx/lv_cpicker.c ****             if(res != LV_RES_OK) return res;
1021:..\..\..\lvgl\version_6.1.2\lvgl\src\lv_objx/lv_cpicker.c ****         }
1022:..\..\..\lvgl\version_6.1.2\lvgl\src\lv_objx/lv_cpicker.c ****     }
1023:..\..\..\lvgl\version_6.1.2\lvgl\src\lv_objx/lv_cpicker.c ****     ext->last_click_time = lv_tick_get();
1024:..\..\..\lvgl\version_6.1.2\lvgl\src\lv_objx/lv_cpicker.c **** 
1025:..\..\..\lvgl\version_6.1.2\lvgl\src\lv_objx/lv_cpicker.c ****     return LV_RES_OK;
1026:..\..\..\lvgl\version_6.1.2\lvgl\src\lv_objx/lv_cpicker.c **** }
1027:..\..\..\lvgl\version_6.1.2\lvgl\src\lv_objx/lv_cpicker.c **** 
1028:..\..\..\lvgl\version_6.1.2\lvgl\src\lv_objx/lv_cpicker.c **** static lv_color_t angle_to_mode_color(lv_obj_t * cpicker, uint16_t angle)
1029:..\..\..\lvgl\version_6.1.2\lvgl\src\lv_objx/lv_cpicker.c **** {
1030:..\..\..\lvgl\version_6.1.2\lvgl\src\lv_objx/lv_cpicker.c ****     lv_cpicker_ext_t * ext = lv_obj_get_ext_attr(cpicker);
1031:..\..\..\lvgl\version_6.1.2\lvgl\src\lv_objx/lv_cpicker.c ****     lv_color_t color;
1032:..\..\..\lvgl\version_6.1.2\lvgl\src\lv_objx/lv_cpicker.c ****     switch(ext->color_mode)
1033:..\..\..\lvgl\version_6.1.2\lvgl\src\lv_objx/lv_cpicker.c ****     {
1034:..\..\..\lvgl\version_6.1.2\lvgl\src\lv_objx/lv_cpicker.c ****     default:
1035:..\..\..\lvgl\version_6.1.2\lvgl\src\lv_objx/lv_cpicker.c ****     case LV_CPICKER_COLOR_MODE_HUE:
1036:..\..\..\lvgl\version_6.1.2\lvgl\src\lv_objx/lv_cpicker.c ****         color = lv_color_hsv_to_rgb(angle % 360, ext->hsv.s, ext->hsv.v);
1037:..\..\..\lvgl\version_6.1.2\lvgl\src\lv_objx/lv_cpicker.c ****         break;
1038:..\..\..\lvgl\version_6.1.2\lvgl\src\lv_objx/lv_cpicker.c ****     case LV_CPICKER_COLOR_MODE_SATURATION:
1039:..\..\..\lvgl\version_6.1.2\lvgl\src\lv_objx/lv_cpicker.c ****         color = lv_color_hsv_to_rgb(ext->hsv.h, ((angle % 360) * 100) / 360, ext->hsv.v);
1040:..\..\..\lvgl\version_6.1.2\lvgl\src\lv_objx/lv_cpicker.c ****         break;
1041:..\..\..\lvgl\version_6.1.2\lvgl\src\lv_objx/lv_cpicker.c ****     case LV_CPICKER_COLOR_MODE_VALUE:
1042:..\..\..\lvgl\version_6.1.2\lvgl\src\lv_objx/lv_cpicker.c ****         color = lv_color_hsv_to_rgb(ext->hsv.h, ext->hsv.s, ((angle % 360) * 100) / 360);
1043:..\..\..\lvgl\version_6.1.2\lvgl\src\lv_objx/lv_cpicker.c ****         break;
1044:..\..\..\lvgl\version_6.1.2\lvgl\src\lv_objx/lv_cpicker.c ****     }
1045:..\..\..\lvgl\version_6.1.2\lvgl\src\lv_objx/lv_cpicker.c ****     return color;
1046:..\..\..\lvgl\version_6.1.2\lvgl\src\lv_objx/lv_cpicker.c **** }
1047:..\..\..\lvgl\version_6.1.2\lvgl\src\lv_objx/lv_cpicker.c **** 
1048:..\..\..\lvgl\version_6.1.2\lvgl\src\lv_objx/lv_cpicker.c **** static uint16_t get_angle(lv_obj_t * cpicker)
1049:..\..\..\lvgl\version_6.1.2\lvgl\src\lv_objx/lv_cpicker.c **** {
1050:..\..\..\lvgl\version_6.1.2\lvgl\src\lv_objx/lv_cpicker.c ****     lv_cpicker_ext_t * ext = lv_obj_get_ext_attr(cpicker);
 215              		.loc 1 1050 0
 216 00c0 2046     		mov	r0, r4
 217 00c2 FFF7FEFF 		bl	lv_obj_get_ext_attr
 218              	.LVL33:
1051:..\..\..\lvgl\version_6.1.2\lvgl\src\lv_objx/lv_cpicker.c ****     uint16_t angle;
1052:..\..\..\lvgl\version_6.1.2\lvgl\src\lv_objx/lv_cpicker.c ****     switch(ext->color_mode)
 219              		.loc 1 1052 0
 220 00c6 037F     		ldrb	r3, [r0, #28]	@ zero_extendqisi2
 221              	.LBE98:
 222              	.LBE97:
 986:..\..\..\lvgl\version_6.1.2\lvgl\src\lv_objx/lv_cpicker.c ****         uint16_t angle = get_angle(cpicker);
 223              		.loc 1 986 0
 224 00c8 08EBD878 		add	r8, r8, r8, lsr #31
 225              	.LBB104:
ARM GAS  C:\Users\pearlstl\AppData\Local\Temp\ccadfCp2.s 			page 24


 226              	.LBB99:
 227              		.loc 1 1052 0
 228 00cc 03F00303 		and	r3, r3, #3
 229              	.LBE99:
 230              	.LBE104:
 986:..\..\..\lvgl\version_6.1.2\lvgl\src\lv_objx/lv_cpicker.c ****         uint16_t angle = get_angle(cpicker);
 231              		.loc 1 986 0
 232 00d0 A7EB6808 		sub	r8, r7, r8, asr #1
 233              	.LBB105:
 234              	.LBB100:
 235              		.loc 1 1052 0
 236 00d4 012B     		cmp	r3, #1
 237              	.LBE100:
 238              	.LBE105:
 986:..\..\..\lvgl\version_6.1.2\lvgl\src\lv_objx/lv_cpicker.c ****         uint16_t angle = get_angle(cpicker);
 239              		.loc 1 986 0
 240 00d6 0FFA88F8 		sxth	r8, r8
 241              	.LVL34:
 242              	.LBB106:
 243              	.LBB101:
 244              		.loc 1 1052 0
 245 00da 00F08680 		beq	.L11
 246 00de 022B     		cmp	r3, #2
 247 00e0 00F09D80 		beq	.L12
1053:..\..\..\lvgl\version_6.1.2\lvgl\src\lv_objx/lv_cpicker.c ****     {
1054:..\..\..\lvgl\version_6.1.2\lvgl\src\lv_objx/lv_cpicker.c ****     default:
1055:..\..\..\lvgl\version_6.1.2\lvgl\src\lv_objx/lv_cpicker.c ****     case LV_CPICKER_COLOR_MODE_HUE:
1056:..\..\..\lvgl\version_6.1.2\lvgl\src\lv_objx/lv_cpicker.c ****         angle = ext->hsv.h;
 248              		.loc 1 1056 0
 249 00e4 B0F80090 		ldrh	r9, [r0]
 250              	.LVL35:
 251              	.L13:
 252              	.LBE101:
 253              	.LBE106:
 988:..\..\..\lvgl\version_6.1.2\lvgl\src\lv_objx/lv_cpicker.c ****         ext->indic.pos.y = (((int32_t)r * lv_trigo_sin(angle + 90)) >> LV_TRIGO_SHIFT);
 254              		.loc 1 988 0
 255 00e8 0FFA89F0 		sxth	r0, r9
 256 00ec FFF7FEFF 		bl	lv_trigo_sin
 257              	.LVL36:
 258 00f0 08FB00F0 		mul	r0, r8, r0
 259 00f4 C313     		asrs	r3, r0, #15
 989:..\..\..\lvgl\version_6.1.2\lvgl\src\lv_objx/lv_cpicker.c ****         ext->indic.pos.x = ext->indic.pos.x + w / 2;
 260              		.loc 1 989 0
 261 00f6 09F15A00 		add	r0, r9, #90
 988:..\..\..\lvgl\version_6.1.2\lvgl\src\lv_objx/lv_cpicker.c ****         ext->indic.pos.y = (((int32_t)r * lv_trigo_sin(angle + 90)) >> LV_TRIGO_SHIFT);
 262              		.loc 1 988 0
 263 00fa 3381     		strh	r3, [r6, #8]	@ movhi
 989:..\..\..\lvgl\version_6.1.2\lvgl\src\lv_objx/lv_cpicker.c ****         ext->indic.pos.x = ext->indic.pos.x + w / 2;
 264              		.loc 1 989 0
 265 00fc 00B2     		sxth	r0, r0
 266 00fe FFF7FEFF 		bl	lv_trigo_sin
 267              	.LVL37:
 991:..\..\..\lvgl\version_6.1.2\lvgl\src\lv_objx/lv_cpicker.c ****     }
 268              		.loc 1 991 0
 269 0102 05EBD575 		add	r5, r5, r5, lsr #31
 270              	.LVL38:
 990:..\..\..\lvgl\version_6.1.2\lvgl\src\lv_objx/lv_cpicker.c ****         ext->indic.pos.y = ext->indic.pos.y + h / 2;
ARM GAS  C:\Users\pearlstl\AppData\Local\Temp\ccadfCp2.s 			page 25


 271              		.loc 1 990 0
 272 0106 3389     		ldrh	r3, [r6, #8]
 991:..\..\..\lvgl\version_6.1.2\lvgl\src\lv_objx/lv_cpicker.c ****     }
 273              		.loc 1 991 0
 274 0108 08FB00F0 		mul	r0, r8, r0
 275 010c 6D10     		asrs	r5, r5, #1
 276 010e 05EBE035 		add	r5, r5, r0, asr #15
 990:..\..\..\lvgl\version_6.1.2\lvgl\src\lv_objx/lv_cpicker.c ****         ext->indic.pos.y = ext->indic.pos.y + h / 2;
 277              		.loc 1 990 0
 278 0112 1F44     		add	r7, r7, r3
 991:..\..\..\lvgl\version_6.1.2\lvgl\src\lv_objx/lv_cpicker.c ****     }
 279              		.loc 1 991 0
 280 0114 7581     		strh	r5, [r6, #10]	@ movhi
 990:..\..\..\lvgl\version_6.1.2\lvgl\src\lv_objx/lv_cpicker.c ****         ext->indic.pos.y = ext->indic.pos.y + h / 2;
 281              		.loc 1 990 0
 282 0116 3781     		strh	r7, [r6, #8]	@ movhi
 283 0118 0BE0     		b	.L9
 284              	.LVL39:
 285              	.L27:
 286              	.LBE94:
 287              	.LBB109:
 970:..\..\..\lvgl\version_6.1.2\lvgl\src\lv_objx/lv_cpicker.c ****         case LV_CPICKER_COLOR_MODE_HUE:
 288              		.loc 1 970 0
 289 011a 02F00302 		and	r2, r2, #3
 290 011e 012A     		cmp	r2, #1
 291 0120 61D0     		beq	.L6
 292 0122 70D3     		bcc	.L7
 293 0124 022A     		cmp	r2, #2
 294 0126 53D0     		beq	.L8
 295              	.LVL40:
 296              	.L5:
 983:..\..\..\lvgl\version_6.1.2\lvgl\src\lv_objx/lv_cpicker.c ****     } else if(ext->type == LV_CPICKER_TYPE_DISC) {
 297              		.loc 1 983 0
 298 0128 05EBD575 		add	r5, r5, r5, lsr #31
 299              	.LVL41:
 300 012c 6D10     		asrs	r5, r5, #1
 301 012e 7581     		strh	r5, [r6, #10]	@ movhi
 982:..\..\..\lvgl\version_6.1.2\lvgl\src\lv_objx/lv_cpicker.c ****         ext->indic.pos.y = h / 2;
 302              		.loc 1 982 0
 303 0130 3381     		strh	r3, [r6, #8]	@ movhi
 304              	.LVL42:
 305              	.L9:
 306              	.LBE109:
 307              	.LBB110:
 308              	.LBB111:
 309              	.LBB112:
 310              	.LBB113:
 758:..\..\..\lvgl\version_6.1.2\lvgl\src\lv_objx/lv_cpicker.c ****     const lv_style_t * style_main = lv_cpicker_get_style(cpicker, LV_CPICKER_STYLE_MAIN);
 311              		.loc 1 758 0
 312 0132 2046     		mov	r0, r4
 313 0134 FFF7FEFF 		bl	lv_obj_get_ext_attr
 314              	.LVL43:
 315 0138 0546     		mov	r5, r0
 316              	.LVL44:
 317              	.LBB114:
 318              	.LBB115:
 384:..\..\..\lvgl\version_6.1.2\lvgl\src\lv_objx/lv_cpicker.c **** 
ARM GAS  C:\Users\pearlstl\AppData\Local\Temp\ccadfCp2.s 			page 26


 319              		.loc 1 384 0
 320 013a 2046     		mov	r0, r4
 321              	.LVL45:
 322 013c FFF7FEFF 		bl	lv_obj_get_ext_attr
 323              	.LVL46:
 388:..\..\..\lvgl\version_6.1.2\lvgl\src\lv_objx/lv_cpicker.c ****     case LV_CPICKER_STYLE_INDICATOR:
 324              		.loc 1 388 0
 325 0140 2046     		mov	r0, r4
 326 0142 FFF7FEFF 		bl	lv_obj_get_style
 327              	.LVL47:
 328 0146 0646     		mov	r6, r0
 329              	.LVL48:
 330              	.LBE115:
 331              	.LBE114:
 332              	.LBB116:
 333              	.LBB117:
 384:..\..\..\lvgl\version_6.1.2\lvgl\src\lv_objx/lv_cpicker.c **** 
 334              		.loc 1 384 0
 335 0148 2046     		mov	r0, r4
 336 014a FFF7FEFF 		bl	lv_obj_get_ext_attr
 337              	.LVL49:
 338              	.LBE117:
 339              	.LBE116:
 763:..\..\..\lvgl\version_6.1.2\lvgl\src\lv_objx/lv_cpicker.c ****     else if(ext->type == LV_CPICKER_TYPE_RECT) {
 340              		.loc 1 763 0
 341 014e 2B7F     		ldrb	r3, [r5, #28]	@ zero_extendqisi2
 342              	.LBB119:
 343              	.LBB118:
 390:..\..\..\lvgl\version_6.1.2\lvgl\src\lv_objx/lv_cpicker.c ****     default:
 344              		.loc 1 390 0
 345 0150 4768     		ldr	r7, [r0, #4]
 346              	.LVL50:
 347              	.LBE118:
 348              	.LBE119:
 763:..\..\..\lvgl\version_6.1.2\lvgl\src\lv_objx/lv_cpicker.c ****     else if(ext->type == LV_CPICKER_TYPE_RECT) {
 349              		.loc 1 763 0
 350 0152 1B07     		lsls	r3, r3, #28
 351 0154 34D5     		bpl	.L28
 352 0156 B6F94C20 		ldrsh	r2, [r6, #76]
 353 015a 02EBD272 		add	r2, r2, r2, lsr #31
 354 015e C2F34F02 		ubfx	r2, r2, #1, #16
 355              	.LVL51:
 356              	.L14:
 770:..\..\..\lvgl\version_6.1.2\lvgl\src\lv_objx/lv_cpicker.c ****     indic_area.y1 = cpicker->coords.y1 + ext->indic.pos.y - r - style_indic->body.padding.right;
 357              		.loc 1 770 0
 358 0162 2B89     		ldrh	r3, [r5, #8]
 359 0164 B4F810E0 		ldrh	lr, [r4, #16]
 771:..\..\..\lvgl\version_6.1.2\lvgl\src\lv_objx/lv_cpicker.c ****     indic_area.x2 = cpicker->coords.x1 + ext->indic.pos.x + r + style_indic->body.padding.top;
 360              		.loc 1 771 0
 361 0168 6D89     		ldrh	r5, [r5, #10]
 362              	.LVL52:
 363 016a 618A     		ldrh	r1, [r4, #18]
 773:..\..\..\lvgl\version_6.1.2\lvgl\src\lv_objx/lv_cpicker.c **** 
 364              		.loc 1 773 0
 365 016c 788C     		ldrh	r0, [r7, #34]
 772:..\..\..\lvgl\version_6.1.2\lvgl\src\lv_objx/lv_cpicker.c ****     indic_area.y2 = cpicker->coords.y1 + ext->indic.pos.y + r + style_indic->body.padding.bottom;
 366              		.loc 1 772 0
ARM GAS  C:\Users\pearlstl\AppData\Local\Temp\ccadfCp2.s 			page 27


 367 016e 3E8C     		ldrh	r6, [r7, #32]
 771:..\..\..\lvgl\version_6.1.2\lvgl\src\lv_objx/lv_cpicker.c ****     indic_area.x2 = cpicker->coords.x1 + ext->indic.pos.x + r + style_indic->body.padding.top;
 368              		.loc 1 771 0
 369 0170 B7F826C0 		ldrh	ip, [r7, #38]
 770:..\..\..\lvgl\version_6.1.2\lvgl\src\lv_objx/lv_cpicker.c ****     indic_area.y1 = cpicker->coords.y1 + ext->indic.pos.y - r - style_indic->body.padding.right;
 370              		.loc 1 770 0
 371 0174 7344     		add	r3, r3, lr
 771:..\..\..\lvgl\version_6.1.2\lvgl\src\lv_objx/lv_cpicker.c ****     indic_area.x2 = cpicker->coords.x1 + ext->indic.pos.x + r + style_indic->body.padding.top;
 372              		.loc 1 771 0
 373 0176 2944     		add	r1, r1, r5
 775:..\..\..\lvgl\version_6.1.2\lvgl\src\lv_objx/lv_cpicker.c **** }
 374              		.loc 1 775 0
 375 0178 B7F824E0 		ldrh	lr, [r7, #36]
 771:..\..\..\lvgl\version_6.1.2\lvgl\src\lv_objx/lv_cpicker.c ****     indic_area.x2 = cpicker->coords.x1 + ext->indic.pos.x + r + style_indic->body.padding.top;
 376              		.loc 1 771 0
 377 017c 89B2     		uxth	r1, r1
 770:..\..\..\lvgl\version_6.1.2\lvgl\src\lv_objx/lv_cpicker.c ****     indic_area.y1 = cpicker->coords.y1 + ext->indic.pos.y - r - style_indic->body.padding.right;
 378              		.loc 1 770 0
 379 017e 9BB2     		uxth	r3, r3
 380              	.LVL53:
 773:..\..\..\lvgl\version_6.1.2\lvgl\src\lv_objx/lv_cpicker.c **** 
 381              		.loc 1 773 0
 382 0180 0D18     		adds	r5, r1, r0
 771:..\..\..\lvgl\version_6.1.2\lvgl\src\lv_objx/lv_cpicker.c ****     indic_area.x2 = cpicker->coords.x1 + ext->indic.pos.x + r + style_indic->body.padding.top;
 383              		.loc 1 771 0
 384 0182 8F1A     		subs	r7, r1, r2
 385              	.LVL54:
 772:..\..\..\lvgl\version_6.1.2\lvgl\src\lv_objx/lv_cpicker.c ****     indic_area.y2 = cpicker->coords.y1 + ext->indic.pos.y + r + style_indic->body.padding.bottom;
 386              		.loc 1 772 0
 387 0184 1E44     		add	r6, r6, r3
 775:..\..\..\lvgl\version_6.1.2\lvgl\src\lv_objx/lv_cpicker.c **** }
 388              		.loc 1 775 0
 389 0186 9B1A     		subs	r3, r3, r2
 390              	.LVL55:
 391              	.LBE113:
 392              	.LBE112:
 753:..\..\..\lvgl\version_6.1.2\lvgl\src\lv_objx/lv_cpicker.c **** }
 393              		.loc 1 753 0
 394 0188 2046     		mov	r0, r4
 395              	.LBB124:
 396              	.LBB121:
 771:..\..\..\lvgl\version_6.1.2\lvgl\src\lv_objx/lv_cpicker.c ****     indic_area.x2 = cpicker->coords.x1 + ext->indic.pos.x + r + style_indic->body.padding.top;
 397              		.loc 1 771 0
 398 018a CCEB0707 		rsb	r7, ip, r7
 399              	.LVL56:
 772:..\..\..\lvgl\version_6.1.2\lvgl\src\lv_objx/lv_cpicker.c ****     indic_area.y2 = cpicker->coords.y1 + ext->indic.pos.y + r + style_indic->body.padding.bottom;
 400              		.loc 1 772 0
 401 018e 9419     		adds	r4, r2, r6
 402              	.LVL57:
 775:..\..\..\lvgl\version_6.1.2\lvgl\src\lv_objx/lv_cpicker.c **** }
 403              		.loc 1 775 0
 404 0190 CEEB0303 		rsb	r3, lr, r3
 773:..\..\..\lvgl\version_6.1.2\lvgl\src\lv_objx/lv_cpicker.c **** 
 405              		.loc 1 773 0
 406 0194 2A44     		add	r2, r2, r5
 407              	.LVL58:
 408              	.LBE121:
ARM GAS  C:\Users\pearlstl\AppData\Local\Temp\ccadfCp2.s 			page 28


 409              	.LBE124:
 753:..\..\..\lvgl\version_6.1.2\lvgl\src\lv_objx/lv_cpicker.c **** }
 410              		.loc 1 753 0
 411 0196 6946     		mov	r1, sp
 412              	.LBB125:
 413              	.LBB122:
 775:..\..\..\lvgl\version_6.1.2\lvgl\src\lv_objx/lv_cpicker.c **** }
 414              		.loc 1 775 0
 415 0198 ADF80270 		strh	r7, [sp, #2]	@ movhi
 416 019c ADF80440 		strh	r4, [sp, #4]	@ movhi
 417 01a0 ADF80030 		strh	r3, [sp]	@ movhi
 418 01a4 ADF80620 		strh	r2, [sp, #6]	@ movhi
 419              	.LVL59:
 420              	.LBE122:
 421              	.LBE125:
 753:..\..\..\lvgl\version_6.1.2\lvgl\src\lv_objx/lv_cpicker.c **** }
 422              		.loc 1 753 0
 423 01a8 FFF7FEFF 		bl	lv_obj_invalidate_area
 424              	.LVL60:
 425              	.LBE111:
 426              	.LBE110:
 995:..\..\..\lvgl\version_6.1.2\lvgl\src\lv_objx/lv_cpicker.c **** 
 427              		.loc 1 995 0
 428 01ac 03B0     		add	sp, sp, #12
 429              		.cfi_remember_state
 430              		.cfi_def_cfa_offset 28
 431              		@ sp needed
 432 01ae BDE8F083 		pop	{r4, r5, r6, r7, r8, r9, pc}
 433              	.LVL61:
 434              	.L26:
 435              		.cfi_restore_state
 436              	.LBB128:
 437              	.LBB93:
 438              	.LBB92:
 439              	.LBB90:
 763:..\..\..\lvgl\version_6.1.2\lvgl\src\lv_objx/lv_cpicker.c ****     else if(ext->type == LV_CPICKER_TYPE_RECT) {
 440              		.loc 1 763 0
 441 01b2 B6F94C00 		ldrsh	r0, [r6, #76]
 442 01b6 00EBD070 		add	r0, r0, r0, lsr #31
 443 01ba C0F34F00 		ubfx	r0, r0, #1, #16
 444              	.LVL62:
 445 01be 3CE7     		b	.L3
 446              	.LVL63:
 447              	.L28:
 448              	.LBE90:
 449              	.LBE92:
 450              	.LBE93:
 451              	.LBE128:
 452              	.LBB129:
 453              	.LBB127:
 454              	.LBB126:
 455              	.LBB123:
 456              	.LBB120:
 765:..\..\..\lvgl\version_6.1.2\lvgl\src\lv_objx/lv_cpicker.c ****         r = h / 2;
 457              		.loc 1 765 0
 458 01c0 2046     		mov	r0, r4
 459 01c2 FFF7FEFF 		bl	lv_obj_get_height
ARM GAS  C:\Users\pearlstl\AppData\Local\Temp\ccadfCp2.s 			page 29


 460              	.LVL64:
 766:..\..\..\lvgl\version_6.1.2\lvgl\src\lv_objx/lv_cpicker.c ****     }
 461              		.loc 1 766 0
 462 01c6 00EBD070 		add	r0, r0, r0, lsr #31
 463              	.LVL65:
 464 01ca C0F34F02 		ubfx	r2, r0, #1, #16
 465              	.LVL66:
 466 01ce C8E7     		b	.L14
 467              	.LVL67:
 468              	.L8:
 469              	.LBE120:
 470              	.LBE123:
 471              	.LBE126:
 472              	.LBE127:
 473              	.LBE129:
 474              	.LBB130:
 978:..\..\..\lvgl\version_6.1.2\lvgl\src\lv_objx/lv_cpicker.c ****             break;
 475              		.loc 1 978 0
 476 01d0 F078     		ldrb	r0, [r6, #3]	@ zero_extendqisi2
 477              	.L22:
 478 01d2 144B     		ldr	r3, .L29
 479 01d4 10FB07F0 		smulbb	r0, r0, r7
 480 01d8 83FB0023 		smull	r2, r3, r3, r0
 481 01dc C017     		asrs	r0, r0, #31
 482 01de C0EB6313 		rsb	r3, r0, r3, asr #5
 483 01e2 1BB2     		sxth	r3, r3
 484              	.LVL68:
 979:..\..\..\lvgl\version_6.1.2\lvgl\src\lv_objx/lv_cpicker.c ****         }
 485              		.loc 1 979 0
 486 01e4 A0E7     		b	.L5
 487              	.LVL69:
 488              	.L6:
 975:..\..\..\lvgl\version_6.1.2\lvgl\src\lv_objx/lv_cpicker.c ****             break;
 489              		.loc 1 975 0
 490 01e6 B078     		ldrb	r0, [r6, #2]	@ zero_extendqisi2
 491 01e8 F3E7     		b	.L22
 492              	.LVL70:
 493              	.L11:
 494              	.LBE130:
 495              	.LBB131:
 496              	.LBB107:
 497              	.LBB102:
1057:..\..\..\lvgl\version_6.1.2\lvgl\src\lv_objx/lv_cpicker.c ****         break;
1058:..\..\..\lvgl\version_6.1.2\lvgl\src\lv_objx/lv_cpicker.c ****     case LV_CPICKER_COLOR_MODE_SATURATION:
1059:..\..\..\lvgl\version_6.1.2\lvgl\src\lv_objx/lv_cpicker.c ****         angle = (ext->hsv.s * 360) / 100;
 498              		.loc 1 1059 0
 499 01ea 8378     		ldrb	r3, [r0, #2]	@ zero_extendqisi2
 500              	.L23:
1060:..\..\..\lvgl\version_6.1.2\lvgl\src\lv_objx/lv_cpicker.c ****         break;
1061:..\..\..\lvgl\version_6.1.2\lvgl\src\lv_objx/lv_cpicker.c ****     case LV_CPICKER_COLOR_MODE_VALUE:
1062:..\..\..\lvgl\version_6.1.2\lvgl\src\lv_objx/lv_cpicker.c ****         angle = (ext->hsv.v * 360) / 100 ;
 501              		.loc 1 1062 0
 502 01ec 0D49     		ldr	r1, .L29
 503 01ee 4FF4B472 		mov	r2, #360
 504 01f2 02FB03F3 		mul	r3, r2, r3
 505 01f6 81FB0329 		smull	r2, r9, r1, r3
 506 01fa DB17     		asrs	r3, r3, #31
ARM GAS  C:\Users\pearlstl\AppData\Local\Temp\ccadfCp2.s 			page 30


 507 01fc C3EB6919 		rsb	r9, r3, r9, asr #5
 508 0200 1FFA89F9 		uxth	r9, r9
 509              	.LVL71:
 510 0204 70E7     		b	.L13
 511              	.LVL72:
 512              	.L7:
 513              	.LBE102:
 514              	.LBE107:
 515              	.LBE131:
 516              	.LBB132:
 972:..\..\..\lvgl\version_6.1.2\lvgl\src\lv_objx/lv_cpicker.c ****             break;
 517              		.loc 1 972 0
 518 0206 3088     		ldrh	r0, [r6]
 519 0208 074B     		ldr	r3, .L29+4
 520 020a 07FB00F0 		mul	r0, r7, r0
 521 020e 83FB0023 		smull	r2, r3, r3, r0
 522 0212 0344     		add	r3, r3, r0
 523 0214 C017     		asrs	r0, r0, #31
 524 0216 C0EB2323 		rsb	r3, r0, r3, asr #8
 525 021a 1BB2     		sxth	r3, r3
 526              	.LVL73:
 973:..\..\..\lvgl\version_6.1.2\lvgl\src\lv_objx/lv_cpicker.c ****         case LV_CPICKER_COLOR_MODE_SATURATION:
 527              		.loc 1 973 0
 528 021c 84E7     		b	.L5
 529              	.LVL74:
 530              	.L12:
 531              	.LBE132:
 532              	.LBB133:
 533              	.LBB108:
 534              	.LBB103:
 535              		.loc 1 1062 0
 536 021e C378     		ldrb	r3, [r0, #3]	@ zero_extendqisi2
 537 0220 E4E7     		b	.L23
 538              	.L30:
 539 0222 00BF     		.align	2
 540              	.L29:
 541 0224 1F85EB51 		.word	1374389535
 542 0228 B7600BB6 		.word	-1240768329
 543              	.LBE103:
 544              	.LBE108:
 545              	.LBE133:
 546              		.cfi_endproc
 547              	.LFE61:
 548              		.size	refr_indic_pos, .-refr_indic_pos
 549              		.section	.text.unlikely.next_color_mode,"ax",%progbits
 550              		.align	2
 551              		.thumb
 552              		.thumb_func
 553              		.type	next_color_mode, %function
 554              	next_color_mode:
 555              	.LFB60:
 953:..\..\..\lvgl\version_6.1.2\lvgl\src\lv_objx/lv_cpicker.c ****     lv_cpicker_ext_t * ext = lv_obj_get_ext_attr(cpicker);
 556              		.loc 1 953 0
 557              		.cfi_startproc
 558              		@ args = 0, pretend = 0, frame = 0
 559              		@ frame_needed = 0, uses_anonymous_args = 0
 560              	.LVL75:
ARM GAS  C:\Users\pearlstl\AppData\Local\Temp\ccadfCp2.s 			page 31


 561 0000 10B5     		push	{r4, lr}
 562              		.cfi_def_cfa_offset 8
 563              		.cfi_offset 4, -8
 564              		.cfi_offset 14, -4
 953:..\..\..\lvgl\version_6.1.2\lvgl\src\lv_objx/lv_cpicker.c ****     lv_cpicker_ext_t * ext = lv_obj_get_ext_attr(cpicker);
 565              		.loc 1 953 0
 566 0002 0446     		mov	r4, r0
 954:..\..\..\lvgl\version_6.1.2\lvgl\src\lv_objx/lv_cpicker.c ****     ext->color_mode = (ext->color_mode + 1) % 3;
 567              		.loc 1 954 0
 568 0004 FFF7FEFF 		bl	lv_obj_get_ext_attr
 569              	.LVL76:
 955:..\..\..\lvgl\version_6.1.2\lvgl\src\lv_objx/lv_cpicker.c ****     refr_indic_pos(cpicker);
 570              		.loc 1 955 0
 571 0008 017F     		ldrb	r1, [r0, #28]	@ zero_extendqisi2
 572 000a 0322     		movs	r2, #3
 573 000c 01EA0203 		and	r3, r1, r2
 574 0010 0133     		adds	r3, r3, #1
 575 0012 93FBF2F2 		sdiv	r2, r3, r2
 576 0016 02EB4202 		add	r2, r2, r2, lsl #1
 577 001a 9B1A     		subs	r3, r3, r2
 578 001c 63F30101 		bfi	r1, r3, #0, #2
 579 0020 0177     		strb	r1, [r0, #28]
 956:..\..\..\lvgl\version_6.1.2\lvgl\src\lv_objx/lv_cpicker.c ****     lv_obj_invalidate(cpicker);
 580              		.loc 1 956 0
 581 0022 2046     		mov	r0, r4
 582              	.LVL77:
 583 0024 FFF7FEFF 		bl	refr_indic_pos
 584              	.LVL78:
 957:..\..\..\lvgl\version_6.1.2\lvgl\src\lv_objx/lv_cpicker.c **** }
 585              		.loc 1 957 0
 586 0028 2046     		mov	r0, r4
 958:..\..\..\lvgl\version_6.1.2\lvgl\src\lv_objx/lv_cpicker.c **** 
 587              		.loc 1 958 0
 588 002a BDE81040 		pop	{r4, lr}
 589              		.cfi_restore 14
 590              		.cfi_restore 4
 591              		.cfi_def_cfa_offset 0
 592              	.LVL79:
 957:..\..\..\lvgl\version_6.1.2\lvgl\src\lv_objx/lv_cpicker.c **** }
 593              		.loc 1 957 0
 594 002e FFF7FEBF 		b	lv_obj_invalidate
 595              	.LVL80:
 596              		.cfi_endproc
 597              	.LFE60:
 598              		.size	next_color_mode, .-next_color_mode
 599 0032 00BF     		.section	.text.lv_cpicker_design,"ax",%progbits
 600              		.align	2
 601              		.thumb
 602              		.thumb_func
 603              		.type	lv_cpicker_design, %function
 604              	lv_cpicker_design:
 605              	.LFB53:
 518:..\..\..\lvgl\version_6.1.2\lvgl\src\lv_objx/lv_cpicker.c ****     /*Return false if the object is not covers the mask_p area*/
 606              		.loc 1 518 0
 607              		.cfi_startproc
 608              		@ args = 0, pretend = 0, frame = 136
 609              		@ frame_needed = 0, uses_anonymous_args = 0
ARM GAS  C:\Users\pearlstl\AppData\Local\Temp\ccadfCp2.s 			page 32


 610              	.LVL81:
 520:..\..\..\lvgl\version_6.1.2\lvgl\src\lv_objx/lv_cpicker.c ****         return false;
 611              		.loc 1 520 0
 612 0000 022A     		cmp	r2, #2
 613 0002 00F0A180 		beq	.L87
 524:..\..\..\lvgl\version_6.1.2\lvgl\src\lv_objx/lv_cpicker.c ****         lv_cpicker_ext_t * ext = lv_obj_get_ext_attr(cpicker);
 614              		.loc 1 524 0
 615 0006 0AB1     		cbz	r2, .L124
 540:..\..\..\lvgl\version_6.1.2\lvgl\src\lv_objx/lv_cpicker.c **** }
 616              		.loc 1 540 0
 617 0008 0120     		movs	r0, #1
 618              	.LVL82:
 619 000a 7047     		bx	lr
 620              	.LVL83:
 621              	.L124:
 518:..\..\..\lvgl\version_6.1.2\lvgl\src\lv_objx/lv_cpicker.c ****     /*Return false if the object is not covers the mask_p area*/
 622              		.loc 1 518 0
 623 000c 2DE9F04F 		push	{r4, r5, r6, r7, r8, r9, r10, fp, lr}
 624              		.cfi_def_cfa_offset 36
 625              		.cfi_offset 4, -36
 626              		.cfi_offset 5, -32
 627              		.cfi_offset 6, -28
 628              		.cfi_offset 7, -24
 629              		.cfi_offset 8, -20
 630              		.cfi_offset 9, -16
 631              		.cfi_offset 10, -12
 632              		.cfi_offset 11, -8
 633              		.cfi_offset 14, -4
 634 0010 A3B0     		sub	sp, sp, #140
 635              		.cfi_def_cfa_offset 176
 636 0012 0446     		mov	r4, r0
 637              	.LVL84:
 638 0014 8B46     		mov	fp, r1
 639              	.LVL85:
 640 0016 1546     		mov	r5, r2
 641              	.LBB174:
 642              	.LBB175:
 525:..\..\..\lvgl\version_6.1.2\lvgl\src\lv_objx/lv_cpicker.c ****         lv_opa_t opa_scale = lv_obj_get_opa_scale(cpicker);
 643              		.loc 1 525 0
 644 0018 FFF7FEFF 		bl	lv_obj_get_ext_attr
 645              	.LVL86:
 646 001c 0646     		mov	r6, r0
 647              	.LVL87:
 526:..\..\..\lvgl\version_6.1.2\lvgl\src\lv_objx/lv_cpicker.c **** 
 648              		.loc 1 526 0
 649 001e 2046     		mov	r0, r4
 650              	.LVL88:
 651 0020 FFF7FEFF 		bl	lv_obj_get_opa_scale
 652              	.LVL89:
 528:..\..\..\lvgl\version_6.1.2\lvgl\src\lv_objx/lv_cpicker.c ****             draw_disc_grad(cpicker, mask, opa_scale);
 653              		.loc 1 528 0
 654 0024 337F     		ldrb	r3, [r6, #28]	@ zero_extendqisi2
 526:..\..\..\lvgl\version_6.1.2\lvgl\src\lv_objx/lv_cpicker.c **** 
 655              		.loc 1 526 0
 656 0026 0190     		str	r0, [sp, #4]
 657              	.LVL90:
 528:..\..\..\lvgl\version_6.1.2\lvgl\src\lv_objx/lv_cpicker.c ****             draw_disc_grad(cpicker, mask, opa_scale);
ARM GAS  C:\Users\pearlstl\AppData\Local\Temp\ccadfCp2.s 			page 33


 658              		.loc 1 528 0
 659 0028 03F00803 		and	r3, r3, #8
 660 002c 03F0FF07 		and	r7, r3, #255
 661              	.LBB176:
 662              	.LBB177:
 545:..\..\..\lvgl\version_6.1.2\lvgl\src\lv_objx/lv_cpicker.c ****     int16_t start_angle = 0; /*Default*/
 663              		.loc 1 545 0
 664 0030 2046     		mov	r0, r4
 665              	.LBE177:
 666              	.LBE176:
 528:..\..\..\lvgl\version_6.1.2\lvgl\src\lv_objx/lv_cpicker.c ****             draw_disc_grad(cpicker, mask, opa_scale);
 667              		.loc 1 528 0
 668 0032 002B     		cmp	r3, #0
 669 0034 40F08A80 		bne	.L125
 670              	.LVL91:
 671              	.LBB202:
 672              	.LBB203:
 673              	.LBB204:
 674              	.LBB205:
 384:..\..\..\lvgl\version_6.1.2\lvgl\src\lv_objx/lv_cpicker.c **** 
 675              		.loc 1 384 0
 676 0038 FFF7FEFF 		bl	lv_obj_get_ext_attr
 677              	.LVL92:
 388:..\..\..\lvgl\version_6.1.2\lvgl\src\lv_objx/lv_cpicker.c ****     case LV_CPICKER_STYLE_INDICATOR:
 678              		.loc 1 388 0
 679 003c 2046     		mov	r0, r4
 680 003e FFF7FEFF 		bl	lv_obj_get_style
 681              	.LVL93:
 682              	.LBE205:
 683              	.LBE204:
 671:..\..\..\lvgl\version_6.1.2\lvgl\src\lv_objx/lv_cpicker.c **** 
 684              		.loc 1 671 0
 685 0042 0EAE     		add	r6, sp, #56
 686              	.LVL94:
 687 0044 0146     		mov	r1, r0
 688 0046 3046     		mov	r0, r6
 689 0048 FFF7FEFF 		bl	lv_style_copy
 690              	.LVL95:
 674:..\..\..\lvgl\version_6.1.2\lvgl\src\lv_objx/lv_cpicker.c **** 
 691              		.loc 1 674 0
 692 004c 09A9     		add	r1, sp, #36
 693 004e 2046     		mov	r0, r4
 694 0050 FFF7FEFF 		bl	lv_obj_get_coords
 695              	.LVL96:
 676:..\..\..\lvgl\version_6.1.2\lvgl\src\lv_objx/lv_cpicker.c ****         lv_coord_t h = lv_obj_get_height(cpicker);
 696              		.loc 1 676 0
 697 0054 BDF94430 		ldrsh	r3, [sp, #68]
 698 0058 002B     		cmp	r3, #0
 699 005a 40F01382 		bne	.L113
 700 005e 0BAB     		add	r3, sp, #44
 701 0060 0093     		str	r3, [sp]
 702              	.LVL97:
 703              	.L64:
 705:..\..\..\lvgl\version_6.1.2\lvgl\src\lv_objx/lv_cpicker.c ****     style.body.radius = 0;
 704              		.loc 1 705 0
 705 0062 BDF82830 		ldrh	r3, [sp, #40]
 706 0066 BDF82470 		ldrh	r7, [sp, #36]
ARM GAS  C:\Users\pearlstl\AppData\Local\Temp\ccadfCp2.s 			page 34


 707              	.LVL98:
 708              	.LBB206:
 709              	.LBB207:
 710              	.LBB208:
1039:..\..\..\lvgl\version_6.1.2\lvgl\src\lv_objx/lv_cpicker.c ****         break;
 711              		.loc 1 1039 0
 712 006a DFF81494 		ldr	r9, .L133+8
 713              	.LBE208:
 714              	.LBE207:
 715              	.LBE206:
 705:..\..\..\lvgl\version_6.1.2\lvgl\src\lv_objx/lv_cpicker.c ****     style.body.radius = 0;
 716              		.loc 1 705 0
 717 006e 0133     		adds	r3, r3, #1
 718 0070 DF1B     		subs	r7, r3, r7
 719 0072 3FB2     		sxth	r7, r7
 720 0074 4FF4B47A 		mov	r10, #360
 721 0078 9AFBF7FA 		sdiv	r10, r10, r7
 722 007c BAF1030F 		cmp	r10, #3
 706:..\..\..\lvgl\version_6.1.2\lvgl\src\lv_objx/lv_cpicker.c ****     style.body.border.width = 0;
 723              		.loc 1 706 0
 724 0080 4FF00005 		mov	r5, #0
 725              	.LVL99:
 709:..\..\..\lvgl\version_6.1.2\lvgl\src\lv_objx/lv_cpicker.c **** 
 726              		.loc 1 709 0
 727 0084 4FF0FF03 		mov	r3, #255
 705:..\..\..\lvgl\version_6.1.2\lvgl\src\lv_objx/lv_cpicker.c ****     style.body.radius = 0;
 728              		.loc 1 705 0
 729 0088 B8BF     		it	lt
 730 008a 4FF0030A 		movlt	r10, #3
 731 008e 1FFA8AF8 		uxth	r8, r10
 732              	.LVL100:
 706:..\..\..\lvgl\version_6.1.2\lvgl\src\lv_objx/lv_cpicker.c ****     style.body.border.width = 0;
 733              		.loc 1 706 0
 734 0092 ADF84450 		strh	r5, [sp, #68]	@ movhi
 707:..\..\..\lvgl\version_6.1.2\lvgl\src\lv_objx/lv_cpicker.c ****     style.body.shadow.width = 0;
 735              		.loc 1 707 0
 736 0096 ADF84C50 		strh	r5, [sp, #76]	@ movhi
 708:..\..\..\lvgl\version_6.1.2\lvgl\src\lv_objx/lv_cpicker.c ****     style.body.opa = LV_OPA_COVER;
 737              		.loc 1 708 0
 738 009a ADF85450 		strh	r5, [sp, #84]	@ movhi
 709:..\..\..\lvgl\version_6.1.2\lvgl\src\lv_objx/lv_cpicker.c **** 
 739              		.loc 1 709 0
 740 009e 8DF84630 		strb	r3, [sp, #70]
 741              	.LVL101:
 742 00a2 32E0     		b	.L77
 743              	.LVL102:
 744              	.L126:
 745              	.LBB215:
 746              	.LBB212:
 747              	.LBB209:
1036:..\..\..\lvgl\version_6.1.2\lvgl\src\lv_objx/lv_cpicker.c ****         break;
 748              		.loc 1 1036 0
 749 00a4 9EF80320 		ldrb	r2, [lr, #3]	@ zero_extendqisi2
 750 00a8 9EF80210 		ldrb	r1, [lr, #2]	@ zero_extendqisi2
 751 00ac FFF7FEFF 		bl	lv_color_hsv_to_rgb
 752              	.LVL103:
 753              	.L76:
ARM GAS  C:\Users\pearlstl\AppData\Local\Temp\ccadfCp2.s 			page 35


 754              	.LBE209:
 755              	.LBE212:
 722:..\..\..\lvgl\version_6.1.2\lvgl\src\lv_objx/lv_cpicker.c ****         rect_area.y1 = grad_area.y1;
 756              		.loc 1 722 0
 757 00b0 05FB07F3 		mul	r3, r5, r7
 758 00b4 89FB0321 		smull	r2, r1, r9, r3
 759 00b8 BDF92420 		ldrsh	r2, [sp, #36]
 760              	.LVL104:
 713:..\..\..\lvgl\version_6.1.2\lvgl\src\lv_objx/lv_cpicker.c ****         style.body.grad_color = style.body.main_color;
 761              		.loc 1 713 0
 762 00bc 0F90     		str	r0, [sp, #60]
 722:..\..\..\lvgl\version_6.1.2\lvgl\src\lv_objx/lv_cpicker.c ****         rect_area.y1 = grad_area.y1;
 763              		.loc 1 722 0
 764 00be 1944     		add	r1, r1, r3
 765 00c0 DB17     		asrs	r3, r3, #31
 766 00c2 C3EB2123 		rsb	r3, r3, r1, asr #8
 767 00c6 B918     		adds	r1, r7, r2
 768 00c8 1344     		add	r3, r3, r2
 769 00ca CAEB0102 		rsb	r2, r10, r1
 770 00ce 9A42     		cmp	r2, r3
 771 00d0 A8BF     		it	ge
 772 00d2 1A46     		movge	r2, r3
 724:..\..\..\lvgl\version_6.1.2\lvgl\src\lv_objx/lv_cpicker.c ****         rect_area.y2 = grad_area.y2;
 773              		.loc 1 724 0
 774 00d4 08EB0201 		add	r1, r8, r2
 775              	.LBE215:
 712:..\..\..\lvgl\version_6.1.2\lvgl\src\lv_objx/lv_cpicker.c ****         style.body.main_color = angle_to_mode_color(cpicker, i);
 776              		.loc 1 712 0
 777 00d8 4544     		add	r5, r5, r8
 778              	.LVL105:
 779              	.LBB216:
 723:..\..\..\lvgl\version_6.1.2\lvgl\src\lv_objx/lv_cpicker.c ****         rect_area.x2 = rect_area.x1 + i_step;
 780              		.loc 1 723 0
 781 00da BDF826C0 		ldrh	ip, [sp, #38]
 725:..\..\..\lvgl\version_6.1.2\lvgl\src\lv_objx/lv_cpicker.c **** 
 782              		.loc 1 725 0
 783 00de BDF82AE0 		ldrh	lr, [sp, #42]
 714:..\..\..\lvgl\version_6.1.2\lvgl\src\lv_objx/lv_cpicker.c **** 
 784              		.loc 1 714 0
 785 00e2 1090     		str	r0, [sp, #64]
 722:..\..\..\lvgl\version_6.1.2\lvgl\src\lv_objx/lv_cpicker.c ****         rect_area.y1 = grad_area.y1;
 786              		.loc 1 722 0
 787 00e4 ADF82C20 		strh	r2, [sp, #44]	@ movhi
 724:..\..\..\lvgl\version_6.1.2\lvgl\src\lv_objx/lv_cpicker.c ****         rect_area.y2 = grad_area.y2;
 788              		.loc 1 724 0
 789 00e8 ADF83010 		strh	r1, [sp, #48]	@ movhi
 727:..\..\..\lvgl\version_6.1.2\lvgl\src\lv_objx/lv_cpicker.c ****     }
 790              		.loc 1 727 0
 791 00ec 019B     		ldr	r3, [sp, #4]
 792 00ee 0098     		ldr	r0, [sp]
 793              	.LVL106:
 723:..\..\..\lvgl\version_6.1.2\lvgl\src\lv_objx/lv_cpicker.c ****         rect_area.x2 = rect_area.x1 + i_step;
 794              		.loc 1 723 0
 795 00f0 ADF82EC0 		strh	ip, [sp, #46]	@ movhi
 727:..\..\..\lvgl\version_6.1.2\lvgl\src\lv_objx/lv_cpicker.c ****     }
 796              		.loc 1 727 0
 797 00f4 3246     		mov	r2, r6
ARM GAS  C:\Users\pearlstl\AppData\Local\Temp\ccadfCp2.s 			page 36


 798 00f6 5946     		mov	r1, fp
 799              	.LBE216:
 712:..\..\..\lvgl\version_6.1.2\lvgl\src\lv_objx/lv_cpicker.c ****         style.body.main_color = angle_to_mode_color(cpicker, i);
 800              		.loc 1 712 0
 801 00f8 ADB2     		uxth	r5, r5
 802              	.LBB217:
 725:..\..\..\lvgl\version_6.1.2\lvgl\src\lv_objx/lv_cpicker.c **** 
 803              		.loc 1 725 0
 804 00fa ADF832E0 		strh	lr, [sp, #50]	@ movhi
 727:..\..\..\lvgl\version_6.1.2\lvgl\src\lv_objx/lv_cpicker.c ****     }
 805              		.loc 1 727 0
 806 00fe FFF7FEFF 		bl	lv_draw_rect
 807              	.LVL107:
 808              	.LBE217:
 712:..\..\..\lvgl\version_6.1.2\lvgl\src\lv_objx/lv_cpicker.c ****         style.body.main_color = angle_to_mode_color(cpicker, i);
 809              		.loc 1 712 0
 810 0102 B5F5B47F 		cmp	r5, #360
 811 0106 80F04D81 		bcs	.L63
 812              	.LVL108:
 813              	.L77:
 814              	.LBB218:
 815              	.LBB213:
 816              	.LBB210:
1030:..\..\..\lvgl\version_6.1.2\lvgl\src\lv_objx/lv_cpicker.c ****     lv_color_t color;
 817              		.loc 1 1030 0
 818 010a 2046     		mov	r0, r4
 819 010c FFF7FEFF 		bl	lv_obj_get_ext_attr
 820              	.LVL109:
1032:..\..\..\lvgl\version_6.1.2\lvgl\src\lv_objx/lv_cpicker.c ****     {
 821              		.loc 1 1032 0
 822 0110 037F     		ldrb	r3, [r0, #28]	@ zero_extendqisi2
 823 0112 03F00303 		and	r3, r3, #3
 824 0116 012B     		cmp	r3, #1
1030:..\..\..\lvgl\version_6.1.2\lvgl\src\lv_objx/lv_cpicker.c ****     lv_color_t color;
 825              		.loc 1 1030 0
 826 0118 8646     		mov	lr, r0
 827              	.LVL110:
1032:..\..\..\lvgl\version_6.1.2\lvgl\src\lv_objx/lv_cpicker.c ****     {
 828              		.loc 1 1032 0
 829 011a 00F01B82 		beq	.L74
1042:..\..\..\lvgl\version_6.1.2\lvgl\src\lv_objx/lv_cpicker.c ****         break;
 830              		.loc 1 1042 0
 831 011e 6422     		movs	r2, #100
 832 0120 02FB05F1 		mul	r1, r2, r5
 833 0124 89FB0102 		smull	r0, r2, r9, r1
 834              	.LVL111:
1032:..\..\..\lvgl\version_6.1.2\lvgl\src\lv_objx/lv_cpicker.c ****     {
 835              		.loc 1 1032 0
 836 0128 022B     		cmp	r3, #2
1042:..\..\..\lvgl\version_6.1.2\lvgl\src\lv_objx/lv_cpicker.c ****         break;
 837              		.loc 1 1042 0
 838 012a 0A44     		add	r2, r2, r1
1036:..\..\..\lvgl\version_6.1.2\lvgl\src\lv_objx/lv_cpicker.c ****         break;
 839              		.loc 1 1036 0
 840 012c 2846     		mov	r0, r5
1042:..\..\..\lvgl\version_6.1.2\lvgl\src\lv_objx/lv_cpicker.c ****         break;
 841              		.loc 1 1042 0
ARM GAS  C:\Users\pearlstl\AppData\Local\Temp\ccadfCp2.s 			page 37


 842 012e 4FEAE171 		asr	r1, r1, #31
1032:..\..\..\lvgl\version_6.1.2\lvgl\src\lv_objx/lv_cpicker.c ****     {
 843              		.loc 1 1032 0
 844 0132 B7D1     		bne	.L126
1042:..\..\..\lvgl\version_6.1.2\lvgl\src\lv_objx/lv_cpicker.c ****         break;
 845              		.loc 1 1042 0
 846 0134 C1EB2222 		rsb	r2, r1, r2, asr #8
 847 0138 D2B2     		uxtb	r2, r2
 848 013a 9EF80210 		ldrb	r1, [lr, #2]	@ zero_extendqisi2
 849 013e BEF80000 		ldrh	r0, [lr]
 850 0142 FFF7FEFF 		bl	lv_color_hsv_to_rgb
 851              	.LVL112:
 852 0146 B3E7     		b	.L76
 853              	.LVL113:
 854              	.L87:
 855              		.cfi_def_cfa_offset 0
 856              		.cfi_restore 4
 857              		.cfi_restore 5
 858              		.cfi_restore 6
 859              		.cfi_restore 7
 860              		.cfi_restore 8
 861              		.cfi_restore 9
 862              		.cfi_restore 10
 863              		.cfi_restore 11
 864              		.cfi_restore 14
 865              	.LBE210:
 866              	.LBE213:
 867              	.LBE218:
 868              	.LBE203:
 869              	.LBE202:
 870              	.LBE175:
 871              	.LBE174:
 521:..\..\..\lvgl\version_6.1.2\lvgl\src\lv_objx/lv_cpicker.c ****     }
 872              		.loc 1 521 0
 873 0148 0020     		movs	r0, #0
 874              	.LVL114:
 541:..\..\..\lvgl\version_6.1.2\lvgl\src\lv_objx/lv_cpicker.c **** 
 875              		.loc 1 541 0
 876 014a 7047     		bx	lr
 877              	.LVL115:
 878              	.L125:
 879              		.cfi_def_cfa_offset 176
 880              		.cfi_offset 4, -36
 881              		.cfi_offset 5, -32
 882              		.cfi_offset 6, -28
 883              		.cfi_offset 7, -24
 884              		.cfi_offset 8, -20
 885              		.cfi_offset 9, -16
 886              		.cfi_offset 10, -12
 887              		.cfi_offset 11, -8
 888              		.cfi_offset 14, -4
 889              	.LBB264:
 890              	.LBB262:
 891              	.LBB236:
 892              	.LBB199:
 545:..\..\..\lvgl\version_6.1.2\lvgl\src\lv_objx/lv_cpicker.c ****     int16_t start_angle = 0; /*Default*/
 893              		.loc 1 545 0
ARM GAS  C:\Users\pearlstl\AppData\Local\Temp\ccadfCp2.s 			page 38


 894 014c FFF7FEFF 		bl	lv_obj_get_ext_attr
 895              	.LVL116:
 896 0150 0790     		str	r0, [sp, #28]
 897              	.LVL117:
 549:..\..\..\lvgl\version_6.1.2\lvgl\src\lv_objx/lv_cpicker.c ****     lv_coord_t h = lv_obj_get_height(cpicker);
 898              		.loc 1 549 0
 899 0152 2046     		mov	r0, r4
 900              	.LVL118:
 901 0154 FFF7FEFF 		bl	lv_obj_get_width
 902              	.LVL119:
 903 0158 8146     		mov	r9, r0
 904              	.LVL120:
 550:..\..\..\lvgl\version_6.1.2\lvgl\src\lv_objx/lv_cpicker.c ****     lv_coord_t cx = cpicker->coords.x1 + w / 2;
 905              		.loc 1 550 0
 906 015a 2046     		mov	r0, r4
 907 015c FFF7FEFF 		bl	lv_obj_get_height
 908              	.LVL121:
 551:..\..\..\lvgl\version_6.1.2\lvgl\src\lv_objx/lv_cpicker.c ****     lv_coord_t cy = cpicker->coords.y1 + h / 2;
 909              		.loc 1 551 0
 910 0160 09EBD979 		add	r9, r9, r9, lsr #31
 911              	.LVL122:
 552:..\..\..\lvgl\version_6.1.2\lvgl\src\lv_objx/lv_cpicker.c ****     lv_coord_t r = w / 2;
 912              		.loc 1 552 0
 913 0164 628A     		ldrh	r2, [r4, #18]
 551:..\..\..\lvgl\version_6.1.2\lvgl\src\lv_objx/lv_cpicker.c ****     lv_coord_t cy = cpicker->coords.y1 + h / 2;
 914              		.loc 1 551 0
 915 0166 238A     		ldrh	r3, [r4, #16]
 552:..\..\..\lvgl\version_6.1.2\lvgl\src\lv_objx/lv_cpicker.c ****     lv_coord_t r = w / 2;
 916              		.loc 1 552 0
 917 0168 00EBD070 		add	r0, r0, r0, lsr #31
 918              	.LVL123:
 551:..\..\..\lvgl\version_6.1.2\lvgl\src\lv_objx/lv_cpicker.c ****     lv_coord_t cy = cpicker->coords.y1 + h / 2;
 919              		.loc 1 551 0
 920 016c 49F34F09 		sbfx	r9, r9, #1, #16
 552:..\..\..\lvgl\version_6.1.2\lvgl\src\lv_objx/lv_cpicker.c ****     lv_coord_t r = w / 2;
 921              		.loc 1 552 0
 922 0170 02EB6002 		add	r2, r2, r0, asr #1
 551:..\..\..\lvgl\version_6.1.2\lvgl\src\lv_objx/lv_cpicker.c ****     lv_coord_t cy = cpicker->coords.y1 + h / 2;
 923              		.loc 1 551 0
 924 0174 4B44     		add	r3, r3, r9
 552:..\..\..\lvgl\version_6.1.2\lvgl\src\lv_objx/lv_cpicker.c ****     lv_coord_t r = w / 2;
 925              		.loc 1 552 0
 926 0176 92B2     		uxth	r2, r2
 551:..\..\..\lvgl\version_6.1.2\lvgl\src\lv_objx/lv_cpicker.c ****     lv_coord_t cy = cpicker->coords.y1 + h / 2;
 927              		.loc 1 551 0
 928 0178 9BB2     		uxth	r3, r3
 552:..\..\..\lvgl\version_6.1.2\lvgl\src\lv_objx/lv_cpicker.c ****     lv_coord_t r = w / 2;
 929              		.loc 1 552 0
 930 017a 0592     		str	r2, [sp, #20]
 551:..\..\..\lvgl\version_6.1.2\lvgl\src\lv_objx/lv_cpicker.c ****     lv_coord_t cy = cpicker->coords.y1 + h / 2;
 931              		.loc 1 551 0
 932 017c 0393     		str	r3, [sp, #12]
 552:..\..\..\lvgl\version_6.1.2\lvgl\src\lv_objx/lv_cpicker.c ****     lv_coord_t r = w / 2;
 933              		.loc 1 552 0
 934 017e 12B2     		sxth	r2, r2
 551:..\..\..\lvgl\version_6.1.2\lvgl\src\lv_objx/lv_cpicker.c ****     lv_coord_t cy = cpicker->coords.y1 + h / 2;
 935              		.loc 1 551 0
ARM GAS  C:\Users\pearlstl\AppData\Local\Temp\ccadfCp2.s 			page 39


 936 0180 1BB2     		sxth	r3, r3
 560:..\..\..\lvgl\version_6.1.2\lvgl\src\lv_objx/lv_cpicker.c ****     {
 937              		.loc 1 560 0
 938 0182 08A9     		add	r1, sp, #32
 939 0184 5846     		mov	r0, fp
 552:..\..\..\lvgl\version_6.1.2\lvgl\src\lv_objx/lv_cpicker.c ****     lv_coord_t r = w / 2;
 940              		.loc 1 552 0
 941 0186 0292     		str	r2, [sp, #8]
 551:..\..\..\lvgl\version_6.1.2\lvgl\src\lv_objx/lv_cpicker.c ****     lv_coord_t cy = cpicker->coords.y1 + h / 2;
 942              		.loc 1 551 0
 943 0188 0693     		str	r3, [sp, #24]
 944              	.LVL124:
 559:..\..\..\lvgl\version_6.1.2\lvgl\src\lv_objx/lv_cpicker.c ****     if(!lv_area_is_point_on(mask, &center))
 945              		.loc 1 559 0
 946 018a ADF82220 		strh	r2, [sp, #34]	@ movhi
 947 018e ADF82030 		strh	r3, [sp, #32]	@ movhi
 560:..\..\..\lvgl\version_6.1.2\lvgl\src\lv_objx/lv_cpicker.c ****     {
 948              		.loc 1 560 0
 949 0192 FFF7FEFF 		bl	lv_area_is_point_on
 950              	.LVL125:
 951 0196 0646     		mov	r6, r0
 952              	.LVL126:
 953 0198 0028     		cmp	r0, #0
 954 019a 00F0EA81 		beq	.L127
 624:..\..\..\lvgl\version_6.1.2\lvgl\src\lv_objx/lv_cpicker.c ****     uint16_t i;
 955              		.loc 1 624 0
 956 019e 0EAE     		add	r6, sp, #56
 957 01a0 3046     		mov	r0, r6
 958 01a2 B549     		ldr	r1, .L133
 959 01a4 FFF7FEFF 		bl	lv_style_copy
 960              	.LVL127:
 626:..\..\..\lvgl\version_6.1.2\lvgl\src\lv_objx/lv_cpicker.c ****         style.body.main_color = angle_to_mode_color(cpicker, i);
 961              		.loc 1 626 0
 962 01a8 40F26513 		movw	r3, #357
 963 01ac A846     		mov	r8, r5
 964 01ae 1F46     		mov	r7, r3
 965              	.LVL128:
 966              	.L51:
 967 01b0 0BAB     		add	r3, sp, #44
 968              	.LBB178:
 969              	.LBB179:
1039:..\..\..\lvgl\version_6.1.2\lvgl\src\lv_objx/lv_cpicker.c ****         break;
 970              		.loc 1 1039 0
 971 01b2 DDF80CA0 		ldr	r10, [sp, #12]
 972 01b6 CDF810B0 		str	fp, [sp, #16]
 973 01ba 0093     		str	r3, [sp]
 974 01bc DDF814B0 		ldr	fp, [sp, #20]
 975              	.LVL129:
 976 01c0 0396     		str	r6, [sp, #12]
 977 01c2 0594     		str	r4, [sp, #20]
 978              	.LVL130:
 979 01c4 21E0     		b	.L61
 980              	.LVL131:
 981              	.L59:
 982              	.LBE179:
 983              	.LBE178:
 641:..\..\..\lvgl\version_6.1.2\lvgl\src\lv_objx/lv_cpicker.c ****             triangle_points[2].y = cy + (r * lv_trigo_sin(i + LV_CPICKER_DEF_QF + TRI_OFFSET + 90) 
ARM GAS  C:\Users\pearlstl\AppData\Local\Temp\ccadfCp2.s 			page 40


 984              		.loc 1 641 0
 985 01c6 08B2     		sxth	r0, r1
 986 01c8 FFF7FEFF 		bl	lv_trigo_sin
 987              	.LVL132:
 988 01cc 00FB09F3 		mul	r3, r0, r9
 642:..\..\..\lvgl\version_6.1.2\lvgl\src\lv_objx/lv_cpicker.c ****         }
 989              		.loc 1 642 0
 990 01d0 08F15F00 		add	r0, r8, #95
 641:..\..\..\lvgl\version_6.1.2\lvgl\src\lv_objx/lv_cpicker.c ****             triangle_points[2].y = cy + (r * lv_trigo_sin(i + LV_CPICKER_DEF_QF + TRI_OFFSET + 90) 
 991              		.loc 1 641 0
 992 01d4 0AEBE333 		add	r3, r10, r3, asr #15
 642:..\..\..\lvgl\version_6.1.2\lvgl\src\lv_objx/lv_cpicker.c ****         }
 993              		.loc 1 642 0
 994 01d8 00B2     		sxth	r0, r0
 641:..\..\..\lvgl\version_6.1.2\lvgl\src\lv_objx/lv_cpicker.c ****             triangle_points[2].y = cy + (r * lv_trigo_sin(i + LV_CPICKER_DEF_QF + TRI_OFFSET + 90) 
 995              		.loc 1 641 0
 996 01da ADF83430 		strh	r3, [sp, #52]	@ movhi
 642:..\..\..\lvgl\version_6.1.2\lvgl\src\lv_objx/lv_cpicker.c ****         }
 997              		.loc 1 642 0
 998 01de FFF7FEFF 		bl	lv_trigo_sin
 999              	.LVL133:
 1000 01e2 00FB09F0 		mul	r0, r0, r9
 1001 01e6 0BEBE030 		add	r0, fp, r0, asr #15
 1002 01ea 08F10306 		add	r6, r8, #3
 1003 01ee ADF83600 		strh	r0, [sp, #54]	@ movhi
 1004 01f2 B5B2     		uxth	r5, r6
 1005              	.L60:
 645:..\..\..\lvgl\version_6.1.2\lvgl\src\lv_objx/lv_cpicker.c ****     }
 1006              		.loc 1 645 0
 1007 01f4 FF23     		movs	r3, #255
 1008 01f6 039A     		ldr	r2, [sp, #12]
 1009 01f8 0499     		ldr	r1, [sp, #16]
 1010 01fa 0098     		ldr	r0, [sp]
 1011 01fc FFF7FEFF 		bl	lv_draw_triangle
 1012              	.LVL134:
 626:..\..\..\lvgl\version_6.1.2\lvgl\src\lv_objx/lv_cpicker.c ****         style.body.main_color = angle_to_mode_color(cpicker, i);
 1013              		.loc 1 626 0
 1014 0200 BD42     		cmp	r5, r7
 1015 0202 1FFA86F8 		uxth	r8, r6
 1016 0206 00F38880 		bgt	.L128
 1017              	.LVL135:
 1018              	.L61:
 1019              	.LBB182:
 1020              	.LBB180:
1030:..\..\..\lvgl\version_6.1.2\lvgl\src\lv_objx/lv_cpicker.c ****     lv_color_t color;
 1021              		.loc 1 1030 0
 1022 020a 0598     		ldr	r0, [sp, #20]
 1023 020c FFF7FEFF 		bl	lv_obj_get_ext_attr
 1024              	.LVL136:
1039:..\..\..\lvgl\version_6.1.2\lvgl\src\lv_objx/lv_cpicker.c ****         break;
 1025              		.loc 1 1039 0
 1026 0210 9A4A     		ldr	r2, .L133+4
1032:..\..\..\lvgl\version_6.1.2\lvgl\src\lv_objx/lv_cpicker.c ****     {
 1027              		.loc 1 1032 0
 1028 0212 017F     		ldrb	r1, [r0, #28]	@ zero_extendqisi2
1039:..\..\..\lvgl\version_6.1.2\lvgl\src\lv_objx/lv_cpicker.c ****         break;
 1029              		.loc 1 1039 0
ARM GAS  C:\Users\pearlstl\AppData\Local\Temp\ccadfCp2.s 			page 41


 1030 0214 4FEAD803 		lsr	r3, r8, #3
 1031 0218 A2FB0323 		umull	r2, r3, r2, r3
1032:..\..\..\lvgl\version_6.1.2\lvgl\src\lv_objx/lv_cpicker.c ****     {
 1032              		.loc 1 1032 0
 1033 021c 01F00301 		and	r1, r1, #3
1039:..\..\..\lvgl\version_6.1.2\lvgl\src\lv_objx/lv_cpicker.c ****         break;
 1034              		.loc 1 1039 0
 1035 0220 9B08     		lsrs	r3, r3, #2
 1036 0222 4FF4B472 		mov	r2, #360
1032:..\..\..\lvgl\version_6.1.2\lvgl\src\lv_objx/lv_cpicker.c ****     {
 1037              		.loc 1 1032 0
 1038 0226 0129     		cmp	r1, #1
1030:..\..\..\lvgl\version_6.1.2\lvgl\src\lv_objx/lv_cpicker.c ****     lv_color_t color;
 1039              		.loc 1 1030 0
 1040 0228 0446     		mov	r4, r0
 1041              	.LVL137:
1039:..\..\..\lvgl\version_6.1.2\lvgl\src\lv_objx/lv_cpicker.c ****         break;
 1042              		.loc 1 1039 0
 1043 022a 02FB1383 		mls	r3, r2, r3, r8
1032:..\..\..\lvgl\version_6.1.2\lvgl\src\lv_objx/lv_cpicker.c ****     {
 1044              		.loc 1 1032 0
 1045 022e 63D0     		beq	.L55
1036:..\..\..\lvgl\version_6.1.2\lvgl\src\lv_objx/lv_cpicker.c ****         break;
 1046              		.loc 1 1036 0
 1047 0230 924A     		ldr	r2, .L133+4
 1048 0232 4FEAD800 		lsr	r0, r8, #3
 1049              	.LVL138:
 1050 0236 A2FB0020 		umull	r2, r0, r2, r0
1042:..\..\..\lvgl\version_6.1.2\lvgl\src\lv_objx/lv_cpicker.c ****         break;
 1051              		.loc 1 1042 0
 1052 023a 9BB2     		uxth	r3, r3
 1053 023c 6422     		movs	r2, #100
 1054 023e 02FB03F3 		mul	r3, r2, r3
1036:..\..\..\lvgl\version_6.1.2\lvgl\src\lv_objx/lv_cpicker.c ****         break;
 1055              		.loc 1 1036 0
 1056 0242 8008     		lsrs	r0, r0, #2
 1057 0244 4FF4B472 		mov	r2, #360
 1058 0248 02FB1080 		mls	r0, r2, r0, r8
1042:..\..\..\lvgl\version_6.1.2\lvgl\src\lv_objx/lv_cpicker.c ****         break;
 1059              		.loc 1 1042 0
 1060 024c 8C4A     		ldr	r2, .L133+8
1032:..\..\..\lvgl\version_6.1.2\lvgl\src\lv_objx/lv_cpicker.c ****     {
 1061              		.loc 1 1032 0
 1062 024e 0229     		cmp	r1, #2
1042:..\..\..\lvgl\version_6.1.2\lvgl\src\lv_objx/lv_cpicker.c ****         break;
 1063              		.loc 1 1042 0
 1064 0250 82FB0362 		smull	r6, r2, r2, r3
 1065 0254 1A44     		add	r2, r2, r3
1036:..\..\..\lvgl\version_6.1.2\lvgl\src\lv_objx/lv_cpicker.c ****         break;
 1066              		.loc 1 1036 0
 1067 0256 80B2     		uxth	r0, r0
1042:..\..\..\lvgl\version_6.1.2\lvgl\src\lv_objx/lv_cpicker.c ****         break;
 1068              		.loc 1 1042 0
 1069 0258 4FEAE373 		asr	r3, r3, #31
1032:..\..\..\lvgl\version_6.1.2\lvgl\src\lv_objx/lv_cpicker.c ****     {
 1070              		.loc 1 1032 0
 1071 025c 44D0     		beq	.L56
ARM GAS  C:\Users\pearlstl\AppData\Local\Temp\ccadfCp2.s 			page 42


1036:..\..\..\lvgl\version_6.1.2\lvgl\src\lv_objx/lv_cpicker.c ****         break;
 1072              		.loc 1 1036 0
 1073 025e E278     		ldrb	r2, [r4, #3]	@ zero_extendqisi2
 1074 0260 A178     		ldrb	r1, [r4, #2]	@ zero_extendqisi2
 1075 0262 FFF7FEFF 		bl	lv_color_hsv_to_rgb
 1076              	.LVL139:
 1077              	.L57:
 1078              	.LBE180:
 1079              	.LBE182:
 630:..\..\..\lvgl\version_6.1.2\lvgl\src\lv_objx/lv_cpicker.c ****         triangle_points[0].y = cy;
 1080              		.loc 1 630 0
 1081 0266 BDF81830 		ldrh	r3, [sp, #24]
 1082              	.LVL140:
 627:..\..\..\lvgl\version_6.1.2\lvgl\src\lv_objx/lv_cpicker.c ****         style.body.grad_color = style.body.main_color;
 1083              		.loc 1 627 0
 1084 026a 0F90     		str	r0, [sp, #60]
 628:..\..\..\lvgl\version_6.1.2\lvgl\src\lv_objx/lv_cpicker.c **** 
 1085              		.loc 1 628 0
 1086 026c 1090     		str	r0, [sp, #64]
 630:..\..\..\lvgl\version_6.1.2\lvgl\src\lv_objx/lv_cpicker.c ****         triangle_points[0].y = cy;
 1087              		.loc 1 630 0
 1088 026e ADF82C30 		strh	r3, [sp, #44]	@ movhi
 633:..\..\..\lvgl\version_6.1.2\lvgl\src\lv_objx/lv_cpicker.c ****         triangle_points[1].y = cy + (r * lv_trigo_sin(i + 90) >> LV_TRIGO_SHIFT);
 1089              		.loc 1 633 0
 1090 0272 0FFA88F0 		sxth	r0, r8
 1091              	.LVL141:
 631:..\..\..\lvgl\version_6.1.2\lvgl\src\lv_objx/lv_cpicker.c **** 
 1092              		.loc 1 631 0
 1093 0276 BDF80830 		ldrh	r3, [sp, #8]
 1094 027a ADF82E30 		strh	r3, [sp, #46]	@ movhi
 633:..\..\..\lvgl\version_6.1.2\lvgl\src\lv_objx/lv_cpicker.c ****         triangle_points[1].y = cy + (r * lv_trigo_sin(i + 90) >> LV_TRIGO_SHIFT);
 1095              		.loc 1 633 0
 1096 027e FFF7FEFF 		bl	lv_trigo_sin
 1097              	.LVL142:
 1098 0282 00FB09F0 		mul	r0, r0, r9
 1099 0286 0AEBE030 		add	r0, r10, r0, asr #15
 1100 028a ADF83000 		strh	r0, [sp, #48]	@ movhi
 634:..\..\..\lvgl\version_6.1.2\lvgl\src\lv_objx/lv_cpicker.c **** 
 1101              		.loc 1 634 0
 1102 028e 08F15A00 		add	r0, r8, #90
 1103 0292 00B2     		sxth	r0, r0
 1104 0294 FFF7FEFF 		bl	lv_trigo_sin
 1105              	.LVL143:
 638:..\..\..\lvgl\version_6.1.2\lvgl\src\lv_objx/lv_cpicker.c ****             triangle_points[2].y = cy + (r * lv_trigo_sin(i + LV_CPICKER_DEF_QF + 90) >> LV_TRIGO_S
 1106              		.loc 1 638 0
 1107 0298 08F10306 		add	r6, r8, #3
 634:..\..\..\lvgl\version_6.1.2\lvgl\src\lv_objx/lv_cpicker.c **** 
 1108              		.loc 1 634 0
 1109 029c 00FB09F3 		mul	r3, r0, r9
 638:..\..\..\lvgl\version_6.1.2\lvgl\src\lv_objx/lv_cpicker.c ****             triangle_points[2].y = cy + (r * lv_trigo_sin(i + LV_CPICKER_DEF_QF + 90) >> LV_TRIGO_S
 1110              		.loc 1 638 0
 1111 02a0 B4B2     		uxth	r4, r6
 634:..\..\..\lvgl\version_6.1.2\lvgl\src\lv_objx/lv_cpicker.c **** 
 1112              		.loc 1 634 0
 1113 02a2 0BEBE333 		add	r3, fp, r3, asr #15
 636:..\..\..\lvgl\version_6.1.2\lvgl\src\lv_objx/lv_cpicker.c ****             /*the last triangle is drawn without additional overlapping pixels*/
 1114              		.loc 1 636 0
ARM GAS  C:\Users\pearlstl\AppData\Local\Temp\ccadfCp2.s 			page 43


 1115 02a6 AF42     		cmp	r7, r5
 641:..\..\..\lvgl\version_6.1.2\lvgl\src\lv_objx/lv_cpicker.c ****             triangle_points[2].y = cy + (r * lv_trigo_sin(i + LV_CPICKER_DEF_QF + TRI_OFFSET + 90) 
 1116              		.loc 1 641 0
 1117 02a8 08F10501 		add	r1, r8, #5
 638:..\..\..\lvgl\version_6.1.2\lvgl\src\lv_objx/lv_cpicker.c ****             triangle_points[2].y = cy + (r * lv_trigo_sin(i + LV_CPICKER_DEF_QF + 90) >> LV_TRIGO_S
 1118              		.loc 1 638 0
 1119 02ac 20B2     		sxth	r0, r4
 636:..\..\..\lvgl\version_6.1.2\lvgl\src\lv_objx/lv_cpicker.c ****             /*the last triangle is drawn without additional overlapping pixels*/
 1120              		.loc 1 636 0
 1121 02ae 40F26512 		movw	r2, #357
 634:..\..\..\lvgl\version_6.1.2\lvgl\src\lv_objx/lv_cpicker.c **** 
 1122              		.loc 1 634 0
 1123 02b2 ADF83230 		strh	r3, [sp, #50]	@ movhi
 636:..\..\..\lvgl\version_6.1.2\lvgl\src\lv_objx/lv_cpicker.c ****             /*the last triangle is drawn without additional overlapping pixels*/
 1124              		.loc 1 636 0
 1125 02b6 01D0     		beq	.L58
 1126 02b8 9045     		cmp	r8, r2
 1127 02ba 84D1     		bne	.L59
 1128              	.L58:
 638:..\..\..\lvgl\version_6.1.2\lvgl\src\lv_objx/lv_cpicker.c ****             triangle_points[2].y = cy + (r * lv_trigo_sin(i + LV_CPICKER_DEF_QF + 90) >> LV_TRIGO_S
 1129              		.loc 1 638 0
 1130 02bc FFF7FEFF 		bl	lv_trigo_sin
 1131              	.LVL144:
 639:..\..\..\lvgl\version_6.1.2\lvgl\src\lv_objx/lv_cpicker.c ****         } else {
 1132              		.loc 1 639 0
 1133 02c0 08F15D08 		add	r8, r8, #93
 638:..\..\..\lvgl\version_6.1.2\lvgl\src\lv_objx/lv_cpicker.c ****             triangle_points[2].y = cy + (r * lv_trigo_sin(i + LV_CPICKER_DEF_QF + 90) >> LV_TRIGO_S
 1134              		.loc 1 638 0
 1135 02c4 00FB09F0 		mul	r0, r0, r9
 1136 02c8 0AEBE033 		add	r3, r10, r0, asr #15
 639:..\..\..\lvgl\version_6.1.2\lvgl\src\lv_objx/lv_cpicker.c ****         } else {
 1137              		.loc 1 639 0
 1138 02cc 0FFA88F0 		sxth	r0, r8
 638:..\..\..\lvgl\version_6.1.2\lvgl\src\lv_objx/lv_cpicker.c ****             triangle_points[2].y = cy + (r * lv_trigo_sin(i + LV_CPICKER_DEF_QF + 90) >> LV_TRIGO_S
 1139              		.loc 1 638 0
 1140 02d0 ADF83430 		strh	r3, [sp, #52]	@ movhi
 639:..\..\..\lvgl\version_6.1.2\lvgl\src\lv_objx/lv_cpicker.c ****         } else {
 1141              		.loc 1 639 0
 1142 02d4 FFF7FEFF 		bl	lv_trigo_sin
 1143              	.LVL145:
 1144 02d8 00FB09F0 		mul	r0, r0, r9
 1145 02dc 0BEBE030 		add	r0, fp, r0, asr #15
 1146 02e0 ADF83600 		strh	r0, [sp, #54]	@ movhi
 1147 02e4 2546     		mov	r5, r4
 1148 02e6 85E7     		b	.L60
 1149              	.LVL146:
 1150              	.L56:
 1151              	.LBB183:
 1152              	.LBB181:
1042:..\..\..\lvgl\version_6.1.2\lvgl\src\lv_objx/lv_cpicker.c ****         break;
 1153              		.loc 1 1042 0
 1154 02e8 C3EB2222 		rsb	r2, r3, r2, asr #8
 1155 02ec D2B2     		uxtb	r2, r2
 1156 02ee A178     		ldrb	r1, [r4, #2]	@ zero_extendqisi2
 1157 02f0 2088     		ldrh	r0, [r4]
 1158 02f2 FFF7FEFF 		bl	lv_color_hsv_to_rgb
 1159              	.LVL147:
ARM GAS  C:\Users\pearlstl\AppData\Local\Temp\ccadfCp2.s 			page 44


 1160 02f6 B6E7     		b	.L57
 1161              	.LVL148:
 1162              	.L55:
1039:..\..\..\lvgl\version_6.1.2\lvgl\src\lv_objx/lv_cpicker.c ****         break;
 1163              		.loc 1 1039 0
 1164 02f8 99B2     		uxth	r1, r3
 1165 02fa 614A     		ldr	r2, .L133+8
 1166 02fc 6423     		movs	r3, #100
 1167 02fe 03FB01F3 		mul	r3, r3, r1
 1168 0302 82FB0321 		smull	r2, r1, r2, r3
 1169 0306 1944     		add	r1, r1, r3
 1170 0308 DB17     		asrs	r3, r3, #31
 1171 030a C3EB2121 		rsb	r1, r3, r1, asr #8
 1172 030e C278     		ldrb	r2, [r0, #3]	@ zero_extendqisi2
 1173 0310 0088     		ldrh	r0, [r0]
 1174              	.LVL149:
 1175 0312 C9B2     		uxtb	r1, r1
 1176 0314 FFF7FEFF 		bl	lv_color_hsv_to_rgb
 1177              	.LVL150:
 1178 0318 A5E7     		b	.L57
 1179              	.LVL151:
 1180              	.L128:
 1181 031a 039E     		ldr	r6, [sp, #12]
 1182              	.LVL152:
 1183 031c DDF810B0 		ldr	fp, [sp, #16]
 1184 0320 059C     		ldr	r4, [sp, #20]
 1185              	.LVL153:
 1186              	.L62:
 1187              	.LBE181:
 1188              	.LBE183:
 1189              	.LBB184:
 1190              	.LBB185:
 384:..\..\..\lvgl\version_6.1.2\lvgl\src\lv_objx/lv_cpicker.c **** 
 1191              		.loc 1 384 0
 1192 0322 2046     		mov	r0, r4
 1193 0324 FFF7FEFF 		bl	lv_obj_get_ext_attr
 1194              	.LVL154:
 388:..\..\..\lvgl\version_6.1.2\lvgl\src\lv_objx/lv_cpicker.c ****     case LV_CPICKER_STYLE_INDICATOR:
 1195              		.loc 1 388 0
 1196 0328 2046     		mov	r0, r4
 1197 032a FFF7FEFF 		bl	lv_obj_get_style
 1198              	.LVL155:
 1199              	.LBE185:
 1200              	.LBE184:
 650:..\..\..\lvgl\version_6.1.2\lvgl\src\lv_objx/lv_cpicker.c ****     style.body.radius = LV_RADIUS_CIRCLE;
 1201              		.loc 1 650 0
 1202 032e 0146     		mov	r1, r0
 1203              	.LBB187:
 1204              	.LBB186:
 388:..\..\..\lvgl\version_6.1.2\lvgl\src\lv_objx/lv_cpicker.c ****     case LV_CPICKER_STYLE_INDICATOR:
 1205              		.loc 1 388 0
 1206 0330 0546     		mov	r5, r0
 1207              	.LVL156:
 1208              	.LBE186:
 1209              	.LBE187:
 650:..\..\..\lvgl\version_6.1.2\lvgl\src\lv_objx/lv_cpicker.c ****     style.body.radius = LV_RADIUS_CIRCLE;
 1210              		.loc 1 650 0
ARM GAS  C:\Users\pearlstl\AppData\Local\Temp\ccadfCp2.s 			page 45


 1211 0332 3046     		mov	r0, r6
 1212 0334 FFF7FEFF 		bl	lv_style_copy
 1213              	.LVL157:
 1214              	.LBB188:
 1215              	.LBB189:
 1216              		.file 2 "..\\..\\..\\lvgl\\version_6.1.2\\lvgl\\src\\lv_objx\\../lv_core/../lv_misc/lv_area.h"
   1:..\..\..\lvgl\version_6.1.2\lvgl\src\lv_objx\../lv_core/../lv_misc/lv_area.h **** /**
   2:..\..\..\lvgl\version_6.1.2\lvgl\src\lv_objx\../lv_core/../lv_misc/lv_area.h ****  * @file lv_area.h
   3:..\..\..\lvgl\version_6.1.2\lvgl\src\lv_objx\../lv_core/../lv_misc/lv_area.h ****  *
   4:..\..\..\lvgl\version_6.1.2\lvgl\src\lv_objx\../lv_core/../lv_misc/lv_area.h ****  */
   5:..\..\..\lvgl\version_6.1.2\lvgl\src\lv_objx\../lv_core/../lv_misc/lv_area.h **** 
   6:..\..\..\lvgl\version_6.1.2\lvgl\src\lv_objx\../lv_core/../lv_misc/lv_area.h **** #ifndef LV_AREA_H
   7:..\..\..\lvgl\version_6.1.2\lvgl\src\lv_objx\../lv_core/../lv_misc/lv_area.h **** #define LV_AREA_H
   8:..\..\..\lvgl\version_6.1.2\lvgl\src\lv_objx\../lv_core/../lv_misc/lv_area.h **** 
   9:..\..\..\lvgl\version_6.1.2\lvgl\src\lv_objx\../lv_core/../lv_misc/lv_area.h **** #ifdef __cplusplus
  10:..\..\..\lvgl\version_6.1.2\lvgl\src\lv_objx\../lv_core/../lv_misc/lv_area.h **** extern "C" {
  11:..\..\..\lvgl\version_6.1.2\lvgl\src\lv_objx\../lv_core/../lv_misc/lv_area.h **** #endif
  12:..\..\..\lvgl\version_6.1.2\lvgl\src\lv_objx\../lv_core/../lv_misc/lv_area.h **** 
  13:..\..\..\lvgl\version_6.1.2\lvgl\src\lv_objx\../lv_core/../lv_misc/lv_area.h **** /*********************
  14:..\..\..\lvgl\version_6.1.2\lvgl\src\lv_objx\../lv_core/../lv_misc/lv_area.h ****  *      INCLUDES
  15:..\..\..\lvgl\version_6.1.2\lvgl\src\lv_objx\../lv_core/../lv_misc/lv_area.h ****  *********************/
  16:..\..\..\lvgl\version_6.1.2\lvgl\src\lv_objx\../lv_core/../lv_misc/lv_area.h **** #include <string.h>
  17:..\..\..\lvgl\version_6.1.2\lvgl\src\lv_objx\../lv_core/../lv_misc/lv_area.h **** #include <stdbool.h>
  18:..\..\..\lvgl\version_6.1.2\lvgl\src\lv_objx\../lv_core/../lv_misc/lv_area.h **** #include <stdint.h>
  19:..\..\..\lvgl\version_6.1.2\lvgl\src\lv_objx\../lv_core/../lv_misc/lv_area.h **** #ifdef LV_CONF_INCLUDE_SIMPLE
  20:..\..\..\lvgl\version_6.1.2\lvgl\src\lv_objx\../lv_core/../lv_misc/lv_area.h **** #include "lv_conf.h"
  21:..\..\..\lvgl\version_6.1.2\lvgl\src\lv_objx\../lv_core/../lv_misc/lv_area.h **** #else
  22:..\..\..\lvgl\version_6.1.2\lvgl\src\lv_objx\../lv_core/../lv_misc/lv_area.h **** #include "../../../lv_conf.h"
  23:..\..\..\lvgl\version_6.1.2\lvgl\src\lv_objx\../lv_core/../lv_misc/lv_area.h **** #endif
  24:..\..\..\lvgl\version_6.1.2\lvgl\src\lv_objx\../lv_core/../lv_misc/lv_area.h **** 
  25:..\..\..\lvgl\version_6.1.2\lvgl\src\lv_objx\../lv_core/../lv_misc/lv_area.h **** /*********************
  26:..\..\..\lvgl\version_6.1.2\lvgl\src\lv_objx\../lv_core/../lv_misc/lv_area.h ****  *      DEFINES
  27:..\..\..\lvgl\version_6.1.2\lvgl\src\lv_objx\../lv_core/../lv_misc/lv_area.h ****  *********************/
  28:..\..\..\lvgl\version_6.1.2\lvgl\src\lv_objx\../lv_core/../lv_misc/lv_area.h **** /*To avoid overflow don't let the max ranges (reduce with 1000) */
  29:..\..\..\lvgl\version_6.1.2\lvgl\src\lv_objx\../lv_core/../lv_misc/lv_area.h **** #define LV_COORD_MAX ((lv_coord_t)((uint32_t)((uint32_t)1 << (8 * sizeof(lv_coord_t) - 1)) - 1000))
  30:..\..\..\lvgl\version_6.1.2\lvgl\src\lv_objx\../lv_core/../lv_misc/lv_area.h **** #define LV_COORD_MIN (-LV_COORD_MAX)
  31:..\..\..\lvgl\version_6.1.2\lvgl\src\lv_objx\../lv_core/../lv_misc/lv_area.h **** 
  32:..\..\..\lvgl\version_6.1.2\lvgl\src\lv_objx\../lv_core/../lv_misc/lv_area.h **** LV_EXPORT_CONST_INT(LV_COORD_MAX);
  33:..\..\..\lvgl\version_6.1.2\lvgl\src\lv_objx\../lv_core/../lv_misc/lv_area.h **** LV_EXPORT_CONST_INT(LV_COORD_MIN);
  34:..\..\..\lvgl\version_6.1.2\lvgl\src\lv_objx\../lv_core/../lv_misc/lv_area.h **** 
  35:..\..\..\lvgl\version_6.1.2\lvgl\src\lv_objx\../lv_core/../lv_misc/lv_area.h **** /**********************
  36:..\..\..\lvgl\version_6.1.2\lvgl\src\lv_objx\../lv_core/../lv_misc/lv_area.h ****  *      TYPEDEFS
  37:..\..\..\lvgl\version_6.1.2\lvgl\src\lv_objx\../lv_core/../lv_misc/lv_area.h ****  **********************/
  38:..\..\..\lvgl\version_6.1.2\lvgl\src\lv_objx\../lv_core/../lv_misc/lv_area.h **** 
  39:..\..\..\lvgl\version_6.1.2\lvgl\src\lv_objx\../lv_core/../lv_misc/lv_area.h **** /**
  40:..\..\..\lvgl\version_6.1.2\lvgl\src\lv_objx\../lv_core/../lv_misc/lv_area.h ****  * Represents a point on the screen.
  41:..\..\..\lvgl\version_6.1.2\lvgl\src\lv_objx\../lv_core/../lv_misc/lv_area.h ****  */
  42:..\..\..\lvgl\version_6.1.2\lvgl\src\lv_objx\../lv_core/../lv_misc/lv_area.h **** typedef struct
  43:..\..\..\lvgl\version_6.1.2\lvgl\src\lv_objx\../lv_core/../lv_misc/lv_area.h **** {
  44:..\..\..\lvgl\version_6.1.2\lvgl\src\lv_objx\../lv_core/../lv_misc/lv_area.h ****     lv_coord_t x;
  45:..\..\..\lvgl\version_6.1.2\lvgl\src\lv_objx\../lv_core/../lv_misc/lv_area.h ****     lv_coord_t y;
  46:..\..\..\lvgl\version_6.1.2\lvgl\src\lv_objx\../lv_core/../lv_misc/lv_area.h **** } lv_point_t;
  47:..\..\..\lvgl\version_6.1.2\lvgl\src\lv_objx\../lv_core/../lv_misc/lv_area.h **** 
  48:..\..\..\lvgl\version_6.1.2\lvgl\src\lv_objx\../lv_core/../lv_misc/lv_area.h **** /** Represents an area of the screen. */
  49:..\..\..\lvgl\version_6.1.2\lvgl\src\lv_objx\../lv_core/../lv_misc/lv_area.h **** typedef struct
  50:..\..\..\lvgl\version_6.1.2\lvgl\src\lv_objx\../lv_core/../lv_misc/lv_area.h **** {
  51:..\..\..\lvgl\version_6.1.2\lvgl\src\lv_objx\../lv_core/../lv_misc/lv_area.h ****     lv_coord_t x1;
ARM GAS  C:\Users\pearlstl\AppData\Local\Temp\ccadfCp2.s 			page 46


  52:..\..\..\lvgl\version_6.1.2\lvgl\src\lv_objx\../lv_core/../lv_misc/lv_area.h ****     lv_coord_t y1;
  53:..\..\..\lvgl\version_6.1.2\lvgl\src\lv_objx\../lv_core/../lv_misc/lv_area.h ****     lv_coord_t x2;
  54:..\..\..\lvgl\version_6.1.2\lvgl\src\lv_objx\../lv_core/../lv_misc/lv_area.h ****     lv_coord_t y2;
  55:..\..\..\lvgl\version_6.1.2\lvgl\src\lv_objx\../lv_core/../lv_misc/lv_area.h **** } lv_area_t;
  56:..\..\..\lvgl\version_6.1.2\lvgl\src\lv_objx\../lv_core/../lv_misc/lv_area.h **** 
  57:..\..\..\lvgl\version_6.1.2\lvgl\src\lv_objx\../lv_core/../lv_misc/lv_area.h **** /**********************
  58:..\..\..\lvgl\version_6.1.2\lvgl\src\lv_objx\../lv_core/../lv_misc/lv_area.h ****  * GLOBAL PROTOTYPES
  59:..\..\..\lvgl\version_6.1.2\lvgl\src\lv_objx\../lv_core/../lv_misc/lv_area.h ****  **********************/
  60:..\..\..\lvgl\version_6.1.2\lvgl\src\lv_objx\../lv_core/../lv_misc/lv_area.h **** 
  61:..\..\..\lvgl\version_6.1.2\lvgl\src\lv_objx\../lv_core/../lv_misc/lv_area.h **** /**
  62:..\..\..\lvgl\version_6.1.2\lvgl\src\lv_objx\../lv_core/../lv_misc/lv_area.h ****  * Initialize an area
  63:..\..\..\lvgl\version_6.1.2\lvgl\src\lv_objx\../lv_core/../lv_misc/lv_area.h ****  * @param area_p pointer to an area
  64:..\..\..\lvgl\version_6.1.2\lvgl\src\lv_objx\../lv_core/../lv_misc/lv_area.h ****  * @param x1 left coordinate of the area
  65:..\..\..\lvgl\version_6.1.2\lvgl\src\lv_objx\../lv_core/../lv_misc/lv_area.h ****  * @param y1 top coordinate of the area
  66:..\..\..\lvgl\version_6.1.2\lvgl\src\lv_objx\../lv_core/../lv_misc/lv_area.h ****  * @param x2 right coordinate of the area
  67:..\..\..\lvgl\version_6.1.2\lvgl\src\lv_objx\../lv_core/../lv_misc/lv_area.h ****  * @param y2 bottom coordinate of the area
  68:..\..\..\lvgl\version_6.1.2\lvgl\src\lv_objx\../lv_core/../lv_misc/lv_area.h ****  */
  69:..\..\..\lvgl\version_6.1.2\lvgl\src\lv_objx\../lv_core/../lv_misc/lv_area.h **** void lv_area_set(lv_area_t * area_p, lv_coord_t x1, lv_coord_t y1, lv_coord_t x2, lv_coord_t y2);
  70:..\..\..\lvgl\version_6.1.2\lvgl\src\lv_objx\../lv_core/../lv_misc/lv_area.h **** 
  71:..\..\..\lvgl\version_6.1.2\lvgl\src\lv_objx\../lv_core/../lv_misc/lv_area.h **** /**
  72:..\..\..\lvgl\version_6.1.2\lvgl\src\lv_objx\../lv_core/../lv_misc/lv_area.h ****  * Copy an area
  73:..\..\..\lvgl\version_6.1.2\lvgl\src\lv_objx\../lv_core/../lv_misc/lv_area.h ****  * @param dest pointer to the destination area
  74:..\..\..\lvgl\version_6.1.2\lvgl\src\lv_objx\../lv_core/../lv_misc/lv_area.h ****  * @param src pointer to the source area
  75:..\..\..\lvgl\version_6.1.2\lvgl\src\lv_objx\../lv_core/../lv_misc/lv_area.h ****  */
  76:..\..\..\lvgl\version_6.1.2\lvgl\src\lv_objx\../lv_core/../lv_misc/lv_area.h **** inline static void lv_area_copy(lv_area_t * dest, const lv_area_t * src)
  77:..\..\..\lvgl\version_6.1.2\lvgl\src\lv_objx\../lv_core/../lv_misc/lv_area.h **** {
  78:..\..\..\lvgl\version_6.1.2\lvgl\src\lv_objx\../lv_core/../lv_misc/lv_area.h ****     memcpy(dest, src, sizeof(lv_area_t));
 1217              		.loc 2 78 0
 1218 0338 2346     		mov	r3, r4
 1219 033a 53F8100F 		ldr	r0, [r3, #16]!	@ unaligned
 1220 033e 5968     		ldr	r1, [r3, #4]	@ unaligned
 1221 0340 09AB     		add	r3, sp, #36
 1222 0342 03C3     		stmia	r3!, {r0, r1}
 1223              	.LBE189:
 1224              	.LBE188:
 654:..\..\..\lvgl\version_6.1.2\lvgl\src\lv_objx/lv_cpicker.c **** 
 1225              		.loc 1 654 0
 1226 0344 B5F84C10 		ldrh	r1, [r5, #76]
 1227 0348 4942     		negs	r1, r1
 651:..\..\..\lvgl\version_6.1.2\lvgl\src\lv_objx/lv_cpicker.c ****     lv_area_t area_mid;
 1228              		.loc 1 651 0
 1229 034a 47F61843 		movw	r3, #31768
 654:..\..\..\lvgl\version_6.1.2\lvgl\src\lv_objx/lv_cpicker.c **** 
 1230              		.loc 1 654 0
 1231 034e 09B2     		sxth	r1, r1
 1232 0350 09A8     		add	r0, sp, #36
 651:..\..\..\lvgl\version_6.1.2\lvgl\src\lv_objx/lv_cpicker.c ****     lv_area_t area_mid;
 1233              		.loc 1 651 0
 1234 0352 ADF84430 		strh	r3, [sp, #68]	@ movhi
 654:..\..\..\lvgl\version_6.1.2\lvgl\src\lv_objx/lv_cpicker.c **** 
 1235              		.loc 1 654 0
 1236 0356 FFF7FEFF 		bl	lv_area_increment
 1237              	.LVL158:
 656:..\..\..\lvgl\version_6.1.2\lvgl\src\lv_objx/lv_cpicker.c **** 
 1238              		.loc 1 656 0
 1239 035a 019B     		ldr	r3, [sp, #4]
 1240 035c 5946     		mov	r1, fp
ARM GAS  C:\Users\pearlstl\AppData\Local\Temp\ccadfCp2.s 			page 47


 1241 035e 3246     		mov	r2, r6
 1242 0360 09A8     		add	r0, sp, #36
 1243 0362 FFF7FEFF 		bl	lv_draw_rect
 1244              	.LVL159:
 658:..\..\..\lvgl\version_6.1.2\lvgl\src\lv_objx/lv_cpicker.c ****         lv_color_t color = lv_cpicker_get_color(cpicker);
 1245              		.loc 1 658 0
 1246 0366 079B     		ldr	r3, [sp, #28]
 1247 0368 1B7F     		ldrb	r3, [r3, #28]	@ zero_extendqisi2
 1248 036a D906     		lsls	r1, r3, #27
 1249 036c 1AD5     		bpl	.L63
 1250              	.LVL160:
 1251              	.LBB190:
 1252              	.LBB191:
 1253              	.LBB192:
 464:..\..\..\lvgl\version_6.1.2\lvgl\src\lv_objx/lv_cpicker.c **** 
 1254              		.loc 1 464 0
 1255 036e 2046     		mov	r0, r4
 1256 0370 FFF7FEFF 		bl	lv_obj_get_ext_attr
 1257              	.LVL161:
 466:..\..\..\lvgl\version_6.1.2\lvgl\src\lv_objx/lv_cpicker.c **** }
 1258              		.loc 1 466 0
 1259 0374 C278     		ldrb	r2, [r0, #3]	@ zero_extendqisi2
 1260 0376 8178     		ldrb	r1, [r0, #2]	@ zero_extendqisi2
 1261 0378 0088     		ldrh	r0, [r0]
 1262              	.LVL162:
 1263 037a FFF7FEFF 		bl	lv_color_hsv_to_rgb
 1264              	.LVL163:
 1265              	.LBE192:
 1266              	.LBE191:
 662:..\..\..\lvgl\version_6.1.2\lvgl\src\lv_objx/lv_cpicker.c **** 
 1267              		.loc 1 662 0
 1268 037e B5F94C10 		ldrsh	r1, [r5, #76]
 660:..\..\..\lvgl\version_6.1.2\lvgl\src\lv_objx/lv_cpicker.c ****         style.body.grad_color = color;
 1269              		.loc 1 660 0
 1270 0382 0F90     		str	r0, [sp, #60]
 662:..\..\..\lvgl\version_6.1.2\lvgl\src\lv_objx/lv_cpicker.c **** 
 1271              		.loc 1 662 0
 1272 0384 01EBD171 		add	r1, r1, r1, lsr #31
 1273 0388 4910     		asrs	r1, r1, #1
 1274 038a 4942     		negs	r1, r1
 1275              	.LBB194:
 1276              	.LBB193:
 466:..\..\..\lvgl\version_6.1.2\lvgl\src\lv_objx/lv_cpicker.c **** }
 1277              		.loc 1 466 0
 1278 038c 0346     		mov	r3, r0
 1279              	.LVL164:
 1280              	.LBE193:
 1281              	.LBE194:
 662:..\..\..\lvgl\version_6.1.2\lvgl\src\lv_objx/lv_cpicker.c **** 
 1282              		.loc 1 662 0
 1283 038e 09B2     		sxth	r1, r1
 1284 0390 09A8     		add	r0, sp, #36
 661:..\..\..\lvgl\version_6.1.2\lvgl\src\lv_objx/lv_cpicker.c ****         lv_area_increment(&area_mid, -style_main->line.width / 2);
 1285              		.loc 1 661 0
 1286 0392 1093     		str	r3, [sp, #64]
 662:..\..\..\lvgl\version_6.1.2\lvgl\src\lv_objx/lv_cpicker.c **** 
 1287              		.loc 1 662 0
ARM GAS  C:\Users\pearlstl\AppData\Local\Temp\ccadfCp2.s 			page 48


 1288 0394 FFF7FEFF 		bl	lv_area_increment
 1289              	.LVL165:
 664:..\..\..\lvgl\version_6.1.2\lvgl\src\lv_objx/lv_cpicker.c ****     }
 1290              		.loc 1 664 0
 1291 0398 019B     		ldr	r3, [sp, #4]
 1292 039a 3246     		mov	r2, r6
 1293 039c 5946     		mov	r1, fp
 1294 039e 09A8     		add	r0, sp, #36
 1295 03a0 FFF7FEFF 		bl	lv_draw_rect
 1296              	.LVL166:
 1297              	.L63:
 1298              	.LBE190:
 1299              	.LBE199:
 1300              	.LBE236:
 1301              	.LBB237:
 1302              	.LBB238:
 733:..\..\..\lvgl\version_6.1.2\lvgl\src\lv_objx/lv_cpicker.c **** 
 1303              		.loc 1 733 0
 1304 03a4 2046     		mov	r0, r4
 1305 03a6 FFF7FEFF 		bl	lv_obj_get_ext_attr
 1306              	.LVL167:
 1307 03aa 0546     		mov	r5, r0
 1308              	.LVL168:
 736:..\..\..\lvgl\version_6.1.2\lvgl\src\lv_objx/lv_cpicker.c ****     style_cir.body.radius = LV_RADIUS_CIRCLE;
 1309              		.loc 1 736 0
 1310 03ac 3046     		mov	r0, r6
 1311              	.LVL169:
 1312 03ae 6968     		ldr	r1, [r5, #4]
 1313 03b0 FFF7FEFF 		bl	lv_style_copy
 1314              	.LVL170:
 737:..\..\..\lvgl\version_6.1.2\lvgl\src\lv_objx/lv_cpicker.c **** 
 1315              		.loc 1 737 0
 1316 03b4 47F61843 		movw	r3, #31768
 1317 03b8 ADF84430 		strh	r3, [sp, #68]	@ movhi
 739:..\..\..\lvgl\version_6.1.2\lvgl\src\lv_objx/lv_cpicker.c ****         style_cir.body.main_color = lv_cpicker_get_color(cpicker);
 1318              		.loc 1 739 0
 1319 03bc 2B7B     		ldrb	r3, [r5, #12]	@ zero_extendqisi2
 1320 03be DA07     		lsls	r2, r3, #31
 1321 03c0 09D5     		bpl	.L78
 1322              	.LVL171:
 1323              	.LBB239:
 1324              	.LBB240:
 464:..\..\..\lvgl\version_6.1.2\lvgl\src\lv_objx/lv_cpicker.c **** 
 1325              		.loc 1 464 0
 1326 03c2 2046     		mov	r0, r4
 1327 03c4 FFF7FEFF 		bl	lv_obj_get_ext_attr
 1328              	.LVL172:
 466:..\..\..\lvgl\version_6.1.2\lvgl\src\lv_objx/lv_cpicker.c **** }
 1329              		.loc 1 466 0
 1330 03c8 C278     		ldrb	r2, [r0, #3]	@ zero_extendqisi2
 1331 03ca 8178     		ldrb	r1, [r0, #2]	@ zero_extendqisi2
 1332 03cc 0088     		ldrh	r0, [r0]
 1333              	.LVL173:
 1334 03ce FFF7FEFF 		bl	lv_color_hsv_to_rgb
 1335              	.LVL174:
 1336              	.LBE240:
 1337              	.LBE239:
ARM GAS  C:\Users\pearlstl\AppData\Local\Temp\ccadfCp2.s 			page 49


 740:..\..\..\lvgl\version_6.1.2\lvgl\src\lv_objx/lv_cpicker.c ****         style_cir.body.grad_color = style_cir.body.main_color;
 1338              		.loc 1 740 0
 1339 03d2 0F90     		str	r0, [sp, #60]
 741:..\..\..\lvgl\version_6.1.2\lvgl\src\lv_objx/lv_cpicker.c ****     }
 1340              		.loc 1 741 0
 1341 03d4 1090     		str	r0, [sp, #64]
 1342              	.L78:
 1343              	.LVL175:
 1344              	.LBB241:
 1345              	.LBB242:
 758:..\..\..\lvgl\version_6.1.2\lvgl\src\lv_objx/lv_cpicker.c ****     const lv_style_t * style_main = lv_cpicker_get_style(cpicker, LV_CPICKER_STYLE_MAIN);
 1346              		.loc 1 758 0
 1347 03d6 2046     		mov	r0, r4
 1348 03d8 FFF7FEFF 		bl	lv_obj_get_ext_attr
 1349              	.LVL176:
 1350 03dc 8046     		mov	r8, r0
 1351              	.LVL177:
 1352              	.LBB243:
 1353              	.LBB244:
 384:..\..\..\lvgl\version_6.1.2\lvgl\src\lv_objx/lv_cpicker.c **** 
 1354              		.loc 1 384 0
 1355 03de 2046     		mov	r0, r4
 1356              	.LVL178:
 1357 03e0 FFF7FEFF 		bl	lv_obj_get_ext_attr
 1358              	.LVL179:
 388:..\..\..\lvgl\version_6.1.2\lvgl\src\lv_objx/lv_cpicker.c ****     case LV_CPICKER_STYLE_INDICATOR:
 1359              		.loc 1 388 0
 1360 03e4 2046     		mov	r0, r4
 1361 03e6 FFF7FEFF 		bl	lv_obj_get_style
 1362              	.LVL180:
 1363 03ea 0546     		mov	r5, r0
 1364              	.LVL181:
 1365              	.LBE244:
 1366              	.LBE243:
 1367              	.LBB245:
 1368              	.LBB246:
 384:..\..\..\lvgl\version_6.1.2\lvgl\src\lv_objx/lv_cpicker.c **** 
 1369              		.loc 1 384 0
 1370 03ec 2046     		mov	r0, r4
 1371 03ee FFF7FEFF 		bl	lv_obj_get_ext_attr
 1372              	.LVL182:
 1373              	.LBE246:
 1374              	.LBE245:
 763:..\..\..\lvgl\version_6.1.2\lvgl\src\lv_objx/lv_cpicker.c ****     else if(ext->type == LV_CPICKER_TYPE_RECT) {
 1375              		.loc 1 763 0
 1376 03f2 98F81C30 		ldrb	r3, [r8, #28]	@ zero_extendqisi2
 1377              	.LBB248:
 1378              	.LBB247:
 390:..\..\..\lvgl\version_6.1.2\lvgl\src\lv_objx/lv_cpicker.c ****     default:
 1379              		.loc 1 390 0
 1380 03f6 4768     		ldr	r7, [r0, #4]
 1381              	.LVL183:
 1382              	.LBE247:
 1383              	.LBE248:
 763:..\..\..\lvgl\version_6.1.2\lvgl\src\lv_objx/lv_cpicker.c ****     else if(ext->type == LV_CPICKER_TYPE_RECT) {
 1384              		.loc 1 763 0
 1385 03f8 1B07     		lsls	r3, r3, #28
ARM GAS  C:\Users\pearlstl\AppData\Local\Temp\ccadfCp2.s 			page 50


 1386 03fa 35D5     		bpl	.L129
 1387 03fc B5F94C50 		ldrsh	r5, [r5, #76]
 1388 0400 05EBD575 		add	r5, r5, r5, lsr #31
 1389 0404 C5F34F05 		ubfx	r5, r5, #1, #16
 1390              	.LVL184:
 1391              	.L79:
 770:..\..\..\lvgl\version_6.1.2\lvgl\src\lv_objx/lv_cpicker.c ****     indic_area.y1 = cpicker->coords.y1 + ext->indic.pos.y - r - style_indic->body.padding.right;
 1392              		.loc 1 770 0
 1393 0408 B8F80820 		ldrh	r2, [r8, #8]
 771:..\..\..\lvgl\version_6.1.2\lvgl\src\lv_objx/lv_cpicker.c ****     indic_area.x2 = cpicker->coords.x1 + ext->indic.pos.x + r + style_indic->body.padding.top;
 1394              		.loc 1 771 0
 1395 040c B8F80A30 		ldrh	r3, [r8, #10]
 1396 0410 618A     		ldrh	r1, [r4, #18]
 770:..\..\..\lvgl\version_6.1.2\lvgl\src\lv_objx/lv_cpicker.c ****     indic_area.y1 = cpicker->coords.y1 + ext->indic.pos.y - r - style_indic->body.padding.right;
 1397              		.loc 1 770 0
 1398 0412 B4F810C0 		ldrh	ip, [r4, #16]
 772:..\..\..\lvgl\version_6.1.2\lvgl\src\lv_objx/lv_cpicker.c ****     indic_area.y2 = cpicker->coords.y1 + ext->indic.pos.y + r + style_indic->body.padding.bottom;
 1399              		.loc 1 772 0
 1400 0416 B7F820E0 		ldrh	lr, [r7, #32]
 773:..\..\..\lvgl\version_6.1.2\lvgl\src\lv_objx/lv_cpicker.c **** 
 1401              		.loc 1 773 0
 1402 041a 788C     		ldrh	r0, [r7, #34]
 771:..\..\..\lvgl\version_6.1.2\lvgl\src\lv_objx/lv_cpicker.c ****     indic_area.x2 = cpicker->coords.x1 + ext->indic.pos.x + r + style_indic->body.padding.top;
 1403              		.loc 1 771 0
 1404 041c B7F82690 		ldrh	r9, [r7, #38]
 775:..\..\..\lvgl\version_6.1.2\lvgl\src\lv_objx/lv_cpicker.c **** }
 1405              		.loc 1 775 0
 1406 0420 B7F82480 		ldrh	r8, [r7, #36]
 1407              	.LVL185:
 770:..\..\..\lvgl\version_6.1.2\lvgl\src\lv_objx/lv_cpicker.c ****     indic_area.y1 = cpicker->coords.y1 + ext->indic.pos.y - r - style_indic->body.padding.right;
 1408              		.loc 1 770 0
 1409 0424 0CEB0204 		add	r4, ip, r2
 1410              	.LVL186:
 771:..\..\..\lvgl\version_6.1.2\lvgl\src\lv_objx/lv_cpicker.c ****     indic_area.x2 = cpicker->coords.x1 + ext->indic.pos.x + r + style_indic->body.padding.top;
 1411              		.loc 1 771 0
 1412 0428 0B44     		add	r3, r3, r1
 1413 042a 9BB2     		uxth	r3, r3
 770:..\..\..\lvgl\version_6.1.2\lvgl\src\lv_objx/lv_cpicker.c ****     indic_area.y1 = cpicker->coords.y1 + ext->indic.pos.y - r - style_indic->body.padding.right;
 1414              		.loc 1 770 0
 1415 042c A4B2     		uxth	r4, r4
 1416              	.LVL187:
 773:..\..\..\lvgl\version_6.1.2\lvgl\src\lv_objx/lv_cpicker.c **** 
 1417              		.loc 1 773 0
 1418 042e 1F18     		adds	r7, r3, r0
 1419              	.LVL188:
 771:..\..\..\lvgl\version_6.1.2\lvgl\src\lv_objx/lv_cpicker.c ****     indic_area.x2 = cpicker->coords.x1 + ext->indic.pos.x + r + style_indic->body.padding.top;
 1420              		.loc 1 771 0
 1421 0430 C5EB030C 		rsb	ip, r5, r3
 772:..\..\..\lvgl\version_6.1.2\lvgl\src\lv_objx/lv_cpicker.c ****     indic_area.y2 = cpicker->coords.y1 + ext->indic.pos.y + r + style_indic->body.padding.bottom;
 1422              		.loc 1 772 0
 1423 0434 A644     		add	lr, lr, r4
 775:..\..\..\lvgl\version_6.1.2\lvgl\src\lv_objx/lv_cpicker.c **** }
 1424              		.loc 1 775 0
 1425 0436 641B     		subs	r4, r4, r5
 1426              	.LVL189:
 772:..\..\..\lvgl\version_6.1.2\lvgl\src\lv_objx/lv_cpicker.c ****     indic_area.y2 = cpicker->coords.y1 + ext->indic.pos.y + r + style_indic->body.padding.bottom;
 1427              		.loc 1 772 0
ARM GAS  C:\Users\pearlstl\AppData\Local\Temp\ccadfCp2.s 			page 51


 1428 0438 AE44     		add	lr, lr, r5
 1429              	.LBE242:
 1430              	.LBE241:
 746:..\..\..\lvgl\version_6.1.2\lvgl\src\lv_objx/lv_cpicker.c **** }
 1431              		.loc 1 746 0
 1432 043a 0098     		ldr	r0, [sp]
 1433 043c 019B     		ldr	r3, [sp, #4]
 1434              	.LBB253:
 1435              	.LBB250:
 775:..\..\..\lvgl\version_6.1.2\lvgl\src\lv_objx/lv_cpicker.c **** }
 1436              		.loc 1 775 0
 1437 043e ADF830E0 		strh	lr, [sp, #48]	@ movhi
 771:..\..\..\lvgl\version_6.1.2\lvgl\src\lv_objx/lv_cpicker.c ****     indic_area.x2 = cpicker->coords.x1 + ext->indic.pos.x + r + style_indic->body.padding.top;
 1438              		.loc 1 771 0
 1439 0442 C9EB0C0C 		rsb	ip, r9, ip
 1440              	.LVL190:
 1441              	.LBE250:
 1442              	.LBE253:
 746:..\..\..\lvgl\version_6.1.2\lvgl\src\lv_objx/lv_cpicker.c **** }
 1443              		.loc 1 746 0
 1444 0446 3246     		mov	r2, r6
 1445 0448 5946     		mov	r1, fp
 1446              	.LBB254:
 1447              	.LBB251:
 775:..\..\..\lvgl\version_6.1.2\lvgl\src\lv_objx/lv_cpicker.c **** }
 1448              		.loc 1 775 0
 1449 044a C8EB0404 		rsb	r4, r8, r4
 773:..\..\..\lvgl\version_6.1.2\lvgl\src\lv_objx/lv_cpicker.c **** 
 1450              		.loc 1 773 0
 1451 044e 3D44     		add	r5, r5, r7
 1452              	.LVL191:
 775:..\..\..\lvgl\version_6.1.2\lvgl\src\lv_objx/lv_cpicker.c **** }
 1453              		.loc 1 775 0
 1454 0450 ADF82EC0 		strh	ip, [sp, #46]	@ movhi
 1455 0454 ADF82C40 		strh	r4, [sp, #44]	@ movhi
 1456 0458 ADF83250 		strh	r5, [sp, #50]	@ movhi
 1457              	.LVL192:
 1458              	.LBE251:
 1459              	.LBE254:
 746:..\..\..\lvgl\version_6.1.2\lvgl\src\lv_objx/lv_cpicker.c **** }
 1460              		.loc 1 746 0
 1461 045c FFF7FEFF 		bl	lv_draw_rect
 1462              	.LVL193:
 1463 0460 0120     		movs	r0, #1
 1464              	.LBE238:
 1465              	.LBE237:
 1466              	.LBE262:
 1467              	.LBE264:
 541:..\..\..\lvgl\version_6.1.2\lvgl\src\lv_objx/lv_cpicker.c **** 
 1468              		.loc 1 541 0
 1469 0462 23B0     		add	sp, sp, #140
 1470              		.cfi_remember_state
 1471              		.cfi_def_cfa_offset 36
 1472              		@ sp needed
 1473 0464 BDE8F08F 		pop	{r4, r5, r6, r7, r8, r9, r10, fp, pc}
 1474              	.LVL194:
 1475              	.L129:
ARM GAS  C:\Users\pearlstl\AppData\Local\Temp\ccadfCp2.s 			page 52


 1476              		.cfi_restore_state
 1477              	.LBB265:
 1478              	.LBB263:
 1479              	.LBB257:
 1480              	.LBB256:
 1481              	.LBB255:
 1482              	.LBB252:
 1483              	.LBB249:
 765:..\..\..\lvgl\version_6.1.2\lvgl\src\lv_objx/lv_cpicker.c ****         r = h / 2;
 1484              		.loc 1 765 0
 1485 0468 2046     		mov	r0, r4
 1486 046a FFF7FEFF 		bl	lv_obj_get_height
 1487              	.LVL195:
 766:..\..\..\lvgl\version_6.1.2\lvgl\src\lv_objx/lv_cpicker.c ****     }
 1488              		.loc 1 766 0
 1489 046e 00EBD070 		add	r0, r0, r0, lsr #31
 1490              	.LVL196:
 1491 0472 C0F34F05 		ubfx	r5, r0, #1, #16
 1492              	.LVL197:
 1493 0476 C7E7     		b	.L79
 1494              	.L134:
 1495              		.align	2
 1496              	.L133:
 1497 0478 00000000 		.word	lv_style_plain
 1498 047c 176CC116 		.word	381774871
 1499 0480 B7600BB6 		.word	-1240768329
 1500              	.LVL198:
 1501              	.L113:
 1502              	.LBE249:
 1503              	.LBE252:
 1504              	.LBE255:
 1505              	.LBE256:
 1506              	.LBE257:
 1507              	.LBB258:
 1508              	.LBB234:
 1509              	.LBB219:
 677:..\..\..\lvgl\version_6.1.2\lvgl\src\lv_objx/lv_cpicker.c ****         lv_coord_t r = style.body.radius;
 1510              		.loc 1 677 0
 1511 0484 2046     		mov	r0, r4
 1512 0486 FFF7FEFF 		bl	lv_obj_get_height
 1513              	.LVL199:
 678:..\..\..\lvgl\version_6.1.2\lvgl\src\lv_objx/lv_cpicker.c ****         if(r > h / 2) r = h / 2;
 1514              		.loc 1 678 0
 1515 048a BDF94430 		ldrsh	r3, [sp, #68]
 1516              	.LVL200:
 681:..\..\..\lvgl\version_6.1.2\lvgl\src\lv_objx/lv_cpicker.c ****         grad_area.x2 -= r;
 1517              		.loc 1 681 0
 1518 048e BDF82410 		ldrh	r1, [sp, #36]
 682:..\..\..\lvgl\version_6.1.2\lvgl\src\lv_objx/lv_cpicker.c **** 
 1519              		.loc 1 682 0
 1520 0492 BDF82820 		ldrh	r2, [sp, #40]
 679:..\..\..\lvgl\version_6.1.2\lvgl\src\lv_objx/lv_cpicker.c ****         /*Make the gradient area smaller with a half circle on both ends*/
 1521              		.loc 1 679 0
 1522 0496 00EBD070 		add	r0, r0, r0, lsr #31
 1523              	.LVL201:
 1524 049a 40F34F00 		sbfx	r0, r0, #1, #16
 1525              	.LVL202:
ARM GAS  C:\Users\pearlstl\AppData\Local\Temp\ccadfCp2.s 			page 53


 681:..\..\..\lvgl\version_6.1.2\lvgl\src\lv_objx/lv_cpicker.c ****         grad_area.x2 -= r;
 1526              		.loc 1 681 0
 1527 049e 9842     		cmp	r0, r3
 1528 04a0 A8BF     		it	ge
 1529 04a2 1846     		movge	r0, r3
 1530              	.LVL203:
 1531 04a4 85B2     		uxth	r5, r0
 686:..\..\..\lvgl\version_6.1.2\lvgl\src\lv_objx/lv_cpicker.c ****         rounded_edge_area.x2 = rounded_edge_area.x1 + 2 * r;
 1532              		.loc 1 686 0
 1533 04a6 0BAB     		add	r3, sp, #44
 681:..\..\..\lvgl\version_6.1.2\lvgl\src\lv_objx/lv_cpicker.c ****         grad_area.x2 -= r;
 1534              		.loc 1 681 0
 1535 04a8 6818     		adds	r0, r5, r1
 686:..\..\..\lvgl\version_6.1.2\lvgl\src\lv_objx/lv_cpicker.c ****         rounded_edge_area.x2 = rounded_edge_area.x1 + 2 * r;
 1536              		.loc 1 686 0
 1537 04aa 0093     		str	r3, [sp]
 1538 04ac 0099     		ldr	r1, [sp]
 681:..\..\..\lvgl\version_6.1.2\lvgl\src\lv_objx/lv_cpicker.c ****         grad_area.x2 -= r;
 1539              		.loc 1 681 0
 1540 04ae ADF82400 		strh	r0, [sp, #36]	@ movhi
 682:..\..\..\lvgl\version_6.1.2\lvgl\src\lv_objx/lv_cpicker.c **** 
 1541              		.loc 1 682 0
 1542 04b2 531B     		subs	r3, r2, r5
 686:..\..\..\lvgl\version_6.1.2\lvgl\src\lv_objx/lv_cpicker.c ****         rounded_edge_area.x2 = rounded_edge_area.x1 + 2 * r;
 1543              		.loc 1 686 0
 1544 04b4 2046     		mov	r0, r4
 682:..\..\..\lvgl\version_6.1.2\lvgl\src\lv_objx/lv_cpicker.c **** 
 1545              		.loc 1 682 0
 1546 04b6 ADF82830 		strh	r3, [sp, #40]	@ movhi
 686:..\..\..\lvgl\version_6.1.2\lvgl\src\lv_objx/lv_cpicker.c ****         rounded_edge_area.x2 = rounded_edge_area.x1 + 2 * r;
 1547              		.loc 1 686 0
 1548 04ba FFF7FEFF 		bl	lv_obj_get_coords
 1549              	.LVL204:
 687:..\..\..\lvgl\version_6.1.2\lvgl\src\lv_objx/lv_cpicker.c **** 
 1550              		.loc 1 687 0
 1551 04be 6B00     		lsls	r3, r5, #1
 1552 04c0 BDF82C20 		ldrh	r2, [sp, #44]
 1553 04c4 9DB2     		uxth	r5, r3
 1554 04c6 AB18     		adds	r3, r5, r2
 1555              	.LBB220:
 1556              	.LBB221:
1030:..\..\..\lvgl\version_6.1.2\lvgl\src\lv_objx/lv_cpicker.c ****     lv_color_t color;
 1557              		.loc 1 1030 0
 1558 04c8 2046     		mov	r0, r4
 1559              	.LBE221:
 1560              	.LBE220:
 687:..\..\..\lvgl\version_6.1.2\lvgl\src\lv_objx/lv_cpicker.c **** 
 1561              		.loc 1 687 0
 1562 04ca ADF83030 		strh	r3, [sp, #48]	@ movhi
 1563              	.LVL205:
 1564              	.LBB224:
 1565              	.LBB222:
1030:..\..\..\lvgl\version_6.1.2\lvgl\src\lv_objx/lv_cpicker.c ****     lv_color_t color;
 1566              		.loc 1 1030 0
 1567 04ce FFF7FEFF 		bl	lv_obj_get_ext_attr
 1568              	.LVL206:
1032:..\..\..\lvgl\version_6.1.2\lvgl\src\lv_objx/lv_cpicker.c ****     {
ARM GAS  C:\Users\pearlstl\AppData\Local\Temp\ccadfCp2.s 			page 54


 1569              		.loc 1 1032 0
 1570 04d2 037F     		ldrb	r3, [r0, #28]	@ zero_extendqisi2
 1571 04d4 03F00303 		and	r3, r3, #3
 1572 04d8 012B     		cmp	r3, #1
1030:..\..\..\lvgl\version_6.1.2\lvgl\src\lv_objx/lv_cpicker.c ****     lv_color_t color;
 1573              		.loc 1 1030 0
 1574 04da 8646     		mov	lr, r0
 1575              	.LVL207:
1032:..\..\..\lvgl\version_6.1.2\lvgl\src\lv_objx/lv_cpicker.c ****     {
 1576              		.loc 1 1032 0
 1577 04dc 00F00B81 		beq	.L66
 1578 04e0 022B     		cmp	r3, #2
 1579 04e2 00F00181 		beq	.L67
1036:..\..\..\lvgl\version_6.1.2\lvgl\src\lv_objx/lv_cpicker.c ****         break;
 1580              		.loc 1 1036 0
 1581 04e6 3846     		mov	r0, r7
 1582              	.LVL208:
 1583 04e8 9EF80320 		ldrb	r2, [lr, #3]	@ zero_extendqisi2
 1584 04ec 9EF80210 		ldrb	r1, [lr, #2]	@ zero_extendqisi2
 1585 04f0 FFF7FEFF 		bl	lv_color_hsv_to_rgb
 1586              	.LVL209:
 1587 04f4 0746     		mov	r7, r0
 1588              	.L68:
 1589              	.LVL210:
 1590              	.LBE222:
 1591              	.LBE224:
 692:..\..\..\lvgl\version_6.1.2\lvgl\src\lv_objx/lv_cpicker.c **** 
 1592              		.loc 1 692 0
 1593 04f6 DDF80080 		ldr	r8, [sp]
 1594 04fa 019B     		ldr	r3, [sp, #4]
 1595              	.LVL211:
 689:..\..\..\lvgl\version_6.1.2\lvgl\src\lv_objx/lv_cpicker.c ****         style.body.grad_color = style.body.main_color;
 1596              		.loc 1 689 0
 1597 04fc 0F97     		str	r7, [sp, #60]
 692:..\..\..\lvgl\version_6.1.2\lvgl\src\lv_objx/lv_cpicker.c **** 
 1598              		.loc 1 692 0
 1599 04fe 3246     		mov	r2, r6
 1600 0500 5946     		mov	r1, fp
 1601 0502 4046     		mov	r0, r8
 690:..\..\..\lvgl\version_6.1.2\lvgl\src\lv_objx/lv_cpicker.c **** 
 1602              		.loc 1 690 0
 1603 0504 1097     		str	r7, [sp, #64]
 692:..\..\..\lvgl\version_6.1.2\lvgl\src\lv_objx/lv_cpicker.c **** 
 1604              		.loc 1 692 0
 1605 0506 FFF7FEFF 		bl	lv_draw_rect
 1606              	.LVL212:
 695:..\..\..\lvgl\version_6.1.2\lvgl\src\lv_objx/lv_cpicker.c ****         rounded_edge_area.x1 = rounded_edge_area.x2 - 2 * r;
 1607              		.loc 1 695 0
 1608 050a 4146     		mov	r1, r8
 1609 050c 2046     		mov	r0, r4
 1610 050e FFF7FEFF 		bl	lv_obj_get_coords
 1611              	.LVL213:
 696:..\..\..\lvgl\version_6.1.2\lvgl\src\lv_objx/lv_cpicker.c **** 
 1612              		.loc 1 696 0
 1613 0512 BDF83030 		ldrh	r3, [sp, #48]
 1614              	.LBB225:
 1615              	.LBB226:
ARM GAS  C:\Users\pearlstl\AppData\Local\Temp\ccadfCp2.s 			page 55


1030:..\..\..\lvgl\version_6.1.2\lvgl\src\lv_objx/lv_cpicker.c ****     lv_color_t color;
 1616              		.loc 1 1030 0
 1617 0516 2046     		mov	r0, r4
 1618              	.LBE226:
 1619              	.LBE225:
 696:..\..\..\lvgl\version_6.1.2\lvgl\src\lv_objx/lv_cpicker.c **** 
 1620              		.loc 1 696 0
 1621 0518 5B1B     		subs	r3, r3, r5
 1622 051a ADF82C30 		strh	r3, [sp, #44]	@ movhi
 1623              	.LVL214:
 1624              	.LBB229:
 1625              	.LBB227:
1030:..\..\..\lvgl\version_6.1.2\lvgl\src\lv_objx/lv_cpicker.c ****     lv_color_t color;
 1626              		.loc 1 1030 0
 1627 051e FFF7FEFF 		bl	lv_obj_get_ext_attr
 1628              	.LVL215:
1032:..\..\..\lvgl\version_6.1.2\lvgl\src\lv_objx/lv_cpicker.c ****     {
 1629              		.loc 1 1032 0
 1630 0522 037F     		ldrb	r3, [r0, #28]	@ zero_extendqisi2
 1631 0524 03F00303 		and	r3, r3, #3
 1632 0528 012B     		cmp	r3, #1
 1633 052a 00F0D680 		beq	.L70
 1634 052e 022B     		cmp	r3, #2
 1635 0530 00F0CC80 		beq	.L71
1036:..\..\..\lvgl\version_6.1.2\lvgl\src\lv_objx/lv_cpicker.c ****         break;
 1636              		.loc 1 1036 0
 1637 0534 C278     		ldrb	r2, [r0, #3]	@ zero_extendqisi2
 1638 0536 8178     		ldrb	r1, [r0, #2]	@ zero_extendqisi2
 1639 0538 40F26710 		movw	r0, #359
 1640              	.LVL216:
 1641 053c FFF7FEFF 		bl	lv_color_hsv_to_rgb
 1642              	.LVL217:
 1643 0540 0546     		mov	r5, r0
 1644              	.L72:
 1645              	.LVL218:
 1646              	.LBE227:
 1647              	.LBE229:
 701:..\..\..\lvgl\version_6.1.2\lvgl\src\lv_objx/lv_cpicker.c ****     }
 1648              		.loc 1 701 0
 1649 0542 019B     		ldr	r3, [sp, #4]
 1650 0544 0098     		ldr	r0, [sp]
 1651              	.LVL219:
 698:..\..\..\lvgl\version_6.1.2\lvgl\src\lv_objx/lv_cpicker.c ****         style.body.grad_color = style.body.main_color;
 1652              		.loc 1 698 0
 1653 0546 0F95     		str	r5, [sp, #60]
 701:..\..\..\lvgl\version_6.1.2\lvgl\src\lv_objx/lv_cpicker.c ****     }
 1654              		.loc 1 701 0
 1655 0548 3246     		mov	r2, r6
 1656 054a 5946     		mov	r1, fp
 699:..\..\..\lvgl\version_6.1.2\lvgl\src\lv_objx/lv_cpicker.c **** 
 1657              		.loc 1 699 0
 1658 054c 1095     		str	r5, [sp, #64]
 701:..\..\..\lvgl\version_6.1.2\lvgl\src\lv_objx/lv_cpicker.c ****     }
 1659              		.loc 1 701 0
 1660 054e FFF7FEFF 		bl	lv_draw_rect
 1661              	.LVL220:
 1662 0552 86E5     		b	.L64
ARM GAS  C:\Users\pearlstl\AppData\Local\Temp\ccadfCp2.s 			page 56


 1663              	.LVL221:
 1664              	.L74:
 1665              	.LBE219:
 1666              	.LBB232:
 1667              	.LBB214:
 1668              	.LBB211:
1039:..\..\..\lvgl\version_6.1.2\lvgl\src\lv_objx/lv_cpicker.c ****         break;
 1669              		.loc 1 1039 0
 1670 0554 6423     		movs	r3, #100
 1671 0556 03FB05F3 		mul	r3, r3, r5
 1672 055a 89FB0321 		smull	r2, r1, r9, r3
 1673 055e 1944     		add	r1, r1, r3
 1674 0560 DB17     		asrs	r3, r3, #31
 1675 0562 C3EB2121 		rsb	r1, r3, r1, asr #8
 1676 0566 C278     		ldrb	r2, [r0, #3]	@ zero_extendqisi2
 1677 0568 0088     		ldrh	r0, [r0]
 1678              	.LVL222:
 1679 056a C9B2     		uxtb	r1, r1
 1680 056c FFF7FEFF 		bl	lv_color_hsv_to_rgb
 1681              	.LVL223:
 1682 0570 9EE5     		b	.L76
 1683              	.LVL224:
 1684              	.L127:
 1685              	.LBE211:
 1686              	.LBE214:
 1687              	.LBE232:
 1688              	.LBE234:
 1689              	.LBE258:
 1690              	.LBB259:
 1691              	.LBB200:
 1692              	.LBB195:
 564:..\..\..\lvgl\version_6.1.2\lvgl\src\lv_objx/lv_cpicker.c ****         ur = lv_atan2(mask->x2 - cx, mask->y1 - cy);
 1693              		.loc 1 564 0
 1694 0572 069F     		ldr	r7, [sp, #24]
 1695 0574 029D     		ldr	r5, [sp, #8]
 1696 0576 BBF90610 		ldrsh	r1, [fp, #6]
 1697 057a BBF90400 		ldrsh	r0, [fp, #4]
 1698 057e 491B     		subs	r1, r1, r5
 1699 0580 C01B     		subs	r0, r0, r7
 1700 0582 FFF7FEFF 		bl	lv_atan2
 1701              	.LVL225:
 565:..\..\..\lvgl\version_6.1.2\lvgl\src\lv_objx/lv_cpicker.c ****         ul = lv_atan2(mask->x1 - cx, mask->y1 - cy);
 1702              		.loc 1 565 0
 1703 0586 BBF90430 		ldrsh	r3, [fp, #4]
 1704 058a BBF90210 		ldrsh	r1, [fp, #2]
 564:..\..\..\lvgl\version_6.1.2\lvgl\src\lv_objx/lv_cpicker.c ****         ur = lv_atan2(mask->x2 - cx, mask->y1 - cy);
 1705              		.loc 1 564 0
 1706 058e 0FFA80FA 		sxth	r10, r0
 1707              	.LVL226:
 565:..\..\..\lvgl\version_6.1.2\lvgl\src\lv_objx/lv_cpicker.c ****         ul = lv_atan2(mask->x1 - cx, mask->y1 - cy);
 1708              		.loc 1 565 0
 1709 0592 491B     		subs	r1, r1, r5
 1710 0594 D81B     		subs	r0, r3, r7
 1711 0596 FFF7FEFF 		bl	lv_atan2
 1712              	.LVL227:
 566:..\..\..\lvgl\version_6.1.2\lvgl\src\lv_objx/lv_cpicker.c ****         dl = lv_atan2(mask->x1 - cx, mask->y2 - cy);
 1713              		.loc 1 566 0
ARM GAS  C:\Users\pearlstl\AppData\Local\Temp\ccadfCp2.s 			page 57


 1714 059a BBF90030 		ldrsh	r3, [fp]
 1715 059e BBF90210 		ldrsh	r1, [fp, #2]
 1716 05a2 0295     		str	r5, [sp, #8]
 1717              	.LVL228:
 1718 05a4 491B     		subs	r1, r1, r5
 565:..\..\..\lvgl\version_6.1.2\lvgl\src\lv_objx/lv_cpicker.c ****         ul = lv_atan2(mask->x1 - cx, mask->y1 - cy);
 1719              		.loc 1 565 0
 1720 05a6 0FFA80F8 		sxth	r8, r0
 1721              	.LVL229:
 566:..\..\..\lvgl\version_6.1.2\lvgl\src\lv_objx/lv_cpicker.c ****         dl = lv_atan2(mask->x1 - cx, mask->y2 - cy);
 1722              		.loc 1 566 0
 1723 05aa D81B     		subs	r0, r3, r7
 1724 05ac FFF7FEFF 		bl	lv_atan2
 1725              	.LVL230:
 567:..\..\..\lvgl\version_6.1.2\lvgl\src\lv_objx/lv_cpicker.c **** 
 1726              		.loc 1 567 0
 1727 05b0 BBF90030 		ldrsh	r3, [fp]
 1728 05b4 029A     		ldr	r2, [sp, #8]
 1729 05b6 BBF90610 		ldrsh	r1, [fp, #6]
 566:..\..\..\lvgl\version_6.1.2\lvgl\src\lv_objx/lv_cpicker.c ****         dl = lv_atan2(mask->x1 - cx, mask->y2 - cy);
 1730              		.loc 1 566 0
 1731 05ba 05B2     		sxth	r5, r0
 1732              	.LVL231:
 567:..\..\..\lvgl\version_6.1.2\lvgl\src\lv_objx/lv_cpicker.c **** 
 1733              		.loc 1 567 0
 1734 05bc 891A     		subs	r1, r1, r2
 1735 05be D81B     		subs	r0, r3, r7
 1736 05c0 FFF7FEFF 		bl	lv_atan2
 1737              	.LVL232:
 570:..\..\..\lvgl\version_6.1.2\lvgl\src\lv_objx/lv_cpicker.c ****         bool onYaxis = (mask->x2 > cx && mask->x1 < cx) ? true : false;
 1738              		.loc 1 570 0
 1739 05c4 BBF90430 		ldrsh	r3, [fp, #4]
 1740 05c8 9F42     		cmp	r7, r3
 567:..\..\..\lvgl\version_6.1.2\lvgl\src\lv_objx/lv_cpicker.c **** 
 1741              		.loc 1 567 0
 1742 05ca 00B2     		sxth	r0, r0
 1743              	.LVL233:
 570:..\..\..\lvgl\version_6.1.2\lvgl\src\lv_objx/lv_cpicker.c ****         bool onYaxis = (mask->x2 > cx && mask->x1 < cx) ? true : false;
 1744              		.loc 1 570 0
 1745 05cc 3A46     		mov	r2, r7
 1746 05ce 53DD     		ble	.L37
 1747 05d0 BBF90070 		ldrsh	r7, [fp]
 1748 05d4 9742     		cmp	r7, r2
 572:..\..\..\lvgl\version_6.1.2\lvgl\src\lv_objx/lv_cpicker.c ****         bool top = (mask->y2 < cy && mask->y1 < cy) ? true : false;
 1749              		.loc 1 572 0
 1750 05d6 3346     		mov	r3, r6
 570:..\..\..\lvgl\version_6.1.2\lvgl\src\lv_objx/lv_cpicker.c ****         bool onYaxis = (mask->x2 > cx && mask->x1 < cx) ? true : false;
 1751              		.loc 1 570 0
 1752 05d8 ACBF     		ite	ge
 1753 05da 0027     		movge	r7, #0
 1754 05dc 0127     		movlt	r7, #1
 1755              	.L38:
 1756              	.LVL234:
 573:..\..\..\lvgl\version_6.1.2\lvgl\src\lv_objx/lv_cpicker.c ****         bool onXaxis = (mask->y2 > cy && mask->y1 < cy) ? true : false;
 1757              		.loc 1 573 0
 1758 05de BBF90620 		ldrsh	r2, [fp, #6]
 1759 05e2 0299     		ldr	r1, [sp, #8]
ARM GAS  C:\Users\pearlstl\AppData\Local\Temp\ccadfCp2.s 			page 58


 1760 05e4 9142     		cmp	r1, r2
 1761 05e6 3BDD     		ble	.L39
 1762 05e8 BBF90220 		ldrsh	r2, [fp, #2]
 1763 05ec 8A42     		cmp	r2, r1
 1764 05ee 63DA     		bge	.L41
 1765              	.LVL235:
 581:..\..\..\lvgl\version_6.1.2\lvgl\src\lv_objx/lv_cpicker.c ****             start_angle = dl;
 1766              		.loc 1 581 0
 1767 05f0 002B     		cmp	r3, #0
 1768 05f2 40F08880 		bne	.L119
 587:..\..\..\lvgl\version_6.1.2\lvgl\src\lv_objx/lv_cpicker.c ****             start_angle = dr;
 1769              		.loc 1 587 0
 1770 05f6 002E     		cmp	r6, #0
 1771 05f8 40F08480 		bne	.L95
 1772 05fc 1946     		mov	r1, r3
 573:..\..\..\lvgl\version_6.1.2\lvgl\src\lv_objx/lv_cpicker.c ****         bool onXaxis = (mask->y2 > cy && mask->y1 < cy) ? true : false;
 1773              		.loc 1 573 0
 1774 05fe 0126     		movs	r6, #1
 1775              	.LVL236:
 1776              	.L86:
 590:..\..\..\lvgl\version_6.1.2\lvgl\src\lv_objx/lv_cpicker.c ****             start_angle = ur;
 1777              		.loc 1 590 0
 1778 0600 002F     		cmp	r7, #0
 1779 0602 00F08680 		beq	.L47
 1780 0606 002E     		cmp	r6, #0
 1781 0608 7FD0     		beq	.L84
 592:..\..\..\lvgl\version_6.1.2\lvgl\src\lv_objx/lv_cpicker.c ****         } else if(left && onXaxis) {
 1782              		.loc 1 592 0
 1783 060a 0546     		mov	r5, r0
 1784              	.LVL237:
 591:..\..\..\lvgl\version_6.1.2\lvgl\src\lv_objx/lv_cpicker.c ****             end_angle = dl;
 1785              		.loc 1 591 0
 1786 060c 4046     		mov	r0, r8
 1787              	.LVL238:
 1788              	.L44:
 608:..\..\..\lvgl\version_6.1.2\lvgl\src\lv_objx/lv_cpicker.c ****         end_angle = (end_angle / LV_CPICKER_DEF_QF) * LV_CPICKER_DEF_QF;
 1789              		.loc 1 608 0
 1790 060e 4E4B     		ldr	r3, .L135
 605:..\..\..\lvgl\version_6.1.2\lvgl\src\lv_objx/lv_cpicker.c **** 
 1791              		.loc 1 605 0
 1792 0610 A842     		cmp	r0, r5
 608:..\..\..\lvgl\version_6.1.2\lvgl\src\lv_objx/lv_cpicker.c ****         end_angle = (end_angle / LV_CPICKER_DEF_QF) * LV_CPICKER_DEF_QF;
 1793              		.loc 1 608 0
 1794 0612 83FB0012 		smull	r1, r2, r3, r0
 605:..\..\..\lvgl\version_6.1.2\lvgl\src\lv_objx/lv_cpicker.c **** 
 1795              		.loc 1 605 0
 1796 0616 C8BF     		it	gt
 1797 0618 05F5B475 		addgt	r5, r5, #360
 1798              	.LVL239:
 608:..\..\..\lvgl\version_6.1.2\lvgl\src\lv_objx/lv_cpicker.c ****         end_angle = (end_angle / LV_CPICKER_DEF_QF) * LV_CPICKER_DEF_QF;
 1799              		.loc 1 608 0
 1800 061c A2EBE070 		sub	r0, r2, r0, asr #31
 1801              	.LVL240:
 605:..\..\..\lvgl\version_6.1.2\lvgl\src\lv_objx/lv_cpicker.c **** 
 1802              		.loc 1 605 0
 1803 0620 C8BF     		it	gt
 1804 0622 2DB2     		sxthgt	r5, r5
ARM GAS  C:\Users\pearlstl\AppData\Local\Temp\ccadfCp2.s 			page 59


 1805              	.LVL241:
 608:..\..\..\lvgl\version_6.1.2\lvgl\src\lv_objx/lv_cpicker.c ****         end_angle = (end_angle / LV_CPICKER_DEF_QF) * LV_CPICKER_DEF_QF;
 1806              		.loc 1 608 0
 1807 0624 00EB4000 		add	r0, r0, r0, lsl #1
 609:..\..\..\lvgl\version_6.1.2\lvgl\src\lv_objx/lv_cpicker.c **** 
 1808              		.loc 1 609 0
 1809 0628 83FB0523 		smull	r2, r3, r3, r5
 608:..\..\..\lvgl\version_6.1.2\lvgl\src\lv_objx/lv_cpicker.c ****         end_angle = (end_angle / LV_CPICKER_DEF_QF) * LV_CPICKER_DEF_QF;
 1810              		.loc 1 608 0
 1811 062c 82B2     		uxth	r2, r0
 1812              	.LVL242:
 609:..\..\..\lvgl\version_6.1.2\lvgl\src\lv_objx/lv_cpicker.c **** 
 1813              		.loc 1 609 0
 1814 062e A3EBE575 		sub	r5, r3, r5, asr #31
 1815              	.LVL243:
 612:..\..\..\lvgl\version_6.1.2\lvgl\src\lv_objx/lv_cpicker.c ****             start_angle += 360;
 1816              		.loc 1 612 0
 1817 0632 11B2     		sxth	r1, r2
 609:..\..\..\lvgl\version_6.1.2\lvgl\src\lv_objx/lv_cpicker.c **** 
 1818              		.loc 1 609 0
 1819 0634 05EB4505 		add	r5, r5, r5, lsl #1
 612:..\..\..\lvgl\version_6.1.2\lvgl\src\lv_objx/lv_cpicker.c ****             start_angle += 360;
 1820              		.loc 1 612 0
 1821 0638 0229     		cmp	r1, #2
 609:..\..\..\lvgl\version_6.1.2\lvgl\src\lv_objx/lv_cpicker.c **** 
 1822              		.loc 1 609 0
 1823 063a ABB2     		uxth	r3, r5
 1824              	.LVL244:
 612:..\..\..\lvgl\version_6.1.2\lvgl\src\lv_objx/lv_cpicker.c ****             start_angle += 360;
 1825              		.loc 1 612 0
 1826 063c 2ADD     		ble	.L49
 1827 063e 033A     		subs	r2, r2, #3
 1828              	.LVL245:
 1829 0640 0333     		adds	r3, r3, #3
 1830              	.LVL246:
 1831 0642 95B2     		uxth	r5, r2
 1832 0644 1BB2     		sxth	r3, r3
 1833              	.LVL247:
 1834 0646 1F46     		mov	r7, r3
 1835 0648 A846     		mov	r8, r5
 1836              	.LVL248:
 1837              	.L50:
 1838              	.LBE195:
 624:..\..\..\lvgl\version_6.1.2\lvgl\src\lv_objx/lv_cpicker.c ****     uint16_t i;
 1839              		.loc 1 624 0
 1840 064a 0EAE     		add	r6, sp, #56
 1841 064c 3046     		mov	r0, r6
 1842 064e 3F49     		ldr	r1, .L135+4
 1843 0650 FFF7FEFF 		bl	lv_style_copy
 1844              	.LVL249:
 626:..\..\..\lvgl\version_6.1.2\lvgl\src\lv_objx/lv_cpicker.c ****         style.body.main_color = angle_to_mode_color(cpicker, i);
 1845              		.loc 1 626 0
 1846 0654 BD42     		cmp	r5, r7
 1847 0656 7FF7ABAD 		ble	.L51
 1848 065a 0BAB     		add	r3, sp, #44
 1849 065c 0093     		str	r3, [sp]
 1850 065e 60E6     		b	.L62
ARM GAS  C:\Users\pearlstl\AppData\Local\Temp\ccadfCp2.s 			page 60


 1851              	.LVL250:
 1852              	.L39:
 1853              	.LBB196:
 574:..\..\..\lvgl\version_6.1.2\lvgl\src\lv_objx/lv_cpicker.c ****         bool bottom = (mask->y2 > cy && mask->y1 > cy) ? true : false;
 1854              		.loc 1 574 0
 1855 0660 2ADA     		bge	.L41
 1856 0662 BBF90220 		ldrsh	r2, [fp, #2]
 1857 0666 9142     		cmp	r1, r2
 1858 0668 CCBF     		ite	gt
 1859 066a 0121     		movgt	r1, #1
 1860 066c 0021     		movle	r1, #0
 575:..\..\..\lvgl\version_6.1.2\lvgl\src\lv_objx/lv_cpicker.c **** 
 1861              		.loc 1 575 0
 1862 066e 1ADA     		bge	.L130
 1863              	.LVL251:
 578:..\..\..\lvgl\version_6.1.2\lvgl\src\lv_objx/lv_cpicker.c ****             start_angle = dl;
 1864              		.loc 1 578 0
 1865 0670 002B     		cmp	r3, #0
 1866 0672 62D0     		beq	.L131
 580:..\..\..\lvgl\version_6.1.2\lvgl\src\lv_objx/lv_cpicker.c ****         } else if(right && onXaxis) {
 1867              		.loc 1 580 0
 1868 0674 4546     		mov	r5, r8
 1869              	.LVL252:
 1870 0676 CAE7     		b	.L44
 1871              	.LVL253:
 1872              	.L37:
 571:..\..\..\lvgl\version_6.1.2\lvgl\src\lv_objx/lv_cpicker.c ****         bool right = (mask->x2 > cx && mask->x1 > cx) ? true : false;
 1873              		.loc 1 571 0
 1874 0678 63DA     		bge	.L89
 1875 067a BBF90030 		ldrsh	r3, [fp]
 1876 067e 069A     		ldr	r2, [sp, #24]
 1877 0680 9A42     		cmp	r2, r3
 572:..\..\..\lvgl\version_6.1.2\lvgl\src\lv_objx/lv_cpicker.c ****         bool top = (mask->y2 < cy && mask->y1 < cy) ? true : false;
 1878              		.loc 1 572 0
 1879 0682 3746     		mov	r7, r6
 1880 0684 B8BF     		it	lt
 1881 0686 0123     		movlt	r3, #1
 571:..\..\..\lvgl\version_6.1.2\lvgl\src\lv_objx/lv_cpicker.c ****         bool right = (mask->x2 > cx && mask->x1 > cx) ? true : false;
 1882              		.loc 1 571 0
 1883 0688 CCBF     		ite	gt
 1884 068a 0126     		movgt	r6, #1
 1885 068c 0026     		movle	r6, #0
 572:..\..\..\lvgl\version_6.1.2\lvgl\src\lv_objx/lv_cpicker.c ****         bool top = (mask->y2 < cy && mask->y1 < cy) ? true : false;
 1886              		.loc 1 572 0
 1887 068e A8BF     		it	ge
 1888 0690 0023     		movge	r3, #0
 1889 0692 A4E7     		b	.L38
 1890              	.LVL254:
 1891              	.L49:
 1892 0694 02F26512 		addw	r2, r2, #357
 1893              	.LVL255:
 1894 0698 03F26B13 		addw	r3, r3, #363
 1895              	.LVL256:
 1896 069c 95B2     		uxth	r5, r2
 1897 069e 1BB2     		sxth	r3, r3
 1898              	.LVL257:
 1899 06a0 1F46     		mov	r7, r3
ARM GAS  C:\Users\pearlstl\AppData\Local\Temp\ccadfCp2.s 			page 61


 1900              	.LVL258:
 612:..\..\..\lvgl\version_6.1.2\lvgl\src\lv_objx/lv_cpicker.c ****             start_angle += 360;
 1901              		.loc 1 612 0
 1902 06a2 A846     		mov	r8, r5
 1903              	.LVL259:
 1904 06a4 D1E7     		b	.L50
 1905              	.LVL260:
 1906              	.L130:
 581:..\..\..\lvgl\version_6.1.2\lvgl\src\lv_objx/lv_cpicker.c ****             start_angle = dl;
 1907              		.loc 1 581 0
 1908 06a6 53B1     		cbz	r3, .L81
 1909 06a8 029B     		ldr	r3, [sp, #8]
 1910              	.LVL261:
 1911 06aa 9342     		cmp	r3, r2
 1912 06ac AFDC     		bgt	.L44
 1913              	.L45:
 587:..\..\..\lvgl\version_6.1.2\lvgl\src\lv_objx/lv_cpicker.c ****             start_angle = dr;
 1914              		.loc 1 587 0
 1915 06ae 002E     		cmp	r6, #0
 1916 06b0 40D1     		bne	.L96
 1917 06b2 3346     		mov	r3, r6
 1918 06b4 3146     		mov	r1, r6
 1919 06b6 A3E7     		b	.L86
 1920              	.LVL262:
 1921              	.L41:
 581:..\..\..\lvgl\version_6.1.2\lvgl\src\lv_objx/lv_cpicker.c ****             start_angle = dl;
 1922              		.loc 1 581 0
 1923 06b8 002B     		cmp	r3, #0
 1924 06ba F8D1     		bne	.L45
 1925 06bc 1946     		mov	r1, r3
 1926              	.L81:
 587:..\..\..\lvgl\version_6.1.2\lvgl\src\lv_objx/lv_cpicker.c ****             start_angle = dr;
 1927              		.loc 1 587 0
 1928 06be 002E     		cmp	r6, #0
 1929 06c0 9ED0     		beq	.L86
 1930              	.LVL263:
 1931              	.L46:
 590:..\..\..\lvgl\version_6.1.2\lvgl\src\lv_objx/lv_cpicker.c ****             start_angle = ur;
 1932              		.loc 1 590 0
 1933 06c2 17BB     		cbnz	r7, .L84
 599:..\..\..\lvgl\version_6.1.2\lvgl\src\lv_objx/lv_cpicker.c ****             start_angle = ul;
 1934              		.loc 1 599 0
 1935 06c4 2BB3     		cbz	r3, .L47
 600:..\..\..\lvgl\version_6.1.2\lvgl\src\lv_objx/lv_cpicker.c ****             end_angle = ur;
 1936              		.loc 1 600 0
 1937 06c6 2846     		mov	r0, r5
 1938              	.LVL264:
 601:..\..\..\lvgl\version_6.1.2\lvgl\src\lv_objx/lv_cpicker.c ****         }
 1939              		.loc 1 601 0
 1940 06c8 4546     		mov	r5, r8
 1941              	.LVL265:
 1942 06ca A0E7     		b	.L44
 1943              	.LVL266:
 1944              	.L71:
 1945              	.LBE196:
 1946              	.LBE200:
 1947              	.LBE259:
ARM GAS  C:\Users\pearlstl\AppData\Local\Temp\ccadfCp2.s 			page 62


 1948              	.LBB260:
 1949              	.LBB235:
 1950              	.LBB233:
 1951              	.LBB230:
 1952              	.LBB228:
1042:..\..\..\lvgl\version_6.1.2\lvgl\src\lv_objx/lv_cpicker.c ****         break;
 1953              		.loc 1 1042 0
 1954 06cc 8178     		ldrb	r1, [r0, #2]	@ zero_extendqisi2
 1955 06ce 0088     		ldrh	r0, [r0]
 1956              	.LVL267:
 1957 06d0 6322     		movs	r2, #99
 1958 06d2 FFF7FEFF 		bl	lv_color_hsv_to_rgb
 1959              	.LVL268:
 1960 06d6 0546     		mov	r5, r0
 1961 06d8 33E7     		b	.L72
 1962              	.LVL269:
 1963              	.L70:
1039:..\..\..\lvgl\version_6.1.2\lvgl\src\lv_objx/lv_cpicker.c ****         break;
 1964              		.loc 1 1039 0
 1965 06da C278     		ldrb	r2, [r0, #3]	@ zero_extendqisi2
 1966 06dc 0088     		ldrh	r0, [r0]
 1967              	.LVL270:
 1968 06de 6321     		movs	r1, #99
 1969 06e0 FFF7FEFF 		bl	lv_color_hsv_to_rgb
 1970              	.LVL271:
 1971 06e4 0546     		mov	r5, r0
 1972 06e6 2CE7     		b	.L72
 1973              	.LVL272:
 1974              	.L67:
 1975              	.LBE228:
 1976              	.LBE230:
 1977              	.LBB231:
 1978              	.LBB223:
1042:..\..\..\lvgl\version_6.1.2\lvgl\src\lv_objx/lv_cpicker.c ****         break;
 1979              		.loc 1 1042 0
 1980 06e8 3A46     		mov	r2, r7
 1981 06ea 8178     		ldrb	r1, [r0, #2]	@ zero_extendqisi2
 1982 06ec 0088     		ldrh	r0, [r0]
 1983              	.LVL273:
 1984 06ee FFF7FEFF 		bl	lv_color_hsv_to_rgb
 1985              	.LVL274:
 1986 06f2 0746     		mov	r7, r0
 1987 06f4 FFE6     		b	.L68
 1988              	.LVL275:
 1989              	.L66:
1039:..\..\..\lvgl\version_6.1.2\lvgl\src\lv_objx/lv_cpicker.c ****         break;
 1990              		.loc 1 1039 0
 1991 06f6 3946     		mov	r1, r7
 1992 06f8 C278     		ldrb	r2, [r0, #3]	@ zero_extendqisi2
 1993 06fa 0088     		ldrh	r0, [r0]
 1994              	.LVL276:
 1995 06fc FFF7FEFF 		bl	lv_color_hsv_to_rgb
 1996              	.LVL277:
 1997 0700 0746     		mov	r7, r0
 1998 0702 F8E6     		b	.L68
 1999              	.LVL278:
 2000              	.L95:
ARM GAS  C:\Users\pearlstl\AppData\Local\Temp\ccadfCp2.s 			page 63


 2001              	.LBE223:
 2002              	.LBE231:
 2003              	.LBE233:
 2004              	.LBE235:
 2005              	.LBE260:
 2006              	.LBB261:
 2007              	.LBB201:
 2008              	.LBB197:
 589:..\..\..\lvgl\version_6.1.2\lvgl\src\lv_objx/lv_cpicker.c ****         } else if(left && top)  {
 2009              		.loc 1 589 0
 2010 0704 0546     		mov	r5, r0
 2011              	.LVL279:
 2012              	.L119:
 588:..\..\..\lvgl\version_6.1.2\lvgl\src\lv_objx/lv_cpicker.c ****             end_angle = dl;
 2013              		.loc 1 588 0
 2014 0706 5046     		mov	r0, r10
 2015              	.LVL280:
 2016 0708 81E7     		b	.L44
 2017              	.LVL281:
 2018              	.L84:
 593:..\..\..\lvgl\version_6.1.2\lvgl\src\lv_objx/lv_cpicker.c ****             start_angle = ur;
 2019              		.loc 1 593 0
 2020 070a 71B1     		cbz	r1, .L132
 595:..\..\..\lvgl\version_6.1.2\lvgl\src\lv_objx/lv_cpicker.c ****         } else if(left && bottom) {
 2021              		.loc 1 595 0
 2022 070c 5546     		mov	r5, r10
 2023              	.LVL282:
 594:..\..\..\lvgl\version_6.1.2\lvgl\src\lv_objx/lv_cpicker.c ****             end_angle = dr;
 2024              		.loc 1 594 0
 2025 070e 4046     		mov	r0, r8
 2026              	.LVL283:
 2027 0710 7DE7     		b	.L44
 2028              	.LVL284:
 2029              	.L47:
 2030              	.LBE197:
 624:..\..\..\lvgl\version_6.1.2\lvgl\src\lv_objx/lv_cpicker.c ****     uint16_t i;
 2031              		.loc 1 624 0
 2032 0712 0EAE     		add	r6, sp, #56
 2033 0714 3046     		mov	r0, r6
 2034              	.LVL285:
 2035 0716 0D49     		ldr	r1, .L135+4
 2036 0718 40F26515 		movw	r5, #357
 2037              	.LVL286:
 2038 071c FFF7FEFF 		bl	lv_style_copy
 2039              	.LVL287:
 2040 0720 4FF43473 		mov	r3, #720
 2041 0724 A846     		mov	r8, r5
 2042              	.LVL288:
 2043 0726 1F46     		mov	r7, r3
 2044 0728 42E5     		b	.L51
 2045              	.LVL289:
 2046              	.L132:
 2047              	.LBB198:
 596:..\..\..\lvgl\version_6.1.2\lvgl\src\lv_objx/lv_cpicker.c ****             start_angle = ul;
 2048              		.loc 1 596 0
 2049 072a 002B     		cmp	r3, #0
 2050 072c F1D0     		beq	.L47
ARM GAS  C:\Users\pearlstl\AppData\Local\Temp\ccadfCp2.s 			page 64


 597:..\..\..\lvgl\version_6.1.2\lvgl\src\lv_objx/lv_cpicker.c ****             end_angle = dr;
 2051              		.loc 1 597 0
 2052 072e 2846     		mov	r0, r5
 2053              	.LVL290:
 598:..\..\..\lvgl\version_6.1.2\lvgl\src\lv_objx/lv_cpicker.c ****         } else if(onYaxis && bottom) {
 2054              		.loc 1 598 0
 2055 0730 5546     		mov	r5, r10
 2056              	.LVL291:
 2057 0732 6CE7     		b	.L44
 2058              	.LVL292:
 2059              	.L96:
 587:..\..\..\lvgl\version_6.1.2\lvgl\src\lv_objx/lv_cpicker.c ****             start_angle = dr;
 2060              		.loc 1 587 0
 2061 0734 0023     		movs	r3, #0
 2062 0736 1946     		mov	r1, r3
 2063 0738 C3E7     		b	.L46
 2064              	.LVL293:
 2065              	.L131:
 575:..\..\..\lvgl\version_6.1.2\lvgl\src\lv_objx/lv_cpicker.c **** 
 2066              		.loc 1 575 0
 2067 073a 0123     		movs	r3, #1
 2068              	.LVL294:
 587:..\..\..\lvgl\version_6.1.2\lvgl\src\lv_objx/lv_cpicker.c ****             start_angle = dr;
 2069              		.loc 1 587 0
 2070 073c 002E     		cmp	r6, #0
 2071 073e C0D1     		bne	.L46
 2072 0740 5EE7     		b	.L86
 2073              	.LVL295:
 2074              	.L89:
 571:..\..\..\lvgl\version_6.1.2\lvgl\src\lv_objx/lv_cpicker.c ****         bool right = (mask->x2 > cx && mask->x1 > cx) ? true : false;
 2075              		.loc 1 571 0
 2076 0742 3746     		mov	r7, r6
 572:..\..\..\lvgl\version_6.1.2\lvgl\src\lv_objx/lv_cpicker.c ****         bool top = (mask->y2 < cy && mask->y1 < cy) ? true : false;
 2077              		.loc 1 572 0
 2078 0744 3346     		mov	r3, r6
 2079 0746 4AE7     		b	.L38
 2080              	.L136:
 2081              		.align	2
 2082              	.L135:
 2083 0748 56555555 		.word	1431655766
 2084 074c 00000000 		.word	lv_style_plain
 2085              	.LBE198:
 2086              	.LBE201:
 2087              	.LBE261:
 2088              	.LBE263:
 2089              	.LBE265:
 2090              		.cfi_endproc
 2091              	.LFE53:
 2092              		.size	lv_cpicker_design, .-lv_cpicker_design
 2093              		.section	.text.lv_cpicker_signal,"ax",%progbits
 2094              		.align	2
 2095              		.thumb
 2096              		.thumb_func
 2097              		.type	lv_cpicker_signal, %function
 2098              	lv_cpicker_signal:
 2099              	.LFB59:
 786:..\..\..\lvgl\version_6.1.2\lvgl\src\lv_objx/lv_cpicker.c ****     /* Include the ancient signal function */
ARM GAS  C:\Users\pearlstl\AppData\Local\Temp\ccadfCp2.s 			page 65


 2100              		.loc 1 786 0
 2101              		.cfi_startproc
 2102              		@ args = 0, pretend = 0, frame = 16
 2103              		@ frame_needed = 0, uses_anonymous_args = 0
 2104              	.LVL296:
 2105 0000 2DE9F043 		push	{r4, r5, r6, r7, r8, r9, lr}
 2106              		.cfi_def_cfa_offset 28
 2107              		.cfi_offset 4, -28
 2108              		.cfi_offset 5, -24
 2109              		.cfi_offset 6, -20
 2110              		.cfi_offset 7, -16
 2111              		.cfi_offset 8, -12
 2112              		.cfi_offset 9, -8
 2113              		.cfi_offset 14, -4
 788:..\..\..\lvgl\version_6.1.2\lvgl\src\lv_objx/lv_cpicker.c ****     if(res != LV_RES_OK) return res;
 2114              		.loc 1 788 0
 2115 0004 CA4B     		ldr	r3, .L256
 786:..\..\..\lvgl\version_6.1.2\lvgl\src\lv_objx/lv_cpicker.c ****     /* Include the ancient signal function */
 2116              		.loc 1 786 0
 2117 0006 85B0     		sub	sp, sp, #20
 2118              		.cfi_def_cfa_offset 48
 788:..\..\..\lvgl\version_6.1.2\lvgl\src\lv_objx/lv_cpicker.c ****     if(res != LV_RES_OK) return res;
 2119              		.loc 1 788 0
 2120 0008 1B68     		ldr	r3, [r3]
 786:..\..\..\lvgl\version_6.1.2\lvgl\src\lv_objx/lv_cpicker.c ****     /* Include the ancient signal function */
 2121              		.loc 1 786 0
 2122 000a 0646     		mov	r6, r0
 2123 000c 0D46     		mov	r5, r1
 2124 000e 1746     		mov	r7, r2
 788:..\..\..\lvgl\version_6.1.2\lvgl\src\lv_objx/lv_cpicker.c ****     if(res != LV_RES_OK) return res;
 2125              		.loc 1 788 0
 2126 0010 9847     		blx	r3
 2127              	.LVL297:
 789:..\..\..\lvgl\version_6.1.2\lvgl\src\lv_objx/lv_cpicker.c ****     if(sign == LV_SIGNAL_GET_TYPE) return lv_obj_handle_get_type_signal(param, LV_OBJX_NAME);
 2128              		.loc 1 789 0
 2129 0012 0128     		cmp	r0, #1
 788:..\..\..\lvgl\version_6.1.2\lvgl\src\lv_objx/lv_cpicker.c ****     if(res != LV_RES_OK) return res;
 2130              		.loc 1 788 0
 2131 0014 0446     		mov	r4, r0
 2132              	.LVL298:
 789:..\..\..\lvgl\version_6.1.2\lvgl\src\lv_objx/lv_cpicker.c ****     if(sign == LV_SIGNAL_GET_TYPE) return lv_obj_handle_get_type_signal(param, LV_OBJX_NAME);
 2133              		.loc 1 789 0
 2134 0016 03D0     		beq	.L242
 2135              	.LVL299:
 2136              	.L231:
 950:..\..\..\lvgl\version_6.1.2\lvgl\src\lv_objx/lv_cpicker.c **** 
 2137              		.loc 1 950 0
 2138 0018 2046     		mov	r0, r4
 2139 001a 05B0     		add	sp, sp, #20
 2140              		.cfi_remember_state
 2141              		.cfi_def_cfa_offset 28
 2142              		@ sp needed
 2143 001c BDE8F083 		pop	{r4, r5, r6, r7, r8, r9, pc}
 2144              	.LVL300:
 2145              	.L242:
 2146              		.cfi_restore_state
 790:..\..\..\lvgl\version_6.1.2\lvgl\src\lv_objx/lv_cpicker.c **** 
ARM GAS  C:\Users\pearlstl\AppData\Local\Temp\ccadfCp2.s 			page 66


 2147              		.loc 1 790 0
 2148 0020 072D     		cmp	r5, #7
 2149 0022 1AD0     		beq	.L243
 792:..\..\..\lvgl\version_6.1.2\lvgl\src\lv_objx/lv_cpicker.c **** 
 2150              		.loc 1 792 0
 2151 0024 3046     		mov	r0, r6
 2152              	.LVL301:
 2153 0026 FFF7FEFF 		bl	lv_obj_get_ext_attr
 2154              	.LVL302:
 2155 002a 8046     		mov	r8, r0
 2156              	.LVL303:
 794:..\..\..\lvgl\version_6.1.2\lvgl\src\lv_objx/lv_cpicker.c ****         /*Nothing to cleanup. (No dynamically allocated memory in 'ext')*/
 2157              		.loc 1 794 0
 2158 002c 85B1     		cbz	r5, .L206
 796:..\..\..\lvgl\version_6.1.2\lvgl\src\lv_objx/lv_cpicker.c ****         const lv_style_t * style_indic = lv_cpicker_get_style(cpicker, LV_CPICKER_STYLE_INDICATOR);
 2159              		.loc 1 796 0
 2160 002e 062D     		cmp	r5, #6
 2161 0030 00F00E81 		beq	.L244
 805:..\..\..\lvgl\version_6.1.2\lvgl\src\lv_objx/lv_cpicker.c ****         /*Refresh extended draw area to make knob visible*/
 2162              		.loc 1 805 0
 2163 0034 022D     		cmp	r5, #2
 2164 0036 00F0EE80 		beq	.L245
 812:..\..\..\lvgl\version_6.1.2\lvgl\src\lv_objx/lv_cpicker.c ****         /*Refresh extended draw area to make knob visible*/
 2165              		.loc 1 812 0
 2166 003a 042D     		cmp	r5, #4
 2167 003c 00F00081 		beq	.L147
 817:..\..\..\lvgl\version_6.1.2\lvgl\src\lv_objx/lv_cpicker.c ****         uint32_t c = *((uint32_t *)param); /*uint32_t because can be UTF-8*/
 2168              		.loc 1 817 0
 2169 0040 122D     		cmp	r5, #18
 2170 0042 00F08A80 		beq	.L246
 862:..\..\..\lvgl\version_6.1.2\lvgl\src\lv_objx/lv_cpicker.c ****         ext->last_change_time = lv_tick_get();
 2171              		.loc 1 862 0
 2172 0046 082D     		cmp	r5, #8
 2173 0048 00F07A81 		beq	.L247
 867:..\..\..\lvgl\version_6.1.2\lvgl\src\lv_objx/lv_cpicker.c ****         lv_indev_t * indev = lv_indev_get_act();
 2174              		.loc 1 867 0
 2175 004c 092D     		cmp	r5, #9
 2176 004e 0AD0     		beq	.L248
 2177              	.LVL304:
 2178              	.L206:
 2179              	.LBB294:
 2180 0050 0124     		movs	r4, #1
 2181              	.LBE294:
 950:..\..\..\lvgl\version_6.1.2\lvgl\src\lv_objx/lv_cpicker.c **** 
 2182              		.loc 1 950 0
 2183 0052 2046     		mov	r0, r4
 2184 0054 05B0     		add	sp, sp, #20
 2185              		.cfi_remember_state
 2186              		.cfi_def_cfa_offset 28
 2187              		@ sp needed
 2188 0056 BDE8F083 		pop	{r4, r5, r6, r7, r8, r9, pc}
 2189              	.LVL305:
 2190              	.L243:
 2191              		.cfi_restore_state
 790:..\..\..\lvgl\version_6.1.2\lvgl\src\lv_objx/lv_cpicker.c **** 
 2192              		.loc 1 790 0 discriminator 1
 2193 005a 3846     		mov	r0, r7
ARM GAS  C:\Users\pearlstl\AppData\Local\Temp\ccadfCp2.s 			page 67


 2194              	.LVL306:
 2195 005c B549     		ldr	r1, .L256+4
 2196 005e FFF7FEFF 		bl	lv_obj_handle_get_type_signal
 2197              	.LVL307:
 2198 0062 0446     		mov	r4, r0
 2199 0064 D8E7     		b	.L231
 2200              	.LVL308:
 2201              	.L248:
 2202              	.LBB306:
 868:..\..\..\lvgl\version_6.1.2\lvgl\src\lv_objx/lv_cpicker.c ****         if(indev == NULL) return res;
 2203              		.loc 1 868 0
 2204 0066 FFF7FEFF 		bl	lv_indev_get_act
 2205              	.LVL309:
 869:..\..\..\lvgl\version_6.1.2\lvgl\src\lv_objx/lv_cpicker.c **** 
 2206              		.loc 1 869 0
 2207 006a 0546     		mov	r5, r0
 2208 006c 0028     		cmp	r0, #0
 2209 006e D3D0     		beq	.L231
 872:..\..\..\lvgl\version_6.1.2\lvgl\src\lv_objx/lv_cpicker.c **** 
 2210              		.loc 1 872 0
 2211 0070 02A9     		add	r1, sp, #8
 2212 0072 FFF7FEFF 		bl	lv_indev_get_point
 2213              	.LVL310:
 874:..\..\..\lvgl\version_6.1.2\lvgl\src\lv_objx/lv_cpicker.c ****            (LV_MATH_ABS(p.y - ext->last_press_point.y) > indev->driver.drag_limit / 2)) {
 2214              		.loc 1 874 0
 2215 0076 BDF90830 		ldrsh	r3, [sp, #8]
 2216 007a B8F91820 		ldrsh	r2, [r8, #24]
 2217 007e 297D     		ldrb	r1, [r5, #20]	@ zero_extendqisi2
 2218 0080 9A1A     		subs	r2, r3, r2
 2219 0082 002A     		cmp	r2, #0
 2220 0084 B8BF     		it	lt
 2221 0086 5242     		rsblt	r2, r2, #0
 2222 0088 4908     		lsrs	r1, r1, #1
 2223 008a 8A42     		cmp	r2, r1
 2224 008c 09DC     		bgt	.L189
 875:..\..\..\lvgl\version_6.1.2\lvgl\src\lv_objx/lv_cpicker.c ****             ext->last_change_time = lv_tick_get();
 2225              		.loc 1 875 0 discriminator 1
 2226 008e BDF90A20 		ldrsh	r2, [sp, #10]
 874:..\..\..\lvgl\version_6.1.2\lvgl\src\lv_objx/lv_cpicker.c ****            (LV_MATH_ABS(p.y - ext->last_press_point.y) > indev->driver.drag_limit / 2)) {
 2227              		.loc 1 874 0 discriminator 1
 2228 0092 B8F91A00 		ldrsh	r0, [r8, #26]
 2229 0096 101A     		subs	r0, r2, r0
 2230 0098 0028     		cmp	r0, #0
 2231 009a B8BF     		it	lt
 2232 009c 4042     		rsblt	r0, r0, #0
 2233 009e 8142     		cmp	r1, r0
 2234 00a0 0BDA     		bge	.L190
 2235              	.L189:
 876:..\..\..\lvgl\version_6.1.2\lvgl\src\lv_objx/lv_cpicker.c ****             ext->last_press_point.x = p.x;
 2236              		.loc 1 876 0
 2237 00a2 FFF7FEFF 		bl	lv_tick_get
 2238              	.LVL311:
 877:..\..\..\lvgl\version_6.1.2\lvgl\src\lv_objx/lv_cpicker.c ****             ext->last_press_point.y = p.y;
 2239              		.loc 1 877 0
 2240 00a6 BDF90830 		ldrsh	r3, [sp, #8]
 878:..\..\..\lvgl\version_6.1.2\lvgl\src\lv_objx/lv_cpicker.c ****         }
 2241              		.loc 1 878 0
ARM GAS  C:\Users\pearlstl\AppData\Local\Temp\ccadfCp2.s 			page 68


 2242 00aa BDF90A20 		ldrsh	r2, [sp, #10]
 2243 00ae A8F81A20 		strh	r2, [r8, #26]	@ movhi
 876:..\..\..\lvgl\version_6.1.2\lvgl\src\lv_objx/lv_cpicker.c ****             ext->last_press_point.x = p.x;
 2244              		.loc 1 876 0
 2245 00b2 C8F81400 		str	r0, [r8, #20]
 877:..\..\..\lvgl\version_6.1.2\lvgl\src\lv_objx/lv_cpicker.c ****             ext->last_press_point.y = p.y;
 2246              		.loc 1 877 0
 2247 00b6 A8F81830 		strh	r3, [r8, #24]	@ movhi
 2248              	.L190:
 881:..\..\..\lvgl\version_6.1.2\lvgl\src\lv_objx/lv_cpicker.c ****         p.y -= cpicker->coords.y1;
 2249              		.loc 1 881 0
 2250 00ba 308A     		ldrh	r0, [r6, #16]
 882:..\..\..\lvgl\version_6.1.2\lvgl\src\lv_objx/lv_cpicker.c **** 
 2251              		.loc 1 882 0
 2252 00bc 718A     		ldrh	r1, [r6, #18]
 881:..\..\..\lvgl\version_6.1.2\lvgl\src\lv_objx/lv_cpicker.c ****         p.y -= cpicker->coords.y1;
 2253              		.loc 1 881 0
 2254 00be 1B1A     		subs	r3, r3, r0
 882:..\..\..\lvgl\version_6.1.2\lvgl\src\lv_objx/lv_cpicker.c **** 
 2255              		.loc 1 882 0
 2256 00c0 521A     		subs	r2, r2, r1
 885:..\..\..\lvgl\version_6.1.2\lvgl\src\lv_objx/lv_cpicker.c **** 
 2257              		.loc 1 885 0
 2258 00c2 3046     		mov	r0, r6
 881:..\..\..\lvgl\version_6.1.2\lvgl\src\lv_objx/lv_cpicker.c ****         p.y -= cpicker->coords.y1;
 2259              		.loc 1 881 0
 2260 00c4 ADF80830 		strh	r3, [sp, #8]	@ movhi
 882:..\..\..\lvgl\version_6.1.2\lvgl\src\lv_objx/lv_cpicker.c **** 
 2261              		.loc 1 882 0
 2262 00c8 ADF80A20 		strh	r2, [sp, #10]	@ movhi
 885:..\..\..\lvgl\version_6.1.2\lvgl\src\lv_objx/lv_cpicker.c **** 
 2263              		.loc 1 885 0
 2264 00cc FFF7FEFF 		bl	lv_obj_get_width
 2265              	.LVL312:
 889:..\..\..\lvgl\version_6.1.2\lvgl\src\lv_objx/lv_cpicker.c ****             /*If pressed long enough without change go to next color mode*/
 2266              		.loc 1 889 0
 2267 00d0 98F81C30 		ldrb	r3, [r8, #28]	@ zero_extendqisi2
 2268 00d4 1907     		lsls	r1, r3, #28
 885:..\..\..\lvgl\version_6.1.2\lvgl\src\lv_objx/lv_cpicker.c **** 
 2269              		.loc 1 885 0
 2270 00d6 87B2     		uxth	r7, r0
 2271              	.LVL313:
 889:..\..\..\lvgl\version_6.1.2\lvgl\src\lv_objx/lv_cpicker.c ****             /*If pressed long enough without change go to next color mode*/
 2272              		.loc 1 889 0
 2273 00d8 40F1C481 		bpl	.L249
 2274              	.LVL314:
 2275              	.LBB295:
 2276              	.LBB296:
 2277              	.LBB297:
 384:..\..\..\lvgl\version_6.1.2\lvgl\src\lv_objx/lv_cpicker.c **** 
 2278              		.loc 1 384 0
 2279 00dc 3046     		mov	r0, r6
 2280 00de FFF7FEFF 		bl	lv_obj_get_ext_attr
 2281              	.LVL315:
 388:..\..\..\lvgl\version_6.1.2\lvgl\src\lv_objx/lv_cpicker.c ****     case LV_CPICKER_STYLE_INDICATOR:
 2282              		.loc 1 388 0
 2283 00e2 3046     		mov	r0, r6
ARM GAS  C:\Users\pearlstl\AppData\Local\Temp\ccadfCp2.s 			page 69


 2284 00e4 FFF7FEFF 		bl	lv_obj_get_style
 2285              	.LVL316:
 2286              	.LBE297:
 2287              	.LBE296:
 907:..\..\..\lvgl\version_6.1.2\lvgl\src\lv_objx/lv_cpicker.c **** 
 2288              		.loc 1 907 0
 2289 00e8 B0F84CE0 		ldrh	lr, [r0, #76]
 906:..\..\..\lvgl\version_6.1.2\lvgl\src\lv_objx/lv_cpicker.c ****             r_in -= style_main->line.width;
 2290              		.loc 1 906 0
 2291 00ec BDF80A10 		ldrh	r1, [sp, #10]
 905:..\..\..\lvgl\version_6.1.2\lvgl\src\lv_objx/lv_cpicker.c ****             p.y -= r_in;
 2292              		.loc 1 905 0
 2293 00f0 BDF80800 		ldrh	r0, [sp, #8]
 904:..\..\..\lvgl\version_6.1.2\lvgl\src\lv_objx/lv_cpicker.c ****             p.x -= r_in;
 2294              		.loc 1 904 0
 2295 00f4 7B08     		lsrs	r3, r7, #1
 2296              	.LVL317:
 907:..\..\..\lvgl\version_6.1.2\lvgl\src\lv_objx/lv_cpicker.c **** 
 2297              		.loc 1 907 0
 2298 00f6 CEEB0307 		rsb	r7, lr, r3
 2299              	.LVL318:
 2300 00fa BFB2     		uxth	r7, r7
 905:..\..\..\lvgl\version_6.1.2\lvgl\src\lv_objx/lv_cpicker.c ****             p.y -= r_in;
 2301              		.loc 1 905 0
 2302 00fc C01A     		subs	r0, r0, r3
 907:..\..\..\lvgl\version_6.1.2\lvgl\src\lv_objx/lv_cpicker.c **** 
 2303              		.loc 1 907 0
 2304 00fe 3AB2     		sxth	r2, r7
 2305              	.LVL319:
 906:..\..\..\lvgl\version_6.1.2\lvgl\src\lv_objx/lv_cpicker.c ****             r_in -= style_main->line.width;
 2306              		.loc 1 906 0
 2307 0100 CB1A     		subs	r3, r1, r3
 905:..\..\..\lvgl\version_6.1.2\lvgl\src\lv_objx/lv_cpicker.c ****             p.y -= r_in;
 2308              		.loc 1 905 0
 2309 0102 00B2     		sxth	r0, r0
 906:..\..\..\lvgl\version_6.1.2\lvgl\src\lv_objx/lv_cpicker.c ****             r_in -= style_main->line.width;
 2310              		.loc 1 906 0
 2311 0104 19B2     		sxth	r1, r3
 909:..\..\..\lvgl\version_6.1.2\lvgl\src\lv_objx/lv_cpicker.c ****             	r_in -= style_main->line.width; /* to let some sensitive space inside*/
 2312              		.loc 1 909 0
 2313 0106 4B2A     		cmp	r2, #75
 905:..\..\..\lvgl\version_6.1.2\lvgl\src\lv_objx/lv_cpicker.c ****             p.y -= r_in;
 2314              		.loc 1 905 0
 2315 0108 ADF80800 		strh	r0, [sp, #8]	@ movhi
 906:..\..\..\lvgl\version_6.1.2\lvgl\src\lv_objx/lv_cpicker.c ****             r_in -= style_main->line.width;
 2316              		.loc 1 906 0
 2317 010c ADF80A10 		strh	r1, [sp, #10]	@ movhi
 909:..\..\..\lvgl\version_6.1.2\lvgl\src\lv_objx/lv_cpicker.c ****             	r_in -= style_main->line.width; /* to let some sensitive space inside*/
 2318              		.loc 1 909 0
 2319 0110 05DD     		ble	.L196
 910:..\..\..\lvgl\version_6.1.2\lvgl\src\lv_objx/lv_cpicker.c **** 
 2320              		.loc 1 910 0
 2321 0112 CEEB0702 		rsb	r2, lr, r7
 2322              	.LVL320:
 2323 0116 12B2     		sxth	r2, r2
 2324              	.LVL321:
 912:..\..\..\lvgl\version_6.1.2\lvgl\src\lv_objx/lv_cpicker.c ****             }
ARM GAS  C:\Users\pearlstl\AppData\Local\Temp\ccadfCp2.s 			page 70


 2325              		.loc 1 912 0
 2326 0118 4B2A     		cmp	r2, #75
 2327 011a B8BF     		it	lt
 2328 011c 4B22     		movlt	r2, #75
 2329              	.LVL322:
 2330              	.L196:
 916:..\..\..\lvgl\version_6.1.2\lvgl\src\lv_objx/lv_cpicker.c ****                 uint32_t diff = lv_tick_elaps(ext->last_change_time);
 2331              		.loc 1 916 0
 2332 011e 01FB01F3 		mul	r3, r1, r1
 2333 0122 02FB02F2 		mul	r2, r2, r2
 2334              	.LVL323:
 2335 0126 00FB0033 		mla	r3, r0, r0, r3
 2336 012a 9342     		cmp	r3, r2
 2337 012c 80F26082 		bge	.L197
 2338              	.LBB298:
 917:..\..\..\lvgl\version_6.1.2\lvgl\src\lv_objx/lv_cpicker.c ****                 if(diff > indev->driver.long_press_time && !ext->color_mode_fixed) {
 2339              		.loc 1 917 0
 2340 0130 D8F81400 		ldr	r0, [r8, #20]
 2341 0134 FFF7FEFF 		bl	lv_tick_elaps
 2342              	.LVL324:
 918:..\..\..\lvgl\version_6.1.2\lvgl\src\lv_objx/lv_cpicker.c ****                     next_color_mode(cpicker);
 2343              		.loc 1 918 0
 2344 0138 EB8A     		ldrh	r3, [r5, #22]
 2345 013a 9842     		cmp	r0, r3
 2346 013c 7FF66CAF 		bls	.L231
 918:..\..\..\lvgl\version_6.1.2\lvgl\src\lv_objx/lv_cpicker.c ****                     next_color_mode(cpicker);
 2347              		.loc 1 918 0 is_stmt 0 discriminator 1
 2348 0140 98F81C30 		ldrb	r3, [r8, #28]	@ zero_extendqisi2
 2349 0144 5B07     		lsls	r3, r3, #29
 2350 0146 3FF567AF 		bmi	.L231
 2351              	.LVL325:
 2352              	.L235:
 919:..\..\..\lvgl\version_6.1.2\lvgl\src\lv_objx/lv_cpicker.c ****                     lv_indev_wait_release(lv_indev_get_act());
 2353              		.loc 1 919 0 is_stmt 1
 2354 014a 3046     		mov	r0, r6
 2355 014c FFF7FEFF 		bl	next_color_mode
 2356              	.LVL326:
 920:..\..\..\lvgl\version_6.1.2\lvgl\src\lv_objx/lv_cpicker.c ****                 }
 2357              		.loc 1 920 0
 2358 0150 FFF7FEFF 		bl	lv_indev_get_act
 2359              	.LVL327:
 2360 0154 FFF7FEFF 		bl	lv_indev_wait_release
 2361              	.LVL328:
 2362 0158 5EE7     		b	.L231
 2363              	.LVL329:
 2364              	.L246:
 2365              	.LBE298:
 2366              	.LBE295:
 2367              	.LBE306:
 2368              	.LBB307:
 818:..\..\..\lvgl\version_6.1.2\lvgl\src\lv_objx/lv_cpicker.c ****         if(c == LV_KEY_RIGHT || c == LV_KEY_UP) {
 2369              		.loc 1 818 0
 2370 015a 3B68     		ldr	r3, [r7]
 2371              	.LVL330:
