ARM GAS  C:\Users\pearlstl\AppData\Local\Temp\ccuP9Sbb.s 			page 1


   1              		.syntax unified
   2              		.cpu cortex-m4
   3              		.eabi_attribute 27, 1
   4              		.fpu fpv4-sp-d16
   5              		.eabi_attribute 20, 1
   6              		.eabi_attribute 21, 1
   7              		.eabi_attribute 23, 3
   8              		.eabi_attribute 24, 1
   9              		.eabi_attribute 25, 1
  10              		.eabi_attribute 26, 1
  11              		.eabi_attribute 30, 2
  12              		.eabi_attribute 34, 1
  13              		.eabi_attribute 18, 4
  14              		.thumb
  15              		.syntax unified
  16              		.file	"lv_draw_line.c"
  17              		.text
  18              	.Ltext0:
  19              		.cfi_sections	.debug_frame
  20              		.section	.text.lv_draw_line,"ax",%progbits
  21              		.align	2
  22              		.global	lv_draw_line
  23              		.thumb
  24              		.thumb_func
  25              		.type	lv_draw_line, %function
  26              	lv_draw_line:
  27              	.LFB32:
  28              		.file 1 "..\\..\\..\\lvgl\\version_6.1.2\\lvgl\\src\\lv_draw\\lv_draw_line.c"
   1:..\..\..\lvgl\version_6.1.2\lvgl\src\lv_draw/lv_draw_line.c **** /**
   2:..\..\..\lvgl\version_6.1.2\lvgl\src\lv_draw/lv_draw_line.c ****  * @file lv_draw_line.c
   3:..\..\..\lvgl\version_6.1.2\lvgl\src\lv_draw/lv_draw_line.c ****  *
   4:..\..\..\lvgl\version_6.1.2\lvgl\src\lv_draw/lv_draw_line.c ****  */
   5:..\..\..\lvgl\version_6.1.2\lvgl\src\lv_draw/lv_draw_line.c **** 
   6:..\..\..\lvgl\version_6.1.2\lvgl\src\lv_draw/lv_draw_line.c **** /*********************
   7:..\..\..\lvgl\version_6.1.2\lvgl\src\lv_draw/lv_draw_line.c ****  *      INCLUDES
   8:..\..\..\lvgl\version_6.1.2\lvgl\src\lv_draw/lv_draw_line.c ****  *********************/
   9:..\..\..\lvgl\version_6.1.2\lvgl\src\lv_draw/lv_draw_line.c **** #include <stdio.h>
  10:..\..\..\lvgl\version_6.1.2\lvgl\src\lv_draw/lv_draw_line.c **** #include <stdbool.h>
  11:..\..\..\lvgl\version_6.1.2\lvgl\src\lv_draw/lv_draw_line.c **** #include "lv_draw.h"
  12:..\..\..\lvgl\version_6.1.2\lvgl\src\lv_draw/lv_draw_line.c **** #include "../lv_core/lv_refr.h"
  13:..\..\..\lvgl\version_6.1.2\lvgl\src\lv_draw/lv_draw_line.c **** #include "../lv_misc/lv_math.h"
  14:..\..\..\lvgl\version_6.1.2\lvgl\src\lv_draw/lv_draw_line.c **** 
  15:..\..\..\lvgl\version_6.1.2\lvgl\src\lv_draw/lv_draw_line.c **** /*********************
  16:..\..\..\lvgl\version_6.1.2\lvgl\src\lv_draw/lv_draw_line.c ****  *      DEFINES
  17:..\..\..\lvgl\version_6.1.2\lvgl\src\lv_draw/lv_draw_line.c ****  *********************/
  18:..\..\..\lvgl\version_6.1.2\lvgl\src\lv_draw/lv_draw_line.c **** 
  19:..\..\..\lvgl\version_6.1.2\lvgl\src\lv_draw/lv_draw_line.c **** /**********************
  20:..\..\..\lvgl\version_6.1.2\lvgl\src\lv_draw/lv_draw_line.c ****  *      TYPEDEFS
  21:..\..\..\lvgl\version_6.1.2\lvgl\src\lv_draw/lv_draw_line.c ****  **********************/
  22:..\..\..\lvgl\version_6.1.2\lvgl\src\lv_draw/lv_draw_line.c **** 
  23:..\..\..\lvgl\version_6.1.2\lvgl\src\lv_draw/lv_draw_line.c **** typedef struct
  24:..\..\..\lvgl\version_6.1.2\lvgl\src\lv_draw/lv_draw_line.c **** {
  25:..\..\..\lvgl\version_6.1.2\lvgl\src\lv_draw/lv_draw_line.c ****     lv_point_t p1;
  26:..\..\..\lvgl\version_6.1.2\lvgl\src\lv_draw/lv_draw_line.c ****     lv_point_t p2;
  27:..\..\..\lvgl\version_6.1.2\lvgl\src\lv_draw/lv_draw_line.c ****     lv_point_t p_act;
  28:..\..\..\lvgl\version_6.1.2\lvgl\src\lv_draw/lv_draw_line.c ****     lv_coord_t dx;
  29:..\..\..\lvgl\version_6.1.2\lvgl\src\lv_draw/lv_draw_line.c ****     lv_coord_t sx; /*-1: x1 < x2; 1: x2 >= x1*/
ARM GAS  C:\Users\pearlstl\AppData\Local\Temp\ccuP9Sbb.s 			page 2


  30:..\..\..\lvgl\version_6.1.2\lvgl\src\lv_draw/lv_draw_line.c ****     lv_coord_t dy;
  31:..\..\..\lvgl\version_6.1.2\lvgl\src\lv_draw/lv_draw_line.c ****     lv_coord_t sy; /*-1: y1 < y2; 1: y2 >= y1*/
  32:..\..\..\lvgl\version_6.1.2\lvgl\src\lv_draw/lv_draw_line.c ****     lv_coord_t err;
  33:..\..\..\lvgl\version_6.1.2\lvgl\src\lv_draw/lv_draw_line.c ****     lv_coord_t e2;
  34:..\..\..\lvgl\version_6.1.2\lvgl\src\lv_draw/lv_draw_line.c ****     bool hor; /*Rather horizontal or vertical*/
  35:..\..\..\lvgl\version_6.1.2\lvgl\src\lv_draw/lv_draw_line.c **** } line_draw_t;
  36:..\..\..\lvgl\version_6.1.2\lvgl\src\lv_draw/lv_draw_line.c **** 
  37:..\..\..\lvgl\version_6.1.2\lvgl\src\lv_draw/lv_draw_line.c **** typedef struct
  38:..\..\..\lvgl\version_6.1.2\lvgl\src\lv_draw/lv_draw_line.c **** {
  39:..\..\..\lvgl\version_6.1.2\lvgl\src\lv_draw/lv_draw_line.c ****     lv_coord_t width;
  40:..\..\..\lvgl\version_6.1.2\lvgl\src\lv_draw/lv_draw_line.c ****     lv_coord_t width_1;
  41:..\..\..\lvgl\version_6.1.2\lvgl\src\lv_draw/lv_draw_line.c ****     lv_coord_t width_half;
  42:..\..\..\lvgl\version_6.1.2\lvgl\src\lv_draw/lv_draw_line.c **** } line_width_t;
  43:..\..\..\lvgl\version_6.1.2\lvgl\src\lv_draw/lv_draw_line.c **** 
  44:..\..\..\lvgl\version_6.1.2\lvgl\src\lv_draw/lv_draw_line.c **** /**********************
  45:..\..\..\lvgl\version_6.1.2\lvgl\src\lv_draw/lv_draw_line.c ****  *  STATIC PROTOTYPES
  46:..\..\..\lvgl\version_6.1.2\lvgl\src\lv_draw/lv_draw_line.c ****  **********************/
  47:..\..\..\lvgl\version_6.1.2\lvgl\src\lv_draw/lv_draw_line.c **** static void line_draw_hor(line_draw_t * main_line, const lv_area_t * mask, const lv_style_t * style
  48:..\..\..\lvgl\version_6.1.2\lvgl\src\lv_draw/lv_draw_line.c ****                           lv_opa_t opa_scale);
  49:..\..\..\lvgl\version_6.1.2\lvgl\src\lv_draw/lv_draw_line.c **** static void line_draw_ver(line_draw_t * main_line, const lv_area_t * mask, const lv_style_t * style
  50:..\..\..\lvgl\version_6.1.2\lvgl\src\lv_draw/lv_draw_line.c ****                           lv_opa_t opa_scale);
  51:..\..\..\lvgl\version_6.1.2\lvgl\src\lv_draw/lv_draw_line.c **** static void line_draw_skew(line_draw_t * main_line, bool dir_ori, const lv_area_t * mask, const lv_
  52:..\..\..\lvgl\version_6.1.2\lvgl\src\lv_draw/lv_draw_line.c ****                            lv_opa_t opa_scale);
  53:..\..\..\lvgl\version_6.1.2\lvgl\src\lv_draw/lv_draw_line.c **** static void line_init(line_draw_t * line, const lv_point_t * p1, const lv_point_t * p2);
  54:..\..\..\lvgl\version_6.1.2\lvgl\src\lv_draw/lv_draw_line.c **** static bool line_next(line_draw_t * line);
  55:..\..\..\lvgl\version_6.1.2\lvgl\src\lv_draw/lv_draw_line.c **** static bool line_next_y(line_draw_t * line);
  56:..\..\..\lvgl\version_6.1.2\lvgl\src\lv_draw/lv_draw_line.c **** static bool line_next_x(line_draw_t * line);
  57:..\..\..\lvgl\version_6.1.2\lvgl\src\lv_draw/lv_draw_line.c **** 
  58:..\..\..\lvgl\version_6.1.2\lvgl\src\lv_draw/lv_draw_line.c **** /**********************
  59:..\..\..\lvgl\version_6.1.2\lvgl\src\lv_draw/lv_draw_line.c ****  *  STATIC VARIABLES
  60:..\..\..\lvgl\version_6.1.2\lvgl\src\lv_draw/lv_draw_line.c ****  **********************/
  61:..\..\..\lvgl\version_6.1.2\lvgl\src\lv_draw/lv_draw_line.c **** 
  62:..\..\..\lvgl\version_6.1.2\lvgl\src\lv_draw/lv_draw_line.c **** /**********************
  63:..\..\..\lvgl\version_6.1.2\lvgl\src\lv_draw/lv_draw_line.c ****  *      MACROS
  64:..\..\..\lvgl\version_6.1.2\lvgl\src\lv_draw/lv_draw_line.c ****  **********************/
  65:..\..\..\lvgl\version_6.1.2\lvgl\src\lv_draw/lv_draw_line.c **** 
  66:..\..\..\lvgl\version_6.1.2\lvgl\src\lv_draw/lv_draw_line.c **** /**********************
  67:..\..\..\lvgl\version_6.1.2\lvgl\src\lv_draw/lv_draw_line.c ****  *   GLOBAL FUNCTIONS
  68:..\..\..\lvgl\version_6.1.2\lvgl\src\lv_draw/lv_draw_line.c ****  **********************/
  69:..\..\..\lvgl\version_6.1.2\lvgl\src\lv_draw/lv_draw_line.c **** 
  70:..\..\..\lvgl\version_6.1.2\lvgl\src\lv_draw/lv_draw_line.c **** /**
  71:..\..\..\lvgl\version_6.1.2\lvgl\src\lv_draw/lv_draw_line.c ****  * Draw a line
  72:..\..\..\lvgl\version_6.1.2\lvgl\src\lv_draw/lv_draw_line.c ****  * @param point1 first point of the line
  73:..\..\..\lvgl\version_6.1.2\lvgl\src\lv_draw/lv_draw_line.c ****  * @param point2 second point of the line
  74:..\..\..\lvgl\version_6.1.2\lvgl\src\lv_draw/lv_draw_line.c ****  * @param mask the line will be drawn only on this area
  75:..\..\..\lvgl\version_6.1.2\lvgl\src\lv_draw/lv_draw_line.c ****  * @param style pointer to a line's style
  76:..\..\..\lvgl\version_6.1.2\lvgl\src\lv_draw/lv_draw_line.c ****  * @param opa_scale scale down all opacities by the factor
  77:..\..\..\lvgl\version_6.1.2\lvgl\src\lv_draw/lv_draw_line.c ****  */
  78:..\..\..\lvgl\version_6.1.2\lvgl\src\lv_draw/lv_draw_line.c **** void lv_draw_line(const lv_point_t * point1, const lv_point_t * point2, const lv_area_t * mask,
  79:..\..\..\lvgl\version_6.1.2\lvgl\src\lv_draw/lv_draw_line.c ****                   const lv_style_t * style, lv_opa_t opa_scale)
  80:..\..\..\lvgl\version_6.1.2\lvgl\src\lv_draw/lv_draw_line.c **** {
  29              		.loc 1 80 0
  30              		.cfi_startproc
  31              		@ args = 4, pretend = 0, frame = 104
  32              		@ frame_needed = 0, uses_anonymous_args = 0
  33              	.LVL0:
  34 0000 2DE9F04F 		push	{r4, r5, r6, r7, r8, r9, r10, fp, lr}
ARM GAS  C:\Users\pearlstl\AppData\Local\Temp\ccuP9Sbb.s 			page 3


  35              		.cfi_def_cfa_offset 36
  36              		.cfi_offset 4, -36
  37              		.cfi_offset 5, -32
  38              		.cfi_offset 6, -28
  39              		.cfi_offset 7, -24
  40              		.cfi_offset 8, -20
  41              		.cfi_offset 9, -16
  42              		.cfi_offset 10, -12
  43              		.cfi_offset 11, -8
  44              		.cfi_offset 14, -4
  81:..\..\..\lvgl\version_6.1.2\lvgl\src\lv_draw/lv_draw_line.c **** 
  82:..\..\..\lvgl\version_6.1.2\lvgl\src\lv_draw/lv_draw_line.c ****     if(style->line.width == 0) return;
  45              		.loc 1 82 0
  46 0004 B3F94C70 		ldrsh	r7, [r3, #76]
  80:..\..\..\lvgl\version_6.1.2\lvgl\src\lv_draw/lv_draw_line.c **** 
  47              		.loc 1 80 0
  48 0008 9DB0     		sub	sp, sp, #116
  49              		.cfi_def_cfa_offset 152
  80:..\..\..\lvgl\version_6.1.2\lvgl\src\lv_draw/lv_draw_line.c **** 
  50              		.loc 1 80 0
  51 000a 9DF898E0 		ldrb	lr, [sp, #152]	@ zero_extendqisi2
  52              		.loc 1 82 0
  53 000e 7FB1     		cbz	r7, .L1
  83:..\..\..\lvgl\version_6.1.2\lvgl\src\lv_draw/lv_draw_line.c ****     if(point1->x == point2->x && point1->y == point2->y) return;
  54              		.loc 1 83 0
  55 0010 B0F90040 		ldrsh	r4, [r0]
  56 0014 B1F90060 		ldrsh	r6, [r1]
  57 0018 0794     		str	r4, [sp, #28]
  58 001a B442     		cmp	r4, r6
  59 001c 00F00781 		beq	.L161
  60              	.L3:
  84:..\..\..\lvgl\version_6.1.2\lvgl\src\lv_draw/lv_draw_line.c **** 
  85:..\..\..\lvgl\version_6.1.2\lvgl\src\lv_draw/lv_draw_line.c ****     /*Return if the points are out of the mask*/
  86:..\..\..\lvgl\version_6.1.2\lvgl\src\lv_draw/lv_draw_line.c ****     if(point1->x < mask->x1 - style->line.width && point2->x < mask->x1 - style->line.width) return
  61              		.loc 1 86 0
  62 0020 B2F90040 		ldrsh	r4, [r2]
  63 0024 079D     		ldr	r5, [sp, #28]
  64 0026 E41B     		subs	r4, r4, r7
  65 0028 A542     		cmp	r5, r4
  66 002a 04DA     		bge	.L4
  67              		.loc 1 86 0 is_stmt 0 discriminator 1
  68 002c B442     		cmp	r4, r6
  69 002e 02DD     		ble	.L4
  70              	.LVL1:
  71              	.L1:
  87:..\..\..\lvgl\version_6.1.2\lvgl\src\lv_draw/lv_draw_line.c ****     if(point1->x > mask->x2 + style->line.width && point2->x > mask->x2 + style->line.width) return
  88:..\..\..\lvgl\version_6.1.2\lvgl\src\lv_draw/lv_draw_line.c ****     if(point1->y < mask->y1 - style->line.width && point2->y < mask->y1 - style->line.width) return
  89:..\..\..\lvgl\version_6.1.2\lvgl\src\lv_draw/lv_draw_line.c ****     if(point1->y > mask->y2 + style->line.width && point2->y > mask->y2 + style->line.width) return
  90:..\..\..\lvgl\version_6.1.2\lvgl\src\lv_draw/lv_draw_line.c **** 
  91:..\..\..\lvgl\version_6.1.2\lvgl\src\lv_draw/lv_draw_line.c ****     line_draw_t main_line;
  92:..\..\..\lvgl\version_6.1.2\lvgl\src\lv_draw/lv_draw_line.c ****     lv_point_t p1;
  93:..\..\..\lvgl\version_6.1.2\lvgl\src\lv_draw/lv_draw_line.c ****     lv_point_t p2;
  94:..\..\..\lvgl\version_6.1.2\lvgl\src\lv_draw/lv_draw_line.c **** 
  95:..\..\..\lvgl\version_6.1.2\lvgl\src\lv_draw/lv_draw_line.c ****     /*If the line if rather vertical then be sure y1 < y2 else x1 < x2*/
  96:..\..\..\lvgl\version_6.1.2\lvgl\src\lv_draw/lv_draw_line.c **** 
  97:..\..\..\lvgl\version_6.1.2\lvgl\src\lv_draw/lv_draw_line.c ****     if(LV_MATH_ABS(point1->x - point2->x) > LV_MATH_ABS(point1->y - point2->y)) {
  98:..\..\..\lvgl\version_6.1.2\lvgl\src\lv_draw/lv_draw_line.c **** 
ARM GAS  C:\Users\pearlstl\AppData\Local\Temp\ccuP9Sbb.s 			page 4


  99:..\..\..\lvgl\version_6.1.2\lvgl\src\lv_draw/lv_draw_line.c ****         /*Steps less in y then x -> rather horizontal*/
 100:..\..\..\lvgl\version_6.1.2\lvgl\src\lv_draw/lv_draw_line.c ****         if(point1->x < point2->x) {
 101:..\..\..\lvgl\version_6.1.2\lvgl\src\lv_draw/lv_draw_line.c ****             p1.x = point1->x;
 102:..\..\..\lvgl\version_6.1.2\lvgl\src\lv_draw/lv_draw_line.c ****             p1.y = point1->y;
 103:..\..\..\lvgl\version_6.1.2\lvgl\src\lv_draw/lv_draw_line.c ****             p2.x = point2->x;
 104:..\..\..\lvgl\version_6.1.2\lvgl\src\lv_draw/lv_draw_line.c ****             p2.y = point2->y;
 105:..\..\..\lvgl\version_6.1.2\lvgl\src\lv_draw/lv_draw_line.c ****         } else {
 106:..\..\..\lvgl\version_6.1.2\lvgl\src\lv_draw/lv_draw_line.c ****             p1.x = point2->x;
 107:..\..\..\lvgl\version_6.1.2\lvgl\src\lv_draw/lv_draw_line.c ****             p1.y = point2->y;
 108:..\..\..\lvgl\version_6.1.2\lvgl\src\lv_draw/lv_draw_line.c ****             p2.x = point1->x;
 109:..\..\..\lvgl\version_6.1.2\lvgl\src\lv_draw/lv_draw_line.c ****             p2.y = point1->y;
 110:..\..\..\lvgl\version_6.1.2\lvgl\src\lv_draw/lv_draw_line.c ****         }
 111:..\..\..\lvgl\version_6.1.2\lvgl\src\lv_draw/lv_draw_line.c ****     } else {
 112:..\..\..\lvgl\version_6.1.2\lvgl\src\lv_draw/lv_draw_line.c ****         /*Steps less in x then y -> rather vertical*/
 113:..\..\..\lvgl\version_6.1.2\lvgl\src\lv_draw/lv_draw_line.c ****         if(point1->y < point2->y) {
 114:..\..\..\lvgl\version_6.1.2\lvgl\src\lv_draw/lv_draw_line.c ****             p1.x = point1->x;
 115:..\..\..\lvgl\version_6.1.2\lvgl\src\lv_draw/lv_draw_line.c ****             p1.y = point1->y;
 116:..\..\..\lvgl\version_6.1.2\lvgl\src\lv_draw/lv_draw_line.c ****             p2.x = point2->x;
 117:..\..\..\lvgl\version_6.1.2\lvgl\src\lv_draw/lv_draw_line.c ****             p2.y = point2->y;
 118:..\..\..\lvgl\version_6.1.2\lvgl\src\lv_draw/lv_draw_line.c ****         } else {
 119:..\..\..\lvgl\version_6.1.2\lvgl\src\lv_draw/lv_draw_line.c ****             p1.x = point2->x;
 120:..\..\..\lvgl\version_6.1.2\lvgl\src\lv_draw/lv_draw_line.c ****             p1.y = point2->y;
 121:..\..\..\lvgl\version_6.1.2\lvgl\src\lv_draw/lv_draw_line.c ****             p2.x = point1->x;
 122:..\..\..\lvgl\version_6.1.2\lvgl\src\lv_draw/lv_draw_line.c ****             p2.y = point1->y;
 123:..\..\..\lvgl\version_6.1.2\lvgl\src\lv_draw/lv_draw_line.c ****         }
 124:..\..\..\lvgl\version_6.1.2\lvgl\src\lv_draw/lv_draw_line.c ****     }
 125:..\..\..\lvgl\version_6.1.2\lvgl\src\lv_draw/lv_draw_line.c **** 
 126:..\..\..\lvgl\version_6.1.2\lvgl\src\lv_draw/lv_draw_line.c ****     line_init(&main_line, &p1, &p2);
 127:..\..\..\lvgl\version_6.1.2\lvgl\src\lv_draw/lv_draw_line.c **** 
 128:..\..\..\lvgl\version_6.1.2\lvgl\src\lv_draw/lv_draw_line.c ****     /*Special case draw a horizontal line*/
 129:..\..\..\lvgl\version_6.1.2\lvgl\src\lv_draw/lv_draw_line.c ****     if(main_line.p1.y == main_line.p2.y) {
 130:..\..\..\lvgl\version_6.1.2\lvgl\src\lv_draw/lv_draw_line.c ****         line_draw_hor(&main_line, mask, style, opa_scale);
 131:..\..\..\lvgl\version_6.1.2\lvgl\src\lv_draw/lv_draw_line.c ****     }
 132:..\..\..\lvgl\version_6.1.2\lvgl\src\lv_draw/lv_draw_line.c ****     /*Special case draw a vertical line*/
 133:..\..\..\lvgl\version_6.1.2\lvgl\src\lv_draw/lv_draw_line.c ****     else if(main_line.p1.x == main_line.p2.x) {
 134:..\..\..\lvgl\version_6.1.2\lvgl\src\lv_draw/lv_draw_line.c ****         line_draw_ver(&main_line, mask, style, opa_scale);
 135:..\..\..\lvgl\version_6.1.2\lvgl\src\lv_draw/lv_draw_line.c ****     }
 136:..\..\..\lvgl\version_6.1.2\lvgl\src\lv_draw/lv_draw_line.c ****     /*Arbitrary skew line*/
 137:..\..\..\lvgl\version_6.1.2\lvgl\src\lv_draw/lv_draw_line.c ****     else {
 138:..\..\..\lvgl\version_6.1.2\lvgl\src\lv_draw/lv_draw_line.c ****         bool dir_ori = false;
 139:..\..\..\lvgl\version_6.1.2\lvgl\src\lv_draw/lv_draw_line.c **** #if LV_ANTIALIAS
 140:..\..\..\lvgl\version_6.1.2\lvgl\src\lv_draw/lv_draw_line.c ****         bool aa = lv_disp_get_antialiasing(lv_refr_get_disp_refreshing());
 141:..\..\..\lvgl\version_6.1.2\lvgl\src\lv_draw/lv_draw_line.c ****         if(aa) {
 142:..\..\..\lvgl\version_6.1.2\lvgl\src\lv_draw/lv_draw_line.c ****             lv_point_t p_tmp;
 143:..\..\..\lvgl\version_6.1.2\lvgl\src\lv_draw/lv_draw_line.c **** 
 144:..\..\..\lvgl\version_6.1.2\lvgl\src\lv_draw/lv_draw_line.c ****             if(main_line.hor) {
 145:..\..\..\lvgl\version_6.1.2\lvgl\src\lv_draw/lv_draw_line.c ****                 if(main_line.p1.y < main_line.p2.y) {
 146:..\..\..\lvgl\version_6.1.2\lvgl\src\lv_draw/lv_draw_line.c ****                     dir_ori = true;
 147:..\..\..\lvgl\version_6.1.2\lvgl\src\lv_draw/lv_draw_line.c ****                     p_tmp.x = main_line.p2.x;
 148:..\..\..\lvgl\version_6.1.2\lvgl\src\lv_draw/lv_draw_line.c ****                     p_tmp.y = main_line.p2.y - 1;
 149:..\..\..\lvgl\version_6.1.2\lvgl\src\lv_draw/lv_draw_line.c ****                     line_init(&main_line, &p1, &p_tmp);
 150:..\..\..\lvgl\version_6.1.2\lvgl\src\lv_draw/lv_draw_line.c ****                     main_line.sy = LV_MATH_ABS(main_line.sy); /*The sign can change if the line bec
 151:..\..\..\lvgl\version_6.1.2\lvgl\src\lv_draw/lv_draw_line.c ****                 } else if(main_line.p1.y > main_line.p2.y) {
 152:..\..\..\lvgl\version_6.1.2\lvgl\src\lv_draw/lv_draw_line.c ****                     dir_ori = false;
 153:..\..\..\lvgl\version_6.1.2\lvgl\src\lv_draw/lv_draw_line.c ****                     p_tmp.x = main_line.p2.x;
 154:..\..\..\lvgl\version_6.1.2\lvgl\src\lv_draw/lv_draw_line.c ****                     p_tmp.y = main_line.p2.y + 1;
 155:..\..\..\lvgl\version_6.1.2\lvgl\src\lv_draw/lv_draw_line.c ****                     line_init(&main_line, &p1, &p_tmp);
ARM GAS  C:\Users\pearlstl\AppData\Local\Temp\ccuP9Sbb.s 			page 5


 156:..\..\..\lvgl\version_6.1.2\lvgl\src\lv_draw/lv_draw_line.c ****                     main_line.sy = -LV_MATH_ABS(main_line.sy); /*The sign can change if the line be
 157:..\..\..\lvgl\version_6.1.2\lvgl\src\lv_draw/lv_draw_line.c ****                 }
 158:..\..\..\lvgl\version_6.1.2\lvgl\src\lv_draw/lv_draw_line.c ****             } else {
 159:..\..\..\lvgl\version_6.1.2\lvgl\src\lv_draw/lv_draw_line.c ****                 if(main_line.p1.x < main_line.p2.x) {
 160:..\..\..\lvgl\version_6.1.2\lvgl\src\lv_draw/lv_draw_line.c ****                     dir_ori = true;
 161:..\..\..\lvgl\version_6.1.2\lvgl\src\lv_draw/lv_draw_line.c ****                     p_tmp.x = main_line.p2.x - 1;
 162:..\..\..\lvgl\version_6.1.2\lvgl\src\lv_draw/lv_draw_line.c ****                     p_tmp.y = main_line.p2.y;
 163:..\..\..\lvgl\version_6.1.2\lvgl\src\lv_draw/lv_draw_line.c ****                     line_init(&main_line, &p1, &p_tmp);
 164:..\..\..\lvgl\version_6.1.2\lvgl\src\lv_draw/lv_draw_line.c ****                     main_line.sx = LV_MATH_ABS(main_line.sx); /*The sign can change if the line bec
 165:..\..\..\lvgl\version_6.1.2\lvgl\src\lv_draw/lv_draw_line.c ****                 } else if(main_line.p1.x > main_line.p2.x) {
 166:..\..\..\lvgl\version_6.1.2\lvgl\src\lv_draw/lv_draw_line.c ****                     dir_ori = false;
 167:..\..\..\lvgl\version_6.1.2\lvgl\src\lv_draw/lv_draw_line.c ****                     p_tmp.x = main_line.p2.x + 1;
 168:..\..\..\lvgl\version_6.1.2\lvgl\src\lv_draw/lv_draw_line.c ****                     p_tmp.y = main_line.p2.y;
 169:..\..\..\lvgl\version_6.1.2\lvgl\src\lv_draw/lv_draw_line.c ****                     line_init(&main_line, &p1, &p_tmp);
 170:..\..\..\lvgl\version_6.1.2\lvgl\src\lv_draw/lv_draw_line.c ****                     main_line.sx = -LV_MATH_ABS(main_line.sx); /*The sign can change if the line be
 171:..\..\..\lvgl\version_6.1.2\lvgl\src\lv_draw/lv_draw_line.c ****                 }
 172:..\..\..\lvgl\version_6.1.2\lvgl\src\lv_draw/lv_draw_line.c ****             }
 173:..\..\..\lvgl\version_6.1.2\lvgl\src\lv_draw/lv_draw_line.c ****         }
 174:..\..\..\lvgl\version_6.1.2\lvgl\src\lv_draw/lv_draw_line.c **** #endif
 175:..\..\..\lvgl\version_6.1.2\lvgl\src\lv_draw/lv_draw_line.c ****         line_draw_skew(&main_line, dir_ori, mask, style, opa_scale);
 176:..\..\..\lvgl\version_6.1.2\lvgl\src\lv_draw/lv_draw_line.c ****     }
 177:..\..\..\lvgl\version_6.1.2\lvgl\src\lv_draw/lv_draw_line.c **** }
  72              		.loc 1 177 0 is_stmt 1
  73 0030 1DB0     		add	sp, sp, #116
  74              		.cfi_remember_state
  75              		.cfi_def_cfa_offset 36
  76              		@ sp needed
  77 0032 BDE8F08F 		pop	{r4, r5, r6, r7, r8, r9, r10, fp, pc}
  78              	.LVL2:
  79              	.L4:
  80              		.cfi_restore_state
  87:..\..\..\lvgl\version_6.1.2\lvgl\src\lv_draw/lv_draw_line.c ****     if(point1->x > mask->x2 + style->line.width && point2->x > mask->x2 + style->line.width) return
  81              		.loc 1 87 0
  82 0036 B2F90440 		ldrsh	r4, [r2, #4]
  83 003a 3C44     		add	r4, r4, r7
  84 003c A542     		cmp	r5, r4
  85 003e 01DD     		ble	.L5
  87:..\..\..\lvgl\version_6.1.2\lvgl\src\lv_draw/lv_draw_line.c ****     if(point1->x > mask->x2 + style->line.width && point2->x > mask->x2 + style->line.width) return
  86              		.loc 1 87 0 is_stmt 0 discriminator 1
  87 0040 B442     		cmp	r4, r6
  88 0042 F5DB     		blt	.L1
  89              	.L5:
  88:..\..\..\lvgl\version_6.1.2\lvgl\src\lv_draw/lv_draw_line.c ****     if(point1->y > mask->y2 + style->line.width && point2->y > mask->y2 + style->line.width) return
  90              		.loc 1 88 0 is_stmt 1
  91 0044 B0F90200 		ldrsh	r0, [r0, #2]
  92              	.LVL3:
  93 0048 B2F90240 		ldrsh	r4, [r2, #2]
  94 004c 0890     		str	r0, [sp, #32]
  95 004e 0546     		mov	r5, r0
  96 0050 E01B     		subs	r0, r4, r7
  97 0052 8542     		cmp	r5, r0
  98 0054 B1F90210 		ldrsh	r1, [r1, #2]
  99              	.LVL4:
 100 0058 C0F2F180 		blt	.L162
 101              	.L153:
  89:..\..\..\lvgl\version_6.1.2\lvgl\src\lv_draw/lv_draw_line.c **** 
 102              		.loc 1 89 0
ARM GAS  C:\Users\pearlstl\AppData\Local\Temp\ccuP9Sbb.s 			page 6


 103 005c B2F90600 		ldrsh	r0, [r2, #6]
 104 0060 089C     		ldr	r4, [sp, #32]
 105 0062 3844     		add	r0, r0, r7
 106 0064 8442     		cmp	r4, r0
 107 0066 0D46     		mov	r5, r1
 108 0068 01DD     		ble	.L8
  89:..\..\..\lvgl\version_6.1.2\lvgl\src\lv_draw/lv_draw_line.c **** 
 109              		.loc 1 89 0 is_stmt 0 discriminator 1
 110 006a 8842     		cmp	r0, r1
 111 006c E0DB     		blt	.L1
 112              	.L8:
  97:..\..\..\lvgl\version_6.1.2\lvgl\src\lv_draw/lv_draw_line.c **** 
 113              		.loc 1 97 0 is_stmt 1
 114 006e 0798     		ldr	r0, [sp, #28]
 115 0070 841B     		subs	r4, r0, r6
 116 0072 0898     		ldr	r0, [sp, #32]
 117 0074 401A     		subs	r0, r0, r1
 118 0076 002C     		cmp	r4, #0
 119 0078 80EAE07A 		eor	r10, r0, r0, asr #31
 120 007c B8BF     		it	lt
 121 007e 6442     		rsblt	r4, r4, #0
 122 0080 AAEBE07A 		sub	r10, r10, r0, asr #31
 123 0084 5445     		cmp	r4, r10
 124 0086 0394     		str	r4, [sp, #12]
 125 0088 40F3DD80 		ble	.L9
 100:..\..\..\lvgl\version_6.1.2\lvgl\src\lv_draw/lv_draw_line.c ****             p1.x = point1->x;
 126              		.loc 1 100 0
 127 008c 0798     		ldr	r0, [sp, #28]
 128 008e B042     		cmp	r0, r6
 129 0090 0446     		mov	r4, r0
 130 0092 C0F20681 		blt	.L163
 131              	.L10:
 132              	.LVL5:
 133              	.LBB43:
 134              	.LBB44:
 178:..\..\..\lvgl\version_6.1.2\lvgl\src\lv_draw/lv_draw_line.c **** 
 179:..\..\..\lvgl\version_6.1.2\lvgl\src\lv_draw/lv_draw_line.c **** /**********************
 180:..\..\..\lvgl\version_6.1.2\lvgl\src\lv_draw/lv_draw_line.c ****  *   STATIC FUNCTIONS
 181:..\..\..\lvgl\version_6.1.2\lvgl\src\lv_draw/lv_draw_line.c ****  **********************/
 182:..\..\..\lvgl\version_6.1.2\lvgl\src\lv_draw/lv_draw_line.c **** 
 183:..\..\..\lvgl\version_6.1.2\lvgl\src\lv_draw/lv_draw_line.c **** static void line_draw_hor(line_draw_t * main_line, const lv_area_t * mask, const lv_style_t * style
 184:..\..\..\lvgl\version_6.1.2\lvgl\src\lv_draw/lv_draw_line.c **** {
 185:..\..\..\lvgl\version_6.1.2\lvgl\src\lv_draw/lv_draw_line.c ****     lv_coord_t width      = style->line.width - 1;
 186:..\..\..\lvgl\version_6.1.2\lvgl\src\lv_draw/lv_draw_line.c ****     lv_coord_t width_half = width >> 1;
 187:..\..\..\lvgl\version_6.1.2\lvgl\src\lv_draw/lv_draw_line.c ****     lv_coord_t width_1    = width & 0x1;
 188:..\..\..\lvgl\version_6.1.2\lvgl\src\lv_draw/lv_draw_line.c ****     lv_opa_t opa = opa_scale == LV_OPA_COVER ? style->line.opa : (uint16_t)((uint16_t)style->line.o
 189:..\..\..\lvgl\version_6.1.2\lvgl\src\lv_draw/lv_draw_line.c **** 
 190:..\..\..\lvgl\version_6.1.2\lvgl\src\lv_draw/lv_draw_line.c ****     lv_area_t act_area;
 191:..\..\..\lvgl\version_6.1.2\lvgl\src\lv_draw/lv_draw_line.c ****     act_area.x1 = main_line->p1.x;
 192:..\..\..\lvgl\version_6.1.2\lvgl\src\lv_draw/lv_draw_line.c ****     act_area.x2 = main_line->p2.x;
 193:..\..\..\lvgl\version_6.1.2\lvgl\src\lv_draw/lv_draw_line.c ****     act_area.y1 = main_line->p1.y - width_half - width_1;
 194:..\..\..\lvgl\version_6.1.2\lvgl\src\lv_draw/lv_draw_line.c ****     act_area.y2 = main_line->p2.y + width_half;
 195:..\..\..\lvgl\version_6.1.2\lvgl\src\lv_draw/lv_draw_line.c **** 
 196:..\..\..\lvgl\version_6.1.2\lvgl\src\lv_draw/lv_draw_line.c ****     lv_area_t draw_area;
 197:..\..\..\lvgl\version_6.1.2\lvgl\src\lv_draw/lv_draw_line.c ****     draw_area.x1 = LV_MATH_MIN(act_area.x1, act_area.x2);
 198:..\..\..\lvgl\version_6.1.2\lvgl\src\lv_draw/lv_draw_line.c ****     draw_area.x2 = LV_MATH_MAX(act_area.x1, act_area.x2);
 199:..\..\..\lvgl\version_6.1.2\lvgl\src\lv_draw/lv_draw_line.c ****     draw_area.y1 = LV_MATH_MIN(act_area.y1, act_area.y2);
ARM GAS  C:\Users\pearlstl\AppData\Local\Temp\ccuP9Sbb.s 			page 7


 200:..\..\..\lvgl\version_6.1.2\lvgl\src\lv_draw/lv_draw_line.c ****     draw_area.y2 = LV_MATH_MAX(act_area.y1, act_area.y2);
 201:..\..\..\lvgl\version_6.1.2\lvgl\src\lv_draw/lv_draw_line.c ****     lv_draw_fill(&draw_area, mask, style->line.color, opa);
 202:..\..\..\lvgl\version_6.1.2\lvgl\src\lv_draw/lv_draw_line.c **** }
 203:..\..\..\lvgl\version_6.1.2\lvgl\src\lv_draw/lv_draw_line.c **** 
 204:..\..\..\lvgl\version_6.1.2\lvgl\src\lv_draw/lv_draw_line.c **** static void line_draw_ver(line_draw_t * main_line, const lv_area_t * mask, const lv_style_t * style
 205:..\..\..\lvgl\version_6.1.2\lvgl\src\lv_draw/lv_draw_line.c **** {
 206:..\..\..\lvgl\version_6.1.2\lvgl\src\lv_draw/lv_draw_line.c ****     lv_coord_t width      = style->line.width - 1;
 207:..\..\..\lvgl\version_6.1.2\lvgl\src\lv_draw/lv_draw_line.c ****     lv_coord_t width_half = width >> 1;
 208:..\..\..\lvgl\version_6.1.2\lvgl\src\lv_draw/lv_draw_line.c ****     lv_coord_t width_1    = width & 0x1;
 209:..\..\..\lvgl\version_6.1.2\lvgl\src\lv_draw/lv_draw_line.c ****     lv_opa_t opa = opa_scale == LV_OPA_COVER ? style->line.opa : (uint16_t)((uint16_t)style->line.o
 210:..\..\..\lvgl\version_6.1.2\lvgl\src\lv_draw/lv_draw_line.c **** 
 211:..\..\..\lvgl\version_6.1.2\lvgl\src\lv_draw/lv_draw_line.c ****     lv_area_t act_area;
 212:..\..\..\lvgl\version_6.1.2\lvgl\src\lv_draw/lv_draw_line.c ****     act_area.x1 = main_line->p1.x - width_half;
 213:..\..\..\lvgl\version_6.1.2\lvgl\src\lv_draw/lv_draw_line.c ****     act_area.x2 = main_line->p2.x + width_half + width_1;
 214:..\..\..\lvgl\version_6.1.2\lvgl\src\lv_draw/lv_draw_line.c ****     act_area.y1 = main_line->p1.y;
 215:..\..\..\lvgl\version_6.1.2\lvgl\src\lv_draw/lv_draw_line.c ****     act_area.y2 = main_line->p2.y;
 216:..\..\..\lvgl\version_6.1.2\lvgl\src\lv_draw/lv_draw_line.c **** 
 217:..\..\..\lvgl\version_6.1.2\lvgl\src\lv_draw/lv_draw_line.c ****     lv_area_t draw_area;
 218:..\..\..\lvgl\version_6.1.2\lvgl\src\lv_draw/lv_draw_line.c ****     draw_area.x1 = LV_MATH_MIN(act_area.x1, act_area.x2);
 219:..\..\..\lvgl\version_6.1.2\lvgl\src\lv_draw/lv_draw_line.c ****     draw_area.x2 = LV_MATH_MAX(act_area.x1, act_area.x2);
 220:..\..\..\lvgl\version_6.1.2\lvgl\src\lv_draw/lv_draw_line.c ****     draw_area.y1 = LV_MATH_MIN(act_area.y1, act_area.y2);
 221:..\..\..\lvgl\version_6.1.2\lvgl\src\lv_draw/lv_draw_line.c ****     draw_area.y2 = LV_MATH_MAX(act_area.y1, act_area.y2);
 222:..\..\..\lvgl\version_6.1.2\lvgl\src\lv_draw/lv_draw_line.c ****     lv_draw_fill(&draw_area, mask, style->line.color, opa);
 223:..\..\..\lvgl\version_6.1.2\lvgl\src\lv_draw/lv_draw_line.c **** }
 224:..\..\..\lvgl\version_6.1.2\lvgl\src\lv_draw/lv_draw_line.c **** 
 225:..\..\..\lvgl\version_6.1.2\lvgl\src\lv_draw/lv_draw_line.c **** static void line_draw_skew(line_draw_t * main_line, bool dir_ori, const lv_area_t * mask, const lv_
 226:..\..\..\lvgl\version_6.1.2\lvgl\src\lv_draw/lv_draw_line.c ****                            lv_opa_t opa_scale)
 227:..\..\..\lvgl\version_6.1.2\lvgl\src\lv_draw/lv_draw_line.c **** {
 228:..\..\..\lvgl\version_6.1.2\lvgl\src\lv_draw/lv_draw_line.c **** 
 229:..\..\..\lvgl\version_6.1.2\lvgl\src\lv_draw/lv_draw_line.c ****     lv_opa_t opa = opa_scale == LV_OPA_COVER ? style->line.opa : (uint16_t)((uint16_t)style->line.o
 230:..\..\..\lvgl\version_6.1.2\lvgl\src\lv_draw/lv_draw_line.c **** #if LV_ANTIALIAS
 231:..\..\..\lvgl\version_6.1.2\lvgl\src\lv_draw/lv_draw_line.c ****     bool aa = lv_disp_get_antialiasing(lv_refr_get_disp_refreshing());
 232:..\..\..\lvgl\version_6.1.2\lvgl\src\lv_draw/lv_draw_line.c **** #endif
 233:..\..\..\lvgl\version_6.1.2\lvgl\src\lv_draw/lv_draw_line.c ****     lv_point_t vect_main, vect_norm;
 234:..\..\..\lvgl\version_6.1.2\lvgl\src\lv_draw/lv_draw_line.c ****     vect_main.x = main_line->p2.x - main_line->p1.x;
 235:..\..\..\lvgl\version_6.1.2\lvgl\src\lv_draw/lv_draw_line.c ****     vect_main.y = main_line->p2.y - main_line->p1.y;
 236:..\..\..\lvgl\version_6.1.2\lvgl\src\lv_draw/lv_draw_line.c **** 
 237:..\..\..\lvgl\version_6.1.2\lvgl\src\lv_draw/lv_draw_line.c ****     if(main_line->hor) {
 238:..\..\..\lvgl\version_6.1.2\lvgl\src\lv_draw/lv_draw_line.c ****         if(main_line->p1.y < main_line->p2.y + dir_ori) {
 239:..\..\..\lvgl\version_6.1.2\lvgl\src\lv_draw/lv_draw_line.c ****             vect_norm.x = -vect_main.y;
 240:..\..\..\lvgl\version_6.1.2\lvgl\src\lv_draw/lv_draw_line.c ****             vect_norm.y = vect_main.x;
 241:..\..\..\lvgl\version_6.1.2\lvgl\src\lv_draw/lv_draw_line.c ****         } else {
 242:..\..\..\lvgl\version_6.1.2\lvgl\src\lv_draw/lv_draw_line.c ****             vect_norm.x = vect_main.y;
 243:..\..\..\lvgl\version_6.1.2\lvgl\src\lv_draw/lv_draw_line.c ****             vect_norm.y = -vect_main.x;
 244:..\..\..\lvgl\version_6.1.2\lvgl\src\lv_draw/lv_draw_line.c ****         }
 245:..\..\..\lvgl\version_6.1.2\lvgl\src\lv_draw/lv_draw_line.c ****     } else {
 246:..\..\..\lvgl\version_6.1.2\lvgl\src\lv_draw/lv_draw_line.c ****         if(main_line->p1.x < main_line->p2.x + dir_ori) {
 247:..\..\..\lvgl\version_6.1.2\lvgl\src\lv_draw/lv_draw_line.c ****             vect_norm.x = vect_main.y;
 248:..\..\..\lvgl\version_6.1.2\lvgl\src\lv_draw/lv_draw_line.c ****             vect_norm.y = -vect_main.x;
 249:..\..\..\lvgl\version_6.1.2\lvgl\src\lv_draw/lv_draw_line.c ****         } else {
 250:..\..\..\lvgl\version_6.1.2\lvgl\src\lv_draw/lv_draw_line.c ****             vect_norm.x = -vect_main.y;
 251:..\..\..\lvgl\version_6.1.2\lvgl\src\lv_draw/lv_draw_line.c ****             vect_norm.y = vect_main.x;
 252:..\..\..\lvgl\version_6.1.2\lvgl\src\lv_draw/lv_draw_line.c ****         }
 253:..\..\..\lvgl\version_6.1.2\lvgl\src\lv_draw/lv_draw_line.c ****     }
 254:..\..\..\lvgl\version_6.1.2\lvgl\src\lv_draw/lv_draw_line.c **** 
 255:..\..\..\lvgl\version_6.1.2\lvgl\src\lv_draw/lv_draw_line.c ****     /* In case of a short but tick line the perpendicular ending is longer then the real line.
 256:..\..\..\lvgl\version_6.1.2\lvgl\src\lv_draw/lv_draw_line.c ****      * it would break the calculations so make the normal vector larger*/
ARM GAS  C:\Users\pearlstl\AppData\Local\Temp\ccuP9Sbb.s 			page 8


 257:..\..\..\lvgl\version_6.1.2\lvgl\src\lv_draw/lv_draw_line.c ****     vect_norm.x = vect_norm.x << 4;
 258:..\..\..\lvgl\version_6.1.2\lvgl\src\lv_draw/lv_draw_line.c ****     vect_norm.y = vect_norm.y << 4;
 259:..\..\..\lvgl\version_6.1.2\lvgl\src\lv_draw/lv_draw_line.c **** 
 260:..\..\..\lvgl\version_6.1.2\lvgl\src\lv_draw/lv_draw_line.c ****     lv_coord_t width;
 261:..\..\..\lvgl\version_6.1.2\lvgl\src\lv_draw/lv_draw_line.c ****     width = style->line.width;
 262:..\..\..\lvgl\version_6.1.2\lvgl\src\lv_draw/lv_draw_line.c **** 
 263:..\..\..\lvgl\version_6.1.2\lvgl\src\lv_draw/lv_draw_line.c ****     /* The pattern stores the points of the line ending. It has the good direction and length.
 264:..\..\..\lvgl\version_6.1.2\lvgl\src\lv_draw/lv_draw_line.c ****      * The worth case is the 45° line where pattern can have 1.41 x `width` points*/
 265:..\..\..\lvgl\version_6.1.2\lvgl\src\lv_draw/lv_draw_line.c **** 
 266:..\..\..\lvgl\version_6.1.2\lvgl\src\lv_draw/lv_draw_line.c ****     lv_coord_t pattern_size = width * 2;
 267:..\..\..\lvgl\version_6.1.2\lvgl\src\lv_draw/lv_draw_line.c ****     lv_point_t * pattern = lv_draw_get_buf(pattern_size * sizeof(lv_point_t));
 268:..\..\..\lvgl\version_6.1.2\lvgl\src\lv_draw/lv_draw_line.c ****     lv_coord_t i = 0;
 269:..\..\..\lvgl\version_6.1.2\lvgl\src\lv_draw/lv_draw_line.c **** 
 270:..\..\..\lvgl\version_6.1.2\lvgl\src\lv_draw/lv_draw_line.c ****     /*Create a perpendicular pattern (a small line)*/
 271:..\..\..\lvgl\version_6.1.2\lvgl\src\lv_draw/lv_draw_line.c ****     if(width != 0) {
 272:..\..\..\lvgl\version_6.1.2\lvgl\src\lv_draw/lv_draw_line.c ****         line_draw_t pattern_line;
 273:..\..\..\lvgl\version_6.1.2\lvgl\src\lv_draw/lv_draw_line.c ****         lv_point_t p0 = {0, 0};
 274:..\..\..\lvgl\version_6.1.2\lvgl\src\lv_draw/lv_draw_line.c ****         line_init(&pattern_line, &p0, &vect_norm);
 275:..\..\..\lvgl\version_6.1.2\lvgl\src\lv_draw/lv_draw_line.c **** 
 276:..\..\..\lvgl\version_6.1.2\lvgl\src\lv_draw/lv_draw_line.c ****         uint32_t width_sqr = width * width;
 277:..\..\..\lvgl\version_6.1.2\lvgl\src\lv_draw/lv_draw_line.c ****         /* Run for a lot of times. Meanwhile the real width will be determined as well */
 278:..\..\..\lvgl\version_6.1.2\lvgl\src\lv_draw/lv_draw_line.c ****         for(i = 0; i < (lv_coord_t)pattern_size - 1; i++) {
 279:..\..\..\lvgl\version_6.1.2\lvgl\src\lv_draw/lv_draw_line.c ****             pattern[i].x = pattern_line.p_act.x;
 280:..\..\..\lvgl\version_6.1.2\lvgl\src\lv_draw/lv_draw_line.c ****             pattern[i].y = pattern_line.p_act.y;
 281:..\..\..\lvgl\version_6.1.2\lvgl\src\lv_draw/lv_draw_line.c **** 
 282:..\..\..\lvgl\version_6.1.2\lvgl\src\lv_draw/lv_draw_line.c ****             /*Finish the pattern line if it's length equal to the desired width (Use Pythagoras
 283:..\..\..\lvgl\version_6.1.2\lvgl\src\lv_draw/lv_draw_line.c ****              * theorem)*/
 284:..\..\..\lvgl\version_6.1.2\lvgl\src\lv_draw/lv_draw_line.c ****             uint32_t sqr = pattern_line.p_act.x * pattern_line.p_act.x + pattern_line.p_act.y * pat
 285:..\..\..\lvgl\version_6.1.2\lvgl\src\lv_draw/lv_draw_line.c ****             if(sqr >= width_sqr) {
 286:..\..\..\lvgl\version_6.1.2\lvgl\src\lv_draw/lv_draw_line.c ****                 width = i;
 287:..\..\..\lvgl\version_6.1.2\lvgl\src\lv_draw/lv_draw_line.c **** #if LV_ANTIALIAS
 288:..\..\..\lvgl\version_6.1.2\lvgl\src\lv_draw/lv_draw_line.c ****                 if(aa) width--;
 289:..\..\..\lvgl\version_6.1.2\lvgl\src\lv_draw/lv_draw_line.c **** #endif
 290:..\..\..\lvgl\version_6.1.2\lvgl\src\lv_draw/lv_draw_line.c ****                 break;
 291:..\..\..\lvgl\version_6.1.2\lvgl\src\lv_draw/lv_draw_line.c ****             }
 292:..\..\..\lvgl\version_6.1.2\lvgl\src\lv_draw/lv_draw_line.c **** 
 293:..\..\..\lvgl\version_6.1.2\lvgl\src\lv_draw/lv_draw_line.c ****             line_next(&pattern_line);
 294:..\..\..\lvgl\version_6.1.2\lvgl\src\lv_draw/lv_draw_line.c ****         }
 295:..\..\..\lvgl\version_6.1.2\lvgl\src\lv_draw/lv_draw_line.c ****     }
 296:..\..\..\lvgl\version_6.1.2\lvgl\src\lv_draw/lv_draw_line.c **** 
 297:..\..\..\lvgl\version_6.1.2\lvgl\src\lv_draw/lv_draw_line.c **** #if LV_ANTIALIAS
 298:..\..\..\lvgl\version_6.1.2\lvgl\src\lv_draw/lv_draw_line.c ****     lv_coord_t aa_last_corner;
 299:..\..\..\lvgl\version_6.1.2\lvgl\src\lv_draw/lv_draw_line.c ****     lv_coord_t width_safe = width;
 300:..\..\..\lvgl\version_6.1.2\lvgl\src\lv_draw/lv_draw_line.c ****     if(aa) {
 301:..\..\..\lvgl\version_6.1.2\lvgl\src\lv_draw/lv_draw_line.c ****         if(width == 0) width_safe = 1;
 302:..\..\..\lvgl\version_6.1.2\lvgl\src\lv_draw/lv_draw_line.c **** 
 303:..\..\..\lvgl\version_6.1.2\lvgl\src\lv_draw/lv_draw_line.c ****         aa_last_corner = 0;
 304:..\..\..\lvgl\version_6.1.2\lvgl\src\lv_draw/lv_draw_line.c ****     }
 305:..\..\..\lvgl\version_6.1.2\lvgl\src\lv_draw/lv_draw_line.c **** #endif
 306:..\..\..\lvgl\version_6.1.2\lvgl\src\lv_draw/lv_draw_line.c **** 
 307:..\..\..\lvgl\version_6.1.2\lvgl\src\lv_draw/lv_draw_line.c ****     lv_coord_t x_center_ofs = 0;
 308:..\..\..\lvgl\version_6.1.2\lvgl\src\lv_draw/lv_draw_line.c ****     lv_coord_t y_center_ofs = 0;
 309:..\..\..\lvgl\version_6.1.2\lvgl\src\lv_draw/lv_draw_line.c **** 
 310:..\..\..\lvgl\version_6.1.2\lvgl\src\lv_draw/lv_draw_line.c ****     if(width != 0) {
 311:..\..\..\lvgl\version_6.1.2\lvgl\src\lv_draw/lv_draw_line.c ****         x_center_ofs = pattern[width - 1].x / 2;
 312:..\..\..\lvgl\version_6.1.2\lvgl\src\lv_draw/lv_draw_line.c ****         y_center_ofs = pattern[width - 1].y / 2;
 313:..\..\..\lvgl\version_6.1.2\lvgl\src\lv_draw/lv_draw_line.c ****     } else {
ARM GAS  C:\Users\pearlstl\AppData\Local\Temp\ccuP9Sbb.s 			page 9


 314:..\..\..\lvgl\version_6.1.2\lvgl\src\lv_draw/lv_draw_line.c ****         if(main_line->hor && main_line->p1.y >= main_line->p2.y + dir_ori) pattern[0].y--;
 315:..\..\..\lvgl\version_6.1.2\lvgl\src\lv_draw/lv_draw_line.c ****         if(!main_line->hor && main_line->p1.x >= main_line->p2.x + dir_ori) pattern[0].x--;
 316:..\..\..\lvgl\version_6.1.2\lvgl\src\lv_draw/lv_draw_line.c ****     }
 317:..\..\..\lvgl\version_6.1.2\lvgl\src\lv_draw/lv_draw_line.c **** 
 318:..\..\..\lvgl\version_6.1.2\lvgl\src\lv_draw/lv_draw_line.c ****     /* Make the coordinates relative to the center */
 319:..\..\..\lvgl\version_6.1.2\lvgl\src\lv_draw/lv_draw_line.c ****     for(i = 0; i < width; i++) {
 320:..\..\..\lvgl\version_6.1.2\lvgl\src\lv_draw/lv_draw_line.c ****         pattern[i].x -= x_center_ofs;
 321:..\..\..\lvgl\version_6.1.2\lvgl\src\lv_draw/lv_draw_line.c ****         pattern[i].y -= y_center_ofs;
 322:..\..\..\lvgl\version_6.1.2\lvgl\src\lv_draw/lv_draw_line.c **** #if LV_ANTIALIAS
 323:..\..\..\lvgl\version_6.1.2\lvgl\src\lv_draw/lv_draw_line.c ****         if(aa) {
 324:..\..\..\lvgl\version_6.1.2\lvgl\src\lv_draw/lv_draw_line.c ****             if(i != 0) {
 325:..\..\..\lvgl\version_6.1.2\lvgl\src\lv_draw/lv_draw_line.c ****                 if(main_line->hor) {
 326:..\..\..\lvgl\version_6.1.2\lvgl\src\lv_draw/lv_draw_line.c ****                     if(pattern[i - 1].x != pattern[i].x) {
 327:..\..\..\lvgl\version_6.1.2\lvgl\src\lv_draw/lv_draw_line.c ****                         lv_coord_t seg_w = pattern[i].y - pattern[aa_last_corner].y;
 328:..\..\..\lvgl\version_6.1.2\lvgl\src\lv_draw/lv_draw_line.c ****                         if(main_line->sy < 0) {
 329:..\..\..\lvgl\version_6.1.2\lvgl\src\lv_draw/lv_draw_line.c ****                             lv_draw_aa_ver_seg(main_line->p1.x + pattern[aa_last_corner].x - 1,
 330:..\..\..\lvgl\version_6.1.2\lvgl\src\lv_draw/lv_draw_line.c ****                                                main_line->p1.y + pattern[aa_last_corner].y + seg_w 
 331:..\..\..\lvgl\version_6.1.2\lvgl\src\lv_draw/lv_draw_line.c ****                                                style->line.color, opa);
 332:..\..\..\lvgl\version_6.1.2\lvgl\src\lv_draw/lv_draw_line.c **** 
 333:..\..\..\lvgl\version_6.1.2\lvgl\src\lv_draw/lv_draw_line.c ****                             lv_draw_aa_ver_seg(main_line->p2.x + pattern[aa_last_corner].x + 1,
 334:..\..\..\lvgl\version_6.1.2\lvgl\src\lv_draw/lv_draw_line.c ****                                                main_line->p2.y + pattern[aa_last_corner].y + seg_w 
 335:..\..\..\lvgl\version_6.1.2\lvgl\src\lv_draw/lv_draw_line.c ****                                                style->line.color, opa);
 336:..\..\..\lvgl\version_6.1.2\lvgl\src\lv_draw/lv_draw_line.c ****                         } else {
 337:..\..\..\lvgl\version_6.1.2\lvgl\src\lv_draw/lv_draw_line.c ****                             lv_draw_aa_ver_seg(main_line->p1.x + pattern[aa_last_corner].x - 1,
 338:..\..\..\lvgl\version_6.1.2\lvgl\src\lv_draw/lv_draw_line.c ****                                                main_line->p1.y + pattern[aa_last_corner].y, seg_w, 
 339:..\..\..\lvgl\version_6.1.2\lvgl\src\lv_draw/lv_draw_line.c ****                                                style->line.color, opa);
 340:..\..\..\lvgl\version_6.1.2\lvgl\src\lv_draw/lv_draw_line.c **** 
 341:..\..\..\lvgl\version_6.1.2\lvgl\src\lv_draw/lv_draw_line.c ****                             lv_draw_aa_ver_seg(main_line->p2.x + pattern[aa_last_corner].x + 1,
 342:..\..\..\lvgl\version_6.1.2\lvgl\src\lv_draw/lv_draw_line.c ****                                                main_line->p2.y + pattern[aa_last_corner].y, -seg_w,
 343:..\..\..\lvgl\version_6.1.2\lvgl\src\lv_draw/lv_draw_line.c ****                                                style->line.color, opa);
 344:..\..\..\lvgl\version_6.1.2\lvgl\src\lv_draw/lv_draw_line.c ****                         }
 345:..\..\..\lvgl\version_6.1.2\lvgl\src\lv_draw/lv_draw_line.c ****                         aa_last_corner = i;
 346:..\..\..\lvgl\version_6.1.2\lvgl\src\lv_draw/lv_draw_line.c ****                     }
 347:..\..\..\lvgl\version_6.1.2\lvgl\src\lv_draw/lv_draw_line.c ****                 } else {
 348:..\..\..\lvgl\version_6.1.2\lvgl\src\lv_draw/lv_draw_line.c ****                     if(pattern[i - 1].y != pattern[i].y) {
 349:..\..\..\lvgl\version_6.1.2\lvgl\src\lv_draw/lv_draw_line.c ****                         lv_coord_t seg_w = pattern[i].x - pattern[aa_last_corner].x;
 350:..\..\..\lvgl\version_6.1.2\lvgl\src\lv_draw/lv_draw_line.c ****                         if(main_line->sx < 0) {
 351:..\..\..\lvgl\version_6.1.2\lvgl\src\lv_draw/lv_draw_line.c ****                             lv_draw_aa_hor_seg(main_line->p1.x + pattern[aa_last_corner].x + seg_w 
 352:..\..\..\lvgl\version_6.1.2\lvgl\src\lv_draw/lv_draw_line.c ****                                                main_line->p1.y + pattern[aa_last_corner].y - 1, seg
 353:..\..\..\lvgl\version_6.1.2\lvgl\src\lv_draw/lv_draw_line.c ****                                                style->line.color, opa);
 354:..\..\..\lvgl\version_6.1.2\lvgl\src\lv_draw/lv_draw_line.c **** 
 355:..\..\..\lvgl\version_6.1.2\lvgl\src\lv_draw/lv_draw_line.c ****                             lv_draw_aa_hor_seg(main_line->p2.x + pattern[aa_last_corner].x + seg_w 
 356:..\..\..\lvgl\version_6.1.2\lvgl\src\lv_draw/lv_draw_line.c ****                                                main_line->p2.y + pattern[aa_last_corner].y + 1, -se
 357:..\..\..\lvgl\version_6.1.2\lvgl\src\lv_draw/lv_draw_line.c ****                                                style->line.color, opa);
 358:..\..\..\lvgl\version_6.1.2\lvgl\src\lv_draw/lv_draw_line.c ****                         } else {
 359:..\..\..\lvgl\version_6.1.2\lvgl\src\lv_draw/lv_draw_line.c ****                             lv_draw_aa_hor_seg(main_line->p1.x + pattern[aa_last_corner].x,
 360:..\..\..\lvgl\version_6.1.2\lvgl\src\lv_draw/lv_draw_line.c ****                                                main_line->p1.y + pattern[aa_last_corner].y - 1, seg
 361:..\..\..\lvgl\version_6.1.2\lvgl\src\lv_draw/lv_draw_line.c ****                                                style->line.color, opa);
 362:..\..\..\lvgl\version_6.1.2\lvgl\src\lv_draw/lv_draw_line.c **** 
 363:..\..\..\lvgl\version_6.1.2\lvgl\src\lv_draw/lv_draw_line.c ****                             lv_draw_aa_hor_seg(main_line->p2.x + pattern[aa_last_corner].x,
 364:..\..\..\lvgl\version_6.1.2\lvgl\src\lv_draw/lv_draw_line.c ****                                                main_line->p2.y + pattern[aa_last_corner].y + 1, -se
 365:..\..\..\lvgl\version_6.1.2\lvgl\src\lv_draw/lv_draw_line.c ****                                                style->line.color, opa);
 366:..\..\..\lvgl\version_6.1.2\lvgl\src\lv_draw/lv_draw_line.c ****                         }
 367:..\..\..\lvgl\version_6.1.2\lvgl\src\lv_draw/lv_draw_line.c ****                         aa_last_corner = i;
 368:..\..\..\lvgl\version_6.1.2\lvgl\src\lv_draw/lv_draw_line.c ****                     }
 369:..\..\..\lvgl\version_6.1.2\lvgl\src\lv_draw/lv_draw_line.c ****                 }
 370:..\..\..\lvgl\version_6.1.2\lvgl\src\lv_draw/lv_draw_line.c ****             }
ARM GAS  C:\Users\pearlstl\AppData\Local\Temp\ccuP9Sbb.s 			page 10


 371:..\..\..\lvgl\version_6.1.2\lvgl\src\lv_draw/lv_draw_line.c ****         }
 372:..\..\..\lvgl\version_6.1.2\lvgl\src\lv_draw/lv_draw_line.c **** #endif
 373:..\..\..\lvgl\version_6.1.2\lvgl\src\lv_draw/lv_draw_line.c ****     }
 374:..\..\..\lvgl\version_6.1.2\lvgl\src\lv_draw/lv_draw_line.c **** 
 375:..\..\..\lvgl\version_6.1.2\lvgl\src\lv_draw/lv_draw_line.c **** #if LV_ANTIALIAS
 376:..\..\..\lvgl\version_6.1.2\lvgl\src\lv_draw/lv_draw_line.c ****     /*Add the last part of anti-aliasing for the perpendicular ending*/
 377:..\..\..\lvgl\version_6.1.2\lvgl\src\lv_draw/lv_draw_line.c ****     if(width != 0 && aa) { /*Due to rounding error with very thin lines it looks ugly*/
 378:..\..\..\lvgl\version_6.1.2\lvgl\src\lv_draw/lv_draw_line.c ****         if(main_line->hor) {
 379:..\..\..\lvgl\version_6.1.2\lvgl\src\lv_draw/lv_draw_line.c ****             lv_coord_t seg_w = pattern[width_safe - 1].y - pattern[aa_last_corner].y;
 380:..\..\..\lvgl\version_6.1.2\lvgl\src\lv_draw/lv_draw_line.c ****             if(main_line->sy < 0) {
 381:..\..\..\lvgl\version_6.1.2\lvgl\src\lv_draw/lv_draw_line.c ****                 lv_draw_aa_ver_seg(main_line->p1.x + pattern[aa_last_corner].x - 1,
 382:..\..\..\lvgl\version_6.1.2\lvgl\src\lv_draw/lv_draw_line.c ****                                    main_line->p1.y + pattern[aa_last_corner].y + seg_w, seg_w + mai
 383:..\..\..\lvgl\version_6.1.2\lvgl\src\lv_draw/lv_draw_line.c ****                                    style->line.color, opa);
 384:..\..\..\lvgl\version_6.1.2\lvgl\src\lv_draw/lv_draw_line.c **** 
 385:..\..\..\lvgl\version_6.1.2\lvgl\src\lv_draw/lv_draw_line.c ****                 lv_draw_aa_ver_seg(main_line->p2.x + pattern[aa_last_corner].x + 1,
 386:..\..\..\lvgl\version_6.1.2\lvgl\src\lv_draw/lv_draw_line.c ****                                    main_line->p2.y + pattern[aa_last_corner].y + seg_w, -(seg_w + m
 387:..\..\..\lvgl\version_6.1.2\lvgl\src\lv_draw/lv_draw_line.c ****                                    style->line.color, opa);
 388:..\..\..\lvgl\version_6.1.2\lvgl\src\lv_draw/lv_draw_line.c **** 
 389:..\..\..\lvgl\version_6.1.2\lvgl\src\lv_draw/lv_draw_line.c ****             } else {
 390:..\..\..\lvgl\version_6.1.2\lvgl\src\lv_draw/lv_draw_line.c ****                 lv_draw_aa_ver_seg(main_line->p1.x + pattern[aa_last_corner].x - 1,
 391:..\..\..\lvgl\version_6.1.2\lvgl\src\lv_draw/lv_draw_line.c ****                                    main_line->p1.y + pattern[aa_last_corner].y, seg_w + main_line->
 392:..\..\..\lvgl\version_6.1.2\lvgl\src\lv_draw/lv_draw_line.c ****                                    style->line.color, opa);
 393:..\..\..\lvgl\version_6.1.2\lvgl\src\lv_draw/lv_draw_line.c **** 
 394:..\..\..\lvgl\version_6.1.2\lvgl\src\lv_draw/lv_draw_line.c ****                 lv_draw_aa_ver_seg(main_line->p2.x + pattern[aa_last_corner].x + 1,
 395:..\..\..\lvgl\version_6.1.2\lvgl\src\lv_draw/lv_draw_line.c ****                                    main_line->p2.y + pattern[aa_last_corner].y, -(seg_w + main_line
 396:..\..\..\lvgl\version_6.1.2\lvgl\src\lv_draw/lv_draw_line.c ****                                    style->line.color, opa);
 397:..\..\..\lvgl\version_6.1.2\lvgl\src\lv_draw/lv_draw_line.c ****             }
 398:..\..\..\lvgl\version_6.1.2\lvgl\src\lv_draw/lv_draw_line.c ****         } else {
 399:..\..\..\lvgl\version_6.1.2\lvgl\src\lv_draw/lv_draw_line.c ****             lv_coord_t seg_w = pattern[width_safe - 1].x - pattern[aa_last_corner].x;
 400:..\..\..\lvgl\version_6.1.2\lvgl\src\lv_draw/lv_draw_line.c ****             if(main_line->sx < 0) {
 401:..\..\..\lvgl\version_6.1.2\lvgl\src\lv_draw/lv_draw_line.c ****                 lv_draw_aa_hor_seg(main_line->p1.x + pattern[aa_last_corner].x + seg_w,
 402:..\..\..\lvgl\version_6.1.2\lvgl\src\lv_draw/lv_draw_line.c ****                                    main_line->p1.y + pattern[aa_last_corner].y - 1, seg_w + main_li
 403:..\..\..\lvgl\version_6.1.2\lvgl\src\lv_draw/lv_draw_line.c ****                                    style->line.color, opa);
 404:..\..\..\lvgl\version_6.1.2\lvgl\src\lv_draw/lv_draw_line.c **** 
 405:..\..\..\lvgl\version_6.1.2\lvgl\src\lv_draw/lv_draw_line.c ****                 lv_draw_aa_hor_seg(main_line->p2.x + pattern[aa_last_corner].x + seg_w,
 406:..\..\..\lvgl\version_6.1.2\lvgl\src\lv_draw/lv_draw_line.c ****                                    main_line->p2.y + pattern[aa_last_corner].y + 1, -(seg_w + main_
 407:..\..\..\lvgl\version_6.1.2\lvgl\src\lv_draw/lv_draw_line.c ****                                    style->line.color, opa);
 408:..\..\..\lvgl\version_6.1.2\lvgl\src\lv_draw/lv_draw_line.c **** 
 409:..\..\..\lvgl\version_6.1.2\lvgl\src\lv_draw/lv_draw_line.c ****             } else {
 410:..\..\..\lvgl\version_6.1.2\lvgl\src\lv_draw/lv_draw_line.c ****                 lv_draw_aa_hor_seg(main_line->p1.x + pattern[aa_last_corner].x,
 411:..\..\..\lvgl\version_6.1.2\lvgl\src\lv_draw/lv_draw_line.c ****                                    main_line->p1.y + pattern[aa_last_corner].y - 1, seg_w + main_li
 412:..\..\..\lvgl\version_6.1.2\lvgl\src\lv_draw/lv_draw_line.c ****                                    style->line.color, opa);
 413:..\..\..\lvgl\version_6.1.2\lvgl\src\lv_draw/lv_draw_line.c **** 
 414:..\..\..\lvgl\version_6.1.2\lvgl\src\lv_draw/lv_draw_line.c ****                 lv_draw_aa_hor_seg(main_line->p2.x + pattern[aa_last_corner].x,
 415:..\..\..\lvgl\version_6.1.2\lvgl\src\lv_draw/lv_draw_line.c ****                                    main_line->p2.y + pattern[aa_last_corner].y + 1, -(seg_w + main_
 416:..\..\..\lvgl\version_6.1.2\lvgl\src\lv_draw/lv_draw_line.c ****                                    style->line.color, opa);
 417:..\..\..\lvgl\version_6.1.2\lvgl\src\lv_draw/lv_draw_line.c ****             }
 418:..\..\..\lvgl\version_6.1.2\lvgl\src\lv_draw/lv_draw_line.c ****         }
 419:..\..\..\lvgl\version_6.1.2\lvgl\src\lv_draw/lv_draw_line.c ****     }
 420:..\..\..\lvgl\version_6.1.2\lvgl\src\lv_draw/lv_draw_line.c **** #endif
 421:..\..\..\lvgl\version_6.1.2\lvgl\src\lv_draw/lv_draw_line.c **** 
 422:..\..\..\lvgl\version_6.1.2\lvgl\src\lv_draw/lv_draw_line.c **** #if LV_ANTIALIAS
 423:..\..\..\lvgl\version_6.1.2\lvgl\src\lv_draw/lv_draw_line.c **** 
 424:..\..\..\lvgl\version_6.1.2\lvgl\src\lv_draw/lv_draw_line.c ****     /*Shift the anti aliasing on the edges (-1, 1 or 0 (zero only in case width == 0))*/
 425:..\..\..\lvgl\version_6.1.2\lvgl\src\lv_draw/lv_draw_line.c ****     lv_coord_t aa_shift1 = 0;
 426:..\..\..\lvgl\version_6.1.2\lvgl\src\lv_draw/lv_draw_line.c ****     lv_coord_t aa_shift2 = 0;
 427:..\..\..\lvgl\version_6.1.2\lvgl\src\lv_draw/lv_draw_line.c ****     if(aa) {
ARM GAS  C:\Users\pearlstl\AppData\Local\Temp\ccuP9Sbb.s 			page 11


 428:..\..\..\lvgl\version_6.1.2\lvgl\src\lv_draw/lv_draw_line.c ****         if(main_line->hor == false) {
 429:..\..\..\lvgl\version_6.1.2\lvgl\src\lv_draw/lv_draw_line.c ****             if(main_line->sx < 0) {
 430:..\..\..\lvgl\version_6.1.2\lvgl\src\lv_draw/lv_draw_line.c ****                 aa_shift1 = -1;
 431:..\..\..\lvgl\version_6.1.2\lvgl\src\lv_draw/lv_draw_line.c ****                 aa_shift2 = width == 0 ? 0 : aa_shift1;
 432:..\..\..\lvgl\version_6.1.2\lvgl\src\lv_draw/lv_draw_line.c ****             } else {
 433:..\..\..\lvgl\version_6.1.2\lvgl\src\lv_draw/lv_draw_line.c ****                 aa_shift2 = 1;
 434:..\..\..\lvgl\version_6.1.2\lvgl\src\lv_draw/lv_draw_line.c ****                 aa_shift1 = width == 0 ? 0 : aa_shift2;
 435:..\..\..\lvgl\version_6.1.2\lvgl\src\lv_draw/lv_draw_line.c ****             }
 436:..\..\..\lvgl\version_6.1.2\lvgl\src\lv_draw/lv_draw_line.c ****         } else {
 437:..\..\..\lvgl\version_6.1.2\lvgl\src\lv_draw/lv_draw_line.c ****             if(main_line->sy < 0) {
 438:..\..\..\lvgl\version_6.1.2\lvgl\src\lv_draw/lv_draw_line.c ****                 aa_shift1 = -1;
 439:..\..\..\lvgl\version_6.1.2\lvgl\src\lv_draw/lv_draw_line.c ****                 aa_shift2 = width == 0 ? 0 : aa_shift1;
 440:..\..\..\lvgl\version_6.1.2\lvgl\src\lv_draw/lv_draw_line.c ****             } else {
 441:..\..\..\lvgl\version_6.1.2\lvgl\src\lv_draw/lv_draw_line.c ****                 aa_shift2 = 1;
 442:..\..\..\lvgl\version_6.1.2\lvgl\src\lv_draw/lv_draw_line.c ****                 aa_shift1 = width == 0 ? 0 : aa_shift2;
 443:..\..\..\lvgl\version_6.1.2\lvgl\src\lv_draw/lv_draw_line.c ****             }
 444:..\..\..\lvgl\version_6.1.2\lvgl\src\lv_draw/lv_draw_line.c ****         }
 445:..\..\..\lvgl\version_6.1.2\lvgl\src\lv_draw/lv_draw_line.c ****     }
 446:..\..\..\lvgl\version_6.1.2\lvgl\src\lv_draw/lv_draw_line.c **** #endif
 447:..\..\..\lvgl\version_6.1.2\lvgl\src\lv_draw/lv_draw_line.c **** 
 448:..\..\..\lvgl\version_6.1.2\lvgl\src\lv_draw/lv_draw_line.c ****     volatile lv_point_t prev_p;
 449:..\..\..\lvgl\version_6.1.2\lvgl\src\lv_draw/lv_draw_line.c ****     prev_p.x = main_line->p1.x;
 450:..\..\..\lvgl\version_6.1.2\lvgl\src\lv_draw/lv_draw_line.c ****     prev_p.y = main_line->p1.y;
 451:..\..\..\lvgl\version_6.1.2\lvgl\src\lv_draw/lv_draw_line.c ****     lv_area_t draw_area;
 452:..\..\..\lvgl\version_6.1.2\lvgl\src\lv_draw/lv_draw_line.c ****     bool first_run = true;
 453:..\..\..\lvgl\version_6.1.2\lvgl\src\lv_draw/lv_draw_line.c **** 
 454:..\..\..\lvgl\version_6.1.2\lvgl\src\lv_draw/lv_draw_line.c ****     if(main_line->hor) {
 455:..\..\..\lvgl\version_6.1.2\lvgl\src\lv_draw/lv_draw_line.c ****         while(line_next_y(main_line)) {
 456:..\..\..\lvgl\version_6.1.2\lvgl\src\lv_draw/lv_draw_line.c ****             for(i = 0; i < width; i++) {
 457:..\..\..\lvgl\version_6.1.2\lvgl\src\lv_draw/lv_draw_line.c ****                 draw_area.x1 = prev_p.x + pattern[i].x;
 458:..\..\..\lvgl\version_6.1.2\lvgl\src\lv_draw/lv_draw_line.c ****                 draw_area.y1 = prev_p.y + pattern[i].y;
 459:..\..\..\lvgl\version_6.1.2\lvgl\src\lv_draw/lv_draw_line.c ****                 draw_area.x2 = draw_area.x1 + main_line->p_act.x - prev_p.x - 1;
 460:..\..\..\lvgl\version_6.1.2\lvgl\src\lv_draw/lv_draw_line.c ****                 draw_area.y2 = draw_area.y1;
 461:..\..\..\lvgl\version_6.1.2\lvgl\src\lv_draw/lv_draw_line.c ****                 lv_draw_fill(&draw_area, mask, style->line.color, opa);
 462:..\..\..\lvgl\version_6.1.2\lvgl\src\lv_draw/lv_draw_line.c **** 
 463:..\..\..\lvgl\version_6.1.2\lvgl\src\lv_draw/lv_draw_line.c ****                 /* Fill the gaps
 464:..\..\..\lvgl\version_6.1.2\lvgl\src\lv_draw/lv_draw_line.c ****                  * When stepping in y one pixel remains empty on every corner (don't do this on the
 465:..\..\..\lvgl\version_6.1.2\lvgl\src\lv_draw/lv_draw_line.c ****                  * first segment ) */
 466:..\..\..\lvgl\version_6.1.2\lvgl\src\lv_draw/lv_draw_line.c ****                 if(i != 0 && pattern[i].x != pattern[i - 1].x && !first_run) {
 467:..\..\..\lvgl\version_6.1.2\lvgl\src\lv_draw/lv_draw_line.c ****                     lv_draw_px(draw_area.x1, draw_area.y1 - main_line->sy, mask, style->line.color,
 468:..\..\..\lvgl\version_6.1.2\lvgl\src\lv_draw/lv_draw_line.c ****                 }
 469:..\..\..\lvgl\version_6.1.2\lvgl\src\lv_draw/lv_draw_line.c ****             }
 470:..\..\..\lvgl\version_6.1.2\lvgl\src\lv_draw/lv_draw_line.c **** 
 471:..\..\..\lvgl\version_6.1.2\lvgl\src\lv_draw/lv_draw_line.c **** #if LV_ANTIALIAS
 472:..\..\..\lvgl\version_6.1.2\lvgl\src\lv_draw/lv_draw_line.c ****             if(aa) {
 473:..\..\..\lvgl\version_6.1.2\lvgl\src\lv_draw/lv_draw_line.c ****                 lv_draw_aa_hor_seg(prev_p.x + pattern[0].x, prev_p.y + pattern[0].y - aa_shift1,
 474:..\..\..\lvgl\version_6.1.2\lvgl\src\lv_draw/lv_draw_line.c ****                                    -(main_line->p_act.x - prev_p.x), mask, style->line.color, opa);
 475:..\..\..\lvgl\version_6.1.2\lvgl\src\lv_draw/lv_draw_line.c ****                 lv_draw_aa_hor_seg(prev_p.x + pattern[width_safe - 1].x,
 476:..\..\..\lvgl\version_6.1.2\lvgl\src\lv_draw/lv_draw_line.c ****                                    prev_p.y + pattern[width_safe - 1].y + aa_shift2, main_line->p_a
 477:..\..\..\lvgl\version_6.1.2\lvgl\src\lv_draw/lv_draw_line.c ****                                    mask, style->line.color, opa);
 478:..\..\..\lvgl\version_6.1.2\lvgl\src\lv_draw/lv_draw_line.c ****             }
 479:..\..\..\lvgl\version_6.1.2\lvgl\src\lv_draw/lv_draw_line.c **** #endif
 480:..\..\..\lvgl\version_6.1.2\lvgl\src\lv_draw/lv_draw_line.c **** 
 481:..\..\..\lvgl\version_6.1.2\lvgl\src\lv_draw/lv_draw_line.c ****             first_run = false;
 482:..\..\..\lvgl\version_6.1.2\lvgl\src\lv_draw/lv_draw_line.c **** 
 483:..\..\..\lvgl\version_6.1.2\lvgl\src\lv_draw/lv_draw_line.c ****             prev_p.x = main_line->p_act.x;
 484:..\..\..\lvgl\version_6.1.2\lvgl\src\lv_draw/lv_draw_line.c ****             prev_p.y = main_line->p_act.y;
ARM GAS  C:\Users\pearlstl\AppData\Local\Temp\ccuP9Sbb.s 			page 12


 485:..\..\..\lvgl\version_6.1.2\lvgl\src\lv_draw/lv_draw_line.c ****         }
 486:..\..\..\lvgl\version_6.1.2\lvgl\src\lv_draw/lv_draw_line.c **** 
 487:..\..\..\lvgl\version_6.1.2\lvgl\src\lv_draw/lv_draw_line.c ****         for(i = 0; i < width; i++) {
 488:..\..\..\lvgl\version_6.1.2\lvgl\src\lv_draw/lv_draw_line.c ****             draw_area.x1 = prev_p.x + pattern[i].x;
 489:..\..\..\lvgl\version_6.1.2\lvgl\src\lv_draw/lv_draw_line.c ****             draw_area.y1 = prev_p.y + pattern[i].y;
 490:..\..\..\lvgl\version_6.1.2\lvgl\src\lv_draw/lv_draw_line.c ****             draw_area.x2 = draw_area.x1 + main_line->p_act.x - prev_p.x;
 491:..\..\..\lvgl\version_6.1.2\lvgl\src\lv_draw/lv_draw_line.c ****             draw_area.y2 = draw_area.y1;
 492:..\..\..\lvgl\version_6.1.2\lvgl\src\lv_draw/lv_draw_line.c ****             lv_draw_fill(&draw_area, mask, style->line.color, opa);
 493:..\..\..\lvgl\version_6.1.2\lvgl\src\lv_draw/lv_draw_line.c **** 
 494:..\..\..\lvgl\version_6.1.2\lvgl\src\lv_draw/lv_draw_line.c ****             /* Fill the gaps
 495:..\..\..\lvgl\version_6.1.2\lvgl\src\lv_draw/lv_draw_line.c ****              * When stepping in y one pixel remains empty on every corner */
 496:..\..\..\lvgl\version_6.1.2\lvgl\src\lv_draw/lv_draw_line.c ****             if(i != 0 && pattern[i].x != pattern[i - 1].x && !first_run) {
 497:..\..\..\lvgl\version_6.1.2\lvgl\src\lv_draw/lv_draw_line.c ****                 lv_draw_px(draw_area.x1, draw_area.y1 - main_line->sy, mask, style->line.color, opa
 498:..\..\..\lvgl\version_6.1.2\lvgl\src\lv_draw/lv_draw_line.c ****             }
 499:..\..\..\lvgl\version_6.1.2\lvgl\src\lv_draw/lv_draw_line.c ****         }
 500:..\..\..\lvgl\version_6.1.2\lvgl\src\lv_draw/lv_draw_line.c **** 
 501:..\..\..\lvgl\version_6.1.2\lvgl\src\lv_draw/lv_draw_line.c **** #if LV_ANTIALIAS
 502:..\..\..\lvgl\version_6.1.2\lvgl\src\lv_draw/lv_draw_line.c ****         if(aa) {
 503:..\..\..\lvgl\version_6.1.2\lvgl\src\lv_draw/lv_draw_line.c ****             lv_draw_aa_hor_seg(prev_p.x + pattern[0].x, prev_p.y + pattern[0].y - aa_shift1,
 504:..\..\..\lvgl\version_6.1.2\lvgl\src\lv_draw/lv_draw_line.c ****                                -(main_line->p_act.x - prev_p.x + 1), mask, style->line.color, opa);
 505:..\..\..\lvgl\version_6.1.2\lvgl\src\lv_draw/lv_draw_line.c ****             lv_draw_aa_hor_seg(prev_p.x + pattern[width_safe - 1].x, prev_p.y + pattern[width_safe 
 506:..\..\..\lvgl\version_6.1.2\lvgl\src\lv_draw/lv_draw_line.c ****                                main_line->p_act.x - prev_p.x + 1, mask, style->line.color, opa);
 507:..\..\..\lvgl\version_6.1.2\lvgl\src\lv_draw/lv_draw_line.c ****         }
 508:..\..\..\lvgl\version_6.1.2\lvgl\src\lv_draw/lv_draw_line.c **** #endif
 509:..\..\..\lvgl\version_6.1.2\lvgl\src\lv_draw/lv_draw_line.c ****     }
 510:..\..\..\lvgl\version_6.1.2\lvgl\src\lv_draw/lv_draw_line.c ****     /*Rather a vertical line*/
 511:..\..\..\lvgl\version_6.1.2\lvgl\src\lv_draw/lv_draw_line.c ****     else {
 512:..\..\..\lvgl\version_6.1.2\lvgl\src\lv_draw/lv_draw_line.c **** 
 513:..\..\..\lvgl\version_6.1.2\lvgl\src\lv_draw/lv_draw_line.c ****         while(line_next_x(main_line)) {
 514:..\..\..\lvgl\version_6.1.2\lvgl\src\lv_draw/lv_draw_line.c ****             for(i = 0; i < width; i++) {
 515:..\..\..\lvgl\version_6.1.2\lvgl\src\lv_draw/lv_draw_line.c ****                 draw_area.x1 = prev_p.x + pattern[i].x;
 516:..\..\..\lvgl\version_6.1.2\lvgl\src\lv_draw/lv_draw_line.c ****                 draw_area.y1 = prev_p.y + pattern[i].y;
 517:..\..\..\lvgl\version_6.1.2\lvgl\src\lv_draw/lv_draw_line.c ****                 draw_area.x2 = draw_area.x1;
 518:..\..\..\lvgl\version_6.1.2\lvgl\src\lv_draw/lv_draw_line.c ****                 draw_area.y2 = draw_area.y1 + main_line->p_act.y - prev_p.y - 1;
 519:..\..\..\lvgl\version_6.1.2\lvgl\src\lv_draw/lv_draw_line.c **** 
 520:..\..\..\lvgl\version_6.1.2\lvgl\src\lv_draw/lv_draw_line.c ****                 lv_draw_fill(&draw_area, mask, style->line.color, opa);
 521:..\..\..\lvgl\version_6.1.2\lvgl\src\lv_draw/lv_draw_line.c **** 
 522:..\..\..\lvgl\version_6.1.2\lvgl\src\lv_draw/lv_draw_line.c ****                 /* Fill the gaps
 523:..\..\..\lvgl\version_6.1.2\lvgl\src\lv_draw/lv_draw_line.c ****                  * When stepping in x one pixel remains empty on every corner (don't do this on the
 524:..\..\..\lvgl\version_6.1.2\lvgl\src\lv_draw/lv_draw_line.c ****                  * first segment ) */
 525:..\..\..\lvgl\version_6.1.2\lvgl\src\lv_draw/lv_draw_line.c ****                 if(i != 0 && pattern[i].y != pattern[i - 1].y && !first_run) {
 526:..\..\..\lvgl\version_6.1.2\lvgl\src\lv_draw/lv_draw_line.c ****                     lv_draw_px(draw_area.x1 - main_line->sx, draw_area.y1, mask, style->line.color,
 527:..\..\..\lvgl\version_6.1.2\lvgl\src\lv_draw/lv_draw_line.c ****                 }
 528:..\..\..\lvgl\version_6.1.2\lvgl\src\lv_draw/lv_draw_line.c ****             }
 529:..\..\..\lvgl\version_6.1.2\lvgl\src\lv_draw/lv_draw_line.c **** 
 530:..\..\..\lvgl\version_6.1.2\lvgl\src\lv_draw/lv_draw_line.c **** #if LV_ANTIALIAS
 531:..\..\..\lvgl\version_6.1.2\lvgl\src\lv_draw/lv_draw_line.c ****             if(aa) {
 532:..\..\..\lvgl\version_6.1.2\lvgl\src\lv_draw/lv_draw_line.c ****                 lv_draw_aa_ver_seg(prev_p.x + pattern[0].x - aa_shift1, prev_p.y + pattern[0].y,
 533:..\..\..\lvgl\version_6.1.2\lvgl\src\lv_draw/lv_draw_line.c ****                                    -(main_line->p_act.y - prev_p.y), mask, style->line.color, opa);
 534:..\..\..\lvgl\version_6.1.2\lvgl\src\lv_draw/lv_draw_line.c ****                 lv_draw_aa_ver_seg(prev_p.x + pattern[width_safe - 1].x + aa_shift2,
 535:..\..\..\lvgl\version_6.1.2\lvgl\src\lv_draw/lv_draw_line.c ****                                    prev_p.y + pattern[width_safe - 1].y, main_line->p_act.y - prev_
 536:..\..\..\lvgl\version_6.1.2\lvgl\src\lv_draw/lv_draw_line.c ****                                    style->line.color, opa);
 537:..\..\..\lvgl\version_6.1.2\lvgl\src\lv_draw/lv_draw_line.c ****             }
 538:..\..\..\lvgl\version_6.1.2\lvgl\src\lv_draw/lv_draw_line.c **** #endif
 539:..\..\..\lvgl\version_6.1.2\lvgl\src\lv_draw/lv_draw_line.c **** 
 540:..\..\..\lvgl\version_6.1.2\lvgl\src\lv_draw/lv_draw_line.c ****             first_run = false;
 541:..\..\..\lvgl\version_6.1.2\lvgl\src\lv_draw/lv_draw_line.c **** 
ARM GAS  C:\Users\pearlstl\AppData\Local\Temp\ccuP9Sbb.s 			page 13


 542:..\..\..\lvgl\version_6.1.2\lvgl\src\lv_draw/lv_draw_line.c ****             prev_p.x = main_line->p_act.x;
 543:..\..\..\lvgl\version_6.1.2\lvgl\src\lv_draw/lv_draw_line.c ****             prev_p.y = main_line->p_act.y;
 544:..\..\..\lvgl\version_6.1.2\lvgl\src\lv_draw/lv_draw_line.c ****         }
 545:..\..\..\lvgl\version_6.1.2\lvgl\src\lv_draw/lv_draw_line.c **** 
 546:..\..\..\lvgl\version_6.1.2\lvgl\src\lv_draw/lv_draw_line.c ****         /*Draw the last part*/
 547:..\..\..\lvgl\version_6.1.2\lvgl\src\lv_draw/lv_draw_line.c ****         for(i = 0; i < width; i++) {
 548:..\..\..\lvgl\version_6.1.2\lvgl\src\lv_draw/lv_draw_line.c ****             draw_area.x1 = prev_p.x + pattern[i].x;
 549:..\..\..\lvgl\version_6.1.2\lvgl\src\lv_draw/lv_draw_line.c ****             draw_area.y1 = prev_p.y + pattern[i].y;
 550:..\..\..\lvgl\version_6.1.2\lvgl\src\lv_draw/lv_draw_line.c ****             draw_area.x2 = draw_area.x1;
 551:..\..\..\lvgl\version_6.1.2\lvgl\src\lv_draw/lv_draw_line.c ****             draw_area.y2 = draw_area.y1 + main_line->p_act.y - prev_p.y;
 552:..\..\..\lvgl\version_6.1.2\lvgl\src\lv_draw/lv_draw_line.c **** 
 553:..\..\..\lvgl\version_6.1.2\lvgl\src\lv_draw/lv_draw_line.c ****             lv_draw_fill(&draw_area, mask, style->line.color, opa);
 554:..\..\..\lvgl\version_6.1.2\lvgl\src\lv_draw/lv_draw_line.c **** 
 555:..\..\..\lvgl\version_6.1.2\lvgl\src\lv_draw/lv_draw_line.c ****             /* Fill the gaps
 556:..\..\..\lvgl\version_6.1.2\lvgl\src\lv_draw/lv_draw_line.c ****              * When stepping in x one pixel remains empty on every corner */
 557:..\..\..\lvgl\version_6.1.2\lvgl\src\lv_draw/lv_draw_line.c ****             if(i != 0 && pattern[i].y != pattern[i - 1].y && !first_run) {
 558:..\..\..\lvgl\version_6.1.2\lvgl\src\lv_draw/lv_draw_line.c ****                 lv_draw_px(draw_area.x1 - main_line->sx, draw_area.y1, mask, style->line.color, opa
 559:..\..\..\lvgl\version_6.1.2\lvgl\src\lv_draw/lv_draw_line.c ****             }
 560:..\..\..\lvgl\version_6.1.2\lvgl\src\lv_draw/lv_draw_line.c ****         }
 561:..\..\..\lvgl\version_6.1.2\lvgl\src\lv_draw/lv_draw_line.c **** 
 562:..\..\..\lvgl\version_6.1.2\lvgl\src\lv_draw/lv_draw_line.c **** #if LV_ANTIALIAS
 563:..\..\..\lvgl\version_6.1.2\lvgl\src\lv_draw/lv_draw_line.c ****         if(aa) {
 564:..\..\..\lvgl\version_6.1.2\lvgl\src\lv_draw/lv_draw_line.c ****             lv_draw_aa_ver_seg(prev_p.x + pattern[0].x - aa_shift1, prev_p.y + pattern[0].y,
 565:..\..\..\lvgl\version_6.1.2\lvgl\src\lv_draw/lv_draw_line.c ****                                -(main_line->p_act.y - prev_p.y + 1), mask, style->line.color, opa);
 566:..\..\..\lvgl\version_6.1.2\lvgl\src\lv_draw/lv_draw_line.c ****             lv_draw_aa_ver_seg(prev_p.x + pattern[width_safe - 1].x + aa_shift2, prev_p.y + pattern
 567:..\..\..\lvgl\version_6.1.2\lvgl\src\lv_draw/lv_draw_line.c ****                                main_line->p_act.y - prev_p.y + 1, mask, style->line.color, opa);
 568:..\..\..\lvgl\version_6.1.2\lvgl\src\lv_draw/lv_draw_line.c ****         }
 569:..\..\..\lvgl\version_6.1.2\lvgl\src\lv_draw/lv_draw_line.c **** #endif
 570:..\..\..\lvgl\version_6.1.2\lvgl\src\lv_draw/lv_draw_line.c ****     }
 571:..\..\..\lvgl\version_6.1.2\lvgl\src\lv_draw/lv_draw_line.c **** }
 572:..\..\..\lvgl\version_6.1.2\lvgl\src\lv_draw/lv_draw_line.c **** 
 573:..\..\..\lvgl\version_6.1.2\lvgl\src\lv_draw/lv_draw_line.c **** static void line_init(line_draw_t * line, const lv_point_t * p1, const lv_point_t * p2)
 574:..\..\..\lvgl\version_6.1.2\lvgl\src\lv_draw/lv_draw_line.c **** {
 575:..\..\..\lvgl\version_6.1.2\lvgl\src\lv_draw/lv_draw_line.c ****     line->p1.x = p1->x;
 576:..\..\..\lvgl\version_6.1.2\lvgl\src\lv_draw/lv_draw_line.c ****     line->p1.y = p1->y;
 577:..\..\..\lvgl\version_6.1.2\lvgl\src\lv_draw/lv_draw_line.c ****     line->p2.x = p2->x;
 578:..\..\..\lvgl\version_6.1.2\lvgl\src\lv_draw/lv_draw_line.c ****     line->p2.y = p2->y;
 579:..\..\..\lvgl\version_6.1.2\lvgl\src\lv_draw/lv_draw_line.c **** 
 580:..\..\..\lvgl\version_6.1.2\lvgl\src\lv_draw/lv_draw_line.c ****     line->dx  = LV_MATH_ABS(line->p2.x - line->p1.x);
 581:..\..\..\lvgl\version_6.1.2\lvgl\src\lv_draw/lv_draw_line.c ****     line->sx  = line->p1.x < line->p2.x ? 1 : -1;
 135              		.loc 1 581 0
 136 0096 0798     		ldr	r0, [sp, #28]
 580:..\..\..\lvgl\version_6.1.2\lvgl\src\lv_draw/lv_draw_line.c ****     line->sx  = line->p1.x < line->p2.x ? 1 : -1;
 137              		.loc 1 580 0
 138 0098 BDF90C90 		ldrsh	r9, [sp, #12]
 139              	.LVL6:
 140              		.loc 1 581 0
 141 009c 4FF6FF71 		movw	r1, #65535
 142 00a0 B042     		cmp	r0, r6
 143 00a2 C8BF     		it	gt
 144 00a4 0121     		movgt	r1, #1
 145 00a6 0D91     		str	r1, [sp, #52]
 146              	.LVL7:
 147              	.L11:
 582:..\..\..\lvgl\version_6.1.2\lvgl\src\lv_draw/lv_draw_line.c ****     line->dy  = LV_MATH_ABS(line->p2.y - line->p1.y);
 583:..\..\..\lvgl\version_6.1.2\lvgl\src\lv_draw/lv_draw_line.c ****     line->sy  = line->p1.y < line->p2.y ? 1 : -1;
 148              		.loc 1 583 0
ARM GAS  C:\Users\pearlstl\AppData\Local\Temp\ccuP9Sbb.s 			page 14


 149 00a8 0898     		ldr	r0, [sp, #32]
 150 00aa 4FF6FF71 		movw	r1, #65535
 151 00ae 8542     		cmp	r5, r0
 152 00b0 B8BF     		it	lt
 153 00b2 0121     		movlt	r1, #1
 154 00b4 0691     		str	r1, [sp, #24]
 582:..\..\..\lvgl\version_6.1.2\lvgl\src\lv_draw/lv_draw_line.c ****     line->dy  = LV_MATH_ABS(line->p2.y - line->p1.y);
 155              		.loc 1 582 0
 156 00b6 0FFA8AFB 		sxth	fp, r10
 157              	.LVL8:
 158              	.L14:
 584:..\..\..\lvgl\version_6.1.2\lvgl\src\lv_draw/lv_draw_line.c ****     line->err = (line->dx > line->dy ? line->dx : -line->dy) / 2;
 159              		.loc 1 584 0
 160 00ba D945     		cmp	r9, fp
 161 00bc 00F3E580 		bgt	.L164
 162 00c0 0BEBDB74 		add	r4, fp, fp, lsr #31
 163 00c4 6410     		asrs	r4, r4, #1
 164 00c6 6442     		negs	r4, r4
 165 00c8 21B2     		sxth	r1, r4
 166 00ca 0E91     		str	r1, [sp, #56]
 167              	.L16:
 168 00cc 9046     		mov	r8, r2
 169              	.LVL9:
 170              	.LBE44:
 171              	.LBE43:
 129:..\..\..\lvgl\version_6.1.2\lvgl\src\lv_draw/lv_draw_line.c ****         line_draw_hor(&main_line, mask, style, opa_scale);
 172              		.loc 1 129 0
 173 00ce 089A     		ldr	r2, [sp, #32]
 174              	.LVL10:
 175 00d0 9542     		cmp	r5, r2
 176 00d2 00F00C84 		beq	.L165
 133:..\..\..\lvgl\version_6.1.2\lvgl\src\lv_draw/lv_draw_line.c ****         line_draw_ver(&main_line, mask, style, opa_scale);
 177              		.loc 1 133 0
 178 00d6 079A     		ldr	r2, [sp, #28]
 179 00d8 B242     		cmp	r2, r6
 180 00da 00F0D183 		beq	.L166
 181              	.LVL11:
 182 00de 03F14802 		add	r2, r3, #72
 183              	.LBB51:
 184              	.LBB52:
 185              	.LBB53:
 229:..\..\..\lvgl\version_6.1.2\lvgl\src\lv_draw/lv_draw_line.c **** #if LV_ANTIALIAS
 186              		.loc 1 229 0
 187 00e2 BEF1FF0F 		cmp	lr, #255
 188 00e6 93F84E30 		ldrb	r3, [r3, #78]	@ zero_extendqisi2
 189              	.LVL12:
 190 00ea 0C92     		str	r2, [sp, #48]
 191 00ec 0B93     		str	r3, [sp, #44]
 192              	.LVL13:
 193 00ee 04D0     		beq	.L22
 194 00f0 03FB0EFE 		mul	lr, r3, lr
 195              	.LVL14:
 196 00f4 CEF30723 		ubfx	r3, lr, #8, #8
 197 00f8 0B93     		str	r3, [sp, #44]
 198              	.L22:
 199              	.LVL15:
 234:..\..\..\lvgl\version_6.1.2\lvgl\src\lv_draw/lv_draw_line.c ****     vect_main.y = main_line->p2.y - main_line->p1.y;
ARM GAS  C:\Users\pearlstl\AppData\Local\Temp\ccuP9Sbb.s 			page 15


 200              		.loc 1 234 0
 201 00fa 079B     		ldr	r3, [sp, #28]
 235:..\..\..\lvgl\version_6.1.2\lvgl\src\lv_draw/lv_draw_line.c **** 
 202              		.loc 1 235 0
 203 00fc 0898     		ldr	r0, [sp, #32]
 234:..\..\..\lvgl\version_6.1.2\lvgl\src\lv_draw/lv_draw_line.c ****     vect_main.y = main_line->p2.y - main_line->p1.y;
 204              		.loc 1 234 0
 205 00fe 9A1B     		subs	r2, r3, r6
 206              	.LVL16:
 235:..\..\..\lvgl\version_6.1.2\lvgl\src\lv_draw/lv_draw_line.c **** 
 207              		.loc 1 235 0
 208 0100 431B     		subs	r3, r0, r5
 234:..\..\..\lvgl\version_6.1.2\lvgl\src\lv_draw/lv_draw_line.c ****     vect_main.y = main_line->p2.y - main_line->p1.y;
 209              		.loc 1 234 0
 210 0102 92B2     		uxth	r2, r2
 235:..\..\..\lvgl\version_6.1.2\lvgl\src\lv_draw/lv_draw_line.c **** 
 211              		.loc 1 235 0
 212 0104 9BB2     		uxth	r3, r3
 237:..\..\..\lvgl\version_6.1.2\lvgl\src\lv_draw/lv_draw_line.c ****         if(main_line->p1.y < main_line->p2.y + dir_ori) {
 213              		.loc 1 237 0
 214 0106 D945     		cmp	r9, fp
 234:..\..\..\lvgl\version_6.1.2\lvgl\src\lv_draw/lv_draw_line.c ****     vect_main.y = main_line->p2.y - main_line->p1.y;
 215              		.loc 1 234 0
 216 0108 11B2     		sxth	r1, r2
 217              	.LVL17:
 235:..\..\..\lvgl\version_6.1.2\lvgl\src\lv_draw/lv_draw_line.c **** 
 218              		.loc 1 235 0
 219 010a 1CB2     		sxth	r4, r3
 220              	.LVL18:
 237:..\..\..\lvgl\version_6.1.2\lvgl\src\lv_draw/lv_draw_line.c ****         if(main_line->p1.y < main_line->p2.y + dir_ori) {
 221              		.loc 1 237 0
 222 010c 00F3C280 		bgt	.L167
 246:..\..\..\lvgl\version_6.1.2\lvgl\src\lv_draw/lv_draw_line.c ****             vect_norm.x = vect_main.y;
 223              		.loc 1 246 0
 224 0110 0798     		ldr	r0, [sp, #28]
 225 0112 B042     		cmp	r0, r6
 226 0114 40F3C180 		ble	.L26
 227              	.L155:
 228              	.LVL19:
 248:..\..\..\lvgl\version_6.1.2\lvgl\src\lv_draw/lv_draw_line.c ****         } else {
 229              		.loc 1 248 0
 230 0118 5242     		negs	r2, r2
 231 011a 11B2     		sxth	r1, r2
 232              	.LVL20:
 233              	.L25:
 266:..\..\..\lvgl\version_6.1.2\lvgl\src\lv_draw/lv_draw_line.c ****     lv_point_t * pattern = lv_draw_get_buf(pattern_size * sizeof(lv_point_t));
 234              		.loc 1 266 0
 235 011c 7B00     		lsls	r3, r7, #1
 236 011e 1BB2     		sxth	r3, r3
 267:..\..\..\lvgl\version_6.1.2\lvgl\src\lv_draw/lv_draw_line.c ****     lv_coord_t i = 0;
 237              		.loc 1 267 0
 238 0120 9800     		lsls	r0, r3, #2
 239 0122 0491     		str	r1, [sp, #16]
 240              	.LVL21:
 266:..\..\..\lvgl\version_6.1.2\lvgl\src\lv_draw/lv_draw_line.c ****     lv_point_t * pattern = lv_draw_get_buf(pattern_size * sizeof(lv_point_t));
 241              		.loc 1 266 0
 242 0124 1193     		str	r3, [sp, #68]
ARM GAS  C:\Users\pearlstl\AppData\Local\Temp\ccuP9Sbb.s 			page 16


 243              	.LVL22:
 267:..\..\..\lvgl\version_6.1.2\lvgl\src\lv_draw/lv_draw_line.c ****     lv_coord_t i = 0;
 244              		.loc 1 267 0
 245 0126 FFF7FEFF 		bl	lv_draw_get_buf
 246              	.LVL23:
 258:..\..\..\lvgl\version_6.1.2\lvgl\src\lv_draw/lv_draw_line.c **** 
 247              		.loc 1 258 0
 248 012a 0499     		ldr	r1, [sp, #16]
 267:..\..\..\lvgl\version_6.1.2\lvgl\src\lv_draw/lv_draw_line.c ****     lv_coord_t i = 0;
 249              		.loc 1 267 0
 250 012c 0A90     		str	r0, [sp, #40]
 251              	.LVL24:
 257:..\..\..\lvgl\version_6.1.2\lvgl\src\lv_draw/lv_draw_line.c ****     vect_norm.y = vect_norm.y << 4;
 252              		.loc 1 257 0
 253 012e 4FEA041C 		lsl	ip, r4, #4
 258:..\..\..\lvgl\version_6.1.2\lvgl\src\lv_draw/lv_draw_line.c **** 
 254              		.loc 1 258 0
 255 0132 0B01     		lsls	r3, r1, #4
 257:..\..\..\lvgl\version_6.1.2\lvgl\src\lv_draw/lv_draw_line.c ****     vect_norm.y = vect_norm.y << 4;
 256              		.loc 1 257 0
 257 0134 0FFA8CFC 		sxth	ip, ip
 258              	.LVL25:
 258:..\..\..\lvgl\version_6.1.2\lvgl\src\lv_draw/lv_draw_line.c **** 
 259              		.loc 1 258 0
 260 0138 1BB2     		sxth	r3, r3
 261 013a 1946     		mov	r1, r3
 262 013c 0993     		str	r3, [sp, #36]
 263              	.LBB54:
 264              	.LBB55:
 265              	.LBB56:
 580:..\..\..\lvgl\version_6.1.2\lvgl\src\lv_draw/lv_draw_line.c ****     line->sx  = line->p1.x < line->p2.x ? 1 : -1;
 266              		.loc 1 580 0
 267 013e 8CEAEC73 		eor	r3, ip, ip, asr #31
 268 0142 A3EBEC73 		sub	r3, r3, ip, asr #31
 581:..\..\..\lvgl\version_6.1.2\lvgl\src\lv_draw/lv_draw_line.c ****     line->dy  = LV_MATH_ABS(line->p2.y - line->p1.y);
 269              		.loc 1 581 0
 270 0146 BCF1000F 		cmp	ip, #0
 580:..\..\..\lvgl\version_6.1.2\lvgl\src\lv_draw/lv_draw_line.c ****     line->sx  = line->p1.x < line->p2.x ? 1 : -1;
 271              		.loc 1 580 0
 272 014a 1C46     		mov	r4, r3
 273              	.LVL26:
 274 014c 1093     		str	r3, [sp, #64]
 581:..\..\..\lvgl\version_6.1.2\lvgl\src\lv_draw/lv_draw_line.c ****     line->dy  = LV_MATH_ABS(line->p2.y - line->p1.y);
 275              		.loc 1 581 0
 276 014e 4FF6FF73 		movw	r3, #65535
 277 0152 CCBF     		ite	gt
 278 0154 0122     		movgt	r2, #1
 279 0156 1A46     		movle	r2, r3
 582:..\..\..\lvgl\version_6.1.2\lvgl\src\lv_draw/lv_draw_line.c ****     line->sy  = line->p1.y < line->p2.y ? 1 : -1;
 280              		.loc 1 582 0
 281 0158 0029     		cmp	r1, #0
 581:..\..\..\lvgl\version_6.1.2\lvgl\src\lv_draw/lv_draw_line.c ****     line->dy  = LV_MATH_ABS(line->p2.y - line->p1.y);
 282              		.loc 1 581 0
 283 015a 0592     		str	r2, [sp, #20]
 582:..\..\..\lvgl\version_6.1.2\lvgl\src\lv_draw/lv_draw_line.c ****     line->sy  = line->p1.y < line->p2.y ? 1 : -1;
 284              		.loc 1 582 0
 285 015c 0A46     		mov	r2, r1
ARM GAS  C:\Users\pearlstl\AppData\Local\Temp\ccuP9Sbb.s 			page 17


 286 015e B8BF     		it	lt
 287 0160 4A42     		rsblt	r2, r1, #0
 288 0162 1046     		mov	r0, r2
 289              	.LVL27:
 583:..\..\..\lvgl\version_6.1.2\lvgl\src\lv_draw/lv_draw_line.c ****     line->err = (line->dx > line->dy ? line->dx : -line->dy) / 2;
 290              		.loc 1 583 0
 291 0164 0029     		cmp	r1, #0
 582:..\..\..\lvgl\version_6.1.2\lvgl\src\lv_draw/lv_draw_line.c ****     line->sy  = line->p1.y < line->p2.y ? 1 : -1;
 292              		.loc 1 582 0
 293 0166 0492     		str	r2, [sp, #16]
 294              	.LVL28:
 295 0168 01B2     		sxth	r1, r0
 580:..\..\..\lvgl\version_6.1.2\lvgl\src\lv_draw/lv_draw_line.c ****     line->sx  = line->p1.x < line->p2.x ? 1 : -1;
 296              		.loc 1 580 0
 297 016a 22B2     		sxth	r2, r4
 583:..\..\..\lvgl\version_6.1.2\lvgl\src\lv_draw/lv_draw_line.c ****     line->err = (line->dx > line->dy ? line->dx : -line->dy) / 2;
 298              		.loc 1 583 0
 299 016c C8BF     		it	gt
 300 016e 0123     		movgt	r3, #1
 301              		.loc 1 584 0
 302 0170 8A42     		cmp	r2, r1
 582:..\..\..\lvgl\version_6.1.2\lvgl\src\lv_draw/lv_draw_line.c ****     line->sy  = line->p1.y < line->p2.y ? 1 : -1;
 303              		.loc 1 582 0
 304 0172 0F91     		str	r1, [sp, #60]
 583:..\..\..\lvgl\version_6.1.2\lvgl\src\lv_draw/lv_draw_line.c ****     line->err = (line->dx > line->dy ? line->dx : -line->dy) / 2;
 305              		.loc 1 583 0
 306 0174 1293     		str	r3, [sp, #72]
 307              		.loc 1 584 0
 308 0176 00F34384 		bgt	.L168
 309 017a 01EBD173 		add	r3, r1, r1, lsr #31
 310 017e 5B10     		asrs	r3, r3, #1
 311 0180 5B42     		negs	r3, r3
 312 0182 1BB2     		sxth	r3, r3
 313              	.L29:
 314              	.LVL29:
 315              	.LBE56:
 316              	.LBE55:
 278:..\..\..\lvgl\version_6.1.2\lvgl\src\lv_draw/lv_draw_line.c ****             pattern[i].x = pattern_line.p_act.x;
 317              		.loc 1 278 0
 318 0184 1199     		ldr	r1, [sp, #68]
 319 0186 0139     		subs	r1, r1, #1
 276:..\..\..\lvgl\version_6.1.2\lvgl\src\lv_draw/lv_draw_line.c ****         /* Run for a lot of times. Meanwhile the real width will be determined as well */
 320              		.loc 1 276 0
 321 0188 07FB07F0 		mul	r0, r7, r7
 278:..\..\..\lvgl\version_6.1.2\lvgl\src\lv_draw/lv_draw_line.c ****             pattern[i].x = pattern_line.p_act.x;
 322              		.loc 1 278 0
 323 018c 0029     		cmp	r1, #0
 276:..\..\..\lvgl\version_6.1.2\lvgl\src\lv_draw/lv_draw_line.c ****         /* Run for a lot of times. Meanwhile the real width will be determined as well */
 324              		.loc 1 276 0
 325 018e 1390     		str	r0, [sp, #76]
 326              	.LVL30:
 278:..\..\..\lvgl\version_6.1.2\lvgl\src\lv_draw/lv_draw_line.c ****             pattern[i].x = pattern_line.p_act.x;
 327              		.loc 1 278 0
 328 0190 1191     		str	r1, [sp, #68]
 329              	.LVL31:
 330 0192 40F3EE83 		ble	.L30
 331              	.LBB58:
ARM GAS  C:\Users\pearlstl\AppData\Local\Temp\ccuP9Sbb.s 			page 18


 279:..\..\..\lvgl\version_6.1.2\lvgl\src\lv_draw/lv_draw_line.c ****             pattern[i].y = pattern_line.p_act.y;
 332              		.loc 1 279 0
 333 0196 0A9C     		ldr	r4, [sp, #40]
 334 0198 0021     		movs	r1, #0
 335 019a A646     		mov	lr, r4
 336 019c 2180     		strh	r1, [r4]	@ movhi
 280:..\..\..\lvgl\version_6.1.2\lvgl\src\lv_draw/lv_draw_line.c **** 
 337              		.loc 1 280 0
 338 019e 6180     		strh	r1, [r4, #2]	@ movhi
 339              	.LVL32:
 285:..\..\..\lvgl\version_6.1.2\lvgl\src\lv_draw/lv_draw_line.c ****                 width = i;
 340              		.loc 1 285 0
 341 01a0 139C     		ldr	r4, [sp, #76]
 342 01a2 002C     		cmp	r4, #0
 343 01a4 00F09680 		beq	.L39
 344              	.LBB59:
 345              	.LBB60:
 585:..\..\..\lvgl\version_6.1.2\lvgl\src\lv_draw/lv_draw_line.c ****     line->e2  = 0;
 586:..\..\..\lvgl\version_6.1.2\lvgl\src\lv_draw/lv_draw_line.c ****     line->hor = line->dx > line->dy ? true : false; /*Rather horizontal or vertical*/
 587:..\..\..\lvgl\version_6.1.2\lvgl\src\lv_draw/lv_draw_line.c **** 
 588:..\..\..\lvgl\version_6.1.2\lvgl\src\lv_draw/lv_draw_line.c ****     line->p_act.x = line->p1.x;
 589:..\..\..\lvgl\version_6.1.2\lvgl\src\lv_draw/lv_draw_line.c ****     line->p_act.y = line->p1.y;
 590:..\..\..\lvgl\version_6.1.2\lvgl\src\lv_draw/lv_draw_line.c **** }
 591:..\..\..\lvgl\version_6.1.2\lvgl\src\lv_draw/lv_draw_line.c **** 
 592:..\..\..\lvgl\version_6.1.2\lvgl\src\lv_draw/lv_draw_line.c **** static bool line_next(line_draw_t * line)
 593:..\..\..\lvgl\version_6.1.2\lvgl\src\lv_draw/lv_draw_line.c **** {
 594:..\..\..\lvgl\version_6.1.2\lvgl\src\lv_draw/lv_draw_line.c ****     if(line->p_act.x == line->p2.x && line->p_act.y == line->p2.y) return false;
 595:..\..\..\lvgl\version_6.1.2\lvgl\src\lv_draw/lv_draw_line.c ****     line->e2 = line->err;
 596:..\..\..\lvgl\version_6.1.2\lvgl\src\lv_draw/lv_draw_line.c ****     if(line->e2 > -line->dx) {
 346              		.loc 1 596 0
 347 01a8 5242     		negs	r2, r2
 348 01aa 1392     		str	r2, [sp, #76]
 349 01ac 1797     		str	r7, [sp, #92]
 350 01ae CDF854B0 		str	fp, [sp, #84]
 351 01b2 119F     		ldr	r7, [sp, #68]
 352              	.LVL33:
 353 01b4 CDF858A0 		str	r10, [sp, #88]
 354 01b8 CDF84490 		str	r9, [sp, #68]
 355 01bc DDF840A0 		ldr	r10, [sp, #64]
 356 01c0 DDF848B0 		ldr	fp, [sp, #72]
 357              	.LVL34:
 358 01c4 1096     		str	r6, [sp, #64]
 359 01c6 CDF84880 		str	r8, [sp, #72]
 360              	.LBE60:
 361              	.LBE59:
 285:..\..\..\lvgl\version_6.1.2\lvgl\src\lv_draw/lv_draw_line.c ****                 width = i;
 362              		.loc 1 285 0
 363 01ca 0846     		mov	r0, r1
 364 01cc 0A46     		mov	r2, r1
 365 01ce 1495     		str	r5, [sp, #80]
 366 01d0 A646     		mov	lr, r4
 367 01d2 0A9E     		ldr	r6, [sp, #40]
 368              	.LVL35:
 369 01d4 DDF84C90 		ldr	r9, [sp, #76]
 370              	.LVL36:
 371 01d8 DDF83C80 		ldr	r8, [sp, #60]
 372              	.LVL37:
ARM GAS  C:\Users\pearlstl\AppData\Local\Temp\ccuP9Sbb.s 			page 19


 373 01dc 1EE0     		b	.L34
 374              	.LVL38:
 375              	.L171:
 376              	.LBB64:
 377              	.LBB61:
 597:..\..\..\lvgl\version_6.1.2\lvgl\src\lv_draw/lv_draw_line.c ****         line->err -= line->dy;
 598:..\..\..\lvgl\version_6.1.2\lvgl\src\lv_draw/lv_draw_line.c ****         line->p_act.x += line->sx;
 378              		.loc 1 598 0
 379 01de 059C     		ldr	r4, [sp, #20]
 380 01e0 2244     		add	r2, r2, r4
 381              	.LVL39:
 597:..\..\..\lvgl\version_6.1.2\lvgl\src\lv_draw/lv_draw_line.c ****         line->err -= line->dy;
 382              		.loc 1 597 0
 383 01e2 049C     		ldr	r4, [sp, #16]
 599:..\..\..\lvgl\version_6.1.2\lvgl\src\lv_draw/lv_draw_line.c ****     }
 600:..\..\..\lvgl\version_6.1.2\lvgl\src\lv_draw/lv_draw_line.c ****     if(line->e2 < line->dy) {
 384              		.loc 1 600 0
 385 01e4 9845     		cmp	r8, r3
 597:..\..\..\lvgl\version_6.1.2\lvgl\src\lv_draw/lv_draw_line.c ****         line->err -= line->dy;
 386              		.loc 1 597 0
 387 01e6 A3EB0404 		sub	r4, r3, r4
 598:..\..\..\lvgl\version_6.1.2\lvgl\src\lv_draw/lv_draw_line.c ****     }
 388              		.loc 1 598 0
 389 01ea 12B2     		sxth	r2, r2
 597:..\..\..\lvgl\version_6.1.2\lvgl\src\lv_draw/lv_draw_line.c ****         line->err -= line->dy;
 390              		.loc 1 597 0
 391 01ec 24B2     		sxth	r4, r4
 392              	.LVL40:
 393              		.loc 1 600 0
 394 01ee 1CDD     		ble	.L102
 395              	.L172:
 601:..\..\..\lvgl\version_6.1.2\lvgl\src\lv_draw/lv_draw_line.c ****         line->err += line->dx;
 396              		.loc 1 601 0
 397 01f0 04EB0A03 		add	r3, r4, r10
 602:..\..\..\lvgl\version_6.1.2\lvgl\src\lv_draw/lv_draw_line.c ****         line->p_act.y += line->sy;
 398              		.loc 1 602 0
 399 01f4 5944     		add	r1, r1, fp
 400              	.LVL41:
 601:..\..\..\lvgl\version_6.1.2\lvgl\src\lv_draw/lv_draw_line.c ****         line->err += line->dx;
 401              		.loc 1 601 0
 402 01f6 1BB2     		sxth	r3, r3
 403              	.LVL42:
 404              		.loc 1 602 0
 405 01f8 09B2     		sxth	r1, r1
 406              	.LVL43:
 407              	.L36:
 408 01fa 0130     		adds	r0, r0, #1
 409              	.LVL44:
 410 01fc 00B2     		sxth	r0, r0
 411              	.LVL45:
 412              	.LBE61:
 413              	.LBE64:
 414              	.LBE58:
 278:..\..\..\lvgl\version_6.1.2\lvgl\src\lv_draw/lv_draw_line.c ****             pattern[i].x = pattern_line.p_act.x;
 415              		.loc 1 278 0
 416 01fe 8742     		cmp	r7, r0
 417 0200 40F3AC83 		ble	.L169
ARM GAS  C:\Users\pearlstl\AppData\Local\Temp\ccuP9Sbb.s 			page 20


 418              	.LBB67:
 285:..\..\..\lvgl\version_6.1.2\lvgl\src\lv_draw/lv_draw_line.c ****                 width = i;
 419              		.loc 1 285 0
 420 0204 01FB01F4 		mul	r4, r1, r1
 279:..\..\..\lvgl\version_6.1.2\lvgl\src\lv_draw/lv_draw_line.c ****             pattern[i].y = pattern_line.p_act.y;
 421              		.loc 1 279 0
 422 0208 06EB8005 		add	r5, r6, r0, lsl #2
 285:..\..\..\lvgl\version_6.1.2\lvgl\src\lv_draw/lv_draw_line.c ****                 width = i;
 423              		.loc 1 285 0
 424 020c 02FB0244 		mla	r4, r2, r2, r4
 425 0210 A645     		cmp	lr, r4
 279:..\..\..\lvgl\version_6.1.2\lvgl\src\lv_draw/lv_draw_line.c ****             pattern[i].y = pattern_line.p_act.y;
 426              		.loc 1 279 0
 427 0212 26F82020 		strh	r2, [r6, r0, lsl #2]	@ movhi
 280:..\..\..\lvgl\version_6.1.2\lvgl\src\lv_draw/lv_draw_line.c **** 
 428              		.loc 1 280 0
 429 0216 6980     		strh	r1, [r5, #2]	@ movhi
 430              	.LVL46:
 285:..\..\..\lvgl\version_6.1.2\lvgl\src\lv_draw/lv_draw_line.c ****                 width = i;
 431              		.loc 1 285 0
 432 0218 40F2D783 		bls	.L33
 433              	.LVL47:
 434              	.L34:
 435              	.LBB65:
 436              	.LBB62:
 594:..\..\..\lvgl\version_6.1.2\lvgl\src\lv_draw/lv_draw_line.c ****     line->e2 = line->err;
 437              		.loc 1 594 0
 438 021c 9445     		cmp	ip, r2
 439 021e 54D0     		beq	.L170
 440              	.L35:
 596:..\..\..\lvgl\version_6.1.2\lvgl\src\lv_draw/lv_draw_line.c ****         line->err -= line->dy;
 441              		.loc 1 596 0
 442 0220 4B45     		cmp	r3, r9
 443 0222 DCDC     		bgt	.L171
 600:..\..\..\lvgl\version_6.1.2\lvgl\src\lv_draw/lv_draw_line.c ****         line->err += line->dx;
 444              		.loc 1 600 0
 445 0224 9845     		cmp	r8, r3
 596:..\..\..\lvgl\version_6.1.2\lvgl\src\lv_draw/lv_draw_line.c ****         line->err -= line->dy;
 446              		.loc 1 596 0
 447 0226 1C46     		mov	r4, r3
 448              	.LVL48:
 600:..\..\..\lvgl\version_6.1.2\lvgl\src\lv_draw/lv_draw_line.c ****         line->err += line->dx;
 449              		.loc 1 600 0
 450 0228 E2DC     		bgt	.L172
 451              	.L102:
 452 022a 2346     		mov	r3, r4
 453 022c E5E7     		b	.L36
 454              	.LVL49:
 455              	.L161:
 456              	.LBE62:
 457              	.LBE65:
 458              	.LBE67:
 459              	.LBE54:
 460              	.LBE53:
 461              	.LBE52:
 462              	.LBE51:
  83:..\..\..\lvgl\version_6.1.2\lvgl\src\lv_draw/lv_draw_line.c **** 
ARM GAS  C:\Users\pearlstl\AppData\Local\Temp\ccuP9Sbb.s 			page 21


 463              		.loc 1 83 0 discriminator 1
 464 022e B0F90250 		ldrsh	r5, [r0, #2]
 465 0232 B1F90240 		ldrsh	r4, [r1, #2]
 466 0236 A542     		cmp	r5, r4
 467 0238 7FF4F2AE 		bne	.L3
 468 023c F8E6     		b	.L1
 469              	.LVL50:
 470              	.L162:
  88:..\..\..\lvgl\version_6.1.2\lvgl\src\lv_draw/lv_draw_line.c ****     if(point1->y > mask->y2 + style->line.width && point2->y > mask->y2 + style->line.width) return
 471              		.loc 1 88 0 discriminator 1
 472 023e 8842     		cmp	r0, r1
 473 0240 3FF7F6AE 		bgt	.L1
 474 0244 0AE7     		b	.L153
 475              	.L9:
 113:..\..\..\lvgl\version_6.1.2\lvgl\src\lv_draw/lv_draw_line.c ****             p1.x = point1->x;
 476              		.loc 1 113 0
 477 0246 089C     		ldr	r4, [sp, #32]
 478 0248 8C42     		cmp	r4, r1
 479 024a BFF624AF 		bge	.L10
 480 024e 0798     		ldr	r0, [sp, #28]
 481 0250 301A     		subs	r0, r6, r0
 482 0252 0028     		cmp	r0, #0
 483 0254 B8BF     		it	lt
 484 0256 4042     		rsblt	r0, r0, #0
 485 0258 0546     		mov	r5, r0
 486 025a 0390     		str	r0, [sp, #12]
 487 025c 081B     		subs	r0, r1, r4
 488 025e 80EAE07A 		eor	r10, r0, r0, asr #31
 489 0262 AAEBE07A 		sub	r10, r10, r0, asr #31
 490              	.LVL51:
 491              	.LBB118:
 492              	.LBB45:
 581:..\..\..\lvgl\version_6.1.2\lvgl\src\lv_draw/lv_draw_line.c ****     line->dy  = LV_MATH_ABS(line->p2.y - line->p1.y);
 493              		.loc 1 581 0
 494 0266 0798     		ldr	r0, [sp, #28]
 495 0268 B042     		cmp	r0, r6
 580:..\..\..\lvgl\version_6.1.2\lvgl\src\lv_draw/lv_draw_line.c ****     line->sx  = line->p1.x < line->p2.x ? 1 : -1;
 496              		.loc 1 580 0
 497 026a 0FFA85F9 		sxth	r9, r5
 498              	.LVL52:
 581:..\..\..\lvgl\version_6.1.2\lvgl\src\lv_draw/lv_draw_line.c ****     line->dy  = LV_MATH_ABS(line->p2.y - line->p1.y);
 499              		.loc 1 581 0
 500 026e C0F2BC83 		blt	.L173
 501              	.LBE45:
 502              	.LBE118:
 117:..\..\..\lvgl\version_6.1.2\lvgl\src\lv_draw/lv_draw_line.c ****         } else {
 503              		.loc 1 117 0
 504 0272 0891     		str	r1, [sp, #32]
 505              	.LVL53:
 506              	.LBB119:
 507              	.LBB46:
 582:..\..\..\lvgl\version_6.1.2\lvgl\src\lv_draw/lv_draw_line.c ****     line->sy  = line->p1.y < line->p2.y ? 1 : -1;
 508              		.loc 1 582 0
 509 0274 4FF6FF71 		movw	r1, #65535
 510 0278 0D91     		str	r1, [sp, #52]
 511 027a 0121     		movs	r1, #1
 512 027c 0796     		str	r6, [sp, #28]
ARM GAS  C:\Users\pearlstl\AppData\Local\Temp\ccuP9Sbb.s 			page 22


 513              	.LVL54:
 514 027e 2546     		mov	r5, r4
 515 0280 0646     		mov	r6, r0
 516              	.LVL55:
 517 0282 0FFA8AFB 		sxth	fp, r10
 518              	.LVL56:
 519 0286 0691     		str	r1, [sp, #24]
 520 0288 17E7     		b	.L14
 521              	.L164:
 584:..\..\..\lvgl\version_6.1.2\lvgl\src\lv_draw/lv_draw_line.c ****     line->e2  = 0;
 522              		.loc 1 584 0
 523 028a 09EBD974 		add	r4, r9, r9, lsr #31
 524 028e 6110     		asrs	r1, r4, #1
 525 0290 0E91     		str	r1, [sp, #56]
 526 0292 1BE7     		b	.L16
 527              	.LVL57:
 528              	.L167:
 529              	.LBE46:
 530              	.LBE119:
 531              	.LBB120:
 532              	.LBB114:
 533              	.LBB110:
 238:..\..\..\lvgl\version_6.1.2\lvgl\src\lv_draw/lv_draw_line.c ****             vect_norm.x = -vect_main.y;
 534              		.loc 1 238 0
 535 0294 8542     		cmp	r5, r0
 536 0296 BFF63FAF 		bge	.L155
 537              	.L26:
 250:..\..\..\lvgl\version_6.1.2\lvgl\src\lv_draw/lv_draw_line.c ****             vect_norm.y = vect_main.x;
 538              		.loc 1 250 0
 539 029a 5B42     		negs	r3, r3
 540 029c 1BB2     		sxth	r3, r3
 541 029e 1C46     		mov	r4, r3
 542              	.LVL58:
 543 02a0 3CE7     		b	.L25
 544              	.LVL59:
 545              	.L163:
 546 02a2 301A     		subs	r0, r6, r0
 547 02a4 0028     		cmp	r0, #0
 548 02a6 0546     		mov	r5, r0
 549 02a8 B8BF     		it	lt
 550 02aa 4542     		rsblt	r5, r0, #0
 551 02ac 0395     		str	r5, [sp, #12]
 552 02ae 089D     		ldr	r5, [sp, #32]
 553              	.LBE110:
 554              	.LBE114:
 555              	.LBE120:
 104:..\..\..\lvgl\version_6.1.2\lvgl\src\lv_draw/lv_draw_line.c ****         } else {
 556              		.loc 1 104 0
 557 02b0 0891     		str	r1, [sp, #32]
 558 02b2 481B     		subs	r0, r1, r5
 559 02b4 80EAE07A 		eor	r10, r0, r0, asr #31
 560              	.LBB121:
 561              	.LBB47:
 580:..\..\..\lvgl\version_6.1.2\lvgl\src\lv_draw/lv_draw_line.c ****     line->sx  = line->p1.x < line->p2.x ? 1 : -1;
 562              		.loc 1 580 0
 563 02b8 0121     		movs	r1, #1
 564              	.LBE47:
ARM GAS  C:\Users\pearlstl\AppData\Local\Temp\ccuP9Sbb.s 			page 23


 565              	.LBE121:
 103:..\..\..\lvgl\version_6.1.2\lvgl\src\lv_draw/lv_draw_line.c ****             p2.y = point2->y;
 566              		.loc 1 103 0
 567 02ba 0796     		str	r6, [sp, #28]
 568              	.LBB122:
 569              	.LBB48:
 580:..\..\..\lvgl\version_6.1.2\lvgl\src\lv_draw/lv_draw_line.c ****     line->sx  = line->p1.x < line->p2.x ? 1 : -1;
 570              		.loc 1 580 0
 571 02bc BDF90C90 		ldrsh	r9, [sp, #12]
 572 02c0 0D91     		str	r1, [sp, #52]
 573              	.LBE48:
 574              	.LBE122:
 101:..\..\..\lvgl\version_6.1.2\lvgl\src\lv_draw/lv_draw_line.c ****             p1.y = point1->y;
 575              		.loc 1 101 0
 576 02c2 2646     		mov	r6, r4
 577 02c4 AAEBE07A 		sub	r10, r10, r0, asr #31
 578              	.LVL60:
 579 02c8 EEE6     		b	.L11
 580              	.LVL61:
 581              	.L170:
 582              	.LBB123:
 583              	.LBB115:
 584              	.LBB111:
 585              	.LBB72:
 586              	.LBB68:
 587              	.LBB66:
 588              	.LBB63:
 594:..\..\..\lvgl\version_6.1.2\lvgl\src\lv_draw/lv_draw_line.c ****     line->e2 = line->err;
 589              		.loc 1 594 0
 590 02ca 099C     		ldr	r4, [sp, #36]
 591 02cc 8C42     		cmp	r4, r1
 592 02ce A7D1     		bne	.L35
 593 02d0 6246     		mov	r2, ip
 594              	.LVL62:
 595 02d2 92E7     		b	.L36
 596              	.LVL63:
 597              	.L39:
 598              	.LBE63:
 599              	.LBE66:
 600              	.LBE68:
 601              	.LBE72:
 314:..\..\..\lvgl\version_6.1.2\lvgl\src\lv_draw/lv_draw_line.c ****         if(!main_line->hor && main_line->p1.x >= main_line->p2.x + dir_ori) pattern[0].x--;
 602              		.loc 1 314 0
 603 02d4 D945     		cmp	r9, fp
 604 02d6 40F36A81 		ble	.L42
 605 02da 089B     		ldr	r3, [sp, #32]
 606              	.LVL64:
 607 02dc 9D42     		cmp	r5, r3
 608 02de 03DB     		blt	.L43
 609 02e0 0A9A     		ldr	r2, [sp, #40]
 610 02e2 5388     		ldrh	r3, [r2, #2]
 611 02e4 013B     		subs	r3, r3, #1
 612 02e6 5380     		strh	r3, [r2, #2]	@ movhi
 613              	.L43:
 614              	.LVL65:
 319:..\..\..\lvgl\version_6.1.2\lvgl\src\lv_draw/lv_draw_line.c ****         pattern[i].x -= x_center_ofs;
 615              		.loc 1 319 0
ARM GAS  C:\Users\pearlstl\AppData\Local\Temp\ccuP9Sbb.s 			page 24


 616 02e8 0023     		movs	r3, #0
 617 02ea 0993     		str	r3, [sp, #36]
 618              	.LVL66:
 619              	.L41:
 454:..\..\..\lvgl\version_6.1.2\lvgl\src\lv_draw/lv_draw_line.c ****         while(line_next_y(main_line)) {
 620              		.loc 1 454 0
 621 02ec D945     		cmp	r9, fp
 449:..\..\..\lvgl\version_6.1.2\lvgl\src\lv_draw/lv_draw_line.c ****     prev_p.y = main_line->p1.y;
 622              		.loc 1 449 0
 623 02ee ADF86460 		strh	r6, [sp, #100]	@ movhi
 450:..\..\..\lvgl\version_6.1.2\lvgl\src\lv_draw/lv_draw_line.c ****     lv_area_t draw_area;
 624              		.loc 1 450 0
 625 02f2 ADF86650 		strh	r5, [sp, #102]	@ movhi
 626              	.LVL67:
 454:..\..\..\lvgl\version_6.1.2\lvgl\src\lv_draw/lv_draw_line.c ****         while(line_next_y(main_line)) {
 627              		.loc 1 454 0
 628 02f6 40F36881 		ble	.L44
 629 02fa 099B     		ldr	r3, [sp, #36]
 630 02fc 0A9A     		ldr	r2, [sp, #40]
 631 02fe CDF810B0 		str	fp, [sp, #16]
 632 0302 013B     		subs	r3, r3, #1
 633 0304 9BB2     		uxth	r3, r3
 634 0306 0133     		adds	r3, r3, #1
 635 0308 02EB8303 		add	r3, r2, r3, lsl #2
 636 030c 1093     		str	r3, [sp, #64]
 637 030e 089B     		ldr	r3, [sp, #32]
 638 0310 0E9C     		ldr	r4, [sp, #56]
 639 0312 0595     		str	r5, [sp, #20]
 640 0314 2A46     		mov	r2, r5
 641              	.LVL68:
 642 0316 9342     		cmp	r3, r2
 643 0318 C9F10009 		rsb	r9, r9, #0
 644 031c 4FF00100 		mov	r0, #1
 645              	.LVL69:
 646 0320 DDF834B0 		ldr	fp, [sp, #52]
 647 0324 5CD0     		beq	.L174
 648              	.L50:
 649 0326 069B     		ldr	r3, [sp, #24]
 650 0328 9918     		adds	r1, r3, r2
 651              	.LBB73:
 652              	.LBB74:
 653              	.LBB75:
 654              	.LBB76:
 655              		.loc 1 602 0
 656 032a 09B2     		sxth	r1, r1
 657              	.LVL70:
 658              	.L52:
 596:..\..\..\lvgl\version_6.1.2\lvgl\src\lv_draw/lv_draw_line.c ****         line->err -= line->dy;
 659              		.loc 1 596 0
 660 032c A145     		cmp	r9, r4
 598:..\..\..\lvgl\version_6.1.2\lvgl\src\lv_draw/lv_draw_line.c ****     }
 661              		.loc 1 598 0
 662 032e 0BEB0603 		add	r3, fp, r6
 597:..\..\..\lvgl\version_6.1.2\lvgl\src\lv_draw/lv_draw_line.c ****         line->p_act.x += line->sx;
 663              		.loc 1 597 0
 664 0332 CAEB0402 		rsb	r2, r10, r4
 598:..\..\..\lvgl\version_6.1.2\lvgl\src\lv_draw/lv_draw_line.c ****     }
ARM GAS  C:\Users\pearlstl\AppData\Local\Temp\ccuP9Sbb.s 			page 25


 665              		.loc 1 598 0
 666 0336 B8BF     		it	lt
 667 0338 1EB2     		sxthlt	r6, r3
 668              	.LVL71:
 600:..\..\..\lvgl\version_6.1.2\lvgl\src\lv_draw/lv_draw_line.c ****         line->err += line->dx;
 669              		.loc 1 600 0
 670 033a 049D     		ldr	r5, [sp, #16]
 601:..\..\..\lvgl\version_6.1.2\lvgl\src\lv_draw/lv_draw_line.c ****         line->p_act.y += line->sy;
 671              		.loc 1 601 0
 672 033c 039B     		ldr	r3, [sp, #12]
 596:..\..\..\lvgl\version_6.1.2\lvgl\src\lv_draw/lv_draw_line.c ****         line->err -= line->dy;
 673              		.loc 1 596 0
 674 033e ACBF     		ite	ge
 675 0340 2246     		movge	r2, r4
 597:..\..\..\lvgl\version_6.1.2\lvgl\src\lv_draw/lv_draw_line.c ****         line->p_act.x += line->sx;
 676              		.loc 1 597 0
 677 0342 12B2     		sxthlt	r2, r2
 678              	.LVL72:
 601:..\..\..\lvgl\version_6.1.2\lvgl\src\lv_draw/lv_draw_line.c ****         line->p_act.y += line->sy;
 679              		.loc 1 601 0
 680 0344 1344     		add	r3, r3, r2
 600:..\..\..\lvgl\version_6.1.2\lvgl\src\lv_draw/lv_draw_line.c ****         line->err += line->dx;
 681              		.loc 1 600 0
 682 0346 A542     		cmp	r5, r4
 601:..\..\..\lvgl\version_6.1.2\lvgl\src\lv_draw/lv_draw_line.c ****         line->p_act.y += line->sy;
 683              		.loc 1 601 0
 684 0348 1CB2     		sxth	r4, r3
 685              	.LVL73:
 600:..\..\..\lvgl\version_6.1.2\lvgl\src\lv_draw/lv_draw_line.c ****         line->err += line->dx;
 686              		.loc 1 600 0
 687 034a 40F39880 		ble	.L104
 688              	.LBE76:
 689              	.LBE75:
 603:..\..\..\lvgl\version_6.1.2\lvgl\src\lv_draw/lv_draw_line.c ****     }
 604:..\..\..\lvgl\version_6.1.2\lvgl\src\lv_draw/lv_draw_line.c ****     return true;
 605:..\..\..\lvgl\version_6.1.2\lvgl\src\lv_draw/lv_draw_line.c **** }
 606:..\..\..\lvgl\version_6.1.2\lvgl\src\lv_draw/lv_draw_line.c **** 
 607:..\..\..\lvgl\version_6.1.2\lvgl\src\lv_draw/lv_draw_line.c **** /**
 608:..\..\..\lvgl\version_6.1.2\lvgl\src\lv_draw/lv_draw_line.c ****  * Iterate until step one in y direction.
 609:..\..\..\lvgl\version_6.1.2\lvgl\src\lv_draw/lv_draw_line.c ****  * @param line
 610:..\..\..\lvgl\version_6.1.2\lvgl\src\lv_draw/lv_draw_line.c ****  * @return
 611:..\..\..\lvgl\version_6.1.2\lvgl\src\lv_draw/lv_draw_line.c ****  */
 612:..\..\..\lvgl\version_6.1.2\lvgl\src\lv_draw/lv_draw_line.c **** static bool line_next_y(line_draw_t * line)
 613:..\..\..\lvgl\version_6.1.2\lvgl\src\lv_draw/lv_draw_line.c **** {
 614:..\..\..\lvgl\version_6.1.2\lvgl\src\lv_draw/lv_draw_line.c ****     lv_coord_t last_y = line->p_act.y;
 615:..\..\..\lvgl\version_6.1.2\lvgl\src\lv_draw/lv_draw_line.c **** 
 616:..\..\..\lvgl\version_6.1.2\lvgl\src\lv_draw/lv_draw_line.c ****     do {
 617:..\..\..\lvgl\version_6.1.2\lvgl\src\lv_draw/lv_draw_line.c ****         if(!line_next(line)) return false;
 618:..\..\..\lvgl\version_6.1.2\lvgl\src\lv_draw/lv_draw_line.c ****     } while(last_y == line->p_act.y);
 690              		.loc 1 618 0
 691 034e 059B     		ldr	r3, [sp, #20]
 692 0350 9942     		cmp	r1, r3
 693 0352 EBD0     		beq	.L52
 694              	.LVL74:
 695              	.L154:
 696              	.LBE74:
 697              	.LBE73:
ARM GAS  C:\Users\pearlstl\AppData\Local\Temp\ccuP9Sbb.s 			page 26


 456:..\..\..\lvgl\version_6.1.2\lvgl\src\lv_draw/lv_draw_line.c ****                 draw_area.x1 = prev_p.x + pattern[i].x;
 698              		.loc 1 456 0
 699 0354 099B     		ldr	r3, [sp, #36]
 700              	.LBB89:
 701              	.LBB85:
 702              		.loc 1 618 0
 703 0356 0591     		str	r1, [sp, #20]
 704              	.LVL75:
 705              	.LBE85:
 706              	.LBE89:
 456:..\..\..\lvgl\version_6.1.2\lvgl\src\lv_draw/lv_draw_line.c ****                 draw_area.x1 = prev_p.x + pattern[i].x;
 707              		.loc 1 456 0
 708 0358 002B     		cmp	r3, #0
 709 035a 35DD     		ble	.L60
 710 035c B3B2     		uxth	r3, r6
 711 035e 1A46     		mov	r2, r3
 712 0360 0028     		cmp	r0, #0
 713 0362 00F08E80 		beq	.L61
 714 0366 0D94     		str	r4, [sp, #52]
 715 0368 CDF838A0 		str	r10, [sp, #56]
 716 036c 0A9D     		ldr	r5, [sp, #40]
 717 036e 0C9C     		ldr	r4, [sp, #48]
 718              	.LVL76:
 719 0370 0B9F     		ldr	r7, [sp, #44]
 720 0372 DDF840A0 		ldr	r10, [sp, #64]
 721 0376 CDF83CB0 		str	fp, [sp, #60]
 722 037a 9B46     		mov	fp, r3
 723              	.LVL77:
 724              	.L49:
 457:..\..\..\lvgl\version_6.1.2\lvgl\src\lv_draw/lv_draw_line.c ****                 draw_area.y1 = prev_p.y + pattern[i].y;
 725              		.loc 1 457 0
 726 037c B5F800E0 		ldrh	lr, [r5]
 727 0380 BDF86400 		ldrh	r0, [sp, #100]
 458:..\..\..\lvgl\version_6.1.2\lvgl\src\lv_draw/lv_draw_line.c ****                 draw_area.x2 = draw_area.x1 + main_line->p_act.x - prev_p.x - 1;
 728              		.loc 1 458 0
 729 0384 BDF86610 		ldrh	r1, [sp, #102]
 459:..\..\..\lvgl\version_6.1.2\lvgl\src\lv_draw/lv_draw_line.c ****                 draw_area.y2 = draw_area.y1;
 730              		.loc 1 459 0
 731 0388 BDF86430 		ldrh	r3, [sp, #100]
 461:..\..\..\lvgl\version_6.1.2\lvgl\src\lv_draw/lv_draw_line.c **** 
 732              		.loc 1 461 0
 733 038c 2268     		ldr	r2, [r4]
 457:..\..\..\lvgl\version_6.1.2\lvgl\src\lv_draw/lv_draw_line.c ****                 draw_area.y1 = prev_p.y + pattern[i].y;
 734              		.loc 1 457 0
 735 038e 7044     		add	r0, r0, lr
 736 0390 80B2     		uxth	r0, r0
 737 0392 ADF86800 		strh	r0, [sp, #104]	@ movhi
 458:..\..\..\lvgl\version_6.1.2\lvgl\src\lv_draw/lv_draw_line.c ****                 draw_area.x2 = draw_area.x1 + main_line->p_act.x - prev_p.x - 1;
 738              		.loc 1 458 0
 739 0396 B5F802E0 		ldrh	lr, [r5, #2]
 459:..\..\..\lvgl\version_6.1.2\lvgl\src\lv_draw/lv_draw_line.c ****                 draw_area.y2 = draw_area.y1;
 740              		.loc 1 459 0
 741 039a DB43     		mvns	r3, r3
 742 039c 5B44     		add	r3, r3, fp
 743 039e 1844     		add	r0, r0, r3
 458:..\..\..\lvgl\version_6.1.2\lvgl\src\lv_draw/lv_draw_line.c ****                 draw_area.x2 = draw_area.x1 + main_line->p_act.x - prev_p.x - 1;
 744              		.loc 1 458 0
ARM GAS  C:\Users\pearlstl\AppData\Local\Temp\ccuP9Sbb.s 			page 27


 745 03a0 8E44     		add	lr, lr, r1
 746 03a2 0FFA8EFE 		sxth	lr, lr
 459:..\..\..\lvgl\version_6.1.2\lvgl\src\lv_draw/lv_draw_line.c ****                 draw_area.y2 = draw_area.y1;
 747              		.loc 1 459 0
 748 03a6 ADF86C00 		strh	r0, [sp, #108]	@ movhi
 749 03aa 0435     		adds	r5, r5, #4
 461:..\..\..\lvgl\version_6.1.2\lvgl\src\lv_draw/lv_draw_line.c **** 
 750              		.loc 1 461 0
 751 03ac 3B46     		mov	r3, r7
 752 03ae 4146     		mov	r1, r8
 753 03b0 1AA8     		add	r0, sp, #104
 458:..\..\..\lvgl\version_6.1.2\lvgl\src\lv_draw/lv_draw_line.c ****                 draw_area.x2 = draw_area.x1 + main_line->p_act.x - prev_p.x - 1;
 754              		.loc 1 458 0
 755 03b2 ADF86AE0 		strh	lr, [sp, #106]	@ movhi
 460:..\..\..\lvgl\version_6.1.2\lvgl\src\lv_draw/lv_draw_line.c ****                 lv_draw_fill(&draw_area, mask, style->line.color, opa);
 756              		.loc 1 460 0
 757 03b6 ADF86EE0 		strh	lr, [sp, #110]	@ movhi
 461:..\..\..\lvgl\version_6.1.2\lvgl\src\lv_draw/lv_draw_line.c **** 
 758              		.loc 1 461 0
 759 03ba FFF7FEFF 		bl	lv_draw_fill
 760              	.LVL78:
 456:..\..\..\lvgl\version_6.1.2\lvgl\src\lv_draw/lv_draw_line.c ****                 draw_area.x1 = prev_p.x + pattern[i].x;
 761              		.loc 1 456 0
 762 03be AA45     		cmp	r10, r5
 763 03c0 DCD1     		bne	.L49
 764 03c2 0DAC     		add	r4, sp, #52
 765 03c4 94E8100C 		ldmia	r4, {r4, r10, fp}
 766              	.LVL79:
 767              	.L60:
 484:..\..\..\lvgl\version_6.1.2\lvgl\src\lv_draw/lv_draw_line.c ****         }
 768              		.loc 1 484 0
 769 03c8 BDF81430 		ldrh	r3, [sp, #20]
 483:..\..\..\lvgl\version_6.1.2\lvgl\src\lv_draw/lv_draw_line.c ****             prev_p.y = main_line->p_act.y;
 770              		.loc 1 483 0
 771 03cc ADF86460 		strh	r6, [sp, #100]	@ movhi
 772 03d0 059A     		ldr	r2, [sp, #20]
 773              	.LVL80:
 484:..\..\..\lvgl\version_6.1.2\lvgl\src\lv_draw/lv_draw_line.c ****         }
 774              		.loc 1 484 0
 775 03d2 ADF86630 		strh	r3, [sp, #102]	@ movhi
 776 03d6 089B     		ldr	r3, [sp, #32]
 777 03d8 9342     		cmp	r3, r2
 481:..\..\..\lvgl\version_6.1.2\lvgl\src\lv_draw/lv_draw_line.c **** 
 778              		.loc 1 481 0
 779 03da 4FF00000 		mov	r0, #0
 780              	.LVL81:
 781 03de A2D1     		bne	.L50
 782              	.L174:
 783 03e0 1A46     		mov	r2, r3
 784              	.LBB90:
 785              	.LBB86:
 786              	.LBB81:
 787              	.LBB77:
 602:..\..\..\lvgl\version_6.1.2\lvgl\src\lv_draw/lv_draw_line.c ****     }
 788              		.loc 1 602 0
 789 03e2 069B     		ldr	r3, [sp, #24]
 790 03e4 9918     		adds	r1, r3, r2
ARM GAS  C:\Users\pearlstl\AppData\Local\Temp\ccuP9Sbb.s 			page 28


 791 03e6 09B2     		sxth	r1, r1
 792              	.LVL82:
 793              	.L51:
 594:..\..\..\lvgl\version_6.1.2\lvgl\src\lv_draw/lv_draw_line.c ****     line->e2 = line->err;
 794              		.loc 1 594 0
 795 03e8 079B     		ldr	r3, [sp, #28]
 796 03ea B342     		cmp	r3, r6
 797 03ec 16D0     		beq	.L175
 798              	.L56:
 596:..\..\..\lvgl\version_6.1.2\lvgl\src\lv_draw/lv_draw_line.c ****         line->err -= line->dy;
 799              		.loc 1 596 0
 800 03ee 4C45     		cmp	r4, r9
 598:..\..\..\lvgl\version_6.1.2\lvgl\src\lv_draw/lv_draw_line.c ****     }
 801              		.loc 1 598 0
 802 03f0 0BEB0603 		add	r3, fp, r6
 597:..\..\..\lvgl\version_6.1.2\lvgl\src\lv_draw/lv_draw_line.c ****         line->p_act.x += line->sx;
 803              		.loc 1 597 0
 804 03f4 CAEB0402 		rsb	r2, r10, r4
 598:..\..\..\lvgl\version_6.1.2\lvgl\src\lv_draw/lv_draw_line.c ****     }
 805              		.loc 1 598 0
 806 03f8 C8BF     		it	gt
 807 03fa 1EB2     		sxthgt	r6, r3
 808              	.LVL83:
 600:..\..\..\lvgl\version_6.1.2\lvgl\src\lv_draw/lv_draw_line.c ****         line->err += line->dx;
 809              		.loc 1 600 0
 810 03fc 049D     		ldr	r5, [sp, #16]
 601:..\..\..\lvgl\version_6.1.2\lvgl\src\lv_draw/lv_draw_line.c ****         line->p_act.y += line->sy;
 811              		.loc 1 601 0
 812 03fe 039B     		ldr	r3, [sp, #12]
 596:..\..\..\lvgl\version_6.1.2\lvgl\src\lv_draw/lv_draw_line.c ****         line->err -= line->dy;
 813              		.loc 1 596 0
 814 0400 D4BF     		ite	le
 815 0402 2246     		movle	r2, r4
 597:..\..\..\lvgl\version_6.1.2\lvgl\src\lv_draw/lv_draw_line.c ****         line->p_act.x += line->sx;
 816              		.loc 1 597 0
 817 0404 12B2     		sxthgt	r2, r2
 818              	.LVL84:
 601:..\..\..\lvgl\version_6.1.2\lvgl\src\lv_draw/lv_draw_line.c ****         line->p_act.y += line->sy;
 819              		.loc 1 601 0
 820 0406 D318     		adds	r3, r2, r3
 600:..\..\..\lvgl\version_6.1.2\lvgl\src\lv_draw/lv_draw_line.c ****         line->err += line->dx;
 821              		.loc 1 600 0
 822 0408 A542     		cmp	r5, r4
 601:..\..\..\lvgl\version_6.1.2\lvgl\src\lv_draw/lv_draw_line.c ****         line->p_act.y += line->sy;
 823              		.loc 1 601 0
 824 040a 1CB2     		sxth	r4, r3
 825              	.LVL85:
 600:..\..\..\lvgl\version_6.1.2\lvgl\src\lv_draw/lv_draw_line.c ****         line->err += line->dx;
 826              		.loc 1 600 0
 827 040c 40F38780 		ble	.L106
 828              	.LBE77:
 829              	.LBE81:
 830              		.loc 1 618 0
 831 0410 059B     		ldr	r3, [sp, #20]
 832 0412 9942     		cmp	r1, r3
 833 0414 9ED1     		bne	.L154
 834              	.LVL86:
ARM GAS  C:\Users\pearlstl\AppData\Local\Temp\ccuP9Sbb.s 			page 29


 835              	.LBB82:
 836              	.LBB78:
 594:..\..\..\lvgl\version_6.1.2\lvgl\src\lv_draw/lv_draw_line.c ****     line->e2 = line->err;
 837              		.loc 1 594 0
 838 0416 079B     		ldr	r3, [sp, #28]
 839 0418 B342     		cmp	r3, r6
 840 041a E8D1     		bne	.L56
 841              	.L175:
 842              	.LVL87:
 843              	.LBE78:
 844              	.LBE82:
 845              	.LBE86:
 846              	.LBE90:
 487:..\..\..\lvgl\version_6.1.2\lvgl\src\lv_draw/lv_draw_line.c ****             draw_area.x1 = prev_p.x + pattern[i].x;
 847              		.loc 1 487 0
 848 041c 099B     		ldr	r3, [sp, #36]
 849 041e 002B     		cmp	r3, #0
 850 0420 7FF706AE 		ble	.L1
 851 0424 BDF81C60 		ldrh	r6, [sp, #28]
 852              	.LVL88:
 853 0428 0028     		cmp	r0, #0
 854 042a 7AD0     		beq	.L176
 855 042c 0A9F     		ldr	r7, [sp, #40]
 856 042e DDF83090 		ldr	r9, [sp, #48]
 857 0432 DDF82CA0 		ldr	r10, [sp, #44]
 858 0436 DDF840B0 		ldr	fp, [sp, #64]
 859 043a 1AAD     		add	r5, sp, #104
 860              	.LVL89:
 861              	.L68:
 488:..\..\..\lvgl\version_6.1.2\lvgl\src\lv_draw/lv_draw_line.c ****             draw_area.y1 = prev_p.y + pattern[i].y;
 862              		.loc 1 488 0
 863 043c 3C88     		ldrh	r4, [r7]
 864 043e BDF86410 		ldrh	r1, [sp, #100]
 489:..\..\..\lvgl\version_6.1.2\lvgl\src\lv_draw/lv_draw_line.c ****             draw_area.x2 = draw_area.x1 + main_line->p_act.x - prev_p.x;
 865              		.loc 1 489 0
 866 0442 BDF86630 		ldrh	r3, [sp, #102]
 490:..\..\..\lvgl\version_6.1.2\lvgl\src\lv_draw/lv_draw_line.c ****             draw_area.y2 = draw_area.y1;
 867              		.loc 1 490 0
 868 0446 BDF86400 		ldrh	r0, [sp, #100]
 492:..\..\..\lvgl\version_6.1.2\lvgl\src\lv_draw/lv_draw_line.c **** 
 869              		.loc 1 492 0
 870 044a D9F80020 		ldr	r2, [r9]
 488:..\..\..\lvgl\version_6.1.2\lvgl\src\lv_draw/lv_draw_line.c ****             draw_area.y1 = prev_p.y + pattern[i].y;
 871              		.loc 1 488 0
 872 044e 2144     		add	r1, r1, r4
 873 0450 89B2     		uxth	r1, r1
 874 0452 ADF86810 		strh	r1, [sp, #104]	@ movhi
 489:..\..\..\lvgl\version_6.1.2\lvgl\src\lv_draw/lv_draw_line.c ****             draw_area.x2 = draw_area.x1 + main_line->p_act.x - prev_p.x;
 875              		.loc 1 489 0
 876 0456 7C88     		ldrh	r4, [r7, #2]
 490:..\..\..\lvgl\version_6.1.2\lvgl\src\lv_draw/lv_draw_line.c ****             draw_area.y2 = draw_area.y1;
 877              		.loc 1 490 0
 878 0458 301A     		subs	r0, r6, r0
 879 045a 0844     		add	r0, r0, r1
 489:..\..\..\lvgl\version_6.1.2\lvgl\src\lv_draw/lv_draw_line.c ****             draw_area.x2 = draw_area.x1 + main_line->p_act.x - prev_p.x;
 880              		.loc 1 489 0
 881 045c 1C44     		add	r4, r4, r3
ARM GAS  C:\Users\pearlstl\AppData\Local\Temp\ccuP9Sbb.s 			page 30


 882 045e 24B2     		sxth	r4, r4
 490:..\..\..\lvgl\version_6.1.2\lvgl\src\lv_draw/lv_draw_line.c ****             draw_area.y2 = draw_area.y1;
 883              		.loc 1 490 0
 884 0460 ADF86C00 		strh	r0, [sp, #108]	@ movhi
 885 0464 0437     		adds	r7, r7, #4
 492:..\..\..\lvgl\version_6.1.2\lvgl\src\lv_draw/lv_draw_line.c **** 
 886              		.loc 1 492 0
 887 0466 5346     		mov	r3, r10
 888 0468 4146     		mov	r1, r8
 889 046a 2846     		mov	r0, r5
 489:..\..\..\lvgl\version_6.1.2\lvgl\src\lv_draw/lv_draw_line.c ****             draw_area.x2 = draw_area.x1 + main_line->p_act.x - prev_p.x;
 890              		.loc 1 489 0
 891 046c ADF86A40 		strh	r4, [sp, #106]	@ movhi
 491:..\..\..\lvgl\version_6.1.2\lvgl\src\lv_draw/lv_draw_line.c ****             lv_draw_fill(&draw_area, mask, style->line.color, opa);
 892              		.loc 1 491 0
 893 0470 ADF86E40 		strh	r4, [sp, #110]	@ movhi
 492:..\..\..\lvgl\version_6.1.2\lvgl\src\lv_draw/lv_draw_line.c **** 
 894              		.loc 1 492 0
 895 0474 FFF7FEFF 		bl	lv_draw_fill
 896              	.LVL90:
 487:..\..\..\lvgl\version_6.1.2\lvgl\src\lv_draw/lv_draw_line.c ****             draw_area.x1 = prev_p.x + pattern[i].x;
 897              		.loc 1 487 0
 898 0478 BB45     		cmp	fp, r7
 899 047a DFD1     		bne	.L68
 900 047c D8E5     		b	.L1
 901              	.LVL91:
 902              	.L104:
 903              	.LBB91:
 904              	.LBB87:
 905              	.LBB83:
 906              	.LBB79:
 600:..\..\..\lvgl\version_6.1.2\lvgl\src\lv_draw/lv_draw_line.c ****         line->err += line->dx;
 907              		.loc 1 600 0
 908 047e 1446     		mov	r4, r2
 909              	.LVL92:
 910 0480 54E7     		b	.L52
 911              	.LVL93:
 912              	.L61:
 913 0482 0A9B     		ldr	r3, [sp, #40]
 914 0484 0D94     		str	r4, [sp, #52]
 915 0486 CDF838A0 		str	r10, [sp, #56]
 916 048a 1196     		str	r6, [sp, #68]
 917 048c 0C9C     		ldr	r4, [sp, #48]
 918              	.LVL94:
 919 048e DDF824A0 		ldr	r10, [sp, #36]
 920 0492 0B9E     		ldr	r6, [sp, #44]
 921              	.LVL95:
 922 0494 CDF83CB0 		str	fp, [sp, #60]
 923              	.LBE79:
 924              	.LBE83:
 925              	.LBE87:
 926              	.LBE91:
 456:..\..\..\lvgl\version_6.1.2\lvgl\src\lv_draw/lv_draw_line.c ****                 draw_area.x1 = prev_p.x + pattern[i].x;
 927              		.loc 1 456 0
 928 0498 0746     		mov	r7, r0
 929 049a 9D1C     		adds	r5, r3, #2
 930 049c 9346     		mov	fp, r2
ARM GAS  C:\Users\pearlstl\AppData\Local\Temp\ccuP9Sbb.s 			page 31


 931              	.LVL96:
 932              	.L63:
 457:..\..\..\lvgl\version_6.1.2\lvgl\src\lv_draw/lv_draw_line.c ****                 draw_area.y1 = prev_p.y + pattern[i].y;
 933              		.loc 1 457 0
 934 049e 35F802EC 		ldrh	lr, [r5, #-2]
 935 04a2 BDF86400 		ldrh	r0, [sp, #100]
 458:..\..\..\lvgl\version_6.1.2\lvgl\src\lv_draw/lv_draw_line.c ****                 draw_area.x2 = draw_area.x1 + main_line->p_act.x - prev_p.x - 1;
 936              		.loc 1 458 0
 937 04a6 BDF86610 		ldrh	r1, [sp, #102]
 459:..\..\..\lvgl\version_6.1.2\lvgl\src\lv_draw/lv_draw_line.c ****                 draw_area.y2 = draw_area.y1;
 938              		.loc 1 459 0
 939 04aa BDF86430 		ldrh	r3, [sp, #100]
 461:..\..\..\lvgl\version_6.1.2\lvgl\src\lv_draw/lv_draw_line.c **** 
 940              		.loc 1 461 0
 941 04ae 2268     		ldr	r2, [r4]
 457:..\..\..\lvgl\version_6.1.2\lvgl\src\lv_draw/lv_draw_line.c ****                 draw_area.y1 = prev_p.y + pattern[i].y;
 942              		.loc 1 457 0
 943 04b0 7044     		add	r0, r0, lr
 944 04b2 80B2     		uxth	r0, r0
 945 04b4 ADF86800 		strh	r0, [sp, #104]	@ movhi
 458:..\..\..\lvgl\version_6.1.2\lvgl\src\lv_draw/lv_draw_line.c ****                 draw_area.x2 = draw_area.x1 + main_line->p_act.x - prev_p.x - 1;
 946              		.loc 1 458 0
 947 04b8 B5F800E0 		ldrh	lr, [r5]
 459:..\..\..\lvgl\version_6.1.2\lvgl\src\lv_draw/lv_draw_line.c ****                 draw_area.y2 = draw_area.y1;
 948              		.loc 1 459 0
 949 04bc DB43     		mvns	r3, r3
 950 04be 5B44     		add	r3, r3, fp
 951 04c0 1844     		add	r0, r0, r3
 458:..\..\..\lvgl\version_6.1.2\lvgl\src\lv_draw/lv_draw_line.c ****                 draw_area.x2 = draw_area.x1 + main_line->p_act.x - prev_p.x - 1;
 952              		.loc 1 458 0
 953 04c2 8E44     		add	lr, lr, r1
 954 04c4 0FFA8EFE 		sxth	lr, lr
 459:..\..\..\lvgl\version_6.1.2\lvgl\src\lv_draw/lv_draw_line.c ****                 draw_area.y2 = draw_area.y1;
 955              		.loc 1 459 0
 956 04c8 ADF86C00 		strh	r0, [sp, #108]	@ movhi
 461:..\..\..\lvgl\version_6.1.2\lvgl\src\lv_draw/lv_draw_line.c **** 
 957              		.loc 1 461 0
 958 04cc 3346     		mov	r3, r6
 959 04ce 4146     		mov	r1, r8
 960 04d0 1AA8     		add	r0, sp, #104
 458:..\..\..\lvgl\version_6.1.2\lvgl\src\lv_draw/lv_draw_line.c ****                 draw_area.x2 = draw_area.x1 + main_line->p_act.x - prev_p.x - 1;
 961              		.loc 1 458 0
 962 04d2 ADF86AE0 		strh	lr, [sp, #106]	@ movhi
 460:..\..\..\lvgl\version_6.1.2\lvgl\src\lv_draw/lv_draw_line.c ****                 lv_draw_fill(&draw_area, mask, style->line.color, opa);
 963              		.loc 1 460 0
 964 04d6 ADF86EE0 		strh	lr, [sp, #110]	@ movhi
 461:..\..\..\lvgl\version_6.1.2\lvgl\src\lv_draw/lv_draw_line.c **** 
 965              		.loc 1 461 0
 966 04da FFF7FEFF 		bl	lv_draw_fill
 967              	.LVL97:
 467:..\..\..\lvgl\version_6.1.2\lvgl\src\lv_draw/lv_draw_line.c ****                 }
 968              		.loc 1 467 0
 969 04de 4246     		mov	r2, r8
 466:..\..\..\lvgl\version_6.1.2\lvgl\src\lv_draw/lv_draw_line.c ****                     lv_draw_px(draw_area.x1, draw_area.y1 - main_line->sy, mask, style->line.color,
 970              		.loc 1 466 0
 971 04e0 97B1     		cbz	r7, .L62
 972 04e2 35F9061C 		ldrsh	r1, [r5, #-6]
ARM GAS  C:\Users\pearlstl\AppData\Local\Temp\ccuP9Sbb.s 			page 32


 973 04e6 35F9023C 		ldrsh	r3, [r5, #-2]
 974 04ea 9942     		cmp	r1, r3
 975 04ec 0CD0     		beq	.L62
 467:..\..\..\lvgl\version_6.1.2\lvgl\src\lv_draw/lv_draw_line.c ****                 }
 976              		.loc 1 467 0
 977 04ee 069B     		ldr	r3, [sp, #24]
 978 04f0 BDF86A10 		ldrh	r1, [sp, #106]
 979 04f4 D4F800E0 		ldr	lr, [r4]
 980 04f8 BDF96800 		ldrsh	r0, [sp, #104]
 981 04fc 0096     		str	r6, [sp]
 982 04fe C91A     		subs	r1, r1, r3
 983 0500 09B2     		sxth	r1, r1
 984 0502 7346     		mov	r3, lr
 985 0504 FFF7FEFF 		bl	lv_draw_px
 986              	.LVL98:
 987              	.L62:
 988 0508 0137     		adds	r7, r7, #1
 989              	.LVL99:
 456:..\..\..\lvgl\version_6.1.2\lvgl\src\lv_draw/lv_draw_line.c ****                 draw_area.x1 = prev_p.x + pattern[i].x;
 990              		.loc 1 456 0
 991 050a 3BB2     		sxth	r3, r7
 992 050c 9A45     		cmp	r10, r3
 993 050e 05F10405 		add	r5, r5, #4
 994 0512 C4DC     		bgt	.L63
 995 0514 0DAC     		add	r4, sp, #52
 996 0516 94E8100C 		ldmia	r4, {r4, r10, fp}
 997              	.LVL100:
 998 051a 119E     		ldr	r6, [sp, #68]
 999 051c 54E7     		b	.L60
 1000              	.LVL101:
 1001              	.L106:
 1002              	.LBB92:
 1003              	.LBB88:
 1004              	.LBB84:
 1005              	.LBB80:
 600:..\..\..\lvgl\version_6.1.2\lvgl\src\lv_draw/lv_draw_line.c ****         line->err += line->dx;
 1006              		.loc 1 600 0
 1007 051e 1446     		mov	r4, r2
 1008              	.LVL102:
 1009 0520 62E7     		b	.L51
 1010              	.LVL103:
 1011              	.L176:
 1012 0522 0A9F     		ldr	r7, [sp, #40]
 1013 0524 DDF83090 		ldr	r9, [sp, #48]
 1014 0528 DDF82CA0 		ldr	r10, [sp, #44]
 1015 052c 9B46     		mov	fp, r3
 1016 052e 0237     		adds	r7, r7, #2
 1017              	.LBE80:
 1018              	.LBE84:
 1019              	.LBE88:
 1020              	.LBE92:
 487:..\..\..\lvgl\version_6.1.2\lvgl\src\lv_draw/lv_draw_line.c ****             draw_area.x1 = prev_p.x + pattern[i].x;
 1021              		.loc 1 487 0
 1022 0530 0446     		mov	r4, r0
 1023              	.LVL104:
 1024 0532 1AAD     		add	r5, sp, #104
 1025              	.LVL105:
ARM GAS  C:\Users\pearlstl\AppData\Local\Temp\ccuP9Sbb.s 			page 33


 1026              	.L66:
 488:..\..\..\lvgl\version_6.1.2\lvgl\src\lv_draw/lv_draw_line.c ****             draw_area.y1 = prev_p.y + pattern[i].y;
 1027              		.loc 1 488 0
 1028 0534 37F8021C 		ldrh	r1, [r7, #-2]
 1029 0538 BDF864E0 		ldrh	lr, [sp, #100]
 489:..\..\..\lvgl\version_6.1.2\lvgl\src\lv_draw/lv_draw_line.c ****             draw_area.x2 = draw_area.x1 + main_line->p_act.x - prev_p.x;
 1030              		.loc 1 489 0
 1031 053c BDF86630 		ldrh	r3, [sp, #102]
 490:..\..\..\lvgl\version_6.1.2\lvgl\src\lv_draw/lv_draw_line.c ****             draw_area.y2 = draw_area.y1;
 1032              		.loc 1 490 0
 1033 0540 BDF86400 		ldrh	r0, [sp, #100]
 492:..\..\..\lvgl\version_6.1.2\lvgl\src\lv_draw/lv_draw_line.c **** 
 1034              		.loc 1 492 0
 1035 0544 D9F80020 		ldr	r2, [r9]
 488:..\..\..\lvgl\version_6.1.2\lvgl\src\lv_draw/lv_draw_line.c ****             draw_area.y1 = prev_p.y + pattern[i].y;
 1036              		.loc 1 488 0
 1037 0548 7144     		add	r1, r1, lr
 1038 054a 89B2     		uxth	r1, r1
 1039 054c ADF86810 		strh	r1, [sp, #104]	@ movhi
 489:..\..\..\lvgl\version_6.1.2\lvgl\src\lv_draw/lv_draw_line.c ****             draw_area.x2 = draw_area.x1 + main_line->p_act.x - prev_p.x;
 1040              		.loc 1 489 0
 1041 0550 B7F800E0 		ldrh	lr, [r7]
 490:..\..\..\lvgl\version_6.1.2\lvgl\src\lv_draw/lv_draw_line.c ****             draw_area.y2 = draw_area.y1;
 1042              		.loc 1 490 0
 1043 0554 301A     		subs	r0, r6, r0
 1044 0556 0844     		add	r0, r0, r1
 489:..\..\..\lvgl\version_6.1.2\lvgl\src\lv_draw/lv_draw_line.c ****             draw_area.x2 = draw_area.x1 + main_line->p_act.x - prev_p.x;
 1045              		.loc 1 489 0
 1046 0558 9E44     		add	lr, lr, r3
 1047 055a 0FFA8EFE 		sxth	lr, lr
 490:..\..\..\lvgl\version_6.1.2\lvgl\src\lv_draw/lv_draw_line.c ****             draw_area.y2 = draw_area.y1;
 1048              		.loc 1 490 0
 1049 055e ADF86C00 		strh	r0, [sp, #108]	@ movhi
 492:..\..\..\lvgl\version_6.1.2\lvgl\src\lv_draw/lv_draw_line.c **** 
 1050              		.loc 1 492 0
 1051 0562 5346     		mov	r3, r10
 1052 0564 4146     		mov	r1, r8
 1053 0566 2846     		mov	r0, r5
 489:..\..\..\lvgl\version_6.1.2\lvgl\src\lv_draw/lv_draw_line.c ****             draw_area.x2 = draw_area.x1 + main_line->p_act.x - prev_p.x;
 1054              		.loc 1 489 0
 1055 0568 ADF86AE0 		strh	lr, [sp, #106]	@ movhi
 491:..\..\..\lvgl\version_6.1.2\lvgl\src\lv_draw/lv_draw_line.c ****             lv_draw_fill(&draw_area, mask, style->line.color, opa);
 1056              		.loc 1 491 0
 1057 056c ADF86EE0 		strh	lr, [sp, #110]	@ movhi
 492:..\..\..\lvgl\version_6.1.2\lvgl\src\lv_draw/lv_draw_line.c **** 
 1058              		.loc 1 492 0
 1059 0570 FFF7FEFF 		bl	lv_draw_fill
 1060              	.LVL106:
 497:..\..\..\lvgl\version_6.1.2\lvgl\src\lv_draw/lv_draw_line.c ****             }
 1061              		.loc 1 497 0
 1062 0574 4246     		mov	r2, r8
 496:..\..\..\lvgl\version_6.1.2\lvgl\src\lv_draw/lv_draw_line.c ****                 lv_draw_px(draw_area.x1, draw_area.y1 - main_line->sy, mask, style->line.color, opa
 1063              		.loc 1 496 0
 1064 0576 9CB1     		cbz	r4, .L65
 1065 0578 37F9061C 		ldrsh	r1, [r7, #-6]
 1066 057c 37F9023C 		ldrsh	r3, [r7, #-2]
 1067 0580 9942     		cmp	r1, r3
ARM GAS  C:\Users\pearlstl\AppData\Local\Temp\ccuP9Sbb.s 			page 34


 1068 0582 0DD0     		beq	.L65
 497:..\..\..\lvgl\version_6.1.2\lvgl\src\lv_draw/lv_draw_line.c ****             }
 1069              		.loc 1 497 0
 1070 0584 069B     		ldr	r3, [sp, #24]
 1071 0586 BDF86A10 		ldrh	r1, [sp, #106]
 1072 058a D9F800E0 		ldr	lr, [r9]
 1073 058e BDF96800 		ldrsh	r0, [sp, #104]
 1074 0592 CDF800A0 		str	r10, [sp]
 1075 0596 C91A     		subs	r1, r1, r3
 1076 0598 09B2     		sxth	r1, r1
 1077 059a 7346     		mov	r3, lr
 1078 059c FFF7FEFF 		bl	lv_draw_px
 1079              	.LVL107:
 1080              	.L65:
 1081 05a0 0134     		adds	r4, r4, #1
 1082              	.LVL108:
 487:..\..\..\lvgl\version_6.1.2\lvgl\src\lv_draw/lv_draw_line.c ****             draw_area.x1 = prev_p.x + pattern[i].x;
 1083              		.loc 1 487 0
 1084 05a2 23B2     		sxth	r3, r4
 1085 05a4 9B45     		cmp	fp, r3
 1086 05a6 07F10407 		add	r7, r7, #4
 1087 05aa C3DC     		bgt	.L66
 1088 05ac 40E5     		b	.L1
 1089              	.LVL109:
 1090              	.L42:
 315:..\..\..\lvgl\version_6.1.2\lvgl\src\lv_draw/lv_draw_line.c ****     }
 1091              		.loc 1 315 0
 1092 05ae 079B     		ldr	r3, [sp, #28]
 1093              	.LVL110:
 1094 05b0 B342     		cmp	r3, r6
 1095 05b2 3FF799AE 		bgt	.L43
 1096 05b6 0A9A     		ldr	r2, [sp, #40]
 449:..\..\..\lvgl\version_6.1.2\lvgl\src\lv_draw/lv_draw_line.c ****     prev_p.y = main_line->p1.y;
 1097              		.loc 1 449 0
 1098 05b8 ADF86460 		strh	r6, [sp, #100]	@ movhi
 315:..\..\..\lvgl\version_6.1.2\lvgl\src\lv_draw/lv_draw_line.c ****     }
 1099              		.loc 1 315 0
 1100 05bc 1388     		ldrh	r3, [r2]
 450:..\..\..\lvgl\version_6.1.2\lvgl\src\lv_draw/lv_draw_line.c ****     lv_area_t draw_area;
 1101              		.loc 1 450 0
 1102 05be ADF86650 		strh	r5, [sp, #102]	@ movhi
 315:..\..\..\lvgl\version_6.1.2\lvgl\src\lv_draw/lv_draw_line.c ****     }
 1103              		.loc 1 315 0
 1104 05c2 013B     		subs	r3, r3, #1
 1105 05c4 1380     		strh	r3, [r2]	@ movhi
 1106              	.LVL111:
 450:..\..\..\lvgl\version_6.1.2\lvgl\src\lv_draw/lv_draw_line.c ****     lv_area_t draw_area;
 1107              		.loc 1 450 0
 1108 05c6 0023     		movs	r3, #0
 1109 05c8 0993     		str	r3, [sp, #36]
 1110              	.LVL112:
 1111              	.L44:
 1112 05ca 099B     		ldr	r3, [sp, #36]
 1113 05cc 0A9A     		ldr	r2, [sp, #40]
 1114 05ce 0E9C     		ldr	r4, [sp, #56]
 1115              	.LVL113:
 1116 05d0 013B     		subs	r3, r3, #1
ARM GAS  C:\Users\pearlstl\AppData\Local\Temp\ccuP9Sbb.s 			page 35


 1117 05d2 9BB2     		uxth	r3, r3
 1118 05d4 0133     		adds	r3, r3, #1
 1119 05d6 02EB8303 		add	r3, r2, r3, lsl #2
 1120 05da 1193     		str	r3, [sp, #68]
 1121 05dc 079B     		ldr	r3, [sp, #28]
 1122 05de B342     		cmp	r3, r6
 1123 05e0 C9F10009 		rsb	r9, r9, #0
 487:..\..\..\lvgl\version_6.1.2\lvgl\src\lv_draw/lv_draw_line.c ****             draw_area.x1 = prev_p.x + pattern[i].x;
 1124              		.loc 1 487 0
 1125 05e4 4FF00102 		mov	r2, #1
 1126              	.LVL114:
 1127 05e8 5BD0     		beq	.L177
 1128              	.L70:
 1129              	.LBB93:
 1130              	.LBB94:
 1131              	.LBB95:
 1132              	.LBB96:
 598:..\..\..\lvgl\version_6.1.2\lvgl\src\lv_draw/lv_draw_line.c ****     }
 1133              		.loc 1 598 0
 1134 05ea 0D9B     		ldr	r3, [sp, #52]
 1135 05ec 9819     		adds	r0, r3, r6
 1136 05ee 00B2     		sxth	r0, r0
 1137              	.LVL115:
 1138              	.L72:
 597:..\..\..\lvgl\version_6.1.2\lvgl\src\lv_draw/lv_draw_line.c ****         line->p_act.x += line->sx;
 1139              		.loc 1 597 0
 1140 05f0 CAEB0403 		rsb	r3, r10, r4
 596:..\..\..\lvgl\version_6.1.2\lvgl\src\lv_draw/lv_draw_line.c ****         line->err -= line->dy;
 1141              		.loc 1 596 0
 1142 05f4 A145     		cmp	r9, r4
 597:..\..\..\lvgl\version_6.1.2\lvgl\src\lv_draw/lv_draw_line.c ****         line->p_act.x += line->sx;
 1143              		.loc 1 597 0
 1144 05f6 1BB2     		sxth	r3, r3
 1145              	.LVL116:
 598:..\..\..\lvgl\version_6.1.2\lvgl\src\lv_draw/lv_draw_line.c ****     }
 1146              		.loc 1 598 0
 1147 05f8 0146     		mov	r1, r0
 1148              	.LVL117:
 596:..\..\..\lvgl\version_6.1.2\lvgl\src\lv_draw/lv_draw_line.c ****         line->err -= line->dy;
 1149              		.loc 1 596 0
 1150 05fa 6BDA     		bge	.L73
 600:..\..\..\lvgl\version_6.1.2\lvgl\src\lv_draw/lv_draw_line.c ****         line->err += line->dx;
 1151              		.loc 1 600 0
 1152 05fc 5C45     		cmp	r4, fp
 597:..\..\..\lvgl\version_6.1.2\lvgl\src\lv_draw/lv_draw_line.c ****         line->p_act.x += line->sx;
 1153              		.loc 1 597 0
 1154 05fe 1C46     		mov	r4, r3
 600:..\..\..\lvgl\version_6.1.2\lvgl\src\lv_draw/lv_draw_line.c ****         line->err += line->dx;
 1155              		.loc 1 600 0
 1156 0600 05DA     		bge	.L74
 1157              	.L95:
 601:..\..\..\lvgl\version_6.1.2\lvgl\src\lv_draw/lv_draw_line.c ****         line->p_act.y += line->sy;
 1158              		.loc 1 601 0
 1159 0602 039B     		ldr	r3, [sp, #12]
 1160              	.LVL118:
 1161 0604 1C44     		add	r4, r4, r3
 602:..\..\..\lvgl\version_6.1.2\lvgl\src\lv_draw/lv_draw_line.c ****     }
ARM GAS  C:\Users\pearlstl\AppData\Local\Temp\ccuP9Sbb.s 			page 36


 1162              		.loc 1 602 0
 1163 0606 069B     		ldr	r3, [sp, #24]
 1164 0608 1D44     		add	r5, r5, r3
 1165              	.LVL119:
 601:..\..\..\lvgl\version_6.1.2\lvgl\src\lv_draw/lv_draw_line.c ****         line->p_act.y += line->sy;
 1166              		.loc 1 601 0
 1167 060a 24B2     		sxth	r4, r4
 1168              	.LVL120:
 602:..\..\..\lvgl\version_6.1.2\lvgl\src\lv_draw/lv_draw_line.c ****     }
 1169              		.loc 1 602 0
 1170 060c 2DB2     		sxth	r5, r5
 1171              	.LVL121:
 1172              	.L74:
 1173              	.LBE96:
 1174              	.LBE95:
 619:..\..\..\lvgl\version_6.1.2\lvgl\src\lv_draw/lv_draw_line.c **** 
 620:..\..\..\lvgl\version_6.1.2\lvgl\src\lv_draw/lv_draw_line.c ****     return true;
 621:..\..\..\lvgl\version_6.1.2\lvgl\src\lv_draw/lv_draw_line.c **** }
 622:..\..\..\lvgl\version_6.1.2\lvgl\src\lv_draw/lv_draw_line.c **** 
 623:..\..\..\lvgl\version_6.1.2\lvgl\src\lv_draw/lv_draw_line.c **** /**
 624:..\..\..\lvgl\version_6.1.2\lvgl\src\lv_draw/lv_draw_line.c ****  * Iterate until step one in x direction.
 625:..\..\..\lvgl\version_6.1.2\lvgl\src\lv_draw/lv_draw_line.c ****  * @param line
 626:..\..\..\lvgl\version_6.1.2\lvgl\src\lv_draw/lv_draw_line.c ****  * @return
 627:..\..\..\lvgl\version_6.1.2\lvgl\src\lv_draw/lv_draw_line.c ****  */
 628:..\..\..\lvgl\version_6.1.2\lvgl\src\lv_draw/lv_draw_line.c **** static bool line_next_x(line_draw_t * line)
 629:..\..\..\lvgl\version_6.1.2\lvgl\src\lv_draw/lv_draw_line.c **** {
 630:..\..\..\lvgl\version_6.1.2\lvgl\src\lv_draw/lv_draw_line.c ****     lv_coord_t last_x = line->p_act.x;
 631:..\..\..\lvgl\version_6.1.2\lvgl\src\lv_draw/lv_draw_line.c **** 
 632:..\..\..\lvgl\version_6.1.2\lvgl\src\lv_draw/lv_draw_line.c ****     do {
 633:..\..\..\lvgl\version_6.1.2\lvgl\src\lv_draw/lv_draw_line.c ****         if(!line_next(line)) return false;
 634:..\..\..\lvgl\version_6.1.2\lvgl\src\lv_draw/lv_draw_line.c ****     } while(last_x == line->p_act.x);
 1175              		.loc 1 634 0
 1176 060e B142     		cmp	r1, r6
 1177 0610 EED0     		beq	.L72
 1178 0612 0E46     		mov	r6, r1
 1179              	.LVL122:
 1180              	.L76:
 1181              	.LBE94:
 1182              	.LBE93:
 514:..\..\..\lvgl\version_6.1.2\lvgl\src\lv_draw/lv_draw_line.c ****                 draw_area.x1 = prev_p.x + pattern[i].x;
 1183              		.loc 1 514 0
 1184 0614 099B     		ldr	r3, [sp, #36]
 1185 0616 002B     		cmp	r3, #0
 1186 0618 3ADD     		ble	.L81
 1187 061a ABB2     		uxth	r3, r5
 1188 061c 1946     		mov	r1, r3
 1189 061e 002A     		cmp	r2, #0
 1190 0620 00F09380 		beq	.L82
 1191 0624 1AAA     		add	r2, sp, #104
 1192              	.LVL123:
 1193 0626 0494     		str	r4, [sp, #16]
 1194 0628 0595     		str	r5, [sp, #20]
 1195 062a 1096     		str	r6, [sp, #64]
 1196 062c 0A9F     		ldr	r7, [sp, #40]
 1197 062e 0C9C     		ldr	r4, [sp, #48]
 1198              	.LVL124:
 1199 0630 0B9D     		ldr	r5, [sp, #44]
ARM GAS  C:\Users\pearlstl\AppData\Local\Temp\ccuP9Sbb.s 			page 37


 1200              	.LVL125:
 1201 0632 119E     		ldr	r6, [sp, #68]
 1202 0634 CDF838B0 		str	fp, [sp, #56]
 1203 0638 CDF83CA0 		str	r10, [sp, #60]
 1204 063c 9346     		mov	fp, r2
 1205 063e 9A46     		mov	r10, r3
 1206              	.LVL126:
 1207              	.L69:
 515:..\..\..\lvgl\version_6.1.2\lvgl\src\lv_draw/lv_draw_line.c ****                 draw_area.y1 = prev_p.y + pattern[i].y;
 1208              		.loc 1 515 0
 1209 0640 3888     		ldrh	r0, [r7]
 1210 0642 BDF86430 		ldrh	r3, [sp, #100]
 516:..\..\..\lvgl\version_6.1.2\lvgl\src\lv_draw/lv_draw_line.c ****                 draw_area.x2 = draw_area.x1;
 1211              		.loc 1 516 0
 1212 0646 BDF86610 		ldrh	r1, [sp, #102]
 518:..\..\..\lvgl\version_6.1.2\lvgl\src\lv_draw/lv_draw_line.c **** 
 1213              		.loc 1 518 0
 1214 064a BDF866E0 		ldrh	lr, [sp, #102]
 520:..\..\..\lvgl\version_6.1.2\lvgl\src\lv_draw/lv_draw_line.c **** 
 1215              		.loc 1 520 0
 1216 064e 2268     		ldr	r2, [r4]
 515:..\..\..\lvgl\version_6.1.2\lvgl\src\lv_draw/lv_draw_line.c ****                 draw_area.y1 = prev_p.y + pattern[i].y;
 1217              		.loc 1 515 0
 1218 0650 0344     		add	r3, r3, r0
 1219 0652 1BB2     		sxth	r3, r3
 1220 0654 ADF86830 		strh	r3, [sp, #104]	@ movhi
 516:..\..\..\lvgl\version_6.1.2\lvgl\src\lv_draw/lv_draw_line.c ****                 draw_area.x2 = draw_area.x1;
 1221              		.loc 1 516 0
 1222 0658 7888     		ldrh	r0, [r7, #2]
 517:..\..\..\lvgl\version_6.1.2\lvgl\src\lv_draw/lv_draw_line.c ****                 draw_area.y2 = draw_area.y1 + main_line->p_act.y - prev_p.y - 1;
 1223              		.loc 1 517 0
 1224 065a ADF86C30 		strh	r3, [sp, #108]	@ movhi
 516:..\..\..\lvgl\version_6.1.2\lvgl\src\lv_draw/lv_draw_line.c ****                 draw_area.x2 = draw_area.x1;
 1225              		.loc 1 516 0
 1226 065e 0844     		add	r0, r0, r1
 518:..\..\..\lvgl\version_6.1.2\lvgl\src\lv_draw/lv_draw_line.c **** 
 1227              		.loc 1 518 0
 1228 0660 6FEA0E0E 		mvn	lr, lr
 516:..\..\..\lvgl\version_6.1.2\lvgl\src\lv_draw/lv_draw_line.c ****                 draw_area.x2 = draw_area.x1;
 1229              		.loc 1 516 0
 1230 0664 80B2     		uxth	r0, r0
 518:..\..\..\lvgl\version_6.1.2\lvgl\src\lv_draw/lv_draw_line.c **** 
 1231              		.loc 1 518 0
 1232 0666 D644     		add	lr, lr, r10
 1233 0668 8644     		add	lr, lr, r0
 516:..\..\..\lvgl\version_6.1.2\lvgl\src\lv_draw/lv_draw_line.c ****                 draw_area.x2 = draw_area.x1;
 1234              		.loc 1 516 0
 1235 066a ADF86A00 		strh	r0, [sp, #106]	@ movhi
 1236 066e 0437     		adds	r7, r7, #4
 520:..\..\..\lvgl\version_6.1.2\lvgl\src\lv_draw/lv_draw_line.c **** 
 1237              		.loc 1 520 0
 1238 0670 2B46     		mov	r3, r5
 1239 0672 4146     		mov	r1, r8
 1240 0674 5846     		mov	r0, fp
 518:..\..\..\lvgl\version_6.1.2\lvgl\src\lv_draw/lv_draw_line.c **** 
 1241              		.loc 1 518 0
 1242 0676 ADF86EE0 		strh	lr, [sp, #110]	@ movhi
ARM GAS  C:\Users\pearlstl\AppData\Local\Temp\ccuP9Sbb.s 			page 38


 520:..\..\..\lvgl\version_6.1.2\lvgl\src\lv_draw/lv_draw_line.c **** 
 1243              		.loc 1 520 0
 1244 067a FFF7FEFF 		bl	lv_draw_fill
 1245              	.LVL127:
 514:..\..\..\lvgl\version_6.1.2\lvgl\src\lv_draw/lv_draw_line.c ****                 draw_area.x1 = prev_p.x + pattern[i].x;
 1246              		.loc 1 514 0
 1247 067e B742     		cmp	r7, r6
 1248 0680 DED1     		bne	.L69
 1249 0682 049C     		ldr	r4, [sp, #16]
 1250 0684 059D     		ldr	r5, [sp, #20]
 1251 0686 DDF838B0 		ldr	fp, [sp, #56]
 1252 068a DDF83CA0 		ldr	r10, [sp, #60]
 1253              	.LVL128:
 1254 068e 109E     		ldr	r6, [sp, #64]
 1255              	.L81:
 1256              	.LVL129:
 1257 0690 079B     		ldr	r3, [sp, #28]
 542:..\..\..\lvgl\version_6.1.2\lvgl\src\lv_draw/lv_draw_line.c ****             prev_p.y = main_line->p_act.y;
 1258              		.loc 1 542 0
 1259 0692 ADF86460 		strh	r6, [sp, #100]	@ movhi
 1260 0696 B342     		cmp	r3, r6
 540:..\..\..\lvgl\version_6.1.2\lvgl\src\lv_draw/lv_draw_line.c **** 
 1261              		.loc 1 540 0
 1262 0698 4FF00002 		mov	r2, #0
 543:..\..\..\lvgl\version_6.1.2\lvgl\src\lv_draw/lv_draw_line.c ****         }
 1263              		.loc 1 543 0
 1264 069c ADF86650 		strh	r5, [sp, #102]	@ movhi
 1265              	.LVL130:
 1266 06a0 A3D1     		bne	.L70
 1267              	.L177:
 1268 06a2 1946     		mov	r1, r3
 1269              	.LBB105:
 1270              	.LBB103:
 1271              	.LBB100:
 1272              	.LBB97:
 598:..\..\..\lvgl\version_6.1.2\lvgl\src\lv_draw/lv_draw_line.c ****     }
 1273              		.loc 1 598 0
 1274 06a4 0D9B     		ldr	r3, [sp, #52]
 1275 06a6 5818     		adds	r0, r3, r1
 1276 06a8 00B2     		sxth	r0, r0
 1277              	.LVL131:
 1278              	.L71:
 594:..\..\..\lvgl\version_6.1.2\lvgl\src\lv_draw/lv_draw_line.c ****     line->e2 = line->err;
 1279              		.loc 1 594 0
 1280 06aa 0899     		ldr	r1, [sp, #32]
 1281 06ac A942     		cmp	r1, r5
 602:..\..\..\lvgl\version_6.1.2\lvgl\src\lv_draw/lv_draw_line.c ****     }
 1282              		.loc 1 602 0
 1283 06ae 0699     		ldr	r1, [sp, #24]
 597:..\..\..\lvgl\version_6.1.2\lvgl\src\lv_draw/lv_draw_line.c ****         line->p_act.x += line->sx;
 1284              		.loc 1 597 0
 1285 06b0 CAEB0403 		rsb	r3, r10, r4
 602:..\..\..\lvgl\version_6.1.2\lvgl\src\lv_draw/lv_draw_line.c ****     }
 1286              		.loc 1 602 0
 1287 06b4 2944     		add	r1, r1, r5
 597:..\..\..\lvgl\version_6.1.2\lvgl\src\lv_draw/lv_draw_line.c ****         line->p_act.x += line->sx;
 1288              		.loc 1 597 0
ARM GAS  C:\Users\pearlstl\AppData\Local\Temp\ccuP9Sbb.s 			page 39


 1289 06b6 1BB2     		sxth	r3, r3
 1290              	.LVL132:
 598:..\..\..\lvgl\version_6.1.2\lvgl\src\lv_draw/lv_draw_line.c ****     }
 1291              		.loc 1 598 0
 1292 06b8 0746     		mov	r7, r0
 1293              	.LVL133:
 594:..\..\..\lvgl\version_6.1.2\lvgl\src\lv_draw/lv_draw_line.c ****     line->e2 = line->err;
 1294              		.loc 1 594 0
 1295 06ba 14D0     		beq	.L178
 596:..\..\..\lvgl\version_6.1.2\lvgl\src\lv_draw/lv_draw_line.c ****         line->err -= line->dy;
 1296              		.loc 1 596 0
 1297 06bc 4C45     		cmp	r4, r9
 1298 06be 0DDD     		ble	.L79
 600:..\..\..\lvgl\version_6.1.2\lvgl\src\lv_draw/lv_draw_line.c ****         line->err += line->dx;
 1299              		.loc 1 600 0
 1300 06c0 A345     		cmp	fp, r4
 1301 06c2 40DD     		ble	.L179
 1302              	.LVL134:
 1303              	.L96:
 601:..\..\..\lvgl\version_6.1.2\lvgl\src\lv_draw/lv_draw_line.c ****         line->p_act.y += line->sy;
 1304              		.loc 1 601 0
 1305 06c4 039C     		ldr	r4, [sp, #12]
 1306              	.LVL135:
 1307 06c6 2344     		add	r3, r3, r4
 1308 06c8 1CB2     		sxth	r4, r3
 1309              	.LVL136:
 602:..\..\..\lvgl\version_6.1.2\lvgl\src\lv_draw/lv_draw_line.c ****     }
 1310              		.loc 1 602 0
 1311 06ca 0DB2     		sxth	r5, r1
 1312              	.LVL137:
 1313              	.L80:
 1314              	.LBE97:
 1315              	.LBE100:
 1316              		.loc 1 634 0
 1317 06cc BE42     		cmp	r6, r7
 1318 06ce ECD0     		beq	.L71
 1319 06d0 3E46     		mov	r6, r7
 1320              	.LVL138:
 1321 06d2 9FE7     		b	.L76
 1322              	.LVL139:
 1323              	.L73:
 1324              	.LBB101:
 1325              	.LBB98:
 600:..\..\..\lvgl\version_6.1.2\lvgl\src\lv_draw/lv_draw_line.c ****         line->err += line->dx;
 1326              		.loc 1 600 0
 1327 06d4 5C45     		cmp	r4, fp
 1328 06d6 8BDA     		bge	.L72
 1329 06d8 3146     		mov	r1, r6
 1330 06da 92E7     		b	.L95
 1331              	.L79:
 1332 06dc A345     		cmp	fp, r4
 1333 06de E4DD     		ble	.L71
 1334 06e0 2346     		mov	r3, r4
 1335              	.LVL140:
 1336 06e2 079F     		ldr	r7, [sp, #28]
 1337 06e4 EEE7     		b	.L96
 1338              	.LVL141:
ARM GAS  C:\Users\pearlstl\AppData\Local\Temp\ccuP9Sbb.s 			page 40


 1339              	.L178:
 1340              	.LBE98:
 1341              	.LBE101:
 1342              	.LBE103:
 1343              	.LBE105:
 547:..\..\..\lvgl\version_6.1.2\lvgl\src\lv_draw/lv_draw_line.c ****             draw_area.x1 = prev_p.x + pattern[i].x;
 1344              		.loc 1 547 0
 1345 06e6 099B     		ldr	r3, [sp, #36]
 1346              	.LVL142:
 1347 06e8 002B     		cmp	r3, #0
 1348 06ea 7FF7A1AC 		ble	.L1
 1349 06ee BDF82060 		ldrh	r6, [sp, #32]
 1350              	.LVL143:
 1351 06f2 002A     		cmp	r2, #0
 1352 06f4 7FD0     		beq	.L180
 1353 06f6 0A9F     		ldr	r7, [sp, #40]
 1354 06f8 0C9C     		ldr	r4, [sp, #48]
 1355              	.LVL144:
 1356 06fa DDF82C90 		ldr	r9, [sp, #44]
 1357 06fe DDF844A0 		ldr	r10, [sp, #68]
 1358 0702 1AAD     		add	r5, sp, #104
 1359              	.LVL145:
 1360              	.L88:
 548:..\..\..\lvgl\version_6.1.2\lvgl\src\lv_draw/lv_draw_line.c ****             draw_area.y1 = prev_p.y + pattern[i].y;
 1361              		.loc 1 548 0
 1362 0704 3888     		ldrh	r0, [r7]
 1363 0706 BDF86410 		ldrh	r1, [sp, #100]
 549:..\..\..\lvgl\version_6.1.2\lvgl\src\lv_draw/lv_draw_line.c ****             draw_area.x2 = draw_area.x1;
 1364              		.loc 1 549 0
 1365 070a BDF86630 		ldrh	r3, [sp, #102]
 551:..\..\..\lvgl\version_6.1.2\lvgl\src\lv_draw/lv_draw_line.c **** 
 1366              		.loc 1 551 0
 1367 070e BDF866E0 		ldrh	lr, [sp, #102]
 553:..\..\..\lvgl\version_6.1.2\lvgl\src\lv_draw/lv_draw_line.c **** 
 1368              		.loc 1 553 0
 1369 0712 2268     		ldr	r2, [r4]
 548:..\..\..\lvgl\version_6.1.2\lvgl\src\lv_draw/lv_draw_line.c ****             draw_area.y1 = prev_p.y + pattern[i].y;
 1370              		.loc 1 548 0
 1371 0714 0144     		add	r1, r1, r0
 1372 0716 09B2     		sxth	r1, r1
 1373 0718 ADF86810 		strh	r1, [sp, #104]	@ movhi
 549:..\..\..\lvgl\version_6.1.2\lvgl\src\lv_draw/lv_draw_line.c ****             draw_area.x2 = draw_area.x1;
 1374              		.loc 1 549 0
 1375 071c 7888     		ldrh	r0, [r7, #2]
 550:..\..\..\lvgl\version_6.1.2\lvgl\src\lv_draw/lv_draw_line.c ****             draw_area.y2 = draw_area.y1 + main_line->p_act.y - prev_p.y;
 1376              		.loc 1 550 0
 1377 071e ADF86C10 		strh	r1, [sp, #108]	@ movhi
 549:..\..\..\lvgl\version_6.1.2\lvgl\src\lv_draw/lv_draw_line.c ****             draw_area.x2 = draw_area.x1;
 1378              		.loc 1 549 0
 1379 0722 1844     		add	r0, r0, r3
 1380 0724 80B2     		uxth	r0, r0
 551:..\..\..\lvgl\version_6.1.2\lvgl\src\lv_draw/lv_draw_line.c **** 
 1381              		.loc 1 551 0
 1382 0726 CEEB060E 		rsb	lr, lr, r6
 1383 072a 8644     		add	lr, lr, r0
 549:..\..\..\lvgl\version_6.1.2\lvgl\src\lv_draw/lv_draw_line.c ****             draw_area.x2 = draw_area.x1;
 1384              		.loc 1 549 0
ARM GAS  C:\Users\pearlstl\AppData\Local\Temp\ccuP9Sbb.s 			page 41


 1385 072c ADF86A00 		strh	r0, [sp, #106]	@ movhi
 1386 0730 0437     		adds	r7, r7, #4
 553:..\..\..\lvgl\version_6.1.2\lvgl\src\lv_draw/lv_draw_line.c **** 
 1387              		.loc 1 553 0
 1388 0732 4B46     		mov	r3, r9
 1389 0734 4146     		mov	r1, r8
 1390 0736 2846     		mov	r0, r5
 551:..\..\..\lvgl\version_6.1.2\lvgl\src\lv_draw/lv_draw_line.c **** 
 1391              		.loc 1 551 0
 1392 0738 ADF86EE0 		strh	lr, [sp, #110]	@ movhi
 553:..\..\..\lvgl\version_6.1.2\lvgl\src\lv_draw/lv_draw_line.c **** 
 1393              		.loc 1 553 0
 1394 073c FFF7FEFF 		bl	lv_draw_fill
 1395              	.LVL146:
 547:..\..\..\lvgl\version_6.1.2\lvgl\src\lv_draw/lv_draw_line.c ****             draw_area.x1 = prev_p.x + pattern[i].x;
 1396              		.loc 1 547 0
 1397 0740 BA45     		cmp	r10, r7
 1398 0742 DFD1     		bne	.L88
 1399 0744 74E4     		b	.L1
 1400              	.LVL147:
 1401              	.L179:
 1402              	.LBB106:
 1403              	.LBB104:
 1404              	.LBB102:
 1405              	.LBB99:
 597:..\..\..\lvgl\version_6.1.2\lvgl\src\lv_draw/lv_draw_line.c ****         line->p_act.x += line->sx;
 1406              		.loc 1 597 0
 1407 0746 1C46     		mov	r4, r3
 1408 0748 C0E7     		b	.L80
 1409              	.LVL148:
 1410              	.L82:
 1411 074a 0A9B     		ldr	r3, [sp, #40]
 1412 074c 0595     		str	r5, [sp, #20]
 1413 074e 9F1E     		subs	r7, r3, #2
 1414 0750 1096     		str	r6, [sp, #64]
 1415 0752 1AAB     		add	r3, sp, #104
 1416 0754 CDF84890 		str	r9, [sp, #72]
 1417 0758 0C9D     		ldr	r5, [sp, #48]
 1418              	.LVL149:
 1419 075a 0B9E     		ldr	r6, [sp, #44]
 1420 075c DDF82490 		ldr	r9, [sp, #36]
 1421 0760 0494     		str	r4, [sp, #16]
 1422 0762 CDF838B0 		str	fp, [sp, #56]
 1423 0766 CDF83CA0 		str	r10, [sp, #60]
 1424 076a 1446     		mov	r4, r2
 1425              	.LVL150:
 1426 076c 8A46     		mov	r10, r1
 1427 076e 9B46     		mov	fp, r3
 1428              	.LVL151:
 1429              	.L84:
 1430              	.LBE99:
 1431              	.LBE102:
 1432              	.LBE104:
 1433              	.LBE106:
 515:..\..\..\lvgl\version_6.1.2\lvgl\src\lv_draw/lv_draw_line.c ****                 draw_area.y1 = prev_p.y + pattern[i].y;
 1434              		.loc 1 515 0
 1435 0770 7888     		ldrh	r0, [r7, #2]
ARM GAS  C:\Users\pearlstl\AppData\Local\Temp\ccuP9Sbb.s 			page 42


 1436 0772 BDF86430 		ldrh	r3, [sp, #100]
 516:..\..\..\lvgl\version_6.1.2\lvgl\src\lv_draw/lv_draw_line.c ****                 draw_area.x2 = draw_area.x1;
 1437              		.loc 1 516 0
 1438 0776 BDF86610 		ldrh	r1, [sp, #102]
 518:..\..\..\lvgl\version_6.1.2\lvgl\src\lv_draw/lv_draw_line.c **** 
 1439              		.loc 1 518 0
 1440 077a BDF866E0 		ldrh	lr, [sp, #102]
 520:..\..\..\lvgl\version_6.1.2\lvgl\src\lv_draw/lv_draw_line.c **** 
 1441              		.loc 1 520 0
 1442 077e 2A68     		ldr	r2, [r5]
 515:..\..\..\lvgl\version_6.1.2\lvgl\src\lv_draw/lv_draw_line.c ****                 draw_area.y1 = prev_p.y + pattern[i].y;
 1443              		.loc 1 515 0
 1444 0780 0344     		add	r3, r3, r0
 1445 0782 1BB2     		sxth	r3, r3
 1446 0784 ADF86830 		strh	r3, [sp, #104]	@ movhi
 516:..\..\..\lvgl\version_6.1.2\lvgl\src\lv_draw/lv_draw_line.c ****                 draw_area.x2 = draw_area.x1;
 1447              		.loc 1 516 0
 1448 0788 B888     		ldrh	r0, [r7, #4]
 517:..\..\..\lvgl\version_6.1.2\lvgl\src\lv_draw/lv_draw_line.c ****                 draw_area.y2 = draw_area.y1 + main_line->p_act.y - prev_p.y - 1;
 1449              		.loc 1 517 0
 1450 078a ADF86C30 		strh	r3, [sp, #108]	@ movhi
 516:..\..\..\lvgl\version_6.1.2\lvgl\src\lv_draw/lv_draw_line.c ****                 draw_area.x2 = draw_area.x1;
 1451              		.loc 1 516 0
 1452 078e 0844     		add	r0, r0, r1
 518:..\..\..\lvgl\version_6.1.2\lvgl\src\lv_draw/lv_draw_line.c **** 
 1453              		.loc 1 518 0
 1454 0790 6FEA0E0E 		mvn	lr, lr
 516:..\..\..\lvgl\version_6.1.2\lvgl\src\lv_draw/lv_draw_line.c ****                 draw_area.x2 = draw_area.x1;
 1455              		.loc 1 516 0
 1456 0794 80B2     		uxth	r0, r0
 518:..\..\..\lvgl\version_6.1.2\lvgl\src\lv_draw/lv_draw_line.c **** 
 1457              		.loc 1 518 0
 1458 0796 D644     		add	lr, lr, r10
 1459 0798 8644     		add	lr, lr, r0
 516:..\..\..\lvgl\version_6.1.2\lvgl\src\lv_draw/lv_draw_line.c ****                 draw_area.x2 = draw_area.x1;
 1460              		.loc 1 516 0
 1461 079a ADF86A00 		strh	r0, [sp, #106]	@ movhi
 520:..\..\..\lvgl\version_6.1.2\lvgl\src\lv_draw/lv_draw_line.c **** 
 1462              		.loc 1 520 0
 1463 079e 3346     		mov	r3, r6
 1464 07a0 4146     		mov	r1, r8
 1465 07a2 5846     		mov	r0, fp
 518:..\..\..\lvgl\version_6.1.2\lvgl\src\lv_draw/lv_draw_line.c **** 
 1466              		.loc 1 518 0
 1467 07a4 ADF86EE0 		strh	lr, [sp, #110]	@ movhi
 520:..\..\..\lvgl\version_6.1.2\lvgl\src\lv_draw/lv_draw_line.c **** 
 1468              		.loc 1 520 0
 1469 07a8 FFF7FEFF 		bl	lv_draw_fill
 1470              	.LVL152:
 526:..\..\..\lvgl\version_6.1.2\lvgl\src\lv_draw/lv_draw_line.c ****                 }
 1471              		.loc 1 526 0
 1472 07ac 4246     		mov	r2, r8
 525:..\..\..\lvgl\version_6.1.2\lvgl\src\lv_draw/lv_draw_line.c ****                     lv_draw_px(draw_area.x1 - main_line->sx, draw_area.y1, mask, style->line.color,
 1473              		.loc 1 525 0
 1474 07ae 94B1     		cbz	r4, .L83
 1475 07b0 B7F90010 		ldrsh	r1, [r7]
 1476 07b4 B7F90430 		ldrsh	r3, [r7, #4]
ARM GAS  C:\Users\pearlstl\AppData\Local\Temp\ccuP9Sbb.s 			page 43


 1477 07b8 9942     		cmp	r1, r3
 1478 07ba 0CD0     		beq	.L83
 526:..\..\..\lvgl\version_6.1.2\lvgl\src\lv_draw/lv_draw_line.c ****                 }
 1479              		.loc 1 526 0
 1480 07bc 0D9B     		ldr	r3, [sp, #52]
 1481 07be BDF86800 		ldrh	r0, [sp, #104]
 1482 07c2 D5F800E0 		ldr	lr, [r5]
 1483 07c6 BDF96A10 		ldrsh	r1, [sp, #106]
 1484 07ca 0096     		str	r6, [sp]
 1485 07cc C01A     		subs	r0, r0, r3
 1486 07ce 00B2     		sxth	r0, r0
 1487 07d0 7346     		mov	r3, lr
 1488 07d2 FFF7FEFF 		bl	lv_draw_px
 1489              	.LVL153:
 1490              	.L83:
 1491 07d6 0134     		adds	r4, r4, #1
 1492              	.LVL154:
 514:..\..\..\lvgl\version_6.1.2\lvgl\src\lv_draw/lv_draw_line.c ****                 draw_area.x1 = prev_p.x + pattern[i].x;
 1493              		.loc 1 514 0
 1494 07d8 23B2     		sxth	r3, r4
 1495 07da 4B45     		cmp	r3, r9
 1496 07dc 07F10407 		add	r7, r7, #4
 1497 07e0 C6DB     		blt	.L84
 1498 07e2 049C     		ldr	r4, [sp, #16]
 1499 07e4 059D     		ldr	r5, [sp, #20]
 1500 07e6 DDF838B0 		ldr	fp, [sp, #56]
 1501 07ea DDF83CA0 		ldr	r10, [sp, #60]
 1502              	.LVL155:
 1503 07ee 109E     		ldr	r6, [sp, #64]
 1504 07f0 DDF84890 		ldr	r9, [sp, #72]
 1505 07f4 4CE7     		b	.L81
 1506              	.LVL156:
 1507              	.L180:
 1508 07f6 9B46     		mov	fp, r3
 1509 07f8 0A9B     		ldr	r3, [sp, #40]
 1510 07fa DDF83090 		ldr	r9, [sp, #48]
 1511 07fe DDF82CA0 		ldr	r10, [sp, #44]
 1512              	.LVL157:
 1513 0802 9F1E     		subs	r7, r3, #2
 547:..\..\..\lvgl\version_6.1.2\lvgl\src\lv_draw/lv_draw_line.c ****             draw_area.x1 = prev_p.x + pattern[i].x;
 1514              		.loc 1 547 0
 1515 0804 1446     		mov	r4, r2
 1516 0806 1AAD     		add	r5, sp, #104
 1517              	.LVL158:
 1518              	.L87:
 548:..\..\..\lvgl\version_6.1.2\lvgl\src\lv_draw/lv_draw_line.c ****             draw_area.y1 = prev_p.y + pattern[i].y;
 1519              		.loc 1 548 0
 1520 0808 7888     		ldrh	r0, [r7, #2]
 1521 080a BDF86430 		ldrh	r3, [sp, #100]
 549:..\..\..\lvgl\version_6.1.2\lvgl\src\lv_draw/lv_draw_line.c ****             draw_area.x2 = draw_area.x1;
 1522              		.loc 1 549 0
 1523 080e BDF86610 		ldrh	r1, [sp, #102]
 551:..\..\..\lvgl\version_6.1.2\lvgl\src\lv_draw/lv_draw_line.c **** 
 1524              		.loc 1 551 0
 1525 0812 BDF866E0 		ldrh	lr, [sp, #102]
 553:..\..\..\lvgl\version_6.1.2\lvgl\src\lv_draw/lv_draw_line.c **** 
 1526              		.loc 1 553 0
ARM GAS  C:\Users\pearlstl\AppData\Local\Temp\ccuP9Sbb.s 			page 44


 1527 0816 D9F80020 		ldr	r2, [r9]
 548:..\..\..\lvgl\version_6.1.2\lvgl\src\lv_draw/lv_draw_line.c ****             draw_area.y1 = prev_p.y + pattern[i].y;
 1528              		.loc 1 548 0
 1529 081a 0344     		add	r3, r3, r0
 1530 081c 1BB2     		sxth	r3, r3
 1531 081e ADF86830 		strh	r3, [sp, #104]	@ movhi
 549:..\..\..\lvgl\version_6.1.2\lvgl\src\lv_draw/lv_draw_line.c ****             draw_area.x2 = draw_area.x1;
 1532              		.loc 1 549 0
 1533 0822 B888     		ldrh	r0, [r7, #4]
 550:..\..\..\lvgl\version_6.1.2\lvgl\src\lv_draw/lv_draw_line.c ****             draw_area.y2 = draw_area.y1 + main_line->p_act.y - prev_p.y;
 1534              		.loc 1 550 0
 1535 0824 ADF86C30 		strh	r3, [sp, #108]	@ movhi
 549:..\..\..\lvgl\version_6.1.2\lvgl\src\lv_draw/lv_draw_line.c ****             draw_area.x2 = draw_area.x1;
 1536              		.loc 1 549 0
 1537 0828 0844     		add	r0, r0, r1
 1538 082a 80B2     		uxth	r0, r0
 551:..\..\..\lvgl\version_6.1.2\lvgl\src\lv_draw/lv_draw_line.c **** 
 1539              		.loc 1 551 0
 1540 082c CEEB060E 		rsb	lr, lr, r6
 1541 0830 8644     		add	lr, lr, r0
 549:..\..\..\lvgl\version_6.1.2\lvgl\src\lv_draw/lv_draw_line.c ****             draw_area.x2 = draw_area.x1;
 1542              		.loc 1 549 0
 1543 0832 ADF86A00 		strh	r0, [sp, #106]	@ movhi
 553:..\..\..\lvgl\version_6.1.2\lvgl\src\lv_draw/lv_draw_line.c **** 
 1544              		.loc 1 553 0
 1545 0836 5346     		mov	r3, r10
 1546 0838 4146     		mov	r1, r8
 1547 083a 2846     		mov	r0, r5
 551:..\..\..\lvgl\version_6.1.2\lvgl\src\lv_draw/lv_draw_line.c **** 
 1548              		.loc 1 551 0
 1549 083c ADF86EE0 		strh	lr, [sp, #110]	@ movhi
 553:..\..\..\lvgl\version_6.1.2\lvgl\src\lv_draw/lv_draw_line.c **** 
 1550              		.loc 1 553 0
 1551 0840 FFF7FEFF 		bl	lv_draw_fill
 1552              	.LVL159:
 558:..\..\..\lvgl\version_6.1.2\lvgl\src\lv_draw/lv_draw_line.c ****             }
 1553              		.loc 1 558 0
 1554 0844 4246     		mov	r2, r8
 557:..\..\..\lvgl\version_6.1.2\lvgl\src\lv_draw/lv_draw_line.c ****                 lv_draw_px(draw_area.x1 - main_line->sx, draw_area.y1, mask, style->line.color, opa
 1555              		.loc 1 557 0
 1556 0846 9CB1     		cbz	r4, .L86
 1557 0848 B7F90010 		ldrsh	r1, [r7]
 1558 084c B7F90430 		ldrsh	r3, [r7, #4]
 1559 0850 9942     		cmp	r1, r3
 1560 0852 0DD0     		beq	.L86
 558:..\..\..\lvgl\version_6.1.2\lvgl\src\lv_draw/lv_draw_line.c ****             }
 1561              		.loc 1 558 0
 1562 0854 0D9B     		ldr	r3, [sp, #52]
 1563 0856 BDF86800 		ldrh	r0, [sp, #104]
 1564 085a D9F800E0 		ldr	lr, [r9]
 1565 085e BDF96A10 		ldrsh	r1, [sp, #106]
 1566 0862 CDF800A0 		str	r10, [sp]
 1567 0866 C01A     		subs	r0, r0, r3
 1568 0868 00B2     		sxth	r0, r0
 1569 086a 7346     		mov	r3, lr
 1570 086c FFF7FEFF 		bl	lv_draw_px
 1571              	.LVL160:
ARM GAS  C:\Users\pearlstl\AppData\Local\Temp\ccuP9Sbb.s 			page 45


 1572              	.L86:
 1573 0870 0134     		adds	r4, r4, #1
 1574              	.LVL161:
 547:..\..\..\lvgl\version_6.1.2\lvgl\src\lv_draw/lv_draw_line.c ****             draw_area.x1 = prev_p.x + pattern[i].x;
 1575              		.loc 1 547 0
 1576 0872 23B2     		sxth	r3, r4
 1577 0874 5B45     		cmp	r3, fp
 1578 0876 07F10407 		add	r7, r7, #4
 1579 087a C5DB     		blt	.L87
 1580 087c FFF7D8BB 		b	.L1
 1581              	.LVL162:
 1582              	.L166:
 1583              	.LBE111:
 1584              	.LBE115:
 1585              	.LBE123:
 1586              	.LBB124:
 1587              	.LBB125:
 206:..\..\..\lvgl\version_6.1.2\lvgl\src\lv_draw/lv_draw_line.c ****     lv_coord_t width_half = width >> 1;
 1588              		.loc 1 206 0
 1589 0880 7A1E     		subs	r2, r7, #1
 1590 0882 12B2     		sxth	r2, r2
 207:..\..\..\lvgl\version_6.1.2\lvgl\src\lv_draw/lv_draw_line.c ****     lv_coord_t width_1    = width & 0x1;
 1591              		.loc 1 207 0
 1592 0884 5410     		asrs	r4, r2, #1
 212:..\..\..\lvgl\version_6.1.2\lvgl\src\lv_draw/lv_draw_line.c ****     act_area.x2 = main_line->p2.x + width_half + width_1;
 1593              		.loc 1 212 0
 1594 0886 BDF81C10 		ldrh	r1, [sp, #28]
 1595 088a 93F84E60 		ldrb	r6, [r3, #78]	@ zero_extendqisi2
 1596              	.LVL163:
 208:..\..\..\lvgl\version_6.1.2\lvgl\src\lv_draw/lv_draw_line.c ****     lv_opa_t opa = opa_scale == LV_OPA_COVER ? style->line.opa : (uint16_t)((uint16_t)style->line.o
 1597              		.loc 1 208 0
 1598 088e 02F00100 		and	r0, r2, #1
 212:..\..\..\lvgl\version_6.1.2\lvgl\src\lv_draw/lv_draw_line.c ****     act_area.x2 = main_line->p2.x + width_half + width_1;
 1599              		.loc 1 212 0
 1600 0892 A4B2     		uxth	r4, r4
 213:..\..\..\lvgl\version_6.1.2\lvgl\src\lv_draw/lv_draw_line.c ****     act_area.y1 = main_line->p1.y;
 1601              		.loc 1 213 0
 1602 0894 2044     		add	r0, r0, r4
 209:..\..\..\lvgl\version_6.1.2\lvgl\src\lv_draw/lv_draw_line.c **** 
 1603              		.loc 1 209 0
 1604 0896 BEF1FF0F 		cmp	lr, #255
 213:..\..\..\lvgl\version_6.1.2\lvgl\src\lv_draw/lv_draw_line.c ****     act_area.y1 = main_line->p1.y;
 1605              		.loc 1 213 0
 1606 089a 0844     		add	r0, r0, r1
 212:..\..\..\lvgl\version_6.1.2\lvgl\src\lv_draw/lv_draw_line.c ****     act_area.x2 = main_line->p2.x + width_half + width_1;
 1607              		.loc 1 212 0
 1608 089c A1EB0404 		sub	r4, r1, r4
 1609 08a0 24B2     		sxth	r4, r4
 209:..\..\..\lvgl\version_6.1.2\lvgl\src\lv_draw/lv_draw_line.c **** 
 1610              		.loc 1 209 0
 1611 08a2 18BF     		it	ne
 1612 08a4 06FB0EF6 		mulne	r6, r6, lr
 213:..\..\..\lvgl\version_6.1.2\lvgl\src\lv_draw/lv_draw_line.c ****     act_area.y1 = main_line->p1.y;
 1613              		.loc 1 213 0
 1614 08a8 00B2     		sxth	r0, r0
 209:..\..\..\lvgl\version_6.1.2\lvgl\src\lv_draw/lv_draw_line.c **** 
 1615              		.loc 1 209 0
ARM GAS  C:\Users\pearlstl\AppData\Local\Temp\ccuP9Sbb.s 			page 46


 1616 08aa 18BF     		it	ne
 1617 08ac C6F30726 		ubfxne	r6, r6, #8, #8
 218:..\..\..\lvgl\version_6.1.2\lvgl\src\lv_draw/lv_draw_line.c ****     draw_area.x2 = LV_MATH_MAX(act_area.x1, act_area.x2);
 1618              		.loc 1 218 0
 1619 08b0 8442     		cmp	r4, r0
 1620 08b2 2746     		mov	r7, r4
 1621 08b4 A8BF     		it	ge
 1622 08b6 0746     		movge	r7, r0
 219:..\..\..\lvgl\version_6.1.2\lvgl\src\lv_draw/lv_draw_line.c ****     draw_area.y1 = LV_MATH_MIN(act_area.y1, act_area.y2);
 1623              		.loc 1 219 0
 1624 08b8 8442     		cmp	r4, r0
 1625 08ba B8BF     		it	lt
 1626 08bc 0446     		movlt	r4, r0
 220:..\..\..\lvgl\version_6.1.2\lvgl\src\lv_draw/lv_draw_line.c ****     draw_area.y2 = LV_MATH_MAX(act_area.y1, act_area.y2);
 1627              		.loc 1 220 0
 1628 08be 0898     		ldr	r0, [sp, #32]
 1629 08c0 9A6C     		ldr	r2, [r3, #72]
 1630              	.LVL164:
 218:..\..\..\lvgl\version_6.1.2\lvgl\src\lv_draw/lv_draw_line.c ****     draw_area.x2 = LV_MATH_MAX(act_area.x1, act_area.x2);
 1631              		.loc 1 218 0
 1632 08c2 ADF86870 		strh	r7, [sp, #104]	@ movhi
 220:..\..\..\lvgl\version_6.1.2\lvgl\src\lv_draw/lv_draw_line.c ****     draw_area.y2 = LV_MATH_MAX(act_area.y1, act_area.y2);
 1633              		.loc 1 220 0
 1634 08c6 A842     		cmp	r0, r5
 222:..\..\..\lvgl\version_6.1.2\lvgl\src\lv_draw/lv_draw_line.c **** }
 1635              		.loc 1 222 0
 1636 08c8 3346     		mov	r3, r6
 1637              	.LVL165:
 220:..\..\..\lvgl\version_6.1.2\lvgl\src\lv_draw/lv_draw_line.c ****     draw_area.y2 = LV_MATH_MAX(act_area.y1, act_area.y2);
 1638              		.loc 1 220 0
 1639 08ca 0646     		mov	r6, r0
 1640              	.LVL166:
 1641 08cc A8BF     		it	ge
 1642 08ce 2E46     		movge	r6, r5
 221:..\..\..\lvgl\version_6.1.2\lvgl\src\lv_draw/lv_draw_line.c ****     lv_draw_fill(&draw_area, mask, style->line.color, opa);
 1643              		.loc 1 221 0
 1644 08d0 8542     		cmp	r5, r0
 1645 08d2 B8BF     		it	lt
 1646 08d4 0546     		movlt	r5, r0
 1647              	.LVL167:
 222:..\..\..\lvgl\version_6.1.2\lvgl\src\lv_draw/lv_draw_line.c **** }
 1648              		.loc 1 222 0
 1649 08d6 4146     		mov	r1, r8
 1650 08d8 1AA8     		add	r0, sp, #104
 219:..\..\..\lvgl\version_6.1.2\lvgl\src\lv_draw/lv_draw_line.c ****     draw_area.y1 = LV_MATH_MIN(act_area.y1, act_area.y2);
 1651              		.loc 1 219 0
 1652 08da ADF86C40 		strh	r4, [sp, #108]	@ movhi
 220:..\..\..\lvgl\version_6.1.2\lvgl\src\lv_draw/lv_draw_line.c ****     draw_area.y2 = LV_MATH_MAX(act_area.y1, act_area.y2);
 1653              		.loc 1 220 0
 1654 08de ADF86A60 		strh	r6, [sp, #106]	@ movhi
 221:..\..\..\lvgl\version_6.1.2\lvgl\src\lv_draw/lv_draw_line.c ****     lv_draw_fill(&draw_area, mask, style->line.color, opa);
 1655              		.loc 1 221 0
 1656 08e2 ADF86E50 		strh	r5, [sp, #110]	@ movhi
 222:..\..\..\lvgl\version_6.1.2\lvgl\src\lv_draw/lv_draw_line.c **** }
 1657              		.loc 1 222 0
 1658 08e6 FFF7FEFF 		bl	lv_draw_fill
 1659              	.LVL168:
ARM GAS  C:\Users\pearlstl\AppData\Local\Temp\ccuP9Sbb.s 			page 47


 1660 08ea FFF7A1BB 		b	.L1
 1661              	.LVL169:
 1662              	.L165:
 1663              	.LBE125:
 1664              	.LBE124:
 1665              	.LBB126:
 1666              	.LBB127:
 185:..\..\..\lvgl\version_6.1.2\lvgl\src\lv_draw/lv_draw_line.c ****     lv_coord_t width_half = width >> 1;
 1667              		.loc 1 185 0
 1668 08ee 7A1E     		subs	r2, r7, #1
 1669 08f0 12B2     		sxth	r2, r2
 193:..\..\..\lvgl\version_6.1.2\lvgl\src\lv_draw/lv_draw_line.c ****     act_area.y2 = main_line->p2.y + width_half;
 1670              		.loc 1 193 0
 1671 08f2 BDF82000 		ldrh	r0, [sp, #32]
 1672 08f6 93F84E50 		ldrb	r5, [r3, #78]	@ zero_extendqisi2
 1673              	.LVL170:
 186:..\..\..\lvgl\version_6.1.2\lvgl\src\lv_draw/lv_draw_line.c ****     lv_coord_t width_1    = width & 0x1;
 1674              		.loc 1 186 0
 1675 08fa 5410     		asrs	r4, r2, #1
 1676              	.LVL171:
 193:..\..\..\lvgl\version_6.1.2\lvgl\src\lv_draw/lv_draw_line.c ****     act_area.y2 = main_line->p2.y + width_half;
 1677              		.loc 1 193 0
 1678 08fc A1B2     		uxth	r1, r4
 187:..\..\..\lvgl\version_6.1.2\lvgl\src\lv_draw/lv_draw_line.c ****     lv_opa_t opa = opa_scale == LV_OPA_COVER ? style->line.opa : (uint16_t)((uint16_t)style->line.o
 1679              		.loc 1 187 0
 1680 08fe 02F00107 		and	r7, r2, #1
 1681 0902 9A6C     		ldr	r2, [r3, #72]
 1682              	.LVL172:
 193:..\..\..\lvgl\version_6.1.2\lvgl\src\lv_draw/lv_draw_line.c ****     act_area.y2 = main_line->p2.y + width_half;
 1683              		.loc 1 193 0
 1684 0904 431A     		subs	r3, r0, r1
 1685              	.LVL173:
 188:..\..\..\lvgl\version_6.1.2\lvgl\src\lv_draw/lv_draw_line.c **** 
 1686              		.loc 1 188 0
 1687 0906 BEF1FF0F 		cmp	lr, #255
 193:..\..\..\lvgl\version_6.1.2\lvgl\src\lv_draw/lv_draw_line.c ****     act_area.y2 = main_line->p2.y + width_half;
 1688              		.loc 1 193 0
 1689 090a A3EB0704 		sub	r4, r3, r7
 1690              	.LVL174:
 194:..\..\..\lvgl\version_6.1.2\lvgl\src\lv_draw/lv_draw_line.c **** 
 1691              		.loc 1 194 0
 1692 090e 0144     		add	r1, r1, r0
 1693              	.LVL175:
 193:..\..\..\lvgl\version_6.1.2\lvgl\src\lv_draw/lv_draw_line.c ****     act_area.y2 = main_line->p2.y + width_half;
 1694              		.loc 1 193 0
 1695 0910 24B2     		sxth	r4, r4
 194:..\..\..\lvgl\version_6.1.2\lvgl\src\lv_draw/lv_draw_line.c **** 
 1696              		.loc 1 194 0
 1697 0912 08B2     		sxth	r0, r1
 188:..\..\..\lvgl\version_6.1.2\lvgl\src\lv_draw/lv_draw_line.c **** 
 1698              		.loc 1 188 0
 1699 0914 1CBF     		itt	ne
 1700 0916 05FB0EF5 		mulne	r5, r5, lr
 1701 091a C5F30725 		ubfxne	r5, r5, #8, #8
 1702              	.LVL176:
 199:..\..\..\lvgl\version_6.1.2\lvgl\src\lv_draw/lv_draw_line.c ****     draw_area.y2 = LV_MATH_MAX(act_area.y1, act_area.y2);
 1703              		.loc 1 199 0
ARM GAS  C:\Users\pearlstl\AppData\Local\Temp\ccuP9Sbb.s 			page 48


 1704 091e 8442     		cmp	r4, r0
 1705 0920 2746     		mov	r7, r4
 1706              	.LVL177:
 1707 0922 A8BF     		it	ge
 1708 0924 0746     		movge	r7, r0
 200:..\..\..\lvgl\version_6.1.2\lvgl\src\lv_draw/lv_draw_line.c ****     lv_draw_fill(&draw_area, mask, style->line.color, opa);
 1709              		.loc 1 200 0
 1710 0926 8442     		cmp	r4, r0
 1711 0928 B8BF     		it	lt
 1712 092a 0446     		movlt	r4, r0
 1713              	.LVL178:
 197:..\..\..\lvgl\version_6.1.2\lvgl\src\lv_draw/lv_draw_line.c ****     draw_area.x2 = LV_MATH_MAX(act_area.x1, act_area.x2);
 1714              		.loc 1 197 0
 1715 092c 0798     		ldr	r0, [sp, #28]
 1716              	.LVL179:
 199:..\..\..\lvgl\version_6.1.2\lvgl\src\lv_draw/lv_draw_line.c ****     draw_area.y2 = LV_MATH_MAX(act_area.y1, act_area.y2);
 1717              		.loc 1 199 0
 1718 092e ADF86A70 		strh	r7, [sp, #106]	@ movhi
 197:..\..\..\lvgl\version_6.1.2\lvgl\src\lv_draw/lv_draw_line.c ****     draw_area.x2 = LV_MATH_MAX(act_area.x1, act_area.x2);
 1719              		.loc 1 197 0
 1720 0932 B042     		cmp	r0, r6
 201:..\..\..\lvgl\version_6.1.2\lvgl\src\lv_draw/lv_draw_line.c **** }
 1721              		.loc 1 201 0
 1722 0934 2B46     		mov	r3, r5
 1723              	.LVL180:
 197:..\..\..\lvgl\version_6.1.2\lvgl\src\lv_draw/lv_draw_line.c ****     draw_area.x2 = LV_MATH_MAX(act_area.x1, act_area.x2);
 1724              		.loc 1 197 0
 1725 0936 0546     		mov	r5, r0
 1726              	.LVL181:
 1727 0938 A8BF     		it	ge
 1728 093a 3546     		movge	r5, r6
 198:..\..\..\lvgl\version_6.1.2\lvgl\src\lv_draw/lv_draw_line.c ****     draw_area.y1 = LV_MATH_MIN(act_area.y1, act_area.y2);
 1729              		.loc 1 198 0
 1730 093c B042     		cmp	r0, r6
 1731 093e B8BF     		it	lt
 1732 0940 3046     		movlt	r0, r6
 1733 0942 0646     		mov	r6, r0
 1734              	.LVL182:
 201:..\..\..\lvgl\version_6.1.2\lvgl\src\lv_draw/lv_draw_line.c **** }
 1735              		.loc 1 201 0
 1736 0944 4146     		mov	r1, r8
 1737              	.LVL183:
 1738 0946 1AA8     		add	r0, sp, #104
 200:..\..\..\lvgl\version_6.1.2\lvgl\src\lv_draw/lv_draw_line.c ****     lv_draw_fill(&draw_area, mask, style->line.color, opa);
 1739              		.loc 1 200 0
 1740 0948 ADF86E40 		strh	r4, [sp, #110]	@ movhi
 197:..\..\..\lvgl\version_6.1.2\lvgl\src\lv_draw/lv_draw_line.c ****     draw_area.x2 = LV_MATH_MAX(act_area.x1, act_area.x2);
 1741              		.loc 1 197 0
 1742 094c ADF86850 		strh	r5, [sp, #104]	@ movhi
 198:..\..\..\lvgl\version_6.1.2\lvgl\src\lv_draw/lv_draw_line.c ****     draw_area.y1 = LV_MATH_MIN(act_area.y1, act_area.y2);
 1743              		.loc 1 198 0
 1744 0950 ADF86C60 		strh	r6, [sp, #108]	@ movhi
 201:..\..\..\lvgl\version_6.1.2\lvgl\src\lv_draw/lv_draw_line.c **** }
 1745              		.loc 1 201 0
 1746 0954 FFF7FEFF 		bl	lv_draw_fill
 1747              	.LVL184:
 1748 0958 FFF76ABB 		b	.L1
ARM GAS  C:\Users\pearlstl\AppData\Local\Temp\ccuP9Sbb.s 			page 49


 1749              	.LVL185:
 1750              	.L169:
 1751 095c 179F     		ldr	r7, [sp, #92]
 1752 095e 149D     		ldr	r5, [sp, #80]
 1753 0960 DDF854B0 		ldr	fp, [sp, #84]
 1754 0964 DDF84490 		ldr	r9, [sp, #68]
 1755 0968 DDF858A0 		ldr	r10, [sp, #88]
 1756 096c 109E     		ldr	r6, [sp, #64]
 1757 096e DDF84880 		ldr	r8, [sp, #72]
 1758              	.LVL186:
 1759              	.L30:
 1760              	.LBE127:
 1761              	.LBE126:
 1762              	.LBB128:
 1763              	.LBB116:
 1764              	.LBB112:
 1765              	.LBB107:
 1766              	.LBB69:
 279:..\..\..\lvgl\version_6.1.2\lvgl\src\lv_draw/lv_draw_line.c ****             pattern[i].y = pattern_line.p_act.y;
 1767              		.loc 1 279 0
 1768 0972 0997     		str	r7, [sp, #36]
 1769              	.LVL187:
 1770              	.L92:
 1771              	.LBE69:
 1772              	.LBE107:
 311:..\..\..\lvgl\version_6.1.2\lvgl\src\lv_draw/lv_draw_line.c ****         y_center_ofs = pattern[width - 1].y / 2;
 1773              		.loc 1 311 0
 1774 0974 07F18043 		add	r3, r7, #1073741824
 1775              	.LVL188:
 1776 0978 0A98     		ldr	r0, [sp, #40]
 1777 097a 013B     		subs	r3, r3, #1
 1778 097c 00EB8301 		add	r1, r0, r3, lsl #2
 1779 0980 30F92320 		ldrsh	r2, [r0, r3, lsl #2]
 312:..\..\..\lvgl\version_6.1.2\lvgl\src\lv_draw/lv_draw_line.c ****     } else {
 1780              		.loc 1 312 0
 1781 0984 B1F90230 		ldrsh	r3, [r1, #2]
 1782 0988 03EBD373 		add	r3, r3, r3, lsr #31
 1783 098c 5F10     		asrs	r7, r3, #1
 319:..\..\..\lvgl\version_6.1.2\lvgl\src\lv_draw/lv_draw_line.c ****         pattern[i].x -= x_center_ofs;
 1784              		.loc 1 319 0
 1785 098e 099B     		ldr	r3, [sp, #36]
 311:..\..\..\lvgl\version_6.1.2\lvgl\src\lv_draw/lv_draw_line.c ****         y_center_ofs = pattern[width - 1].y / 2;
 1786              		.loc 1 311 0
 1787 0990 02EBD272 		add	r2, r2, r2, lsr #31
 319:..\..\..\lvgl\version_6.1.2\lvgl\src\lv_draw/lv_draw_line.c ****         pattern[i].x -= x_center_ofs;
 1788              		.loc 1 319 0
 1789 0994 002B     		cmp	r3, #0
 311:..\..\..\lvgl\version_6.1.2\lvgl\src\lv_draw/lv_draw_line.c ****         y_center_ofs = pattern[width - 1].y / 2;
 1790              		.loc 1 311 0
 1791 0996 4FEA620E 		asr	lr, r2, #1
 1792              	.LVL189:
 319:..\..\..\lvgl\version_6.1.2\lvgl\src\lv_draw/lv_draw_line.c ****         pattern[i].x -= x_center_ofs;
 1793              		.loc 1 319 0
 1794 099a 7FF7A7AC 		ble	.L41
 1795 099e 9C46     		mov	ip, r3
 1796 09a0 1FFA8EFE 		uxth	lr, lr
 1797 09a4 BFB2     		uxth	r7, r7
ARM GAS  C:\Users\pearlstl\AppData\Local\Temp\ccuP9Sbb.s 			page 50


 1798 09a6 0246     		mov	r2, r0
 1799 09a8 0023     		movs	r3, #0
 1800              	.LVL190:
 1801              	.L45:
 320:..\..\..\lvgl\version_6.1.2\lvgl\src\lv_draw/lv_draw_line.c ****         pattern[i].y -= y_center_ofs;
 1802              		.loc 1 320 0
 1803 09aa 30F82310 		ldrh	r1, [r0, r3, lsl #2]
 1804 09ae CEEB0101 		rsb	r1, lr, r1
 1805 09b2 20F82310 		strh	r1, [r0, r3, lsl #2]	@ movhi
 1806 09b6 0133     		adds	r3, r3, #1
 1807              	.LVL191:
 321:..\..\..\lvgl\version_6.1.2\lvgl\src\lv_draw/lv_draw_line.c **** #if LV_ANTIALIAS
 1808              		.loc 1 321 0
 1809 09b8 5188     		ldrh	r1, [r2, #2]
 319:..\..\..\lvgl\version_6.1.2\lvgl\src\lv_draw/lv_draw_line.c ****         pattern[i].x -= x_center_ofs;
 1810              		.loc 1 319 0
 1811 09ba 1CB2     		sxth	r4, r3
 321:..\..\..\lvgl\version_6.1.2\lvgl\src\lv_draw/lv_draw_line.c **** #if LV_ANTIALIAS
 1812              		.loc 1 321 0
 1813 09bc C91B     		subs	r1, r1, r7
 319:..\..\..\lvgl\version_6.1.2\lvgl\src\lv_draw/lv_draw_line.c ****         pattern[i].x -= x_center_ofs;
 1814              		.loc 1 319 0
 1815 09be 6445     		cmp	r4, ip
 321:..\..\..\lvgl\version_6.1.2\lvgl\src\lv_draw/lv_draw_line.c **** #if LV_ANTIALIAS
 1816              		.loc 1 321 0
 1817 09c0 5180     		strh	r1, [r2, #2]	@ movhi
 1818 09c2 02F10402 		add	r2, r2, #4
 319:..\..\..\lvgl\version_6.1.2\lvgl\src\lv_draw/lv_draw_line.c ****         pattern[i].x -= x_center_ofs;
 1819              		.loc 1 319 0
 1820 09c6 F0DB     		blt	.L45
 1821 09c8 90E4     		b	.L41
 1822              	.LVL192:
 1823              	.L33:
 1824 09ca 149D     		ldr	r5, [sp, #80]
 1825 09cc DDF854B0 		ldr	fp, [sp, #84]
 1826 09d0 0990     		str	r0, [sp, #36]
 1827 09d2 DDF84490 		ldr	r9, [sp, #68]
 1828 09d6 DDF858A0 		ldr	r10, [sp, #88]
 1829 09da 109E     		ldr	r6, [sp, #64]
 1830 09dc DDF84880 		ldr	r8, [sp, #72]
 310:..\..\..\lvgl\version_6.1.2\lvgl\src\lv_draw/lv_draw_line.c ****         x_center_ofs = pattern[width - 1].x / 2;
 1831              		.loc 1 310 0
 1832 09e0 0028     		cmp	r0, #0
 1833 09e2 3FF477AC 		beq	.L39
 1834              	.LBB108:
 1835              	.LBB70:
 279:..\..\..\lvgl\version_6.1.2\lvgl\src\lv_draw/lv_draw_line.c ****             pattern[i].y = pattern_line.p_act.y;
 1836              		.loc 1 279 0
 1837 09e6 0746     		mov	r7, r0
 1838 09e8 C4E7     		b	.L92
 1839              	.LVL193:
 1840              	.L173:
 1841 09ea 2546     		mov	r5, r4
 1842              	.LBE70:
 1843              	.LBE108:
 1844              	.LBE112:
 1845              	.LBE116:
ARM GAS  C:\Users\pearlstl\AppData\Local\Temp\ccuP9Sbb.s 			page 51


 1846              	.LBE128:
 1847              	.LBB129:
 1848              	.LBB49:
 582:..\..\..\lvgl\version_6.1.2\lvgl\src\lv_draw/lv_draw_line.c ****     line->sy  = line->p1.y < line->p2.y ? 1 : -1;
 1849              		.loc 1 582 0
 1850 09ec 0124     		movs	r4, #1
 1851 09ee 0796     		str	r6, [sp, #28]
 1852              	.LVL194:
 1853 09f0 0D94     		str	r4, [sp, #52]
 1854              	.LBE49:
 1855              	.LBE129:
 117:..\..\..\lvgl\version_6.1.2\lvgl\src\lv_draw/lv_draw_line.c ****         } else {
 1856              		.loc 1 117 0
 1857 09f2 0891     		str	r1, [sp, #32]
 1858              	.LVL195:
 1859              	.LBB130:
 1860              	.LBB50:
 582:..\..\..\lvgl\version_6.1.2\lvgl\src\lv_draw/lv_draw_line.c ****     line->sy  = line->p1.y < line->p2.y ? 1 : -1;
 1861              		.loc 1 582 0
 1862 09f4 0646     		mov	r6, r0
 1863              	.LVL196:
 1864 09f6 0694     		str	r4, [sp, #24]
 1865 09f8 0FFA8AFB 		sxth	fp, r10
 1866              	.LVL197:
 1867 09fc FFF75DBB 		b	.L14
 1868              	.LVL198:
 1869              	.L168:
 1870              	.LBE50:
 1871              	.LBE130:
 1872              	.LBB131:
 1873              	.LBB117:
 1874              	.LBB113:
 1875              	.LBB109:
 1876              	.LBB71:
 1877              	.LBB57:
 584:..\..\..\lvgl\version_6.1.2\lvgl\src\lv_draw/lv_draw_line.c ****     line->e2  = 0;
 1878              		.loc 1 584 0
 1879 0a00 02EBD273 		add	r3, r2, r2, lsr #31
 1880 0a04 5B10     		asrs	r3, r3, #1
 1881 0a06 FFF7BDBB 		b	.L29
 1882              	.LBE57:
 1883              	.LBE71:
 1884              	.LBE109:
 1885              	.LBE113:
 1886              	.LBE117:
 1887              	.LBE131:
 1888              		.cfi_endproc
 1889              	.LFE32:
 1890              		.size	lv_draw_line, .-lv_draw_line
 1891 0a0a 00BF     		.text
 1892              	.Letext0:
 1893              		.file 2 "c:\\program files (x86)\\cypress\\psoc creator\\4.2\\psoc creator\\import\\gnu\\arm\\5.4.
 1894              		.file 3 "c:\\program files (x86)\\cypress\\psoc creator\\4.2\\psoc creator\\import\\gnu\\arm\\5.4.
 1895              		.file 4 "..\\..\\..\\lvgl\\version_6.1.2\\lvgl\\src\\lv_draw\\../../../lv_conf.h"
 1896              		.file 5 "..\\..\\..\\lvgl\\version_6.1.2\\lvgl\\src\\lv_draw\\../lv_core/../lv_font/lv_font.h"
 1897              		.file 6 "..\\..\\..\\lvgl\\version_6.1.2\\lvgl\\src\\lv_draw\\../lv_core/../lv_misc/lv_color.h"
 1898              		.file 7 "..\\..\\..\\lvgl\\version_6.1.2\\lvgl\\src\\lv_draw\\../lv_core/../lv_misc/lv_area.h"
ARM GAS  C:\Users\pearlstl\AppData\Local\Temp\ccuP9Sbb.s 			page 52


 1899              		.file 8 "..\\..\\..\\lvgl\\version_6.1.2\\lvgl\\src\\lv_draw\\../lv_core/lv_style.h"
 1900              		.file 9 "..\\..\\..\\lvgl\\version_6.1.2\\lvgl\\src\\lv_draw\\lv_draw.h"
 1901              		.file 10 "..\\..\\..\\lvgl\\version_6.1.2\\lvgl\\src\\lv_draw\\lv_draw_basic.h"
 1902              		.section	.debug_info,"",%progbits
 1903              	.Ldebug_info0:
 1904 0000 780E0000 		.4byte	0xe78
 1905 0004 0400     		.2byte	0x4
 1906 0006 00000000 		.4byte	.Ldebug_abbrev0
 1907 000a 04       		.byte	0x4
 1908 000b 01       		.uleb128 0x1
 1909 000c BC030000 		.4byte	.LASF121
 1910 0010 0C       		.byte	0xc
 1911 0011 C5040000 		.4byte	.LASF122
 1912 0015 1F020000 		.4byte	.LASF123
 1913 0019 B8010000 		.4byte	.Ldebug_ranges0+0x1b8
 1914 001d 00000000 		.4byte	0
 1915 0021 00000000 		.4byte	.Ldebug_line0
 1916 0025 02       		.uleb128 0x2
 1917 0026 94000000 		.4byte	.LASF0
 1918 002a 02       		.byte	0x2
 1919 002b 1B       		.byte	0x1b
 1920 002c 30000000 		.4byte	0x30
 1921 0030 03       		.uleb128 0x3
 1922 0031 01       		.byte	0x1
 1923 0032 06       		.byte	0x6
 1924 0033 D7000000 		.4byte	.LASF2
 1925 0037 02       		.uleb128 0x2
 1926 0038 47000000 		.4byte	.LASF1
 1927 003c 02       		.byte	0x2
 1928 003d 1D       		.byte	0x1d
 1929 003e 42000000 		.4byte	0x42
 1930 0042 03       		.uleb128 0x3
 1931 0043 01       		.byte	0x1
 1932 0044 08       		.byte	0x8
 1933 0045 6F040000 		.4byte	.LASF3
 1934 0049 02       		.uleb128 0x2
 1935 004a 82010000 		.4byte	.LASF4
 1936 004e 02       		.byte	0x2
 1937 004f 29       		.byte	0x29
 1938 0050 54000000 		.4byte	0x54
 1939 0054 03       		.uleb128 0x3
 1940 0055 02       		.byte	0x2
 1941 0056 05       		.byte	0x5
 1942 0057 8E040000 		.4byte	.LASF5
 1943 005b 02       		.uleb128 0x2
 1944 005c 3A050000 		.4byte	.LASF6
 1945 0060 02       		.byte	0x2
 1946 0061 2B       		.byte	0x2b
 1947 0062 66000000 		.4byte	0x66
 1948 0066 03       		.uleb128 0x3
 1949 0067 02       		.byte	0x2
 1950 0068 07       		.byte	0x7
 1951 0069 EC010000 		.4byte	.LASF7
 1952 006d 03       		.uleb128 0x3
 1953 006e 04       		.byte	0x4
 1954 006f 05       		.byte	0x5
 1955 0070 0C010000 		.4byte	.LASF8
ARM GAS  C:\Users\pearlstl\AppData\Local\Temp\ccuP9Sbb.s 			page 53


 1956 0074 02       		.uleb128 0x2
 1957 0075 94010000 		.4byte	.LASF9
 1958 0079 02       		.byte	0x2
 1959 007a 41       		.byte	0x41
 1960 007b 7F000000 		.4byte	0x7f
 1961 007f 03       		.uleb128 0x3
 1962 0080 04       		.byte	0x4
 1963 0081 07       		.byte	0x7
 1964 0082 BA010000 		.4byte	.LASF10
 1965 0086 03       		.uleb128 0x3
 1966 0087 08       		.byte	0x8
 1967 0088 05       		.byte	0x5
 1968 0089 C9000000 		.4byte	.LASF11
 1969 008d 03       		.uleb128 0x3
 1970 008e 08       		.byte	0x8
 1971 008f 07       		.byte	0x7
 1972 0090 5D000000 		.4byte	.LASF12
 1973 0094 04       		.uleb128 0x4
 1974 0095 04       		.byte	0x4
 1975 0096 05       		.byte	0x5
 1976 0097 696E7400 		.ascii	"int\000"
 1977 009b 03       		.uleb128 0x3
 1978 009c 04       		.byte	0x4
 1979 009d 07       		.byte	0x7
 1980 009e 9F010000 		.4byte	.LASF13
 1981 00a2 03       		.uleb128 0x3
 1982 00a3 08       		.byte	0x8
 1983 00a4 04       		.byte	0x4
 1984 00a5 05030000 		.4byte	.LASF14
 1985 00a9 05       		.uleb128 0x5
 1986 00aa 04       		.byte	0x4
 1987 00ab 03       		.uleb128 0x3
 1988 00ac 04       		.byte	0x4
 1989 00ad 07       		.byte	0x7
 1990 00ae E1020000 		.4byte	.LASF15
 1991 00b2 03       		.uleb128 0x3
 1992 00b3 01       		.byte	0x1
 1993 00b4 08       		.byte	0x8
 1994 00b5 26050000 		.4byte	.LASF16
 1995 00b9 02       		.uleb128 0x2
 1996 00ba 92050000 		.4byte	.LASF17
 1997 00be 03       		.byte	0x3
 1998 00bf 14       		.byte	0x14
 1999 00c0 25000000 		.4byte	0x25
 2000 00c4 02       		.uleb128 0x2
 2001 00c5 BD040000 		.4byte	.LASF18
 2002 00c9 03       		.byte	0x3
 2003 00ca 18       		.byte	0x18
 2004 00cb 37000000 		.4byte	0x37
 2005 00cf 02       		.uleb128 0x2
 2006 00d0 C1000000 		.4byte	.LASF19
 2007 00d4 03       		.byte	0x3
 2008 00d5 20       		.byte	0x20
 2009 00d6 49000000 		.4byte	0x49
 2010 00da 02       		.uleb128 0x2
 2011 00db 32010000 		.4byte	.LASF20
 2012 00df 03       		.byte	0x3
ARM GAS  C:\Users\pearlstl\AppData\Local\Temp\ccuP9Sbb.s 			page 54


 2013 00e0 24       		.byte	0x24
 2014 00e1 5B000000 		.4byte	0x5b
 2015 00e5 02       		.uleb128 0x2
 2016 00e6 0C050000 		.4byte	.LASF21
 2017 00ea 03       		.byte	0x3
 2018 00eb 30       		.byte	0x30
 2019 00ec 74000000 		.4byte	0x74
 2020 00f0 02       		.uleb128 0x2
 2021 00f1 B0000000 		.4byte	.LASF22
 2022 00f5 04       		.byte	0x4
 2023 00f6 3A       		.byte	0x3a
 2024 00f7 CF000000 		.4byte	0xcf
 2025 00fb 06       		.uleb128 0x6
 2026 00fc 08       		.byte	0x8
 2027 00fd 05       		.byte	0x5
 2028 00fe 2E       		.byte	0x2e
 2029 00ff 4C010000 		.4byte	0x14c
 2030 0103 07       		.uleb128 0x7
 2031 0104 7A050000 		.4byte	.LASF23
 2032 0108 05       		.byte	0x5
 2033 0109 30       		.byte	0x30
 2034 010a DA000000 		.4byte	0xda
 2035 010e 00       		.byte	0
 2036 010f 07       		.uleb128 0x7
 2037 0110 9F050000 		.4byte	.LASF24
 2038 0114 05       		.byte	0x5
 2039 0115 31       		.byte	0x31
 2040 0116 C4000000 		.4byte	0xc4
 2041 011a 02       		.byte	0x2
 2042 011b 07       		.uleb128 0x7
 2043 011c 99050000 		.4byte	.LASF25
 2044 0120 05       		.byte	0x5
 2045 0121 32       		.byte	0x32
 2046 0122 C4000000 		.4byte	0xc4
 2047 0126 03       		.byte	0x3
 2048 0127 07       		.uleb128 0x7
 2049 0128 F0050000 		.4byte	.LASF26
 2050 012c 05       		.byte	0x5
 2051 012d 33       		.byte	0x33
 2052 012e B9000000 		.4byte	0xb9
 2053 0132 04       		.byte	0x4
 2054 0133 07       		.uleb128 0x7
 2055 0134 F6050000 		.4byte	.LASF27
 2056 0138 05       		.byte	0x5
 2057 0139 34       		.byte	0x34
 2058 013a B9000000 		.4byte	0xb9
 2059 013e 05       		.byte	0x5
 2060 013f 08       		.uleb128 0x8
 2061 0140 62707000 		.ascii	"bpp\000"
 2062 0144 05       		.byte	0x5
 2063 0145 35       		.byte	0x35
 2064 0146 C4000000 		.4byte	0xc4
 2065 014a 06       		.byte	0x6
 2066 014b 00       		.byte	0
 2067 014c 02       		.uleb128 0x2
 2068 014d FC050000 		.4byte	.LASF28
 2069 0151 05       		.byte	0x5
ARM GAS  C:\Users\pearlstl\AppData\Local\Temp\ccuP9Sbb.s 			page 55


 2070 0152 36       		.byte	0x36
 2071 0153 FB000000 		.4byte	0xfb
 2072 0157 09       		.uleb128 0x9
 2073 0158 A5050000 		.4byte	.LASF124
 2074 015c 10       		.byte	0x10
 2075 015d 05       		.byte	0x5
 2076 015e 44       		.byte	0x44
 2077 015f AF010000 		.4byte	0x1af
 2078 0163 07       		.uleb128 0x7
 2079 0164 AC010000 		.4byte	.LASF29
 2080 0168 05       		.byte	0x5
 2081 0169 47       		.byte	0x47
 2082 016a E5010000 		.4byte	0x1e5
 2083 016e 00       		.byte	0
 2084 016f 07       		.uleb128 0x7
 2085 0170 0E000000 		.4byte	.LASF30
 2086 0174 05       		.byte	0x5
 2087 0175 4A       		.byte	0x4a
 2088 0176 0A020000 		.4byte	0x20a
 2089 017a 04       		.byte	0x4
 2090 017b 07       		.uleb128 0x7
 2091 017c FF010000 		.4byte	.LASF31
 2092 0180 05       		.byte	0x5
 2093 0181 4D       		.byte	0x4d
 2094 0182 C4000000 		.4byte	0xc4
 2095 0186 08       		.byte	0x8
 2096 0187 07       		.uleb128 0x7
 2097 0188 A8030000 		.4byte	.LASF32
 2098 018c 05       		.byte	0x5
 2099 018d 4E       		.byte	0x4e
 2100 018e B9000000 		.4byte	0xb9
 2101 0192 09       		.byte	0x9
 2102 0193 0A       		.uleb128 0xa
 2103 0194 0B020000 		.4byte	.LASF78
 2104 0198 05       		.byte	0x5
 2105 0199 4F       		.byte	0x4f
 2106 019a C4000000 		.4byte	0xc4
 2107 019e 01       		.byte	0x1
 2108 019f 02       		.byte	0x2
 2109 01a0 06       		.byte	0x6
 2110 01a1 0A       		.byte	0xa
 2111 01a2 08       		.uleb128 0x8
 2112 01a3 64736300 		.ascii	"dsc\000"
 2113 01a7 05       		.byte	0x5
 2114 01a8 50       		.byte	0x50
 2115 01a9 A9000000 		.4byte	0xa9
 2116 01ad 0C       		.byte	0xc
 2117 01ae 00       		.byte	0
 2118 01af 0B       		.uleb128 0xb
 2119 01b0 CD010000 		.4byte	0x1cd
 2120 01b4 CD010000 		.4byte	0x1cd
 2121 01b8 0C       		.uleb128 0xc
 2122 01b9 D4010000 		.4byte	0x1d4
 2123 01bd 0C       		.uleb128 0xc
 2124 01be DF010000 		.4byte	0x1df
 2125 01c2 0C       		.uleb128 0xc
 2126 01c3 E5000000 		.4byte	0xe5
ARM GAS  C:\Users\pearlstl\AppData\Local\Temp\ccuP9Sbb.s 			page 56


 2127 01c7 0C       		.uleb128 0xc
 2128 01c8 E5000000 		.4byte	0xe5
 2129 01cc 00       		.byte	0
 2130 01cd 03       		.uleb128 0x3
 2131 01ce 01       		.byte	0x1
 2132 01cf 02       		.byte	0x2
 2133 01d0 15050000 		.4byte	.LASF33
 2134 01d4 0D       		.uleb128 0xd
 2135 01d5 04       		.byte	0x4
 2136 01d6 DA010000 		.4byte	0x1da
 2137 01da 0E       		.uleb128 0xe
 2138 01db 57010000 		.4byte	0x157
 2139 01df 0D       		.uleb128 0xd
 2140 01e0 04       		.byte	0x4
 2141 01e1 4C010000 		.4byte	0x14c
 2142 01e5 0D       		.uleb128 0xd
 2143 01e6 04       		.byte	0x4
 2144 01e7 AF010000 		.4byte	0x1af
 2145 01eb 0B       		.uleb128 0xb
 2146 01ec FF010000 		.4byte	0x1ff
 2147 01f0 FF010000 		.4byte	0x1ff
 2148 01f4 0C       		.uleb128 0xc
 2149 01f5 D4010000 		.4byte	0x1d4
 2150 01f9 0C       		.uleb128 0xc
 2151 01fa E5000000 		.4byte	0xe5
 2152 01fe 00       		.byte	0
 2153 01ff 0D       		.uleb128 0xd
 2154 0200 04       		.byte	0x4
 2155 0201 05020000 		.4byte	0x205
 2156 0205 0E       		.uleb128 0xe
 2157 0206 C4000000 		.4byte	0xc4
 2158 020a 0D       		.uleb128 0xd
 2159 020b 04       		.byte	0x4
 2160 020c EB010000 		.4byte	0x1eb
 2161 0210 02       		.uleb128 0x2
 2162 0211 74000000 		.4byte	.LASF34
 2163 0215 05       		.byte	0x5
 2164 0216 56       		.byte	0x56
 2165 0217 57010000 		.4byte	0x157
 2166 021b 0F       		.uleb128 0xf
 2167 021c 01       		.byte	0x1
 2168 021d 42000000 		.4byte	0x42
 2169 0221 06       		.byte	0x6
 2170 0222 3E       		.byte	0x3e
 2171 0223 76020000 		.4byte	0x276
 2172 0227 10       		.uleb128 0x10
 2173 0228 F7020000 		.4byte	.LASF35
 2174 022c 00       		.byte	0
 2175 022d 10       		.uleb128 0x10
 2176 022e E7050000 		.4byte	.LASF36
 2177 0232 00       		.byte	0
 2178 0233 10       		.uleb128 0x10
 2179 0234 B2030000 		.4byte	.LASF37
 2180 0238 19       		.byte	0x19
 2181 0239 10       		.uleb128 0x10
 2182 023a 2B050000 		.4byte	.LASF38
 2183 023e 33       		.byte	0x33
ARM GAS  C:\Users\pearlstl\AppData\Local\Temp\ccuP9Sbb.s 			page 57


 2184 023f 10       		.uleb128 0x10
 2185 0240 F3000000 		.4byte	.LASF39
 2186 0244 4C       		.byte	0x4c
 2187 0245 10       		.uleb128 0x10
 2188 0246 1F000000 		.4byte	.LASF40
 2189 024a 66       		.byte	0x66
 2190 024b 10       		.uleb128 0x10
 2191 024c E9000000 		.4byte	.LASF41
 2192 0250 7F       		.byte	0x7f
 2193 0251 10       		.uleb128 0x10
 2194 0252 78010000 		.4byte	.LASF42
 2195 0256 99       		.byte	0x99
 2196 0257 10       		.uleb128 0x10
 2197 0258 A2020000 		.4byte	.LASF43
 2198 025c B2       		.byte	0xb2
 2199 025d 10       		.uleb128 0x10
 2200 025e 23030000 		.4byte	.LASF44
 2201 0262 CC       		.byte	0xcc
 2202 0263 10       		.uleb128 0x10
 2203 0264 A9040000 		.4byte	.LASF45
 2204 0268 E5       		.byte	0xe5
 2205 0269 10       		.uleb128 0x10
 2206 026a 6F050000 		.4byte	.LASF46
 2207 026e FF       		.byte	0xff
 2208 026f 10       		.uleb128 0x10
 2209 0270 3B010000 		.4byte	.LASF47
 2210 0274 FF       		.byte	0xff
 2211 0275 00       		.byte	0
 2212 0276 06       		.uleb128 0x6
 2213 0277 04       		.byte	0x4
 2214 0278 06       		.byte	0x6
 2215 0279 F3       		.byte	0xf3
 2216 027a AF020000 		.4byte	0x2af
 2217 027e 07       		.uleb128 0x7
 2218 027f 1B050000 		.4byte	.LASF48
 2219 0283 06       		.byte	0x6
 2220 0284 F5       		.byte	0xf5
 2221 0285 C4000000 		.4byte	0xc4
 2222 0289 00       		.byte	0
 2223 028a 07       		.uleb128 0x7
 2224 028b BA050000 		.4byte	.LASF49
 2225 028f 06       		.byte	0x6
 2226 0290 F6       		.byte	0xf6
 2227 0291 C4000000 		.4byte	0xc4
 2228 0295 01       		.byte	0x1
 2229 0296 08       		.uleb128 0x8
 2230 0297 72656400 		.ascii	"red\000"
 2231 029b 06       		.byte	0x6
 2232 029c F7       		.byte	0xf7
 2233 029d C4000000 		.4byte	0xc4
 2234 02a1 02       		.byte	0x2
 2235 02a2 07       		.uleb128 0x7
 2236 02a3 E3000000 		.4byte	.LASF50
 2237 02a7 06       		.byte	0x6
 2238 02a8 F8       		.byte	0xf8
 2239 02a9 C4000000 		.4byte	0xc4
 2240 02ad 03       		.byte	0x3
ARM GAS  C:\Users\pearlstl\AppData\Local\Temp\ccuP9Sbb.s 			page 58


 2241 02ae 00       		.byte	0
 2242 02af 11       		.uleb128 0x11
 2243 02b0 04       		.byte	0x4
 2244 02b1 06       		.byte	0x6
 2245 02b2 F1       		.byte	0xf1
 2246 02b3 CD020000 		.4byte	0x2cd
 2247 02b7 12       		.uleb128 0x12
 2248 02b8 636800   		.ascii	"ch\000"
 2249 02bb 06       		.byte	0x6
 2250 02bc F9       		.byte	0xf9
 2251 02bd 76020000 		.4byte	0x276
 2252 02c1 13       		.uleb128 0x13
 2253 02c2 11030000 		.4byte	.LASF51
 2254 02c6 06       		.byte	0x6
 2255 02c7 FA       		.byte	0xfa
 2256 02c8 E5000000 		.4byte	0xe5
 2257 02cc 00       		.byte	0
 2258 02cd 02       		.uleb128 0x2
 2259 02ce 9D000000 		.4byte	.LASF52
 2260 02d2 06       		.byte	0x6
 2261 02d3 FB       		.byte	0xfb
 2262 02d4 AF020000 		.4byte	0x2af
 2263 02d8 14       		.uleb128 0x14
 2264 02d9 31000000 		.4byte	.LASF53
 2265 02dd 06       		.byte	0x6
 2266 02de 0801     		.2byte	0x108
 2267 02e0 CD020000 		.4byte	0x2cd
 2268 02e4 14       		.uleb128 0x14
 2269 02e5 C7020000 		.4byte	.LASF54
 2270 02e9 06       		.byte	0x6
 2271 02ea 0D01     		.2byte	0x10d
 2272 02ec C4000000 		.4byte	0xc4
 2273 02f0 06       		.uleb128 0x6
 2274 02f1 04       		.byte	0x4
 2275 02f2 07       		.byte	0x7
 2276 02f3 2A       		.byte	0x2a
 2277 02f4 0D030000 		.4byte	0x30d
 2278 02f8 08       		.uleb128 0x8
 2279 02f9 7800     		.ascii	"x\000"
 2280 02fb 07       		.byte	0x7
 2281 02fc 2C       		.byte	0x2c
 2282 02fd F0000000 		.4byte	0xf0
 2283 0301 00       		.byte	0
 2284 0302 08       		.uleb128 0x8
 2285 0303 7900     		.ascii	"y\000"
 2286 0305 07       		.byte	0x7
 2287 0306 2D       		.byte	0x2d
 2288 0307 F0000000 		.4byte	0xf0
 2289 030b 02       		.byte	0x2
 2290 030c 00       		.byte	0
 2291 030d 02       		.uleb128 0x2
 2292 030e D2050000 		.4byte	.LASF55
 2293 0312 07       		.byte	0x7
 2294 0313 2E       		.byte	0x2e
 2295 0314 F0020000 		.4byte	0x2f0
 2296 0318 06       		.uleb128 0x6
 2297 0319 08       		.byte	0x8
ARM GAS  C:\Users\pearlstl\AppData\Local\Temp\ccuP9Sbb.s 			page 59


 2298 031a 07       		.byte	0x7
 2299 031b 31       		.byte	0x31
 2300 031c 4D030000 		.4byte	0x34d
 2301 0320 08       		.uleb128 0x8
 2302 0321 783100   		.ascii	"x1\000"
 2303 0324 07       		.byte	0x7
 2304 0325 33       		.byte	0x33
 2305 0326 F0000000 		.4byte	0xf0
 2306 032a 00       		.byte	0
 2307 032b 08       		.uleb128 0x8
 2308 032c 793100   		.ascii	"y1\000"
 2309 032f 07       		.byte	0x7
 2310 0330 34       		.byte	0x34
 2311 0331 F0000000 		.4byte	0xf0
 2312 0335 02       		.byte	0x2
 2313 0336 08       		.uleb128 0x8
 2314 0337 783200   		.ascii	"x2\000"
 2315 033a 07       		.byte	0x7
 2316 033b 35       		.byte	0x35
 2317 033c F0000000 		.4byte	0xf0
 2318 0340 04       		.byte	0x4
 2319 0341 08       		.uleb128 0x8
 2320 0342 793200   		.ascii	"y2\000"
 2321 0345 07       		.byte	0x7
 2322 0346 36       		.byte	0x36
 2323 0347 F0000000 		.4byte	0xf0
 2324 034b 06       		.byte	0x6
 2325 034c 00       		.byte	0
 2326 034d 02       		.uleb128 0x2
 2327 034e 02010000 		.4byte	.LASF56
 2328 0352 07       		.byte	0x7
 2329 0353 37       		.byte	0x37
 2330 0354 18030000 		.4byte	0x318
 2331 0358 02       		.uleb128 0x2
 2332 0359 98040000 		.4byte	.LASF57
 2333 035d 08       		.byte	0x8
 2334 035e 2C       		.byte	0x2c
 2335 035f C4000000 		.4byte	0xc4
 2336 0363 02       		.uleb128 0x2
 2337 0364 75030000 		.4byte	.LASF58
 2338 0368 08       		.byte	0x8
 2339 0369 33       		.byte	0x33
 2340 036a C4000000 		.4byte	0xc4
 2341 036e 06       		.uleb128 0x6
 2342 036f 08       		.byte	0x8
 2343 0370 08       		.byte	0x8
 2344 0371 48       		.byte	0x48
 2345 0372 A7030000 		.4byte	0x3a7
 2346 0376 07       		.uleb128 0x7
 2347 0377 20050000 		.4byte	.LASF59
 2348 037b 08       		.byte	0x8
 2349 037c 4A       		.byte	0x4a
 2350 037d D8020000 		.4byte	0x2d8
 2351 0381 00       		.byte	0
 2352 0382 07       		.uleb128 0x7
 2353 0383 E6010000 		.4byte	.LASF60
 2354 0387 08       		.byte	0x8
ARM GAS  C:\Users\pearlstl\AppData\Local\Temp\ccuP9Sbb.s 			page 60


 2355 0388 4B       		.byte	0x4b
 2356 0389 F0000000 		.4byte	0xf0
 2357 038d 04       		.byte	0x4
 2358 038e 07       		.uleb128 0x7
 2359 038f 1B060000 		.4byte	.LASF61
 2360 0393 08       		.byte	0x8
 2361 0394 4C       		.byte	0x4c
 2362 0395 58030000 		.4byte	0x358
 2363 0399 06       		.byte	0x6
 2364 039a 08       		.uleb128 0x8
 2365 039b 6F706100 		.ascii	"opa\000"
 2366 039f 08       		.byte	0x8
 2367 03a0 4D       		.byte	0x4d
 2368 03a1 E4020000 		.4byte	0x2e4
 2369 03a5 07       		.byte	0x7
 2370 03a6 00       		.byte	0
 2371 03a7 06       		.uleb128 0x6
 2372 03a8 08       		.byte	0x8
 2373 03a9 08       		.byte	0x8
 2374 03aa 51       		.byte	0x51
 2375 03ab D4030000 		.4byte	0x3d4
 2376 03af 07       		.uleb128 0x7
 2377 03b0 20050000 		.4byte	.LASF59
 2378 03b4 08       		.byte	0x8
 2379 03b5 53       		.byte	0x53
 2380 03b6 D8020000 		.4byte	0x2d8
 2381 03ba 00       		.byte	0
 2382 03bb 07       		.uleb128 0x7
 2383 03bc E6010000 		.4byte	.LASF60
 2384 03c0 08       		.byte	0x8
 2385 03c1 54       		.byte	0x54
 2386 03c2 F0000000 		.4byte	0xf0
 2387 03c6 04       		.byte	0x4
 2388 03c7 07       		.uleb128 0x7
 2389 03c8 58000000 		.4byte	.LASF62
 2390 03cc 08       		.byte	0x8
 2391 03cd 55       		.byte	0x55
 2392 03ce 63030000 		.4byte	0x363
 2393 03d2 06       		.byte	0x6
 2394 03d3 00       		.byte	0
 2395 03d4 06       		.uleb128 0x6
 2396 03d5 0A       		.byte	0xa
 2397 03d6 08       		.byte	0x8
 2398 03d7 58       		.byte	0x58
 2399 03d8 19040000 		.4byte	0x419
 2400 03dc 08       		.uleb128 0x8
 2401 03dd 746F7000 		.ascii	"top\000"
 2402 03e1 08       		.byte	0x8
 2403 03e2 5A       		.byte	0x5a
 2404 03e3 F0000000 		.4byte	0xf0
 2405 03e7 00       		.byte	0
 2406 03e8 07       		.uleb128 0x7
 2407 03e9 67010000 		.4byte	.LASF63
 2408 03ed 08       		.byte	0x8
 2409 03ee 5B       		.byte	0x5b
 2410 03ef F0000000 		.4byte	0xf0
 2411 03f3 02       		.byte	0x2
ARM GAS  C:\Users\pearlstl\AppData\Local\Temp\ccuP9Sbb.s 			page 61


 2412 03f4 07       		.uleb128 0x7
 2413 03f5 16060000 		.4byte	.LASF64
 2414 03f9 08       		.byte	0x8
 2415 03fa 5C       		.byte	0x5c
 2416 03fb F0000000 		.4byte	0xf0
 2417 03ff 04       		.byte	0x4
 2418 0400 07       		.uleb128 0x7
 2419 0401 BB000000 		.4byte	.LASF65
 2420 0405 08       		.byte	0x8
 2421 0406 5D       		.byte	0x5d
 2422 0407 F0000000 		.4byte	0xf0
 2423 040b 06       		.byte	0x6
 2424 040c 07       		.uleb128 0x7
 2425 040d 10060000 		.4byte	.LASF66
 2426 0411 08       		.byte	0x8
 2427 0412 5E       		.byte	0x5e
 2428 0413 F0000000 		.4byte	0xf0
 2429 0417 08       		.byte	0x8
 2430 0418 00       		.byte	0
 2431 0419 06       		.uleb128 0x6
 2432 041a 28       		.byte	0x28
 2433 041b 08       		.byte	0x8
 2434 041c 41       		.byte	0x41
 2435 041d 76040000 		.4byte	0x476
 2436 0421 07       		.uleb128 0x7
 2437 0422 27010000 		.4byte	.LASF67
 2438 0426 08       		.byte	0x8
 2439 0427 43       		.byte	0x43
 2440 0428 D8020000 		.4byte	0x2d8
 2441 042c 00       		.byte	0
 2442 042d 07       		.uleb128 0x7
 2443 042e 01050000 		.4byte	.LASF68
 2444 0432 08       		.byte	0x8
 2445 0433 44       		.byte	0x44
 2446 0434 D8020000 		.4byte	0x2d8
 2447 0438 04       		.byte	0x4
 2448 0439 07       		.uleb128 0x7
 2449 043a DA020000 		.4byte	.LASF69
 2450 043e 08       		.byte	0x8
 2451 043f 45       		.byte	0x45
 2452 0440 F0000000 		.4byte	0xf0
 2453 0444 08       		.byte	0x8
 2454 0445 08       		.uleb128 0x8
 2455 0446 6F706100 		.ascii	"opa\000"
 2456 044a 08       		.byte	0x8
 2457 044b 46       		.byte	0x46
 2458 044c E4020000 		.4byte	0x2e4
 2459 0450 0A       		.byte	0xa
 2460 0451 07       		.uleb128 0x7
 2461 0452 51000000 		.4byte	.LASF70
 2462 0456 08       		.byte	0x8
 2463 0457 4E       		.byte	0x4e
 2464 0458 6E030000 		.4byte	0x36e
 2465 045c 0C       		.byte	0xc
 2466 045d 07       		.uleb128 0x7
 2467 045e C0020000 		.4byte	.LASF71
 2468 0462 08       		.byte	0x8
ARM GAS  C:\Users\pearlstl\AppData\Local\Temp\ccuP9Sbb.s 			page 62


 2469 0463 56       		.byte	0x56
 2470 0464 A7030000 		.4byte	0x3a7
 2471 0468 14       		.byte	0x14
 2472 0469 07       		.uleb128 0x7
 2473 046a 8C010000 		.4byte	.LASF72
 2474 046e 08       		.byte	0x8
 2475 046f 5F       		.byte	0x5f
 2476 0470 D4030000 		.4byte	0x3d4
 2477 0474 1C       		.byte	0x1c
 2478 0475 00       		.byte	0
 2479 0476 06       		.uleb128 0x6
 2480 0477 14       		.byte	0x14
 2481 0478 08       		.byte	0x8
 2482 0479 63       		.byte	0x63
 2483 047a C7040000 		.4byte	0x4c7
 2484 047e 07       		.uleb128 0x7
 2485 047f 20050000 		.4byte	.LASF59
 2486 0483 08       		.byte	0x8
 2487 0484 65       		.byte	0x65
 2488 0485 D8020000 		.4byte	0x2d8
 2489 0489 00       		.byte	0
 2490 048a 07       		.uleb128 0x7
 2491 048b 65050000 		.4byte	.LASF73
 2492 048f 08       		.byte	0x8
 2493 0490 66       		.byte	0x66
 2494 0491 D8020000 		.4byte	0x2d8
 2495 0495 04       		.byte	0x4
 2496 0496 07       		.uleb128 0x7
 2497 0497 B5050000 		.4byte	.LASF74
 2498 049b 08       		.byte	0x8
 2499 049c 67       		.byte	0x67
 2500 049d C7040000 		.4byte	0x4c7
 2501 04a1 08       		.byte	0x8
 2502 04a2 07       		.uleb128 0x7
 2503 04a3 5C030000 		.4byte	.LASF75
 2504 04a7 08       		.byte	0x8
 2505 04a8 68       		.byte	0x68
 2506 04a9 F0000000 		.4byte	0xf0
 2507 04ad 0C       		.byte	0xc
 2508 04ae 07       		.uleb128 0x7
 2509 04af 86030000 		.4byte	.LASF76
 2510 04b3 08       		.byte	0x8
 2511 04b4 69       		.byte	0x69
 2512 04b5 F0000000 		.4byte	0xf0
 2513 04b9 0E       		.byte	0xe
 2514 04ba 08       		.uleb128 0x8
 2515 04bb 6F706100 		.ascii	"opa\000"
 2516 04bf 08       		.byte	0x8
 2517 04c0 6A       		.byte	0x6a
 2518 04c1 E4020000 		.4byte	0x2e4
 2519 04c5 10       		.byte	0x10
 2520 04c6 00       		.byte	0
 2521 04c7 0D       		.uleb128 0xd
 2522 04c8 04       		.byte	0x4
 2523 04c9 CD040000 		.4byte	0x4cd
 2524 04cd 0E       		.uleb128 0xe
 2525 04ce 10020000 		.4byte	0x210
ARM GAS  C:\Users\pearlstl\AppData\Local\Temp\ccuP9Sbb.s 			page 63


 2526 04d2 06       		.uleb128 0x6
 2527 04d3 08       		.byte	0x8
 2528 04d4 08       		.byte	0x8
 2529 04d5 6E       		.byte	0x6e
 2530 04d6 FF040000 		.4byte	0x4ff
 2531 04da 07       		.uleb128 0x7
 2532 04db 20050000 		.4byte	.LASF59
 2533 04df 08       		.byte	0x8
 2534 04e0 70       		.byte	0x70
 2535 04e1 D8020000 		.4byte	0x2d8
 2536 04e5 00       		.byte	0
 2537 04e6 07       		.uleb128 0x7
 2538 04e7 CA050000 		.4byte	.LASF77
 2539 04eb 08       		.byte	0x8
 2540 04ec 71       		.byte	0x71
 2541 04ed E4020000 		.4byte	0x2e4
 2542 04f1 04       		.byte	0x4
 2543 04f2 08       		.uleb128 0x8
 2544 04f3 6F706100 		.ascii	"opa\000"
 2545 04f7 08       		.byte	0x8
 2546 04f8 72       		.byte	0x72
 2547 04f9 E4020000 		.4byte	0x2e4
 2548 04fd 05       		.byte	0x5
 2549 04fe 00       		.byte	0
 2550 04ff 06       		.uleb128 0x6
 2551 0500 08       		.byte	0x8
 2552 0501 08       		.byte	0x8
 2553 0502 76       		.byte	0x76
 2554 0503 3B050000 		.4byte	0x53b
 2555 0507 07       		.uleb128 0x7
 2556 0508 20050000 		.4byte	.LASF59
 2557 050c 08       		.byte	0x8
 2558 050d 78       		.byte	0x78
 2559 050e D8020000 		.4byte	0x2d8
 2560 0512 00       		.byte	0
 2561 0513 07       		.uleb128 0x7
 2562 0514 E6010000 		.4byte	.LASF60
 2563 0518 08       		.byte	0x8
 2564 0519 79       		.byte	0x79
 2565 051a F0000000 		.4byte	0xf0
 2566 051e 04       		.byte	0x4
 2567 051f 08       		.uleb128 0x8
 2568 0520 6F706100 		.ascii	"opa\000"
 2569 0524 08       		.byte	0x8
 2570 0525 7A       		.byte	0x7a
 2571 0526 E4020000 		.4byte	0x2e4
 2572 052a 06       		.byte	0x6
 2573 052b 0A       		.uleb128 0xa
 2574 052c 29000000 		.4byte	.LASF79
 2575 0530 08       		.byte	0x8
 2576 0531 7B       		.byte	0x7b
 2577 0532 C4000000 		.4byte	0xc4
 2578 0536 01       		.byte	0x1
 2579 0537 01       		.byte	0x1
 2580 0538 07       		.byte	0x7
 2581 0539 07       		.byte	0x7
 2582 053a 00       		.byte	0
ARM GAS  C:\Users\pearlstl\AppData\Local\Temp\ccuP9Sbb.s 			page 64


 2583 053b 06       		.uleb128 0x6
 2584 053c 50       		.byte	0x50
 2585 053d 08       		.byte	0x8
 2586 053e 3C       		.byte	0x3c
 2587 053f 83050000 		.4byte	0x583
 2588 0543 0A       		.uleb128 0xa
 2589 0544 AA000000 		.4byte	.LASF80
 2590 0548 08       		.byte	0x8
 2591 0549 3E       		.byte	0x3e
 2592 054a C4000000 		.4byte	0xc4
 2593 054e 01       		.byte	0x1
 2594 054f 01       		.byte	0x1
 2595 0550 07       		.byte	0x7
 2596 0551 00       		.byte	0
 2597 0552 07       		.uleb128 0x7
 2598 0553 FD000000 		.4byte	.LASF81
 2599 0557 08       		.byte	0x8
 2600 0558 60       		.byte	0x60
 2601 0559 19040000 		.4byte	0x419
 2602 055d 04       		.byte	0x4
 2603 055e 07       		.uleb128 0x7
 2604 055f 35050000 		.4byte	.LASF82
 2605 0563 08       		.byte	0x8
 2606 0564 6B       		.byte	0x6b
 2607 0565 76040000 		.4byte	0x476
 2608 0569 2C       		.byte	0x2c
 2609 056a 07       		.uleb128 0x7
 2610 056b 88040000 		.4byte	.LASF83
 2611 056f 08       		.byte	0x8
 2612 0570 73       		.byte	0x73
 2613 0571 D2040000 		.4byte	0x4d2
 2614 0575 40       		.byte	0x40
 2615 0576 07       		.uleb128 0x7
 2616 0577 6E010000 		.4byte	.LASF84
 2617 057b 08       		.byte	0x8
 2618 057c 7C       		.byte	0x7c
 2619 057d FF040000 		.4byte	0x4ff
 2620 0581 48       		.byte	0x48
 2621 0582 00       		.byte	0
 2622 0583 02       		.uleb128 0x2
 2623 0584 7D040000 		.4byte	.LASF85
 2624 0588 08       		.byte	0x8
 2625 0589 84       		.byte	0x84
 2626 058a 3B050000 		.4byte	0x53b
 2627 058e 0D       		.uleb128 0xd
 2628 058f 04       		.byte	0x4
 2629 0590 94050000 		.4byte	0x594
 2630 0594 0E       		.uleb128 0xe
 2631 0595 83050000 		.4byte	0x583
 2632 0599 0D       		.uleb128 0xd
 2633 059a 04       		.byte	0x4
 2634 059b 9F050000 		.4byte	0x59f
 2635 059f 0E       		.uleb128 0xe
 2636 05a0 4D030000 		.4byte	0x34d
 2637 05a4 0D       		.uleb128 0xd
 2638 05a5 04       		.byte	0x4
 2639 05a6 AA050000 		.4byte	0x5aa
ARM GAS  C:\Users\pearlstl\AppData\Local\Temp\ccuP9Sbb.s 			page 65


 2640 05aa 0E       		.uleb128 0xe
 2641 05ab 0D030000 		.4byte	0x30d
 2642 05af 06       		.uleb128 0x6
 2643 05b0 1A       		.byte	0x1a
 2644 05b1 01       		.byte	0x1
 2645 05b2 17       		.byte	0x17
 2646 05b3 29060000 		.4byte	0x629
 2647 05b7 08       		.uleb128 0x8
 2648 05b8 703100   		.ascii	"p1\000"
 2649 05bb 01       		.byte	0x1
 2650 05bc 19       		.byte	0x19
 2651 05bd 0D030000 		.4byte	0x30d
 2652 05c1 00       		.byte	0
 2653 05c2 08       		.uleb128 0x8
 2654 05c3 703200   		.ascii	"p2\000"
 2655 05c6 01       		.byte	0x1
 2656 05c7 1A       		.byte	0x1a
 2657 05c8 0D030000 		.4byte	0x30d
 2658 05cc 04       		.byte	0x4
 2659 05cd 07       		.uleb128 0x7
 2660 05ce 7E000000 		.4byte	.LASF86
 2661 05d2 01       		.byte	0x1
 2662 05d3 1B       		.byte	0x1b
 2663 05d4 0D030000 		.4byte	0x30d
 2664 05d8 08       		.byte	0x8
 2665 05d9 08       		.uleb128 0x8
 2666 05da 647800   		.ascii	"dx\000"
 2667 05dd 01       		.byte	0x1
 2668 05de 1C       		.byte	0x1c
 2669 05df F0000000 		.4byte	0xf0
 2670 05e3 0C       		.byte	0xc
 2671 05e4 08       		.uleb128 0x8
 2672 05e5 737800   		.ascii	"sx\000"
 2673 05e8 01       		.byte	0x1
 2674 05e9 1D       		.byte	0x1d
 2675 05ea F0000000 		.4byte	0xf0
 2676 05ee 0E       		.byte	0xe
 2677 05ef 08       		.uleb128 0x8
 2678 05f0 647900   		.ascii	"dy\000"
 2679 05f3 01       		.byte	0x1
 2680 05f4 1E       		.byte	0x1e
 2681 05f5 F0000000 		.4byte	0xf0
 2682 05f9 10       		.byte	0x10
 2683 05fa 08       		.uleb128 0x8
 2684 05fb 737900   		.ascii	"sy\000"
 2685 05fe 01       		.byte	0x1
 2686 05ff 1F       		.byte	0x1f
 2687 0600 F0000000 		.4byte	0xf0
 2688 0604 12       		.byte	0x12
 2689 0605 08       		.uleb128 0x8
 2690 0606 65727200 		.ascii	"err\000"
 2691 060a 01       		.byte	0x1
 2692 060b 20       		.byte	0x20
 2693 060c F0000000 		.4byte	0xf0
 2694 0610 14       		.byte	0x14
 2695 0611 08       		.uleb128 0x8
 2696 0612 653200   		.ascii	"e2\000"
ARM GAS  C:\Users\pearlstl\AppData\Local\Temp\ccuP9Sbb.s 			page 66


 2697 0615 01       		.byte	0x1
 2698 0616 21       		.byte	0x21
 2699 0617 F0000000 		.4byte	0xf0
 2700 061b 16       		.byte	0x16
 2701 061c 08       		.uleb128 0x8
 2702 061d 686F7200 		.ascii	"hor\000"
 2703 0621 01       		.byte	0x1
 2704 0622 22       		.byte	0x22
 2705 0623 CD010000 		.4byte	0x1cd
 2706 0627 18       		.byte	0x18
 2707 0628 00       		.byte	0
 2708 0629 02       		.uleb128 0x2
 2709 062a 69030000 		.4byte	.LASF87
 2710 062e 01       		.byte	0x1
 2711 062f 23       		.byte	0x23
 2712 0630 AF050000 		.4byte	0x5af
 2713 0634 15       		.uleb128 0x15
 2714 0635 4F010000 		.4byte	.LASF96
 2715 0639 01       		.byte	0x1
 2716 063a B7       		.byte	0xb7
 2717 063b 01       		.byte	0x1
 2718 063c AF060000 		.4byte	0x6af
 2719 0640 16       		.uleb128 0x16
 2720 0641 80050000 		.4byte	.LASF88
 2721 0645 01       		.byte	0x1
 2722 0646 B7       		.byte	0xb7
 2723 0647 AF060000 		.4byte	0x6af
 2724 064b 16       		.uleb128 0x16
 2725 064c 73010000 		.4byte	.LASF89
 2726 0650 01       		.byte	0x1
 2727 0651 B7       		.byte	0xb7
 2728 0652 99050000 		.4byte	0x599
 2729 0656 16       		.uleb128 0x16
 2730 0657 5F050000 		.4byte	.LASF90
 2731 065b 01       		.byte	0x1
 2732 065c B7       		.byte	0xb7
 2733 065d 8E050000 		.4byte	0x58e
 2734 0661 16       		.uleb128 0x16
 2735 0662 D0020000 		.4byte	.LASF91
 2736 0666 01       		.byte	0x1
 2737 0667 B7       		.byte	0xb7
 2738 0668 E4020000 		.4byte	0x2e4
 2739 066c 17       		.uleb128 0x17
 2740 066d E6010000 		.4byte	.LASF60
 2741 0671 01       		.byte	0x1
 2742 0672 B9       		.byte	0xb9
 2743 0673 F0000000 		.4byte	0xf0
 2744 0677 17       		.uleb128 0x17
 2745 0678 3C000000 		.4byte	.LASF92
 2746 067c 01       		.byte	0x1
 2747 067d BA       		.byte	0xba
 2748 067e F0000000 		.4byte	0xf0
 2749 0682 17       		.uleb128 0x17
 2750 0683 8A050000 		.4byte	.LASF93
 2751 0687 01       		.byte	0x1
 2752 0688 BB       		.byte	0xbb
 2753 0689 F0000000 		.4byte	0xf0
ARM GAS  C:\Users\pearlstl\AppData\Local\Temp\ccuP9Sbb.s 			page 67


 2754 068d 18       		.uleb128 0x18
 2755 068e 6F706100 		.ascii	"opa\000"
 2756 0692 01       		.byte	0x1
 2757 0693 BC       		.byte	0xbc
 2758 0694 E4020000 		.4byte	0x2e4
 2759 0698 17       		.uleb128 0x17
 2760 0699 91030000 		.4byte	.LASF94
 2761 069d 01       		.byte	0x1
 2762 069e BE       		.byte	0xbe
 2763 069f 4D030000 		.4byte	0x34d
 2764 06a3 17       		.uleb128 0x17
 2765 06a4 DD050000 		.4byte	.LASF95
 2766 06a8 01       		.byte	0x1
 2767 06a9 C4       		.byte	0xc4
 2768 06aa 4D030000 		.4byte	0x34d
 2769 06ae 00       		.byte	0
 2770 06af 0D       		.uleb128 0xd
 2771 06b0 04       		.byte	0x4
 2772 06b1 29060000 		.4byte	0x629
 2773 06b5 15       		.uleb128 0x15
 2774 06b6 11020000 		.4byte	.LASF97
 2775 06ba 01       		.byte	0x1
 2776 06bb CC       		.byte	0xcc
 2777 06bc 01       		.byte	0x1
 2778 06bd 30070000 		.4byte	0x730
 2779 06c1 16       		.uleb128 0x16
 2780 06c2 80050000 		.4byte	.LASF88
 2781 06c6 01       		.byte	0x1
 2782 06c7 CC       		.byte	0xcc
 2783 06c8 AF060000 		.4byte	0x6af
 2784 06cc 16       		.uleb128 0x16
 2785 06cd 73010000 		.4byte	.LASF89
 2786 06d1 01       		.byte	0x1
 2787 06d2 CC       		.byte	0xcc
 2788 06d3 99050000 		.4byte	0x599
 2789 06d7 16       		.uleb128 0x16
 2790 06d8 5F050000 		.4byte	.LASF90
 2791 06dc 01       		.byte	0x1
 2792 06dd CC       		.byte	0xcc
 2793 06de 8E050000 		.4byte	0x58e
 2794 06e2 16       		.uleb128 0x16
 2795 06e3 D0020000 		.4byte	.LASF91
 2796 06e7 01       		.byte	0x1
 2797 06e8 CC       		.byte	0xcc
 2798 06e9 E4020000 		.4byte	0x2e4
 2799 06ed 17       		.uleb128 0x17
 2800 06ee E6010000 		.4byte	.LASF60
 2801 06f2 01       		.byte	0x1
 2802 06f3 CE       		.byte	0xce
 2803 06f4 F0000000 		.4byte	0xf0
 2804 06f8 17       		.uleb128 0x17
 2805 06f9 3C000000 		.4byte	.LASF92
 2806 06fd 01       		.byte	0x1
 2807 06fe CF       		.byte	0xcf
 2808 06ff F0000000 		.4byte	0xf0
 2809 0703 17       		.uleb128 0x17
 2810 0704 8A050000 		.4byte	.LASF93
ARM GAS  C:\Users\pearlstl\AppData\Local\Temp\ccuP9Sbb.s 			page 68


 2811 0708 01       		.byte	0x1
 2812 0709 D0       		.byte	0xd0
 2813 070a F0000000 		.4byte	0xf0
 2814 070e 18       		.uleb128 0x18
 2815 070f 6F706100 		.ascii	"opa\000"
 2816 0713 01       		.byte	0x1
 2817 0714 D1       		.byte	0xd1
 2818 0715 E4020000 		.4byte	0x2e4
 2819 0719 17       		.uleb128 0x17
 2820 071a 91030000 		.4byte	.LASF94
 2821 071e 01       		.byte	0x1
 2822 071f D3       		.byte	0xd3
 2823 0720 4D030000 		.4byte	0x34d
 2824 0724 17       		.uleb128 0x17
 2825 0725 DD050000 		.4byte	.LASF95
 2826 0729 01       		.byte	0x1
 2827 072a D9       		.byte	0xd9
 2828 072b 4D030000 		.4byte	0x34d
 2829 072f 00       		.byte	0
 2830 0730 19       		.uleb128 0x19
 2831 0731 39030000 		.4byte	.LASF99
 2832 0735 01       		.byte	0x1
 2833 0736 6402     		.2byte	0x264
 2834 0738 CD010000 		.4byte	0x1cd
 2835 073c 01       		.byte	0x1
 2836 073d 5A070000 		.4byte	0x75a
 2837 0741 1A       		.uleb128 0x1a
 2838 0742 6E010000 		.4byte	.LASF84
 2839 0746 01       		.byte	0x1
 2840 0747 6402     		.2byte	0x264
 2841 0749 AF060000 		.4byte	0x6af
 2842 074d 1B       		.uleb128 0x1b
 2843 074e A1030000 		.4byte	.LASF98
 2844 0752 01       		.byte	0x1
 2845 0753 6602     		.2byte	0x266
 2846 0755 F0000000 		.4byte	0xf0
 2847 0759 00       		.byte	0
 2848 075a 19       		.uleb128 0x19
 2849 075b 2D030000 		.4byte	.LASF100
 2850 075f 01       		.byte	0x1
 2851 0760 7402     		.2byte	0x274
 2852 0762 CD010000 		.4byte	0x1cd
 2853 0766 01       		.byte	0x1
 2854 0767 84070000 		.4byte	0x784
 2855 076b 1A       		.uleb128 0x1a
 2856 076c 6E010000 		.4byte	.LASF84
 2857 0770 01       		.byte	0x1
 2858 0771 7402     		.2byte	0x274
 2859 0773 AF060000 		.4byte	0x6af
 2860 0777 1B       		.uleb128 0x1b
 2861 0778 9A030000 		.4byte	.LASF101
 2862 077c 01       		.byte	0x1
 2863 077d 7602     		.2byte	0x276
 2864 077f F0000000 		.4byte	0xf0
 2865 0783 00       		.byte	0
 2866 0784 15       		.uleb128 0x15
 2867 0785 45030000 		.4byte	.LASF102
ARM GAS  C:\Users\pearlstl\AppData\Local\Temp\ccuP9Sbb.s 			page 69


 2868 0789 01       		.byte	0x1
 2869 078a E1       		.byte	0xe1
 2870 078b 01       		.byte	0x1
 2871 078c 86080000 		.4byte	0x886
 2872 0790 16       		.uleb128 0x16
 2873 0791 80050000 		.4byte	.LASF88
 2874 0795 01       		.byte	0x1
 2875 0796 E1       		.byte	0xe1
 2876 0797 AF060000 		.4byte	0x6af
 2877 079b 16       		.uleb128 0x16
 2878 079c 15010000 		.4byte	.LASF103
 2879 07a0 01       		.byte	0x1
 2880 07a1 E1       		.byte	0xe1
 2881 07a2 CD010000 		.4byte	0x1cd
 2882 07a6 16       		.uleb128 0x16
 2883 07a7 73010000 		.4byte	.LASF89
 2884 07ab 01       		.byte	0x1
 2885 07ac E1       		.byte	0xe1
 2886 07ad 99050000 		.4byte	0x599
 2887 07b1 16       		.uleb128 0x16
 2888 07b2 5F050000 		.4byte	.LASF90
 2889 07b6 01       		.byte	0x1
 2890 07b7 E1       		.byte	0xe1
 2891 07b8 8E050000 		.4byte	0x58e
 2892 07bc 16       		.uleb128 0x16
 2893 07bd D0020000 		.4byte	.LASF91
 2894 07c1 01       		.byte	0x1
 2895 07c2 E2       		.byte	0xe2
 2896 07c3 E4020000 		.4byte	0x2e4
 2897 07c7 18       		.uleb128 0x18
 2898 07c8 6F706100 		.ascii	"opa\000"
 2899 07cc 01       		.byte	0x1
 2900 07cd E5       		.byte	0xe5
 2901 07ce E4020000 		.4byte	0x2e4
 2902 07d2 17       		.uleb128 0x17
 2903 07d3 C0050000 		.4byte	.LASF104
 2904 07d7 01       		.byte	0x1
 2905 07d8 E9       		.byte	0xe9
 2906 07d9 0D030000 		.4byte	0x30d
 2907 07dd 17       		.uleb128 0x17
 2908 07de AC020000 		.4byte	.LASF105
 2909 07e2 01       		.byte	0x1
 2910 07e3 E9       		.byte	0xe9
 2911 07e4 0D030000 		.4byte	0x30d
 2912 07e8 1B       		.uleb128 0x1b
 2913 07e9 E6010000 		.4byte	.LASF60
 2914 07ed 01       		.byte	0x1
 2915 07ee 0401     		.2byte	0x104
 2916 07f0 F0000000 		.4byte	0xf0
 2917 07f4 1B       		.uleb128 0x1b
 2918 07f5 CC010000 		.4byte	.LASF106
 2919 07f9 01       		.byte	0x1
 2920 07fa 0A01     		.2byte	0x10a
 2921 07fc F0000000 		.4byte	0xf0
 2922 0800 1B       		.uleb128 0x1b
 2923 0801 54030000 		.4byte	.LASF107
 2924 0805 01       		.byte	0x1
ARM GAS  C:\Users\pearlstl\AppData\Local\Temp\ccuP9Sbb.s 			page 70


 2925 0806 0B01     		.2byte	0x10b
 2926 0808 86080000 		.4byte	0x886
 2927 080c 1C       		.uleb128 0x1c
 2928 080d 6900     		.ascii	"i\000"
 2929 080f 01       		.byte	0x1
 2930 0810 0C01     		.2byte	0x10c
 2931 0812 F0000000 		.4byte	0xf0
 2932 0816 1B       		.uleb128 0x1b
 2933 0817 52050000 		.4byte	.LASF108
 2934 081b 01       		.byte	0x1
 2935 081c 3301     		.2byte	0x133
 2936 081e F0000000 		.4byte	0xf0
 2937 0822 1B       		.uleb128 0x1b
 2938 0823 EA020000 		.4byte	.LASF109
 2939 0827 01       		.byte	0x1
 2940 0828 3401     		.2byte	0x134
 2941 082a F0000000 		.4byte	0xf0
 2942 082e 1B       		.uleb128 0x1b
 2943 082f 48010000 		.4byte	.LASF110
 2944 0833 01       		.byte	0x1
 2945 0834 C001     		.2byte	0x1c0
 2946 0836 8C080000 		.4byte	0x88c
 2947 083a 1B       		.uleb128 0x1b
 2948 083b DD050000 		.4byte	.LASF95
 2949 083f 01       		.byte	0x1
 2950 0840 C301     		.2byte	0x1c3
 2951 0842 4D030000 		.4byte	0x34d
 2952 0846 1B       		.uleb128 0x1b
 2953 0847 B6020000 		.4byte	.LASF111
 2954 084b 01       		.byte	0x1
 2955 084c C401     		.2byte	0x1c4
 2956 084e CD010000 		.4byte	0x1cd
 2957 0852 1D       		.uleb128 0x1d
 2958 0853 1B       		.uleb128 0x1b
 2959 0854 16030000 		.4byte	.LASF112
 2960 0858 01       		.byte	0x1
 2961 0859 1001     		.2byte	0x110
 2962 085b 29060000 		.4byte	0x629
 2963 085f 1C       		.uleb128 0x1c
 2964 0860 703000   		.ascii	"p0\000"
 2965 0863 01       		.byte	0x1
 2966 0864 1101     		.2byte	0x111
 2967 0866 0D030000 		.4byte	0x30d
 2968 086a 1B       		.uleb128 0x1b
 2969 086b B3040000 		.4byte	.LASF113
 2970 086f 01       		.byte	0x1
 2971 0870 1401     		.2byte	0x114
 2972 0872 E5000000 		.4byte	0xe5
 2973 0876 1D       		.uleb128 0x1d
 2974 0877 1C       		.uleb128 0x1c
 2975 0878 73717200 		.ascii	"sqr\000"
 2976 087c 01       		.byte	0x1
 2977 087d 1C01     		.2byte	0x11c
 2978 087f E5000000 		.4byte	0xe5
 2979 0883 00       		.byte	0
 2980 0884 00       		.byte	0
 2981 0885 00       		.byte	0
ARM GAS  C:\Users\pearlstl\AppData\Local\Temp\ccuP9Sbb.s 			page 71


 2982 0886 0D       		.uleb128 0xd
 2983 0887 04       		.byte	0x4
 2984 0888 0D030000 		.4byte	0x30d
 2985 088c 1E       		.uleb128 0x1e
 2986 088d 0D030000 		.4byte	0x30d
 2987 0891 1F       		.uleb128 0x1f
 2988 0892 1D010000 		.4byte	.LASF114
 2989 0896 01       		.byte	0x1
 2990 0897 3D02     		.2byte	0x23d
 2991 0899 01       		.byte	0x1
 2992 089a C1080000 		.4byte	0x8c1
 2993 089e 1A       		.uleb128 0x1a
 2994 089f 6E010000 		.4byte	.LASF84
 2995 08a3 01       		.byte	0x1
 2996 08a4 3D02     		.2byte	0x23d
 2997 08a6 AF060000 		.4byte	0x6af
 2998 08aa 20       		.uleb128 0x20
 2999 08ab 703100   		.ascii	"p1\000"
 3000 08ae 01       		.byte	0x1
 3001 08af 3D02     		.2byte	0x23d
 3002 08b1 A4050000 		.4byte	0x5a4
 3003 08b5 20       		.uleb128 0x20
 3004 08b6 703200   		.ascii	"p2\000"
 3005 08b9 01       		.byte	0x1
 3006 08ba 3D02     		.2byte	0x23d
 3007 08bc A4050000 		.4byte	0x5a4
 3008 08c0 00       		.byte	0
 3009 08c1 19       		.uleb128 0x19
 3010 08c2 5D010000 		.4byte	.LASF115
 3011 08c6 01       		.byte	0x1
 3012 08c7 5002     		.2byte	0x250
 3013 08c9 CD010000 		.4byte	0x1cd
 3014 08cd 01       		.byte	0x1
 3015 08ce DF080000 		.4byte	0x8df
 3016 08d2 1A       		.uleb128 0x1a
 3017 08d3 6E010000 		.4byte	.LASF84
 3018 08d7 01       		.byte	0x1
 3019 08d8 5002     		.2byte	0x250
 3020 08da AF060000 		.4byte	0x6af
 3021 08de 00       		.byte	0
 3022 08df 21       		.uleb128 0x21
 3023 08e0 D9010000 		.4byte	.LASF125
 3024 08e4 01       		.byte	0x1
 3025 08e5 4E       		.byte	0x4e
 3026 08e6 00000000 		.4byte	.LFB32
 3027 08ea 0A0A0000 		.4byte	.LFE32-.LFB32
 3028 08ee 01       		.uleb128 0x1
 3029 08ef 9C       		.byte	0x9c
 3030 08f0 5A0E0000 		.4byte	0xe5a
 3031 08f4 22       		.uleb128 0x22
 3032 08f5 00000000 		.4byte	.LASF116
 3033 08f9 01       		.byte	0x1
 3034 08fa 4E       		.byte	0x4e
 3035 08fb A4050000 		.4byte	0x5a4
 3036 08ff 00000000 		.4byte	.LLST0
 3037 0903 22       		.uleb128 0x22
 3038 0904 07000000 		.4byte	.LASF117
ARM GAS  C:\Users\pearlstl\AppData\Local\Temp\ccuP9Sbb.s 			page 72


 3039 0908 01       		.byte	0x1
 3040 0909 4E       		.byte	0x4e
 3041 090a A4050000 		.4byte	0x5a4
 3042 090e 53000000 		.4byte	.LLST1
 3043 0912 22       		.uleb128 0x22
 3044 0913 73010000 		.4byte	.LASF89
 3045 0917 01       		.byte	0x1
 3046 0918 4E       		.byte	0x4e
 3047 0919 99050000 		.4byte	0x599
 3048 091d A6000000 		.4byte	.LLST2
 3049 0921 22       		.uleb128 0x22
 3050 0922 5F050000 		.4byte	.LASF90
 3051 0926 01       		.byte	0x1
 3052 0927 4F       		.byte	0x4f
 3053 0928 8E050000 		.4byte	0x58e
 3054 092c 6F010000 		.4byte	.LLST3
 3055 0930 22       		.uleb128 0x22
 3056 0931 D0020000 		.4byte	.LASF91
 3057 0935 01       		.byte	0x1
 3058 0936 4F       		.byte	0x4f
 3059 0937 E4020000 		.4byte	0x2e4
 3060 093b 56020000 		.4byte	.LLST4
 3061 093f 23       		.uleb128 0x23
 3062 0940 80050000 		.4byte	.LASF88
 3063 0944 01       		.byte	0x1
 3064 0945 5B       		.byte	0x5b
 3065 0946 29060000 		.4byte	0x629
 3066 094a 76020000 		.4byte	.LLST5
 3067 094e 24       		.uleb128 0x24
 3068 094f 703100   		.ascii	"p1\000"
 3069 0952 01       		.byte	0x1
 3070 0953 5C       		.byte	0x5c
 3071 0954 0D030000 		.4byte	0x30d
 3072 0958 000B0000 		.4byte	.LLST6
 3073 095c 24       		.uleb128 0x24
 3074 095d 703200   		.ascii	"p2\000"
 3075 0960 01       		.byte	0x1
 3076 0961 5D       		.byte	0x5d
 3077 0962 0D030000 		.4byte	0x30d
 3078 0966 700B0000 		.4byte	.LLST7
 3079 096a 25       		.uleb128 0x25
 3080 096b 91080000 		.4byte	0x891
 3081 096f 96000000 		.4byte	.LBB43
 3082 0973 00000000 		.4byte	.Ldebug_ranges0+0
 3083 0977 01       		.byte	0x1
 3084 0978 7E       		.byte	0x7e
 3085 0979 99090000 		.4byte	0x999
 3086 097d 26       		.uleb128 0x26
 3087 097e B5080000 		.4byte	0x8b5
 3088 0982 AA0B0000 		.4byte	.LLST8
 3089 0986 26       		.uleb128 0x26
 3090 0987 AA080000 		.4byte	0x8aa
 3091 098b F20B0000 		.4byte	.LLST9
 3092 098f 26       		.uleb128 0x26
 3093 0990 9E080000 		.4byte	0x89e
 3094 0994 3A0C0000 		.4byte	.LLST10
 3095 0998 00       		.byte	0
ARM GAS  C:\Users\pearlstl\AppData\Local\Temp\ccuP9Sbb.s 			page 73


 3096 0999 27       		.uleb128 0x27
 3097 099a 40000000 		.4byte	.Ldebug_ranges0+0x40
 3098 099e F50C0000 		.4byte	0xcf5
 3099 09a2 23       		.uleb128 0x23
 3100 09a3 15010000 		.4byte	.LASF103
 3101 09a7 01       		.byte	0x1
 3102 09a8 8A       		.byte	0x8a
 3103 09a9 CD010000 		.4byte	0x1cd
 3104 09ad 820C0000 		.4byte	.LLST11
 3105 09b1 28       		.uleb128 0x28
 3106 09b2 84070000 		.4byte	0x784
 3107 09b6 E2000000 		.4byte	.LBB52
 3108 09ba 40000000 		.4byte	.Ldebug_ranges0+0x40
 3109 09be 01       		.byte	0x1
 3110 09bf AF       		.byte	0xaf
 3111 09c0 26       		.uleb128 0x26
 3112 09c1 9B070000 		.4byte	0x79b
 3113 09c5 C60C0000 		.4byte	.LLST12
 3114 09c9 26       		.uleb128 0x26
 3115 09ca B1070000 		.4byte	0x7b1
 3116 09ce 0A0D0000 		.4byte	.LLST13
 3117 09d2 26       		.uleb128 0x26
 3118 09d3 B1070000 		.4byte	0x7b1
 3119 09d7 0A0D0000 		.4byte	.LLST13
 3120 09db 26       		.uleb128 0x26
 3121 09dc B1070000 		.4byte	0x7b1
 3122 09e0 0A0D0000 		.4byte	.LLST13
 3123 09e4 26       		.uleb128 0x26
 3124 09e5 BC070000 		.4byte	0x7bc
 3125 09e9 7A0D0000 		.4byte	.LLST16
 3126 09ed 26       		.uleb128 0x26
 3127 09ee A6070000 		.4byte	0x7a6
 3128 09f2 8D0D0000 		.4byte	.LLST17
 3129 09f6 26       		.uleb128 0x26
 3130 09f7 90070000 		.4byte	0x790
 3131 09fb 060E0000 		.4byte	.LLST18
 3132 09ff 29       		.uleb128 0x29
 3133 0a00 40000000 		.4byte	.Ldebug_ranges0+0x40
 3134 0a04 2A       		.uleb128 0x2a
 3135 0a05 C7070000 		.4byte	0x7c7
 3136 0a09 5E0E0000 		.4byte	.LLST19
 3137 0a0d 2B       		.uleb128 0x2b
 3138 0a0e D2070000 		.4byte	0x7d2
 3139 0a12 2A       		.uleb128 0x2a
 3140 0a13 DD070000 		.4byte	0x7dd
 3141 0a17 A70E0000 		.4byte	.LLST20
 3142 0a1b 2A       		.uleb128 0x2a
 3143 0a1c E8070000 		.4byte	0x7e8
 3144 0a20 120F0000 		.4byte	.LLST21
 3145 0a24 2A       		.uleb128 0x2a
 3146 0a25 F4070000 		.4byte	0x7f4
 3147 0a29 6B0F0000 		.4byte	.LLST22
 3148 0a2d 2A       		.uleb128 0x2a
 3149 0a2e 00080000 		.4byte	0x800
 3150 0a32 980F0000 		.4byte	.LLST23
 3151 0a36 2A       		.uleb128 0x2a
 3152 0a37 0C080000 		.4byte	0x80c
ARM GAS  C:\Users\pearlstl\AppData\Local\Temp\ccuP9Sbb.s 			page 74


 3153 0a3b DF0F0000 		.4byte	.LLST24
 3154 0a3f 2A       		.uleb128 0x2a
 3155 0a40 16080000 		.4byte	0x816
 3156 0a44 25110000 		.4byte	.LLST25
 3157 0a48 2A       		.uleb128 0x2a
 3158 0a49 22080000 		.4byte	0x822
 3159 0a4d 68110000 		.4byte	.LLST26
 3160 0a51 2C       		.uleb128 0x2c
 3161 0a52 2E080000 		.4byte	0x82e
 3162 0a56 02       		.uleb128 0x2
 3163 0a57 91       		.byte	0x91
 3164 0a58 4C       		.sleb128 -52
 3165 0a59 2C       		.uleb128 0x2c
 3166 0a5a 3A080000 		.4byte	0x83a
 3167 0a5e 02       		.uleb128 0x2
 3168 0a5f 91       		.byte	0x91
 3169 0a60 50       		.sleb128 -48
 3170 0a61 2A       		.uleb128 0x2a
 3171 0a62 46080000 		.4byte	0x846
 3172 0a66 AB110000 		.4byte	.LLST27
 3173 0a6a 27       		.uleb128 0x27
 3174 0a6b 70000000 		.4byte	.Ldebug_ranges0+0x70
 3175 0a6f E40A0000 		.4byte	0xae4
 3176 0a73 2A       		.uleb128 0x2a
 3177 0a74 53080000 		.4byte	0x853
 3178 0a78 3B120000 		.4byte	.LLST28
 3179 0a7c 2B       		.uleb128 0x2b
 3180 0a7d 5F080000 		.4byte	0x85f
 3181 0a81 2A       		.uleb128 0x2a
 3182 0a82 6A080000 		.4byte	0x86a
 3183 0a86 B1130000 		.4byte	.LLST29
 3184 0a8a 2D       		.uleb128 0x2d
 3185 0a8b 91080000 		.4byte	0x891
 3186 0a8f 3E010000 		.4byte	.LBB55
 3187 0a93 A0000000 		.4byte	.Ldebug_ranges0+0xa0
 3188 0a97 01       		.byte	0x1
 3189 0a98 1201     		.2byte	0x112
 3190 0a9a BA0A0000 		.4byte	0xaba
 3191 0a9e 26       		.uleb128 0x26
 3192 0a9f B5080000 		.4byte	0x8b5
 3193 0aa3 C6130000 		.4byte	.LLST30
 3194 0aa7 26       		.uleb128 0x26
 3195 0aa8 AA080000 		.4byte	0x8aa
 3196 0aac EE130000 		.4byte	.LLST31
 3197 0ab0 26       		.uleb128 0x26
 3198 0ab1 9E080000 		.4byte	0x89e
 3199 0ab5 16140000 		.4byte	.LLST32
 3200 0ab9 00       		.byte	0
 3201 0aba 29       		.uleb128 0x29
 3202 0abb B8000000 		.4byte	.Ldebug_ranges0+0xb8
 3203 0abf 2A       		.uleb128 0x2a
 3204 0ac0 77080000 		.4byte	0x877
 3205 0ac4 3E140000 		.4byte	.LLST33
 3206 0ac8 2E       		.uleb128 0x2e
 3207 0ac9 C1080000 		.4byte	0x8c1
 3208 0acd A8010000 		.4byte	.LBB59
 3209 0ad1 E8000000 		.4byte	.Ldebug_ranges0+0xe8
ARM GAS  C:\Users\pearlstl\AppData\Local\Temp\ccuP9Sbb.s 			page 75


 3210 0ad5 01       		.byte	0x1
 3211 0ad6 2501     		.2byte	0x125
 3212 0ad8 26       		.uleb128 0x26
 3213 0ad9 D2080000 		.4byte	0x8d2
 3214 0add C2140000 		.4byte	.LLST34
 3215 0ae1 00       		.byte	0
 3216 0ae2 00       		.byte	0
 3217 0ae3 00       		.byte	0
 3218 0ae4 2D       		.uleb128 0x2d
 3219 0ae5 30070000 		.4byte	0x730
 3220 0ae9 2A030000 		.4byte	.LBB73
 3221 0aed 10010000 		.4byte	.Ldebug_ranges0+0x110
 3222 0af1 01       		.byte	0x1
 3223 0af2 C701     		.2byte	0x1c7
 3224 0af4 2B0B0000 		.4byte	0xb2b
 3225 0af8 26       		.uleb128 0x26
 3226 0af9 41070000 		.4byte	0x741
 3227 0afd FA140000 		.4byte	.LLST35
 3228 0b01 29       		.uleb128 0x29
 3229 0b02 10010000 		.4byte	.Ldebug_ranges0+0x110
 3230 0b06 2A       		.uleb128 0x2a
 3231 0b07 4D070000 		.4byte	0x74d
 3232 0b0b 32150000 		.4byte	.LLST36
 3233 0b0f 2E       		.uleb128 0x2e
 3234 0b10 C1080000 		.4byte	0x8c1
 3235 0b14 2A030000 		.4byte	.LBB75
 3236 0b18 40010000 		.4byte	.Ldebug_ranges0+0x140
 3237 0b1c 01       		.byte	0x1
 3238 0b1d 6902     		.2byte	0x269
 3239 0b1f 26       		.uleb128 0x26
 3240 0b20 D2080000 		.4byte	0x8d2
 3241 0b24 61150000 		.4byte	.LLST37
 3242 0b28 00       		.byte	0
 3243 0b29 00       		.byte	0
 3244 0b2a 00       		.byte	0
 3245 0b2b 2D       		.uleb128 0x2d
 3246 0b2c 5A070000 		.4byte	0x75a
 3247 0b30 EA050000 		.4byte	.LBB93
 3248 0b34 70010000 		.4byte	.Ldebug_ranges0+0x170
 3249 0b38 01       		.byte	0x1
 3250 0b39 0102     		.2byte	0x201
 3251 0b3b 720B0000 		.4byte	0xb72
 3252 0b3f 26       		.uleb128 0x26
 3253 0b40 6B070000 		.4byte	0x76b
 3254 0b44 A9150000 		.4byte	.LLST38
 3255 0b48 29       		.uleb128 0x29
 3256 0b49 70010000 		.4byte	.Ldebug_ranges0+0x170
 3257 0b4d 2A       		.uleb128 0x2a
 3258 0b4e 77070000 		.4byte	0x777
 3259 0b52 E1150000 		.4byte	.LLST39
 3260 0b56 2E       		.uleb128 0x2e
 3261 0b57 C1080000 		.4byte	0x8c1
 3262 0b5b EA050000 		.4byte	.LBB95
 3263 0b5f 90010000 		.4byte	.Ldebug_ranges0+0x190
 3264 0b63 01       		.byte	0x1
 3265 0b64 7902     		.2byte	0x279
 3266 0b66 26       		.uleb128 0x26
ARM GAS  C:\Users\pearlstl\AppData\Local\Temp\ccuP9Sbb.s 			page 76


 3267 0b67 D2080000 		.4byte	0x8d2
 3268 0b6b 15160000 		.4byte	.LLST40
 3269 0b6f 00       		.byte	0
 3270 0b70 00       		.byte	0
 3271 0b71 00       		.byte	0
 3272 0b72 2F       		.uleb128 0x2f
 3273 0b73 2A010000 		.4byte	.LVL23
 3274 0b77 5A0E0000 		.4byte	0xe5a
 3275 0b7b 8A0B0000 		.4byte	0xb8a
 3276 0b7f 30       		.uleb128 0x30
 3277 0b80 01       		.uleb128 0x1
 3278 0b81 50       		.byte	0x50
 3279 0b82 06       		.uleb128 0x6
 3280 0b83 91       		.byte	0x91
 3281 0b84 AC7F     		.sleb128 -84
 3282 0b86 06       		.byte	0x6
 3283 0b87 32       		.byte	0x32
 3284 0b88 24       		.byte	0x24
 3285 0b89 00       		.byte	0
 3286 0b8a 2F       		.uleb128 0x2f
 3287 0b8b BE030000 		.4byte	.LVL78
 3288 0b8f 650E0000 		.4byte	0xe65
 3289 0b93 AA0B0000 		.4byte	0xbaa
 3290 0b97 30       		.uleb128 0x30
 3291 0b98 01       		.uleb128 0x1
 3292 0b99 50       		.byte	0x50
 3293 0b9a 02       		.uleb128 0x2
 3294 0b9b 91       		.byte	0x91
 3295 0b9c 50       		.sleb128 -48
 3296 0b9d 30       		.uleb128 0x30
 3297 0b9e 01       		.uleb128 0x1
 3298 0b9f 51       		.byte	0x51
 3299 0ba0 02       		.uleb128 0x2
 3300 0ba1 78       		.byte	0x78
 3301 0ba2 00       		.sleb128 0
 3302 0ba3 30       		.uleb128 0x30
 3303 0ba4 01       		.uleb128 0x1
 3304 0ba5 53       		.byte	0x53
 3305 0ba6 02       		.uleb128 0x2
 3306 0ba7 77       		.byte	0x77
 3307 0ba8 00       		.sleb128 0
 3308 0ba9 00       		.byte	0
 3309 0baa 2F       		.uleb128 0x2f
 3310 0bab 78040000 		.4byte	.LVL90
 3311 0baf 650E0000 		.4byte	0xe65
 3312 0bb3 CA0B0000 		.4byte	0xbca
 3313 0bb7 30       		.uleb128 0x30
 3314 0bb8 01       		.uleb128 0x1
 3315 0bb9 50       		.byte	0x50
 3316 0bba 02       		.uleb128 0x2
 3317 0bbb 75       		.byte	0x75
 3318 0bbc 00       		.sleb128 0
 3319 0bbd 30       		.uleb128 0x30
 3320 0bbe 01       		.uleb128 0x1
 3321 0bbf 51       		.byte	0x51
 3322 0bc0 02       		.uleb128 0x2
 3323 0bc1 78       		.byte	0x78
ARM GAS  C:\Users\pearlstl\AppData\Local\Temp\ccuP9Sbb.s 			page 77


 3324 0bc2 00       		.sleb128 0
 3325 0bc3 30       		.uleb128 0x30
 3326 0bc4 01       		.uleb128 0x1
 3327 0bc5 53       		.byte	0x53
 3328 0bc6 02       		.uleb128 0x2
 3329 0bc7 7A       		.byte	0x7a
 3330 0bc8 00       		.sleb128 0
 3331 0bc9 00       		.byte	0
 3332 0bca 2F       		.uleb128 0x2f
 3333 0bcb DE040000 		.4byte	.LVL97
 3334 0bcf 650E0000 		.4byte	0xe65
 3335 0bd3 EA0B0000 		.4byte	0xbea
 3336 0bd7 30       		.uleb128 0x30
 3337 0bd8 01       		.uleb128 0x1
 3338 0bd9 50       		.byte	0x50
 3339 0bda 02       		.uleb128 0x2
 3340 0bdb 91       		.byte	0x91
 3341 0bdc 50       		.sleb128 -48
 3342 0bdd 30       		.uleb128 0x30
 3343 0bde 01       		.uleb128 0x1
 3344 0bdf 51       		.byte	0x51
 3345 0be0 02       		.uleb128 0x2
 3346 0be1 78       		.byte	0x78
 3347 0be2 00       		.sleb128 0
 3348 0be3 30       		.uleb128 0x30
 3349 0be4 01       		.uleb128 0x1
 3350 0be5 53       		.byte	0x53
 3351 0be6 02       		.uleb128 0x2
 3352 0be7 76       		.byte	0x76
 3353 0be8 00       		.sleb128 0
 3354 0be9 00       		.byte	0
 3355 0bea 2F       		.uleb128 0x2f
 3356 0beb 08050000 		.4byte	.LVL98
 3357 0bef 700E0000 		.4byte	0xe70
 3358 0bf3 050C0000 		.4byte	0xc05
 3359 0bf7 30       		.uleb128 0x30
 3360 0bf8 01       		.uleb128 0x1
 3361 0bf9 52       		.byte	0x52
 3362 0bfa 02       		.uleb128 0x2
 3363 0bfb 78       		.byte	0x78
 3364 0bfc 00       		.sleb128 0
 3365 0bfd 30       		.uleb128 0x30
 3366 0bfe 02       		.uleb128 0x2
 3367 0bff 7D       		.byte	0x7d
 3368 0c00 00       		.sleb128 0
 3369 0c01 02       		.uleb128 0x2
 3370 0c02 76       		.byte	0x76
 3371 0c03 00       		.sleb128 0
 3372 0c04 00       		.byte	0
 3373 0c05 2F       		.uleb128 0x2f
 3374 0c06 74050000 		.4byte	.LVL106
 3375 0c0a 650E0000 		.4byte	0xe65
 3376 0c0e 250C0000 		.4byte	0xc25
 3377 0c12 30       		.uleb128 0x30
 3378 0c13 01       		.uleb128 0x1
 3379 0c14 50       		.byte	0x50
 3380 0c15 02       		.uleb128 0x2
ARM GAS  C:\Users\pearlstl\AppData\Local\Temp\ccuP9Sbb.s 			page 78


 3381 0c16 75       		.byte	0x75
 3382 0c17 00       		.sleb128 0
 3383 0c18 30       		.uleb128 0x30
 3384 0c19 01       		.uleb128 0x1
 3385 0c1a 51       		.byte	0x51
 3386 0c1b 02       		.uleb128 0x2
 3387 0c1c 78       		.byte	0x78
 3388 0c1d 00       		.sleb128 0
 3389 0c1e 30       		.uleb128 0x30
 3390 0c1f 01       		.uleb128 0x1
 3391 0c20 53       		.byte	0x53
 3392 0c21 02       		.uleb128 0x2
 3393 0c22 7A       		.byte	0x7a
 3394 0c23 00       		.sleb128 0
 3395 0c24 00       		.byte	0
 3396 0c25 2F       		.uleb128 0x2f
 3397 0c26 A0050000 		.4byte	.LVL107
 3398 0c2a 700E0000 		.4byte	0xe70
 3399 0c2e 400C0000 		.4byte	0xc40
 3400 0c32 30       		.uleb128 0x30
 3401 0c33 01       		.uleb128 0x1
 3402 0c34 52       		.byte	0x52
 3403 0c35 02       		.uleb128 0x2
 3404 0c36 78       		.byte	0x78
 3405 0c37 00       		.sleb128 0
 3406 0c38 30       		.uleb128 0x30
 3407 0c39 02       		.uleb128 0x2
 3408 0c3a 7D       		.byte	0x7d
 3409 0c3b 00       		.sleb128 0
 3410 0c3c 02       		.uleb128 0x2
 3411 0c3d 7A       		.byte	0x7a
 3412 0c3e 00       		.sleb128 0
 3413 0c3f 00       		.byte	0
 3414 0c40 2F       		.uleb128 0x2f
 3415 0c41 7E060000 		.4byte	.LVL127
 3416 0c45 650E0000 		.4byte	0xe65
 3417 0c49 600C0000 		.4byte	0xc60
 3418 0c4d 30       		.uleb128 0x30
 3419 0c4e 01       		.uleb128 0x1
 3420 0c4f 50       		.byte	0x50
 3421 0c50 02       		.uleb128 0x2
 3422 0c51 7B       		.byte	0x7b
 3423 0c52 00       		.sleb128 0
 3424 0c53 30       		.uleb128 0x30
 3425 0c54 01       		.uleb128 0x1
 3426 0c55 51       		.byte	0x51
 3427 0c56 02       		.uleb128 0x2
 3428 0c57 78       		.byte	0x78
 3429 0c58 00       		.sleb128 0
 3430 0c59 30       		.uleb128 0x30
 3431 0c5a 01       		.uleb128 0x1
 3432 0c5b 53       		.byte	0x53
 3433 0c5c 02       		.uleb128 0x2
 3434 0c5d 75       		.byte	0x75
 3435 0c5e 00       		.sleb128 0
 3436 0c5f 00       		.byte	0
 3437 0c60 2F       		.uleb128 0x2f
ARM GAS  C:\Users\pearlstl\AppData\Local\Temp\ccuP9Sbb.s 			page 79


 3438 0c61 40070000 		.4byte	.LVL146
 3439 0c65 650E0000 		.4byte	0xe65
 3440 0c69 800C0000 		.4byte	0xc80
 3441 0c6d 30       		.uleb128 0x30
 3442 0c6e 01       		.uleb128 0x1
 3443 0c6f 50       		.byte	0x50
 3444 0c70 02       		.uleb128 0x2
 3445 0c71 75       		.byte	0x75
 3446 0c72 00       		.sleb128 0
 3447 0c73 30       		.uleb128 0x30
 3448 0c74 01       		.uleb128 0x1
 3449 0c75 51       		.byte	0x51
 3450 0c76 02       		.uleb128 0x2
 3451 0c77 78       		.byte	0x78
 3452 0c78 00       		.sleb128 0
 3453 0c79 30       		.uleb128 0x30
 3454 0c7a 01       		.uleb128 0x1
 3455 0c7b 53       		.byte	0x53
 3456 0c7c 02       		.uleb128 0x2
 3457 0c7d 79       		.byte	0x79
 3458 0c7e 00       		.sleb128 0
 3459 0c7f 00       		.byte	0
 3460 0c80 2F       		.uleb128 0x2f
 3461 0c81 AC070000 		.4byte	.LVL152
 3462 0c85 650E0000 		.4byte	0xe65
 3463 0c89 A00C0000 		.4byte	0xca0
 3464 0c8d 30       		.uleb128 0x30
 3465 0c8e 01       		.uleb128 0x1
 3466 0c8f 50       		.byte	0x50
 3467 0c90 02       		.uleb128 0x2
 3468 0c91 7B       		.byte	0x7b
 3469 0c92 00       		.sleb128 0
 3470 0c93 30       		.uleb128 0x30
 3471 0c94 01       		.uleb128 0x1
 3472 0c95 51       		.byte	0x51
 3473 0c96 02       		.uleb128 0x2
 3474 0c97 78       		.byte	0x78
 3475 0c98 00       		.sleb128 0
 3476 0c99 30       		.uleb128 0x30
 3477 0c9a 01       		.uleb128 0x1
 3478 0c9b 53       		.byte	0x53
 3479 0c9c 02       		.uleb128 0x2
 3480 0c9d 76       		.byte	0x76
 3481 0c9e 00       		.sleb128 0
 3482 0c9f 00       		.byte	0
 3483 0ca0 2F       		.uleb128 0x2f
 3484 0ca1 D6070000 		.4byte	.LVL153
 3485 0ca5 700E0000 		.4byte	0xe70
 3486 0ca9 BB0C0000 		.4byte	0xcbb
 3487 0cad 30       		.uleb128 0x30
 3488 0cae 01       		.uleb128 0x1
 3489 0caf 52       		.byte	0x52
 3490 0cb0 02       		.uleb128 0x2
 3491 0cb1 78       		.byte	0x78
 3492 0cb2 00       		.sleb128 0
 3493 0cb3 30       		.uleb128 0x30
 3494 0cb4 02       		.uleb128 0x2
ARM GAS  C:\Users\pearlstl\AppData\Local\Temp\ccuP9Sbb.s 			page 80


 3495 0cb5 7D       		.byte	0x7d
 3496 0cb6 00       		.sleb128 0
 3497 0cb7 02       		.uleb128 0x2
 3498 0cb8 76       		.byte	0x76
 3499 0cb9 00       		.sleb128 0
 3500 0cba 00       		.byte	0
 3501 0cbb 2F       		.uleb128 0x2f
 3502 0cbc 44080000 		.4byte	.LVL159
 3503 0cc0 650E0000 		.4byte	0xe65
 3504 0cc4 DB0C0000 		.4byte	0xcdb
 3505 0cc8 30       		.uleb128 0x30
 3506 0cc9 01       		.uleb128 0x1
 3507 0cca 50       		.byte	0x50
 3508 0ccb 02       		.uleb128 0x2
 3509 0ccc 75       		.byte	0x75
 3510 0ccd 00       		.sleb128 0
 3511 0cce 30       		.uleb128 0x30
 3512 0ccf 01       		.uleb128 0x1
 3513 0cd0 51       		.byte	0x51
 3514 0cd1 02       		.uleb128 0x2
 3515 0cd2 78       		.byte	0x78
 3516 0cd3 00       		.sleb128 0
 3517 0cd4 30       		.uleb128 0x30
 3518 0cd5 01       		.uleb128 0x1
 3519 0cd6 53       		.byte	0x53
 3520 0cd7 02       		.uleb128 0x2
 3521 0cd8 7A       		.byte	0x7a
 3522 0cd9 00       		.sleb128 0
 3523 0cda 00       		.byte	0
 3524 0cdb 31       		.uleb128 0x31
 3525 0cdc 70080000 		.4byte	.LVL160
 3526 0ce0 700E0000 		.4byte	0xe70
 3527 0ce4 30       		.uleb128 0x30
 3528 0ce5 01       		.uleb128 0x1
 3529 0ce6 52       		.byte	0x52
 3530 0ce7 02       		.uleb128 0x2
 3531 0ce8 78       		.byte	0x78
 3532 0ce9 00       		.sleb128 0
 3533 0cea 30       		.uleb128 0x30
 3534 0ceb 02       		.uleb128 0x2
 3535 0cec 7D       		.byte	0x7d
 3536 0ced 00       		.sleb128 0
 3537 0cee 02       		.uleb128 0x2
 3538 0cef 7A       		.byte	0x7a
 3539 0cf0 00       		.sleb128 0
 3540 0cf1 00       		.byte	0
 3541 0cf2 00       		.byte	0
 3542 0cf3 00       		.byte	0
 3543 0cf4 00       		.byte	0
 3544 0cf5 32       		.uleb128 0x32
 3545 0cf6 B5060000 		.4byte	0x6b5
 3546 0cfa 80080000 		.4byte	.LBB124
 3547 0cfe 6E000000 		.4byte	.LBE124-.LBB124
 3548 0d02 01       		.byte	0x1
 3549 0d03 86       		.byte	0x86
 3550 0d04 A70D0000 		.4byte	0xda7
 3551 0d08 26       		.uleb128 0x26
ARM GAS  C:\Users\pearlstl\AppData\Local\Temp\ccuP9Sbb.s 			page 81


 3552 0d09 C1060000 		.4byte	0x6c1
 3553 0d0d 5D160000 		.4byte	.LLST41
 3554 0d11 26       		.uleb128 0x26
 3555 0d12 C1060000 		.4byte	0x6c1
 3556 0d16 5D160000 		.4byte	.LLST41
 3557 0d1a 26       		.uleb128 0x26
 3558 0d1b C1060000 		.4byte	0x6c1
 3559 0d1f 5D160000 		.4byte	.LLST41
 3560 0d23 26       		.uleb128 0x26
 3561 0d24 C1060000 		.4byte	0x6c1
 3562 0d28 5D160000 		.4byte	.LLST41
 3563 0d2c 26       		.uleb128 0x26
 3564 0d2d D7060000 		.4byte	0x6d7
 3565 0d31 75160000 		.4byte	.LLST45
 3566 0d35 26       		.uleb128 0x26
 3567 0d36 D7060000 		.4byte	0x6d7
 3568 0d3a 96160000 		.4byte	.LLST46
 3569 0d3e 26       		.uleb128 0x26
 3570 0d3f D7060000 		.4byte	0x6d7
 3571 0d43 B7160000 		.4byte	.LLST47
 3572 0d47 26       		.uleb128 0x26
 3573 0d48 E2060000 		.4byte	0x6e2
 3574 0d4c D8160000 		.4byte	.LLST48
 3575 0d50 26       		.uleb128 0x26
 3576 0d51 CC060000 		.4byte	0x6cc
 3577 0d55 EB160000 		.4byte	.LLST49
 3578 0d59 33       		.uleb128 0x33
 3579 0d5a 80080000 		.4byte	.LBB125
 3580 0d5e 6E000000 		.4byte	.LBE125-.LBB125
 3581 0d62 2A       		.uleb128 0x2a
 3582 0d63 ED060000 		.4byte	0x6ed
 3583 0d67 FE160000 		.4byte	.LLST50
 3584 0d6b 2C       		.uleb128 0x2c
 3585 0d6c F8060000 		.4byte	0x6f8
 3586 0d70 01       		.uleb128 0x1
 3587 0d71 54       		.byte	0x54
 3588 0d72 2C       		.uleb128 0x2c
 3589 0d73 03070000 		.4byte	0x703
 3590 0d77 01       		.uleb128 0x1
 3591 0d78 50       		.byte	0x50
 3592 0d79 2A       		.uleb128 0x2a
 3593 0d7a 0E070000 		.4byte	0x70e
 3594 0d7e 34170000 		.4byte	.LLST51
 3595 0d82 2B       		.uleb128 0x2b
 3596 0d83 19070000 		.4byte	0x719
 3597 0d87 2C       		.uleb128 0x2c
 3598 0d88 24070000 		.4byte	0x724
 3599 0d8c 02       		.uleb128 0x2
 3600 0d8d 91       		.byte	0x91
 3601 0d8e 50       		.sleb128 -48
 3602 0d8f 31       		.uleb128 0x31
 3603 0d90 EA080000 		.4byte	.LVL168
 3604 0d94 650E0000 		.4byte	0xe65
 3605 0d98 30       		.uleb128 0x30
 3606 0d99 01       		.uleb128 0x1
 3607 0d9a 50       		.byte	0x50
 3608 0d9b 02       		.uleb128 0x2
ARM GAS  C:\Users\pearlstl\AppData\Local\Temp\ccuP9Sbb.s 			page 82


 3609 0d9c 91       		.byte	0x91
 3610 0d9d 50       		.sleb128 -48
 3611 0d9e 30       		.uleb128 0x30
 3612 0d9f 01       		.uleb128 0x1
 3613 0da0 51       		.byte	0x51
 3614 0da1 02       		.uleb128 0x2
 3615 0da2 78       		.byte	0x78
 3616 0da3 00       		.sleb128 0
 3617 0da4 00       		.byte	0
 3618 0da5 00       		.byte	0
 3619 0da6 00       		.byte	0
 3620 0da7 34       		.uleb128 0x34
 3621 0da8 34060000 		.4byte	0x634
 3622 0dac EE080000 		.4byte	.LBB126
 3623 0db0 84000000 		.4byte	.LBE126-.LBB126
 3624 0db4 01       		.byte	0x1
 3625 0db5 82       		.byte	0x82
 3626 0db6 26       		.uleb128 0x26
 3627 0db7 40060000 		.4byte	0x640
 3628 0dbb 52170000 		.4byte	.LLST52
 3629 0dbf 26       		.uleb128 0x26
 3630 0dc0 40060000 		.4byte	0x640
 3631 0dc4 52170000 		.4byte	.LLST52
 3632 0dc8 26       		.uleb128 0x26
 3633 0dc9 40060000 		.4byte	0x640
 3634 0dcd 52170000 		.4byte	.LLST52
 3635 0dd1 26       		.uleb128 0x26
 3636 0dd2 40060000 		.4byte	0x640
 3637 0dd6 52170000 		.4byte	.LLST52
 3638 0dda 26       		.uleb128 0x26
 3639 0ddb 56060000 		.4byte	0x656
 3640 0ddf 6A170000 		.4byte	.LLST56
 3641 0de3 26       		.uleb128 0x26
 3642 0de4 56060000 		.4byte	0x656
 3643 0de8 8B170000 		.4byte	.LLST57
 3644 0dec 26       		.uleb128 0x26
 3645 0ded 56060000 		.4byte	0x656
 3646 0df1 AC170000 		.4byte	.LLST58
 3647 0df5 26       		.uleb128 0x26
 3648 0df6 61060000 		.4byte	0x661
 3649 0dfa CD170000 		.4byte	.LLST59
 3650 0dfe 26       		.uleb128 0x26
 3651 0dff 4B060000 		.4byte	0x64b
 3652 0e03 E0170000 		.4byte	.LLST60
 3653 0e07 33       		.uleb128 0x33
 3654 0e08 EE080000 		.4byte	.LBB127
 3655 0e0c 84000000 		.4byte	.LBE127-.LBB127
 3656 0e10 2A       		.uleb128 0x2a
 3657 0e11 6C060000 		.4byte	0x66c
 3658 0e15 F3170000 		.4byte	.LLST61
 3659 0e19 2A       		.uleb128 0x2a
 3660 0e1a 77060000 		.4byte	0x677
 3661 0e1e 29180000 		.4byte	.LLST62
 3662 0e22 2A       		.uleb128 0x2a
 3663 0e23 82060000 		.4byte	0x682
 3664 0e27 61180000 		.4byte	.LLST63
 3665 0e2b 2A       		.uleb128 0x2a
ARM GAS  C:\Users\pearlstl\AppData\Local\Temp\ccuP9Sbb.s 			page 83


 3666 0e2c 8D060000 		.4byte	0x68d
 3667 0e30 8E180000 		.4byte	.LLST64
 3668 0e34 2B       		.uleb128 0x2b
 3669 0e35 98060000 		.4byte	0x698
 3670 0e39 2C       		.uleb128 0x2c
 3671 0e3a A3060000 		.4byte	0x6a3
 3672 0e3e 02       		.uleb128 0x2
 3673 0e3f 91       		.byte	0x91
 3674 0e40 50       		.sleb128 -48
 3675 0e41 31       		.uleb128 0x31
 3676 0e42 58090000 		.4byte	.LVL184
 3677 0e46 650E0000 		.4byte	0xe65
 3678 0e4a 30       		.uleb128 0x30
 3679 0e4b 01       		.uleb128 0x1
 3680 0e4c 50       		.byte	0x50
 3681 0e4d 02       		.uleb128 0x2
 3682 0e4e 91       		.byte	0x91
 3683 0e4f 50       		.sleb128 -48
 3684 0e50 30       		.uleb128 0x30
 3685 0e51 01       		.uleb128 0x1
 3686 0e52 51       		.byte	0x51
 3687 0e53 02       		.uleb128 0x2
 3688 0e54 78       		.byte	0x78
 3689 0e55 00       		.sleb128 0
 3690 0e56 00       		.byte	0
 3691 0e57 00       		.byte	0
 3692 0e58 00       		.byte	0
 3693 0e59 00       		.byte	0
 3694 0e5a 35       		.uleb128 0x35
 3695 0e5b 84000000 		.4byte	.LASF118
 3696 0e5f 84000000 		.4byte	.LASF118
 3697 0e63 09       		.byte	0x9
 3698 0e64 2B       		.byte	0x2b
 3699 0e65 35       		.uleb128 0x35
 3700 0e66 45050000 		.4byte	.LASF119
 3701 0e6a 45050000 		.4byte	.LASF119
 3702 0e6e 0A       		.byte	0xa
 3703 0e6f 2E       		.byte	0x2e
 3704 0e70 35       		.uleb128 0x35
 3705 0e71 20060000 		.4byte	.LASF120
 3706 0e75 20060000 		.4byte	.LASF120
 3707 0e79 0A       		.byte	0xa
 3708 0e7a 26       		.byte	0x26
 3709 0e7b 00       		.byte	0
 3710              		.section	.debug_abbrev,"",%progbits
 3711              	.Ldebug_abbrev0:
 3712 0000 01       		.uleb128 0x1
 3713 0001 11       		.uleb128 0x11
 3714 0002 01       		.byte	0x1
 3715 0003 25       		.uleb128 0x25
 3716 0004 0E       		.uleb128 0xe
 3717 0005 13       		.uleb128 0x13
 3718 0006 0B       		.uleb128 0xb
 3719 0007 03       		.uleb128 0x3
 3720 0008 0E       		.uleb128 0xe
 3721 0009 1B       		.uleb128 0x1b
 3722 000a 0E       		.uleb128 0xe
ARM GAS  C:\Users\pearlstl\AppData\Local\Temp\ccuP9Sbb.s 			page 84


 3723 000b 55       		.uleb128 0x55
 3724 000c 17       		.uleb128 0x17
 3725 000d 11       		.uleb128 0x11
 3726 000e 01       		.uleb128 0x1
 3727 000f 10       		.uleb128 0x10
 3728 0010 17       		.uleb128 0x17
 3729 0011 00       		.byte	0
 3730 0012 00       		.byte	0
 3731 0013 02       		.uleb128 0x2
 3732 0014 16       		.uleb128 0x16
 3733 0015 00       		.byte	0
 3734 0016 03       		.uleb128 0x3
 3735 0017 0E       		.uleb128 0xe
 3736 0018 3A       		.uleb128 0x3a
 3737 0019 0B       		.uleb128 0xb
 3738 001a 3B       		.uleb128 0x3b
 3739 001b 0B       		.uleb128 0xb
 3740 001c 49       		.uleb128 0x49
 3741 001d 13       		.uleb128 0x13
 3742 001e 00       		.byte	0
 3743 001f 00       		.byte	0
 3744 0020 03       		.uleb128 0x3
 3745 0021 24       		.uleb128 0x24
 3746 0022 00       		.byte	0
 3747 0023 0B       		.uleb128 0xb
 3748 0024 0B       		.uleb128 0xb
 3749 0025 3E       		.uleb128 0x3e
 3750 0026 0B       		.uleb128 0xb
 3751 0027 03       		.uleb128 0x3
 3752 0028 0E       		.uleb128 0xe
 3753 0029 00       		.byte	0
 3754 002a 00       		.byte	0
 3755 002b 04       		.uleb128 0x4
 3756 002c 24       		.uleb128 0x24
 3757 002d 00       		.byte	0
 3758 002e 0B       		.uleb128 0xb
 3759 002f 0B       		.uleb128 0xb
 3760 0030 3E       		.uleb128 0x3e
 3761 0031 0B       		.uleb128 0xb
 3762 0032 03       		.uleb128 0x3
 3763 0033 08       		.uleb128 0x8
 3764 0034 00       		.byte	0
 3765 0035 00       		.byte	0
 3766 0036 05       		.uleb128 0x5
 3767 0037 0F       		.uleb128 0xf
 3768 0038 00       		.byte	0
 3769 0039 0B       		.uleb128 0xb
 3770 003a 0B       		.uleb128 0xb
 3771 003b 00       		.byte	0
 3772 003c 00       		.byte	0
 3773 003d 06       		.uleb128 0x6
 3774 003e 13       		.uleb128 0x13
 3775 003f 01       		.byte	0x1
 3776 0040 0B       		.uleb128 0xb
 3777 0041 0B       		.uleb128 0xb
 3778 0042 3A       		.uleb128 0x3a
 3779 0043 0B       		.uleb128 0xb
ARM GAS  C:\Users\pearlstl\AppData\Local\Temp\ccuP9Sbb.s 			page 85


 3780 0044 3B       		.uleb128 0x3b
 3781 0045 0B       		.uleb128 0xb
 3782 0046 01       		.uleb128 0x1
 3783 0047 13       		.uleb128 0x13
 3784 0048 00       		.byte	0
 3785 0049 00       		.byte	0
 3786 004a 07       		.uleb128 0x7
 3787 004b 0D       		.uleb128 0xd
 3788 004c 00       		.byte	0
 3789 004d 03       		.uleb128 0x3
 3790 004e 0E       		.uleb128 0xe
 3791 004f 3A       		.uleb128 0x3a
 3792 0050 0B       		.uleb128 0xb
 3793 0051 3B       		.uleb128 0x3b
 3794 0052 0B       		.uleb128 0xb
 3795 0053 49       		.uleb128 0x49
 3796 0054 13       		.uleb128 0x13
 3797 0055 38       		.uleb128 0x38
 3798 0056 0B       		.uleb128 0xb
 3799 0057 00       		.byte	0
 3800 0058 00       		.byte	0
 3801 0059 08       		.uleb128 0x8
 3802 005a 0D       		.uleb128 0xd
 3803 005b 00       		.byte	0
 3804 005c 03       		.uleb128 0x3
 3805 005d 08       		.uleb128 0x8
 3806 005e 3A       		.uleb128 0x3a
 3807 005f 0B       		.uleb128 0xb
 3808 0060 3B       		.uleb128 0x3b
 3809 0061 0B       		.uleb128 0xb
 3810 0062 49       		.uleb128 0x49
 3811 0063 13       		.uleb128 0x13
 3812 0064 38       		.uleb128 0x38
 3813 0065 0B       		.uleb128 0xb
 3814 0066 00       		.byte	0
 3815 0067 00       		.byte	0
 3816 0068 09       		.uleb128 0x9
 3817 0069 13       		.uleb128 0x13
 3818 006a 01       		.byte	0x1
 3819 006b 03       		.uleb128 0x3
 3820 006c 0E       		.uleb128 0xe
 3821 006d 0B       		.uleb128 0xb
 3822 006e 0B       		.uleb128 0xb
 3823 006f 3A       		.uleb128 0x3a
 3824 0070 0B       		.uleb128 0xb
 3825 0071 3B       		.uleb128 0x3b
 3826 0072 0B       		.uleb128 0xb
 3827 0073 01       		.uleb128 0x1
 3828 0074 13       		.uleb128 0x13
 3829 0075 00       		.byte	0
 3830 0076 00       		.byte	0
 3831 0077 0A       		.uleb128 0xa
 3832 0078 0D       		.uleb128 0xd
 3833 0079 00       		.byte	0
 3834 007a 03       		.uleb128 0x3
 3835 007b 0E       		.uleb128 0xe
 3836 007c 3A       		.uleb128 0x3a
ARM GAS  C:\Users\pearlstl\AppData\Local\Temp\ccuP9Sbb.s 			page 86


 3837 007d 0B       		.uleb128 0xb
 3838 007e 3B       		.uleb128 0x3b
 3839 007f 0B       		.uleb128 0xb
 3840 0080 49       		.uleb128 0x49
 3841 0081 13       		.uleb128 0x13
 3842 0082 0B       		.uleb128 0xb
 3843 0083 0B       		.uleb128 0xb
 3844 0084 0D       		.uleb128 0xd
 3845 0085 0B       		.uleb128 0xb
 3846 0086 0C       		.uleb128 0xc
 3847 0087 0B       		.uleb128 0xb
 3848 0088 38       		.uleb128 0x38
 3849 0089 0B       		.uleb128 0xb
 3850 008a 00       		.byte	0
 3851 008b 00       		.byte	0
 3852 008c 0B       		.uleb128 0xb
 3853 008d 15       		.uleb128 0x15
 3854 008e 01       		.byte	0x1
 3855 008f 27       		.uleb128 0x27
 3856 0090 19       		.uleb128 0x19
 3857 0091 49       		.uleb128 0x49
 3858 0092 13       		.uleb128 0x13
 3859 0093 01       		.uleb128 0x1
 3860 0094 13       		.uleb128 0x13
 3861 0095 00       		.byte	0
 3862 0096 00       		.byte	0
 3863 0097 0C       		.uleb128 0xc
 3864 0098 05       		.uleb128 0x5
 3865 0099 00       		.byte	0
 3866 009a 49       		.uleb128 0x49
 3867 009b 13       		.uleb128 0x13
 3868 009c 00       		.byte	0
 3869 009d 00       		.byte	0
 3870 009e 0D       		.uleb128 0xd
 3871 009f 0F       		.uleb128 0xf
 3872 00a0 00       		.byte	0
 3873 00a1 0B       		.uleb128 0xb
 3874 00a2 0B       		.uleb128 0xb
 3875 00a3 49       		.uleb128 0x49
 3876 00a4 13       		.uleb128 0x13
 3877 00a5 00       		.byte	0
 3878 00a6 00       		.byte	0
 3879 00a7 0E       		.uleb128 0xe
 3880 00a8 26       		.uleb128 0x26
 3881 00a9 00       		.byte	0
 3882 00aa 49       		.uleb128 0x49
 3883 00ab 13       		.uleb128 0x13
 3884 00ac 00       		.byte	0
 3885 00ad 00       		.byte	0
 3886 00ae 0F       		.uleb128 0xf
 3887 00af 04       		.uleb128 0x4
 3888 00b0 01       		.byte	0x1
 3889 00b1 0B       		.uleb128 0xb
 3890 00b2 0B       		.uleb128 0xb
 3891 00b3 49       		.uleb128 0x49
 3892 00b4 13       		.uleb128 0x13
 3893 00b5 3A       		.uleb128 0x3a
ARM GAS  C:\Users\pearlstl\AppData\Local\Temp\ccuP9Sbb.s 			page 87


 3894 00b6 0B       		.uleb128 0xb
 3895 00b7 3B       		.uleb128 0x3b
 3896 00b8 0B       		.uleb128 0xb
 3897 00b9 01       		.uleb128 0x1
 3898 00ba 13       		.uleb128 0x13
 3899 00bb 00       		.byte	0
 3900 00bc 00       		.byte	0
 3901 00bd 10       		.uleb128 0x10
 3902 00be 28       		.uleb128 0x28
 3903 00bf 00       		.byte	0
 3904 00c0 03       		.uleb128 0x3
 3905 00c1 0E       		.uleb128 0xe
 3906 00c2 1C       		.uleb128 0x1c
 3907 00c3 0B       		.uleb128 0xb
 3908 00c4 00       		.byte	0
 3909 00c5 00       		.byte	0
 3910 00c6 11       		.uleb128 0x11
 3911 00c7 17       		.uleb128 0x17
 3912 00c8 01       		.byte	0x1
 3913 00c9 0B       		.uleb128 0xb
 3914 00ca 0B       		.uleb128 0xb
 3915 00cb 3A       		.uleb128 0x3a
 3916 00cc 0B       		.uleb128 0xb
 3917 00cd 3B       		.uleb128 0x3b
 3918 00ce 0B       		.uleb128 0xb
 3919 00cf 01       		.uleb128 0x1
 3920 00d0 13       		.uleb128 0x13
 3921 00d1 00       		.byte	0
 3922 00d2 00       		.byte	0
 3923 00d3 12       		.uleb128 0x12
 3924 00d4 0D       		.uleb128 0xd
 3925 00d5 00       		.byte	0
 3926 00d6 03       		.uleb128 0x3
 3927 00d7 08       		.uleb128 0x8
 3928 00d8 3A       		.uleb128 0x3a
 3929 00d9 0B       		.uleb128 0xb
 3930 00da 3B       		.uleb128 0x3b
 3931 00db 0B       		.uleb128 0xb
 3932 00dc 49       		.uleb128 0x49
 3933 00dd 13       		.uleb128 0x13
 3934 00de 00       		.byte	0
 3935 00df 00       		.byte	0
 3936 00e0 13       		.uleb128 0x13
 3937 00e1 0D       		.uleb128 0xd
 3938 00e2 00       		.byte	0
 3939 00e3 03       		.uleb128 0x3
 3940 00e4 0E       		.uleb128 0xe
 3941 00e5 3A       		.uleb128 0x3a
 3942 00e6 0B       		.uleb128 0xb
 3943 00e7 3B       		.uleb128 0x3b
 3944 00e8 0B       		.uleb128 0xb
 3945 00e9 49       		.uleb128 0x49
 3946 00ea 13       		.uleb128 0x13
 3947 00eb 00       		.byte	0
 3948 00ec 00       		.byte	0
 3949 00ed 14       		.uleb128 0x14
 3950 00ee 16       		.uleb128 0x16
ARM GAS  C:\Users\pearlstl\AppData\Local\Temp\ccuP9Sbb.s 			page 88


 3951 00ef 00       		.byte	0
 3952 00f0 03       		.uleb128 0x3
 3953 00f1 0E       		.uleb128 0xe
 3954 00f2 3A       		.uleb128 0x3a
 3955 00f3 0B       		.uleb128 0xb
 3956 00f4 3B       		.uleb128 0x3b
 3957 00f5 05       		.uleb128 0x5
 3958 00f6 49       		.uleb128 0x49
 3959 00f7 13       		.uleb128 0x13
 3960 00f8 00       		.byte	0
 3961 00f9 00       		.byte	0
 3962 00fa 15       		.uleb128 0x15
 3963 00fb 2E       		.uleb128 0x2e
 3964 00fc 01       		.byte	0x1
 3965 00fd 03       		.uleb128 0x3
 3966 00fe 0E       		.uleb128 0xe
 3967 00ff 3A       		.uleb128 0x3a
 3968 0100 0B       		.uleb128 0xb
 3969 0101 3B       		.uleb128 0x3b
 3970 0102 0B       		.uleb128 0xb
 3971 0103 27       		.uleb128 0x27
 3972 0104 19       		.uleb128 0x19
 3973 0105 20       		.uleb128 0x20
 3974 0106 0B       		.uleb128 0xb
 3975 0107 01       		.uleb128 0x1
 3976 0108 13       		.uleb128 0x13
 3977 0109 00       		.byte	0
 3978 010a 00       		.byte	0
 3979 010b 16       		.uleb128 0x16
 3980 010c 05       		.uleb128 0x5
 3981 010d 00       		.byte	0
 3982 010e 03       		.uleb128 0x3
 3983 010f 0E       		.uleb128 0xe
 3984 0110 3A       		.uleb128 0x3a
 3985 0111 0B       		.uleb128 0xb
 3986 0112 3B       		.uleb128 0x3b
 3987 0113 0B       		.uleb128 0xb
 3988 0114 49       		.uleb128 0x49
 3989 0115 13       		.uleb128 0x13
 3990 0116 00       		.byte	0
 3991 0117 00       		.byte	0
 3992 0118 17       		.uleb128 0x17
 3993 0119 34       		.uleb128 0x34
 3994 011a 00       		.byte	0
 3995 011b 03       		.uleb128 0x3
 3996 011c 0E       		.uleb128 0xe
 3997 011d 3A       		.uleb128 0x3a
 3998 011e 0B       		.uleb128 0xb
 3999 011f 3B       		.uleb128 0x3b
 4000 0120 0B       		.uleb128 0xb
 4001 0121 49       		.uleb128 0x49
 4002 0122 13       		.uleb128 0x13
 4003 0123 00       		.byte	0
 4004 0124 00       		.byte	0
 4005 0125 18       		.uleb128 0x18
 4006 0126 34       		.uleb128 0x34
 4007 0127 00       		.byte	0
ARM GAS  C:\Users\pearlstl\AppData\Local\Temp\ccuP9Sbb.s 			page 89


 4008 0128 03       		.uleb128 0x3
 4009 0129 08       		.uleb128 0x8
 4010 012a 3A       		.uleb128 0x3a
 4011 012b 0B       		.uleb128 0xb
 4012 012c 3B       		.uleb128 0x3b
 4013 012d 0B       		.uleb128 0xb
 4014 012e 49       		.uleb128 0x49
 4015 012f 13       		.uleb128 0x13
 4016 0130 00       		.byte	0
 4017 0131 00       		.byte	0
 4018 0132 19       		.uleb128 0x19
 4019 0133 2E       		.uleb128 0x2e
 4020 0134 01       		.byte	0x1
 4021 0135 03       		.uleb128 0x3
 4022 0136 0E       		.uleb128 0xe
 4023 0137 3A       		.uleb128 0x3a
 4024 0138 0B       		.uleb128 0xb
 4025 0139 3B       		.uleb128 0x3b
 4026 013a 05       		.uleb128 0x5
 4027 013b 27       		.uleb128 0x27
 4028 013c 19       		.uleb128 0x19
 4029 013d 49       		.uleb128 0x49
 4030 013e 13       		.uleb128 0x13
 4031 013f 20       		.uleb128 0x20
 4032 0140 0B       		.uleb128 0xb
 4033 0141 01       		.uleb128 0x1
 4034 0142 13       		.uleb128 0x13
 4035 0143 00       		.byte	0
 4036 0144 00       		.byte	0
 4037 0145 1A       		.uleb128 0x1a
 4038 0146 05       		.uleb128 0x5
 4039 0147 00       		.byte	0
 4040 0148 03       		.uleb128 0x3
 4041 0149 0E       		.uleb128 0xe
 4042 014a 3A       		.uleb128 0x3a
 4043 014b 0B       		.uleb128 0xb
 4044 014c 3B       		.uleb128 0x3b
 4045 014d 05       		.uleb128 0x5
 4046 014e 49       		.uleb128 0x49
 4047 014f 13       		.uleb128 0x13
 4048 0150 00       		.byte	0
 4049 0151 00       		.byte	0
 4050 0152 1B       		.uleb128 0x1b
 4051 0153 34       		.uleb128 0x34
 4052 0154 00       		.byte	0
 4053 0155 03       		.uleb128 0x3
 4054 0156 0E       		.uleb128 0xe
 4055 0157 3A       		.uleb128 0x3a
 4056 0158 0B       		.uleb128 0xb
 4057 0159 3B       		.uleb128 0x3b
 4058 015a 05       		.uleb128 0x5
 4059 015b 49       		.uleb128 0x49
 4060 015c 13       		.uleb128 0x13
 4061 015d 00       		.byte	0
 4062 015e 00       		.byte	0
 4063 015f 1C       		.uleb128 0x1c
 4064 0160 34       		.uleb128 0x34
ARM GAS  C:\Users\pearlstl\AppData\Local\Temp\ccuP9Sbb.s 			page 90


 4065 0161 00       		.byte	0
 4066 0162 03       		.uleb128 0x3
 4067 0163 08       		.uleb128 0x8
 4068 0164 3A       		.uleb128 0x3a
 4069 0165 0B       		.uleb128 0xb
 4070 0166 3B       		.uleb128 0x3b
 4071 0167 05       		.uleb128 0x5
 4072 0168 49       		.uleb128 0x49
 4073 0169 13       		.uleb128 0x13
 4074 016a 00       		.byte	0
 4075 016b 00       		.byte	0
 4076 016c 1D       		.uleb128 0x1d
 4077 016d 0B       		.uleb128 0xb
 4078 016e 01       		.byte	0x1
 4079 016f 00       		.byte	0
 4080 0170 00       		.byte	0
 4081 0171 1E       		.uleb128 0x1e
 4082 0172 35       		.uleb128 0x35
 4083 0173 00       		.byte	0
 4084 0174 49       		.uleb128 0x49
 4085 0175 13       		.uleb128 0x13
 4086 0176 00       		.byte	0
 4087 0177 00       		.byte	0
 4088 0178 1F       		.uleb128 0x1f
 4089 0179 2E       		.uleb128 0x2e
 4090 017a 01       		.byte	0x1
 4091 017b 03       		.uleb128 0x3
 4092 017c 0E       		.uleb128 0xe
 4093 017d 3A       		.uleb128 0x3a
 4094 017e 0B       		.uleb128 0xb
 4095 017f 3B       		.uleb128 0x3b
 4096 0180 05       		.uleb128 0x5
 4097 0181 27       		.uleb128 0x27
 4098 0182 19       		.uleb128 0x19
 4099 0183 20       		.uleb128 0x20
 4100 0184 0B       		.uleb128 0xb
 4101 0185 01       		.uleb128 0x1
 4102 0186 13       		.uleb128 0x13
 4103 0187 00       		.byte	0
 4104 0188 00       		.byte	0
 4105 0189 20       		.uleb128 0x20
 4106 018a 05       		.uleb128 0x5
 4107 018b 00       		.byte	0
 4108 018c 03       		.uleb128 0x3
 4109 018d 08       		.uleb128 0x8
 4110 018e 3A       		.uleb128 0x3a
 4111 018f 0B       		.uleb128 0xb
 4112 0190 3B       		.uleb128 0x3b
 4113 0191 05       		.uleb128 0x5
 4114 0192 49       		.uleb128 0x49
 4115 0193 13       		.uleb128 0x13
 4116 0194 00       		.byte	0
 4117 0195 00       		.byte	0
 4118 0196 21       		.uleb128 0x21
 4119 0197 2E       		.uleb128 0x2e
 4120 0198 01       		.byte	0x1
 4121 0199 3F       		.uleb128 0x3f
ARM GAS  C:\Users\pearlstl\AppData\Local\Temp\ccuP9Sbb.s 			page 91


 4122 019a 19       		.uleb128 0x19
 4123 019b 03       		.uleb128 0x3
 4124 019c 0E       		.uleb128 0xe
 4125 019d 3A       		.uleb128 0x3a
 4126 019e 0B       		.uleb128 0xb
 4127 019f 3B       		.uleb128 0x3b
 4128 01a0 0B       		.uleb128 0xb
 4129 01a1 27       		.uleb128 0x27
 4130 01a2 19       		.uleb128 0x19
 4131 01a3 11       		.uleb128 0x11
 4132 01a4 01       		.uleb128 0x1
 4133 01a5 12       		.uleb128 0x12
 4134 01a6 06       		.uleb128 0x6
 4135 01a7 40       		.uleb128 0x40
 4136 01a8 18       		.uleb128 0x18
 4137 01a9 9742     		.uleb128 0x2117
 4138 01ab 19       		.uleb128 0x19
 4139 01ac 01       		.uleb128 0x1
 4140 01ad 13       		.uleb128 0x13
 4141 01ae 00       		.byte	0
 4142 01af 00       		.byte	0
 4143 01b0 22       		.uleb128 0x22
 4144 01b1 05       		.uleb128 0x5
 4145 01b2 00       		.byte	0
 4146 01b3 03       		.uleb128 0x3
 4147 01b4 0E       		.uleb128 0xe
 4148 01b5 3A       		.uleb128 0x3a
 4149 01b6 0B       		.uleb128 0xb
 4150 01b7 3B       		.uleb128 0x3b
 4151 01b8 0B       		.uleb128 0xb
 4152 01b9 49       		.uleb128 0x49
 4153 01ba 13       		.uleb128 0x13
 4154 01bb 02       		.uleb128 0x2
 4155 01bc 17       		.uleb128 0x17
 4156 01bd 00       		.byte	0
 4157 01be 00       		.byte	0
 4158 01bf 23       		.uleb128 0x23
 4159 01c0 34       		.uleb128 0x34
 4160 01c1 00       		.byte	0
 4161 01c2 03       		.uleb128 0x3
 4162 01c3 0E       		.uleb128 0xe
 4163 01c4 3A       		.uleb128 0x3a
 4164 01c5 0B       		.uleb128 0xb
 4165 01c6 3B       		.uleb128 0x3b
 4166 01c7 0B       		.uleb128 0xb
 4167 01c8 49       		.uleb128 0x49
 4168 01c9 13       		.uleb128 0x13
 4169 01ca 02       		.uleb128 0x2
 4170 01cb 17       		.uleb128 0x17
 4171 01cc 00       		.byte	0
 4172 01cd 00       		.byte	0
 4173 01ce 24       		.uleb128 0x24
 4174 01cf 34       		.uleb128 0x34
 4175 01d0 00       		.byte	0
 4176 01d1 03       		.uleb128 0x3
 4177 01d2 08       		.uleb128 0x8
 4178 01d3 3A       		.uleb128 0x3a
ARM GAS  C:\Users\pearlstl\AppData\Local\Temp\ccuP9Sbb.s 			page 92


 4179 01d4 0B       		.uleb128 0xb
 4180 01d5 3B       		.uleb128 0x3b
 4181 01d6 0B       		.uleb128 0xb
 4182 01d7 49       		.uleb128 0x49
 4183 01d8 13       		.uleb128 0x13
 4184 01d9 02       		.uleb128 0x2
 4185 01da 17       		.uleb128 0x17
 4186 01db 00       		.byte	0
 4187 01dc 00       		.byte	0
 4188 01dd 25       		.uleb128 0x25
 4189 01de 1D       		.uleb128 0x1d
 4190 01df 01       		.byte	0x1
 4191 01e0 31       		.uleb128 0x31
 4192 01e1 13       		.uleb128 0x13
 4193 01e2 52       		.uleb128 0x52
 4194 01e3 01       		.uleb128 0x1
 4195 01e4 55       		.uleb128 0x55
 4196 01e5 17       		.uleb128 0x17
 4197 01e6 58       		.uleb128 0x58
 4198 01e7 0B       		.uleb128 0xb
 4199 01e8 59       		.uleb128 0x59
 4200 01e9 0B       		.uleb128 0xb
 4201 01ea 01       		.uleb128 0x1
 4202 01eb 13       		.uleb128 0x13
 4203 01ec 00       		.byte	0
 4204 01ed 00       		.byte	0
 4205 01ee 26       		.uleb128 0x26
 4206 01ef 05       		.uleb128 0x5
 4207 01f0 00       		.byte	0
 4208 01f1 31       		.uleb128 0x31
 4209 01f2 13       		.uleb128 0x13
 4210 01f3 02       		.uleb128 0x2
 4211 01f4 17       		.uleb128 0x17
 4212 01f5 00       		.byte	0
 4213 01f6 00       		.byte	0
 4214 01f7 27       		.uleb128 0x27
 4215 01f8 0B       		.uleb128 0xb
 4216 01f9 01       		.byte	0x1
 4217 01fa 55       		.uleb128 0x55
 4218 01fb 17       		.uleb128 0x17
 4219 01fc 01       		.uleb128 0x1
 4220 01fd 13       		.uleb128 0x13
 4221 01fe 00       		.byte	0
 4222 01ff 00       		.byte	0
 4223 0200 28       		.uleb128 0x28
 4224 0201 1D       		.uleb128 0x1d
 4225 0202 01       		.byte	0x1
 4226 0203 31       		.uleb128 0x31
 4227 0204 13       		.uleb128 0x13
 4228 0205 52       		.uleb128 0x52
 4229 0206 01       		.uleb128 0x1
 4230 0207 55       		.uleb128 0x55
 4231 0208 17       		.uleb128 0x17
 4232 0209 58       		.uleb128 0x58
 4233 020a 0B       		.uleb128 0xb
 4234 020b 59       		.uleb128 0x59
 4235 020c 0B       		.uleb128 0xb
ARM GAS  C:\Users\pearlstl\AppData\Local\Temp\ccuP9Sbb.s 			page 93


 4236 020d 00       		.byte	0
 4237 020e 00       		.byte	0
 4238 020f 29       		.uleb128 0x29
 4239 0210 0B       		.uleb128 0xb
 4240 0211 01       		.byte	0x1
 4241 0212 55       		.uleb128 0x55
 4242 0213 17       		.uleb128 0x17
 4243 0214 00       		.byte	0
 4244 0215 00       		.byte	0
 4245 0216 2A       		.uleb128 0x2a
 4246 0217 34       		.uleb128 0x34
 4247 0218 00       		.byte	0
 4248 0219 31       		.uleb128 0x31
 4249 021a 13       		.uleb128 0x13
 4250 021b 02       		.uleb128 0x2
 4251 021c 17       		.uleb128 0x17
 4252 021d 00       		.byte	0
 4253 021e 00       		.byte	0
 4254 021f 2B       		.uleb128 0x2b
 4255 0220 34       		.uleb128 0x34
 4256 0221 00       		.byte	0
 4257 0222 31       		.uleb128 0x31
 4258 0223 13       		.uleb128 0x13
 4259 0224 00       		.byte	0
 4260 0225 00       		.byte	0
 4261 0226 2C       		.uleb128 0x2c
 4262 0227 34       		.uleb128 0x34
 4263 0228 00       		.byte	0
 4264 0229 31       		.uleb128 0x31
 4265 022a 13       		.uleb128 0x13
 4266 022b 02       		.uleb128 0x2
 4267 022c 18       		.uleb128 0x18
 4268 022d 00       		.byte	0
 4269 022e 00       		.byte	0
 4270 022f 2D       		.uleb128 0x2d
 4271 0230 1D       		.uleb128 0x1d
 4272 0231 01       		.byte	0x1
 4273 0232 31       		.uleb128 0x31
 4274 0233 13       		.uleb128 0x13
 4275 0234 52       		.uleb128 0x52
 4276 0235 01       		.uleb128 0x1
 4277 0236 55       		.uleb128 0x55
 4278 0237 17       		.uleb128 0x17
 4279 0238 58       		.uleb128 0x58
 4280 0239 0B       		.uleb128 0xb
 4281 023a 59       		.uleb128 0x59
 4282 023b 05       		.uleb128 0x5
 4283 023c 01       		.uleb128 0x1
 4284 023d 13       		.uleb128 0x13
 4285 023e 00       		.byte	0
 4286 023f 00       		.byte	0
 4287 0240 2E       		.uleb128 0x2e
 4288 0241 1D       		.uleb128 0x1d
 4289 0242 01       		.byte	0x1
 4290 0243 31       		.uleb128 0x31
 4291 0244 13       		.uleb128 0x13
 4292 0245 52       		.uleb128 0x52
ARM GAS  C:\Users\pearlstl\AppData\Local\Temp\ccuP9Sbb.s 			page 94


 4293 0246 01       		.uleb128 0x1
 4294 0247 55       		.uleb128 0x55
 4295 0248 17       		.uleb128 0x17
 4296 0249 58       		.uleb128 0x58
 4297 024a 0B       		.uleb128 0xb
 4298 024b 59       		.uleb128 0x59
 4299 024c 05       		.uleb128 0x5
 4300 024d 00       		.byte	0
 4301 024e 00       		.byte	0
 4302 024f 2F       		.uleb128 0x2f
 4303 0250 898201   		.uleb128 0x4109
 4304 0253 01       		.byte	0x1
 4305 0254 11       		.uleb128 0x11
 4306 0255 01       		.uleb128 0x1
 4307 0256 31       		.uleb128 0x31
 4308 0257 13       		.uleb128 0x13
 4309 0258 01       		.uleb128 0x1
 4310 0259 13       		.uleb128 0x13
 4311 025a 00       		.byte	0
 4312 025b 00       		.byte	0
 4313 025c 30       		.uleb128 0x30
 4314 025d 8A8201   		.uleb128 0x410a
 4315 0260 00       		.byte	0
 4316 0261 02       		.uleb128 0x2
 4317 0262 18       		.uleb128 0x18
 4318 0263 9142     		.uleb128 0x2111
 4319 0265 18       		.uleb128 0x18
 4320 0266 00       		.byte	0
 4321 0267 00       		.byte	0
 4322 0268 31       		.uleb128 0x31
 4323 0269 898201   		.uleb128 0x4109
 4324 026c 01       		.byte	0x1
 4325 026d 11       		.uleb128 0x11
 4326 026e 01       		.uleb128 0x1
 4327 026f 31       		.uleb128 0x31
 4328 0270 13       		.uleb128 0x13
 4329 0271 00       		.byte	0
 4330 0272 00       		.byte	0
 4331 0273 32       		.uleb128 0x32
 4332 0274 1D       		.uleb128 0x1d
 4333 0275 01       		.byte	0x1
 4334 0276 31       		.uleb128 0x31
 4335 0277 13       		.uleb128 0x13
 4336 0278 11       		.uleb128 0x11
 4337 0279 01       		.uleb128 0x1
 4338 027a 12       		.uleb128 0x12
 4339 027b 06       		.uleb128 0x6
 4340 027c 58       		.uleb128 0x58
 4341 027d 0B       		.uleb128 0xb
 4342 027e 59       		.uleb128 0x59
 4343 027f 0B       		.uleb128 0xb
 4344 0280 01       		.uleb128 0x1
 4345 0281 13       		.uleb128 0x13
 4346 0282 00       		.byte	0
 4347 0283 00       		.byte	0
 4348 0284 33       		.uleb128 0x33
 4349 0285 0B       		.uleb128 0xb
ARM GAS  C:\Users\pearlstl\AppData\Local\Temp\ccuP9Sbb.s 			page 95


 4350 0286 01       		.byte	0x1
 4351 0287 11       		.uleb128 0x11
 4352 0288 01       		.uleb128 0x1
 4353 0289 12       		.uleb128 0x12
 4354 028a 06       		.uleb128 0x6
 4355 028b 00       		.byte	0
 4356 028c 00       		.byte	0
 4357 028d 34       		.uleb128 0x34
 4358 028e 1D       		.uleb128 0x1d
 4359 028f 01       		.byte	0x1
 4360 0290 31       		.uleb128 0x31
 4361 0291 13       		.uleb128 0x13
 4362 0292 11       		.uleb128 0x11
 4363 0293 01       		.uleb128 0x1
 4364 0294 12       		.uleb128 0x12
 4365 0295 06       		.uleb128 0x6
 4366 0296 58       		.uleb128 0x58
 4367 0297 0B       		.uleb128 0xb
 4368 0298 59       		.uleb128 0x59
 4369 0299 0B       		.uleb128 0xb
 4370 029a 00       		.byte	0
 4371 029b 00       		.byte	0
 4372 029c 35       		.uleb128 0x35
 4373 029d 2E       		.uleb128 0x2e
 4374 029e 00       		.byte	0
 4375 029f 3F       		.uleb128 0x3f
 4376 02a0 19       		.uleb128 0x19
 4377 02a1 3C       		.uleb128 0x3c
 4378 02a2 19       		.uleb128 0x19
 4379 02a3 6E       		.uleb128 0x6e
 4380 02a4 0E       		.uleb128 0xe
 4381 02a5 03       		.uleb128 0x3
 4382 02a6 0E       		.uleb128 0xe
 4383 02a7 3A       		.uleb128 0x3a
 4384 02a8 0B       		.uleb128 0xb
 4385 02a9 3B       		.uleb128 0x3b
 4386 02aa 0B       		.uleb128 0xb
 4387 02ab 00       		.byte	0
 4388 02ac 00       		.byte	0
 4389 02ad 00       		.byte	0
 4390              		.section	.debug_loc,"",%progbits
 4391              	.Ldebug_loc0:
 4392              	.LLST0:
 4393 0000 00000000 		.4byte	.LVL0
 4394 0004 30000000 		.4byte	.LVL1
 4395 0008 0100     		.2byte	0x1
 4396 000a 50       		.byte	0x50
 4397 000b 30000000 		.4byte	.LVL1
 4398 000f 36000000 		.4byte	.LVL2
 4399 0013 0400     		.2byte	0x4
 4400 0015 F3       		.byte	0xf3
 4401 0016 01       		.uleb128 0x1
 4402 0017 50       		.byte	0x50
 4403 0018 9F       		.byte	0x9f
 4404 0019 36000000 		.4byte	.LVL2
 4405 001d 48000000 		.4byte	.LVL3
 4406 0021 0100     		.2byte	0x1
ARM GAS  C:\Users\pearlstl\AppData\Local\Temp\ccuP9Sbb.s 			page 96


 4407 0023 50       		.byte	0x50
 4408 0024 48000000 		.4byte	.LVL3
 4409 0028 2E020000 		.4byte	.LVL49
 4410 002c 0400     		.2byte	0x4
 4411 002e F3       		.byte	0xf3
 4412 002f 01       		.uleb128 0x1
 4413 0030 50       		.byte	0x50
 4414 0031 9F       		.byte	0x9f
 4415 0032 2E020000 		.4byte	.LVL49
 4416 0036 3E020000 		.4byte	.LVL50
 4417 003a 0100     		.2byte	0x1
 4418 003c 50       		.byte	0x50
 4419 003d 3E020000 		.4byte	.LVL50
 4420 0041 0A0A0000 		.4byte	.LFE32
 4421 0045 0400     		.2byte	0x4
 4422 0047 F3       		.byte	0xf3
 4423 0048 01       		.uleb128 0x1
 4424 0049 50       		.byte	0x50
 4425 004a 9F       		.byte	0x9f
 4426 004b 00000000 		.4byte	0
 4427 004f 00000000 		.4byte	0
 4428              	.LLST1:
 4429 0053 00000000 		.4byte	.LVL0
 4430 0057 30000000 		.4byte	.LVL1
 4431 005b 0100     		.2byte	0x1
 4432 005d 51       		.byte	0x51
 4433 005e 30000000 		.4byte	.LVL1
 4434 0062 36000000 		.4byte	.LVL2
 4435 0066 0400     		.2byte	0x4
 4436 0068 F3       		.byte	0xf3
 4437 0069 01       		.uleb128 0x1
 4438 006a 51       		.byte	0x51
 4439 006b 9F       		.byte	0x9f
 4440 006c 36000000 		.4byte	.LVL2
 4441 0070 58000000 		.4byte	.LVL4
 4442 0074 0100     		.2byte	0x1
 4443 0076 51       		.byte	0x51
 4444 0077 58000000 		.4byte	.LVL4
 4445 007b 2E020000 		.4byte	.LVL49
 4446 007f 0400     		.2byte	0x4
 4447 0081 F3       		.byte	0xf3
 4448 0082 01       		.uleb128 0x1
 4449 0083 51       		.byte	0x51
 4450 0084 9F       		.byte	0x9f
 4451 0085 2E020000 		.4byte	.LVL49
 4452 0089 3E020000 		.4byte	.LVL50
 4453 008d 0100     		.2byte	0x1
 4454 008f 51       		.byte	0x51
 4455 0090 3E020000 		.4byte	.LVL50
 4456 0094 0A0A0000 		.4byte	.LFE32
 4457 0098 0400     		.2byte	0x4
 4458 009a F3       		.byte	0xf3
 4459 009b 01       		.uleb128 0x1
 4460 009c 51       		.byte	0x51
 4461 009d 9F       		.byte	0x9f
 4462 009e 00000000 		.4byte	0
 4463 00a2 00000000 		.4byte	0
ARM GAS  C:\Users\pearlstl\AppData\Local\Temp\ccuP9Sbb.s 			page 97


 4464              	.LLST2:
 4465 00a6 00000000 		.4byte	.LVL0
 4466 00aa 30000000 		.4byte	.LVL1
 4467 00ae 0100     		.2byte	0x1
 4468 00b0 52       		.byte	0x52
 4469 00b1 30000000 		.4byte	.LVL1
 4470 00b5 36000000 		.4byte	.LVL2
 4471 00b9 0400     		.2byte	0x4
 4472 00bb F3       		.byte	0xf3
 4473 00bc 01       		.uleb128 0x1
 4474 00bd 52       		.byte	0x52
 4475 00be 9F       		.byte	0x9f
 4476 00bf 36000000 		.4byte	.LVL2
 4477 00c3 D0000000 		.4byte	.LVL10
 4478 00c7 0100     		.2byte	0x1
 4479 00c9 52       		.byte	0x52
 4480 00ca D0000000 		.4byte	.LVL10
 4481 00ce DC010000 		.4byte	.LVL37
 4482 00d2 0100     		.2byte	0x1
 4483 00d4 58       		.byte	0x58
 4484 00d5 DC010000 		.4byte	.LVL37
 4485 00d9 2E020000 		.4byte	.LVL49
 4486 00dd 0300     		.2byte	0x3
 4487 00df 91       		.byte	0x91
 4488 00e0 B07F     		.sleb128 -80
 4489 00e2 2E020000 		.4byte	.LVL49
 4490 00e6 94020000 		.4byte	.LVL57
 4491 00ea 0100     		.2byte	0x1
 4492 00ec 52       		.byte	0x52
 4493 00ed 94020000 		.4byte	.LVL57
 4494 00f1 A2020000 		.4byte	.LVL59
 4495 00f5 0100     		.2byte	0x1
 4496 00f7 58       		.byte	0x58
 4497 00f8 A2020000 		.4byte	.LVL59
 4498 00fc CA020000 		.4byte	.LVL61
 4499 0100 0100     		.2byte	0x1
 4500 0102 52       		.byte	0x52
 4501 0103 CA020000 		.4byte	.LVL61
 4502 0107 D4020000 		.4byte	.LVL63
 4503 010b 0300     		.2byte	0x3
 4504 010d 91       		.byte	0x91
 4505 010e B07F     		.sleb128 -80
 4506 0110 D4020000 		.4byte	.LVL63
 4507 0114 80080000 		.4byte	.LVL162
 4508 0118 0400     		.2byte	0x4
 4509 011a F3       		.byte	0xf3
 4510 011b 01       		.uleb128 0x1
 4511 011c 52       		.byte	0x52
 4512 011d 9F       		.byte	0x9f
 4513 011e 80080000 		.4byte	.LVL162
 4514 0122 5C090000 		.4byte	.LVL185
 4515 0126 0100     		.2byte	0x1
 4516 0128 58       		.byte	0x58
 4517 0129 5C090000 		.4byte	.LVL185
 4518 012d 72090000 		.4byte	.LVL186
 4519 0131 0300     		.2byte	0x3
 4520 0133 91       		.byte	0x91
ARM GAS  C:\Users\pearlstl\AppData\Local\Temp\ccuP9Sbb.s 			page 98


 4521 0134 B07F     		.sleb128 -80
 4522 0136 72090000 		.4byte	.LVL186
 4523 013a CA090000 		.4byte	.LVL192
 4524 013e 0400     		.2byte	0x4
 4525 0140 F3       		.byte	0xf3
 4526 0141 01       		.uleb128 0x1
 4527 0142 52       		.byte	0x52
 4528 0143 9F       		.byte	0x9f
 4529 0144 CA090000 		.4byte	.LVL192
 4530 0148 EA090000 		.4byte	.LVL193
 4531 014c 0300     		.2byte	0x3
 4532 014e 91       		.byte	0x91
 4533 014f B07F     		.sleb128 -80
 4534 0151 EA090000 		.4byte	.LVL193
 4535 0155 000A0000 		.4byte	.LVL198
 4536 0159 0100     		.2byte	0x1
 4537 015b 52       		.byte	0x52
 4538 015c 000A0000 		.4byte	.LVL198
 4539 0160 0A0A0000 		.4byte	.LFE32
 4540 0164 0100     		.2byte	0x1
 4541 0166 58       		.byte	0x58
 4542 0167 00000000 		.4byte	0
 4543 016b 00000000 		.4byte	0
 4544              	.LLST3:
 4545 016f 00000000 		.4byte	.LVL0
 4546 0173 30000000 		.4byte	.LVL1
 4547 0177 0100     		.2byte	0x1
 4548 0179 53       		.byte	0x53
 4549 017a 30000000 		.4byte	.LVL1
 4550 017e 36000000 		.4byte	.LVL2
 4551 0182 0400     		.2byte	0x4
 4552 0184 F3       		.byte	0xf3
 4553 0185 01       		.uleb128 0x1
 4554 0186 53       		.byte	0x53
 4555 0187 9F       		.byte	0x9f
 4556 0188 36000000 		.4byte	.LVL2
 4557 018c EA000000 		.4byte	.LVL12
 4558 0190 0100     		.2byte	0x1
 4559 0192 53       		.byte	0x53
 4560 0193 EA000000 		.4byte	.LVL12
 4561 0197 00010000 		.4byte	.LVL16
 4562 019b 0400     		.2byte	0x4
 4563 019d 72       		.byte	0x72
 4564 019e B87F     		.sleb128 -72
 4565 01a0 9F       		.byte	0x9f
 4566 01a1 00010000 		.4byte	.LVL16
 4567 01a5 2E020000 		.4byte	.LVL49
 4568 01a9 0800     		.2byte	0x8
 4569 01ab 91       		.byte	0x91
 4570 01ac 987F     		.sleb128 -104
 4571 01ae 06       		.byte	0x6
 4572 01af 08       		.byte	0x8
 4573 01b0 48       		.byte	0x48
 4574 01b1 1C       		.byte	0x1c
 4575 01b2 9F       		.byte	0x9f
 4576 01b3 2E020000 		.4byte	.LVL49
 4577 01b7 94020000 		.4byte	.LVL57
ARM GAS  C:\Users\pearlstl\AppData\Local\Temp\ccuP9Sbb.s 			page 99


 4578 01bb 0100     		.2byte	0x1
 4579 01bd 53       		.byte	0x53
 4580 01be 94020000 		.4byte	.LVL57
 4581 01c2 A2020000 		.4byte	.LVL59
 4582 01c6 0800     		.2byte	0x8
 4583 01c8 91       		.byte	0x91
 4584 01c9 987F     		.sleb128 -104
 4585 01cb 06       		.byte	0x6
 4586 01cc 08       		.byte	0x8
 4587 01cd 48       		.byte	0x48
 4588 01ce 1C       		.byte	0x1c
 4589 01cf 9F       		.byte	0x9f
 4590 01d0 A2020000 		.4byte	.LVL59
 4591 01d4 CA020000 		.4byte	.LVL61
 4592 01d8 0100     		.2byte	0x1
 4593 01da 53       		.byte	0x53
 4594 01db CA020000 		.4byte	.LVL61
 4595 01df 80080000 		.4byte	.LVL162
 4596 01e3 0800     		.2byte	0x8
 4597 01e5 91       		.byte	0x91
 4598 01e6 987F     		.sleb128 -104
 4599 01e8 06       		.byte	0x6
 4600 01e9 08       		.byte	0x8
 4601 01ea 48       		.byte	0x48
 4602 01eb 1C       		.byte	0x1c
 4603 01ec 9F       		.byte	0x9f
 4604 01ed 80080000 		.4byte	.LVL162
 4605 01f1 CA080000 		.4byte	.LVL165
 4606 01f5 0100     		.2byte	0x1
 4607 01f7 53       		.byte	0x53
 4608 01f8 CA080000 		.4byte	.LVL165
 4609 01fc EE080000 		.4byte	.LVL169
 4610 0200 0400     		.2byte	0x4
 4611 0202 F3       		.byte	0xf3
 4612 0203 01       		.uleb128 0x1
 4613 0204 53       		.byte	0x53
 4614 0205 9F       		.byte	0x9f
 4615 0206 EE080000 		.4byte	.LVL169
 4616 020a 06090000 		.4byte	.LVL173
 4617 020e 0100     		.2byte	0x1
 4618 0210 53       		.byte	0x53
 4619 0211 06090000 		.4byte	.LVL173
 4620 0215 5C090000 		.4byte	.LVL185
 4621 0219 0400     		.2byte	0x4
 4622 021b F3       		.byte	0xf3
 4623 021c 01       		.uleb128 0x1
 4624 021d 53       		.byte	0x53
 4625 021e 9F       		.byte	0x9f
 4626 021f 5C090000 		.4byte	.LVL185
 4627 0223 EA090000 		.4byte	.LVL193
 4628 0227 0800     		.2byte	0x8
 4629 0229 91       		.byte	0x91
 4630 022a 987F     		.sleb128 -104
 4631 022c 06       		.byte	0x6
 4632 022d 08       		.byte	0x8
 4633 022e 48       		.byte	0x48
 4634 022f 1C       		.byte	0x1c
ARM GAS  C:\Users\pearlstl\AppData\Local\Temp\ccuP9Sbb.s 			page 100


 4635 0230 9F       		.byte	0x9f
 4636 0231 EA090000 		.4byte	.LVL193
 4637 0235 000A0000 		.4byte	.LVL198
 4638 0239 0100     		.2byte	0x1
 4639 023b 53       		.byte	0x53
 4640 023c 000A0000 		.4byte	.LVL198
 4641 0240 0A0A0000 		.4byte	.LFE32
 4642 0244 0800     		.2byte	0x8
 4643 0246 91       		.byte	0x91
 4644 0247 987F     		.sleb128 -104
 4645 0249 06       		.byte	0x6
 4646 024a 08       		.byte	0x8
 4647 024b 48       		.byte	0x48
 4648 024c 1C       		.byte	0x1c
 4649 024d 9F       		.byte	0x9f
 4650 024e 00000000 		.4byte	0
 4651 0252 00000000 		.4byte	0
 4652              	.LLST4:
 4653 0256 00000000 		.4byte	.LVL0
 4654 025a 36000000 		.4byte	.LVL2
 4655 025e 0200     		.2byte	0x2
 4656 0260 91       		.byte	0x91
 4657 0261 00       		.sleb128 0
 4658 0262 36000000 		.4byte	.LVL2
 4659 0266 0A0A0000 		.4byte	.LFE32
 4660 026a 0200     		.2byte	0x2
 4661 026c 91       		.byte	0x91
 4662 026d 00       		.sleb128 0
 4663 026e 00000000 		.4byte	0
 4664 0272 00000000 		.4byte	0
 4665              	.LLST5:
 4666 0276 96000000 		.4byte	.LVL5
 4667 027a 9C000000 		.4byte	.LVL6
 4668 027e 1100     		.2byte	0x11
 4669 0280 56       		.byte	0x56
 4670 0281 93       		.byte	0x93
 4671 0282 02       		.uleb128 0x2
 4672 0283 93       		.byte	0x93
 4673 0284 02       		.uleb128 0x2
 4674 0285 91       		.byte	0x91
 4675 0286 847F     		.sleb128 -124
 4676 0288 93       		.byte	0x93
 4677 0289 02       		.uleb128 0x2
 4678 028a 91       		.byte	0x91
 4679 028b 887F     		.sleb128 -120
 4680 028d 93       		.byte	0x93
 4681 028e 02       		.uleb128 0x2
 4682 028f 93       		.byte	0x93
 4683 0290 12       		.uleb128 0x12
 4684 0291 9C000000 		.4byte	.LVL6
 4685 0295 A8000000 		.4byte	.LVL7
 4686 0299 1600     		.2byte	0x16
 4687 029b 56       		.byte	0x56
 4688 029c 93       		.byte	0x93
 4689 029d 02       		.uleb128 0x2
 4690 029e 93       		.byte	0x93
 4691 029f 02       		.uleb128 0x2
ARM GAS  C:\Users\pearlstl\AppData\Local\Temp\ccuP9Sbb.s 			page 101


 4692 02a0 91       		.byte	0x91
 4693 02a1 847F     		.sleb128 -124
 4694 02a3 93       		.byte	0x93
 4695 02a4 02       		.uleb128 0x2
 4696 02a5 91       		.byte	0x91
 4697 02a6 887F     		.sleb128 -120
 4698 02a8 93       		.byte	0x93
 4699 02a9 02       		.uleb128 0x2
 4700 02aa 93       		.byte	0x93
 4701 02ab 04       		.uleb128 0x4
 4702 02ac 59       		.byte	0x59
 4703 02ad 93       		.byte	0x93
 4704 02ae 02       		.uleb128 0x2
 4705 02af 93       		.byte	0x93
 4706 02b0 0C       		.uleb128 0xc
 4707 02b1 A8000000 		.4byte	.LVL7
 4708 02b5 BA000000 		.4byte	.LVL8
 4709 02b9 0700     		.2byte	0x7
 4710 02bb 93       		.byte	0x93
 4711 02bc 0C       		.uleb128 0xc
 4712 02bd 59       		.byte	0x59
 4713 02be 93       		.byte	0x93
 4714 02bf 02       		.uleb128 0x2
 4715 02c0 93       		.byte	0x93
 4716 02c1 0C       		.uleb128 0xc
 4717 02c2 BA000000 		.4byte	.LVL8
 4718 02c6 CE000000 		.4byte	.LVL9
 4719 02ca 0C00     		.2byte	0xc
 4720 02cc 93       		.byte	0x93
 4721 02cd 0C       		.uleb128 0xc
 4722 02ce 59       		.byte	0x59
 4723 02cf 93       		.byte	0x93
 4724 02d0 02       		.uleb128 0x2
 4725 02d1 93       		.byte	0x93
 4726 02d2 02       		.uleb128 0x2
 4727 02d3 5B       		.byte	0x5b
 4728 02d4 93       		.byte	0x93
 4729 02d5 02       		.uleb128 0x2
 4730 02d6 93       		.byte	0x93
 4731 02d7 08       		.uleb128 0x8
 4732 02d8 CE000000 		.4byte	.LVL9
 4733 02dc C4010000 		.4byte	.LVL34
 4734 02e0 2700     		.2byte	0x27
 4735 02e2 93       		.byte	0x93
 4736 02e3 08       		.uleb128 0x8
 4737 02e4 56       		.byte	0x56
 4738 02e5 93       		.byte	0x93
 4739 02e6 02       		.uleb128 0x2
 4740 02e7 55       		.byte	0x55
 4741 02e8 93       		.byte	0x93
 4742 02e9 02       		.uleb128 0x2
 4743 02ea 59       		.byte	0x59
 4744 02eb 93       		.byte	0x93
 4745 02ec 02       		.uleb128 0x2
 4746 02ed 93       		.byte	0x93
 4747 02ee 02       		.uleb128 0x2
 4748 02ef 5B       		.byte	0x5b
ARM GAS  C:\Users\pearlstl\AppData\Local\Temp\ccuP9Sbb.s 			page 102


 4749 02f0 93       		.byte	0x93
 4750 02f1 02       		.uleb128 0x2
 4751 02f2 93       		.byte	0x93
 4752 02f3 02       		.uleb128 0x2
 4753 02f4 91       		.byte	0x91
 4754 02f5 A07F     		.sleb128 -96
 4755 02f7 93       		.byte	0x93
 4756 02f8 02       		.uleb128 0x2
 4757 02f9 93       		.byte	0x93
 4758 02fa 02       		.uleb128 0x2
 4759 02fb 79       		.byte	0x79
 4760 02fc 00       		.sleb128 0
 4761 02fd 40       		.byte	0x40
 4762 02fe 24       		.byte	0x24
 4763 02ff 7B       		.byte	0x7b
 4764 0300 00       		.sleb128 0
 4765 0301 40       		.byte	0x40
 4766 0302 24       		.byte	0x24
 4767 0303 2B       		.byte	0x2b
 4768 0304 9F       		.byte	0x9f
 4769 0305 93       		.byte	0x93
 4770 0306 01       		.uleb128 0x1
 4771 0307 93       		.byte	0x93
 4772 0308 01       		.uleb128 0x1
 4773 0309 C4010000 		.4byte	.LVL34
 4774 030d D4010000 		.4byte	.LVL35
 4775 0311 1400     		.2byte	0x14
 4776 0313 93       		.byte	0x93
 4777 0314 08       		.uleb128 0x8
 4778 0315 56       		.byte	0x56
 4779 0316 93       		.byte	0x93
 4780 0317 02       		.uleb128 0x2
 4781 0318 55       		.byte	0x55
 4782 0319 93       		.byte	0x93
 4783 031a 02       		.uleb128 0x2
 4784 031b 59       		.byte	0x59
 4785 031c 93       		.byte	0x93
 4786 031d 02       		.uleb128 0x2
 4787 031e 93       		.byte	0x93
 4788 031f 06       		.uleb128 0x6
 4789 0320 91       		.byte	0x91
 4790 0321 A07F     		.sleb128 -96
 4791 0323 93       		.byte	0x93
 4792 0324 02       		.uleb128 0x2
 4793 0325 93       		.byte	0x93
 4794 0326 04       		.uleb128 0x4
 4795 0327 D4010000 		.4byte	.LVL35
 4796 032b D8010000 		.4byte	.LVL36
 4797 032f 1100     		.2byte	0x11
 4798 0331 93       		.byte	0x93
 4799 0332 0A       		.uleb128 0xa
 4800 0333 55       		.byte	0x55
 4801 0334 93       		.byte	0x93
 4802 0335 02       		.uleb128 0x2
 4803 0336 59       		.byte	0x59
 4804 0337 93       		.byte	0x93
 4805 0338 02       		.uleb128 0x2
ARM GAS  C:\Users\pearlstl\AppData\Local\Temp\ccuP9Sbb.s 			page 103


 4806 0339 93       		.byte	0x93
 4807 033a 06       		.uleb128 0x6
 4808 033b 91       		.byte	0x91
 4809 033c A07F     		.sleb128 -96
 4810 033e 93       		.byte	0x93
 4811 033f 02       		.uleb128 0x2
 4812 0340 93       		.byte	0x93
 4813 0341 04       		.uleb128 0x4
 4814 0342 D8010000 		.4byte	.LVL36
 4815 0346 DE010000 		.4byte	.LVL38
 4816 034a 0E00     		.2byte	0xe
 4817 034c 93       		.byte	0x93
 4818 034d 0A       		.uleb128 0xa
 4819 034e 55       		.byte	0x55
 4820 034f 93       		.byte	0x93
 4821 0350 02       		.uleb128 0x2
 4822 0351 93       		.byte	0x93
 4823 0352 08       		.uleb128 0x8
 4824 0353 91       		.byte	0x91
 4825 0354 A07F     		.sleb128 -96
 4826 0356 93       		.byte	0x93
 4827 0357 02       		.uleb128 0x2
 4828 0358 93       		.byte	0x93
 4829 0359 04       		.uleb128 0x4
 4830 035a DE010000 		.4byte	.LVL38
 4831 035e 2E020000 		.4byte	.LVL49
 4832 0362 0900     		.2byte	0x9
 4833 0364 93       		.byte	0x93
 4834 0365 14       		.uleb128 0x14
 4835 0366 91       		.byte	0x91
 4836 0367 A07F     		.sleb128 -96
 4837 0369 93       		.byte	0x93
 4838 036a 02       		.uleb128 0x2
 4839 036b 93       		.byte	0x93
 4840 036c 04       		.uleb128 0x4
 4841 036d 66020000 		.4byte	.LVL51
 4842 0371 6E020000 		.4byte	.LVL52
 4843 0375 0F00     		.2byte	0xf
 4844 0377 91       		.byte	0x91
 4845 0378 847F     		.sleb128 -124
 4846 037a 93       		.byte	0x93
 4847 037b 02       		.uleb128 0x2
 4848 037c 91       		.byte	0x91
 4849 037d 887F     		.sleb128 -120
 4850 037f 93       		.byte	0x93
 4851 0380 02       		.uleb128 0x2
 4852 0381 56       		.byte	0x56
 4853 0382 93       		.byte	0x93
 4854 0383 02       		.uleb128 0x2
 4855 0384 93       		.byte	0x93
 4856 0385 14       		.uleb128 0x14
 4857 0386 6E020000 		.4byte	.LVL52
 4858 038a 74020000 		.4byte	.LVL53
 4859 038e 1400     		.2byte	0x14
 4860 0390 91       		.byte	0x91
 4861 0391 847F     		.sleb128 -124
 4862 0393 93       		.byte	0x93
ARM GAS  C:\Users\pearlstl\AppData\Local\Temp\ccuP9Sbb.s 			page 104


 4863 0394 02       		.uleb128 0x2
 4864 0395 91       		.byte	0x91
 4865 0396 887F     		.sleb128 -120
 4866 0398 93       		.byte	0x93
 4867 0399 02       		.uleb128 0x2
 4868 039a 56       		.byte	0x56
 4869 039b 93       		.byte	0x93
 4870 039c 02       		.uleb128 0x2
 4871 039d 93       		.byte	0x93
 4872 039e 06       		.uleb128 0x6
 4873 039f 59       		.byte	0x59
 4874 03a0 93       		.byte	0x93
 4875 03a1 02       		.uleb128 0x2
 4876 03a2 93       		.byte	0x93
 4877 03a3 0C       		.uleb128 0xc
 4878 03a4 74020000 		.4byte	.LVL53
 4879 03a8 7E020000 		.4byte	.LVL54
 4880 03ac 1100     		.2byte	0x11
 4881 03ae 91       		.byte	0x91
 4882 03af 847F     		.sleb128 -124
 4883 03b1 93       		.byte	0x93
 4884 03b2 02       		.uleb128 0x2
 4885 03b3 93       		.byte	0x93
 4886 03b4 02       		.uleb128 0x2
 4887 03b5 56       		.byte	0x56
 4888 03b6 93       		.byte	0x93
 4889 03b7 02       		.uleb128 0x2
 4890 03b8 93       		.byte	0x93
 4891 03b9 06       		.uleb128 0x6
 4892 03ba 59       		.byte	0x59
 4893 03bb 93       		.byte	0x93
 4894 03bc 02       		.uleb128 0x2
 4895 03bd 93       		.byte	0x93
 4896 03be 0C       		.uleb128 0xc
 4897 03bf 7E020000 		.4byte	.LVL54
 4898 03c3 82020000 		.4byte	.LVL55
 4899 03c7 0C00     		.2byte	0xc
 4900 03c9 93       		.byte	0x93
 4901 03ca 04       		.uleb128 0x4
 4902 03cb 56       		.byte	0x56
 4903 03cc 93       		.byte	0x93
 4904 03cd 02       		.uleb128 0x2
 4905 03ce 93       		.byte	0x93
 4906 03cf 06       		.uleb128 0x6
 4907 03d0 59       		.byte	0x59
 4908 03d1 93       		.byte	0x93
 4909 03d2 02       		.uleb128 0x2
 4910 03d3 93       		.byte	0x93
 4911 03d4 0C       		.uleb128 0xc
 4912 03d5 82020000 		.4byte	.LVL55
 4913 03d9 86020000 		.4byte	.LVL56
 4914 03dd 0700     		.2byte	0x7
 4915 03df 93       		.byte	0x93
 4916 03e0 0C       		.uleb128 0xc
 4917 03e1 59       		.byte	0x59
 4918 03e2 93       		.byte	0x93
 4919 03e3 02       		.uleb128 0x2
ARM GAS  C:\Users\pearlstl\AppData\Local\Temp\ccuP9Sbb.s 			page 105


 4920 03e4 93       		.byte	0x93
 4921 03e5 0C       		.uleb128 0xc
 4922 03e6 86020000 		.4byte	.LVL56
 4923 03ea 94020000 		.4byte	.LVL57
 4924 03ee 0C00     		.2byte	0xc
 4925 03f0 93       		.byte	0x93
 4926 03f1 0C       		.uleb128 0xc
 4927 03f2 59       		.byte	0x59
 4928 03f3 93       		.byte	0x93
 4929 03f4 02       		.uleb128 0x2
 4930 03f5 93       		.byte	0x93
 4931 03f6 02       		.uleb128 0x2
 4932 03f7 5B       		.byte	0x5b
 4933 03f8 93       		.byte	0x93
 4934 03f9 02       		.uleb128 0x2
 4935 03fa 93       		.byte	0x93
 4936 03fb 08       		.uleb128 0x8
 4937 03fc 94020000 		.4byte	.LVL57
 4938 0400 A2020000 		.4byte	.LVL59
 4939 0404 2700     		.2byte	0x27
 4940 0406 93       		.byte	0x93
 4941 0407 08       		.uleb128 0x8
 4942 0408 56       		.byte	0x56
 4943 0409 93       		.byte	0x93
 4944 040a 02       		.uleb128 0x2
 4945 040b 55       		.byte	0x55
 4946 040c 93       		.byte	0x93
 4947 040d 02       		.uleb128 0x2
 4948 040e 59       		.byte	0x59
 4949 040f 93       		.byte	0x93
 4950 0410 02       		.uleb128 0x2
 4951 0411 93       		.byte	0x93
 4952 0412 02       		.uleb128 0x2
 4953 0413 5B       		.byte	0x5b
 4954 0414 93       		.byte	0x93
 4955 0415 02       		.uleb128 0x2
 4956 0416 93       		.byte	0x93
 4957 0417 02       		.uleb128 0x2
 4958 0418 91       		.byte	0x91
 4959 0419 A07F     		.sleb128 -96
 4960 041b 93       		.byte	0x93
 4961 041c 02       		.uleb128 0x2
 4962 041d 93       		.byte	0x93
 4963 041e 02       		.uleb128 0x2
 4964 041f 79       		.byte	0x79
 4965 0420 00       		.sleb128 0
 4966 0421 40       		.byte	0x40
 4967 0422 24       		.byte	0x24
 4968 0423 7B       		.byte	0x7b
 4969 0424 00       		.sleb128 0
 4970 0425 40       		.byte	0x40
 4971 0426 24       		.byte	0x24
 4972 0427 2B       		.byte	0x2b
 4973 0428 9F       		.byte	0x9f
 4974 0429 93       		.byte	0x93
 4975 042a 01       		.uleb128 0x1
 4976 042b 93       		.byte	0x93
ARM GAS  C:\Users\pearlstl\AppData\Local\Temp\ccuP9Sbb.s 			page 106


 4977 042c 01       		.uleb128 0x1
 4978 042d C8020000 		.4byte	.LVL60
 4979 0431 CA020000 		.4byte	.LVL61
 4980 0435 0C00     		.2byte	0xc
 4981 0437 93       		.byte	0x93
 4982 0438 02       		.uleb128 0x2
 4983 0439 55       		.byte	0x55
 4984 043a 93       		.byte	0x93
 4985 043b 02       		.uleb128 0x2
 4986 043c 93       		.byte	0x93
 4987 043d 08       		.uleb128 0x8
 4988 043e 59       		.byte	0x59
 4989 043f 93       		.byte	0x93
 4990 0440 02       		.uleb128 0x2
 4991 0441 93       		.byte	0x93
 4992 0442 0C       		.uleb128 0xc
 4993 0443 CA020000 		.4byte	.LVL61
 4994 0447 16030000 		.4byte	.LVL68
 4995 044b 0900     		.2byte	0x9
 4996 044d 93       		.byte	0x93
 4997 044e 14       		.uleb128 0x14
 4998 044f 91       		.byte	0x91
 4999 0450 A07F     		.sleb128 -96
 5000 0452 93       		.byte	0x93
 5001 0453 02       		.uleb128 0x2
 5002 0454 93       		.byte	0x93
 5003 0455 04       		.uleb128 0x4
 5004 0456 16030000 		.4byte	.LVL68
 5005 045a 2C030000 		.4byte	.LVL70
 5006 045e 1100     		.2byte	0x11
 5007 0460 93       		.byte	0x93
 5008 0461 08       		.uleb128 0x8
 5009 0462 56       		.byte	0x56
 5010 0463 93       		.byte	0x93
 5011 0464 02       		.uleb128 0x2
 5012 0465 91       		.byte	0x91
 5013 0466 FC7E     		.sleb128 -132
 5014 0468 93       		.byte	0x93
 5015 0469 02       		.uleb128 0x2
 5016 046a 93       		.byte	0x93
 5017 046b 08       		.uleb128 0x8
 5018 046c 54       		.byte	0x54
 5019 046d 93       		.byte	0x93
 5020 046e 02       		.uleb128 0x2
 5021 046f 93       		.byte	0x93
 5022 0470 04       		.uleb128 0x4
 5023 0471 2C030000 		.4byte	.LVL70
 5024 0475 3A030000 		.4byte	.LVL71
 5025 0479 0C00     		.2byte	0xc
 5026 047b 93       		.byte	0x93
 5027 047c 08       		.uleb128 0x8
 5028 047d 56       		.byte	0x56
 5029 047e 93       		.byte	0x93
 5030 047f 02       		.uleb128 0x2
 5031 0480 93       		.byte	0x93
 5032 0481 0A       		.uleb128 0xa
 5033 0482 54       		.byte	0x54
ARM GAS  C:\Users\pearlstl\AppData\Local\Temp\ccuP9Sbb.s 			page 107


 5034 0483 93       		.byte	0x93
 5035 0484 02       		.uleb128 0x2
 5036 0485 93       		.byte	0x93
 5037 0486 04       		.uleb128 0x4
 5038 0487 3A030000 		.4byte	.LVL71
 5039 048b 44030000 		.4byte	.LVL72
 5040 048f 0700     		.2byte	0x7
 5041 0491 93       		.byte	0x93
 5042 0492 14       		.uleb128 0x14
 5043 0493 54       		.byte	0x54
 5044 0494 93       		.byte	0x93
 5045 0495 02       		.uleb128 0x2
 5046 0496 93       		.byte	0x93
 5047 0497 04       		.uleb128 0x4
 5048 0498 44030000 		.4byte	.LVL72
 5049 049c 4A030000 		.4byte	.LVL73
 5050 04a0 0C00     		.2byte	0xc
 5051 04a2 93       		.byte	0x93
 5052 04a3 08       		.uleb128 0x8
 5053 04a4 56       		.byte	0x56
 5054 04a5 93       		.byte	0x93
 5055 04a6 02       		.uleb128 0x2
 5056 04a7 93       		.byte	0x93
 5057 04a8 0A       		.uleb128 0xa
 5058 04a9 52       		.byte	0x52
 5059 04aa 93       		.byte	0x93
 5060 04ab 02       		.uleb128 0x2
 5061 04ac 93       		.byte	0x93
 5062 04ad 04       		.uleb128 0x4
 5063 04ae 4A030000 		.4byte	.LVL73
 5064 04b2 54030000 		.4byte	.LVL74
 5065 04b6 0F00     		.2byte	0xf
 5066 04b8 93       		.byte	0x93
 5067 04b9 08       		.uleb128 0x8
 5068 04ba 56       		.byte	0x56
 5069 04bb 93       		.byte	0x93
 5070 04bc 02       		.uleb128 0x2
 5071 04bd 51       		.byte	0x51
 5072 04be 93       		.byte	0x93
 5073 04bf 02       		.uleb128 0x2
 5074 04c0 93       		.byte	0x93
 5075 04c1 08       		.uleb128 0x8
 5076 04c2 54       		.byte	0x54
 5077 04c3 93       		.byte	0x93
 5078 04c4 02       		.uleb128 0x2
 5079 04c5 93       		.byte	0x93
 5080 04c6 04       		.uleb128 0x4
 5081 04c7 54030000 		.4byte	.LVL74
 5082 04cb 70030000 		.4byte	.LVL76
 5083 04cf 0C00     		.2byte	0xc
 5084 04d1 93       		.byte	0x93
 5085 04d2 08       		.uleb128 0x8
 5086 04d3 56       		.byte	0x56
 5087 04d4 93       		.byte	0x93
 5088 04d5 02       		.uleb128 0x2
 5089 04d6 93       		.byte	0x93
 5090 04d7 0A       		.uleb128 0xa
ARM GAS  C:\Users\pearlstl\AppData\Local\Temp\ccuP9Sbb.s 			page 108


 5091 04d8 54       		.byte	0x54
 5092 04d9 93       		.byte	0x93
 5093 04da 02       		.uleb128 0x2
 5094 04db 93       		.byte	0x93
 5095 04dc 04       		.uleb128 0x4
 5096 04dd 70030000 		.4byte	.LVL76
 5097 04e1 C8030000 		.4byte	.LVL79
 5098 04e5 0700     		.2byte	0x7
 5099 04e7 93       		.byte	0x93
 5100 04e8 08       		.uleb128 0x8
 5101 04e9 56       		.byte	0x56
 5102 04ea 93       		.byte	0x93
 5103 04eb 02       		.uleb128 0x2
 5104 04ec 93       		.byte	0x93
 5105 04ed 10       		.uleb128 0x10
 5106 04ee D2030000 		.4byte	.LVL80
 5107 04f2 E8030000 		.4byte	.LVL82
 5108 04f6 1100     		.2byte	0x11
 5109 04f8 93       		.byte	0x93
 5110 04f9 08       		.uleb128 0x8
 5111 04fa 56       		.byte	0x56
 5112 04fb 93       		.byte	0x93
 5113 04fc 02       		.uleb128 0x2
 5114 04fd 91       		.byte	0x91
 5115 04fe FC7E     		.sleb128 -132
 5116 0500 93       		.byte	0x93
 5117 0501 02       		.uleb128 0x2
 5118 0502 93       		.byte	0x93
 5119 0503 08       		.uleb128 0x8
 5120 0504 54       		.byte	0x54
 5121 0505 93       		.byte	0x93
 5122 0506 02       		.uleb128 0x2
 5123 0507 93       		.byte	0x93
 5124 0508 04       		.uleb128 0x4
 5125 0509 E8030000 		.4byte	.LVL82
 5126 050d FC030000 		.4byte	.LVL83
 5127 0511 0C00     		.2byte	0xc
 5128 0513 93       		.byte	0x93
 5129 0514 08       		.uleb128 0x8
 5130 0515 56       		.byte	0x56
 5131 0516 93       		.byte	0x93
 5132 0517 02       		.uleb128 0x2
 5133 0518 93       		.byte	0x93
 5134 0519 0A       		.uleb128 0xa
 5135 051a 54       		.byte	0x54
 5136 051b 93       		.byte	0x93
 5137 051c 02       		.uleb128 0x2
 5138 051d 93       		.byte	0x93
 5139 051e 04       		.uleb128 0x4
 5140 051f FC030000 		.4byte	.LVL83
 5141 0523 06040000 		.4byte	.LVL84
 5142 0527 0700     		.2byte	0x7
 5143 0529 93       		.byte	0x93
 5144 052a 14       		.uleb128 0x14
 5145 052b 54       		.byte	0x54
 5146 052c 93       		.byte	0x93
 5147 052d 02       		.uleb128 0x2
ARM GAS  C:\Users\pearlstl\AppData\Local\Temp\ccuP9Sbb.s 			page 109


 5148 052e 93       		.byte	0x93
 5149 052f 04       		.uleb128 0x4
 5150 0530 06040000 		.4byte	.LVL84
 5151 0534 0C040000 		.4byte	.LVL85
 5152 0538 0C00     		.2byte	0xc
 5153 053a 93       		.byte	0x93
 5154 053b 08       		.uleb128 0x8
 5155 053c 56       		.byte	0x56
 5156 053d 93       		.byte	0x93
 5157 053e 02       		.uleb128 0x2
 5158 053f 93       		.byte	0x93
 5159 0540 0A       		.uleb128 0xa
 5160 0541 52       		.byte	0x52
 5161 0542 93       		.byte	0x93
 5162 0543 02       		.uleb128 0x2
 5163 0544 93       		.byte	0x93
 5164 0545 04       		.uleb128 0x4
 5165 0546 0C040000 		.4byte	.LVL85
 5166 054a 16040000 		.4byte	.LVL86
 5167 054e 0F00     		.2byte	0xf
 5168 0550 93       		.byte	0x93
 5169 0551 08       		.uleb128 0x8
 5170 0552 56       		.byte	0x56
 5171 0553 93       		.byte	0x93
 5172 0554 02       		.uleb128 0x2
 5173 0555 51       		.byte	0x51
 5174 0556 93       		.byte	0x93
 5175 0557 02       		.uleb128 0x2
 5176 0558 93       		.byte	0x93
 5177 0559 08       		.uleb128 0x8
 5178 055a 54       		.byte	0x54
 5179 055b 93       		.byte	0x93
 5180 055c 02       		.uleb128 0x2
 5181 055d 93       		.byte	0x93
 5182 055e 04       		.uleb128 0x4
 5183 055f 16040000 		.4byte	.LVL86
 5184 0563 28040000 		.4byte	.LVL88
 5185 0567 0C00     		.2byte	0xc
 5186 0569 93       		.byte	0x93
 5187 056a 08       		.uleb128 0x8
 5188 056b 56       		.byte	0x56
 5189 056c 93       		.byte	0x93
 5190 056d 02       		.uleb128 0x2
 5191 056e 93       		.byte	0x93
 5192 056f 0A       		.uleb128 0xa
 5193 0570 54       		.byte	0x54
 5194 0571 93       		.byte	0x93
 5195 0572 02       		.uleb128 0x2
 5196 0573 93       		.byte	0x93
 5197 0574 04       		.uleb128 0x4
 5198 0575 28040000 		.4byte	.LVL88
 5199 0579 3C040000 		.4byte	.LVL89
 5200 057d 0700     		.2byte	0x7
 5201 057f 93       		.byte	0x93
 5202 0580 14       		.uleb128 0x14
 5203 0581 54       		.byte	0x54
 5204 0582 93       		.byte	0x93
ARM GAS  C:\Users\pearlstl\AppData\Local\Temp\ccuP9Sbb.s 			page 110


 5205 0583 02       		.uleb128 0x2
 5206 0584 93       		.byte	0x93
 5207 0585 04       		.uleb128 0x4
 5208 0586 7E040000 		.4byte	.LVL91
 5209 058a 80040000 		.4byte	.LVL92
 5210 058e 0F00     		.2byte	0xf
 5211 0590 93       		.byte	0x93
 5212 0591 08       		.uleb128 0x8
 5213 0592 56       		.byte	0x56
 5214 0593 93       		.byte	0x93
 5215 0594 02       		.uleb128 0x2
 5216 0595 51       		.byte	0x51
 5217 0596 93       		.byte	0x93
 5218 0597 02       		.uleb128 0x2
 5219 0598 93       		.byte	0x93
 5220 0599 08       		.uleb128 0x8
 5221 059a 54       		.byte	0x54
 5222 059b 93       		.byte	0x93
 5223 059c 02       		.uleb128 0x2
 5224 059d 93       		.byte	0x93
 5225 059e 04       		.uleb128 0x4
 5226 059f 80040000 		.4byte	.LVL92
 5227 05a3 82040000 		.4byte	.LVL93
 5228 05a7 0F00     		.2byte	0xf
 5229 05a9 93       		.byte	0x93
 5230 05aa 08       		.uleb128 0x8
 5231 05ab 56       		.byte	0x56
 5232 05ac 93       		.byte	0x93
 5233 05ad 02       		.uleb128 0x2
 5234 05ae 51       		.byte	0x51
 5235 05af 93       		.byte	0x93
 5236 05b0 02       		.uleb128 0x2
 5237 05b1 93       		.byte	0x93
 5238 05b2 08       		.uleb128 0x8
 5239 05b3 53       		.byte	0x53
 5240 05b4 93       		.byte	0x93
 5241 05b5 02       		.uleb128 0x2
 5242 05b6 93       		.byte	0x93
 5243 05b7 04       		.uleb128 0x4
 5244 05b8 82040000 		.4byte	.LVL93
 5245 05bc 8E040000 		.4byte	.LVL94
 5246 05c0 0C00     		.2byte	0xc
 5247 05c2 93       		.byte	0x93
 5248 05c3 08       		.uleb128 0x8
 5249 05c4 56       		.byte	0x56
 5250 05c5 93       		.byte	0x93
 5251 05c6 02       		.uleb128 0x2
 5252 05c7 93       		.byte	0x93
 5253 05c8 0A       		.uleb128 0xa
 5254 05c9 54       		.byte	0x54
 5255 05ca 93       		.byte	0x93
 5256 05cb 02       		.uleb128 0x2
 5257 05cc 93       		.byte	0x93
 5258 05cd 04       		.uleb128 0x4
 5259 05ce 8E040000 		.4byte	.LVL94
 5260 05d2 94040000 		.4byte	.LVL95
 5261 05d6 0700     		.2byte	0x7
ARM GAS  C:\Users\pearlstl\AppData\Local\Temp\ccuP9Sbb.s 			page 111


 5262 05d8 93       		.byte	0x93
 5263 05d9 08       		.uleb128 0x8
 5264 05da 56       		.byte	0x56
 5265 05db 93       		.byte	0x93
 5266 05dc 02       		.uleb128 0x2
 5267 05dd 93       		.byte	0x93
 5268 05de 10       		.uleb128 0x10
 5269 05df 94040000 		.4byte	.LVL95
 5270 05e3 9E040000 		.4byte	.LVL96
 5271 05e7 0700     		.2byte	0x7
 5272 05e9 93       		.byte	0x93
 5273 05ea 08       		.uleb128 0x8
 5274 05eb 52       		.byte	0x52
 5275 05ec 93       		.byte	0x93
 5276 05ed 02       		.uleb128 0x2
 5277 05ee 93       		.byte	0x93
 5278 05ef 10       		.uleb128 0x10
 5279 05f0 9E040000 		.4byte	.LVL96
 5280 05f4 1A050000 		.4byte	.LVL100
 5281 05f8 0700     		.2byte	0x7
 5282 05fa 93       		.byte	0x93
 5283 05fb 08       		.uleb128 0x8
 5284 05fc 5B       		.byte	0x5b
 5285 05fd 93       		.byte	0x93
 5286 05fe 02       		.uleb128 0x2
 5287 05ff 93       		.byte	0x93
 5288 0600 10       		.uleb128 0x10
 5289 0601 1E050000 		.4byte	.LVL101
 5290 0605 20050000 		.4byte	.LVL102
 5291 0609 0F00     		.2byte	0xf
 5292 060b 93       		.byte	0x93
 5293 060c 08       		.uleb128 0x8
 5294 060d 56       		.byte	0x56
 5295 060e 93       		.byte	0x93
 5296 060f 02       		.uleb128 0x2
 5297 0610 51       		.byte	0x51
 5298 0611 93       		.byte	0x93
 5299 0612 02       		.uleb128 0x2
 5300 0613 93       		.byte	0x93
 5301 0614 08       		.uleb128 0x8
 5302 0615 54       		.byte	0x54
 5303 0616 93       		.byte	0x93
 5304 0617 02       		.uleb128 0x2
 5305 0618 93       		.byte	0x93
 5306 0619 04       		.uleb128 0x4
 5307 061a 20050000 		.4byte	.LVL102
 5308 061e 22050000 		.4byte	.LVL103
 5309 0622 0F00     		.2byte	0xf
 5310 0624 93       		.byte	0x93
 5311 0625 08       		.uleb128 0x8
 5312 0626 56       		.byte	0x56
 5313 0627 93       		.byte	0x93
 5314 0628 02       		.uleb128 0x2
 5315 0629 51       		.byte	0x51
 5316 062a 93       		.byte	0x93
 5317 062b 02       		.uleb128 0x2
 5318 062c 93       		.byte	0x93
ARM GAS  C:\Users\pearlstl\AppData\Local\Temp\ccuP9Sbb.s 			page 112


 5319 062d 08       		.uleb128 0x8
 5320 062e 53       		.byte	0x53
 5321 062f 93       		.byte	0x93
 5322 0630 02       		.uleb128 0x2
 5323 0631 93       		.byte	0x93
 5324 0632 04       		.uleb128 0x4
 5325 0633 22050000 		.4byte	.LVL103
 5326 0637 32050000 		.4byte	.LVL104
 5327 063b 0700     		.2byte	0x7
 5328 063d 93       		.byte	0x93
 5329 063e 14       		.uleb128 0x14
 5330 063f 54       		.byte	0x54
 5331 0640 93       		.byte	0x93
 5332 0641 02       		.uleb128 0x2
 5333 0642 93       		.byte	0x93
 5334 0643 04       		.uleb128 0x4
 5335 0644 AE050000 		.4byte	.LVL109
 5336 0648 D0050000 		.4byte	.LVL113
 5337 064c 0900     		.2byte	0x9
 5338 064e 93       		.byte	0x93
 5339 064f 14       		.uleb128 0x14
 5340 0650 91       		.byte	0x91
 5341 0651 A07F     		.sleb128 -96
 5342 0653 93       		.byte	0x93
 5343 0654 02       		.uleb128 0x2
 5344 0655 93       		.byte	0x93
 5345 0656 04       		.uleb128 0x4
 5346 0657 D0050000 		.4byte	.LVL113
 5347 065b F0050000 		.4byte	.LVL115
 5348 065f 0F00     		.2byte	0xf
 5349 0661 93       		.byte	0x93
 5350 0662 08       		.uleb128 0x8
 5351 0663 56       		.byte	0x56
 5352 0664 93       		.byte	0x93
 5353 0665 02       		.uleb128 0x2
 5354 0666 55       		.byte	0x55
 5355 0667 93       		.byte	0x93
 5356 0668 02       		.uleb128 0x2
 5357 0669 93       		.byte	0x93
 5358 066a 08       		.uleb128 0x8
 5359 066b 54       		.byte	0x54
 5360 066c 93       		.byte	0x93
 5361 066d 02       		.uleb128 0x2
 5362 066e 93       		.byte	0x93
 5363 066f 04       		.uleb128 0x4
 5364 0670 F0050000 		.4byte	.LVL115
 5365 0674 F8050000 		.4byte	.LVL116
 5366 0678 0C00     		.2byte	0xc
 5367 067a 93       		.byte	0x93
 5368 067b 0A       		.uleb128 0xa
 5369 067c 55       		.byte	0x55
 5370 067d 93       		.byte	0x93
 5371 067e 02       		.uleb128 0x2
 5372 067f 93       		.byte	0x93
 5373 0680 08       		.uleb128 0x8
 5374 0681 54       		.byte	0x54
 5375 0682 93       		.byte	0x93
ARM GAS  C:\Users\pearlstl\AppData\Local\Temp\ccuP9Sbb.s 			page 113


 5376 0683 02       		.uleb128 0x2
 5377 0684 93       		.byte	0x93
 5378 0685 04       		.uleb128 0x4
 5379 0686 F8050000 		.4byte	.LVL116
 5380 068a FA050000 		.4byte	.LVL117
 5381 068e 0C00     		.2byte	0xc
 5382 0690 93       		.byte	0x93
 5383 0691 0A       		.uleb128 0xa
 5384 0692 55       		.byte	0x55
 5385 0693 93       		.byte	0x93
 5386 0694 02       		.uleb128 0x2
 5387 0695 93       		.byte	0x93
 5388 0696 08       		.uleb128 0x8
 5389 0697 53       		.byte	0x53
 5390 0698 93       		.byte	0x93
 5391 0699 02       		.uleb128 0x2
 5392 069a 93       		.byte	0x93
 5393 069b 04       		.uleb128 0x4
 5394 069c FA050000 		.4byte	.LVL117
 5395 06a0 04060000 		.4byte	.LVL118
 5396 06a4 0F00     		.2byte	0xf
 5397 06a6 93       		.byte	0x93
 5398 06a7 08       		.uleb128 0x8
 5399 06a8 50       		.byte	0x50
 5400 06a9 93       		.byte	0x93
 5401 06aa 02       		.uleb128 0x2
 5402 06ab 55       		.byte	0x55
 5403 06ac 93       		.byte	0x93
 5404 06ad 02       		.uleb128 0x2
 5405 06ae 93       		.byte	0x93
 5406 06af 08       		.uleb128 0x8
 5407 06b0 53       		.byte	0x53
 5408 06b1 93       		.byte	0x93
 5409 06b2 02       		.uleb128 0x2
 5410 06b3 93       		.byte	0x93
 5411 06b4 04       		.uleb128 0x4
 5412 06b5 04060000 		.4byte	.LVL118
 5413 06b9 0A060000 		.4byte	.LVL119
 5414 06bd 0A00     		.2byte	0xa
 5415 06bf 93       		.byte	0x93
 5416 06c0 08       		.uleb128 0x8
 5417 06c1 50       		.byte	0x50
 5418 06c2 93       		.byte	0x93
 5419 06c3 02       		.uleb128 0x2
 5420 06c4 55       		.byte	0x55
 5421 06c5 93       		.byte	0x93
 5422 06c6 02       		.uleb128 0x2
 5423 06c7 93       		.byte	0x93
 5424 06c8 0E       		.uleb128 0xe
 5425 06c9 0A060000 		.4byte	.LVL119
 5426 06cd 0C060000 		.4byte	.LVL120
 5427 06d1 0700     		.2byte	0x7
 5428 06d3 93       		.byte	0x93
 5429 06d4 08       		.uleb128 0x8
 5430 06d5 50       		.byte	0x50
 5431 06d6 93       		.byte	0x93
 5432 06d7 02       		.uleb128 0x2
ARM GAS  C:\Users\pearlstl\AppData\Local\Temp\ccuP9Sbb.s 			page 114


 5433 06d8 93       		.byte	0x93
 5434 06d9 10       		.uleb128 0x10
 5435 06da 0C060000 		.4byte	.LVL120
 5436 06de 0E060000 		.4byte	.LVL121
 5437 06e2 0C00     		.2byte	0xc
 5438 06e4 93       		.byte	0x93
 5439 06e5 08       		.uleb128 0x8
 5440 06e6 50       		.byte	0x50
 5441 06e7 93       		.byte	0x93
 5442 06e8 02       		.uleb128 0x2
 5443 06e9 93       		.byte	0x93
 5444 06ea 0A       		.uleb128 0xa
 5445 06eb 54       		.byte	0x54
 5446 06ec 93       		.byte	0x93
 5447 06ed 02       		.uleb128 0x2
 5448 06ee 93       		.byte	0x93
 5449 06ef 04       		.uleb128 0x4
 5450 06f0 0E060000 		.4byte	.LVL121
 5451 06f4 30060000 		.4byte	.LVL124
 5452 06f8 0F00     		.2byte	0xf
 5453 06fa 93       		.byte	0x93
 5454 06fb 08       		.uleb128 0x8
 5455 06fc 50       		.byte	0x50
 5456 06fd 93       		.byte	0x93
 5457 06fe 02       		.uleb128 0x2
 5458 06ff 55       		.byte	0x55
 5459 0700 93       		.byte	0x93
 5460 0701 02       		.uleb128 0x2
 5461 0702 93       		.byte	0x93
 5462 0703 08       		.uleb128 0x8
 5463 0704 54       		.byte	0x54
 5464 0705 93       		.byte	0x93
 5465 0706 02       		.uleb128 0x2
 5466 0707 93       		.byte	0x93
 5467 0708 04       		.uleb128 0x4
 5468 0709 30060000 		.4byte	.LVL124
 5469 070d 32060000 		.4byte	.LVL125
 5470 0711 0A00     		.2byte	0xa
 5471 0713 93       		.byte	0x93
 5472 0714 08       		.uleb128 0x8
 5473 0715 50       		.byte	0x50
 5474 0716 93       		.byte	0x93
 5475 0717 02       		.uleb128 0x2
 5476 0718 55       		.byte	0x55
 5477 0719 93       		.byte	0x93
 5478 071a 02       		.uleb128 0x2
 5479 071b 93       		.byte	0x93
 5480 071c 0E       		.uleb128 0xe
 5481 071d 32060000 		.4byte	.LVL125
 5482 0721 40060000 		.4byte	.LVL126
 5483 0725 0A00     		.2byte	0xa
 5484 0727 93       		.byte	0x93
 5485 0728 08       		.uleb128 0x8
 5486 0729 50       		.byte	0x50
 5487 072a 93       		.byte	0x93
 5488 072b 02       		.uleb128 0x2
 5489 072c 51       		.byte	0x51
ARM GAS  C:\Users\pearlstl\AppData\Local\Temp\ccuP9Sbb.s 			page 115


 5490 072d 93       		.byte	0x93
 5491 072e 02       		.uleb128 0x2
 5492 072f 93       		.byte	0x93
 5493 0730 0E       		.uleb128 0xe
 5494 0731 40060000 		.4byte	.LVL126
 5495 0735 8E060000 		.4byte	.LVL128
 5496 0739 0700     		.2byte	0x7
 5497 073b 93       		.byte	0x93
 5498 073c 0A       		.uleb128 0xa
 5499 073d 5A       		.byte	0x5a
 5500 073e 93       		.byte	0x93
 5501 073f 02       		.uleb128 0x2
 5502 0740 93       		.byte	0x93
 5503 0741 0E       		.uleb128 0xe
 5504 0742 A0060000 		.4byte	.LVL130
 5505 0746 AA060000 		.4byte	.LVL131
 5506 074a 0F00     		.2byte	0xf
 5507 074c 93       		.byte	0x93
 5508 074d 08       		.uleb128 0x8
 5509 074e 56       		.byte	0x56
 5510 074f 93       		.byte	0x93
 5511 0750 02       		.uleb128 0x2
 5512 0751 55       		.byte	0x55
 5513 0752 93       		.byte	0x93
 5514 0753 02       		.uleb128 0x2
 5515 0754 93       		.byte	0x93
 5516 0755 08       		.uleb128 0x8
 5517 0756 54       		.byte	0x54
 5518 0757 93       		.byte	0x93
 5519 0758 02       		.uleb128 0x2
 5520 0759 93       		.byte	0x93
 5521 075a 04       		.uleb128 0x4
 5522 075b AA060000 		.4byte	.LVL131
 5523 075f B8060000 		.4byte	.LVL132
 5524 0763 0C00     		.2byte	0xc
 5525 0765 93       		.byte	0x93
 5526 0766 0A       		.uleb128 0xa
 5527 0767 55       		.byte	0x55
 5528 0768 93       		.byte	0x93
 5529 0769 02       		.uleb128 0x2
 5530 076a 93       		.byte	0x93
 5531 076b 08       		.uleb128 0x8
 5532 076c 54       		.byte	0x54
 5533 076d 93       		.byte	0x93
 5534 076e 02       		.uleb128 0x2
 5535 076f 93       		.byte	0x93
 5536 0770 04       		.uleb128 0x4
 5537 0771 B8060000 		.4byte	.LVL132
 5538 0775 BA060000 		.4byte	.LVL133
 5539 0779 0C00     		.2byte	0xc
 5540 077b 93       		.byte	0x93
 5541 077c 0A       		.uleb128 0xa
 5542 077d 55       		.byte	0x55
 5543 077e 93       		.byte	0x93
 5544 077f 02       		.uleb128 0x2
 5545 0780 93       		.byte	0x93
 5546 0781 08       		.uleb128 0x8
ARM GAS  C:\Users\pearlstl\AppData\Local\Temp\ccuP9Sbb.s 			page 116


 5547 0782 53       		.byte	0x53
 5548 0783 93       		.byte	0x93
 5549 0784 02       		.uleb128 0x2
 5550 0785 93       		.byte	0x93
 5551 0786 04       		.uleb128 0x4
 5552 0787 BA060000 		.4byte	.LVL133
 5553 078b C4060000 		.4byte	.LVL134
 5554 078f 0F00     		.2byte	0xf
 5555 0791 93       		.byte	0x93
 5556 0792 08       		.uleb128 0x8
 5557 0793 50       		.byte	0x50
 5558 0794 93       		.byte	0x93
 5559 0795 02       		.uleb128 0x2
 5560 0796 55       		.byte	0x55
 5561 0797 93       		.byte	0x93
 5562 0798 02       		.uleb128 0x2
 5563 0799 93       		.byte	0x93
 5564 079a 08       		.uleb128 0x8
 5565 079b 53       		.byte	0x53
 5566 079c 93       		.byte	0x93
 5567 079d 02       		.uleb128 0x2
 5568 079e 93       		.byte	0x93
 5569 079f 04       		.uleb128 0x4
 5570 07a0 C4060000 		.4byte	.LVL134
 5571 07a4 C6060000 		.4byte	.LVL135
 5572 07a8 1400     		.2byte	0x14
 5573 07aa 93       		.byte	0x93
 5574 07ab 08       		.uleb128 0x8
 5575 07ac 50       		.byte	0x50
 5576 07ad 93       		.byte	0x93
 5577 07ae 02       		.uleb128 0x2
 5578 07af 55       		.byte	0x55
 5579 07b0 93       		.byte	0x93
 5580 07b1 02       		.uleb128 0x2
 5581 07b2 93       		.byte	0x93
 5582 07b3 08       		.uleb128 0x8
 5583 07b4 74       		.byte	0x74
 5584 07b5 00       		.sleb128 0
 5585 07b6 7A       		.byte	0x7a
 5586 07b7 00       		.sleb128 0
 5587 07b8 1C       		.byte	0x1c
 5588 07b9 9F       		.byte	0x9f
 5589 07ba 93       		.byte	0x93
 5590 07bb 02       		.uleb128 0x2
 5591 07bc 93       		.byte	0x93
 5592 07bd 04       		.uleb128 0x4
 5593 07be C6060000 		.4byte	.LVL135
 5594 07c2 CA060000 		.4byte	.LVL136
 5595 07c6 0A00     		.2byte	0xa
 5596 07c8 93       		.byte	0x93
 5597 07c9 08       		.uleb128 0x8
 5598 07ca 50       		.byte	0x50
 5599 07cb 93       		.byte	0x93
 5600 07cc 02       		.uleb128 0x2
 5601 07cd 55       		.byte	0x55
 5602 07ce 93       		.byte	0x93
 5603 07cf 02       		.uleb128 0x2
ARM GAS  C:\Users\pearlstl\AppData\Local\Temp\ccuP9Sbb.s 			page 117


 5604 07d0 93       		.byte	0x93
 5605 07d1 0E       		.uleb128 0xe
 5606 07d2 CA060000 		.4byte	.LVL136
 5607 07d6 CC060000 		.4byte	.LVL137
 5608 07da 0F00     		.2byte	0xf
 5609 07dc 93       		.byte	0x93
 5610 07dd 08       		.uleb128 0x8
 5611 07de 50       		.byte	0x50
 5612 07df 93       		.byte	0x93
 5613 07e0 02       		.uleb128 0x2
 5614 07e1 55       		.byte	0x55
 5615 07e2 93       		.byte	0x93
 5616 07e3 02       		.uleb128 0x2
 5617 07e4 93       		.byte	0x93
 5618 07e5 08       		.uleb128 0x8
 5619 07e6 54       		.byte	0x54
 5620 07e7 93       		.byte	0x93
 5621 07e8 02       		.uleb128 0x2
 5622 07e9 93       		.byte	0x93
 5623 07ea 04       		.uleb128 0x4
 5624 07eb CC060000 		.4byte	.LVL137
 5625 07ef D4060000 		.4byte	.LVL139
 5626 07f3 0F00     		.2byte	0xf
 5627 07f5 93       		.byte	0x93
 5628 07f6 08       		.uleb128 0x8
 5629 07f7 50       		.byte	0x50
 5630 07f8 93       		.byte	0x93
 5631 07f9 02       		.uleb128 0x2
 5632 07fa 55       		.byte	0x55
 5633 07fb 93       		.byte	0x93
 5634 07fc 02       		.uleb128 0x2
 5635 07fd 93       		.byte	0x93
 5636 07fe 08       		.uleb128 0x8
 5637 07ff 54       		.byte	0x54
 5638 0800 93       		.byte	0x93
 5639 0801 02       		.uleb128 0x2
 5640 0802 93       		.byte	0x93
 5641 0803 04       		.uleb128 0x4
 5642 0804 D4060000 		.4byte	.LVL139
 5643 0808 E2060000 		.4byte	.LVL140
 5644 080c 0F00     		.2byte	0xf
 5645 080e 93       		.byte	0x93
 5646 080f 08       		.uleb128 0x8
 5647 0810 50       		.byte	0x50
 5648 0811 93       		.byte	0x93
 5649 0812 02       		.uleb128 0x2
 5650 0813 55       		.byte	0x55
 5651 0814 93       		.byte	0x93
 5652 0815 02       		.uleb128 0x2
 5653 0816 93       		.byte	0x93
 5654 0817 08       		.uleb128 0x8
 5655 0818 53       		.byte	0x53
 5656 0819 93       		.byte	0x93
 5657 081a 02       		.uleb128 0x2
 5658 081b 93       		.byte	0x93
 5659 081c 04       		.uleb128 0x4
 5660 081d E2060000 		.4byte	.LVL140
ARM GAS  C:\Users\pearlstl\AppData\Local\Temp\ccuP9Sbb.s 			page 118


 5661 0821 E6060000 		.4byte	.LVL141
 5662 0825 1400     		.2byte	0x14
 5663 0827 93       		.byte	0x93
 5664 0828 08       		.uleb128 0x8
 5665 0829 50       		.byte	0x50
 5666 082a 93       		.byte	0x93
 5667 082b 02       		.uleb128 0x2
 5668 082c 55       		.byte	0x55
 5669 082d 93       		.byte	0x93
 5670 082e 02       		.uleb128 0x2
 5671 082f 93       		.byte	0x93
 5672 0830 08       		.uleb128 0x8
 5673 0831 74       		.byte	0x74
 5674 0832 00       		.sleb128 0
 5675 0833 7A       		.byte	0x7a
 5676 0834 00       		.sleb128 0
 5677 0835 1C       		.byte	0x1c
 5678 0836 9F       		.byte	0x9f
 5679 0837 93       		.byte	0x93
 5680 0838 02       		.uleb128 0x2
 5681 0839 93       		.byte	0x93
 5682 083a 04       		.uleb128 0x4
 5683 083b E6060000 		.4byte	.LVL141
 5684 083f E8060000 		.4byte	.LVL142
 5685 0843 0F00     		.2byte	0xf
 5686 0845 93       		.byte	0x93
 5687 0846 08       		.uleb128 0x8
 5688 0847 50       		.byte	0x50
 5689 0848 93       		.byte	0x93
 5690 0849 02       		.uleb128 0x2
 5691 084a 55       		.byte	0x55
 5692 084b 93       		.byte	0x93
 5693 084c 02       		.uleb128 0x2
 5694 084d 93       		.byte	0x93
 5695 084e 08       		.uleb128 0x8
 5696 084f 53       		.byte	0x53
 5697 0850 93       		.byte	0x93
 5698 0851 02       		.uleb128 0x2
 5699 0852 93       		.byte	0x93
 5700 0853 04       		.uleb128 0x4
 5701 0854 E8060000 		.4byte	.LVL142
 5702 0858 FA060000 		.4byte	.LVL144
 5703 085c 1400     		.2byte	0x14
 5704 085e 93       		.byte	0x93
 5705 085f 08       		.uleb128 0x8
 5706 0860 50       		.byte	0x50
 5707 0861 93       		.byte	0x93
 5708 0862 02       		.uleb128 0x2
 5709 0863 55       		.byte	0x55
 5710 0864 93       		.byte	0x93
 5711 0865 02       		.uleb128 0x2
 5712 0866 93       		.byte	0x93
 5713 0867 08       		.uleb128 0x8
 5714 0868 74       		.byte	0x74
 5715 0869 00       		.sleb128 0
 5716 086a 7A       		.byte	0x7a
 5717 086b 00       		.sleb128 0
ARM GAS  C:\Users\pearlstl\AppData\Local\Temp\ccuP9Sbb.s 			page 119


 5718 086c 1C       		.byte	0x1c
 5719 086d 9F       		.byte	0x9f
 5720 086e 93       		.byte	0x93
 5721 086f 02       		.uleb128 0x2
 5722 0870 93       		.byte	0x93
 5723 0871 04       		.uleb128 0x4
 5724 0872 FA060000 		.4byte	.LVL144
 5725 0876 04070000 		.4byte	.LVL145
 5726 087a 0A00     		.2byte	0xa
 5727 087c 93       		.byte	0x93
 5728 087d 08       		.uleb128 0x8
 5729 087e 50       		.byte	0x50
 5730 087f 93       		.byte	0x93
 5731 0880 02       		.uleb128 0x2
 5732 0881 55       		.byte	0x55
 5733 0882 93       		.byte	0x93
 5734 0883 02       		.uleb128 0x2
 5735 0884 93       		.byte	0x93
 5736 0885 0E       		.uleb128 0xe
 5737 0886 46070000 		.4byte	.LVL147
 5738 088a 4A070000 		.4byte	.LVL148
 5739 088e 0F00     		.2byte	0xf
 5740 0890 93       		.byte	0x93
 5741 0891 08       		.uleb128 0x8
 5742 0892 50       		.byte	0x50
 5743 0893 93       		.byte	0x93
 5744 0894 02       		.uleb128 0x2
 5745 0895 55       		.byte	0x55
 5746 0896 93       		.byte	0x93
 5747 0897 02       		.uleb128 0x2
 5748 0898 93       		.byte	0x93
 5749 0899 08       		.uleb128 0x8
 5750 089a 53       		.byte	0x53
 5751 089b 93       		.byte	0x93
 5752 089c 02       		.uleb128 0x2
 5753 089d 93       		.byte	0x93
 5754 089e 04       		.uleb128 0x4
 5755 089f 4A070000 		.4byte	.LVL148
 5756 08a3 5A070000 		.4byte	.LVL149
 5757 08a7 0F00     		.2byte	0xf
 5758 08a9 93       		.byte	0x93
 5759 08aa 08       		.uleb128 0x8
 5760 08ab 50       		.byte	0x50
 5761 08ac 93       		.byte	0x93
 5762 08ad 02       		.uleb128 0x2
 5763 08ae 55       		.byte	0x55
 5764 08af 93       		.byte	0x93
 5765 08b0 02       		.uleb128 0x2
 5766 08b1 93       		.byte	0x93
 5767 08b2 08       		.uleb128 0x8
 5768 08b3 54       		.byte	0x54
 5769 08b4 93       		.byte	0x93
 5770 08b5 02       		.uleb128 0x2
 5771 08b6 93       		.byte	0x93
 5772 08b7 04       		.uleb128 0x4
 5773 08b8 5A070000 		.4byte	.LVL149
 5774 08bc 6C070000 		.4byte	.LVL150
ARM GAS  C:\Users\pearlstl\AppData\Local\Temp\ccuP9Sbb.s 			page 120


 5775 08c0 0F00     		.2byte	0xf
 5776 08c2 93       		.byte	0x93
 5777 08c3 08       		.uleb128 0x8
 5778 08c4 50       		.byte	0x50
 5779 08c5 93       		.byte	0x93
 5780 08c6 02       		.uleb128 0x2
 5781 08c7 51       		.byte	0x51
 5782 08c8 93       		.byte	0x93
 5783 08c9 02       		.uleb128 0x2
 5784 08ca 93       		.byte	0x93
 5785 08cb 08       		.uleb128 0x8
 5786 08cc 54       		.byte	0x54
 5787 08cd 93       		.byte	0x93
 5788 08ce 02       		.uleb128 0x2
 5789 08cf 93       		.byte	0x93
 5790 08d0 04       		.uleb128 0x4
 5791 08d1 6C070000 		.4byte	.LVL150
 5792 08d5 70070000 		.4byte	.LVL151
 5793 08d9 0A00     		.2byte	0xa
 5794 08db 93       		.byte	0x93
 5795 08dc 08       		.uleb128 0x8
 5796 08dd 50       		.byte	0x50
 5797 08de 93       		.byte	0x93
 5798 08df 02       		.uleb128 0x2
 5799 08e0 51       		.byte	0x51
 5800 08e1 93       		.byte	0x93
 5801 08e2 02       		.uleb128 0x2
 5802 08e3 93       		.byte	0x93
 5803 08e4 0E       		.uleb128 0xe
 5804 08e5 70070000 		.4byte	.LVL151
 5805 08e9 EE070000 		.4byte	.LVL155
 5806 08ed 0700     		.2byte	0x7
 5807 08ef 93       		.byte	0x93
 5808 08f0 0A       		.uleb128 0xa
 5809 08f1 5A       		.byte	0x5a
 5810 08f2 93       		.byte	0x93
 5811 08f3 02       		.uleb128 0x2
 5812 08f4 93       		.byte	0x93
 5813 08f5 0E       		.uleb128 0xe
 5814 08f6 F6070000 		.4byte	.LVL156
 5815 08fa 02080000 		.4byte	.LVL157
 5816 08fe 1400     		.2byte	0x14
 5817 0900 93       		.byte	0x93
 5818 0901 08       		.uleb128 0x8
 5819 0902 50       		.byte	0x50
 5820 0903 93       		.byte	0x93
 5821 0904 02       		.uleb128 0x2
 5822 0905 55       		.byte	0x55
 5823 0906 93       		.byte	0x93
 5824 0907 02       		.uleb128 0x2
 5825 0908 93       		.byte	0x93
 5826 0909 08       		.uleb128 0x8
 5827 090a 74       		.byte	0x74
 5828 090b 00       		.sleb128 0
 5829 090c 7A       		.byte	0x7a
 5830 090d 00       		.sleb128 0
 5831 090e 1C       		.byte	0x1c
ARM GAS  C:\Users\pearlstl\AppData\Local\Temp\ccuP9Sbb.s 			page 121


 5832 090f 9F       		.byte	0x9f
 5833 0910 93       		.byte	0x93
 5834 0911 02       		.uleb128 0x2
 5835 0912 93       		.byte	0x93
 5836 0913 04       		.uleb128 0x4
 5837 0914 02080000 		.4byte	.LVL157
 5838 0918 08080000 		.4byte	.LVL158
 5839 091c 0A00     		.2byte	0xa
 5840 091e 93       		.byte	0x93
 5841 091f 08       		.uleb128 0x8
 5842 0920 50       		.byte	0x50
 5843 0921 93       		.byte	0x93
 5844 0922 02       		.uleb128 0x2
 5845 0923 55       		.byte	0x55
 5846 0924 93       		.byte	0x93
 5847 0925 02       		.uleb128 0x2
 5848 0926 93       		.byte	0x93
 5849 0927 0E       		.uleb128 0xe
 5850 0928 80080000 		.4byte	.LVL162
 5851 092c 8E080000 		.4byte	.LVL163
 5852 0930 2700     		.2byte	0x27
 5853 0932 93       		.byte	0x93
 5854 0933 08       		.uleb128 0x8
 5855 0934 56       		.byte	0x56
 5856 0935 93       		.byte	0x93
 5857 0936 02       		.uleb128 0x2
 5858 0937 55       		.byte	0x55
 5859 0938 93       		.byte	0x93
 5860 0939 02       		.uleb128 0x2
 5861 093a 59       		.byte	0x59
 5862 093b 93       		.byte	0x93
 5863 093c 02       		.uleb128 0x2
 5864 093d 93       		.byte	0x93
 5865 093e 02       		.uleb128 0x2
 5866 093f 5B       		.byte	0x5b
 5867 0940 93       		.byte	0x93
 5868 0941 02       		.uleb128 0x2
 5869 0942 93       		.byte	0x93
 5870 0943 02       		.uleb128 0x2
 5871 0944 91       		.byte	0x91
 5872 0945 A07F     		.sleb128 -96
 5873 0947 93       		.byte	0x93
 5874 0948 02       		.uleb128 0x2
 5875 0949 93       		.byte	0x93
 5876 094a 02       		.uleb128 0x2
 5877 094b 79       		.byte	0x79
 5878 094c 00       		.sleb128 0
 5879 094d 40       		.byte	0x40
 5880 094e 24       		.byte	0x24
 5881 094f 7B       		.byte	0x7b
 5882 0950 00       		.sleb128 0
 5883 0951 40       		.byte	0x40
 5884 0952 24       		.byte	0x24
 5885 0953 2B       		.byte	0x2b
 5886 0954 9F       		.byte	0x9f
 5887 0955 93       		.byte	0x93
 5888 0956 01       		.uleb128 0x1
ARM GAS  C:\Users\pearlstl\AppData\Local\Temp\ccuP9Sbb.s 			page 122


 5889 0957 93       		.byte	0x93
 5890 0958 01       		.uleb128 0x1
 5891 0959 8E080000 		.4byte	.LVL163
 5892 095d D6080000 		.4byte	.LVL167
 5893 0961 2400     		.2byte	0x24
 5894 0963 93       		.byte	0x93
 5895 0964 0A       		.uleb128 0xa
 5896 0965 55       		.byte	0x55
 5897 0966 93       		.byte	0x93
 5898 0967 02       		.uleb128 0x2
 5899 0968 59       		.byte	0x59
 5900 0969 93       		.byte	0x93
 5901 096a 02       		.uleb128 0x2
 5902 096b 93       		.byte	0x93
 5903 096c 02       		.uleb128 0x2
 5904 096d 5B       		.byte	0x5b
 5905 096e 93       		.byte	0x93
 5906 096f 02       		.uleb128 0x2
 5907 0970 93       		.byte	0x93
 5908 0971 02       		.uleb128 0x2
 5909 0972 91       		.byte	0x91
 5910 0973 A07F     		.sleb128 -96
 5911 0975 93       		.byte	0x93
 5912 0976 02       		.uleb128 0x2
 5913 0977 93       		.byte	0x93
 5914 0978 02       		.uleb128 0x2
 5915 0979 79       		.byte	0x79
 5916 097a 00       		.sleb128 0
 5917 097b 40       		.byte	0x40
 5918 097c 24       		.byte	0x24
 5919 097d 7B       		.byte	0x7b
 5920 097e 00       		.sleb128 0
 5921 097f 40       		.byte	0x40
 5922 0980 24       		.byte	0x24
 5923 0981 2B       		.byte	0x2b
 5924 0982 9F       		.byte	0x9f
 5925 0983 93       		.byte	0x93
 5926 0984 01       		.uleb128 0x1
 5927 0985 93       		.byte	0x93
 5928 0986 01       		.uleb128 0x1
 5929 0987 D6080000 		.4byte	.LVL167
 5930 098b EE080000 		.4byte	.LVL169
 5931 098f 2100     		.2byte	0x21
 5932 0991 93       		.byte	0x93
 5933 0992 0C       		.uleb128 0xc
 5934 0993 59       		.byte	0x59
 5935 0994 93       		.byte	0x93
 5936 0995 02       		.uleb128 0x2
 5937 0996 93       		.byte	0x93
 5938 0997 02       		.uleb128 0x2
 5939 0998 5B       		.byte	0x5b
 5940 0999 93       		.byte	0x93
 5941 099a 02       		.uleb128 0x2
 5942 099b 93       		.byte	0x93
 5943 099c 02       		.uleb128 0x2
 5944 099d 91       		.byte	0x91
 5945 099e A07F     		.sleb128 -96
ARM GAS  C:\Users\pearlstl\AppData\Local\Temp\ccuP9Sbb.s 			page 123


 5946 09a0 93       		.byte	0x93
 5947 09a1 02       		.uleb128 0x2
 5948 09a2 93       		.byte	0x93
 5949 09a3 02       		.uleb128 0x2
 5950 09a4 79       		.byte	0x79
 5951 09a5 00       		.sleb128 0
 5952 09a6 40       		.byte	0x40
 5953 09a7 24       		.byte	0x24
 5954 09a8 7B       		.byte	0x7b
 5955 09a9 00       		.sleb128 0
 5956 09aa 40       		.byte	0x40
 5957 09ab 24       		.byte	0x24
 5958 09ac 2B       		.byte	0x2b
 5959 09ad 9F       		.byte	0x9f
 5960 09ae 93       		.byte	0x93
 5961 09af 01       		.uleb128 0x1
 5962 09b0 93       		.byte	0x93
 5963 09b1 01       		.uleb128 0x1
 5964 09b2 EE080000 		.4byte	.LVL169
 5965 09b6 FA080000 		.4byte	.LVL170
 5966 09ba 2700     		.2byte	0x27
 5967 09bc 93       		.byte	0x93
 5968 09bd 08       		.uleb128 0x8
 5969 09be 56       		.byte	0x56
 5970 09bf 93       		.byte	0x93
 5971 09c0 02       		.uleb128 0x2
 5972 09c1 55       		.byte	0x55
 5973 09c2 93       		.byte	0x93
 5974 09c3 02       		.uleb128 0x2
 5975 09c4 59       		.byte	0x59
 5976 09c5 93       		.byte	0x93
 5977 09c6 02       		.uleb128 0x2
 5978 09c7 93       		.byte	0x93
 5979 09c8 02       		.uleb128 0x2
 5980 09c9 5B       		.byte	0x5b
 5981 09ca 93       		.byte	0x93
 5982 09cb 02       		.uleb128 0x2
 5983 09cc 93       		.byte	0x93
 5984 09cd 02       		.uleb128 0x2
 5985 09ce 91       		.byte	0x91
 5986 09cf A07F     		.sleb128 -96
 5987 09d1 93       		.byte	0x93
 5988 09d2 02       		.uleb128 0x2
 5989 09d3 93       		.byte	0x93
 5990 09d4 02       		.uleb128 0x2
 5991 09d5 79       		.byte	0x79
 5992 09d6 00       		.sleb128 0
 5993 09d7 40       		.byte	0x40
 5994 09d8 24       		.byte	0x24
 5995 09d9 7B       		.byte	0x7b
 5996 09da 00       		.sleb128 0
 5997 09db 40       		.byte	0x40
 5998 09dc 24       		.byte	0x24
 5999 09dd 2B       		.byte	0x2b
 6000 09de 9F       		.byte	0x9f
 6001 09df 93       		.byte	0x93
 6002 09e0 01       		.uleb128 0x1
ARM GAS  C:\Users\pearlstl\AppData\Local\Temp\ccuP9Sbb.s 			page 124


 6003 09e1 93       		.byte	0x93
 6004 09e2 01       		.uleb128 0x1
 6005 09e3 FA080000 		.4byte	.LVL170
 6006 09e7 44090000 		.4byte	.LVL182
 6007 09eb 2600     		.2byte	0x26
 6008 09ed 93       		.byte	0x93
 6009 09ee 08       		.uleb128 0x8
 6010 09ef 56       		.byte	0x56
 6011 09f0 93       		.byte	0x93
 6012 09f1 02       		.uleb128 0x2
 6013 09f2 93       		.byte	0x93
 6014 09f3 02       		.uleb128 0x2
 6015 09f4 59       		.byte	0x59
 6016 09f5 93       		.byte	0x93
 6017 09f6 02       		.uleb128 0x2
 6018 09f7 93       		.byte	0x93
 6019 09f8 02       		.uleb128 0x2
 6020 09f9 5B       		.byte	0x5b
 6021 09fa 93       		.byte	0x93
 6022 09fb 02       		.uleb128 0x2
 6023 09fc 93       		.byte	0x93
 6024 09fd 02       		.uleb128 0x2
 6025 09fe 91       		.byte	0x91
 6026 09ff A07F     		.sleb128 -96
 6027 0a01 93       		.byte	0x93
 6028 0a02 02       		.uleb128 0x2
 6029 0a03 93       		.byte	0x93
 6030 0a04 02       		.uleb128 0x2
 6031 0a05 79       		.byte	0x79
 6032 0a06 00       		.sleb128 0
 6033 0a07 40       		.byte	0x40
 6034 0a08 24       		.byte	0x24
 6035 0a09 7B       		.byte	0x7b
 6036 0a0a 00       		.sleb128 0
 6037 0a0b 40       		.byte	0x40
 6038 0a0c 24       		.byte	0x24
 6039 0a0d 2B       		.byte	0x2b
 6040 0a0e 9F       		.byte	0x9f
 6041 0a0f 93       		.byte	0x93
 6042 0a10 01       		.uleb128 0x1
 6043 0a11 93       		.byte	0x93
 6044 0a12 01       		.uleb128 0x1
 6045 0a13 44090000 		.4byte	.LVL182
 6046 0a17 5C090000 		.4byte	.LVL185
 6047 0a1b 2100     		.2byte	0x21
 6048 0a1d 93       		.byte	0x93
 6049 0a1e 0C       		.uleb128 0xc
 6050 0a1f 59       		.byte	0x59
 6051 0a20 93       		.byte	0x93
 6052 0a21 02       		.uleb128 0x2
 6053 0a22 93       		.byte	0x93
 6054 0a23 02       		.uleb128 0x2
 6055 0a24 5B       		.byte	0x5b
 6056 0a25 93       		.byte	0x93
 6057 0a26 02       		.uleb128 0x2
 6058 0a27 93       		.byte	0x93
 6059 0a28 02       		.uleb128 0x2
ARM GAS  C:\Users\pearlstl\AppData\Local\Temp\ccuP9Sbb.s 			page 125


 6060 0a29 91       		.byte	0x91
 6061 0a2a A07F     		.sleb128 -96
 6062 0a2c 93       		.byte	0x93
 6063 0a2d 02       		.uleb128 0x2
 6064 0a2e 93       		.byte	0x93
 6065 0a2f 02       		.uleb128 0x2
 6066 0a30 79       		.byte	0x79
 6067 0a31 00       		.sleb128 0
 6068 0a32 40       		.byte	0x40
 6069 0a33 24       		.byte	0x24
 6070 0a34 7B       		.byte	0x7b
 6071 0a35 00       		.sleb128 0
 6072 0a36 40       		.byte	0x40
 6073 0a37 24       		.byte	0x24
 6074 0a38 2B       		.byte	0x2b
 6075 0a39 9F       		.byte	0x9f
 6076 0a3a 93       		.byte	0x93
 6077 0a3b 01       		.uleb128 0x1
 6078 0a3c 93       		.byte	0x93
 6079 0a3d 01       		.uleb128 0x1
 6080 0a3e 5C090000 		.4byte	.LVL185
 6081 0a42 EA090000 		.4byte	.LVL193
 6082 0a46 0900     		.2byte	0x9
 6083 0a48 93       		.byte	0x93
 6084 0a49 14       		.uleb128 0x14
 6085 0a4a 91       		.byte	0x91
 6086 0a4b A07F     		.sleb128 -96
 6087 0a4d 93       		.byte	0x93
 6088 0a4e 02       		.uleb128 0x2
 6089 0a4f 93       		.byte	0x93
 6090 0a50 04       		.uleb128 0x4
 6091 0a51 EA090000 		.4byte	.LVL193
 6092 0a55 F0090000 		.4byte	.LVL194
 6093 0a59 1400     		.2byte	0x14
 6094 0a5b 91       		.byte	0x91
 6095 0a5c 847F     		.sleb128 -124
 6096 0a5e 93       		.byte	0x93
 6097 0a5f 02       		.uleb128 0x2
 6098 0a60 91       		.byte	0x91
 6099 0a61 887F     		.sleb128 -120
 6100 0a63 93       		.byte	0x93
 6101 0a64 02       		.uleb128 0x2
 6102 0a65 56       		.byte	0x56
 6103 0a66 93       		.byte	0x93
 6104 0a67 02       		.uleb128 0x2
 6105 0a68 93       		.byte	0x93
 6106 0a69 06       		.uleb128 0x6
 6107 0a6a 59       		.byte	0x59
 6108 0a6b 93       		.byte	0x93
 6109 0a6c 02       		.uleb128 0x2
 6110 0a6d 93       		.byte	0x93
 6111 0a6e 0C       		.uleb128 0xc
 6112 0a6f F0090000 		.4byte	.LVL194
 6113 0a73 F4090000 		.4byte	.LVL195
 6114 0a77 1100     		.2byte	0x11
 6115 0a79 93       		.byte	0x93
 6116 0a7a 02       		.uleb128 0x2
ARM GAS  C:\Users\pearlstl\AppData\Local\Temp\ccuP9Sbb.s 			page 126


 6117 0a7b 91       		.byte	0x91
 6118 0a7c 887F     		.sleb128 -120
 6119 0a7e 93       		.byte	0x93
 6120 0a7f 02       		.uleb128 0x2
 6121 0a80 56       		.byte	0x56
 6122 0a81 93       		.byte	0x93
 6123 0a82 02       		.uleb128 0x2
 6124 0a83 93       		.byte	0x93
 6125 0a84 06       		.uleb128 0x6
 6126 0a85 59       		.byte	0x59
 6127 0a86 93       		.byte	0x93
 6128 0a87 02       		.uleb128 0x2
 6129 0a88 93       		.byte	0x93
 6130 0a89 0C       		.uleb128 0xc
 6131 0a8a F4090000 		.4byte	.LVL195
 6132 0a8e F6090000 		.4byte	.LVL196
 6133 0a92 0C00     		.2byte	0xc
 6134 0a94 93       		.byte	0x93
 6135 0a95 04       		.uleb128 0x4
 6136 0a96 56       		.byte	0x56
 6137 0a97 93       		.byte	0x93
 6138 0a98 02       		.uleb128 0x2
 6139 0a99 93       		.byte	0x93
 6140 0a9a 06       		.uleb128 0x6
 6141 0a9b 59       		.byte	0x59
 6142 0a9c 93       		.byte	0x93
 6143 0a9d 02       		.uleb128 0x2
 6144 0a9e 93       		.byte	0x93
 6145 0a9f 0C       		.uleb128 0xc
 6146 0aa0 F6090000 		.4byte	.LVL196
 6147 0aa4 FC090000 		.4byte	.LVL197
 6148 0aa8 0700     		.2byte	0x7
 6149 0aaa 93       		.byte	0x93
 6150 0aab 0C       		.uleb128 0xc
 6151 0aac 59       		.byte	0x59
 6152 0aad 93       		.byte	0x93
 6153 0aae 02       		.uleb128 0x2
 6154 0aaf 93       		.byte	0x93
 6155 0ab0 0C       		.uleb128 0xc
 6156 0ab1 FC090000 		.4byte	.LVL197
 6157 0ab5 000A0000 		.4byte	.LVL198
 6158 0ab9 0C00     		.2byte	0xc
 6159 0abb 93       		.byte	0x93
 6160 0abc 0C       		.uleb128 0xc
 6161 0abd 59       		.byte	0x59
 6162 0abe 93       		.byte	0x93
 6163 0abf 02       		.uleb128 0x2
 6164 0ac0 93       		.byte	0x93
 6165 0ac1 02       		.uleb128 0x2
 6166 0ac2 5B       		.byte	0x5b
 6167 0ac3 93       		.byte	0x93
 6168 0ac4 02       		.uleb128 0x2
 6169 0ac5 93       		.byte	0x93
 6170 0ac6 08       		.uleb128 0x8
 6171 0ac7 000A0000 		.4byte	.LVL198
 6172 0acb 0A0A0000 		.4byte	.LFE32
 6173 0acf 2700     		.2byte	0x27
ARM GAS  C:\Users\pearlstl\AppData\Local\Temp\ccuP9Sbb.s 			page 127


 6174 0ad1 93       		.byte	0x93
 6175 0ad2 08       		.uleb128 0x8
 6176 0ad3 56       		.byte	0x56
 6177 0ad4 93       		.byte	0x93
 6178 0ad5 02       		.uleb128 0x2
 6179 0ad6 55       		.byte	0x55
 6180 0ad7 93       		.byte	0x93
 6181 0ad8 02       		.uleb128 0x2
 6182 0ad9 59       		.byte	0x59
 6183 0ada 93       		.byte	0x93
 6184 0adb 02       		.uleb128 0x2
 6185 0adc 93       		.byte	0x93
 6186 0add 02       		.uleb128 0x2
 6187 0ade 5B       		.byte	0x5b
 6188 0adf 93       		.byte	0x93
 6189 0ae0 02       		.uleb128 0x2
 6190 0ae1 93       		.byte	0x93
 6191 0ae2 02       		.uleb128 0x2
 6192 0ae3 91       		.byte	0x91
 6193 0ae4 A07F     		.sleb128 -96
 6194 0ae6 93       		.byte	0x93
 6195 0ae7 02       		.uleb128 0x2
 6196 0ae8 93       		.byte	0x93
 6197 0ae9 02       		.uleb128 0x2
 6198 0aea 79       		.byte	0x79
 6199 0aeb 00       		.sleb128 0
 6200 0aec 40       		.byte	0x40
 6201 0aed 24       		.byte	0x24
 6202 0aee 7B       		.byte	0x7b
 6203 0aef 00       		.sleb128 0
 6204 0af0 40       		.byte	0x40
 6205 0af1 24       		.byte	0x24
 6206 0af2 2B       		.byte	0x2b
 6207 0af3 9F       		.byte	0x9f
 6208 0af4 93       		.byte	0x93
 6209 0af5 01       		.uleb128 0x1
 6210 0af6 93       		.byte	0x93
 6211 0af7 01       		.uleb128 0x1
 6212 0af8 00000000 		.4byte	0
 6213 0afc 00000000 		.4byte	0
 6214              	.LLST6:
 6215 0b00 96000000 		.4byte	.LVL5
 6216 0b04 A8000000 		.4byte	.LVL7
 6217 0b08 0500     		.2byte	0x5
 6218 0b0a 56       		.byte	0x56
 6219 0b0b 93       		.byte	0x93
 6220 0b0c 02       		.uleb128 0x2
 6221 0b0d 93       		.byte	0x93
 6222 0b0e 02       		.uleb128 0x2
 6223 0b0f 66020000 		.4byte	.LVL51
 6224 0b13 74020000 		.4byte	.LVL53
 6225 0b17 0A00     		.2byte	0xa
 6226 0b19 91       		.byte	0x91
 6227 0b1a 847F     		.sleb128 -124
 6228 0b1c 93       		.byte	0x93
 6229 0b1d 02       		.uleb128 0x2
 6230 0b1e 91       		.byte	0x91
ARM GAS  C:\Users\pearlstl\AppData\Local\Temp\ccuP9Sbb.s 			page 128


 6231 0b1f 887F     		.sleb128 -120
 6232 0b21 93       		.byte	0x93
 6233 0b22 02       		.uleb128 0x2
 6234 0b23 74020000 		.4byte	.LVL53
 6235 0b27 7E020000 		.4byte	.LVL54
 6236 0b2b 0700     		.2byte	0x7
 6237 0b2d 91       		.byte	0x91
 6238 0b2e 847F     		.sleb128 -124
 6239 0b30 93       		.byte	0x93
 6240 0b31 02       		.uleb128 0x2
 6241 0b32 93       		.byte	0x93
 6242 0b33 02       		.uleb128 0x2
 6243 0b34 C8020000 		.4byte	.LVL60
 6244 0b38 CA020000 		.4byte	.LVL61
 6245 0b3c 0500     		.2byte	0x5
 6246 0b3e 93       		.byte	0x93
 6247 0b3f 02       		.uleb128 0x2
 6248 0b40 55       		.byte	0x55
 6249 0b41 93       		.byte	0x93
 6250 0b42 02       		.uleb128 0x2
 6251 0b43 EA090000 		.4byte	.LVL193
 6252 0b47 F0090000 		.4byte	.LVL194
 6253 0b4b 0A00     		.2byte	0xa
 6254 0b4d 91       		.byte	0x91
 6255 0b4e 847F     		.sleb128 -124
 6256 0b50 93       		.byte	0x93
 6257 0b51 02       		.uleb128 0x2
 6258 0b52 91       		.byte	0x91
 6259 0b53 887F     		.sleb128 -120
 6260 0b55 93       		.byte	0x93
 6261 0b56 02       		.uleb128 0x2
 6262 0b57 F0090000 		.4byte	.LVL194
 6263 0b5b F4090000 		.4byte	.LVL195
 6264 0b5f 0700     		.2byte	0x7
 6265 0b61 93       		.byte	0x93
 6266 0b62 02       		.uleb128 0x2
 6267 0b63 91       		.byte	0x91
 6268 0b64 887F     		.sleb128 -120
 6269 0b66 93       		.byte	0x93
 6270 0b67 02       		.uleb128 0x2
 6271 0b68 00000000 		.4byte	0
 6272 0b6c 00000000 		.4byte	0
 6273              	.LLST7:
 6274 0b70 96000000 		.4byte	.LVL5
 6275 0b74 A8000000 		.4byte	.LVL7
 6276 0b78 0A00     		.2byte	0xa
 6277 0b7a 91       		.byte	0x91
 6278 0b7b 847F     		.sleb128 -124
 6279 0b7d 93       		.byte	0x93
 6280 0b7e 02       		.uleb128 0x2
 6281 0b7f 91       		.byte	0x91
 6282 0b80 887F     		.sleb128 -120
 6283 0b82 93       		.byte	0x93
 6284 0b83 02       		.uleb128 0x2
 6285 0b84 66020000 		.4byte	.LVL51
 6286 0b88 82020000 		.4byte	.LVL55
 6287 0b8c 0500     		.2byte	0x5
ARM GAS  C:\Users\pearlstl\AppData\Local\Temp\ccuP9Sbb.s 			page 129


 6288 0b8e 56       		.byte	0x56
 6289 0b8f 93       		.byte	0x93
 6290 0b90 02       		.uleb128 0x2
 6291 0b91 93       		.byte	0x93
 6292 0b92 02       		.uleb128 0x2
 6293 0b93 EA090000 		.4byte	.LVL193
 6294 0b97 F6090000 		.4byte	.LVL196
 6295 0b9b 0500     		.2byte	0x5
 6296 0b9d 56       		.byte	0x56
 6297 0b9e 93       		.byte	0x93
 6298 0b9f 02       		.uleb128 0x2
 6299 0ba0 93       		.byte	0x93
 6300 0ba1 02       		.uleb128 0x2
 6301 0ba2 00000000 		.4byte	0
 6302 0ba6 00000000 		.4byte	0
 6303              	.LLST8:
 6304 0baa 96000000 		.4byte	.LVL5
 6305 0bae CE000000 		.4byte	.LVL9
 6306 0bb2 0600     		.2byte	0x6
 6307 0bb4 F2       		.byte	0xf2
 6308 0bb5 5C090000 		.4byte	.Ldebug_info0+2396
 6309 0bb9 00       		.sleb128 0
 6310 0bba 66020000 		.4byte	.LVL51
 6311 0bbe 94020000 		.4byte	.LVL57
 6312 0bc2 0600     		.2byte	0x6
 6313 0bc4 F2       		.byte	0xf2
 6314 0bc5 5C090000 		.4byte	.Ldebug_info0+2396
 6315 0bc9 00       		.sleb128 0
 6316 0bca C8020000 		.4byte	.LVL60
 6317 0bce CA020000 		.4byte	.LVL61
 6318 0bd2 0600     		.2byte	0x6
 6319 0bd4 F2       		.byte	0xf2
 6320 0bd5 5C090000 		.4byte	.Ldebug_info0+2396
 6321 0bd9 00       		.sleb128 0
 6322 0bda EA090000 		.4byte	.LVL193
 6323 0bde 000A0000 		.4byte	.LVL198
 6324 0be2 0600     		.2byte	0x6
 6325 0be4 F2       		.byte	0xf2
 6326 0be5 5C090000 		.4byte	.Ldebug_info0+2396
 6327 0be9 00       		.sleb128 0
 6328 0bea 00000000 		.4byte	0
 6329 0bee 00000000 		.4byte	0
 6330              	.LLST9:
 6331 0bf2 96000000 		.4byte	.LVL5
 6332 0bf6 CE000000 		.4byte	.LVL9
 6333 0bfa 0600     		.2byte	0x6
 6334 0bfc F2       		.byte	0xf2
 6335 0bfd 4E090000 		.4byte	.Ldebug_info0+2382
 6336 0c01 00       		.sleb128 0
 6337 0c02 66020000 		.4byte	.LVL51
 6338 0c06 94020000 		.4byte	.LVL57
 6339 0c0a 0600     		.2byte	0x6
 6340 0c0c F2       		.byte	0xf2
 6341 0c0d 4E090000 		.4byte	.Ldebug_info0+2382
 6342 0c11 00       		.sleb128 0
 6343 0c12 C8020000 		.4byte	.LVL60
 6344 0c16 CA020000 		.4byte	.LVL61
ARM GAS  C:\Users\pearlstl\AppData\Local\Temp\ccuP9Sbb.s 			page 130


 6345 0c1a 0600     		.2byte	0x6
 6346 0c1c F2       		.byte	0xf2
 6347 0c1d 4E090000 		.4byte	.Ldebug_info0+2382
 6348 0c21 00       		.sleb128 0
 6349 0c22 EA090000 		.4byte	.LVL193
 6350 0c26 000A0000 		.4byte	.LVL198
 6351 0c2a 0600     		.2byte	0x6
 6352 0c2c F2       		.byte	0xf2
 6353 0c2d 4E090000 		.4byte	.Ldebug_info0+2382
 6354 0c31 00       		.sleb128 0
 6355 0c32 00000000 		.4byte	0
 6356 0c36 00000000 		.4byte	0
 6357              	.LLST10:
 6358 0c3a 96000000 		.4byte	.LVL5
 6359 0c3e CE000000 		.4byte	.LVL9
 6360 0c42 0600     		.2byte	0x6
 6361 0c44 F2       		.byte	0xf2
 6362 0c45 3F090000 		.4byte	.Ldebug_info0+2367
 6363 0c49 00       		.sleb128 0
 6364 0c4a 66020000 		.4byte	.LVL51
 6365 0c4e 94020000 		.4byte	.LVL57
 6366 0c52 0600     		.2byte	0x6
 6367 0c54 F2       		.byte	0xf2
 6368 0c55 3F090000 		.4byte	.Ldebug_info0+2367
 6369 0c59 00       		.sleb128 0
 6370 0c5a C8020000 		.4byte	.LVL60
 6371 0c5e CA020000 		.4byte	.LVL61
 6372 0c62 0600     		.2byte	0x6
 6373 0c64 F2       		.byte	0xf2
 6374 0c65 3F090000 		.4byte	.Ldebug_info0+2367
 6375 0c69 00       		.sleb128 0
 6376 0c6a EA090000 		.4byte	.LVL193
 6377 0c6e 000A0000 		.4byte	.LVL198
 6378 0c72 0600     		.2byte	0x6
 6379 0c74 F2       		.byte	0xf2
 6380 0c75 3F090000 		.4byte	.Ldebug_info0+2367
 6381 0c79 00       		.sleb128 0
 6382 0c7a 00000000 		.4byte	0
 6383 0c7e 00000000 		.4byte	0
 6384              	.LLST11:
 6385 0c82 DE000000 		.4byte	.LVL11
 6386 0c86 2E020000 		.4byte	.LVL49
 6387 0c8a 0200     		.2byte	0x2
 6388 0c8c 30       		.byte	0x30
 6389 0c8d 9F       		.byte	0x9f
 6390 0c8e 94020000 		.4byte	.LVL57
 6391 0c92 A2020000 		.4byte	.LVL59
 6392 0c96 0200     		.2byte	0x2
 6393 0c98 30       		.byte	0x30
 6394 0c99 9F       		.byte	0x9f
 6395 0c9a CA020000 		.4byte	.LVL61
 6396 0c9e 80080000 		.4byte	.LVL162
 6397 0ca2 0200     		.2byte	0x2
 6398 0ca4 30       		.byte	0x30
 6399 0ca5 9F       		.byte	0x9f
 6400 0ca6 5C090000 		.4byte	.LVL185
 6401 0caa EA090000 		.4byte	.LVL193
ARM GAS  C:\Users\pearlstl\AppData\Local\Temp\ccuP9Sbb.s 			page 131


 6402 0cae 0200     		.2byte	0x2
 6403 0cb0 30       		.byte	0x30
 6404 0cb1 9F       		.byte	0x9f
 6405 0cb2 000A0000 		.4byte	.LVL198
 6406 0cb6 0A0A0000 		.4byte	.LFE32
 6407 0cba 0200     		.2byte	0x2
 6408 0cbc 30       		.byte	0x30
 6409 0cbd 9F       		.byte	0x9f
 6410 0cbe 00000000 		.4byte	0
 6411 0cc2 00000000 		.4byte	0
 6412              	.LLST12:
 6413 0cc6 EE000000 		.4byte	.LVL13
 6414 0cca 2E020000 		.4byte	.LVL49
 6415 0cce 0200     		.2byte	0x2
 6416 0cd0 30       		.byte	0x30
 6417 0cd1 9F       		.byte	0x9f
 6418 0cd2 94020000 		.4byte	.LVL57
 6419 0cd6 A2020000 		.4byte	.LVL59
 6420 0cda 0200     		.2byte	0x2
 6421 0cdc 30       		.byte	0x30
 6422 0cdd 9F       		.byte	0x9f
 6423 0cde CA020000 		.4byte	.LVL61
 6424 0ce2 80080000 		.4byte	.LVL162
 6425 0ce6 0200     		.2byte	0x2
 6426 0ce8 30       		.byte	0x30
 6427 0ce9 9F       		.byte	0x9f
 6428 0cea 5C090000 		.4byte	.LVL185
 6429 0cee EA090000 		.4byte	.LVL193
 6430 0cf2 0200     		.2byte	0x2
 6431 0cf4 30       		.byte	0x30
 6432 0cf5 9F       		.byte	0x9f
 6433 0cf6 000A0000 		.4byte	.LVL198
 6434 0cfa 0A0A0000 		.4byte	.LFE32
 6435 0cfe 0200     		.2byte	0x2
 6436 0d00 30       		.byte	0x30
 6437 0d01 9F       		.byte	0x9f
 6438 0d02 00000000 		.4byte	0
 6439 0d06 00000000 		.4byte	0
 6440              	.LLST13:
 6441 0d0a EE000000 		.4byte	.LVL13
 6442 0d0e 00010000 		.4byte	.LVL16
 6443 0d12 0400     		.2byte	0x4
 6444 0d14 72       		.byte	0x72
 6445 0d15 B87F     		.sleb128 -72
 6446 0d17 9F       		.byte	0x9f
 6447 0d18 00010000 		.4byte	.LVL16
 6448 0d1c 2E020000 		.4byte	.LVL49
 6449 0d20 0800     		.2byte	0x8
 6450 0d22 91       		.byte	0x91
 6451 0d23 987F     		.sleb128 -104
 6452 0d25 06       		.byte	0x6
 6453 0d26 08       		.byte	0x8
 6454 0d27 48       		.byte	0x48
 6455 0d28 1C       		.byte	0x1c
 6456 0d29 9F       		.byte	0x9f
 6457 0d2a 94020000 		.4byte	.LVL57
 6458 0d2e A2020000 		.4byte	.LVL59
ARM GAS  C:\Users\pearlstl\AppData\Local\Temp\ccuP9Sbb.s 			page 132


 6459 0d32 0800     		.2byte	0x8
 6460 0d34 91       		.byte	0x91
 6461 0d35 987F     		.sleb128 -104
 6462 0d37 06       		.byte	0x6
 6463 0d38 08       		.byte	0x8
 6464 0d39 48       		.byte	0x48
 6465 0d3a 1C       		.byte	0x1c
 6466 0d3b 9F       		.byte	0x9f
 6467 0d3c CA020000 		.4byte	.LVL61
 6468 0d40 80080000 		.4byte	.LVL162
 6469 0d44 0800     		.2byte	0x8
 6470 0d46 91       		.byte	0x91
 6471 0d47 987F     		.sleb128 -104
 6472 0d49 06       		.byte	0x6
 6473 0d4a 08       		.byte	0x8
 6474 0d4b 48       		.byte	0x48
 6475 0d4c 1C       		.byte	0x1c
 6476 0d4d 9F       		.byte	0x9f
 6477 0d4e 5C090000 		.4byte	.LVL185
 6478 0d52 EA090000 		.4byte	.LVL193
 6479 0d56 0800     		.2byte	0x8
 6480 0d58 91       		.byte	0x91
 6481 0d59 987F     		.sleb128 -104
 6482 0d5b 06       		.byte	0x6
 6483 0d5c 08       		.byte	0x8
 6484 0d5d 48       		.byte	0x48
 6485 0d5e 1C       		.byte	0x1c
 6486 0d5f 9F       		.byte	0x9f
 6487 0d60 000A0000 		.4byte	.LVL198
 6488 0d64 0A0A0000 		.4byte	.LFE32
 6489 0d68 0800     		.2byte	0x8
 6490 0d6a 91       		.byte	0x91
 6491 0d6b 987F     		.sleb128 -104
 6492 0d6d 06       		.byte	0x6
 6493 0d6e 08       		.byte	0x8
 6494 0d6f 48       		.byte	0x48
 6495 0d70 1C       		.byte	0x1c
 6496 0d71 9F       		.byte	0x9f
 6497 0d72 00000000 		.4byte	0
 6498 0d76 00000000 		.4byte	0
 6499              	.LLST16:
 6500 0d7a EE000000 		.4byte	.LVL13
 6501 0d7e F4000000 		.4byte	.LVL14
 6502 0d82 0100     		.2byte	0x1
 6503 0d84 5E       		.byte	0x5e
 6504 0d85 00000000 		.4byte	0
 6505 0d89 00000000 		.4byte	0
 6506              	.LLST17:
 6507 0d8d EE000000 		.4byte	.LVL13
 6508 0d91 DC010000 		.4byte	.LVL37
 6509 0d95 0100     		.2byte	0x1
 6510 0d97 58       		.byte	0x58
 6511 0d98 DC010000 		.4byte	.LVL37
 6512 0d9c 2E020000 		.4byte	.LVL49
 6513 0da0 0300     		.2byte	0x3
 6514 0da2 91       		.byte	0x91
 6515 0da3 B07F     		.sleb128 -80
ARM GAS  C:\Users\pearlstl\AppData\Local\Temp\ccuP9Sbb.s 			page 133


 6516 0da5 94020000 		.4byte	.LVL57
 6517 0da9 A2020000 		.4byte	.LVL59
 6518 0dad 0100     		.2byte	0x1
 6519 0daf 58       		.byte	0x58
 6520 0db0 CA020000 		.4byte	.LVL61
 6521 0db4 D4020000 		.4byte	.LVL63
 6522 0db8 0300     		.2byte	0x3
 6523 0dba 91       		.byte	0x91
 6524 0dbb B07F     		.sleb128 -80
 6525 0dbd D4020000 		.4byte	.LVL63
 6526 0dc1 80080000 		.4byte	.LVL162
 6527 0dc5 0400     		.2byte	0x4
 6528 0dc7 F3       		.byte	0xf3
 6529 0dc8 01       		.uleb128 0x1
 6530 0dc9 52       		.byte	0x52
 6531 0dca 9F       		.byte	0x9f
 6532 0dcb 5C090000 		.4byte	.LVL185
 6533 0dcf 72090000 		.4byte	.LVL186
 6534 0dd3 0300     		.2byte	0x3
 6535 0dd5 91       		.byte	0x91
 6536 0dd6 B07F     		.sleb128 -80
 6537 0dd8 72090000 		.4byte	.LVL186
 6538 0ddc CA090000 		.4byte	.LVL192
 6539 0de0 0400     		.2byte	0x4
 6540 0de2 F3       		.byte	0xf3
 6541 0de3 01       		.uleb128 0x1
 6542 0de4 52       		.byte	0x52
 6543 0de5 9F       		.byte	0x9f
 6544 0de6 CA090000 		.4byte	.LVL192
 6545 0dea EA090000 		.4byte	.LVL193
 6546 0dee 0300     		.2byte	0x3
 6547 0df0 91       		.byte	0x91
 6548 0df1 B07F     		.sleb128 -80
 6549 0df3 000A0000 		.4byte	.LVL198
 6550 0df7 0A0A0000 		.4byte	.LFE32
 6551 0dfb 0100     		.2byte	0x1
 6552 0dfd 58       		.byte	0x58
 6553 0dfe 00000000 		.4byte	0
 6554 0e02 00000000 		.4byte	0
 6555              	.LLST18:
 6556 0e06 EE000000 		.4byte	.LVL13
 6557 0e0a 2E020000 		.4byte	.LVL49
 6558 0e0e 0600     		.2byte	0x6
 6559 0e10 F2       		.byte	0xf2
 6560 0e11 3F090000 		.4byte	.Ldebug_info0+2367
 6561 0e15 00       		.sleb128 0
 6562 0e16 94020000 		.4byte	.LVL57
 6563 0e1a A2020000 		.4byte	.LVL59
 6564 0e1e 0600     		.2byte	0x6
 6565 0e20 F2       		.byte	0xf2
 6566 0e21 3F090000 		.4byte	.Ldebug_info0+2367
 6567 0e25 00       		.sleb128 0
 6568 0e26 CA020000 		.4byte	.LVL61
 6569 0e2a 80080000 		.4byte	.LVL162
 6570 0e2e 0600     		.2byte	0x6
 6571 0e30 F2       		.byte	0xf2
 6572 0e31 3F090000 		.4byte	.Ldebug_info0+2367
ARM GAS  C:\Users\pearlstl\AppData\Local\Temp\ccuP9Sbb.s 			page 134


 6573 0e35 00       		.sleb128 0
 6574 0e36 5C090000 		.4byte	.LVL185
 6575 0e3a EA090000 		.4byte	.LVL193
 6576 0e3e 0600     		.2byte	0x6
 6577 0e40 F2       		.byte	0xf2
 6578 0e41 3F090000 		.4byte	.Ldebug_info0+2367
 6579 0e45 00       		.sleb128 0
 6580 0e46 000A0000 		.4byte	.LVL198
 6581 0e4a 0A0A0000 		.4byte	.LFE32
 6582 0e4e 0600     		.2byte	0x6
 6583 0e50 F2       		.byte	0xf2
 6584 0e51 3F090000 		.4byte	.Ldebug_info0+2367
 6585 0e55 00       		.sleb128 0
 6586 0e56 00000000 		.4byte	0
 6587 0e5a 00000000 		.4byte	0
 6588              	.LLST19:
 6589 0e5e FA000000 		.4byte	.LVL15
 6590 0e62 2E020000 		.4byte	.LVL49
 6591 0e66 0300     		.2byte	0x3
 6592 0e68 91       		.byte	0x91
 6593 0e69 947F     		.sleb128 -108
 6594 0e6b 94020000 		.4byte	.LVL57
 6595 0e6f A2020000 		.4byte	.LVL59
 6596 0e73 0300     		.2byte	0x3
 6597 0e75 91       		.byte	0x91
 6598 0e76 947F     		.sleb128 -108
 6599 0e78 CA020000 		.4byte	.LVL61
 6600 0e7c 80080000 		.4byte	.LVL162
 6601 0e80 0300     		.2byte	0x3
 6602 0e82 91       		.byte	0x91
 6603 0e83 947F     		.sleb128 -108
 6604 0e85 5C090000 		.4byte	.LVL185
 6605 0e89 EA090000 		.4byte	.LVL193
 6606 0e8d 0300     		.2byte	0x3
 6607 0e8f 91       		.byte	0x91
 6608 0e90 947F     		.sleb128 -108
 6609 0e92 000A0000 		.4byte	.LVL198
 6610 0e96 0A0A0000 		.4byte	.LFE32
 6611 0e9a 0300     		.2byte	0x3
 6612 0e9c 91       		.byte	0x91
 6613 0e9d 947F     		.sleb128 -108
 6614 0e9f 00000000 		.4byte	0
 6615 0ea3 00000000 		.4byte	0
 6616              	.LLST20:
 6617 0ea7 18010000 		.4byte	.LVL19
 6618 0eab 1C010000 		.4byte	.LVL20
 6619 0eaf 0500     		.2byte	0x5
 6620 0eb1 54       		.byte	0x54
 6621 0eb2 93       		.byte	0x93
 6622 0eb3 02       		.uleb128 0x2
 6623 0eb4 93       		.byte	0x93
 6624 0eb5 02       		.uleb128 0x2
 6625 0eb6 1C010000 		.4byte	.LVL20
 6626 0eba 24010000 		.4byte	.LVL21
 6627 0ebe 0800     		.2byte	0x8
 6628 0ec0 54       		.byte	0x54
 6629 0ec1 93       		.byte	0x93
ARM GAS  C:\Users\pearlstl\AppData\Local\Temp\ccuP9Sbb.s 			page 135


 6630 0ec2 02       		.uleb128 0x2
 6631 0ec3 91       		.byte	0x91
 6632 0ec4 F87E     		.sleb128 -136
 6633 0ec6 93       		.byte	0x93
 6634 0ec7 02       		.uleb128 0x2
 6635 0ec8 24010000 		.4byte	.LVL21
 6636 0ecc 2E010000 		.4byte	.LVL24
 6637 0ed0 0500     		.2byte	0x5
 6638 0ed2 54       		.byte	0x54
 6639 0ed3 93       		.byte	0x93
 6640 0ed4 02       		.uleb128 0x2
 6641 0ed5 93       		.byte	0x93
 6642 0ed6 02       		.uleb128 0x2
 6643 0ed7 2E010000 		.4byte	.LVL24
 6644 0edb 4C010000 		.4byte	.LVL26
 6645 0edf 0800     		.2byte	0x8
 6646 0ee1 54       		.byte	0x54
 6647 0ee2 93       		.byte	0x93
 6648 0ee3 02       		.uleb128 0x2
 6649 0ee4 91       		.byte	0x91
 6650 0ee5 F87E     		.sleb128 -136
 6651 0ee7 93       		.byte	0x93
 6652 0ee8 02       		.uleb128 0x2
 6653 0ee9 4C010000 		.4byte	.LVL26
 6654 0eed 68010000 		.4byte	.LVL28
 6655 0ef1 0700     		.2byte	0x7
 6656 0ef3 93       		.byte	0x93
 6657 0ef4 02       		.uleb128 0x2
 6658 0ef5 91       		.byte	0x91
 6659 0ef6 F87E     		.sleb128 -136
 6660 0ef8 93       		.byte	0x93
 6661 0ef9 02       		.uleb128 0x2
 6662 0efa A0020000 		.4byte	.LVL58
 6663 0efe A2020000 		.4byte	.LVL59
 6664 0f02 0600     		.2byte	0x6
 6665 0f04 54       		.byte	0x54
 6666 0f05 93       		.byte	0x93
 6667 0f06 02       		.uleb128 0x2
 6668 0f07 51       		.byte	0x51
 6669 0f08 93       		.byte	0x93
 6670 0f09 02       		.uleb128 0x2
 6671 0f0a 00000000 		.4byte	0
 6672 0f0e 00000000 		.4byte	0
 6673              	.LLST21:
 6674 0f12 1C010000 		.4byte	.LVL20
 6675 0f16 B4010000 		.4byte	.LVL33
 6676 0f1a 0100     		.2byte	0x1
 6677 0f1c 57       		.byte	0x57
 6678 0f1d D4020000 		.4byte	.LVL63
 6679 0f21 EC020000 		.4byte	.LVL66
 6680 0f25 0200     		.2byte	0x2
 6681 0f27 30       		.byte	0x30
 6682 0f28 9F       		.byte	0x9f
 6683 0f29 AE050000 		.4byte	.LVL109
 6684 0f2d CA050000 		.4byte	.LVL112
 6685 0f31 0200     		.2byte	0x2
 6686 0f33 30       		.byte	0x30
ARM GAS  C:\Users\pearlstl\AppData\Local\Temp\ccuP9Sbb.s 			page 136


 6687 0f34 9F       		.byte	0x9f
 6688 0f35 72090000 		.4byte	.LVL186
 6689 0f39 74090000 		.4byte	.LVL187
 6690 0f3d 0100     		.2byte	0x1
 6691 0f3f 57       		.byte	0x57
 6692 0f40 74090000 		.4byte	.LVL187
 6693 0f44 CA090000 		.4byte	.LVL192
 6694 0f48 0300     		.2byte	0x3
 6695 0f4a 91       		.byte	0x91
 6696 0f4b 8C7F     		.sleb128 -116
 6697 0f4d CA090000 		.4byte	.LVL192
 6698 0f51 EA090000 		.4byte	.LVL193
 6699 0f55 0100     		.2byte	0x1
 6700 0f57 50       		.byte	0x50
 6701 0f58 000A0000 		.4byte	.LVL198
 6702 0f5c 0A0A0000 		.4byte	.LFE32
 6703 0f60 0100     		.2byte	0x1
 6704 0f62 57       		.byte	0x57
 6705 0f63 00000000 		.4byte	0
 6706 0f67 00000000 		.4byte	0
 6707              	.LLST22:
 6708 0f6b 26010000 		.4byte	.LVL22
 6709 0f6f 29010000 		.4byte	.LVL23-1
 6710 0f73 0100     		.2byte	0x1
 6711 0f75 53       		.byte	0x53
 6712 0f76 29010000 		.4byte	.LVL23-1
 6713 0f7a 92010000 		.4byte	.LVL31
 6714 0f7e 0300     		.2byte	0x3
 6715 0f80 91       		.byte	0x91
 6716 0f81 AC7F     		.sleb128 -84
 6717 0f83 000A0000 		.4byte	.LVL198
 6718 0f87 0A0A0000 		.4byte	.LFE32
 6719 0f8b 0300     		.2byte	0x3
 6720 0f8d 91       		.byte	0x91
 6721 0f8e AC7F     		.sleb128 -84
 6722 0f90 00000000 		.4byte	0
 6723 0f94 00000000 		.4byte	0
 6724              	.LLST23:
 6725 0f98 2E010000 		.4byte	.LVL24
 6726 0f9c 64010000 		.4byte	.LVL27
 6727 0fa0 0100     		.2byte	0x1
 6728 0fa2 50       		.byte	0x50
 6729 0fa3 64010000 		.4byte	.LVL27
 6730 0fa7 2E020000 		.4byte	.LVL49
 6731 0fab 0300     		.2byte	0x3
 6732 0fad 91       		.byte	0x91
 6733 0fae 907F     		.sleb128 -112
 6734 0fb0 CA020000 		.4byte	.LVL61
 6735 0fb4 80080000 		.4byte	.LVL162
 6736 0fb8 0300     		.2byte	0x3
 6737 0fba 91       		.byte	0x91
 6738 0fbb 907F     		.sleb128 -112
 6739 0fbd 5C090000 		.4byte	.LVL185
 6740 0fc1 EA090000 		.4byte	.LVL193
 6741 0fc5 0300     		.2byte	0x3
 6742 0fc7 91       		.byte	0x91
 6743 0fc8 907F     		.sleb128 -112
ARM GAS  C:\Users\pearlstl\AppData\Local\Temp\ccuP9Sbb.s 			page 137


 6744 0fca 000A0000 		.4byte	.LVL198
 6745 0fce 0A0A0000 		.4byte	.LFE32
 6746 0fd2 0300     		.2byte	0x3
 6747 0fd4 91       		.byte	0x91
 6748 0fd5 907F     		.sleb128 -112
 6749 0fd7 00000000 		.4byte	0
 6750 0fdb 00000000 		.4byte	0
 6751              	.LLST24:
 6752 0fdf 2E010000 		.4byte	.LVL24
 6753 0fe3 DE010000 		.4byte	.LVL38
 6754 0fe7 0200     		.2byte	0x2
 6755 0fe9 30       		.byte	0x30
 6756 0fea 9F       		.byte	0x9f
 6757 0feb DE010000 		.4byte	.LVL38
 6758 0fef FC010000 		.4byte	.LVL44
 6759 0ff3 0100     		.2byte	0x1
 6760 0ff5 50       		.byte	0x50
 6761 0ff6 FE010000 		.4byte	.LVL45
 6762 0ffa 2E020000 		.4byte	.LVL49
 6763 0ffe 0100     		.2byte	0x1
 6764 1000 50       		.byte	0x50
 6765 1001 CA020000 		.4byte	.LVL61
 6766 1005 D4020000 		.4byte	.LVL63
 6767 1009 0100     		.2byte	0x1
 6768 100b 50       		.byte	0x50
 6769 100c E8020000 		.4byte	.LVL65
 6770 1010 EC020000 		.4byte	.LVL66
 6771 1014 0200     		.2byte	0x2
 6772 1016 30       		.byte	0x30
 6773 1017 9F       		.byte	0x9f
 6774 1018 58030000 		.4byte	.LVL75
 6775 101c 7C030000 		.4byte	.LVL77
 6776 1020 0200     		.2byte	0x2
 6777 1022 30       		.byte	0x30
 6778 1023 9F       		.byte	0x9f
 6779 1024 1C040000 		.4byte	.LVL87
 6780 1028 3C040000 		.4byte	.LVL89
 6781 102c 0200     		.2byte	0x2
 6782 102e 30       		.byte	0x30
 6783 102f 9F       		.byte	0x9f
 6784 1030 82040000 		.4byte	.LVL93
 6785 1034 9E040000 		.4byte	.LVL96
 6786 1038 0200     		.2byte	0x2
 6787 103a 30       		.byte	0x30
 6788 103b 9F       		.byte	0x9f
 6789 103c 9E040000 		.4byte	.LVL96
 6790 1040 08050000 		.4byte	.LVL98
 6791 1044 0100     		.2byte	0x1
 6792 1046 57       		.byte	0x57
 6793 1047 08050000 		.4byte	.LVL98
 6794 104b 0A050000 		.4byte	.LVL99
 6795 104f 0300     		.2byte	0x3
 6796 1051 77       		.byte	0x77
 6797 1052 01       		.sleb128 1
 6798 1053 9F       		.byte	0x9f
 6799 1054 22050000 		.4byte	.LVL103
 6800 1058 34050000 		.4byte	.LVL105
ARM GAS  C:\Users\pearlstl\AppData\Local\Temp\ccuP9Sbb.s 			page 138


 6801 105c 0200     		.2byte	0x2
 6802 105e 30       		.byte	0x30
 6803 105f 9F       		.byte	0x9f
 6804 1060 34050000 		.4byte	.LVL105
 6805 1064 A0050000 		.4byte	.LVL107
 6806 1068 0100     		.2byte	0x1
 6807 106a 54       		.byte	0x54
 6808 106b A0050000 		.4byte	.LVL107
 6809 106f A2050000 		.4byte	.LVL108
 6810 1073 0300     		.2byte	0x3
 6811 1075 74       		.byte	0x74
 6812 1076 01       		.sleb128 1
 6813 1077 9F       		.byte	0x9f
 6814 1078 C6050000 		.4byte	.LVL111
 6815 107c CA050000 		.4byte	.LVL112
 6816 1080 0200     		.2byte	0x2
 6817 1082 30       		.byte	0x30
 6818 1083 9F       		.byte	0x9f
 6819 1084 14060000 		.4byte	.LVL122
 6820 1088 40060000 		.4byte	.LVL126
 6821 108c 0200     		.2byte	0x2
 6822 108e 30       		.byte	0x30
 6823 108f 9F       		.byte	0x9f
 6824 1090 E6060000 		.4byte	.LVL141
 6825 1094 04070000 		.4byte	.LVL145
 6826 1098 0200     		.2byte	0x2
 6827 109a 30       		.byte	0x30
 6828 109b 9F       		.byte	0x9f
 6829 109c 4A070000 		.4byte	.LVL148
 6830 10a0 70070000 		.4byte	.LVL151
 6831 10a4 0200     		.2byte	0x2
 6832 10a6 30       		.byte	0x30
 6833 10a7 9F       		.byte	0x9f
 6834 10a8 70070000 		.4byte	.LVL151
 6835 10ac D6070000 		.4byte	.LVL153
 6836 10b0 0100     		.2byte	0x1
 6837 10b2 54       		.byte	0x54
 6838 10b3 D6070000 		.4byte	.LVL153
 6839 10b7 D8070000 		.4byte	.LVL154
 6840 10bb 0300     		.2byte	0x3
 6841 10bd 74       		.byte	0x74
 6842 10be 01       		.sleb128 1
 6843 10bf 9F       		.byte	0x9f
 6844 10c0 F6070000 		.4byte	.LVL156
 6845 10c4 08080000 		.4byte	.LVL158
 6846 10c8 0200     		.2byte	0x2
 6847 10ca 30       		.byte	0x30
 6848 10cb 9F       		.byte	0x9f
 6849 10cc 08080000 		.4byte	.LVL158
 6850 10d0 70080000 		.4byte	.LVL160
 6851 10d4 0100     		.2byte	0x1
 6852 10d6 54       		.byte	0x54
 6853 10d7 70080000 		.4byte	.LVL160
 6854 10db 72080000 		.4byte	.LVL161
 6855 10df 0300     		.2byte	0x3
 6856 10e1 74       		.byte	0x74
 6857 10e2 01       		.sleb128 1
ARM GAS  C:\Users\pearlstl\AppData\Local\Temp\ccuP9Sbb.s 			page 139


 6858 10e3 9F       		.byte	0x9f
 6859 10e4 5C090000 		.4byte	.LVL185
 6860 10e8 72090000 		.4byte	.LVL186
 6861 10ec 0100     		.2byte	0x1
 6862 10ee 50       		.byte	0x50
 6863 10ef 9A090000 		.4byte	.LVL189
 6864 10f3 AA090000 		.4byte	.LVL190
 6865 10f7 0200     		.2byte	0x2
 6866 10f9 30       		.byte	0x30
 6867 10fa 9F       		.byte	0x9f
 6868 10fb AA090000 		.4byte	.LVL190
 6869 10ff B8090000 		.4byte	.LVL191
 6870 1103 0100     		.2byte	0x1
 6871 1105 53       		.byte	0x53
 6872 1106 CA090000 		.4byte	.LVL192
 6873 110a EA090000 		.4byte	.LVL193
 6874 110e 0100     		.2byte	0x1
 6875 1110 50       		.byte	0x50
 6876 1111 000A0000 		.4byte	.LVL198
 6877 1115 0A0A0000 		.4byte	.LFE32
 6878 1119 0200     		.2byte	0x2
 6879 111b 30       		.byte	0x30
 6880 111c 9F       		.byte	0x9f
 6881 111d 00000000 		.4byte	0
 6882 1121 00000000 		.4byte	0
 6883              	.LLST25:
 6884 1125 D4020000 		.4byte	.LVL63
 6885 1129 EC020000 		.4byte	.LVL66
 6886 112d 0200     		.2byte	0x2
 6887 112f 30       		.byte	0x30
 6888 1130 9F       		.byte	0x9f
 6889 1131 AE050000 		.4byte	.LVL109
 6890 1135 CA050000 		.4byte	.LVL112
 6891 1139 0200     		.2byte	0x2
 6892 113b 30       		.byte	0x30
 6893 113c 9F       		.byte	0x9f
 6894 113d 72090000 		.4byte	.LVL186
 6895 1141 9A090000 		.4byte	.LVL189
 6896 1145 0200     		.2byte	0x2
 6897 1147 30       		.byte	0x30
 6898 1148 9F       		.byte	0x9f
 6899 1149 9A090000 		.4byte	.LVL189
 6900 114d CA090000 		.4byte	.LVL192
 6901 1151 0100     		.2byte	0x1
 6902 1153 5E       		.byte	0x5e
 6903 1154 CA090000 		.4byte	.LVL192
 6904 1158 EA090000 		.4byte	.LVL193
 6905 115c 0200     		.2byte	0x2
 6906 115e 30       		.byte	0x30
 6907 115f 9F       		.byte	0x9f
 6908 1160 00000000 		.4byte	0
 6909 1164 00000000 		.4byte	0
 6910              	.LLST26:
 6911 1168 D4020000 		.4byte	.LVL63
 6912 116c EC020000 		.4byte	.LVL66
 6913 1170 0200     		.2byte	0x2
 6914 1172 30       		.byte	0x30
ARM GAS  C:\Users\pearlstl\AppData\Local\Temp\ccuP9Sbb.s 			page 140


 6915 1173 9F       		.byte	0x9f
 6916 1174 AE050000 		.4byte	.LVL109
 6917 1178 CA050000 		.4byte	.LVL112
 6918 117c 0200     		.2byte	0x2
 6919 117e 30       		.byte	0x30
 6920 117f 9F       		.byte	0x9f
 6921 1180 72090000 		.4byte	.LVL186
 6922 1184 9A090000 		.4byte	.LVL189
 6923 1188 0200     		.2byte	0x2
 6924 118a 30       		.byte	0x30
 6925 118b 9F       		.byte	0x9f
 6926 118c 9A090000 		.4byte	.LVL189
 6927 1190 CA090000 		.4byte	.LVL192
 6928 1194 0100     		.2byte	0x1
 6929 1196 57       		.byte	0x57
 6930 1197 CA090000 		.4byte	.LVL192
 6931 119b EA090000 		.4byte	.LVL193
 6932 119f 0200     		.2byte	0x2
 6933 11a1 30       		.byte	0x30
 6934 11a2 9F       		.byte	0x9f
 6935 11a3 00000000 		.4byte	0
 6936 11a7 00000000 		.4byte	0
 6937              	.LLST27:
 6938 11ab F6020000 		.4byte	.LVL67
 6939 11af 20030000 		.4byte	.LVL69
 6940 11b3 0200     		.2byte	0x2
 6941 11b5 31       		.byte	0x31
 6942 11b6 9F       		.byte	0x9f
 6943 11b7 20030000 		.4byte	.LVL69
 6944 11bb 7C030000 		.4byte	.LVL77
 6945 11bf 0100     		.2byte	0x1
 6946 11c1 50       		.byte	0x50
 6947 11c2 C8030000 		.4byte	.LVL79
 6948 11c6 DE030000 		.4byte	.LVL81
 6949 11ca 0200     		.2byte	0x2
 6950 11cc 30       		.byte	0x30
 6951 11cd 9F       		.byte	0x9f
 6952 11ce DE030000 		.4byte	.LVL81
 6953 11d2 3C040000 		.4byte	.LVL89
 6954 11d6 0100     		.2byte	0x1
 6955 11d8 50       		.byte	0x50
 6956 11d9 7E040000 		.4byte	.LVL91
 6957 11dd 9E040000 		.4byte	.LVL96
 6958 11e1 0100     		.2byte	0x1
 6959 11e3 50       		.byte	0x50
 6960 11e4 1E050000 		.4byte	.LVL101
 6961 11e8 34050000 		.4byte	.LVL105
 6962 11ec 0100     		.2byte	0x1
 6963 11ee 50       		.byte	0x50
 6964 11ef C6050000 		.4byte	.LVL111
 6965 11f3 E8050000 		.4byte	.LVL114
 6966 11f7 0200     		.2byte	0x2
 6967 11f9 31       		.byte	0x31
 6968 11fa 9F       		.byte	0x9f
 6969 11fb E8050000 		.4byte	.LVL114
 6970 11ff 26060000 		.4byte	.LVL123
 6971 1203 0100     		.2byte	0x1
ARM GAS  C:\Users\pearlstl\AppData\Local\Temp\ccuP9Sbb.s 			page 141


 6972 1205 52       		.byte	0x52
 6973 1206 90060000 		.4byte	.LVL129
 6974 120a A0060000 		.4byte	.LVL130
 6975 120e 0200     		.2byte	0x2
 6976 1210 30       		.byte	0x30
 6977 1211 9F       		.byte	0x9f
 6978 1212 A0060000 		.4byte	.LVL130
 6979 1216 04070000 		.4byte	.LVL145
 6980 121a 0100     		.2byte	0x1
 6981 121c 52       		.byte	0x52
 6982 121d 46070000 		.4byte	.LVL147
 6983 1221 70070000 		.4byte	.LVL151
 6984 1225 0100     		.2byte	0x1
 6985 1227 52       		.byte	0x52
 6986 1228 F6070000 		.4byte	.LVL156
 6987 122c 08080000 		.4byte	.LVL158
 6988 1230 0100     		.2byte	0x1
 6989 1232 52       		.byte	0x52
 6990 1233 00000000 		.4byte	0
 6991 1237 00000000 		.4byte	0
 6992              	.LLST28:
 6993 123b 84010000 		.4byte	.LVL29
 6994 123f DE010000 		.4byte	.LVL38
 6995 1243 1100     		.2byte	0x11
 6996 1245 93       		.byte	0x93
 6997 1246 08       		.uleb128 0x8
 6998 1247 30       		.byte	0x30
 6999 1248 9F       		.byte	0x9f
 7000 1249 93       		.byte	0x93
 7001 124a 02       		.uleb128 0x2
 7002 124b 30       		.byte	0x30
 7003 124c 9F       		.byte	0x9f
 7004 124d 93       		.byte	0x93
 7005 124e 02       		.uleb128 0x2
 7006 124f 93       		.byte	0x93
 7007 1250 08       		.uleb128 0x8
 7008 1251 53       		.byte	0x53
 7009 1252 93       		.byte	0x93
 7010 1253 02       		.uleb128 0x2
 7011 1254 93       		.byte	0x93
 7012 1255 04       		.uleb128 0x4
 7013 1256 DE010000 		.4byte	.LVL38
 7014 125a E2010000 		.4byte	.LVL39
 7015 125e 0F00     		.2byte	0xf
 7016 1260 93       		.byte	0x93
 7017 1261 08       		.uleb128 0x8
 7018 1262 52       		.byte	0x52
 7019 1263 93       		.byte	0x93
 7020 1264 02       		.uleb128 0x2
 7021 1265 51       		.byte	0x51
 7022 1266 93       		.byte	0x93
 7023 1267 02       		.uleb128 0x2
 7024 1268 93       		.byte	0x93
 7025 1269 08       		.uleb128 0x8
 7026 126a 53       		.byte	0x53
 7027 126b 93       		.byte	0x93
 7028 126c 02       		.uleb128 0x2
ARM GAS  C:\Users\pearlstl\AppData\Local\Temp\ccuP9Sbb.s 			page 142


 7029 126d 93       		.byte	0x93
 7030 126e 04       		.uleb128 0x4
 7031 126f E2010000 		.4byte	.LVL39
 7032 1273 EE010000 		.4byte	.LVL40
 7033 1277 0C00     		.2byte	0xc
 7034 1279 93       		.byte	0x93
 7035 127a 0A       		.uleb128 0xa
 7036 127b 51       		.byte	0x51
 7037 127c 93       		.byte	0x93
 7038 127d 02       		.uleb128 0x2
 7039 127e 93       		.byte	0x93
 7040 127f 08       		.uleb128 0x8
 7041 1280 53       		.byte	0x53
 7042 1281 93       		.byte	0x93
 7043 1282 02       		.uleb128 0x2
 7044 1283 93       		.byte	0x93
 7045 1284 04       		.uleb128 0x4
 7046 1285 EE010000 		.4byte	.LVL40
 7047 1289 F6010000 		.4byte	.LVL41
 7048 128d 0F00     		.2byte	0xf
 7049 128f 93       		.byte	0x93
 7050 1290 08       		.uleb128 0x8
 7051 1291 52       		.byte	0x52
 7052 1292 93       		.byte	0x93
 7053 1293 02       		.uleb128 0x2
 7054 1294 51       		.byte	0x51
 7055 1295 93       		.byte	0x93
 7056 1296 02       		.uleb128 0x2
 7057 1297 93       		.byte	0x93
 7058 1298 08       		.uleb128 0x8
 7059 1299 54       		.byte	0x54
 7060 129a 93       		.byte	0x93
 7061 129b 02       		.uleb128 0x2
 7062 129c 93       		.byte	0x93
 7063 129d 04       		.uleb128 0x4
 7064 129e F6010000 		.4byte	.LVL41
 7065 12a2 F8010000 		.4byte	.LVL42
 7066 12a6 0C00     		.2byte	0xc
 7067 12a8 93       		.byte	0x93
 7068 12a9 08       		.uleb128 0x8
 7069 12aa 52       		.byte	0x52
 7070 12ab 93       		.byte	0x93
 7071 12ac 02       		.uleb128 0x2
 7072 12ad 93       		.byte	0x93
 7073 12ae 0A       		.uleb128 0xa
 7074 12af 54       		.byte	0x54
 7075 12b0 93       		.byte	0x93
 7076 12b1 02       		.uleb128 0x2
 7077 12b2 93       		.byte	0x93
 7078 12b3 04       		.uleb128 0x4
 7079 12b4 F8010000 		.4byte	.LVL42
 7080 12b8 FA010000 		.4byte	.LVL43
 7081 12bc 0C00     		.2byte	0xc
 7082 12be 93       		.byte	0x93
 7083 12bf 08       		.uleb128 0x8
 7084 12c0 52       		.byte	0x52
 7085 12c1 93       		.byte	0x93
ARM GAS  C:\Users\pearlstl\AppData\Local\Temp\ccuP9Sbb.s 			page 143


 7086 12c2 02       		.uleb128 0x2
 7087 12c3 93       		.byte	0x93
 7088 12c4 0A       		.uleb128 0xa
 7089 12c5 53       		.byte	0x53
 7090 12c6 93       		.byte	0x93
 7091 12c7 02       		.uleb128 0x2
 7092 12c8 93       		.byte	0x93
 7093 12c9 04       		.uleb128 0x4
 7094 12ca FA010000 		.4byte	.LVL43
 7095 12ce 1C020000 		.4byte	.LVL47
 7096 12d2 0F00     		.2byte	0xf
 7097 12d4 93       		.byte	0x93
 7098 12d5 08       		.uleb128 0x8
 7099 12d6 52       		.byte	0x52
 7100 12d7 93       		.byte	0x93
 7101 12d8 02       		.uleb128 0x2
 7102 12d9 51       		.byte	0x51
 7103 12da 93       		.byte	0x93
 7104 12db 02       		.uleb128 0x2
 7105 12dc 93       		.byte	0x93
 7106 12dd 08       		.uleb128 0x8
 7107 12de 53       		.byte	0x53
 7108 12df 93       		.byte	0x93
 7109 12e0 02       		.uleb128 0x2
 7110 12e1 93       		.byte	0x93
 7111 12e2 04       		.uleb128 0x4
 7112 12e3 1C020000 		.4byte	.LVL47
 7113 12e7 28020000 		.4byte	.LVL48
 7114 12eb 0F00     		.2byte	0xf
 7115 12ed 93       		.byte	0x93
 7116 12ee 08       		.uleb128 0x8
 7117 12ef 52       		.byte	0x52
 7118 12f0 93       		.byte	0x93
 7119 12f1 02       		.uleb128 0x2
 7120 12f2 51       		.byte	0x51
 7121 12f3 93       		.byte	0x93
 7122 12f4 02       		.uleb128 0x2
 7123 12f5 93       		.byte	0x93
 7124 12f6 08       		.uleb128 0x8
 7125 12f7 53       		.byte	0x53
 7126 12f8 93       		.byte	0x93
 7127 12f9 02       		.uleb128 0x2
 7128 12fa 93       		.byte	0x93
 7129 12fb 04       		.uleb128 0x4
 7130 12fc 28020000 		.4byte	.LVL48
 7131 1300 2E020000 		.4byte	.LVL49
 7132 1304 0F00     		.2byte	0xf
 7133 1306 93       		.byte	0x93
 7134 1307 08       		.uleb128 0x8
 7135 1308 52       		.byte	0x52
 7136 1309 93       		.byte	0x93
 7137 130a 02       		.uleb128 0x2
 7138 130b 51       		.byte	0x51
 7139 130c 93       		.byte	0x93
 7140 130d 02       		.uleb128 0x2
 7141 130e 93       		.byte	0x93
 7142 130f 08       		.uleb128 0x8
ARM GAS  C:\Users\pearlstl\AppData\Local\Temp\ccuP9Sbb.s 			page 144


 7143 1310 54       		.byte	0x54
 7144 1311 93       		.byte	0x93
 7145 1312 02       		.uleb128 0x2
 7146 1313 93       		.byte	0x93
 7147 1314 04       		.uleb128 0x4
 7148 1315 CA020000 		.4byte	.LVL61
 7149 1319 D2020000 		.4byte	.LVL62
 7150 131d 0F00     		.2byte	0xf
 7151 131f 93       		.byte	0x93
 7152 1320 08       		.uleb128 0x8
 7153 1321 52       		.byte	0x52
 7154 1322 93       		.byte	0x93
 7155 1323 02       		.uleb128 0x2
 7156 1324 51       		.byte	0x51
 7157 1325 93       		.byte	0x93
 7158 1326 02       		.uleb128 0x2
 7159 1327 93       		.byte	0x93
 7160 1328 08       		.uleb128 0x8
 7161 1329 53       		.byte	0x53
 7162 132a 93       		.byte	0x93
 7163 132b 02       		.uleb128 0x2
 7164 132c 93       		.byte	0x93
 7165 132d 04       		.uleb128 0x4
 7166 132e D2020000 		.4byte	.LVL62
 7167 1332 D4020000 		.4byte	.LVL63
 7168 1336 0C00     		.2byte	0xc
 7169 1338 93       		.byte	0x93
 7170 1339 0A       		.uleb128 0xa
 7171 133a 51       		.byte	0x51
 7172 133b 93       		.byte	0x93
 7173 133c 02       		.uleb128 0x2
 7174 133d 93       		.byte	0x93
 7175 133e 08       		.uleb128 0x8
 7176 133f 53       		.byte	0x53
 7177 1340 93       		.byte	0x93
 7178 1341 02       		.uleb128 0x2
 7179 1342 93       		.byte	0x93
 7180 1343 04       		.uleb128 0x4
 7181 1344 D4020000 		.4byte	.LVL63
 7182 1348 DC020000 		.4byte	.LVL64
 7183 134c 0700     		.2byte	0x7
 7184 134e 93       		.byte	0x93
 7185 134f 14       		.uleb128 0x14
 7186 1350 53       		.byte	0x53
 7187 1351 93       		.byte	0x93
 7188 1352 02       		.uleb128 0x2
 7189 1353 93       		.byte	0x93
 7190 1354 04       		.uleb128 0x4
 7191 1355 AE050000 		.4byte	.LVL109
 7192 1359 B0050000 		.4byte	.LVL110
 7193 135d 0700     		.2byte	0x7
 7194 135f 93       		.byte	0x93
 7195 1360 14       		.uleb128 0x14
 7196 1361 53       		.byte	0x53
 7197 1362 93       		.byte	0x93
 7198 1363 02       		.uleb128 0x2
 7199 1364 93       		.byte	0x93
ARM GAS  C:\Users\pearlstl\AppData\Local\Temp\ccuP9Sbb.s 			page 145


 7200 1365 04       		.uleb128 0x4
 7201 1366 5C090000 		.4byte	.LVL185
 7202 136a 72090000 		.4byte	.LVL186
 7203 136e 0F00     		.2byte	0xf
 7204 1370 93       		.byte	0x93
 7205 1371 08       		.uleb128 0x8
 7206 1372 52       		.byte	0x52
 7207 1373 93       		.byte	0x93
 7208 1374 02       		.uleb128 0x2
 7209 1375 51       		.byte	0x51
 7210 1376 93       		.byte	0x93
 7211 1377 02       		.uleb128 0x2
 7212 1378 93       		.byte	0x93
 7213 1379 08       		.uleb128 0x8
 7214 137a 53       		.byte	0x53
 7215 137b 93       		.byte	0x93
 7216 137c 02       		.uleb128 0x2
 7217 137d 93       		.byte	0x93
 7218 137e 04       		.uleb128 0x4
 7219 137f 72090000 		.4byte	.LVL186
 7220 1383 78090000 		.4byte	.LVL188
 7221 1387 0700     		.2byte	0x7
 7222 1389 93       		.byte	0x93
 7223 138a 14       		.uleb128 0x14
 7224 138b 53       		.byte	0x53
 7225 138c 93       		.byte	0x93
 7226 138d 02       		.uleb128 0x2
 7227 138e 93       		.byte	0x93
 7228 138f 04       		.uleb128 0x4
 7229 1390 CA090000 		.4byte	.LVL192
 7230 1394 EA090000 		.4byte	.LVL193
 7231 1398 0F00     		.2byte	0xf
 7232 139a 93       		.byte	0x93
 7233 139b 08       		.uleb128 0x8
 7234 139c 52       		.byte	0x52
 7235 139d 93       		.byte	0x93
 7236 139e 02       		.uleb128 0x2
 7237 139f 51       		.byte	0x51
 7238 13a0 93       		.byte	0x93
 7239 13a1 02       		.uleb128 0x2
 7240 13a2 93       		.byte	0x93
 7241 13a3 08       		.uleb128 0x8
 7242 13a4 53       		.byte	0x53
 7243 13a5 93       		.byte	0x93
 7244 13a6 02       		.uleb128 0x2
 7245 13a7 93       		.byte	0x93
 7246 13a8 04       		.uleb128 0x4
 7247 13a9 00000000 		.4byte	0
 7248 13ad 00000000 		.4byte	0
 7249              	.LLST29:
 7250 13b1 84010000 		.4byte	.LVL29
 7251 13b5 90010000 		.4byte	.LVL30
 7252 13b9 0300     		.2byte	0x3
 7253 13bb 91       		.byte	0x91
 7254 13bc B47F     		.sleb128 -76
 7255 13be 00000000 		.4byte	0
 7256 13c2 00000000 		.4byte	0
ARM GAS  C:\Users\pearlstl\AppData\Local\Temp\ccuP9Sbb.s 			page 146


 7257              	.LLST30:
 7258 13c6 38010000 		.4byte	.LVL25
 7259 13ca 84010000 		.4byte	.LVL29
 7260 13ce 0600     		.2byte	0x6
 7261 13d0 F2       		.byte	0xf2
 7262 13d1 120A0000 		.4byte	.Ldebug_info0+2578
 7263 13d5 00       		.sleb128 0
 7264 13d6 000A0000 		.4byte	.LVL198
 7265 13da 0A0A0000 		.4byte	.LFE32
 7266 13de 0600     		.2byte	0x6
 7267 13e0 F2       		.byte	0xf2
 7268 13e1 120A0000 		.4byte	.Ldebug_info0+2578
 7269 13e5 00       		.sleb128 0
 7270 13e6 00000000 		.4byte	0
 7271 13ea 00000000 		.4byte	0
 7272              	.LLST31:
 7273 13ee 38010000 		.4byte	.LVL25
 7274 13f2 84010000 		.4byte	.LVL29
 7275 13f6 0600     		.2byte	0x6
 7276 13f8 F2       		.byte	0xf2
 7277 13f9 7C0A0000 		.4byte	.Ldebug_info0+2684
 7278 13fd 00       		.sleb128 0
 7279 13fe 000A0000 		.4byte	.LVL198
 7280 1402 0A0A0000 		.4byte	.LFE32
 7281 1406 0600     		.2byte	0x6
 7282 1408 F2       		.byte	0xf2
 7283 1409 7C0A0000 		.4byte	.Ldebug_info0+2684
 7284 140d 00       		.sleb128 0
 7285 140e 00000000 		.4byte	0
 7286 1412 00000000 		.4byte	0
 7287              	.LLST32:
 7288 1416 38010000 		.4byte	.LVL25
 7289 141a 84010000 		.4byte	.LVL29
 7290 141e 0600     		.2byte	0x6
 7291 1420 F2       		.byte	0xf2
 7292 1421 730A0000 		.4byte	.Ldebug_info0+2675
 7293 1425 00       		.sleb128 0
 7294 1426 000A0000 		.4byte	.LVL198
 7295 142a 0A0A0000 		.4byte	.LFE32
 7296 142e 0600     		.2byte	0x6
 7297 1430 F2       		.byte	0xf2
 7298 1431 730A0000 		.4byte	.Ldebug_info0+2675
 7299 1435 00       		.sleb128 0
 7300 1436 00000000 		.4byte	0
 7301 143a 00000000 		.4byte	0
 7302              	.LLST33:
 7303 143e A0010000 		.4byte	.LVL32
 7304 1442 18020000 		.4byte	.LVL46
 7305 1446 0200     		.2byte	0x2
 7306 1448 30       		.byte	0x30
 7307 1449 9F       		.byte	0x9f
 7308 144a 18020000 		.4byte	.LVL46
 7309 144e 1C020000 		.4byte	.LVL47
 7310 1452 1C00     		.2byte	0x1c
 7311 1454 72       		.byte	0x72
 7312 1455 00       		.sleb128 0
 7313 1456 40       		.byte	0x40
ARM GAS  C:\Users\pearlstl\AppData\Local\Temp\ccuP9Sbb.s 			page 147


 7314 1457 24       		.byte	0x24
 7315 1458 40       		.byte	0x40
 7316 1459 26       		.byte	0x26
 7317 145a 72       		.byte	0x72
 7318 145b 00       		.sleb128 0
 7319 145c 40       		.byte	0x40
 7320 145d 24       		.byte	0x24
 7321 145e 40       		.byte	0x40
 7322 145f 26       		.byte	0x26
 7323 1460 1E       		.byte	0x1e
 7324 1461 71       		.byte	0x71
 7325 1462 00       		.sleb128 0
 7326 1463 40       		.byte	0x40
 7327 1464 24       		.byte	0x24
 7328 1465 40       		.byte	0x40
 7329 1466 26       		.byte	0x26
 7330 1467 71       		.byte	0x71
 7331 1468 00       		.sleb128 0
 7332 1469 40       		.byte	0x40
 7333 146a 24       		.byte	0x24
 7334 146b 40       		.byte	0x40
 7335 146c 26       		.byte	0x26
 7336 146d 1E       		.byte	0x1e
 7337 146e 22       		.byte	0x22
 7338 146f 9F       		.byte	0x9f
 7339 1470 1C020000 		.4byte	.LVL47
 7340 1474 2E020000 		.4byte	.LVL49
 7341 1478 0200     		.2byte	0x2
 7342 147a 30       		.byte	0x30
 7343 147b 9F       		.byte	0x9f
 7344 147c CA020000 		.4byte	.LVL61
 7345 1480 D4020000 		.4byte	.LVL63
 7346 1484 0200     		.2byte	0x2
 7347 1486 30       		.byte	0x30
 7348 1487 9F       		.byte	0x9f
 7349 1488 5C090000 		.4byte	.LVL185
 7350 148c 72090000 		.4byte	.LVL186
 7351 1490 0200     		.2byte	0x2
 7352 1492 30       		.byte	0x30
 7353 1493 9F       		.byte	0x9f
 7354 1494 CA090000 		.4byte	.LVL192
 7355 1498 EA090000 		.4byte	.LVL193
 7356 149c 1C00     		.2byte	0x1c
 7357 149e 72       		.byte	0x72
 7358 149f 00       		.sleb128 0
 7359 14a0 40       		.byte	0x40
 7360 14a1 24       		.byte	0x24
 7361 14a2 40       		.byte	0x40
 7362 14a3 26       		.byte	0x26
 7363 14a4 72       		.byte	0x72
 7364 14a5 00       		.sleb128 0
 7365 14a6 40       		.byte	0x40
 7366 14a7 24       		.byte	0x24
 7367 14a8 40       		.byte	0x40
 7368 14a9 26       		.byte	0x26
 7369 14aa 1E       		.byte	0x1e
 7370 14ab 71       		.byte	0x71
ARM GAS  C:\Users\pearlstl\AppData\Local\Temp\ccuP9Sbb.s 			page 148


 7371 14ac 00       		.sleb128 0
 7372 14ad 40       		.byte	0x40
 7373 14ae 24       		.byte	0x24
 7374 14af 40       		.byte	0x40
 7375 14b0 26       		.byte	0x26
 7376 14b1 71       		.byte	0x71
 7377 14b2 00       		.sleb128 0
 7378 14b3 40       		.byte	0x40
 7379 14b4 24       		.byte	0x24
 7380 14b5 40       		.byte	0x40
 7381 14b6 26       		.byte	0x26
 7382 14b7 1E       		.byte	0x1e
 7383 14b8 22       		.byte	0x22
 7384 14b9 9F       		.byte	0x9f
 7385 14ba 00000000 		.4byte	0
 7386 14be 00000000 		.4byte	0
 7387              	.LLST34:
 7388 14c2 DE010000 		.4byte	.LVL38
 7389 14c6 FA010000 		.4byte	.LVL43
 7390 14ca 0600     		.2byte	0x6
 7391 14cc F2       		.byte	0xf2
 7392 14cd 730A0000 		.4byte	.Ldebug_info0+2675
 7393 14d1 00       		.sleb128 0
 7394 14d2 1C020000 		.4byte	.LVL47
 7395 14d6 2E020000 		.4byte	.LVL49
 7396 14da 0600     		.2byte	0x6
 7397 14dc F2       		.byte	0xf2
 7398 14dd 730A0000 		.4byte	.Ldebug_info0+2675
 7399 14e1 00       		.sleb128 0
 7400 14e2 CA020000 		.4byte	.LVL61
 7401 14e6 D4020000 		.4byte	.LVL63
 7402 14ea 0600     		.2byte	0x6
 7403 14ec F2       		.byte	0xf2
 7404 14ed 730A0000 		.4byte	.Ldebug_info0+2675
 7405 14f1 00       		.sleb128 0
 7406 14f2 00000000 		.4byte	0
 7407 14f6 00000000 		.4byte	0
 7408              	.LLST35:
 7409 14fa 20030000 		.4byte	.LVL69
 7410 14fe 58030000 		.4byte	.LVL75
 7411 1502 0600     		.2byte	0x6
 7412 1504 F2       		.byte	0xf2
 7413 1505 3F090000 		.4byte	.Ldebug_info0+2367
 7414 1509 00       		.sleb128 0
 7415 150a DE030000 		.4byte	.LVL81
 7416 150e 82040000 		.4byte	.LVL93
 7417 1512 0600     		.2byte	0x6
 7418 1514 F2       		.byte	0xf2
 7419 1515 3F090000 		.4byte	.Ldebug_info0+2367
 7420 1519 00       		.sleb128 0
 7421 151a 1E050000 		.4byte	.LVL101
 7422 151e AE050000 		.4byte	.LVL109
 7423 1522 0600     		.2byte	0x6
 7424 1524 F2       		.byte	0xf2
 7425 1525 3F090000 		.4byte	.Ldebug_info0+2367
 7426 1529 00       		.sleb128 0
 7427 152a 00000000 		.4byte	0
ARM GAS  C:\Users\pearlstl\AppData\Local\Temp\ccuP9Sbb.s 			page 149


 7428 152e 00000000 		.4byte	0
 7429              	.LLST36:
 7430 1532 20030000 		.4byte	.LVL69
 7431 1536 58030000 		.4byte	.LVL75
 7432 153a 0300     		.2byte	0x3
 7433 153c 91       		.byte	0x91
 7434 153d FC7E     		.sleb128 -132
 7435 153f DE030000 		.4byte	.LVL81
 7436 1543 82040000 		.4byte	.LVL93
 7437 1547 0300     		.2byte	0x3
 7438 1549 91       		.byte	0x91
 7439 154a FC7E     		.sleb128 -132
 7440 154c 1E050000 		.4byte	.LVL101
 7441 1550 AE050000 		.4byte	.LVL109
 7442 1554 0300     		.2byte	0x3
 7443 1556 91       		.byte	0x91
 7444 1557 FC7E     		.sleb128 -132
 7445 1559 00000000 		.4byte	0
 7446 155d 00000000 		.4byte	0
 7447              	.LLST37:
 7448 1561 2C030000 		.4byte	.LVL70
 7449 1565 4A030000 		.4byte	.LVL73
 7450 1569 0600     		.2byte	0x6
 7451 156b F2       		.byte	0xf2
 7452 156c 3F090000 		.4byte	.Ldebug_info0+2367
 7453 1570 00       		.sleb128 0
 7454 1571 E8030000 		.4byte	.LVL82
 7455 1575 0C040000 		.4byte	.LVL85
 7456 1579 0600     		.2byte	0x6
 7457 157b F2       		.byte	0xf2
 7458 157c 3F090000 		.4byte	.Ldebug_info0+2367
 7459 1580 00       		.sleb128 0
 7460 1581 16040000 		.4byte	.LVL86
 7461 1585 7E040000 		.4byte	.LVL91
 7462 1589 0600     		.2byte	0x6
 7463 158b F2       		.byte	0xf2
 7464 158c 3F090000 		.4byte	.Ldebug_info0+2367
 7465 1590 00       		.sleb128 0
 7466 1591 22050000 		.4byte	.LVL103
 7467 1595 AE050000 		.4byte	.LVL109
 7468 1599 0600     		.2byte	0x6
 7469 159b F2       		.byte	0xf2
 7470 159c 3F090000 		.4byte	.Ldebug_info0+2367
 7471 15a0 00       		.sleb128 0
 7472 15a1 00000000 		.4byte	0
 7473 15a5 00000000 		.4byte	0
 7474              	.LLST38:
 7475 15a9 E8050000 		.4byte	.LVL114
 7476 15ad 14060000 		.4byte	.LVL122
 7477 15b1 0600     		.2byte	0x6
 7478 15b3 F2       		.byte	0xf2
 7479 15b4 3F090000 		.4byte	.Ldebug_info0+2367
 7480 15b8 00       		.sleb128 0
 7481 15b9 A0060000 		.4byte	.LVL130
 7482 15bd 4A070000 		.4byte	.LVL148
 7483 15c1 0600     		.2byte	0x6
 7484 15c3 F2       		.byte	0xf2
ARM GAS  C:\Users\pearlstl\AppData\Local\Temp\ccuP9Sbb.s 			page 150


 7485 15c4 3F090000 		.4byte	.Ldebug_info0+2367
 7486 15c8 00       		.sleb128 0
 7487 15c9 F6070000 		.4byte	.LVL156
 7488 15cd 80080000 		.4byte	.LVL162
 7489 15d1 0600     		.2byte	0x6
 7490 15d3 F2       		.byte	0xf2
 7491 15d4 3F090000 		.4byte	.Ldebug_info0+2367
 7492 15d8 00       		.sleb128 0
 7493 15d9 00000000 		.4byte	0
 7494 15dd 00000000 		.4byte	0
 7495              	.LLST39:
 7496 15e1 E8050000 		.4byte	.LVL114
 7497 15e5 14060000 		.4byte	.LVL122
 7498 15e9 0100     		.2byte	0x1
 7499 15eb 56       		.byte	0x56
 7500 15ec A0060000 		.4byte	.LVL130
 7501 15f0 D2060000 		.4byte	.LVL138
 7502 15f4 0100     		.2byte	0x1
 7503 15f6 56       		.byte	0x56
 7504 15f7 D4060000 		.4byte	.LVL139
 7505 15fb F2060000 		.4byte	.LVL143
 7506 15ff 0100     		.2byte	0x1
 7507 1601 56       		.byte	0x56
 7508 1602 46070000 		.4byte	.LVL147
 7509 1606 4A070000 		.4byte	.LVL148
 7510 160a 0100     		.2byte	0x1
 7511 160c 56       		.byte	0x56
 7512 160d 00000000 		.4byte	0
 7513 1611 00000000 		.4byte	0
 7514              	.LLST40:
 7515 1615 F0050000 		.4byte	.LVL115
 7516 1619 0E060000 		.4byte	.LVL121
 7517 161d 0600     		.2byte	0x6
 7518 161f F2       		.byte	0xf2
 7519 1620 3F090000 		.4byte	.Ldebug_info0+2367
 7520 1624 00       		.sleb128 0
 7521 1625 AA060000 		.4byte	.LVL131
 7522 1629 CC060000 		.4byte	.LVL137
 7523 162d 0600     		.2byte	0x6
 7524 162f F2       		.byte	0xf2
 7525 1630 3F090000 		.4byte	.Ldebug_info0+2367
 7526 1634 00       		.sleb128 0
 7527 1635 D4060000 		.4byte	.LVL139
 7528 1639 4A070000 		.4byte	.LVL148
 7529 163d 0600     		.2byte	0x6
 7530 163f F2       		.byte	0xf2
 7531 1640 3F090000 		.4byte	.Ldebug_info0+2367
 7532 1644 00       		.sleb128 0
 7533 1645 F6070000 		.4byte	.LVL156
 7534 1649 80080000 		.4byte	.LVL162
 7535 164d 0600     		.2byte	0x6
 7536 164f F2       		.byte	0xf2
 7537 1650 3F090000 		.4byte	.Ldebug_info0+2367
 7538 1654 00       		.sleb128 0
 7539 1655 00000000 		.4byte	0
 7540 1659 00000000 		.4byte	0
 7541              	.LLST41:
ARM GAS  C:\Users\pearlstl\AppData\Local\Temp\ccuP9Sbb.s 			page 151


 7542 165d C2080000 		.4byte	.LVL164
 7543 1661 EE080000 		.4byte	.LVL169
 7544 1665 0600     		.2byte	0x6
 7545 1667 F2       		.byte	0xf2
 7546 1668 3F090000 		.4byte	.Ldebug_info0+2367
 7547 166c 00       		.sleb128 0
 7548 166d 00000000 		.4byte	0
 7549 1671 00000000 		.4byte	0
 7550              	.LLST45:
 7551 1675 C2080000 		.4byte	.LVL164
 7552 1679 CA080000 		.4byte	.LVL165
 7553 167d 0100     		.2byte	0x1
 7554 167f 53       		.byte	0x53
 7555 1680 CA080000 		.4byte	.LVL165
 7556 1684 EE080000 		.4byte	.LVL169
 7557 1688 0400     		.2byte	0x4
 7558 168a F3       		.byte	0xf3
 7559 168b 01       		.uleb128 0x1
 7560 168c 53       		.byte	0x53
 7561 168d 9F       		.byte	0x9f
 7562 168e 00000000 		.4byte	0
 7563 1692 00000000 		.4byte	0
 7564              	.LLST46:
 7565 1696 C2080000 		.4byte	.LVL164
 7566 169a CA080000 		.4byte	.LVL165
 7567 169e 0100     		.2byte	0x1
 7568 16a0 53       		.byte	0x53
 7569 16a1 CA080000 		.4byte	.LVL165
 7570 16a5 EE080000 		.4byte	.LVL169
 7571 16a9 0400     		.2byte	0x4
 7572 16ab F3       		.byte	0xf3
 7573 16ac 01       		.uleb128 0x1
 7574 16ad 53       		.byte	0x53
 7575 16ae 9F       		.byte	0x9f
 7576 16af 00000000 		.4byte	0
 7577 16b3 00000000 		.4byte	0
 7578              	.LLST47:
 7579 16b7 C2080000 		.4byte	.LVL164
 7580 16bb CA080000 		.4byte	.LVL165
 7581 16bf 0100     		.2byte	0x1
 7582 16c1 53       		.byte	0x53
 7583 16c2 CA080000 		.4byte	.LVL165
 7584 16c6 EE080000 		.4byte	.LVL169
 7585 16ca 0400     		.2byte	0x4
 7586 16cc F3       		.byte	0xf3
 7587 16cd 01       		.uleb128 0x1
 7588 16ce 53       		.byte	0x53
 7589 16cf 9F       		.byte	0x9f
 7590 16d0 00000000 		.4byte	0
 7591 16d4 00000000 		.4byte	0
 7592              	.LLST48:
 7593 16d8 C2080000 		.4byte	.LVL164
 7594 16dc E9080000 		.4byte	.LVL168-1
 7595 16e0 0100     		.2byte	0x1
 7596 16e2 5E       		.byte	0x5e
 7597 16e3 00000000 		.4byte	0
 7598 16e7 00000000 		.4byte	0
ARM GAS  C:\Users\pearlstl\AppData\Local\Temp\ccuP9Sbb.s 			page 152


 7599              	.LLST49:
 7600 16eb 8E080000 		.4byte	.LVL163
 7601 16ef EE080000 		.4byte	.LVL169
 7602 16f3 0100     		.2byte	0x1
 7603 16f5 58       		.byte	0x58
 7604 16f6 00000000 		.4byte	0
 7605 16fa 00000000 		.4byte	0
 7606              	.LLST50:
 7607 16fe C2080000 		.4byte	.LVL164
 7608 1702 CA080000 		.4byte	.LVL165
 7609 1706 0C00     		.2byte	0xc
 7610 1708 73       		.byte	0x73
 7611 1709 CC00     		.sleb128 76
 7612 170b 94       		.byte	0x94
 7613 170c 02       		.byte	0x2
 7614 170d 40       		.byte	0x40
 7615 170e 24       		.byte	0x24
 7616 170f 40       		.byte	0x40
 7617 1710 26       		.byte	0x26
 7618 1711 31       		.byte	0x31
 7619 1712 1C       		.byte	0x1c
 7620 1713 9F       		.byte	0x9f
 7621 1714 CA080000 		.4byte	.LVL165
 7622 1718 E9080000 		.4byte	.LVL168-1
 7623 171c 0E00     		.2byte	0xe
 7624 171e F3       		.byte	0xf3
 7625 171f 01       		.uleb128 0x1
 7626 1720 53       		.byte	0x53
 7627 1721 23       		.byte	0x23
 7628 1722 4C       		.uleb128 0x4c
 7629 1723 94       		.byte	0x94
 7630 1724 02       		.byte	0x2
 7631 1725 40       		.byte	0x40
 7632 1726 24       		.byte	0x24
 7633 1727 40       		.byte	0x40
 7634 1728 26       		.byte	0x26
 7635 1729 31       		.byte	0x31
 7636 172a 1C       		.byte	0x1c
 7637 172b 9F       		.byte	0x9f
 7638 172c 00000000 		.4byte	0
 7639 1730 00000000 		.4byte	0
 7640              	.LLST51:
 7641 1734 C2080000 		.4byte	.LVL164
 7642 1738 CC080000 		.4byte	.LVL166
 7643 173c 0100     		.2byte	0x1
 7644 173e 56       		.byte	0x56
 7645 173f CC080000 		.4byte	.LVL166
 7646 1743 E9080000 		.4byte	.LVL168-1
 7647 1747 0100     		.2byte	0x1
 7648 1749 53       		.byte	0x53
 7649 174a 00000000 		.4byte	0
 7650 174e 00000000 		.4byte	0
 7651              	.LLST52:
 7652 1752 04090000 		.4byte	.LVL172
 7653 1756 5C090000 		.4byte	.LVL185
 7654 175a 0600     		.2byte	0x6
 7655 175c F2       		.byte	0xf2
ARM GAS  C:\Users\pearlstl\AppData\Local\Temp\ccuP9Sbb.s 			page 153


 7656 175d 3F090000 		.4byte	.Ldebug_info0+2367
 7657 1761 00       		.sleb128 0
 7658 1762 00000000 		.4byte	0
 7659 1766 00000000 		.4byte	0
 7660              	.LLST56:
 7661 176a 04090000 		.4byte	.LVL172
 7662 176e 06090000 		.4byte	.LVL173
 7663 1772 0100     		.2byte	0x1
 7664 1774 53       		.byte	0x53
 7665 1775 06090000 		.4byte	.LVL173
 7666 1779 5C090000 		.4byte	.LVL185
 7667 177d 0400     		.2byte	0x4
 7668 177f F3       		.byte	0xf3
 7669 1780 01       		.uleb128 0x1
 7670 1781 53       		.byte	0x53
 7671 1782 9F       		.byte	0x9f
 7672 1783 00000000 		.4byte	0
 7673 1787 00000000 		.4byte	0
 7674              	.LLST57:
 7675 178b 04090000 		.4byte	.LVL172
 7676 178f 06090000 		.4byte	.LVL173
 7677 1793 0100     		.2byte	0x1
 7678 1795 53       		.byte	0x53
 7679 1796 06090000 		.4byte	.LVL173
 7680 179a 5C090000 		.4byte	.LVL185
 7681 179e 0400     		.2byte	0x4
 7682 17a0 F3       		.byte	0xf3
 7683 17a1 01       		.uleb128 0x1
 7684 17a2 53       		.byte	0x53
 7685 17a3 9F       		.byte	0x9f
 7686 17a4 00000000 		.4byte	0
 7687 17a8 00000000 		.4byte	0
 7688              	.LLST58:
 7689 17ac 04090000 		.4byte	.LVL172
 7690 17b0 06090000 		.4byte	.LVL173
 7691 17b4 0100     		.2byte	0x1
 7692 17b6 53       		.byte	0x53
 7693 17b7 06090000 		.4byte	.LVL173
 7694 17bb 5C090000 		.4byte	.LVL185
 7695 17bf 0400     		.2byte	0x4
 7696 17c1 F3       		.byte	0xf3
 7697 17c2 01       		.uleb128 0x1
 7698 17c3 53       		.byte	0x53
 7699 17c4 9F       		.byte	0x9f
 7700 17c5 00000000 		.4byte	0
 7701 17c9 00000000 		.4byte	0
 7702              	.LLST59:
 7703 17cd 04090000 		.4byte	.LVL172
 7704 17d1 57090000 		.4byte	.LVL184-1
 7705 17d5 0100     		.2byte	0x1
 7706 17d7 5E       		.byte	0x5e
 7707 17d8 00000000 		.4byte	0
 7708 17dc 00000000 		.4byte	0
 7709              	.LLST60:
 7710 17e0 FC080000 		.4byte	.LVL171
 7711 17e4 5C090000 		.4byte	.LVL185
 7712 17e8 0100     		.2byte	0x1
ARM GAS  C:\Users\pearlstl\AppData\Local\Temp\ccuP9Sbb.s 			page 154


 7713 17ea 58       		.byte	0x58
 7714 17eb 00000000 		.4byte	0
 7715 17ef 00000000 		.4byte	0
 7716              	.LLST61:
 7717 17f3 04090000 		.4byte	.LVL172
 7718 17f7 06090000 		.4byte	.LVL173
 7719 17fb 0C00     		.2byte	0xc
 7720 17fd 73       		.byte	0x73
 7721 17fe CC00     		.sleb128 76
 7722 1800 94       		.byte	0x94
 7723 1801 02       		.byte	0x2
 7724 1802 40       		.byte	0x40
 7725 1803 24       		.byte	0x24
 7726 1804 40       		.byte	0x40
 7727 1805 26       		.byte	0x26
 7728 1806 31       		.byte	0x31
 7729 1807 1C       		.byte	0x1c
 7730 1808 9F       		.byte	0x9f
 7731 1809 06090000 		.4byte	.LVL173
 7732 180d 57090000 		.4byte	.LVL184-1
 7733 1811 0E00     		.2byte	0xe
 7734 1813 F3       		.byte	0xf3
 7735 1814 01       		.uleb128 0x1
 7736 1815 53       		.byte	0x53
 7737 1816 23       		.byte	0x23
 7738 1817 4C       		.uleb128 0x4c
 7739 1818 94       		.byte	0x94
 7740 1819 02       		.byte	0x2
 7741 181a 40       		.byte	0x40
 7742 181b 24       		.byte	0x24
 7743 181c 40       		.byte	0x40
 7744 181d 26       		.byte	0x26
 7745 181e 31       		.byte	0x31
 7746 181f 1C       		.byte	0x1c
 7747 1820 9F       		.byte	0x9f
 7748 1821 00000000 		.4byte	0
 7749 1825 00000000 		.4byte	0
 7750              	.LLST62:
 7751 1829 04090000 		.4byte	.LVL172
 7752 182d 0E090000 		.4byte	.LVL174
 7753 1831 0100     		.2byte	0x1
 7754 1833 54       		.byte	0x54
 7755 1834 0E090000 		.4byte	.LVL174
 7756 1838 10090000 		.4byte	.LVL175
 7757 183c 0100     		.2byte	0x1
 7758 183e 51       		.byte	0x51
 7759 183f 10090000 		.4byte	.LVL175
 7760 1843 57090000 		.4byte	.LVL184-1
 7761 1847 1000     		.2byte	0x10
 7762 1849 F3       		.byte	0xf3
 7763 184a 01       		.uleb128 0x1
 7764 184b 53       		.byte	0x53
 7765 184c 23       		.byte	0x23
 7766 184d 4C       		.uleb128 0x4c
 7767 184e 94       		.byte	0x94
 7768 184f 02       		.byte	0x2
 7769 1850 40       		.byte	0x40
ARM GAS  C:\Users\pearlstl\AppData\Local\Temp\ccuP9Sbb.s 			page 155


 7770 1851 24       		.byte	0x24
 7771 1852 40       		.byte	0x40
 7772 1853 26       		.byte	0x26
 7773 1854 31       		.byte	0x31
 7774 1855 1C       		.byte	0x1c
 7775 1856 31       		.byte	0x31
 7776 1857 26       		.byte	0x26
 7777 1858 9F       		.byte	0x9f
 7778 1859 00000000 		.4byte	0
 7779 185d 00000000 		.4byte	0
 7780              	.LLST63:
 7781 1861 04090000 		.4byte	.LVL172
 7782 1865 22090000 		.4byte	.LVL177
 7783 1869 0100     		.2byte	0x1
 7784 186b 57       		.byte	0x57
 7785 186c 22090000 		.4byte	.LVL177
 7786 1870 57090000 		.4byte	.LVL184-1
 7787 1874 1000     		.2byte	0x10
 7788 1876 F3       		.byte	0xf3
 7789 1877 01       		.uleb128 0x1
 7790 1878 53       		.byte	0x53
 7791 1879 23       		.byte	0x23
 7792 187a 4C       		.uleb128 0x4c
 7793 187b 94       		.byte	0x94
 7794 187c 02       		.byte	0x2
 7795 187d 40       		.byte	0x40
 7796 187e 24       		.byte	0x24
 7797 187f 40       		.byte	0x40
 7798 1880 26       		.byte	0x26
 7799 1881 31       		.byte	0x31
 7800 1882 1C       		.byte	0x1c
 7801 1883 31       		.byte	0x31
 7802 1884 1A       		.byte	0x1a
 7803 1885 9F       		.byte	0x9f
 7804 1886 00000000 		.4byte	0
 7805 188a 00000000 		.4byte	0
 7806              	.LLST64:
 7807 188e 1E090000 		.4byte	.LVL176
 7808 1892 38090000 		.4byte	.LVL181
 7809 1896 0100     		.2byte	0x1
 7810 1898 55       		.byte	0x55
 7811 1899 38090000 		.4byte	.LVL181
 7812 189d 57090000 		.4byte	.LVL184-1
 7813 18a1 0100     		.2byte	0x1
 7814 18a3 53       		.byte	0x53
 7815 18a4 00000000 		.4byte	0
 7816 18a8 00000000 		.4byte	0
 7817              		.section	.debug_aranges,"",%progbits
 7818 0000 1C000000 		.4byte	0x1c
 7819 0004 0200     		.2byte	0x2
 7820 0006 00000000 		.4byte	.Ldebug_info0
 7821 000a 04       		.byte	0x4
 7822 000b 00       		.byte	0
 7823 000c 0000     		.2byte	0
 7824 000e 0000     		.2byte	0
 7825 0010 00000000 		.4byte	.LFB32
 7826 0014 0A0A0000 		.4byte	.LFE32-.LFB32
ARM GAS  C:\Users\pearlstl\AppData\Local\Temp\ccuP9Sbb.s 			page 156


 7827 0018 00000000 		.4byte	0
 7828 001c 00000000 		.4byte	0
 7829              		.section	.debug_ranges,"",%progbits
 7830              	.Ldebug_ranges0:
 7831 0000 96000000 		.4byte	.LBB43
 7832 0004 CE000000 		.4byte	.LBE43
 7833 0008 66020000 		.4byte	.LBB118
 7834 000c 72020000 		.4byte	.LBE118
 7835 0010 74020000 		.4byte	.LBB119
 7836 0014 94020000 		.4byte	.LBE119
 7837 0018 B8020000 		.4byte	.LBB121
 7838 001c BA020000 		.4byte	.LBE121
 7839 0020 BC020000 		.4byte	.LBB122
 7840 0024 C2020000 		.4byte	.LBE122
 7841 0028 EC090000 		.4byte	.LBB129
 7842 002c F2090000 		.4byte	.LBE129
 7843 0030 F4090000 		.4byte	.LBB130
 7844 0034 000A0000 		.4byte	.LBE130
 7845 0038 00000000 		.4byte	0
 7846 003c 00000000 		.4byte	0
 7847 0040 E2000000 		.4byte	.LBB51
 7848 0044 2E020000 		.4byte	.LBE51
 7849 0048 94020000 		.4byte	.LBB120
 7850 004c B0020000 		.4byte	.LBE120
 7851 0050 CA020000 		.4byte	.LBB123
 7852 0054 80080000 		.4byte	.LBE123
 7853 0058 72090000 		.4byte	.LBB128
 7854 005c EC090000 		.4byte	.LBE128
 7855 0060 000A0000 		.4byte	.LBB131
 7856 0064 0A0A0000 		.4byte	.LBE131
 7857 0068 00000000 		.4byte	0
 7858 006c 00000000 		.4byte	0
 7859 0070 3E010000 		.4byte	.LBB54
 7860 0074 2E020000 		.4byte	.LBE54
 7861 0078 CA020000 		.4byte	.LBB72
 7862 007c D4020000 		.4byte	.LBE72
 7863 0080 72090000 		.4byte	.LBB107
 7864 0084 74090000 		.4byte	.LBE107
 7865 0088 E6090000 		.4byte	.LBB108
 7866 008c EC090000 		.4byte	.LBE108
 7867 0090 000A0000 		.4byte	.LBB109
 7868 0094 0A0A0000 		.4byte	.LBE109
 7869 0098 00000000 		.4byte	0
 7870 009c 00000000 		.4byte	0
 7871 00a0 3E010000 		.4byte	.LBB55
 7872 00a4 84010000 		.4byte	.LBE55
 7873 00a8 000A0000 		.4byte	.LBB71
 7874 00ac 0A0A0000 		.4byte	.LBE71
 7875 00b0 00000000 		.4byte	0
 7876 00b4 00000000 		.4byte	0
 7877 00b8 96010000 		.4byte	.LBB58
 7878 00bc FE010000 		.4byte	.LBE58
 7879 00c0 04020000 		.4byte	.LBB67
 7880 00c4 2E020000 		.4byte	.LBE67
 7881 00c8 CA020000 		.4byte	.LBB68
 7882 00cc D4020000 		.4byte	.LBE68
 7883 00d0 72090000 		.4byte	.LBB69
ARM GAS  C:\Users\pearlstl\AppData\Local\Temp\ccuP9Sbb.s 			page 157


 7884 00d4 74090000 		.4byte	.LBE69
 7885 00d8 E6090000 		.4byte	.LBB70
 7886 00dc EC090000 		.4byte	.LBE70
 7887 00e0 00000000 		.4byte	0
 7888 00e4 00000000 		.4byte	0
 7889 00e8 A8010000 		.4byte	.LBB59
 7890 00ec CA010000 		.4byte	.LBE59
 7891 00f0 DE010000 		.4byte	.LBB64
 7892 00f4 FE010000 		.4byte	.LBE64
 7893 00f8 1C020000 		.4byte	.LBB65
 7894 00fc 2E020000 		.4byte	.LBE65
 7895 0100 CA020000 		.4byte	.LBB66
 7896 0104 D4020000 		.4byte	.LBE66
 7897 0108 00000000 		.4byte	0
 7898 010c 00000000 		.4byte	0
 7899 0110 2A030000 		.4byte	.LBB73
 7900 0114 54030000 		.4byte	.LBE73
 7901 0118 56030000 		.4byte	.LBB89
 7902 011c 58030000 		.4byte	.LBE89
 7903 0120 E2030000 		.4byte	.LBB90
 7904 0124 1C040000 		.4byte	.LBE90
 7905 0128 7E040000 		.4byte	.LBB91
 7906 012c 98040000 		.4byte	.LBE91
 7907 0130 1E050000 		.4byte	.LBB92
 7908 0134 30050000 		.4byte	.LBE92
 7909 0138 00000000 		.4byte	0
 7910 013c 00000000 		.4byte	0
 7911 0140 2A030000 		.4byte	.LBB75
 7912 0144 4E030000 		.4byte	.LBE75
 7913 0148 E2030000 		.4byte	.LBB81
 7914 014c 10040000 		.4byte	.LBE81
 7915 0150 16040000 		.4byte	.LBB82
 7916 0154 1C040000 		.4byte	.LBE82
 7917 0158 7E040000 		.4byte	.LBB83
 7918 015c 98040000 		.4byte	.LBE83
 7919 0160 1E050000 		.4byte	.LBB84
 7920 0164 30050000 		.4byte	.LBE84
 7921 0168 00000000 		.4byte	0
 7922 016c 00000000 		.4byte	0
 7923 0170 EA050000 		.4byte	.LBB93
 7924 0174 14060000 		.4byte	.LBE93
 7925 0178 A4060000 		.4byte	.LBB105
 7926 017c E6060000 		.4byte	.LBE105
 7927 0180 46070000 		.4byte	.LBB106
 7928 0184 70070000 		.4byte	.LBE106
 7929 0188 00000000 		.4byte	0
 7930 018c 00000000 		.4byte	0
 7931 0190 EA050000 		.4byte	.LBB95
 7932 0194 0E060000 		.4byte	.LBE95
 7933 0198 A4060000 		.4byte	.LBB100
 7934 019c CC060000 		.4byte	.LBE100
 7935 01a0 D4060000 		.4byte	.LBB101
 7936 01a4 E6060000 		.4byte	.LBE101
 7937 01a8 46070000 		.4byte	.LBB102
 7938 01ac 70070000 		.4byte	.LBE102
 7939 01b0 00000000 		.4byte	0
 7940 01b4 00000000 		.4byte	0
ARM GAS  C:\Users\pearlstl\AppData\Local\Temp\ccuP9Sbb.s 			page 158


 7941 01b8 00000000 		.4byte	.LFB32
 7942 01bc 0A0A0000 		.4byte	.LFE32
 7943 01c0 00000000 		.4byte	0
 7944 01c4 00000000 		.4byte	0
 7945              		.section	.debug_line,"",%progbits
 7946              	.Ldebug_line0:
 7947 0000 51050000 		.section	.debug_str,"MS",%progbits,1
 7947      0200A602 
 7947      00000201 
 7947      FB0E0D00 
 7947      01010101 
 7948              	.LASF116:
 7949 0000 706F696E 		.ascii	"point1\000"
 7949      743100
 7950              	.LASF117:
 7951 0007 706F696E 		.ascii	"point2\000"
 7951      743200
 7952              	.LASF30:
 7953 000e 6765745F 		.ascii	"get_glyph_bitmap\000"
 7953      676C7970 
 7953      685F6269 
 7953      746D6170 
 7953      00
 7954              	.LASF40:
 7955 001f 4C565F4F 		.ascii	"LV_OPA_40\000"
 7955      50415F34 
 7955      3000
 7956              	.LASF79:
 7957 0029 726F756E 		.ascii	"rounded\000"
 7957      64656400 
 7958              	.LASF53:
 7959 0031 6C765F63 		.ascii	"lv_color_t\000"
 7959      6F6C6F72 
 7959      5F7400
 7960              	.LASF92:
 7961 003c 77696474 		.ascii	"width_half\000"
 7961      685F6861 
 7961      6C6600
 7962              	.LASF1:
 7963 0047 5F5F7569 		.ascii	"__uint8_t\000"
 7963      6E74385F 
 7963      7400
 7964              	.LASF70:
 7965 0051 626F7264 		.ascii	"border\000"
 7965      657200
 7966              	.LASF62:
 7967 0058 74797065 		.ascii	"type\000"
 7967      00
 7968              	.LASF12:
 7969 005d 6C6F6E67 		.ascii	"long long unsigned int\000"
 7969      206C6F6E 
 7969      6720756E 
 7969      7369676E 
 7969      65642069 
 7970              	.LASF34:
 7971 0074 6C765F66 		.ascii	"lv_font_t\000"
 7971      6F6E745F 
ARM GAS  C:\Users\pearlstl\AppData\Local\Temp\ccuP9Sbb.s 			page 159


 7971      7400
 7972              	.LASF86:
 7973 007e 705F6163 		.ascii	"p_act\000"
 7973      7400
 7974              	.LASF118:
 7975 0084 6C765F64 		.ascii	"lv_draw_get_buf\000"
 7975      7261775F 
 7975      6765745F 
 7975      62756600 
 7976              	.LASF0:
 7977 0094 5F5F696E 		.ascii	"__int8_t\000"
 7977      74385F74 
 7977      00
 7978              	.LASF52:
 7979 009d 6C765F63 		.ascii	"lv_color32_t\000"
 7979      6F6C6F72 
 7979      33325F74 
 7979      00
 7980              	.LASF80:
 7981 00aa 676C6173 		.ascii	"glass\000"
 7981      7300
 7982              	.LASF22:
 7983 00b0 6C765F63 		.ascii	"lv_coord_t\000"
 7983      6F6F7264 
 7983      5F7400
 7984              	.LASF65:
 7985 00bb 72696768 		.ascii	"right\000"
 7985      7400
 7986              	.LASF19:
 7987 00c1 696E7431 		.ascii	"int16_t\000"
 7987      365F7400 
 7988              	.LASF11:
 7989 00c9 6C6F6E67 		.ascii	"long long int\000"
 7989      206C6F6E 
 7989      6720696E 
 7989      7400
 7990              	.LASF2:
 7991 00d7 7369676E 		.ascii	"signed char\000"
 7991      65642063 
 7991      68617200 
 7992              	.LASF50:
 7993 00e3 616C7068 		.ascii	"alpha\000"
 7993      6100
 7994              	.LASF41:
 7995 00e9 4C565F4F 		.ascii	"LV_OPA_50\000"
 7995      50415F35 
 7995      3000
 7996              	.LASF39:
 7997 00f3 4C565F4F 		.ascii	"LV_OPA_30\000"
 7997      50415F33 
 7997      3000
 7998              	.LASF81:
 7999 00fd 626F6479 		.ascii	"body\000"
 7999      00
 8000              	.LASF56:
 8001 0102 6C765F61 		.ascii	"lv_area_t\000"
 8001      7265615F 
ARM GAS  C:\Users\pearlstl\AppData\Local\Temp\ccuP9Sbb.s 			page 160


 8001      7400
 8002              	.LASF8:
 8003 010c 6C6F6E67 		.ascii	"long int\000"
 8003      20696E74 
 8003      00
 8004              	.LASF103:
 8005 0115 6469725F 		.ascii	"dir_ori\000"
 8005      6F726900 
 8006              	.LASF114:
 8007 011d 6C696E65 		.ascii	"line_init\000"
 8007      5F696E69 
 8007      7400
 8008              	.LASF67:
 8009 0127 6D61696E 		.ascii	"main_color\000"
 8009      5F636F6C 
 8009      6F7200
 8010              	.LASF20:
 8011 0132 75696E74 		.ascii	"uint16_t\000"
 8011      31365F74 
 8011      00
 8012              	.LASF47:
 8013 013b 4C565F4F 		.ascii	"LV_OPA_COVER\000"
 8013      50415F43 
 8013      4F564552 
 8013      00
 8014              	.LASF110:
 8015 0148 70726576 		.ascii	"prev_p\000"
 8015      5F7000
 8016              	.LASF96:
 8017 014f 6C696E65 		.ascii	"line_draw_hor\000"
 8017      5F647261 
 8017      775F686F 
 8017      7200
 8018              	.LASF115:
 8019 015d 6C696E65 		.ascii	"line_next\000"
 8019      5F6E6578 
 8019      7400
 8020              	.LASF63:
 8021 0167 626F7474 		.ascii	"bottom\000"
 8021      6F6D00
 8022              	.LASF84:
 8023 016e 6C696E65 		.ascii	"line\000"
 8023      00
 8024              	.LASF89:
 8025 0173 6D61736B 		.ascii	"mask\000"
 8025      00
 8026              	.LASF42:
 8027 0178 4C565F4F 		.ascii	"LV_OPA_60\000"
 8027      50415F36 
 8027      3000
 8028              	.LASF4:
 8029 0182 5F5F696E 		.ascii	"__int16_t\000"
 8029      7431365F 
 8029      7400
 8030              	.LASF72:
 8031 018c 70616464 		.ascii	"padding\000"
 8031      696E6700 
ARM GAS  C:\Users\pearlstl\AppData\Local\Temp\ccuP9Sbb.s 			page 161


 8032              	.LASF9:
 8033 0194 5F5F7569 		.ascii	"__uint32_t\000"
 8033      6E743332 
 8033      5F7400
 8034              	.LASF13:
 8035 019f 756E7369 		.ascii	"unsigned int\000"
 8035      676E6564 
 8035      20696E74 
 8035      00
 8036              	.LASF29:
 8037 01ac 6765745F 		.ascii	"get_glyph_dsc\000"
 8037      676C7970 
 8037      685F6473 
 8037      6300
 8038              	.LASF10:
 8039 01ba 6C6F6E67 		.ascii	"long unsigned int\000"
 8039      20756E73 
 8039      69676E65 
 8039      6420696E 
 8039      7400
 8040              	.LASF106:
 8041 01cc 70617474 		.ascii	"pattern_size\000"
 8041      65726E5F 
 8041      73697A65 
 8041      00
 8042              	.LASF125:
 8043 01d9 6C765F64 		.ascii	"lv_draw_line\000"
 8043      7261775F 
 8043      6C696E65 
 8043      00
 8044              	.LASF60:
 8045 01e6 77696474 		.ascii	"width\000"
 8045      6800
 8046              	.LASF7:
 8047 01ec 73686F72 		.ascii	"short unsigned int\000"
 8047      7420756E 
 8047      7369676E 
 8047      65642069 
 8047      6E7400
 8048              	.LASF31:
 8049 01ff 6C696E65 		.ascii	"line_height\000"
 8049      5F686569 
 8049      67687400 
 8050              	.LASF78:
 8051 020b 73756270 		.ascii	"subpx\000"
 8051      7800
 8052              	.LASF97:
 8053 0211 6C696E65 		.ascii	"line_draw_ver\000"
 8053      5F647261 
 8053      775F7665 
 8053      7200
 8054              	.LASF123:
 8055 021f 433A5C55 		.ascii	"C:\\Users\\pearlstl\\Documents\\_Research\\projects"
 8055      73657273 
 8055      5C706561 
 8055      726C7374 
 8055      6C5C446F 
ARM GAS  C:\Users\pearlstl\AppData\Local\Temp\ccuP9Sbb.s 			page 162


 8056 024d 5C74636F 		.ascii	"\\tcom_engineering\\embed_sw\\tcom_app\\tcom_app_ps"
 8056      6D5F656E 
 8056      67696E65 
 8056      6572696E 
 8056      675C656D 
 8057 027c 6F63365F 		.ascii	"oc6_lvgl6\\tcom_displ_test_psoc6.cydsn\000"
 8057      6C76676C 
 8057      365C7463 
 8057      6F6D5F64 
 8057      6973706C 
 8058              	.LASF43:
 8059 02a2 4C565F4F 		.ascii	"LV_OPA_70\000"
 8059      50415F37 
 8059      3000
 8060              	.LASF105:
 8061 02ac 76656374 		.ascii	"vect_norm\000"
 8061      5F6E6F72 
 8061      6D00
 8062              	.LASF111:
 8063 02b6 66697273 		.ascii	"first_run\000"
 8063      745F7275 
 8063      6E00
 8064              	.LASF71:
 8065 02c0 73686164 		.ascii	"shadow\000"
 8065      6F7700
 8066              	.LASF54:
 8067 02c7 6C765F6F 		.ascii	"lv_opa_t\000"
 8067      70615F74 
 8067      00
 8068              	.LASF91:
 8069 02d0 6F70615F 		.ascii	"opa_scale\000"
 8069      7363616C 
 8069      6500
 8070              	.LASF69:
 8071 02da 72616469 		.ascii	"radius\000"
 8071      757300
 8072              	.LASF15:
 8073 02e1 73697A65 		.ascii	"sizetype\000"
 8073      74797065 
 8073      00
 8074              	.LASF109:
 8075 02ea 795F6365 		.ascii	"y_center_ofs\000"
 8075      6E746572 
 8075      5F6F6673 
 8075      00
 8076              	.LASF35:
 8077 02f7 4C565F4F 		.ascii	"LV_OPA_TRANSP\000"
 8077      50415F54 
 8077      52414E53 
 8077      5000
 8078              	.LASF14:
 8079 0305 6C6F6E67 		.ascii	"long double\000"
 8079      20646F75 
 8079      626C6500 
 8080              	.LASF51:
 8081 0311 66756C6C 		.ascii	"full\000"
 8081      00
ARM GAS  C:\Users\pearlstl\AppData\Local\Temp\ccuP9Sbb.s 			page 163


 8082              	.LASF112:
 8083 0316 70617474 		.ascii	"pattern_line\000"
 8083      65726E5F 
 8083      6C696E65 
 8083      00
 8084              	.LASF44:
 8085 0323 4C565F4F 		.ascii	"LV_OPA_80\000"
 8085      50415F38 
 8085      3000
 8086              	.LASF100:
 8087 032d 6C696E65 		.ascii	"line_next_x\000"
 8087      5F6E6578 
 8087      745F7800 
 8088              	.LASF99:
 8089 0339 6C696E65 		.ascii	"line_next_y\000"
 8089      5F6E6578 
 8089      745F7900 
 8090              	.LASF102:
 8091 0345 6C696E65 		.ascii	"line_draw_skew\000"
 8091      5F647261 
 8091      775F736B 
 8091      657700
 8092              	.LASF107:
 8093 0354 70617474 		.ascii	"pattern\000"
 8093      65726E00 
 8094              	.LASF75:
 8095 035c 6C657474 		.ascii	"letter_space\000"
 8095      65725F73 
 8095      70616365 
 8095      00
 8096              	.LASF87:
 8097 0369 6C696E65 		.ascii	"line_draw_t\000"
 8097      5F647261 
 8097      775F7400 
 8098              	.LASF58:
 8099 0375 6C765F73 		.ascii	"lv_shadow_type_t\000"
 8099      6861646F 
 8099      775F7479 
 8099      70655F74 
 8099      00
 8100              	.LASF76:
 8101 0386 6C696E65 		.ascii	"line_space\000"
 8101      5F737061 
 8101      636500
 8102              	.LASF94:
 8103 0391 6163745F 		.ascii	"act_area\000"
 8103      61726561 
 8103      00
 8104              	.LASF101:
 8105 039a 6C617374 		.ascii	"last_x\000"
 8105      5F7800
 8106              	.LASF98:
 8107 03a1 6C617374 		.ascii	"last_y\000"
 8107      5F7900
 8108              	.LASF32:
 8109 03a8 62617365 		.ascii	"base_line\000"
 8109      5F6C696E 
ARM GAS  C:\Users\pearlstl\AppData\Local\Temp\ccuP9Sbb.s 			page 164


 8109      6500
 8110              	.LASF37:
 8111 03b2 4C565F4F 		.ascii	"LV_OPA_10\000"
 8111      50415F31 
 8111      3000
 8112              	.LASF121:
 8113 03bc 474E5520 		.ascii	"GNU C11 5.4.1 20160609 (release) [ARM/embedded-5-br"
 8113      43313120 
 8113      352E342E 
 8113      31203230 
 8113      31363036 
 8114 03ef 616E6368 		.ascii	"anch revision 237715] -mcpu=cortex-m4 -mfloat-abi=s"
 8114      20726576 
 8114      6973696F 
 8114      6E203233 
 8114      37373135 
 8115 0422 6F667466 		.ascii	"oftfp -mfpu=fpv4-sp-d16 -mthumb -g -O3 -ffunction-s"
 8115      70202D6D 
 8115      6670753D 
 8115      66707634 
 8115      2D73702D 
 8116 0455 65637469 		.ascii	"ections -ffat-lto-objects\000"
 8116      6F6E7320 
 8116      2D666661 
 8116      742D6C74 
 8116      6F2D6F62 
 8117              	.LASF3:
 8118 046f 756E7369 		.ascii	"unsigned char\000"
 8118      676E6564 
 8118      20636861 
 8118      7200
 8119              	.LASF85:
 8120 047d 6C765F73 		.ascii	"lv_style_t\000"
 8120      74796C65 
 8120      5F7400
 8121              	.LASF83:
 8122 0488 696D6167 		.ascii	"image\000"
 8122      6500
 8123              	.LASF5:
 8124 048e 73686F72 		.ascii	"short int\000"
 8124      7420696E 
 8124      7400
 8125              	.LASF57:
 8126 0498 6C765F62 		.ascii	"lv_border_part_t\000"
 8126      6F726465 
 8126      725F7061 
 8126      72745F74 
 8126      00
 8127              	.LASF45:
 8128 04a9 4C565F4F 		.ascii	"LV_OPA_90\000"
 8128      50415F39 
 8128      3000
 8129              	.LASF113:
 8130 04b3 77696474 		.ascii	"width_sqr\000"
 8130      685F7371 
 8130      7200
 8131              	.LASF18:
ARM GAS  C:\Users\pearlstl\AppData\Local\Temp\ccuP9Sbb.s 			page 165


 8132 04bd 75696E74 		.ascii	"uint8_t\000"
 8132      385F7400 
 8133              	.LASF122:
 8134 04c5 2E2E5C2E 		.ascii	"..\\..\\..\\lvgl\\version_6.1.2\\lvgl\\src\\lv_draw"
 8134      2E5C2E2E 
 8134      5C6C7667 
 8134      6C5C7665 
 8134      7273696F 
 8135 04f1 5C6C765F 		.ascii	"\\lv_draw_line.c\000"
 8135      64726177 
 8135      5F6C696E 
 8135      652E6300 
 8136              	.LASF68:
 8137 0501 67726164 		.ascii	"grad_color\000"
 8137      5F636F6C 
 8137      6F7200
 8138              	.LASF21:
 8139 050c 75696E74 		.ascii	"uint32_t\000"
 8139      33325F74 
 8139      00
 8140              	.LASF33:
 8141 0515 5F426F6F 		.ascii	"_Bool\000"
 8141      6C00
 8142              	.LASF48:
 8143 051b 626C7565 		.ascii	"blue\000"
 8143      00
 8144              	.LASF59:
 8145 0520 636F6C6F 		.ascii	"color\000"
 8145      7200
 8146              	.LASF16:
 8147 0526 63686172 		.ascii	"char\000"
 8147      00
 8148              	.LASF38:
 8149 052b 4C565F4F 		.ascii	"LV_OPA_20\000"
 8149      50415F32 
 8149      3000
 8150              	.LASF82:
 8151 0535 74657874 		.ascii	"text\000"
 8151      00
 8152              	.LASF6:
 8153 053a 5F5F7569 		.ascii	"__uint16_t\000"
 8153      6E743136 
 8153      5F7400
 8154              	.LASF119:
 8155 0545 6C765F64 		.ascii	"lv_draw_fill\000"
 8155      7261775F 
 8155      66696C6C 
 8155      00
 8156              	.LASF108:
 8157 0552 785F6365 		.ascii	"x_center_ofs\000"
 8157      6E746572 
 8157      5F6F6673 
 8157      00
 8158              	.LASF90:
 8159 055f 7374796C 		.ascii	"style\000"
 8159      6500
 8160              	.LASF73:
ARM GAS  C:\Users\pearlstl\AppData\Local\Temp\ccuP9Sbb.s 			page 166


 8161 0565 73656C5F 		.ascii	"sel_color\000"
 8161      636F6C6F 
 8161      7200
 8162              	.LASF46:
 8163 056f 4C565F4F 		.ascii	"LV_OPA_100\000"
 8163      50415F31 
 8163      303000
 8164              	.LASF23:
 8165 057a 6164765F 		.ascii	"adv_w\000"
 8165      7700
 8166              	.LASF88:
 8167 0580 6D61696E 		.ascii	"main_line\000"
 8167      5F6C696E 
 8167      6500
 8168              	.LASF93:
 8169 058a 77696474 		.ascii	"width_1\000"
 8169      685F3100 
 8170              	.LASF17:
 8171 0592 696E7438 		.ascii	"int8_t\000"
 8171      5F7400
 8172              	.LASF25:
 8173 0599 626F785F 		.ascii	"box_h\000"
 8173      6800
 8174              	.LASF24:
 8175 059f 626F785F 		.ascii	"box_w\000"
 8175      7700
 8176              	.LASF124:
 8177 05a5 5F6C765F 		.ascii	"_lv_font_struct\000"
 8177      666F6E74 
 8177      5F737472 
 8177      75637400 
 8178              	.LASF74:
 8179 05b5 666F6E74 		.ascii	"font\000"
 8179      00
 8180              	.LASF49:
 8181 05ba 67726565 		.ascii	"green\000"
 8181      6E00
 8182              	.LASF104:
 8183 05c0 76656374 		.ascii	"vect_main\000"
 8183      5F6D6169 
 8183      6E00
 8184              	.LASF77:
 8185 05ca 696E7465 		.ascii	"intense\000"
 8185      6E736500 
 8186              	.LASF55:
 8187 05d2 6C765F70 		.ascii	"lv_point_t\000"
 8187      6F696E74 
 8187      5F7400
 8188              	.LASF95:
 8189 05dd 64726177 		.ascii	"draw_area\000"
 8189      5F617265 
 8189      6100
 8190              	.LASF36:
 8191 05e7 4C565F4F 		.ascii	"LV_OPA_0\000"
 8191      50415F30 
 8191      00
 8192              	.LASF26:
ARM GAS  C:\Users\pearlstl\AppData\Local\Temp\ccuP9Sbb.s 			page 167


 8193 05f0 6F66735F 		.ascii	"ofs_x\000"
 8193      7800
 8194              	.LASF27:
 8195 05f6 6F66735F 		.ascii	"ofs_y\000"
 8195      7900
 8196              	.LASF28:
 8197 05fc 6C765F66 		.ascii	"lv_font_glyph_dsc_t\000"
 8197      6F6E745F 
 8197      676C7970 
 8197      685F6473 
 8197      635F7400 
 8198              	.LASF66:
 8199 0610 696E6E65 		.ascii	"inner\000"
 8199      7200
 8200              	.LASF64:
 8201 0616 6C656674 		.ascii	"left\000"
 8201      00
 8202              	.LASF61:
 8203 061b 70617274 		.ascii	"part\000"
 8203      00
 8204              	.LASF120:
 8205 0620 6C765F64 		.ascii	"lv_draw_px\000"
 8205      7261775F 
 8205      707800
 8206              		.ident	"GCC: (GNU Tools for ARM Embedded Processors) 5.4.1 20160609 (release) [ARM/embedded-5-bran
