ARM GAS  C:\Users\pearlstl\AppData\Local\Temp\ccmYHcOW.s 			page 1


   1              		.syntax unified
   2              		.cpu cortex-m4
   3              		.eabi_attribute 27, 1
   4              		.fpu fpv4-sp-d16
   5              		.eabi_attribute 20, 1
   6              		.eabi_attribute 21, 1
   7              		.eabi_attribute 23, 3
   8              		.eabi_attribute 24, 1
   9              		.eabi_attribute 25, 1
  10              		.eabi_attribute 26, 1
  11              		.eabi_attribute 30, 2
  12              		.eabi_attribute 34, 1
  13              		.eabi_attribute 18, 4
  14              		.thumb
  15              		.syntax unified
  16              		.file	"lv_draw_basic.c"
  17              		.text
  18              	.Ltext0:
  19              		.cfi_sections	.debug_frame
  20              		.section	.text.lv_draw_px,"ax",%progbits
  21              		.align	2
  22              		.global	lv_draw_px
  23              		.thumb
  24              		.thumb_func
  25              		.type	lv_draw_px, %function
  26              	lv_draw_px:
  27              	.LFB31:
  28              		.file 1 "..\\..\\..\\lvgl\\version_6.1.2\\lvgl\\src\\lv_draw\\lv_draw_basic.c"
   1:..\..\..\lvgl\version_6.1.2\lvgl\src\lv_draw/lv_draw_basic.c **** /**
   2:..\..\..\lvgl\version_6.1.2\lvgl\src\lv_draw/lv_draw_basic.c ****  * @file lv_draw_basic.c
   3:..\..\..\lvgl\version_6.1.2\lvgl\src\lv_draw/lv_draw_basic.c ****  *
   4:..\..\..\lvgl\version_6.1.2\lvgl\src\lv_draw/lv_draw_basic.c ****  */
   5:..\..\..\lvgl\version_6.1.2\lvgl\src\lv_draw/lv_draw_basic.c **** 
   6:..\..\..\lvgl\version_6.1.2\lvgl\src\lv_draw/lv_draw_basic.c **** #include "lv_draw_basic.h"
   7:..\..\..\lvgl\version_6.1.2\lvgl\src\lv_draw/lv_draw_basic.c **** 
   8:..\..\..\lvgl\version_6.1.2\lvgl\src\lv_draw/lv_draw_basic.c **** #include <stdbool.h>
   9:..\..\..\lvgl\version_6.1.2\lvgl\src\lv_draw/lv_draw_basic.c **** #include <stdint.h>
  10:..\..\..\lvgl\version_6.1.2\lvgl\src\lv_draw/lv_draw_basic.c **** #include <string.h>
  11:..\..\..\lvgl\version_6.1.2\lvgl\src\lv_draw/lv_draw_basic.c **** 
  12:..\..\..\lvgl\version_6.1.2\lvgl\src\lv_draw/lv_draw_basic.c **** #include "../lv_core/lv_refr.h"
  13:..\..\..\lvgl\version_6.1.2\lvgl\src\lv_draw/lv_draw_basic.c **** #include "../lv_hal/lv_hal.h"
  14:..\..\..\lvgl\version_6.1.2\lvgl\src\lv_draw/lv_draw_basic.c **** #include "../lv_font/lv_font.h"
  15:..\..\..\lvgl\version_6.1.2\lvgl\src\lv_draw/lv_draw_basic.c **** #include "../lv_misc/lv_area.h"
  16:..\..\..\lvgl\version_6.1.2\lvgl\src\lv_draw/lv_draw_basic.c **** #include "../lv_misc/lv_color.h"
  17:..\..\..\lvgl\version_6.1.2\lvgl\src\lv_draw/lv_draw_basic.c **** #include "../lv_misc/lv_log.h"
  18:..\..\..\lvgl\version_6.1.2\lvgl\src\lv_draw/lv_draw_basic.c **** 
  19:..\..\..\lvgl\version_6.1.2\lvgl\src\lv_draw/lv_draw_basic.c **** #include <stddef.h>
  20:..\..\..\lvgl\version_6.1.2\lvgl\src\lv_draw/lv_draw_basic.c **** #include "lv_draw.h"
  21:..\..\..\lvgl\version_6.1.2\lvgl\src\lv_draw/lv_draw_basic.c **** 
  22:..\..\..\lvgl\version_6.1.2\lvgl\src\lv_draw/lv_draw_basic.c **** /*********************
  23:..\..\..\lvgl\version_6.1.2\lvgl\src\lv_draw/lv_draw_basic.c ****  *      INCLUDES
  24:..\..\..\lvgl\version_6.1.2\lvgl\src\lv_draw/lv_draw_basic.c ****  *********************/
  25:..\..\..\lvgl\version_6.1.2\lvgl\src\lv_draw/lv_draw_basic.c **** 
  26:..\..\..\lvgl\version_6.1.2\lvgl\src\lv_draw/lv_draw_basic.c **** /*********************
  27:..\..\..\lvgl\version_6.1.2\lvgl\src\lv_draw/lv_draw_basic.c ****  *      DEFINES
  28:..\..\..\lvgl\version_6.1.2\lvgl\src\lv_draw/lv_draw_basic.c ****  *********************/
  29:..\..\..\lvgl\version_6.1.2\lvgl\src\lv_draw/lv_draw_basic.c **** 
ARM GAS  C:\Users\pearlstl\AppData\Local\Temp\ccmYHcOW.s 			page 2


  30:..\..\..\lvgl\version_6.1.2\lvgl\src\lv_draw/lv_draw_basic.c **** /*Always fill < 50 px with 'sw_color_fill' because of the hw. init overhead*/
  31:..\..\..\lvgl\version_6.1.2\lvgl\src\lv_draw/lv_draw_basic.c **** #define VFILL_HW_ACC_SIZE_LIMIT 50
  32:..\..\..\lvgl\version_6.1.2\lvgl\src\lv_draw/lv_draw_basic.c **** 
  33:..\..\..\lvgl\version_6.1.2\lvgl\src\lv_draw/lv_draw_basic.c **** #ifndef LV_ATTRIBUTE_MEM_ALIGN
  34:..\..\..\lvgl\version_6.1.2\lvgl\src\lv_draw/lv_draw_basic.c **** #define LV_ATTRIBUTE_MEM_ALIGN
  35:..\..\..\lvgl\version_6.1.2\lvgl\src\lv_draw/lv_draw_basic.c **** #endif
  36:..\..\..\lvgl\version_6.1.2\lvgl\src\lv_draw/lv_draw_basic.c **** 
  37:..\..\..\lvgl\version_6.1.2\lvgl\src\lv_draw/lv_draw_basic.c **** /**********************
  38:..\..\..\lvgl\version_6.1.2\lvgl\src\lv_draw/lv_draw_basic.c ****  *      TYPEDEFS
  39:..\..\..\lvgl\version_6.1.2\lvgl\src\lv_draw/lv_draw_basic.c ****  **********************/
  40:..\..\..\lvgl\version_6.1.2\lvgl\src\lv_draw/lv_draw_basic.c **** 
  41:..\..\..\lvgl\version_6.1.2\lvgl\src\lv_draw/lv_draw_basic.c **** /**********************
  42:..\..\..\lvgl\version_6.1.2\lvgl\src\lv_draw/lv_draw_basic.c ****  *  STATIC PROTOTYPES
  43:..\..\..\lvgl\version_6.1.2\lvgl\src\lv_draw/lv_draw_basic.c ****  **********************/
  44:..\..\..\lvgl\version_6.1.2\lvgl\src\lv_draw/lv_draw_basic.c **** static void sw_mem_blend(lv_color_t * dest, const lv_color_t * src, uint32_t length, lv_opa_t opa);
  45:..\..\..\lvgl\version_6.1.2\lvgl\src\lv_draw/lv_draw_basic.c **** static void sw_color_fill(lv_color_t * mem, lv_coord_t mem_width, const lv_area_t * fill_area, lv_c
  46:..\..\..\lvgl\version_6.1.2\lvgl\src\lv_draw/lv_draw_basic.c ****                           lv_opa_t opa);
  47:..\..\..\lvgl\version_6.1.2\lvgl\src\lv_draw/lv_draw_basic.c **** 
  48:..\..\..\lvgl\version_6.1.2\lvgl\src\lv_draw/lv_draw_basic.c **** #if LV_COLOR_DEPTH == 32 && LV_COLOR_SCREEN_TRANSP
  49:..\..\..\lvgl\version_6.1.2\lvgl\src\lv_draw/lv_draw_basic.c **** static inline lv_color_t color_mix_2_alpha(lv_color_t bg_color, lv_opa_t bg_opa, lv_color_t fg_colo
  50:..\..\..\lvgl\version_6.1.2\lvgl\src\lv_draw/lv_draw_basic.c **** #endif
  51:..\..\..\lvgl\version_6.1.2\lvgl\src\lv_draw/lv_draw_basic.c **** 
  52:..\..\..\lvgl\version_6.1.2\lvgl\src\lv_draw/lv_draw_basic.c **** /**********************
  53:..\..\..\lvgl\version_6.1.2\lvgl\src\lv_draw/lv_draw_basic.c ****  *  STATIC VARIABLES
  54:..\..\..\lvgl\version_6.1.2\lvgl\src\lv_draw/lv_draw_basic.c ****  **********************/
  55:..\..\..\lvgl\version_6.1.2\lvgl\src\lv_draw/lv_draw_basic.c **** 
  56:..\..\..\lvgl\version_6.1.2\lvgl\src\lv_draw/lv_draw_basic.c **** /**********************
  57:..\..\..\lvgl\version_6.1.2\lvgl\src\lv_draw/lv_draw_basic.c ****  *      MACROS
  58:..\..\..\lvgl\version_6.1.2\lvgl\src\lv_draw/lv_draw_basic.c ****  **********************/
  59:..\..\..\lvgl\version_6.1.2\lvgl\src\lv_draw/lv_draw_basic.c **** 
  60:..\..\..\lvgl\version_6.1.2\lvgl\src\lv_draw/lv_draw_basic.c **** /**********************
  61:..\..\..\lvgl\version_6.1.2\lvgl\src\lv_draw/lv_draw_basic.c ****  *   GLOBAL FUNCTIONS
  62:..\..\..\lvgl\version_6.1.2\lvgl\src\lv_draw/lv_draw_basic.c ****  **********************/
  63:..\..\..\lvgl\version_6.1.2\lvgl\src\lv_draw/lv_draw_basic.c **** 
  64:..\..\..\lvgl\version_6.1.2\lvgl\src\lv_draw/lv_draw_basic.c **** /**
  65:..\..\..\lvgl\version_6.1.2\lvgl\src\lv_draw/lv_draw_basic.c ****  * Put a pixel in the Virtual Display Buffer
  66:..\..\..\lvgl\version_6.1.2\lvgl\src\lv_draw/lv_draw_basic.c ****  * @param x pixel x coordinate
  67:..\..\..\lvgl\version_6.1.2\lvgl\src\lv_draw/lv_draw_basic.c ****  * @param y pixel y coordinate
  68:..\..\..\lvgl\version_6.1.2\lvgl\src\lv_draw/lv_draw_basic.c ****  * @param mask_p fill only on this mask (truncated to VDB area)
  69:..\..\..\lvgl\version_6.1.2\lvgl\src\lv_draw/lv_draw_basic.c ****  * @param color pixel color
  70:..\..\..\lvgl\version_6.1.2\lvgl\src\lv_draw/lv_draw_basic.c ****  * @param opa opacity of the area (0..255)
  71:..\..\..\lvgl\version_6.1.2\lvgl\src\lv_draw/lv_draw_basic.c ****  */
  72:..\..\..\lvgl\version_6.1.2\lvgl\src\lv_draw/lv_draw_basic.c **** void lv_draw_px(lv_coord_t x, lv_coord_t y, const lv_area_t * mask_p, lv_color_t color, lv_opa_t op
  73:..\..\..\lvgl\version_6.1.2\lvgl\src\lv_draw/lv_draw_basic.c **** {
  29              		.loc 1 73 0
  30              		.cfi_startproc
  31              		@ args = 4, pretend = 0, frame = 0
  32              		@ frame_needed = 0, uses_anonymous_args = 0
  33              	.LVL0:
  34 0000 2DE9F043 		push	{r4, r5, r6, r7, r8, r9, lr}
  35              		.cfi_def_cfa_offset 28
  36              		.cfi_offset 4, -28
  37              		.cfi_offset 5, -24
  38              		.cfi_offset 6, -20
  39              		.cfi_offset 7, -16
  40              		.cfi_offset 8, -12
  41              		.cfi_offset 9, -8
ARM GAS  C:\Users\pearlstl\AppData\Local\Temp\ccmYHcOW.s 			page 3


  42              		.cfi_offset 14, -4
  43 0004 85B0     		sub	sp, sp, #20
  44              		.cfi_def_cfa_offset 48
  45              		.loc 1 73 0
  46 0006 9DF83040 		ldrb	r4, [sp, #48]	@ zero_extendqisi2
  74:..\..\..\lvgl\version_6.1.2\lvgl\src\lv_draw/lv_draw_basic.c **** 
  75:..\..\..\lvgl\version_6.1.2\lvgl\src\lv_draw/lv_draw_basic.c ****     if(opa < LV_OPA_MIN) return;
  47              		.loc 1 75 0
  48 000a 0F2C     		cmp	r4, #15
  49 000c 2ED9     		bls	.L1
  76:..\..\..\lvgl\version_6.1.2\lvgl\src\lv_draw/lv_draw_basic.c ****     if(opa > LV_OPA_MAX) opa = LV_OPA_COVER;
  77:..\..\..\lvgl\version_6.1.2\lvgl\src\lv_draw/lv_draw_basic.c **** 
  78:..\..\..\lvgl\version_6.1.2\lvgl\src\lv_draw/lv_draw_basic.c ****     /*Pixel out of the mask*/
  79:..\..\..\lvgl\version_6.1.2\lvgl\src\lv_draw/lv_draw_basic.c ****     if(x < mask_p->x1 || x > mask_p->x2 || y < mask_p->y1 || y > mask_p->y2) {
  50              		.loc 1 79 0
  51 000e B2F90050 		ldrsh	r5, [r2]
  76:..\..\..\lvgl\version_6.1.2\lvgl\src\lv_draw/lv_draw_basic.c ****     if(opa > LV_OPA_MAX) opa = LV_OPA_COVER;
  52              		.loc 1 76 0
  53 0012 FC2C     		cmp	r4, #252
  54 0014 28BF     		it	cs
  55 0016 FF24     		movcs	r4, #255
  56              	.LVL1:
  57              		.loc 1 79 0
  58 0018 8542     		cmp	r5, r0
  59 001a 27DC     		bgt	.L1
  60              		.loc 1 79 0 is_stmt 0 discriminator 1
  61 001c B2F90450 		ldrsh	r5, [r2, #4]
  62 0020 8542     		cmp	r5, r0
  63 0022 23DB     		blt	.L1
  64              		.loc 1 79 0 discriminator 2
  65 0024 B2F90250 		ldrsh	r5, [r2, #2]
  66 0028 8D42     		cmp	r5, r1
  67 002a 1FDC     		bgt	.L1
  68              		.loc 1 79 0 discriminator 3
  69 002c B2F90620 		ldrsh	r2, [r2, #6]
  70              	.LVL2:
  71 0030 8A42     		cmp	r2, r1
  72 0032 1BDB     		blt	.L1
  73 0034 8946     		mov	r9, r1
  74 0036 1E46     		mov	r6, r3
  75 0038 0546     		mov	r5, r0
  80:..\..\..\lvgl\version_6.1.2\lvgl\src\lv_draw/lv_draw_basic.c ****         return;
  81:..\..\..\lvgl\version_6.1.2\lvgl\src\lv_draw/lv_draw_basic.c ****     }
  82:..\..\..\lvgl\version_6.1.2\lvgl\src\lv_draw/lv_draw_basic.c **** 
  83:..\..\..\lvgl\version_6.1.2\lvgl\src\lv_draw/lv_draw_basic.c ****     lv_disp_t * disp    = lv_refr_get_disp_refreshing();
  76              		.loc 1 83 0 is_stmt 1
  77 003a FFF7FEFF 		bl	lv_refr_get_disp_refreshing
  78              	.LVL3:
  79 003e 8046     		mov	r8, r0
  80              	.LVL4:
  84:..\..\..\lvgl\version_6.1.2\lvgl\src\lv_draw/lv_draw_basic.c ****     lv_disp_buf_t * vdb = lv_disp_get_buf(disp);
  81              		.loc 1 84 0
  82 0040 FFF7FEFF 		bl	lv_disp_get_buf
  83              	.LVL5:
  84              	.LBB44:
  85              	.LBB45:
  86              		.file 2 "..\\..\\..\\lvgl\\version_6.1.2\\lvgl\\src\\lv_draw\\../lv_misc/lv_area.h"
ARM GAS  C:\Users\pearlstl\AppData\Local\Temp\ccmYHcOW.s 			page 4


   1:..\..\..\lvgl\version_6.1.2\lvgl\src\lv_draw\../lv_misc/lv_area.h **** /**
   2:..\..\..\lvgl\version_6.1.2\lvgl\src\lv_draw\../lv_misc/lv_area.h ****  * @file lv_area.h
   3:..\..\..\lvgl\version_6.1.2\lvgl\src\lv_draw\../lv_misc/lv_area.h ****  *
   4:..\..\..\lvgl\version_6.1.2\lvgl\src\lv_draw\../lv_misc/lv_area.h ****  */
   5:..\..\..\lvgl\version_6.1.2\lvgl\src\lv_draw\../lv_misc/lv_area.h **** 
   6:..\..\..\lvgl\version_6.1.2\lvgl\src\lv_draw\../lv_misc/lv_area.h **** #ifndef LV_AREA_H
   7:..\..\..\lvgl\version_6.1.2\lvgl\src\lv_draw\../lv_misc/lv_area.h **** #define LV_AREA_H
   8:..\..\..\lvgl\version_6.1.2\lvgl\src\lv_draw\../lv_misc/lv_area.h **** 
   9:..\..\..\lvgl\version_6.1.2\lvgl\src\lv_draw\../lv_misc/lv_area.h **** #ifdef __cplusplus
  10:..\..\..\lvgl\version_6.1.2\lvgl\src\lv_draw\../lv_misc/lv_area.h **** extern "C" {
  11:..\..\..\lvgl\version_6.1.2\lvgl\src\lv_draw\../lv_misc/lv_area.h **** #endif
  12:..\..\..\lvgl\version_6.1.2\lvgl\src\lv_draw\../lv_misc/lv_area.h **** 
  13:..\..\..\lvgl\version_6.1.2\lvgl\src\lv_draw\../lv_misc/lv_area.h **** /*********************
  14:..\..\..\lvgl\version_6.1.2\lvgl\src\lv_draw\../lv_misc/lv_area.h ****  *      INCLUDES
  15:..\..\..\lvgl\version_6.1.2\lvgl\src\lv_draw\../lv_misc/lv_area.h ****  *********************/
  16:..\..\..\lvgl\version_6.1.2\lvgl\src\lv_draw\../lv_misc/lv_area.h **** #include <string.h>
  17:..\..\..\lvgl\version_6.1.2\lvgl\src\lv_draw\../lv_misc/lv_area.h **** #include <stdbool.h>
  18:..\..\..\lvgl\version_6.1.2\lvgl\src\lv_draw\../lv_misc/lv_area.h **** #include <stdint.h>
  19:..\..\..\lvgl\version_6.1.2\lvgl\src\lv_draw\../lv_misc/lv_area.h **** #ifdef LV_CONF_INCLUDE_SIMPLE
  20:..\..\..\lvgl\version_6.1.2\lvgl\src\lv_draw\../lv_misc/lv_area.h **** #include "lv_conf.h"
  21:..\..\..\lvgl\version_6.1.2\lvgl\src\lv_draw\../lv_misc/lv_area.h **** #else
  22:..\..\..\lvgl\version_6.1.2\lvgl\src\lv_draw\../lv_misc/lv_area.h **** #include "../../../lv_conf.h"
  23:..\..\..\lvgl\version_6.1.2\lvgl\src\lv_draw\../lv_misc/lv_area.h **** #endif
  24:..\..\..\lvgl\version_6.1.2\lvgl\src\lv_draw\../lv_misc/lv_area.h **** 
  25:..\..\..\lvgl\version_6.1.2\lvgl\src\lv_draw\../lv_misc/lv_area.h **** /*********************
  26:..\..\..\lvgl\version_6.1.2\lvgl\src\lv_draw\../lv_misc/lv_area.h ****  *      DEFINES
  27:..\..\..\lvgl\version_6.1.2\lvgl\src\lv_draw\../lv_misc/lv_area.h ****  *********************/
  28:..\..\..\lvgl\version_6.1.2\lvgl\src\lv_draw\../lv_misc/lv_area.h **** /*To avoid overflow don't let the max ranges (reduce with 1000) */
  29:..\..\..\lvgl\version_6.1.2\lvgl\src\lv_draw\../lv_misc/lv_area.h **** #define LV_COORD_MAX ((lv_coord_t)((uint32_t)((uint32_t)1 << (8 * sizeof(lv_coord_t) - 1)) - 1000))
  30:..\..\..\lvgl\version_6.1.2\lvgl\src\lv_draw\../lv_misc/lv_area.h **** #define LV_COORD_MIN (-LV_COORD_MAX)
  31:..\..\..\lvgl\version_6.1.2\lvgl\src\lv_draw\../lv_misc/lv_area.h **** 
  32:..\..\..\lvgl\version_6.1.2\lvgl\src\lv_draw\../lv_misc/lv_area.h **** LV_EXPORT_CONST_INT(LV_COORD_MAX);
  33:..\..\..\lvgl\version_6.1.2\lvgl\src\lv_draw\../lv_misc/lv_area.h **** LV_EXPORT_CONST_INT(LV_COORD_MIN);
  34:..\..\..\lvgl\version_6.1.2\lvgl\src\lv_draw\../lv_misc/lv_area.h **** 
  35:..\..\..\lvgl\version_6.1.2\lvgl\src\lv_draw\../lv_misc/lv_area.h **** /**********************
  36:..\..\..\lvgl\version_6.1.2\lvgl\src\lv_draw\../lv_misc/lv_area.h ****  *      TYPEDEFS
  37:..\..\..\lvgl\version_6.1.2\lvgl\src\lv_draw\../lv_misc/lv_area.h ****  **********************/
  38:..\..\..\lvgl\version_6.1.2\lvgl\src\lv_draw\../lv_misc/lv_area.h **** 
  39:..\..\..\lvgl\version_6.1.2\lvgl\src\lv_draw\../lv_misc/lv_area.h **** /**
  40:..\..\..\lvgl\version_6.1.2\lvgl\src\lv_draw\../lv_misc/lv_area.h ****  * Represents a point on the screen.
  41:..\..\..\lvgl\version_6.1.2\lvgl\src\lv_draw\../lv_misc/lv_area.h ****  */
  42:..\..\..\lvgl\version_6.1.2\lvgl\src\lv_draw\../lv_misc/lv_area.h **** typedef struct
  43:..\..\..\lvgl\version_6.1.2\lvgl\src\lv_draw\../lv_misc/lv_area.h **** {
  44:..\..\..\lvgl\version_6.1.2\lvgl\src\lv_draw\../lv_misc/lv_area.h ****     lv_coord_t x;
  45:..\..\..\lvgl\version_6.1.2\lvgl\src\lv_draw\../lv_misc/lv_area.h ****     lv_coord_t y;
  46:..\..\..\lvgl\version_6.1.2\lvgl\src\lv_draw\../lv_misc/lv_area.h **** } lv_point_t;
  47:..\..\..\lvgl\version_6.1.2\lvgl\src\lv_draw\../lv_misc/lv_area.h **** 
  48:..\..\..\lvgl\version_6.1.2\lvgl\src\lv_draw\../lv_misc/lv_area.h **** /** Represents an area of the screen. */
  49:..\..\..\lvgl\version_6.1.2\lvgl\src\lv_draw\../lv_misc/lv_area.h **** typedef struct
  50:..\..\..\lvgl\version_6.1.2\lvgl\src\lv_draw\../lv_misc/lv_area.h **** {
  51:..\..\..\lvgl\version_6.1.2\lvgl\src\lv_draw\../lv_misc/lv_area.h ****     lv_coord_t x1;
  52:..\..\..\lvgl\version_6.1.2\lvgl\src\lv_draw\../lv_misc/lv_area.h ****     lv_coord_t y1;
  53:..\..\..\lvgl\version_6.1.2\lvgl\src\lv_draw\../lv_misc/lv_area.h ****     lv_coord_t x2;
  54:..\..\..\lvgl\version_6.1.2\lvgl\src\lv_draw\../lv_misc/lv_area.h ****     lv_coord_t y2;
  55:..\..\..\lvgl\version_6.1.2\lvgl\src\lv_draw\../lv_misc/lv_area.h **** } lv_area_t;
  56:..\..\..\lvgl\version_6.1.2\lvgl\src\lv_draw\../lv_misc/lv_area.h **** 
  57:..\..\..\lvgl\version_6.1.2\lvgl\src\lv_draw\../lv_misc/lv_area.h **** /**********************
ARM GAS  C:\Users\pearlstl\AppData\Local\Temp\ccmYHcOW.s 			page 5


  58:..\..\..\lvgl\version_6.1.2\lvgl\src\lv_draw\../lv_misc/lv_area.h ****  * GLOBAL PROTOTYPES
  59:..\..\..\lvgl\version_6.1.2\lvgl\src\lv_draw\../lv_misc/lv_area.h ****  **********************/
  60:..\..\..\lvgl\version_6.1.2\lvgl\src\lv_draw\../lv_misc/lv_area.h **** 
  61:..\..\..\lvgl\version_6.1.2\lvgl\src\lv_draw\../lv_misc/lv_area.h **** /**
  62:..\..\..\lvgl\version_6.1.2\lvgl\src\lv_draw\../lv_misc/lv_area.h ****  * Initialize an area
  63:..\..\..\lvgl\version_6.1.2\lvgl\src\lv_draw\../lv_misc/lv_area.h ****  * @param area_p pointer to an area
  64:..\..\..\lvgl\version_6.1.2\lvgl\src\lv_draw\../lv_misc/lv_area.h ****  * @param x1 left coordinate of the area
  65:..\..\..\lvgl\version_6.1.2\lvgl\src\lv_draw\../lv_misc/lv_area.h ****  * @param y1 top coordinate of the area
  66:..\..\..\lvgl\version_6.1.2\lvgl\src\lv_draw\../lv_misc/lv_area.h ****  * @param x2 right coordinate of the area
  67:..\..\..\lvgl\version_6.1.2\lvgl\src\lv_draw\../lv_misc/lv_area.h ****  * @param y2 bottom coordinate of the area
  68:..\..\..\lvgl\version_6.1.2\lvgl\src\lv_draw\../lv_misc/lv_area.h ****  */
  69:..\..\..\lvgl\version_6.1.2\lvgl\src\lv_draw\../lv_misc/lv_area.h **** void lv_area_set(lv_area_t * area_p, lv_coord_t x1, lv_coord_t y1, lv_coord_t x2, lv_coord_t y2);
  70:..\..\..\lvgl\version_6.1.2\lvgl\src\lv_draw\../lv_misc/lv_area.h **** 
  71:..\..\..\lvgl\version_6.1.2\lvgl\src\lv_draw\../lv_misc/lv_area.h **** /**
  72:..\..\..\lvgl\version_6.1.2\lvgl\src\lv_draw\../lv_misc/lv_area.h ****  * Copy an area
  73:..\..\..\lvgl\version_6.1.2\lvgl\src\lv_draw\../lv_misc/lv_area.h ****  * @param dest pointer to the destination area
  74:..\..\..\lvgl\version_6.1.2\lvgl\src\lv_draw\../lv_misc/lv_area.h ****  * @param src pointer to the source area
  75:..\..\..\lvgl\version_6.1.2\lvgl\src\lv_draw\../lv_misc/lv_area.h ****  */
  76:..\..\..\lvgl\version_6.1.2\lvgl\src\lv_draw\../lv_misc/lv_area.h **** inline static void lv_area_copy(lv_area_t * dest, const lv_area_t * src)
  77:..\..\..\lvgl\version_6.1.2\lvgl\src\lv_draw\../lv_misc/lv_area.h **** {
  78:..\..\..\lvgl\version_6.1.2\lvgl\src\lv_draw\../lv_misc/lv_area.h ****     memcpy(dest, src, sizeof(lv_area_t));
  79:..\..\..\lvgl\version_6.1.2\lvgl\src\lv_draw\../lv_misc/lv_area.h **** }
  80:..\..\..\lvgl\version_6.1.2\lvgl\src\lv_draw\../lv_misc/lv_area.h **** 
  81:..\..\..\lvgl\version_6.1.2\lvgl\src\lv_draw\../lv_misc/lv_area.h **** /**
  82:..\..\..\lvgl\version_6.1.2\lvgl\src\lv_draw\../lv_misc/lv_area.h ****  * Get the width of an area
  83:..\..\..\lvgl\version_6.1.2\lvgl\src\lv_draw\../lv_misc/lv_area.h ****  * @param area_p pointer to an area
  84:..\..\..\lvgl\version_6.1.2\lvgl\src\lv_draw\../lv_misc/lv_area.h ****  * @return the width of the area (if x1 == x2 -> width = 1)
  85:..\..\..\lvgl\version_6.1.2\lvgl\src\lv_draw\../lv_misc/lv_area.h ****  */
  86:..\..\..\lvgl\version_6.1.2\lvgl\src\lv_draw\../lv_misc/lv_area.h **** static inline lv_coord_t lv_area_get_width(const lv_area_t * area_p)
  87:..\..\..\lvgl\version_6.1.2\lvgl\src\lv_draw\../lv_misc/lv_area.h **** {
  88:..\..\..\lvgl\version_6.1.2\lvgl\src\lv_draw\../lv_misc/lv_area.h ****     return (lv_coord_t)(area_p->x2 - area_p->x1 + 1);
  87              		.loc 2 88 0
  88 0044 828A     		ldrh	r2, [r0, #20]
  89 0046 038A     		ldrh	r3, [r0, #16]
  90              	.LBE45:
  91              	.LBE44:
  85:..\..\..\lvgl\version_6.1.2\lvgl\src\lv_draw/lv_draw_basic.c ****     uint32_t vdb_width  = lv_area_get_width(&vdb->area);
  86:..\..\..\lvgl\version_6.1.2\lvgl\src\lv_draw/lv_draw_basic.c **** 
  87:..\..\..\lvgl\version_6.1.2\lvgl\src\lv_draw/lv_draw_basic.c ****     /*Make the coordinates relative to VDB*/
  88:..\..\..\lvgl\version_6.1.2\lvgl\src\lv_draw/lv_draw_basic.c ****     x -= vdb->area.x1;
  89:..\..\..\lvgl\version_6.1.2\lvgl\src\lv_draw/lv_draw_basic.c ****     y -= vdb->area.y1;
  92              		.loc 1 89 0
  93 0048 418A     		ldrh	r1, [r0, #18]
  90:..\..\..\lvgl\version_6.1.2\lvgl\src\lv_draw/lv_draw_basic.c **** 
  91:..\..\..\lvgl\version_6.1.2\lvgl\src\lv_draw/lv_draw_basic.c ****     if(disp->driver.set_px_cb) {
  94              		.loc 1 91 0
  95 004a D8F81470 		ldr	r7, [r8, #20]
  96              	.LBB48:
  97              	.LBB46:
  98              		.loc 2 88 0
  99 004e 0132     		adds	r2, r2, #1
 100 0050 D21A     		subs	r2, r2, r3
 101              	.LBE46:
 102              	.LBE48:
  88:..\..\..\lvgl\version_6.1.2\lvgl\src\lv_draw/lv_draw_basic.c ****     y -= vdb->area.y1;
 103              		.loc 1 88 0
 104 0052 ED1A     		subs	r5, r5, r3
ARM GAS  C:\Users\pearlstl\AppData\Local\Temp\ccmYHcOW.s 			page 6


  89:..\..\..\lvgl\version_6.1.2\lvgl\src\lv_draw/lv_draw_basic.c **** 
 105              		.loc 1 89 0
 106 0054 C1EB0901 		rsb	r1, r1, r9
  88:..\..\..\lvgl\version_6.1.2\lvgl\src\lv_draw/lv_draw_basic.c ****     y -= vdb->area.y1;
 107              		.loc 1 88 0
 108 0058 2BB2     		sxth	r3, r5
 109              	.LBB49:
 110              	.LBB47:
 111              		.loc 2 88 0
 112 005a 12B2     		sxth	r2, r2
 113              	.LVL6:
 114              	.LBE47:
 115              	.LBE49:
  89:..\..\..\lvgl\version_6.1.2\lvgl\src\lv_draw/lv_draw_basic.c **** 
 116              		.loc 1 89 0
 117 005c 0DB2     		sxth	r5, r1
 118              	.LVL7:
 119              		.loc 1 91 0
 120 005e 47B1     		cbz	r7, .L4
  92:..\..\..\lvgl\version_6.1.2\lvgl\src\lv_draw/lv_draw_basic.c ****         disp->driver.set_px_cb(&disp->driver, (uint8_t *)vdb->buf_act, vdb_width, x, y, color, opa)
 121              		.loc 1 92 0
 122 0060 8168     		ldr	r1, [r0, #8]
 123 0062 0294     		str	r4, [sp, #8]
 124 0064 8DE86000 		stmia	sp, {r5, r6}
 125 0068 4046     		mov	r0, r8
 126              	.LVL8:
 127 006a B847     		blx	r7
 128              	.LVL9:
 129              	.L1:
  93:..\..\..\lvgl\version_6.1.2\lvgl\src\lv_draw/lv_draw_basic.c ****     } else {
  94:..\..\..\lvgl\version_6.1.2\lvgl\src\lv_draw/lv_draw_basic.c ****         bool scr_transp = false;
  95:..\..\..\lvgl\version_6.1.2\lvgl\src\lv_draw/lv_draw_basic.c **** #if LV_COLOR_DEPTH == 32 && LV_COLOR_SCREEN_TRANSP
  96:..\..\..\lvgl\version_6.1.2\lvgl\src\lv_draw/lv_draw_basic.c ****         scr_transp = disp->driver.screen_transp;
  97:..\..\..\lvgl\version_6.1.2\lvgl\src\lv_draw/lv_draw_basic.c **** #endif
  98:..\..\..\lvgl\version_6.1.2\lvgl\src\lv_draw/lv_draw_basic.c **** 
  99:..\..\..\lvgl\version_6.1.2\lvgl\src\lv_draw/lv_draw_basic.c ****         lv_color_t * vdb_px_p = vdb->buf_act;
 100:..\..\..\lvgl\version_6.1.2\lvgl\src\lv_draw/lv_draw_basic.c ****         vdb_px_p += y * vdb_width + x;
 101:..\..\..\lvgl\version_6.1.2\lvgl\src\lv_draw/lv_draw_basic.c **** 
 102:..\..\..\lvgl\version_6.1.2\lvgl\src\lv_draw/lv_draw_basic.c ****         if(scr_transp == false) {
 103:..\..\..\lvgl\version_6.1.2\lvgl\src\lv_draw/lv_draw_basic.c ****             if(opa == LV_OPA_COVER) {
 104:..\..\..\lvgl\version_6.1.2\lvgl\src\lv_draw/lv_draw_basic.c ****                 *vdb_px_p = color;
 105:..\..\..\lvgl\version_6.1.2\lvgl\src\lv_draw/lv_draw_basic.c ****             } else {
 106:..\..\..\lvgl\version_6.1.2\lvgl\src\lv_draw/lv_draw_basic.c ****                 *vdb_px_p = lv_color_mix(color, *vdb_px_p, opa);
 107:..\..\..\lvgl\version_6.1.2\lvgl\src\lv_draw/lv_draw_basic.c ****             }
 108:..\..\..\lvgl\version_6.1.2\lvgl\src\lv_draw/lv_draw_basic.c ****         } else {
 109:..\..\..\lvgl\version_6.1.2\lvgl\src\lv_draw/lv_draw_basic.c **** #if LV_COLOR_DEPTH == 32 && LV_COLOR_SCREEN_TRANSP
 110:..\..\..\lvgl\version_6.1.2\lvgl\src\lv_draw/lv_draw_basic.c ****             *vdb_px_p = color_mix_2_alpha(*vdb_px_p, (*vdb_px_p).ch.alpha, color, opa);
 111:..\..\..\lvgl\version_6.1.2\lvgl\src\lv_draw/lv_draw_basic.c **** #endif
 112:..\..\..\lvgl\version_6.1.2\lvgl\src\lv_draw/lv_draw_basic.c ****         }
 113:..\..\..\lvgl\version_6.1.2\lvgl\src\lv_draw/lv_draw_basic.c ****     }
 114:..\..\..\lvgl\version_6.1.2\lvgl\src\lv_draw/lv_draw_basic.c **** }
 130              		.loc 1 114 0
 131 006c 05B0     		add	sp, sp, #20
 132              		.cfi_remember_state
 133              		.cfi_def_cfa_offset 28
 134              		@ sp needed
 135 006e BDE8F083 		pop	{r4, r5, r6, r7, r8, r9, pc}
ARM GAS  C:\Users\pearlstl\AppData\Local\Temp\ccmYHcOW.s 			page 7


 136              	.LVL10:
 137              	.L4:
 138              		.cfi_restore_state
 139              	.LBB50:
  99:..\..\..\lvgl\version_6.1.2\lvgl\src\lv_draw/lv_draw_basic.c ****         vdb_px_p += y * vdb_width + x;
 140              		.loc 1 99 0
 141 0072 8768     		ldr	r7, [r0, #8]
 142              	.LVL11:
 100:..\..\..\lvgl\version_6.1.2\lvgl\src\lv_draw/lv_draw_basic.c **** 
 143              		.loc 1 100 0
 144 0074 02FB0532 		mla	r2, r2, r5, r3
 145              	.LVL12:
 103:..\..\..\lvgl\version_6.1.2\lvgl\src\lv_draw/lv_draw_basic.c ****                 *vdb_px_p = color;
 146              		.loc 1 103 0
 147 0078 FF2C     		cmp	r4, #255
 100:..\..\..\lvgl\version_6.1.2\lvgl\src\lv_draw/lv_draw_basic.c **** 
 148              		.loc 1 100 0
 149 007a 07EB8205 		add	r5, r7, r2, lsl #2
 150              	.LVL13:
 103:..\..\..\lvgl\version_6.1.2\lvgl\src\lv_draw/lv_draw_basic.c ****                 *vdb_px_p = color;
 151              		.loc 1 103 0
 152 007e 26D0     		beq	.L8
 153              	.LVL14:
 106:..\..\..\lvgl\version_6.1.2\lvgl\src\lv_draw/lv_draw_basic.c ****             }
 154              		.loc 1 106 0
 155 0080 17F82280 		ldrb	r8, [r7, r2, lsl #2]	@ zero_extendqisi2
 156              	.LVL15:
 157              	.LBB51:
 158              	.LBB52:
 159              		.file 3 "..\\..\\..\\lvgl\\version_6.1.2\\lvgl\\src\\lv_draw\\../lv_misc/lv_color.h"
   1:..\..\..\lvgl\version_6.1.2\lvgl\src\lv_draw\../lv_misc/lv_color.h **** /**
   2:..\..\..\lvgl\version_6.1.2\lvgl\src\lv_draw\../lv_misc/lv_color.h ****  * @file lv_color.h
   3:..\..\..\lvgl\version_6.1.2\lvgl\src\lv_draw\../lv_misc/lv_color.h ****  *
   4:..\..\..\lvgl\version_6.1.2\lvgl\src\lv_draw\../lv_misc/lv_color.h ****  */
   5:..\..\..\lvgl\version_6.1.2\lvgl\src\lv_draw\../lv_misc/lv_color.h **** 
   6:..\..\..\lvgl\version_6.1.2\lvgl\src\lv_draw\../lv_misc/lv_color.h **** #ifndef LV_COLOR_H
   7:..\..\..\lvgl\version_6.1.2\lvgl\src\lv_draw\../lv_misc/lv_color.h **** #define LV_COLOR_H
   8:..\..\..\lvgl\version_6.1.2\lvgl\src\lv_draw\../lv_misc/lv_color.h **** 
   9:..\..\..\lvgl\version_6.1.2\lvgl\src\lv_draw\../lv_misc/lv_color.h **** #ifdef __cplusplus
  10:..\..\..\lvgl\version_6.1.2\lvgl\src\lv_draw\../lv_misc/lv_color.h **** extern "C" {
  11:..\..\..\lvgl\version_6.1.2\lvgl\src\lv_draw\../lv_misc/lv_color.h **** #endif
  12:..\..\..\lvgl\version_6.1.2\lvgl\src\lv_draw\../lv_misc/lv_color.h **** 
  13:..\..\..\lvgl\version_6.1.2\lvgl\src\lv_draw\../lv_misc/lv_color.h **** /*********************
  14:..\..\..\lvgl\version_6.1.2\lvgl\src\lv_draw\../lv_misc/lv_color.h ****  *      INCLUDES
  15:..\..\..\lvgl\version_6.1.2\lvgl\src\lv_draw\../lv_misc/lv_color.h ****  *********************/
  16:..\..\..\lvgl\version_6.1.2\lvgl\src\lv_draw\../lv_misc/lv_color.h **** #ifdef LV_CONF_INCLUDE_SIMPLE
  17:..\..\..\lvgl\version_6.1.2\lvgl\src\lv_draw\../lv_misc/lv_color.h **** #include "lv_conf.h"
  18:..\..\..\lvgl\version_6.1.2\lvgl\src\lv_draw\../lv_misc/lv_color.h **** #else
  19:..\..\..\lvgl\version_6.1.2\lvgl\src\lv_draw\../lv_misc/lv_color.h **** #include "../../../lv_conf.h"
  20:..\..\..\lvgl\version_6.1.2\lvgl\src\lv_draw\../lv_misc/lv_color.h **** #endif
  21:..\..\..\lvgl\version_6.1.2\lvgl\src\lv_draw\../lv_misc/lv_color.h **** 
  22:..\..\..\lvgl\version_6.1.2\lvgl\src\lv_draw\../lv_misc/lv_color.h **** /*Error checking*/
  23:..\..\..\lvgl\version_6.1.2\lvgl\src\lv_draw\../lv_misc/lv_color.h **** #if LV_COLOR_DEPTH == 24
  24:..\..\..\lvgl\version_6.1.2\lvgl\src\lv_draw\../lv_misc/lv_color.h **** #error "LV_COLOR_DEPTH  24 is deprecated. Use LV_COLOR_DEPTH  32 instead (lv_conf.h)"
  25:..\..\..\lvgl\version_6.1.2\lvgl\src\lv_draw\../lv_misc/lv_color.h **** #endif
  26:..\..\..\lvgl\version_6.1.2\lvgl\src\lv_draw\../lv_misc/lv_color.h **** 
  27:..\..\..\lvgl\version_6.1.2\lvgl\src\lv_draw\../lv_misc/lv_color.h **** #if LV_COLOR_DEPTH != 32 && LV_COLOR_SCREEN_TRANSP != 0
ARM GAS  C:\Users\pearlstl\AppData\Local\Temp\ccmYHcOW.s 			page 8


  28:..\..\..\lvgl\version_6.1.2\lvgl\src\lv_draw\../lv_misc/lv_color.h **** #error "LV_COLOR_SCREEN_TRANSP requires LV_COLOR_DEPTH == 32. Set it in lv_conf.h"
  29:..\..\..\lvgl\version_6.1.2\lvgl\src\lv_draw\../lv_misc/lv_color.h **** #endif
  30:..\..\..\lvgl\version_6.1.2\lvgl\src\lv_draw\../lv_misc/lv_color.h **** 
  31:..\..\..\lvgl\version_6.1.2\lvgl\src\lv_draw\../lv_misc/lv_color.h **** #if LV_COLOR_DEPTH != 16 && LV_COLOR_16_SWAP != 0
  32:..\..\..\lvgl\version_6.1.2\lvgl\src\lv_draw\../lv_misc/lv_color.h **** #error "LV_COLOR_16_SWAP requires LV_COLOR_DEPTH == 16. Set it in lv_conf.h"
  33:..\..\..\lvgl\version_6.1.2\lvgl\src\lv_draw\../lv_misc/lv_color.h **** #endif
  34:..\..\..\lvgl\version_6.1.2\lvgl\src\lv_draw\../lv_misc/lv_color.h **** 
  35:..\..\..\lvgl\version_6.1.2\lvgl\src\lv_draw\../lv_misc/lv_color.h **** #include <stdint.h>
  36:..\..\..\lvgl\version_6.1.2\lvgl\src\lv_draw\../lv_misc/lv_color.h **** 
  37:..\..\..\lvgl\version_6.1.2\lvgl\src\lv_draw\../lv_misc/lv_color.h **** /*********************
  38:..\..\..\lvgl\version_6.1.2\lvgl\src\lv_draw\../lv_misc/lv_color.h ****  *      DEFINES
  39:..\..\..\lvgl\version_6.1.2\lvgl\src\lv_draw\../lv_misc/lv_color.h ****  *********************/
  40:..\..\..\lvgl\version_6.1.2\lvgl\src\lv_draw\../lv_misc/lv_color.h **** #define LV_COLOR_WHITE LV_COLOR_MAKE(0xFF, 0xFF, 0xFF)
  41:..\..\..\lvgl\version_6.1.2\lvgl\src\lv_draw\../lv_misc/lv_color.h **** #define LV_COLOR_SILVER LV_COLOR_MAKE(0xC0, 0xC0, 0xC0)
  42:..\..\..\lvgl\version_6.1.2\lvgl\src\lv_draw\../lv_misc/lv_color.h **** #define LV_COLOR_GRAY LV_COLOR_MAKE(0x80, 0x80, 0x80)
  43:..\..\..\lvgl\version_6.1.2\lvgl\src\lv_draw\../lv_misc/lv_color.h **** #define LV_COLOR_BLACK LV_COLOR_MAKE(0x00, 0x00, 0x00)
  44:..\..\..\lvgl\version_6.1.2\lvgl\src\lv_draw\../lv_misc/lv_color.h **** #define LV_COLOR_RED LV_COLOR_MAKE(0xFF, 0x00, 0x00)
  45:..\..\..\lvgl\version_6.1.2\lvgl\src\lv_draw\../lv_misc/lv_color.h **** #define LV_COLOR_MAROON LV_COLOR_MAKE(0x80, 0x00, 0x00)
  46:..\..\..\lvgl\version_6.1.2\lvgl\src\lv_draw\../lv_misc/lv_color.h **** #define LV_COLOR_YELLOW LV_COLOR_MAKE(0xFF, 0xFF, 0x00)
  47:..\..\..\lvgl\version_6.1.2\lvgl\src\lv_draw\../lv_misc/lv_color.h **** #define LV_COLOR_OLIVE LV_COLOR_MAKE(0x80, 0x80, 0x00)
  48:..\..\..\lvgl\version_6.1.2\lvgl\src\lv_draw\../lv_misc/lv_color.h **** #define LV_COLOR_LIME LV_COLOR_MAKE(0x00, 0xFF, 0x00)
  49:..\..\..\lvgl\version_6.1.2\lvgl\src\lv_draw\../lv_misc/lv_color.h **** #define LV_COLOR_GREEN LV_COLOR_MAKE(0x00, 0x80, 0x00)
  50:..\..\..\lvgl\version_6.1.2\lvgl\src\lv_draw\../lv_misc/lv_color.h **** #define LV_COLOR_CYAN LV_COLOR_MAKE(0x00, 0xFF, 0xFF)
  51:..\..\..\lvgl\version_6.1.2\lvgl\src\lv_draw\../lv_misc/lv_color.h **** #define LV_COLOR_AQUA LV_COLOR_CYAN
  52:..\..\..\lvgl\version_6.1.2\lvgl\src\lv_draw\../lv_misc/lv_color.h **** #define LV_COLOR_TEAL LV_COLOR_MAKE(0x00, 0x80, 0x80)
  53:..\..\..\lvgl\version_6.1.2\lvgl\src\lv_draw\../lv_misc/lv_color.h **** #define LV_COLOR_BLUE LV_COLOR_MAKE(0x00, 0x00, 0xFF)
  54:..\..\..\lvgl\version_6.1.2\lvgl\src\lv_draw\../lv_misc/lv_color.h **** #define LV_COLOR_NAVY LV_COLOR_MAKE(0x00, 0x00, 0x80)
  55:..\..\..\lvgl\version_6.1.2\lvgl\src\lv_draw\../lv_misc/lv_color.h **** #define LV_COLOR_MAGENTA LV_COLOR_MAKE(0xFF, 0x00, 0xFF)
  56:..\..\..\lvgl\version_6.1.2\lvgl\src\lv_draw\../lv_misc/lv_color.h **** #define LV_COLOR_PURPLE LV_COLOR_MAKE(0x80, 0x00, 0x80)
  57:..\..\..\lvgl\version_6.1.2\lvgl\src\lv_draw\../lv_misc/lv_color.h **** #define LV_COLOR_ORANGE LV_COLOR_MAKE(0xFF, 0xA5, 0x00)
  58:..\..\..\lvgl\version_6.1.2\lvgl\src\lv_draw\../lv_misc/lv_color.h **** 
  59:..\..\..\lvgl\version_6.1.2\lvgl\src\lv_draw\../lv_misc/lv_color.h **** /**
  60:..\..\..\lvgl\version_6.1.2\lvgl\src\lv_draw\../lv_misc/lv_color.h ****  * Opacity percentages.
  61:..\..\..\lvgl\version_6.1.2\lvgl\src\lv_draw\../lv_misc/lv_color.h ****  */
  62:..\..\..\lvgl\version_6.1.2\lvgl\src\lv_draw\../lv_misc/lv_color.h **** enum {
  63:..\..\..\lvgl\version_6.1.2\lvgl\src\lv_draw\../lv_misc/lv_color.h ****     LV_OPA_TRANSP = 0,
  64:..\..\..\lvgl\version_6.1.2\lvgl\src\lv_draw\../lv_misc/lv_color.h ****     LV_OPA_0      = 0,
  65:..\..\..\lvgl\version_6.1.2\lvgl\src\lv_draw\../lv_misc/lv_color.h ****     LV_OPA_10     = 25,
  66:..\..\..\lvgl\version_6.1.2\lvgl\src\lv_draw\../lv_misc/lv_color.h ****     LV_OPA_20     = 51,
  67:..\..\..\lvgl\version_6.1.2\lvgl\src\lv_draw\../lv_misc/lv_color.h ****     LV_OPA_30     = 76,
  68:..\..\..\lvgl\version_6.1.2\lvgl\src\lv_draw\../lv_misc/lv_color.h ****     LV_OPA_40     = 102,
  69:..\..\..\lvgl\version_6.1.2\lvgl\src\lv_draw\../lv_misc/lv_color.h ****     LV_OPA_50     = 127,
  70:..\..\..\lvgl\version_6.1.2\lvgl\src\lv_draw\../lv_misc/lv_color.h ****     LV_OPA_60     = 153,
  71:..\..\..\lvgl\version_6.1.2\lvgl\src\lv_draw\../lv_misc/lv_color.h ****     LV_OPA_70     = 178,
  72:..\..\..\lvgl\version_6.1.2\lvgl\src\lv_draw\../lv_misc/lv_color.h ****     LV_OPA_80     = 204,
  73:..\..\..\lvgl\version_6.1.2\lvgl\src\lv_draw\../lv_misc/lv_color.h ****     LV_OPA_90     = 229,
  74:..\..\..\lvgl\version_6.1.2\lvgl\src\lv_draw\../lv_misc/lv_color.h ****     LV_OPA_100    = 255,
  75:..\..\..\lvgl\version_6.1.2\lvgl\src\lv_draw\../lv_misc/lv_color.h ****     LV_OPA_COVER  = 255,
  76:..\..\..\lvgl\version_6.1.2\lvgl\src\lv_draw\../lv_misc/lv_color.h **** };
  77:..\..\..\lvgl\version_6.1.2\lvgl\src\lv_draw\../lv_misc/lv_color.h **** 
  78:..\..\..\lvgl\version_6.1.2\lvgl\src\lv_draw\../lv_misc/lv_color.h **** #define LV_OPA_MIN 16  /*Opacities below this will be transparent*/
  79:..\..\..\lvgl\version_6.1.2\lvgl\src\lv_draw\../lv_misc/lv_color.h **** #define LV_OPA_MAX 251 /*Opacities above this will fully cover*/
  80:..\..\..\lvgl\version_6.1.2\lvgl\src\lv_draw\../lv_misc/lv_color.h **** 
  81:..\..\..\lvgl\version_6.1.2\lvgl\src\lv_draw\../lv_misc/lv_color.h **** #if LV_COLOR_DEPTH == 1
  82:..\..\..\lvgl\version_6.1.2\lvgl\src\lv_draw\../lv_misc/lv_color.h **** #define LV_COLOR_SIZE 8
  83:..\..\..\lvgl\version_6.1.2\lvgl\src\lv_draw\../lv_misc/lv_color.h **** #elif LV_COLOR_DEPTH == 8
  84:..\..\..\lvgl\version_6.1.2\lvgl\src\lv_draw\../lv_misc/lv_color.h **** #define LV_COLOR_SIZE 8
ARM GAS  C:\Users\pearlstl\AppData\Local\Temp\ccmYHcOW.s 			page 9


  85:..\..\..\lvgl\version_6.1.2\lvgl\src\lv_draw\../lv_misc/lv_color.h **** #elif LV_COLOR_DEPTH == 16
  86:..\..\..\lvgl\version_6.1.2\lvgl\src\lv_draw\../lv_misc/lv_color.h **** #define LV_COLOR_SIZE 16
  87:..\..\..\lvgl\version_6.1.2\lvgl\src\lv_draw\../lv_misc/lv_color.h **** #elif LV_COLOR_DEPTH == 32
  88:..\..\..\lvgl\version_6.1.2\lvgl\src\lv_draw\../lv_misc/lv_color.h **** #define LV_COLOR_SIZE 32
  89:..\..\..\lvgl\version_6.1.2\lvgl\src\lv_draw\../lv_misc/lv_color.h **** #else
  90:..\..\..\lvgl\version_6.1.2\lvgl\src\lv_draw\../lv_misc/lv_color.h **** #error "Invalid LV_COLOR_DEPTH in lv_conf.h! Set it to 1, 8, 16 or 32!"
  91:..\..\..\lvgl\version_6.1.2\lvgl\src\lv_draw\../lv_misc/lv_color.h **** #endif
  92:..\..\..\lvgl\version_6.1.2\lvgl\src\lv_draw\../lv_misc/lv_color.h **** 
  93:..\..\..\lvgl\version_6.1.2\lvgl\src\lv_draw\../lv_misc/lv_color.h **** /*---------------------------------------
  94:..\..\..\lvgl\version_6.1.2\lvgl\src\lv_draw\../lv_misc/lv_color.h ****  * Macros for all existing  color depths
  95:..\..\..\lvgl\version_6.1.2\lvgl\src\lv_draw\../lv_misc/lv_color.h ****  * to set/get values of the color channels
  96:..\..\..\lvgl\version_6.1.2\lvgl\src\lv_draw\../lv_misc/lv_color.h ****  *------------------------------------------*/
  97:..\..\..\lvgl\version_6.1.2\lvgl\src\lv_draw\../lv_misc/lv_color.h **** # define LV_COLOR_SET_R1(c, v) (c).ch.red = (uint8_t)((v) & 0x1);
  98:..\..\..\lvgl\version_6.1.2\lvgl\src\lv_draw\../lv_misc/lv_color.h **** # define LV_COLOR_SET_G1(c, v) (c).ch.green = (uint8_t)((v) & 0x1);
  99:..\..\..\lvgl\version_6.1.2\lvgl\src\lv_draw\../lv_misc/lv_color.h **** # define LV_COLOR_SET_B1(c, v) (c).ch.blue = (uint8_t)((v) & 0x1);
 100:..\..\..\lvgl\version_6.1.2\lvgl\src\lv_draw\../lv_misc/lv_color.h **** # define LV_COLOR_SET_A1(c, v)
 101:..\..\..\lvgl\version_6.1.2\lvgl\src\lv_draw\../lv_misc/lv_color.h **** 
 102:..\..\..\lvgl\version_6.1.2\lvgl\src\lv_draw\../lv_misc/lv_color.h **** # define LV_COLOR_GET_R1(c) (c).ch.red
 103:..\..\..\lvgl\version_6.1.2\lvgl\src\lv_draw\../lv_misc/lv_color.h **** # define LV_COLOR_GET_G1(c) (c).ch.green
 104:..\..\..\lvgl\version_6.1.2\lvgl\src\lv_draw\../lv_misc/lv_color.h **** # define LV_COLOR_GET_B1(c) (c).ch.blue
 105:..\..\..\lvgl\version_6.1.2\lvgl\src\lv_draw\../lv_misc/lv_color.h **** # define LV_COLOR_GET_A1(c) 1
 106:..\..\..\lvgl\version_6.1.2\lvgl\src\lv_draw\../lv_misc/lv_color.h **** 
 107:..\..\..\lvgl\version_6.1.2\lvgl\src\lv_draw\../lv_misc/lv_color.h **** # define LV_COLOR_SET_R8(c, v) (c).ch.red = (uint8_t)(v) & 0x7U;
 108:..\..\..\lvgl\version_6.1.2\lvgl\src\lv_draw\../lv_misc/lv_color.h **** # define LV_COLOR_SET_G8(c, v) (c).ch.green = (uint8_t)(v) & 0x7U;
 109:..\..\..\lvgl\version_6.1.2\lvgl\src\lv_draw\../lv_misc/lv_color.h **** # define LV_COLOR_SET_B8(c, v) (c).ch.blue = (uint8_t)(v) & 0x3U;
 110:..\..\..\lvgl\version_6.1.2\lvgl\src\lv_draw\../lv_misc/lv_color.h **** # define LV_COLOR_SET_A8(c, v) do {} while(0)
 111:..\..\..\lvgl\version_6.1.2\lvgl\src\lv_draw\../lv_misc/lv_color.h **** 
 112:..\..\..\lvgl\version_6.1.2\lvgl\src\lv_draw\../lv_misc/lv_color.h **** # define LV_COLOR_GET_R8(c) (c).ch.red
 113:..\..\..\lvgl\version_6.1.2\lvgl\src\lv_draw\../lv_misc/lv_color.h **** # define LV_COLOR_GET_G8(c) (c).ch.green
 114:..\..\..\lvgl\version_6.1.2\lvgl\src\lv_draw\../lv_misc/lv_color.h **** # define LV_COLOR_GET_B8(c) (c).ch.blue
 115:..\..\..\lvgl\version_6.1.2\lvgl\src\lv_draw\../lv_misc/lv_color.h **** # define LV_COLOR_GET_A8(c) 0xFF
 116:..\..\..\lvgl\version_6.1.2\lvgl\src\lv_draw\../lv_misc/lv_color.h **** 
 117:..\..\..\lvgl\version_6.1.2\lvgl\src\lv_draw\../lv_misc/lv_color.h **** # define LV_COLOR_SET_R16(c, v) (c).ch.red = (uint8_t)(v) & 0x1FU;
 118:..\..\..\lvgl\version_6.1.2\lvgl\src\lv_draw\../lv_misc/lv_color.h **** # define LV_COLOR_SET_G16(c, v) (c).ch.green = (uint8_t)(v) & 0x3FU;
 119:..\..\..\lvgl\version_6.1.2\lvgl\src\lv_draw\../lv_misc/lv_color.h **** # define LV_COLOR_SET_G16_SWAP(c, v) {(c).ch.green_h = (uint8_t)(((v) >> 3) & 0x7); (c).ch.green_l 
 120:..\..\..\lvgl\version_6.1.2\lvgl\src\lv_draw\../lv_misc/lv_color.h **** # define LV_COLOR_SET_B16(c, v) (c).ch.blue = (uint8_t)(v) & 0x1FU;
 121:..\..\..\lvgl\version_6.1.2\lvgl\src\lv_draw\../lv_misc/lv_color.h **** # define LV_COLOR_SET_A16(c, v) do {} while(0)
 122:..\..\..\lvgl\version_6.1.2\lvgl\src\lv_draw\../lv_misc/lv_color.h **** 
 123:..\..\..\lvgl\version_6.1.2\lvgl\src\lv_draw\../lv_misc/lv_color.h **** # define LV_COLOR_GET_R16(c) (c).ch.red
 124:..\..\..\lvgl\version_6.1.2\lvgl\src\lv_draw\../lv_misc/lv_color.h **** # define LV_COLOR_GET_G16(c) (c).ch.green
 125:..\..\..\lvgl\version_6.1.2\lvgl\src\lv_draw\../lv_misc/lv_color.h **** # define LV_COLOR_GET_G16_SWAP(c) (((c).ch.green_h << 3) + (c).ch.green_l)
 126:..\..\..\lvgl\version_6.1.2\lvgl\src\lv_draw\../lv_misc/lv_color.h **** # define LV_COLOR_GET_B16(c) (c).ch.blue
 127:..\..\..\lvgl\version_6.1.2\lvgl\src\lv_draw\../lv_misc/lv_color.h **** # define LV_COLOR_GET_A16(c) 0xFF
 128:..\..\..\lvgl\version_6.1.2\lvgl\src\lv_draw\../lv_misc/lv_color.h **** 
 129:..\..\..\lvgl\version_6.1.2\lvgl\src\lv_draw\../lv_misc/lv_color.h **** # define LV_COLOR_SET_R32(c, v) (c).ch.red = (uint32_t)((v) & 0xFF);
 130:..\..\..\lvgl\version_6.1.2\lvgl\src\lv_draw\../lv_misc/lv_color.h **** # define LV_COLOR_SET_G32(c, v) (c).ch.green = (uint32_t)((v) & 0xFF);
 131:..\..\..\lvgl\version_6.1.2\lvgl\src\lv_draw\../lv_misc/lv_color.h **** # define LV_COLOR_SET_B32(c, v) (c).ch.blue = (uint32_t)((v) & 0xFF);
 132:..\..\..\lvgl\version_6.1.2\lvgl\src\lv_draw\../lv_misc/lv_color.h **** # define LV_COLOR_SET_A32(c, v) (c).ch.alpha = (uint32_t)((v) & 0xFF);
 133:..\..\..\lvgl\version_6.1.2\lvgl\src\lv_draw\../lv_misc/lv_color.h **** 
 134:..\..\..\lvgl\version_6.1.2\lvgl\src\lv_draw\../lv_misc/lv_color.h **** # define LV_COLOR_GET_R32(c) (c).ch.red
 135:..\..\..\lvgl\version_6.1.2\lvgl\src\lv_draw\../lv_misc/lv_color.h **** # define LV_COLOR_GET_G32(c) (c).ch.green
 136:..\..\..\lvgl\version_6.1.2\lvgl\src\lv_draw\../lv_misc/lv_color.h **** # define LV_COLOR_GET_B32(c) (c).ch.blue
 137:..\..\..\lvgl\version_6.1.2\lvgl\src\lv_draw\../lv_misc/lv_color.h **** # define LV_COLOR_GET_A32(c) (c).ch.alpha
 138:..\..\..\lvgl\version_6.1.2\lvgl\src\lv_draw\../lv_misc/lv_color.h **** 
 139:..\..\..\lvgl\version_6.1.2\lvgl\src\lv_draw\../lv_misc/lv_color.h **** 
 140:..\..\..\lvgl\version_6.1.2\lvgl\src\lv_draw\../lv_misc/lv_color.h **** /*---------------------------------------
 141:..\..\..\lvgl\version_6.1.2\lvgl\src\lv_draw\../lv_misc/lv_color.h ****  * Macros for the current color depth
ARM GAS  C:\Users\pearlstl\AppData\Local\Temp\ccmYHcOW.s 			page 10


 142:..\..\..\lvgl\version_6.1.2\lvgl\src\lv_draw\../lv_misc/lv_color.h ****  * to set/get values of the color channels
 143:..\..\..\lvgl\version_6.1.2\lvgl\src\lv_draw\../lv_misc/lv_color.h ****  *------------------------------------------*/
 144:..\..\..\lvgl\version_6.1.2\lvgl\src\lv_draw\../lv_misc/lv_color.h **** #if LV_COLOR_DEPTH == 1
 145:..\..\..\lvgl\version_6.1.2\lvgl\src\lv_draw\../lv_misc/lv_color.h **** # define LV_COLOR_SET_R(c, v) LV_COLOR_SET_R1(c,v)
 146:..\..\..\lvgl\version_6.1.2\lvgl\src\lv_draw\../lv_misc/lv_color.h **** # define LV_COLOR_SET_G(c, v) LV_COLOR_SET_G1(c,v)
 147:..\..\..\lvgl\version_6.1.2\lvgl\src\lv_draw\../lv_misc/lv_color.h **** # define LV_COLOR_SET_B(c, v) LV_COLOR_SET_B1(c,v)
 148:..\..\..\lvgl\version_6.1.2\lvgl\src\lv_draw\../lv_misc/lv_color.h **** # define LV_COLOR_SET_A(c, v) LV_COLOR_SET_A1(c,v)
 149:..\..\..\lvgl\version_6.1.2\lvgl\src\lv_draw\../lv_misc/lv_color.h **** 
 150:..\..\..\lvgl\version_6.1.2\lvgl\src\lv_draw\../lv_misc/lv_color.h **** # define LV_COLOR_GET_R(c) LV_COLOR_GET_R1(c)
 151:..\..\..\lvgl\version_6.1.2\lvgl\src\lv_draw\../lv_misc/lv_color.h **** # define LV_COLOR_GET_G(c) LV_COLOR_GET_G1(c)
 152:..\..\..\lvgl\version_6.1.2\lvgl\src\lv_draw\../lv_misc/lv_color.h **** # define LV_COLOR_GET_B(c) LV_COLOR_GET_B1(c)
 153:..\..\..\lvgl\version_6.1.2\lvgl\src\lv_draw\../lv_misc/lv_color.h **** # define LV_COLOR_GET_A(c) LV_COLOR_GET_A1(c)
 154:..\..\..\lvgl\version_6.1.2\lvgl\src\lv_draw\../lv_misc/lv_color.h **** 
 155:..\..\..\lvgl\version_6.1.2\lvgl\src\lv_draw\../lv_misc/lv_color.h **** #elif LV_COLOR_DEPTH == 8
 156:..\..\..\lvgl\version_6.1.2\lvgl\src\lv_draw\../lv_misc/lv_color.h **** # define LV_COLOR_SET_R(c, v) LV_COLOR_SET_R8(c,v)
 157:..\..\..\lvgl\version_6.1.2\lvgl\src\lv_draw\../lv_misc/lv_color.h **** # define LV_COLOR_SET_G(c, v) LV_COLOR_SET_G8(c,v)
 158:..\..\..\lvgl\version_6.1.2\lvgl\src\lv_draw\../lv_misc/lv_color.h **** # define LV_COLOR_SET_B(c, v) LV_COLOR_SET_B8(c,v)
 159:..\..\..\lvgl\version_6.1.2\lvgl\src\lv_draw\../lv_misc/lv_color.h **** # define LV_COLOR_SET_A(c, v) LV_COLOR_SET_A8(c,v)
 160:..\..\..\lvgl\version_6.1.2\lvgl\src\lv_draw\../lv_misc/lv_color.h **** 
 161:..\..\..\lvgl\version_6.1.2\lvgl\src\lv_draw\../lv_misc/lv_color.h **** # define LV_COLOR_GET_R(c) LV_COLOR_GET_R8(c)
 162:..\..\..\lvgl\version_6.1.2\lvgl\src\lv_draw\../lv_misc/lv_color.h **** # define LV_COLOR_GET_G(c) LV_COLOR_GET_G8(c)
 163:..\..\..\lvgl\version_6.1.2\lvgl\src\lv_draw\../lv_misc/lv_color.h **** # define LV_COLOR_GET_B(c) LV_COLOR_GET_B8(c)
 164:..\..\..\lvgl\version_6.1.2\lvgl\src\lv_draw\../lv_misc/lv_color.h **** # define LV_COLOR_GET_A(c) LV_COLOR_GET_A8(c)
 165:..\..\..\lvgl\version_6.1.2\lvgl\src\lv_draw\../lv_misc/lv_color.h **** 
 166:..\..\..\lvgl\version_6.1.2\lvgl\src\lv_draw\../lv_misc/lv_color.h **** #elif LV_COLOR_DEPTH == 16
 167:..\..\..\lvgl\version_6.1.2\lvgl\src\lv_draw\../lv_misc/lv_color.h **** # define LV_COLOR_SET_R(c, v) LV_COLOR_SET_R16(c,v)
 168:..\..\..\lvgl\version_6.1.2\lvgl\src\lv_draw\../lv_misc/lv_color.h **** # if LV_COLOR_16_SWAP == 0
 169:..\..\..\lvgl\version_6.1.2\lvgl\src\lv_draw\../lv_misc/lv_color.h **** #   define LV_COLOR_SET_G(c, v) LV_COLOR_SET_G16(c,v)
 170:..\..\..\lvgl\version_6.1.2\lvgl\src\lv_draw\../lv_misc/lv_color.h **** # else
 171:..\..\..\lvgl\version_6.1.2\lvgl\src\lv_draw\../lv_misc/lv_color.h **** #   define LV_COLOR_SET_G(c, v) LV_COLOR_SET_G16_SWAP(c,v)
 172:..\..\..\lvgl\version_6.1.2\lvgl\src\lv_draw\../lv_misc/lv_color.h **** # endif
 173:..\..\..\lvgl\version_6.1.2\lvgl\src\lv_draw\../lv_misc/lv_color.h **** # define LV_COLOR_SET_B(c, v) LV_COLOR_SET_B16(c,v)
 174:..\..\..\lvgl\version_6.1.2\lvgl\src\lv_draw\../lv_misc/lv_color.h **** # define LV_COLOR_SET_A(c, v) LV_COLOR_SET_A16(c,v)
 175:..\..\..\lvgl\version_6.1.2\lvgl\src\lv_draw\../lv_misc/lv_color.h **** 
 176:..\..\..\lvgl\version_6.1.2\lvgl\src\lv_draw\../lv_misc/lv_color.h **** # define LV_COLOR_GET_R(c) LV_COLOR_GET_R16(c)
 177:..\..\..\lvgl\version_6.1.2\lvgl\src\lv_draw\../lv_misc/lv_color.h **** # if LV_COLOR_16_SWAP == 0
 178:..\..\..\lvgl\version_6.1.2\lvgl\src\lv_draw\../lv_misc/lv_color.h **** #   define LV_COLOR_GET_G(c) LV_COLOR_GET_G16(c)
 179:..\..\..\lvgl\version_6.1.2\lvgl\src\lv_draw\../lv_misc/lv_color.h **** # else
 180:..\..\..\lvgl\version_6.1.2\lvgl\src\lv_draw\../lv_misc/lv_color.h **** #   define LV_COLOR_GET_G(c) LV_COLOR_GET_G16_SWAP(c)
 181:..\..\..\lvgl\version_6.1.2\lvgl\src\lv_draw\../lv_misc/lv_color.h **** # endif
 182:..\..\..\lvgl\version_6.1.2\lvgl\src\lv_draw\../lv_misc/lv_color.h **** # define LV_COLOR_GET_B(c)   LV_COLOR_GET_B16(c)
 183:..\..\..\lvgl\version_6.1.2\lvgl\src\lv_draw\../lv_misc/lv_color.h **** # define LV_COLOR_GET_A(c)   LV_COLOR_GET_A16(c)
 184:..\..\..\lvgl\version_6.1.2\lvgl\src\lv_draw\../lv_misc/lv_color.h **** 
 185:..\..\..\lvgl\version_6.1.2\lvgl\src\lv_draw\../lv_misc/lv_color.h **** #elif LV_COLOR_DEPTH == 32
 186:..\..\..\lvgl\version_6.1.2\lvgl\src\lv_draw\../lv_misc/lv_color.h **** # define LV_COLOR_SET_R(c, v) LV_COLOR_SET_R32(c,v)
 187:..\..\..\lvgl\version_6.1.2\lvgl\src\lv_draw\../lv_misc/lv_color.h **** # define LV_COLOR_SET_G(c, v) LV_COLOR_SET_G32(c,v)
 188:..\..\..\lvgl\version_6.1.2\lvgl\src\lv_draw\../lv_misc/lv_color.h **** # define LV_COLOR_SET_B(c, v) LV_COLOR_SET_B32(c,v)
 189:..\..\..\lvgl\version_6.1.2\lvgl\src\lv_draw\../lv_misc/lv_color.h **** # define LV_COLOR_SET_A(c, v) LV_COLOR_SET_A32(c,v)
 190:..\..\..\lvgl\version_6.1.2\lvgl\src\lv_draw\../lv_misc/lv_color.h **** 
 191:..\..\..\lvgl\version_6.1.2\lvgl\src\lv_draw\../lv_misc/lv_color.h **** # define LV_COLOR_GET_R(c) LV_COLOR_GET_R32(c)
 192:..\..\..\lvgl\version_6.1.2\lvgl\src\lv_draw\../lv_misc/lv_color.h **** # define LV_COLOR_GET_G(c) LV_COLOR_GET_G32(c)
 193:..\..\..\lvgl\version_6.1.2\lvgl\src\lv_draw\../lv_misc/lv_color.h **** # define LV_COLOR_GET_B(c) LV_COLOR_GET_B32(c)
 194:..\..\..\lvgl\version_6.1.2\lvgl\src\lv_draw\../lv_misc/lv_color.h **** # define LV_COLOR_GET_A(c) LV_COLOR_GET_A32(c)
 195:..\..\..\lvgl\version_6.1.2\lvgl\src\lv_draw\../lv_misc/lv_color.h **** #endif
 196:..\..\..\lvgl\version_6.1.2\lvgl\src\lv_draw\../lv_misc/lv_color.h **** 
 197:..\..\..\lvgl\version_6.1.2\lvgl\src\lv_draw\../lv_misc/lv_color.h **** /**********************
 198:..\..\..\lvgl\version_6.1.2\lvgl\src\lv_draw\../lv_misc/lv_color.h ****  *      TYPEDEFS
ARM GAS  C:\Users\pearlstl\AppData\Local\Temp\ccmYHcOW.s 			page 11


 199:..\..\..\lvgl\version_6.1.2\lvgl\src\lv_draw\../lv_misc/lv_color.h ****  **********************/
 200:..\..\..\lvgl\version_6.1.2\lvgl\src\lv_draw\../lv_misc/lv_color.h **** 
 201:..\..\..\lvgl\version_6.1.2\lvgl\src\lv_draw\../lv_misc/lv_color.h **** typedef union
 202:..\..\..\lvgl\version_6.1.2\lvgl\src\lv_draw\../lv_misc/lv_color.h **** {
 203:..\..\..\lvgl\version_6.1.2\lvgl\src\lv_draw\../lv_misc/lv_color.h ****     struct
 204:..\..\..\lvgl\version_6.1.2\lvgl\src\lv_draw\../lv_misc/lv_color.h ****     {
 205:..\..\..\lvgl\version_6.1.2\lvgl\src\lv_draw\../lv_misc/lv_color.h ****         uint8_t blue : 1;
 206:..\..\..\lvgl\version_6.1.2\lvgl\src\lv_draw\../lv_misc/lv_color.h ****         uint8_t green : 1;
 207:..\..\..\lvgl\version_6.1.2\lvgl\src\lv_draw\../lv_misc/lv_color.h ****         uint8_t red : 1;
 208:..\..\..\lvgl\version_6.1.2\lvgl\src\lv_draw\../lv_misc/lv_color.h ****     } ch;
 209:..\..\..\lvgl\version_6.1.2\lvgl\src\lv_draw\../lv_misc/lv_color.h ****     uint8_t full;
 210:..\..\..\lvgl\version_6.1.2\lvgl\src\lv_draw\../lv_misc/lv_color.h **** } lv_color1_t;
 211:..\..\..\lvgl\version_6.1.2\lvgl\src\lv_draw\../lv_misc/lv_color.h **** 
 212:..\..\..\lvgl\version_6.1.2\lvgl\src\lv_draw\../lv_misc/lv_color.h **** typedef union
 213:..\..\..\lvgl\version_6.1.2\lvgl\src\lv_draw\../lv_misc/lv_color.h **** {
 214:..\..\..\lvgl\version_6.1.2\lvgl\src\lv_draw\../lv_misc/lv_color.h ****     struct
 215:..\..\..\lvgl\version_6.1.2\lvgl\src\lv_draw\../lv_misc/lv_color.h ****     {
 216:..\..\..\lvgl\version_6.1.2\lvgl\src\lv_draw\../lv_misc/lv_color.h ****         uint8_t blue : 2;
 217:..\..\..\lvgl\version_6.1.2\lvgl\src\lv_draw\../lv_misc/lv_color.h ****         uint8_t green : 3;
 218:..\..\..\lvgl\version_6.1.2\lvgl\src\lv_draw\../lv_misc/lv_color.h ****         uint8_t red : 3;
 219:..\..\..\lvgl\version_6.1.2\lvgl\src\lv_draw\../lv_misc/lv_color.h ****     } ch;
 220:..\..\..\lvgl\version_6.1.2\lvgl\src\lv_draw\../lv_misc/lv_color.h ****     uint8_t full;
 221:..\..\..\lvgl\version_6.1.2\lvgl\src\lv_draw\../lv_misc/lv_color.h **** } lv_color8_t;
 222:..\..\..\lvgl\version_6.1.2\lvgl\src\lv_draw\../lv_misc/lv_color.h **** 
 223:..\..\..\lvgl\version_6.1.2\lvgl\src\lv_draw\../lv_misc/lv_color.h **** typedef union
 224:..\..\..\lvgl\version_6.1.2\lvgl\src\lv_draw\../lv_misc/lv_color.h **** {
 225:..\..\..\lvgl\version_6.1.2\lvgl\src\lv_draw\../lv_misc/lv_color.h ****     struct
 226:..\..\..\lvgl\version_6.1.2\lvgl\src\lv_draw\../lv_misc/lv_color.h ****     {
 227:..\..\..\lvgl\version_6.1.2\lvgl\src\lv_draw\../lv_misc/lv_color.h **** #if LV_COLOR_16_SWAP == 0
 228:..\..\..\lvgl\version_6.1.2\lvgl\src\lv_draw\../lv_misc/lv_color.h ****         uint16_t blue : 5;
 229:..\..\..\lvgl\version_6.1.2\lvgl\src\lv_draw\../lv_misc/lv_color.h ****         uint16_t green : 6;
 230:..\..\..\lvgl\version_6.1.2\lvgl\src\lv_draw\../lv_misc/lv_color.h ****         uint16_t red : 5;
 231:..\..\..\lvgl\version_6.1.2\lvgl\src\lv_draw\../lv_misc/lv_color.h **** #else
 232:..\..\..\lvgl\version_6.1.2\lvgl\src\lv_draw\../lv_misc/lv_color.h ****         uint16_t green_h : 3;
 233:..\..\..\lvgl\version_6.1.2\lvgl\src\lv_draw\../lv_misc/lv_color.h ****         uint16_t red : 5;
 234:..\..\..\lvgl\version_6.1.2\lvgl\src\lv_draw\../lv_misc/lv_color.h ****         uint16_t blue : 5;
 235:..\..\..\lvgl\version_6.1.2\lvgl\src\lv_draw\../lv_misc/lv_color.h ****         uint16_t green_l : 3;
 236:..\..\..\lvgl\version_6.1.2\lvgl\src\lv_draw\../lv_misc/lv_color.h **** #endif
 237:..\..\..\lvgl\version_6.1.2\lvgl\src\lv_draw\../lv_misc/lv_color.h ****     } ch;
 238:..\..\..\lvgl\version_6.1.2\lvgl\src\lv_draw\../lv_misc/lv_color.h ****     uint16_t full;
 239:..\..\..\lvgl\version_6.1.2\lvgl\src\lv_draw\../lv_misc/lv_color.h **** } lv_color16_t;
 240:..\..\..\lvgl\version_6.1.2\lvgl\src\lv_draw\../lv_misc/lv_color.h **** 
 241:..\..\..\lvgl\version_6.1.2\lvgl\src\lv_draw\../lv_misc/lv_color.h **** typedef union
 242:..\..\..\lvgl\version_6.1.2\lvgl\src\lv_draw\../lv_misc/lv_color.h **** {
 243:..\..\..\lvgl\version_6.1.2\lvgl\src\lv_draw\../lv_misc/lv_color.h ****     struct
 244:..\..\..\lvgl\version_6.1.2\lvgl\src\lv_draw\../lv_misc/lv_color.h ****     {
 245:..\..\..\lvgl\version_6.1.2\lvgl\src\lv_draw\../lv_misc/lv_color.h ****         uint8_t blue;
 246:..\..\..\lvgl\version_6.1.2\lvgl\src\lv_draw\../lv_misc/lv_color.h ****         uint8_t green;
 247:..\..\..\lvgl\version_6.1.2\lvgl\src\lv_draw\../lv_misc/lv_color.h ****         uint8_t red;
 248:..\..\..\lvgl\version_6.1.2\lvgl\src\lv_draw\../lv_misc/lv_color.h ****         uint8_t alpha;
 249:..\..\..\lvgl\version_6.1.2\lvgl\src\lv_draw\../lv_misc/lv_color.h ****     } ch;
 250:..\..\..\lvgl\version_6.1.2\lvgl\src\lv_draw\../lv_misc/lv_color.h ****     uint32_t full;
 251:..\..\..\lvgl\version_6.1.2\lvgl\src\lv_draw\../lv_misc/lv_color.h **** } lv_color32_t;
 252:..\..\..\lvgl\version_6.1.2\lvgl\src\lv_draw\../lv_misc/lv_color.h **** 
 253:..\..\..\lvgl\version_6.1.2\lvgl\src\lv_draw\../lv_misc/lv_color.h **** #if LV_COLOR_DEPTH == 1
 254:..\..\..\lvgl\version_6.1.2\lvgl\src\lv_draw\../lv_misc/lv_color.h **** typedef uint8_t lv_color_int_t;
 255:..\..\..\lvgl\version_6.1.2\lvgl\src\lv_draw\../lv_misc/lv_color.h **** typedef lv_color1_t lv_color_t;
ARM GAS  C:\Users\pearlstl\AppData\Local\Temp\ccmYHcOW.s 			page 12


 256:..\..\..\lvgl\version_6.1.2\lvgl\src\lv_draw\../lv_misc/lv_color.h **** #elif LV_COLOR_DEPTH == 8
 257:..\..\..\lvgl\version_6.1.2\lvgl\src\lv_draw\../lv_misc/lv_color.h **** typedef uint8_t lv_color_int_t;
 258:..\..\..\lvgl\version_6.1.2\lvgl\src\lv_draw\../lv_misc/lv_color.h **** typedef lv_color8_t lv_color_t;
 259:..\..\..\lvgl\version_6.1.2\lvgl\src\lv_draw\../lv_misc/lv_color.h **** #elif LV_COLOR_DEPTH == 16
 260:..\..\..\lvgl\version_6.1.2\lvgl\src\lv_draw\../lv_misc/lv_color.h **** typedef uint16_t lv_color_int_t;
 261:..\..\..\lvgl\version_6.1.2\lvgl\src\lv_draw\../lv_misc/lv_color.h **** typedef lv_color16_t lv_color_t;
 262:..\..\..\lvgl\version_6.1.2\lvgl\src\lv_draw\../lv_misc/lv_color.h **** #elif LV_COLOR_DEPTH == 32
 263:..\..\..\lvgl\version_6.1.2\lvgl\src\lv_draw\../lv_misc/lv_color.h **** typedef uint32_t lv_color_int_t;
 264:..\..\..\lvgl\version_6.1.2\lvgl\src\lv_draw\../lv_misc/lv_color.h **** typedef lv_color32_t lv_color_t;
 265:..\..\..\lvgl\version_6.1.2\lvgl\src\lv_draw\../lv_misc/lv_color.h **** #else
 266:..\..\..\lvgl\version_6.1.2\lvgl\src\lv_draw\../lv_misc/lv_color.h **** #error "Invalid LV_COLOR_DEPTH in lv_conf.h! Set it to 1, 8, 16 or 32!"
 267:..\..\..\lvgl\version_6.1.2\lvgl\src\lv_draw\../lv_misc/lv_color.h **** #endif
 268:..\..\..\lvgl\version_6.1.2\lvgl\src\lv_draw\../lv_misc/lv_color.h **** 
 269:..\..\..\lvgl\version_6.1.2\lvgl\src\lv_draw\../lv_misc/lv_color.h **** typedef uint8_t lv_opa_t;
 270:..\..\..\lvgl\version_6.1.2\lvgl\src\lv_draw\../lv_misc/lv_color.h **** 
 271:..\..\..\lvgl\version_6.1.2\lvgl\src\lv_draw\../lv_misc/lv_color.h **** typedef struct
 272:..\..\..\lvgl\version_6.1.2\lvgl\src\lv_draw\../lv_misc/lv_color.h **** {
 273:..\..\..\lvgl\version_6.1.2\lvgl\src\lv_draw\../lv_misc/lv_color.h ****     uint16_t h;
 274:..\..\..\lvgl\version_6.1.2\lvgl\src\lv_draw\../lv_misc/lv_color.h ****     uint8_t s;
 275:..\..\..\lvgl\version_6.1.2\lvgl\src\lv_draw\../lv_misc/lv_color.h ****     uint8_t v;
 276:..\..\..\lvgl\version_6.1.2\lvgl\src\lv_draw\../lv_misc/lv_color.h **** } lv_color_hsv_t;
 277:..\..\..\lvgl\version_6.1.2\lvgl\src\lv_draw\../lv_misc/lv_color.h **** 
 278:..\..\..\lvgl\version_6.1.2\lvgl\src\lv_draw\../lv_misc/lv_color.h **** /**********************
 279:..\..\..\lvgl\version_6.1.2\lvgl\src\lv_draw\../lv_misc/lv_color.h ****  * GLOBAL PROTOTYPES
 280:..\..\..\lvgl\version_6.1.2\lvgl\src\lv_draw\../lv_misc/lv_color.h ****  **********************/
 281:..\..\..\lvgl\version_6.1.2\lvgl\src\lv_draw\../lv_misc/lv_color.h **** 
 282:..\..\..\lvgl\version_6.1.2\lvgl\src\lv_draw\../lv_misc/lv_color.h **** /*In color conversations:
 283:..\..\..\lvgl\version_6.1.2\lvgl\src\lv_draw\../lv_misc/lv_color.h ****  * - When converting to bigger color type the LSB weight of 1 LSB is calculated
 284:..\..\..\lvgl\version_6.1.2\lvgl\src\lv_draw\../lv_misc/lv_color.h ****  *   E.g. 16 bit Red has 5 bits
 285:..\..\..\lvgl\version_6.1.2\lvgl\src\lv_draw\../lv_misc/lv_color.h ****  *         8 bit Red has 2 bits
 286:..\..\..\lvgl\version_6.1.2\lvgl\src\lv_draw\../lv_misc/lv_color.h ****  *        ----------------------
 287:..\..\..\lvgl\version_6.1.2\lvgl\src\lv_draw\../lv_misc/lv_color.h ****  *        8 bit red LSB = (2^5 - 1) / (2^2 - 1) = 31 / 3 = 10
 288:..\..\..\lvgl\version_6.1.2\lvgl\src\lv_draw\../lv_misc/lv_color.h ****  *
 289:..\..\..\lvgl\version_6.1.2\lvgl\src\lv_draw\../lv_misc/lv_color.h ****  * - When calculating to smaller color type simply shift out the LSBs
 290:..\..\..\lvgl\version_6.1.2\lvgl\src\lv_draw\../lv_misc/lv_color.h ****  *   E.g.  8 bit Red has 2 bits
 291:..\..\..\lvgl\version_6.1.2\lvgl\src\lv_draw\../lv_misc/lv_color.h ****  *        16 bit Red has 5 bits
 292:..\..\..\lvgl\version_6.1.2\lvgl\src\lv_draw\../lv_misc/lv_color.h ****  *        ----------------------
 293:..\..\..\lvgl\version_6.1.2\lvgl\src\lv_draw\../lv_misc/lv_color.h ****  *         Shift right with 5 - 3 = 2
 294:..\..\..\lvgl\version_6.1.2\lvgl\src\lv_draw\../lv_misc/lv_color.h ****  */
 295:..\..\..\lvgl\version_6.1.2\lvgl\src\lv_draw\../lv_misc/lv_color.h **** 
 296:..\..\..\lvgl\version_6.1.2\lvgl\src\lv_draw\../lv_misc/lv_color.h **** static inline uint8_t lv_color_to1(lv_color_t color)
 297:..\..\..\lvgl\version_6.1.2\lvgl\src\lv_draw\../lv_misc/lv_color.h **** {
 298:..\..\..\lvgl\version_6.1.2\lvgl\src\lv_draw\../lv_misc/lv_color.h **** #if LV_COLOR_DEPTH == 1
 299:..\..\..\lvgl\version_6.1.2\lvgl\src\lv_draw\../lv_misc/lv_color.h ****     return color.full;
 300:..\..\..\lvgl\version_6.1.2\lvgl\src\lv_draw\../lv_misc/lv_color.h **** #elif LV_COLOR_DEPTH == 8
 301:..\..\..\lvgl\version_6.1.2\lvgl\src\lv_draw\../lv_misc/lv_color.h ****     if((LV_COLOR_GET_R(color) & 0x4) || (LV_COLOR_GET_G(color) & 0x4) || (LV_COLOR_GET_B(color) & 0
 302:..\..\..\lvgl\version_6.1.2\lvgl\src\lv_draw\../lv_misc/lv_color.h ****         return 1;
 303:..\..\..\lvgl\version_6.1.2\lvgl\src\lv_draw\../lv_misc/lv_color.h ****     } else {
 304:..\..\..\lvgl\version_6.1.2\lvgl\src\lv_draw\../lv_misc/lv_color.h ****         return 0;
 305:..\..\..\lvgl\version_6.1.2\lvgl\src\lv_draw\../lv_misc/lv_color.h ****     }
 306:..\..\..\lvgl\version_6.1.2\lvgl\src\lv_draw\../lv_misc/lv_color.h **** #elif LV_COLOR_DEPTH == 16
 307:..\..\..\lvgl\version_6.1.2\lvgl\src\lv_draw\../lv_misc/lv_color.h ****     if((LV_COLOR_GET_R(color) & 0x10) || (LV_COLOR_GET_G(color) & 0x20) || (LV_COLOR_GET_B(color) &
 308:..\..\..\lvgl\version_6.1.2\lvgl\src\lv_draw\../lv_misc/lv_color.h ****         return 1;
 309:..\..\..\lvgl\version_6.1.2\lvgl\src\lv_draw\../lv_misc/lv_color.h ****     } else {
 310:..\..\..\lvgl\version_6.1.2\lvgl\src\lv_draw\../lv_misc/lv_color.h ****         return 0;
 311:..\..\..\lvgl\version_6.1.2\lvgl\src\lv_draw\../lv_misc/lv_color.h ****     }
 312:..\..\..\lvgl\version_6.1.2\lvgl\src\lv_draw\../lv_misc/lv_color.h **** #elif LV_COLOR_DEPTH == 32
ARM GAS  C:\Users\pearlstl\AppData\Local\Temp\ccmYHcOW.s 			page 13


 313:..\..\..\lvgl\version_6.1.2\lvgl\src\lv_draw\../lv_misc/lv_color.h ****     if((LV_COLOR_GET_R(color) & 0x80) || (LV_COLOR_GET_G(color) & 0x80) || (LV_COLOR_GET_B(color) &
 314:..\..\..\lvgl\version_6.1.2\lvgl\src\lv_draw\../lv_misc/lv_color.h ****         return 1;
 315:..\..\..\lvgl\version_6.1.2\lvgl\src\lv_draw\../lv_misc/lv_color.h ****     } else {
 316:..\..\..\lvgl\version_6.1.2\lvgl\src\lv_draw\../lv_misc/lv_color.h ****         return 0;
 317:..\..\..\lvgl\version_6.1.2\lvgl\src\lv_draw\../lv_misc/lv_color.h ****     }
 318:..\..\..\lvgl\version_6.1.2\lvgl\src\lv_draw\../lv_misc/lv_color.h **** #endif
 319:..\..\..\lvgl\version_6.1.2\lvgl\src\lv_draw\../lv_misc/lv_color.h **** }
 320:..\..\..\lvgl\version_6.1.2\lvgl\src\lv_draw\../lv_misc/lv_color.h **** 
 321:..\..\..\lvgl\version_6.1.2\lvgl\src\lv_draw\../lv_misc/lv_color.h **** static inline uint8_t lv_color_to8(lv_color_t color)
 322:..\..\..\lvgl\version_6.1.2\lvgl\src\lv_draw\../lv_misc/lv_color.h **** {
 323:..\..\..\lvgl\version_6.1.2\lvgl\src\lv_draw\../lv_misc/lv_color.h **** #if LV_COLOR_DEPTH == 1
 324:..\..\..\lvgl\version_6.1.2\lvgl\src\lv_draw\../lv_misc/lv_color.h ****     if(color.full == 0)
 325:..\..\..\lvgl\version_6.1.2\lvgl\src\lv_draw\../lv_misc/lv_color.h ****         return 0;
 326:..\..\..\lvgl\version_6.1.2\lvgl\src\lv_draw\../lv_misc/lv_color.h ****     else
 327:..\..\..\lvgl\version_6.1.2\lvgl\src\lv_draw\../lv_misc/lv_color.h ****         return 0xFF;
 328:..\..\..\lvgl\version_6.1.2\lvgl\src\lv_draw\../lv_misc/lv_color.h **** #elif LV_COLOR_DEPTH == 8
 329:..\..\..\lvgl\version_6.1.2\lvgl\src\lv_draw\../lv_misc/lv_color.h ****     return color.full;
 330:..\..\..\lvgl\version_6.1.2\lvgl\src\lv_draw\../lv_misc/lv_color.h **** #elif LV_COLOR_DEPTH == 16
 331:..\..\..\lvgl\version_6.1.2\lvgl\src\lv_draw\../lv_misc/lv_color.h ****     lv_color8_t ret;
 332:..\..\..\lvgl\version_6.1.2\lvgl\src\lv_draw\../lv_misc/lv_color.h ****     LV_COLOR_SET_R8(ret, LV_COLOR_GET_R(color) >> 2);   /* 5 - 3  = 2*/
 333:..\..\..\lvgl\version_6.1.2\lvgl\src\lv_draw\../lv_misc/lv_color.h ****     LV_COLOR_SET_G8(ret, LV_COLOR_GET_G(color) >> 3); /* 6 - 3  = 3*/
 334:..\..\..\lvgl\version_6.1.2\lvgl\src\lv_draw\../lv_misc/lv_color.h ****     LV_COLOR_SET_B8(ret, LV_COLOR_GET_B(color) >> 3);  /* 5 - 2  = 3*/
 335:..\..\..\lvgl\version_6.1.2\lvgl\src\lv_draw\../lv_misc/lv_color.h ****     return ret.full;
 336:..\..\..\lvgl\version_6.1.2\lvgl\src\lv_draw\../lv_misc/lv_color.h **** #elif LV_COLOR_DEPTH == 32
 337:..\..\..\lvgl\version_6.1.2\lvgl\src\lv_draw\../lv_misc/lv_color.h ****     lv_color8_t ret;
 338:..\..\..\lvgl\version_6.1.2\lvgl\src\lv_draw\../lv_misc/lv_color.h ****     LV_COLOR_SET_R8(ret, LV_COLOR_GET_R(color) >> 5);   /* 8 - 3  = 5*/
 339:..\..\..\lvgl\version_6.1.2\lvgl\src\lv_draw\../lv_misc/lv_color.h ****     LV_COLOR_SET_G8(ret, LV_COLOR_GET_G(color) >> 5); /* 8 - 3  = 5*/
 340:..\..\..\lvgl\version_6.1.2\lvgl\src\lv_draw\../lv_misc/lv_color.h ****     LV_COLOR_SET_B8(ret, LV_COLOR_GET_B(color) >> 6);  /* 8 - 2  = 6*/
 341:..\..\..\lvgl\version_6.1.2\lvgl\src\lv_draw\../lv_misc/lv_color.h ****     return ret.full;
 342:..\..\..\lvgl\version_6.1.2\lvgl\src\lv_draw\../lv_misc/lv_color.h **** #endif
 343:..\..\..\lvgl\version_6.1.2\lvgl\src\lv_draw\../lv_misc/lv_color.h **** }
 344:..\..\..\lvgl\version_6.1.2\lvgl\src\lv_draw\../lv_misc/lv_color.h **** 
 345:..\..\..\lvgl\version_6.1.2\lvgl\src\lv_draw\../lv_misc/lv_color.h **** static inline uint16_t lv_color_to16(lv_color_t color)
 346:..\..\..\lvgl\version_6.1.2\lvgl\src\lv_draw\../lv_misc/lv_color.h **** {
 347:..\..\..\lvgl\version_6.1.2\lvgl\src\lv_draw\../lv_misc/lv_color.h **** #if LV_COLOR_DEPTH == 1
 348:..\..\..\lvgl\version_6.1.2\lvgl\src\lv_draw\../lv_misc/lv_color.h ****     if(color.full == 0)
 349:..\..\..\lvgl\version_6.1.2\lvgl\src\lv_draw\../lv_misc/lv_color.h ****         return 0;
 350:..\..\..\lvgl\version_6.1.2\lvgl\src\lv_draw\../lv_misc/lv_color.h ****     else
 351:..\..\..\lvgl\version_6.1.2\lvgl\src\lv_draw\../lv_misc/lv_color.h ****         return 0xFFFF;
 352:..\..\..\lvgl\version_6.1.2\lvgl\src\lv_draw\../lv_misc/lv_color.h **** #elif LV_COLOR_DEPTH == 8
 353:..\..\..\lvgl\version_6.1.2\lvgl\src\lv_draw\../lv_misc/lv_color.h ****     lv_color16_t ret;
 354:..\..\..\lvgl\version_6.1.2\lvgl\src\lv_draw\../lv_misc/lv_color.h ****     LV_COLOR_SET_R16(ret, LV_COLOR_GET_R(color) * 4);     /*(2^5 - 1)/(2^3 - 1) = 31/7 = 4*/
 355:..\..\..\lvgl\version_6.1.2\lvgl\src\lv_draw\../lv_misc/lv_color.h **** #if LV_COLOR_16_SWAP == 0
 356:..\..\..\lvgl\version_6.1.2\lvgl\src\lv_draw\../lv_misc/lv_color.h ****     LV_COLOR_SET_G16(ret,  LV_COLOR_GET_G(color) * 9); /*(2^6 - 1)/(2^3 - 1) = 63/7 = 9*/
 357:..\..\..\lvgl\version_6.1.2\lvgl\src\lv_draw\../lv_misc/lv_color.h **** #else
 358:..\..\..\lvgl\version_6.1.2\lvgl\src\lv_draw\../lv_misc/lv_color.h ****     LV_COLOR_SET_G16_SWAP(ret, (LV_COLOR_GET_G(color) * 9)); /*(2^6 - 1)/(2^3 - 1) = 63/7 = 9*/
 359:..\..\..\lvgl\version_6.1.2\lvgl\src\lv_draw\../lv_misc/lv_color.h **** #endif
 360:..\..\..\lvgl\version_6.1.2\lvgl\src\lv_draw\../lv_misc/lv_color.h ****     LV_COLOR_SET_B16(ret, LV_COLOR_GET_B(color) * 10);  /*(2^5 - 1)/(2^2 - 1) = 31/3 = 10*/
 361:..\..\..\lvgl\version_6.1.2\lvgl\src\lv_draw\../lv_misc/lv_color.h ****     return ret.full;
 362:..\..\..\lvgl\version_6.1.2\lvgl\src\lv_draw\../lv_misc/lv_color.h **** #elif LV_COLOR_DEPTH == 16
 363:..\..\..\lvgl\version_6.1.2\lvgl\src\lv_draw\../lv_misc/lv_color.h ****     return color.full;
 364:..\..\..\lvgl\version_6.1.2\lvgl\src\lv_draw\../lv_misc/lv_color.h **** #elif LV_COLOR_DEPTH == 32
 365:..\..\..\lvgl\version_6.1.2\lvgl\src\lv_draw\../lv_misc/lv_color.h ****     lv_color16_t ret;
 366:..\..\..\lvgl\version_6.1.2\lvgl\src\lv_draw\../lv_misc/lv_color.h ****     LV_COLOR_SET_R16(ret, LV_COLOR_GET_R(color) >> 3);   /* 8 - 5  = 3*/
 367:..\..\..\lvgl\version_6.1.2\lvgl\src\lv_draw\../lv_misc/lv_color.h **** 
 368:..\..\..\lvgl\version_6.1.2\lvgl\src\lv_draw\../lv_misc/lv_color.h **** #if LV_COLOR_16_SWAP == 0
 369:..\..\..\lvgl\version_6.1.2\lvgl\src\lv_draw\../lv_misc/lv_color.h ****     LV_COLOR_SET_G16(ret, LV_COLOR_GET_G(color) >> 2); /* 8 - 6  = 2*/
ARM GAS  C:\Users\pearlstl\AppData\Local\Temp\ccmYHcOW.s 			page 14


 370:..\..\..\lvgl\version_6.1.2\lvgl\src\lv_draw\../lv_misc/lv_color.h **** #else
 371:..\..\..\lvgl\version_6.1.2\lvgl\src\lv_draw\../lv_misc/lv_color.h ****     LV_COLOR_SET_G16_SWAP(ret, ret.ch.green_h = (LV_COLOR_GET_G(color) >> 2); /*(2^6 - 1)/(2^3 - 1)
 372:..\..\..\lvgl\version_6.1.2\lvgl\src\lv_draw\../lv_misc/lv_color.h **** #endif
 373:..\..\..\lvgl\version_6.1.2\lvgl\src\lv_draw\../lv_misc/lv_color.h ****     LV_COLOR_SET_B16(ret, LV_COLOR_GET_B(color) >> 3);  /* 8 - 5  = 3*/
 374:..\..\..\lvgl\version_6.1.2\lvgl\src\lv_draw\../lv_misc/lv_color.h ****     return ret.full;
 375:..\..\..\lvgl\version_6.1.2\lvgl\src\lv_draw\../lv_misc/lv_color.h **** #endif                         
 376:..\..\..\lvgl\version_6.1.2\lvgl\src\lv_draw\../lv_misc/lv_color.h **** }
 377:..\..\..\lvgl\version_6.1.2\lvgl\src\lv_draw\../lv_misc/lv_color.h **** 
 378:..\..\..\lvgl\version_6.1.2\lvgl\src\lv_draw\../lv_misc/lv_color.h **** static inline uint32_t lv_color_to32(lv_color_t color)
 379:..\..\..\lvgl\version_6.1.2\lvgl\src\lv_draw\../lv_misc/lv_color.h **** {
 380:..\..\..\lvgl\version_6.1.2\lvgl\src\lv_draw\../lv_misc/lv_color.h **** #if LV_COLOR_DEPTH == 1
 381:..\..\..\lvgl\version_6.1.2\lvgl\src\lv_draw\../lv_misc/lv_color.h ****     if(color.full == 0)
 382:..\..\..\lvgl\version_6.1.2\lvgl\src\lv_draw\../lv_misc/lv_color.h ****         return 0;
 383:..\..\..\lvgl\version_6.1.2\lvgl\src\lv_draw\../lv_misc/lv_color.h ****     else
 384:..\..\..\lvgl\version_6.1.2\lvgl\src\lv_draw\../lv_misc/lv_color.h ****         return 0xFFFFFFFF;
 385:..\..\..\lvgl\version_6.1.2\lvgl\src\lv_draw\../lv_misc/lv_color.h **** #elif LV_COLOR_DEPTH == 8
 386:..\..\..\lvgl\version_6.1.2\lvgl\src\lv_draw\../lv_misc/lv_color.h ****     lv_color32_t ret;
 387:..\..\..\lvgl\version_6.1.2\lvgl\src\lv_draw\../lv_misc/lv_color.h ****     LV_COLOR_SET_R32(ret, LV_COLOR_GET_R(color) * 36);     /*(2^8 - 1)/(2^3 - 1) = 255/7 = 36*/
 388:..\..\..\lvgl\version_6.1.2\lvgl\src\lv_draw\../lv_misc/lv_color.h ****     LV_COLOR_SET_G32(ret, LV_COLOR_GET_G(color) * 36); /*(2^8 - 1)/(2^3 - 1) = 255/7 = 36*/
 389:..\..\..\lvgl\version_6.1.2\lvgl\src\lv_draw\../lv_misc/lv_color.h ****     LV_COLOR_SET_B32(ret, LV_COLOR_GET_B(color) * 85);   /*(2^8 - 1)/(2^2 - 1) = 255/3 = 85*/
 390:..\..\..\lvgl\version_6.1.2\lvgl\src\lv_draw\../lv_misc/lv_color.h ****     LV_COLOR_SET_A32(ret, 0xFF);
 391:..\..\..\lvgl\version_6.1.2\lvgl\src\lv_draw\../lv_misc/lv_color.h ****     return ret.full;
 392:..\..\..\lvgl\version_6.1.2\lvgl\src\lv_draw\../lv_misc/lv_color.h **** #elif LV_COLOR_DEPTH == 16
 393:..\..\..\lvgl\version_6.1.2\lvgl\src\lv_draw\../lv_misc/lv_color.h ****     /**
 394:..\..\..\lvgl\version_6.1.2\lvgl\src\lv_draw\../lv_misc/lv_color.h ****      * The floating point math for conversion is:
 395:..\..\..\lvgl\version_6.1.2\lvgl\src\lv_draw\../lv_misc/lv_color.h ****      *  valueto = valuefrom * ( (2^bitsto - 1) / (float)(2^bitsfrom - 1) )
 396:..\..\..\lvgl\version_6.1.2\lvgl\src\lv_draw\../lv_misc/lv_color.h ****      * The faster integer math for conversion is:
 397:..\..\..\lvgl\version_6.1.2\lvgl\src\lv_draw\../lv_misc/lv_color.h ****      *  valueto = ( valuefrom * multiplier + adder ) >> divisor
 398:..\..\..\lvgl\version_6.1.2\lvgl\src\lv_draw\../lv_misc/lv_color.h ****      *   multiplier = FLOOR( ( (2^bitsto - 1) << divisor ) / (float)(2^bitsfrom - 1) )
 399:..\..\..\lvgl\version_6.1.2\lvgl\src\lv_draw\../lv_misc/lv_color.h ****      * 
 400:..\..\..\lvgl\version_6.1.2\lvgl\src\lv_draw\../lv_misc/lv_color.h ****      * Find the first divisor where ( adder >> divisor ) <= 0
 401:..\..\..\lvgl\version_6.1.2\lvgl\src\lv_draw\../lv_misc/lv_color.h ****      * 
 402:..\..\..\lvgl\version_6.1.2\lvgl\src\lv_draw\../lv_misc/lv_color.h ****      * 5-bit to 8-bit: ( 31 * multiplier + adder ) >> divisor = 255
 403:..\..\..\lvgl\version_6.1.2\lvgl\src\lv_draw\../lv_misc/lv_color.h ****      * divisor  multiplier  adder  min (0)  max (31)
 404:..\..\..\lvgl\version_6.1.2\lvgl\src\lv_draw\../lv_misc/lv_color.h ****      *       0           8      7        7       255
 405:..\..\..\lvgl\version_6.1.2\lvgl\src\lv_draw\../lv_misc/lv_color.h ****      *       1          16     14        7       255
 406:..\..\..\lvgl\version_6.1.2\lvgl\src\lv_draw\../lv_misc/lv_color.h ****      *       2          32     28        7       255
 407:..\..\..\lvgl\version_6.1.2\lvgl\src\lv_draw\../lv_misc/lv_color.h ****      *       3          65     25        3       255
 408:..\..\..\lvgl\version_6.1.2\lvgl\src\lv_draw\../lv_misc/lv_color.h ****      *       4         131     19        1       255
 409:..\..\..\lvgl\version_6.1.2\lvgl\src\lv_draw\../lv_misc/lv_color.h ****      *       5         263      7        0       255
 410:..\..\..\lvgl\version_6.1.2\lvgl\src\lv_draw\../lv_misc/lv_color.h ****      * 
 411:..\..\..\lvgl\version_6.1.2\lvgl\src\lv_draw\../lv_misc/lv_color.h ****      * 6-bit to 8-bit: 255 = ( 63 * multiplier + adder ) >> divisor
 412:..\..\..\lvgl\version_6.1.2\lvgl\src\lv_draw\../lv_misc/lv_color.h ****      * divisor  multiplier  adder  min (0)  max (63)
 413:..\..\..\lvgl\version_6.1.2\lvgl\src\lv_draw\../lv_misc/lv_color.h ****      *       0           4      3        3       255
 414:..\..\..\lvgl\version_6.1.2\lvgl\src\lv_draw\../lv_misc/lv_color.h ****      *       1           8      6        3       255
 415:..\..\..\lvgl\version_6.1.2\lvgl\src\lv_draw\../lv_misc/lv_color.h ****      *       2          16     12        3       255
 416:..\..\..\lvgl\version_6.1.2\lvgl\src\lv_draw\../lv_misc/lv_color.h ****      *       3          32     24        3       255
 417:..\..\..\lvgl\version_6.1.2\lvgl\src\lv_draw\../lv_misc/lv_color.h ****      *       4          64     48        3       255
 418:..\..\..\lvgl\version_6.1.2\lvgl\src\lv_draw\../lv_misc/lv_color.h ****      *       5         129     33        1       255
 419:..\..\..\lvgl\version_6.1.2\lvgl\src\lv_draw\../lv_misc/lv_color.h ****      *       6         259      3        0       255
 420:..\..\..\lvgl\version_6.1.2\lvgl\src\lv_draw\../lv_misc/lv_color.h ****      */
 421:..\..\..\lvgl\version_6.1.2\lvgl\src\lv_draw\../lv_misc/lv_color.h ****     lv_color32_t ret;
 422:..\..\..\lvgl\version_6.1.2\lvgl\src\lv_draw\../lv_misc/lv_color.h ****     LV_COLOR_SET_R32(ret, (LV_COLOR_GET_R(color) * 263 + 7 ) >> 5);
 423:..\..\..\lvgl\version_6.1.2\lvgl\src\lv_draw\../lv_misc/lv_color.h ****     LV_COLOR_SET_G32(ret, (LV_COLOR_GET_G(color) * 259 + 3 ) >> 6);
 424:..\..\..\lvgl\version_6.1.2\lvgl\src\lv_draw\../lv_misc/lv_color.h ****     LV_COLOR_SET_B32(ret, (LV_COLOR_GET_B(color) * 263 + 7 ) >> 5);
 425:..\..\..\lvgl\version_6.1.2\lvgl\src\lv_draw\../lv_misc/lv_color.h ****     LV_COLOR_SET_A32(ret, 0xFF);
 426:..\..\..\lvgl\version_6.1.2\lvgl\src\lv_draw\../lv_misc/lv_color.h ****     return ret.full;
ARM GAS  C:\Users\pearlstl\AppData\Local\Temp\ccmYHcOW.s 			page 15


 427:..\..\..\lvgl\version_6.1.2\lvgl\src\lv_draw\../lv_misc/lv_color.h **** #elif LV_COLOR_DEPTH == 32
 428:..\..\..\lvgl\version_6.1.2\lvgl\src\lv_draw\../lv_misc/lv_color.h ****     return color.full;
 429:..\..\..\lvgl\version_6.1.2\lvgl\src\lv_draw\../lv_misc/lv_color.h **** #endif
 430:..\..\..\lvgl\version_6.1.2\lvgl\src\lv_draw\../lv_misc/lv_color.h **** }
 431:..\..\..\lvgl\version_6.1.2\lvgl\src\lv_draw\../lv_misc/lv_color.h **** 
 432:..\..\..\lvgl\version_6.1.2\lvgl\src\lv_draw\../lv_misc/lv_color.h **** static inline lv_color_t lv_color_mix(lv_color_t c1, lv_color_t c2, uint8_t mix)
 433:..\..\..\lvgl\version_6.1.2\lvgl\src\lv_draw\../lv_misc/lv_color.h **** {
 434:..\..\..\lvgl\version_6.1.2\lvgl\src\lv_draw\../lv_misc/lv_color.h ****     lv_color_t ret;
 435:..\..\..\lvgl\version_6.1.2\lvgl\src\lv_draw\../lv_misc/lv_color.h **** #if LV_COLOR_DEPTH != 1
 436:..\..\..\lvgl\version_6.1.2\lvgl\src\lv_draw\../lv_misc/lv_color.h ****     /*LV_COLOR_DEPTH == 8, 16 or 32*/
 437:..\..\..\lvgl\version_6.1.2\lvgl\src\lv_draw\../lv_misc/lv_color.h ****     LV_COLOR_SET_R(ret, (uint16_t)((uint16_t) LV_COLOR_GET_R(c1) * mix + LV_COLOR_GET_R(c2) * (255 
 160              		.loc 3 437 0
 161 0084 95F802C0 		ldrb	ip, [r5, #2]	@ zero_extendqisi2
 438:..\..\..\lvgl\version_6.1.2\lvgl\src\lv_draw\../lv_misc/lv_color.h ****     LV_COLOR_SET_G(ret, (uint16_t)((uint16_t) LV_COLOR_GET_G(c1) * mix + LV_COLOR_GET_G(c2) * (255 
 162              		.loc 3 438 0
 163 0088 6978     		ldrb	r1, [r5, #1]	@ zero_extendqisi2
 164              	.LVL16:
 437:..\..\..\lvgl\version_6.1.2\lvgl\src\lv_draw\../lv_misc/lv_color.h ****     LV_COLOR_SET_G(ret, (uint16_t)((uint16_t) LV_COLOR_GET_G(c1) * mix + LV_COLOR_GET_G(c2) * (255 
 165              		.loc 3 437 0
 166 008a C4F1FF00 		rsb	r0, r4, #255
 167              	.LVL17:
 168 008e 83B2     		uxth	r3, r0
 169              	.LVL18:
 170              		.loc 3 438 0
 171 0090 11FB03F1 		smulbb	r1, r1, r3
 172              	.LBE52:
 173              	.LBE51:
 106:..\..\..\lvgl\version_6.1.2\lvgl\src\lv_draw/lv_draw_basic.c ****             }
 174              		.loc 1 106 0
 175 0094 18FB03F8 		smulbb	r8, r8, r3
 176              	.LBB56:
 177              	.LBB53:
 437:..\..\..\lvgl\version_6.1.2\lvgl\src\lv_draw\../lv_misc/lv_color.h ****     LV_COLOR_SET_G(ret, (uint16_t)((uint16_t) LV_COLOR_GET_G(c1) * mix + LV_COLOR_GET_G(c2) * (255 
 178              		.loc 3 437 0
 179 0098 1CFB03FC 		smulbb	ip, ip, r3
 180 009c C6F30740 		ubfx	r0, r6, #16, #8
 181              		.loc 3 438 0
 182 00a0 C6F30723 		ubfx	r3, r6, #8, #8
 183              	.LBE53:
 184              	.LBE56:
 106:..\..\..\lvgl\version_6.1.2\lvgl\src\lv_draw/lv_draw_basic.c ****             }
 185              		.loc 1 106 0
 186 00a4 5FFA86FE 		uxtb	lr, r6
 187              	.LVL19:
 188              	.LBB57:
 189              	.LBB54:
 437:..\..\..\lvgl\version_6.1.2\lvgl\src\lv_draw\../lv_misc/lv_color.h ****     LV_COLOR_SET_G(ret, (uint16_t)((uint16_t) LV_COLOR_GET_G(c1) * mix + LV_COLOR_GET_G(c2) * (255 
 190              		.loc 3 437 0
 191 00a8 04FB00C0 		mla	r0, r4, r0, ip
 192              	.LVL20:
 193              	.LBE54:
 194              	.LBE57:
 106:..\..\..\lvgl\version_6.1.2\lvgl\src\lv_draw/lv_draw_basic.c ****             }
 195              		.loc 1 106 0
 196 00ac 0EFB0486 		mla	r6, lr, r4, r8
 197              	.LBB58:
 198              	.LBB55:
ARM GAS  C:\Users\pearlstl\AppData\Local\Temp\ccmYHcOW.s 			page 16


 199              		.loc 3 438 0
 200 00b0 04FB0314 		mla	r4, r4, r3, r1
 201              	.LVL21:
 202 00b4 C4F30724 		ubfx	r4, r4, #8, #8
 437:..\..\..\lvgl\version_6.1.2\lvgl\src\lv_draw\../lv_misc/lv_color.h ****     LV_COLOR_SET_G(ret, (uint16_t)((uint16_t) LV_COLOR_GET_G(c1) * mix + LV_COLOR_GET_G(c2) * (255 
 203              		.loc 3 437 0
 204 00b8 C0F30723 		ubfx	r3, r0, #8, #8
 205              	.LVL22:
 206              	.LBE55:
 207              	.LBE58:
 106:..\..\..\lvgl\version_6.1.2\lvgl\src\lv_draw/lv_draw_basic.c ****             }
 208              		.loc 1 106 0
 209 00bc C6F30721 		ubfx	r1, r6, #8, #8
 210 00c0 FF20     		movs	r0, #255
 211 00c2 07F82210 		strb	r1, [r7, r2, lsl #2]
 212 00c6 AB70     		strb	r3, [r5, #2]
 213 00c8 6C70     		strb	r4, [r5, #1]
 214 00ca E870     		strb	r0, [r5, #3]
 215 00cc CEE7     		b	.L1
 216              	.LVL23:
 217              	.L8:
 104:..\..\..\lvgl\version_6.1.2\lvgl\src\lv_draw/lv_draw_basic.c ****             } else {
 218              		.loc 1 104 0
 219 00ce 47F82260 		str	r6, [r7, r2, lsl #2]
 220              	.LVL24:
 221 00d2 CBE7     		b	.L1
 222              	.LBE50:
 223              		.cfi_endproc
 224              	.LFE31:
 225              		.size	lv_draw_px, .-lv_draw_px
 226              		.section	.text.lv_draw_fill,"ax",%progbits
 227              		.align	2
 228              		.global	lv_draw_fill
 229              		.thumb
 230              		.thumb_func
 231              		.type	lv_draw_fill, %function
 232              	lv_draw_fill:
 233              	.LFB32:
 115:..\..\..\lvgl\version_6.1.2\lvgl\src\lv_draw/lv_draw_basic.c **** 
 116:..\..\..\lvgl\version_6.1.2\lvgl\src\lv_draw/lv_draw_basic.c **** /**
 117:..\..\..\lvgl\version_6.1.2\lvgl\src\lv_draw/lv_draw_basic.c ****  * Fill an area in the Virtual Display Buffer
 118:..\..\..\lvgl\version_6.1.2\lvgl\src\lv_draw/lv_draw_basic.c ****  * @param cords_p coordinates of the area to fill
 119:..\..\..\lvgl\version_6.1.2\lvgl\src\lv_draw/lv_draw_basic.c ****  * @param mask_p fill only o this mask  (truncated to VDB area)
 120:..\..\..\lvgl\version_6.1.2\lvgl\src\lv_draw/lv_draw_basic.c ****  * @param color fill color
 121:..\..\..\lvgl\version_6.1.2\lvgl\src\lv_draw/lv_draw_basic.c ****  * @param opa opacity of the area (0..255)
 122:..\..\..\lvgl\version_6.1.2\lvgl\src\lv_draw/lv_draw_basic.c ****  */
 123:..\..\..\lvgl\version_6.1.2\lvgl\src\lv_draw/lv_draw_basic.c **** void lv_draw_fill(const lv_area_t * cords_p, const lv_area_t * mask_p, lv_color_t color, lv_opa_t o
 124:..\..\..\lvgl\version_6.1.2\lvgl\src\lv_draw/lv_draw_basic.c **** {
 234              		.loc 1 124 0
 235              		.cfi_startproc
 236              		@ args = 0, pretend = 0, frame = 48
 237              		@ frame_needed = 0, uses_anonymous_args = 0
 238              	.LVL25:
 125:..\..\..\lvgl\version_6.1.2\lvgl\src\lv_draw/lv_draw_basic.c ****     if(opa < LV_OPA_MIN) return;
 239              		.loc 1 125 0
 240 0000 0F2B     		cmp	r3, #15
 241 0002 11D9     		bls	.L43
ARM GAS  C:\Users\pearlstl\AppData\Local\Temp\ccmYHcOW.s 			page 17


 124:..\..\..\lvgl\version_6.1.2\lvgl\src\lv_draw/lv_draw_basic.c ****     if(opa < LV_OPA_MIN) return;
 242              		.loc 1 124 0
 243 0004 2DE9F04F 		push	{r4, r5, r6, r7, r8, r9, r10, fp, lr}
 244              		.cfi_def_cfa_offset 36
 245              		.cfi_offset 4, -36
 246              		.cfi_offset 5, -32
 247              		.cfi_offset 6, -28
 248              		.cfi_offset 7, -24
 249              		.cfi_offset 8, -20
 250              		.cfi_offset 9, -16
 251              		.cfi_offset 10, -12
 252              		.cfi_offset 11, -8
 253              		.cfi_offset 14, -4
 254 0008 91B0     		sub	sp, sp, #68
 255              		.cfi_def_cfa_offset 104
 126:..\..\..\lvgl\version_6.1.2\lvgl\src\lv_draw/lv_draw_basic.c ****     if(opa > LV_OPA_MAX) opa = LV_OPA_COVER;
 256              		.loc 1 126 0
 257 000a FC2B     		cmp	r3, #252
 258 000c 1546     		mov	r5, r2
 127:..\..\..\lvgl\version_6.1.2\lvgl\src\lv_draw/lv_draw_basic.c **** 
 128:..\..\..\lvgl\version_6.1.2\lvgl\src\lv_draw/lv_draw_basic.c ****     lv_area_t res_a;
 129:..\..\..\lvgl\version_6.1.2\lvgl\src\lv_draw/lv_draw_basic.c ****     bool union_ok;
 130:..\..\..\lvgl\version_6.1.2\lvgl\src\lv_draw/lv_draw_basic.c **** 
 131:..\..\..\lvgl\version_6.1.2\lvgl\src\lv_draw/lv_draw_basic.c ****     /*Get the union of cord and mask*/
 132:..\..\..\lvgl\version_6.1.2\lvgl\src\lv_draw/lv_draw_basic.c ****     /* The mask is already truncated to the vdb size
 133:..\..\..\lvgl\version_6.1.2\lvgl\src\lv_draw/lv_draw_basic.c ****      * in 'lv_refr_area_with_vdb' function */
 134:..\..\..\lvgl\version_6.1.2\lvgl\src\lv_draw/lv_draw_basic.c ****     union_ok = lv_area_intersect(&res_a, cords_p, mask_p);
 259              		.loc 1 134 0
 260 000e 0A46     		mov	r2, r1
 261              	.LVL26:
 262 0010 0146     		mov	r1, r0
 263              	.LVL27:
 264 0012 0EA8     		add	r0, sp, #56
 265              	.LVL28:
 266 0014 9846     		mov	r8, r3
 126:..\..\..\lvgl\version_6.1.2\lvgl\src\lv_draw/lv_draw_basic.c ****     if(opa > LV_OPA_MAX) opa = LV_OPA_COVER;
 267              		.loc 1 126 0
 268 0016 28BF     		it	cs
 269 0018 4FF0FF08 		movcs	r8, #255
 270              		.loc 1 134 0
 271 001c FFF7FEFF 		bl	lv_area_intersect
 272              	.LVL29:
 135:..\..\..\lvgl\version_6.1.2\lvgl\src\lv_draw/lv_draw_basic.c **** 
 136:..\..\..\lvgl\version_6.1.2\lvgl\src\lv_draw/lv_draw_basic.c ****     /*If there are common part of the three area then draw to the vdb*/
 137:..\..\..\lvgl\version_6.1.2\lvgl\src\lv_draw/lv_draw_basic.c ****     if(union_ok == false) {
 273              		.loc 1 137 0
 274 0020 18B9     		cbnz	r0, .L44
 275              	.LVL30:
 276              	.L9:
 138:..\..\..\lvgl\version_6.1.2\lvgl\src\lv_draw/lv_draw_basic.c ****         return;
 139:..\..\..\lvgl\version_6.1.2\lvgl\src\lv_draw/lv_draw_basic.c ****     }
 140:..\..\..\lvgl\version_6.1.2\lvgl\src\lv_draw/lv_draw_basic.c **** 
 141:..\..\..\lvgl\version_6.1.2\lvgl\src\lv_draw/lv_draw_basic.c ****     lv_disp_t * disp    = lv_refr_get_disp_refreshing();
 142:..\..\..\lvgl\version_6.1.2\lvgl\src\lv_draw/lv_draw_basic.c ****     lv_disp_buf_t * vdb = lv_disp_get_buf(disp);
 143:..\..\..\lvgl\version_6.1.2\lvgl\src\lv_draw/lv_draw_basic.c **** 
 144:..\..\..\lvgl\version_6.1.2\lvgl\src\lv_draw/lv_draw_basic.c ****     lv_area_t vdb_rel_a; /*Stores relative coordinates on vdb*/
 145:..\..\..\lvgl\version_6.1.2\lvgl\src\lv_draw/lv_draw_basic.c ****     vdb_rel_a.x1 = res_a.x1 - vdb->area.x1;
ARM GAS  C:\Users\pearlstl\AppData\Local\Temp\ccmYHcOW.s 			page 18


 146:..\..\..\lvgl\version_6.1.2\lvgl\src\lv_draw/lv_draw_basic.c ****     vdb_rel_a.y1 = res_a.y1 - vdb->area.y1;
 147:..\..\..\lvgl\version_6.1.2\lvgl\src\lv_draw/lv_draw_basic.c ****     vdb_rel_a.x2 = res_a.x2 - vdb->area.x1;
 148:..\..\..\lvgl\version_6.1.2\lvgl\src\lv_draw/lv_draw_basic.c ****     vdb_rel_a.y2 = res_a.y2 - vdb->area.y1;
 149:..\..\..\lvgl\version_6.1.2\lvgl\src\lv_draw/lv_draw_basic.c **** 
 150:..\..\..\lvgl\version_6.1.2\lvgl\src\lv_draw/lv_draw_basic.c ****     lv_color_t * vdb_buf_tmp = vdb->buf_act;
 151:..\..\..\lvgl\version_6.1.2\lvgl\src\lv_draw/lv_draw_basic.c ****     uint32_t vdb_width       = lv_area_get_width(&vdb->area);
 152:..\..\..\lvgl\version_6.1.2\lvgl\src\lv_draw/lv_draw_basic.c ****     /*Move the vdb_tmp to the first row*/
 153:..\..\..\lvgl\version_6.1.2\lvgl\src\lv_draw/lv_draw_basic.c ****     vdb_buf_tmp += vdb_width * vdb_rel_a.y1;
 154:..\..\..\lvgl\version_6.1.2\lvgl\src\lv_draw/lv_draw_basic.c **** 
 155:..\..\..\lvgl\version_6.1.2\lvgl\src\lv_draw/lv_draw_basic.c **** #if LV_USE_GPU
 156:..\..\..\lvgl\version_6.1.2\lvgl\src\lv_draw/lv_draw_basic.c ****     static LV_ATTRIBUTE_MEM_ALIGN lv_color_t color_array_tmp[LV_HOR_RES_MAX]; /*Used by 'lv_disp_me
 157:..\..\..\lvgl\version_6.1.2\lvgl\src\lv_draw/lv_draw_basic.c ****     static lv_coord_t last_width = -1;
 158:..\..\..\lvgl\version_6.1.2\lvgl\src\lv_draw/lv_draw_basic.c **** 
 159:..\..\..\lvgl\version_6.1.2\lvgl\src\lv_draw/lv_draw_basic.c ****     lv_coord_t w = lv_area_get_width(&vdb_rel_a);
 160:..\..\..\lvgl\version_6.1.2\lvgl\src\lv_draw/lv_draw_basic.c ****     /*Don't use hw. acc. for every small fill (because of the init overhead)*/
 161:..\..\..\lvgl\version_6.1.2\lvgl\src\lv_draw/lv_draw_basic.c ****     if(w < VFILL_HW_ACC_SIZE_LIMIT) {
 162:..\..\..\lvgl\version_6.1.2\lvgl\src\lv_draw/lv_draw_basic.c ****         sw_color_fill(vdb->buf_act, vdb_width, &vdb_rel_a, color, opa);
 163:..\..\..\lvgl\version_6.1.2\lvgl\src\lv_draw/lv_draw_basic.c ****     }
 164:..\..\..\lvgl\version_6.1.2\lvgl\src\lv_draw/lv_draw_basic.c ****     /*Not opaque fill*/
 165:..\..\..\lvgl\version_6.1.2\lvgl\src\lv_draw/lv_draw_basic.c ****     else if(opa == LV_OPA_COVER) {
 166:..\..\..\lvgl\version_6.1.2\lvgl\src\lv_draw/lv_draw_basic.c ****         /*Use hw fill if present*/
 167:..\..\..\lvgl\version_6.1.2\lvgl\src\lv_draw/lv_draw_basic.c ****         if(disp->driver.gpu_fill_cb) {
 168:..\..\..\lvgl\version_6.1.2\lvgl\src\lv_draw/lv_draw_basic.c ****             disp->driver.gpu_fill_cb(&disp->driver, vdb->buf_act, vdb_width, &vdb_rel_a, color);
 169:..\..\..\lvgl\version_6.1.2\lvgl\src\lv_draw/lv_draw_basic.c ****         }
 170:..\..\..\lvgl\version_6.1.2\lvgl\src\lv_draw/lv_draw_basic.c ****         /*Use hw blend if present and the area is not too small*/
 171:..\..\..\lvgl\version_6.1.2\lvgl\src\lv_draw/lv_draw_basic.c ****         else if(lv_area_get_height(&vdb_rel_a) > VFILL_HW_ACC_SIZE_LIMIT && disp->driver.gpu_blend_
 172:..\..\..\lvgl\version_6.1.2\lvgl\src\lv_draw/lv_draw_basic.c ****             /*Fill a  one line sized buffer with a color and blend this later*/
 173:..\..\..\lvgl\version_6.1.2\lvgl\src\lv_draw/lv_draw_basic.c ****             if(color_array_tmp[0].full != color.full || last_width != w) {
 174:..\..\..\lvgl\version_6.1.2\lvgl\src\lv_draw/lv_draw_basic.c ****                 uint16_t i;
 175:..\..\..\lvgl\version_6.1.2\lvgl\src\lv_draw/lv_draw_basic.c ****                 for(i = 0; i < w; i++) {
 176:..\..\..\lvgl\version_6.1.2\lvgl\src\lv_draw/lv_draw_basic.c ****                     color_array_tmp[i].full = color.full;
 177:..\..\..\lvgl\version_6.1.2\lvgl\src\lv_draw/lv_draw_basic.c ****                 }
 178:..\..\..\lvgl\version_6.1.2\lvgl\src\lv_draw/lv_draw_basic.c ****                 last_width = w;
 179:..\..\..\lvgl\version_6.1.2\lvgl\src\lv_draw/lv_draw_basic.c ****             }
 180:..\..\..\lvgl\version_6.1.2\lvgl\src\lv_draw/lv_draw_basic.c **** 
 181:..\..\..\lvgl\version_6.1.2\lvgl\src\lv_draw/lv_draw_basic.c ****             /*Blend the filled line to every line VDB line-by-line*/
 182:..\..\..\lvgl\version_6.1.2\lvgl\src\lv_draw/lv_draw_basic.c ****             lv_coord_t row;
 183:..\..\..\lvgl\version_6.1.2\lvgl\src\lv_draw/lv_draw_basic.c ****             for(row = vdb_rel_a.y1; row <= vdb_rel_a.y2; row++) {
 184:..\..\..\lvgl\version_6.1.2\lvgl\src\lv_draw/lv_draw_basic.c ****                 disp->driver.gpu_blend_cb(&disp->driver, &vdb_buf_tmp[vdb_rel_a.x1], color_array_tm
 185:..\..\..\lvgl\version_6.1.2\lvgl\src\lv_draw/lv_draw_basic.c ****                 vdb_buf_tmp += vdb_width;
 186:..\..\..\lvgl\version_6.1.2\lvgl\src\lv_draw/lv_draw_basic.c ****             }
 187:..\..\..\lvgl\version_6.1.2\lvgl\src\lv_draw/lv_draw_basic.c **** 
 188:..\..\..\lvgl\version_6.1.2\lvgl\src\lv_draw/lv_draw_basic.c ****         }
 189:..\..\..\lvgl\version_6.1.2\lvgl\src\lv_draw/lv_draw_basic.c ****         /*Else use sw fill if no better option*/
 190:..\..\..\lvgl\version_6.1.2\lvgl\src\lv_draw/lv_draw_basic.c ****         else {
 191:..\..\..\lvgl\version_6.1.2\lvgl\src\lv_draw/lv_draw_basic.c ****             sw_color_fill(vdb->buf_act, vdb_width, &vdb_rel_a, color, opa);
 192:..\..\..\lvgl\version_6.1.2\lvgl\src\lv_draw/lv_draw_basic.c ****         }
 193:..\..\..\lvgl\version_6.1.2\lvgl\src\lv_draw/lv_draw_basic.c **** 
 194:..\..\..\lvgl\version_6.1.2\lvgl\src\lv_draw/lv_draw_basic.c ****     }
 195:..\..\..\lvgl\version_6.1.2\lvgl\src\lv_draw/lv_draw_basic.c ****     /*Fill with opacity*/
 196:..\..\..\lvgl\version_6.1.2\lvgl\src\lv_draw/lv_draw_basic.c ****     else {
 197:..\..\..\lvgl\version_6.1.2\lvgl\src\lv_draw/lv_draw_basic.c ****         /*Use hw blend if present*/
 198:..\..\..\lvgl\version_6.1.2\lvgl\src\lv_draw/lv_draw_basic.c ****         if(disp->driver.gpu_blend_cb) {
 199:..\..\..\lvgl\version_6.1.2\lvgl\src\lv_draw/lv_draw_basic.c ****             if(color_array_tmp[0].full != color.full || last_width != w) {
 200:..\..\..\lvgl\version_6.1.2\lvgl\src\lv_draw/lv_draw_basic.c ****                 uint16_t i;
 201:..\..\..\lvgl\version_6.1.2\lvgl\src\lv_draw/lv_draw_basic.c ****                 for(i = 0; i < w; i++) {
 202:..\..\..\lvgl\version_6.1.2\lvgl\src\lv_draw/lv_draw_basic.c ****                     color_array_tmp[i].full = color.full;
ARM GAS  C:\Users\pearlstl\AppData\Local\Temp\ccmYHcOW.s 			page 19


 203:..\..\..\lvgl\version_6.1.2\lvgl\src\lv_draw/lv_draw_basic.c ****                 }
 204:..\..\..\lvgl\version_6.1.2\lvgl\src\lv_draw/lv_draw_basic.c **** 
 205:..\..\..\lvgl\version_6.1.2\lvgl\src\lv_draw/lv_draw_basic.c ****                 last_width = w;
 206:..\..\..\lvgl\version_6.1.2\lvgl\src\lv_draw/lv_draw_basic.c ****             }
 207:..\..\..\lvgl\version_6.1.2\lvgl\src\lv_draw/lv_draw_basic.c ****             lv_coord_t row;
 208:..\..\..\lvgl\version_6.1.2\lvgl\src\lv_draw/lv_draw_basic.c ****             for(row = vdb_rel_a.y1; row <= vdb_rel_a.y2; row++) {
 209:..\..\..\lvgl\version_6.1.2\lvgl\src\lv_draw/lv_draw_basic.c ****                 disp->driver.gpu_blend_cb(&disp->driver, &vdb_buf_tmp[vdb_rel_a.x1], color_array_tm
 210:..\..\..\lvgl\version_6.1.2\lvgl\src\lv_draw/lv_draw_basic.c ****                 vdb_buf_tmp += vdb_width;
 211:..\..\..\lvgl\version_6.1.2\lvgl\src\lv_draw/lv_draw_basic.c ****             }
 212:..\..\..\lvgl\version_6.1.2\lvgl\src\lv_draw/lv_draw_basic.c **** 
 213:..\..\..\lvgl\version_6.1.2\lvgl\src\lv_draw/lv_draw_basic.c ****         }
 214:..\..\..\lvgl\version_6.1.2\lvgl\src\lv_draw/lv_draw_basic.c ****         /*Use sw fill with opa if no better option*/
 215:..\..\..\lvgl\version_6.1.2\lvgl\src\lv_draw/lv_draw_basic.c ****         else {
 216:..\..\..\lvgl\version_6.1.2\lvgl\src\lv_draw/lv_draw_basic.c ****             sw_color_fill(vdb->buf_act, vdb_width, &vdb_rel_a, color, opa);
 217:..\..\..\lvgl\version_6.1.2\lvgl\src\lv_draw/lv_draw_basic.c ****         }
 218:..\..\..\lvgl\version_6.1.2\lvgl\src\lv_draw/lv_draw_basic.c ****     }
 219:..\..\..\lvgl\version_6.1.2\lvgl\src\lv_draw/lv_draw_basic.c **** #else
 220:..\..\..\lvgl\version_6.1.2\lvgl\src\lv_draw/lv_draw_basic.c ****     sw_color_fill(vdb->buf_act, vdb_width, &vdb_rel_a, color, opa);
 221:..\..\..\lvgl\version_6.1.2\lvgl\src\lv_draw/lv_draw_basic.c **** #endif
 222:..\..\..\lvgl\version_6.1.2\lvgl\src\lv_draw/lv_draw_basic.c **** }
 277              		.loc 1 222 0
 278 0022 11B0     		add	sp, sp, #68
 279              		.cfi_def_cfa_offset 36
 280              		@ sp needed
 281 0024 BDE8F08F 		pop	{r4, r5, r6, r7, r8, r9, r10, fp, pc}
 282              	.LVL31:
 283              	.L43:
 284              		.cfi_def_cfa_offset 0
 285              		.cfi_restore 4
 286              		.cfi_restore 5
 287              		.cfi_restore 6
 288              		.cfi_restore 7
 289              		.cfi_restore 8
 290              		.cfi_restore 9
 291              		.cfi_restore 10
 292              		.cfi_restore 11
 293              		.cfi_restore 14
 294 0028 7047     		bx	lr
 295              	.LVL32:
 296              	.L44:
 297              		.cfi_def_cfa_offset 104
 298              		.cfi_offset 4, -36
 299              		.cfi_offset 5, -32
 300              		.cfi_offset 6, -28
 301              		.cfi_offset 7, -24
 302              		.cfi_offset 8, -20
 303              		.cfi_offset 9, -16
 304              		.cfi_offset 10, -12
 305              		.cfi_offset 11, -8
 306              		.cfi_offset 14, -4
 141:..\..\..\lvgl\version_6.1.2\lvgl\src\lv_draw/lv_draw_basic.c ****     lv_disp_buf_t * vdb = lv_disp_get_buf(disp);
 307              		.loc 1 141 0
 308 002a FFF7FEFF 		bl	lv_refr_get_disp_refreshing
 309              	.LVL33:
 142:..\..\..\lvgl\version_6.1.2\lvgl\src\lv_draw/lv_draw_basic.c **** 
 310              		.loc 1 142 0
 311 002e FFF7FEFF 		bl	lv_disp_get_buf
ARM GAS  C:\Users\pearlstl\AppData\Local\Temp\ccmYHcOW.s 			page 20


 312              	.LVL34:
 145:..\..\..\lvgl\version_6.1.2\lvgl\src\lv_draw/lv_draw_basic.c ****     vdb_rel_a.y1 = res_a.y1 - vdb->area.y1;
 313              		.loc 1 145 0
 314 0032 B0F810E0 		ldrh	lr, [r0, #16]
 146:..\..\..\lvgl\version_6.1.2\lvgl\src\lv_draw/lv_draw_basic.c ****     vdb_rel_a.x2 = res_a.x2 - vdb->area.x1;
 315              		.loc 1 146 0
 316 0036 478A     		ldrh	r7, [r0, #18]
 317              	.LBB69:
 318              	.LBB70:
 319              		.loc 2 88 0
 320 0038 868A     		ldrh	r6, [r0, #20]
 321              	.LBE70:
 322              	.LBE69:
 147:..\..\..\lvgl\version_6.1.2\lvgl\src\lv_draw/lv_draw_basic.c ****     vdb_rel_a.y2 = res_a.y2 - vdb->area.y1;
 323              		.loc 1 147 0
 324 003a BDF83C20 		ldrh	r2, [sp, #60]
 150:..\..\..\lvgl\version_6.1.2\lvgl\src\lv_draw/lv_draw_basic.c ****     uint32_t vdb_width       = lv_area_get_width(&vdb->area);
 325              		.loc 1 150 0
 326 003e 8068     		ldr	r0, [r0, #8]
 327              	.LVL35:
 145:..\..\..\lvgl\version_6.1.2\lvgl\src\lv_draw/lv_draw_basic.c ****     vdb_rel_a.y1 = res_a.y1 - vdb->area.y1;
 328              		.loc 1 145 0
 329 0040 BDF83810 		ldrh	r1, [sp, #56]
 148:..\..\..\lvgl\version_6.1.2\lvgl\src\lv_draw/lv_draw_basic.c **** 
 330              		.loc 1 148 0
 331 0044 BDF83E30 		ldrh	r3, [sp, #62]
 150:..\..\..\lvgl\version_6.1.2\lvgl\src\lv_draw/lv_draw_basic.c ****     uint32_t vdb_width       = lv_area_get_width(&vdb->area);
 332              		.loc 1 150 0
 333 0048 0B90     		str	r0, [sp, #44]
 334              	.LVL36:
 335              	.LBB75:
 336              	.LBB71:
 337              		.loc 2 88 0
 338 004a CEF10100 		rsb	r0, lr, #1
 339              	.LVL37:
 340              	.LBE71:
 341              	.LBE75:
 146:..\..\..\lvgl\version_6.1.2\lvgl\src\lv_draw/lv_draw_basic.c ****     vdb_rel_a.x2 = res_a.x2 - vdb->area.x1;
 342              		.loc 1 146 0
 343 004e BDF83A40 		ldrh	r4, [sp, #58]
 344              	.LBB76:
 345              	.LBB72:
 346              		.loc 2 88 0
 347 0052 3044     		add	r0, r0, r6
 348              	.LBE72:
 349              	.LBE76:
 147:..\..\..\lvgl\version_6.1.2\lvgl\src\lv_draw/lv_draw_basic.c ****     vdb_rel_a.y2 = res_a.y2 - vdb->area.y1;
 350              		.loc 1 147 0
 351 0054 CEEB0202 		rsb	r2, lr, r2
 148:..\..\..\lvgl\version_6.1.2\lvgl\src\lv_draw/lv_draw_basic.c **** 
 352              		.loc 1 148 0
 353 0058 DB1B     		subs	r3, r3, r7
 147:..\..\..\lvgl\version_6.1.2\lvgl\src\lv_draw/lv_draw_basic.c ****     vdb_rel_a.y2 = res_a.y2 - vdb->area.y1;
 354              		.loc 1 147 0
 355 005a 12B2     		sxth	r2, r2
 145:..\..\..\lvgl\version_6.1.2\lvgl\src\lv_draw/lv_draw_basic.c ****     vdb_rel_a.y1 = res_a.y1 - vdb->area.y1;
 356              		.loc 1 145 0
ARM GAS  C:\Users\pearlstl\AppData\Local\Temp\ccmYHcOW.s 			page 21


 357 005c CEEB0101 		rsb	r1, lr, r1
 358              	.LBB77:
 359              	.LBB73:
 360              		.loc 2 88 0
 361 0060 00B2     		sxth	r0, r0
 362              	.LBE73:
 363              	.LBE77:
 146:..\..\..\lvgl\version_6.1.2\lvgl\src\lv_draw/lv_draw_basic.c ****     vdb_rel_a.x2 = res_a.x2 - vdb->area.x1;
 364              		.loc 1 146 0
 365 0062 E41B     		subs	r4, r4, r7
 147:..\..\..\lvgl\version_6.1.2\lvgl\src\lv_draw/lv_draw_basic.c ****     vdb_rel_a.y2 = res_a.y2 - vdb->area.y1;
 366              		.loc 1 147 0
 367 0064 0A92     		str	r2, [sp, #40]
 368 0066 1746     		mov	r7, r2
 148:..\..\..\lvgl\version_6.1.2\lvgl\src\lv_draw/lv_draw_basic.c **** 
 369              		.loc 1 148 0
 370 0068 0FFA83FB 		sxth	fp, r3
 371              	.LBB78:
 372              	.LBB74:
 373              		.loc 2 88 0
 374 006c 0590     		str	r0, [sp, #20]
 375              	.LVL38:
 376              	.LBE74:
 377              	.LBE78:
 145:..\..\..\lvgl\version_6.1.2\lvgl\src\lv_draw/lv_draw_basic.c ****     vdb_rel_a.y1 = res_a.y1 - vdb->area.y1;
 378              		.loc 1 145 0
 379 006e 0FFA81F9 		sxth	r9, r1
 380              	.LBB79:
 381              	.LBB80:
 223:..\..\..\lvgl\version_6.1.2\lvgl\src\lv_draw/lv_draw_basic.c **** 
 224:..\..\..\lvgl\version_6.1.2\lvgl\src\lv_draw/lv_draw_basic.c **** /**
 225:..\..\..\lvgl\version_6.1.2\lvgl\src\lv_draw/lv_draw_basic.c ****  * Draw a letter in the Virtual Display Buffer
 226:..\..\..\lvgl\version_6.1.2\lvgl\src\lv_draw/lv_draw_basic.c ****  * @param pos_p left-top coordinate of the latter
 227:..\..\..\lvgl\version_6.1.2\lvgl\src\lv_draw/lv_draw_basic.c ****  * @param mask_p the letter will be drawn only on this area  (truncated to VDB area)
 228:..\..\..\lvgl\version_6.1.2\lvgl\src\lv_draw/lv_draw_basic.c ****  * @param font_p pointer to font
 229:..\..\..\lvgl\version_6.1.2\lvgl\src\lv_draw/lv_draw_basic.c ****  * @param letter a letter to draw
 230:..\..\..\lvgl\version_6.1.2\lvgl\src\lv_draw/lv_draw_basic.c ****  * @param color color of letter
 231:..\..\..\lvgl\version_6.1.2\lvgl\src\lv_draw/lv_draw_basic.c ****  * @param opa opacity of letter (0..255)
 232:..\..\..\lvgl\version_6.1.2\lvgl\src\lv_draw/lv_draw_basic.c ****  */
 233:..\..\..\lvgl\version_6.1.2\lvgl\src\lv_draw/lv_draw_basic.c **** void lv_draw_letter(const lv_point_t * pos_p, const lv_area_t * mask_p, const lv_font_t * font_p, u
 234:..\..\..\lvgl\version_6.1.2\lvgl\src\lv_draw/lv_draw_basic.c ****                     lv_color_t color, lv_opa_t opa)
 235:..\..\..\lvgl\version_6.1.2\lvgl\src\lv_draw/lv_draw_basic.c **** {
 236:..\..\..\lvgl\version_6.1.2\lvgl\src\lv_draw/lv_draw_basic.c ****     /*clang-format off*/
 237:..\..\..\lvgl\version_6.1.2\lvgl\src\lv_draw/lv_draw_basic.c ****     const uint8_t bpp1_opa_table[2]  = {0, 255};          /*Opacity mapping with bpp = 1 (Just for 
 238:..\..\..\lvgl\version_6.1.2\lvgl\src\lv_draw/lv_draw_basic.c ****     const uint8_t bpp2_opa_table[4]  = {0, 85, 170, 255}; /*Opacity mapping with bpp = 2*/
 239:..\..\..\lvgl\version_6.1.2\lvgl\src\lv_draw/lv_draw_basic.c ****     const uint8_t bpp4_opa_table[16] = {0,  17, 34,  51,  /*Opacity mapping with bpp = 4*/
 240:..\..\..\lvgl\version_6.1.2\lvgl\src\lv_draw/lv_draw_basic.c ****                                         68, 85, 102, 119, 136, 153, 170, 187, 204, 221, 238, 255};
 241:..\..\..\lvgl\version_6.1.2\lvgl\src\lv_draw/lv_draw_basic.c ****     /*clang-format on*/
 242:..\..\..\lvgl\version_6.1.2\lvgl\src\lv_draw/lv_draw_basic.c **** 
 243:..\..\..\lvgl\version_6.1.2\lvgl\src\lv_draw/lv_draw_basic.c ****     if(opa < LV_OPA_MIN) return;
 244:..\..\..\lvgl\version_6.1.2\lvgl\src\lv_draw/lv_draw_basic.c ****     if(opa > LV_OPA_MAX) opa = LV_OPA_COVER;
 245:..\..\..\lvgl\version_6.1.2\lvgl\src\lv_draw/lv_draw_basic.c **** 
 246:..\..\..\lvgl\version_6.1.2\lvgl\src\lv_draw/lv_draw_basic.c ****     if(font_p == NULL) {
 247:..\..\..\lvgl\version_6.1.2\lvgl\src\lv_draw/lv_draw_basic.c ****         LV_LOG_WARN("Font: character's bitmap not found");
 248:..\..\..\lvgl\version_6.1.2\lvgl\src\lv_draw/lv_draw_basic.c ****         return;
 249:..\..\..\lvgl\version_6.1.2\lvgl\src\lv_draw/lv_draw_basic.c ****     }
 250:..\..\..\lvgl\version_6.1.2\lvgl\src\lv_draw/lv_draw_basic.c **** 
ARM GAS  C:\Users\pearlstl\AppData\Local\Temp\ccmYHcOW.s 			page 22


 251:..\..\..\lvgl\version_6.1.2\lvgl\src\lv_draw/lv_draw_basic.c ****     lv_font_glyph_dsc_t g;
 252:..\..\..\lvgl\version_6.1.2\lvgl\src\lv_draw/lv_draw_basic.c ****     bool g_ret = lv_font_get_glyph_dsc(font_p, &g, letter, '\0');
 253:..\..\..\lvgl\version_6.1.2\lvgl\src\lv_draw/lv_draw_basic.c ****     if(g_ret == false) return;
 254:..\..\..\lvgl\version_6.1.2\lvgl\src\lv_draw/lv_draw_basic.c **** 
 255:..\..\..\lvgl\version_6.1.2\lvgl\src\lv_draw/lv_draw_basic.c **** 
 256:..\..\..\lvgl\version_6.1.2\lvgl\src\lv_draw/lv_draw_basic.c ****     lv_coord_t pos_x = pos_p->x + g.ofs_x;
 257:..\..\..\lvgl\version_6.1.2\lvgl\src\lv_draw/lv_draw_basic.c ****     lv_coord_t pos_y = pos_p->y + (font_p->line_height - font_p->base_line) - g.box_h - g.ofs_y;
 258:..\..\..\lvgl\version_6.1.2\lvgl\src\lv_draw/lv_draw_basic.c **** 
 259:..\..\..\lvgl\version_6.1.2\lvgl\src\lv_draw/lv_draw_basic.c ****     const uint8_t * bpp_opa_table;
 260:..\..\..\lvgl\version_6.1.2\lvgl\src\lv_draw/lv_draw_basic.c ****     uint8_t bitmask_init;
 261:..\..\..\lvgl\version_6.1.2\lvgl\src\lv_draw/lv_draw_basic.c ****     uint8_t bitmask;
 262:..\..\..\lvgl\version_6.1.2\lvgl\src\lv_draw/lv_draw_basic.c **** 
 263:..\..\..\lvgl\version_6.1.2\lvgl\src\lv_draw/lv_draw_basic.c ****     /*bpp = 3 should be converted to bpp = 4 in lv_font_get_glyph_bitmap */
 264:..\..\..\lvgl\version_6.1.2\lvgl\src\lv_draw/lv_draw_basic.c ****     if(g.bpp == 3) g.bpp = 4;
 265:..\..\..\lvgl\version_6.1.2\lvgl\src\lv_draw/lv_draw_basic.c **** 
 266:..\..\..\lvgl\version_6.1.2\lvgl\src\lv_draw/lv_draw_basic.c ****     switch(g.bpp) {
 267:..\..\..\lvgl\version_6.1.2\lvgl\src\lv_draw/lv_draw_basic.c ****         case 1:
 268:..\..\..\lvgl\version_6.1.2\lvgl\src\lv_draw/lv_draw_basic.c ****             bpp_opa_table = bpp1_opa_table;
 269:..\..\..\lvgl\version_6.1.2\lvgl\src\lv_draw/lv_draw_basic.c ****             bitmask_init  = 0x80;
 270:..\..\..\lvgl\version_6.1.2\lvgl\src\lv_draw/lv_draw_basic.c ****             break;
 271:..\..\..\lvgl\version_6.1.2\lvgl\src\lv_draw/lv_draw_basic.c ****         case 2:
 272:..\..\..\lvgl\version_6.1.2\lvgl\src\lv_draw/lv_draw_basic.c ****             bpp_opa_table = bpp2_opa_table;
 273:..\..\..\lvgl\version_6.1.2\lvgl\src\lv_draw/lv_draw_basic.c ****             bitmask_init  = 0xC0;
 274:..\..\..\lvgl\version_6.1.2\lvgl\src\lv_draw/lv_draw_basic.c ****             break;
 275:..\..\..\lvgl\version_6.1.2\lvgl\src\lv_draw/lv_draw_basic.c ****         case 4:
 276:..\..\..\lvgl\version_6.1.2\lvgl\src\lv_draw/lv_draw_basic.c ****             bpp_opa_table = bpp4_opa_table;
 277:..\..\..\lvgl\version_6.1.2\lvgl\src\lv_draw/lv_draw_basic.c ****             bitmask_init  = 0xF0;
 278:..\..\..\lvgl\version_6.1.2\lvgl\src\lv_draw/lv_draw_basic.c ****             break;
 279:..\..\..\lvgl\version_6.1.2\lvgl\src\lv_draw/lv_draw_basic.c ****         case 8:
 280:..\..\..\lvgl\version_6.1.2\lvgl\src\lv_draw/lv_draw_basic.c ****             bpp_opa_table = NULL;
 281:..\..\..\lvgl\version_6.1.2\lvgl\src\lv_draw/lv_draw_basic.c ****             bitmask_init  = 0xFF;
 282:..\..\..\lvgl\version_6.1.2\lvgl\src\lv_draw/lv_draw_basic.c ****             break;       /*No opa table, pixel value will be used directly*/
 283:..\..\..\lvgl\version_6.1.2\lvgl\src\lv_draw/lv_draw_basic.c ****         default: return; /*Invalid bpp. Can't render the letter*/
 284:..\..\..\lvgl\version_6.1.2\lvgl\src\lv_draw/lv_draw_basic.c ****     }
 285:..\..\..\lvgl\version_6.1.2\lvgl\src\lv_draw/lv_draw_basic.c **** 
 286:..\..\..\lvgl\version_6.1.2\lvgl\src\lv_draw/lv_draw_basic.c ****     const uint8_t * map_p = lv_font_get_glyph_bitmap(font_p, letter);
 287:..\..\..\lvgl\version_6.1.2\lvgl\src\lv_draw/lv_draw_basic.c **** 
 288:..\..\..\lvgl\version_6.1.2\lvgl\src\lv_draw/lv_draw_basic.c ****     if(map_p == NULL) return;
 289:..\..\..\lvgl\version_6.1.2\lvgl\src\lv_draw/lv_draw_basic.c **** 
 290:..\..\..\lvgl\version_6.1.2\lvgl\src\lv_draw/lv_draw_basic.c ****     /*If the letter is completely out of mask don't draw it */
 291:..\..\..\lvgl\version_6.1.2\lvgl\src\lv_draw/lv_draw_basic.c ****     if(pos_x + g.box_w < mask_p->x1 || pos_x > mask_p->x2 || pos_y + g.box_h < mask_p->y1 || pos_y 
 292:..\..\..\lvgl\version_6.1.2\lvgl\src\lv_draw/lv_draw_basic.c **** 
 293:..\..\..\lvgl\version_6.1.2\lvgl\src\lv_draw/lv_draw_basic.c ****     lv_disp_t * disp    = lv_refr_get_disp_refreshing();
 294:..\..\..\lvgl\version_6.1.2\lvgl\src\lv_draw/lv_draw_basic.c ****     lv_disp_buf_t * vdb = lv_disp_get_buf(disp);
 295:..\..\..\lvgl\version_6.1.2\lvgl\src\lv_draw/lv_draw_basic.c **** 
 296:..\..\..\lvgl\version_6.1.2\lvgl\src\lv_draw/lv_draw_basic.c ****     lv_coord_t vdb_width     = lv_area_get_width(&vdb->area);
 297:..\..\..\lvgl\version_6.1.2\lvgl\src\lv_draw/lv_draw_basic.c ****     lv_color_t * vdb_buf_tmp = vdb->buf_act;
 298:..\..\..\lvgl\version_6.1.2\lvgl\src\lv_draw/lv_draw_basic.c ****     lv_coord_t col, row;
 299:..\..\..\lvgl\version_6.1.2\lvgl\src\lv_draw/lv_draw_basic.c **** 
 300:..\..\..\lvgl\version_6.1.2\lvgl\src\lv_draw/lv_draw_basic.c ****     uint8_t width_byte_scr = g.box_w >> 3; /*Width in bytes (on the screen finally) (e.g. w = 11 ->
 301:..\..\..\lvgl\version_6.1.2\lvgl\src\lv_draw/lv_draw_basic.c ****     if(g.box_w & 0x7) width_byte_scr++;
 302:..\..\..\lvgl\version_6.1.2\lvgl\src\lv_draw/lv_draw_basic.c ****     uint16_t width_bit = g.box_w * g.bpp; /*Letter width in bits*/
 303:..\..\..\lvgl\version_6.1.2\lvgl\src\lv_draw/lv_draw_basic.c **** 
 304:..\..\..\lvgl\version_6.1.2\lvgl\src\lv_draw/lv_draw_basic.c ****     bool subpx = font_p->subpx == LV_FONT_SUBPX_NONE ? false : true;
 305:..\..\..\lvgl\version_6.1.2\lvgl\src\lv_draw/lv_draw_basic.c **** 
 306:..\..\..\lvgl\version_6.1.2\lvgl\src\lv_draw/lv_draw_basic.c ****     /* Calculate the col/row start/end on the map*/
 307:..\..\..\lvgl\version_6.1.2\lvgl\src\lv_draw/lv_draw_basic.c ****     lv_coord_t col_start;
ARM GAS  C:\Users\pearlstl\AppData\Local\Temp\ccmYHcOW.s 			page 23


 308:..\..\..\lvgl\version_6.1.2\lvgl\src\lv_draw/lv_draw_basic.c ****     lv_coord_t col_end;
 309:..\..\..\lvgl\version_6.1.2\lvgl\src\lv_draw/lv_draw_basic.c ****     lv_coord_t row_start;
 310:..\..\..\lvgl\version_6.1.2\lvgl\src\lv_draw/lv_draw_basic.c ****     lv_coord_t row_end;
 311:..\..\..\lvgl\version_6.1.2\lvgl\src\lv_draw/lv_draw_basic.c **** 
 312:..\..\..\lvgl\version_6.1.2\lvgl\src\lv_draw/lv_draw_basic.c ****     if(subpx == false) {
 313:..\..\..\lvgl\version_6.1.2\lvgl\src\lv_draw/lv_draw_basic.c ****         col_start = pos_x >= mask_p->x1 ? 0 : mask_p->x1 - pos_x;
 314:..\..\..\lvgl\version_6.1.2\lvgl\src\lv_draw/lv_draw_basic.c ****         col_end   = pos_x + g.box_w <= mask_p->x2 ? g.box_w : mask_p->x2 - pos_x + 1;
 315:..\..\..\lvgl\version_6.1.2\lvgl\src\lv_draw/lv_draw_basic.c ****         row_start = pos_y >= mask_p->y1 ? 0 : mask_p->y1 - pos_y;
 316:..\..\..\lvgl\version_6.1.2\lvgl\src\lv_draw/lv_draw_basic.c ****         row_end   = pos_y + g.box_h <= mask_p->y2 ? g.box_h : mask_p->y2 - pos_y + 1;
 317:..\..\..\lvgl\version_6.1.2\lvgl\src\lv_draw/lv_draw_basic.c ****     } else {
 318:..\..\..\lvgl\version_6.1.2\lvgl\src\lv_draw/lv_draw_basic.c ****         col_start = pos_x >= mask_p->x1 ? 0 : (mask_p->x1 - pos_x) * 3;
 319:..\..\..\lvgl\version_6.1.2\lvgl\src\lv_draw/lv_draw_basic.c ****         col_end   = pos_x + g.box_w / 3 <= mask_p->x2 ? g.box_w : (mask_p->x2 - pos_x + 1) * 3;
 320:..\..\..\lvgl\version_6.1.2\lvgl\src\lv_draw/lv_draw_basic.c ****         row_start = pos_y >= mask_p->y1 ? 0 : mask_p->y1 - pos_y;
 321:..\..\..\lvgl\version_6.1.2\lvgl\src\lv_draw/lv_draw_basic.c ****         row_end   = pos_y + g.box_h <= mask_p->y2 ? g.box_h : mask_p->y2 - pos_y + 1;
 322:..\..\..\lvgl\version_6.1.2\lvgl\src\lv_draw/lv_draw_basic.c ****     }
 323:..\..\..\lvgl\version_6.1.2\lvgl\src\lv_draw/lv_draw_basic.c **** 
 324:..\..\..\lvgl\version_6.1.2\lvgl\src\lv_draw/lv_draw_basic.c ****     /*Set a pointer on VDB to the first pixel of the letter*/
 325:..\..\..\lvgl\version_6.1.2\lvgl\src\lv_draw/lv_draw_basic.c ****     vdb_buf_tmp += ((pos_y - vdb->area.y1) * vdb_width) + pos_x - vdb->area.x1;
 326:..\..\..\lvgl\version_6.1.2\lvgl\src\lv_draw/lv_draw_basic.c **** 
 327:..\..\..\lvgl\version_6.1.2\lvgl\src\lv_draw/lv_draw_basic.c ****     /*If the letter is partially out of mask the move there on VDB*/
 328:..\..\..\lvgl\version_6.1.2\lvgl\src\lv_draw/lv_draw_basic.c ****     if(subpx) vdb_buf_tmp += (row_start * vdb_width) + col_start / 3;
 329:..\..\..\lvgl\version_6.1.2\lvgl\src\lv_draw/lv_draw_basic.c ****     else vdb_buf_tmp += (row_start * vdb_width) + col_start;
 330:..\..\..\lvgl\version_6.1.2\lvgl\src\lv_draw/lv_draw_basic.c **** 
 331:..\..\..\lvgl\version_6.1.2\lvgl\src\lv_draw/lv_draw_basic.c ****     /*Move on the map too*/
 332:..\..\..\lvgl\version_6.1.2\lvgl\src\lv_draw/lv_draw_basic.c ****     uint32_t bit_ofs = (row_start * width_bit) + (col_start * g.bpp);
 333:..\..\..\lvgl\version_6.1.2\lvgl\src\lv_draw/lv_draw_basic.c ****     map_p += bit_ofs >> 3;
 334:..\..\..\lvgl\version_6.1.2\lvgl\src\lv_draw/lv_draw_basic.c **** 
 335:..\..\..\lvgl\version_6.1.2\lvgl\src\lv_draw/lv_draw_basic.c ****     uint8_t letter_px;
 336:..\..\..\lvgl\version_6.1.2\lvgl\src\lv_draw/lv_draw_basic.c ****     lv_opa_t px_opa = 0;
 337:..\..\..\lvgl\version_6.1.2\lvgl\src\lv_draw/lv_draw_basic.c ****     uint16_t col_bit;
 338:..\..\..\lvgl\version_6.1.2\lvgl\src\lv_draw/lv_draw_basic.c ****     col_bit = bit_ofs & 0x7; /* "& 0x7" equals to "% 8" just faster */
 339:..\..\..\lvgl\version_6.1.2\lvgl\src\lv_draw/lv_draw_basic.c **** 
 340:..\..\..\lvgl\version_6.1.2\lvgl\src\lv_draw/lv_draw_basic.c ****     bool scr_transp = false;
 341:..\..\..\lvgl\version_6.1.2\lvgl\src\lv_draw/lv_draw_basic.c **** #if LV_COLOR_DEPTH == 32 && LV_COLOR_SCREEN_TRANSP
 342:..\..\..\lvgl\version_6.1.2\lvgl\src\lv_draw/lv_draw_basic.c ****     scr_transp = disp->driver.screen_transp;
 343:..\..\..\lvgl\version_6.1.2\lvgl\src\lv_draw/lv_draw_basic.c **** #endif
 344:..\..\..\lvgl\version_6.1.2\lvgl\src\lv_draw/lv_draw_basic.c **** 
 345:..\..\..\lvgl\version_6.1.2\lvgl\src\lv_draw/lv_draw_basic.c ****     uint8_t font_rgb[3];
 346:..\..\..\lvgl\version_6.1.2\lvgl\src\lv_draw/lv_draw_basic.c ****     uint8_t txt_rgb[3] = {LV_COLOR_GET_R(color), LV_COLOR_GET_G(color), LV_COLOR_GET_B(color)};
 347:..\..\..\lvgl\version_6.1.2\lvgl\src\lv_draw/lv_draw_basic.c **** 
 348:..\..\..\lvgl\version_6.1.2\lvgl\src\lv_draw/lv_draw_basic.c ****     for(row = row_start; row < row_end; row++) {
 349:..\..\..\lvgl\version_6.1.2\lvgl\src\lv_draw/lv_draw_basic.c ****         bitmask = bitmask_init >> col_bit;
 350:..\..\..\lvgl\version_6.1.2\lvgl\src\lv_draw/lv_draw_basic.c ****         uint8_t sub_px_cnt = 0;
 351:..\..\..\lvgl\version_6.1.2\lvgl\src\lv_draw/lv_draw_basic.c ****         for(col = col_start; col < col_end; col++) {
 352:..\..\..\lvgl\version_6.1.2\lvgl\src\lv_draw/lv_draw_basic.c ****             letter_px = (*map_p & bitmask) >> (8 - col_bit - g.bpp);
 353:..\..\..\lvgl\version_6.1.2\lvgl\src\lv_draw/lv_draw_basic.c **** 
 354:..\..\..\lvgl\version_6.1.2\lvgl\src\lv_draw/lv_draw_basic.c ****             /*subpx == 0*/
 355:..\..\..\lvgl\version_6.1.2\lvgl\src\lv_draw/lv_draw_basic.c ****             if(subpx == false) {
 356:..\..\..\lvgl\version_6.1.2\lvgl\src\lv_draw/lv_draw_basic.c ****                 if(letter_px != 0) {
 357:..\..\..\lvgl\version_6.1.2\lvgl\src\lv_draw/lv_draw_basic.c ****                     if(opa == LV_OPA_COVER) {
 358:..\..\..\lvgl\version_6.1.2\lvgl\src\lv_draw/lv_draw_basic.c ****                         px_opa = g.bpp == 8 ? letter_px : bpp_opa_table[letter_px];
 359:..\..\..\lvgl\version_6.1.2\lvgl\src\lv_draw/lv_draw_basic.c ****                     } else {
 360:..\..\..\lvgl\version_6.1.2\lvgl\src\lv_draw/lv_draw_basic.c ****                         px_opa = g.bpp == 8 ? (uint16_t)((uint16_t)letter_px * opa) >> 8
 361:..\..\..\lvgl\version_6.1.2\lvgl\src\lv_draw/lv_draw_basic.c ****                                 : (uint16_t)((uint16_t)bpp_opa_table[letter_px] * opa) >> 8;
 362:..\..\..\lvgl\version_6.1.2\lvgl\src\lv_draw/lv_draw_basic.c ****                     }
 363:..\..\..\lvgl\version_6.1.2\lvgl\src\lv_draw/lv_draw_basic.c **** 
 364:..\..\..\lvgl\version_6.1.2\lvgl\src\lv_draw/lv_draw_basic.c ****                     if(disp->driver.set_px_cb) {
ARM GAS  C:\Users\pearlstl\AppData\Local\Temp\ccmYHcOW.s 			page 24


 365:..\..\..\lvgl\version_6.1.2\lvgl\src\lv_draw/lv_draw_basic.c ****                         disp->driver.set_px_cb(&disp->driver, (uint8_t *)vdb->buf_act, vdb_width,
 366:..\..\..\lvgl\version_6.1.2\lvgl\src\lv_draw/lv_draw_basic.c ****                                 (col + pos_x) - vdb->area.x1, (row + pos_y) - vdb->area.y1, color, 
 367:..\..\..\lvgl\version_6.1.2\lvgl\src\lv_draw/lv_draw_basic.c ****                     } else if(vdb_buf_tmp->full != color.full) {
 368:..\..\..\lvgl\version_6.1.2\lvgl\src\lv_draw/lv_draw_basic.c ****                         if(px_opa > LV_OPA_MAX) {
 369:..\..\..\lvgl\version_6.1.2\lvgl\src\lv_draw/lv_draw_basic.c ****                             *vdb_buf_tmp = color;
 370:..\..\..\lvgl\version_6.1.2\lvgl\src\lv_draw/lv_draw_basic.c ****                         } else if(px_opa > LV_OPA_MIN) {
 371:..\..\..\lvgl\version_6.1.2\lvgl\src\lv_draw/lv_draw_basic.c ****                             if(scr_transp == false) {
 372:..\..\..\lvgl\version_6.1.2\lvgl\src\lv_draw/lv_draw_basic.c ****                                 *vdb_buf_tmp = lv_color_mix(color, *vdb_buf_tmp, px_opa);
 373:..\..\..\lvgl\version_6.1.2\lvgl\src\lv_draw/lv_draw_basic.c ****                             } else {
 374:..\..\..\lvgl\version_6.1.2\lvgl\src\lv_draw/lv_draw_basic.c **** #if LV_COLOR_DEPTH == 32 && LV_COLOR_SCREEN_TRANSP
 375:..\..\..\lvgl\version_6.1.2\lvgl\src\lv_draw/lv_draw_basic.c ****         *vdb_buf_tmp = color_mix_2_alpha(*vdb_buf_tmp, (*vdb_buf_tmp).ch.alpha, color, px_opa);
 376:..\..\..\lvgl\version_6.1.2\lvgl\src\lv_draw/lv_draw_basic.c **** #endif
 377:..\..\..\lvgl\version_6.1.2\lvgl\src\lv_draw/lv_draw_basic.c ****                             }
 378:..\..\..\lvgl\version_6.1.2\lvgl\src\lv_draw/lv_draw_basic.c ****                         }
 379:..\..\..\lvgl\version_6.1.2\lvgl\src\lv_draw/lv_draw_basic.c ****                     }
 380:..\..\..\lvgl\version_6.1.2\lvgl\src\lv_draw/lv_draw_basic.c ****                 }
 381:..\..\..\lvgl\version_6.1.2\lvgl\src\lv_draw/lv_draw_basic.c ****                 vdb_buf_tmp++;
 382:..\..\..\lvgl\version_6.1.2\lvgl\src\lv_draw/lv_draw_basic.c ****             }
 383:..\..\..\lvgl\version_6.1.2\lvgl\src\lv_draw/lv_draw_basic.c ****             /*Handle subpx drawing*/
 384:..\..\..\lvgl\version_6.1.2\lvgl\src\lv_draw/lv_draw_basic.c ****             else {
 385:..\..\..\lvgl\version_6.1.2\lvgl\src\lv_draw/lv_draw_basic.c ****                 if(letter_px != 0) {
 386:..\..\..\lvgl\version_6.1.2\lvgl\src\lv_draw/lv_draw_basic.c ****                     if(opa == LV_OPA_COVER) {
 387:..\..\..\lvgl\version_6.1.2\lvgl\src\lv_draw/lv_draw_basic.c ****                         px_opa = g.bpp == 8 ? letter_px : bpp_opa_table[letter_px];
 388:..\..\..\lvgl\version_6.1.2\lvgl\src\lv_draw/lv_draw_basic.c ****                     } else {
 389:..\..\..\lvgl\version_6.1.2\lvgl\src\lv_draw/lv_draw_basic.c ****                         px_opa = g.bpp == 8 ? (uint16_t)((uint16_t)letter_px * opa) >> 8
 390:..\..\..\lvgl\version_6.1.2\lvgl\src\lv_draw/lv_draw_basic.c ****                                 : (uint16_t)((uint16_t)bpp_opa_table[letter_px] * opa) >> 8;
 391:..\..\..\lvgl\version_6.1.2\lvgl\src\lv_draw/lv_draw_basic.c ****                     }
 392:..\..\..\lvgl\version_6.1.2\lvgl\src\lv_draw/lv_draw_basic.c **** 
 393:..\..\..\lvgl\version_6.1.2\lvgl\src\lv_draw/lv_draw_basic.c ****                     font_rgb[sub_px_cnt] = px_opa;
 394:..\..\..\lvgl\version_6.1.2\lvgl\src\lv_draw/lv_draw_basic.c ****                 } else {
 395:..\..\..\lvgl\version_6.1.2\lvgl\src\lv_draw/lv_draw_basic.c ****                     font_rgb[sub_px_cnt] = 0;
 396:..\..\..\lvgl\version_6.1.2\lvgl\src\lv_draw/lv_draw_basic.c ****                 }
 397:..\..\..\lvgl\version_6.1.2\lvgl\src\lv_draw/lv_draw_basic.c ****                 sub_px_cnt ++;
 398:..\..\..\lvgl\version_6.1.2\lvgl\src\lv_draw/lv_draw_basic.c **** 
 399:..\..\..\lvgl\version_6.1.2\lvgl\src\lv_draw/lv_draw_basic.c ****                 if(sub_px_cnt == 3) {
 400:..\..\..\lvgl\version_6.1.2\lvgl\src\lv_draw/lv_draw_basic.c ****                     lv_color_t res_color;
 401:..\..\..\lvgl\version_6.1.2\lvgl\src\lv_draw/lv_draw_basic.c **** 
 402:..\..\..\lvgl\version_6.1.2\lvgl\src\lv_draw/lv_draw_basic.c ****                     if(font_rgb[0] == 0 && font_rgb[1] == 0 && font_rgb[2] == 0) {
 403:..\..\..\lvgl\version_6.1.2\lvgl\src\lv_draw/lv_draw_basic.c ****                         res_color = *vdb_buf_tmp;
 404:..\..\..\lvgl\version_6.1.2\lvgl\src\lv_draw/lv_draw_basic.c ****                     } else {
 405:..\..\..\lvgl\version_6.1.2\lvgl\src\lv_draw/lv_draw_basic.c **** 
 406:..\..\..\lvgl\version_6.1.2\lvgl\src\lv_draw/lv_draw_basic.c ****                         uint8_t bg_rgb[3] = {LV_COLOR_GET_R(*vdb_buf_tmp), LV_COLOR_GET_G(*vdb_buf_
 407:..\..\..\lvgl\version_6.1.2\lvgl\src\lv_draw/lv_draw_basic.c **** 
 408:..\..\..\lvgl\version_6.1.2\lvgl\src\lv_draw/lv_draw_basic.c **** #if LV_FONT_SUBPX_BGR
 409:..\..\..\lvgl\version_6.1.2\lvgl\src\lv_draw/lv_draw_basic.c ****                         LV_COLOR_SET_B(res_color, (uint16_t)((uint16_t)txt_rgb[0] * font_rgb[0] + (
 410:..\..\..\lvgl\version_6.1.2\lvgl\src\lv_draw/lv_draw_basic.c ****                         LV_COLOR_SET_R(res_color, (uint16_t)((uint16_t)txt_rgb[2] * font_rgb[2] + (
 411:..\..\..\lvgl\version_6.1.2\lvgl\src\lv_draw/lv_draw_basic.c **** #else
 412:..\..\..\lvgl\version_6.1.2\lvgl\src\lv_draw/lv_draw_basic.c ****                         LV_COLOR_SET_R(res_color, (uint16_t)((uint16_t)txt_rgb[0] * font_rgb[0] + (
 413:..\..\..\lvgl\version_6.1.2\lvgl\src\lv_draw/lv_draw_basic.c ****                         LV_COLOR_SET_B(res_color, (uint16_t)((uint16_t)txt_rgb[2] * font_rgb[2] + (
 414:..\..\..\lvgl\version_6.1.2\lvgl\src\lv_draw/lv_draw_basic.c **** #endif
 415:..\..\..\lvgl\version_6.1.2\lvgl\src\lv_draw/lv_draw_basic.c ****                         LV_COLOR_SET_G(res_color, (uint16_t)((uint16_t)txt_rgb[1] * font_rgb[1] + (
 416:..\..\..\lvgl\version_6.1.2\lvgl\src\lv_draw/lv_draw_basic.c ****                     }
 417:..\..\..\lvgl\version_6.1.2\lvgl\src\lv_draw/lv_draw_basic.c ****                     if(scr_transp == false) {
 418:..\..\..\lvgl\version_6.1.2\lvgl\src\lv_draw/lv_draw_basic.c ****                         vdb_buf_tmp->full = res_color.full;
 419:..\..\..\lvgl\version_6.1.2\lvgl\src\lv_draw/lv_draw_basic.c **** #if LV_COLOR_DEPTH == 32 && LV_COLOR_SCREEN_TRANSP
 420:..\..\..\lvgl\version_6.1.2\lvgl\src\lv_draw/lv_draw_basic.c ****                     } else {
 421:..\..\..\lvgl\version_6.1.2\lvgl\src\lv_draw/lv_draw_basic.c ****                         *vdb_buf_tmp = color_mix_2_alpha(*vdb_buf_tmp, (*vdb_buf_tmp).ch.alpha, col
ARM GAS  C:\Users\pearlstl\AppData\Local\Temp\ccmYHcOW.s 			page 25


 422:..\..\..\lvgl\version_6.1.2\lvgl\src\lv_draw/lv_draw_basic.c **** #endif
 423:..\..\..\lvgl\version_6.1.2\lvgl\src\lv_draw/lv_draw_basic.c ****                     }
 424:..\..\..\lvgl\version_6.1.2\lvgl\src\lv_draw/lv_draw_basic.c ****                     sub_px_cnt = 0;
 425:..\..\..\lvgl\version_6.1.2\lvgl\src\lv_draw/lv_draw_basic.c ****                     vdb_buf_tmp++;
 426:..\..\..\lvgl\version_6.1.2\lvgl\src\lv_draw/lv_draw_basic.c ****                 }
 427:..\..\..\lvgl\version_6.1.2\lvgl\src\lv_draw/lv_draw_basic.c ****             }
 428:..\..\..\lvgl\version_6.1.2\lvgl\src\lv_draw/lv_draw_basic.c **** 
 429:..\..\..\lvgl\version_6.1.2\lvgl\src\lv_draw/lv_draw_basic.c **** 
 430:..\..\..\lvgl\version_6.1.2\lvgl\src\lv_draw/lv_draw_basic.c ****             if(col_bit < 8 - g.bpp) {
 431:..\..\..\lvgl\version_6.1.2\lvgl\src\lv_draw/lv_draw_basic.c ****                 col_bit += g.bpp;
 432:..\..\..\lvgl\version_6.1.2\lvgl\src\lv_draw/lv_draw_basic.c ****                 bitmask = bitmask >> g.bpp;
 433:..\..\..\lvgl\version_6.1.2\lvgl\src\lv_draw/lv_draw_basic.c ****             } else {
 434:..\..\..\lvgl\version_6.1.2\lvgl\src\lv_draw/lv_draw_basic.c ****                 col_bit = 0;
 435:..\..\..\lvgl\version_6.1.2\lvgl\src\lv_draw/lv_draw_basic.c ****                 bitmask = bitmask_init;
 436:..\..\..\lvgl\version_6.1.2\lvgl\src\lv_draw/lv_draw_basic.c ****                 map_p++;
 437:..\..\..\lvgl\version_6.1.2\lvgl\src\lv_draw/lv_draw_basic.c ****             }
 438:..\..\..\lvgl\version_6.1.2\lvgl\src\lv_draw/lv_draw_basic.c ****         }
 439:..\..\..\lvgl\version_6.1.2\lvgl\src\lv_draw/lv_draw_basic.c **** 
 440:..\..\..\lvgl\version_6.1.2\lvgl\src\lv_draw/lv_draw_basic.c ****         col_bit += ((g.box_w - col_end) + col_start) * g.bpp;
 441:..\..\..\lvgl\version_6.1.2\lvgl\src\lv_draw/lv_draw_basic.c **** 
 442:..\..\..\lvgl\version_6.1.2\lvgl\src\lv_draw/lv_draw_basic.c ****         map_p += (col_bit >> 3);
 443:..\..\..\lvgl\version_6.1.2\lvgl\src\lv_draw/lv_draw_basic.c ****         col_bit = col_bit & 0x7;
 444:..\..\..\lvgl\version_6.1.2\lvgl\src\lv_draw/lv_draw_basic.c **** 
 445:..\..\..\lvgl\version_6.1.2\lvgl\src\lv_draw/lv_draw_basic.c ****         /*Next row in VDB*/
 446:..\..\..\lvgl\version_6.1.2\lvgl\src\lv_draw/lv_draw_basic.c ****         if(subpx) vdb_buf_tmp += vdb_width - (col_end - col_start) / 3;
 447:..\..\..\lvgl\version_6.1.2\lvgl\src\lv_draw/lv_draw_basic.c ****         else vdb_buf_tmp += vdb_width - (col_end - col_start);
 448:..\..\..\lvgl\version_6.1.2\lvgl\src\lv_draw/lv_draw_basic.c ****     }
 449:..\..\..\lvgl\version_6.1.2\lvgl\src\lv_draw/lv_draw_basic.c **** }
 450:..\..\..\lvgl\version_6.1.2\lvgl\src\lv_draw/lv_draw_basic.c **** 
 451:..\..\..\lvgl\version_6.1.2\lvgl\src\lv_draw/lv_draw_basic.c **** /**
 452:..\..\..\lvgl\version_6.1.2\lvgl\src\lv_draw/lv_draw_basic.c ****  * Draw a color map to the display (image)
 453:..\..\..\lvgl\version_6.1.2\lvgl\src\lv_draw/lv_draw_basic.c ****  * @param cords_p coordinates the color map
 454:..\..\..\lvgl\version_6.1.2\lvgl\src\lv_draw/lv_draw_basic.c ****  * @param mask_p the map will drawn only on this area  (truncated to VDB area)
 455:..\..\..\lvgl\version_6.1.2\lvgl\src\lv_draw/lv_draw_basic.c ****  * @param map_p pointer to a lv_color_t array
 456:..\..\..\lvgl\version_6.1.2\lvgl\src\lv_draw/lv_draw_basic.c ****  * @param opa opacity of the map
 457:..\..\..\lvgl\version_6.1.2\lvgl\src\lv_draw/lv_draw_basic.c ****  * @param chroma_keyed true: enable transparency of LV_IMG_LV_COLOR_TRANSP color pixels
 458:..\..\..\lvgl\version_6.1.2\lvgl\src\lv_draw/lv_draw_basic.c ****  * @param alpha_byte true: extra alpha byte is inserted for every pixel
 459:..\..\..\lvgl\version_6.1.2\lvgl\src\lv_draw/lv_draw_basic.c ****  * @param recolor mix the pixels with this color
 460:..\..\..\lvgl\version_6.1.2\lvgl\src\lv_draw/lv_draw_basic.c ****  * @param recolor_opa the intense of recoloring
 461:..\..\..\lvgl\version_6.1.2\lvgl\src\lv_draw/lv_draw_basic.c ****  */
 462:..\..\..\lvgl\version_6.1.2\lvgl\src\lv_draw/lv_draw_basic.c **** void lv_draw_map(const lv_area_t * cords_p, const lv_area_t * mask_p, const uint8_t * map_p, lv_opa
 463:..\..\..\lvgl\version_6.1.2\lvgl\src\lv_draw/lv_draw_basic.c ****                  bool chroma_key, bool alpha_byte, lv_color_t recolor, lv_opa_t recolor_opa)
 464:..\..\..\lvgl\version_6.1.2\lvgl\src\lv_draw/lv_draw_basic.c **** {
 465:..\..\..\lvgl\version_6.1.2\lvgl\src\lv_draw/lv_draw_basic.c **** 
 466:..\..\..\lvgl\version_6.1.2\lvgl\src\lv_draw/lv_draw_basic.c ****     if(opa < LV_OPA_MIN) return;
 467:..\..\..\lvgl\version_6.1.2\lvgl\src\lv_draw/lv_draw_basic.c ****     if(opa > LV_OPA_MAX) opa = LV_OPA_COVER;
 468:..\..\..\lvgl\version_6.1.2\lvgl\src\lv_draw/lv_draw_basic.c **** 
 469:..\..\..\lvgl\version_6.1.2\lvgl\src\lv_draw/lv_draw_basic.c ****     lv_area_t masked_a;
 470:..\..\..\lvgl\version_6.1.2\lvgl\src\lv_draw/lv_draw_basic.c ****     bool union_ok;
 471:..\..\..\lvgl\version_6.1.2\lvgl\src\lv_draw/lv_draw_basic.c **** 
 472:..\..\..\lvgl\version_6.1.2\lvgl\src\lv_draw/lv_draw_basic.c ****     /*Get the union of map size and mask*/
 473:..\..\..\lvgl\version_6.1.2\lvgl\src\lv_draw/lv_draw_basic.c ****     /* The mask is already truncated to the vdb size
 474:..\..\..\lvgl\version_6.1.2\lvgl\src\lv_draw/lv_draw_basic.c ****      * in 'lv_refr_area_with_vdb' function */
 475:..\..\..\lvgl\version_6.1.2\lvgl\src\lv_draw/lv_draw_basic.c ****     union_ok = lv_area_intersect(&masked_a, cords_p, mask_p);
 476:..\..\..\lvgl\version_6.1.2\lvgl\src\lv_draw/lv_draw_basic.c **** 
 477:..\..\..\lvgl\version_6.1.2\lvgl\src\lv_draw/lv_draw_basic.c ****     /*If there are common part of the three area then draw to the vdb*/
 478:..\..\..\lvgl\version_6.1.2\lvgl\src\lv_draw/lv_draw_basic.c ****     if(union_ok == false) return;
ARM GAS  C:\Users\pearlstl\AppData\Local\Temp\ccmYHcOW.s 			page 26


 479:..\..\..\lvgl\version_6.1.2\lvgl\src\lv_draw/lv_draw_basic.c **** 
 480:..\..\..\lvgl\version_6.1.2\lvgl\src\lv_draw/lv_draw_basic.c ****     /*The pixel size in byte is different if an alpha byte is added too*/
 481:..\..\..\lvgl\version_6.1.2\lvgl\src\lv_draw/lv_draw_basic.c ****     uint8_t px_size_byte = alpha_byte ? LV_IMG_PX_SIZE_ALPHA_BYTE : sizeof(lv_color_t);
 482:..\..\..\lvgl\version_6.1.2\lvgl\src\lv_draw/lv_draw_basic.c **** 
 483:..\..\..\lvgl\version_6.1.2\lvgl\src\lv_draw/lv_draw_basic.c ****     /*If the map starts OUT of the masked area then calc. the first pixel*/
 484:..\..\..\lvgl\version_6.1.2\lvgl\src\lv_draw/lv_draw_basic.c ****     lv_coord_t map_width = lv_area_get_width(cords_p);
 485:..\..\..\lvgl\version_6.1.2\lvgl\src\lv_draw/lv_draw_basic.c ****     if(cords_p->y1 < masked_a.y1) {
 486:..\..\..\lvgl\version_6.1.2\lvgl\src\lv_draw/lv_draw_basic.c ****         map_p += (uint32_t)map_width * ((masked_a.y1 - cords_p->y1)) * px_size_byte;
 487:..\..\..\lvgl\version_6.1.2\lvgl\src\lv_draw/lv_draw_basic.c ****     }
 488:..\..\..\lvgl\version_6.1.2\lvgl\src\lv_draw/lv_draw_basic.c ****     if(cords_p->x1 < masked_a.x1) {
 489:..\..\..\lvgl\version_6.1.2\lvgl\src\lv_draw/lv_draw_basic.c ****         map_p += (masked_a.x1 - cords_p->x1) * px_size_byte;
 490:..\..\..\lvgl\version_6.1.2\lvgl\src\lv_draw/lv_draw_basic.c ****     }
 491:..\..\..\lvgl\version_6.1.2\lvgl\src\lv_draw/lv_draw_basic.c **** 
 492:..\..\..\lvgl\version_6.1.2\lvgl\src\lv_draw/lv_draw_basic.c ****     lv_disp_t * disp    = lv_refr_get_disp_refreshing();
 493:..\..\..\lvgl\version_6.1.2\lvgl\src\lv_draw/lv_draw_basic.c ****     lv_disp_buf_t * vdb = lv_disp_get_buf(disp);
 494:..\..\..\lvgl\version_6.1.2\lvgl\src\lv_draw/lv_draw_basic.c **** 
 495:..\..\..\lvgl\version_6.1.2\lvgl\src\lv_draw/lv_draw_basic.c ****     /*Stores coordinates relative to the current VDB*/
 496:..\..\..\lvgl\version_6.1.2\lvgl\src\lv_draw/lv_draw_basic.c ****     masked_a.x1 = masked_a.x1 - vdb->area.x1;
 497:..\..\..\lvgl\version_6.1.2\lvgl\src\lv_draw/lv_draw_basic.c ****     masked_a.y1 = masked_a.y1 - vdb->area.y1;
 498:..\..\..\lvgl\version_6.1.2\lvgl\src\lv_draw/lv_draw_basic.c ****     masked_a.x2 = masked_a.x2 - vdb->area.x1;
 499:..\..\..\lvgl\version_6.1.2\lvgl\src\lv_draw/lv_draw_basic.c ****     masked_a.y2 = masked_a.y2 - vdb->area.y1;
 500:..\..\..\lvgl\version_6.1.2\lvgl\src\lv_draw/lv_draw_basic.c **** 
 501:..\..\..\lvgl\version_6.1.2\lvgl\src\lv_draw/lv_draw_basic.c ****     lv_coord_t vdb_width     = lv_area_get_width(&vdb->area);
 502:..\..\..\lvgl\version_6.1.2\lvgl\src\lv_draw/lv_draw_basic.c ****     lv_color_t * vdb_buf_tmp = vdb->buf_act;
 503:..\..\..\lvgl\version_6.1.2\lvgl\src\lv_draw/lv_draw_basic.c ****     vdb_buf_tmp += (uint32_t)vdb_width * masked_a.y1; /*Move to the first row*/
 504:..\..\..\lvgl\version_6.1.2\lvgl\src\lv_draw/lv_draw_basic.c ****     vdb_buf_tmp += (uint32_t)masked_a.x1;             /*Move to the first col*/
 505:..\..\..\lvgl\version_6.1.2\lvgl\src\lv_draw/lv_draw_basic.c **** 
 506:..\..\..\lvgl\version_6.1.2\lvgl\src\lv_draw/lv_draw_basic.c ****     lv_coord_t row;
 507:..\..\..\lvgl\version_6.1.2\lvgl\src\lv_draw/lv_draw_basic.c ****     lv_coord_t map_useful_w = lv_area_get_width(&masked_a);
 508:..\..\..\lvgl\version_6.1.2\lvgl\src\lv_draw/lv_draw_basic.c **** 
 509:..\..\..\lvgl\version_6.1.2\lvgl\src\lv_draw/lv_draw_basic.c ****     bool scr_transp = false;
 510:..\..\..\lvgl\version_6.1.2\lvgl\src\lv_draw/lv_draw_basic.c **** #if LV_COLOR_DEPTH == 32 && LV_COLOR_SCREEN_TRANSP
 511:..\..\..\lvgl\version_6.1.2\lvgl\src\lv_draw/lv_draw_basic.c ****     scr_transp = disp->driver.screen_transp;
 512:..\..\..\lvgl\version_6.1.2\lvgl\src\lv_draw/lv_draw_basic.c **** #endif
 513:..\..\..\lvgl\version_6.1.2\lvgl\src\lv_draw/lv_draw_basic.c **** 
 514:..\..\..\lvgl\version_6.1.2\lvgl\src\lv_draw/lv_draw_basic.c ****     /*The simplest case just copy the pixels into the VDB*/
 515:..\..\..\lvgl\version_6.1.2\lvgl\src\lv_draw/lv_draw_basic.c ****     if(chroma_key == false && alpha_byte == false && opa == LV_OPA_COVER && recolor_opa == LV_OPA_T
 516:..\..\..\lvgl\version_6.1.2\lvgl\src\lv_draw/lv_draw_basic.c **** 
 517:..\..\..\lvgl\version_6.1.2\lvgl\src\lv_draw/lv_draw_basic.c ****         /*Use the custom VDB write function is exists*/
 518:..\..\..\lvgl\version_6.1.2\lvgl\src\lv_draw/lv_draw_basic.c ****         if(disp->driver.set_px_cb) {
 519:..\..\..\lvgl\version_6.1.2\lvgl\src\lv_draw/lv_draw_basic.c ****             lv_coord_t col;
 520:..\..\..\lvgl\version_6.1.2\lvgl\src\lv_draw/lv_draw_basic.c ****             for(row = masked_a.y1; row <= masked_a.y2; row++) {
 521:..\..\..\lvgl\version_6.1.2\lvgl\src\lv_draw/lv_draw_basic.c ****                 for(col = 0; col < map_useful_w; col++) {
 522:..\..\..\lvgl\version_6.1.2\lvgl\src\lv_draw/lv_draw_basic.c ****                     lv_color_t px_color = *((lv_color_t *)&map_p[(uint32_t)col * px_size_byte]);
 523:..\..\..\lvgl\version_6.1.2\lvgl\src\lv_draw/lv_draw_basic.c ****                     disp->driver.set_px_cb(&disp->driver, (uint8_t *)vdb->buf_act, vdb_width, col +
 524:..\..\..\lvgl\version_6.1.2\lvgl\src\lv_draw/lv_draw_basic.c ****                                            px_color, opa);
 525:..\..\..\lvgl\version_6.1.2\lvgl\src\lv_draw/lv_draw_basic.c ****                 }
 526:..\..\..\lvgl\version_6.1.2\lvgl\src\lv_draw/lv_draw_basic.c ****                 map_p += map_width * px_size_byte; /*Next row on the map*/
 527:..\..\..\lvgl\version_6.1.2\lvgl\src\lv_draw/lv_draw_basic.c ****             }
 528:..\..\..\lvgl\version_6.1.2\lvgl\src\lv_draw/lv_draw_basic.c ****         }
 529:..\..\..\lvgl\version_6.1.2\lvgl\src\lv_draw/lv_draw_basic.c ****         /*Normal native VDB*/
 530:..\..\..\lvgl\version_6.1.2\lvgl\src\lv_draw/lv_draw_basic.c ****         else {
 531:..\..\..\lvgl\version_6.1.2\lvgl\src\lv_draw/lv_draw_basic.c ****             for(row = masked_a.y1; row <= masked_a.y2; row++) {
 532:..\..\..\lvgl\version_6.1.2\lvgl\src\lv_draw/lv_draw_basic.c **** #if LV_USE_GPU
 533:..\..\..\lvgl\version_6.1.2\lvgl\src\lv_draw/lv_draw_basic.c ****                 if(disp->driver.gpu_blend_cb == false) {
 534:..\..\..\lvgl\version_6.1.2\lvgl\src\lv_draw/lv_draw_basic.c ****                     sw_mem_blend(vdb_buf_tmp, (lv_color_t *)map_p, map_useful_w, opa);
 535:..\..\..\lvgl\version_6.1.2\lvgl\src\lv_draw/lv_draw_basic.c ****                 } else {
ARM GAS  C:\Users\pearlstl\AppData\Local\Temp\ccmYHcOW.s 			page 27


 536:..\..\..\lvgl\version_6.1.2\lvgl\src\lv_draw/lv_draw_basic.c ****                     disp->driver.gpu_blend_cb(&disp->driver, vdb_buf_tmp, (lv_color_t *)map_p, map_
 537:..\..\..\lvgl\version_6.1.2\lvgl\src\lv_draw/lv_draw_basic.c ****                 }
 538:..\..\..\lvgl\version_6.1.2\lvgl\src\lv_draw/lv_draw_basic.c **** #else
 539:..\..\..\lvgl\version_6.1.2\lvgl\src\lv_draw/lv_draw_basic.c ****                 sw_mem_blend(vdb_buf_tmp, (lv_color_t *)map_p, map_useful_w, opa);
 540:..\..\..\lvgl\version_6.1.2\lvgl\src\lv_draw/lv_draw_basic.c **** #endif
 541:..\..\..\lvgl\version_6.1.2\lvgl\src\lv_draw/lv_draw_basic.c ****                 map_p += map_width * px_size_byte; /*Next row on the map*/
 542:..\..\..\lvgl\version_6.1.2\lvgl\src\lv_draw/lv_draw_basic.c ****                 vdb_buf_tmp += vdb_width;          /*Next row on the VDB*/
 543:..\..\..\lvgl\version_6.1.2\lvgl\src\lv_draw/lv_draw_basic.c ****             }
 544:..\..\..\lvgl\version_6.1.2\lvgl\src\lv_draw/lv_draw_basic.c ****         }
 545:..\..\..\lvgl\version_6.1.2\lvgl\src\lv_draw/lv_draw_basic.c ****     }
 546:..\..\..\lvgl\version_6.1.2\lvgl\src\lv_draw/lv_draw_basic.c **** 
 547:..\..\..\lvgl\version_6.1.2\lvgl\src\lv_draw/lv_draw_basic.c ****     /*In the other cases every pixel need to be checked one-by-one*/
 548:..\..\..\lvgl\version_6.1.2\lvgl\src\lv_draw/lv_draw_basic.c ****     else {
 549:..\..\..\lvgl\version_6.1.2\lvgl\src\lv_draw/lv_draw_basic.c **** 
 550:..\..\..\lvgl\version_6.1.2\lvgl\src\lv_draw/lv_draw_basic.c ****         lv_coord_t col;
 551:..\..\..\lvgl\version_6.1.2\lvgl\src\lv_draw/lv_draw_basic.c ****         lv_color_t last_img_px  = LV_COLOR_BLACK;
 552:..\..\..\lvgl\version_6.1.2\lvgl\src\lv_draw/lv_draw_basic.c ****         lv_color_t recolored_px = lv_color_mix(recolor, last_img_px, recolor_opa);
 553:..\..\..\lvgl\version_6.1.2\lvgl\src\lv_draw/lv_draw_basic.c ****         for(row = masked_a.y1; row <= masked_a.y2; row++) {
 554:..\..\..\lvgl\version_6.1.2\lvgl\src\lv_draw/lv_draw_basic.c ****             for(col = 0; col < map_useful_w; col++) {
 555:..\..\..\lvgl\version_6.1.2\lvgl\src\lv_draw/lv_draw_basic.c ****                 lv_opa_t opa_result  = opa;
 556:..\..\..\lvgl\version_6.1.2\lvgl\src\lv_draw/lv_draw_basic.c ****                 uint8_t * px_color_p = (uint8_t *)&map_p[(uint32_t)col * px_size_byte];
 557:..\..\..\lvgl\version_6.1.2\lvgl\src\lv_draw/lv_draw_basic.c ****                 lv_color_t px_color;
 558:..\..\..\lvgl\version_6.1.2\lvgl\src\lv_draw/lv_draw_basic.c **** 
 559:..\..\..\lvgl\version_6.1.2\lvgl\src\lv_draw/lv_draw_basic.c ****                 /*Calculate with the pixel level alpha*/
 560:..\..\..\lvgl\version_6.1.2\lvgl\src\lv_draw/lv_draw_basic.c ****                 if(alpha_byte) {
 561:..\..\..\lvgl\version_6.1.2\lvgl\src\lv_draw/lv_draw_basic.c **** #if LV_COLOR_DEPTH == 8 || LV_COLOR_DEPTH == 1
 562:..\..\..\lvgl\version_6.1.2\lvgl\src\lv_draw/lv_draw_basic.c ****                     px_color.full = px_color_p[0];
 563:..\..\..\lvgl\version_6.1.2\lvgl\src\lv_draw/lv_draw_basic.c **** #elif LV_COLOR_DEPTH == 16
 564:..\..\..\lvgl\version_6.1.2\lvgl\src\lv_draw/lv_draw_basic.c ****                     /*Because of Alpha byte 16 bit color can start on odd address which can cause
 565:..\..\..\lvgl\version_6.1.2\lvgl\src\lv_draw/lv_draw_basic.c ****                      * crash*/
 566:..\..\..\lvgl\version_6.1.2\lvgl\src\lv_draw/lv_draw_basic.c ****                     px_color.full = px_color_p[0] + (px_color_p[1] << 8);
 567:..\..\..\lvgl\version_6.1.2\lvgl\src\lv_draw/lv_draw_basic.c **** #elif LV_COLOR_DEPTH == 32
 568:..\..\..\lvgl\version_6.1.2\lvgl\src\lv_draw/lv_draw_basic.c ****                     px_color = *((lv_color_t *)px_color_p);
 569:..\..\..\lvgl\version_6.1.2\lvgl\src\lv_draw/lv_draw_basic.c **** #endif
 570:..\..\..\lvgl\version_6.1.2\lvgl\src\lv_draw/lv_draw_basic.c ****                     lv_opa_t px_opa = *(px_color_p + LV_IMG_PX_SIZE_ALPHA_BYTE - 1);
 571:..\..\..\lvgl\version_6.1.2\lvgl\src\lv_draw/lv_draw_basic.c ****                     if(px_opa == LV_OPA_TRANSP)
 572:..\..\..\lvgl\version_6.1.2\lvgl\src\lv_draw/lv_draw_basic.c ****                         continue;
 573:..\..\..\lvgl\version_6.1.2\lvgl\src\lv_draw/lv_draw_basic.c ****                     else if(px_opa != LV_OPA_COVER)
 574:..\..\..\lvgl\version_6.1.2\lvgl\src\lv_draw/lv_draw_basic.c ****                         opa_result = (uint32_t)((uint32_t)px_opa * opa_result) >> 8;
 575:..\..\..\lvgl\version_6.1.2\lvgl\src\lv_draw/lv_draw_basic.c ****                 } else {
 576:..\..\..\lvgl\version_6.1.2\lvgl\src\lv_draw/lv_draw_basic.c ****                     px_color = *((lv_color_t *)px_color_p);
 577:..\..\..\lvgl\version_6.1.2\lvgl\src\lv_draw/lv_draw_basic.c ****                 }
 578:..\..\..\lvgl\version_6.1.2\lvgl\src\lv_draw/lv_draw_basic.c **** 
 579:..\..\..\lvgl\version_6.1.2\lvgl\src\lv_draw/lv_draw_basic.c ****                 /*Handle chroma key*/
 580:..\..\..\lvgl\version_6.1.2\lvgl\src\lv_draw/lv_draw_basic.c ****                 if(chroma_key && px_color.full == disp->driver.color_chroma_key.full) continue;
 581:..\..\..\lvgl\version_6.1.2\lvgl\src\lv_draw/lv_draw_basic.c **** 
 582:..\..\..\lvgl\version_6.1.2\lvgl\src\lv_draw/lv_draw_basic.c ****                 /*Re-color the pixel if required*/
 583:..\..\..\lvgl\version_6.1.2\lvgl\src\lv_draw/lv_draw_basic.c ****                 if(recolor_opa != LV_OPA_TRANSP) {
 584:..\..\..\lvgl\version_6.1.2\lvgl\src\lv_draw/lv_draw_basic.c ****                     if(last_img_px.full != px_color.full) { /*Minor acceleration: calculate only fo
 585:..\..\..\lvgl\version_6.1.2\lvgl\src\lv_draw/lv_draw_basic.c ****                                                                new colors (save the last)*/
 586:..\..\..\lvgl\version_6.1.2\lvgl\src\lv_draw/lv_draw_basic.c ****                         last_img_px  = px_color;
 587:..\..\..\lvgl\version_6.1.2\lvgl\src\lv_draw/lv_draw_basic.c ****                         recolored_px = lv_color_mix(recolor, last_img_px, recolor_opa);
 588:..\..\..\lvgl\version_6.1.2\lvgl\src\lv_draw/lv_draw_basic.c ****                     }
 589:..\..\..\lvgl\version_6.1.2\lvgl\src\lv_draw/lv_draw_basic.c ****                     /*Handle custom VDB write is present*/
 590:..\..\..\lvgl\version_6.1.2\lvgl\src\lv_draw/lv_draw_basic.c ****                     if(disp->driver.set_px_cb) {
 591:..\..\..\lvgl\version_6.1.2\lvgl\src\lv_draw/lv_draw_basic.c ****                         disp->driver.set_px_cb(&disp->driver, (uint8_t *)vdb->buf_act, vdb_width, c
 592:..\..\..\lvgl\version_6.1.2\lvgl\src\lv_draw/lv_draw_basic.c ****                                                row, recolored_px, opa_result);
ARM GAS  C:\Users\pearlstl\AppData\Local\Temp\ccmYHcOW.s 			page 28


 593:..\..\..\lvgl\version_6.1.2\lvgl\src\lv_draw/lv_draw_basic.c ****                     }
 594:..\..\..\lvgl\version_6.1.2\lvgl\src\lv_draw/lv_draw_basic.c ****                     /*Normal native VDB write*/
 595:..\..\..\lvgl\version_6.1.2\lvgl\src\lv_draw/lv_draw_basic.c ****                     else {
 596:..\..\..\lvgl\version_6.1.2\lvgl\src\lv_draw/lv_draw_basic.c ****                         if(opa_result == LV_OPA_COVER)
 597:..\..\..\lvgl\version_6.1.2\lvgl\src\lv_draw/lv_draw_basic.c ****                             vdb_buf_tmp[col].full = recolored_px.full;
 598:..\..\..\lvgl\version_6.1.2\lvgl\src\lv_draw/lv_draw_basic.c ****                         else
 599:..\..\..\lvgl\version_6.1.2\lvgl\src\lv_draw/lv_draw_basic.c ****                             vdb_buf_tmp[col] = lv_color_mix(recolored_px, vdb_buf_tmp[col], opa_res
 600:..\..\..\lvgl\version_6.1.2\lvgl\src\lv_draw/lv_draw_basic.c ****                     }
 601:..\..\..\lvgl\version_6.1.2\lvgl\src\lv_draw/lv_draw_basic.c ****                 } else {
 602:..\..\..\lvgl\version_6.1.2\lvgl\src\lv_draw/lv_draw_basic.c ****                     /*Handle custom VDB write is present*/
 603:..\..\..\lvgl\version_6.1.2\lvgl\src\lv_draw/lv_draw_basic.c ****                     if(disp->driver.set_px_cb) {
 604:..\..\..\lvgl\version_6.1.2\lvgl\src\lv_draw/lv_draw_basic.c ****                         disp->driver.set_px_cb(&disp->driver, (uint8_t *)vdb->buf_act, vdb_width, c
 605:..\..\..\lvgl\version_6.1.2\lvgl\src\lv_draw/lv_draw_basic.c ****                                                row, px_color, opa_result);
 606:..\..\..\lvgl\version_6.1.2\lvgl\src\lv_draw/lv_draw_basic.c ****                     }
 607:..\..\..\lvgl\version_6.1.2\lvgl\src\lv_draw/lv_draw_basic.c ****                     /*Normal native VDB write*/
 608:..\..\..\lvgl\version_6.1.2\lvgl\src\lv_draw/lv_draw_basic.c ****                     else {
 609:..\..\..\lvgl\version_6.1.2\lvgl\src\lv_draw/lv_draw_basic.c **** 
 610:..\..\..\lvgl\version_6.1.2\lvgl\src\lv_draw/lv_draw_basic.c ****                         if(opa_result == LV_OPA_COVER)
 611:..\..\..\lvgl\version_6.1.2\lvgl\src\lv_draw/lv_draw_basic.c ****                             vdb_buf_tmp[col] = px_color;
 612:..\..\..\lvgl\version_6.1.2\lvgl\src\lv_draw/lv_draw_basic.c ****                         else {
 613:..\..\..\lvgl\version_6.1.2\lvgl\src\lv_draw/lv_draw_basic.c ****                             if(scr_transp == false) {
 614:..\..\..\lvgl\version_6.1.2\lvgl\src\lv_draw/lv_draw_basic.c ****                                 vdb_buf_tmp[col] = lv_color_mix(px_color, vdb_buf_tmp[col], opa_res
 615:..\..\..\lvgl\version_6.1.2\lvgl\src\lv_draw/lv_draw_basic.c ****                             } else {
 616:..\..\..\lvgl\version_6.1.2\lvgl\src\lv_draw/lv_draw_basic.c **** #if LV_COLOR_DEPTH == 32 && LV_COLOR_SCREEN_TRANSP
 617:..\..\..\lvgl\version_6.1.2\lvgl\src\lv_draw/lv_draw_basic.c ****                                 vdb_buf_tmp[col] = color_mix_2_alpha(vdb_buf_tmp[col], vdb_buf_tmp[
 618:..\..\..\lvgl\version_6.1.2\lvgl\src\lv_draw/lv_draw_basic.c ****                                                                      px_color, opa_result);
 619:..\..\..\lvgl\version_6.1.2\lvgl\src\lv_draw/lv_draw_basic.c **** #endif
 620:..\..\..\lvgl\version_6.1.2\lvgl\src\lv_draw/lv_draw_basic.c ****                             }
 621:..\..\..\lvgl\version_6.1.2\lvgl\src\lv_draw/lv_draw_basic.c ****                         }
 622:..\..\..\lvgl\version_6.1.2\lvgl\src\lv_draw/lv_draw_basic.c ****                     }
 623:..\..\..\lvgl\version_6.1.2\lvgl\src\lv_draw/lv_draw_basic.c ****                 }
 624:..\..\..\lvgl\version_6.1.2\lvgl\src\lv_draw/lv_draw_basic.c ****             }
 625:..\..\..\lvgl\version_6.1.2\lvgl\src\lv_draw/lv_draw_basic.c **** 
 626:..\..\..\lvgl\version_6.1.2\lvgl\src\lv_draw/lv_draw_basic.c ****             map_p += map_width * px_size_byte; /*Next row on the map*/
 627:..\..\..\lvgl\version_6.1.2\lvgl\src\lv_draw/lv_draw_basic.c ****             vdb_buf_tmp += vdb_width;          /*Next row on the VDB*/
 628:..\..\..\lvgl\version_6.1.2\lvgl\src\lv_draw/lv_draw_basic.c ****         }
 629:..\..\..\lvgl\version_6.1.2\lvgl\src\lv_draw/lv_draw_basic.c ****     }
 630:..\..\..\lvgl\version_6.1.2\lvgl\src\lv_draw/lv_draw_basic.c **** }
 631:..\..\..\lvgl\version_6.1.2\lvgl\src\lv_draw/lv_draw_basic.c **** 
 632:..\..\..\lvgl\version_6.1.2\lvgl\src\lv_draw/lv_draw_basic.c **** /**********************
 633:..\..\..\lvgl\version_6.1.2\lvgl\src\lv_draw/lv_draw_basic.c ****  *   STATIC FUNCTIONS
 634:..\..\..\lvgl\version_6.1.2\lvgl\src\lv_draw/lv_draw_basic.c ****  **********************/
 635:..\..\..\lvgl\version_6.1.2\lvgl\src\lv_draw/lv_draw_basic.c **** 
 636:..\..\..\lvgl\version_6.1.2\lvgl\src\lv_draw/lv_draw_basic.c **** /**
 637:..\..\..\lvgl\version_6.1.2\lvgl\src\lv_draw/lv_draw_basic.c ****  * Blend pixels to destination memory using opacity
 638:..\..\..\lvgl\version_6.1.2\lvgl\src\lv_draw/lv_draw_basic.c ****  * @param dest a memory address. Copy 'src' here.
 639:..\..\..\lvgl\version_6.1.2\lvgl\src\lv_draw/lv_draw_basic.c ****  * @param src pointer to pixel map. Copy it to 'dest'.
 640:..\..\..\lvgl\version_6.1.2\lvgl\src\lv_draw/lv_draw_basic.c ****  * @param length number of pixels in 'src'
 641:..\..\..\lvgl\version_6.1.2\lvgl\src\lv_draw/lv_draw_basic.c ****  * @param opa opacity (0, LV_OPA_TRANSP: transparent ... 255, LV_OPA_COVER, fully cover)
 642:..\..\..\lvgl\version_6.1.2\lvgl\src\lv_draw/lv_draw_basic.c ****  */
 643:..\..\..\lvgl\version_6.1.2\lvgl\src\lv_draw/lv_draw_basic.c **** static void sw_mem_blend(lv_color_t * dest, const lv_color_t * src, uint32_t length, lv_opa_t opa)
 644:..\..\..\lvgl\version_6.1.2\lvgl\src\lv_draw/lv_draw_basic.c **** {
 645:..\..\..\lvgl\version_6.1.2\lvgl\src\lv_draw/lv_draw_basic.c ****     if(opa == LV_OPA_COVER) {
 646:..\..\..\lvgl\version_6.1.2\lvgl\src\lv_draw/lv_draw_basic.c ****         memcpy(dest, src, length * sizeof(lv_color_t));
 647:..\..\..\lvgl\version_6.1.2\lvgl\src\lv_draw/lv_draw_basic.c ****     } else {
 648:..\..\..\lvgl\version_6.1.2\lvgl\src\lv_draw/lv_draw_basic.c ****         uint32_t col;
 649:..\..\..\lvgl\version_6.1.2\lvgl\src\lv_draw/lv_draw_basic.c ****         for(col = 0; col < length; col++) {
ARM GAS  C:\Users\pearlstl\AppData\Local\Temp\ccmYHcOW.s 			page 29


 650:..\..\..\lvgl\version_6.1.2\lvgl\src\lv_draw/lv_draw_basic.c ****             dest[col] = lv_color_mix(src[col], dest[col], opa);
 651:..\..\..\lvgl\version_6.1.2\lvgl\src\lv_draw/lv_draw_basic.c ****         }
 652:..\..\..\lvgl\version_6.1.2\lvgl\src\lv_draw/lv_draw_basic.c ****     }
 653:..\..\..\lvgl\version_6.1.2\lvgl\src\lv_draw/lv_draw_basic.c **** }
 654:..\..\..\lvgl\version_6.1.2\lvgl\src\lv_draw/lv_draw_basic.c **** 
 655:..\..\..\lvgl\version_6.1.2\lvgl\src\lv_draw/lv_draw_basic.c **** /**
 656:..\..\..\lvgl\version_6.1.2\lvgl\src\lv_draw/lv_draw_basic.c ****  * Fill an area with a color
 657:..\..\..\lvgl\version_6.1.2\lvgl\src\lv_draw/lv_draw_basic.c ****  * @param mem a memory address. Considered to a rectangular window according to 'mem_area'
 658:..\..\..\lvgl\version_6.1.2\lvgl\src\lv_draw/lv_draw_basic.c ****  * @param mem_width width of the 'mem' buffer
 659:..\..\..\lvgl\version_6.1.2\lvgl\src\lv_draw/lv_draw_basic.c ****  * @param fill_area coordinates of an area to fill. Relative to 'mem_area'.
 660:..\..\..\lvgl\version_6.1.2\lvgl\src\lv_draw/lv_draw_basic.c ****  * @param color fill color
 661:..\..\..\lvgl\version_6.1.2\lvgl\src\lv_draw/lv_draw_basic.c ****  * @param opa opacity (0, LV_OPA_TRANSP: transparent ... 255, LV_OPA_COVER, fully cover)
 662:..\..\..\lvgl\version_6.1.2\lvgl\src\lv_draw/lv_draw_basic.c ****  */
 663:..\..\..\lvgl\version_6.1.2\lvgl\src\lv_draw/lv_draw_basic.c **** static void sw_color_fill(lv_color_t * mem, lv_coord_t mem_width, const lv_area_t * fill_area, lv_c
 664:..\..\..\lvgl\version_6.1.2\lvgl\src\lv_draw/lv_draw_basic.c ****                           lv_opa_t opa)
 665:..\..\..\lvgl\version_6.1.2\lvgl\src\lv_draw/lv_draw_basic.c **** {
 666:..\..\..\lvgl\version_6.1.2\lvgl\src\lv_draw/lv_draw_basic.c ****     /*Set all row in vdb to the given color*/
 667:..\..\..\lvgl\version_6.1.2\lvgl\src\lv_draw/lv_draw_basic.c ****     lv_coord_t row;
 668:..\..\..\lvgl\version_6.1.2\lvgl\src\lv_draw/lv_draw_basic.c ****     lv_coord_t col;
 669:..\..\..\lvgl\version_6.1.2\lvgl\src\lv_draw/lv_draw_basic.c **** 
 670:..\..\..\lvgl\version_6.1.2\lvgl\src\lv_draw/lv_draw_basic.c ****     lv_disp_t * disp = lv_refr_get_disp_refreshing();
 382              		.loc 1 670 0
 383 0072 FFF7FEFF 		bl	lv_refr_get_disp_refreshing
 384              	.LVL39:
 385              	.LBE80:
 386              	.LBE79:
 146:..\..\..\lvgl\version_6.1.2\lvgl\src\lv_draw/lv_draw_basic.c ****     vdb_rel_a.x2 = res_a.x2 - vdb->area.x1;
 387              		.loc 1 146 0
 388 0076 A4B2     		uxth	r4, r4
 389 0078 22B2     		sxth	r2, r4
 390 007a 0992     		str	r2, [sp, #36]
 391              	.LBB94:
 392              	.LBB93:
 671:..\..\..\lvgl\version_6.1.2\lvgl\src\lv_draw/lv_draw_basic.c ****     if(disp->driver.set_px_cb) {
 393              		.loc 1 671 0
 394 007c 4369     		ldr	r3, [r0, #20]
 395 007e EAB2     		uxtb	r2, r5
 396 0080 0792     		str	r2, [sp, #28]
 397 0082 C5F30722 		ubfx	r2, r5, #8, #8
 670:..\..\..\lvgl\version_6.1.2\lvgl\src\lv_draw/lv_draw_basic.c ****     if(disp->driver.set_px_cb) {
 398              		.loc 1 670 0
 399 0086 0646     		mov	r6, r0
 400              	.LVL40:
 401 0088 0692     		str	r2, [sp, #24]
 402              	.LVL41:
 403 008a C5F3074A 		ubfx	r10, r5, #16, #8
 404              	.LVL42:
 405              		.loc 1 671 0
 406 008e 33B3     		cbz	r3, .L12
 407              	.LVL43:
 672:..\..\..\lvgl\version_6.1.2\lvgl\src\lv_draw/lv_draw_basic.c ****         for(col = fill_area->x1; col <= fill_area->x2; col++) {
 408              		.loc 1 672 0
 409 0090 B945     		cmp	r9, r7
 410 0092 C6DC     		bgt	.L9
 411 0094 CDF82080 		str	r8, [sp, #32]
 412 0098 DDF82C80 		ldr	r8, [sp, #44]
 413              	.LVL44:
ARM GAS  C:\Users\pearlstl\AppData\Local\Temp\ccmYHcOW.s 			page 30


 414              	.L16:
 673:..\..\..\lvgl\version_6.1.2\lvgl\src\lv_draw/lv_draw_basic.c ****             for(row = fill_area->y1; row <= fill_area->y2; row++) {
 415              		.loc 1 673 0
 416 009c 099C     		ldr	r4, [sp, #36]
 417 009e 5C45     		cmp	r4, fp
 418 00a0 15DC     		bgt	.L18
 419              	.LVL45:
 420              	.L15:
 674:..\..\..\lvgl\version_6.1.2\lvgl\src\lv_draw/lv_draw_basic.c ****                 disp->driver.set_px_cb(&disp->driver, (uint8_t *)mem, mem_width, col, row, color, o
 421              		.loc 1 674 0
 422 00a2 079B     		ldr	r3, [sp, #28]
 423 00a4 7769     		ldr	r7, [r6, #20]
 424              	.LVL46:
 425 00a6 0094     		str	r4, [sp]
 426 00a8 63F30705 		bfi	r5, r3, #0, #8
 427              	.LVL47:
 428 00ac 069B     		ldr	r3, [sp, #24]
 429 00ae 059A     		ldr	r2, [sp, #20]
 430 00b0 63F30F25 		bfi	r5, r3, #8, #8
 431 00b4 6AF31745 		bfi	r5, r10, #16, #8
 432 00b8 089B     		ldr	r3, [sp, #32]
 433 00ba 0293     		str	r3, [sp, #8]
 434 00bc 0134     		adds	r4, r4, #1
 435              	.LVL48:
 436 00be 0195     		str	r5, [sp, #4]
 437 00c0 4B46     		mov	r3, r9
 438 00c2 4146     		mov	r1, r8
 439 00c4 3046     		mov	r0, r6
 440 00c6 24B2     		sxth	r4, r4
 441 00c8 B847     		blx	r7
 442              	.LVL49:
 673:..\..\..\lvgl\version_6.1.2\lvgl\src\lv_draw/lv_draw_basic.c ****             for(row = fill_area->y1; row <= fill_area->y2; row++) {
 443              		.loc 1 673 0
 444 00ca A345     		cmp	fp, r4
 445 00cc E9DA     		bge	.L15
 446              	.LVL50:
 447              	.L18:
 448 00ce 09F10109 		add	r9, r9, #1
 449              	.LVL51:
 672:..\..\..\lvgl\version_6.1.2\lvgl\src\lv_draw/lv_draw_basic.c ****         for(col = fill_area->x1; col <= fill_area->x2; col++) {
 450              		.loc 1 672 0
 451 00d2 0A9B     		ldr	r3, [sp, #40]
 452 00d4 0FFA89F9 		sxth	r9, r9
 453              	.LVL52:
 454 00d8 4B45     		cmp	r3, r9
 455 00da DFDA     		bge	.L16
 456 00dc A1E7     		b	.L9
 457              	.LVL53:
 458              	.L12:
 675:..\..\..\lvgl\version_6.1.2\lvgl\src\lv_draw/lv_draw_basic.c ****             }
 676:..\..\..\lvgl\version_6.1.2\lvgl\src\lv_draw/lv_draw_basic.c ****         }
 677:..\..\..\lvgl\version_6.1.2\lvgl\src\lv_draw/lv_draw_basic.c ****     } else {
 678:..\..\..\lvgl\version_6.1.2\lvgl\src\lv_draw/lv_draw_basic.c ****         mem += fill_area->y1 * mem_width; /*Go to the first row*/
 459              		.loc 1 678 0
 460 00de 099B     		ldr	r3, [sp, #36]
 461 00e0 059A     		ldr	r2, [sp, #20]
 462 00e2 03FB02F6 		mul	r6, r3, r2
ARM GAS  C:\Users\pearlstl\AppData\Local\Temp\ccmYHcOW.s 			page 31


 463 00e6 0B9B     		ldr	r3, [sp, #44]
 679:..\..\..\lvgl\version_6.1.2\lvgl\src\lv_draw/lv_draw_basic.c **** 
 680:..\..\..\lvgl\version_6.1.2\lvgl\src\lv_draw/lv_draw_basic.c ****         /*Run simpler function without opacity*/
 681:..\..\..\lvgl\version_6.1.2\lvgl\src\lv_draw/lv_draw_basic.c ****         if(opa == LV_OPA_COVER) {
 464              		.loc 1 681 0
 465 00e8 B8F1FF0F 		cmp	r8, #255
 678:..\..\..\lvgl\version_6.1.2\lvgl\src\lv_draw/lv_draw_basic.c **** 
 466              		.loc 1 678 0
 467 00ec 03EB8606 		add	r6, r3, r6, lsl #2
 468              	.LVL54:
 469              		.loc 1 681 0
 470 00f0 63D0     		beq	.L45
 471              	.LVL55:
 472              	.LBB81:
 473              	.LBB82:
 474              	.LBB83:
 439:..\..\..\lvgl\version_6.1.2\lvgl\src\lv_draw\../lv_misc/lv_color.h ****     LV_COLOR_SET_B(ret, (uint16_t)((uint16_t) LV_COLOR_GET_B(c1) * mix + LV_COLOR_GET_B(c2) * (255 
 475              		.loc 3 439 0
 476 00f2 BDF81C10 		ldrh	r1, [sp, #28]
 438:..\..\..\lvgl\version_6.1.2\lvgl\src\lv_draw\../lv_misc/lv_color.h ****     LV_COLOR_SET_B(ret, (uint16_t)((uint16_t) LV_COLOR_GET_B(c1) * mix + LV_COLOR_GET_B(c2) * (255 
 477              		.loc 3 438 0
 478 00f6 BDF81830 		ldrh	r3, [sp, #24]
 437:..\..\..\lvgl\version_6.1.2\lvgl\src\lv_draw\../lv_misc/lv_color.h ****     LV_COLOR_SET_G(ret, (uint16_t)((uint16_t) LV_COLOR_GET_G(c1) * mix + LV_COLOR_GET_G(c2) * (255 
 479              		.loc 3 437 0
 480 00fa 1FFA88F2 		uxth	r2, r8
 481 00fe 1AFB02FA 		smulbb	r10, r10, r2
 438:..\..\..\lvgl\version_6.1.2\lvgl\src\lv_draw\../lv_misc/lv_color.h ****     LV_COLOR_SET_B(ret, (uint16_t)((uint16_t) LV_COLOR_GET_B(c1) * mix + LV_COLOR_GET_B(c2) * (255 
 482              		.loc 3 438 0
 483 0102 13FB02F3 		smulbb	r3, r3, r2
 484              		.loc 3 439 0
 485 0106 11FB02F2 		smulbb	r2, r1, r2
 437:..\..\..\lvgl\version_6.1.2\lvgl\src\lv_draw\../lv_misc/lv_color.h ****     LV_COLOR_SET_G(ret, (uint16_t)((uint16_t) LV_COLOR_GET_G(c1) * mix + LV_COLOR_GET_G(c2) * (255 
 486              		.loc 3 437 0
 487 010a 1FFA8AF0 		uxth	r0, r10
 488              	.LVL56:
 438:..\..\..\lvgl\version_6.1.2\lvgl\src\lv_draw\../lv_misc/lv_color.h ****     LV_COLOR_SET_B(ret, (uint16_t)((uint16_t) LV_COLOR_GET_B(c1) * mix + LV_COLOR_GET_B(c2) * (255 
 489              		.loc 3 438 0
 490 010e 1FFA83FA 		uxth	r10, r3
 491              		.loc 3 439 0
 492 0112 93B2     		uxth	r3, r2
 493              	.LBE83:
 494              	.LBE82:
 682:..\..\..\lvgl\version_6.1.2\lvgl\src\lv_draw/lv_draw_basic.c **** 
 683:..\..\..\lvgl\version_6.1.2\lvgl\src\lv_draw/lv_draw_basic.c ****             /*Fill the first row with 'color'*/
 684:..\..\..\lvgl\version_6.1.2\lvgl\src\lv_draw/lv_draw_basic.c ****             for(col = fill_area->x1; col <= fill_area->x2; col++) {
 685:..\..\..\lvgl\version_6.1.2\lvgl\src\lv_draw/lv_draw_basic.c ****                 mem[col] = color;
 686:..\..\..\lvgl\version_6.1.2\lvgl\src\lv_draw/lv_draw_basic.c ****             }
 687:..\..\..\lvgl\version_6.1.2\lvgl\src\lv_draw/lv_draw_basic.c **** 
 688:..\..\..\lvgl\version_6.1.2\lvgl\src\lv_draw/lv_draw_basic.c ****             /*Copy the first row to all other rows*/
 689:..\..\..\lvgl\version_6.1.2\lvgl\src\lv_draw/lv_draw_basic.c ****             lv_color_t * mem_first = &mem[fill_area->x1];
 690:..\..\..\lvgl\version_6.1.2\lvgl\src\lv_draw/lv_draw_basic.c ****             lv_coord_t copy_size   = (fill_area->x2 - fill_area->x1 + 1) * sizeof(lv_color_t);
 691:..\..\..\lvgl\version_6.1.2\lvgl\src\lv_draw/lv_draw_basic.c ****             mem += mem_width;
 692:..\..\..\lvgl\version_6.1.2\lvgl\src\lv_draw/lv_draw_basic.c **** 
 693:..\..\..\lvgl\version_6.1.2\lvgl\src\lv_draw/lv_draw_basic.c ****             for(row = fill_area->y1 + 1; row <= fill_area->y2; row++) {
 694:..\..\..\lvgl\version_6.1.2\lvgl\src\lv_draw/lv_draw_basic.c ****                 memcpy(&mem[fill_area->x1], mem_first, copy_size);
 695:..\..\..\lvgl\version_6.1.2\lvgl\src\lv_draw/lv_draw_basic.c ****                 mem += mem_width;
 696:..\..\..\lvgl\version_6.1.2\lvgl\src\lv_draw/lv_draw_basic.c ****             }
ARM GAS  C:\Users\pearlstl\AppData\Local\Temp\ccmYHcOW.s 			page 32


 697:..\..\..\lvgl\version_6.1.2\lvgl\src\lv_draw/lv_draw_basic.c ****         }
 698:..\..\..\lvgl\version_6.1.2\lvgl\src\lv_draw/lv_draw_basic.c ****         /*Calculate with alpha too*/
 699:..\..\..\lvgl\version_6.1.2\lvgl\src\lv_draw/lv_draw_basic.c ****         else {
 700:..\..\..\lvgl\version_6.1.2\lvgl\src\lv_draw/lv_draw_basic.c ****             bool scr_transp = false;
 701:..\..\..\lvgl\version_6.1.2\lvgl\src\lv_draw/lv_draw_basic.c **** #if LV_COLOR_DEPTH == 32 && LV_COLOR_SCREEN_TRANSP
 702:..\..\..\lvgl\version_6.1.2\lvgl\src\lv_draw/lv_draw_basic.c ****             scr_transp = disp->driver.screen_transp;
 703:..\..\..\lvgl\version_6.1.2\lvgl\src\lv_draw/lv_draw_basic.c **** #endif
 704:..\..\..\lvgl\version_6.1.2\lvgl\src\lv_draw/lv_draw_basic.c **** 
 705:..\..\..\lvgl\version_6.1.2\lvgl\src\lv_draw/lv_draw_basic.c ****             lv_color_t bg_tmp  = LV_COLOR_BLACK;
 495              		.loc 1 705 0
 496 0114 4FF07F42 		mov	r2, #-16777216
 497 0118 0D92     		str	r2, [sp, #52]
 498              	.LVL57:
 706:..\..\..\lvgl\version_6.1.2\lvgl\src\lv_draw/lv_draw_basic.c ****             lv_color_t opa_tmp = lv_color_mix(color, bg_tmp, opa);
 707:..\..\..\lvgl\version_6.1.2\lvgl\src\lv_draw/lv_draw_basic.c ****             for(row = fill_area->y1; row <= fill_area->y2; row++) {
 499              		.loc 1 707 0
 500 011a 099A     		ldr	r2, [sp, #36]
 501              	.LBB86:
 502              	.LBB84:
 503              		.loc 3 439 0
 504 011c 1946     		mov	r1, r3
 505              	.LBE84:
 506              	.LBE86:
 507              		.loc 1 707 0
 508 011e 5A45     		cmp	r2, fp
 509              	.LBB87:
 510              	.LBB85:
 437:..\..\..\lvgl\version_6.1.2\lvgl\src\lv_draw\../lv_misc/lv_color.h ****     LV_COLOR_SET_G(ret, (uint16_t)((uint16_t) LV_COLOR_GET_G(c1) * mix + LV_COLOR_GET_G(c2) * (255 
 511              		.loc 3 437 0
 512 0120 C8F1FF03 		rsb	r3, r8, #255
 513 0124 9BB2     		uxth	r3, r3
 514 0126 4FEA102E 		lsr	lr, r0, #8
 515              	.LVL58:
 438:..\..\..\lvgl\version_6.1.2\lvgl\src\lv_draw\../lv_misc/lv_color.h ****     LV_COLOR_SET_B(ret, (uint16_t)((uint16_t) LV_COLOR_GET_B(c1) * mix + LV_COLOR_GET_B(c2) * (255 
 516              		.loc 3 438 0
 517 012a 4FEA1A27 		lsr	r7, r10, #8
 518              	.LVL59:
 519              		.loc 3 439 0
 520 012e 4FEA1125 		lsr	r5, r1, #8
 521              	.LVL60:
 522              	.LBE85:
 523              	.LBE87:
 524              		.loc 1 707 0
 525 0132 3FF776AF 		bgt	.L9
 526 0136 059A     		ldr	r2, [sp, #20]
 527 0138 CDF81890 		str	r9, [sp, #24]
 528 013c 9200     		lsls	r2, r2, #2
 529 013e DDF82890 		ldr	r9, [sp, #40]
 530 0142 CDF820B0 		str	fp, [sp, #32]
 531 0146 0792     		str	r2, [sp, #28]
 532              	.LVL61:
 708:..\..\..\lvgl\version_6.1.2\lvgl\src\lv_draw/lv_draw_basic.c ****                 for(col = fill_area->x1; col <= fill_area->x2; col++) {
 709:..\..\..\lvgl\version_6.1.2\lvgl\src\lv_draw/lv_draw_basic.c ****                     if(scr_transp == false) {
 710:..\..\..\lvgl\version_6.1.2\lvgl\src\lv_draw/lv_draw_basic.c ****                         /*If the bg color changed recalculate the result color*/
 711:..\..\..\lvgl\version_6.1.2\lvgl\src\lv_draw/lv_draw_basic.c ****                         if(mem[col].full != bg_tmp.full) {
 712:..\..\..\lvgl\version_6.1.2\lvgl\src\lv_draw/lv_draw_basic.c ****                             bg_tmp  = mem[col];
 713:..\..\..\lvgl\version_6.1.2\lvgl\src\lv_draw/lv_draw_basic.c ****                             opa_tmp = lv_color_mix(color, bg_tmp, opa);
ARM GAS  C:\Users\pearlstl\AppData\Local\Temp\ccmYHcOW.s 			page 33


 714:..\..\..\lvgl\version_6.1.2\lvgl\src\lv_draw/lv_draw_basic.c ****                         }
 715:..\..\..\lvgl\version_6.1.2\lvgl\src\lv_draw/lv_draw_basic.c **** 
 716:..\..\..\lvgl\version_6.1.2\lvgl\src\lv_draw/lv_draw_basic.c ****                         mem[col] = opa_tmp;
 533              		.loc 1 716 0
 534 0148 4FF0FF08 		mov	r8, #255
 535 014c 8B46     		mov	fp, r1
 536              	.LVL62:
 537              	.L26:
 708:..\..\..\lvgl\version_6.1.2\lvgl\src\lv_draw/lv_draw_basic.c ****                 for(col = fill_area->x1; col <= fill_area->x2; col++) {
 538              		.loc 1 708 0
 539 014e 069A     		ldr	r2, [sp, #24]
 540 0150 4A45     		cmp	r2, r9
 541 0152 D8BF     		it	le
 542 0154 0590     		strle	r0, [sp, #20]
 543 0156 26DC     		bgt	.L30
 544              	.LVL63:
 545              	.L28:
 711:..\..\..\lvgl\version_6.1.2\lvgl\src\lv_draw/lv_draw_basic.c ****                             bg_tmp  = mem[col];
 546              		.loc 1 711 0
 547 0158 56F82200 		ldr	r0, [r6, r2, lsl #2]
 548 015c 0D9C     		ldr	r4, [sp, #52]
 549 015e 02F1010C 		add	ip, r2, #1
 550 0162 A042     		cmp	r0, r4
 551 0164 06EB8201 		add	r1, r6, r2, lsl #2
 552 0168 0FFA8CF2 		sxth	r2, ip
 553              	.LVL64:
 554 016c 12D0     		beq	.L27
 555              	.LBB88:
 556              	.LBB89:
 437:..\..\..\lvgl\version_6.1.2\lvgl\src\lv_draw\../lv_misc/lv_color.h ****     LV_COLOR_SET_G(ret, (uint16_t)((uint16_t) LV_COLOR_GET_G(c1) * mix + LV_COLOR_GET_G(c2) * (255 
 557              		.loc 3 437 0
 558 016e 059C     		ldr	r4, [sp, #20]
 559              	.LBE89:
 560              	.LBE88:
 712:..\..\..\lvgl\version_6.1.2\lvgl\src\lv_draw/lv_draw_basic.c ****                             opa_tmp = lv_color_mix(color, bg_tmp, opa);
 561              		.loc 1 712 0
 562 0170 0D90     		str	r0, [sp, #52]
 563              	.LVL65:
 564              	.LBB91:
 565              	.LBB90:
 437:..\..\..\lvgl\version_6.1.2\lvgl\src\lv_draw\../lv_misc/lv_color.h ****     LV_COLOR_SET_G(ret, (uint16_t)((uint16_t) LV_COLOR_GET_G(c1) * mix + LV_COLOR_GET_G(c2) * (255 
 566              		.loc 3 437 0
 567 0172 C0F3074E 		ubfx	lr, r0, #16, #8
 568              	.LVL66:
 438:..\..\..\lvgl\version_6.1.2\lvgl\src\lv_draw\../lv_misc/lv_color.h ****     LV_COLOR_SET_B(ret, (uint16_t)((uint16_t) LV_COLOR_GET_B(c1) * mix + LV_COLOR_GET_B(c2) * (255 
 569              		.loc 3 438 0
 570 0176 C0F30727 		ubfx	r7, r0, #8, #8
 571              	.LVL67:
 572              		.loc 3 439 0
 573 017a C5B2     		uxtb	r5, r0
 574              	.LVL68:
 437:..\..\..\lvgl\version_6.1.2\lvgl\src\lv_draw\../lv_misc/lv_color.h ****     LV_COLOR_SET_G(ret, (uint16_t)((uint16_t) LV_COLOR_GET_G(c1) * mix + LV_COLOR_GET_G(c2) * (255 
 575              		.loc 3 437 0
 576 017c 03FB0E4E 		mla	lr, r3, lr, r4
 438:..\..\..\lvgl\version_6.1.2\lvgl\src\lv_draw\../lv_misc/lv_color.h ****     LV_COLOR_SET_B(ret, (uint16_t)((uint16_t) LV_COLOR_GET_B(c1) * mix + LV_COLOR_GET_B(c2) * (255 
 577              		.loc 3 438 0
 578 0180 03FB07A7 		mla	r7, r3, r7, r10
ARM GAS  C:\Users\pearlstl\AppData\Local\Temp\ccmYHcOW.s 			page 34


 579              		.loc 3 439 0
 580 0184 03FB05B5 		mla	r5, r3, r5, fp
 437:..\..\..\lvgl\version_6.1.2\lvgl\src\lv_draw\../lv_misc/lv_color.h ****     LV_COLOR_SET_G(ret, (uint16_t)((uint16_t) LV_COLOR_GET_G(c1) * mix + LV_COLOR_GET_G(c2) * (255 
 581              		.loc 3 437 0
 582 0188 CEF3072E 		ubfx	lr, lr, #8, #8
 583              	.LVL69:
 438:..\..\..\lvgl\version_6.1.2\lvgl\src\lv_draw\../lv_misc/lv_color.h ****     LV_COLOR_SET_B(ret, (uint16_t)((uint16_t) LV_COLOR_GET_B(c1) * mix + LV_COLOR_GET_B(c2) * (255 
 584              		.loc 3 438 0
 585 018c C7F30727 		ubfx	r7, r7, #8, #8
 586              	.LVL70:
 587              		.loc 3 439 0
 588 0190 C5F30725 		ubfx	r5, r5, #8, #8
 589              	.LVL71:
 590              	.L27:
 591              	.LBE90:
 592              	.LBE91:
 708:..\..\..\lvgl\version_6.1.2\lvgl\src\lv_draw/lv_draw_basic.c ****                     if(scr_transp == false) {
 593              		.loc 1 708 0
 594 0194 9145     		cmp	r9, r2
 595              		.loc 1 716 0
 596 0196 0D70     		strb	r5, [r1]
 597 0198 4F70     		strb	r7, [r1, #1]
 598 019a 81F802E0 		strb	lr, [r1, #2]
 599 019e 81F80380 		strb	r8, [r1, #3]
 708:..\..\..\lvgl\version_6.1.2\lvgl\src\lv_draw/lv_draw_basic.c ****                     if(scr_transp == false) {
 600              		.loc 1 708 0
 601 01a2 D9DA     		bge	.L28
 602 01a4 0598     		ldr	r0, [sp, #20]
 603              	.LVL72:
 604              	.L30:
 605 01a6 099A     		ldr	r2, [sp, #36]
 717:..\..\..\lvgl\version_6.1.2\lvgl\src\lv_draw/lv_draw_basic.c **** 
 718:..\..\..\lvgl\version_6.1.2\lvgl\src\lv_draw/lv_draw_basic.c ****                     } else {
 719:..\..\..\lvgl\version_6.1.2\lvgl\src\lv_draw/lv_draw_basic.c **** #if LV_COLOR_DEPTH == 32 && LV_COLOR_SCREEN_TRANSP
 720:..\..\..\lvgl\version_6.1.2\lvgl\src\lv_draw/lv_draw_basic.c ****                         mem[col] = color_mix_2_alpha(mem[col], mem[col].ch.alpha, color, opa);
 721:..\..\..\lvgl\version_6.1.2\lvgl\src\lv_draw/lv_draw_basic.c **** #endif
 722:..\..\..\lvgl\version_6.1.2\lvgl\src\lv_draw/lv_draw_basic.c ****                     }
 723:..\..\..\lvgl\version_6.1.2\lvgl\src\lv_draw/lv_draw_basic.c ****                 }
 724:..\..\..\lvgl\version_6.1.2\lvgl\src\lv_draw/lv_draw_basic.c ****                 mem += mem_width;
 606              		.loc 1 724 0
 607 01a8 0799     		ldr	r1, [sp, #28]
 608 01aa 0132     		adds	r2, r2, #1
 609 01ac 0E44     		add	r6, r6, r1
 610              	.LVL73:
 707:..\..\..\lvgl\version_6.1.2\lvgl\src\lv_draw/lv_draw_basic.c ****                 for(col = fill_area->x1; col <= fill_area->x2; col++) {
 611              		.loc 1 707 0
 612 01ae 0899     		ldr	r1, [sp, #32]
 613 01b0 12B2     		sxth	r2, r2
 614              	.LVL74:
 615 01b2 9142     		cmp	r1, r2
 616 01b4 0992     		str	r2, [sp, #36]
 617 01b6 CADA     		bge	.L26
 618 01b8 33E7     		b	.L9
 619              	.LVL75:
 620              	.L45:
 621              	.LBE81:
 622              	.LBB92:
ARM GAS  C:\Users\pearlstl\AppData\Local\Temp\ccmYHcOW.s 			page 35


 684:..\..\..\lvgl\version_6.1.2\lvgl\src\lv_draw/lv_draw_basic.c ****                 mem[col] = color;
 623              		.loc 1 684 0
 624 01ba 0A9B     		ldr	r3, [sp, #40]
 625 01bc 9945     		cmp	r9, r3
 626 01be 11DC     		bgt	.L23
 627 01c0 0698     		ldr	r0, [sp, #24]
 628              	.LVL76:
 629 01c2 079F     		ldr	r7, [sp, #28]
 630 01c4 1946     		mov	r1, r3
 631 01c6 4B46     		mov	r3, r9
 632              	.LVL77:
 633              	.L22:
 685:..\..\..\lvgl\version_6.1.2\lvgl\src\lv_draw/lv_draw_basic.c ****             }
 634              		.loc 1 685 0
 635 01c8 67F30705 		bfi	r5, r7, #0, #8
 636              	.LVL78:
 637 01cc 60F30F25 		bfi	r5, r0, #8, #8
 638 01d0 6AF31745 		bfi	r5, r10, #16, #8
 639 01d4 5A1C     		adds	r2, r3, #1
 640 01d6 46F82350 		str	r5, [r6, r3, lsl #2]
 641 01da 13B2     		sxth	r3, r2
 642              	.LVL79:
 684:..\..\..\lvgl\version_6.1.2\lvgl\src\lv_draw/lv_draw_basic.c ****                 mem[col] = color;
 643              		.loc 1 684 0
 644 01dc 9942     		cmp	r1, r3
 645 01de F3DA     		bge	.L22
 646 01e0 0A9B     		ldr	r3, [sp, #40]
 647              	.LVL80:
 648 01e2 059A     		ldr	r2, [sp, #20]
 649              	.LVL81:
 650              	.L23:
 690:..\..\..\lvgl\version_6.1.2\lvgl\src\lv_draw/lv_draw_basic.c ****             mem += mem_width;
 651              		.loc 1 690 0
 652 01e4 C9EB0305 		rsb	r5, r9, r3
 653              	.LVL82:
 693:..\..\..\lvgl\version_6.1.2\lvgl\src\lv_draw/lv_draw_basic.c ****                 memcpy(&mem[fill_area->x1], mem_first, copy_size);
 654              		.loc 1 693 0
 655 01e8 0134     		adds	r4, r4, #1
 690:..\..\..\lvgl\version_6.1.2\lvgl\src\lv_draw/lv_draw_basic.c ****             mem += mem_width;
 656              		.loc 1 690 0
 657 01ea 0135     		adds	r5, r5, #1
 693:..\..\..\lvgl\version_6.1.2\lvgl\src\lv_draw/lv_draw_basic.c ****                 memcpy(&mem[fill_area->x1], mem_first, copy_size);
 658              		.loc 1 693 0
 659 01ec 24B2     		sxth	r4, r4
 690:..\..\..\lvgl\version_6.1.2\lvgl\src\lv_draw/lv_draw_basic.c ****             mem += mem_width;
 660              		.loc 1 690 0
 661 01ee AD00     		lsls	r5, r5, #2
 689:..\..\..\lvgl\version_6.1.2\lvgl\src\lv_draw/lv_draw_basic.c ****             lv_coord_t copy_size   = (fill_area->x2 - fill_area->x1 + 1) * sizeof(lv_color_t);
 662              		.loc 1 689 0
 663 01f0 4FEA8903 		lsl	r3, r9, #2
 693:..\..\..\lvgl\version_6.1.2\lvgl\src\lv_draw/lv_draw_basic.c ****                 memcpy(&mem[fill_area->x1], mem_first, copy_size);
 664              		.loc 1 693 0
 665 01f4 A345     		cmp	fp, r4
 690:..\..\..\lvgl\version_6.1.2\lvgl\src\lv_draw/lv_draw_basic.c ****             mem += mem_width;
 666              		.loc 1 690 0
 667 01f6 2DB2     		sxth	r5, r5
 691:..\..\..\lvgl\version_6.1.2\lvgl\src\lv_draw/lv_draw_basic.c **** 
ARM GAS  C:\Users\pearlstl\AppData\Local\Temp\ccmYHcOW.s 			page 36


 668              		.loc 1 691 0
 669 01f8 4FEA8207 		lsl	r7, r2, #2
 689:..\..\..\lvgl\version_6.1.2\lvgl\src\lv_draw/lv_draw_basic.c ****             lv_coord_t copy_size   = (fill_area->x2 - fill_area->x1 + 1) * sizeof(lv_color_t);
 670              		.loc 1 689 0
 671 01fc 06EB0308 		add	r8, r6, r3
 672              	.LVL83:
 693:..\..\..\lvgl\version_6.1.2\lvgl\src\lv_draw/lv_draw_basic.c ****                 memcpy(&mem[fill_area->x1], mem_first, copy_size);
 673              		.loc 1 693 0
 674 0200 FFF60FAF 		blt	.L9
 675 0204 3B44     		add	r3, r3, r7
 676 0206 1E44     		add	r6, r6, r3
 677              	.LVL84:
 678              	.L24:
 679 0208 0134     		adds	r4, r4, #1
 680              	.LVL85:
 694:..\..\..\lvgl\version_6.1.2\lvgl\src\lv_draw/lv_draw_basic.c ****                 mem += mem_width;
 681              		.loc 1 694 0
 682 020a 3046     		mov	r0, r6
 683 020c 2A46     		mov	r2, r5
 684 020e 4146     		mov	r1, r8
 685 0210 24B2     		sxth	r4, r4
 686 0212 FFF7FEFF 		bl	memcpy
 687              	.LVL86:
 693:..\..\..\lvgl\version_6.1.2\lvgl\src\lv_draw/lv_draw_basic.c ****                 memcpy(&mem[fill_area->x1], mem_first, copy_size);
 688              		.loc 1 693 0
 689 0216 A345     		cmp	fp, r4
 690 0218 3E44     		add	r6, r6, r7
 691              	.LVL87:
 692 021a F5DA     		bge	.L24
 693 021c 01E7     		b	.L9
 694              	.LBE92:
 695              	.LBE93:
 696              	.LBE94:
 697              		.cfi_endproc
 698              	.LFE32:
 699              		.size	lv_draw_fill, .-lv_draw_fill
 700 021e 00BF     		.section	.text.lv_draw_letter,"ax",%progbits
 701              		.align	2
 702              		.global	lv_draw_letter
 703              		.thumb
 704              		.thumb_func
 705              		.type	lv_draw_letter, %function
 706              	lv_draw_letter:
 707              	.LFB33:
 235:..\..\..\lvgl\version_6.1.2\lvgl\src\lv_draw/lv_draw_basic.c ****     /*clang-format off*/
 708              		.loc 1 235 0
 709              		.cfi_startproc
 710              		@ args = 8, pretend = 0, frame = 136
 711              		@ frame_needed = 0, uses_anonymous_args = 0
 712              	.LVL88:
 713 0000 2DE9F04F 		push	{r4, r5, r6, r7, r8, r9, r10, fp, lr}
 714              		.cfi_def_cfa_offset 36
 715              		.cfi_offset 4, -36
 716              		.cfi_offset 5, -32
 717              		.cfi_offset 6, -28
 718              		.cfi_offset 7, -24
 719              		.cfi_offset 8, -20
ARM GAS  C:\Users\pearlstl\AppData\Local\Temp\ccmYHcOW.s 			page 37


 720              		.cfi_offset 9, -16
 721              		.cfi_offset 10, -12
 722              		.cfi_offset 11, -8
 723              		.cfi_offset 14, -4
 238:..\..\..\lvgl\version_6.1.2\lvgl\src\lv_draw/lv_draw_basic.c ****     const uint8_t bpp4_opa_table[16] = {0,  17, 34,  51,  /*Opacity mapping with bpp = 4*/
 724              		.loc 1 238 0
 725 0004 A44D     		ldr	r5, .L136
 235:..\..\..\lvgl\version_6.1.2\lvgl\src\lv_draw/lv_draw_basic.c ****     /*clang-format off*/
 726              		.loc 1 235 0
 727 0006 A7B0     		sub	sp, sp, #156
 728              		.cfi_def_cfa_offset 192
 239:..\..\..\lvgl\version_6.1.2\lvgl\src\lv_draw/lv_draw_basic.c ****                                         68, 85, 102, 119, 136, 153, 170, 187, 204, 221, 238, 255};
 729              		.loc 1 239 0
 730 0008 2F46     		mov	r7, r5
 235:..\..\..\lvgl\version_6.1.2\lvgl\src\lv_draw/lv_draw_basic.c ****     /*clang-format off*/
 731              		.loc 1 235 0
 732 000a 8646     		mov	lr, r0
 238:..\..\..\lvgl\version_6.1.2\lvgl\src\lv_draw/lv_draw_basic.c ****     const uint8_t bpp4_opa_table[16] = {0,  17, 34,  51,  /*Opacity mapping with bpp = 4*/
 733              		.loc 1 238 0
 734 000c 2868     		ldr	r0, [r5]	@ unaligned
 735              	.LVL89:
 736 000e 1F90     		str	r0, [sp, #124]	@ unaligned
 239:..\..\..\lvgl\version_6.1.2\lvgl\src\lv_draw/lv_draw_basic.c ****                                         68, 85, 102, 119, 136, 153, 170, 187, 204, 221, 238, 255};
 737              		.loc 1 239 0
 738 0010 57F8040F 		ldr	r0, [r7, #4]!	@ unaligned
 235:..\..\..\lvgl\version_6.1.2\lvgl\src\lv_draw/lv_draw_basic.c ****     /*clang-format off*/
 739              		.loc 1 235 0
 740 0014 9DF8C440 		ldrb	r4, [sp, #196]	@ zero_extendqisi2
 741 0018 8C46     		mov	ip, r1
 742 001a 1546     		mov	r5, r2
 239:..\..\..\lvgl\version_6.1.2\lvgl\src\lv_draw/lv_draw_basic.c ****                                         68, 85, 102, 119, 136, 153, 170, 187, 204, 221, 238, 255};
 743              		.loc 1 239 0
 744 001c 7968     		ldr	r1, [r7, #4]	@ unaligned
 745              	.LVL90:
 746 001e BA68     		ldr	r2, [r7, #8]	@ unaligned
 747              	.LVL91:
 235:..\..\..\lvgl\version_6.1.2\lvgl\src\lv_draw/lv_draw_basic.c ****     /*clang-format off*/
 748              		.loc 1 235 0
 749 0020 1E46     		mov	r6, r3
 239:..\..\..\lvgl\version_6.1.2\lvgl\src\lv_draw/lv_draw_basic.c ****                                         68, 85, 102, 119, 136, 153, 170, 187, 204, 221, 238, 255};
 750              		.loc 1 239 0
 751 0022 FB68     		ldr	r3, [r7, #12]	@ unaligned
 752              	.LVL92:
 753 0024 22AF     		add	r7, sp, #136
 754 0026 0FC7     		stmia	r7!, {r0, r1, r2, r3}
 243:..\..\..\lvgl\version_6.1.2\lvgl\src\lv_draw/lv_draw_basic.c ****     if(opa > LV_OPA_MAX) opa = LV_OPA_COVER;
 755              		.loc 1 243 0
 756 0028 0F2C     		cmp	r4, #15
 237:..\..\..\lvgl\version_6.1.2\lvgl\src\lv_draw/lv_draw_basic.c ****     const uint8_t bpp2_opa_table[4]  = {0, 85, 170, 255}; /*Opacity mapping with bpp = 2*/
 757              		.loc 1 237 0
 758 002a 4FF00003 		mov	r3, #0
 759 002e 4FF0FF02 		mov	r2, #255
 760 0032 8DF87430 		strb	r3, [sp, #116]
 761 0036 8DF87520 		strb	r2, [sp, #117]
 243:..\..\..\lvgl\version_6.1.2\lvgl\src\lv_draw/lv_draw_basic.c ****     if(opa > LV_OPA_MAX) opa = LV_OPA_COVER;
 762              		.loc 1 243 0
 763 003a 4DD9     		bls	.L46
ARM GAS  C:\Users\pearlstl\AppData\Local\Temp\ccmYHcOW.s 			page 38


 244:..\..\..\lvgl\version_6.1.2\lvgl\src\lv_draw/lv_draw_basic.c **** 
 764              		.loc 1 244 0
 765 003c FC2C     		cmp	r4, #252
 766 003e 28BF     		it	cs
 767 0040 1446     		movcs	r4, r2
 768              	.LVL93:
 246:..\..\..\lvgl\version_6.1.2\lvgl\src\lv_draw/lv_draw_basic.c ****         LV_LOG_WARN("Font: character's bitmap not found");
 769              		.loc 1 246 0
 770 0042 002D     		cmp	r5, #0
 771 0044 48D0     		beq	.L46
 252:..\..\..\lvgl\version_6.1.2\lvgl\src\lv_draw/lv_draw_basic.c ****     if(g_ret == false) return;
 772              		.loc 1 252 0
 773 0046 3246     		mov	r2, r6
 774 0048 20A9     		add	r1, sp, #128
 775 004a 2846     		mov	r0, r5
 776 004c E246     		mov	r10, ip
 777 004e 7746     		mov	r7, lr
 778 0050 FFF7FEFF 		bl	lv_font_get_glyph_dsc
 779              	.LVL94:
 253:..\..\..\lvgl\version_6.1.2\lvgl\src\lv_draw/lv_draw_basic.c **** 
 780              		.loc 1 253 0
 781 0054 0028     		cmp	r0, #0
 782 0056 3FD0     		beq	.L46
 257:..\..\..\lvgl\version_6.1.2\lvgl\src\lv_draw/lv_draw_basic.c **** 
 783              		.loc 1 257 0
 784 0058 B7F90230 		ldrsh	r3, [r7, #2]
 264:..\..\..\lvgl\version_6.1.2\lvgl\src\lv_draw/lv_draw_basic.c **** 
 785              		.loc 1 264 0
 786 005c 9DF88610 		ldrb	r1, [sp, #134]	@ zero_extendqisi2
 257:..\..\..\lvgl\version_6.1.2\lvgl\src\lv_draw/lv_draw_basic.c **** 
 787              		.loc 1 257 0
 788 0060 0593     		str	r3, [sp, #20]
 789 0062 2B7A     		ldrb	r3, [r5, #8]	@ zero_extendqisi2
 790 0064 0693     		str	r3, [sp, #24]
 264:..\..\..\lvgl\version_6.1.2\lvgl\src\lv_draw/lv_draw_basic.c **** 
 791              		.loc 1 264 0
 792 0066 0329     		cmp	r1, #3
 257:..\..\..\lvgl\version_6.1.2\lvgl\src\lv_draw/lv_draw_basic.c **** 
 793              		.loc 1 257 0
 794 0068 95F90930 		ldrsb	r3, [r5, #9]
 256:..\..\..\lvgl\version_6.1.2\lvgl\src\lv_draw/lv_draw_basic.c ****     lv_coord_t pos_y = pos_p->y + (font_p->line_height - font_p->base_line) - g.box_h - g.ofs_y;
 795              		.loc 1 256 0
 796 006c B7F90080 		ldrsh	r8, [r7]
 257:..\..\..\lvgl\version_6.1.2\lvgl\src\lv_draw/lv_draw_basic.c **** 
 797              		.loc 1 257 0
 798 0070 0793     		str	r3, [sp, #28]
 256:..\..\..\lvgl\version_6.1.2\lvgl\src\lv_draw/lv_draw_basic.c ****     lv_coord_t pos_y = pos_p->y + (font_p->line_height - font_p->base_line) - g.box_h - g.ofs_y;
 799              		.loc 1 256 0
 800 0072 9DF98470 		ldrsb	r7, [sp, #132]
 801              	.LVL95:
 257:..\..\..\lvgl\version_6.1.2\lvgl\src\lv_draw/lv_draw_basic.c **** 
 802              		.loc 1 257 0
 803 0076 9DF883B0 		ldrb	fp, [sp, #131]	@ zero_extendqisi2
 804 007a 9DF98590 		ldrsb	r9, [sp, #133]
 805              	.LVL96:
 264:..\..\..\lvgl\version_6.1.2\lvgl\src\lv_draw/lv_draw_basic.c **** 
 806              		.loc 1 264 0
ARM GAS  C:\Users\pearlstl\AppData\Local\Temp\ccmYHcOW.s 			page 39


 807 007e 00F0BC81 		beq	.L131
 266:..\..\..\lvgl\version_6.1.2\lvgl\src\lv_draw/lv_draw_basic.c ****         case 1:
 808              		.loc 1 266 0
 809 0082 0139     		subs	r1, r1, #1
 810 0084 0729     		cmp	r1, #7
 811 0086 27D8     		bhi	.L46
 812 0088 DFE811F0 		tbh	[pc, r1, lsl #1]
 813              	.L53:
 814 008c 7C01     		.2byte	(.L52-.L53)/2
 815 008e 2900     		.2byte	(.L100-.L53)/2
 816 0090 2600     		.2byte	(.L46-.L53)/2
 817 0092 BA01     		.2byte	(.L50-.L53)/2
 818 0094 2600     		.2byte	(.L46-.L53)/2
 819 0096 2600     		.2byte	(.L46-.L53)/2
 820 0098 2600     		.2byte	(.L46-.L53)/2
 821 009a 7601     		.2byte	(.L55-.L53)/2
 822              	.LVL97:
 823              		.p2align 1
 824              	.L133:
 825 009c 9DF882E0 		ldrb	lr, [sp, #130]	@ zero_extendqisi2
 826 00a0 1746     		mov	r7, r2
 827              	.LVL98:
 828              	.L74:
 829              	.LBB95:
 440:..\..\..\lvgl\version_6.1.2\lvgl\src\lv_draw/lv_draw_basic.c **** 
 830              		.loc 1 440 0
 831 00a2 1599     		ldr	r1, [sp, #84]
 832 00a4 C7EB0E02 		rsb	r2, r7, lr
 833 00a8 0A44     		add	r2, r2, r1
 834 00aa 12FB03F2 		smulbb	r2, r2, r3
 835 00ae 9244     		add	r10, r10, r2
 836              	.LVL99:
 446:..\..\..\lvgl\version_6.1.2\lvgl\src\lv_draw/lv_draw_basic.c ****         else vdb_buf_tmp += vdb_width - (col_end - col_start);
 837              		.loc 1 446 0
 838 00b0 069A     		ldr	r2, [sp, #24]
 440:..\..\..\lvgl\version_6.1.2\lvgl\src\lv_draw/lv_draw_basic.c **** 
 839              		.loc 1 440 0
 840 00b2 1FFA8AFA 		uxth	r10, r10
 841              	.LVL100:
 442:..\..\..\lvgl\version_6.1.2\lvgl\src\lv_draw/lv_draw_basic.c ****         col_bit = col_bit & 0x7;
 842              		.loc 1 442 0
 843 00b6 09EBDA09 		add	r9, r9, r10, lsr #3
 844              	.LVL101:
 443:..\..\..\lvgl\version_6.1.2\lvgl\src\lv_draw/lv_draw_basic.c **** 
 845              		.loc 1 443 0
 846 00ba 0AF0070A 		and	r10, r10, #7
 847              	.LVL102:
 446:..\..\..\lvgl\version_6.1.2\lvgl\src\lv_draw/lv_draw_basic.c ****         else vdb_buf_tmp += vdb_width - (col_end - col_start);
 848              		.loc 1 446 0
 849 00be 002A     		cmp	r2, #0
 850 00c0 00F0BC81 		beq	.L95
 446:..\..\..\lvgl\version_6.1.2\lvgl\src\lv_draw/lv_draw_basic.c ****         else vdb_buf_tmp += vdb_width - (col_end - col_start);
 851              		.loc 1 446 0 is_stmt 0 discriminator 1
 852 00c4 1A9A     		ldr	r2, [sp, #104]
 853 00c6 9044     		add	r8, r8, r2
 854              	.LVL103:
 855              	.L96:
ARM GAS  C:\Users\pearlstl\AppData\Local\Temp\ccmYHcOW.s 			page 40


 856 00c8 0D9A     		ldr	r2, [sp, #52]
 857              	.LBE95:
 348:..\..\..\lvgl\version_6.1.2\lvgl\src\lv_draw/lv_draw_basic.c ****         bitmask = bitmask_init >> col_bit;
 858              		.loc 1 348 0 is_stmt 1 discriminator 2
 859 00ca 1699     		ldr	r1, [sp, #88]
 860 00cc 0132     		adds	r2, r2, #1
 861 00ce 12B2     		sxth	r2, r2
 862 00d0 9142     		cmp	r1, r2
 863 00d2 0D92     		str	r2, [sp, #52]
 864              	.LVL104:
 865 00d4 00F3C980 		bgt	.L97
 866              	.LVL105:
 867              	.L46:
 449:..\..\..\lvgl\version_6.1.2\lvgl\src\lv_draw/lv_draw_basic.c **** 
 868              		.loc 1 449 0
 869 00d8 27B0     		add	sp, sp, #156
 870              		.cfi_remember_state
 871              		.cfi_def_cfa_offset 36
 872              		@ sp needed
 873 00da BDE8F08F 		pop	{r4, r5, r6, r7, r8, r9, r10, fp, pc}
 874              	.LVL106:
 875              	.L100:
 876              		.cfi_restore_state
 266:..\..\..\lvgl\version_6.1.2\lvgl\src\lv_draw/lv_draw_basic.c ****         case 1:
 877              		.loc 1 266 0
 878 00de C023     		movs	r3, #192
 879 00e0 0C93     		str	r3, [sp, #48]
 273:..\..\..\lvgl\version_6.1.2\lvgl\src\lv_draw/lv_draw_basic.c ****             break;
 880              		.loc 1 273 0
 881 00e2 0893     		str	r3, [sp, #32]
 272:..\..\..\lvgl\version_6.1.2\lvgl\src\lv_draw/lv_draw_basic.c ****             bitmask_init  = 0xC0;
 882              		.loc 1 272 0
 883 00e4 1FAB     		add	r3, sp, #124
 884 00e6 0993     		str	r3, [sp, #36]
 885              	.L54:
 886              	.LVL107:
 286:..\..\..\lvgl\version_6.1.2\lvgl\src\lv_draw/lv_draw_basic.c **** 
 887              		.loc 1 286 0
 888 00e8 3146     		mov	r1, r6
 889 00ea 2846     		mov	r0, r5
 890              	.LVL108:
 891 00ec FFF7FEFF 		bl	lv_font_get_glyph_bitmap
 892              	.LVL109:
 288:..\..\..\lvgl\version_6.1.2\lvgl\src\lv_draw/lv_draw_basic.c **** 
 893              		.loc 1 288 0
 894 00f0 0646     		mov	r6, r0
 895              	.LVL110:
 896 00f2 0028     		cmp	r0, #0
 897 00f4 F0D0     		beq	.L46
 256:..\..\..\lvgl\version_6.1.2\lvgl\src\lv_draw/lv_draw_basic.c ****     lv_coord_t pos_y = pos_p->y + (font_p->line_height - font_p->base_line) - g.box_h - g.ofs_y;
 898              		.loc 1 256 0
 899 00f6 08EB0703 		add	r3, r8, r7
 900 00fa 9BB2     		uxth	r3, r3
 901 00fc 1A46     		mov	r2, r3
 902 00fe 0A93     		str	r3, [sp, #40]
 291:..\..\..\lvgl\version_6.1.2\lvgl\src\lv_draw/lv_draw_basic.c **** 
 903              		.loc 1 291 0
ARM GAS  C:\Users\pearlstl\AppData\Local\Temp\ccmYHcOW.s 			page 41


 904 0100 9DF88230 		ldrb	r3, [sp, #130]	@ zero_extendqisi2
 905 0104 BAF90010 		ldrsh	r1, [r10]
 256:..\..\..\lvgl\version_6.1.2\lvgl\src\lv_draw/lv_draw_basic.c ****     lv_coord_t pos_y = pos_p->y + (font_p->line_height - font_p->base_line) - g.box_h - g.ofs_y;
 906              		.loc 1 256 0
 907 0108 12B2     		sxth	r2, r2
 291:..\..\..\lvgl\version_6.1.2\lvgl\src\lv_draw/lv_draw_basic.c **** 
 908              		.loc 1 291 0
 909 010a 1344     		add	r3, r3, r2
 910 010c 8B42     		cmp	r3, r1
 911 010e E3DB     		blt	.L46
 291:..\..\..\lvgl\version_6.1.2\lvgl\src\lv_draw/lv_draw_basic.c **** 
 912              		.loc 1 291 0 is_stmt 0 discriminator 1
 913 0110 BAF90430 		ldrsh	r3, [r10, #4]
 914 0114 9342     		cmp	r3, r2
 915 0116 DFDB     		blt	.L46
 257:..\..\..\lvgl\version_6.1.2\lvgl\src\lv_draw/lv_draw_basic.c **** 
 916              		.loc 1 257 0 is_stmt 1 discriminator 2
 917 0118 059B     		ldr	r3, [sp, #20]
 918 011a 0799     		ldr	r1, [sp, #28]
 919 011c D944     		add	r9, r9, fp
 920              	.LVL111:
 921 011e C9EB0308 		rsb	r8, r9, r3
 922              	.LVL112:
 923 0122 069B     		ldr	r3, [sp, #24]
 924 0124 5F1A     		subs	r7, r3, r1
 925 0126 4744     		add	r7, r7, r8
 926 0128 BBB2     		uxth	r3, r7
 927 012a 1846     		mov	r0, r3
 928              	.LVL113:
 929 012c 0F93     		str	r3, [sp, #60]
 291:..\..\..\lvgl\version_6.1.2\lvgl\src\lv_draw/lv_draw_basic.c **** 
 930              		.loc 1 291 0 discriminator 2
 931 012e 9DF88330 		ldrb	r3, [sp, #131]	@ zero_extendqisi2
 932 0132 BAF90210 		ldrsh	r1, [r10, #2]
 257:..\..\..\lvgl\version_6.1.2\lvgl\src\lv_draw/lv_draw_basic.c **** 
 933              		.loc 1 257 0 discriminator 2
 934 0136 07B2     		sxth	r7, r0
 291:..\..\..\lvgl\version_6.1.2\lvgl\src\lv_draw/lv_draw_basic.c **** 
 935              		.loc 1 291 0 discriminator 2
 936 0138 3B44     		add	r3, r3, r7
 937 013a 8B42     		cmp	r3, r1
 938 013c CCDB     		blt	.L46
 291:..\..\..\lvgl\version_6.1.2\lvgl\src\lv_draw/lv_draw_basic.c **** 
 939              		.loc 1 291 0 is_stmt 0 discriminator 3
 940 013e BAF90630 		ldrsh	r3, [r10, #6]
 941 0142 BB42     		cmp	r3, r7
 942 0144 C8DB     		blt	.L46
 943 0146 0792     		str	r2, [sp, #28]
 293:..\..\..\lvgl\version_6.1.2\lvgl\src\lv_draw/lv_draw_basic.c ****     lv_disp_buf_t * vdb = lv_disp_get_buf(disp);
 944              		.loc 1 293 0 is_stmt 1
 945 0148 FFF7FEFF 		bl	lv_refr_get_disp_refreshing
 946              	.LVL114:
 947 014c 0B90     		str	r0, [sp, #44]
 948              	.LVL115:
 294:..\..\..\lvgl\version_6.1.2\lvgl\src\lv_draw/lv_draw_basic.c **** 
 949              		.loc 1 294 0
 950 014e FFF7FEFF 		bl	lv_disp_get_buf
ARM GAS  C:\Users\pearlstl\AppData\Local\Temp\ccmYHcOW.s 			page 42


 951              	.LVL116:
 952 0152 0246     		mov	r2, r0
 953 0154 1190     		str	r0, [sp, #68]
 954              	.LVL117:
 955              	.LBB105:
 956              	.LBB106:
 957              		.loc 2 88 0
 958 0156 918A     		ldrh	r1, [r2, #20]
 959 0158 B2F91080 		ldrsh	r8, [r2, #16]
 960              	.LVL118:
 961              	.LBE106:
 962              	.LBE105:
 304:..\..\..\lvgl\version_6.1.2\lvgl\src\lv_draw/lv_draw_basic.c **** 
 963              		.loc 1 304 0
 964 015c A87A     		ldrb	r0, [r5, #10]	@ zero_extendqisi2
 965              	.LVL119:
 297:..\..\..\lvgl\version_6.1.2\lvgl\src\lv_draw/lv_draw_basic.c ****     lv_coord_t col, row;
 966              		.loc 1 297 0
 967 015e 9268     		ldr	r2, [r2, #8]
 968              	.LVL120:
 300:..\..\..\lvgl\version_6.1.2\lvgl\src\lv_draw/lv_draw_basic.c ****     if(g.box_w & 0x7) width_byte_scr++;
 969              		.loc 1 300 0
 970 0160 9DF882E0 		ldrb	lr, [sp, #130]	@ zero_extendqisi2
 302:..\..\..\lvgl\version_6.1.2\lvgl\src\lv_draw/lv_draw_basic.c **** 
 971              		.loc 1 302 0
 972 0164 9DF88630 		ldrb	r3, [sp, #134]	@ zero_extendqisi2
 297:..\..\..\lvgl\version_6.1.2\lvgl\src\lv_draw/lv_draw_basic.c ****     lv_coord_t col, row;
 973              		.loc 1 297 0
 974 0168 0592     		str	r2, [sp, #20]
 975              	.LBB108:
 976              	.LBB107:
 977              		.loc 2 88 0
 978 016a 0131     		adds	r1, r1, #1
 979 016c C8EB0101 		rsb	r1, r8, r1
 980 0170 0AB2     		sxth	r2, r1
 981 0172 1092     		str	r2, [sp, #64]
 982              	.LVL121:
 983              	.LBE107:
 984              	.LBE108:
 312:..\..\..\lvgl\version_6.1.2\lvgl\src\lv_draw/lv_draw_basic.c ****         col_start = pos_x >= mask_p->x1 ? 0 : mask_p->x1 - pos_x;
 985              		.loc 1 312 0
 986 0174 10F00302 		ands	r2, r0, #3
 987 0178 0692     		str	r2, [sp, #24]
 302:..\..\..\lvgl\version_6.1.2\lvgl\src\lv_draw/lv_draw_basic.c **** 
 988              		.loc 1 302 0
 989 017a 0EFB03FC 		mul	ip, lr, r3
 990              	.LVL122:
 312:..\..\..\lvgl\version_6.1.2\lvgl\src\lv_draw/lv_draw_basic.c ****         col_start = pos_x >= mask_p->x1 ? 0 : mask_p->x1 - pos_x;
 991              		.loc 1 312 0
 992 017e 079A     		ldr	r2, [sp, #28]
 313:..\..\..\lvgl\version_6.1.2\lvgl\src\lv_draw/lv_draw_basic.c ****         col_end   = pos_x + g.box_w <= mask_p->x2 ? g.box_w : mask_p->x2 - pos_x + 1;
 993              		.loc 1 313 0
 994 0180 BAF90010 		ldrsh	r1, [r10]
 312:..\..\..\lvgl\version_6.1.2\lvgl\src\lv_draw/lv_draw_basic.c ****         col_start = pos_x >= mask_p->x1 ? 0 : mask_p->x1 - pos_x;
 995              		.loc 1 312 0
 996 0184 40F09E81 		bne	.L56
 313:..\..\..\lvgl\version_6.1.2\lvgl\src\lv_draw/lv_draw_basic.c ****         col_end   = pos_x + g.box_w <= mask_p->x2 ? g.box_w : mask_p->x2 - pos_x + 1;
ARM GAS  C:\Users\pearlstl\AppData\Local\Temp\ccmYHcOW.s 			page 43


 997              		.loc 1 313 0
 998 0188 8A42     		cmp	r2, r1
 999 018a 80F2B581 		bge	.L101
 313:..\..\..\lvgl\version_6.1.2\lvgl\src\lv_draw/lv_draw_basic.c ****         col_end   = pos_x + g.box_w <= mask_p->x2 ? g.box_w : mask_p->x2 - pos_x + 1;
 1000              		.loc 1 313 0 is_stmt 0 discriminator 1
 1001 018e 0A98     		ldr	r0, [sp, #40]
 1002              	.LVL123:
 1003 0190 091A     		subs	r1, r1, r0
 1004 0192 09B2     		sxth	r1, r1
 1005 0194 1791     		str	r1, [sp, #92]
 1006 0196 1591     		str	r1, [sp, #84]
 1007 0198 13FB01F9 		smulbb	r9, r3, r1
 1008              	.L57:
 1009              	.LVL124:
 314:..\..\..\lvgl\version_6.1.2\lvgl\src\lv_draw/lv_draw_basic.c ****         row_start = pos_y >= mask_p->y1 ? 0 : mask_p->y1 - pos_y;
 1010              		.loc 1 314 0 is_stmt 1 discriminator 4
 1011 019c BAF90410 		ldrsh	r1, [r10, #4]
 1012 01a0 0EEB0200 		add	r0, lr, r2
 1013 01a4 8842     		cmp	r0, r1
 1014 01a6 40F38A81 		ble	.L130
 314:..\..\..\lvgl\version_6.1.2\lvgl\src\lv_draw/lv_draw_basic.c ****         row_start = pos_y >= mask_p->y1 ? 0 : mask_p->y1 - pos_y;
 1015              		.loc 1 314 0 is_stmt 0 discriminator 2
 1016 01aa 0A98     		ldr	r0, [sp, #40]
 1017 01ac 0131     		adds	r1, r1, #1
 1018 01ae 091A     		subs	r1, r1, r0
 1019 01b0 0FFA81FB 		sxth	fp, r1
 1020              	.LVL125:
 1021              	.L66:
 320:..\..\..\lvgl\version_6.1.2\lvgl\src\lv_draw/lv_draw_basic.c ****         row_end   = pos_y + g.box_h <= mask_p->y2 ? g.box_h : mask_p->y2 - pos_y + 1;
 1022              		.loc 1 320 0 is_stmt 1 discriminator 4
 1023 01b4 BAF90210 		ldrsh	r1, [r10, #2]
 1024 01b8 8F42     		cmp	r7, r1
 1025 01ba C0F27581 		blt	.L67
 320:..\..\..\lvgl\version_6.1.2\lvgl\src\lv_draw/lv_draw_basic.c ****         row_end   = pos_y + g.box_h <= mask_p->y2 ? g.box_h : mask_p->y2 - pos_y + 1;
 1026              		.loc 1 320 0 is_stmt 0
 1027 01be 4FF0000C 		mov	ip, #0
 1028              	.LVL126:
 1029 01c2 CDF81CC0 		str	ip, [sp, #28]
 1030 01c6 CDF834C0 		str	ip, [sp, #52]
 1031              	.L68:
 1032              	.LVL127:
 321:..\..\..\lvgl\version_6.1.2\lvgl\src\lv_draw/lv_draw_basic.c ****     }
 1033              		.loc 1 321 0 is_stmt 1 discriminator 4
 1034 01ca 9DF88300 		ldrb	r0, [sp, #131]	@ zero_extendqisi2
 1035 01ce BAF90610 		ldrsh	r1, [r10, #6]
 1036 01d2 C519     		adds	r5, r0, r7
 1037 01d4 8D42     		cmp	r5, r1
 1038 01d6 02DD     		ble	.L124
 321:..\..\..\lvgl\version_6.1.2\lvgl\src\lv_draw/lv_draw_basic.c ****     }
 1039              		.loc 1 321 0 is_stmt 0 discriminator 2
 1040 01d8 0F98     		ldr	r0, [sp, #60]
 1041 01da 0131     		adds	r1, r1, #1
 1042 01dc 081A     		subs	r0, r1, r0
 1043              	.L124:
 1044              	.LVL128:
 1045 01de 01B2     		sxth	r1, r0
 1046 01e0 1691     		str	r1, [sp, #88]
ARM GAS  C:\Users\pearlstl\AppData\Local\Temp\ccmYHcOW.s 			page 44


 1047              	.LVL129:
 325:..\..\..\lvgl\version_6.1.2\lvgl\src\lv_draw/lv_draw_basic.c **** 
 1048              		.loc 1 325 0 is_stmt 1 discriminator 2
 1049 01e2 1199     		ldr	r1, [sp, #68]
 1050 01e4 1098     		ldr	r0, [sp, #64]
 1051 01e6 B1F91210 		ldrsh	r1, [r1, #18]
 1052 01ea 791A     		subs	r1, r7, r1
 1053 01ec 00FB0121 		mla	r1, r0, r1, r2
 1054 01f0 C8EB0102 		rsb	r2, r8, r1
 1055 01f4 0599     		ldr	r1, [sp, #20]
 1056 01f6 01EB8202 		add	r2, r1, r2, lsl #2
 1057              	.LVL130:
 328:..\..\..\lvgl\version_6.1.2\lvgl\src\lv_draw/lv_draw_basic.c ****     else vdb_buf_tmp += (row_start * vdb_width) + col_start;
 1058              		.loc 1 328 0 discriminator 2
 1059 01fa 0699     		ldr	r1, [sp, #24]
 1060 01fc 0029     		cmp	r1, #0
 1061 01fe 00F04D81 		beq	.L70
 328:..\..\..\lvgl\version_6.1.2\lvgl\src\lv_draw/lv_draw_basic.c ****     else vdb_buf_tmp += (row_start * vdb_width) + col_start;
 1062              		.loc 1 328 0 is_stmt 0 discriminator 1
 1063 0202 179D     		ldr	r5, [sp, #92]
 1064 0204 2549     		ldr	r1, .L136+4
 1065 0206 2846     		mov	r0, r5
 1066 0208 81FB0001 		smull	r0, r1, r1, r0
 1067 020c 0798     		ldr	r0, [sp, #28]
 1068 020e A1EBE571 		sub	r1, r1, r5, asr #31
 1069 0212 00FA81F1 		sxtah	r1, r0, r1
 1070 0216 02EB8108 		add	r8, r2, r1, lsl #2
 1071              	.LVL131:
 1072              	.L71:
 346:..\..\..\lvgl\version_6.1.2\lvgl\src\lv_draw/lv_draw_basic.c **** 
 1073              		.loc 1 346 0 is_stmt 1
 1074 021a 309A     		ldr	r2, [sp, #192]
 348:..\..\..\lvgl\version_6.1.2\lvgl\src\lv_draw/lv_draw_basic.c ****         bitmask = bitmask_init >> col_bit;
 1075              		.loc 1 348 0
 1076 021c 1699     		ldr	r1, [sp, #88]
 346:..\..\..\lvgl\version_6.1.2\lvgl\src\lv_draw/lv_draw_basic.c **** 
 1077              		.loc 1 346 0
 1078 021e C2F30742 		ubfx	r2, r2, #16, #8
 1079 0222 1392     		str	r2, [sp, #76]
 1080 0224 309A     		ldr	r2, [sp, #192]
 1081 0226 C2F30722 		ubfx	r2, r2, #8, #8
 1082 022a 1492     		str	r2, [sp, #80]
 1083 022c 9DF8C020 		ldrb	r2, [sp, #192]	@ zero_extendqisi2
 1084              	.LVL132:
 1085 0230 1292     		str	r2, [sp, #72]
 348:..\..\..\lvgl\version_6.1.2\lvgl\src\lv_draw/lv_draw_basic.c ****         bitmask = bitmask_init >> col_bit;
 1086              		.loc 1 348 0
 1087 0232 0D9A     		ldr	r2, [sp, #52]
 1088              	.LVL133:
 332:..\..\..\lvgl\version_6.1.2\lvgl\src\lv_draw/lv_draw_basic.c ****     map_p += bit_ofs >> 3;
 1089              		.loc 1 332 0
 1090 0234 CC44     		add	ip, ip, r9
 1091              	.LVL134:
 348:..\..\..\lvgl\version_6.1.2\lvgl\src\lv_draw/lv_draw_basic.c ****         bitmask = bitmask_init >> col_bit;
 1092              		.loc 1 348 0
 1093 0236 8A42     		cmp	r2, r1
 333:..\..\..\lvgl\version_6.1.2\lvgl\src\lv_draw/lv_draw_basic.c **** 
ARM GAS  C:\Users\pearlstl\AppData\Local\Temp\ccmYHcOW.s 			page 45


 1094              		.loc 1 333 0
 1095 0238 06EBDC09 		add	r9, r6, ip, lsr #3
 1096              	.LVL135:
 338:..\..\..\lvgl\version_6.1.2\lvgl\src\lv_draw/lv_draw_basic.c **** 
 1097              		.loc 1 338 0
 1098 023c 0CF0070A 		and	r10, ip, #7
 1099              	.LVL136:
 348:..\..\..\lvgl\version_6.1.2\lvgl\src\lv_draw/lv_draw_basic.c ****         bitmask = bitmask_init >> col_bit;
 1100              		.loc 1 348 0
 1101 0240 BFF64AAF 		bge	.L46
 1102 0244 1599     		ldr	r1, [sp, #84]
 1103              	.LBB109:
 446:..\..\..\lvgl\version_6.1.2\lvgl\src\lv_draw/lv_draw_basic.c ****         else vdb_buf_tmp += vdb_width - (col_end - col_start);
 1104              		.loc 1 446 0
 1105 0246 154A     		ldr	r2, .L136+4
 1106 0248 109D     		ldr	r5, [sp, #64]
 447:..\..\..\lvgl\version_6.1.2\lvgl\src\lv_draw/lv_draw_basic.c ****     }
 1107              		.loc 1 447 0
 1108 024a 0794     		str	r4, [sp, #28]
 1109 024c C1EB0B01 		rsb	r1, r1, fp
 446:..\..\..\lvgl\version_6.1.2\lvgl\src\lv_draw/lv_draw_basic.c ****         else vdb_buf_tmp += vdb_width - (col_end - col_start);
 1110              		.loc 1 446 0
 1111 0250 82FB0102 		smull	r0, r2, r2, r1
 1112 0254 C2EBE172 		rsb	r2, r2, r1, asr #31
 1113 0258 2A44     		add	r2, r2, r5
 1114 025a 9200     		lsls	r2, r2, #2
 447:..\..\..\lvgl\version_6.1.2\lvgl\src\lv_draw/lv_draw_basic.c ****     }
 1115              		.loc 1 447 0
 1116 025c 691A     		subs	r1, r5, r1
 446:..\..\..\lvgl\version_6.1.2\lvgl\src\lv_draw/lv_draw_basic.c ****         else vdb_buf_tmp += vdb_width - (col_end - col_start);
 1117              		.loc 1 446 0
 1118 025e 1A92     		str	r2, [sp, #104]
 447:..\..\..\lvgl\version_6.1.2\lvgl\src\lv_draw/lv_draw_basic.c ****     }
 1119              		.loc 1 447 0
 1120 0260 5F46     		mov	r7, fp
 1121 0262 8A00     		lsls	r2, r1, #2
 1122 0264 DDF838B0 		ldr	fp, [sp, #56]
 1123              	.LVL137:
 1124 0268 1B92     		str	r2, [sp, #108]
 1125              	.LVL138:
 1126              	.L97:
 349:..\..\..\lvgl\version_6.1.2\lvgl\src\lv_draw/lv_draw_basic.c ****         uint8_t sub_px_cnt = 0;
 1127              		.loc 1 349 0
 1128 026a 0C9A     		ldr	r2, [sp, #48]
 351:..\..\..\lvgl\version_6.1.2\lvgl\src\lv_draw/lv_draw_basic.c ****             letter_px = (*map_p & bitmask) >> (8 - col_bit - g.bpp);
 1129              		.loc 1 351 0
 1130 026c 179C     		ldr	r4, [sp, #92]
 349:..\..\..\lvgl\version_6.1.2\lvgl\src\lv_draw/lv_draw_basic.c ****         uint8_t sub_px_cnt = 0;
 1131              		.loc 1 349 0
 1132 026e 42FA0AF5 		asr	r5, r2, r10
 351:..\..\..\lvgl\version_6.1.2\lvgl\src\lv_draw/lv_draw_basic.c ****             letter_px = (*map_p & bitmask) >> (8 - col_bit - g.bpp);
 1133              		.loc 1 351 0
 1134 0272 BC42     		cmp	r4, r7
 349:..\..\..\lvgl\version_6.1.2\lvgl\src\lv_draw/lv_draw_basic.c ****         uint8_t sub_px_cnt = 0;
 1135              		.loc 1 349 0
 1136 0274 EDB2     		uxtb	r5, r5
 1137              	.LVL139:
ARM GAS  C:\Users\pearlstl\AppData\Local\Temp\ccmYHcOW.s 			page 46


 351:..\..\..\lvgl\version_6.1.2\lvgl\src\lv_draw/lv_draw_basic.c ****             letter_px = (*map_p & bitmask) >> (8 - col_bit - g.bpp);
 1138              		.loc 1 351 0
 1139 0276 BFF614AF 		bge	.L74
 1140 027a BDF83420 		ldrh	r2, [sp, #52]
 1141 027e 0E92     		str	r2, [sp, #56]
 1142 0280 309A     		ldr	r2, [sp, #192]
 1143 0282 0597     		str	r7, [sp, #20]
 1144 0284 C2F30742 		ubfx	r2, r2, #16, #8
 1145 0288 1892     		str	r2, [sp, #96]
 1146 028a 309A     		ldr	r2, [sp, #192]
 1147 028c C2F30722 		ubfx	r2, r2, #8, #8
 1148 0290 0026     		movs	r6, #0
 1149 0292 1992     		str	r2, [sp, #100]
 1150 0294 3EE0     		b	.L94
 1151              	.L137:
 1152 0296 00BF     		.align	2
 1153              	.L136:
 1154 0298 00000000 		.word	.LANCHOR0
 1155 029c 56555555 		.word	1431655766
 1156              	.LVL140:
 1157              	.L134:
 356:..\..\..\lvgl\version_6.1.2\lvgl\src\lv_draw/lv_draw_basic.c ****                     if(opa == LV_OPA_COVER) {
 1158              		.loc 1 356 0
 1159 02a0 3AB3     		cbz	r2, .L76
 357:..\..\..\lvgl\version_6.1.2\lvgl\src\lv_draw/lv_draw_basic.c ****                         px_opa = g.bpp == 8 ? letter_px : bpp_opa_table[letter_px];
 1160              		.loc 1 357 0
 1161 02a2 0799     		ldr	r1, [sp, #28]
 1162 02a4 FF29     		cmp	r1, #255
 1163 02a6 00F0BE80 		beq	.L132
 360:..\..\..\lvgl\version_6.1.2\lvgl\src\lv_draw/lv_draw_basic.c ****                                 : (uint16_t)((uint16_t)bpp_opa_table[letter_px] * opa) >> 8;
 1164              		.loc 1 360 0
 1165 02aa 082B     		cmp	r3, #8
 1166 02ac 02D0     		beq	.L125
 360:..\..\..\lvgl\version_6.1.2\lvgl\src\lv_draw/lv_draw_basic.c ****                                 : (uint16_t)((uint16_t)bpp_opa_table[letter_px] * opa) >> 8;
 1167              		.loc 1 360 0 is_stmt 0 discriminator 2
 1168 02ae 0999     		ldr	r1, [sp, #36]
 1169 02b0 8A5C     		ldrb	r2, [r1, r2]	@ zero_extendqisi2
 1170              	.LVL141:
 1171 02b2 0799     		ldr	r1, [sp, #28]
 1172              	.L125:
 1173 02b4 02FB01F2 		mul	r2, r2, r1
 1174 02b8 C2F30722 		ubfx	r2, r2, #8, #8
 1175              	.L78:
 1176              	.LVL142:
 364:..\..\..\lvgl\version_6.1.2\lvgl\src\lv_draw/lv_draw_basic.c ****                         disp->driver.set_px_cb(&disp->driver, (uint8_t *)vdb->buf_act, vdb_width,
 1177              		.loc 1 364 0 is_stmt 1
 1178 02bc 0B99     		ldr	r1, [sp, #44]
 1179 02be 4F69     		ldr	r7, [r1, #20]
 1180 02c0 002F     		cmp	r7, #0
 1181 02c2 00F0A380 		beq	.L80
 365:..\..\..\lvgl\version_6.1.2\lvgl\src\lv_draw/lv_draw_basic.c ****                                 (col + pos_x) - vdb->area.x1, (row + pos_y) - vdb->area.y1, color, 
 1182              		.loc 1 365 0
 1183 02c6 1198     		ldr	r0, [sp, #68]
 1184 02c8 038A     		ldrh	r3, [r0, #16]
 1185              	.LVL143:
 1186 02ca 8168     		ldr	r1, [r0, #8]
 1187 02cc 0292     		str	r2, [sp, #8]
ARM GAS  C:\Users\pearlstl\AppData\Local\Temp\ccmYHcOW.s 			page 47


 1188 02ce 309A     		ldr	r2, [sp, #192]
 1189              	.LVL144:
 1190 02d0 0192     		str	r2, [sp, #4]
 1191 02d2 428A     		ldrh	r2, [r0, #18]
 1192 02d4 0F98     		ldr	r0, [sp, #60]
 1193 02d6 821A     		subs	r2, r0, r2
 1194 02d8 0A98     		ldr	r0, [sp, #40]
 1195 02da C31A     		subs	r3, r0, r3
 1196 02dc 0E98     		ldr	r0, [sp, #56]
 1197 02de 0244     		add	r2, r2, r0
 1198 02e0 12B2     		sxth	r2, r2
 1199 02e2 2344     		add	r3, r3, r4
 1200 02e4 1BB2     		sxth	r3, r3
 1201 02e6 0092     		str	r2, [sp]
 1202 02e8 0B98     		ldr	r0, [sp, #44]
 1203 02ea 109A     		ldr	r2, [sp, #64]
 1204 02ec B847     		blx	r7
 1205              	.LVL145:
 1206 02ee 9DF88630 		ldrb	r3, [sp, #134]	@ zero_extendqisi2
 1207              	.LVL146:
 1208              	.L76:
 381:..\..\..\lvgl\version_6.1.2\lvgl\src\lv_draw/lv_draw_basic.c ****             }
 1209              		.loc 1 381 0
 1210 02f2 08F10408 		add	r8, r8, #4
 1211              	.LVL147:
 1212              	.L82:
 430:..\..\..\lvgl\version_6.1.2\lvgl\src\lv_draw/lv_draw_basic.c ****                 col_bit += g.bpp;
 1213              		.loc 1 430 0
 1214 02f6 C3F10802 		rsb	r2, r3, #8
 1215 02fa 9245     		cmp	r10, r2
 1216 02fc 48DA     		bge	.L92
 431:..\..\..\lvgl\version_6.1.2\lvgl\src\lv_draw/lv_draw_basic.c ****                 bitmask = bitmask >> g.bpp;
 1217              		.loc 1 431 0
 1218 02fe 9A44     		add	r10, r10, r3
 1219              	.LVL148:
 432:..\..\..\lvgl\version_6.1.2\lvgl\src\lv_draw/lv_draw_basic.c ****             } else {
 1220              		.loc 1 432 0
 1221 0300 1D41     		asrs	r5, r5, r3
 1222              	.LVL149:
 431:..\..\..\lvgl\version_6.1.2\lvgl\src\lv_draw/lv_draw_basic.c ****                 bitmask = bitmask >> g.bpp;
 1223              		.loc 1 431 0
 1224 0302 1FFA8AFA 		uxth	r10, r10
 1225              	.LVL150:
 432:..\..\..\lvgl\version_6.1.2\lvgl\src\lv_draw/lv_draw_basic.c ****             } else {
 1226              		.loc 1 432 0
 1227 0306 EDB2     		uxtb	r5, r5
 1228              	.LVL151:
 1229              	.L93:
 1230 0308 0134     		adds	r4, r4, #1
 1231              	.LVL152:
 351:..\..\..\lvgl\version_6.1.2\lvgl\src\lv_draw/lv_draw_basic.c ****             letter_px = (*map_p & bitmask) >> (8 - col_bit - g.bpp);
 1232              		.loc 1 351 0 discriminator 2
 1233 030a 059A     		ldr	r2, [sp, #20]
 1234 030c 24B2     		sxth	r4, r4
 1235              	.LVL153:
 1236 030e A242     		cmp	r2, r4
 1237 0310 7FF7C4AE 		ble	.L133
ARM GAS  C:\Users\pearlstl\AppData\Local\Temp\ccmYHcOW.s 			page 48


 1238              	.LVL154:
 1239              	.L94:
 352:..\..\..\lvgl\version_6.1.2\lvgl\src\lv_draw/lv_draw_basic.c **** 
 1240              		.loc 1 352 0
 1241 0314 99F80010 		ldrb	r1, [r9]	@ zero_extendqisi2
 1242 0318 CAF10802 		rsb	r2, r10, #8
 1243 031c 2940     		ands	r1, r1, r5
 1244 031e D21A     		subs	r2, r2, r3
 1245 0320 41FA02F2 		asr	r2, r1, r2
 355:..\..\..\lvgl\version_6.1.2\lvgl\src\lv_draw/lv_draw_basic.c ****                 if(letter_px != 0) {
 1246              		.loc 1 355 0
 1247 0324 0699     		ldr	r1, [sp, #24]
 352:..\..\..\lvgl\version_6.1.2\lvgl\src\lv_draw/lv_draw_basic.c **** 
 1248              		.loc 1 352 0
 1249 0326 D2B2     		uxtb	r2, r2
 1250              	.LVL155:
 355:..\..\..\lvgl\version_6.1.2\lvgl\src\lv_draw/lv_draw_basic.c ****                 if(letter_px != 0) {
 1251              		.loc 1 355 0
 1252 0328 0029     		cmp	r1, #0
 1253 032a B9D0     		beq	.L134
 385:..\..\..\lvgl\version_6.1.2\lvgl\src\lv_draw/lv_draw_basic.c ****                     if(opa == LV_OPA_COVER) {
 1254              		.loc 1 385 0
 1255 032c 5AB1     		cbz	r2, .L83
 386:..\..\..\lvgl\version_6.1.2\lvgl\src\lv_draw/lv_draw_basic.c ****                         px_opa = g.bpp == 8 ? letter_px : bpp_opa_table[letter_px];
 1256              		.loc 1 386 0
 1257 032e 0799     		ldr	r1, [sp, #28]
 1258 0330 FF29     		cmp	r1, #255
 1259 0332 7ED0     		beq	.L135
 389:..\..\..\lvgl\version_6.1.2\lvgl\src\lv_draw/lv_draw_basic.c ****                                 : (uint16_t)((uint16_t)bpp_opa_table[letter_px] * opa) >> 8;
 1260              		.loc 1 389 0
 1261 0334 082B     		cmp	r3, #8
 1262 0336 02D0     		beq	.L126
 389:..\..\..\lvgl\version_6.1.2\lvgl\src\lv_draw/lv_draw_basic.c ****                                 : (uint16_t)((uint16_t)bpp_opa_table[letter_px] * opa) >> 8;
 1263              		.loc 1 389 0 is_stmt 0 discriminator 2
 1264 0338 0999     		ldr	r1, [sp, #36]
 1265 033a 8A5C     		ldrb	r2, [r1, r2]	@ zero_extendqisi2
 1266              	.LVL156:
 1267 033c 0799     		ldr	r1, [sp, #28]
 1268              	.L126:
 1269 033e 02FB01F2 		mul	r2, r2, r1
 1270 0342 C2F30722 		ubfx	r2, r2, #8, #8
 1271              	.LVL157:
 1272              	.L83:
 395:..\..\..\lvgl\version_6.1.2\lvgl\src\lv_draw/lv_draw_basic.c ****                 }
 1273              		.loc 1 395 0 is_stmt 1
 1274 0346 26A9     		add	r1, sp, #152
 1275 0348 3144     		add	r1, r1, r6
 397:..\..\..\lvgl\version_6.1.2\lvgl\src\lv_draw/lv_draw_basic.c **** 
 1276              		.loc 1 397 0
 1277 034a 0136     		adds	r6, r6, #1
 1278              	.LVL158:
 1279 034c F6B2     		uxtb	r6, r6
 1280              	.LVL159:
 399:..\..\..\lvgl\version_6.1.2\lvgl\src\lv_draw/lv_draw_basic.c ****                     lv_color_t res_color;
 1281              		.loc 1 399 0
 1282 034e 032E     		cmp	r6, #3
 395:..\..\..\lvgl\version_6.1.2\lvgl\src\lv_draw/lv_draw_basic.c ****                 }
ARM GAS  C:\Users\pearlstl\AppData\Local\Temp\ccmYHcOW.s 			page 49


 1283              		.loc 1 395 0
 1284 0350 01F8202C 		strb	r2, [r1, #-32]
 399:..\..\..\lvgl\version_6.1.2\lvgl\src\lv_draw/lv_draw_basic.c ****                     lv_color_t res_color;
 1285              		.loc 1 399 0
 1286 0354 CFD1     		bne	.L82
 1287              	.LBB96:
 402:..\..\..\lvgl\version_6.1.2\lvgl\src\lv_draw/lv_draw_basic.c ****                         res_color = *vdb_buf_tmp;
 1288              		.loc 1 402 0
 1289 0356 9DF87830 		ldrb	r3, [sp, #120]	@ zero_extendqisi2
 1290              	.LVL160:
 1291 035a FBB9     		cbnz	r3, .L88
 402:..\..\..\lvgl\version_6.1.2\lvgl\src\lv_draw/lv_draw_basic.c ****                         res_color = *vdb_buf_tmp;
 1292              		.loc 1 402 0 is_stmt 0 discriminator 1
 1293 035c 9DF87910 		ldrb	r1, [sp, #121]	@ zero_extendqisi2
 1294 0360 9DF87A00 		ldrb	r0, [sp, #122]	@ zero_extendqisi2
 1295 0364 F1B9     		cbnz	r1, .L90
 402:..\..\..\lvgl\version_6.1.2\lvgl\src\lv_draw/lv_draw_basic.c ****                         res_color = *vdb_buf_tmp;
 1296              		.loc 1 402 0 discriminator 2
 1297 0366 E8B9     		cbnz	r0, .L90
 403:..\..\..\lvgl\version_6.1.2\lvgl\src\lv_draw/lv_draw_basic.c ****                     } else {
 1298              		.loc 1 403 0 is_stmt 1
 1299 0368 D8F800B0 		ldr	fp, [r8]
 1300              	.LVL161:
 1301              	.L91:
 418:..\..\..\lvgl\version_6.1.2\lvgl\src\lv_draw/lv_draw_basic.c **** #if LV_COLOR_DEPTH == 32 && LV_COLOR_SCREEN_TRANSP
 1302              		.loc 1 418 0
 1303 036c 48F804BB 		str	fp, [r8], #4
 1304              	.LVL162:
 424:..\..\..\lvgl\version_6.1.2\lvgl\src\lv_draw/lv_draw_basic.c ****                     vdb_buf_tmp++;
 1305              		.loc 1 424 0
 1306 0370 0026     		movs	r6, #0
 1307 0372 9DF88630 		ldrb	r3, [sp, #134]	@ zero_extendqisi2
 1308 0376 BEE7     		b	.L82
 1309              	.LVL163:
 1310              	.L55:
 1311              	.LBE96:
 1312              	.LBE109:
 282:..\..\..\lvgl\version_6.1.2\lvgl\src\lv_draw/lv_draw_basic.c ****         default: return; /*Invalid bpp. Can't render the letter*/
 1313              		.loc 1 282 0
 1314 0378 FF23     		movs	r3, #255
 1315 037a 0C93     		str	r3, [sp, #48]
 281:..\..\..\lvgl\version_6.1.2\lvgl\src\lv_draw/lv_draw_basic.c ****             break;       /*No opa table, pixel value will be used directly*/
 1316              		.loc 1 281 0
 1317 037c 0893     		str	r3, [sp, #32]
 280:..\..\..\lvgl\version_6.1.2\lvgl\src\lv_draw/lv_draw_basic.c ****             bitmask_init  = 0xFF;
 1318              		.loc 1 280 0
 1319 037e 0023     		movs	r3, #0
 1320 0380 0993     		str	r3, [sp, #36]
 282:..\..\..\lvgl\version_6.1.2\lvgl\src\lv_draw/lv_draw_basic.c ****         default: return; /*Invalid bpp. Can't render the letter*/
 1321              		.loc 1 282 0
 1322 0382 B1E6     		b	.L54
 1323              	.LVL164:
 1324              	.L52:
 266:..\..\..\lvgl\version_6.1.2\lvgl\src\lv_draw/lv_draw_basic.c ****         case 1:
 1325              		.loc 1 266 0
 1326 0384 8023     		movs	r3, #128
 1327 0386 0C93     		str	r3, [sp, #48]
ARM GAS  C:\Users\pearlstl\AppData\Local\Temp\ccmYHcOW.s 			page 50


 269:..\..\..\lvgl\version_6.1.2\lvgl\src\lv_draw/lv_draw_basic.c ****             break;
 1328              		.loc 1 269 0
 1329 0388 0893     		str	r3, [sp, #32]
 268:..\..\..\lvgl\version_6.1.2\lvgl\src\lv_draw/lv_draw_basic.c ****             bitmask_init  = 0x80;
 1330              		.loc 1 268 0
 1331 038a 1DAB     		add	r3, sp, #116
 1332 038c 0993     		str	r3, [sp, #36]
 1333 038e ABE6     		b	.L54
 1334              	.LVL165:
 1335              	.L92:
 1336              	.LBB110:
 436:..\..\..\lvgl\version_6.1.2\lvgl\src\lv_draw/lv_draw_basic.c ****             }
 1337              		.loc 1 436 0
 1338 0390 09F10109 		add	r9, r9, #1
 1339              	.LVL166:
 435:..\..\..\lvgl\version_6.1.2\lvgl\src\lv_draw/lv_draw_basic.c ****                 map_p++;
 1340              		.loc 1 435 0
 1341 0394 089D     		ldr	r5, [sp, #32]
 434:..\..\..\lvgl\version_6.1.2\lvgl\src\lv_draw/lv_draw_basic.c ****                 bitmask = bitmask_init;
 1342              		.loc 1 434 0
 1343 0396 4FF0000A 		mov	r10, #0
 1344 039a B5E7     		b	.L93
 1345              	.LVL167:
 1346              	.L88:
 1347 039c 9DF87A00 		ldrb	r0, [sp, #122]	@ zero_extendqisi2
 1348 03a0 9DF87910 		ldrb	r1, [sp, #121]	@ zero_extendqisi2
 1349              	.L90:
 1350              	.LVL168:
 1351              	.LBB98:
 1352              	.LBB97:
 412:..\..\..\lvgl\version_6.1.2\lvgl\src\lv_draw/lv_draw_basic.c ****                         LV_COLOR_SET_B(res_color, (uint16_t)((uint16_t)txt_rgb[2] * font_rgb[2] + (
 1353              		.loc 1 412 0
 1354 03a4 BDF84CE0 		ldrh	lr, [sp, #76]
 1355 03a8 98F80270 		ldrb	r7, [r8, #2]	@ zero_extendqisi2
 406:..\..\..\lvgl\version_6.1.2\lvgl\src\lv_draw/lv_draw_basic.c **** 
 1356              		.loc 1 406 0
 1357 03ac 98F80020 		ldrb	r2, [r8]	@ zero_extendqisi2
 412:..\..\..\lvgl\version_6.1.2\lvgl\src\lv_draw/lv_draw_basic.c ****                         LV_COLOR_SET_B(res_color, (uint16_t)((uint16_t)txt_rgb[2] * font_rgb[2] + (
 1358              		.loc 1 412 0
 1359 03b0 C3F1FF06 		rsb	r6, r3, #255
 1360              	.LVL169:
 1361 03b4 1EFB03F3 		smulbb	r3, lr, r3
 1362 03b8 07FB0633 		mla	r3, r7, r6, r3
 413:..\..\..\lvgl\version_6.1.2\lvgl\src\lv_draw/lv_draw_basic.c **** #endif
 1363              		.loc 1 413 0
 1364 03bc BDF84860 		ldrh	r6, [sp, #72]
 1365 03c0 C0F1FF07 		rsb	r7, r0, #255
 1366 03c4 16FB00F0 		smulbb	r0, r6, r0
 1367 03c8 07FB0202 		mla	r2, r7, r2, r0
 415:..\..\..\lvgl\version_6.1.2\lvgl\src\lv_draw/lv_draw_basic.c ****                     }
 1368              		.loc 1 415 0
 1369 03cc BDF85000 		ldrh	r0, [sp, #80]
 406:..\..\..\lvgl\version_6.1.2\lvgl\src\lv_draw/lv_draw_basic.c **** 
 1370              		.loc 1 406 0
 1371 03d0 98F80160 		ldrb	r6, [r8, #1]	@ zero_extendqisi2
 1372              	.LVL170:
 412:..\..\..\lvgl\version_6.1.2\lvgl\src\lv_draw/lv_draw_basic.c ****                         LV_COLOR_SET_B(res_color, (uint16_t)((uint16_t)txt_rgb[2] * font_rgb[2] + (
ARM GAS  C:\Users\pearlstl\AppData\Local\Temp\ccmYHcOW.s 			page 51


 1373              		.loc 1 412 0
 1374 03d4 C3F3072E 		ubfx	lr, r3, #8, #8
 415:..\..\..\lvgl\version_6.1.2\lvgl\src\lv_draw/lv_draw_basic.c ****                     }
 1375              		.loc 1 415 0
 1376 03d8 C1F1FF03 		rsb	r3, r1, #255
 1377 03dc 10FB01F1 		smulbb	r1, r0, r1
 412:..\..\..\lvgl\version_6.1.2\lvgl\src\lv_draw/lv_draw_basic.c ****                         LV_COLOR_SET_B(res_color, (uint16_t)((uint16_t)txt_rgb[2] * font_rgb[2] + (
 1378              		.loc 1 412 0
 1379 03e0 6EF3174B 		bfi	fp, lr, #16, #8
 413:..\..\..\lvgl\version_6.1.2\lvgl\src\lv_draw/lv_draw_basic.c **** #endif
 1380              		.loc 1 413 0
 1381 03e4 C2F30722 		ubfx	r2, r2, #8, #8
 415:..\..\..\lvgl\version_6.1.2\lvgl\src\lv_draw/lv_draw_basic.c ****                     }
 1382              		.loc 1 415 0
 1383 03e8 03FB0613 		mla	r3, r3, r6, r1
 413:..\..\..\lvgl\version_6.1.2\lvgl\src\lv_draw/lv_draw_basic.c **** #endif
 1384              		.loc 1 413 0
 1385 03ec 62F3070B 		bfi	fp, r2, #0, #8
 415:..\..\..\lvgl\version_6.1.2\lvgl\src\lv_draw/lv_draw_basic.c ****                     }
 1386              		.loc 1 415 0
 1387 03f0 C3F30723 		ubfx	r3, r3, #8, #8
 1388 03f4 63F30F2B 		bfi	fp, r3, #8, #8
 1389 03f8 B8E7     		b	.L91
 1390              	.LVL171:
 1391              	.L131:
 1392              	.LBE97:
 1393              	.LBE98:
 1394              	.LBE110:
 264:..\..\..\lvgl\version_6.1.2\lvgl\src\lv_draw/lv_draw_basic.c **** 
 1395              		.loc 1 264 0 discriminator 1
 1396 03fa 0421     		movs	r1, #4
 1397 03fc 8DF88610 		strb	r1, [sp, #134]
 1398              	.L50:
 1399              	.LVL172:
 278:..\..\..\lvgl\version_6.1.2\lvgl\src\lv_draw/lv_draw_basic.c ****         case 8:
 1400              		.loc 1 278 0
 1401 0400 F023     		movs	r3, #240
 276:..\..\..\lvgl\version_6.1.2\lvgl\src\lv_draw/lv_draw_basic.c ****             bitmask_init  = 0xF0;
 1402              		.loc 1 276 0
 1403 0402 22AA     		add	r2, sp, #136
 1404              	.LVL173:
 278:..\..\..\lvgl\version_6.1.2\lvgl\src\lv_draw/lv_draw_basic.c ****         case 8:
 1405              		.loc 1 278 0
 1406 0404 0C93     		str	r3, [sp, #48]
 276:..\..\..\lvgl\version_6.1.2\lvgl\src\lv_draw/lv_draw_basic.c ****             bitmask_init  = 0xF0;
 1407              		.loc 1 276 0
 1408 0406 0992     		str	r2, [sp, #36]
 277:..\..\..\lvgl\version_6.1.2\lvgl\src\lv_draw/lv_draw_basic.c ****             break;
 1409              		.loc 1 277 0
 1410 0408 0893     		str	r3, [sp, #32]
 278:..\..\..\lvgl\version_6.1.2\lvgl\src\lv_draw/lv_draw_basic.c ****         case 8:
 1411              		.loc 1 278 0
 1412 040a 6DE6     		b	.L54
 1413              	.LVL174:
 1414              	.L80:
 1415              	.LBB111:
 367:..\..\..\lvgl\version_6.1.2\lvgl\src\lv_draw/lv_draw_basic.c ****                         if(px_opa > LV_OPA_MAX) {
ARM GAS  C:\Users\pearlstl\AppData\Local\Temp\ccmYHcOW.s 			page 52


 1416              		.loc 1 367 0
 1417 040c D8F80010 		ldr	r1, [r8]
 1418 0410 3098     		ldr	r0, [sp, #192]
 1419 0412 8142     		cmp	r1, r0
 1420 0414 3FF46DAF 		beq	.L76
 368:..\..\..\lvgl\version_6.1.2\lvgl\src\lv_draw/lv_draw_basic.c ****                             *vdb_buf_tmp = color;
 1421              		.loc 1 368 0
 1422 0418 FB2A     		cmp	r2, #251
 1423 041a 12D9     		bls	.L81
 369:..\..\..\lvgl\version_6.1.2\lvgl\src\lv_draw/lv_draw_basic.c ****                         } else if(px_opa > LV_OPA_MIN) {
 1424              		.loc 1 369 0
 1425 041c C8F80000 		str	r0, [r8]
 1426              	.LVL175:
 1427 0420 9DF88630 		ldrb	r3, [sp, #134]	@ zero_extendqisi2
 1428 0424 65E7     		b	.L76
 1429              	.LVL176:
 1430              	.L132:
 358:..\..\..\lvgl\version_6.1.2\lvgl\src\lv_draw/lv_draw_basic.c ****                     } else {
 1431              		.loc 1 358 0
 1432 0426 082B     		cmp	r3, #8
 1433 0428 3FF448AF 		beq	.L78
 358:..\..\..\lvgl\version_6.1.2\lvgl\src\lv_draw/lv_draw_basic.c ****                     } else {
 1434              		.loc 1 358 0 is_stmt 0 discriminator 1
 1435 042c 0999     		ldr	r1, [sp, #36]
 1436 042e 8A5C     		ldrb	r2, [r1, r2]	@ zero_extendqisi2
 1437              	.LVL177:
 1438 0430 44E7     		b	.L78
 1439              	.LVL178:
 1440              	.L135:
 387:..\..\..\lvgl\version_6.1.2\lvgl\src\lv_draw/lv_draw_basic.c ****                     } else {
 1441              		.loc 1 387 0 is_stmt 1
 1442 0432 082B     		cmp	r3, #8
 1443 0434 87D0     		beq	.L83
 387:..\..\..\lvgl\version_6.1.2\lvgl\src\lv_draw/lv_draw_basic.c ****                     } else {
 1444              		.loc 1 387 0 is_stmt 0 discriminator 1
 1445 0436 0999     		ldr	r1, [sp, #36]
 1446 0438 8A5C     		ldrb	r2, [r1, r2]	@ zero_extendqisi2
 1447              	.LVL179:
 1448 043a 84E7     		b	.L83
 1449              	.LVL180:
 1450              	.L95:
 447:..\..\..\lvgl\version_6.1.2\lvgl\src\lv_draw/lv_draw_basic.c ****     }
 1451              		.loc 1 447 0 is_stmt 1
 1452 043c 1B9A     		ldr	r2, [sp, #108]
 1453 043e 9044     		add	r8, r8, r2
 1454              	.LVL181:
 1455 0440 42E6     		b	.L96
 1456              	.LVL182:
 1457              	.L81:
 370:..\..\..\lvgl\version_6.1.2\lvgl\src\lv_draw/lv_draw_basic.c ****                             if(scr_transp == false) {
 1458              		.loc 1 370 0
 1459 0442 102A     		cmp	r2, #16
 1460 0444 7FF655AF 		bls	.L76
 1461              	.LVL183:
 372:..\..\..\lvgl\version_6.1.2\lvgl\src\lv_draw/lv_draw_basic.c ****                             } else {
 1462              		.loc 1 372 0
 1463 0448 98F80070 		ldrb	r7, [r8]	@ zero_extendqisi2
ARM GAS  C:\Users\pearlstl\AppData\Local\Temp\ccmYHcOW.s 			page 53


 1464              	.LBB99:
 1465              	.LBB100:
 437:..\..\..\lvgl\version_6.1.2\lvgl\src\lv_draw\../lv_misc/lv_color.h ****     LV_COLOR_SET_G(ret, (uint16_t)((uint16_t) LV_COLOR_GET_G(c1) * mix + LV_COLOR_GET_G(c2) * (255 
 1466              		.loc 3 437 0
 1467 044c 98F80200 		ldrb	r0, [r8, #2]	@ zero_extendqisi2
 438:..\..\..\lvgl\version_6.1.2\lvgl\src\lv_draw\../lv_misc/lv_color.h ****     LV_COLOR_SET_B(ret, (uint16_t)((uint16_t) LV_COLOR_GET_B(c1) * mix + LV_COLOR_GET_B(c2) * (255 
 1468              		.loc 3 438 0
 1469 0450 98F80110 		ldrb	r1, [r8, #1]	@ zero_extendqisi2
 437:..\..\..\lvgl\version_6.1.2\lvgl\src\lv_draw\../lv_misc/lv_color.h ****     LV_COLOR_SET_G(ret, (uint16_t)((uint16_t) LV_COLOR_GET_G(c1) * mix + LV_COLOR_GET_G(c2) * (255 
 1470              		.loc 3 437 0
 1471 0454 C2F1FF03 		rsb	r3, r2, #255
 1472              	.LVL184:
 1473 0458 9BB2     		uxth	r3, r3
 1474 045a 10FB03F0 		smulbb	r0, r0, r3
 438:..\..\..\lvgl\version_6.1.2\lvgl\src\lv_draw\../lv_misc/lv_color.h ****     LV_COLOR_SET_B(ret, (uint16_t)((uint16_t) LV_COLOR_GET_B(c1) * mix + LV_COLOR_GET_B(c2) * (255 
 1475              		.loc 3 438 0
 1476 045e 11FB03F1 		smulbb	r1, r1, r3
 1477              	.LBE100:
 1478              	.LBE99:
 372:..\..\..\lvgl\version_6.1.2\lvgl\src\lv_draw/lv_draw_basic.c ****                             } else {
 1479              		.loc 1 372 0
 1480 0462 17FB03F3 		smulbb	r3, r7, r3
 1481              	.LBB103:
 1482              	.LBB101:
 437:..\..\..\lvgl\version_6.1.2\lvgl\src\lv_draw\../lv_misc/lv_color.h ****     LV_COLOR_SET_G(ret, (uint16_t)((uint16_t) LV_COLOR_GET_G(c1) * mix + LV_COLOR_GET_G(c2) * (255 
 1483              		.loc 3 437 0
 1484 0466 189F     		ldr	r7, [sp, #96]
 1485 0468 02FB0700 		mla	r0, r2, r7, r0
 438:..\..\..\lvgl\version_6.1.2\lvgl\src\lv_draw\../lv_misc/lv_color.h ****     LV_COLOR_SET_B(ret, (uint16_t)((uint16_t) LV_COLOR_GET_B(c1) * mix + LV_COLOR_GET_B(c2) * (255 
 1486              		.loc 3 438 0
 1487 046c 199F     		ldr	r7, [sp, #100]
 1488 046e 02FB0711 		mla	r1, r2, r7, r1
 1489              	.LBE101:
 1490              	.LBE103:
 372:..\..\..\lvgl\version_6.1.2\lvgl\src\lv_draw/lv_draw_basic.c ****                             } else {
 1491              		.loc 1 372 0
 1492 0472 129F     		ldr	r7, [sp, #72]
 1493              	.LVL185:
 1494 0474 07FB0233 		mla	r3, r7, r2, r3
 1495 0478 C3F30723 		ubfx	r3, r3, #8, #8
 1496              	.LBB104:
 1497              	.LBB102:
 438:..\..\..\lvgl\version_6.1.2\lvgl\src\lv_draw\../lv_misc/lv_color.h ****     LV_COLOR_SET_B(ret, (uint16_t)((uint16_t) LV_COLOR_GET_B(c1) * mix + LV_COLOR_GET_B(c2) * (255 
 1498              		.loc 3 438 0
 1499 047c C1F30722 		ubfx	r2, r1, #8, #8
 1500              	.LVL186:
 437:..\..\..\lvgl\version_6.1.2\lvgl\src\lv_draw\../lv_misc/lv_color.h ****     LV_COLOR_SET_G(ret, (uint16_t)((uint16_t) LV_COLOR_GET_G(c1) * mix + LV_COLOR_GET_G(c2) * (255 
 1501              		.loc 3 437 0
 1502 0480 C0F30720 		ubfx	r0, r0, #8, #8
 1503              	.LVL187:
 1504              	.LBE102:
 1505              	.LBE104:
 372:..\..\..\lvgl\version_6.1.2\lvgl\src\lv_draw/lv_draw_basic.c ****                             } else {
 1506              		.loc 1 372 0
 1507 0484 FF21     		movs	r1, #255
 1508 0486 88F80200 		strb	r0, [r8, #2]
 1509 048a 88F80120 		strb	r2, [r8, #1]
ARM GAS  C:\Users\pearlstl\AppData\Local\Temp\ccmYHcOW.s 			page 54


 1510 048e 88F80030 		strb	r3, [r8]
 1511 0492 88F80310 		strb	r1, [r8, #3]
 1512 0496 9DF88630 		ldrb	r3, [sp, #134]	@ zero_extendqisi2
 1513 049a 2AE7     		b	.L76
 1514              	.LVL188:
 1515              	.L70:
 1516              	.LBE111:
 329:..\..\..\lvgl\version_6.1.2\lvgl\src\lv_draw/lv_draw_basic.c **** 
 1517              		.loc 1 329 0
 1518 049c 0799     		ldr	r1, [sp, #28]
 1519 049e 1598     		ldr	r0, [sp, #84]
 1520 04a0 0144     		add	r1, r1, r0
 1521 04a2 02EB8108 		add	r8, r2, r1, lsl #2
 1522              	.LVL189:
 1523 04a6 B8E6     		b	.L71
 1524              	.LVL190:
 1525              	.L67:
 320:..\..\..\lvgl\version_6.1.2\lvgl\src\lv_draw/lv_draw_basic.c ****         row_end   = pos_y + g.box_h <= mask_p->y2 ? g.box_h : mask_p->y2 - pos_y + 1;
 1526              		.loc 1 320 0 discriminator 1
 1527 04a8 0F98     		ldr	r0, [sp, #60]
 1528 04aa 091A     		subs	r1, r1, r0
 1529 04ac 1098     		ldr	r0, [sp, #64]
 1530 04ae 09B2     		sxth	r1, r1
 1531 04b0 0D91     		str	r1, [sp, #52]
 1532 04b2 0CFB01FC 		mul	ip, ip, r1
 1533              	.LVL191:
 1534 04b6 01FB00F1 		mul	r1, r1, r0
 1535 04ba 0791     		str	r1, [sp, #28]
 1536 04bc 85E6     		b	.L68
 1537              	.LVL192:
 1538              	.L130:
 319:..\..\..\lvgl\version_6.1.2\lvgl\src\lv_draw/lv_draw_basic.c ****         row_start = pos_y >= mask_p->y1 ? 0 : mask_p->y1 - pos_y;
 1539              		.loc 1 319 0 discriminator 1
 1540 04be 0FFA8EFB 		sxth	fp, lr
 1541 04c2 77E6     		b	.L66
 1542              	.LVL193:
 1543              	.L56:
 318:..\..\..\lvgl\version_6.1.2\lvgl\src\lv_draw/lv_draw_basic.c ****         col_end   = pos_x + g.box_w / 3 <= mask_p->x2 ? g.box_w : (mask_p->x2 - pos_x + 1) * 3;
 1544              		.loc 1 318 0
 1545 04c4 8A42     		cmp	r2, r1
 1546 04c6 1CDA     		bge	.L102
 318:..\..\..\lvgl\version_6.1.2\lvgl\src\lv_draw/lv_draw_basic.c ****         col_end   = pos_x + g.box_w / 3 <= mask_p->x2 ? g.box_w : (mask_p->x2 - pos_x + 1) * 3;
 1547              		.loc 1 318 0 is_stmt 0 discriminator 1
 1548 04c8 891A     		subs	r1, r1, r2
 1549 04ca 01EB4101 		add	r1, r1, r1, lsl #1
 1550 04ce 09B2     		sxth	r1, r1
 1551 04d0 1791     		str	r1, [sp, #92]
 1552 04d2 1591     		str	r1, [sp, #84]
 1553 04d4 13FB01F9 		smulbb	r9, r3, r1
 1554              	.L64:
 1555              	.LVL194:
 319:..\..\..\lvgl\version_6.1.2\lvgl\src\lv_draw/lv_draw_basic.c ****         row_start = pos_y >= mask_p->y1 ? 0 : mask_p->y1 - pos_y;
 1556              		.loc 1 319 0 is_stmt 1 discriminator 4
 1557 04d8 0D48     		ldr	r0, .L138
 1558              	.LVL195:
 1559 04da BAF90410 		ldrsh	r1, [r10, #4]
 1560 04de A0FB0E50 		umull	r5, r0, r0, lr
ARM GAS  C:\Users\pearlstl\AppData\Local\Temp\ccmYHcOW.s 			page 55


 1561              	.LVL196:
 1562 04e2 02EB5000 		add	r0, r2, r0, lsr #1
 1563 04e6 8842     		cmp	r0, r1
 1564 04e8 E9DD     		ble	.L130
 319:..\..\..\lvgl\version_6.1.2\lvgl\src\lv_draw/lv_draw_basic.c ****         row_start = pos_y >= mask_p->y1 ? 0 : mask_p->y1 - pos_y;
 1565              		.loc 1 319 0 is_stmt 0 discriminator 2
 1566 04ea 891A     		subs	r1, r1, r2
 1567 04ec 0131     		adds	r1, r1, #1
 1568 04ee 01EB4101 		add	r1, r1, r1, lsl #1
 1569 04f2 0FFA81FB 		sxth	fp, r1
 1570 04f6 5DE6     		b	.L66
 1571              	.LVL197:
 1572              	.L101:
 1573 04f8 0699     		ldr	r1, [sp, #24]
 1574 04fa 1591     		str	r1, [sp, #84]
 1575 04fc 8946     		mov	r9, r1
 313:..\..\..\lvgl\version_6.1.2\lvgl\src\lv_draw/lv_draw_basic.c ****         col_end   = pos_x + g.box_w <= mask_p->x2 ? g.box_w : mask_p->x2 - pos_x + 1;
 1576              		.loc 1 313 0 is_stmt 1
 1577 04fe 1791     		str	r1, [sp, #92]
 1578 0500 4CE6     		b	.L57
 1579              	.L102:
 1580 0502 4FF00009 		mov	r9, #0
 1581 0506 CDF85490 		str	r9, [sp, #84]
 318:..\..\..\lvgl\version_6.1.2\lvgl\src\lv_draw/lv_draw_basic.c ****         col_end   = pos_x + g.box_w / 3 <= mask_p->x2 ? g.box_w : (mask_p->x2 - pos_x + 1) * 3;
 1582              		.loc 1 318 0
 1583 050a CDF85C90 		str	r9, [sp, #92]
 1584 050e E3E7     		b	.L64
 1585              	.L139:
 1586              		.align	2
 1587              	.L138:
 1588 0510 ABAAAAAA 		.word	-1431655765
 1589              		.cfi_endproc
 1590              	.LFE33:
 1591              		.size	lv_draw_letter, .-lv_draw_letter
 1592              		.section	.text.lv_draw_map,"ax",%progbits
 1593              		.align	2
 1594              		.global	lv_draw_map
 1595              		.thumb
 1596              		.thumb_func
 1597              		.type	lv_draw_map, %function
 1598              	lv_draw_map:
 1599              	.LFB34:
 464:..\..\..\lvgl\version_6.1.2\lvgl\src\lv_draw/lv_draw_basic.c **** 
 1600              		.loc 1 464 0
 1601              		.cfi_startproc
 1602              		@ args = 16, pretend = 0, frame = 72
 1603              		@ frame_needed = 0, uses_anonymous_args = 0
 1604              	.LVL198:
 1605 0000 2DE9F04F 		push	{r4, r5, r6, r7, r8, r9, r10, fp, lr}
 1606              		.cfi_def_cfa_offset 36
 1607              		.cfi_offset 4, -36
 1608              		.cfi_offset 5, -32
 1609              		.cfi_offset 6, -28
 1610              		.cfi_offset 7, -24
 1611              		.cfi_offset 8, -20
 1612              		.cfi_offset 9, -16
 1613              		.cfi_offset 10, -12
ARM GAS  C:\Users\pearlstl\AppData\Local\Temp\ccmYHcOW.s 			page 56


 1614              		.cfi_offset 11, -8
 1615              		.cfi_offset 14, -4
 1616 0004 97B0     		sub	sp, sp, #92
 1617              		.cfi_def_cfa_offset 128
 464:..\..\..\lvgl\version_6.1.2\lvgl\src\lv_draw/lv_draw_basic.c **** 
 1618              		.loc 1 464 0
 1619 0006 9A46     		mov	r10, r3
 1620 0008 9DF88030 		ldrb	r3, [sp, #128]	@ zero_extendqisi2
 1621              	.LVL199:
 1622 000c 0593     		str	r3, [sp, #20]
 1623 000e 0446     		mov	r4, r0
 1624 0010 9DF88430 		ldrb	r3, [sp, #132]	@ zero_extendqisi2
 1625 0014 9DF88C00 		ldrb	r0, [sp, #140]	@ zero_extendqisi2
 1626              	.LVL200:
 1627 0018 0493     		str	r3, [sp, #16]
 1628              	.LVL201:
 466:..\..\..\lvgl\version_6.1.2\lvgl\src\lv_draw/lv_draw_basic.c ****     if(opa > LV_OPA_MAX) opa = LV_OPA_COVER;
 1629              		.loc 1 466 0
 1630 001a BAF10F0F 		cmp	r10, #15
 464:..\..\..\lvgl\version_6.1.2\lvgl\src\lv_draw/lv_draw_basic.c **** 
 1631              		.loc 1 464 0
 1632 001e 0C92     		str	r2, [sp, #48]
 1633 0020 229B     		ldr	r3, [sp, #136]
 1634              	.LVL202:
 1635 0022 0890     		str	r0, [sp, #32]
 466:..\..\..\lvgl\version_6.1.2\lvgl\src\lv_draw/lv_draw_basic.c ****     if(opa > LV_OPA_MAX) opa = LV_OPA_COVER;
 1636              		.loc 1 466 0
 1637 0024 10D9     		bls	.L140
 467:..\..\..\lvgl\version_6.1.2\lvgl\src\lv_draw/lv_draw_basic.c **** 
 1638              		.loc 1 467 0
 1639 0026 BAF1FC0F 		cmp	r10, #252
 1640 002a 1646     		mov	r6, r2
 475:..\..\..\lvgl\version_6.1.2\lvgl\src\lv_draw/lv_draw_basic.c **** 
 1641              		.loc 1 475 0
 1642 002c 14A8     		add	r0, sp, #80
 1643 002e 0A46     		mov	r2, r1
 1644              	.LVL203:
 1645 0030 2146     		mov	r1, r4
 1646              	.LVL204:
 467:..\..\..\lvgl\version_6.1.2\lvgl\src\lv_draw/lv_draw_basic.c **** 
 1647              		.loc 1 467 0
 1648 0032 28BF     		it	cs
 1649 0034 4FF0FF0A 		movcs	r10, #255
 1650 0038 DFB2     		uxtb	r7, r3
 1651 003a C3F3072B 		ubfx	fp, r3, #8, #8
 1652 003e C3F30745 		ubfx	r5, r3, #16, #8
 1653              	.LVL205:
 475:..\..\..\lvgl\version_6.1.2\lvgl\src\lv_draw/lv_draw_basic.c **** 
 1654              		.loc 1 475 0
 1655 0042 FFF7FEFF 		bl	lv_area_intersect
 1656              	.LVL206:
 478:..\..\..\lvgl\version_6.1.2\lvgl\src\lv_draw/lv_draw_basic.c **** 
 1657              		.loc 1 478 0
 1658 0046 10B9     		cbnz	r0, .L189
 1659              	.LVL207:
 1660              	.L140:
 630:..\..\..\lvgl\version_6.1.2\lvgl\src\lv_draw/lv_draw_basic.c **** 
ARM GAS  C:\Users\pearlstl\AppData\Local\Temp\ccmYHcOW.s 			page 57


 1661              		.loc 1 630 0
 1662 0048 17B0     		add	sp, sp, #92
 1663              		.cfi_remember_state
 1664              		.cfi_def_cfa_offset 36
 1665              		@ sp needed
 1666 004a BDE8F08F 		pop	{r4, r5, r6, r7, r8, r9, r10, fp, pc}
 1667              	.LVL208:
 1668              	.L189:
 1669              		.cfi_restore_state
 1670              	.LBB136:
 1671              	.LBB137:
 1672              		.loc 2 88 0
 1673 004e A388     		ldrh	r3, [r4, #4]
 1674 0050 B4F90010 		ldrsh	r1, [r4]
 1675              	.LVL209:
 1676              	.LBE137:
 1677              	.LBE136:
 485:..\..\..\lvgl\version_6.1.2\lvgl\src\lv_draw/lv_draw_basic.c ****         map_p += (uint32_t)map_width * ((masked_a.y1 - cords_p->y1)) * px_size_byte;
 1678              		.loc 1 485 0
 1679 0054 B4F90200 		ldrsh	r0, [r4, #2]
 1680              	.LVL210:
 1681 0058 BDF95220 		ldrsh	r2, [sp, #82]
 1682              	.LBB140:
 1683              	.LBB138:
 1684              		.loc 2 88 0
 1685 005c 0133     		adds	r3, r3, #1
 1686 005e 5B1A     		subs	r3, r3, r1
 1687 0060 1BB2     		sxth	r3, r3
 1688              	.LBE138:
 1689              	.LBE140:
 485:..\..\..\lvgl\version_6.1.2\lvgl\src\lv_draw/lv_draw_basic.c ****         map_p += (uint32_t)map_width * ((masked_a.y1 - cords_p->y1)) * px_size_byte;
 1690              		.loc 1 485 0
 1691 0062 9042     		cmp	r0, r2
 1692              	.LBB141:
 1693              	.LBB139:
 1694              		.loc 2 88 0
 1695 0064 1C46     		mov	r4, r3
 1696              	.LVL211:
 1697 0066 0693     		str	r3, [sp, #24]
 1698              	.LBE139:
 1699              	.LBE141:
 485:..\..\..\lvgl\version_6.1.2\lvgl\src\lv_draw/lv_draw_basic.c ****         map_p += (uint32_t)map_width * ((masked_a.y1 - cords_p->y1)) * px_size_byte;
 1700              		.loc 1 485 0
 1701 0068 04DA     		bge	.L143
 486:..\..\..\lvgl\version_6.1.2\lvgl\src\lv_draw/lv_draw_basic.c ****     }
 1702              		.loc 1 486 0
 1703 006a 131A     		subs	r3, r2, r0
 1704 006c 9B00     		lsls	r3, r3, #2
 1705 006e 04FB0363 		mla	r3, r4, r3, r6
 1706 0072 0C93     		str	r3, [sp, #48]
 1707              	.LVL212:
 1708              	.L143:
 488:..\..\..\lvgl\version_6.1.2\lvgl\src\lv_draw/lv_draw_basic.c ****         map_p += (masked_a.x1 - cords_p->x1) * px_size_byte;
 1709              		.loc 1 488 0
 1710 0074 BDF95030 		ldrsh	r3, [sp, #80]
 1711 0078 8B42     		cmp	r3, r1
 1712 007a 04DD     		ble	.L144
ARM GAS  C:\Users\pearlstl\AppData\Local\Temp\ccmYHcOW.s 			page 58


 489:..\..\..\lvgl\version_6.1.2\lvgl\src\lv_draw/lv_draw_basic.c ****     }
 1713              		.loc 1 489 0
 1714 007c 0C9A     		ldr	r2, [sp, #48]
 1715 007e 5B1A     		subs	r3, r3, r1
 1716 0080 02EB8303 		add	r3, r2, r3, lsl #2
 1717 0084 0C93     		str	r3, [sp, #48]
 1718              	.LVL213:
 1719              	.L144:
 492:..\..\..\lvgl\version_6.1.2\lvgl\src\lv_draw/lv_draw_basic.c ****     lv_disp_buf_t * vdb = lv_disp_get_buf(disp);
 1720              		.loc 1 492 0
 1721 0086 FFF7FEFF 		bl	lv_refr_get_disp_refreshing
 1722              	.LVL214:
 1723 008a 8046     		mov	r8, r0
 1724              	.LVL215:
 493:..\..\..\lvgl\version_6.1.2\lvgl\src\lv_draw/lv_draw_basic.c **** 
 1725              		.loc 1 493 0
 1726 008c FFF7FEFF 		bl	lv_disp_get_buf
 1727              	.LVL216:
 1728 0090 0446     		mov	r4, r0
 496:..\..\..\lvgl\version_6.1.2\lvgl\src\lv_draw/lv_draw_basic.c ****     masked_a.y1 = masked_a.y1 - vdb->area.y1;
 1729              		.loc 1 496 0
 1730 0092 0346     		mov	r3, r0
 1731 0094 BDF85010 		ldrh	r1, [sp, #80]
 1732 0098 008A     		ldrh	r0, [r0, #16]
 1733              	.LVL217:
 498:..\..\..\lvgl\version_6.1.2\lvgl\src\lv_draw/lv_draw_basic.c ****     masked_a.y2 = masked_a.y2 - vdb->area.y1;
 1734              		.loc 1 498 0
 1735 009a BDF85420 		ldrh	r2, [sp, #84]
 1736              	.LBB142:
 1737              	.LBB143:
 1738              		.loc 2 88 0
 1739 009e A48A     		ldrh	r4, [r4, #20]
 1740              	.LBE143:
 1741              	.LBE142:
 497:..\..\..\lvgl\version_6.1.2\lvgl\src\lv_draw/lv_draw_basic.c ****     masked_a.x2 = masked_a.x2 - vdb->area.x1;
 1742              		.loc 1 497 0
 1743 00a0 0B93     		str	r3, [sp, #44]
 1744 00a2 BDF85260 		ldrh	r6, [sp, #82]
 1745 00a6 5B8A     		ldrh	r3, [r3, #18]
 1746              	.LVL218:
 499:..\..\..\lvgl\version_6.1.2\lvgl\src\lv_draw/lv_draw_basic.c **** 
 1747              		.loc 1 499 0
 1748 00a8 BDF856E0 		ldrh	lr, [sp, #86]
 496:..\..\..\lvgl\version_6.1.2\lvgl\src\lv_draw/lv_draw_basic.c ****     masked_a.y1 = masked_a.y1 - vdb->area.y1;
 1749              		.loc 1 496 0
 1750 00ac 091A     		subs	r1, r1, r0
 498:..\..\..\lvgl\version_6.1.2\lvgl\src\lv_draw/lv_draw_basic.c ****     masked_a.y2 = masked_a.y2 - vdb->area.y1;
 1751              		.loc 1 498 0
 1752 00ae 121A     		subs	r2, r2, r0
 1753              	.LBB146:
 1754              	.LBB144:
 1755              		.loc 2 88 0
 1756 00b0 C0F10100 		rsb	r0, r0, #1
 1757 00b4 2044     		add	r0, r0, r4
 1758              	.LBE144:
 1759              	.LBE146:
 497:..\..\..\lvgl\version_6.1.2\lvgl\src\lv_draw/lv_draw_basic.c ****     masked_a.x2 = masked_a.x2 - vdb->area.x1;
ARM GAS  C:\Users\pearlstl\AppData\Local\Temp\ccmYHcOW.s 			page 59


 1760              		.loc 1 497 0
 1761 00b6 F61A     		subs	r6, r6, r3
 1762              	.LBB147:
 1763              	.LBB145:
 1764              		.loc 2 88 0
 1765 00b8 00B2     		sxth	r0, r0
 1766 00ba 0A90     		str	r0, [sp, #40]
 1767              	.LBE145:
 1768              	.LBE147:
 497:..\..\..\lvgl\version_6.1.2\lvgl\src\lv_draw/lv_draw_basic.c ****     masked_a.x2 = masked_a.x2 - vdb->area.x1;
 1769              		.loc 1 497 0
 1770 00bc 30B2     		sxth	r0, r6
 1771 00be 0990     		str	r0, [sp, #36]
 499:..\..\..\lvgl\version_6.1.2\lvgl\src\lv_draw/lv_draw_basic.c **** 
 1772              		.loc 1 499 0
 1773 00c0 C3EB0E00 		rsb	r0, r3, lr
 504:..\..\..\lvgl\version_6.1.2\lvgl\src\lv_draw/lv_draw_basic.c **** 
 1774              		.loc 1 504 0
 1775 00c4 099B     		ldr	r3, [sp, #36]
 502:..\..\..\lvgl\version_6.1.2\lvgl\src\lv_draw/lv_draw_basic.c ****     vdb_buf_tmp += (uint32_t)vdb_width * masked_a.y1; /*Move to the first row*/
 1776              		.loc 1 502 0
 1777 00c6 0B9E     		ldr	r6, [sp, #44]
 498:..\..\..\lvgl\version_6.1.2\lvgl\src\lv_draw/lv_draw_basic.c ****     masked_a.y2 = masked_a.y2 - vdb->area.y1;
 1778              		.loc 1 498 0
 1779 00c8 92B2     		uxth	r2, r2
 1780              	.LBB148:
 1781              	.LBB149:
 1782              		.loc 2 88 0
 1783 00ca 02F10109 		add	r9, r2, #1
 1784              	.LBE149:
 1785              	.LBE148:
 496:..\..\..\lvgl\version_6.1.2\lvgl\src\lv_draw/lv_draw_basic.c ****     masked_a.y1 = masked_a.y1 - vdb->area.y1;
 1786              		.loc 1 496 0
 1787 00ce 89B2     		uxth	r1, r1
 504:..\..\..\lvgl\version_6.1.2\lvgl\src\lv_draw/lv_draw_basic.c **** 
 1788              		.loc 1 504 0
 1789 00d0 9E46     		mov	lr, r3
 498:..\..\..\lvgl\version_6.1.2\lvgl\src\lv_draw/lv_draw_basic.c ****     masked_a.y2 = masked_a.y2 - vdb->area.y1;
 1790              		.loc 1 498 0
 1791 00d2 ADF85420 		strh	r2, [sp, #84]	@ movhi
 504:..\..\..\lvgl\version_6.1.2\lvgl\src\lv_draw/lv_draw_basic.c **** 
 1792              		.loc 1 504 0
 1793 00d6 0A9B     		ldr	r3, [sp, #40]
 497:..\..\..\lvgl\version_6.1.2\lvgl\src\lv_draw/lv_draw_basic.c ****     masked_a.x2 = masked_a.x2 - vdb->area.x1;
 1794              		.loc 1 497 0
 1795 00d8 BDF82420 		ldrh	r2, [sp, #36]
 502:..\..\..\lvgl\version_6.1.2\lvgl\src\lv_draw/lv_draw_basic.c ****     vdb_buf_tmp += (uint32_t)vdb_width * masked_a.y1; /*Move to the first row*/
 1796              		.loc 1 502 0
 1797 00dc B668     		ldr	r6, [r6, #8]
 497:..\..\..\lvgl\version_6.1.2\lvgl\src\lv_draw/lv_draw_basic.c ****     masked_a.x2 = masked_a.x2 - vdb->area.x1;
 1798              		.loc 1 497 0
 1799 00de ADF85220 		strh	r2, [sp, #82]	@ movhi
 496:..\..\..\lvgl\version_6.1.2\lvgl\src\lv_draw/lv_draw_basic.c ****     masked_a.y1 = masked_a.y1 - vdb->area.y1;
 1800              		.loc 1 496 0
 1801 00e2 0CB2     		sxth	r4, r1
 515:..\..\..\lvgl\version_6.1.2\lvgl\src\lv_draw/lv_draw_basic.c **** 
 1802              		.loc 1 515 0
ARM GAS  C:\Users\pearlstl\AppData\Local\Temp\ccmYHcOW.s 			page 60


 1803 00e4 059A     		ldr	r2, [sp, #20]
 496:..\..\..\lvgl\version_6.1.2\lvgl\src\lv_draw/lv_draw_basic.c ****     masked_a.y1 = masked_a.y1 - vdb->area.y1;
 1804              		.loc 1 496 0
 1805 00e6 ADF85040 		strh	r4, [sp, #80]	@ movhi
 1806              	.LBB152:
 1807              	.LBB150:
 1808              		.loc 2 88 0
 1809 00ea C1EB0901 		rsb	r1, r1, r9
 1810              	.LBE150:
 1811              	.LBE152:
 504:..\..\..\lvgl\version_6.1.2\lvgl\src\lv_draw/lv_draw_basic.c **** 
 1812              		.loc 1 504 0
 1813 00ee 03FB0E43 		mla	r3, r3, lr, r4
 499:..\..\..\lvgl\version_6.1.2\lvgl\src\lv_draw/lv_draw_basic.c **** 
 1814              		.loc 1 499 0
 1815 00f2 00B2     		sxth	r0, r0
 1816              	.LBB153:
 1817              	.LBB151:
 1818              		.loc 2 88 0
 1819 00f4 0FFA81F9 		sxth	r9, r1
 1820              	.LBE151:
 1821              	.LBE153:
 504:..\..\..\lvgl\version_6.1.2\lvgl\src\lv_draw/lv_draw_basic.c **** 
 1822              		.loc 1 504 0
 1823 00f8 06EB8303 		add	r3, r6, r3, lsl #2
 499:..\..\..\lvgl\version_6.1.2\lvgl\src\lv_draw/lv_draw_basic.c **** 
 1824              		.loc 1 499 0
 1825 00fc ADF85600 		strh	r0, [sp, #86]	@ movhi
 1826              	.LVL219:
 515:..\..\..\lvgl\version_6.1.2\lvgl\src\lv_draw/lv_draw_basic.c **** 
 1827              		.loc 1 515 0
 1828 0100 002A     		cmp	r2, #0
 1829 0102 00F01881 		beq	.L190
 1830              	.L145:
 1831              	.LBB154:
 1832              	.LBB155:
 1833              	.LBB156:
 437:..\..\..\lvgl\version_6.1.2\lvgl\src\lv_draw\../lv_misc/lv_color.h ****     LV_COLOR_SET_G(ret, (uint16_t)((uint16_t) LV_COLOR_GET_G(c1) * mix + LV_COLOR_GET_G(c2) * (255 
 1834              		.loc 3 437 0
 1835 0106 089E     		ldr	r6, [sp, #32]
 1836 0108 B2B2     		uxth	r2, r6
 1837              		.loc 3 439 0
 1838 010a 07FB02F1 		mul	r1, r7, r2
 438:..\..\..\lvgl\version_6.1.2\lvgl\src\lv_draw\../lv_misc/lv_color.h ****     LV_COLOR_SET_B(ret, (uint16_t)((uint16_t) LV_COLOR_GET_B(c1) * mix + LV_COLOR_GET_B(c2) * (255 
 1839              		.loc 3 438 0
 1840 010e 0BFB02F4 		mul	r4, fp, r2
 1841              		.loc 3 439 0
 1842 0112 1091     		str	r1, [sp, #64]
 437:..\..\..\lvgl\version_6.1.2\lvgl\src\lv_draw\../lv_misc/lv_color.h ****     LV_COLOR_SET_G(ret, (uint16_t)((uint16_t) LV_COLOR_GET_G(c1) * mix + LV_COLOR_GET_G(c2) * (255 
 1843              		.loc 3 437 0
 1844 0114 05FB02F2 		mul	r2, r5, r2
 1845 0118 090A     		lsrs	r1, r1, #8
 1846 011a 0027     		movs	r7, #0
 1847              	.LVL220:
 1848 011c 1546     		mov	r5, r2
 1849 011e 61F30707 		bfi	r7, r1, #0, #8
 1850              	.LVL221:
ARM GAS  C:\Users\pearlstl\AppData\Local\Temp\ccmYHcOW.s 			page 61


 1851 0122 0E92     		str	r2, [sp, #56]
 1852 0124 220A     		lsrs	r2, r4, #8
 1853 0126 62F30F27 		bfi	r7, r2, #8, #8
 1854 012a 2A0A     		lsrs	r2, r5, #8
 1855 012c 62F31747 		bfi	r7, r2, #16, #8
 1856 0130 C6F1FF02 		rsb	r2, r6, #255
 1857 0134 92B2     		uxth	r2, r2
 1858 0136 0792     		str	r2, [sp, #28]
 1859              	.LBE156:
 1860              	.LBE155:
 553:..\..\..\lvgl\version_6.1.2\lvgl\src\lv_draw/lv_draw_basic.c ****             for(col = 0; col < map_useful_w; col++) {
 1861              		.loc 1 553 0
 1862 0138 099A     		ldr	r2, [sp, #36]
 1863              	.LBB158:
 1864              	.LBB157:
 438:..\..\..\lvgl\version_6.1.2\lvgl\src\lv_draw\../lv_misc/lv_color.h ****     LV_COLOR_SET_B(ret, (uint16_t)((uint16_t) LV_COLOR_GET_B(c1) * mix + LV_COLOR_GET_B(c2) * (255 
 1865              		.loc 3 438 0
 1866 013a 0F94     		str	r4, [sp, #60]
 1867              	.LBE157:
 1868              	.LBE158:
 551:..\..\..\lvgl\version_6.1.2\lvgl\src\lv_draw/lv_draw_basic.c ****         lv_color_t recolored_px = lv_color_mix(recolor, last_img_px, recolor_opa);
 1869              		.loc 1 551 0
 1870 013c 4FF07F41 		mov	r1, #-16777216
 553:..\..\..\lvgl\version_6.1.2\lvgl\src\lv_draw/lv_draw_basic.c ****             for(col = 0; col < map_useful_w; col++) {
 1871              		.loc 1 553 0
 1872 0140 8242     		cmp	r2, r0
 1873 0142 47EA0107 		orr	r7, r7, r1
 1874              	.LVL222:
 551:..\..\..\lvgl\version_6.1.2\lvgl\src\lv_draw/lv_draw_basic.c ****         lv_color_t recolored_px = lv_color_mix(recolor, last_img_px, recolor_opa);
 1875              		.loc 1 551 0
 1876 0146 1391     		str	r1, [sp, #76]
 1877              	.LVL223:
 553:..\..\..\lvgl\version_6.1.2\lvgl\src\lv_draw/lv_draw_basic.c ****             for(col = 0; col < map_useful_w; col++) {
 1878              		.loc 1 553 0
 1879 0148 3FF77EAF 		bgt	.L140
 1880 014c 069A     		ldr	r2, [sp, #24]
 1881 014e CDF818A0 		str	r10, [sp, #24]
 1882 0152 9200     		lsls	r2, r2, #2
 1883 0154 0333     		adds	r3, r3, #3
 1884              	.LVL224:
 1885 0156 DDF810A0 		ldr	r10, [sp, #16]
 1886              	.LVL225:
 1887 015a 1192     		str	r2, [sp, #68]
 1888 015c 0D93     		str	r3, [sp, #52]
 1889              	.LVL226:
 1890              	.L155:
 554:..\..\..\lvgl\version_6.1.2\lvgl\src\lv_draw/lv_draw_basic.c ****                 lv_opa_t opa_result  = opa;
 1891              		.loc 1 554 0 discriminator 1
 1892 015e B9F1000F 		cmp	r9, #0
 1893 0162 61DD     		ble	.L170
 1894 0164 0C9D     		ldr	r5, [sp, #48]
 554:..\..\..\lvgl\version_6.1.2\lvgl\src\lv_draw/lv_draw_basic.c ****                 lv_opa_t opa_result  = opa;
 1895              		.loc 1 554 0 is_stmt 0
 1896 0166 0D9E     		ldr	r6, [sp, #52]
 1897              	.LVL227:
 1898 0168 0497     		str	r7, [sp, #16]
 1899 016a 0024     		movs	r4, #0
ARM GAS  C:\Users\pearlstl\AppData\Local\Temp\ccmYHcOW.s 			page 62


 1900              	.LVL228:
 1901              	.L168:
 1902              	.LBB159:
 560:..\..\..\lvgl\version_6.1.2\lvgl\src\lv_draw/lv_draw_basic.c **** #if LV_COLOR_DEPTH == 8 || LV_COLOR_DEPTH == 1
 1903              		.loc 1 560 0 is_stmt 1
 1904 016c BAF1000F 		cmp	r10, #0
 1905 0170 6CD0     		beq	.L156
 1906              	.LBB160:
 570:..\..\..\lvgl\version_6.1.2\lvgl\src\lv_draw/lv_draw_basic.c ****                     if(px_opa == LV_OPA_TRANSP)
 1907              		.loc 1 570 0
 1908 0172 EB78     		ldrb	r3, [r5, #3]	@ zero_extendqisi2
 1909              	.LVL229:
 568:..\..\..\lvgl\version_6.1.2\lvgl\src\lv_draw/lv_draw_basic.c **** #endif
 1910              		.loc 1 568 0
 1911 0174 2A68     		ldr	r2, [r5]
 1912              	.LVL230:
 571:..\..\..\lvgl\version_6.1.2\lvgl\src\lv_draw/lv_draw_basic.c ****                         continue;
 1913              		.loc 1 571 0
 1914 0176 002B     		cmp	r3, #0
 1915 0178 4BD0     		beq	.L167
 573:..\..\..\lvgl\version_6.1.2\lvgl\src\lv_draw/lv_draw_basic.c ****                         opa_result = (uint32_t)((uint32_t)px_opa * opa_result) >> 8;
 1916              		.loc 1 573 0
 1917 017a FF2B     		cmp	r3, #255
 1918 017c 00F0D280 		beq	.L173
 574:..\..\..\lvgl\version_6.1.2\lvgl\src\lv_draw/lv_draw_basic.c ****                 } else {
 1919              		.loc 1 574 0
 1920 0180 BDF81810 		ldrh	r1, [sp, #24]
 1921 0184 13FB01F3 		smulbb	r3, r3, r1
 1922              	.LVL231:
 1923 0188 C3F30723 		ubfx	r3, r3, #8, #8
 1924              	.LVL232:
 1925              	.L158:
 1926              	.LBE160:
 580:..\..\..\lvgl\version_6.1.2\lvgl\src\lv_draw/lv_draw_basic.c **** 
 1927              		.loc 1 580 0
 1928 018c 0599     		ldr	r1, [sp, #20]
 1929 018e 19B1     		cbz	r1, .L159
 580:..\..\..\lvgl\version_6.1.2\lvgl\src\lv_draw/lv_draw_basic.c **** 
 1930              		.loc 1 580 0 is_stmt 0 discriminator 1
 1931 0190 D8F81C10 		ldr	r1, [r8, #28]
 1932              	.LVL233:
 1933 0194 8A42     		cmp	r2, r1
 1934 0196 3CD0     		beq	.L167
 1935              	.L159:
 583:..\..\..\lvgl\version_6.1.2\lvgl\src\lv_draw/lv_draw_basic.c ****                     if(last_img_px.full != px_color.full) { /*Minor acceleration: calculate only fo
 1936              		.loc 1 583 0 is_stmt 1
 1937 0198 0899     		ldr	r1, [sp, #32]
 1938 019a 0029     		cmp	r1, #0
 1939 019c 59D0     		beq	.L160
 584:..\..\..\lvgl\version_6.1.2\lvgl\src\lv_draw/lv_draw_basic.c ****                                                                new colors (save the last)*/
 1940              		.loc 1 584 0
 1941 019e 1399     		ldr	r1, [sp, #76]
 1942 01a0 9142     		cmp	r1, r2
 1943 01a2 23D0     		beq	.L161
 1944 01a4 079F     		ldr	r7, [sp, #28]
 1945 01a6 1098     		ldr	r0, [sp, #64]
 586:..\..\..\lvgl\version_6.1.2\lvgl\src\lv_draw/lv_draw_basic.c ****                         recolored_px = lv_color_mix(recolor, last_img_px, recolor_opa);
ARM GAS  C:\Users\pearlstl\AppData\Local\Temp\ccmYHcOW.s 			page 63


 1946              		.loc 1 586 0
 1947 01a8 1392     		str	r2, [sp, #76]
 1948 01aa D1B2     		uxtb	r1, r2
 1949 01ac 07FB0101 		mla	r1, r7, r1, r0
 1950              	.LBB161:
 1951              	.LBB162:
 438:..\..\..\lvgl\version_6.1.2\lvgl\src\lv_draw\../lv_misc/lv_color.h ****     LV_COLOR_SET_B(ret, (uint16_t)((uint16_t) LV_COLOR_GET_B(c1) * mix + LV_COLOR_GET_B(c2) * (255 
 1952              		.loc 3 438 0
 1953 01b0 BE46     		mov	lr, r7
 1954              	.LVL234:
 1955 01b2 0F9F     		ldr	r7, [sp, #60]
 1956 01b4 C2F30720 		ubfx	r0, r2, #8, #8
 1957 01b8 0EFB0070 		mla	r0, lr, r0, r7
 1958 01bc 049F     		ldr	r7, [sp, #16]
 1959 01be C1F30721 		ubfx	r1, r1, #8, #8
 1960 01c2 61F30707 		bfi	r7, r1, #0, #8
 1961              	.LVL235:
 1962 01c6 0497     		str	r7, [sp, #16]
 437:..\..\..\lvgl\version_6.1.2\lvgl\src\lv_draw\../lv_misc/lv_color.h ****     LV_COLOR_SET_G(ret, (uint16_t)((uint16_t) LV_COLOR_GET_G(c1) * mix + LV_COLOR_GET_G(c2) * (255 
 1963              		.loc 3 437 0
 1964 01c8 0E9F     		ldr	r7, [sp, #56]
 1965              	.LVL236:
 1966 01ca C2F30741 		ubfx	r1, r2, #16, #8
 1967 01ce 0EFB0171 		mla	r1, lr, r1, r7
 1968 01d2 049F     		ldr	r7, [sp, #16]
 438:..\..\..\lvgl\version_6.1.2\lvgl\src\lv_draw\../lv_misc/lv_color.h ****     LV_COLOR_SET_B(ret, (uint16_t)((uint16_t) LV_COLOR_GET_B(c1) * mix + LV_COLOR_GET_B(c2) * (255 
 1969              		.loc 3 438 0
 1970 01d4 C0F30720 		ubfx	r0, r0, #8, #8
 1971 01d8 60F30F27 		bfi	r7, r0, #8, #8
 1972              	.LVL237:
 1973 01dc 3846     		mov	r0, r7
 437:..\..\..\lvgl\version_6.1.2\lvgl\src\lv_draw\../lv_misc/lv_color.h ****     LV_COLOR_SET_G(ret, (uint16_t)((uint16_t) LV_COLOR_GET_G(c1) * mix + LV_COLOR_GET_G(c2) * (255 
 1974              		.loc 3 437 0
 1975 01de C1F30721 		ubfx	r1, r1, #8, #8
 1976 01e2 61F31740 		bfi	r0, r1, #16, #8
 1977              	.LVL238:
 1978 01e6 40F07F42 		orr	r2, r0, #-16777216
 1979              	.LVL239:
 1980 01ea 0492     		str	r2, [sp, #16]
 1981              	.LVL240:
 1982              	.L161:
 1983              	.LBE162:
 1984              	.LBE161:
 590:..\..\..\lvgl\version_6.1.2\lvgl\src\lv_draw/lv_draw_basic.c ****                         disp->driver.set_px_cb(&disp->driver, (uint8_t *)vdb->buf_act, vdb_width, c
 1985              		.loc 1 590 0
 1986 01ec D8F814B0 		ldr	fp, [r8, #20]
 1987 01f0 BBF1000F 		cmp	fp, #0
 1988 01f4 3AD0     		beq	.L162
 591:..\..\..\lvgl\version_6.1.2\lvgl\src\lv_draw/lv_draw_basic.c ****                                                row, recolored_px, opa_result);
 1989              		.loc 1 591 0
 1990 01f6 BDF85020 		ldrh	r2, [sp, #80]
 1991              	.LVL241:
 1992 01fa 0B99     		ldr	r1, [sp, #44]
 1993 01fc 8968     		ldr	r1, [r1, #8]
 1994 01fe 0293     		str	r3, [sp, #8]
 1995 0200 A318     		adds	r3, r4, r2
 1996              	.LVL242:
ARM GAS  C:\Users\pearlstl\AppData\Local\Temp\ccmYHcOW.s 			page 64


 1997 0202 049A     		ldr	r2, [sp, #16]
 1998              	.LVL243:
 1999 0204 1BB2     		sxth	r3, r3
 2000              	.LVL244:
 2001              	.L187:
 604:..\..\..\lvgl\version_6.1.2\lvgl\src\lv_draw/lv_draw_basic.c ****                                                row, px_color, opa_result);
 2002              		.loc 1 604 0
 2003 0206 0192     		str	r2, [sp, #4]
 2004 0208 099A     		ldr	r2, [sp, #36]
 2005              	.LVL245:
 2006 020a 0092     		str	r2, [sp]
 2007 020c 4046     		mov	r0, r8
 2008 020e 0A9A     		ldr	r2, [sp, #40]
 2009 0210 D847     		blx	fp
 2010              	.LVL246:
 2011              	.L167:
 2012 0212 0134     		adds	r4, r4, #1
 2013              	.LVL247:
 2014 0214 24B2     		sxth	r4, r4
 2015              	.LVL248:
 2016              	.LBE159:
 554:..\..\..\lvgl\version_6.1.2\lvgl\src\lv_draw/lv_draw_basic.c ****                 lv_opa_t opa_result  = opa;
 2017              		.loc 1 554 0 discriminator 2
 2018 0216 A145     		cmp	r9, r4
 2019 0218 05F10405 		add	r5, r5, #4
 2020              	.LVL249:
 2021 021c 06F10406 		add	r6, r6, #4
 2022 0220 A4D1     		bne	.L168
 2023 0222 049F     		ldr	r7, [sp, #16]
 2024              	.LVL250:
 2025 0224 BDF95600 		ldrsh	r0, [sp, #86]
 2026              	.LVL251:
 2027              	.L170:
 626:..\..\..\lvgl\version_6.1.2\lvgl\src\lv_draw/lv_draw_basic.c ****             vdb_buf_tmp += vdb_width;          /*Next row on the VDB*/
 2028              		.loc 1 626 0 discriminator 2
 2029 0228 0C9A     		ldr	r2, [sp, #48]
 2030              	.LVL252:
 2031 022a 1199     		ldr	r1, [sp, #68]
 2032 022c 099B     		ldr	r3, [sp, #36]
 2033 022e 0A44     		add	r2, r2, r1
 2034 0230 0133     		adds	r3, r3, #1
 2035 0232 0C92     		str	r2, [sp, #48]
 2036 0234 0A99     		ldr	r1, [sp, #40]
 2037 0236 0D9A     		ldr	r2, [sp, #52]
 2038 0238 1BB2     		sxth	r3, r3
 2039              	.LVL253:
 2040 023a 02EB8102 		add	r2, r2, r1, lsl #2
 553:..\..\..\lvgl\version_6.1.2\lvgl\src\lv_draw/lv_draw_basic.c ****             for(col = 0; col < map_useful_w; col++) {
 2041              		.loc 1 553 0 discriminator 2
 2042 023e 8342     		cmp	r3, r0
 2043 0240 0993     		str	r3, [sp, #36]
 2044 0242 0D92     		str	r2, [sp, #52]
 2045 0244 8BDD     		ble	.L155
 2046              	.LBE154:
 630:..\..\..\lvgl\version_6.1.2\lvgl\src\lv_draw/lv_draw_basic.c **** 
 2047              		.loc 1 630 0
 2048 0246 17B0     		add	sp, sp, #92
ARM GAS  C:\Users\pearlstl\AppData\Local\Temp\ccmYHcOW.s 			page 65


 2049              		.cfi_remember_state
 2050              		.cfi_def_cfa_offset 36
 2051              		@ sp needed
 2052 0248 BDE8F08F 		pop	{r4, r5, r6, r7, r8, r9, r10, fp, pc}
 2053              	.LVL254:
 2054              	.L156:
 2055              		.cfi_restore_state
 2056              	.LBB185:
 2057              	.LBB184:
 576:..\..\..\lvgl\version_6.1.2\lvgl\src\lv_draw/lv_draw_basic.c ****                 }
 2058              		.loc 1 576 0
 2059 024c 2A68     		ldr	r2, [r5]
 2060              	.LVL255:
 2061 024e 069B     		ldr	r3, [sp, #24]
 2062 0250 9CE7     		b	.L158
 2063              	.LVL256:
 2064              	.L160:
 603:..\..\..\lvgl\version_6.1.2\lvgl\src\lv_draw/lv_draw_basic.c ****                         disp->driver.set_px_cb(&disp->driver, (uint8_t *)vdb->buf_act, vdb_width, c
 2065              		.loc 1 603 0
 2066 0252 D8F814B0 		ldr	fp, [r8, #20]
 2067 0256 BBF1000F 		cmp	fp, #0
 2068 025a 36D0     		beq	.L165
 604:..\..\..\lvgl\version_6.1.2\lvgl\src\lv_draw/lv_draw_basic.c ****                                                row, px_color, opa_result);
 2069              		.loc 1 604 0
 2070 025c BDF85000 		ldrh	r0, [sp, #80]
 2071 0260 0B99     		ldr	r1, [sp, #44]
 2072 0262 8968     		ldr	r1, [r1, #8]
 2073 0264 0293     		str	r3, [sp, #8]
 2074 0266 2318     		adds	r3, r4, r0
 2075              	.LVL257:
 2076 0268 1BB2     		sxth	r3, r3
 2077 026a CCE7     		b	.L187
 2078              	.LVL258:
 2079              	.L162:
 596:..\..\..\lvgl\version_6.1.2\lvgl\src\lv_draw/lv_draw_basic.c ****                             vdb_buf_tmp[col].full = recolored_px.full;
 2080              		.loc 1 596 0
 2081 026c FF2B     		cmp	r3, #255
 2082 026e 5BD0     		beq	.L191
 2083              	.LVL259:
 2084              	.LBB163:
 2085              	.LBB164:
 437:..\..\..\lvgl\version_6.1.2\lvgl\src\lv_draw\../lv_misc/lv_color.h ****     LV_COLOR_SET_G(ret, (uint16_t)((uint16_t) LV_COLOR_GET_G(c1) * mix + LV_COLOR_GET_G(c2) * (255 
 2086              		.loc 3 437 0
 2087 0270 049F     		ldr	r7, [sp, #16]
 2088              	.LVL260:
 2089 0272 16F801CC 		ldrb	ip, [r6, #-1]	@ zero_extendqisi2
 2090              	.LBE164:
 2091              	.LBE163:
 599:..\..\..\lvgl\version_6.1.2\lvgl\src\lv_draw/lv_draw_basic.c ****                     }
 2092              		.loc 1 599 0
 2093 0276 16F803EC 		ldrb	lr, [r6, #-3]	@ zero_extendqisi2
 2094              	.LBB170:
 2095              	.LBB165:
 438:..\..\..\lvgl\version_6.1.2\lvgl\src\lv_draw\../lv_misc/lv_color.h ****     LV_COLOR_SET_B(ret, (uint16_t)((uint16_t) LV_COLOR_GET_B(c1) * mix + LV_COLOR_GET_B(c2) * (255 
 2096              		.loc 3 438 0
 2097 027a 16F8020C 		ldrb	r0, [r6, #-2]	@ zero_extendqisi2
 437:..\..\..\lvgl\version_6.1.2\lvgl\src\lv_draw\../lv_misc/lv_color.h ****     LV_COLOR_SET_G(ret, (uint16_t)((uint16_t) LV_COLOR_GET_G(c1) * mix + LV_COLOR_GET_G(c2) * (255 
ARM GAS  C:\Users\pearlstl\AppData\Local\Temp\ccmYHcOW.s 			page 66


 2098              		.loc 3 437 0
 2099 027e C3F1FF01 		rsb	r1, r3, #255
 2100 0282 89B2     		uxth	r1, r1
 2101              	.LBE165:
 2102              	.LBE170:
 599:..\..\..\lvgl\version_6.1.2\lvgl\src\lv_draw/lv_draw_basic.c ****                     }
 2103              		.loc 1 599 0
 2104 0284 4FF0FF32 		mov	r2, #-1
 2105              	.LVL261:
 2106              	.LBB171:
 2107              	.LBB166:
 437:..\..\..\lvgl\version_6.1.2\lvgl\src\lv_draw\../lv_misc/lv_color.h ****     LV_COLOR_SET_G(ret, (uint16_t)((uint16_t) LV_COLOR_GET_G(c1) * mix + LV_COLOR_GET_G(c2) * (255 
 2108              		.loc 3 437 0
 2109 0288 9BB2     		uxth	r3, r3
 2110              	.LVL262:
 2111 028a 1CFB01FC 		smulbb	ip, ip, r1
 2112              	.LBE166:
 2113              	.LBE171:
 599:..\..\..\lvgl\version_6.1.2\lvgl\src\lv_draw/lv_draw_basic.c ****                     }
 2114              		.loc 1 599 0
 2115 028e 3270     		strb	r2, [r6]
 2116              	.LVL263:
 2117              	.LBB172:
 2118              	.LBB167:
 437:..\..\..\lvgl\version_6.1.2\lvgl\src\lv_draw\../lv_misc/lv_color.h ****     LV_COLOR_SET_G(ret, (uint16_t)((uint16_t) LV_COLOR_GET_G(c1) * mix + LV_COLOR_GET_G(c2) * (255 
 2119              		.loc 3 437 0
 2120 0290 C7F30742 		ubfx	r2, r7, #16, #8
 2121 0294 03FB02CC 		mla	ip, r3, r2, ip
 438:..\..\..\lvgl\version_6.1.2\lvgl\src\lv_draw\../lv_misc/lv_color.h ****     LV_COLOR_SET_B(ret, (uint16_t)((uint16_t) LV_COLOR_GET_B(c1) * mix + LV_COLOR_GET_B(c2) * (255 
 2122              		.loc 3 438 0
 2123 0298 10FB01F0 		smulbb	r0, r0, r1
 2124 029c C7F30722 		ubfx	r2, r7, #8, #8
 2125              	.LBE167:
 2126              	.LBE172:
 599:..\..\..\lvgl\version_6.1.2\lvgl\src\lv_draw/lv_draw_basic.c ****                     }
 2127              		.loc 1 599 0
 2128 02a0 1EFB01F1 		smulbb	r1, lr, r1
 2129 02a4 5FFA87FE 		uxtb	lr, r7
 2130              	.LVL264:
 2131              	.LBB173:
 2132              	.LBB168:
 438:..\..\..\lvgl\version_6.1.2\lvgl\src\lv_draw\../lv_misc/lv_color.h ****     LV_COLOR_SET_B(ret, (uint16_t)((uint16_t) LV_COLOR_GET_B(c1) * mix + LV_COLOR_GET_B(c2) * (255 
 2133              		.loc 3 438 0
 2134 02a8 03FB0200 		mla	r0, r3, r2, r0
 2135              	.LVL265:
 2136              	.LBE168:
 2137              	.LBE173:
 599:..\..\..\lvgl\version_6.1.2\lvgl\src\lv_draw/lv_draw_basic.c ****                     }
 2138              		.loc 1 599 0
 2139 02ac 03FB0E13 		mla	r3, r3, lr, r1
 2140              	.LBB174:
 2141              	.LBB169:
 437:..\..\..\lvgl\version_6.1.2\lvgl\src\lv_draw\../lv_misc/lv_color.h ****     LV_COLOR_SET_G(ret, (uint16_t)((uint16_t) LV_COLOR_GET_G(c1) * mix + LV_COLOR_GET_G(c2) * (255 
 2142              		.loc 3 437 0
 2143 02b0 CCF3072C 		ubfx	ip, ip, #8, #8
 2144              	.LVL266:
 438:..\..\..\lvgl\version_6.1.2\lvgl\src\lv_draw\../lv_misc/lv_color.h ****     LV_COLOR_SET_B(ret, (uint16_t)((uint16_t) LV_COLOR_GET_B(c1) * mix + LV_COLOR_GET_B(c2) * (255 
ARM GAS  C:\Users\pearlstl\AppData\Local\Temp\ccmYHcOW.s 			page 67


 2145              		.loc 3 438 0
 2146 02b4 C0F30720 		ubfx	r0, r0, #8, #8
 2147              	.LVL267:
 2148              	.LBE169:
 2149              	.LBE174:
 599:..\..\..\lvgl\version_6.1.2\lvgl\src\lv_draw/lv_draw_basic.c ****                     }
 2150              		.loc 1 599 0
 2151 02b8 C3F30723 		ubfx	r3, r3, #8, #8
 2152 02bc 06F801CC 		strb	ip, [r6, #-1]
 2153 02c0 06F8020C 		strb	r0, [r6, #-2]
 2154 02c4 06F8033C 		strb	r3, [r6, #-3]
 2155 02c8 A3E7     		b	.L167
 2156              	.LVL268:
 2157              	.L165:
 610:..\..\..\lvgl\version_6.1.2\lvgl\src\lv_draw/lv_draw_basic.c ****                             vdb_buf_tmp[col] = px_color;
 2158              		.loc 1 610 0
 2159 02ca FF2B     		cmp	r3, #255
 2160 02cc 30D0     		beq	.L192
 2161              	.LVL269:
 2162              	.LBB175:
 2163              	.LBB176:
 437:..\..\..\lvgl\version_6.1.2\lvgl\src\lv_draw\../lv_misc/lv_color.h ****     LV_COLOR_SET_G(ret, (uint16_t)((uint16_t) LV_COLOR_GET_G(c1) * mix + LV_COLOR_GET_G(c2) * (255 
 2164              		.loc 3 437 0
 2165 02ce C3F1FF00 		rsb	r0, r3, #255
 2166 02d2 16F8011C 		ldrb	r1, [r6, #-1]	@ zero_extendqisi2
 438:..\..\..\lvgl\version_6.1.2\lvgl\src\lv_draw\../lv_misc/lv_color.h ****     LV_COLOR_SET_B(ret, (uint16_t)((uint16_t) LV_COLOR_GET_B(c1) * mix + LV_COLOR_GET_B(c2) * (255 
 2167              		.loc 3 438 0
 2168 02d6 16F802EC 		ldrb	lr, [r6, #-2]	@ zero_extendqisi2
 2169              	.LBE176:
 2170              	.LBE175:
 614:..\..\..\lvgl\version_6.1.2\lvgl\src\lv_draw/lv_draw_basic.c ****                             } else {
 2171              		.loc 1 614 0
 2172 02da 16F803BC 		ldrb	fp, [r6, #-3]	@ zero_extendqisi2
 2173              	.LBB180:
 2174              	.LBB177:
 437:..\..\..\lvgl\version_6.1.2\lvgl\src\lv_draw\../lv_misc/lv_color.h ****     LV_COLOR_SET_G(ret, (uint16_t)((uint16_t) LV_COLOR_GET_G(c1) * mix + LV_COLOR_GET_G(c2) * (255 
 2175              		.loc 3 437 0
 2176 02de 80B2     		uxth	r0, r0
 2177 02e0 9BB2     		uxth	r3, r3
 2178              	.LVL270:
 2179 02e2 C2F3074C 		ubfx	ip, r2, #16, #8
 2180 02e6 11FB00F1 		smulbb	r1, r1, r0
 2181 02ea 03FB0C11 		mla	r1, r3, ip, r1
 438:..\..\..\lvgl\version_6.1.2\lvgl\src\lv_draw\../lv_misc/lv_color.h ****     LV_COLOR_SET_B(ret, (uint16_t)((uint16_t) LV_COLOR_GET_B(c1) * mix + LV_COLOR_GET_B(c2) * (255 
 2182              		.loc 3 438 0
 2183 02ee 1EFB00FE 		smulbb	lr, lr, r0
 2184 02f2 C2F3072C 		ubfx	ip, r2, #8, #8
 2185              	.LBE177:
 2186              	.LBE180:
 614:..\..\..\lvgl\version_6.1.2\lvgl\src\lv_draw/lv_draw_basic.c ****                             } else {
 2187              		.loc 1 614 0
 2188 02f6 1BFB00F0 		smulbb	r0, fp, r0
 2189 02fa D2B2     		uxtb	r2, r2
 2190              	.LVL271:
 2191              	.LBB181:
 2192              	.LBB178:
 438:..\..\..\lvgl\version_6.1.2\lvgl\src\lv_draw\../lv_misc/lv_color.h ****     LV_COLOR_SET_B(ret, (uint16_t)((uint16_t) LV_COLOR_GET_B(c1) * mix + LV_COLOR_GET_B(c2) * (255 
ARM GAS  C:\Users\pearlstl\AppData\Local\Temp\ccmYHcOW.s 			page 68


 2193              		.loc 3 438 0
 2194 02fc 03FB0CEE 		mla	lr, r3, ip, lr
 2195              	.LVL272:
 2196              	.LBE178:
 2197              	.LBE181:
 614:..\..\..\lvgl\version_6.1.2\lvgl\src\lv_draw/lv_draw_basic.c ****                             } else {
 2198              		.loc 1 614 0
 2199 0300 03FB0203 		mla	r3, r3, r2, r0
 2200 0304 4FF0FF37 		mov	r7, #-1
 2201              	.LVL273:
 2202              	.LBB182:
 2203              	.LBB179:
 437:..\..\..\lvgl\version_6.1.2\lvgl\src\lv_draw\../lv_misc/lv_color.h ****     LV_COLOR_SET_G(ret, (uint16_t)((uint16_t) LV_COLOR_GET_G(c1) * mix + LV_COLOR_GET_G(c2) * (255 
 2204              		.loc 3 437 0
 2205 0308 C1F30721 		ubfx	r1, r1, #8, #8
 2206              	.LVL274:
 438:..\..\..\lvgl\version_6.1.2\lvgl\src\lv_draw\../lv_misc/lv_color.h ****     LV_COLOR_SET_B(ret, (uint16_t)((uint16_t) LV_COLOR_GET_B(c1) * mix + LV_COLOR_GET_B(c2) * (255 
 2207              		.loc 3 438 0
 2208 030c CEF3072E 		ubfx	lr, lr, #8, #8
 2209              	.LVL275:
 2210              	.LBE179:
 2211              	.LBE182:
 614:..\..\..\lvgl\version_6.1.2\lvgl\src\lv_draw/lv_draw_basic.c ****                             } else {
 2212              		.loc 1 614 0
 2213 0310 C3F30723 		ubfx	r3, r3, #8, #8
 2214 0314 3770     		strb	r7, [r6]
 2215 0316 06F8011C 		strb	r1, [r6, #-1]
 2216 031a 06F802EC 		strb	lr, [r6, #-2]
 2217 031e 06F8033C 		strb	r3, [r6, #-3]
 2218 0322 76E7     		b	.L167
 2219              	.LVL276:
 2220              	.L173:
 2221              	.LBB183:
 2222 0324 069B     		ldr	r3, [sp, #24]
 2223              	.LVL277:
 2224 0326 31E7     		b	.L158
 2225              	.LVL278:
 2226              	.L191:
 2227              	.LBE183:
 597:..\..\..\lvgl\version_6.1.2\lvgl\src\lv_draw/lv_draw_basic.c ****                         else
 2228              		.loc 1 597 0
 2229 0328 049B     		ldr	r3, [sp, #16]
 2230              	.LVL279:
 2231 032a 46F8033C 		str	r3, [r6, #-3]
 2232 032e 70E7     		b	.L167
 2233              	.LVL280:
 2234              	.L192:
 611:..\..\..\lvgl\version_6.1.2\lvgl\src\lv_draw/lv_draw_basic.c ****                         else {
 2235              		.loc 1 611 0
 2236 0330 46F8032C 		str	r2, [r6, #-3]
 2237 0334 6DE7     		b	.L167
 2238              	.LVL281:
 2239              	.L190:
 2240              	.LBE184:
 2241              	.LBE185:
 515:..\..\..\lvgl\version_6.1.2\lvgl\src\lv_draw/lv_draw_basic.c **** 
 2242              		.loc 1 515 0 discriminator 1
ARM GAS  C:\Users\pearlstl\AppData\Local\Temp\ccmYHcOW.s 			page 69


 2243 0336 049A     		ldr	r2, [sp, #16]
 2244 0338 002A     		cmp	r2, #0
 2245 033a 7FF4E4AE 		bne	.L145
 515:..\..\..\lvgl\version_6.1.2\lvgl\src\lv_draw/lv_draw_basic.c **** 
 2246              		.loc 1 515 0 is_stmt 0 discriminator 2
 2247 033e BAF1FF0F 		cmp	r10, #255
 2248 0342 7FF4E0AE 		bne	.L145
 515:..\..\..\lvgl\version_6.1.2\lvgl\src\lv_draw/lv_draw_basic.c **** 
 2249              		.loc 1 515 0 discriminator 3
 2250 0346 089A     		ldr	r2, [sp, #32]
 2251 0348 002A     		cmp	r2, #0
 2252 034a 7FF4DCAE 		bne	.L145
 518:..\..\..\lvgl\version_6.1.2\lvgl\src\lv_draw/lv_draw_basic.c ****             lv_coord_t col;
 2253              		.loc 1 518 0 is_stmt 1
 2254 034e D8F81420 		ldr	r2, [r8, #20]
 2255 0352 002A     		cmp	r2, #0
 2256 0354 34D0     		beq	.L193
 2257              	.LVL282:
 2258              	.LBB186:
 520:..\..\..\lvgl\version_6.1.2\lvgl\src\lv_draw/lv_draw_basic.c ****                 for(col = 0; col < map_useful_w; col++) {
 2259              		.loc 1 520 0 discriminator 1
 2260 0356 099A     		ldr	r2, [sp, #36]
 2261 0358 8242     		cmp	r2, r0
 2262 035a 3FF775AE 		bgt	.L140
 2263 035e 0C9B     		ldr	r3, [sp, #48]
 2264              	.LVL283:
 2265 0360 DDF828B0 		ldr	fp, [sp, #40]
 2266              	.LBB187:
 523:..\..\..\lvgl\version_6.1.2\lvgl\src\lv_draw/lv_draw_basic.c ****                                            px_color, opa);
 2267              		.loc 1 523 0
 2268 0364 CDF810A0 		str	r10, [sp, #16]
 2269 0368 1F1F     		subs	r7, r3, #4
 2270 036a 0597     		str	r7, [sp, #20]
 2271 036c 0B9F     		ldr	r7, [sp, #44]
 2272 036e 9246     		mov	r10, r2
 2273              	.LVL284:
 2274              	.L150:
 2275              	.LBE187:
 521:..\..\..\lvgl\version_6.1.2\lvgl\src\lv_draw/lv_draw_basic.c ****                     lv_color_t px_color = *((lv_color_t *)&map_p[(uint32_t)col * px_size_byte]);
 2276              		.loc 1 521 0 discriminator 1
 2277 0370 B9F1000F 		cmp	r9, #0
 2278 0374 18DD     		ble	.L152
 521:..\..\..\lvgl\version_6.1.2\lvgl\src\lv_draw/lv_draw_basic.c ****                     lv_color_t px_color = *((lv_color_t *)&map_p[(uint32_t)col * px_size_byte]);
 2279              		.loc 1 521 0 is_stmt 0
 2280 0376 059E     		ldr	r6, [sp, #20]
 2281 0378 0025     		movs	r5, #0
 2282              	.LVL285:
 2283              	.L151:
 2284              	.LBB188:
 522:..\..\..\lvgl\version_6.1.2\lvgl\src\lv_draw/lv_draw_basic.c ****                     disp->driver.set_px_cb(&disp->driver, (uint8_t *)vdb->buf_act, vdb_width, col +
 2285              		.loc 1 522 0 is_stmt 1 discriminator 3
 2286 037a 56F8042F 		ldr	r2, [r6, #4]!
 2287              	.LVL286:
 523:..\..\..\lvgl\version_6.1.2\lvgl\src\lv_draw/lv_draw_basic.c ****                                            px_color, opa);
 2288              		.loc 1 523 0 discriminator 3
 2289 037e BDF85030 		ldrh	r3, [sp, #80]
 2290 0382 B968     		ldr	r1, [r7, #8]
ARM GAS  C:\Users\pearlstl\AppData\Local\Temp\ccmYHcOW.s 			page 70


 2291              	.LVL287:
 2292 0384 0192     		str	r2, [sp, #4]
 2293 0386 049A     		ldr	r2, [sp, #16]
 2294              	.LVL288:
 2295 0388 0292     		str	r2, [sp, #8]
 2296 038a 2B44     		add	r3, r3, r5
 2297 038c CDF800A0 		str	r10, [sp]
 2298 0390 1BB2     		sxth	r3, r3
 2299 0392 0135     		adds	r5, r5, #1
 2300              	.LVL289:
 2301 0394 5A46     		mov	r2, fp
 2302 0396 4046     		mov	r0, r8
 2303 0398 D8F81440 		ldr	r4, [r8, #20]
 2304 039c A047     		blx	r4
 2305              	.LVL290:
 2306              	.LBE188:
 521:..\..\..\lvgl\version_6.1.2\lvgl\src\lv_draw/lv_draw_basic.c ****                     lv_color_t px_color = *((lv_color_t *)&map_p[(uint32_t)col * px_size_byte]);
 2307              		.loc 1 521 0 discriminator 3
 2308 039e 2BB2     		sxth	r3, r5
 2309 03a0 9945     		cmp	r9, r3
 2310 03a2 EADC     		bgt	.L151
 2311 03a4 BDF95600 		ldrsh	r0, [sp, #86]
 2312              	.L152:
 2313              	.LVL291:
 2314 03a8 059B     		ldr	r3, [sp, #20]
 2315 03aa 069A     		ldr	r2, [sp, #24]
 2316 03ac 0AF1010A 		add	r10, r10, #1
 2317              	.LVL292:
 2318 03b0 0FFA8AFA 		sxth	r10, r10
 2319              	.LVL293:
 2320 03b4 03EB8203 		add	r3, r3, r2, lsl #2
 520:..\..\..\lvgl\version_6.1.2\lvgl\src\lv_draw/lv_draw_basic.c ****                 for(col = 0; col < map_useful_w; col++) {
 2321              		.loc 1 520 0 discriminator 2
 2322 03b8 8245     		cmp	r10, r0
 2323 03ba 0593     		str	r3, [sp, #20]
 2324              	.LVL294:
 2325 03bc D8DD     		ble	.L150
 2326 03be 43E6     		b	.L140
 2327              	.LVL295:
 2328              	.L193:
 2329              	.LBE186:
 531:..\..\..\lvgl\version_6.1.2\lvgl\src\lv_draw/lv_draw_basic.c **** #if LV_USE_GPU
 2330              		.loc 1 531 0 discriminator 1
 2331 03c0 8645     		cmp	lr, r0
 2332 03c2 3FF741AE 		bgt	.L140
 2333 03c6 069A     		ldr	r2, [sp, #24]
 2334 03c8 099E     		ldr	r6, [sp, #36]
 2335 03ca 0C9F     		ldr	r7, [sp, #48]
 2336 03cc 9500     		lsls	r5, r2, #2
 2337 03ce 0A9A     		ldr	r2, [sp, #40]
 2338 03d0 4FEA8909 		lsl	r9, r9, #2
 2339 03d4 9400     		lsls	r4, r2, #2
 2340              	.LVL296:
 2341              	.L153:
 2342              	.LBB189:
 2343              	.LBB190:
 646:..\..\..\lvgl\version_6.1.2\lvgl\src\lv_draw/lv_draw_basic.c ****     } else {
ARM GAS  C:\Users\pearlstl\AppData\Local\Temp\ccmYHcOW.s 			page 71


 2344              		.loc 1 646 0 discriminator 3
 2345 03d6 4A46     		mov	r2, r9
 2346 03d8 3946     		mov	r1, r7
 2347 03da 1846     		mov	r0, r3
 2348 03dc FFF7FEFF 		bl	memcpy
 2349              	.LVL297:
 2350 03e0 0136     		adds	r6, r6, #1
 2351              	.LVL298:
 2352              	.LBE190:
 2353              	.LBE189:
 531:..\..\..\lvgl\version_6.1.2\lvgl\src\lv_draw/lv_draw_basic.c **** #if LV_USE_GPU
 2354              		.loc 1 531 0 discriminator 3
 2355 03e2 BDF95620 		ldrsh	r2, [sp, #86]
 2356 03e6 36B2     		sxth	r6, r6
 2357              	.LBB192:
 2358              	.LBB191:
 646:..\..\..\lvgl\version_6.1.2\lvgl\src\lv_draw/lv_draw_basic.c ****     } else {
 2359              		.loc 1 646 0 discriminator 3
 2360 03e8 0346     		mov	r3, r0
 2361              	.LVL299:
 2362              	.LBE191:
 2363              	.LBE192:
 531:..\..\..\lvgl\version_6.1.2\lvgl\src\lv_draw/lv_draw_basic.c **** #if LV_USE_GPU
 2364              		.loc 1 531 0 discriminator 3
 2365 03ea B242     		cmp	r2, r6
 541:..\..\..\lvgl\version_6.1.2\lvgl\src\lv_draw/lv_draw_basic.c ****                 vdb_buf_tmp += vdb_width;          /*Next row on the VDB*/
 2366              		.loc 1 541 0 discriminator 3
 2367 03ec 2F44     		add	r7, r7, r5
 2368              	.LVL300:
 542:..\..\..\lvgl\version_6.1.2\lvgl\src\lv_draw/lv_draw_basic.c ****             }
 2369              		.loc 1 542 0 discriminator 3
 2370 03ee 2344     		add	r3, r3, r4
 2371              	.LVL301:
 531:..\..\..\lvgl\version_6.1.2\lvgl\src\lv_draw/lv_draw_basic.c **** #if LV_USE_GPU
 2372              		.loc 1 531 0 discriminator 3
 2373 03f0 F1DA     		bge	.L153
 2374 03f2 29E6     		b	.L140
 2375              		.cfi_endproc
 2376              	.LFE34:
 2377              		.size	lv_draw_map, .-lv_draw_map
 2378              		.section	.rodata
 2379              		.align	2
 2380              		.set	.LANCHOR0,. + 0
 2381              	.LC0:
 2382 0000 00       		.byte	0
 2383 0001 55       		.byte	85
 2384 0002 AA       		.byte	-86
 2385 0003 FF       		.byte	-1
 2386              	.LC1:
 2387 0004 00       		.byte	0
 2388 0005 11       		.byte	17
 2389 0006 22       		.byte	34
 2390 0007 33       		.byte	51
 2391 0008 44       		.byte	68
 2392 0009 55       		.byte	85
 2393 000a 66       		.byte	102
 2394 000b 77       		.byte	119
ARM GAS  C:\Users\pearlstl\AppData\Local\Temp\ccmYHcOW.s 			page 72


 2395 000c 88       		.byte	-120
 2396 000d 99       		.byte	-103
 2397 000e AA       		.byte	-86
 2398 000f BB       		.byte	-69
 2399 0010 CC       		.byte	-52
 2400 0011 DD       		.byte	-35
 2401 0012 EE       		.byte	-18
 2402 0013 FF       		.byte	-1
 2403              		.text
 2404              	.Letext0:
 2405              		.file 4 "c:\\program files (x86)\\cypress\\psoc creator\\4.2\\psoc creator\\import\\gnu\\arm\\5.4.
 2406              		.file 5 "c:\\program files (x86)\\cypress\\psoc creator\\4.2\\psoc creator\\import\\gnu\\arm\\5.4.
 2407              		.file 6 "..\\..\\..\\lvgl\\version_6.1.2\\lvgl\\src\\lv_draw\\../../../lv_conf.h"
 2408              		.file 7 "..\\..\\..\\lvgl\\version_6.1.2\\lvgl\\src\\lv_draw\\../lv_font/lv_font.h"
 2409              		.file 8 "..\\..\\..\\lvgl\\version_6.1.2\\lvgl\\src\\lv_draw\\../lv_core/lv_style.h"
 2410              		.file 9 "..\\..\\..\\lvgl\\version_6.1.2\\lvgl\\src\\lv_draw\\../lv_core/../lv_misc/lv_types.h"
 2411              		.file 10 "..\\..\\..\\lvgl\\version_6.1.2\\lvgl\\src\\lv_draw\\../lv_core/../lv_misc/lv_ll.h"
 2412              		.file 11 "..\\..\\..\\lvgl\\version_6.1.2\\lvgl\\src\\lv_draw\\../lv_core/../lv_misc/lv_bidi.h"
 2413              		.file 12 "..\\..\\..\\lvgl\\version_6.1.2\\lvgl\\src\\lv_draw\\../lv_core/../lv_hal/../lv_misc/lv_
 2414              		.file 13 "..\\..\\..\\lvgl\\version_6.1.2\\lvgl\\src\\lv_draw\\../lv_core/../lv_hal/lv_hal_disp.h"
 2415              		.file 14 "..\\..\\..\\lvgl\\version_6.1.2\\lvgl\\src\\lv_draw\\../lv_core/lv_obj.h"
 2416              		.file 15 "..\\..\\..\\lvgl\\version_6.1.2\\lvgl\\src\\lv_draw\\../lv_core/lv_refr.h"
 2417              		.section	.debug_info,"",%progbits
 2418              	.Ldebug_info0:
 2419 0000 1D180000 		.4byte	0x181d
 2420 0004 0400     		.2byte	0x4
 2421 0006 00000000 		.4byte	.Ldebug_abbrev0
 2422 000a 04       		.byte	0x4
 2423 000b 01       		.uleb128 0x1
 2424 000c 1D010000 		.4byte	.LASF247
 2425 0010 0C       		.byte	0xc
 2426 0011 85020000 		.4byte	.LASF248
 2427 0015 E0080000 		.4byte	.LASF249
 2428 0019 90020000 		.4byte	.Ldebug_ranges0+0x290
 2429 001d 00000000 		.4byte	0
 2430 0021 00000000 		.4byte	.Ldebug_line0
 2431 0025 02       		.uleb128 0x2
 2432 0026 34070000 		.4byte	.LASF0
 2433 002a 04       		.byte	0x4
 2434 002b 1B       		.byte	0x1b
 2435 002c 30000000 		.4byte	0x30
 2436 0030 03       		.uleb128 0x3
 2437 0031 01       		.byte	0x1
 2438 0032 06       		.byte	0x6
 2439 0033 CC020000 		.4byte	.LASF2
 2440 0037 02       		.uleb128 0x2
 2441 0038 E6010000 		.4byte	.LASF1
 2442 003c 04       		.byte	0x4
 2443 003d 1D       		.byte	0x1d
 2444 003e 42000000 		.4byte	0x42
 2445 0042 03       		.uleb128 0x3
 2446 0043 01       		.byte	0x1
 2447 0044 08       		.byte	0x8
 2448 0045 12030000 		.4byte	.LASF3
 2449 0049 02       		.uleb128 0x2
 2450 004a ED070000 		.4byte	.LASF4
 2451 004e 04       		.byte	0x4
ARM GAS  C:\Users\pearlstl\AppData\Local\Temp\ccmYHcOW.s 			page 73


 2452 004f 29       		.byte	0x29
 2453 0050 54000000 		.4byte	0x54
 2454 0054 03       		.uleb128 0x3
 2455 0055 02       		.byte	0x2
 2456 0056 05       		.byte	0x5
 2457 0057 92080000 		.4byte	.LASF5
 2458 005b 02       		.uleb128 0x2
 2459 005c BA030000 		.4byte	.LASF6
 2460 0060 04       		.byte	0x4
 2461 0061 2B       		.byte	0x2b
 2462 0062 66000000 		.4byte	0x66
 2463 0066 03       		.uleb128 0x3
 2464 0067 02       		.byte	0x2
 2465 0068 07       		.byte	0x7
 2466 0069 5B0A0000 		.4byte	.LASF7
 2467 006d 03       		.uleb128 0x3
 2468 006e 04       		.byte	0x4
 2469 006f 05       		.byte	0x5
 2470 0070 4C020000 		.4byte	.LASF8
 2471 0074 02       		.uleb128 0x2
 2472 0075 5A050000 		.4byte	.LASF9
 2473 0079 04       		.byte	0x4
 2474 007a 41       		.byte	0x41
 2475 007b 7F000000 		.4byte	0x7f
 2476 007f 03       		.uleb128 0x3
 2477 0080 04       		.byte	0x4
 2478 0081 07       		.byte	0x7
 2479 0082 B5040000 		.4byte	.LASF10
 2480 0086 03       		.uleb128 0x3
 2481 0087 08       		.byte	0x8
 2482 0088 05       		.byte	0x5
 2483 0089 7C050000 		.4byte	.LASF11
 2484 008d 03       		.uleb128 0x3
 2485 008e 08       		.byte	0x8
 2486 008f 07       		.byte	0x7
 2487 0090 58070000 		.4byte	.LASF12
 2488 0094 04       		.uleb128 0x4
 2489 0095 04       		.byte	0x4
 2490 0096 05       		.byte	0x5
 2491 0097 696E7400 		.ascii	"int\000"
 2492 009b 03       		.uleb128 0x3
 2493 009c 04       		.byte	0x4
 2494 009d 07       		.byte	0x7
 2495 009e FD050000 		.4byte	.LASF13
 2496 00a2 02       		.uleb128 0x2
 2497 00a3 00000000 		.4byte	.LASF14
 2498 00a7 05       		.byte	0x5
 2499 00a8 14       		.byte	0x14
 2500 00a9 25000000 		.4byte	0x25
 2501 00ad 02       		.uleb128 0x2
 2502 00ae D8020000 		.4byte	.LASF15
 2503 00b2 05       		.byte	0x5
 2504 00b3 18       		.byte	0x18
 2505 00b4 37000000 		.4byte	0x37
 2506 00b8 02       		.uleb128 0x2
 2507 00b9 D8080000 		.4byte	.LASF16
 2508 00bd 05       		.byte	0x5
ARM GAS  C:\Users\pearlstl\AppData\Local\Temp\ccmYHcOW.s 			page 74


 2509 00be 20       		.byte	0x20
 2510 00bf 49000000 		.4byte	0x49
 2511 00c3 02       		.uleb128 0x2
 2512 00c4 76070000 		.4byte	.LASF17
 2513 00c8 05       		.byte	0x5
 2514 00c9 24       		.byte	0x24
 2515 00ca 5B000000 		.4byte	0x5b
 2516 00ce 02       		.uleb128 0x2
 2517 00cf 240A0000 		.4byte	.LASF18
 2518 00d3 05       		.byte	0x5
 2519 00d4 30       		.byte	0x30
 2520 00d5 74000000 		.4byte	0x74
 2521 00d9 02       		.uleb128 0x2
 2522 00da 6E0A0000 		.4byte	.LASF19
 2523 00de 06       		.byte	0x6
 2524 00df 3A       		.byte	0x3a
 2525 00e0 B8000000 		.4byte	0xb8
 2526 00e4 05       		.uleb128 0x5
 2527 00e5 04       		.byte	0x4
 2528 00e6 03       		.uleb128 0x3
 2529 00e7 08       		.byte	0x8
 2530 00e8 04       		.byte	0x4
 2531 00e9 CB060000 		.4byte	.LASF20
 2532 00ed 06       		.uleb128 0x6
 2533 00ee 08       		.byte	0x8
 2534 00ef 07       		.byte	0x7
 2535 00f0 2E       		.byte	0x2e
 2536 00f1 3E010000 		.4byte	0x13e
 2537 00f5 07       		.uleb128 0x7
 2538 00f6 2B000000 		.4byte	.LASF21
 2539 00fa 07       		.byte	0x7
 2540 00fb 30       		.byte	0x30
 2541 00fc C3000000 		.4byte	0xc3
 2542 0100 00       		.byte	0
 2543 0101 07       		.uleb128 0x7
 2544 0102 8C080000 		.4byte	.LASF22
 2545 0106 07       		.byte	0x7
 2546 0107 31       		.byte	0x31
 2547 0108 AD000000 		.4byte	0xad
 2548 010c 02       		.byte	0x2
 2549 010d 07       		.uleb128 0x7
 2550 010e 81080000 		.4byte	.LASF23
 2551 0112 07       		.byte	0x7
 2552 0113 32       		.byte	0x32
 2553 0114 AD000000 		.4byte	0xad
 2554 0118 03       		.byte	0x3
 2555 0119 07       		.uleb128 0x7
 2556 011a 4A030000 		.4byte	.LASF24
 2557 011e 07       		.byte	0x7
 2558 011f 33       		.byte	0x33
 2559 0120 A2000000 		.4byte	0xa2
 2560 0124 04       		.byte	0x4
 2561 0125 07       		.uleb128 0x7
 2562 0126 50030000 		.4byte	.LASF25
 2563 012a 07       		.byte	0x7
 2564 012b 34       		.byte	0x34
 2565 012c A2000000 		.4byte	0xa2
ARM GAS  C:\Users\pearlstl\AppData\Local\Temp\ccmYHcOW.s 			page 75


 2566 0130 05       		.byte	0x5
 2567 0131 08       		.uleb128 0x8
 2568 0132 62707000 		.ascii	"bpp\000"
 2569 0136 07       		.byte	0x7
 2570 0137 35       		.byte	0x35
 2571 0138 AD000000 		.4byte	0xad
 2572 013c 06       		.byte	0x6
 2573 013d 00       		.byte	0
 2574 013e 02       		.uleb128 0x2
 2575 013f 62060000 		.4byte	.LASF26
 2576 0143 07       		.byte	0x7
 2577 0144 36       		.byte	0x36
 2578 0145 ED000000 		.4byte	0xed
 2579 0149 09       		.uleb128 0x9
 2580 014a 01       		.byte	0x1
 2581 014b 42000000 		.4byte	0x42
 2582 014f 07       		.byte	0x7
 2583 0150 3A       		.byte	0x3a
 2584 0151 6E010000 		.4byte	0x16e
 2585 0155 0A       		.uleb128 0xa
 2586 0156 18000000 		.4byte	.LASF27
 2587 015a 00       		.byte	0
 2588 015b 0A       		.uleb128 0xa
 2589 015c EB050000 		.4byte	.LASF28
 2590 0160 01       		.byte	0x1
 2591 0161 0A       		.uleb128 0xa
 2592 0162 96000000 		.4byte	.LASF29
 2593 0166 02       		.byte	0x2
 2594 0167 0A       		.uleb128 0xa
 2595 0168 26020000 		.4byte	.LASF30
 2596 016c 03       		.byte	0x3
 2597 016d 00       		.byte	0
 2598 016e 0B       		.uleb128 0xb
 2599 016f FC0A0000 		.4byte	.LASF98
 2600 0173 10       		.byte	0x10
 2601 0174 07       		.byte	0x7
 2602 0175 44       		.byte	0x44
 2603 0176 C6010000 		.4byte	0x1c6
 2604 017a 07       		.uleb128 0x7
 2605 017b A10A0000 		.4byte	.LASF31
 2606 017f 07       		.byte	0x7
 2607 0180 47       		.byte	0x47
 2608 0181 FC010000 		.4byte	0x1fc
 2609 0185 00       		.byte	0
 2610 0186 07       		.uleb128 0x7
 2611 0187 F1020000 		.4byte	.LASF32
 2612 018b 07       		.byte	0x7
 2613 018c 4A       		.byte	0x4a
 2614 018d 21020000 		.4byte	0x221
 2615 0191 04       		.byte	0x4
 2616 0192 07       		.uleb128 0x7
 2617 0193 C7000000 		.4byte	.LASF33
 2618 0197 07       		.byte	0x7
 2619 0198 4D       		.byte	0x4d
 2620 0199 AD000000 		.4byte	0xad
 2621 019d 08       		.byte	0x8
 2622 019e 07       		.uleb128 0x7
ARM GAS  C:\Users\pearlstl\AppData\Local\Temp\ccmYHcOW.s 			page 76


 2623 019f 9C080000 		.4byte	.LASF34
 2624 01a3 07       		.byte	0x7
 2625 01a4 4E       		.byte	0x4e
 2626 01a5 A2000000 		.4byte	0xa2
 2627 01a9 09       		.byte	0x9
 2628 01aa 0C       		.uleb128 0xc
 2629 01ab FF060000 		.4byte	.LASF82
 2630 01af 07       		.byte	0x7
 2631 01b0 4F       		.byte	0x4f
 2632 01b1 AD000000 		.4byte	0xad
 2633 01b5 01       		.byte	0x1
 2634 01b6 02       		.byte	0x2
 2635 01b7 06       		.byte	0x6
 2636 01b8 0A       		.byte	0xa
 2637 01b9 08       		.uleb128 0x8
 2638 01ba 64736300 		.ascii	"dsc\000"
 2639 01be 07       		.byte	0x7
 2640 01bf 50       		.byte	0x50
 2641 01c0 E4000000 		.4byte	0xe4
 2642 01c4 0C       		.byte	0xc
 2643 01c5 00       		.byte	0
 2644 01c6 0D       		.uleb128 0xd
 2645 01c7 E4010000 		.4byte	0x1e4
 2646 01cb E4010000 		.4byte	0x1e4
 2647 01cf 0E       		.uleb128 0xe
 2648 01d0 EB010000 		.4byte	0x1eb
 2649 01d4 0E       		.uleb128 0xe
 2650 01d5 F6010000 		.4byte	0x1f6
 2651 01d9 0E       		.uleb128 0xe
 2652 01da CE000000 		.4byte	0xce
 2653 01de 0E       		.uleb128 0xe
 2654 01df CE000000 		.4byte	0xce
 2655 01e3 00       		.byte	0
 2656 01e4 03       		.uleb128 0x3
 2657 01e5 01       		.byte	0x1
 2658 01e6 02       		.byte	0x2
 2659 01e7 56030000 		.4byte	.LASF35
 2660 01eb 0F       		.uleb128 0xf
 2661 01ec 04       		.byte	0x4
 2662 01ed F1010000 		.4byte	0x1f1
 2663 01f1 10       		.uleb128 0x10
 2664 01f2 6E010000 		.4byte	0x16e
 2665 01f6 0F       		.uleb128 0xf
 2666 01f7 04       		.byte	0x4
 2667 01f8 3E010000 		.4byte	0x13e
 2668 01fc 0F       		.uleb128 0xf
 2669 01fd 04       		.byte	0x4
 2670 01fe C6010000 		.4byte	0x1c6
 2671 0202 0D       		.uleb128 0xd
 2672 0203 16020000 		.4byte	0x216
 2673 0207 16020000 		.4byte	0x216
 2674 020b 0E       		.uleb128 0xe
 2675 020c EB010000 		.4byte	0x1eb
 2676 0210 0E       		.uleb128 0xe
 2677 0211 CE000000 		.4byte	0xce
 2678 0215 00       		.byte	0
 2679 0216 0F       		.uleb128 0xf
ARM GAS  C:\Users\pearlstl\AppData\Local\Temp\ccmYHcOW.s 			page 77


 2680 0217 04       		.byte	0x4
 2681 0218 1C020000 		.4byte	0x21c
 2682 021c 10       		.uleb128 0x10
 2683 021d AD000000 		.4byte	0xad
 2684 0221 0F       		.uleb128 0xf
 2685 0222 04       		.byte	0x4
 2686 0223 02020000 		.4byte	0x202
 2687 0227 02       		.uleb128 0x2
 2688 0228 330A0000 		.4byte	.LASF36
 2689 022c 07       		.byte	0x7
 2690 022d 56       		.byte	0x56
 2691 022e 6E010000 		.4byte	0x16e
 2692 0232 09       		.uleb128 0x9
 2693 0233 01       		.byte	0x1
 2694 0234 42000000 		.4byte	0x42
 2695 0238 03       		.byte	0x3
 2696 0239 3E       		.byte	0x3e
 2697 023a 8D020000 		.4byte	0x28d
 2698 023e 0A       		.uleb128 0xa
 2699 023f CD050000 		.4byte	.LASF37
 2700 0243 00       		.byte	0
 2701 0244 0A       		.uleb128 0xa
 2702 0245 08050000 		.4byte	.LASF38
 2703 0249 00       		.byte	0
 2704 024a 0A       		.uleb128 0xa
 2705 024b CA070000 		.4byte	.LASF39
 2706 024f 19       		.byte	0x19
 2707 0250 0A       		.uleb128 0xa
 2708 0251 01080000 		.4byte	.LASF40
 2709 0255 33       		.byte	0x33
 2710 0256 0A       		.uleb128 0xa
 2711 0257 6E080000 		.4byte	.LASF41
 2712 025b 4C       		.byte	0x4c
 2713 025c 0A       		.uleb128 0xa
 2714 025d CE080000 		.4byte	.LASF42
 2715 0261 66       		.byte	0x66
 2716 0262 0A       		.uleb128 0xa
 2717 0263 A9090000 		.4byte	.LASF43
 2718 0267 7F       		.byte	0x7f
 2719 0268 0A       		.uleb128 0xa
 2720 0269 1A0A0000 		.4byte	.LASF44
 2721 026d 99       		.byte	0x99
 2722 026e 0A       		.uleb128 0xa
 2723 026f 510A0000 		.4byte	.LASF45
 2724 0273 B2       		.byte	0xb2
 2725 0274 0A       		.uleb128 0xa
 2726 0275 C00A0000 		.4byte	.LASF46
 2727 0279 CC       		.byte	0xcc
 2728 027a 0A       		.uleb128 0xa
 2729 027b 270B0000 		.4byte	.LASF47
 2730 027f E5       		.byte	0xe5
 2731 0280 0A       		.uleb128 0xa
 2732 0281 89060000 		.4byte	.LASF48
 2733 0285 FF       		.byte	0xff
 2734 0286 0A       		.uleb128 0xa
 2735 0287 05070000 		.4byte	.LASF49
 2736 028b FF       		.byte	0xff
ARM GAS  C:\Users\pearlstl\AppData\Local\Temp\ccmYHcOW.s 			page 78


 2737 028c 00       		.byte	0
 2738 028d 06       		.uleb128 0x6
 2739 028e 04       		.byte	0x4
 2740 028f 03       		.byte	0x3
 2741 0290 F3       		.byte	0xf3
 2742 0291 C6020000 		.4byte	0x2c6
 2743 0295 07       		.uleb128 0x7
 2744 0296 02030000 		.4byte	.LASF50
 2745 029a 03       		.byte	0x3
 2746 029b F5       		.byte	0xf5
 2747 029c AD000000 		.4byte	0xad
 2748 02a0 00       		.byte	0
 2749 02a1 07       		.uleb128 0x7
 2750 02a2 2D0A0000 		.4byte	.LASF51
 2751 02a6 03       		.byte	0x3
 2752 02a7 F6       		.byte	0xf6
 2753 02a8 AD000000 		.4byte	0xad
 2754 02ac 01       		.byte	0x1
 2755 02ad 08       		.uleb128 0x8
 2756 02ae 72656400 		.ascii	"red\000"
 2757 02b2 03       		.byte	0x3
 2758 02b3 F7       		.byte	0xf7
 2759 02b4 AD000000 		.4byte	0xad
 2760 02b8 02       		.byte	0x2
 2761 02b9 07       		.uleb128 0x7
 2762 02ba F0010000 		.4byte	.LASF52
 2763 02be 03       		.byte	0x3
 2764 02bf F8       		.byte	0xf8
 2765 02c0 AD000000 		.4byte	0xad
 2766 02c4 03       		.byte	0x3
 2767 02c5 00       		.byte	0
 2768 02c6 11       		.uleb128 0x11
 2769 02c7 04       		.byte	0x4
 2770 02c8 03       		.byte	0x3
 2771 02c9 F1       		.byte	0xf1
 2772 02ca E4020000 		.4byte	0x2e4
 2773 02ce 12       		.uleb128 0x12
 2774 02cf 636800   		.ascii	"ch\000"
 2775 02d2 03       		.byte	0x3
 2776 02d3 F9       		.byte	0xf9
 2777 02d4 8D020000 		.4byte	0x28d
 2778 02d8 13       		.uleb128 0x13
 2779 02d9 FC070000 		.4byte	.LASF53
 2780 02dd 03       		.byte	0x3
 2781 02de FA       		.byte	0xfa
 2782 02df CE000000 		.4byte	0xce
 2783 02e3 00       		.byte	0
 2784 02e4 02       		.uleb128 0x2
 2785 02e5 44000000 		.4byte	.LASF54
 2786 02e9 03       		.byte	0x3
 2787 02ea FB       		.byte	0xfb
 2788 02eb C6020000 		.4byte	0x2c6
 2789 02ef 14       		.uleb128 0x14
 2790 02f0 88070000 		.4byte	.LASF55
 2791 02f4 03       		.byte	0x3
 2792 02f5 0801     		.2byte	0x108
 2793 02f7 E4020000 		.4byte	0x2e4
ARM GAS  C:\Users\pearlstl\AppData\Local\Temp\ccmYHcOW.s 			page 79


 2794 02fb 14       		.uleb128 0x14
 2795 02fc 85000000 		.4byte	.LASF56
 2796 0300 03       		.byte	0x3
 2797 0301 0D01     		.2byte	0x10d
 2798 0303 AD000000 		.4byte	0xad
 2799 0307 03       		.uleb128 0x3
 2800 0308 04       		.byte	0x4
 2801 0309 07       		.byte	0x7
 2802 030a 31000000 		.4byte	.LASF57
 2803 030e 03       		.uleb128 0x3
 2804 030f 01       		.byte	0x1
 2805 0310 08       		.byte	0x8
 2806 0311 7B030000 		.4byte	.LASF58
 2807 0315 06       		.uleb128 0x6
 2808 0316 04       		.byte	0x4
 2809 0317 02       		.byte	0x2
 2810 0318 2A       		.byte	0x2a
 2811 0319 32030000 		.4byte	0x332
 2812 031d 08       		.uleb128 0x8
 2813 031e 7800     		.ascii	"x\000"
 2814 0320 02       		.byte	0x2
 2815 0321 2C       		.byte	0x2c
 2816 0322 D9000000 		.4byte	0xd9
 2817 0326 00       		.byte	0
 2818 0327 08       		.uleb128 0x8
 2819 0328 7900     		.ascii	"y\000"
 2820 032a 02       		.byte	0x2
 2821 032b 2D       		.byte	0x2d
 2822 032c D9000000 		.4byte	0xd9
 2823 0330 02       		.byte	0x2
 2824 0331 00       		.byte	0
 2825 0332 02       		.uleb128 0x2
 2826 0333 A8000000 		.4byte	.LASF59
 2827 0337 02       		.byte	0x2
 2828 0338 2E       		.byte	0x2e
 2829 0339 15030000 		.4byte	0x315
 2830 033d 06       		.uleb128 0x6
 2831 033e 08       		.byte	0x8
 2832 033f 02       		.byte	0x2
 2833 0340 31       		.byte	0x31
 2834 0341 72030000 		.4byte	0x372
 2835 0345 08       		.uleb128 0x8
 2836 0346 783100   		.ascii	"x1\000"
 2837 0349 02       		.byte	0x2
 2838 034a 33       		.byte	0x33
 2839 034b D9000000 		.4byte	0xd9
 2840 034f 00       		.byte	0
 2841 0350 08       		.uleb128 0x8
 2842 0351 793100   		.ascii	"y1\000"
 2843 0354 02       		.byte	0x2
 2844 0355 34       		.byte	0x34
 2845 0356 D9000000 		.4byte	0xd9
 2846 035a 02       		.byte	0x2
 2847 035b 08       		.uleb128 0x8
 2848 035c 783200   		.ascii	"x2\000"
 2849 035f 02       		.byte	0x2
 2850 0360 35       		.byte	0x35
ARM GAS  C:\Users\pearlstl\AppData\Local\Temp\ccmYHcOW.s 			page 80


 2851 0361 D9000000 		.4byte	0xd9
 2852 0365 04       		.byte	0x4
 2853 0366 08       		.uleb128 0x8
 2854 0367 793200   		.ascii	"y2\000"
 2855 036a 02       		.byte	0x2
 2856 036b 36       		.byte	0x36
 2857 036c D9000000 		.4byte	0xd9
 2858 0370 06       		.byte	0x6
 2859 0371 00       		.byte	0
 2860 0372 02       		.uleb128 0x2
 2861 0373 55040000 		.4byte	.LASF60
 2862 0377 02       		.byte	0x2
 2863 0378 37       		.byte	0x37
 2864 0379 3D030000 		.4byte	0x33d
 2865 037d 02       		.uleb128 0x2
 2866 037e AF0A0000 		.4byte	.LASF61
 2867 0382 08       		.byte	0x8
 2868 0383 2C       		.byte	0x2c
 2869 0384 AD000000 		.4byte	0xad
 2870 0388 02       		.uleb128 0x2
 2871 0389 31080000 		.4byte	.LASF62
 2872 038d 08       		.byte	0x8
 2873 038e 33       		.byte	0x33
 2874 038f AD000000 		.4byte	0xad
 2875 0393 06       		.uleb128 0x6
 2876 0394 08       		.byte	0x8
 2877 0395 08       		.byte	0x8
 2878 0396 48       		.byte	0x48
 2879 0397 CC030000 		.4byte	0x3cc
 2880 039b 07       		.uleb128 0x7
 2881 039c 0B080000 		.4byte	.LASF63
 2882 03a0 08       		.byte	0x8
 2883 03a1 4A       		.byte	0x4a
 2884 03a2 EF020000 		.4byte	0x2ef
 2885 03a6 00       		.byte	0
 2886 03a7 07       		.uleb128 0x7
 2887 03a8 8A050000 		.4byte	.LASF64
 2888 03ac 08       		.byte	0x8
 2889 03ad 4B       		.byte	0x4b
 2890 03ae D9000000 		.4byte	0xd9
 2891 03b2 04       		.byte	0x4
 2892 03b3 07       		.uleb128 0x7
 2893 03b4 0C0B0000 		.4byte	.LASF65
 2894 03b8 08       		.byte	0x8
 2895 03b9 4C       		.byte	0x4c
 2896 03ba 7D030000 		.4byte	0x37d
 2897 03be 06       		.byte	0x6
 2898 03bf 08       		.uleb128 0x8
 2899 03c0 6F706100 		.ascii	"opa\000"
 2900 03c4 08       		.byte	0x8
 2901 03c5 4D       		.byte	0x4d
 2902 03c6 FB020000 		.4byte	0x2fb
 2903 03ca 07       		.byte	0x7
 2904 03cb 00       		.byte	0
 2905 03cc 06       		.uleb128 0x6
 2906 03cd 08       		.byte	0x8
 2907 03ce 08       		.byte	0x8
ARM GAS  C:\Users\pearlstl\AppData\Local\Temp\ccmYHcOW.s 			page 81


 2908 03cf 51       		.byte	0x51
 2909 03d0 F9030000 		.4byte	0x3f9
 2910 03d4 07       		.uleb128 0x7
 2911 03d5 0B080000 		.4byte	.LASF63
 2912 03d9 08       		.byte	0x8
 2913 03da 53       		.byte	0x53
 2914 03db EF020000 		.4byte	0x2ef
 2915 03df 00       		.byte	0
 2916 03e0 07       		.uleb128 0x7
 2917 03e1 8A050000 		.4byte	.LASF64
 2918 03e5 08       		.byte	0x8
 2919 03e6 54       		.byte	0x54
 2920 03e7 D9000000 		.4byte	0xd9
 2921 03eb 04       		.byte	0x4
 2922 03ec 07       		.uleb128 0x7
 2923 03ed 0E010000 		.4byte	.LASF66
 2924 03f1 08       		.byte	0x8
 2925 03f2 55       		.byte	0x55
 2926 03f3 88030000 		.4byte	0x388
 2927 03f7 06       		.byte	0x6
 2928 03f8 00       		.byte	0
 2929 03f9 06       		.uleb128 0x6
 2930 03fa 0A       		.byte	0xa
 2931 03fb 08       		.byte	0x8
 2932 03fc 58       		.byte	0x58
 2933 03fd 3E040000 		.4byte	0x43e
 2934 0401 08       		.uleb128 0x8
 2935 0402 746F7000 		.ascii	"top\000"
 2936 0406 08       		.byte	0x8
 2937 0407 5A       		.byte	0x5a
 2938 0408 D9000000 		.4byte	0xd9
 2939 040c 00       		.byte	0
 2940 040d 07       		.uleb128 0x7
 2941 040e 90050000 		.4byte	.LASF67
 2942 0412 08       		.byte	0x8
 2943 0413 5B       		.byte	0x5b
 2944 0414 D9000000 		.4byte	0xd9
 2945 0418 02       		.byte	0x2
 2946 0419 07       		.uleb128 0x7
 2947 041a 66040000 		.4byte	.LASF68
 2948 041e 08       		.byte	0x8
 2949 041f 5C       		.byte	0x5c
 2950 0420 D9000000 		.4byte	0xd9
 2951 0424 04       		.byte	0x4
 2952 0425 07       		.uleb128 0x7
 2953 0426 6E050000 		.4byte	.LASF69
 2954 042a 08       		.byte	0x8
 2955 042b 5D       		.byte	0x5d
 2956 042c D9000000 		.4byte	0xd9
 2957 0430 06       		.byte	0x6
 2958 0431 07       		.uleb128 0x7
 2959 0432 A4040000 		.4byte	.LASF70
 2960 0436 08       		.byte	0x8
 2961 0437 5E       		.byte	0x5e
 2962 0438 D9000000 		.4byte	0xd9
 2963 043c 08       		.byte	0x8
 2964 043d 00       		.byte	0
ARM GAS  C:\Users\pearlstl\AppData\Local\Temp\ccmYHcOW.s 			page 82


 2965 043e 06       		.uleb128 0x6
 2966 043f 28       		.byte	0x28
 2967 0440 08       		.byte	0x8
 2968 0441 41       		.byte	0x41
 2969 0442 9B040000 		.4byte	0x49b
 2970 0446 07       		.uleb128 0x7
 2971 0447 29070000 		.4byte	.LASF71
 2972 044b 08       		.byte	0x8
 2973 044c 43       		.byte	0x43
 2974 044d EF020000 		.4byte	0x2ef
 2975 0451 00       		.byte	0
 2976 0452 07       		.uleb128 0x7
 2977 0453 76060000 		.4byte	.LASF72
 2978 0457 08       		.byte	0x8
 2979 0458 44       		.byte	0x44
 2980 0459 EF020000 		.4byte	0x2ef
 2981 045d 04       		.byte	0x4
 2982 045e 07       		.uleb128 0x7
 2983 045f B3000000 		.4byte	.LASF73
 2984 0463 08       		.byte	0x8
 2985 0464 45       		.byte	0x45
 2986 0465 D9000000 		.4byte	0xd9
 2987 0469 08       		.byte	0x8
 2988 046a 08       		.uleb128 0x8
 2989 046b 6F706100 		.ascii	"opa\000"
 2990 046f 08       		.byte	0x8
 2991 0470 46       		.byte	0x46
 2992 0471 FB020000 		.4byte	0x2fb
 2993 0475 0A       		.byte	0xa
 2994 0476 07       		.uleb128 0x7
 2995 0477 920A0000 		.4byte	.LASF74
 2996 047b 08       		.byte	0x8
 2997 047c 4E       		.byte	0x4e
 2998 047d 93030000 		.4byte	0x393
 2999 0481 0C       		.byte	0xc
 3000 0482 07       		.uleb128 0x7
 3001 0483 A2090000 		.4byte	.LASF75
 3002 0487 08       		.byte	0x8
 3003 0488 56       		.byte	0x56
 3004 0489 CC030000 		.4byte	0x3cc
 3005 048d 14       		.byte	0x14
 3006 048e 07       		.uleb128 0x7
 3007 048f 080A0000 		.4byte	.LASF76
 3008 0493 08       		.byte	0x8
 3009 0494 5F       		.byte	0x5f
 3010 0495 F9030000 		.4byte	0x3f9
 3011 0499 1C       		.byte	0x1c
 3012 049a 00       		.byte	0
 3013 049b 06       		.uleb128 0x6
 3014 049c 14       		.byte	0x14
 3015 049d 08       		.byte	0x8
 3016 049e 63       		.byte	0x63
 3017 049f EC040000 		.4byte	0x4ec
 3018 04a3 07       		.uleb128 0x7
 3019 04a4 0B080000 		.4byte	.LASF63
 3020 04a8 08       		.byte	0x8
 3021 04a9 65       		.byte	0x65
ARM GAS  C:\Users\pearlstl\AppData\Local\Temp\ccmYHcOW.s 			page 83


 3022 04aa EF020000 		.4byte	0x2ef
 3023 04ae 00       		.byte	0
 3024 04af 07       		.uleb128 0x7
 3025 04b0 D60A0000 		.4byte	.LASF77
 3026 04b4 08       		.byte	0x8
 3027 04b5 66       		.byte	0x66
 3028 04b6 EF020000 		.4byte	0x2ef
 3029 04ba 04       		.byte	0x4
 3030 04bb 07       		.uleb128 0x7
 3031 04bc 5C080000 		.4byte	.LASF78
 3032 04c0 08       		.byte	0x8
 3033 04c1 67       		.byte	0x67
 3034 04c2 EC040000 		.4byte	0x4ec
 3035 04c6 08       		.byte	0x8
 3036 04c7 07       		.uleb128 0x7
 3037 04c8 61080000 		.4byte	.LASF79
 3038 04cc 08       		.byte	0x8
 3039 04cd 68       		.byte	0x68
 3040 04ce D9000000 		.4byte	0xd9
 3041 04d2 0C       		.byte	0xc
 3042 04d3 07       		.uleb128 0x7
 3043 04d4 11080000 		.4byte	.LASF80
 3044 04d8 08       		.byte	0x8
 3045 04d9 69       		.byte	0x69
 3046 04da D9000000 		.4byte	0xd9
 3047 04de 0E       		.byte	0xe
 3048 04df 08       		.uleb128 0x8
 3049 04e0 6F706100 		.ascii	"opa\000"
 3050 04e4 08       		.byte	0x8
 3051 04e5 6A       		.byte	0x6a
 3052 04e6 FB020000 		.4byte	0x2fb
 3053 04ea 10       		.byte	0x10
 3054 04eb 00       		.byte	0
 3055 04ec 0F       		.uleb128 0xf
 3056 04ed 04       		.byte	0x4
 3057 04ee F2040000 		.4byte	0x4f2
 3058 04f2 10       		.uleb128 0x10
 3059 04f3 27020000 		.4byte	0x227
 3060 04f7 06       		.uleb128 0x6
 3061 04f8 08       		.byte	0x8
 3062 04f9 08       		.byte	0x8
 3063 04fa 6E       		.byte	0x6e
 3064 04fb 24050000 		.4byte	0x524
 3065 04ff 07       		.uleb128 0x7
 3066 0500 0B080000 		.4byte	.LASF63
 3067 0504 08       		.byte	0x8
 3068 0505 70       		.byte	0x70
 3069 0506 EF020000 		.4byte	0x2ef
 3070 050a 00       		.byte	0
 3071 050b 07       		.uleb128 0x7
 3072 050c 8E000000 		.4byte	.LASF81
 3073 0510 08       		.byte	0x8
 3074 0511 71       		.byte	0x71
 3075 0512 FB020000 		.4byte	0x2fb
 3076 0516 04       		.byte	0x4
 3077 0517 08       		.uleb128 0x8
 3078 0518 6F706100 		.ascii	"opa\000"
ARM GAS  C:\Users\pearlstl\AppData\Local\Temp\ccmYHcOW.s 			page 84


 3079 051c 08       		.byte	0x8
 3080 051d 72       		.byte	0x72
 3081 051e FB020000 		.4byte	0x2fb
 3082 0522 05       		.byte	0x5
 3083 0523 00       		.byte	0
 3084 0524 06       		.uleb128 0x6
 3085 0525 08       		.byte	0x8
 3086 0526 08       		.byte	0x8
 3087 0527 76       		.byte	0x76
 3088 0528 60050000 		.4byte	0x560
 3089 052c 07       		.uleb128 0x7
 3090 052d 0B080000 		.4byte	.LASF63
 3091 0531 08       		.byte	0x8
 3092 0532 78       		.byte	0x78
 3093 0533 EF020000 		.4byte	0x2ef
 3094 0537 00       		.byte	0
 3095 0538 07       		.uleb128 0x7
 3096 0539 8A050000 		.4byte	.LASF64
 3097 053d 08       		.byte	0x8
 3098 053e 79       		.byte	0x79
 3099 053f D9000000 		.4byte	0xd9
 3100 0543 04       		.byte	0x4
 3101 0544 08       		.uleb128 0x8
 3102 0545 6F706100 		.ascii	"opa\000"
 3103 0549 08       		.byte	0x8
 3104 054a 7A       		.byte	0x7a
 3105 054b FB020000 		.4byte	0x2fb
 3106 054f 06       		.byte	0x6
 3107 0550 0C       		.uleb128 0xc
 3108 0551 FF030000 		.4byte	.LASF83
 3109 0555 08       		.byte	0x8
 3110 0556 7B       		.byte	0x7b
 3111 0557 AD000000 		.4byte	0xad
 3112 055b 01       		.byte	0x1
 3113 055c 01       		.byte	0x1
 3114 055d 07       		.byte	0x7
 3115 055e 07       		.byte	0x7
 3116 055f 00       		.byte	0
 3117 0560 06       		.uleb128 0x6
 3118 0561 50       		.byte	0x50
 3119 0562 08       		.byte	0x8
 3120 0563 3C       		.byte	0x3c
 3121 0564 A8050000 		.4byte	0x5a8
 3122 0568 0C       		.uleb128 0xc
 3123 0569 E5050000 		.4byte	.LASF84
 3124 056d 08       		.byte	0x8
 3125 056e 3E       		.byte	0x3e
 3126 056f AD000000 		.4byte	0xad
 3127 0573 01       		.byte	0x1
 3128 0574 01       		.byte	0x1
 3129 0575 07       		.byte	0x7
 3130 0576 00       		.byte	0
 3131 0577 07       		.uleb128 0x7
 3132 0578 96030000 		.4byte	.LASF85
 3133 057c 08       		.byte	0x8
 3134 057d 60       		.byte	0x60
 3135 057e 3E040000 		.4byte	0x43e
ARM GAS  C:\Users\pearlstl\AppData\Local\Temp\ccmYHcOW.s 			page 85


 3136 0582 04       		.byte	0x4
 3137 0583 07       		.uleb128 0x7
 3138 0584 F4030000 		.4byte	.LASF86
 3139 0588 08       		.byte	0x8
 3140 0589 6B       		.byte	0x6b
 3141 058a 9B040000 		.4byte	0x49b
 3142 058e 2C       		.byte	0x2c
 3143 058f 07       		.uleb128 0x7
 3144 0590 F9030000 		.4byte	.LASF87
 3145 0594 08       		.byte	0x8
 3146 0595 73       		.byte	0x73
 3147 0596 F7040000 		.4byte	0x4f7
 3148 059a 40       		.byte	0x40
 3149 059b 07       		.uleb128 0x7
 3150 059c FC040000 		.4byte	.LASF88
 3151 05a0 08       		.byte	0x8
 3152 05a1 7C       		.byte	0x7c
 3153 05a2 24050000 		.4byte	0x524
 3154 05a6 48       		.byte	0x48
 3155 05a7 00       		.byte	0
 3156 05a8 02       		.uleb128 0x2
 3157 05a9 99040000 		.4byte	.LASF89
 3158 05ad 08       		.byte	0x8
 3159 05ae 84       		.byte	0x84
 3160 05af 60050000 		.4byte	0x560
 3161 05b3 02       		.uleb128 0x2
 3162 05b4 B0060000 		.4byte	.LASF90
 3163 05b8 09       		.byte	0x9
 3164 05b9 2C       		.byte	0x2c
 3165 05ba AD000000 		.4byte	0xad
 3166 05be 02       		.uleb128 0x2
 3167 05bf 81090000 		.4byte	.LASF91
 3168 05c3 0A       		.byte	0xa
 3169 05c4 1E       		.byte	0x1e
 3170 05c5 AD000000 		.4byte	0xad
 3171 05c9 06       		.uleb128 0x6
 3172 05ca 0C       		.byte	0xc
 3173 05cb 0A       		.byte	0xa
 3174 05cc 21       		.byte	0x21
 3175 05cd F6050000 		.4byte	0x5f6
 3176 05d1 07       		.uleb128 0x7
 3177 05d2 110B0000 		.4byte	.LASF92
 3178 05d6 0A       		.byte	0xa
 3179 05d7 23       		.byte	0x23
 3180 05d8 CE000000 		.4byte	0xce
 3181 05dc 00       		.byte	0
 3182 05dd 07       		.uleb128 0x7
 3183 05de 80020000 		.4byte	.LASF93
 3184 05e2 0A       		.byte	0xa
 3185 05e3 24       		.byte	0x24
 3186 05e4 F6050000 		.4byte	0x5f6
 3187 05e8 04       		.byte	0x4
 3188 05e9 07       		.uleb128 0x7
 3189 05ea 6D000000 		.4byte	.LASF94
 3190 05ee 0A       		.byte	0xa
 3191 05ef 25       		.byte	0x25
 3192 05f0 F6050000 		.4byte	0x5f6
ARM GAS  C:\Users\pearlstl\AppData\Local\Temp\ccmYHcOW.s 			page 86


 3193 05f4 08       		.byte	0x8
 3194 05f5 00       		.byte	0
 3195 05f6 0F       		.uleb128 0xf
 3196 05f7 04       		.byte	0x4
 3197 05f8 BE050000 		.4byte	0x5be
 3198 05fc 02       		.uleb128 0x2
 3199 05fd AC080000 		.4byte	.LASF95
 3200 0601 0A       		.byte	0xa
 3201 0602 26       		.byte	0x26
 3202 0603 C9050000 		.4byte	0x5c9
 3203 0607 02       		.uleb128 0x2
 3204 0608 21040000 		.4byte	.LASF96
 3205 060c 0B       		.byte	0xb
 3206 060d 30       		.byte	0x30
 3207 060e AD000000 		.4byte	0xad
 3208 0612 02       		.uleb128 0x2
 3209 0613 E00A0000 		.4byte	.LASF97
 3210 0617 0C       		.byte	0xc
 3211 0618 2B       		.byte	0x2b
 3212 0619 1D060000 		.4byte	0x61d
 3213 061d 0F       		.uleb128 0xf
 3214 061e 04       		.byte	0x4
 3215 061f 23060000 		.4byte	0x623
 3216 0623 15       		.uleb128 0x15
 3217 0624 2E060000 		.4byte	0x62e
 3218 0628 0E       		.uleb128 0xe
 3219 0629 2E060000 		.4byte	0x62e
 3220 062d 00       		.byte	0
 3221 062e 0F       		.uleb128 0xf
 3222 062f 04       		.byte	0x4
 3223 0630 34060000 		.4byte	0x634
 3224 0634 0B       		.uleb128 0xb
 3225 0635 AF030000 		.4byte	.LASF99
 3226 0639 14       		.byte	0x14
 3227 063a 0C       		.byte	0xc
 3228 063b 3E       		.byte	0x3e
 3229 063c 8F060000 		.4byte	0x68f
 3230 0640 07       		.uleb128 0x7
 3231 0641 DB070000 		.4byte	.LASF100
 3232 0645 0C       		.byte	0xc
 3233 0646 40       		.byte	0x40
 3234 0647 CE000000 		.4byte	0xce
 3235 064b 00       		.byte	0
 3236 064c 07       		.uleb128 0x7
 3237 064d 7F070000 		.4byte	.LASF101
 3238 0651 0C       		.byte	0xc
 3239 0652 41       		.byte	0x41
 3240 0653 CE000000 		.4byte	0xce
 3241 0657 04       		.byte	0x4
 3242 0658 07       		.uleb128 0x7
 3243 0659 42030000 		.4byte	.LASF102
 3244 065d 0C       		.byte	0xc
 3245 065e 42       		.byte	0x42
 3246 065f 12060000 		.4byte	0x612
 3247 0663 08       		.byte	0x8
 3248 0664 07       		.uleb128 0x7
 3249 0665 820A0000 		.4byte	.LASF103
ARM GAS  C:\Users\pearlstl\AppData\Local\Temp\ccmYHcOW.s 			page 87


 3250 0669 0C       		.byte	0xc
 3251 066a 44       		.byte	0x44
 3252 066b E4000000 		.4byte	0xe4
 3253 066f 0C       		.byte	0xc
 3254 0670 0C       		.uleb128 0xc
 3255 0671 D0010000 		.4byte	.LASF104
 3256 0675 0C       		.byte	0xc
 3257 0676 46       		.byte	0x46
 3258 0677 AD000000 		.4byte	0xad
 3259 067b 01       		.byte	0x1
 3260 067c 03       		.byte	0x3
 3261 067d 05       		.byte	0x5
 3262 067e 10       		.byte	0x10
 3263 067f 0C       		.uleb128 0xc
 3264 0680 48060000 		.4byte	.LASF105
 3265 0684 0C       		.byte	0xc
 3266 0685 47       		.byte	0x47
 3267 0686 AD000000 		.4byte	0xad
 3268 068a 01       		.byte	0x1
 3269 068b 01       		.byte	0x1
 3270 068c 04       		.byte	0x4
 3271 068d 10       		.byte	0x10
 3272 068e 00       		.byte	0
 3273 068f 02       		.uleb128 0x2
 3274 0690 B2070000 		.4byte	.LASF106
 3275 0694 0C       		.byte	0xc
 3276 0695 48       		.byte	0x48
 3277 0696 34060000 		.4byte	0x634
 3278 069a 06       		.uleb128 0x6
 3279 069b 1C       		.byte	0x1c
 3280 069c 0D       		.byte	0xd
 3281 069d 2F       		.byte	0x2f
 3282 069e EE060000 		.4byte	0x6ee
 3283 06a2 07       		.uleb128 0x7
 3284 06a3 B0050000 		.4byte	.LASF107
 3285 06a7 0D       		.byte	0xd
 3286 06a8 31       		.byte	0x31
 3287 06a9 E4000000 		.4byte	0xe4
 3288 06ad 00       		.byte	0
 3289 06ae 07       		.uleb128 0x7
 3290 06af B5050000 		.4byte	.LASF108
 3291 06b3 0D       		.byte	0xd
 3292 06b4 32       		.byte	0x32
 3293 06b5 E4000000 		.4byte	0xe4
 3294 06b9 04       		.byte	0x4
 3295 06ba 07       		.uleb128 0x7
 3296 06bb C3060000 		.4byte	.LASF109
 3297 06bf 0D       		.byte	0xd
 3298 06c0 35       		.byte	0x35
 3299 06c1 E4000000 		.4byte	0xe4
 3300 06c5 08       		.byte	0x8
 3301 06c6 07       		.uleb128 0x7
 3302 06c7 53070000 		.4byte	.LASF110
 3303 06cb 0D       		.byte	0xd
 3304 06cc 36       		.byte	0x36
 3305 06cd CE000000 		.4byte	0xce
 3306 06d1 0C       		.byte	0xc
ARM GAS  C:\Users\pearlstl\AppData\Local\Temp\ccmYHcOW.s 			page 88


 3307 06d2 07       		.uleb128 0x7
 3308 06d3 94040000 		.4byte	.LASF111
 3309 06d7 0D       		.byte	0xd
 3310 06d8 37       		.byte	0x37
 3311 06d9 72030000 		.4byte	0x372
 3312 06dd 10       		.byte	0x10
 3313 06de 0C       		.uleb128 0xc
 3314 06df EB030000 		.4byte	.LASF112
 3315 06e3 0D       		.byte	0xd
 3316 06e4 38       		.byte	0x38
 3317 06e5 EE060000 		.4byte	0x6ee
 3318 06e9 04       		.byte	0x4
 3319 06ea 01       		.byte	0x1
 3320 06eb 1F       		.byte	0x1f
 3321 06ec 18       		.byte	0x18
 3322 06ed 00       		.byte	0
 3323 06ee 16       		.uleb128 0x16
 3324 06ef CE000000 		.4byte	0xce
 3325 06f3 02       		.uleb128 0x2
 3326 06f4 4C050000 		.4byte	.LASF113
 3327 06f8 0D       		.byte	0xd
 3328 06f9 39       		.byte	0x39
 3329 06fa 9A060000 		.4byte	0x69a
 3330 06fe 0B       		.uleb128 0xb
 3331 06ff 19050000 		.4byte	.LASF114
 3332 0703 20       		.byte	0x20
 3333 0704 0D       		.byte	0xd
 3334 0705 3E       		.byte	0x3e
 3335 0706 7A070000 		.4byte	0x77a
 3336 070a 07       		.uleb128 0x7
 3337 070b E0020000 		.4byte	.LASF115
 3338 070f 0D       		.byte	0xd
 3339 0710 41       		.byte	0x41
 3340 0711 D9000000 		.4byte	0xd9
 3341 0715 00       		.byte	0
 3342 0716 07       		.uleb128 0x7
 3343 0717 F6010000 		.4byte	.LASF116
 3344 071b 0D       		.byte	0xd
 3345 071c 42       		.byte	0x42
 3346 071d D9000000 		.4byte	0xd9
 3347 0721 02       		.byte	0x2
 3348 0722 07       		.uleb128 0x7
 3349 0723 5F040000 		.4byte	.LASF117
 3350 0727 0D       		.byte	0xd
 3351 0728 46       		.byte	0x46
 3352 0729 7A070000 		.4byte	0x77a
 3353 072d 04       		.byte	0x4
 3354 072e 0C       		.uleb128 0xc
 3355 072f 5F020000 		.4byte	.LASF118
 3356 0733 0D       		.byte	0xd
 3357 0734 4B       		.byte	0x4b
 3358 0735 CE000000 		.4byte	0xce
 3359 0739 04       		.byte	0x4
 3360 073a 01       		.byte	0x1
 3361 073b 1F       		.byte	0x1f
 3362 073c 08       		.byte	0x8
 3363 073d 07       		.uleb128 0x7
ARM GAS  C:\Users\pearlstl\AppData\Local\Temp\ccmYHcOW.s 			page 89


 3364 073e 790A0000 		.4byte	.LASF119
 3365 0742 0D       		.byte	0xd
 3366 0743 55       		.byte	0x55
 3367 0744 AC070000 		.4byte	0x7ac
 3368 0748 0C       		.byte	0xc
 3369 0749 07       		.uleb128 0x7
 3370 074a E2070000 		.4byte	.LASF120
 3371 074e 0D       		.byte	0xd
 3372 074f 59       		.byte	0x59
 3373 0750 C8070000 		.4byte	0x7c8
 3374 0754 10       		.byte	0x10
 3375 0755 07       		.uleb128 0x7
 3376 0756 C2020000 		.4byte	.LASF121
 3377 075a 0D       		.byte	0xd
 3378 075b 5E       		.byte	0x5e
 3379 075c FD070000 		.4byte	0x7fd
 3380 0760 14       		.byte	0x14
 3381 0761 07       		.uleb128 0x7
 3382 0762 460A0000 		.4byte	.LASF122
 3383 0766 0D       		.byte	0xd
 3384 0767 63       		.byte	0x63
 3385 0768 18080000 		.4byte	0x818
 3386 076c 18       		.byte	0x18
 3387 076d 07       		.uleb128 0x7
 3388 076e 07000000 		.4byte	.LASF123
 3389 0772 0D       		.byte	0xd
 3390 0773 71       		.byte	0x71
 3391 0774 EF020000 		.4byte	0x2ef
 3392 0778 1C       		.byte	0x1c
 3393 0779 00       		.byte	0
 3394 077a 0F       		.uleb128 0xf
 3395 077b 04       		.byte	0x4
 3396 077c F3060000 		.4byte	0x6f3
 3397 0780 15       		.uleb128 0x15
 3398 0781 95070000 		.4byte	0x795
 3399 0785 0E       		.uleb128 0xe
 3400 0786 95070000 		.4byte	0x795
 3401 078a 0E       		.uleb128 0xe
 3402 078b 9B070000 		.4byte	0x79b
 3403 078f 0E       		.uleb128 0xe
 3404 0790 A6070000 		.4byte	0x7a6
 3405 0794 00       		.byte	0
 3406 0795 0F       		.uleb128 0xf
 3407 0796 04       		.byte	0x4
 3408 0797 FE060000 		.4byte	0x6fe
 3409 079b 0F       		.uleb128 0xf
 3410 079c 04       		.byte	0x4
 3411 079d A1070000 		.4byte	0x7a1
 3412 07a1 10       		.uleb128 0x10
 3413 07a2 72030000 		.4byte	0x372
 3414 07a6 0F       		.uleb128 0xf
 3415 07a7 04       		.byte	0x4
 3416 07a8 EF020000 		.4byte	0x2ef
 3417 07ac 0F       		.uleb128 0xf
 3418 07ad 04       		.byte	0x4
 3419 07ae 80070000 		.4byte	0x780
 3420 07b2 15       		.uleb128 0x15
ARM GAS  C:\Users\pearlstl\AppData\Local\Temp\ccmYHcOW.s 			page 90


 3421 07b3 C2070000 		.4byte	0x7c2
 3422 07b7 0E       		.uleb128 0xe
 3423 07b8 95070000 		.4byte	0x795
 3424 07bc 0E       		.uleb128 0xe
 3425 07bd C2070000 		.4byte	0x7c2
 3426 07c1 00       		.byte	0
 3427 07c2 0F       		.uleb128 0xf
 3428 07c3 04       		.byte	0x4
 3429 07c4 72030000 		.4byte	0x372
 3430 07c8 0F       		.uleb128 0xf
 3431 07c9 04       		.byte	0x4
 3432 07ca B2070000 		.4byte	0x7b2
 3433 07ce 15       		.uleb128 0x15
 3434 07cf F7070000 		.4byte	0x7f7
 3435 07d3 0E       		.uleb128 0xe
 3436 07d4 95070000 		.4byte	0x795
 3437 07d8 0E       		.uleb128 0xe
 3438 07d9 F7070000 		.4byte	0x7f7
 3439 07dd 0E       		.uleb128 0xe
 3440 07de D9000000 		.4byte	0xd9
 3441 07e2 0E       		.uleb128 0xe
 3442 07e3 D9000000 		.4byte	0xd9
 3443 07e7 0E       		.uleb128 0xe
 3444 07e8 D9000000 		.4byte	0xd9
 3445 07ec 0E       		.uleb128 0xe
 3446 07ed EF020000 		.4byte	0x2ef
 3447 07f1 0E       		.uleb128 0xe
 3448 07f2 FB020000 		.4byte	0x2fb
 3449 07f6 00       		.byte	0
 3450 07f7 0F       		.uleb128 0xf
 3451 07f8 04       		.byte	0x4
 3452 07f9 AD000000 		.4byte	0xad
 3453 07fd 0F       		.uleb128 0xf
 3454 07fe 04       		.byte	0x4
 3455 07ff CE070000 		.4byte	0x7ce
 3456 0803 15       		.uleb128 0x15
 3457 0804 18080000 		.4byte	0x818
 3458 0808 0E       		.uleb128 0xe
 3459 0809 95070000 		.4byte	0x795
 3460 080d 0E       		.uleb128 0xe
 3461 080e CE000000 		.4byte	0xce
 3462 0812 0E       		.uleb128 0xe
 3463 0813 CE000000 		.4byte	0xce
 3464 0817 00       		.byte	0
 3465 0818 0F       		.uleb128 0xf
 3466 0819 04       		.byte	0x4
 3467 081a 03080000 		.4byte	0x803
 3468 081e 02       		.uleb128 0x2
 3469 081f E4090000 		.4byte	.LASF124
 3470 0823 0D       		.byte	0xd
 3471 0824 77       		.byte	0x77
 3472 0825 FE060000 		.4byte	0x6fe
 3473 0829 17       		.uleb128 0x17
 3474 082a 81060000 		.4byte	.LASF125
 3475 082e 6401     		.2byte	0x164
 3476 0830 0D       		.byte	0xd
 3477 0831 7F       		.byte	0x7f
ARM GAS  C:\Users\pearlstl\AppData\Local\Temp\ccmYHcOW.s 			page 91


 3478 0832 B5080000 		.4byte	0x8b5
 3479 0836 07       		.uleb128 0x7
 3480 0837 21080000 		.4byte	.LASF126
 3481 083b 0D       		.byte	0xd
 3482 083c 82       		.byte	0x82
 3483 083d 1E080000 		.4byte	0x81e
 3484 0841 00       		.byte	0
 3485 0842 07       		.uleb128 0x7
 3486 0843 55020000 		.4byte	.LASF127
 3487 0847 0D       		.byte	0xd
 3488 0848 85       		.byte	0x85
 3489 0849 B5080000 		.4byte	0x8b5
 3490 084d 20       		.byte	0x20
 3491 084e 07       		.uleb128 0x7
 3492 084f DF010000 		.4byte	.LASF128
 3493 0853 0D       		.byte	0xd
 3494 0854 88       		.byte	0x88
 3495 0855 FC050000 		.4byte	0x5fc
 3496 0859 24       		.byte	0x24
 3497 085a 07       		.uleb128 0x7
 3498 085b 72000000 		.4byte	.LASF129
 3499 085f 0D       		.byte	0xd
 3500 0860 89       		.byte	0x89
 3501 0861 FD090000 		.4byte	0x9fd
 3502 0865 30       		.byte	0x30
 3503 0866 07       		.uleb128 0x7
 3504 0867 20030000 		.4byte	.LASF130
 3505 086b 0D       		.byte	0xd
 3506 086c 8A       		.byte	0x8a
 3507 086d FD090000 		.4byte	0x9fd
 3508 0871 34       		.byte	0x34
 3509 0872 07       		.uleb128 0x7
 3510 0873 77090000 		.4byte	.LASF131
 3511 0877 0D       		.byte	0xd
 3512 0878 8B       		.byte	0x8b
 3513 0879 FD090000 		.4byte	0x9fd
 3514 087d 38       		.byte	0x38
 3515 087e 07       		.uleb128 0x7
 3516 087f 24060000 		.4byte	.LASF132
 3517 0883 0D       		.byte	0xd
 3518 0884 8E       		.byte	0x8e
 3519 0885 030A0000 		.4byte	0xa03
 3520 0889 3C       		.byte	0x3c
 3521 088a 18       		.uleb128 0x18
 3522 088b 6B030000 		.4byte	.LASF133
 3523 088f 0D       		.byte	0xd
 3524 0890 8F       		.byte	0x8f
 3525 0891 130A0000 		.4byte	0xa13
 3526 0895 3C01     		.2byte	0x13c
 3527 0897 19       		.uleb128 0x19
 3528 0898 A6080000 		.4byte	.LASF134
 3529 089c 0D       		.byte	0xd
 3530 089d 90       		.byte	0x90
 3531 089e CE000000 		.4byte	0xce
 3532 08a2 04       		.byte	0x4
 3533 08a3 0A       		.byte	0xa
 3534 08a4 16       		.byte	0x16
ARM GAS  C:\Users\pearlstl\AppData\Local\Temp\ccmYHcOW.s 			page 92


 3535 08a5 5C01     		.2byte	0x15c
 3536 08a7 18       		.uleb128 0x18
 3537 08a8 39020000 		.4byte	.LASF135
 3538 08ac 0D       		.byte	0xd
 3539 08ad 93       		.byte	0x93
 3540 08ae CE000000 		.4byte	0xce
 3541 08b2 6001     		.2byte	0x160
 3542 08b4 00       		.byte	0
 3543 08b5 0F       		.uleb128 0xf
 3544 08b6 04       		.byte	0x4
 3545 08b7 8F060000 		.4byte	0x68f
 3546 08bb 0B       		.uleb128 0xb
 3547 08bc 52080000 		.4byte	.LASF136
 3548 08c0 40       		.byte	0x40
 3549 08c1 0E       		.byte	0xe
 3550 08c2 BB       		.byte	0xbb
 3551 08c3 FD090000 		.4byte	0x9fd
 3552 08c7 08       		.uleb128 0x8
 3553 08c8 70617200 		.ascii	"par\000"
 3554 08cc 0E       		.byte	0xe
 3555 08cd BD       		.byte	0xbd
 3556 08ce FD090000 		.4byte	0x9fd
 3557 08d2 00       		.byte	0
 3558 08d3 07       		.uleb128 0x7
 3559 08d4 97050000 		.4byte	.LASF137
 3560 08d8 0E       		.byte	0xe
 3561 08d9 BE       		.byte	0xbe
 3562 08da FC050000 		.4byte	0x5fc
 3563 08de 04       		.byte	0x4
 3564 08df 07       		.uleb128 0x7
 3565 08e0 63090000 		.4byte	.LASF138
 3566 08e4 0E       		.byte	0xe
 3567 08e5 C0       		.byte	0xc0
 3568 08e6 72030000 		.4byte	0x372
 3569 08ea 10       		.byte	0x10
 3570 08eb 07       		.uleb128 0x7
 3571 08ec 65050000 		.4byte	.LASF139
 3572 08f0 0E       		.byte	0xe
 3573 08f1 C2       		.byte	0xc2
 3574 08f2 790A0000 		.4byte	0xa79
 3575 08f6 18       		.byte	0x18
 3576 08f7 07       		.uleb128 0x7
 3577 08f8 100A0000 		.4byte	.LASF140
 3578 08fc 0E       		.byte	0xe
 3579 08fd C3       		.byte	0xc3
 3580 08fe A50A0000 		.4byte	0xaa5
 3581 0902 1C       		.byte	0x1c
 3582 0903 07       		.uleb128 0x7
 3583 0904 D3030000 		.4byte	.LASF141
 3584 0908 0E       		.byte	0xe
 3585 0909 C4       		.byte	0xc4
 3586 090a 440A0000 		.4byte	0xa44
 3587 090e 20       		.byte	0x20
 3588 090f 07       		.uleb128 0x7
 3589 0910 E5060000 		.4byte	.LASF142
 3590 0914 0E       		.byte	0xe
 3591 0915 C6       		.byte	0xc6
ARM GAS  C:\Users\pearlstl\AppData\Local\Temp\ccmYHcOW.s 			page 93


 3592 0916 E4000000 		.4byte	0xe4
 3593 091a 24       		.byte	0x24
 3594 091b 07       		.uleb128 0x7
 3595 091c 74050000 		.4byte	.LASF143
 3596 0920 0E       		.byte	0xe
 3597 0921 C7       		.byte	0xc7
 3598 0922 520B0000 		.4byte	0xb52
 3599 0926 28       		.byte	0x28
 3600 0927 0C       		.uleb128 0xc
 3601 0928 D3000000 		.4byte	.LASF144
 3602 092c 0E       		.byte	0xe
 3603 092d D7       		.byte	0xd7
 3604 092e AD000000 		.4byte	0xad
 3605 0932 01       		.byte	0x1
 3606 0933 01       		.byte	0x1
 3607 0934 07       		.byte	0x7
 3608 0935 2C       		.byte	0x2c
 3609 0936 0C       		.uleb128 0xc
 3610 0937 42080000 		.4byte	.LASF145
 3611 093b 0E       		.byte	0xe
 3612 093c D8       		.byte	0xd8
 3613 093d AD000000 		.4byte	0xad
 3614 0941 01       		.byte	0x1
 3615 0942 01       		.byte	0x1
 3616 0943 06       		.byte	0x6
 3617 0944 2C       		.byte	0x2c
 3618 0945 0C       		.uleb128 0xc
 3619 0946 16040000 		.4byte	.LASF146
 3620 094a 0E       		.byte	0xe
 3621 094b D9       		.byte	0xd9
 3622 094c AD000000 		.4byte	0xad
 3623 0950 01       		.byte	0x1
 3624 0951 01       		.byte	0x1
 3625 0952 05       		.byte	0x5
 3626 0953 2C       		.byte	0x2c
 3627 0954 0C       		.uleb128 0xc
 3628 0955 C5090000 		.4byte	.LASF147
 3629 0959 0E       		.byte	0xe
 3630 095a DA       		.byte	0xda
 3631 095b AD000000 		.4byte	0xad
 3632 095f 01       		.byte	0x1
 3633 0960 01       		.byte	0x1
 3634 0961 04       		.byte	0x4
 3635 0962 2C       		.byte	0x2c
 3636 0963 0C       		.uleb128 0xc
 3637 0964 1F020000 		.4byte	.LASF148
 3638 0968 0E       		.byte	0xe
 3639 0969 DB       		.byte	0xdb
 3640 096a AD000000 		.4byte	0xad
 3641 096e 01       		.byte	0x1
 3642 096f 01       		.byte	0x1
 3643 0970 03       		.byte	0x3
 3644 0971 2C       		.byte	0x2c
 3645 0972 1A       		.uleb128 0x1a
 3646 0973 746F7000 		.ascii	"top\000"
 3647 0977 0E       		.byte	0xe
 3648 0978 DC       		.byte	0xdc
ARM GAS  C:\Users\pearlstl\AppData\Local\Temp\ccmYHcOW.s 			page 94


 3649 0979 AD000000 		.4byte	0xad
 3650 097d 01       		.byte	0x1
 3651 097e 01       		.byte	0x1
 3652 097f 02       		.byte	0x2
 3653 0980 2C       		.byte	0x2c
 3654 0981 0C       		.uleb128 0xc
 3655 0982 8E090000 		.4byte	.LASF149
 3656 0986 0E       		.byte	0xe
 3657 0987 DD       		.byte	0xdd
 3658 0988 AD000000 		.4byte	0xad
 3659 098c 01       		.byte	0x1
 3660 098d 01       		.byte	0x1
 3661 098e 01       		.byte	0x1
 3662 098f 2C       		.byte	0x2c
 3663 0990 0C       		.uleb128 0xc
 3664 0991 BA050000 		.4byte	.LASF150
 3665 0995 0E       		.byte	0xe
 3666 0996 DE       		.byte	0xde
 3667 0997 AD000000 		.4byte	0xad
 3668 099b 01       		.byte	0x1
 3669 099c 01       		.byte	0x1
 3670 099d 00       		.byte	0
 3671 099e 2C       		.byte	0x2c
 3672 099f 0C       		.uleb128 0xc
 3673 09a0 2A030000 		.4byte	.LASF151
 3674 09a4 0E       		.byte	0xe
 3675 09a5 DF       		.byte	0xdf
 3676 09a6 470B0000 		.4byte	0xb47
 3677 09aa 01       		.byte	0x1
 3678 09ab 02       		.byte	0x2
 3679 09ac 06       		.byte	0x6
 3680 09ad 2D       		.byte	0x2d
 3681 09ae 0C       		.uleb128 0xc
 3682 09af 78080000 		.4byte	.LASF152
 3683 09b3 0E       		.byte	0xe
 3684 09b4 E0       		.byte	0xe0
 3685 09b5 07060000 		.4byte	0x607
 3686 09b9 01       		.byte	0x1
 3687 09ba 02       		.byte	0x2
 3688 09bb 04       		.byte	0x4
 3689 09bc 2D       		.byte	0x2d
 3690 09bd 0C       		.uleb128 0xc
 3691 09be 3D0A0000 		.4byte	.LASF153
 3692 09c2 0E       		.byte	0xe
 3693 09c3 E1       		.byte	0xe1
 3694 09c4 AD000000 		.4byte	0xad
 3695 09c8 01       		.byte	0x1
 3696 09c9 03       		.byte	0x3
 3697 09ca 01       		.byte	0x1
 3698 09cb 2D       		.byte	0x2d
 3699 09cc 07       		.uleb128 0x7
 3700 09cd A8050000 		.4byte	.LASF154
 3701 09d1 0E       		.byte	0xe
 3702 09d2 E2       		.byte	0xe2
 3703 09d3 AD000000 		.4byte	0xad
 3704 09d7 2E       		.byte	0x2e
 3705 09d8 07       		.uleb128 0x7
ARM GAS  C:\Users\pearlstl\AppData\Local\Temp\ccmYHcOW.s 			page 95


 3706 09d9 310B0000 		.4byte	.LASF155
 3707 09dd 0E       		.byte	0xe
 3708 09de E4       		.byte	0xe4
 3709 09df FB020000 		.4byte	0x2fb
 3710 09e3 2F       		.byte	0x2f
 3711 09e4 07       		.uleb128 0x7
 3712 09e5 48040000 		.4byte	.LASF156
 3713 09e9 0E       		.byte	0xe
 3714 09ea E6       		.byte	0xe6
 3715 09eb D9000000 		.4byte	0xd9
 3716 09ef 30       		.byte	0x30
 3717 09f0 07       		.uleb128 0x7
 3718 09f1 6B040000 		.4byte	.LASF157
 3719 09f5 0E       		.byte	0xe
 3720 09f6 E9       		.byte	0xe9
 3721 09f7 3C0B0000 		.4byte	0xb3c
 3722 09fb 34       		.byte	0x34
 3723 09fc 00       		.byte	0
 3724 09fd 0F       		.uleb128 0xf
 3725 09fe 04       		.byte	0x4
 3726 09ff BB080000 		.4byte	0x8bb
 3727 0a03 1B       		.uleb128 0x1b
 3728 0a04 72030000 		.4byte	0x372
 3729 0a08 130A0000 		.4byte	0xa13
 3730 0a0c 1C       		.uleb128 0x1c
 3731 0a0d 07030000 		.4byte	0x307
 3732 0a11 1F       		.byte	0x1f
 3733 0a12 00       		.byte	0
 3734 0a13 1B       		.uleb128 0x1b
 3735 0a14 AD000000 		.4byte	0xad
 3736 0a18 230A0000 		.4byte	0xa23
 3737 0a1c 1C       		.uleb128 0x1c
 3738 0a1d 07030000 		.4byte	0x307
 3739 0a21 1F       		.byte	0x1f
 3740 0a22 00       		.byte	0
 3741 0a23 02       		.uleb128 0x2
 3742 0a24 3A000000 		.4byte	.LASF158
 3743 0a28 0D       		.byte	0xd
 3744 0a29 94       		.byte	0x94
 3745 0a2a 29080000 		.4byte	0x829
 3746 0a2e 0F       		.uleb128 0xf
 3747 0a2f 04       		.byte	0x4
 3748 0a30 340A0000 		.4byte	0xa34
 3749 0a34 10       		.uleb128 0x10
 3750 0a35 32030000 		.4byte	0x332
 3751 0a39 02       		.uleb128 0x2
 3752 0a3a EE060000 		.4byte	.LASF159
 3753 0a3e 0E       		.byte	0xe
 3754 0a3f 42       		.byte	0x42
 3755 0a40 AD000000 		.4byte	0xad
 3756 0a44 02       		.uleb128 0x2
 3757 0a45 180B0000 		.4byte	.LASF160
 3758 0a49 0E       		.byte	0xe
 3759 0a4a 48       		.byte	0x48
 3760 0a4b 4F0A0000 		.4byte	0xa4f
 3761 0a4f 0F       		.uleb128 0xf
 3762 0a50 04       		.byte	0x4
ARM GAS  C:\Users\pearlstl\AppData\Local\Temp\ccmYHcOW.s 			page 96


 3763 0a51 550A0000 		.4byte	0xa55
 3764 0a55 0D       		.uleb128 0xd
 3765 0a56 E4010000 		.4byte	0x1e4
 3766 0a5a 6E0A0000 		.4byte	0xa6e
 3767 0a5e 0E       		.uleb128 0xe
 3768 0a5f FD090000 		.4byte	0x9fd
 3769 0a63 0E       		.uleb128 0xe
 3770 0a64 9B070000 		.4byte	0x79b
 3771 0a68 0E       		.uleb128 0xe
 3772 0a69 390A0000 		.4byte	0xa39
 3773 0a6d 00       		.byte	0
 3774 0a6e 02       		.uleb128 0x2
 3775 0a6f E4000000 		.4byte	.LASF161
 3776 0a73 0E       		.byte	0xe
 3777 0a74 61       		.byte	0x61
 3778 0a75 AD000000 		.4byte	0xad
 3779 0a79 02       		.uleb128 0x2
 3780 0a7a DD030000 		.4byte	.LASF162
 3781 0a7e 0E       		.byte	0xe
 3782 0a7f 68       		.byte	0x68
 3783 0a80 840A0000 		.4byte	0xa84
 3784 0a84 0F       		.uleb128 0xf
 3785 0a85 04       		.byte	0x4
 3786 0a86 8A0A0000 		.4byte	0xa8a
 3787 0a8a 15       		.uleb128 0x15
 3788 0a8b 9A0A0000 		.4byte	0xa9a
 3789 0a8f 0E       		.uleb128 0xe
 3790 0a90 FD090000 		.4byte	0x9fd
 3791 0a94 0E       		.uleb128 0xe
 3792 0a95 6E0A0000 		.4byte	0xa6e
 3793 0a99 00       		.byte	0
 3794 0a9a 02       		.uleb128 0x2
 3795 0a9b 47070000 		.4byte	.LASF163
 3796 0a9f 0E       		.byte	0xe
 3797 0aa0 88       		.byte	0x88
 3798 0aa1 AD000000 		.4byte	0xad
 3799 0aa5 02       		.uleb128 0x2
 3800 0aa6 5C030000 		.4byte	.LASF164
 3801 0aaa 0E       		.byte	0xe
 3802 0aab 8A       		.byte	0x8a
 3803 0aac B00A0000 		.4byte	0xab0
 3804 0ab0 0F       		.uleb128 0xf
 3805 0ab1 04       		.byte	0x4
 3806 0ab2 B60A0000 		.4byte	0xab6
 3807 0ab6 0D       		.uleb128 0xd
 3808 0ab7 B3050000 		.4byte	0x5b3
 3809 0abb CF0A0000 		.4byte	0xacf
 3810 0abf 0E       		.uleb128 0xe
 3811 0ac0 FD090000 		.4byte	0x9fd
 3812 0ac4 0E       		.uleb128 0xe
 3813 0ac5 9A0A0000 		.4byte	0xa9a
 3814 0ac9 0E       		.uleb128 0xe
 3815 0aca E4000000 		.4byte	0xe4
 3816 0ace 00       		.byte	0
 3817 0acf 02       		.uleb128 0x2
 3818 0ad0 D9000000 		.4byte	.LASF165
 3819 0ad4 0E       		.byte	0xe
ARM GAS  C:\Users\pearlstl\AppData\Local\Temp\ccmYHcOW.s 			page 97


 3820 0ad5 A4       		.byte	0xa4
 3821 0ad6 AD000000 		.4byte	0xad
 3822 0ada 06       		.uleb128 0x6
 3823 0adb 0C       		.byte	0xc
 3824 0adc 0E       		.byte	0xe
 3825 0add A7       		.byte	0xa7
 3826 0ade 310B0000 		.4byte	0xb31
 3827 0ae2 07       		.uleb128 0x7
 3828 0ae3 87080000 		.4byte	.LASF166
 3829 0ae7 0E       		.byte	0xe
 3830 0ae8 A9       		.byte	0xa9
 3831 0ae9 310B0000 		.4byte	0xb31
 3832 0aed 00       		.byte	0
 3833 0aee 07       		.uleb128 0x7
 3834 0aef 1C080000 		.4byte	.LASF167
 3835 0af3 0E       		.byte	0xe
 3836 0af4 AA       		.byte	0xaa
 3837 0af5 D9000000 		.4byte	0xd9
 3838 0af9 04       		.byte	0x4
 3839 0afa 07       		.uleb128 0x7
 3840 0afb 9B030000 		.4byte	.LASF168
 3841 0aff 0E       		.byte	0xe
 3842 0b00 AB       		.byte	0xab
 3843 0b01 D9000000 		.4byte	0xd9
 3844 0b05 06       		.byte	0x6
 3845 0b06 07       		.uleb128 0x7
 3846 0b07 C7050000 		.4byte	.LASF169
 3847 0b0b 0E       		.byte	0xe
 3848 0b0c AC       		.byte	0xac
 3849 0b0d CF0A0000 		.4byte	0xacf
 3850 0b11 08       		.byte	0x8
 3851 0b12 0C       		.uleb128 0xc
 3852 0b13 3B060000 		.4byte	.LASF170
 3853 0b17 0E       		.byte	0xe
 3854 0b18 AD       		.byte	0xad
 3855 0b19 AD000000 		.4byte	0xad
 3856 0b1d 01       		.byte	0x1
 3857 0b1e 01       		.byte	0x1
 3858 0b1f 07       		.byte	0x7
 3859 0b20 09       		.byte	0x9
 3860 0b21 0C       		.uleb128 0xc
 3861 0b22 CA0A0000 		.4byte	.LASF171
 3862 0b26 0E       		.byte	0xe
 3863 0b27 AE       		.byte	0xae
 3864 0b28 AD000000 		.4byte	0xad
 3865 0b2c 01       		.byte	0x1
 3866 0b2d 01       		.byte	0x1
 3867 0b2e 06       		.byte	0x6
 3868 0b2f 09       		.byte	0x9
 3869 0b30 00       		.byte	0
 3870 0b31 0F       		.uleb128 0xf
 3871 0b32 04       		.byte	0x4
 3872 0b33 370B0000 		.4byte	0xb37
 3873 0b37 10       		.uleb128 0x10
 3874 0b38 BB080000 		.4byte	0x8bb
 3875 0b3c 02       		.uleb128 0x2
 3876 0b3d BA000000 		.4byte	.LASF172
ARM GAS  C:\Users\pearlstl\AppData\Local\Temp\ccmYHcOW.s 			page 98


 3877 0b41 0E       		.byte	0xe
 3878 0b42 B0       		.byte	0xb0
 3879 0b43 DA0A0000 		.4byte	0xada
 3880 0b47 02       		.uleb128 0x2
 3881 0b48 D7060000 		.4byte	.LASF173
 3882 0b4c 0E       		.byte	0xe
 3883 0b4d B9       		.byte	0xb9
 3884 0b4e AD000000 		.4byte	0xad
 3885 0b52 0F       		.uleb128 0xf
 3886 0b53 04       		.byte	0x4
 3887 0b54 580B0000 		.4byte	0xb58
 3888 0b58 10       		.uleb128 0x10
 3889 0b59 A8050000 		.4byte	0x5a8
 3890 0b5d 1D       		.uleb128 0x1d
 3891 0b5e 38050000 		.4byte	.LASF174
 3892 0b62 03       		.byte	0x3
 3893 0b63 B001     		.2byte	0x1b0
 3894 0b65 EF020000 		.4byte	0x2ef
 3895 0b69 03       		.byte	0x3
 3896 0b6a 9D0B0000 		.4byte	0xb9d
 3897 0b6e 1E       		.uleb128 0x1e
 3898 0b6f 633100   		.ascii	"c1\000"
 3899 0b72 03       		.byte	0x3
 3900 0b73 B001     		.2byte	0x1b0
 3901 0b75 EF020000 		.4byte	0x2ef
 3902 0b79 1E       		.uleb128 0x1e
 3903 0b7a 633200   		.ascii	"c2\000"
 3904 0b7d 03       		.byte	0x3
 3905 0b7e B001     		.2byte	0x1b0
 3906 0b80 EF020000 		.4byte	0x2ef
 3907 0b84 1E       		.uleb128 0x1e
 3908 0b85 6D697800 		.ascii	"mix\000"
 3909 0b89 03       		.byte	0x3
 3910 0b8a B001     		.2byte	0x1b0
 3911 0b8c AD000000 		.4byte	0xad
 3912 0b90 1F       		.uleb128 0x1f
 3913 0b91 72657400 		.ascii	"ret\000"
 3914 0b95 03       		.byte	0x3
 3915 0b96 B201     		.2byte	0x1b2
 3916 0b98 EF020000 		.4byte	0x2ef
 3917 0b9c 00       		.byte	0
 3918 0b9d 20       		.uleb128 0x20
 3919 0b9e B3090000 		.4byte	.LASF175
 3920 0ba2 02       		.byte	0x2
 3921 0ba3 56       		.byte	0x56
 3922 0ba4 D9000000 		.4byte	0xd9
 3923 0ba8 03       		.byte	0x3
 3924 0ba9 B90B0000 		.4byte	0xbb9
 3925 0bad 21       		.uleb128 0x21
 3926 0bae 67020000 		.4byte	.LASF176
 3927 0bb2 02       		.byte	0x2
 3928 0bb3 56       		.byte	0x56
 3929 0bb4 9B070000 		.4byte	0x79b
 3930 0bb8 00       		.byte	0
 3931 0bb9 22       		.uleb128 0x22
 3932 0bba AA040000 		.4byte	.LASF188
 3933 0bbe 01       		.byte	0x1
ARM GAS  C:\Users\pearlstl\AppData\Local\Temp\ccmYHcOW.s 			page 99


 3934 0bbf 48       		.byte	0x48
 3935 0bc0 00000000 		.4byte	.LFB31
 3936 0bc4 D4000000 		.4byte	.LFE31-.LFB31
 3937 0bc8 01       		.uleb128 0x1
 3938 0bc9 9C       		.byte	0x9c
 3939 0bca F70C0000 		.4byte	0xcf7
 3940 0bce 23       		.uleb128 0x23
 3941 0bcf 7800     		.ascii	"x\000"
 3942 0bd1 01       		.byte	0x1
 3943 0bd2 48       		.byte	0x48
 3944 0bd3 D9000000 		.4byte	0xd9
 3945 0bd7 00000000 		.4byte	.LLST0
 3946 0bdb 23       		.uleb128 0x23
 3947 0bdc 7900     		.ascii	"y\000"
 3948 0bde 01       		.byte	0x1
 3949 0bdf 48       		.byte	0x48
 3950 0be0 D9000000 		.4byte	0xd9
 3951 0be4 42000000 		.4byte	.LLST1
 3952 0be8 24       		.uleb128 0x24
 3953 0be9 0F060000 		.4byte	.LASF177
 3954 0bed 01       		.byte	0x1
 3955 0bee 48       		.byte	0x48
 3956 0bef 9B070000 		.4byte	0x79b
 3957 0bf3 A5000000 		.4byte	.LLST2
 3958 0bf7 24       		.uleb128 0x24
 3959 0bf8 0B080000 		.4byte	.LASF63
 3960 0bfc 01       		.byte	0x1
 3961 0bfd 48       		.byte	0x48
 3962 0bfe EF020000 		.4byte	0x2ef
 3963 0c02 C6000000 		.4byte	.LLST3
 3964 0c06 23       		.uleb128 0x23
 3965 0c07 6F706100 		.ascii	"opa\000"
 3966 0c0b 01       		.byte	0x1
 3967 0c0c 48       		.byte	0x48
 3968 0c0d FB020000 		.4byte	0x2fb
 3969 0c11 05010000 		.4byte	.LLST4
 3970 0c15 25       		.uleb128 0x25
 3971 0c16 0A060000 		.4byte	.LASF178
 3972 0c1a 01       		.byte	0x1
 3973 0c1b 53       		.byte	0x53
 3974 0c1c F70C0000 		.4byte	0xcf7
 3975 0c20 64010000 		.4byte	.LLST5
 3976 0c24 26       		.uleb128 0x26
 3977 0c25 76646200 		.ascii	"vdb\000"
 3978 0c29 01       		.byte	0x1
 3979 0c2a 54       		.byte	0x54
 3980 0c2b 7A070000 		.4byte	0x77a
 3981 0c2f 98010000 		.4byte	.LLST6
 3982 0c33 25       		.uleb128 0x25
 3983 0c34 12070000 		.4byte	.LASF179
 3984 0c38 01       		.byte	0x1
 3985 0c39 55       		.byte	0x55
 3986 0c3a CE000000 		.4byte	0xce
 3987 0c3e C1010000 		.4byte	.LLST7
 3988 0c42 27       		.uleb128 0x27
 3989 0c43 9D0B0000 		.4byte	0xb9d
 3990 0c47 44000000 		.4byte	.LBB44
ARM GAS  C:\Users\pearlstl\AppData\Local\Temp\ccmYHcOW.s 			page 100


 3991 0c4b 00000000 		.4byte	.Ldebug_ranges0+0
 3992 0c4f 01       		.byte	0x1
 3993 0c50 55       		.byte	0x55
 3994 0c51 680C0000 		.4byte	0xc68
 3995 0c55 28       		.uleb128 0x28
 3996 0c56 AD0B0000 		.4byte	0xbad
 3997 0c5a 2F020000 		.4byte	.LLST8
 3998 0c5e 28       		.uleb128 0x28
 3999 0c5f AD0B0000 		.4byte	0xbad
 4000 0c63 2F020000 		.4byte	.LLST8
 4001 0c67 00       		.byte	0
 4002 0c68 29       		.uleb128 0x29
 4003 0c69 72000000 		.4byte	.LBB50
 4004 0c6d 62000000 		.4byte	.LBE50-.LBB50
 4005 0c71 B50C0000 		.4byte	0xcb5
 4006 0c75 2A       		.uleb128 0x2a
 4007 0c76 7A000000 		.4byte	.LASF180
 4008 0c7a 01       		.byte	0x1
 4009 0c7b 5E       		.byte	0x5e
 4010 0c7c E4010000 		.4byte	0x1e4
 4011 0c80 00       		.byte	0
 4012 0c81 25       		.uleb128 0x25
 4013 0c82 25050000 		.4byte	.LASF181
 4014 0c86 01       		.byte	0x1
 4015 0c87 63       		.byte	0x63
 4016 0c88 A6070000 		.4byte	0x7a6
 4017 0c8c 5E020000 		.4byte	.LLST10
 4018 0c90 2B       		.uleb128 0x2b
 4019 0c91 5D0B0000 		.4byte	0xb5d
 4020 0c95 84000000 		.4byte	.LBB51
 4021 0c99 20000000 		.4byte	.Ldebug_ranges0+0x20
 4022 0c9d 01       		.byte	0x1
 4023 0c9e 6A       		.byte	0x6a
 4024 0c9f 28       		.uleb128 0x28
 4025 0ca0 840B0000 		.4byte	0xb84
 4026 0ca4 7C020000 		.4byte	.LLST11
 4027 0ca8 2C       		.uleb128 0x2c
 4028 0ca9 20000000 		.4byte	.Ldebug_ranges0+0x20
 4029 0cad 2D       		.uleb128 0x2d
 4030 0cae 900B0000 		.4byte	0xb90
 4031 0cb2 00       		.byte	0
 4032 0cb3 00       		.byte	0
 4033 0cb4 00       		.byte	0
 4034 0cb5 2E       		.uleb128 0x2e
 4035 0cb6 3E000000 		.4byte	.LVL3
 4036 0cba E0170000 		.4byte	0x17e0
 4037 0cbe 2F       		.uleb128 0x2f
 4038 0cbf 44000000 		.4byte	.LVL5
 4039 0cc3 EB170000 		.4byte	0x17eb
 4040 0cc7 D20C0000 		.4byte	0xcd2
 4041 0ccb 30       		.uleb128 0x30
 4042 0ccc 01       		.uleb128 0x1
 4043 0ccd 50       		.byte	0x50
 4044 0cce 02       		.uleb128 0x2
 4045 0ccf 78       		.byte	0x78
 4046 0cd0 00       		.sleb128 0
 4047 0cd1 00       		.byte	0
ARM GAS  C:\Users\pearlstl\AppData\Local\Temp\ccmYHcOW.s 			page 101


 4048 0cd2 31       		.uleb128 0x31
 4049 0cd3 6C000000 		.4byte	.LVL9
 4050 0cd7 02       		.uleb128 0x2
 4051 0cd8 77       		.byte	0x77
 4052 0cd9 00       		.sleb128 0
 4053 0cda 30       		.uleb128 0x30
 4054 0cdb 01       		.uleb128 0x1
 4055 0cdc 50       		.byte	0x50
 4056 0cdd 02       		.uleb128 0x2
 4057 0cde 78       		.byte	0x78
 4058 0cdf 00       		.sleb128 0
 4059 0ce0 30       		.uleb128 0x30
 4060 0ce1 02       		.uleb128 0x2
 4061 0ce2 7D       		.byte	0x7d
 4062 0ce3 00       		.sleb128 0
 4063 0ce4 02       		.uleb128 0x2
 4064 0ce5 75       		.byte	0x75
 4065 0ce6 00       		.sleb128 0
 4066 0ce7 30       		.uleb128 0x30
 4067 0ce8 02       		.uleb128 0x2
 4068 0ce9 7D       		.byte	0x7d
 4069 0cea 04       		.sleb128 4
 4070 0ceb 02       		.uleb128 0x2
 4071 0cec 76       		.byte	0x76
 4072 0ced 00       		.sleb128 0
 4073 0cee 30       		.uleb128 0x30
 4074 0cef 02       		.uleb128 0x2
 4075 0cf0 7D       		.byte	0x7d
 4076 0cf1 08       		.sleb128 8
 4077 0cf2 02       		.uleb128 0x2
 4078 0cf3 74       		.byte	0x74
 4079 0cf4 00       		.sleb128 0
 4080 0cf5 00       		.byte	0
 4081 0cf6 00       		.byte	0
 4082 0cf7 0F       		.uleb128 0xf
 4083 0cf8 04       		.byte	0x4
 4084 0cf9 230A0000 		.4byte	0xa23
 4085 0cfd 32       		.uleb128 0x32
 4086 0cfe BC070000 		.4byte	.LASF224
 4087 0d02 01       		.byte	0x1
 4088 0d03 9702     		.2byte	0x297
 4089 0d05 01       		.byte	0x1
 4090 0d06 AF0D0000 		.4byte	0xdaf
 4091 0d0a 1E       		.uleb128 0x1e
 4092 0d0b 6D656D00 		.ascii	"mem\000"
 4093 0d0f 01       		.byte	0x1
 4094 0d10 9702     		.2byte	0x297
 4095 0d12 A6070000 		.4byte	0x7a6
 4096 0d16 33       		.uleb128 0x33
 4097 0d17 D5010000 		.4byte	.LASF182
 4098 0d1b 01       		.byte	0x1
 4099 0d1c 9702     		.2byte	0x297
 4100 0d1e D9000000 		.4byte	0xd9
 4101 0d22 33       		.uleb128 0x33
 4102 0d23 3D070000 		.4byte	.LASF183
 4103 0d27 01       		.byte	0x1
 4104 0d28 9702     		.2byte	0x297
ARM GAS  C:\Users\pearlstl\AppData\Local\Temp\ccmYHcOW.s 			page 102


 4105 0d2a 9B070000 		.4byte	0x79b
 4106 0d2e 33       		.uleb128 0x33
 4107 0d2f 0B080000 		.4byte	.LASF63
 4108 0d33 01       		.byte	0x1
 4109 0d34 9702     		.2byte	0x297
 4110 0d36 EF020000 		.4byte	0x2ef
 4111 0d3a 1E       		.uleb128 0x1e
 4112 0d3b 6F706100 		.ascii	"opa\000"
 4113 0d3f 01       		.byte	0x1
 4114 0d40 9802     		.2byte	0x298
 4115 0d42 FB020000 		.4byte	0x2fb
 4116 0d46 1F       		.uleb128 0x1f
 4117 0d47 726F7700 		.ascii	"row\000"
 4118 0d4b 01       		.byte	0x1
 4119 0d4c 9B02     		.2byte	0x29b
 4120 0d4e D9000000 		.4byte	0xd9
 4121 0d52 1F       		.uleb128 0x1f
 4122 0d53 636F6C00 		.ascii	"col\000"
 4123 0d57 01       		.byte	0x1
 4124 0d58 9C02     		.2byte	0x29c
 4125 0d5a D9000000 		.4byte	0xd9
 4126 0d5e 34       		.uleb128 0x34
 4127 0d5f 0A060000 		.4byte	.LASF178
 4128 0d63 01       		.byte	0x1
 4129 0d64 9E02     		.2byte	0x29e
 4130 0d66 F70C0000 		.4byte	0xcf7
 4131 0d6a 35       		.uleb128 0x35
 4132 0d6b 880D0000 		.4byte	0xd88
 4133 0d6f 34       		.uleb128 0x34
 4134 0d70 DB050000 		.4byte	.LASF184
 4135 0d74 01       		.byte	0x1
 4136 0d75 B102     		.2byte	0x2b1
 4137 0d77 A6070000 		.4byte	0x7a6
 4138 0d7b 34       		.uleb128 0x34
 4139 0d7c 94060000 		.4byte	.LASF185
 4140 0d80 01       		.byte	0x1
 4141 0d81 B202     		.2byte	0x2b2
 4142 0d83 D9000000 		.4byte	0xd9
 4143 0d87 00       		.byte	0
 4144 0d88 36       		.uleb128 0x36
 4145 0d89 34       		.uleb128 0x34
 4146 0d8a 7A000000 		.4byte	.LASF180
 4147 0d8e 01       		.byte	0x1
 4148 0d8f BC02     		.2byte	0x2bc
 4149 0d91 E4010000 		.4byte	0x1e4
 4150 0d95 34       		.uleb128 0x34
 4151 0d96 07010000 		.4byte	.LASF186
 4152 0d9a 01       		.byte	0x1
 4153 0d9b C102     		.2byte	0x2c1
 4154 0d9d EF020000 		.4byte	0x2ef
 4155 0da1 34       		.uleb128 0x34
 4156 0da2 BC080000 		.4byte	.LASF187
 4157 0da6 01       		.byte	0x1
 4158 0da7 C202     		.2byte	0x2c2
 4159 0da9 EF020000 		.4byte	0x2ef
 4160 0dad 00       		.byte	0
 4161 0dae 00       		.byte	0
ARM GAS  C:\Users\pearlstl\AppData\Local\Temp\ccmYHcOW.s 			page 103


 4162 0daf 22       		.uleb128 0x22
 4163 0db0 9B070000 		.4byte	.LASF189
 4164 0db4 01       		.byte	0x1
 4165 0db5 7B       		.byte	0x7b
 4166 0db6 00000000 		.4byte	.LFB32
 4167 0dba 1E020000 		.4byte	.LFE32-.LFB32
 4168 0dbe 01       		.uleb128 0x1
 4169 0dbf 9C       		.byte	0x9c
 4170 0dc0 FD0F0000 		.4byte	0xffd
 4171 0dc4 24       		.uleb128 0x24
 4172 0dc5 A0050000 		.4byte	.LASF190
 4173 0dc9 01       		.byte	0x1
 4174 0dca 7B       		.byte	0x7b
 4175 0dcb 9B070000 		.4byte	0x79b
 4176 0dcf B9020000 		.4byte	.LLST12
 4177 0dd3 24       		.uleb128 0x24
 4178 0dd4 0F060000 		.4byte	.LASF177
 4179 0dd8 01       		.byte	0x1
 4180 0dd9 7B       		.byte	0x7b
 4181 0dda 9B070000 		.4byte	0x79b
 4182 0dde FE020000 		.4byte	.LLST13
 4183 0de2 24       		.uleb128 0x24
 4184 0de3 0B080000 		.4byte	.LASF63
 4185 0de7 01       		.byte	0x1
 4186 0de8 7B       		.byte	0x7b
 4187 0de9 EF020000 		.4byte	0x2ef
 4188 0ded 43030000 		.4byte	.LLST14
 4189 0df1 23       		.uleb128 0x23
 4190 0df2 6F706100 		.ascii	"opa\000"
 4191 0df6 01       		.byte	0x1
 4192 0df7 7B       		.byte	0x7b
 4193 0df8 FB020000 		.4byte	0x2fb
 4194 0dfc 98030000 		.4byte	.LLST15
 4195 0e00 37       		.uleb128 0x37
 4196 0e01 1E060000 		.4byte	.LASF191
 4197 0e05 01       		.byte	0x1
 4198 0e06 80       		.byte	0x80
 4199 0e07 72030000 		.4byte	0x372
 4200 0e0b 02       		.uleb128 0x2
 4201 0e0c 91       		.byte	0x91
 4202 0e0d 50       		.sleb128 -48
 4203 0e0e 25       		.uleb128 0x25
 4204 0e0f 4D060000 		.4byte	.LASF192
 4205 0e13 01       		.byte	0x1
 4206 0e14 81       		.byte	0x81
 4207 0e15 E4010000 		.4byte	0x1e4
 4208 0e19 B6030000 		.4byte	.LLST16
 4209 0e1d 25       		.uleb128 0x25
 4210 0e1e 0A060000 		.4byte	.LASF178
 4211 0e22 01       		.byte	0x1
 4212 0e23 8D       		.byte	0x8d
 4213 0e24 F70C0000 		.4byte	0xcf7
 4214 0e28 D4030000 		.4byte	.LLST17
 4215 0e2c 26       		.uleb128 0x26
 4216 0e2d 76646200 		.ascii	"vdb\000"
 4217 0e31 01       		.byte	0x1
 4218 0e32 8E       		.byte	0x8e
ARM GAS  C:\Users\pearlstl\AppData\Local\Temp\ccmYHcOW.s 			page 104


 4219 0e33 7A070000 		.4byte	0x77a
 4220 0e37 E7030000 		.4byte	.LLST18
 4221 0e3b 38       		.uleb128 0x38
 4222 0e3c 80030000 		.4byte	.LASF193
 4223 0e40 01       		.byte	0x1
 4224 0e41 90       		.byte	0x90
 4225 0e42 72030000 		.4byte	0x372
 4226 0e46 25       		.uleb128 0x25
 4227 0e47 8A030000 		.4byte	.LASF194
 4228 0e4b 01       		.byte	0x1
 4229 0e4c 96       		.byte	0x96
 4230 0e4d A6070000 		.4byte	0x7a6
 4231 0e51 FA030000 		.4byte	.LLST19
 4232 0e55 25       		.uleb128 0x25
 4233 0e56 12070000 		.4byte	.LASF179
 4234 0e5a 01       		.byte	0x1
 4235 0e5b 97       		.byte	0x97
 4236 0e5c CE000000 		.4byte	0xce
 4237 0e60 A8040000 		.4byte	.LLST20
 4238 0e64 27       		.uleb128 0x27
 4239 0e65 9D0B0000 		.4byte	0xb9d
 4240 0e69 38000000 		.4byte	.LBB69
 4241 0e6d 48000000 		.4byte	.Ldebug_ranges0+0x48
 4242 0e71 01       		.byte	0x1
 4243 0e72 97       		.byte	0x97
 4244 0e73 820E0000 		.4byte	0xe82
 4245 0e77 39       		.uleb128 0x39
 4246 0e78 AD0B0000 		.4byte	0xbad
 4247 0e7c 39       		.uleb128 0x39
 4248 0e7d AD0B0000 		.4byte	0xbad
 4249 0e81 00       		.byte	0
 4250 0e82 27       		.uleb128 0x27
 4251 0e83 FD0C0000 		.4byte	0xcfd
 4252 0e87 72000000 		.4byte	.LBB79
 4253 0e8b 78000000 		.4byte	.Ldebug_ranges0+0x78
 4254 0e8f 01       		.byte	0x1
 4255 0e90 DC       		.byte	0xdc
 4256 0e91 C80F0000 		.4byte	0xfc8
 4257 0e95 39       		.uleb128 0x39
 4258 0e96 3A0D0000 		.4byte	0xd3a
 4259 0e9a 28       		.uleb128 0x28
 4260 0e9b 2E0D0000 		.4byte	0xd2e
 4261 0e9f D8040000 		.4byte	.LLST21
 4262 0ea3 3A       		.uleb128 0x3a
 4263 0ea4 220D0000 		.4byte	0xd22
 4264 0ea8 06       		.uleb128 0x6
 4265 0ea9 F2       		.byte	0xf2
 4266 0eaa 3B0E0000 		.4byte	.Ldebug_info0+3643
 4267 0eae 00       		.sleb128 0
 4268 0eaf 28       		.uleb128 0x28
 4269 0eb0 160D0000 		.4byte	0xd16
 4270 0eb4 DD050000 		.4byte	.LLST22
 4271 0eb8 28       		.uleb128 0x28
 4272 0eb9 0A0D0000 		.4byte	0xd0a
 4273 0ebd FF050000 		.4byte	.LLST23
 4274 0ec1 2C       		.uleb128 0x2c
 4275 0ec2 78000000 		.4byte	.Ldebug_ranges0+0x78
ARM GAS  C:\Users\pearlstl\AppData\Local\Temp\ccmYHcOW.s 			page 105


 4276 0ec6 3B       		.uleb128 0x3b
 4277 0ec7 460D0000 		.4byte	0xd46
 4278 0ecb 77060000 		.4byte	.LLST24
 4279 0ecf 3B       		.uleb128 0x3b
 4280 0ed0 520D0000 		.4byte	0xd52
 4281 0ed4 D0060000 		.4byte	.LLST25
 4282 0ed8 3B       		.uleb128 0x3b
 4283 0ed9 5E0D0000 		.4byte	0xd5e
 4284 0edd 32070000 		.4byte	.LLST26
 4285 0ee1 29       		.uleb128 0x29
 4286 0ee2 F2000000 		.4byte	.LBB81
 4287 0ee6 C8000000 		.4byte	.LBE81-.LBB81
 4288 0eea 4F0F0000 		.4byte	0xf4f
 4289 0eee 3B       		.uleb128 0x3b
 4290 0eef 890D0000 		.4byte	0xd89
 4291 0ef3 66070000 		.4byte	.LLST27
 4292 0ef7 3C       		.uleb128 0x3c
 4293 0ef8 950D0000 		.4byte	0xd95
 4294 0efc 02       		.uleb128 0x2
 4295 0efd 91       		.byte	0x91
 4296 0efe 4C       		.sleb128 -52
 4297 0eff 3B       		.uleb128 0x3b
 4298 0f00 A10D0000 		.4byte	0xda1
 4299 0f04 7A070000 		.4byte	.LLST28
 4300 0f08 3D       		.uleb128 0x3d
 4301 0f09 5D0B0000 		.4byte	0xb5d
 4302 0f0d F2000000 		.4byte	.LBB82
 4303 0f11 90000000 		.4byte	.Ldebug_ranges0+0x90
 4304 0f15 01       		.byte	0x1
 4305 0f16 C202     		.2byte	0x2c2
 4306 0f18 2D0F0000 		.4byte	0xf2d
 4307 0f1c 39       		.uleb128 0x39
 4308 0f1d 840B0000 		.4byte	0xb84
 4309 0f21 2C       		.uleb128 0x2c
 4310 0f22 90000000 		.4byte	.Ldebug_ranges0+0x90
 4311 0f26 2D       		.uleb128 0x2d
 4312 0f27 900B0000 		.4byte	0xb90
 4313 0f2b 00       		.byte	0
 4314 0f2c 00       		.byte	0
 4315 0f2d 3E       		.uleb128 0x3e
 4316 0f2e 5D0B0000 		.4byte	0xb5d
 4317 0f32 6E010000 		.4byte	.LBB88
 4318 0f36 B0000000 		.4byte	.Ldebug_ranges0+0xb0
 4319 0f3a 01       		.byte	0x1
 4320 0f3b C902     		.2byte	0x2c9
 4321 0f3d 39       		.uleb128 0x39
 4322 0f3e 840B0000 		.4byte	0xb84
 4323 0f42 2C       		.uleb128 0x2c
 4324 0f43 B0000000 		.4byte	.Ldebug_ranges0+0xb0
 4325 0f47 2D       		.uleb128 0x2d
 4326 0f48 900B0000 		.4byte	0xb90
 4327 0f4c 00       		.byte	0
 4328 0f4d 00       		.byte	0
 4329 0f4e 00       		.byte	0
 4330 0f4f 29       		.uleb128 0x29
 4331 0f50 BA010000 		.4byte	.LBB92
 4332 0f54 64000000 		.4byte	.LBE92-.LBB92
ARM GAS  C:\Users\pearlstl\AppData\Local\Temp\ccmYHcOW.s 			page 106


 4333 0f58 870F0000 		.4byte	0xf87
 4334 0f5c 3C       		.uleb128 0x3c
 4335 0f5d 6F0D0000 		.4byte	0xd6f
 4336 0f61 01       		.uleb128 0x1
 4337 0f62 58       		.byte	0x58
 4338 0f63 3C       		.uleb128 0x3c
 4339 0f64 7B0D0000 		.4byte	0xd7b
 4340 0f68 01       		.uleb128 0x1
 4341 0f69 55       		.byte	0x55
 4342 0f6a 3F       		.uleb128 0x3f
 4343 0f6b 16020000 		.4byte	.LVL86
 4344 0f6f F6170000 		.4byte	0x17f6
 4345 0f73 30       		.uleb128 0x30
 4346 0f74 01       		.uleb128 0x1
 4347 0f75 50       		.byte	0x50
 4348 0f76 02       		.uleb128 0x2
 4349 0f77 76       		.byte	0x76
 4350 0f78 00       		.sleb128 0
 4351 0f79 30       		.uleb128 0x30
 4352 0f7a 01       		.uleb128 0x1
 4353 0f7b 51       		.byte	0x51
 4354 0f7c 02       		.uleb128 0x2
 4355 0f7d 78       		.byte	0x78
 4356 0f7e 00       		.sleb128 0
 4357 0f7f 30       		.uleb128 0x30
 4358 0f80 01       		.uleb128 0x1
 4359 0f81 52       		.byte	0x52
 4360 0f82 02       		.uleb128 0x2
 4361 0f83 75       		.byte	0x75
 4362 0f84 00       		.sleb128 0
 4363 0f85 00       		.byte	0
 4364 0f86 00       		.byte	0
 4365 0f87 2E       		.uleb128 0x2e
 4366 0f88 76000000 		.4byte	.LVL39
 4367 0f8c E0170000 		.4byte	0x17e0
 4368 0f90 31       		.uleb128 0x31
 4369 0f91 CA000000 		.4byte	.LVL49
 4370 0f95 02       		.uleb128 0x2
 4371 0f96 77       		.byte	0x77
 4372 0f97 00       		.sleb128 0
 4373 0f98 30       		.uleb128 0x30
 4374 0f99 01       		.uleb128 0x1
 4375 0f9a 50       		.byte	0x50
 4376 0f9b 02       		.uleb128 0x2
 4377 0f9c 76       		.byte	0x76
 4378 0f9d 00       		.sleb128 0
 4379 0f9e 30       		.uleb128 0x30
 4380 0f9f 01       		.uleb128 0x1
 4381 0fa0 51       		.byte	0x51
 4382 0fa1 03       		.uleb128 0x3
 4383 0fa2 91       		.byte	0x91
 4384 0fa3 44       		.sleb128 -60
 4385 0fa4 06       		.byte	0x6
 4386 0fa5 30       		.uleb128 0x30
 4387 0fa6 01       		.uleb128 0x1
 4388 0fa7 52       		.byte	0x52
 4389 0fa8 05       		.uleb128 0x5
ARM GAS  C:\Users\pearlstl\AppData\Local\Temp\ccmYHcOW.s 			page 107


 4390 0fa9 91       		.byte	0x91
 4391 0faa AC7F     		.sleb128 -84
 4392 0fac 94       		.byte	0x94
 4393 0fad 02       		.byte	0x2
 4394 0fae 30       		.uleb128 0x30
 4395 0faf 01       		.uleb128 0x1
 4396 0fb0 53       		.byte	0x53
 4397 0fb1 02       		.uleb128 0x2
 4398 0fb2 79       		.byte	0x79
 4399 0fb3 00       		.sleb128 0
 4400 0fb4 30       		.uleb128 0x30
 4401 0fb5 02       		.uleb128 0x2
 4402 0fb6 7D       		.byte	0x7d
 4403 0fb7 04       		.sleb128 4
 4404 0fb8 02       		.uleb128 0x2
 4405 0fb9 75       		.byte	0x75
 4406 0fba 00       		.sleb128 0
 4407 0fbb 30       		.uleb128 0x30
 4408 0fbc 02       		.uleb128 0x2
 4409 0fbd 7D       		.byte	0x7d
 4410 0fbe 08       		.sleb128 8
 4411 0fbf 05       		.uleb128 0x5
 4412 0fc0 91       		.byte	0x91
 4413 0fc1 B87F     		.sleb128 -72
 4414 0fc3 94       		.byte	0x94
 4415 0fc4 01       		.byte	0x1
 4416 0fc5 00       		.byte	0
 4417 0fc6 00       		.byte	0
 4418 0fc7 00       		.byte	0
 4419 0fc8 2F       		.uleb128 0x2f
 4420 0fc9 20000000 		.4byte	.LVL29
 4421 0fcd FF170000 		.4byte	0x17ff
 4422 0fd1 EA0F0000 		.4byte	0xfea
 4423 0fd5 30       		.uleb128 0x30
 4424 0fd6 01       		.uleb128 0x1
 4425 0fd7 50       		.byte	0x50
 4426 0fd8 02       		.uleb128 0x2
 4427 0fd9 91       		.byte	0x91
 4428 0fda 50       		.sleb128 -48
 4429 0fdb 30       		.uleb128 0x30
 4430 0fdc 01       		.uleb128 0x1
 4431 0fdd 51       		.byte	0x51
 4432 0fde 03       		.uleb128 0x3
 4433 0fdf F3       		.byte	0xf3
 4434 0fe0 01       		.uleb128 0x1
 4435 0fe1 50       		.byte	0x50
 4436 0fe2 30       		.uleb128 0x30
 4437 0fe3 01       		.uleb128 0x1
 4438 0fe4 52       		.byte	0x52
 4439 0fe5 03       		.uleb128 0x3
 4440 0fe6 F3       		.byte	0xf3
 4441 0fe7 01       		.uleb128 0x1
 4442 0fe8 51       		.byte	0x51
 4443 0fe9 00       		.byte	0
 4444 0fea 2E       		.uleb128 0x2e
 4445 0feb 2E000000 		.4byte	.LVL33
 4446 0fef E0170000 		.4byte	0x17e0
ARM GAS  C:\Users\pearlstl\AppData\Local\Temp\ccmYHcOW.s 			page 108


 4447 0ff3 2E       		.uleb128 0x2e
 4448 0ff4 32000000 		.4byte	.LVL34
 4449 0ff8 EB170000 		.4byte	0x17eb
 4450 0ffc 00       		.byte	0
 4451 0ffd 22       		.uleb128 0x22
 4452 0ffe E0040000 		.4byte	.LASF195
 4453 1002 01       		.byte	0x1
 4454 1003 E9       		.byte	0xe9
 4455 1004 00000000 		.4byte	.LFB33
 4456 1008 14050000 		.4byte	.LFE33-.LFB33
 4457 100c 01       		.uleb128 0x1
 4458 100d 9C       		.byte	0x9c
 4459 100e 6A130000 		.4byte	0x136a
 4460 1012 24       		.uleb128 0x24
 4461 1013 9E060000 		.4byte	.LASF196
 4462 1017 01       		.byte	0x1
 4463 1018 E9       		.byte	0xe9
 4464 1019 2E0A0000 		.4byte	0xa2e
 4465 101d F2070000 		.4byte	.LLST29
 4466 1021 24       		.uleb128 0x24
 4467 1022 0F060000 		.4byte	.LASF177
 4468 1026 01       		.byte	0x1
 4469 1027 E9       		.byte	0xe9
 4470 1028 9B070000 		.4byte	0x79b
 4471 102c 29080000 		.4byte	.LLST30
 4472 1030 24       		.uleb128 0x24
 4473 1031 D4070000 		.4byte	.LASF197
 4474 1035 01       		.byte	0x1
 4475 1036 E9       		.byte	0xe9
 4476 1037 EC040000 		.4byte	0x4ec
 4477 103b B6080000 		.4byte	.LLST31
 4478 103f 24       		.uleb128 0x24
 4479 1040 9B090000 		.4byte	.LASF198
 4480 1044 01       		.byte	0x1
 4481 1045 E9       		.byte	0xe9
 4482 1046 CE000000 		.4byte	0xce
 4483 104a 51090000 		.4byte	.LLST32
 4484 104e 24       		.uleb128 0x24
 4485 104f 0B080000 		.4byte	.LASF63
 4486 1053 01       		.byte	0x1
 4487 1054 EA       		.byte	0xea
 4488 1055 EF020000 		.4byte	0x2ef
 4489 1059 C8090000 		.4byte	.LLST33
 4490 105d 23       		.uleb128 0x23
 4491 105e 6F706100 		.ascii	"opa\000"
 4492 1062 01       		.byte	0x1
 4493 1063 EA       		.byte	0xea
 4494 1064 FB020000 		.4byte	0x2fb
 4495 1068 210A0000 		.4byte	.LLST34
 4496 106c 37       		.uleb128 0x37
 4497 106d ED0A0000 		.4byte	.LASF199
 4498 1071 01       		.byte	0x1
 4499 1072 ED       		.byte	0xed
 4500 1073 7A130000 		.4byte	0x137a
 4501 1077 03       		.uleb128 0x3
 4502 1078 91       		.byte	0x91
 4503 1079 B47F     		.sleb128 -76
ARM GAS  C:\Users\pearlstl\AppData\Local\Temp\ccmYHcOW.s 			page 109


 4504 107b 37       		.uleb128 0x37
 4505 107c A0030000 		.4byte	.LASF200
 4506 1080 01       		.byte	0x1
 4507 1081 EE       		.byte	0xee
 4508 1082 8F130000 		.4byte	0x138f
 4509 1086 03       		.uleb128 0x3
 4510 1087 91       		.byte	0x91
 4511 1088 BC7F     		.sleb128 -68
 4512 108a 37       		.uleb128 0x37
 4513 108b 33030000 		.4byte	.LASF201
 4514 108f 01       		.byte	0x1
 4515 1090 EF       		.byte	0xef
 4516 1091 A4130000 		.4byte	0x13a4
 4517 1095 02       		.uleb128 0x2
 4518 1096 91       		.byte	0x91
 4519 1097 48       		.sleb128 -56
 4520 1098 40       		.uleb128 0x40
 4521 1099 6700     		.ascii	"g\000"
 4522 109b 01       		.byte	0x1
 4523 109c FB       		.byte	0xfb
 4524 109d 3E010000 		.4byte	0x13e
 4525 10a1 02       		.uleb128 0x2
 4526 10a2 91       		.byte	0x91
 4527 10a3 40       		.sleb128 -64
 4528 10a4 25       		.uleb128 0x25
 4529 10a5 8C0A0000 		.4byte	.LASF202
 4530 10a9 01       		.byte	0x1
 4531 10aa FC       		.byte	0xfc
 4532 10ab E4010000 		.4byte	0x1e4
 4533 10af A00A0000 		.4byte	.LLST35
 4534 10b3 41       		.uleb128 0x41
 4535 10b4 A4060000 		.4byte	.LASF203
 4536 10b8 01       		.byte	0x1
 4537 10b9 0001     		.2byte	0x100
 4538 10bb D9000000 		.4byte	0xd9
 4539 10bf D40A0000 		.4byte	.LLST36
 4540 10c3 41       		.uleb128 0x41
 4541 10c4 AA060000 		.4byte	.LASF204
 4542 10c8 01       		.byte	0x1
 4543 10c9 0101     		.2byte	0x101
 4544 10cb D9000000 		.4byte	0xd9
 4545 10cf 2C0B0000 		.4byte	.LLST37
 4546 10d3 41       		.uleb128 0x41
 4547 10d4 C5030000 		.4byte	.LASF205
 4548 10d8 01       		.byte	0x1
 4549 10d9 0301     		.2byte	0x103
 4550 10db 16020000 		.4byte	0x216
 4551 10df F40B0000 		.4byte	.LLST38
 4552 10e3 41       		.uleb128 0x41
 4553 10e4 EF000000 		.4byte	.LASF206
 4554 10e8 01       		.byte	0x1
 4555 10e9 0401     		.2byte	0x104
 4556 10eb AD000000 		.4byte	0xad
 4557 10ef 540C0000 		.4byte	.LLST39
 4558 10f3 41       		.uleb128 0x41
 4559 10f4 83040000 		.4byte	.LASF207
 4560 10f8 01       		.byte	0x1
ARM GAS  C:\Users\pearlstl\AppData\Local\Temp\ccmYHcOW.s 			page 110


 4561 10f9 0501     		.2byte	0x105
 4562 10fb AD000000 		.4byte	0xad
 4563 10ff AA0C0000 		.4byte	.LLST40
 4564 1103 41       		.uleb128 0x41
 4565 1104 CF040000 		.4byte	.LASF208
 4566 1108 01       		.byte	0x1
 4567 1109 1E01     		.2byte	0x11e
 4568 110b 16020000 		.4byte	0x216
 4569 110f F60C0000 		.4byte	.LLST41
 4570 1113 41       		.uleb128 0x41
 4571 1114 0A060000 		.4byte	.LASF178
 4572 1118 01       		.byte	0x1
 4573 1119 2501     		.2byte	0x125
 4574 111b F70C0000 		.4byte	0xcf7
 4575 111f 4B0D0000 		.4byte	.LLST42
 4576 1123 42       		.uleb128 0x42
 4577 1124 76646200 		.ascii	"vdb\000"
 4578 1128 01       		.byte	0x1
 4579 1129 2601     		.2byte	0x126
 4580 112b 7A070000 		.4byte	0x77a
 4581 112f 920D0000 		.4byte	.LLST43
 4582 1133 34       		.uleb128 0x34
 4583 1134 12070000 		.4byte	.LASF179
 4584 1138 01       		.byte	0x1
 4585 1139 2801     		.2byte	0x128
 4586 113b D9000000 		.4byte	0xd9
 4587 113f 41       		.uleb128 0x41
 4588 1140 8A030000 		.4byte	.LASF194
 4589 1144 01       		.byte	0x1
 4590 1145 2901     		.2byte	0x129
 4591 1147 A6070000 		.4byte	0x7a6
 4592 114b E40D0000 		.4byte	.LLST44
 4593 114f 42       		.uleb128 0x42
 4594 1150 636F6C00 		.ascii	"col\000"
 4595 1154 01       		.byte	0x1
 4596 1155 2A01     		.2byte	0x12a
 4597 1157 D9000000 		.4byte	0xd9
 4598 115b 530E0000 		.4byte	.LLST45
 4599 115f 42       		.uleb128 0x42
 4600 1160 726F7700 		.ascii	"row\000"
 4601 1164 01       		.byte	0x1
 4602 1165 2A01     		.2byte	0x12a
 4603 1167 D9000000 		.4byte	0xd9
 4604 116b AA0E0000 		.4byte	.LLST46
 4605 116f 41       		.uleb128 0x41
 4606 1170 07040000 		.4byte	.LASF209
 4607 1174 01       		.byte	0x1
 4608 1175 2C01     		.2byte	0x12c
 4609 1177 AD000000 		.4byte	0xad
 4610 117b F10E0000 		.4byte	.LLST47
 4611 117f 41       		.uleb128 0x41
 4612 1180 FE010000 		.4byte	.LASF210
 4613 1184 01       		.byte	0x1
 4614 1185 2E01     		.2byte	0x12e
 4615 1187 C3000000 		.4byte	0xc3
 4616 118b 170F0000 		.4byte	.LLST48
 4617 118f 41       		.uleb128 0x41
ARM GAS  C:\Users\pearlstl\AppData\Local\Temp\ccmYHcOW.s 			page 111


 4618 1190 FF060000 		.4byte	.LASF82
 4619 1194 01       		.byte	0x1
 4620 1195 3001     		.2byte	0x130
 4621 1197 E4010000 		.4byte	0x1e4
 4622 119b 700F0000 		.4byte	.LLST49
 4623 119f 41       		.uleb128 0x41
 4624 11a0 C4080000 		.4byte	.LASF211
 4625 11a4 01       		.byte	0x1
 4626 11a5 3301     		.2byte	0x133
 4627 11a7 D9000000 		.4byte	0xd9
 4628 11ab 23100000 		.4byte	.LLST50
 4629 11af 41       		.uleb128 0x41
 4630 11b0 16060000 		.4byte	.LASF212
 4631 11b4 01       		.byte	0x1
 4632 11b5 3401     		.2byte	0x134
 4633 11b7 D9000000 		.4byte	0xd9
 4634 11bb 6C100000 		.4byte	.LLST51
 4635 11bf 41       		.uleb128 0x41
 4636 11c0 2E050000 		.4byte	.LASF213
 4637 11c4 01       		.byte	0x1
 4638 11c5 3501     		.2byte	0x135
 4639 11c7 D9000000 		.4byte	0xd9
 4640 11cb 8A100000 		.4byte	.LLST52
 4641 11cf 41       		.uleb128 0x41
 4642 11d0 990A0000 		.4byte	.LASF214
 4643 11d4 01       		.byte	0x1
 4644 11d5 3601     		.2byte	0x136
 4645 11d7 D9000000 		.4byte	0xd9
 4646 11db AC100000 		.4byte	.LLST53
 4647 11df 41       		.uleb128 0x41
 4648 11e0 93070000 		.4byte	.LASF215
 4649 11e4 01       		.byte	0x1
 4650 11e5 4C01     		.2byte	0x14c
 4651 11e7 CE000000 		.4byte	0xce
 4652 11eb C1100000 		.4byte	.LLST54
 4653 11ef 41       		.uleb128 0x41
 4654 11f0 B9060000 		.4byte	.LASF216
 4655 11f4 01       		.byte	0x1
 4656 11f5 4F01     		.2byte	0x14f
 4657 11f7 AD000000 		.4byte	0xad
 4658 11fb D4100000 		.4byte	.LLST55
 4659 11ff 41       		.uleb128 0x41
 4660 1200 01050000 		.4byte	.LASF217
 4661 1204 01       		.byte	0x1
 4662 1205 5001     		.2byte	0x150
 4663 1207 FB020000 		.4byte	0x2fb
 4664 120b B6110000 		.4byte	.LLST56
 4665 120f 41       		.uleb128 0x41
 4666 1210 B4080000 		.4byte	.LASF218
 4667 1214 01       		.byte	0x1
 4668 1215 5101     		.2byte	0x151
 4669 1217 C3000000 		.4byte	0xc3
 4670 121b EB110000 		.4byte	.LLST57
 4671 121f 41       		.uleb128 0x41
 4672 1220 7A000000 		.4byte	.LASF180
 4673 1224 01       		.byte	0x1
 4674 1225 5401     		.2byte	0x154
ARM GAS  C:\Users\pearlstl\AppData\Local\Temp\ccmYHcOW.s 			page 112


 4675 1227 E4010000 		.4byte	0x1e4
 4676 122b 41120000 		.4byte	.LLST58
 4677 122f 43       		.uleb128 0x43
 4678 1230 8B040000 		.4byte	.LASF219
 4679 1234 01       		.byte	0x1
 4680 1235 5901     		.2byte	0x159
 4681 1237 A9130000 		.4byte	0x13a9
 4682 123b 03       		.uleb128 0x3
 4683 123c 91       		.byte	0x91
 4684 123d B87F     		.sleb128 -72
 4685 123f 41       		.uleb128 0x41
 4686 1240 C7040000 		.4byte	.LASF220
 4687 1244 01       		.byte	0x1
 4688 1245 5A01     		.2byte	0x15a
 4689 1247 A9130000 		.4byte	0x13a9
 4690 124b 79120000 		.4byte	.LLST59
 4691 124f 44       		.uleb128 0x44
 4692 1250 C8000000 		.4byte	.Ldebug_ranges0+0xc8
 4693 1254 E8120000 		.4byte	0x12e8
 4694 1258 41       		.uleb128 0x41
 4695 1259 47080000 		.4byte	.LASF221
 4696 125d 01       		.byte	0x1
 4697 125e 5E01     		.2byte	0x15e
 4698 1260 AD000000 		.4byte	0xad
 4699 1264 1D130000 		.4byte	.LLST60
 4700 1268 44       		.uleb128 0x44
 4701 1269 F0000000 		.4byte	.Ldebug_ranges0+0xf0
 4702 126d 9C120000 		.4byte	0x129c
 4703 1271 41       		.uleb128 0x41
 4704 1272 13010000 		.4byte	.LASF222
 4705 1276 01       		.byte	0x1
 4706 1277 9001     		.2byte	0x190
 4707 1279 EF020000 		.4byte	0x2ef
 4708 127d 7F130000 		.4byte	.LLST61
 4709 1281 45       		.uleb128 0x45
 4710 1282 A4030000 		.4byte	.LBB97
 4711 1286 56000000 		.4byte	.LBE97-.LBB97
 4712 128a 41       		.uleb128 0x41
 4713 128b 45050000 		.4byte	.LASF223
 4714 128f 01       		.byte	0x1
 4715 1290 9601     		.2byte	0x196
 4716 1292 A9130000 		.4byte	0x13a9
 4717 1296 B3130000 		.4byte	.LLST62
 4718 129a 00       		.byte	0
 4719 129b 00       		.byte	0
 4720 129c 3D       		.uleb128 0x3d
 4721 129d 5D0B0000 		.4byte	0xb5d
 4722 12a1 4C040000 		.4byte	.LBB99
 4723 12a5 08010000 		.4byte	.Ldebug_ranges0+0x108
 4724 12a9 01       		.byte	0x1
 4725 12aa 7401     		.2byte	0x174
 4726 12ac C5120000 		.4byte	0x12c5
 4727 12b0 28       		.uleb128 0x28
 4728 12b1 840B0000 		.4byte	0xb84
 4729 12b5 DE130000 		.4byte	.LLST63
 4730 12b9 2C       		.uleb128 0x2c
 4731 12ba 08010000 		.4byte	.Ldebug_ranges0+0x108
ARM GAS  C:\Users\pearlstl\AppData\Local\Temp\ccmYHcOW.s 			page 113


 4732 12be 2D       		.uleb128 0x2d
 4733 12bf 900B0000 		.4byte	0xb90
 4734 12c3 00       		.byte	0
 4735 12c4 00       		.byte	0
 4736 12c5 31       		.uleb128 0x31
 4737 12c6 EE020000 		.4byte	.LVL145
 4738 12ca 02       		.uleb128 0x2
 4739 12cb 77       		.byte	0x77
 4740 12cc 00       		.sleb128 0
 4741 12cd 30       		.uleb128 0x30
 4742 12ce 01       		.uleb128 0x1
 4743 12cf 50       		.byte	0x50
 4744 12d0 04       		.uleb128 0x4
 4745 12d1 91       		.byte	0x91
 4746 12d2 EC7E     		.sleb128 -148
 4747 12d4 06       		.byte	0x6
 4748 12d5 30       		.uleb128 0x30
 4749 12d6 01       		.uleb128 0x1
 4750 12d7 52       		.byte	0x52
 4751 12d8 05       		.uleb128 0x5
 4752 12d9 91       		.byte	0x91
 4753 12da 807F     		.sleb128 -128
 4754 12dc 94       		.byte	0x94
 4755 12dd 02       		.byte	0x2
 4756 12de 30       		.uleb128 0x30
 4757 12df 02       		.uleb128 0x2
 4758 12e0 7D       		.byte	0x7d
 4759 12e1 04       		.sleb128 4
 4760 12e2 03       		.uleb128 0x3
 4761 12e3 91       		.byte	0x91
 4762 12e4 00       		.sleb128 0
 4763 12e5 06       		.byte	0x6
 4764 12e6 00       		.byte	0
 4765 12e7 00       		.byte	0
 4766 12e8 3D       		.uleb128 0x3d
 4767 12e9 9D0B0000 		.4byte	0xb9d
 4768 12ed 56010000 		.4byte	.LBB105
 4769 12f1 28010000 		.4byte	.Ldebug_ranges0+0x128
 4770 12f5 01       		.byte	0x1
 4771 12f6 2801     		.2byte	0x128
 4772 12f8 0F130000 		.4byte	0x130f
 4773 12fc 28       		.uleb128 0x28
 4774 12fd AD0B0000 		.4byte	0xbad
 4775 1301 F1130000 		.4byte	.LLST64
 4776 1305 28       		.uleb128 0x28
 4777 1306 AD0B0000 		.4byte	0xbad
 4778 130a F1130000 		.4byte	.LLST64
 4779 130e 00       		.byte	0
 4780 130f 2F       		.uleb128 0x2f
 4781 1310 54000000 		.4byte	.LVL94
 4782 1314 0A180000 		.4byte	0x180a
 4783 1318 34130000 		.4byte	0x1334
 4784 131c 30       		.uleb128 0x30
 4785 131d 01       		.uleb128 0x1
 4786 131e 50       		.byte	0x50
 4787 131f 02       		.uleb128 0x2
 4788 1320 75       		.byte	0x75
ARM GAS  C:\Users\pearlstl\AppData\Local\Temp\ccmYHcOW.s 			page 114


 4789 1321 00       		.sleb128 0
 4790 1322 30       		.uleb128 0x30
 4791 1323 01       		.uleb128 0x1
 4792 1324 51       		.byte	0x51
 4793 1325 02       		.uleb128 0x2
 4794 1326 91       		.byte	0x91
 4795 1327 40       		.sleb128 -64
 4796 1328 30       		.uleb128 0x30
 4797 1329 01       		.uleb128 0x1
 4798 132a 52       		.byte	0x52
 4799 132b 02       		.uleb128 0x2
 4800 132c 76       		.byte	0x76
 4801 132d 00       		.sleb128 0
 4802 132e 30       		.uleb128 0x30
 4803 132f 01       		.uleb128 0x1
 4804 1330 53       		.byte	0x53
 4805 1331 01       		.uleb128 0x1
 4806 1332 30       		.byte	0x30
 4807 1333 00       		.byte	0
 4808 1334 2F       		.uleb128 0x2f
 4809 1335 F0000000 		.4byte	.LVL109
 4810 1339 15180000 		.4byte	0x1815
 4811 133d 4E130000 		.4byte	0x134e
 4812 1341 30       		.uleb128 0x30
 4813 1342 01       		.uleb128 0x1
 4814 1343 50       		.byte	0x50
 4815 1344 02       		.uleb128 0x2
 4816 1345 75       		.byte	0x75
 4817 1346 00       		.sleb128 0
 4818 1347 30       		.uleb128 0x30
 4819 1348 01       		.uleb128 0x1
 4820 1349 51       		.byte	0x51
 4821 134a 02       		.uleb128 0x2
 4822 134b 76       		.byte	0x76
 4823 134c 00       		.sleb128 0
 4824 134d 00       		.byte	0
 4825 134e 2E       		.uleb128 0x2e
 4826 134f 4C010000 		.4byte	.LVL114
 4827 1353 E0170000 		.4byte	0x17e0
 4828 1357 3F       		.uleb128 0x3f
 4829 1358 52010000 		.4byte	.LVL116
 4830 135c EB170000 		.4byte	0x17eb
 4831 1360 30       		.uleb128 0x30
 4832 1361 01       		.uleb128 0x1
 4833 1362 50       		.byte	0x50
 4834 1363 04       		.uleb128 0x4
 4835 1364 91       		.byte	0x91
 4836 1365 EC7E     		.sleb128 -148
 4837 1367 06       		.byte	0x6
 4838 1368 00       		.byte	0
 4839 1369 00       		.byte	0
 4840 136a 1B       		.uleb128 0x1b
 4841 136b 1C020000 		.4byte	0x21c
 4842 136f 7A130000 		.4byte	0x137a
 4843 1373 1C       		.uleb128 0x1c
 4844 1374 07030000 		.4byte	0x307
 4845 1378 01       		.byte	0x1
ARM GAS  C:\Users\pearlstl\AppData\Local\Temp\ccmYHcOW.s 			page 115


 4846 1379 00       		.byte	0
 4847 137a 10       		.uleb128 0x10
 4848 137b 6A130000 		.4byte	0x136a
 4849 137f 1B       		.uleb128 0x1b
 4850 1380 1C020000 		.4byte	0x21c
 4851 1384 8F130000 		.4byte	0x138f
 4852 1388 1C       		.uleb128 0x1c
 4853 1389 07030000 		.4byte	0x307
 4854 138d 03       		.byte	0x3
 4855 138e 00       		.byte	0
 4856 138f 10       		.uleb128 0x10
 4857 1390 7F130000 		.4byte	0x137f
 4858 1394 1B       		.uleb128 0x1b
 4859 1395 1C020000 		.4byte	0x21c
 4860 1399 A4130000 		.4byte	0x13a4
 4861 139d 1C       		.uleb128 0x1c
 4862 139e 07030000 		.4byte	0x307
 4863 13a2 0F       		.byte	0xf
 4864 13a3 00       		.byte	0
 4865 13a4 10       		.uleb128 0x10
 4866 13a5 94130000 		.4byte	0x1394
 4867 13a9 1B       		.uleb128 0x1b
 4868 13aa AD000000 		.4byte	0xad
 4869 13ae B9130000 		.4byte	0x13b9
 4870 13b2 1C       		.uleb128 0x1c
 4871 13b3 07030000 		.4byte	0x307
 4872 13b7 02       		.byte	0x2
 4873 13b8 00       		.byte	0
 4874 13b9 32       		.uleb128 0x32
 4875 13ba 6A090000 		.4byte	.LASF225
 4876 13be 01       		.byte	0x1
 4877 13bf 8302     		.2byte	0x283
 4878 13c1 01       		.byte	0x1
 4879 13c2 05140000 		.4byte	0x1405
 4880 13c6 33       		.uleb128 0x33
 4881 13c7 F7070000 		.4byte	.LASF226
 4882 13cb 01       		.byte	0x1
 4883 13cc 8302     		.2byte	0x283
 4884 13ce A6070000 		.4byte	0x7a6
 4885 13d2 1E       		.uleb128 0x1e
 4886 13d3 73726300 		.ascii	"src\000"
 4887 13d7 01       		.byte	0x1
 4888 13d8 8302     		.2byte	0x283
 4889 13da 05140000 		.4byte	0x1405
 4890 13de 33       		.uleb128 0x33
 4891 13df 6F070000 		.4byte	.LASF227
 4892 13e3 01       		.byte	0x1
 4893 13e4 8302     		.2byte	0x283
 4894 13e6 CE000000 		.4byte	0xce
 4895 13ea 1E       		.uleb128 0x1e
 4896 13eb 6F706100 		.ascii	"opa\000"
 4897 13ef 01       		.byte	0x1
 4898 13f0 8302     		.2byte	0x283
 4899 13f2 FB020000 		.4byte	0x2fb
 4900 13f6 36       		.uleb128 0x36
 4901 13f7 1F       		.uleb128 0x1f
 4902 13f8 636F6C00 		.ascii	"col\000"
ARM GAS  C:\Users\pearlstl\AppData\Local\Temp\ccmYHcOW.s 			page 116


 4903 13fc 01       		.byte	0x1
 4904 13fd 8802     		.2byte	0x288
 4905 13ff CE000000 		.4byte	0xce
 4906 1403 00       		.byte	0
 4907 1404 00       		.byte	0
 4908 1405 0F       		.uleb128 0xf
 4909 1406 04       		.byte	0x4
 4910 1407 0B140000 		.4byte	0x140b
 4911 140b 10       		.uleb128 0x10
 4912 140c EF020000 		.4byte	0x2ef
 4913 1410 46       		.uleb128 0x46
 4914 1411 D1090000 		.4byte	.LASF228
 4915 1415 01       		.byte	0x1
 4916 1416 CE01     		.2byte	0x1ce
 4917 1418 00000000 		.4byte	.LFB34
 4918 141c F4030000 		.4byte	.LFE34-.LFB34
 4919 1420 01       		.uleb128 0x1
 4920 1421 9C       		.byte	0x9c
 4921 1422 E0170000 		.4byte	0x17e0
 4922 1426 47       		.uleb128 0x47
 4923 1427 A0050000 		.4byte	.LASF190
 4924 142b 01       		.byte	0x1
 4925 142c CE01     		.2byte	0x1ce
 4926 142e 9B070000 		.4byte	0x79b
 4927 1432 57140000 		.4byte	.LLST66
 4928 1436 47       		.uleb128 0x47
 4929 1437 0F060000 		.4byte	.LASF177
 4930 143b 01       		.byte	0x1
 4931 143c CE01     		.2byte	0x1ce
 4932 143e 9B070000 		.4byte	0x79b
 4933 1442 9C140000 		.4byte	.LLST67
 4934 1446 47       		.uleb128 0x47
 4935 1447 CF040000 		.4byte	.LASF208
 4936 144b 01       		.byte	0x1
 4937 144c CE01     		.2byte	0x1ce
 4938 144e 16020000 		.4byte	0x216
 4939 1452 C8140000 		.4byte	.LLST68
 4940 1456 48       		.uleb128 0x48
 4941 1457 6F706100 		.ascii	"opa\000"
 4942 145b 01       		.byte	0x1
 4943 145c CE01     		.2byte	0x1ce
 4944 145e FB020000 		.4byte	0x2fb
 4945 1462 59150000 		.4byte	.LLST69
 4946 1466 47       		.uleb128 0x47
 4947 1467 FC000000 		.4byte	.LASF229
 4948 146b 01       		.byte	0x1
 4949 146c CF01     		.2byte	0x1cf
 4950 146e E4010000 		.4byte	0x1e4
 4951 1472 C0150000 		.4byte	.LLST70
 4952 1476 47       		.uleb128 0x47
 4953 1477 14020000 		.4byte	.LASF230
 4954 147b 01       		.byte	0x1
 4955 147c CF01     		.2byte	0x1cf
 4956 147e E4010000 		.4byte	0x1e4
 4957 1482 E0150000 		.4byte	.LLST71
 4958 1486 47       		.uleb128 0x47
 4959 1487 11050000 		.4byte	.LASF231
ARM GAS  C:\Users\pearlstl\AppData\Local\Temp\ccmYHcOW.s 			page 117


 4960 148b 01       		.byte	0x1
 4961 148c CF01     		.2byte	0x1cf
 4962 148e EF020000 		.4byte	0x2ef
 4963 1492 00160000 		.4byte	.LLST72
 4964 1496 47       		.uleb128 0x47
 4965 1497 56060000 		.4byte	.LASF232
 4966 149b 01       		.byte	0x1
 4967 149c CF01     		.2byte	0x1cf
 4968 149e FB020000 		.4byte	0x2fb
 4969 14a2 44160000 		.4byte	.LLST73
 4970 14a6 43       		.uleb128 0x43
 4971 14a7 E8020000 		.4byte	.LASF233
 4972 14ab 01       		.byte	0x1
 4973 14ac D501     		.2byte	0x1d5
 4974 14ae 72030000 		.4byte	0x372
 4975 14b2 02       		.uleb128 0x2
 4976 14b3 91       		.byte	0x91
 4977 14b4 50       		.sleb128 -48
 4978 14b5 41       		.uleb128 0x41
 4979 14b6 4D060000 		.4byte	.LASF192
 4980 14ba 01       		.byte	0x1
 4981 14bb D601     		.2byte	0x1d6
 4982 14bd E4010000 		.4byte	0x1e4
 4983 14c1 64160000 		.4byte	.LLST74
 4984 14c5 49       		.uleb128 0x49
 4985 14c6 1C070000 		.4byte	.LASF234
 4986 14ca 01       		.byte	0x1
 4987 14cb E101     		.2byte	0x1e1
 4988 14cd AD000000 		.4byte	0xad
 4989 14d1 04       		.byte	0x4
 4990 14d2 34       		.uleb128 0x34
 4991 14d3 A8070000 		.4byte	.LASF235
 4992 14d7 01       		.byte	0x1
 4993 14d8 E401     		.2byte	0x1e4
 4994 14da D9000000 		.4byte	0xd9
 4995 14de 41       		.uleb128 0x41
 4996 14df 0A060000 		.4byte	.LASF178
 4997 14e3 01       		.byte	0x1
 4998 14e4 EC01     		.2byte	0x1ec
 4999 14e6 F70C0000 		.4byte	0xcf7
 5000 14ea 82160000 		.4byte	.LLST75
 5001 14ee 42       		.uleb128 0x42
 5002 14ef 76646200 		.ascii	"vdb\000"
 5003 14f3 01       		.byte	0x1
 5004 14f4 ED01     		.2byte	0x1ed
 5005 14f6 7A070000 		.4byte	0x77a
 5006 14fa A0160000 		.4byte	.LLST76
 5007 14fe 34       		.uleb128 0x34
 5008 14ff 12070000 		.4byte	.LASF179
 5009 1503 01       		.byte	0x1
 5010 1504 F501     		.2byte	0x1f5
 5011 1506 D9000000 		.4byte	0xd9
 5012 150a 41       		.uleb128 0x41
 5013 150b 8A030000 		.4byte	.LASF194
 5014 150f 01       		.byte	0x1
 5015 1510 F601     		.2byte	0x1f6
 5016 1512 A6070000 		.4byte	0x7a6
ARM GAS  C:\Users\pearlstl\AppData\Local\Temp\ccmYHcOW.s 			page 118


 5017 1516 D8160000 		.4byte	.LLST77
 5018 151a 42       		.uleb128 0x42
 5019 151b 726F7700 		.ascii	"row\000"
 5020 151f 01       		.byte	0x1
 5021 1520 FA01     		.2byte	0x1fa
 5022 1522 D9000000 		.4byte	0xd9
 5023 1526 44170000 		.4byte	.LLST78
 5024 152a 34       		.uleb128 0x34
 5025 152b 2E060000 		.4byte	.LASF236
 5026 152f 01       		.byte	0x1
 5027 1530 FB01     		.2byte	0x1fb
 5028 1532 D9000000 		.4byte	0xd9
 5029 1536 49       		.uleb128 0x49
 5030 1537 7A000000 		.4byte	.LASF180
 5031 153b 01       		.byte	0x1
 5032 153c FD01     		.2byte	0x1fd
 5033 153e E4010000 		.4byte	0x1e4
 5034 1542 00       		.byte	0
 5035 1543 3D       		.uleb128 0x3d
 5036 1544 9D0B0000 		.4byte	0xb9d
 5037 1548 4E000000 		.4byte	.LBB136
 5038 154c 40010000 		.4byte	.Ldebug_ranges0+0x140
 5039 1550 01       		.byte	0x1
 5040 1551 E401     		.2byte	0x1e4
 5041 1553 6A150000 		.4byte	0x156a
 5042 1557 28       		.uleb128 0x28
 5043 1558 AD0B0000 		.4byte	0xbad
 5044 155c AA170000 		.4byte	.LLST79
 5045 1560 28       		.uleb128 0x28
 5046 1561 AD0B0000 		.4byte	0xbad
 5047 1565 D8170000 		.4byte	.LLST80
 5048 1569 00       		.byte	0
 5049 156a 3D       		.uleb128 0x3d
 5050 156b 9D0B0000 		.4byte	0xb9d
 5051 156f 9E000000 		.4byte	.LBB142
 5052 1573 60010000 		.4byte	.Ldebug_ranges0+0x160
 5053 1577 01       		.byte	0x1
 5054 1578 F501     		.2byte	0x1f5
 5055 157a 91150000 		.4byte	0x1591
 5056 157e 3A       		.uleb128 0x3a
 5057 157f AD0B0000 		.4byte	0xbad
 5058 1583 03       		.uleb128 0x3
 5059 1584 91       		.byte	0x91
 5060 1585 50       		.sleb128 -48
 5061 1586 9F       		.byte	0x9f
 5062 1587 3A       		.uleb128 0x3a
 5063 1588 AD0B0000 		.4byte	0xbad
 5064 158c 03       		.uleb128 0x3
 5065 158d 91       		.byte	0x91
 5066 158e 50       		.sleb128 -48
 5067 158f 9F       		.byte	0x9f
 5068 1590 00       		.byte	0
 5069 1591 3D       		.uleb128 0x3d
 5070 1592 9D0B0000 		.4byte	0xb9d
 5071 1596 CA000000 		.4byte	.LBB148
 5072 159a 80010000 		.4byte	.Ldebug_ranges0+0x180
 5073 159e 01       		.byte	0x1
ARM GAS  C:\Users\pearlstl\AppData\Local\Temp\ccmYHcOW.s 			page 119


 5074 159f FB01     		.2byte	0x1fb
 5075 15a1 B8150000 		.4byte	0x15b8
 5076 15a5 3A       		.uleb128 0x3a
 5077 15a6 AD0B0000 		.4byte	0xbad
 5078 15aa 03       		.uleb128 0x3
 5079 15ab 91       		.byte	0x91
 5080 15ac 50       		.sleb128 -48
 5081 15ad 9F       		.byte	0x9f
 5082 15ae 3A       		.uleb128 0x3a
 5083 15af AD0B0000 		.4byte	0xbad
 5084 15b3 03       		.uleb128 0x3
 5085 15b4 91       		.byte	0x91
 5086 15b5 50       		.sleb128 -48
 5087 15b6 9F       		.byte	0x9f
 5088 15b7 00       		.byte	0
 5089 15b8 44       		.uleb128 0x44
 5090 15b9 A0010000 		.4byte	.Ldebug_ranges0+0x1a0
 5091 15bd 00170000 		.4byte	0x1700
 5092 15c1 42       		.uleb128 0x42
 5093 15c2 636F6C00 		.ascii	"col\000"
 5094 15c6 01       		.byte	0x1
 5095 15c7 2602     		.2byte	0x226
 5096 15c9 D9000000 		.4byte	0xd9
 5097 15cd 06180000 		.4byte	.LLST81
 5098 15d1 43       		.uleb128 0x43
 5099 15d2 08020000 		.4byte	.LASF237
 5100 15d6 01       		.byte	0x1
 5101 15d7 2702     		.2byte	0x227
 5102 15d9 EF020000 		.4byte	0x2ef
 5103 15dd 02       		.uleb128 0x2
 5104 15de 91       		.byte	0x91
 5105 15df 4C       		.sleb128 -52
 5106 15e0 41       		.uleb128 0x41
 5107 15e1 EF040000 		.4byte	.LASF238
 5108 15e5 01       		.byte	0x1
 5109 15e6 2802     		.2byte	0x228
 5110 15e8 EF020000 		.4byte	0x2ef
 5111 15ec 3B180000 		.4byte	.LLST82
 5112 15f0 3D       		.uleb128 0x3d
 5113 15f1 5D0B0000 		.4byte	0xb5d
 5114 15f5 06010000 		.4byte	.LBB155
 5115 15f9 B8010000 		.4byte	.Ldebug_ranges0+0x1b8
 5116 15fd 01       		.byte	0x1
 5117 15fe 2802     		.2byte	0x228
 5118 1600 15160000 		.4byte	0x1615
 5119 1604 39       		.uleb128 0x39
 5120 1605 840B0000 		.4byte	0xb84
 5121 1609 2C       		.uleb128 0x2c
 5122 160a B8010000 		.4byte	.Ldebug_ranges0+0x1b8
 5123 160e 2D       		.uleb128 0x2d
 5124 160f 900B0000 		.4byte	0xb90
 5125 1613 00       		.byte	0
 5126 1614 00       		.byte	0
 5127 1615 2C       		.uleb128 0x2c
 5128 1616 D0010000 		.4byte	.Ldebug_ranges0+0x1d0
 5129 161a 41       		.uleb128 0x41
 5130 161b 07030000 		.4byte	.LASF239
ARM GAS  C:\Users\pearlstl\AppData\Local\Temp\ccmYHcOW.s 			page 120


 5131 161f 01       		.byte	0x1
 5132 1620 2B02     		.2byte	0x22b
 5133 1622 FB020000 		.4byte	0x2fb
 5134 1626 FE180000 		.4byte	.LLST83
 5135 162a 41       		.uleb128 0x41
 5136 162b D5040000 		.4byte	.LASF240
 5137 162f 01       		.byte	0x1
 5138 1630 2C02     		.2byte	0x22c
 5139 1632 F7070000 		.4byte	0x7f7
 5140 1636 48190000 		.4byte	.LLST84
 5141 163a 41       		.uleb128 0x41
 5142 163b 28080000 		.4byte	.LASF241
 5143 163f 01       		.byte	0x1
 5144 1640 2D02     		.2byte	0x22d
 5145 1642 EF020000 		.4byte	0x2ef
 5146 1646 73190000 		.4byte	.LLST85
 5147 164a 44       		.uleb128 0x44
 5148 164b E8010000 		.4byte	.Ldebug_ranges0+0x1e8
 5149 164f 64160000 		.4byte	0x1664
 5150 1653 41       		.uleb128 0x41
 5151 1654 01050000 		.4byte	.LASF217
 5152 1658 01       		.byte	0x1
 5153 1659 3A02     		.2byte	0x23a
 5154 165b FB020000 		.4byte	0x2fb
 5155 165f E9190000 		.4byte	.LLST86
 5156 1663 00       		.byte	0
 5157 1664 4A       		.uleb128 0x4a
 5158 1665 5D0B0000 		.4byte	0xb5d
 5159 1669 B0010000 		.4byte	.LBB161
 5160 166d 3C000000 		.4byte	.LBE161-.LBB161
 5161 1671 01       		.byte	0x1
 5162 1672 4B02     		.2byte	0x24b
 5163 1674 8D160000 		.4byte	0x168d
 5164 1678 39       		.uleb128 0x39
 5165 1679 840B0000 		.4byte	0xb84
 5166 167d 45       		.uleb128 0x45
 5167 167e B0010000 		.4byte	.LBB162
 5168 1682 3C000000 		.4byte	.LBE162-.LBB162
 5169 1686 2D       		.uleb128 0x2d
 5170 1687 900B0000 		.4byte	0xb90
 5171 168b 00       		.byte	0
 5172 168c 00       		.byte	0
 5173 168d 3D       		.uleb128 0x3d
 5174 168e 5D0B0000 		.4byte	0xb5d
 5175 1692 70020000 		.4byte	.LBB163
 5176 1696 00020000 		.4byte	.Ldebug_ranges0+0x200
 5177 169a 01       		.byte	0x1
 5178 169b 5702     		.2byte	0x257
 5179 169d B6160000 		.4byte	0x16b6
 5180 16a1 28       		.uleb128 0x28
 5181 16a2 840B0000 		.4byte	0xb84
 5182 16a6 1F1A0000 		.4byte	.LLST87
 5183 16aa 2C       		.uleb128 0x2c
 5184 16ab 00020000 		.4byte	.Ldebug_ranges0+0x200
 5185 16af 2D       		.uleb128 0x2d
 5186 16b0 900B0000 		.4byte	0xb90
 5187 16b4 00       		.byte	0
ARM GAS  C:\Users\pearlstl\AppData\Local\Temp\ccmYHcOW.s 			page 121


 5188 16b5 00       		.byte	0
 5189 16b6 3D       		.uleb128 0x3d
 5190 16b7 5D0B0000 		.4byte	0xb5d
 5191 16bb CE020000 		.4byte	.LBB175
 5192 16bf 38020000 		.4byte	.Ldebug_ranges0+0x238
 5193 16c3 01       		.byte	0x1
 5194 16c4 6602     		.2byte	0x266
 5195 16c6 DF160000 		.4byte	0x16df
 5196 16ca 28       		.uleb128 0x28
 5197 16cb 840B0000 		.4byte	0xb84
 5198 16cf 321A0000 		.4byte	.LLST88
 5199 16d3 2C       		.uleb128 0x2c
 5200 16d4 38020000 		.4byte	.Ldebug_ranges0+0x238
 5201 16d8 2D       		.uleb128 0x2d
 5202 16d9 900B0000 		.4byte	0xb90
 5203 16dd 00       		.byte	0
 5204 16de 00       		.byte	0
 5205 16df 4B       		.uleb128 0x4b
 5206 16e0 12020000 		.4byte	.LVL246
 5207 16e4 30       		.uleb128 0x30
 5208 16e5 01       		.uleb128 0x1
 5209 16e6 50       		.byte	0x50
 5210 16e7 02       		.uleb128 0x2
 5211 16e8 78       		.byte	0x78
 5212 16e9 00       		.sleb128 0
 5213 16ea 30       		.uleb128 0x30
 5214 16eb 01       		.uleb128 0x1
 5215 16ec 52       		.byte	0x52
 5216 16ed 05       		.uleb128 0x5
 5217 16ee 91       		.byte	0x91
 5218 16ef A87F     		.sleb128 -88
 5219 16f1 94       		.byte	0x94
 5220 16f2 02       		.byte	0x2
 5221 16f3 30       		.uleb128 0x30
 5222 16f4 02       		.uleb128 0x2
 5223 16f5 7D       		.byte	0x7d
 5224 16f6 00       		.sleb128 0
 5225 16f7 05       		.uleb128 0x5
 5226 16f8 91       		.byte	0x91
 5227 16f9 A47F     		.sleb128 -92
 5228 16fb 94       		.byte	0x94
 5229 16fc 02       		.byte	0x2
 5230 16fd 00       		.byte	0
 5231 16fe 00       		.byte	0
 5232 16ff 00       		.byte	0
 5233 1700 29       		.uleb128 0x29
 5234 1701 56030000 		.4byte	.LBB186
 5235 1705 6A000000 		.4byte	.LBE186-.LBB186
 5236 1709 5A170000 		.4byte	0x175a
 5237 170d 42       		.uleb128 0x42
 5238 170e 636F6C00 		.ascii	"col\000"
 5239 1712 01       		.byte	0x1
 5240 1713 0702     		.2byte	0x207
 5241 1715 D9000000 		.4byte	0xd9
 5242 1719 451A0000 		.4byte	.LLST89
 5243 171d 2C       		.uleb128 0x2c
 5244 171e 60020000 		.4byte	.Ldebug_ranges0+0x260
ARM GAS  C:\Users\pearlstl\AppData\Local\Temp\ccmYHcOW.s 			page 122


 5245 1722 41       		.uleb128 0x41
 5246 1723 28080000 		.4byte	.LASF241
 5247 1727 01       		.byte	0x1
 5248 1728 0A02     		.2byte	0x20a
 5249 172a EF020000 		.4byte	0x2ef
 5250 172e 641A0000 		.4byte	.LLST90
 5251 1732 31       		.uleb128 0x31
 5252 1733 9E030000 		.4byte	.LVL290
 5253 1737 02       		.uleb128 0x2
 5254 1738 74       		.byte	0x74
 5255 1739 00       		.sleb128 0
 5256 173a 30       		.uleb128 0x30
 5257 173b 01       		.uleb128 0x1
 5258 173c 50       		.byte	0x50
 5259 173d 02       		.uleb128 0x2
 5260 173e 78       		.byte	0x78
 5261 173f 00       		.sleb128 0
 5262 1740 30       		.uleb128 0x30
 5263 1741 01       		.uleb128 0x1
 5264 1742 52       		.byte	0x52
 5265 1743 02       		.uleb128 0x2
 5266 1744 7B       		.byte	0x7b
 5267 1745 00       		.sleb128 0
 5268 1746 30       		.uleb128 0x30
 5269 1747 02       		.uleb128 0x2
 5270 1748 7D       		.byte	0x7d
 5271 1749 00       		.sleb128 0
 5272 174a 02       		.uleb128 0x2
 5273 174b 7A       		.byte	0x7a
 5274 174c 00       		.sleb128 0
 5275 174d 30       		.uleb128 0x30
 5276 174e 02       		.uleb128 0x2
 5277 174f 7D       		.byte	0x7d
 5278 1750 08       		.sleb128 8
 5279 1751 05       		.uleb128 0x5
 5280 1752 91       		.byte	0x91
 5281 1753 907F     		.sleb128 -112
 5282 1755 94       		.byte	0x94
 5283 1756 01       		.byte	0x1
 5284 1757 00       		.byte	0
 5285 1758 00       		.byte	0
 5286 1759 00       		.byte	0
 5287 175a 3D       		.uleb128 0x3d
 5288 175b B9130000 		.4byte	0x13b9
 5289 175f D6030000 		.4byte	.LBB189
 5290 1763 78020000 		.4byte	.Ldebug_ranges0+0x278
 5291 1767 01       		.byte	0x1
 5292 1768 1B02     		.2byte	0x21b
 5293 176a A5170000 		.4byte	0x17a5
 5294 176e 28       		.uleb128 0x28
 5295 176f EA130000 		.4byte	0x13ea
 5296 1773 771A0000 		.4byte	.LLST91
 5297 1777 39       		.uleb128 0x39
 5298 1778 DE130000 		.4byte	0x13de
 5299 177c 28       		.uleb128 0x28
 5300 177d D2130000 		.4byte	0x13d2
 5301 1781 8C1A0000 		.4byte	.LLST92
ARM GAS  C:\Users\pearlstl\AppData\Local\Temp\ccmYHcOW.s 			page 123


 5302 1785 28       		.uleb128 0x28
 5303 1786 C6130000 		.4byte	0x13c6
 5304 178a 9F1A0000 		.4byte	.LLST93
 5305 178e 3F       		.uleb128 0x3f
 5306 178f E0030000 		.4byte	.LVL297
 5307 1793 F6170000 		.4byte	0x17f6
 5308 1797 30       		.uleb128 0x30
 5309 1798 01       		.uleb128 0x1
 5310 1799 51       		.byte	0x51
 5311 179a 02       		.uleb128 0x2
 5312 179b 77       		.byte	0x77
 5313 179c 00       		.sleb128 0
 5314 179d 30       		.uleb128 0x30
 5315 179e 01       		.uleb128 0x1
 5316 179f 52       		.byte	0x52
 5317 17a0 02       		.uleb128 0x2
 5318 17a1 79       		.byte	0x79
 5319 17a2 00       		.sleb128 0
 5320 17a3 00       		.byte	0
 5321 17a4 00       		.byte	0
 5322 17a5 2F       		.uleb128 0x2f
 5323 17a6 46000000 		.4byte	.LVL206
 5324 17aa FF170000 		.4byte	0x17ff
 5325 17ae C6170000 		.4byte	0x17c6
 5326 17b2 30       		.uleb128 0x30
 5327 17b3 01       		.uleb128 0x1
 5328 17b4 50       		.byte	0x50
 5329 17b5 02       		.uleb128 0x2
 5330 17b6 91       		.byte	0x91
 5331 17b7 50       		.sleb128 -48
 5332 17b8 30       		.uleb128 0x30
 5333 17b9 01       		.uleb128 0x1
 5334 17ba 51       		.byte	0x51
 5335 17bb 02       		.uleb128 0x2
 5336 17bc 74       		.byte	0x74
 5337 17bd 00       		.sleb128 0
 5338 17be 30       		.uleb128 0x30
 5339 17bf 01       		.uleb128 0x1
 5340 17c0 52       		.byte	0x52
 5341 17c1 03       		.uleb128 0x3
 5342 17c2 F3       		.byte	0xf3
 5343 17c3 01       		.uleb128 0x1
 5344 17c4 51       		.byte	0x51
 5345 17c5 00       		.byte	0
 5346 17c6 2E       		.uleb128 0x2e
 5347 17c7 8A000000 		.4byte	.LVL214
 5348 17cb E0170000 		.4byte	0x17e0
 5349 17cf 3F       		.uleb128 0x3f
 5350 17d0 90000000 		.4byte	.LVL216
 5351 17d4 EB170000 		.4byte	0x17eb
 5352 17d8 30       		.uleb128 0x30
 5353 17d9 01       		.uleb128 0x1
 5354 17da 50       		.byte	0x50
 5355 17db 02       		.uleb128 0x2
 5356 17dc 78       		.byte	0x78
 5357 17dd 00       		.sleb128 0
 5358 17de 00       		.byte	0
ARM GAS  C:\Users\pearlstl\AppData\Local\Temp\ccmYHcOW.s 			page 124


 5359 17df 00       		.byte	0
 5360 17e0 4C       		.uleb128 0x4c
 5361 17e1 51000000 		.4byte	.LASF242
 5362 17e5 51000000 		.4byte	.LASF242
 5363 17e9 0F       		.byte	0xf
 5364 17ea 45       		.byte	0x45
 5365 17eb 4C       		.uleb128 0x4c
 5366 17ec 73040000 		.4byte	.LASF243
 5367 17f0 73040000 		.4byte	.LASF243
 5368 17f4 0D       		.byte	0xd
 5369 17f5 FF       		.byte	0xff
 5370 17f6 4D       		.uleb128 0x4d
 5371 17f7 DD090000 		.4byte	.LASF250
 5372 17fb DD090000 		.4byte	.LASF250
 5373 17ff 4C       		.uleb128 0x4c
 5374 1800 6E020000 		.4byte	.LASF244
 5375 1804 6E020000 		.4byte	.LASF244
 5376 1808 02       		.byte	0x2
 5377 1809 89       		.byte	0x89
 5378 180a 4C       		.uleb128 0x4c
 5379 180b F2090000 		.4byte	.LASF245
 5380 180f F2090000 		.4byte	.LASF245
 5381 1813 07       		.byte	0x7
 5382 1814 6C       		.byte	0x6c
 5383 1815 4C       		.uleb128 0x4c
 5384 1816 2F040000 		.4byte	.LASF246
 5385 181a 2F040000 		.4byte	.LASF246
 5386 181e 07       		.byte	0x7
 5387 181f 62       		.byte	0x62
 5388 1820 00       		.byte	0
 5389              		.section	.debug_abbrev,"",%progbits
 5390              	.Ldebug_abbrev0:
 5391 0000 01       		.uleb128 0x1
 5392 0001 11       		.uleb128 0x11
 5393 0002 01       		.byte	0x1
 5394 0003 25       		.uleb128 0x25
 5395 0004 0E       		.uleb128 0xe
 5396 0005 13       		.uleb128 0x13
 5397 0006 0B       		.uleb128 0xb
 5398 0007 03       		.uleb128 0x3
 5399 0008 0E       		.uleb128 0xe
 5400 0009 1B       		.uleb128 0x1b
 5401 000a 0E       		.uleb128 0xe
 5402 000b 55       		.uleb128 0x55
 5403 000c 17       		.uleb128 0x17
 5404 000d 11       		.uleb128 0x11
 5405 000e 01       		.uleb128 0x1
 5406 000f 10       		.uleb128 0x10
 5407 0010 17       		.uleb128 0x17
 5408 0011 00       		.byte	0
 5409 0012 00       		.byte	0
 5410 0013 02       		.uleb128 0x2
 5411 0014 16       		.uleb128 0x16
 5412 0015 00       		.byte	0
 5413 0016 03       		.uleb128 0x3
 5414 0017 0E       		.uleb128 0xe
 5415 0018 3A       		.uleb128 0x3a
ARM GAS  C:\Users\pearlstl\AppData\Local\Temp\ccmYHcOW.s 			page 125


 5416 0019 0B       		.uleb128 0xb
 5417 001a 3B       		.uleb128 0x3b
 5418 001b 0B       		.uleb128 0xb
 5419 001c 49       		.uleb128 0x49
 5420 001d 13       		.uleb128 0x13
 5421 001e 00       		.byte	0
 5422 001f 00       		.byte	0
 5423 0020 03       		.uleb128 0x3
 5424 0021 24       		.uleb128 0x24
 5425 0022 00       		.byte	0
 5426 0023 0B       		.uleb128 0xb
 5427 0024 0B       		.uleb128 0xb
 5428 0025 3E       		.uleb128 0x3e
 5429 0026 0B       		.uleb128 0xb
 5430 0027 03       		.uleb128 0x3
 5431 0028 0E       		.uleb128 0xe
 5432 0029 00       		.byte	0
 5433 002a 00       		.byte	0
 5434 002b 04       		.uleb128 0x4
 5435 002c 24       		.uleb128 0x24
 5436 002d 00       		.byte	0
 5437 002e 0B       		.uleb128 0xb
 5438 002f 0B       		.uleb128 0xb
 5439 0030 3E       		.uleb128 0x3e
 5440 0031 0B       		.uleb128 0xb
 5441 0032 03       		.uleb128 0x3
 5442 0033 08       		.uleb128 0x8
 5443 0034 00       		.byte	0
 5444 0035 00       		.byte	0
 5445 0036 05       		.uleb128 0x5
 5446 0037 0F       		.uleb128 0xf
 5447 0038 00       		.byte	0
 5448 0039 0B       		.uleb128 0xb
 5449 003a 0B       		.uleb128 0xb
 5450 003b 00       		.byte	0
 5451 003c 00       		.byte	0
 5452 003d 06       		.uleb128 0x6
 5453 003e 13       		.uleb128 0x13
 5454 003f 01       		.byte	0x1
 5455 0040 0B       		.uleb128 0xb
 5456 0041 0B       		.uleb128 0xb
 5457 0042 3A       		.uleb128 0x3a
 5458 0043 0B       		.uleb128 0xb
 5459 0044 3B       		.uleb128 0x3b
 5460 0045 0B       		.uleb128 0xb
 5461 0046 01       		.uleb128 0x1
 5462 0047 13       		.uleb128 0x13
 5463 0048 00       		.byte	0
 5464 0049 00       		.byte	0
 5465 004a 07       		.uleb128 0x7
 5466 004b 0D       		.uleb128 0xd
 5467 004c 00       		.byte	0
 5468 004d 03       		.uleb128 0x3
 5469 004e 0E       		.uleb128 0xe
 5470 004f 3A       		.uleb128 0x3a
 5471 0050 0B       		.uleb128 0xb
 5472 0051 3B       		.uleb128 0x3b
ARM GAS  C:\Users\pearlstl\AppData\Local\Temp\ccmYHcOW.s 			page 126


 5473 0052 0B       		.uleb128 0xb
 5474 0053 49       		.uleb128 0x49
 5475 0054 13       		.uleb128 0x13
 5476 0055 38       		.uleb128 0x38
 5477 0056 0B       		.uleb128 0xb
 5478 0057 00       		.byte	0
 5479 0058 00       		.byte	0
 5480 0059 08       		.uleb128 0x8
 5481 005a 0D       		.uleb128 0xd
 5482 005b 00       		.byte	0
 5483 005c 03       		.uleb128 0x3
 5484 005d 08       		.uleb128 0x8
 5485 005e 3A       		.uleb128 0x3a
 5486 005f 0B       		.uleb128 0xb
 5487 0060 3B       		.uleb128 0x3b
 5488 0061 0B       		.uleb128 0xb
 5489 0062 49       		.uleb128 0x49
 5490 0063 13       		.uleb128 0x13
 5491 0064 38       		.uleb128 0x38
 5492 0065 0B       		.uleb128 0xb
 5493 0066 00       		.byte	0
 5494 0067 00       		.byte	0
 5495 0068 09       		.uleb128 0x9
 5496 0069 04       		.uleb128 0x4
 5497 006a 01       		.byte	0x1
 5498 006b 0B       		.uleb128 0xb
 5499 006c 0B       		.uleb128 0xb
 5500 006d 49       		.uleb128 0x49
 5501 006e 13       		.uleb128 0x13
 5502 006f 3A       		.uleb128 0x3a
 5503 0070 0B       		.uleb128 0xb
 5504 0071 3B       		.uleb128 0x3b
 5505 0072 0B       		.uleb128 0xb
 5506 0073 01       		.uleb128 0x1
 5507 0074 13       		.uleb128 0x13
 5508 0075 00       		.byte	0
 5509 0076 00       		.byte	0
 5510 0077 0A       		.uleb128 0xa
 5511 0078 28       		.uleb128 0x28
 5512 0079 00       		.byte	0
 5513 007a 03       		.uleb128 0x3
 5514 007b 0E       		.uleb128 0xe
 5515 007c 1C       		.uleb128 0x1c
 5516 007d 0B       		.uleb128 0xb
 5517 007e 00       		.byte	0
 5518 007f 00       		.byte	0
 5519 0080 0B       		.uleb128 0xb
 5520 0081 13       		.uleb128 0x13
 5521 0082 01       		.byte	0x1
 5522 0083 03       		.uleb128 0x3
 5523 0084 0E       		.uleb128 0xe
 5524 0085 0B       		.uleb128 0xb
 5525 0086 0B       		.uleb128 0xb
 5526 0087 3A       		.uleb128 0x3a
 5527 0088 0B       		.uleb128 0xb
 5528 0089 3B       		.uleb128 0x3b
 5529 008a 0B       		.uleb128 0xb
ARM GAS  C:\Users\pearlstl\AppData\Local\Temp\ccmYHcOW.s 			page 127


 5530 008b 01       		.uleb128 0x1
 5531 008c 13       		.uleb128 0x13
 5532 008d 00       		.byte	0
 5533 008e 00       		.byte	0
 5534 008f 0C       		.uleb128 0xc
 5535 0090 0D       		.uleb128 0xd
 5536 0091 00       		.byte	0
 5537 0092 03       		.uleb128 0x3
 5538 0093 0E       		.uleb128 0xe
 5539 0094 3A       		.uleb128 0x3a
 5540 0095 0B       		.uleb128 0xb
 5541 0096 3B       		.uleb128 0x3b
 5542 0097 0B       		.uleb128 0xb
 5543 0098 49       		.uleb128 0x49
 5544 0099 13       		.uleb128 0x13
 5545 009a 0B       		.uleb128 0xb
 5546 009b 0B       		.uleb128 0xb
 5547 009c 0D       		.uleb128 0xd
 5548 009d 0B       		.uleb128 0xb
 5549 009e 0C       		.uleb128 0xc
 5550 009f 0B       		.uleb128 0xb
 5551 00a0 38       		.uleb128 0x38
 5552 00a1 0B       		.uleb128 0xb
 5553 00a2 00       		.byte	0
 5554 00a3 00       		.byte	0
 5555 00a4 0D       		.uleb128 0xd
 5556 00a5 15       		.uleb128 0x15
 5557 00a6 01       		.byte	0x1
 5558 00a7 27       		.uleb128 0x27
 5559 00a8 19       		.uleb128 0x19
 5560 00a9 49       		.uleb128 0x49
 5561 00aa 13       		.uleb128 0x13
 5562 00ab 01       		.uleb128 0x1
 5563 00ac 13       		.uleb128 0x13
 5564 00ad 00       		.byte	0
 5565 00ae 00       		.byte	0
 5566 00af 0E       		.uleb128 0xe
 5567 00b0 05       		.uleb128 0x5
 5568 00b1 00       		.byte	0
 5569 00b2 49       		.uleb128 0x49
 5570 00b3 13       		.uleb128 0x13
 5571 00b4 00       		.byte	0
 5572 00b5 00       		.byte	0
 5573 00b6 0F       		.uleb128 0xf
 5574 00b7 0F       		.uleb128 0xf
 5575 00b8 00       		.byte	0
 5576 00b9 0B       		.uleb128 0xb
 5577 00ba 0B       		.uleb128 0xb
 5578 00bb 49       		.uleb128 0x49
 5579 00bc 13       		.uleb128 0x13
 5580 00bd 00       		.byte	0
 5581 00be 00       		.byte	0
 5582 00bf 10       		.uleb128 0x10
 5583 00c0 26       		.uleb128 0x26
 5584 00c1 00       		.byte	0
 5585 00c2 49       		.uleb128 0x49
 5586 00c3 13       		.uleb128 0x13
ARM GAS  C:\Users\pearlstl\AppData\Local\Temp\ccmYHcOW.s 			page 128


 5587 00c4 00       		.byte	0
 5588 00c5 00       		.byte	0
 5589 00c6 11       		.uleb128 0x11
 5590 00c7 17       		.uleb128 0x17
 5591 00c8 01       		.byte	0x1
 5592 00c9 0B       		.uleb128 0xb
 5593 00ca 0B       		.uleb128 0xb
 5594 00cb 3A       		.uleb128 0x3a
 5595 00cc 0B       		.uleb128 0xb
 5596 00cd 3B       		.uleb128 0x3b
 5597 00ce 0B       		.uleb128 0xb
 5598 00cf 01       		.uleb128 0x1
 5599 00d0 13       		.uleb128 0x13
 5600 00d1 00       		.byte	0
 5601 00d2 00       		.byte	0
 5602 00d3 12       		.uleb128 0x12
 5603 00d4 0D       		.uleb128 0xd
 5604 00d5 00       		.byte	0
 5605 00d6 03       		.uleb128 0x3
 5606 00d7 08       		.uleb128 0x8
 5607 00d8 3A       		.uleb128 0x3a
 5608 00d9 0B       		.uleb128 0xb
 5609 00da 3B       		.uleb128 0x3b
 5610 00db 0B       		.uleb128 0xb
 5611 00dc 49       		.uleb128 0x49
 5612 00dd 13       		.uleb128 0x13
 5613 00de 00       		.byte	0
 5614 00df 00       		.byte	0
 5615 00e0 13       		.uleb128 0x13
 5616 00e1 0D       		.uleb128 0xd
 5617 00e2 00       		.byte	0
 5618 00e3 03       		.uleb128 0x3
 5619 00e4 0E       		.uleb128 0xe
 5620 00e5 3A       		.uleb128 0x3a
 5621 00e6 0B       		.uleb128 0xb
 5622 00e7 3B       		.uleb128 0x3b
 5623 00e8 0B       		.uleb128 0xb
 5624 00e9 49       		.uleb128 0x49
 5625 00ea 13       		.uleb128 0x13
 5626 00eb 00       		.byte	0
 5627 00ec 00       		.byte	0
 5628 00ed 14       		.uleb128 0x14
 5629 00ee 16       		.uleb128 0x16
 5630 00ef 00       		.byte	0
 5631 00f0 03       		.uleb128 0x3
 5632 00f1 0E       		.uleb128 0xe
 5633 00f2 3A       		.uleb128 0x3a
 5634 00f3 0B       		.uleb128 0xb
 5635 00f4 3B       		.uleb128 0x3b
 5636 00f5 05       		.uleb128 0x5
 5637 00f6 49       		.uleb128 0x49
 5638 00f7 13       		.uleb128 0x13
 5639 00f8 00       		.byte	0
 5640 00f9 00       		.byte	0
 5641 00fa 15       		.uleb128 0x15
 5642 00fb 15       		.uleb128 0x15
 5643 00fc 01       		.byte	0x1
ARM GAS  C:\Users\pearlstl\AppData\Local\Temp\ccmYHcOW.s 			page 129


 5644 00fd 27       		.uleb128 0x27
 5645 00fe 19       		.uleb128 0x19
 5646 00ff 01       		.uleb128 0x1
 5647 0100 13       		.uleb128 0x13
 5648 0101 00       		.byte	0
 5649 0102 00       		.byte	0
 5650 0103 16       		.uleb128 0x16
 5651 0104 35       		.uleb128 0x35
 5652 0105 00       		.byte	0
 5653 0106 49       		.uleb128 0x49
 5654 0107 13       		.uleb128 0x13
 5655 0108 00       		.byte	0
 5656 0109 00       		.byte	0
 5657 010a 17       		.uleb128 0x17
 5658 010b 13       		.uleb128 0x13
 5659 010c 01       		.byte	0x1
 5660 010d 03       		.uleb128 0x3
 5661 010e 0E       		.uleb128 0xe
 5662 010f 0B       		.uleb128 0xb
 5663 0110 05       		.uleb128 0x5
 5664 0111 3A       		.uleb128 0x3a
 5665 0112 0B       		.uleb128 0xb
 5666 0113 3B       		.uleb128 0x3b
 5667 0114 0B       		.uleb128 0xb
 5668 0115 01       		.uleb128 0x1
 5669 0116 13       		.uleb128 0x13
 5670 0117 00       		.byte	0
 5671 0118 00       		.byte	0
 5672 0119 18       		.uleb128 0x18
 5673 011a 0D       		.uleb128 0xd
 5674 011b 00       		.byte	0
 5675 011c 03       		.uleb128 0x3
 5676 011d 0E       		.uleb128 0xe
 5677 011e 3A       		.uleb128 0x3a
 5678 011f 0B       		.uleb128 0xb
 5679 0120 3B       		.uleb128 0x3b
 5680 0121 0B       		.uleb128 0xb
 5681 0122 49       		.uleb128 0x49
 5682 0123 13       		.uleb128 0x13
 5683 0124 38       		.uleb128 0x38
 5684 0125 05       		.uleb128 0x5
 5685 0126 00       		.byte	0
 5686 0127 00       		.byte	0
 5687 0128 19       		.uleb128 0x19
 5688 0129 0D       		.uleb128 0xd
 5689 012a 00       		.byte	0
 5690 012b 03       		.uleb128 0x3
 5691 012c 0E       		.uleb128 0xe
 5692 012d 3A       		.uleb128 0x3a
 5693 012e 0B       		.uleb128 0xb
 5694 012f 3B       		.uleb128 0x3b
 5695 0130 0B       		.uleb128 0xb
 5696 0131 49       		.uleb128 0x49
 5697 0132 13       		.uleb128 0x13
 5698 0133 0B       		.uleb128 0xb
 5699 0134 0B       		.uleb128 0xb
 5700 0135 0D       		.uleb128 0xd
ARM GAS  C:\Users\pearlstl\AppData\Local\Temp\ccmYHcOW.s 			page 130


 5701 0136 0B       		.uleb128 0xb
 5702 0137 0C       		.uleb128 0xc
 5703 0138 0B       		.uleb128 0xb
 5704 0139 38       		.uleb128 0x38
 5705 013a 05       		.uleb128 0x5
 5706 013b 00       		.byte	0
 5707 013c 00       		.byte	0
 5708 013d 1A       		.uleb128 0x1a
 5709 013e 0D       		.uleb128 0xd
 5710 013f 00       		.byte	0
 5711 0140 03       		.uleb128 0x3
 5712 0141 08       		.uleb128 0x8
 5713 0142 3A       		.uleb128 0x3a
 5714 0143 0B       		.uleb128 0xb
 5715 0144 3B       		.uleb128 0x3b
 5716 0145 0B       		.uleb128 0xb
 5717 0146 49       		.uleb128 0x49
 5718 0147 13       		.uleb128 0x13
 5719 0148 0B       		.uleb128 0xb
 5720 0149 0B       		.uleb128 0xb
 5721 014a 0D       		.uleb128 0xd
 5722 014b 0B       		.uleb128 0xb
 5723 014c 0C       		.uleb128 0xc
 5724 014d 0B       		.uleb128 0xb
 5725 014e 38       		.uleb128 0x38
 5726 014f 0B       		.uleb128 0xb
 5727 0150 00       		.byte	0
 5728 0151 00       		.byte	0
 5729 0152 1B       		.uleb128 0x1b
 5730 0153 01       		.uleb128 0x1
 5731 0154 01       		.byte	0x1
 5732 0155 49       		.uleb128 0x49
 5733 0156 13       		.uleb128 0x13
 5734 0157 01       		.uleb128 0x1
 5735 0158 13       		.uleb128 0x13
 5736 0159 00       		.byte	0
 5737 015a 00       		.byte	0
 5738 015b 1C       		.uleb128 0x1c
 5739 015c 21       		.uleb128 0x21
 5740 015d 00       		.byte	0
 5741 015e 49       		.uleb128 0x49
 5742 015f 13       		.uleb128 0x13
 5743 0160 2F       		.uleb128 0x2f
 5744 0161 0B       		.uleb128 0xb
 5745 0162 00       		.byte	0
 5746 0163 00       		.byte	0
 5747 0164 1D       		.uleb128 0x1d
 5748 0165 2E       		.uleb128 0x2e
 5749 0166 01       		.byte	0x1
 5750 0167 03       		.uleb128 0x3
 5751 0168 0E       		.uleb128 0xe
 5752 0169 3A       		.uleb128 0x3a
 5753 016a 0B       		.uleb128 0xb
 5754 016b 3B       		.uleb128 0x3b
 5755 016c 05       		.uleb128 0x5
 5756 016d 27       		.uleb128 0x27
 5757 016e 19       		.uleb128 0x19
ARM GAS  C:\Users\pearlstl\AppData\Local\Temp\ccmYHcOW.s 			page 131


 5758 016f 49       		.uleb128 0x49
 5759 0170 13       		.uleb128 0x13
 5760 0171 20       		.uleb128 0x20
 5761 0172 0B       		.uleb128 0xb
 5762 0173 01       		.uleb128 0x1
 5763 0174 13       		.uleb128 0x13
 5764 0175 00       		.byte	0
 5765 0176 00       		.byte	0
 5766 0177 1E       		.uleb128 0x1e
 5767 0178 05       		.uleb128 0x5
 5768 0179 00       		.byte	0
 5769 017a 03       		.uleb128 0x3
 5770 017b 08       		.uleb128 0x8
 5771 017c 3A       		.uleb128 0x3a
 5772 017d 0B       		.uleb128 0xb
 5773 017e 3B       		.uleb128 0x3b
 5774 017f 05       		.uleb128 0x5
 5775 0180 49       		.uleb128 0x49
 5776 0181 13       		.uleb128 0x13
 5777 0182 00       		.byte	0
 5778 0183 00       		.byte	0
 5779 0184 1F       		.uleb128 0x1f
 5780 0185 34       		.uleb128 0x34
 5781 0186 00       		.byte	0
 5782 0187 03       		.uleb128 0x3
 5783 0188 08       		.uleb128 0x8
 5784 0189 3A       		.uleb128 0x3a
 5785 018a 0B       		.uleb128 0xb
 5786 018b 3B       		.uleb128 0x3b
 5787 018c 05       		.uleb128 0x5
 5788 018d 49       		.uleb128 0x49
 5789 018e 13       		.uleb128 0x13
 5790 018f 00       		.byte	0
 5791 0190 00       		.byte	0
 5792 0191 20       		.uleb128 0x20
 5793 0192 2E       		.uleb128 0x2e
 5794 0193 01       		.byte	0x1
 5795 0194 03       		.uleb128 0x3
 5796 0195 0E       		.uleb128 0xe
 5797 0196 3A       		.uleb128 0x3a
 5798 0197 0B       		.uleb128 0xb
 5799 0198 3B       		.uleb128 0x3b
 5800 0199 0B       		.uleb128 0xb
 5801 019a 27       		.uleb128 0x27
 5802 019b 19       		.uleb128 0x19
 5803 019c 49       		.uleb128 0x49
 5804 019d 13       		.uleb128 0x13
 5805 019e 20       		.uleb128 0x20
 5806 019f 0B       		.uleb128 0xb
 5807 01a0 01       		.uleb128 0x1
 5808 01a1 13       		.uleb128 0x13
 5809 01a2 00       		.byte	0
 5810 01a3 00       		.byte	0
 5811 01a4 21       		.uleb128 0x21
 5812 01a5 05       		.uleb128 0x5
 5813 01a6 00       		.byte	0
 5814 01a7 03       		.uleb128 0x3
ARM GAS  C:\Users\pearlstl\AppData\Local\Temp\ccmYHcOW.s 			page 132


 5815 01a8 0E       		.uleb128 0xe
 5816 01a9 3A       		.uleb128 0x3a
 5817 01aa 0B       		.uleb128 0xb
 5818 01ab 3B       		.uleb128 0x3b
 5819 01ac 0B       		.uleb128 0xb
 5820 01ad 49       		.uleb128 0x49
 5821 01ae 13       		.uleb128 0x13
 5822 01af 00       		.byte	0
 5823 01b0 00       		.byte	0
 5824 01b1 22       		.uleb128 0x22
 5825 01b2 2E       		.uleb128 0x2e
 5826 01b3 01       		.byte	0x1
 5827 01b4 3F       		.uleb128 0x3f
 5828 01b5 19       		.uleb128 0x19
 5829 01b6 03       		.uleb128 0x3
 5830 01b7 0E       		.uleb128 0xe
 5831 01b8 3A       		.uleb128 0x3a
 5832 01b9 0B       		.uleb128 0xb
 5833 01ba 3B       		.uleb128 0x3b
 5834 01bb 0B       		.uleb128 0xb
 5835 01bc 27       		.uleb128 0x27
 5836 01bd 19       		.uleb128 0x19
 5837 01be 11       		.uleb128 0x11
 5838 01bf 01       		.uleb128 0x1
 5839 01c0 12       		.uleb128 0x12
 5840 01c1 06       		.uleb128 0x6
 5841 01c2 40       		.uleb128 0x40
 5842 01c3 18       		.uleb128 0x18
 5843 01c4 9742     		.uleb128 0x2117
 5844 01c6 19       		.uleb128 0x19
 5845 01c7 01       		.uleb128 0x1
 5846 01c8 13       		.uleb128 0x13
 5847 01c9 00       		.byte	0
 5848 01ca 00       		.byte	0
 5849 01cb 23       		.uleb128 0x23
 5850 01cc 05       		.uleb128 0x5
 5851 01cd 00       		.byte	0
 5852 01ce 03       		.uleb128 0x3
 5853 01cf 08       		.uleb128 0x8
 5854 01d0 3A       		.uleb128 0x3a
 5855 01d1 0B       		.uleb128 0xb
 5856 01d2 3B       		.uleb128 0x3b
 5857 01d3 0B       		.uleb128 0xb
 5858 01d4 49       		.uleb128 0x49
 5859 01d5 13       		.uleb128 0x13
 5860 01d6 02       		.uleb128 0x2
 5861 01d7 17       		.uleb128 0x17
 5862 01d8 00       		.byte	0
 5863 01d9 00       		.byte	0
 5864 01da 24       		.uleb128 0x24
 5865 01db 05       		.uleb128 0x5
 5866 01dc 00       		.byte	0
 5867 01dd 03       		.uleb128 0x3
 5868 01de 0E       		.uleb128 0xe
 5869 01df 3A       		.uleb128 0x3a
 5870 01e0 0B       		.uleb128 0xb
 5871 01e1 3B       		.uleb128 0x3b
ARM GAS  C:\Users\pearlstl\AppData\Local\Temp\ccmYHcOW.s 			page 133


 5872 01e2 0B       		.uleb128 0xb
 5873 01e3 49       		.uleb128 0x49
 5874 01e4 13       		.uleb128 0x13
 5875 01e5 02       		.uleb128 0x2
 5876 01e6 17       		.uleb128 0x17
 5877 01e7 00       		.byte	0
 5878 01e8 00       		.byte	0
 5879 01e9 25       		.uleb128 0x25
 5880 01ea 34       		.uleb128 0x34
 5881 01eb 00       		.byte	0
 5882 01ec 03       		.uleb128 0x3
 5883 01ed 0E       		.uleb128 0xe
 5884 01ee 3A       		.uleb128 0x3a
 5885 01ef 0B       		.uleb128 0xb
 5886 01f0 3B       		.uleb128 0x3b
 5887 01f1 0B       		.uleb128 0xb
 5888 01f2 49       		.uleb128 0x49
 5889 01f3 13       		.uleb128 0x13
 5890 01f4 02       		.uleb128 0x2
 5891 01f5 17       		.uleb128 0x17
 5892 01f6 00       		.byte	0
 5893 01f7 00       		.byte	0
 5894 01f8 26       		.uleb128 0x26
 5895 01f9 34       		.uleb128 0x34
 5896 01fa 00       		.byte	0
 5897 01fb 03       		.uleb128 0x3
 5898 01fc 08       		.uleb128 0x8
 5899 01fd 3A       		.uleb128 0x3a
 5900 01fe 0B       		.uleb128 0xb
 5901 01ff 3B       		.uleb128 0x3b
 5902 0200 0B       		.uleb128 0xb
 5903 0201 49       		.uleb128 0x49
 5904 0202 13       		.uleb128 0x13
 5905 0203 02       		.uleb128 0x2
 5906 0204 17       		.uleb128 0x17
 5907 0205 00       		.byte	0
 5908 0206 00       		.byte	0
 5909 0207 27       		.uleb128 0x27
 5910 0208 1D       		.uleb128 0x1d
 5911 0209 01       		.byte	0x1
 5912 020a 31       		.uleb128 0x31
 5913 020b 13       		.uleb128 0x13
 5914 020c 52       		.uleb128 0x52
 5915 020d 01       		.uleb128 0x1
 5916 020e 55       		.uleb128 0x55
 5917 020f 17       		.uleb128 0x17
 5918 0210 58       		.uleb128 0x58
 5919 0211 0B       		.uleb128 0xb
 5920 0212 59       		.uleb128 0x59
 5921 0213 0B       		.uleb128 0xb
 5922 0214 01       		.uleb128 0x1
 5923 0215 13       		.uleb128 0x13
 5924 0216 00       		.byte	0
 5925 0217 00       		.byte	0
 5926 0218 28       		.uleb128 0x28
 5927 0219 05       		.uleb128 0x5
 5928 021a 00       		.byte	0
ARM GAS  C:\Users\pearlstl\AppData\Local\Temp\ccmYHcOW.s 			page 134


 5929 021b 31       		.uleb128 0x31
 5930 021c 13       		.uleb128 0x13
 5931 021d 02       		.uleb128 0x2
 5932 021e 17       		.uleb128 0x17
 5933 021f 00       		.byte	0
 5934 0220 00       		.byte	0
 5935 0221 29       		.uleb128 0x29
 5936 0222 0B       		.uleb128 0xb
 5937 0223 01       		.byte	0x1
 5938 0224 11       		.uleb128 0x11
 5939 0225 01       		.uleb128 0x1
 5940 0226 12       		.uleb128 0x12
 5941 0227 06       		.uleb128 0x6
 5942 0228 01       		.uleb128 0x1
 5943 0229 13       		.uleb128 0x13
 5944 022a 00       		.byte	0
 5945 022b 00       		.byte	0
 5946 022c 2A       		.uleb128 0x2a
 5947 022d 34       		.uleb128 0x34
 5948 022e 00       		.byte	0
 5949 022f 03       		.uleb128 0x3
 5950 0230 0E       		.uleb128 0xe
 5951 0231 3A       		.uleb128 0x3a
 5952 0232 0B       		.uleb128 0xb
 5953 0233 3B       		.uleb128 0x3b
 5954 0234 0B       		.uleb128 0xb
 5955 0235 49       		.uleb128 0x49
 5956 0236 13       		.uleb128 0x13
 5957 0237 1C       		.uleb128 0x1c
 5958 0238 0B       		.uleb128 0xb
 5959 0239 00       		.byte	0
 5960 023a 00       		.byte	0
 5961 023b 2B       		.uleb128 0x2b
 5962 023c 1D       		.uleb128 0x1d
 5963 023d 01       		.byte	0x1
 5964 023e 31       		.uleb128 0x31
 5965 023f 13       		.uleb128 0x13
 5966 0240 52       		.uleb128 0x52
 5967 0241 01       		.uleb128 0x1
 5968 0242 55       		.uleb128 0x55
 5969 0243 17       		.uleb128 0x17
 5970 0244 58       		.uleb128 0x58
 5971 0245 0B       		.uleb128 0xb
 5972 0246 59       		.uleb128 0x59
 5973 0247 0B       		.uleb128 0xb
 5974 0248 00       		.byte	0
 5975 0249 00       		.byte	0
 5976 024a 2C       		.uleb128 0x2c
 5977 024b 0B       		.uleb128 0xb
 5978 024c 01       		.byte	0x1
 5979 024d 55       		.uleb128 0x55
 5980 024e 17       		.uleb128 0x17
 5981 024f 00       		.byte	0
 5982 0250 00       		.byte	0
 5983 0251 2D       		.uleb128 0x2d
 5984 0252 34       		.uleb128 0x34
 5985 0253 00       		.byte	0
ARM GAS  C:\Users\pearlstl\AppData\Local\Temp\ccmYHcOW.s 			page 135


 5986 0254 31       		.uleb128 0x31
 5987 0255 13       		.uleb128 0x13
 5988 0256 00       		.byte	0
 5989 0257 00       		.byte	0
 5990 0258 2E       		.uleb128 0x2e
 5991 0259 898201   		.uleb128 0x4109
 5992 025c 00       		.byte	0
 5993 025d 11       		.uleb128 0x11
 5994 025e 01       		.uleb128 0x1
 5995 025f 31       		.uleb128 0x31
 5996 0260 13       		.uleb128 0x13
 5997 0261 00       		.byte	0
 5998 0262 00       		.byte	0
 5999 0263 2F       		.uleb128 0x2f
 6000 0264 898201   		.uleb128 0x4109
 6001 0267 01       		.byte	0x1
 6002 0268 11       		.uleb128 0x11
 6003 0269 01       		.uleb128 0x1
 6004 026a 31       		.uleb128 0x31
 6005 026b 13       		.uleb128 0x13
 6006 026c 01       		.uleb128 0x1
 6007 026d 13       		.uleb128 0x13
 6008 026e 00       		.byte	0
 6009 026f 00       		.byte	0
 6010 0270 30       		.uleb128 0x30
 6011 0271 8A8201   		.uleb128 0x410a
 6012 0274 00       		.byte	0
 6013 0275 02       		.uleb128 0x2
 6014 0276 18       		.uleb128 0x18
 6015 0277 9142     		.uleb128 0x2111
 6016 0279 18       		.uleb128 0x18
 6017 027a 00       		.byte	0
 6018 027b 00       		.byte	0
 6019 027c 31       		.uleb128 0x31
 6020 027d 898201   		.uleb128 0x4109
 6021 0280 01       		.byte	0x1
 6022 0281 11       		.uleb128 0x11
 6023 0282 01       		.uleb128 0x1
 6024 0283 9342     		.uleb128 0x2113
 6025 0285 18       		.uleb128 0x18
 6026 0286 00       		.byte	0
 6027 0287 00       		.byte	0
 6028 0288 32       		.uleb128 0x32
 6029 0289 2E       		.uleb128 0x2e
 6030 028a 01       		.byte	0x1
 6031 028b 03       		.uleb128 0x3
 6032 028c 0E       		.uleb128 0xe
 6033 028d 3A       		.uleb128 0x3a
 6034 028e 0B       		.uleb128 0xb
 6035 028f 3B       		.uleb128 0x3b
 6036 0290 05       		.uleb128 0x5
 6037 0291 27       		.uleb128 0x27
 6038 0292 19       		.uleb128 0x19
 6039 0293 20       		.uleb128 0x20
 6040 0294 0B       		.uleb128 0xb
 6041 0295 01       		.uleb128 0x1
 6042 0296 13       		.uleb128 0x13
ARM GAS  C:\Users\pearlstl\AppData\Local\Temp\ccmYHcOW.s 			page 136


 6043 0297 00       		.byte	0
 6044 0298 00       		.byte	0
 6045 0299 33       		.uleb128 0x33
 6046 029a 05       		.uleb128 0x5
 6047 029b 00       		.byte	0
 6048 029c 03       		.uleb128 0x3
 6049 029d 0E       		.uleb128 0xe
 6050 029e 3A       		.uleb128 0x3a
 6051 029f 0B       		.uleb128 0xb
 6052 02a0 3B       		.uleb128 0x3b
 6053 02a1 05       		.uleb128 0x5
 6054 02a2 49       		.uleb128 0x49
 6055 02a3 13       		.uleb128 0x13
 6056 02a4 00       		.byte	0
 6057 02a5 00       		.byte	0
 6058 02a6 34       		.uleb128 0x34
 6059 02a7 34       		.uleb128 0x34
 6060 02a8 00       		.byte	0
 6061 02a9 03       		.uleb128 0x3
 6062 02aa 0E       		.uleb128 0xe
 6063 02ab 3A       		.uleb128 0x3a
 6064 02ac 0B       		.uleb128 0xb
 6065 02ad 3B       		.uleb128 0x3b
 6066 02ae 05       		.uleb128 0x5
 6067 02af 49       		.uleb128 0x49
 6068 02b0 13       		.uleb128 0x13
 6069 02b1 00       		.byte	0
 6070 02b2 00       		.byte	0
 6071 02b3 35       		.uleb128 0x35
 6072 02b4 0B       		.uleb128 0xb
 6073 02b5 01       		.byte	0x1
 6074 02b6 01       		.uleb128 0x1
 6075 02b7 13       		.uleb128 0x13
 6076 02b8 00       		.byte	0
 6077 02b9 00       		.byte	0
 6078 02ba 36       		.uleb128 0x36
 6079 02bb 0B       		.uleb128 0xb
 6080 02bc 01       		.byte	0x1
 6081 02bd 00       		.byte	0
 6082 02be 00       		.byte	0
 6083 02bf 37       		.uleb128 0x37
 6084 02c0 34       		.uleb128 0x34
 6085 02c1 00       		.byte	0
 6086 02c2 03       		.uleb128 0x3
 6087 02c3 0E       		.uleb128 0xe
 6088 02c4 3A       		.uleb128 0x3a
 6089 02c5 0B       		.uleb128 0xb
 6090 02c6 3B       		.uleb128 0x3b
 6091 02c7 0B       		.uleb128 0xb
 6092 02c8 49       		.uleb128 0x49
 6093 02c9 13       		.uleb128 0x13
 6094 02ca 02       		.uleb128 0x2
 6095 02cb 18       		.uleb128 0x18
 6096 02cc 00       		.byte	0
 6097 02cd 00       		.byte	0
 6098 02ce 38       		.uleb128 0x38
 6099 02cf 34       		.uleb128 0x34
ARM GAS  C:\Users\pearlstl\AppData\Local\Temp\ccmYHcOW.s 			page 137


 6100 02d0 00       		.byte	0
 6101 02d1 03       		.uleb128 0x3
 6102 02d2 0E       		.uleb128 0xe
 6103 02d3 3A       		.uleb128 0x3a
 6104 02d4 0B       		.uleb128 0xb
 6105 02d5 3B       		.uleb128 0x3b
 6106 02d6 0B       		.uleb128 0xb
 6107 02d7 49       		.uleb128 0x49
 6108 02d8 13       		.uleb128 0x13
 6109 02d9 00       		.byte	0
 6110 02da 00       		.byte	0
 6111 02db 39       		.uleb128 0x39
 6112 02dc 05       		.uleb128 0x5
 6113 02dd 00       		.byte	0
 6114 02de 31       		.uleb128 0x31
 6115 02df 13       		.uleb128 0x13
 6116 02e0 00       		.byte	0
 6117 02e1 00       		.byte	0
 6118 02e2 3A       		.uleb128 0x3a
 6119 02e3 05       		.uleb128 0x5
 6120 02e4 00       		.byte	0
 6121 02e5 31       		.uleb128 0x31
 6122 02e6 13       		.uleb128 0x13
 6123 02e7 02       		.uleb128 0x2
 6124 02e8 18       		.uleb128 0x18
 6125 02e9 00       		.byte	0
 6126 02ea 00       		.byte	0
 6127 02eb 3B       		.uleb128 0x3b
 6128 02ec 34       		.uleb128 0x34
 6129 02ed 00       		.byte	0
 6130 02ee 31       		.uleb128 0x31
 6131 02ef 13       		.uleb128 0x13
 6132 02f0 02       		.uleb128 0x2
 6133 02f1 17       		.uleb128 0x17
 6134 02f2 00       		.byte	0
 6135 02f3 00       		.byte	0
 6136 02f4 3C       		.uleb128 0x3c
 6137 02f5 34       		.uleb128 0x34
 6138 02f6 00       		.byte	0
 6139 02f7 31       		.uleb128 0x31
 6140 02f8 13       		.uleb128 0x13
 6141 02f9 02       		.uleb128 0x2
 6142 02fa 18       		.uleb128 0x18
 6143 02fb 00       		.byte	0
 6144 02fc 00       		.byte	0
 6145 02fd 3D       		.uleb128 0x3d
 6146 02fe 1D       		.uleb128 0x1d
 6147 02ff 01       		.byte	0x1
 6148 0300 31       		.uleb128 0x31
 6149 0301 13       		.uleb128 0x13
 6150 0302 52       		.uleb128 0x52
 6151 0303 01       		.uleb128 0x1
 6152 0304 55       		.uleb128 0x55
 6153 0305 17       		.uleb128 0x17
 6154 0306 58       		.uleb128 0x58
 6155 0307 0B       		.uleb128 0xb
 6156 0308 59       		.uleb128 0x59
ARM GAS  C:\Users\pearlstl\AppData\Local\Temp\ccmYHcOW.s 			page 138


 6157 0309 05       		.uleb128 0x5
 6158 030a 01       		.uleb128 0x1
 6159 030b 13       		.uleb128 0x13
 6160 030c 00       		.byte	0
 6161 030d 00       		.byte	0
 6162 030e 3E       		.uleb128 0x3e
 6163 030f 1D       		.uleb128 0x1d
 6164 0310 01       		.byte	0x1
 6165 0311 31       		.uleb128 0x31
 6166 0312 13       		.uleb128 0x13
 6167 0313 52       		.uleb128 0x52
 6168 0314 01       		.uleb128 0x1
 6169 0315 55       		.uleb128 0x55
 6170 0316 17       		.uleb128 0x17
 6171 0317 58       		.uleb128 0x58
 6172 0318 0B       		.uleb128 0xb
 6173 0319 59       		.uleb128 0x59
 6174 031a 05       		.uleb128 0x5
 6175 031b 00       		.byte	0
 6176 031c 00       		.byte	0
 6177 031d 3F       		.uleb128 0x3f
 6178 031e 898201   		.uleb128 0x4109
 6179 0321 01       		.byte	0x1
 6180 0322 11       		.uleb128 0x11
 6181 0323 01       		.uleb128 0x1
 6182 0324 31       		.uleb128 0x31
 6183 0325 13       		.uleb128 0x13
 6184 0326 00       		.byte	0
 6185 0327 00       		.byte	0
 6186 0328 40       		.uleb128 0x40
 6187 0329 34       		.uleb128 0x34
 6188 032a 00       		.byte	0
 6189 032b 03       		.uleb128 0x3
 6190 032c 08       		.uleb128 0x8
 6191 032d 3A       		.uleb128 0x3a
 6192 032e 0B       		.uleb128 0xb
 6193 032f 3B       		.uleb128 0x3b
 6194 0330 0B       		.uleb128 0xb
 6195 0331 49       		.uleb128 0x49
 6196 0332 13       		.uleb128 0x13
 6197 0333 02       		.uleb128 0x2
 6198 0334 18       		.uleb128 0x18
 6199 0335 00       		.byte	0
 6200 0336 00       		.byte	0
 6201 0337 41       		.uleb128 0x41
 6202 0338 34       		.uleb128 0x34
 6203 0339 00       		.byte	0
 6204 033a 03       		.uleb128 0x3
 6205 033b 0E       		.uleb128 0xe
 6206 033c 3A       		.uleb128 0x3a
 6207 033d 0B       		.uleb128 0xb
 6208 033e 3B       		.uleb128 0x3b
 6209 033f 05       		.uleb128 0x5
 6210 0340 49       		.uleb128 0x49
 6211 0341 13       		.uleb128 0x13
 6212 0342 02       		.uleb128 0x2
 6213 0343 17       		.uleb128 0x17
ARM GAS  C:\Users\pearlstl\AppData\Local\Temp\ccmYHcOW.s 			page 139


 6214 0344 00       		.byte	0
 6215 0345 00       		.byte	0
 6216 0346 42       		.uleb128 0x42
 6217 0347 34       		.uleb128 0x34
 6218 0348 00       		.byte	0
 6219 0349 03       		.uleb128 0x3
 6220 034a 08       		.uleb128 0x8
 6221 034b 3A       		.uleb128 0x3a
 6222 034c 0B       		.uleb128 0xb
 6223 034d 3B       		.uleb128 0x3b
 6224 034e 05       		.uleb128 0x5
 6225 034f 49       		.uleb128 0x49
 6226 0350 13       		.uleb128 0x13
 6227 0351 02       		.uleb128 0x2
 6228 0352 17       		.uleb128 0x17
 6229 0353 00       		.byte	0
 6230 0354 00       		.byte	0
 6231 0355 43       		.uleb128 0x43
 6232 0356 34       		.uleb128 0x34
 6233 0357 00       		.byte	0
 6234 0358 03       		.uleb128 0x3
 6235 0359 0E       		.uleb128 0xe
 6236 035a 3A       		.uleb128 0x3a
 6237 035b 0B       		.uleb128 0xb
 6238 035c 3B       		.uleb128 0x3b
 6239 035d 05       		.uleb128 0x5
 6240 035e 49       		.uleb128 0x49
 6241 035f 13       		.uleb128 0x13
 6242 0360 02       		.uleb128 0x2
 6243 0361 18       		.uleb128 0x18
 6244 0362 00       		.byte	0
 6245 0363 00       		.byte	0
 6246 0364 44       		.uleb128 0x44
 6247 0365 0B       		.uleb128 0xb
 6248 0366 01       		.byte	0x1
 6249 0367 55       		.uleb128 0x55
 6250 0368 17       		.uleb128 0x17
 6251 0369 01       		.uleb128 0x1
 6252 036a 13       		.uleb128 0x13
 6253 036b 00       		.byte	0
 6254 036c 00       		.byte	0
 6255 036d 45       		.uleb128 0x45
 6256 036e 0B       		.uleb128 0xb
 6257 036f 01       		.byte	0x1
 6258 0370 11       		.uleb128 0x11
 6259 0371 01       		.uleb128 0x1
 6260 0372 12       		.uleb128 0x12
 6261 0373 06       		.uleb128 0x6
 6262 0374 00       		.byte	0
 6263 0375 00       		.byte	0
 6264 0376 46       		.uleb128 0x46
 6265 0377 2E       		.uleb128 0x2e
 6266 0378 01       		.byte	0x1
 6267 0379 3F       		.uleb128 0x3f
 6268 037a 19       		.uleb128 0x19
 6269 037b 03       		.uleb128 0x3
 6270 037c 0E       		.uleb128 0xe
ARM GAS  C:\Users\pearlstl\AppData\Local\Temp\ccmYHcOW.s 			page 140


 6271 037d 3A       		.uleb128 0x3a
 6272 037e 0B       		.uleb128 0xb
 6273 037f 3B       		.uleb128 0x3b
 6274 0380 05       		.uleb128 0x5
 6275 0381 27       		.uleb128 0x27
 6276 0382 19       		.uleb128 0x19
 6277 0383 11       		.uleb128 0x11
 6278 0384 01       		.uleb128 0x1
 6279 0385 12       		.uleb128 0x12
 6280 0386 06       		.uleb128 0x6
 6281 0387 40       		.uleb128 0x40
 6282 0388 18       		.uleb128 0x18
 6283 0389 9742     		.uleb128 0x2117
 6284 038b 19       		.uleb128 0x19
 6285 038c 01       		.uleb128 0x1
 6286 038d 13       		.uleb128 0x13
 6287 038e 00       		.byte	0
 6288 038f 00       		.byte	0
 6289 0390 47       		.uleb128 0x47
 6290 0391 05       		.uleb128 0x5
 6291 0392 00       		.byte	0
 6292 0393 03       		.uleb128 0x3
 6293 0394 0E       		.uleb128 0xe
 6294 0395 3A       		.uleb128 0x3a
 6295 0396 0B       		.uleb128 0xb
 6296 0397 3B       		.uleb128 0x3b
 6297 0398 05       		.uleb128 0x5
 6298 0399 49       		.uleb128 0x49
 6299 039a 13       		.uleb128 0x13
 6300 039b 02       		.uleb128 0x2
 6301 039c 17       		.uleb128 0x17
 6302 039d 00       		.byte	0
 6303 039e 00       		.byte	0
 6304 039f 48       		.uleb128 0x48
 6305 03a0 05       		.uleb128 0x5
 6306 03a1 00       		.byte	0
 6307 03a2 03       		.uleb128 0x3
 6308 03a3 08       		.uleb128 0x8
 6309 03a4 3A       		.uleb128 0x3a
 6310 03a5 0B       		.uleb128 0xb
 6311 03a6 3B       		.uleb128 0x3b
 6312 03a7 05       		.uleb128 0x5
 6313 03a8 49       		.uleb128 0x49
 6314 03a9 13       		.uleb128 0x13
 6315 03aa 02       		.uleb128 0x2
 6316 03ab 17       		.uleb128 0x17
 6317 03ac 00       		.byte	0
 6318 03ad 00       		.byte	0
 6319 03ae 49       		.uleb128 0x49
 6320 03af 34       		.uleb128 0x34
 6321 03b0 00       		.byte	0
 6322 03b1 03       		.uleb128 0x3
 6323 03b2 0E       		.uleb128 0xe
 6324 03b3 3A       		.uleb128 0x3a
 6325 03b4 0B       		.uleb128 0xb
 6326 03b5 3B       		.uleb128 0x3b
 6327 03b6 05       		.uleb128 0x5
ARM GAS  C:\Users\pearlstl\AppData\Local\Temp\ccmYHcOW.s 			page 141


 6328 03b7 49       		.uleb128 0x49
 6329 03b8 13       		.uleb128 0x13
 6330 03b9 1C       		.uleb128 0x1c
 6331 03ba 0B       		.uleb128 0xb
 6332 03bb 00       		.byte	0
 6333 03bc 00       		.byte	0
 6334 03bd 4A       		.uleb128 0x4a
 6335 03be 1D       		.uleb128 0x1d
 6336 03bf 01       		.byte	0x1
 6337 03c0 31       		.uleb128 0x31
 6338 03c1 13       		.uleb128 0x13
 6339 03c2 11       		.uleb128 0x11
 6340 03c3 01       		.uleb128 0x1
 6341 03c4 12       		.uleb128 0x12
 6342 03c5 06       		.uleb128 0x6
 6343 03c6 58       		.uleb128 0x58
 6344 03c7 0B       		.uleb128 0xb
 6345 03c8 59       		.uleb128 0x59
 6346 03c9 05       		.uleb128 0x5
 6347 03ca 01       		.uleb128 0x1
 6348 03cb 13       		.uleb128 0x13
 6349 03cc 00       		.byte	0
 6350 03cd 00       		.byte	0
 6351 03ce 4B       		.uleb128 0x4b
 6352 03cf 898201   		.uleb128 0x4109
 6353 03d2 01       		.byte	0x1
 6354 03d3 11       		.uleb128 0x11
 6355 03d4 01       		.uleb128 0x1
 6356 03d5 00       		.byte	0
 6357 03d6 00       		.byte	0
 6358 03d7 4C       		.uleb128 0x4c
 6359 03d8 2E       		.uleb128 0x2e
 6360 03d9 00       		.byte	0
 6361 03da 3F       		.uleb128 0x3f
 6362 03db 19       		.uleb128 0x19
 6363 03dc 3C       		.uleb128 0x3c
 6364 03dd 19       		.uleb128 0x19
 6365 03de 6E       		.uleb128 0x6e
 6366 03df 0E       		.uleb128 0xe
 6367 03e0 03       		.uleb128 0x3
 6368 03e1 0E       		.uleb128 0xe
 6369 03e2 3A       		.uleb128 0x3a
 6370 03e3 0B       		.uleb128 0xb
 6371 03e4 3B       		.uleb128 0x3b
 6372 03e5 0B       		.uleb128 0xb
 6373 03e6 00       		.byte	0
 6374 03e7 00       		.byte	0
 6375 03e8 4D       		.uleb128 0x4d
 6376 03e9 2E       		.uleb128 0x2e
 6377 03ea 00       		.byte	0
 6378 03eb 3F       		.uleb128 0x3f
 6379 03ec 19       		.uleb128 0x19
 6380 03ed 3C       		.uleb128 0x3c
 6381 03ee 19       		.uleb128 0x19
 6382 03ef 6E       		.uleb128 0x6e
 6383 03f0 0E       		.uleb128 0xe
 6384 03f1 03       		.uleb128 0x3
ARM GAS  C:\Users\pearlstl\AppData\Local\Temp\ccmYHcOW.s 			page 142


 6385 03f2 0E       		.uleb128 0xe
 6386 03f3 00       		.byte	0
 6387 03f4 00       		.byte	0
 6388 03f5 00       		.byte	0
 6389              		.section	.debug_loc,"",%progbits
 6390              	.Ldebug_loc0:
 6391              	.LLST0:
 6392 0000 00000000 		.4byte	.LVL0
 6393 0004 3D000000 		.4byte	.LVL3-1
 6394 0008 0100     		.2byte	0x1
 6395 000a 50       		.byte	0x50
 6396 000b 3D000000 		.4byte	.LVL3-1
 6397 000f 5C000000 		.4byte	.LVL6
 6398 0013 0400     		.2byte	0x4
 6399 0015 F3       		.byte	0xf3
 6400 0016 01       		.uleb128 0x1
 6401 0017 50       		.byte	0x50
 6402 0018 9F       		.byte	0x9f
 6403 0019 5C000000 		.4byte	.LVL6
 6404 001d 6B000000 		.4byte	.LVL9-1
 6405 0021 0100     		.2byte	0x1
 6406 0023 53       		.byte	0x53
 6407 0024 72000000 		.4byte	.LVL10
 6408 0028 90000000 		.4byte	.LVL18
 6409 002c 0100     		.2byte	0x1
 6410 002e 53       		.byte	0x53
 6411 002f CE000000 		.4byte	.LVL23
 6412 0033 D4000000 		.4byte	.LFE31
 6413 0037 0100     		.2byte	0x1
 6414 0039 53       		.byte	0x53
 6415 003a 00000000 		.4byte	0
 6416 003e 00000000 		.4byte	0
 6417              	.LLST1:
 6418 0042 00000000 		.4byte	.LVL0
 6419 0046 3D000000 		.4byte	.LVL3-1
 6420 004a 0100     		.2byte	0x1
 6421 004c 51       		.byte	0x51
 6422 004d 3D000000 		.4byte	.LVL3-1
 6423 0051 5E000000 		.4byte	.LVL7
 6424 0055 0400     		.2byte	0x4
 6425 0057 F3       		.byte	0xf3
 6426 0058 01       		.uleb128 0x1
 6427 0059 51       		.byte	0x51
 6428 005a 9F       		.byte	0x9f
 6429 005b 5E000000 		.4byte	.LVL7
 6430 005f 6C000000 		.4byte	.LVL9
 6431 0063 0100     		.2byte	0x1
 6432 0065 55       		.byte	0x55
 6433 0066 72000000 		.4byte	.LVL10
 6434 006a 7E000000 		.4byte	.LVL13
 6435 006e 0100     		.2byte	0x1
 6436 0070 55       		.byte	0x55
 6437 0071 7E000000 		.4byte	.LVL13
 6438 0075 8A000000 		.4byte	.LVL16
 6439 0079 0100     		.2byte	0x1
 6440 007b 51       		.byte	0x51
 6441 007c 8A000000 		.4byte	.LVL16
ARM GAS  C:\Users\pearlstl\AppData\Local\Temp\ccmYHcOW.s 			page 143


 6442 0080 8E000000 		.4byte	.LVL17
 6443 0084 0C00     		.2byte	0xc
 6444 0086 79       		.byte	0x79
 6445 0087 00       		.sleb128 0
 6446 0088 70       		.byte	0x70
 6447 0089 12       		.sleb128 18
 6448 008a 94       		.byte	0x94
 6449 008b 02       		.byte	0x2
 6450 008c 0A       		.byte	0xa
 6451 008d FFFF     		.2byte	0xffff
 6452 008f 1A       		.byte	0x1a
 6453 0090 1C       		.byte	0x1c
 6454 0091 9F       		.byte	0x9f
 6455 0092 CE000000 		.4byte	.LVL23
 6456 0096 D4000000 		.4byte	.LFE31
 6457 009a 0100     		.2byte	0x1
 6458 009c 51       		.byte	0x51
 6459 009d 00000000 		.4byte	0
 6460 00a1 00000000 		.4byte	0
 6461              	.LLST2:
 6462 00a5 00000000 		.4byte	.LVL0
 6463 00a9 30000000 		.4byte	.LVL2
 6464 00ad 0100     		.2byte	0x1
 6465 00af 52       		.byte	0x52
 6466 00b0 30000000 		.4byte	.LVL2
 6467 00b4 D4000000 		.4byte	.LFE31
 6468 00b8 0400     		.2byte	0x4
 6469 00ba F3       		.byte	0xf3
 6470 00bb 01       		.uleb128 0x1
 6471 00bc 52       		.byte	0x52
 6472 00bd 9F       		.byte	0x9f
 6473 00be 00000000 		.4byte	0
 6474 00c2 00000000 		.4byte	0
 6475              	.LLST3:
 6476 00c6 00000000 		.4byte	.LVL0
 6477 00ca 3D000000 		.4byte	.LVL3-1
 6478 00ce 0100     		.2byte	0x1
 6479 00d0 53       		.byte	0x53
 6480 00d1 6C000000 		.4byte	.LVL9
 6481 00d5 72000000 		.4byte	.LVL10
 6482 00d9 0100     		.2byte	0x1
 6483 00db 56       		.byte	0x56
 6484 00dc 80000000 		.4byte	.LVL14
 6485 00e0 A8000000 		.4byte	.LVL19
 6486 00e4 0100     		.2byte	0x1
 6487 00e6 56       		.byte	0x56
 6488 00e7 AC000000 		.4byte	.LVL20
 6489 00eb CE000000 		.4byte	.LVL23
 6490 00ef 0100     		.2byte	0x1
 6491 00f1 5E       		.byte	0x5e
 6492 00f2 CE000000 		.4byte	.LVL23
 6493 00f6 D4000000 		.4byte	.LFE31
 6494 00fa 0100     		.2byte	0x1
 6495 00fc 56       		.byte	0x56
 6496 00fd 00000000 		.4byte	0
 6497 0101 00000000 		.4byte	0
 6498              	.LLST4:
ARM GAS  C:\Users\pearlstl\AppData\Local\Temp\ccmYHcOW.s 			page 144


 6499 0105 00000000 		.4byte	.LVL0
 6500 0109 18000000 		.4byte	.LVL1
 6501 010d 0200     		.2byte	0x2
 6502 010f 91       		.byte	0x91
 6503 0110 00       		.sleb128 0
 6504 0111 18000000 		.4byte	.LVL1
 6505 0115 6C000000 		.4byte	.LVL9
 6506 0119 0100     		.2byte	0x1
 6507 011b 54       		.byte	0x54
 6508 011c 72000000 		.4byte	.LVL10
 6509 0120 B4000000 		.4byte	.LVL21
 6510 0124 0100     		.2byte	0x1
 6511 0126 54       		.byte	0x54
 6512 0127 B4000000 		.4byte	.LVL21
 6513 012b CE000000 		.4byte	.LVL23
 6514 012f 2000     		.2byte	0x20
 6515 0131 08       		.byte	0x8
 6516 0132 FF       		.byte	0xff
 6517 0133 91       		.byte	0x91
 6518 0134 00       		.sleb128 0
 6519 0135 94       		.byte	0x94
 6520 0136 01       		.byte	0x1
 6521 0137 08       		.byte	0x8
 6522 0138 FF       		.byte	0xff
 6523 0139 1A       		.byte	0x1a
 6524 013a 91       		.byte	0x91
 6525 013b 00       		.sleb128 0
 6526 013c 94       		.byte	0x94
 6527 013d 01       		.byte	0x1
 6528 013e 08       		.byte	0x8
 6529 013f FF       		.byte	0xff
 6530 0140 1A       		.byte	0x1a
 6531 0141 40       		.byte	0x40
 6532 0142 4B       		.byte	0x4b
 6533 0143 24       		.byte	0x24
 6534 0144 22       		.byte	0x22
 6535 0145 0C       		.byte	0xc
 6536 0146 FC000080 		.4byte	0x800000fc
 6537 014a 2A       		.byte	0x2a
 6538 014b 28       		.byte	0x28
 6539 014c 0100     		.2byte	0x1
 6540 014e 16       		.byte	0x16
 6541 014f 13       		.byte	0x13
 6542 0150 9F       		.byte	0x9f
 6543 0151 CE000000 		.4byte	.LVL23
 6544 0155 D4000000 		.4byte	.LFE31
 6545 0159 0100     		.2byte	0x1
 6546 015b 54       		.byte	0x54
 6547 015c 00000000 		.4byte	0
 6548 0160 00000000 		.4byte	0
 6549              	.LLST5:
 6550 0164 40000000 		.4byte	.LVL4
 6551 0168 43000000 		.4byte	.LVL5-1
 6552 016c 0100     		.2byte	0x1
 6553 016e 50       		.byte	0x50
 6554 016f 43000000 		.4byte	.LVL5-1
 6555 0173 6C000000 		.4byte	.LVL9
ARM GAS  C:\Users\pearlstl\AppData\Local\Temp\ccmYHcOW.s 			page 145


 6556 0177 0100     		.2byte	0x1
 6557 0179 58       		.byte	0x58
 6558 017a 72000000 		.4byte	.LVL10
 6559 017e 84000000 		.4byte	.LVL15
 6560 0182 0100     		.2byte	0x1
 6561 0184 58       		.byte	0x58
 6562 0185 CE000000 		.4byte	.LVL23
 6563 0189 D4000000 		.4byte	.LFE31
 6564 018d 0100     		.2byte	0x1
 6565 018f 58       		.byte	0x58
 6566 0190 00000000 		.4byte	0
 6567 0194 00000000 		.4byte	0
 6568              	.LLST6:
 6569 0198 44000000 		.4byte	.LVL5
 6570 019c 6A000000 		.4byte	.LVL8
 6571 01a0 0100     		.2byte	0x1
 6572 01a2 50       		.byte	0x50
 6573 01a3 72000000 		.4byte	.LVL10
 6574 01a7 8E000000 		.4byte	.LVL17
 6575 01ab 0100     		.2byte	0x1
 6576 01ad 50       		.byte	0x50
 6577 01ae CE000000 		.4byte	.LVL23
 6578 01b2 D4000000 		.4byte	.LFE31
 6579 01b6 0100     		.2byte	0x1
 6580 01b8 50       		.byte	0x50
 6581 01b9 00000000 		.4byte	0
 6582 01bd 00000000 		.4byte	0
 6583              	.LLST7:
 6584 01c1 5C000000 		.4byte	.LVL6
 6585 01c5 6B000000 		.4byte	.LVL9-1
 6586 01c9 0700     		.2byte	0x7
 6587 01cb 72       		.byte	0x72
 6588 01cc 00       		.sleb128 0
 6589 01cd 40       		.byte	0x40
 6590 01ce 24       		.byte	0x24
 6591 01cf 40       		.byte	0x40
 6592 01d0 26       		.byte	0x26
 6593 01d1 9F       		.byte	0x9f
 6594 01d2 72000000 		.4byte	.LVL10
 6595 01d6 78000000 		.4byte	.LVL12
 6596 01da 0700     		.2byte	0x7
 6597 01dc 72       		.byte	0x72
 6598 01dd 00       		.sleb128 0
 6599 01de 40       		.byte	0x40
 6600 01df 24       		.byte	0x24
 6601 01e0 40       		.byte	0x40
 6602 01e1 26       		.byte	0x26
 6603 01e2 9F       		.byte	0x9f
 6604 01e3 78000000 		.4byte	.LVL12
 6605 01e7 8E000000 		.4byte	.LVL17
 6606 01eb 1800     		.2byte	0x18
 6607 01ed 70       		.byte	0x70
 6608 01ee 14       		.sleb128 20
 6609 01ef 94       		.byte	0x94
 6610 01f0 02       		.byte	0x2
 6611 01f1 0A       		.byte	0xa
 6612 01f2 FFFF     		.2byte	0xffff
ARM GAS  C:\Users\pearlstl\AppData\Local\Temp\ccmYHcOW.s 			page 146


 6613 01f4 1A       		.byte	0x1a
 6614 01f5 70       		.byte	0x70
 6615 01f6 10       		.sleb128 16
 6616 01f7 94       		.byte	0x94
 6617 01f8 02       		.byte	0x2
 6618 01f9 0A       		.byte	0xa
 6619 01fa FFFF     		.2byte	0xffff
 6620 01fc 1A       		.byte	0x1a
 6621 01fd 1C       		.byte	0x1c
 6622 01fe 23       		.byte	0x23
 6623 01ff 01       		.uleb128 0x1
 6624 0200 40       		.byte	0x40
 6625 0201 24       		.byte	0x24
 6626 0202 40       		.byte	0x40
 6627 0203 26       		.byte	0x26
 6628 0204 9F       		.byte	0x9f
 6629 0205 CE000000 		.4byte	.LVL23
 6630 0209 D2000000 		.4byte	.LVL24
 6631 020d 1800     		.2byte	0x18
 6632 020f 70       		.byte	0x70
 6633 0210 14       		.sleb128 20
 6634 0211 94       		.byte	0x94
 6635 0212 02       		.byte	0x2
 6636 0213 0A       		.byte	0xa
 6637 0214 FFFF     		.2byte	0xffff
 6638 0216 1A       		.byte	0x1a
 6639 0217 70       		.byte	0x70
 6640 0218 10       		.sleb128 16
 6641 0219 94       		.byte	0x94
 6642 021a 02       		.byte	0x2
 6643 021b 0A       		.byte	0xa
 6644 021c FFFF     		.2byte	0xffff
 6645 021e 1A       		.byte	0x1a
 6646 021f 1C       		.byte	0x1c
 6647 0220 23       		.byte	0x23
 6648 0221 01       		.uleb128 0x1
 6649 0222 40       		.byte	0x40
 6650 0223 24       		.byte	0x24
 6651 0224 40       		.byte	0x40
 6652 0225 26       		.byte	0x26
 6653 0226 9F       		.byte	0x9f
 6654 0227 00000000 		.4byte	0
 6655 022b 00000000 		.4byte	0
 6656              	.LLST8:
 6657 022f 44000000 		.4byte	.LVL5
 6658 0233 6A000000 		.4byte	.LVL8
 6659 0237 0300     		.2byte	0x3
 6660 0239 70       		.byte	0x70
 6661 023a 10       		.sleb128 16
 6662 023b 9F       		.byte	0x9f
 6663 023c 72000000 		.4byte	.LVL10
 6664 0240 8E000000 		.4byte	.LVL17
 6665 0244 0300     		.2byte	0x3
 6666 0246 70       		.byte	0x70
 6667 0247 10       		.sleb128 16
 6668 0248 9F       		.byte	0x9f
 6669 0249 CE000000 		.4byte	.LVL23
ARM GAS  C:\Users\pearlstl\AppData\Local\Temp\ccmYHcOW.s 			page 147


 6670 024d D4000000 		.4byte	.LFE31
 6671 0251 0300     		.2byte	0x3
 6672 0253 70       		.byte	0x70
 6673 0254 10       		.sleb128 16
 6674 0255 9F       		.byte	0x9f
 6675 0256 00000000 		.4byte	0
 6676 025a 00000000 		.4byte	0
 6677              	.LLST10:
 6678 025e 74000000 		.4byte	.LVL11
 6679 0262 7E000000 		.4byte	.LVL13
 6680 0266 0100     		.2byte	0x1
 6681 0268 57       		.byte	0x57
 6682 0269 7E000000 		.4byte	.LVL13
 6683 026d D4000000 		.4byte	.LFE31
 6684 0271 0100     		.2byte	0x1
 6685 0273 55       		.byte	0x55
 6686 0274 00000000 		.4byte	0
 6687 0278 00000000 		.4byte	0
 6688              	.LLST11:
 6689 027c 80000000 		.4byte	.LVL14
 6690 0280 B4000000 		.4byte	.LVL21
 6691 0284 0100     		.2byte	0x1
 6692 0286 54       		.byte	0x54
 6693 0287 B4000000 		.4byte	.LVL21
 6694 028b BC000000 		.4byte	.LVL22
 6695 028f 2000     		.2byte	0x20
 6696 0291 08       		.byte	0x8
 6697 0292 FF       		.byte	0xff
 6698 0293 91       		.byte	0x91
 6699 0294 00       		.sleb128 0
 6700 0295 94       		.byte	0x94
 6701 0296 01       		.byte	0x1
 6702 0297 08       		.byte	0x8
 6703 0298 FF       		.byte	0xff
 6704 0299 1A       		.byte	0x1a
 6705 029a 91       		.byte	0x91
 6706 029b 00       		.sleb128 0
 6707 029c 94       		.byte	0x94
 6708 029d 01       		.byte	0x1
 6709 029e 08       		.byte	0x8
 6710 029f FF       		.byte	0xff
 6711 02a0 1A       		.byte	0x1a
 6712 02a1 40       		.byte	0x40
 6713 02a2 4B       		.byte	0x4b
 6714 02a3 24       		.byte	0x24
 6715 02a4 22       		.byte	0x22
 6716 02a5 0C       		.byte	0xc
 6717 02a6 FC000080 		.4byte	0x800000fc
 6718 02aa 2A       		.byte	0x2a
 6719 02ab 28       		.byte	0x28
 6720 02ac 0100     		.2byte	0x1
 6721 02ae 16       		.byte	0x16
 6722 02af 13       		.byte	0x13
 6723 02b0 9F       		.byte	0x9f
 6724 02b1 00000000 		.4byte	0
 6725 02b5 00000000 		.4byte	0
 6726              	.LLST12:
ARM GAS  C:\Users\pearlstl\AppData\Local\Temp\ccmYHcOW.s 			page 148


 6727 02b9 00000000 		.4byte	.LVL25
 6728 02bd 14000000 		.4byte	.LVL28
 6729 02c1 0100     		.2byte	0x1
 6730 02c3 50       		.byte	0x50
 6731 02c4 14000000 		.4byte	.LVL28
 6732 02c8 1F000000 		.4byte	.LVL29-1
 6733 02cc 0100     		.2byte	0x1
 6734 02ce 51       		.byte	0x51
 6735 02cf 1F000000 		.4byte	.LVL29-1
 6736 02d3 28000000 		.4byte	.LVL31
 6737 02d7 0400     		.2byte	0x4
 6738 02d9 F3       		.byte	0xf3
 6739 02da 01       		.uleb128 0x1
 6740 02db 50       		.byte	0x50
 6741 02dc 9F       		.byte	0x9f
 6742 02dd 28000000 		.4byte	.LVL31
 6743 02e1 2A000000 		.4byte	.LVL32
 6744 02e5 0100     		.2byte	0x1
 6745 02e7 50       		.byte	0x50
 6746 02e8 2A000000 		.4byte	.LVL32
 6747 02ec 1E020000 		.4byte	.LFE32
 6748 02f0 0400     		.2byte	0x4
 6749 02f2 F3       		.byte	0xf3
 6750 02f3 01       		.uleb128 0x1
 6751 02f4 50       		.byte	0x50
 6752 02f5 9F       		.byte	0x9f
 6753 02f6 00000000 		.4byte	0
 6754 02fa 00000000 		.4byte	0
 6755              	.LLST13:
 6756 02fe 00000000 		.4byte	.LVL25
 6757 0302 12000000 		.4byte	.LVL27
 6758 0306 0100     		.2byte	0x1
 6759 0308 51       		.byte	0x51
 6760 0309 12000000 		.4byte	.LVL27
 6761 030d 1F000000 		.4byte	.LVL29-1
 6762 0311 0100     		.2byte	0x1
 6763 0313 52       		.byte	0x52
 6764 0314 1F000000 		.4byte	.LVL29-1
 6765 0318 28000000 		.4byte	.LVL31
 6766 031c 0400     		.2byte	0x4
 6767 031e F3       		.byte	0xf3
 6768 031f 01       		.uleb128 0x1
 6769 0320 51       		.byte	0x51
 6770 0321 9F       		.byte	0x9f
 6771 0322 28000000 		.4byte	.LVL31
 6772 0326 2A000000 		.4byte	.LVL32
 6773 032a 0100     		.2byte	0x1
 6774 032c 51       		.byte	0x51
 6775 032d 2A000000 		.4byte	.LVL32
 6776 0331 1E020000 		.4byte	.LFE32
 6777 0335 0400     		.2byte	0x4
 6778 0337 F3       		.byte	0xf3
 6779 0338 01       		.uleb128 0x1
 6780 0339 51       		.byte	0x51
 6781 033a 9F       		.byte	0x9f
 6782 033b 00000000 		.4byte	0
 6783 033f 00000000 		.4byte	0
ARM GAS  C:\Users\pearlstl\AppData\Local\Temp\ccmYHcOW.s 			page 149


 6784              	.LLST14:
 6785 0343 00000000 		.4byte	.LVL25
 6786 0347 10000000 		.4byte	.LVL26
 6787 034b 0100     		.2byte	0x1
 6788 034d 52       		.byte	0x52
 6789 034e 22000000 		.4byte	.LVL30
 6790 0352 28000000 		.4byte	.LVL31
 6791 0356 0100     		.2byte	0x1
 6792 0358 55       		.byte	0x55
 6793 0359 28000000 		.4byte	.LVL31
 6794 035d 2A000000 		.4byte	.LVL32
 6795 0361 0100     		.2byte	0x1
 6796 0363 52       		.byte	0x52
 6797 0364 88000000 		.4byte	.LVL40
 6798 0368 AC000000 		.4byte	.LVL47
 6799 036c 0100     		.2byte	0x1
 6800 036e 55       		.byte	0x55
 6801 036f CE000000 		.4byte	.LVL50
 6802 0373 32010000 		.4byte	.LVL60
 6803 0377 0100     		.2byte	0x1
 6804 0379 55       		.byte	0x55
 6805 037a BA010000 		.4byte	.LVL75
 6806 037e CC010000 		.4byte	.LVL78
 6807 0382 0100     		.2byte	0x1
 6808 0384 55       		.byte	0x55
 6809 0385 E4010000 		.4byte	.LVL81
 6810 0389 E8010000 		.4byte	.LVL82
 6811 038d 0100     		.2byte	0x1
 6812 038f 55       		.byte	0x55
 6813 0390 00000000 		.4byte	0
 6814 0394 00000000 		.4byte	0
 6815              	.LLST15:
 6816 0398 00000000 		.4byte	.LVL25
 6817 039c 1F000000 		.4byte	.LVL29-1
 6818 03a0 0100     		.2byte	0x1
 6819 03a2 53       		.byte	0x53
 6820 03a3 28000000 		.4byte	.LVL31
 6821 03a7 2A000000 		.4byte	.LVL32
 6822 03ab 0100     		.2byte	0x1
 6823 03ad 53       		.byte	0x53
 6824 03ae 00000000 		.4byte	0
 6825 03b2 00000000 		.4byte	0
 6826              	.LLST16:
 6827 03b6 20000000 		.4byte	.LVL29
 6828 03ba 22000000 		.4byte	.LVL30
 6829 03be 0100     		.2byte	0x1
 6830 03c0 50       		.byte	0x50
 6831 03c1 2A000000 		.4byte	.LVL32
 6832 03c5 2D000000 		.4byte	.LVL33-1
 6833 03c9 0100     		.2byte	0x1
 6834 03cb 50       		.byte	0x50
 6835 03cc 00000000 		.4byte	0
 6836 03d0 00000000 		.4byte	0
 6837              	.LLST17:
 6838 03d4 2E000000 		.4byte	.LVL33
 6839 03d8 31000000 		.4byte	.LVL34-1
 6840 03dc 0100     		.2byte	0x1
ARM GAS  C:\Users\pearlstl\AppData\Local\Temp\ccmYHcOW.s 			page 150


 6841 03de 50       		.byte	0x50
 6842 03df 00000000 		.4byte	0
 6843 03e3 00000000 		.4byte	0
 6844              	.LLST18:
 6845 03e7 32000000 		.4byte	.LVL34
 6846 03eb 40000000 		.4byte	.LVL35
 6847 03ef 0100     		.2byte	0x1
 6848 03f1 50       		.byte	0x50
 6849 03f2 00000000 		.4byte	0
 6850 03f6 00000000 		.4byte	0
 6851              	.LLST19:
 6852 03fa 4A000000 		.4byte	.LVL36
 6853 03fe 4E000000 		.4byte	.LVL37
 6854 0402 0100     		.2byte	0x1
 6855 0404 50       		.byte	0x50
 6856 0405 4E000000 		.4byte	.LVL37
 6857 0409 88000000 		.4byte	.LVL40
 6858 040d 0200     		.2byte	0x2
 6859 040f 91       		.byte	0x91
 6860 0410 44       		.sleb128 -60
 6861 0411 88000000 		.4byte	.LVL40
 6862 0415 CE000000 		.4byte	.LVL50
 6863 0419 1A00     		.2byte	0x1a
 6864 041b 91       		.byte	0x91
 6865 041c AC7F     		.sleb128 -84
 6866 041e 94       		.byte	0x94
 6867 041f 02       		.byte	0x2
 6868 0420 40       		.byte	0x40
 6869 0421 24       		.byte	0x24
 6870 0422 40       		.byte	0x40
 6871 0423 26       		.byte	0x26
 6872 0424 91       		.byte	0x91
 6873 0425 BC7F     		.sleb128 -68
 6874 0427 94       		.byte	0x94
 6875 0428 02       		.byte	0x2
 6876 0429 40       		.byte	0x40
 6877 042a 24       		.byte	0x24
 6878 042b 40       		.byte	0x40
 6879 042c 26       		.byte	0x26
 6880 042d 1E       		.byte	0x1e
 6881 042e 32       		.byte	0x32
 6882 042f 24       		.byte	0x24
 6883 0430 91       		.byte	0x91
 6884 0431 44       		.sleb128 -60
 6885 0432 06       		.byte	0x6
 6886 0433 22       		.byte	0x22
 6887 0434 9F       		.byte	0x9f
 6888 0435 CE000000 		.4byte	.LVL50
 6889 0439 DE000000 		.4byte	.LVL53
 6890 043d 1900     		.2byte	0x19
 6891 043f 91       		.byte	0x91
 6892 0440 AC7F     		.sleb128 -84
 6893 0442 94       		.byte	0x94
 6894 0443 02       		.byte	0x2
 6895 0444 40       		.byte	0x40
 6896 0445 24       		.byte	0x24
 6897 0446 40       		.byte	0x40
ARM GAS  C:\Users\pearlstl\AppData\Local\Temp\ccmYHcOW.s 			page 151


 6898 0447 26       		.byte	0x26
 6899 0448 91       		.byte	0x91
 6900 0449 BC7F     		.sleb128 -68
 6901 044b 94       		.byte	0x94
 6902 044c 02       		.byte	0x2
 6903 044d 40       		.byte	0x40
 6904 044e 24       		.byte	0x24
 6905 044f 40       		.byte	0x40
 6906 0450 26       		.byte	0x26
 6907 0451 1E       		.byte	0x1e
 6908 0452 32       		.byte	0x32
 6909 0453 24       		.byte	0x24
 6910 0454 78       		.byte	0x78
 6911 0455 00       		.sleb128 0
 6912 0456 22       		.byte	0x22
 6913 0457 9F       		.byte	0x9f
 6914 0458 DE000000 		.4byte	.LVL53
 6915 045c 4E010000 		.4byte	.LVL62
 6916 0460 1A00     		.2byte	0x1a
 6917 0462 91       		.byte	0x91
 6918 0463 AC7F     		.sleb128 -84
 6919 0465 94       		.byte	0x94
 6920 0466 02       		.byte	0x2
 6921 0467 40       		.byte	0x40
 6922 0468 24       		.byte	0x24
 6923 0469 40       		.byte	0x40
 6924 046a 26       		.byte	0x26
 6925 046b 91       		.byte	0x91
 6926 046c BC7F     		.sleb128 -68
 6927 046e 94       		.byte	0x94
 6928 046f 02       		.byte	0x2
 6929 0470 40       		.byte	0x40
 6930 0471 24       		.byte	0x24
 6931 0472 40       		.byte	0x40
 6932 0473 26       		.byte	0x26
 6933 0474 1E       		.byte	0x1e
 6934 0475 32       		.byte	0x32
 6935 0476 24       		.byte	0x24
 6936 0477 91       		.byte	0x91
 6937 0478 44       		.sleb128 -60
 6938 0479 06       		.byte	0x6
 6939 047a 22       		.byte	0x22
 6940 047b 9F       		.byte	0x9f
 6941 047c BA010000 		.4byte	.LVL75
 6942 0480 1E020000 		.4byte	.LFE32
 6943 0484 1A00     		.2byte	0x1a
 6944 0486 91       		.byte	0x91
 6945 0487 AC7F     		.sleb128 -84
 6946 0489 94       		.byte	0x94
 6947 048a 02       		.byte	0x2
 6948 048b 40       		.byte	0x40
 6949 048c 24       		.byte	0x24
 6950 048d 40       		.byte	0x40
 6951 048e 26       		.byte	0x26
 6952 048f 91       		.byte	0x91
 6953 0490 BC7F     		.sleb128 -68
 6954 0492 94       		.byte	0x94
ARM GAS  C:\Users\pearlstl\AppData\Local\Temp\ccmYHcOW.s 			page 152


 6955 0493 02       		.byte	0x2
 6956 0494 40       		.byte	0x40
 6957 0495 24       		.byte	0x24
 6958 0496 40       		.byte	0x40
 6959 0497 26       		.byte	0x26
 6960 0498 1E       		.byte	0x1e
 6961 0499 32       		.byte	0x32
 6962 049a 24       		.byte	0x24
 6963 049b 91       		.byte	0x91
 6964 049c 44       		.sleb128 -60
 6965 049d 06       		.byte	0x6
 6966 049e 22       		.byte	0x22
 6967 049f 9F       		.byte	0x9f
 6968 04a0 00000000 		.4byte	0
 6969 04a4 00000000 		.4byte	0
 6970              	.LLST20:
 6971 04a8 6E000000 		.4byte	.LVL38
 6972 04ac 4E010000 		.4byte	.LVL62
 6973 04b0 0A00     		.2byte	0xa
 6974 04b2 91       		.byte	0x91
 6975 04b3 AC7F     		.sleb128 -84
 6976 04b5 94       		.byte	0x94
 6977 04b6 02       		.byte	0x2
 6978 04b7 40       		.byte	0x40
 6979 04b8 24       		.byte	0x24
 6980 04b9 40       		.byte	0x40
 6981 04ba 26       		.byte	0x26
 6982 04bb 9F       		.byte	0x9f
 6983 04bc BA010000 		.4byte	.LVL75
 6984 04c0 1E020000 		.4byte	.LFE32
 6985 04c4 0A00     		.2byte	0xa
 6986 04c6 91       		.byte	0x91
 6987 04c7 AC7F     		.sleb128 -84
 6988 04c9 94       		.byte	0x94
 6989 04ca 02       		.byte	0x2
 6990 04cb 40       		.byte	0x40
 6991 04cc 24       		.byte	0x24
 6992 04cd 40       		.byte	0x40
 6993 04ce 26       		.byte	0x26
 6994 04cf 9F       		.byte	0x9f
 6995 04d0 00000000 		.4byte	0
 6996 04d4 00000000 		.4byte	0
 6997              	.LLST21:
 6998 04d8 88000000 		.4byte	.LVL40
 6999 04dc 8A000000 		.4byte	.LVL41
 7000 04e0 0700     		.2byte	0x7
 7001 04e2 91       		.byte	0x91
 7002 04e3 B47F     		.sleb128 -76
 7003 04e5 93       		.byte	0x93
 7004 04e6 01       		.uleb128 0x1
 7005 04e7 93       		.byte	0x93
 7006 04e8 03       		.uleb128 0x3
 7007 04e9 8A000000 		.4byte	.LVL41
 7008 04ed 8E000000 		.4byte	.LVL42
 7009 04f1 1200     		.2byte	0x12
 7010 04f3 91       		.byte	0x91
 7011 04f4 B47F     		.sleb128 -76
ARM GAS  C:\Users\pearlstl\AppData\Local\Temp\ccmYHcOW.s 			page 153


 7012 04f6 93       		.byte	0x93
 7013 04f7 01       		.uleb128 0x1
 7014 04f8 75       		.byte	0x75
 7015 04f9 00       		.sleb128 0
 7016 04fa 09       		.byte	0x9
 7017 04fb F4       		.byte	0xf4
 7018 04fc 24       		.byte	0x24
 7019 04fd 09       		.byte	0x9
 7020 04fe FC       		.byte	0xfc
 7021 04ff 25       		.byte	0x25
 7022 0500 9F       		.byte	0x9f
 7023 0501 93       		.byte	0x93
 7024 0502 01       		.uleb128 0x1
 7025 0503 93       		.byte	0x93
 7026 0504 02       		.uleb128 0x2
 7027 0505 8E000000 		.4byte	.LVL42
 7028 0509 9C000000 		.4byte	.LVL44
 7029 050d 1D00     		.2byte	0x1d
 7030 050f 91       		.byte	0x91
 7031 0510 B47F     		.sleb128 -76
 7032 0512 93       		.byte	0x93
 7033 0513 01       		.uleb128 0x1
 7034 0514 75       		.byte	0x75
 7035 0515 00       		.sleb128 0
 7036 0516 09       		.byte	0x9
 7037 0517 F4       		.byte	0xf4
 7038 0518 24       		.byte	0x24
 7039 0519 09       		.byte	0x9
 7040 051a FC       		.byte	0xfc
 7041 051b 25       		.byte	0x25
 7042 051c 9F       		.byte	0x9f
 7043 051d 93       		.byte	0x93
 7044 051e 01       		.uleb128 0x1
 7045 051f 75       		.byte	0x75
 7046 0520 00       		.sleb128 0
 7047 0521 09       		.byte	0x9
 7048 0522 EC       		.byte	0xec
 7049 0523 24       		.byte	0x24
 7050 0524 09       		.byte	0x9
 7051 0525 FC       		.byte	0xfc
 7052 0526 25       		.byte	0x25
 7053 0527 9F       		.byte	0x9f
 7054 0528 93       		.byte	0x93
 7055 0529 01       		.uleb128 0x1
 7056 052a 93       		.byte	0x93
 7057 052b 01       		.uleb128 0x1
 7058 052c 9C000000 		.4byte	.LVL44
 7059 0530 A6000000 		.4byte	.LVL46
 7060 0534 0700     		.2byte	0x7
 7061 0536 91       		.byte	0x91
 7062 0537 B47F     		.sleb128 -76
 7063 0539 93       		.byte	0x93
 7064 053a 01       		.uleb128 0x1
 7065 053b 93       		.byte	0x93
 7066 053c 03       		.uleb128 0x3
 7067 053d A6000000 		.4byte	.LVL46
 7068 0541 AC000000 		.4byte	.LVL47
ARM GAS  C:\Users\pearlstl\AppData\Local\Temp\ccmYHcOW.s 			page 154


 7069 0545 0F00     		.2byte	0xf
 7070 0547 91       		.byte	0x91
 7071 0548 B47F     		.sleb128 -76
 7072 054a 93       		.byte	0x93
 7073 054b 01       		.uleb128 0x1
 7074 054c 91       		.byte	0x91
 7075 054d B07F     		.sleb128 -80
 7076 054f 93       		.byte	0x93
 7077 0550 01       		.uleb128 0x1
 7078 0551 5A       		.byte	0x5a
 7079 0552 93       		.byte	0x93
 7080 0553 01       		.uleb128 0x1
 7081 0554 93       		.byte	0x93
 7082 0555 01       		.uleb128 0x1
 7083 0556 AC000000 		.4byte	.LVL47
 7084 055a CE000000 		.4byte	.LVL50
 7085 055e 0100     		.2byte	0x1
 7086 0560 55       		.byte	0x55
 7087 0561 CE000000 		.4byte	.LVL50
 7088 0565 DE000000 		.4byte	.LVL53
 7089 0569 0700     		.2byte	0x7
 7090 056b 91       		.byte	0x91
 7091 056c B47F     		.sleb128 -76
 7092 056e 93       		.byte	0x93
 7093 056f 01       		.uleb128 0x1
 7094 0570 93       		.byte	0x93
 7095 0571 03       		.uleb128 0x3
 7096 0572 DE000000 		.4byte	.LVL53
 7097 0576 32010000 		.4byte	.LVL60
 7098 057a 1D00     		.2byte	0x1d
 7099 057c 91       		.byte	0x91
 7100 057d B47F     		.sleb128 -76
 7101 057f 93       		.byte	0x93
 7102 0580 01       		.uleb128 0x1
 7103 0581 75       		.byte	0x75
 7104 0582 00       		.sleb128 0
 7105 0583 09       		.byte	0x9
 7106 0584 F4       		.byte	0xf4
 7107 0585 24       		.byte	0x24
 7108 0586 09       		.byte	0x9
 7109 0587 FC       		.byte	0xfc
 7110 0588 25       		.byte	0x25
 7111 0589 9F       		.byte	0x9f
 7112 058a 93       		.byte	0x93
 7113 058b 01       		.uleb128 0x1
 7114 058c 75       		.byte	0x75
 7115 058d 00       		.sleb128 0
 7116 058e 09       		.byte	0x9
 7117 058f EC       		.byte	0xec
 7118 0590 24       		.byte	0x24
 7119 0591 09       		.byte	0x9
 7120 0592 FC       		.byte	0xfc
 7121 0593 25       		.byte	0x25
 7122 0594 9F       		.byte	0x9f
 7123 0595 93       		.byte	0x93
 7124 0596 01       		.uleb128 0x1
 7125 0597 93       		.byte	0x93
ARM GAS  C:\Users\pearlstl\AppData\Local\Temp\ccmYHcOW.s 			page 155


 7126 0598 01       		.uleb128 0x1
 7127 0599 BA010000 		.4byte	.LVL75
 7128 059d C8010000 		.4byte	.LVL77
 7129 05a1 1D00     		.2byte	0x1d
 7130 05a3 91       		.byte	0x91
 7131 05a4 B47F     		.sleb128 -76
 7132 05a6 93       		.byte	0x93
 7133 05a7 01       		.uleb128 0x1
 7134 05a8 75       		.byte	0x75
 7135 05a9 00       		.sleb128 0
 7136 05aa 09       		.byte	0x9
 7137 05ab F4       		.byte	0xf4
 7138 05ac 24       		.byte	0x24
 7139 05ad 09       		.byte	0x9
 7140 05ae FC       		.byte	0xfc
 7141 05af 25       		.byte	0x25
 7142 05b0 9F       		.byte	0x9f
 7143 05b1 93       		.byte	0x93
 7144 05b2 01       		.uleb128 0x1
 7145 05b3 75       		.byte	0x75
 7146 05b4 00       		.sleb128 0
 7147 05b5 09       		.byte	0x9
 7148 05b6 EC       		.byte	0xec
 7149 05b7 24       		.byte	0x24
 7150 05b8 09       		.byte	0x9
 7151 05b9 FC       		.byte	0xfc
 7152 05ba 25       		.byte	0x25
 7153 05bb 9F       		.byte	0x9f
 7154 05bc 93       		.byte	0x93
 7155 05bd 01       		.uleb128 0x1
 7156 05be 93       		.byte	0x93
 7157 05bf 01       		.uleb128 0x1
 7158 05c0 C8010000 		.4byte	.LVL77
 7159 05c4 E4010000 		.4byte	.LVL81
 7160 05c8 0B00     		.2byte	0xb
 7161 05ca 57       		.byte	0x57
 7162 05cb 93       		.byte	0x93
 7163 05cc 01       		.uleb128 0x1
 7164 05cd 50       		.byte	0x50
 7165 05ce 93       		.byte	0x93
 7166 05cf 01       		.uleb128 0x1
 7167 05d0 5A       		.byte	0x5a
 7168 05d1 93       		.byte	0x93
 7169 05d2 01       		.uleb128 0x1
 7170 05d3 93       		.byte	0x93
 7171 05d4 01       		.uleb128 0x1
 7172 05d5 00000000 		.4byte	0
 7173 05d9 00000000 		.4byte	0
 7174              	.LLST22:
 7175 05dd 88000000 		.4byte	.LVL40
 7176 05e1 4E010000 		.4byte	.LVL62
 7177 05e5 0300     		.2byte	0x3
 7178 05e7 91       		.byte	0x91
 7179 05e8 AC7F     		.sleb128 -84
 7180 05ea BA010000 		.4byte	.LVL75
 7181 05ee 1E020000 		.4byte	.LFE32
 7182 05f2 0300     		.2byte	0x3
ARM GAS  C:\Users\pearlstl\AppData\Local\Temp\ccmYHcOW.s 			page 156


 7183 05f4 91       		.byte	0x91
 7184 05f5 AC7F     		.sleb128 -84
 7185 05f7 00000000 		.4byte	0
 7186 05fb 00000000 		.4byte	0
 7187              	.LLST23:
 7188 05ff 88000000 		.4byte	.LVL40
 7189 0603 CE000000 		.4byte	.LVL50
 7190 0607 0200     		.2byte	0x2
 7191 0609 91       		.byte	0x91
 7192 060a 44       		.sleb128 -60
 7193 060b CE000000 		.4byte	.LVL50
 7194 060f DE000000 		.4byte	.LVL53
 7195 0613 0100     		.2byte	0x1
 7196 0615 58       		.byte	0x58
 7197 0616 DE000000 		.4byte	.LVL53
 7198 061a F0000000 		.4byte	.LVL54
 7199 061e 0200     		.2byte	0x2
 7200 0620 91       		.byte	0x91
 7201 0621 44       		.sleb128 -60
 7202 0622 F0000000 		.4byte	.LVL54
 7203 0626 AE010000 		.4byte	.LVL73
 7204 062a 0100     		.2byte	0x1
 7205 062c 56       		.byte	0x56
 7206 062d B2010000 		.4byte	.LVL74
 7207 0631 00020000 		.4byte	.LVL83
 7208 0635 0100     		.2byte	0x1
 7209 0637 56       		.byte	0x56
 7210 0638 00020000 		.4byte	.LVL83
 7211 063c 08020000 		.4byte	.LVL84
 7212 0640 0600     		.2byte	0x6
 7213 0642 76       		.byte	0x76
 7214 0643 00       		.sleb128 0
 7215 0644 77       		.byte	0x77
 7216 0645 00       		.sleb128 0
 7217 0646 22       		.byte	0x22
 7218 0647 9F       		.byte	0x9f
 7219 0648 08020000 		.4byte	.LVL84
 7220 064c 16020000 		.4byte	.LVL86
 7221 0650 0800     		.2byte	0x8
 7222 0652 76       		.byte	0x76
 7223 0653 00       		.sleb128 0
 7224 0654 79       		.byte	0x79
 7225 0655 00       		.sleb128 0
 7226 0656 32       		.byte	0x32
 7227 0657 24       		.byte	0x24
 7228 0658 1C       		.byte	0x1c
 7229 0659 9F       		.byte	0x9f
 7230 065a 16020000 		.4byte	.LVL86
 7231 065e 1A020000 		.4byte	.LVL87
 7232 0662 0B00     		.2byte	0xb
 7233 0664 76       		.byte	0x76
 7234 0665 00       		.sleb128 0
 7235 0666 79       		.byte	0x79
 7236 0667 00       		.sleb128 0
 7237 0668 32       		.byte	0x32
 7238 0669 24       		.byte	0x24
 7239 066a 1C       		.byte	0x1c
ARM GAS  C:\Users\pearlstl\AppData\Local\Temp\ccmYHcOW.s 			page 157


 7240 066b 77       		.byte	0x77
 7241 066c 00       		.sleb128 0
 7242 066d 22       		.byte	0x22
 7243 066e 9F       		.byte	0x9f
 7244 066f 00000000 		.4byte	0
 7245 0673 00000000 		.4byte	0
 7246              	.LLST24:
 7247 0677 9C000000 		.4byte	.LVL44
 7248 067b A2000000 		.4byte	.LVL45
 7249 067f 0300     		.2byte	0x3
 7250 0681 91       		.byte	0x91
 7251 0682 BC7F     		.sleb128 -68
 7252 0684 A2000000 		.4byte	.LVL45
 7253 0688 BE000000 		.4byte	.LVL48
 7254 068c 0100     		.2byte	0x1
 7255 068e 54       		.byte	0x54
 7256 068f CA000000 		.4byte	.LVL49
 7257 0693 CE000000 		.4byte	.LVL50
 7258 0697 0100     		.2byte	0x1
 7259 0699 54       		.byte	0x54
 7260 069a 32010000 		.4byte	.LVL60
 7261 069e B2010000 		.4byte	.LVL74
 7262 06a2 0300     		.2byte	0x3
 7263 06a4 91       		.byte	0x91
 7264 06a5 BC7F     		.sleb128 -68
 7265 06a7 B2010000 		.4byte	.LVL74
 7266 06ab BA010000 		.4byte	.LVL75
 7267 06af 0100     		.2byte	0x1
 7268 06b1 52       		.byte	0x52
 7269 06b2 00020000 		.4byte	.LVL83
 7270 06b6 0A020000 		.4byte	.LVL85
 7271 06ba 0100     		.2byte	0x1
 7272 06bc 54       		.byte	0x54
 7273 06bd 16020000 		.4byte	.LVL86
 7274 06c1 1E020000 		.4byte	.LFE32
 7275 06c5 0100     		.2byte	0x1
 7276 06c7 54       		.byte	0x54
 7277 06c8 00000000 		.4byte	0
 7278 06cc 00000000 		.4byte	0
 7279              	.LLST25:
 7280 06d0 90000000 		.4byte	.LVL43
 7281 06d4 D2000000 		.4byte	.LVL51
 7282 06d8 0100     		.2byte	0x1
 7283 06da 59       		.byte	0x59
 7284 06db D8000000 		.4byte	.LVL52
 7285 06df DE000000 		.4byte	.LVL53
 7286 06e3 0100     		.2byte	0x1
 7287 06e5 59       		.byte	0x59
 7288 06e6 4E010000 		.4byte	.LVL62
 7289 06ea 58010000 		.4byte	.LVL63
 7290 06ee 0300     		.2byte	0x3
 7291 06f0 91       		.byte	0x91
 7292 06f1 B07F     		.sleb128 -80
 7293 06f3 58010000 		.4byte	.LVL63
 7294 06f7 6C010000 		.4byte	.LVL64
 7295 06fb 0100     		.2byte	0x1
 7296 06fd 52       		.byte	0x52
ARM GAS  C:\Users\pearlstl\AppData\Local\Temp\ccmYHcOW.s 			page 158


 7297 06fe 94010000 		.4byte	.LVL71
 7298 0702 A6010000 		.4byte	.LVL72
 7299 0706 0100     		.2byte	0x1
 7300 0708 52       		.byte	0x52
 7301 0709 BA010000 		.4byte	.LVL75
 7302 070d C8010000 		.4byte	.LVL77
 7303 0711 0100     		.2byte	0x1
 7304 0713 59       		.byte	0x59
 7305 0714 C8010000 		.4byte	.LVL77
 7306 0718 E2010000 		.4byte	.LVL80
 7307 071c 0100     		.2byte	0x1
 7308 071e 53       		.byte	0x53
 7309 071f E2010000 		.4byte	.LVL80
 7310 0723 E4010000 		.4byte	.LVL81
 7311 0727 0100     		.2byte	0x1
 7312 0729 52       		.byte	0x52
 7313 072a 00000000 		.4byte	0
 7314 072e 00000000 		.4byte	0
 7315              	.LLST26:
 7316 0732 8E000000 		.4byte	.LVL42
 7317 0736 9C000000 		.4byte	.LVL44
 7318 073a 0100     		.2byte	0x1
 7319 073c 50       		.byte	0x50
 7320 073d 9C000000 		.4byte	.LVL44
 7321 0741 DE000000 		.4byte	.LVL53
 7322 0745 0100     		.2byte	0x1
 7323 0747 56       		.byte	0x56
 7324 0748 DE000000 		.4byte	.LVL53
 7325 074c 0E010000 		.4byte	.LVL56
 7326 0750 0100     		.2byte	0x1
 7327 0752 50       		.byte	0x50
 7328 0753 BA010000 		.4byte	.LVL75
 7329 0757 C2010000 		.4byte	.LVL76
 7330 075b 0100     		.2byte	0x1
 7331 075d 50       		.byte	0x50
 7332 075e 00000000 		.4byte	0
 7333 0762 00000000 		.4byte	0
 7334              	.LLST27:
 7335 0766 F2000000 		.4byte	.LVL55
 7336 076a BA010000 		.4byte	.LVL75
 7337 076e 0200     		.2byte	0x2
 7338 0770 30       		.byte	0x30
 7339 0771 9F       		.byte	0x9f
 7340 0772 00000000 		.4byte	0
 7341 0776 00000000 		.4byte	0
 7342              	.LLST28:
 7343 077a 2A010000 		.4byte	.LVL58
 7344 077e 2E010000 		.4byte	.LVL59
 7345 0782 0700     		.2byte	0x7
 7346 0784 93       		.byte	0x93
 7347 0785 02       		.uleb128 0x2
 7348 0786 5E       		.byte	0x5e
 7349 0787 93       		.byte	0x93
 7350 0788 01       		.uleb128 0x1
 7351 0789 93       		.byte	0x93
 7352 078a 01       		.uleb128 0x1
 7353 078b 2E010000 		.4byte	.LVL59
ARM GAS  C:\Users\pearlstl\AppData\Local\Temp\ccmYHcOW.s 			page 159


 7354 078f 32010000 		.4byte	.LVL60
 7355 0793 0A00     		.2byte	0xa
 7356 0795 93       		.byte	0x93
 7357 0796 01       		.uleb128 0x1
 7358 0797 57       		.byte	0x57
 7359 0798 93       		.byte	0x93
 7360 0799 01       		.uleb128 0x1
 7361 079a 5E       		.byte	0x5e
 7362 079b 93       		.byte	0x93
 7363 079c 01       		.uleb128 0x1
 7364 079d 93       		.byte	0x93
 7365 079e 01       		.uleb128 0x1
 7366 079f 32010000 		.4byte	.LVL60
 7367 07a3 76010000 		.4byte	.LVL66
 7368 07a7 0B00     		.2byte	0xb
 7369 07a9 55       		.byte	0x55
 7370 07aa 93       		.byte	0x93
 7371 07ab 01       		.uleb128 0x1
 7372 07ac 57       		.byte	0x57
 7373 07ad 93       		.byte	0x93
 7374 07ae 01       		.uleb128 0x1
 7375 07af 5E       		.byte	0x5e
 7376 07b0 93       		.byte	0x93
 7377 07b1 01       		.uleb128 0x1
 7378 07b2 93       		.byte	0x93
 7379 07b3 01       		.uleb128 0x1
 7380 07b4 76010000 		.4byte	.LVL66
 7381 07b8 7A010000 		.4byte	.LVL67
 7382 07bc 0800     		.2byte	0x8
 7383 07be 55       		.byte	0x55
 7384 07bf 93       		.byte	0x93
 7385 07c0 01       		.uleb128 0x1
 7386 07c1 57       		.byte	0x57
 7387 07c2 93       		.byte	0x93
 7388 07c3 01       		.uleb128 0x1
 7389 07c4 93       		.byte	0x93
 7390 07c5 02       		.uleb128 0x2
 7391 07c6 7A010000 		.4byte	.LVL67
 7392 07ca 7C010000 		.4byte	.LVL68
 7393 07ce 0500     		.2byte	0x5
 7394 07d0 55       		.byte	0x55
 7395 07d1 93       		.byte	0x93
 7396 07d2 01       		.uleb128 0x1
 7397 07d3 93       		.byte	0x93
 7398 07d4 03       		.uleb128 0x3
 7399 07d5 94010000 		.4byte	.LVL71
 7400 07d9 BA010000 		.4byte	.LVL75
 7401 07dd 0B00     		.2byte	0xb
 7402 07df 55       		.byte	0x55
 7403 07e0 93       		.byte	0x93
 7404 07e1 01       		.uleb128 0x1
 7405 07e2 57       		.byte	0x57
 7406 07e3 93       		.byte	0x93
 7407 07e4 01       		.uleb128 0x1
 7408 07e5 5E       		.byte	0x5e
 7409 07e6 93       		.byte	0x93
 7410 07e7 01       		.uleb128 0x1
ARM GAS  C:\Users\pearlstl\AppData\Local\Temp\ccmYHcOW.s 			page 160


 7411 07e8 93       		.byte	0x93
 7412 07e9 01       		.uleb128 0x1
 7413 07ea 00000000 		.4byte	0
 7414 07ee 00000000 		.4byte	0
 7415              	.LLST29:
 7416 07f2 00000000 		.4byte	.LVL88
 7417 07f6 0E000000 		.4byte	.LVL89
 7418 07fa 0100     		.2byte	0x1
 7419 07fc 50       		.byte	0x50
 7420 07fd 0E000000 		.4byte	.LVL89
 7421 0801 53000000 		.4byte	.LVL94-1
 7422 0805 0100     		.2byte	0x1
 7423 0807 5E       		.byte	0x5e
 7424 0808 53000000 		.4byte	.LVL94-1
 7425 080c 76000000 		.4byte	.LVL95
 7426 0810 0100     		.2byte	0x1
 7427 0812 57       		.byte	0x57
 7428 0813 76000000 		.4byte	.LVL95
 7429 0817 14050000 		.4byte	.LFE33
 7430 081b 0400     		.2byte	0x4
 7431 081d F3       		.byte	0xf3
 7432 081e 01       		.uleb128 0x1
 7433 081f 50       		.byte	0x50
 7434 0820 9F       		.byte	0x9f
 7435 0821 00000000 		.4byte	0
 7436 0825 00000000 		.4byte	0
 7437              	.LLST30:
 7438 0829 00000000 		.4byte	.LVL88
 7439 082d 1E000000 		.4byte	.LVL90
 7440 0831 0100     		.2byte	0x1
 7441 0833 51       		.byte	0x51
 7442 0834 1E000000 		.4byte	.LVL90
 7443 0838 53000000 		.4byte	.LVL94-1
 7444 083c 0100     		.2byte	0x1
 7445 083e 5C       		.byte	0x5c
 7446 083f 53000000 		.4byte	.LVL94-1
 7447 0843 9C000000 		.4byte	.LVL97
 7448 0847 0100     		.2byte	0x1
 7449 0849 5A       		.byte	0x5a
 7450 084a 9C000000 		.4byte	.LVL97
 7451 084e DE000000 		.4byte	.LVL106
 7452 0852 0400     		.2byte	0x4
 7453 0854 F3       		.byte	0xf3
 7454 0855 01       		.uleb128 0x1
 7455 0856 51       		.byte	0x51
 7456 0857 9F       		.byte	0x9f
 7457 0858 DE000000 		.4byte	.LVL106
 7458 085c 40020000 		.4byte	.LVL136
 7459 0860 0100     		.2byte	0x1
 7460 0862 5A       		.byte	0x5a
 7461 0863 40020000 		.4byte	.LVL136
 7462 0867 78030000 		.4byte	.LVL163
 7463 086b 0400     		.2byte	0x4
 7464 086d F3       		.byte	0xf3
 7465 086e 01       		.uleb128 0x1
 7466 086f 51       		.byte	0x51
 7467 0870 9F       		.byte	0x9f
ARM GAS  C:\Users\pearlstl\AppData\Local\Temp\ccmYHcOW.s 			page 161


 7468 0871 78030000 		.4byte	.LVL163
 7469 0875 90030000 		.4byte	.LVL165
 7470 0879 0100     		.2byte	0x1
 7471 087b 5A       		.byte	0x5a
 7472 087c 90030000 		.4byte	.LVL165
 7473 0880 FA030000 		.4byte	.LVL171
 7474 0884 0400     		.2byte	0x4
 7475 0886 F3       		.byte	0xf3
 7476 0887 01       		.uleb128 0x1
 7477 0888 51       		.byte	0x51
 7478 0889 9F       		.byte	0x9f
 7479 088a FA030000 		.4byte	.LVL171
 7480 088e 0C040000 		.4byte	.LVL174
 7481 0892 0100     		.2byte	0x1
 7482 0894 5A       		.byte	0x5a
 7483 0895 0C040000 		.4byte	.LVL174
 7484 0899 9C040000 		.4byte	.LVL188
 7485 089d 0400     		.2byte	0x4
 7486 089f F3       		.byte	0xf3
 7487 08a0 01       		.uleb128 0x1
 7488 08a1 51       		.byte	0x51
 7489 08a2 9F       		.byte	0x9f
 7490 08a3 9C040000 		.4byte	.LVL188
 7491 08a7 14050000 		.4byte	.LFE33
 7492 08ab 0100     		.2byte	0x1
 7493 08ad 5A       		.byte	0x5a
 7494 08ae 00000000 		.4byte	0
 7495 08b2 00000000 		.4byte	0
 7496              	.LLST31:
 7497 08b6 00000000 		.4byte	.LVL88
 7498 08ba 20000000 		.4byte	.LVL91
 7499 08be 0100     		.2byte	0x1
 7500 08c0 52       		.byte	0x52
 7501 08c1 20000000 		.4byte	.LVL91
 7502 08c5 9C000000 		.4byte	.LVL97
 7503 08c9 0100     		.2byte	0x1
 7504 08cb 55       		.byte	0x55
 7505 08cc 9C000000 		.4byte	.LVL97
 7506 08d0 DE000000 		.4byte	.LVL106
 7507 08d4 0400     		.2byte	0x4
 7508 08d6 F3       		.byte	0xf3
 7509 08d7 01       		.uleb128 0x1
 7510 08d8 52       		.byte	0x52
 7511 08d9 9F       		.byte	0x9f
 7512 08da DE000000 		.4byte	.LVL106
 7513 08de B4010000 		.4byte	.LVL125
 7514 08e2 0100     		.2byte	0x1
 7515 08e4 55       		.byte	0x55
 7516 08e5 B4010000 		.4byte	.LVL125
 7517 08e9 78030000 		.4byte	.LVL163
 7518 08ed 0400     		.2byte	0x4
 7519 08ef F3       		.byte	0xf3
 7520 08f0 01       		.uleb128 0x1
 7521 08f1 52       		.byte	0x52
 7522 08f2 9F       		.byte	0x9f
 7523 08f3 78030000 		.4byte	.LVL163
 7524 08f7 90030000 		.4byte	.LVL165
ARM GAS  C:\Users\pearlstl\AppData\Local\Temp\ccmYHcOW.s 			page 162


 7525 08fb 0100     		.2byte	0x1
 7526 08fd 55       		.byte	0x55
 7527 08fe 90030000 		.4byte	.LVL165
 7528 0902 FA030000 		.4byte	.LVL171
 7529 0906 0400     		.2byte	0x4
 7530 0908 F3       		.byte	0xf3
 7531 0909 01       		.uleb128 0x1
 7532 090a 52       		.byte	0x52
 7533 090b 9F       		.byte	0x9f
 7534 090c FA030000 		.4byte	.LVL171
 7535 0910 0C040000 		.4byte	.LVL174
 7536 0914 0100     		.2byte	0x1
 7537 0916 55       		.byte	0x55
 7538 0917 0C040000 		.4byte	.LVL174
 7539 091b C4040000 		.4byte	.LVL193
 7540 091f 0400     		.2byte	0x4
 7541 0921 F3       		.byte	0xf3
 7542 0922 01       		.uleb128 0x1
 7543 0923 52       		.byte	0x52
 7544 0924 9F       		.byte	0x9f
 7545 0925 C4040000 		.4byte	.LVL193
 7546 0929 E2040000 		.4byte	.LVL196
 7547 092d 0100     		.2byte	0x1
 7548 092f 55       		.byte	0x55
 7549 0930 E2040000 		.4byte	.LVL196
 7550 0934 F8040000 		.4byte	.LVL197
 7551 0938 0400     		.2byte	0x4
 7552 093a F3       		.byte	0xf3
 7553 093b 01       		.uleb128 0x1
 7554 093c 52       		.byte	0x52
 7555 093d 9F       		.byte	0x9f
 7556 093e F8040000 		.4byte	.LVL197
 7557 0942 14050000 		.4byte	.LFE33
 7558 0946 0100     		.2byte	0x1
 7559 0948 55       		.byte	0x55
 7560 0949 00000000 		.4byte	0
 7561 094d 00000000 		.4byte	0
 7562              	.LLST32:
 7563 0951 00000000 		.4byte	.LVL88
 7564 0955 24000000 		.4byte	.LVL92
 7565 0959 0100     		.2byte	0x1
 7566 095b 53       		.byte	0x53
 7567 095c 24000000 		.4byte	.LVL92
 7568 0960 9C000000 		.4byte	.LVL97
 7569 0964 0100     		.2byte	0x1
 7570 0966 56       		.byte	0x56
 7571 0967 9C000000 		.4byte	.LVL97
 7572 096b DE000000 		.4byte	.LVL106
 7573 096f 0400     		.2byte	0x4
 7574 0971 F3       		.byte	0xf3
 7575 0972 01       		.uleb128 0x1
 7576 0973 53       		.byte	0x53
 7577 0974 9F       		.byte	0x9f
 7578 0975 DE000000 		.4byte	.LVL106
 7579 0979 F2000000 		.4byte	.LVL110
 7580 097d 0100     		.2byte	0x1
 7581 097f 56       		.byte	0x56
ARM GAS  C:\Users\pearlstl\AppData\Local\Temp\ccmYHcOW.s 			page 163


 7582 0980 F2000000 		.4byte	.LVL110
 7583 0984 78030000 		.4byte	.LVL163
 7584 0988 0400     		.2byte	0x4
 7585 098a F3       		.byte	0xf3
 7586 098b 01       		.uleb128 0x1
 7587 098c 53       		.byte	0x53
 7588 098d 9F       		.byte	0x9f
 7589 098e 78030000 		.4byte	.LVL163
 7590 0992 90030000 		.4byte	.LVL165
 7591 0996 0100     		.2byte	0x1
 7592 0998 56       		.byte	0x56
 7593 0999 90030000 		.4byte	.LVL165
 7594 099d FA030000 		.4byte	.LVL171
 7595 09a1 0400     		.2byte	0x4
 7596 09a3 F3       		.byte	0xf3
 7597 09a4 01       		.uleb128 0x1
 7598 09a5 53       		.byte	0x53
 7599 09a6 9F       		.byte	0x9f
 7600 09a7 FA030000 		.4byte	.LVL171
 7601 09ab 0C040000 		.4byte	.LVL174
 7602 09af 0100     		.2byte	0x1
 7603 09b1 56       		.byte	0x56
 7604 09b2 0C040000 		.4byte	.LVL174
 7605 09b6 14050000 		.4byte	.LFE33
 7606 09ba 0400     		.2byte	0x4
 7607 09bc F3       		.byte	0xf3
 7608 09bd 01       		.uleb128 0x1
 7609 09be 53       		.byte	0x53
 7610 09bf 9F       		.byte	0x9f
 7611 09c0 00000000 		.4byte	0
 7612 09c4 00000000 		.4byte	0
 7613              	.LLST33:
 7614 09c8 00000000 		.4byte	.LVL88
 7615 09cc 30020000 		.4byte	.LVL132
 7616 09d0 0200     		.2byte	0x2
 7617 09d2 91       		.byte	0x91
 7618 09d3 00       		.sleb128 0
 7619 09d4 30020000 		.4byte	.LVL132
 7620 09d8 34020000 		.4byte	.LVL133
 7621 09dc 0100     		.2byte	0x1
 7622 09de 52       		.byte	0x52
 7623 09df 40020000 		.4byte	.LVL136
 7624 09e3 F2020000 		.4byte	.LVL146
 7625 09e7 0200     		.2byte	0x2
 7626 09e9 91       		.byte	0x91
 7627 09ea 00       		.sleb128 0
 7628 09eb F2020000 		.4byte	.LVL146
 7629 09ef 78030000 		.4byte	.LVL163
 7630 09f3 0100     		.2byte	0x1
 7631 09f5 57       		.byte	0x57
 7632 09f6 78030000 		.4byte	.LVL163
 7633 09fa 74040000 		.4byte	.LVL185
 7634 09fe 0200     		.2byte	0x2
 7635 0a00 91       		.byte	0x91
 7636 0a01 00       		.sleb128 0
 7637 0a02 74040000 		.4byte	.LVL185
 7638 0a06 9C040000 		.4byte	.LVL188
ARM GAS  C:\Users\pearlstl\AppData\Local\Temp\ccmYHcOW.s 			page 164


 7639 0a0a 0100     		.2byte	0x1
 7640 0a0c 57       		.byte	0x57
 7641 0a0d 9C040000 		.4byte	.LVL188
 7642 0a11 14050000 		.4byte	.LFE33
 7643 0a15 0200     		.2byte	0x2
 7644 0a17 91       		.byte	0x91
 7645 0a18 00       		.sleb128 0
 7646 0a19 00000000 		.4byte	0
 7647 0a1d 00000000 		.4byte	0
 7648              	.LLST34:
 7649 0a21 00000000 		.4byte	.LVL88
 7650 0a25 42000000 		.4byte	.LVL93
 7651 0a29 0200     		.2byte	0x2
 7652 0a2b 91       		.byte	0x91
 7653 0a2c 04       		.sleb128 4
 7654 0a2d 42000000 		.4byte	.LVL93
 7655 0a31 9C000000 		.4byte	.LVL97
 7656 0a35 0100     		.2byte	0x1
 7657 0a37 54       		.byte	0x54
 7658 0a38 9C000000 		.4byte	.LVL97
 7659 0a3c D8000000 		.4byte	.LVL105
 7660 0a40 0300     		.2byte	0x3
 7661 0a42 91       		.byte	0x91
 7662 0a43 DC7E     		.sleb128 -164
 7663 0a45 DE000000 		.4byte	.LVL106
 7664 0a49 6A020000 		.4byte	.LVL138
 7665 0a4d 0100     		.2byte	0x1
 7666 0a4f 54       		.byte	0x54
 7667 0a50 6A020000 		.4byte	.LVL138
 7668 0a54 78030000 		.4byte	.LVL163
 7669 0a58 0300     		.2byte	0x3
 7670 0a5a 91       		.byte	0x91
 7671 0a5b DC7E     		.sleb128 -164
 7672 0a5d 78030000 		.4byte	.LVL163
 7673 0a61 90030000 		.4byte	.LVL165
 7674 0a65 0100     		.2byte	0x1
 7675 0a67 54       		.byte	0x54
 7676 0a68 90030000 		.4byte	.LVL165
 7677 0a6c FA030000 		.4byte	.LVL171
 7678 0a70 0300     		.2byte	0x3
 7679 0a72 91       		.byte	0x91
 7680 0a73 DC7E     		.sleb128 -164
 7681 0a75 FA030000 		.4byte	.LVL171
 7682 0a79 0C040000 		.4byte	.LVL174
 7683 0a7d 0100     		.2byte	0x1
 7684 0a7f 54       		.byte	0x54
 7685 0a80 0C040000 		.4byte	.LVL174
 7686 0a84 9C040000 		.4byte	.LVL188
 7687 0a88 0300     		.2byte	0x3
 7688 0a8a 91       		.byte	0x91
 7689 0a8b DC7E     		.sleb128 -164
 7690 0a8d 9C040000 		.4byte	.LVL188
 7691 0a91 14050000 		.4byte	.LFE33
 7692 0a95 0100     		.2byte	0x1
 7693 0a97 54       		.byte	0x54
 7694 0a98 00000000 		.4byte	0
 7695 0a9c 00000000 		.4byte	0
ARM GAS  C:\Users\pearlstl\AppData\Local\Temp\ccmYHcOW.s 			page 165


 7696              	.LLST35:
 7697 0aa0 54000000 		.4byte	.LVL94
 7698 0aa4 9C000000 		.4byte	.LVL97
 7699 0aa8 0100     		.2byte	0x1
 7700 0aaa 50       		.byte	0x50
 7701 0aab DE000000 		.4byte	.LVL106
 7702 0aaf EC000000 		.4byte	.LVL108
 7703 0ab3 0100     		.2byte	0x1
 7704 0ab5 50       		.byte	0x50
 7705 0ab6 78030000 		.4byte	.LVL163
 7706 0aba 90030000 		.4byte	.LVL165
 7707 0abe 0100     		.2byte	0x1
 7708 0ac0 50       		.byte	0x50
 7709 0ac1 FA030000 		.4byte	.LVL171
 7710 0ac5 0C040000 		.4byte	.LVL174
 7711 0ac9 0100     		.2byte	0x1
 7712 0acb 50       		.byte	0x50
 7713 0acc 00000000 		.4byte	0
 7714 0ad0 00000000 		.4byte	0
 7715              	.LLST36:
 7716 0ad4 76000000 		.4byte	.LVL95
 7717 0ad8 9C000000 		.4byte	.LVL97
 7718 0adc 0A00     		.2byte	0xa
 7719 0ade 77       		.byte	0x77
 7720 0adf 00       		.sleb128 0
 7721 0ae0 48       		.byte	0x48
 7722 0ae1 24       		.byte	0x24
 7723 0ae2 48       		.byte	0x48
 7724 0ae3 26       		.byte	0x26
 7725 0ae4 78       		.byte	0x78
 7726 0ae5 00       		.sleb128 0
 7727 0ae6 22       		.byte	0x22
 7728 0ae7 9F       		.byte	0x9f
 7729 0ae8 DE000000 		.4byte	.LVL106
 7730 0aec 22010000 		.4byte	.LVL112
 7731 0af0 0A00     		.2byte	0xa
 7732 0af2 77       		.byte	0x77
 7733 0af3 00       		.sleb128 0
 7734 0af4 48       		.byte	0x48
 7735 0af5 24       		.byte	0x24
 7736 0af6 48       		.byte	0x48
 7737 0af7 26       		.byte	0x26
 7738 0af8 78       		.byte	0x78
 7739 0af9 00       		.sleb128 0
 7740 0afa 22       		.byte	0x22
 7741 0afb 9F       		.byte	0x9f
 7742 0afc 78030000 		.4byte	.LVL163
 7743 0b00 90030000 		.4byte	.LVL165
 7744 0b04 0A00     		.2byte	0xa
 7745 0b06 77       		.byte	0x77
 7746 0b07 00       		.sleb128 0
 7747 0b08 48       		.byte	0x48
 7748 0b09 24       		.byte	0x24
 7749 0b0a 48       		.byte	0x48
 7750 0b0b 26       		.byte	0x26
 7751 0b0c 78       		.byte	0x78
 7752 0b0d 00       		.sleb128 0
ARM GAS  C:\Users\pearlstl\AppData\Local\Temp\ccmYHcOW.s 			page 166


 7753 0b0e 22       		.byte	0x22
 7754 0b0f 9F       		.byte	0x9f
 7755 0b10 FA030000 		.4byte	.LVL171
 7756 0b14 0C040000 		.4byte	.LVL174
 7757 0b18 0A00     		.2byte	0xa
 7758 0b1a 77       		.byte	0x77
 7759 0b1b 00       		.sleb128 0
 7760 0b1c 48       		.byte	0x48
 7761 0b1d 24       		.byte	0x24
 7762 0b1e 48       		.byte	0x48
 7763 0b1f 26       		.byte	0x26
 7764 0b20 78       		.byte	0x78
 7765 0b21 00       		.sleb128 0
 7766 0b22 22       		.byte	0x22
 7767 0b23 9F       		.byte	0x9f
 7768 0b24 00000000 		.4byte	0
 7769 0b28 00000000 		.4byte	0
 7770              	.LLST37:
 7771 0b2c 7E000000 		.4byte	.LVL96
 7772 0b30 9C000000 		.4byte	.LVL97
 7773 0b34 2600     		.2byte	0x26
 7774 0b36 91       		.byte	0x91
 7775 0b37 D87E     		.sleb128 -168
 7776 0b39 94       		.byte	0x94
 7777 0b3a 01       		.byte	0x1
 7778 0b3b 08       		.byte	0x8
 7779 0b3c FF       		.byte	0xff
 7780 0b3d 1A       		.byte	0x1a
 7781 0b3e 7B       		.byte	0x7b
 7782 0b3f 00       		.sleb128 0
 7783 0b40 08       		.byte	0x8
 7784 0b41 FF       		.byte	0xff
 7785 0b42 1A       		.byte	0x1a
 7786 0b43 1C       		.byte	0x1c
 7787 0b44 91       		.byte	0x91
 7788 0b45 DC7E     		.sleb128 -164
 7789 0b47 94       		.byte	0x94
 7790 0b48 01       		.byte	0x1
 7791 0b49 48       		.byte	0x48
 7792 0b4a 24       		.byte	0x24
 7793 0b4b 48       		.byte	0x48
 7794 0b4c 26       		.byte	0x26
 7795 0b4d 1C       		.byte	0x1c
 7796 0b4e 79       		.byte	0x79
 7797 0b4f 00       		.sleb128 0
 7798 0b50 48       		.byte	0x48
 7799 0b51 24       		.byte	0x24
 7800 0b52 48       		.byte	0x48
 7801 0b53 26       		.byte	0x26
 7802 0b54 1C       		.byte	0x1c
 7803 0b55 91       		.byte	0x91
 7804 0b56 D47E     		.sleb128 -172
 7805 0b58 94       		.byte	0x94
 7806 0b59 02       		.byte	0x2
 7807 0b5a 22       		.byte	0x22
 7808 0b5b 9F       		.byte	0x9f
 7809 0b5c DE000000 		.4byte	.LVL106
ARM GAS  C:\Users\pearlstl\AppData\Local\Temp\ccmYHcOW.s 			page 167


 7810 0b60 1E010000 		.4byte	.LVL111
 7811 0b64 2600     		.2byte	0x26
 7812 0b66 91       		.byte	0x91
 7813 0b67 D87E     		.sleb128 -168
 7814 0b69 94       		.byte	0x94
 7815 0b6a 01       		.byte	0x1
 7816 0b6b 08       		.byte	0x8
 7817 0b6c FF       		.byte	0xff
 7818 0b6d 1A       		.byte	0x1a
 7819 0b6e 7B       		.byte	0x7b
 7820 0b6f 00       		.sleb128 0
 7821 0b70 08       		.byte	0x8
 7822 0b71 FF       		.byte	0xff
 7823 0b72 1A       		.byte	0x1a
 7824 0b73 1C       		.byte	0x1c
 7825 0b74 91       		.byte	0x91
 7826 0b75 DC7E     		.sleb128 -164
 7827 0b77 94       		.byte	0x94
 7828 0b78 01       		.byte	0x1
 7829 0b79 48       		.byte	0x48
 7830 0b7a 24       		.byte	0x24
 7831 0b7b 48       		.byte	0x48
 7832 0b7c 26       		.byte	0x26
 7833 0b7d 1C       		.byte	0x1c
 7834 0b7e 79       		.byte	0x79
 7835 0b7f 00       		.sleb128 0
 7836 0b80 48       		.byte	0x48
 7837 0b81 24       		.byte	0x24
 7838 0b82 48       		.byte	0x48
 7839 0b83 26       		.byte	0x26
 7840 0b84 1C       		.byte	0x1c
 7841 0b85 91       		.byte	0x91
 7842 0b86 D47E     		.sleb128 -172
 7843 0b88 94       		.byte	0x94
 7844 0b89 02       		.byte	0x2
 7845 0b8a 22       		.byte	0x22
 7846 0b8b 9F       		.byte	0x9f
 7847 0b8c 78030000 		.4byte	.LVL163
 7848 0b90 90030000 		.4byte	.LVL165
 7849 0b94 2600     		.2byte	0x26
 7850 0b96 91       		.byte	0x91
 7851 0b97 D87E     		.sleb128 -168
 7852 0b99 94       		.byte	0x94
 7853 0b9a 01       		.byte	0x1
 7854 0b9b 08       		.byte	0x8
 7855 0b9c FF       		.byte	0xff
 7856 0b9d 1A       		.byte	0x1a
 7857 0b9e 7B       		.byte	0x7b
 7858 0b9f 00       		.sleb128 0
 7859 0ba0 08       		.byte	0x8
 7860 0ba1 FF       		.byte	0xff
 7861 0ba2 1A       		.byte	0x1a
 7862 0ba3 1C       		.byte	0x1c
 7863 0ba4 91       		.byte	0x91
 7864 0ba5 DC7E     		.sleb128 -164
 7865 0ba7 94       		.byte	0x94
 7866 0ba8 01       		.byte	0x1
ARM GAS  C:\Users\pearlstl\AppData\Local\Temp\ccmYHcOW.s 			page 168


 7867 0ba9 48       		.byte	0x48
 7868 0baa 24       		.byte	0x24
 7869 0bab 48       		.byte	0x48
 7870 0bac 26       		.byte	0x26
 7871 0bad 1C       		.byte	0x1c
 7872 0bae 79       		.byte	0x79
 7873 0baf 00       		.sleb128 0
 7874 0bb0 48       		.byte	0x48
 7875 0bb1 24       		.byte	0x24
 7876 0bb2 48       		.byte	0x48
 7877 0bb3 26       		.byte	0x26
 7878 0bb4 1C       		.byte	0x1c
 7879 0bb5 91       		.byte	0x91
 7880 0bb6 D47E     		.sleb128 -172
 7881 0bb8 94       		.byte	0x94
 7882 0bb9 02       		.byte	0x2
 7883 0bba 22       		.byte	0x22
 7884 0bbb 9F       		.byte	0x9f
 7885 0bbc FA030000 		.4byte	.LVL171
 7886 0bc0 0C040000 		.4byte	.LVL174
 7887 0bc4 2600     		.2byte	0x26
 7888 0bc6 91       		.byte	0x91
 7889 0bc7 D87E     		.sleb128 -168
 7890 0bc9 94       		.byte	0x94
 7891 0bca 01       		.byte	0x1
 7892 0bcb 08       		.byte	0x8
 7893 0bcc FF       		.byte	0xff
 7894 0bcd 1A       		.byte	0x1a
 7895 0bce 7B       		.byte	0x7b
 7896 0bcf 00       		.sleb128 0
 7897 0bd0 08       		.byte	0x8
 7898 0bd1 FF       		.byte	0xff
 7899 0bd2 1A       		.byte	0x1a
 7900 0bd3 1C       		.byte	0x1c
 7901 0bd4 91       		.byte	0x91
 7902 0bd5 DC7E     		.sleb128 -164
 7903 0bd7 94       		.byte	0x94
 7904 0bd8 01       		.byte	0x1
 7905 0bd9 48       		.byte	0x48
 7906 0bda 24       		.byte	0x24
 7907 0bdb 48       		.byte	0x48
 7908 0bdc 26       		.byte	0x26
 7909 0bdd 1C       		.byte	0x1c
 7910 0bde 79       		.byte	0x79
 7911 0bdf 00       		.sleb128 0
 7912 0be0 48       		.byte	0x48
 7913 0be1 24       		.byte	0x24
 7914 0be2 48       		.byte	0x48
 7915 0be3 26       		.byte	0x26
 7916 0be4 1C       		.byte	0x1c
 7917 0be5 91       		.byte	0x91
 7918 0be6 D47E     		.sleb128 -172
 7919 0be8 94       		.byte	0x94
 7920 0be9 02       		.byte	0x2
 7921 0bea 22       		.byte	0x22
 7922 0beb 9F       		.byte	0x9f
 7923 0bec 00000000 		.4byte	0
ARM GAS  C:\Users\pearlstl\AppData\Local\Temp\ccmYHcOW.s 			page 169


 7924 0bf0 00000000 		.4byte	0
 7925              	.LLST38:
 7926 0bf4 9C000000 		.4byte	.LVL97
 7927 0bf8 D8000000 		.4byte	.LVL105
 7928 0bfc 0300     		.2byte	0x3
 7929 0bfe 91       		.byte	0x91
 7930 0bff E47E     		.sleb128 -156
 7931 0c01 E8000000 		.4byte	.LVL107
 7932 0c05 78030000 		.4byte	.LVL163
 7933 0c09 0300     		.2byte	0x3
 7934 0c0b 91       		.byte	0x91
 7935 0c0c E47E     		.sleb128 -156
 7936 0c0e 78030000 		.4byte	.LVL163
 7937 0c12 84030000 		.4byte	.LVL164
 7938 0c16 0200     		.2byte	0x2
 7939 0c18 30       		.byte	0x30
 7940 0c19 9F       		.byte	0x9f
 7941 0c1a 90030000 		.4byte	.LVL165
 7942 0c1e FA030000 		.4byte	.LVL171
 7943 0c22 0300     		.2byte	0x3
 7944 0c24 91       		.byte	0x91
 7945 0c25 E47E     		.sleb128 -156
 7946 0c27 00040000 		.4byte	.LVL172
 7947 0c2b 04040000 		.4byte	.LVL173
 7948 0c2f 0300     		.2byte	0x3
 7949 0c31 91       		.byte	0x91
 7950 0c32 48       		.sleb128 -56
 7951 0c33 9F       		.byte	0x9f
 7952 0c34 04040000 		.4byte	.LVL173
 7953 0c38 0C040000 		.4byte	.LVL174
 7954 0c3c 0100     		.2byte	0x1
 7955 0c3e 52       		.byte	0x52
 7956 0c3f 0C040000 		.4byte	.LVL174
 7957 0c43 14050000 		.4byte	.LFE33
 7958 0c47 0300     		.2byte	0x3
 7959 0c49 91       		.byte	0x91
 7960 0c4a E47E     		.sleb128 -156
 7961 0c4c 00000000 		.4byte	0
 7962 0c50 00000000 		.4byte	0
 7963              	.LLST39:
 7964 0c54 9C000000 		.4byte	.LVL97
 7965 0c58 D8000000 		.4byte	.LVL105
 7966 0c5c 0300     		.2byte	0x3
 7967 0c5e 91       		.byte	0x91
 7968 0c5f E07E     		.sleb128 -160
 7969 0c61 E8000000 		.4byte	.LVL107
 7970 0c65 78030000 		.4byte	.LVL163
 7971 0c69 0300     		.2byte	0x3
 7972 0c6b 91       		.byte	0x91
 7973 0c6c E07E     		.sleb128 -160
 7974 0c6e 78030000 		.4byte	.LVL163
 7975 0c72 84030000 		.4byte	.LVL164
 7976 0c76 0300     		.2byte	0x3
 7977 0c78 09       		.byte	0x9
 7978 0c79 FF       		.byte	0xff
 7979 0c7a 9F       		.byte	0x9f
 7980 0c7b 90030000 		.4byte	.LVL165
ARM GAS  C:\Users\pearlstl\AppData\Local\Temp\ccmYHcOW.s 			page 170


 7981 0c7f FA030000 		.4byte	.LVL171
 7982 0c83 0300     		.2byte	0x3
 7983 0c85 91       		.byte	0x91
 7984 0c86 E07E     		.sleb128 -160
 7985 0c88 00040000 		.4byte	.LVL172
 7986 0c8c 0C040000 		.4byte	.LVL174
 7987 0c90 0300     		.2byte	0x3
 7988 0c92 09       		.byte	0x9
 7989 0c93 F0       		.byte	0xf0
 7990 0c94 9F       		.byte	0x9f
 7991 0c95 0C040000 		.4byte	.LVL174
 7992 0c99 14050000 		.4byte	.LFE33
 7993 0c9d 0300     		.2byte	0x3
 7994 0c9f 91       		.byte	0x91
 7995 0ca0 E07E     		.sleb128 -160
 7996 0ca2 00000000 		.4byte	0
 7997 0ca6 00000000 		.4byte	0
 7998              	.LLST40:
 7999 0caa 9C000000 		.4byte	.LVL97
 8000 0cae D8000000 		.4byte	.LVL105
 8001 0cb2 0100     		.2byte	0x1
 8002 0cb4 55       		.byte	0x55
 8003 0cb5 76020000 		.4byte	.LVL139
 8004 0cb9 02030000 		.4byte	.LVL149
 8005 0cbd 0100     		.2byte	0x1
 8006 0cbf 55       		.byte	0x55
 8007 0cc0 08030000 		.4byte	.LVL151
 8008 0cc4 78030000 		.4byte	.LVL163
 8009 0cc8 0100     		.2byte	0x1
 8010 0cca 55       		.byte	0x55
 8011 0ccb 90030000 		.4byte	.LVL165
 8012 0ccf 9C030000 		.4byte	.LVL167
 8013 0cd3 0300     		.2byte	0x3
 8014 0cd5 91       		.byte	0x91
 8015 0cd6 E07E     		.sleb128 -160
 8016 0cd8 9C030000 		.4byte	.LVL167
 8017 0cdc FA030000 		.4byte	.LVL171
 8018 0ce0 0100     		.2byte	0x1
 8019 0ce2 55       		.byte	0x55
 8020 0ce3 0C040000 		.4byte	.LVL174
 8021 0ce7 9C040000 		.4byte	.LVL188
 8022 0ceb 0100     		.2byte	0x1
 8023 0ced 55       		.byte	0x55
 8024 0cee 00000000 		.4byte	0
 8025 0cf2 00000000 		.4byte	0
 8026              	.LLST41:
 8027 0cf6 9C000000 		.4byte	.LVL97
 8028 0cfa D8000000 		.4byte	.LVL105
 8029 0cfe 0100     		.2byte	0x1
 8030 0d00 59       		.byte	0x59
 8031 0d01 F0000000 		.4byte	.LVL109
 8032 0d05 2C010000 		.4byte	.LVL113
 8033 0d09 0100     		.2byte	0x1
 8034 0d0b 50       		.byte	0x50
 8035 0d0c 2C010000 		.4byte	.LVL113
 8036 0d10 3C020000 		.4byte	.LVL135
 8037 0d14 0100     		.2byte	0x1
ARM GAS  C:\Users\pearlstl\AppData\Local\Temp\ccmYHcOW.s 			page 171


 8038 0d16 56       		.byte	0x56
 8039 0d17 3C020000 		.4byte	.LVL135
 8040 0d1b 78030000 		.4byte	.LVL163
 8041 0d1f 0100     		.2byte	0x1
 8042 0d21 59       		.byte	0x59
 8043 0d22 90030000 		.4byte	.LVL165
 8044 0d26 FA030000 		.4byte	.LVL171
 8045 0d2a 0100     		.2byte	0x1
 8046 0d2c 59       		.byte	0x59
 8047 0d2d 0C040000 		.4byte	.LVL174
 8048 0d31 9C040000 		.4byte	.LVL188
 8049 0d35 0100     		.2byte	0x1
 8050 0d37 59       		.byte	0x59
 8051 0d38 9C040000 		.4byte	.LVL188
 8052 0d3c 14050000 		.4byte	.LFE33
 8053 0d40 0100     		.2byte	0x1
 8054 0d42 56       		.byte	0x56
 8055 0d43 00000000 		.4byte	0
 8056 0d47 00000000 		.4byte	0
 8057              	.LLST42:
 8058 0d4b 9C000000 		.4byte	.LVL97
 8059 0d4f D8000000 		.4byte	.LVL105
 8060 0d53 0300     		.2byte	0x3
 8061 0d55 91       		.byte	0x91
 8062 0d56 EC7E     		.sleb128 -148
 8063 0d58 4E010000 		.4byte	.LVL115
 8064 0d5c 51010000 		.4byte	.LVL116-1
 8065 0d60 0100     		.2byte	0x1
 8066 0d62 50       		.byte	0x50
 8067 0d63 51010000 		.4byte	.LVL116-1
 8068 0d67 78030000 		.4byte	.LVL163
 8069 0d6b 0300     		.2byte	0x3
 8070 0d6d 91       		.byte	0x91
 8071 0d6e EC7E     		.sleb128 -148
 8072 0d70 90030000 		.4byte	.LVL165
 8073 0d74 FA030000 		.4byte	.LVL171
 8074 0d78 0300     		.2byte	0x3
 8075 0d7a 91       		.byte	0x91
 8076 0d7b EC7E     		.sleb128 -148
 8077 0d7d 0C040000 		.4byte	.LVL174
 8078 0d81 14050000 		.4byte	.LFE33
 8079 0d85 0300     		.2byte	0x3
 8080 0d87 91       		.byte	0x91
 8081 0d88 EC7E     		.sleb128 -148
 8082 0d8a 00000000 		.4byte	0
 8083 0d8e 00000000 		.4byte	0
 8084              	.LLST43:
 8085 0d92 9C000000 		.4byte	.LVL97
 8086 0d96 D8000000 		.4byte	.LVL105
 8087 0d9a 0300     		.2byte	0x3
 8088 0d9c 91       		.byte	0x91
 8089 0d9d 847F     		.sleb128 -124
 8090 0d9f 56010000 		.4byte	.LVL117
 8091 0da3 5E010000 		.4byte	.LVL119
 8092 0da7 0100     		.2byte	0x1
 8093 0da9 50       		.byte	0x50
 8094 0daa 5E010000 		.4byte	.LVL119
ARM GAS  C:\Users\pearlstl\AppData\Local\Temp\ccmYHcOW.s 			page 172


 8095 0dae 60010000 		.4byte	.LVL120
 8096 0db2 0100     		.2byte	0x1
 8097 0db4 52       		.byte	0x52
 8098 0db5 60010000 		.4byte	.LVL120
 8099 0db9 78030000 		.4byte	.LVL163
 8100 0dbd 0300     		.2byte	0x3
 8101 0dbf 91       		.byte	0x91
 8102 0dc0 847F     		.sleb128 -124
 8103 0dc2 90030000 		.4byte	.LVL165
 8104 0dc6 FA030000 		.4byte	.LVL171
 8105 0dca 0300     		.2byte	0x3
 8106 0dcc 91       		.byte	0x91
 8107 0dcd 847F     		.sleb128 -124
 8108 0dcf 0C040000 		.4byte	.LVL174
 8109 0dd3 14050000 		.4byte	.LFE33
 8110 0dd7 0300     		.2byte	0x3
 8111 0dd9 91       		.byte	0x91
 8112 0dda 847F     		.sleb128 -124
 8113 0ddc 00000000 		.4byte	0
 8114 0de0 00000000 		.4byte	0
 8115              	.LLST44:
 8116 0de4 9C000000 		.4byte	.LVL97
 8117 0de8 D8000000 		.4byte	.LVL105
 8118 0dec 0100     		.2byte	0x1
 8119 0dee 58       		.byte	0x58
 8120 0def 74010000 		.4byte	.LVL121
 8121 0df3 FA010000 		.4byte	.LVL130
 8122 0df7 0300     		.2byte	0x3
 8123 0df9 91       		.byte	0x91
 8124 0dfa D47E     		.sleb128 -172
 8125 0dfc FA010000 		.4byte	.LVL130
 8126 0e00 1A020000 		.4byte	.LVL131
 8127 0e04 0100     		.2byte	0x1
 8128 0e06 52       		.byte	0x52
 8129 0e07 1A020000 		.4byte	.LVL131
 8130 0e0b 78030000 		.4byte	.LVL163
 8131 0e0f 0100     		.2byte	0x1
 8132 0e11 58       		.byte	0x58
 8133 0e12 90030000 		.4byte	.LVL165
 8134 0e16 FA030000 		.4byte	.LVL171
 8135 0e1a 0100     		.2byte	0x1
 8136 0e1c 58       		.byte	0x58
 8137 0e1d 0C040000 		.4byte	.LVL174
 8138 0e21 9C040000 		.4byte	.LVL188
 8139 0e25 0100     		.2byte	0x1
 8140 0e27 58       		.byte	0x58
 8141 0e28 9C040000 		.4byte	.LVL188
 8142 0e2c A6040000 		.4byte	.LVL189
 8143 0e30 0100     		.2byte	0x1
 8144 0e32 52       		.byte	0x52
 8145 0e33 A6040000 		.4byte	.LVL189
 8146 0e37 A8040000 		.4byte	.LVL190
 8147 0e3b 0100     		.2byte	0x1
 8148 0e3d 58       		.byte	0x58
 8149 0e3e A8040000 		.4byte	.LVL190
 8150 0e42 14050000 		.4byte	.LFE33
 8151 0e46 0300     		.2byte	0x3
ARM GAS  C:\Users\pearlstl\AppData\Local\Temp\ccmYHcOW.s 			page 173


 8152 0e48 91       		.byte	0x91
 8153 0e49 D47E     		.sleb128 -172
 8154 0e4b 00000000 		.4byte	0
 8155 0e4f 00000000 		.4byte	0
 8156              	.LLST45:
 8157 0e53 9C000000 		.4byte	.LVL97
 8158 0e57 A2000000 		.4byte	.LVL98
 8159 0e5b 0100     		.2byte	0x1
 8160 0e5d 54       		.byte	0x54
 8161 0e5e 76020000 		.4byte	.LVL139
 8162 0e62 A0020000 		.4byte	.LVL140
 8163 0e66 0300     		.2byte	0x3
 8164 0e68 91       		.byte	0x91
 8165 0e69 9C7F     		.sleb128 -100
 8166 0e6b A0020000 		.4byte	.LVL140
 8167 0e6f 0A030000 		.4byte	.LVL152
 8168 0e73 0100     		.2byte	0x1
 8169 0e75 54       		.byte	0x54
 8170 0e76 0E030000 		.4byte	.LVL153
 8171 0e7a 78030000 		.4byte	.LVL163
 8172 0e7e 0100     		.2byte	0x1
 8173 0e80 54       		.byte	0x54
 8174 0e81 90030000 		.4byte	.LVL165
 8175 0e85 FA030000 		.4byte	.LVL171
 8176 0e89 0100     		.2byte	0x1
 8177 0e8b 54       		.byte	0x54
 8178 0e8c 0C040000 		.4byte	.LVL174
 8179 0e90 3C040000 		.4byte	.LVL180
 8180 0e94 0100     		.2byte	0x1
 8181 0e96 54       		.byte	0x54
 8182 0e97 42040000 		.4byte	.LVL182
 8183 0e9b 9C040000 		.4byte	.LVL188
 8184 0e9f 0100     		.2byte	0x1
 8185 0ea1 54       		.byte	0x54
 8186 0ea2 00000000 		.4byte	0
 8187 0ea6 00000000 		.4byte	0
 8188              	.LLST46:
 8189 0eaa 9C000000 		.4byte	.LVL97
 8190 0eae D4000000 		.4byte	.LVL104
 8191 0eb2 0300     		.2byte	0x3
 8192 0eb4 91       		.byte	0x91
 8193 0eb5 F47E     		.sleb128 -140
 8194 0eb7 D4000000 		.4byte	.LVL104
 8195 0ebb D8000000 		.4byte	.LVL105
 8196 0ebf 0100     		.2byte	0x1
 8197 0ec1 52       		.byte	0x52
 8198 0ec2 40020000 		.4byte	.LVL136
 8199 0ec6 78030000 		.4byte	.LVL163
 8200 0eca 0300     		.2byte	0x3
 8201 0ecc 91       		.byte	0x91
 8202 0ecd F47E     		.sleb128 -140
 8203 0ecf 90030000 		.4byte	.LVL165
 8204 0ed3 FA030000 		.4byte	.LVL171
 8205 0ed7 0300     		.2byte	0x3
 8206 0ed9 91       		.byte	0x91
 8207 0eda F47E     		.sleb128 -140
 8208 0edc 0C040000 		.4byte	.LVL174
ARM GAS  C:\Users\pearlstl\AppData\Local\Temp\ccmYHcOW.s 			page 174


 8209 0ee0 9C040000 		.4byte	.LVL188
 8210 0ee4 0300     		.2byte	0x3
 8211 0ee6 91       		.byte	0x91
 8212 0ee7 F47E     		.sleb128 -140
 8213 0ee9 00000000 		.4byte	0
 8214 0eed 00000000 		.4byte	0
 8215              	.LLST47:
 8216 0ef1 74010000 		.4byte	.LVL121
 8217 0ef5 6A020000 		.4byte	.LVL138
 8218 0ef9 0500     		.2byte	0x5
 8219 0efb 7E       		.byte	0x7e
 8220 0efc 00       		.sleb128 0
 8221 0efd 33       		.byte	0x33
 8222 0efe 25       		.byte	0x25
 8223 0eff 9F       		.byte	0x9f
 8224 0f00 9C040000 		.4byte	.LVL188
 8225 0f04 14050000 		.4byte	.LFE33
 8226 0f08 0500     		.2byte	0x5
 8227 0f0a 7E       		.byte	0x7e
 8228 0f0b 00       		.sleb128 0
 8229 0f0c 33       		.byte	0x33
 8230 0f0d 25       		.byte	0x25
 8231 0f0e 9F       		.byte	0x9f
 8232 0f0f 00000000 		.4byte	0
 8233 0f13 00000000 		.4byte	0
 8234              	.LLST48:
 8235 0f17 7E010000 		.4byte	.LVL122
 8236 0f1b C2010000 		.4byte	.LVL126
 8237 0f1f 0100     		.2byte	0x1
 8238 0f21 5C       		.byte	0x5c
 8239 0f22 C2010000 		.4byte	.LVL126
 8240 0f26 6A020000 		.4byte	.LVL138
 8241 0f2a 0600     		.2byte	0x6
 8242 0f2c 7E       		.byte	0x7e
 8243 0f2d 00       		.sleb128 0
 8244 0f2e 73       		.byte	0x73
 8245 0f2f 00       		.sleb128 0
 8246 0f30 1E       		.byte	0x1e
 8247 0f31 9F       		.byte	0x9f
 8248 0f32 9C040000 		.4byte	.LVL188
 8249 0f36 A8040000 		.4byte	.LVL190
 8250 0f3a 0600     		.2byte	0x6
 8251 0f3c 7E       		.byte	0x7e
 8252 0f3d 00       		.sleb128 0
 8253 0f3e 73       		.byte	0x73
 8254 0f3f 00       		.sleb128 0
 8255 0f40 1E       		.byte	0x1e
 8256 0f41 9F       		.byte	0x9f
 8257 0f42 A8040000 		.4byte	.LVL190
 8258 0f46 B6040000 		.4byte	.LVL191
 8259 0f4a 0100     		.2byte	0x1
 8260 0f4c 5C       		.byte	0x5c
 8261 0f4d B6040000 		.4byte	.LVL191
 8262 0f51 BE040000 		.4byte	.LVL192
 8263 0f55 0600     		.2byte	0x6
 8264 0f57 7E       		.byte	0x7e
 8265 0f58 00       		.sleb128 0
ARM GAS  C:\Users\pearlstl\AppData\Local\Temp\ccmYHcOW.s 			page 175


 8266 0f59 73       		.byte	0x73
 8267 0f5a 00       		.sleb128 0
 8268 0f5b 1E       		.byte	0x1e
 8269 0f5c 9F       		.byte	0x9f
 8270 0f5d BE040000 		.4byte	.LVL192
 8271 0f61 14050000 		.4byte	.LFE33
 8272 0f65 0100     		.2byte	0x1
 8273 0f67 5C       		.byte	0x5c
 8274 0f68 00000000 		.4byte	0
 8275 0f6c 00000000 		.4byte	0
 8276              	.LLST49:
 8277 0f70 7E010000 		.4byte	.LVL122
 8278 0f74 90010000 		.4byte	.LVL123
 8279 0f78 0900     		.2byte	0x9
 8280 0f7a 70       		.byte	0x70
 8281 0f7b 00       		.sleb128 0
 8282 0f7c 33       		.byte	0x33
 8283 0f7d 1A       		.byte	0x1a
 8284 0f7e 48       		.byte	0x48
 8285 0f7f 24       		.byte	0x24
 8286 0f80 30       		.byte	0x30
 8287 0f81 2E       		.byte	0x2e
 8288 0f82 9F       		.byte	0x9f
 8289 0f83 90010000 		.4byte	.LVL123
 8290 0f87 B4010000 		.4byte	.LVL125
 8291 0f8b 0B00     		.2byte	0xb
 8292 0f8d 75       		.byte	0x75
 8293 0f8e 0A       		.sleb128 10
 8294 0f8f 94       		.byte	0x94
 8295 0f90 01       		.byte	0x1
 8296 0f91 33       		.byte	0x33
 8297 0f92 1A       		.byte	0x1a
 8298 0f93 48       		.byte	0x48
 8299 0f94 24       		.byte	0x24
 8300 0f95 30       		.byte	0x30
 8301 0f96 2E       		.byte	0x2e
 8302 0f97 9F       		.byte	0x9f
 8303 0f98 B4010000 		.4byte	.LVL125
 8304 0f9c 6A020000 		.4byte	.LVL138
 8305 0fa0 0E00     		.2byte	0xe
 8306 0fa2 F3       		.byte	0xf3
 8307 0fa3 01       		.uleb128 0x1
 8308 0fa4 52       		.byte	0x52
 8309 0fa5 23       		.byte	0x23
 8310 0fa6 0A       		.uleb128 0xa
 8311 0fa7 94       		.byte	0x94
 8312 0fa8 01       		.byte	0x1
 8313 0fa9 33       		.byte	0x33
 8314 0faa 1A       		.byte	0x1a
 8315 0fab 48       		.byte	0x48
 8316 0fac 24       		.byte	0x24
 8317 0fad 30       		.byte	0x30
 8318 0fae 2E       		.byte	0x2e
 8319 0faf 9F       		.byte	0x9f
 8320 0fb0 9C040000 		.4byte	.LVL188
 8321 0fb4 C4040000 		.4byte	.LVL193
 8322 0fb8 0E00     		.2byte	0xe
ARM GAS  C:\Users\pearlstl\AppData\Local\Temp\ccmYHcOW.s 			page 176


 8323 0fba F3       		.byte	0xf3
 8324 0fbb 01       		.uleb128 0x1
 8325 0fbc 52       		.byte	0x52
 8326 0fbd 23       		.byte	0x23
 8327 0fbe 0A       		.uleb128 0xa
 8328 0fbf 94       		.byte	0x94
 8329 0fc0 01       		.byte	0x1
 8330 0fc1 33       		.byte	0x33
 8331 0fc2 1A       		.byte	0x1a
 8332 0fc3 48       		.byte	0x48
 8333 0fc4 24       		.byte	0x24
 8334 0fc5 30       		.byte	0x30
 8335 0fc6 2E       		.byte	0x2e
 8336 0fc7 9F       		.byte	0x9f
 8337 0fc8 C4040000 		.4byte	.LVL193
 8338 0fcc DA040000 		.4byte	.LVL195
 8339 0fd0 0900     		.2byte	0x9
 8340 0fd2 70       		.byte	0x70
 8341 0fd3 00       		.sleb128 0
 8342 0fd4 33       		.byte	0x33
 8343 0fd5 1A       		.byte	0x1a
 8344 0fd6 48       		.byte	0x48
 8345 0fd7 24       		.byte	0x24
 8346 0fd8 30       		.byte	0x30
 8347 0fd9 2E       		.byte	0x2e
 8348 0fda 9F       		.byte	0x9f
 8349 0fdb DA040000 		.4byte	.LVL195
 8350 0fdf E2040000 		.4byte	.LVL196
 8351 0fe3 0B00     		.2byte	0xb
 8352 0fe5 75       		.byte	0x75
 8353 0fe6 0A       		.sleb128 10
 8354 0fe7 94       		.byte	0x94
 8355 0fe8 01       		.byte	0x1
 8356 0fe9 33       		.byte	0x33
 8357 0fea 1A       		.byte	0x1a
 8358 0feb 48       		.byte	0x48
 8359 0fec 24       		.byte	0x24
 8360 0fed 30       		.byte	0x30
 8361 0fee 2E       		.byte	0x2e
 8362 0fef 9F       		.byte	0x9f
 8363 0ff0 E2040000 		.4byte	.LVL196
 8364 0ff4 F8040000 		.4byte	.LVL197
 8365 0ff8 0E00     		.2byte	0xe
 8366 0ffa F3       		.byte	0xf3
 8367 0ffb 01       		.uleb128 0x1
 8368 0ffc 52       		.byte	0x52
 8369 0ffd 23       		.byte	0x23
 8370 0ffe 0A       		.uleb128 0xa
 8371 0fff 94       		.byte	0x94
 8372 1000 01       		.byte	0x1
 8373 1001 33       		.byte	0x33
 8374 1002 1A       		.byte	0x1a
 8375 1003 48       		.byte	0x48
 8376 1004 24       		.byte	0x24
 8377 1005 30       		.byte	0x30
 8378 1006 2E       		.byte	0x2e
 8379 1007 9F       		.byte	0x9f
ARM GAS  C:\Users\pearlstl\AppData\Local\Temp\ccmYHcOW.s 			page 177


 8380 1008 F8040000 		.4byte	.LVL197
 8381 100c 14050000 		.4byte	.LFE33
 8382 1010 0900     		.2byte	0x9
 8383 1012 70       		.byte	0x70
 8384 1013 00       		.sleb128 0
 8385 1014 33       		.byte	0x33
 8386 1015 1A       		.byte	0x1a
 8387 1016 48       		.byte	0x48
 8388 1017 24       		.byte	0x24
 8389 1018 30       		.byte	0x30
 8390 1019 2E       		.byte	0x2e
 8391 101a 9F       		.byte	0x9f
 8392 101b 00000000 		.4byte	0
 8393 101f 00000000 		.4byte	0
 8394              	.LLST50:
 8395 1023 9C000000 		.4byte	.LVL97
 8396 1027 D8000000 		.4byte	.LVL105
 8397 102b 0300     		.2byte	0x3
 8398 102d 91       		.byte	0x91
 8399 102e 9C7F     		.sleb128 -100
 8400 1030 9C010000 		.4byte	.LVL124
 8401 1034 78030000 		.4byte	.LVL163
 8402 1038 0300     		.2byte	0x3
 8403 103a 91       		.byte	0x91
 8404 103b 9C7F     		.sleb128 -100
 8405 103d 90030000 		.4byte	.LVL165
 8406 1041 FA030000 		.4byte	.LVL171
 8407 1045 0300     		.2byte	0x3
 8408 1047 91       		.byte	0x91
 8409 1048 9C7F     		.sleb128 -100
 8410 104a 0C040000 		.4byte	.LVL174
 8411 104e C4040000 		.4byte	.LVL193
 8412 1052 0300     		.2byte	0x3
 8413 1054 91       		.byte	0x91
 8414 1055 9C7F     		.sleb128 -100
 8415 1057 D8040000 		.4byte	.LVL194
 8416 105b F8040000 		.4byte	.LVL197
 8417 105f 0300     		.2byte	0x3
 8418 1061 91       		.byte	0x91
 8419 1062 9C7F     		.sleb128 -100
 8420 1064 00000000 		.4byte	0
 8421 1068 00000000 		.4byte	0
 8422              	.LLST51:
 8423 106c B4010000 		.4byte	.LVL125
 8424 1070 68020000 		.4byte	.LVL137
 8425 1074 0100     		.2byte	0x1
 8426 1076 5B       		.byte	0x5b
 8427 1077 9C040000 		.4byte	.LVL188
 8428 107b BE040000 		.4byte	.LVL192
 8429 107f 0100     		.2byte	0x1
 8430 1081 5B       		.byte	0x5b
 8431 1082 00000000 		.4byte	0
 8432 1086 00000000 		.4byte	0
 8433              	.LLST52:
 8434 108a CA010000 		.4byte	.LVL127
 8435 108e 6A020000 		.4byte	.LVL138
 8436 1092 0300     		.2byte	0x3
ARM GAS  C:\Users\pearlstl\AppData\Local\Temp\ccmYHcOW.s 			page 178


 8437 1094 91       		.byte	0x91
 8438 1095 F47E     		.sleb128 -140
 8439 1097 9C040000 		.4byte	.LVL188
 8440 109b A8040000 		.4byte	.LVL190
 8441 109f 0300     		.2byte	0x3
 8442 10a1 91       		.byte	0x91
 8443 10a2 F47E     		.sleb128 -140
 8444 10a4 00000000 		.4byte	0
 8445 10a8 00000000 		.4byte	0
 8446              	.LLST53:
 8447 10ac DE010000 		.4byte	.LVL128
 8448 10b0 E2010000 		.4byte	.LVL129
 8449 10b4 0300     		.2byte	0x3
 8450 10b6 91       		.byte	0x91
 8451 10b7 987F     		.sleb128 -104
 8452 10b9 00000000 		.4byte	0
 8453 10bd 00000000 		.4byte	0
 8454              	.LLST54:
 8455 10c1 36020000 		.4byte	.LVL134
 8456 10c5 6A020000 		.4byte	.LVL138
 8457 10c9 0100     		.2byte	0x1
 8458 10cb 5C       		.byte	0x5c
 8459 10cc 00000000 		.4byte	0
 8460 10d0 00000000 		.4byte	0
 8461              	.LLST55:
 8462 10d4 A0020000 		.4byte	.LVL140
 8463 10d8 B2020000 		.4byte	.LVL141
 8464 10dc 0100     		.2byte	0x1
 8465 10de 52       		.byte	0x52
 8466 10df B2020000 		.4byte	.LVL141
 8467 10e3 CA020000 		.4byte	.LVL143
 8468 10e7 1300     		.2byte	0x13
 8469 10e9 79       		.byte	0x79
 8470 10ea 00       		.sleb128 0
 8471 10eb 94       		.byte	0x94
 8472 10ec 01       		.byte	0x1
 8473 10ed 08       		.byte	0x8
 8474 10ee FF       		.byte	0xff
 8475 10ef 1A       		.byte	0x1a
 8476 10f0 75       		.byte	0x75
 8477 10f1 00       		.sleb128 0
 8478 10f2 1A       		.byte	0x1a
 8479 10f3 38       		.byte	0x38
 8480 10f4 7A       		.byte	0x7a
 8481 10f5 00       		.sleb128 0
 8482 10f6 1C       		.byte	0x1c
 8483 10f7 73       		.byte	0x73
 8484 10f8 00       		.sleb128 0
 8485 10f9 1C       		.byte	0x1c
 8486 10fa 26       		.byte	0x26
 8487 10fb 9F       		.byte	0x9f
 8488 10fc 28030000 		.4byte	.LVL155
 8489 1100 3C030000 		.4byte	.LVL156
 8490 1104 0100     		.2byte	0x1
 8491 1106 52       		.byte	0x52
 8492 1107 3C030000 		.4byte	.LVL156
 8493 110b 5A030000 		.4byte	.LVL160
ARM GAS  C:\Users\pearlstl\AppData\Local\Temp\ccmYHcOW.s 			page 179


 8494 110f 1300     		.2byte	0x13
 8495 1111 79       		.byte	0x79
 8496 1112 00       		.sleb128 0
 8497 1113 94       		.byte	0x94
 8498 1114 01       		.byte	0x1
 8499 1115 08       		.byte	0x8
 8500 1116 FF       		.byte	0xff
 8501 1117 1A       		.byte	0x1a
 8502 1118 75       		.byte	0x75
 8503 1119 00       		.sleb128 0
 8504 111a 1A       		.byte	0x1a
 8505 111b 38       		.byte	0x38
 8506 111c 7A       		.byte	0x7a
 8507 111d 00       		.sleb128 0
 8508 111e 1C       		.byte	0x1c
 8509 111f 73       		.byte	0x73
 8510 1120 00       		.sleb128 0
 8511 1121 1C       		.byte	0x1c
 8512 1122 26       		.byte	0x26
 8513 1123 9F       		.byte	0x9f
 8514 1124 0C040000 		.4byte	.LVL174
 8515 1128 20040000 		.4byte	.LVL175
 8516 112c 1300     		.2byte	0x13
 8517 112e 79       		.byte	0x79
 8518 112f 00       		.sleb128 0
 8519 1130 94       		.byte	0x94
 8520 1131 01       		.byte	0x1
 8521 1132 08       		.byte	0x8
 8522 1133 FF       		.byte	0xff
 8523 1134 1A       		.byte	0x1a
 8524 1135 75       		.byte	0x75
 8525 1136 00       		.sleb128 0
 8526 1137 1A       		.byte	0x1a
 8527 1138 38       		.byte	0x38
 8528 1139 7A       		.byte	0x7a
 8529 113a 00       		.sleb128 0
 8530 113b 1C       		.byte	0x1c
 8531 113c 73       		.byte	0x73
 8532 113d 00       		.sleb128 0
 8533 113e 1C       		.byte	0x1c
 8534 113f 26       		.byte	0x26
 8535 1140 9F       		.byte	0x9f
 8536 1141 26040000 		.4byte	.LVL176
 8537 1145 30040000 		.4byte	.LVL177
 8538 1149 0100     		.2byte	0x1
 8539 114b 52       		.byte	0x52
 8540 114c 30040000 		.4byte	.LVL177
 8541 1150 32040000 		.4byte	.LVL178
 8542 1154 1300     		.2byte	0x13
 8543 1156 79       		.byte	0x79
 8544 1157 00       		.sleb128 0
 8545 1158 94       		.byte	0x94
 8546 1159 01       		.byte	0x1
 8547 115a 08       		.byte	0x8
 8548 115b FF       		.byte	0xff
 8549 115c 1A       		.byte	0x1a
 8550 115d 75       		.byte	0x75
ARM GAS  C:\Users\pearlstl\AppData\Local\Temp\ccmYHcOW.s 			page 180


 8551 115e 00       		.sleb128 0
 8552 115f 1A       		.byte	0x1a
 8553 1160 38       		.byte	0x38
 8554 1161 7A       		.byte	0x7a
 8555 1162 00       		.sleb128 0
 8556 1163 1C       		.byte	0x1c
 8557 1164 73       		.byte	0x73
 8558 1165 00       		.sleb128 0
 8559 1166 1C       		.byte	0x1c
 8560 1167 26       		.byte	0x26
 8561 1168 9F       		.byte	0x9f
 8562 1169 32040000 		.4byte	.LVL178
 8563 116d 3A040000 		.4byte	.LVL179
 8564 1171 0100     		.2byte	0x1
 8565 1173 52       		.byte	0x52
 8566 1174 3A040000 		.4byte	.LVL179
 8567 1178 3C040000 		.4byte	.LVL180
 8568 117c 1300     		.2byte	0x13
 8569 117e 79       		.byte	0x79
 8570 117f 00       		.sleb128 0
 8571 1180 94       		.byte	0x94
 8572 1181 01       		.byte	0x1
 8573 1182 08       		.byte	0x8
 8574 1183 FF       		.byte	0xff
 8575 1184 1A       		.byte	0x1a
 8576 1185 75       		.byte	0x75
 8577 1186 00       		.sleb128 0
 8578 1187 1A       		.byte	0x1a
 8579 1188 38       		.byte	0x38
 8580 1189 7A       		.byte	0x7a
 8581 118a 00       		.sleb128 0
 8582 118b 1C       		.byte	0x1c
 8583 118c 73       		.byte	0x73
 8584 118d 00       		.sleb128 0
 8585 118e 1C       		.byte	0x1c
 8586 118f 26       		.byte	0x26
 8587 1190 9F       		.byte	0x9f
 8588 1191 42040000 		.4byte	.LVL182
 8589 1195 58040000 		.4byte	.LVL184
 8590 1199 1300     		.2byte	0x13
 8591 119b 79       		.byte	0x79
 8592 119c 00       		.sleb128 0
 8593 119d 94       		.byte	0x94
 8594 119e 01       		.byte	0x1
 8595 119f 08       		.byte	0x8
 8596 11a0 FF       		.byte	0xff
 8597 11a1 1A       		.byte	0x1a
 8598 11a2 75       		.byte	0x75
 8599 11a3 00       		.sleb128 0
 8600 11a4 1A       		.byte	0x1a
 8601 11a5 38       		.byte	0x38
 8602 11a6 7A       		.byte	0x7a
 8603 11a7 00       		.sleb128 0
 8604 11a8 1C       		.byte	0x1c
 8605 11a9 73       		.byte	0x73
 8606 11aa 00       		.sleb128 0
 8607 11ab 1C       		.byte	0x1c
ARM GAS  C:\Users\pearlstl\AppData\Local\Temp\ccmYHcOW.s 			page 181


 8608 11ac 26       		.byte	0x26
 8609 11ad 9F       		.byte	0x9f
 8610 11ae 00000000 		.4byte	0
 8611 11b2 00000000 		.4byte	0
 8612              	.LLST56:
 8613 11b6 3C020000 		.4byte	.LVL135
 8614 11ba 6A020000 		.4byte	.LVL138
 8615 11be 0200     		.2byte	0x2
 8616 11c0 30       		.byte	0x30
 8617 11c1 9F       		.byte	0x9f
 8618 11c2 BC020000 		.4byte	.LVL142
 8619 11c6 D0020000 		.4byte	.LVL144
 8620 11ca 0100     		.2byte	0x1
 8621 11cc 52       		.byte	0x52
 8622 11cd 0C040000 		.4byte	.LVL174
 8623 11d1 26040000 		.4byte	.LVL176
 8624 11d5 0100     		.2byte	0x1
 8625 11d7 52       		.byte	0x52
 8626 11d8 42040000 		.4byte	.LVL182
 8627 11dc 80040000 		.4byte	.LVL186
 8628 11e0 0100     		.2byte	0x1
 8629 11e2 52       		.byte	0x52
 8630 11e3 00000000 		.4byte	0
 8631 11e7 00000000 		.4byte	0
 8632              	.LLST57:
 8633 11eb 9C000000 		.4byte	.LVL97
 8634 11ef B0000000 		.4byte	.LVL99
 8635 11f3 0100     		.2byte	0x1
 8636 11f5 5A       		.byte	0x5a
 8637 11f6 B6000000 		.4byte	.LVL100
 8638 11fa D8000000 		.4byte	.LVL105
 8639 11fe 0100     		.2byte	0x1
 8640 1200 5A       		.byte	0x5a
 8641 1201 40020000 		.4byte	.LVL136
 8642 1205 00030000 		.4byte	.LVL148
 8643 1209 0100     		.2byte	0x1
 8644 120b 5A       		.byte	0x5a
 8645 120c 06030000 		.4byte	.LVL150
 8646 1210 78030000 		.4byte	.LVL163
 8647 1214 0100     		.2byte	0x1
 8648 1216 5A       		.byte	0x5a
 8649 1217 90030000 		.4byte	.LVL165
 8650 121b 9C030000 		.4byte	.LVL167
 8651 121f 0200     		.2byte	0x2
 8652 1221 30       		.byte	0x30
 8653 1222 9F       		.byte	0x9f
 8654 1223 9C030000 		.4byte	.LVL167
 8655 1227 FA030000 		.4byte	.LVL171
 8656 122b 0100     		.2byte	0x1
 8657 122d 5A       		.byte	0x5a
 8658 122e 0C040000 		.4byte	.LVL174
 8659 1232 9C040000 		.4byte	.LVL188
 8660 1236 0100     		.2byte	0x1
 8661 1238 5A       		.byte	0x5a
 8662 1239 00000000 		.4byte	0
 8663 123d 00000000 		.4byte	0
 8664              	.LLST58:
ARM GAS  C:\Users\pearlstl\AppData\Local\Temp\ccmYHcOW.s 			page 182


 8665 1241 9C000000 		.4byte	.LVL97
 8666 1245 D8000000 		.4byte	.LVL105
 8667 1249 0200     		.2byte	0x2
 8668 124b 30       		.byte	0x30
 8669 124c 9F       		.byte	0x9f
 8670 124d 40020000 		.4byte	.LVL136
 8671 1251 78030000 		.4byte	.LVL163
 8672 1255 0200     		.2byte	0x2
 8673 1257 30       		.byte	0x30
 8674 1258 9F       		.byte	0x9f
 8675 1259 90030000 		.4byte	.LVL165
 8676 125d FA030000 		.4byte	.LVL171
 8677 1261 0200     		.2byte	0x2
 8678 1263 30       		.byte	0x30
 8679 1264 9F       		.byte	0x9f
 8680 1265 0C040000 		.4byte	.LVL174
 8681 1269 9C040000 		.4byte	.LVL188
 8682 126d 0200     		.2byte	0x2
 8683 126f 30       		.byte	0x30
 8684 1270 9F       		.byte	0x9f
 8685 1271 00000000 		.4byte	0
 8686 1275 00000000 		.4byte	0
 8687              	.LLST59:
 8688 1279 9C000000 		.4byte	.LVL97
 8689 127d D8000000 		.4byte	.LVL105
 8690 1281 1D00     		.2byte	0x1d
 8691 1283 91       		.byte	0x91
 8692 1284 00       		.sleb128 0
 8693 1285 06       		.byte	0x6
 8694 1286 09       		.byte	0x9
 8695 1287 EC       		.byte	0xec
 8696 1288 24       		.byte	0x24
 8697 1289 09       		.byte	0x9
 8698 128a FC       		.byte	0xfc
 8699 128b 25       		.byte	0x25
 8700 128c 9F       		.byte	0x9f
 8701 128d 93       		.byte	0x93
 8702 128e 01       		.uleb128 0x1
 8703 128f 91       		.byte	0x91
 8704 1290 00       		.sleb128 0
 8705 1291 06       		.byte	0x6
 8706 1292 09       		.byte	0x9
 8707 1293 F4       		.byte	0xf4
 8708 1294 24       		.byte	0x24
 8709 1295 09       		.byte	0x9
 8710 1296 FC       		.byte	0xfc
 8711 1297 25       		.byte	0x25
 8712 1298 9F       		.byte	0x9f
 8713 1299 93       		.byte	0x93
 8714 129a 01       		.uleb128 0x1
 8715 129b 91       		.byte	0x91
 8716 129c 887F     		.sleb128 -120
 8717 129e 93       		.byte	0x93
 8718 129f 01       		.uleb128 0x1
 8719 12a0 40020000 		.4byte	.LVL136
 8720 12a4 78030000 		.4byte	.LVL163
 8721 12a8 1D00     		.2byte	0x1d
ARM GAS  C:\Users\pearlstl\AppData\Local\Temp\ccmYHcOW.s 			page 183


 8722 12aa 91       		.byte	0x91
 8723 12ab 00       		.sleb128 0
 8724 12ac 06       		.byte	0x6
 8725 12ad 09       		.byte	0x9
 8726 12ae EC       		.byte	0xec
 8727 12af 24       		.byte	0x24
 8728 12b0 09       		.byte	0x9
 8729 12b1 FC       		.byte	0xfc
 8730 12b2 25       		.byte	0x25
 8731 12b3 9F       		.byte	0x9f
 8732 12b4 93       		.byte	0x93
 8733 12b5 01       		.uleb128 0x1
 8734 12b6 91       		.byte	0x91
 8735 12b7 00       		.sleb128 0
 8736 12b8 06       		.byte	0x6
 8737 12b9 09       		.byte	0x9
 8738 12ba F4       		.byte	0xf4
 8739 12bb 24       		.byte	0x24
 8740 12bc 09       		.byte	0x9
 8741 12bd FC       		.byte	0xfc
 8742 12be 25       		.byte	0x25
 8743 12bf 9F       		.byte	0x9f
 8744 12c0 93       		.byte	0x93
 8745 12c1 01       		.uleb128 0x1
 8746 12c2 91       		.byte	0x91
 8747 12c3 887F     		.sleb128 -120
 8748 12c5 93       		.byte	0x93
 8749 12c6 01       		.uleb128 0x1
 8750 12c7 90030000 		.4byte	.LVL165
 8751 12cb FA030000 		.4byte	.LVL171
 8752 12cf 1D00     		.2byte	0x1d
 8753 12d1 91       		.byte	0x91
 8754 12d2 00       		.sleb128 0
 8755 12d3 06       		.byte	0x6
 8756 12d4 09       		.byte	0x9
 8757 12d5 EC       		.byte	0xec
 8758 12d6 24       		.byte	0x24
 8759 12d7 09       		.byte	0x9
 8760 12d8 FC       		.byte	0xfc
 8761 12d9 25       		.byte	0x25
 8762 12da 9F       		.byte	0x9f
 8763 12db 93       		.byte	0x93
 8764 12dc 01       		.uleb128 0x1
 8765 12dd 91       		.byte	0x91
 8766 12de 00       		.sleb128 0
 8767 12df 06       		.byte	0x6
 8768 12e0 09       		.byte	0x9
 8769 12e1 F4       		.byte	0xf4
 8770 12e2 24       		.byte	0x24
 8771 12e3 09       		.byte	0x9
 8772 12e4 FC       		.byte	0xfc
 8773 12e5 25       		.byte	0x25
 8774 12e6 9F       		.byte	0x9f
 8775 12e7 93       		.byte	0x93
 8776 12e8 01       		.uleb128 0x1
 8777 12e9 91       		.byte	0x91
 8778 12ea 887F     		.sleb128 -120
ARM GAS  C:\Users\pearlstl\AppData\Local\Temp\ccmYHcOW.s 			page 184


 8779 12ec 93       		.byte	0x93
 8780 12ed 01       		.uleb128 0x1
 8781 12ee 0C040000 		.4byte	.LVL174
 8782 12f2 9C040000 		.4byte	.LVL188
 8783 12f6 1D00     		.2byte	0x1d
 8784 12f8 91       		.byte	0x91
 8785 12f9 00       		.sleb128 0
 8786 12fa 06       		.byte	0x6
 8787 12fb 09       		.byte	0x9
 8788 12fc EC       		.byte	0xec
 8789 12fd 24       		.byte	0x24
 8790 12fe 09       		.byte	0x9
 8791 12ff FC       		.byte	0xfc
 8792 1300 25       		.byte	0x25
 8793 1301 9F       		.byte	0x9f
 8794 1302 93       		.byte	0x93
 8795 1303 01       		.uleb128 0x1
 8796 1304 91       		.byte	0x91
 8797 1305 00       		.sleb128 0
 8798 1306 06       		.byte	0x6
 8799 1307 09       		.byte	0x9
 8800 1308 F4       		.byte	0xf4
 8801 1309 24       		.byte	0x24
 8802 130a 09       		.byte	0x9
 8803 130b FC       		.byte	0xfc
 8804 130c 25       		.byte	0x25
 8805 130d 9F       		.byte	0x9f
 8806 130e 93       		.byte	0x93
 8807 130f 01       		.uleb128 0x1
 8808 1310 91       		.byte	0x91
 8809 1311 887F     		.sleb128 -120
 8810 1313 93       		.byte	0x93
 8811 1314 01       		.uleb128 0x1
 8812 1315 00000000 		.4byte	0
 8813 1319 00000000 		.4byte	0
 8814              	.LLST60:
 8815 131d 9C000000 		.4byte	.LVL97
 8816 1321 A2000000 		.4byte	.LVL98
 8817 1325 0100     		.2byte	0x1
 8818 1327 56       		.byte	0x56
 8819 1328 76020000 		.4byte	.LVL139
 8820 132c A0020000 		.4byte	.LVL140
 8821 1330 0200     		.2byte	0x2
 8822 1332 30       		.byte	0x30
 8823 1333 9F       		.byte	0x9f
 8824 1334 A0020000 		.4byte	.LVL140
 8825 1338 4C030000 		.4byte	.LVL158
 8826 133c 0100     		.2byte	0x1
 8827 133e 56       		.byte	0x56
 8828 133f 4E030000 		.4byte	.LVL159
 8829 1343 6C030000 		.4byte	.LVL161
 8830 1347 0100     		.2byte	0x1
 8831 1349 56       		.byte	0x56
 8832 134a 70030000 		.4byte	.LVL162
 8833 134e 78030000 		.4byte	.LVL163
 8834 1352 0200     		.2byte	0x2
 8835 1354 30       		.byte	0x30
ARM GAS  C:\Users\pearlstl\AppData\Local\Temp\ccmYHcOW.s 			page 185


 8836 1355 9F       		.byte	0x9f
 8837 1356 90030000 		.4byte	.LVL165
 8838 135a B4030000 		.4byte	.LVL169
 8839 135e 0100     		.2byte	0x1
 8840 1360 56       		.byte	0x56
 8841 1361 0C040000 		.4byte	.LVL174
 8842 1365 3C040000 		.4byte	.LVL180
 8843 1369 0100     		.2byte	0x1
 8844 136b 56       		.byte	0x56
 8845 136c 42040000 		.4byte	.LVL182
 8846 1370 9C040000 		.4byte	.LVL188
 8847 1374 0100     		.2byte	0x1
 8848 1376 56       		.byte	0x56
 8849 1377 00000000 		.4byte	0
 8850 137b 00000000 		.4byte	0
 8851              	.LLST61:
 8852 137f 9C000000 		.4byte	.LVL97
 8853 1383 DE000000 		.4byte	.LVL106
 8854 1387 0100     		.2byte	0x1
 8855 1389 5B       		.byte	0x5b
 8856 138a 6A020000 		.4byte	.LVL138
 8857 138e 78030000 		.4byte	.LVL163
 8858 1392 0100     		.2byte	0x1
 8859 1394 5B       		.byte	0x5b
 8860 1395 90030000 		.4byte	.LVL165
 8861 1399 FA030000 		.4byte	.LVL171
 8862 139d 0100     		.2byte	0x1
 8863 139f 5B       		.byte	0x5b
 8864 13a0 0C040000 		.4byte	.LVL174
 8865 13a4 9C040000 		.4byte	.LVL188
 8866 13a8 0100     		.2byte	0x1
 8867 13aa 5B       		.byte	0x5b
 8868 13ab 00000000 		.4byte	0
 8869 13af 00000000 		.4byte	0
 8870              	.LLST62:
 8871 13b3 A4030000 		.4byte	.LVL168
 8872 13b7 D4030000 		.4byte	.LVL170
 8873 13bb 0600     		.2byte	0x6
 8874 13bd 78       		.byte	0x78
 8875 13be 02       		.sleb128 2
 8876 13bf 93       		.byte	0x93
 8877 13c0 01       		.uleb128 0x1
 8878 13c1 93       		.byte	0x93
 8879 13c2 02       		.uleb128 0x2
 8880 13c3 D4030000 		.4byte	.LVL170
 8881 13c7 FA030000 		.4byte	.LVL171
 8882 13cb 0900     		.2byte	0x9
 8883 13cd 78       		.byte	0x78
 8884 13ce 02       		.sleb128 2
 8885 13cf 93       		.byte	0x93
 8886 13d0 01       		.uleb128 0x1
 8887 13d1 56       		.byte	0x56
 8888 13d2 93       		.byte	0x93
 8889 13d3 01       		.uleb128 0x1
 8890 13d4 93       		.byte	0x93
 8891 13d5 01       		.uleb128 0x1
 8892 13d6 00000000 		.4byte	0
ARM GAS  C:\Users\pearlstl\AppData\Local\Temp\ccmYHcOW.s 			page 186


 8893 13da 00000000 		.4byte	0
 8894              	.LLST63:
 8895 13de 48040000 		.4byte	.LVL183
 8896 13e2 80040000 		.4byte	.LVL186
 8897 13e6 0100     		.2byte	0x1
 8898 13e8 52       		.byte	0x52
 8899 13e9 00000000 		.4byte	0
 8900 13ed 00000000 		.4byte	0
 8901              	.LLST64:
 8902 13f1 9C000000 		.4byte	.LVL97
 8903 13f5 D8000000 		.4byte	.LVL105
 8904 13f9 0700     		.2byte	0x7
 8905 13fb 91       		.byte	0x91
 8906 13fc 847F     		.sleb128 -124
 8907 13fe 06       		.byte	0x6
 8908 13ff 23       		.byte	0x23
 8909 1400 10       		.uleb128 0x10
 8910 1401 9F       		.byte	0x9f
 8911 1402 5C010000 		.4byte	.LVL118
 8912 1406 5E010000 		.4byte	.LVL119
 8913 140a 0300     		.2byte	0x3
 8914 140c 70       		.byte	0x70
 8915 140d 10       		.sleb128 16
 8916 140e 9F       		.byte	0x9f
 8917 140f 5E010000 		.4byte	.LVL119
 8918 1413 60010000 		.4byte	.LVL120
 8919 1417 0300     		.2byte	0x3
 8920 1419 72       		.byte	0x72
 8921 141a 10       		.sleb128 16
 8922 141b 9F       		.byte	0x9f
 8923 141c 60010000 		.4byte	.LVL120
 8924 1420 78030000 		.4byte	.LVL163
 8925 1424 0700     		.2byte	0x7
 8926 1426 91       		.byte	0x91
 8927 1427 847F     		.sleb128 -124
 8928 1429 06       		.byte	0x6
 8929 142a 23       		.byte	0x23
 8930 142b 10       		.uleb128 0x10
 8931 142c 9F       		.byte	0x9f
 8932 142d 90030000 		.4byte	.LVL165
 8933 1431 FA030000 		.4byte	.LVL171
 8934 1435 0700     		.2byte	0x7
 8935 1437 91       		.byte	0x91
 8936 1438 847F     		.sleb128 -124
 8937 143a 06       		.byte	0x6
 8938 143b 23       		.byte	0x23
 8939 143c 10       		.uleb128 0x10
 8940 143d 9F       		.byte	0x9f
 8941 143e 0C040000 		.4byte	.LVL174
 8942 1442 14050000 		.4byte	.LFE33
 8943 1446 0700     		.2byte	0x7
 8944 1448 91       		.byte	0x91
 8945 1449 847F     		.sleb128 -124
 8946 144b 06       		.byte	0x6
 8947 144c 23       		.byte	0x23
 8948 144d 10       		.uleb128 0x10
 8949 144e 9F       		.byte	0x9f
ARM GAS  C:\Users\pearlstl\AppData\Local\Temp\ccmYHcOW.s 			page 187


 8950 144f 00000000 		.4byte	0
 8951 1453 00000000 		.4byte	0
 8952              	.LLST66:
 8953 1457 00000000 		.4byte	.LVL198
 8954 145b 18000000 		.4byte	.LVL200
 8955 145f 0100     		.2byte	0x1
 8956 1461 50       		.byte	0x50
 8957 1462 18000000 		.4byte	.LVL200
 8958 1466 48000000 		.4byte	.LVL207
 8959 146a 0100     		.2byte	0x1
 8960 146c 54       		.byte	0x54
 8961 146d 48000000 		.4byte	.LVL207
 8962 1471 4E000000 		.4byte	.LVL208
 8963 1475 0400     		.2byte	0x4
 8964 1477 F3       		.byte	0xf3
 8965 1478 01       		.uleb128 0x1
 8966 1479 50       		.byte	0x50
 8967 147a 9F       		.byte	0x9f
 8968 147b 4E000000 		.4byte	.LVL208
 8969 147f 66000000 		.4byte	.LVL211
 8970 1483 0100     		.2byte	0x1
 8971 1485 54       		.byte	0x54
 8972 1486 66000000 		.4byte	.LVL211
 8973 148a F4030000 		.4byte	.LFE34
 8974 148e 0400     		.2byte	0x4
 8975 1490 F3       		.byte	0xf3
 8976 1491 01       		.uleb128 0x1
 8977 1492 50       		.byte	0x50
 8978 1493 9F       		.byte	0x9f
 8979 1494 00000000 		.4byte	0
 8980 1498 00000000 		.4byte	0
 8981              	.LLST67:
 8982 149c 00000000 		.4byte	.LVL198
 8983 14a0 32000000 		.4byte	.LVL204
 8984 14a4 0100     		.2byte	0x1
 8985 14a6 51       		.byte	0x51
 8986 14a7 32000000 		.4byte	.LVL204
 8987 14ab 45000000 		.4byte	.LVL206-1
 8988 14af 0100     		.2byte	0x1
 8989 14b1 52       		.byte	0x52
 8990 14b2 45000000 		.4byte	.LVL206-1
 8991 14b6 F4030000 		.4byte	.LFE34
 8992 14ba 0400     		.2byte	0x4
 8993 14bc F3       		.byte	0xf3
 8994 14bd 01       		.uleb128 0x1
 8995 14be 51       		.byte	0x51
 8996 14bf 9F       		.byte	0x9f
 8997 14c0 00000000 		.4byte	0
 8998 14c4 00000000 		.4byte	0
 8999              	.LLST68:
 9000 14c8 00000000 		.4byte	.LVL198
 9001 14cc 30000000 		.4byte	.LVL203
 9002 14d0 0100     		.2byte	0x1
 9003 14d2 52       		.byte	0x52
 9004 14d3 30000000 		.4byte	.LVL203
 9005 14d7 48000000 		.4byte	.LVL207
 9006 14db 0100     		.2byte	0x1
ARM GAS  C:\Users\pearlstl\AppData\Local\Temp\ccmYHcOW.s 			page 188


 9007 14dd 56       		.byte	0x56
 9008 14de 4E000000 		.4byte	.LVL208
 9009 14e2 74000000 		.4byte	.LVL212
 9010 14e6 0100     		.2byte	0x1
 9011 14e8 56       		.byte	0x56
 9012 14e9 74000000 		.4byte	.LVL212
 9013 14ed 6C010000 		.4byte	.LVL228
 9014 14f1 0300     		.2byte	0x3
 9015 14f3 91       		.byte	0x91
 9016 14f4 B07F     		.sleb128 -80
 9017 14f6 3A020000 		.4byte	.LVL253
 9018 14fa 4C020000 		.4byte	.LVL254
 9019 14fe 0300     		.2byte	0x3
 9020 1500 91       		.byte	0x91
 9021 1501 B07F     		.sleb128 -80
 9022 1503 36030000 		.4byte	.LVL281
 9023 1507 70030000 		.4byte	.LVL284
 9024 150b 0300     		.2byte	0x3
 9025 150d 91       		.byte	0x91
 9026 150e B07F     		.sleb128 -80
 9027 1510 70030000 		.4byte	.LVL284
 9028 1514 A8030000 		.4byte	.LVL291
 9029 1518 0700     		.2byte	0x7
 9030 151a 91       		.byte	0x91
 9031 151b 947F     		.sleb128 -108
 9032 151d 06       		.byte	0x6
 9033 151e 23       		.byte	0x23
 9034 151f 04       		.uleb128 0x4
 9035 1520 9F       		.byte	0x9f
 9036 1521 A8030000 		.4byte	.LVL291
 9037 1525 BC030000 		.4byte	.LVL294
 9038 1529 0E00     		.2byte	0xe
 9039 152b 91       		.byte	0x91
 9040 152c 987F     		.sleb128 -104
 9041 152e 06       		.byte	0x6
 9042 152f 32       		.byte	0x32
 9043 1530 24       		.byte	0x24
 9044 1531 91       		.byte	0x91
 9045 1532 947F     		.sleb128 -108
 9046 1534 06       		.byte	0x6
 9047 1535 22       		.byte	0x22
 9048 1536 23       		.byte	0x23
 9049 1537 04       		.uleb128 0x4
 9050 1538 9F       		.byte	0x9f
 9051 1539 C0030000 		.4byte	.LVL295
 9052 153d D6030000 		.4byte	.LVL296
 9053 1541 0300     		.2byte	0x3
 9054 1543 91       		.byte	0x91
 9055 1544 B07F     		.sleb128 -80
 9056 1546 D6030000 		.4byte	.LVL296
 9057 154a F4030000 		.4byte	.LFE34
 9058 154e 0100     		.2byte	0x1
 9059 1550 57       		.byte	0x57
 9060 1551 00000000 		.4byte	0
 9061 1555 00000000 		.4byte	0
 9062              	.LLST69:
 9063 1559 00000000 		.4byte	.LVL198
ARM GAS  C:\Users\pearlstl\AppData\Local\Temp\ccmYHcOW.s 			page 189


 9064 155d 0C000000 		.4byte	.LVL199
 9065 1561 0100     		.2byte	0x1
 9066 1563 53       		.byte	0x53
 9067 1564 0C000000 		.4byte	.LVL199
 9068 1568 42000000 		.4byte	.LVL205
 9069 156c 0400     		.2byte	0x4
 9070 156e F3       		.byte	0xf3
 9071 156f 01       		.uleb128 0x1
 9072 1570 53       		.byte	0x53
 9073 1571 9F       		.byte	0x9f
 9074 1572 42000000 		.4byte	.LVL205
 9075 1576 48000000 		.4byte	.LVL207
 9076 157a 0100     		.2byte	0x1
 9077 157c 5A       		.byte	0x5a
 9078 157d 4E000000 		.4byte	.LVL208
 9079 1581 5A010000 		.4byte	.LVL225
 9080 1585 0100     		.2byte	0x1
 9081 1587 5A       		.byte	0x5a
 9082 1588 5A010000 		.4byte	.LVL225
 9083 158c 5E010000 		.4byte	.LVL226
 9084 1590 0300     		.2byte	0x3
 9085 1592 91       		.byte	0x91
 9086 1593 987F     		.sleb128 -104
 9087 1595 36030000 		.4byte	.LVL281
 9088 1599 70030000 		.4byte	.LVL284
 9089 159d 0100     		.2byte	0x1
 9090 159f 5A       		.byte	0x5a
 9091 15a0 70030000 		.4byte	.LVL284
 9092 15a4 C0030000 		.4byte	.LVL295
 9093 15a8 0300     		.2byte	0x3
 9094 15aa 91       		.byte	0x91
 9095 15ab 907F     		.sleb128 -112
 9096 15ad C0030000 		.4byte	.LVL295
 9097 15b1 F4030000 		.4byte	.LFE34
 9098 15b5 0100     		.2byte	0x1
 9099 15b7 5A       		.byte	0x5a
 9100 15b8 00000000 		.4byte	0
 9101 15bc 00000000 		.4byte	0
 9102              	.LLST70:
 9103 15c0 00000000 		.4byte	.LVL198
 9104 15c4 4E000000 		.4byte	.LVL208
 9105 15c8 0200     		.2byte	0x2
 9106 15ca 91       		.byte	0x91
 9107 15cb 00       		.sleb128 0
 9108 15cc 4E000000 		.4byte	.LVL208
 9109 15d0 F4030000 		.4byte	.LFE34
 9110 15d4 0200     		.2byte	0x2
 9111 15d6 91       		.byte	0x91
 9112 15d7 00       		.sleb128 0
 9113 15d8 00000000 		.4byte	0
 9114 15dc 00000000 		.4byte	0
 9115              	.LLST71:
 9116 15e0 00000000 		.4byte	.LVL198
 9117 15e4 4E000000 		.4byte	.LVL208
 9118 15e8 0200     		.2byte	0x2
 9119 15ea 91       		.byte	0x91
 9120 15eb 04       		.sleb128 4
ARM GAS  C:\Users\pearlstl\AppData\Local\Temp\ccmYHcOW.s 			page 190


 9121 15ec 4E000000 		.4byte	.LVL208
 9122 15f0 F4030000 		.4byte	.LFE34
 9123 15f4 0200     		.2byte	0x2
 9124 15f6 91       		.byte	0x91
 9125 15f7 04       		.sleb128 4
 9126 15f8 00000000 		.4byte	0
 9127 15fc 00000000 		.4byte	0
 9128              	.LLST72:
 9129 1600 00000000 		.4byte	.LVL198
 9130 1604 1A000000 		.4byte	.LVL201
 9131 1608 0200     		.2byte	0x2
 9132 160a 91       		.byte	0x91
 9133 160b 08       		.sleb128 8
 9134 160c 1A000000 		.4byte	.LVL201
 9135 1610 22000000 		.4byte	.LVL202
 9136 1614 0600     		.2byte	0x6
 9137 1616 91       		.byte	0x91
 9138 1617 08       		.sleb128 8
 9139 1618 93       		.byte	0x93
 9140 1619 01       		.uleb128 0x1
 9141 161a 93       		.byte	0x93
 9142 161b 03       		.uleb128 0x3
 9143 161c 4E000000 		.4byte	.LVL208
 9144 1620 5E010000 		.4byte	.LVL226
 9145 1624 0600     		.2byte	0x6
 9146 1626 91       		.byte	0x91
 9147 1627 08       		.sleb128 8
 9148 1628 93       		.byte	0x93
 9149 1629 01       		.uleb128 0x1
 9150 162a 93       		.byte	0x93
 9151 162b 03       		.uleb128 0x3
 9152 162c 36030000 		.4byte	.LVL281
 9153 1630 F4030000 		.4byte	.LFE34
 9154 1634 0600     		.2byte	0x6
 9155 1636 91       		.byte	0x91
 9156 1637 08       		.sleb128 8
 9157 1638 93       		.byte	0x93
 9158 1639 01       		.uleb128 0x1
 9159 163a 93       		.byte	0x93
 9160 163b 03       		.uleb128 0x3
 9161 163c 00000000 		.4byte	0
 9162 1640 00000000 		.4byte	0
 9163              	.LLST73:
 9164 1644 00000000 		.4byte	.LVL198
 9165 1648 4E000000 		.4byte	.LVL208
 9166 164c 0200     		.2byte	0x2
 9167 164e 91       		.byte	0x91
 9168 164f 0C       		.sleb128 12
 9169 1650 4E000000 		.4byte	.LVL208
 9170 1654 F4030000 		.4byte	.LFE34
 9171 1658 0200     		.2byte	0x2
 9172 165a 91       		.byte	0x91
 9173 165b 0C       		.sleb128 12
 9174 165c 00000000 		.4byte	0
 9175 1660 00000000 		.4byte	0
 9176              	.LLST74:
 9177 1664 46000000 		.4byte	.LVL206
ARM GAS  C:\Users\pearlstl\AppData\Local\Temp\ccmYHcOW.s 			page 191


 9178 1668 48000000 		.4byte	.LVL207
 9179 166c 0100     		.2byte	0x1
 9180 166e 50       		.byte	0x50
 9181 166f 4E000000 		.4byte	.LVL208
 9182 1673 58000000 		.4byte	.LVL210
 9183 1677 0100     		.2byte	0x1
 9184 1679 50       		.byte	0x50
 9185 167a 00000000 		.4byte	0
 9186 167e 00000000 		.4byte	0
 9187              	.LLST75:
 9188 1682 8C000000 		.4byte	.LVL215
 9189 1686 8F000000 		.4byte	.LVL216-1
 9190 168a 0100     		.2byte	0x1
 9191 168c 50       		.byte	0x50
 9192 168d 8F000000 		.4byte	.LVL216-1
 9193 1691 F4030000 		.4byte	.LFE34
 9194 1695 0100     		.2byte	0x1
 9195 1697 58       		.byte	0x58
 9196 1698 00000000 		.4byte	0
 9197 169c 00000000 		.4byte	0
 9198              	.LLST76:
 9199 16a0 90000000 		.4byte	.LVL216
 9200 16a4 9A000000 		.4byte	.LVL217
 9201 16a8 0100     		.2byte	0x1
 9202 16aa 50       		.byte	0x50
 9203 16ab 9A000000 		.4byte	.LVL217
 9204 16af A8000000 		.4byte	.LVL218
 9205 16b3 0100     		.2byte	0x1
 9206 16b5 53       		.byte	0x53
 9207 16b6 A8000000 		.4byte	.LVL218
 9208 16ba 5E010000 		.4byte	.LVL226
 9209 16be 0300     		.2byte	0x3
 9210 16c0 91       		.byte	0x91
 9211 16c1 AC7F     		.sleb128 -84
 9212 16c3 36030000 		.4byte	.LVL281
 9213 16c7 F4030000 		.4byte	.LFE34
 9214 16cb 0300     		.2byte	0x3
 9215 16cd 91       		.byte	0x91
 9216 16ce AC7F     		.sleb128 -84
 9217 16d0 00000000 		.4byte	0
 9218 16d4 00000000 		.4byte	0
 9219              	.LLST77:
 9220 16d8 00010000 		.4byte	.LVL219
 9221 16dc 56010000 		.4byte	.LVL224
 9222 16e0 0100     		.2byte	0x1
 9223 16e2 53       		.byte	0x53
 9224 16e3 56010000 		.4byte	.LVL224
 9225 16e7 5E010000 		.4byte	.LVL226
 9226 16eb 0300     		.2byte	0x3
 9227 16ed 73       		.byte	0x73
 9228 16ee 7D       		.sleb128 -3
 9229 16ef 9F       		.byte	0x9f
 9230 16f0 5E010000 		.4byte	.LVL226
 9231 16f4 6C010000 		.4byte	.LVL228
 9232 16f8 0700     		.2byte	0x7
 9233 16fa 91       		.byte	0x91
 9234 16fb B47F     		.sleb128 -76
ARM GAS  C:\Users\pearlstl\AppData\Local\Temp\ccmYHcOW.s 			page 192


 9235 16fd 06       		.byte	0x6
 9236 16fe 33       		.byte	0x33
 9237 16ff 1C       		.byte	0x1c
 9238 1700 9F       		.byte	0x9f
 9239 1701 36030000 		.4byte	.LVL281
 9240 1705 60030000 		.4byte	.LVL283
 9241 1709 0100     		.2byte	0x1
 9242 170b 53       		.byte	0x53
 9243 170c 60030000 		.4byte	.LVL283
 9244 1710 70030000 		.4byte	.LVL284
 9245 1714 1000     		.2byte	0x10
 9246 1716 91       		.byte	0x91
 9247 1717 A87F     		.sleb128 -88
 9248 1719 06       		.byte	0x6
 9249 171a 7E       		.byte	0x7e
 9250 171b 00       		.sleb128 0
 9251 171c 1E       		.byte	0x1e
 9252 171d 74       		.byte	0x74
 9253 171e 00       		.sleb128 0
 9254 171f 22       		.byte	0x22
 9255 1720 32       		.byte	0x32
 9256 1721 24       		.byte	0x24
 9257 1722 76       		.byte	0x76
 9258 1723 00       		.sleb128 0
 9259 1724 22       		.byte	0x22
 9260 1725 9F       		.byte	0x9f
 9261 1726 C0030000 		.4byte	.LVL295
 9262 172a DF030000 		.4byte	.LVL297-1
 9263 172e 0100     		.2byte	0x1
 9264 1730 53       		.byte	0x53
 9265 1731 F0030000 		.4byte	.LVL301
 9266 1735 F4030000 		.4byte	.LFE34
 9267 1739 0100     		.2byte	0x1
 9268 173b 53       		.byte	0x53
 9269 173c 00000000 		.4byte	0
 9270 1740 00000000 		.4byte	0
 9271              	.LLST78:
 9272 1744 48010000 		.4byte	.LVL223
 9273 1748 6C010000 		.4byte	.LVL228
 9274 174c 0300     		.2byte	0x3
 9275 174e 91       		.byte	0x91
 9276 174f A47F     		.sleb128 -92
 9277 1751 3A020000 		.4byte	.LVL253
 9278 1755 4C020000 		.4byte	.LVL254
 9279 1759 0100     		.2byte	0x1
 9280 175b 53       		.byte	0x53
 9281 175c 56030000 		.4byte	.LVL282
 9282 1760 70030000 		.4byte	.LVL284
 9283 1764 0300     		.2byte	0x3
 9284 1766 91       		.byte	0x91
 9285 1767 A47F     		.sleb128 -92
 9286 1769 70030000 		.4byte	.LVL284
 9287 176d B0030000 		.4byte	.LVL292
 9288 1771 0100     		.2byte	0x1
 9289 1773 5A       		.byte	0x5a
 9290 1774 B4030000 		.4byte	.LVL293
 9291 1778 C0030000 		.4byte	.LVL295
ARM GAS  C:\Users\pearlstl\AppData\Local\Temp\ccmYHcOW.s 			page 193


 9292 177c 0100     		.2byte	0x1
 9293 177e 5A       		.byte	0x5a
 9294 177f C0030000 		.4byte	.LVL295
 9295 1783 D6030000 		.4byte	.LVL296
 9296 1787 0300     		.2byte	0x3
 9297 1789 91       		.byte	0x91
 9298 178a A47F     		.sleb128 -92
 9299 178c D6030000 		.4byte	.LVL296
 9300 1790 E2030000 		.4byte	.LVL298
 9301 1794 0100     		.2byte	0x1
 9302 1796 56       		.byte	0x56
 9303 1797 F0030000 		.4byte	.LVL301
 9304 179b F4030000 		.4byte	.LFE34
 9305 179f 0100     		.2byte	0x1
 9306 17a1 56       		.byte	0x56
 9307 17a2 00000000 		.4byte	0
 9308 17a6 00000000 		.4byte	0
 9309              	.LLST79:
 9310 17aa 54000000 		.4byte	.LVL209
 9311 17ae 66000000 		.4byte	.LVL211
 9312 17b2 0100     		.2byte	0x1
 9313 17b4 54       		.byte	0x54
 9314 17b5 66000000 		.4byte	.LVL211
 9315 17b9 00010000 		.4byte	.LVL219
 9316 17bd 0400     		.2byte	0x4
 9317 17bf F3       		.byte	0xf3
 9318 17c0 01       		.uleb128 0x1
 9319 17c1 50       		.byte	0x50
 9320 17c2 9F       		.byte	0x9f
 9321 17c3 00010000 		.4byte	.LVL219
 9322 17c7 F4030000 		.4byte	.LFE34
 9323 17cb 0300     		.2byte	0x3
 9324 17cd 91       		.byte	0x91
 9325 17ce 50       		.sleb128 -48
 9326 17cf 9F       		.byte	0x9f
 9327 17d0 00000000 		.4byte	0
 9328 17d4 00000000 		.4byte	0
 9329              	.LLST80:
 9330 17d8 54000000 		.4byte	.LVL209
 9331 17dc 66000000 		.4byte	.LVL211
 9332 17e0 0100     		.2byte	0x1
 9333 17e2 54       		.byte	0x54
 9334 17e3 66000000 		.4byte	.LVL211
 9335 17e7 00010000 		.4byte	.LVL219
 9336 17eb 0400     		.2byte	0x4
 9337 17ed F3       		.byte	0xf3
 9338 17ee 01       		.uleb128 0x1
 9339 17ef 50       		.byte	0x50
 9340 17f0 9F       		.byte	0x9f
 9341 17f1 00010000 		.4byte	.LVL219
 9342 17f5 F4030000 		.4byte	.LFE34
 9343 17f9 0300     		.2byte	0x3
 9344 17fb 91       		.byte	0x91
 9345 17fc 50       		.sleb128 -48
 9346 17fd 9F       		.byte	0x9f
 9347 17fe 00000000 		.4byte	0
 9348 1802 00000000 		.4byte	0
ARM GAS  C:\Users\pearlstl\AppData\Local\Temp\ccmYHcOW.s 			page 194


 9349              	.LLST81:
 9350 1806 5E010000 		.4byte	.LVL226
 9351 180a 6C010000 		.4byte	.LVL228
 9352 180e 0200     		.2byte	0x2
 9353 1810 30       		.byte	0x30
 9354 1811 9F       		.byte	0x9f
 9355 1812 6C010000 		.4byte	.LVL228
 9356 1816 14020000 		.4byte	.LVL247
 9357 181a 0100     		.2byte	0x1
 9358 181c 54       		.byte	0x54
 9359 181d 16020000 		.4byte	.LVL248
 9360 1821 28020000 		.4byte	.LVL251
 9361 1825 0100     		.2byte	0x1
 9362 1827 54       		.byte	0x54
 9363 1828 4C020000 		.4byte	.LVL254
 9364 182c 36030000 		.4byte	.LVL281
 9365 1830 0100     		.2byte	0x1
 9366 1832 54       		.byte	0x54
 9367 1833 00000000 		.4byte	0
 9368 1837 00000000 		.4byte	0
 9369              	.LLST82:
 9370 183b 22010000 		.4byte	.LVL221
 9371 183f 46010000 		.4byte	.LVL222
 9372 1843 0100     		.2byte	0x1
 9373 1845 57       		.byte	0x57
 9374 1846 68010000 		.4byte	.LVL227
 9375 184a B2010000 		.4byte	.LVL234
 9376 184e 0100     		.2byte	0x1
 9377 1850 57       		.byte	0x57
 9378 1851 C6010000 		.4byte	.LVL235
 9379 1855 CA010000 		.4byte	.LVL236
 9380 1859 0100     		.2byte	0x1
 9381 185b 57       		.byte	0x57
 9382 185c DC010000 		.4byte	.LVL237
 9383 1860 E6010000 		.4byte	.LVL238
 9384 1864 0100     		.2byte	0x1
 9385 1866 57       		.byte	0x57
 9386 1867 E6010000 		.4byte	.LVL238
 9387 186b EA010000 		.4byte	.LVL239
 9388 186f 0100     		.2byte	0x1
 9389 1871 50       		.byte	0x50
 9390 1872 EA010000 		.4byte	.LVL239
 9391 1876 FA010000 		.4byte	.LVL241
 9392 187a 0100     		.2byte	0x1
 9393 187c 52       		.byte	0x52
 9394 187d FA010000 		.4byte	.LVL241
 9395 1881 04020000 		.4byte	.LVL243
 9396 1885 0100     		.2byte	0x1
 9397 1887 57       		.byte	0x57
 9398 1888 06020000 		.4byte	.LVL244
 9399 188c 24020000 		.4byte	.LVL250
 9400 1890 0100     		.2byte	0x1
 9401 1892 57       		.byte	0x57
 9402 1893 4C020000 		.4byte	.LVL254
 9403 1897 6C020000 		.4byte	.LVL258
 9404 189b 0100     		.2byte	0x1
 9405 189d 57       		.byte	0x57
ARM GAS  C:\Users\pearlstl\AppData\Local\Temp\ccmYHcOW.s 			page 195


 9406 189e 6C020000 		.4byte	.LVL258
 9407 18a2 72020000 		.4byte	.LVL260
 9408 18a6 0100     		.2byte	0x1
 9409 18a8 52       		.byte	0x52
 9410 18a9 90020000 		.4byte	.LVL263
 9411 18ad A8020000 		.4byte	.LVL264
 9412 18b1 0100     		.2byte	0x1
 9413 18b3 57       		.byte	0x57
 9414 18b4 AC020000 		.4byte	.LVL265
 9415 18b8 CA020000 		.4byte	.LVL268
 9416 18bc 0100     		.2byte	0x1
 9417 18be 5E       		.byte	0x5e
 9418 18bf CA020000 		.4byte	.LVL268
 9419 18c3 08030000 		.4byte	.LVL273
 9420 18c7 0100     		.2byte	0x1
 9421 18c9 57       		.byte	0x57
 9422 18ca 24030000 		.4byte	.LVL276
 9423 18ce 28030000 		.4byte	.LVL278
 9424 18d2 0100     		.2byte	0x1
 9425 18d4 57       		.byte	0x57
 9426 18d5 28030000 		.4byte	.LVL278
 9427 18d9 2A030000 		.4byte	.LVL279
 9428 18dd 0100     		.2byte	0x1
 9429 18df 52       		.byte	0x52
 9430 18e0 2A030000 		.4byte	.LVL279
 9431 18e4 30030000 		.4byte	.LVL280
 9432 18e8 0100     		.2byte	0x1
 9433 18ea 53       		.byte	0x53
 9434 18eb 30030000 		.4byte	.LVL280
 9435 18ef 36030000 		.4byte	.LVL281
 9436 18f3 0100     		.2byte	0x1
 9437 18f5 57       		.byte	0x57
 9438 18f6 00000000 		.4byte	0
 9439 18fa 00000000 		.4byte	0
 9440              	.LLST83:
 9441 18fe 8C010000 		.4byte	.LVL232
 9442 1902 02020000 		.4byte	.LVL242
 9443 1906 0100     		.2byte	0x1
 9444 1908 53       		.byte	0x53
 9445 1909 52020000 		.4byte	.LVL256
 9446 190d 68020000 		.4byte	.LVL257
 9447 1911 0100     		.2byte	0x1
 9448 1913 53       		.byte	0x53
 9449 1914 6C020000 		.4byte	.LVL258
 9450 1918 8A020000 		.4byte	.LVL262
 9451 191c 0100     		.2byte	0x1
 9452 191e 53       		.byte	0x53
 9453 191f CA020000 		.4byte	.LVL268
 9454 1923 E2020000 		.4byte	.LVL270
 9455 1927 0100     		.2byte	0x1
 9456 1929 53       		.byte	0x53
 9457 192a 28030000 		.4byte	.LVL278
 9458 192e 2A030000 		.4byte	.LVL279
 9459 1932 0100     		.2byte	0x1
 9460 1934 53       		.byte	0x53
 9461 1935 30030000 		.4byte	.LVL280
 9462 1939 36030000 		.4byte	.LVL281
ARM GAS  C:\Users\pearlstl\AppData\Local\Temp\ccmYHcOW.s 			page 196


 9463 193d 0100     		.2byte	0x1
 9464 193f 53       		.byte	0x53
 9465 1940 00000000 		.4byte	0
 9466 1944 00000000 		.4byte	0
 9467              	.LLST84:
 9468 1948 6C010000 		.4byte	.LVL228
 9469 194c 1C020000 		.4byte	.LVL249
 9470 1950 0100     		.2byte	0x1
 9471 1952 55       		.byte	0x55
 9472 1953 1C020000 		.4byte	.LVL249
 9473 1957 28020000 		.4byte	.LVL251
 9474 195b 0300     		.2byte	0x3
 9475 195d 75       		.byte	0x75
 9476 195e 7C       		.sleb128 -4
 9477 195f 9F       		.byte	0x9f
 9478 1960 4C020000 		.4byte	.LVL254
 9479 1964 36030000 		.4byte	.LVL281
 9480 1968 0100     		.2byte	0x1
 9481 196a 55       		.byte	0x55
 9482 196b 00000000 		.4byte	0
 9483 196f 00000000 		.4byte	0
 9484              	.LLST85:
 9485 1973 6C010000 		.4byte	.LVL228
 9486 1977 76010000 		.4byte	.LVL230
 9487 197b 0100     		.2byte	0x1
 9488 197d 52       		.byte	0x52
 9489 197e 94010000 		.4byte	.LVL233
 9490 1982 EA010000 		.4byte	.LVL239
 9491 1986 0100     		.2byte	0x1
 9492 1988 52       		.byte	0x52
 9493 1989 EC010000 		.4byte	.LVL240
 9494 198d FA010000 		.4byte	.LVL241
 9495 1991 0100     		.2byte	0x1
 9496 1993 52       		.byte	0x52
 9497 1994 06020000 		.4byte	.LVL244
 9498 1998 0A020000 		.4byte	.LVL245
 9499 199c 0100     		.2byte	0x1
 9500 199e 52       		.byte	0x52
 9501 199f 12020000 		.4byte	.LVL246
 9502 19a3 2A020000 		.4byte	.LVL252
 9503 19a7 0100     		.2byte	0x1
 9504 19a9 52       		.byte	0x52
 9505 19aa 4C020000 		.4byte	.LVL254
 9506 19ae 4E020000 		.4byte	.LVL255
 9507 19b2 0100     		.2byte	0x1
 9508 19b4 52       		.byte	0x52
 9509 19b5 52020000 		.4byte	.LVL256
 9510 19b9 88020000 		.4byte	.LVL261
 9511 19bd 0100     		.2byte	0x1
 9512 19bf 52       		.byte	0x52
 9513 19c0 CA020000 		.4byte	.LVL268
 9514 19c4 FC020000 		.4byte	.LVL271
 9515 19c8 0100     		.2byte	0x1
 9516 19ca 52       		.byte	0x52
 9517 19cb 00030000 		.4byte	.LVL272
 9518 19cf 24030000 		.4byte	.LVL276
 9519 19d3 0100     		.2byte	0x1
ARM GAS  C:\Users\pearlstl\AppData\Local\Temp\ccmYHcOW.s 			page 197


 9520 19d5 52       		.byte	0x52
 9521 19d6 28030000 		.4byte	.LVL278
 9522 19da 36030000 		.4byte	.LVL281
 9523 19de 0100     		.2byte	0x1
 9524 19e0 52       		.byte	0x52
 9525 19e1 00000000 		.4byte	0
 9526 19e5 00000000 		.4byte	0
 9527              	.LLST86:
 9528 19e9 74010000 		.4byte	.LVL229
 9529 19ed 88010000 		.4byte	.LVL231
 9530 19f1 0100     		.2byte	0x1
 9531 19f3 53       		.byte	0x53
 9532 19f4 88010000 		.4byte	.LVL231
 9533 19f8 8C010000 		.4byte	.LVL232
 9534 19fc 0200     		.2byte	0x2
 9535 19fe 75       		.byte	0x75
 9536 19ff 03       		.sleb128 3
 9537 1a00 24030000 		.4byte	.LVL276
 9538 1a04 26030000 		.4byte	.LVL277
 9539 1a08 0100     		.2byte	0x1
 9540 1a0a 53       		.byte	0x53
 9541 1a0b 26030000 		.4byte	.LVL277
 9542 1a0f 28030000 		.4byte	.LVL278
 9543 1a13 0200     		.2byte	0x2
 9544 1a15 75       		.byte	0x75
 9545 1a16 03       		.sleb128 3
 9546 1a17 00000000 		.4byte	0
 9547 1a1b 00000000 		.4byte	0
 9548              	.LLST87:
 9549 1a1f 70020000 		.4byte	.LVL259
 9550 1a23 8A020000 		.4byte	.LVL262
 9551 1a27 0100     		.2byte	0x1
 9552 1a29 53       		.byte	0x53
 9553 1a2a 00000000 		.4byte	0
 9554 1a2e 00000000 		.4byte	0
 9555              	.LLST88:
 9556 1a32 CE020000 		.4byte	.LVL269
 9557 1a36 E2020000 		.4byte	.LVL270
 9558 1a3a 0100     		.2byte	0x1
 9559 1a3c 53       		.byte	0x53
 9560 1a3d 00000000 		.4byte	0
 9561 1a41 00000000 		.4byte	0
 9562              	.LLST89:
 9563 1a45 70030000 		.4byte	.LVL284
 9564 1a49 7A030000 		.4byte	.LVL285
 9565 1a4d 0200     		.2byte	0x2
 9566 1a4f 30       		.byte	0x30
 9567 1a50 9F       		.byte	0x9f
 9568 1a51 7A030000 		.4byte	.LVL285
 9569 1a55 94030000 		.4byte	.LVL289
 9570 1a59 0100     		.2byte	0x1
 9571 1a5b 55       		.byte	0x55
 9572 1a5c 00000000 		.4byte	0
 9573 1a60 00000000 		.4byte	0
 9574              	.LLST90:
 9575 1a64 84030000 		.4byte	.LVL287
 9576 1a68 88030000 		.4byte	.LVL288
ARM GAS  C:\Users\pearlstl\AppData\Local\Temp\ccmYHcOW.s 			page 198


 9577 1a6c 0100     		.2byte	0x1
 9578 1a6e 52       		.byte	0x52
 9579 1a6f 00000000 		.4byte	0
 9580 1a73 00000000 		.4byte	0
 9581              	.LLST91:
 9582 1a77 D6030000 		.4byte	.LVL296
 9583 1a7b EA030000 		.4byte	.LVL299
 9584 1a7f 0300     		.2byte	0x3
 9585 1a81 09       		.byte	0x9
 9586 1a82 FF       		.byte	0xff
 9587 1a83 9F       		.byte	0x9f
 9588 1a84 00000000 		.4byte	0
 9589 1a88 00000000 		.4byte	0
 9590              	.LLST92:
 9591 1a8c D6030000 		.4byte	.LVL296
 9592 1a90 EA030000 		.4byte	.LVL299
 9593 1a94 0100     		.2byte	0x1
 9594 1a96 57       		.byte	0x57
 9595 1a97 00000000 		.4byte	0
 9596 1a9b 00000000 		.4byte	0
 9597              	.LLST93:
 9598 1a9f D6030000 		.4byte	.LVL296
 9599 1aa3 DF030000 		.4byte	.LVL297-1
 9600 1aa7 0100     		.2byte	0x1
 9601 1aa9 53       		.byte	0x53
 9602 1aaa 00000000 		.4byte	0
 9603 1aae 00000000 		.4byte	0
 9604              		.section	.debug_aranges,"",%progbits
 9605 0000 34000000 		.4byte	0x34
 9606 0004 0200     		.2byte	0x2
 9607 0006 00000000 		.4byte	.Ldebug_info0
 9608 000a 04       		.byte	0x4
 9609 000b 00       		.byte	0
 9610 000c 0000     		.2byte	0
 9611 000e 0000     		.2byte	0
 9612 0010 00000000 		.4byte	.LFB31
 9613 0014 D4000000 		.4byte	.LFE31-.LFB31
 9614 0018 00000000 		.4byte	.LFB32
 9615 001c 1E020000 		.4byte	.LFE32-.LFB32
 9616 0020 00000000 		.4byte	.LFB33
 9617 0024 14050000 		.4byte	.LFE33-.LFB33
 9618 0028 00000000 		.4byte	.LFB34
 9619 002c F4030000 		.4byte	.LFE34-.LFB34
 9620 0030 00000000 		.4byte	0
 9621 0034 00000000 		.4byte	0
 9622              		.section	.debug_ranges,"",%progbits
 9623              	.Ldebug_ranges0:
 9624 0000 44000000 		.4byte	.LBB44
 9625 0004 48000000 		.4byte	.LBE44
 9626 0008 4E000000 		.4byte	.LBB48
 9627 000c 52000000 		.4byte	.LBE48
 9628 0010 5A000000 		.4byte	.LBB49
 9629 0014 5C000000 		.4byte	.LBE49
 9630 0018 00000000 		.4byte	0
 9631 001c 00000000 		.4byte	0
 9632 0020 84000000 		.4byte	.LBB51
 9633 0024 94000000 		.4byte	.LBE51
ARM GAS  C:\Users\pearlstl\AppData\Local\Temp\ccmYHcOW.s 			page 199


 9634 0028 98000000 		.4byte	.LBB56
 9635 002c A4000000 		.4byte	.LBE56
 9636 0030 A8000000 		.4byte	.LBB57
 9637 0034 AC000000 		.4byte	.LBE57
 9638 0038 B0000000 		.4byte	.LBB58
 9639 003c BC000000 		.4byte	.LBE58
 9640 0040 00000000 		.4byte	0
 9641 0044 00000000 		.4byte	0
 9642 0048 38000000 		.4byte	.LBB69
 9643 004c 3A000000 		.4byte	.LBE69
 9644 0050 4A000000 		.4byte	.LBB75
 9645 0054 4E000000 		.4byte	.LBE75
 9646 0058 52000000 		.4byte	.LBB76
 9647 005c 54000000 		.4byte	.LBE76
 9648 0060 60000000 		.4byte	.LBB77
 9649 0064 62000000 		.4byte	.LBE77
 9650 0068 6C000000 		.4byte	.LBB78
 9651 006c 6E000000 		.4byte	.LBE78
 9652 0070 00000000 		.4byte	0
 9653 0074 00000000 		.4byte	0
 9654 0078 72000000 		.4byte	.LBB79
 9655 007c 76000000 		.4byte	.LBE79
 9656 0080 7C000000 		.4byte	.LBB94
 9657 0084 1E020000 		.4byte	.LBE94
 9658 0088 00000000 		.4byte	0
 9659 008c 00000000 		.4byte	0
 9660 0090 F2000000 		.4byte	.LBB82
 9661 0094 14010000 		.4byte	.LBE82
 9662 0098 1C010000 		.4byte	.LBB86
 9663 009c 1E010000 		.4byte	.LBE86
 9664 00a0 20010000 		.4byte	.LBB87
 9665 00a4 32010000 		.4byte	.LBE87
 9666 00a8 00000000 		.4byte	0
 9667 00ac 00000000 		.4byte	0
 9668 00b0 6E010000 		.4byte	.LBB88
 9669 00b4 70010000 		.4byte	.LBE88
 9670 00b8 72010000 		.4byte	.LBB91
 9671 00bc 94010000 		.4byte	.LBE91
 9672 00c0 00000000 		.4byte	0
 9673 00c4 00000000 		.4byte	0
 9674 00c8 A2000000 		.4byte	.LBB95
 9675 00cc CA000000 		.4byte	.LBE95
 9676 00d0 46020000 		.4byte	.LBB109
 9677 00d4 78030000 		.4byte	.LBE109
 9678 00d8 90030000 		.4byte	.LBB110
 9679 00dc FA030000 		.4byte	.LBE110
 9680 00e0 0C040000 		.4byte	.LBB111
 9681 00e4 9C040000 		.4byte	.LBE111
 9682 00e8 00000000 		.4byte	0
 9683 00ec 00000000 		.4byte	0
 9684 00f0 56030000 		.4byte	.LBB96
 9685 00f4 78030000 		.4byte	.LBE96
 9686 00f8 A4030000 		.4byte	.LBB98
 9687 00fc FA030000 		.4byte	.LBE98
 9688 0100 00000000 		.4byte	0
 9689 0104 00000000 		.4byte	0
 9690 0108 4C040000 		.4byte	.LBB99
ARM GAS  C:\Users\pearlstl\AppData\Local\Temp\ccmYHcOW.s 			page 200


 9691 010c 62040000 		.4byte	.LBE99
 9692 0110 66040000 		.4byte	.LBB103
 9693 0114 72040000 		.4byte	.LBE103
 9694 0118 7C040000 		.4byte	.LBB104
 9695 011c 84040000 		.4byte	.LBE104
 9696 0120 00000000 		.4byte	0
 9697 0124 00000000 		.4byte	0
 9698 0128 56010000 		.4byte	.LBB105
 9699 012c 5C010000 		.4byte	.LBE105
 9700 0130 6A010000 		.4byte	.LBB108
 9701 0134 74010000 		.4byte	.LBE108
 9702 0138 00000000 		.4byte	0
 9703 013c 00000000 		.4byte	0
 9704 0140 4E000000 		.4byte	.LBB136
 9705 0144 54000000 		.4byte	.LBE136
 9706 0148 5C000000 		.4byte	.LBB140
 9707 014c 62000000 		.4byte	.LBE140
 9708 0150 64000000 		.4byte	.LBB141
 9709 0154 68000000 		.4byte	.LBE141
 9710 0158 00000000 		.4byte	0
 9711 015c 00000000 		.4byte	0
 9712 0160 9E000000 		.4byte	.LBB142
 9713 0164 A0000000 		.4byte	.LBE142
 9714 0168 B0000000 		.4byte	.LBB146
 9715 016c B6000000 		.4byte	.LBE146
 9716 0170 B8000000 		.4byte	.LBB147
 9717 0174 BC000000 		.4byte	.LBE147
 9718 0178 00000000 		.4byte	0
 9719 017c 00000000 		.4byte	0
 9720 0180 CA000000 		.4byte	.LBB148
 9721 0184 CE000000 		.4byte	.LBE148
 9722 0188 EA000000 		.4byte	.LBB152
 9723 018c EE000000 		.4byte	.LBE152
 9724 0190 F4000000 		.4byte	.LBB153
 9725 0194 F8000000 		.4byte	.LBE153
 9726 0198 00000000 		.4byte	0
 9727 019c 00000000 		.4byte	0
 9728 01a0 06010000 		.4byte	.LBB154
 9729 01a4 46020000 		.4byte	.LBE154
 9730 01a8 4C020000 		.4byte	.LBB185
 9731 01ac 36030000 		.4byte	.LBE185
 9732 01b0 00000000 		.4byte	0
 9733 01b4 00000000 		.4byte	0
 9734 01b8 06010000 		.4byte	.LBB155
 9735 01bc 38010000 		.4byte	.LBE155
 9736 01c0 3A010000 		.4byte	.LBB158
 9737 01c4 3C010000 		.4byte	.LBE158
 9738 01c8 00000000 		.4byte	0
 9739 01cc 00000000 		.4byte	0
 9740 01d0 6C010000 		.4byte	.LBB159
 9741 01d4 16020000 		.4byte	.LBE159
 9742 01d8 4C020000 		.4byte	.LBB184
 9743 01dc 36030000 		.4byte	.LBE184
 9744 01e0 00000000 		.4byte	0
 9745 01e4 00000000 		.4byte	0
 9746 01e8 72010000 		.4byte	.LBB160
 9747 01ec 8C010000 		.4byte	.LBE160
ARM GAS  C:\Users\pearlstl\AppData\Local\Temp\ccmYHcOW.s 			page 201


 9748 01f0 24030000 		.4byte	.LBB183
 9749 01f4 28030000 		.4byte	.LBE183
 9750 01f8 00000000 		.4byte	0
 9751 01fc 00000000 		.4byte	0
 9752 0200 70020000 		.4byte	.LBB163
 9753 0204 76020000 		.4byte	.LBE163
 9754 0208 7A020000 		.4byte	.LBB170
 9755 020c 84020000 		.4byte	.LBE170
 9756 0210 88020000 		.4byte	.LBB171
 9757 0214 8E020000 		.4byte	.LBE171
 9758 0218 90020000 		.4byte	.LBB172
 9759 021c A0020000 		.4byte	.LBE172
 9760 0220 A8020000 		.4byte	.LBB173
 9761 0224 AC020000 		.4byte	.LBE173
 9762 0228 B0020000 		.4byte	.LBB174
 9763 022c B8020000 		.4byte	.LBE174
 9764 0230 00000000 		.4byte	0
 9765 0234 00000000 		.4byte	0
 9766 0238 CE020000 		.4byte	.LBB175
 9767 023c DA020000 		.4byte	.LBE175
 9768 0240 DE020000 		.4byte	.LBB180
 9769 0244 F6020000 		.4byte	.LBE180
 9770 0248 FC020000 		.4byte	.LBB181
 9771 024c 00030000 		.4byte	.LBE181
 9772 0250 08030000 		.4byte	.LBB182
 9773 0254 10030000 		.4byte	.LBE182
 9774 0258 00000000 		.4byte	0
 9775 025c 00000000 		.4byte	0
 9776 0260 64030000 		.4byte	.LBB187
 9777 0264 70030000 		.4byte	.LBE187
 9778 0268 7A030000 		.4byte	.LBB188
 9779 026c 9E030000 		.4byte	.LBE188
 9780 0270 00000000 		.4byte	0
 9781 0274 00000000 		.4byte	0
 9782 0278 D6030000 		.4byte	.LBB189
 9783 027c E2030000 		.4byte	.LBE189
 9784 0280 E8030000 		.4byte	.LBB192
 9785 0284 EA030000 		.4byte	.LBE192
 9786 0288 00000000 		.4byte	0
 9787 028c 00000000 		.4byte	0
 9788 0290 00000000 		.4byte	.LFB31
 9789 0294 D4000000 		.4byte	.LFE31
 9790 0298 00000000 		.4byte	.LFB32
 9791 029c 1E020000 		.4byte	.LFE32
 9792 02a0 00000000 		.4byte	.LFB33
 9793 02a4 14050000 		.4byte	.LFE33
 9794 02a8 00000000 		.4byte	.LFB34
 9795 02ac F4030000 		.4byte	.LFE34
 9796 02b0 00000000 		.4byte	0
 9797 02b4 00000000 		.4byte	0
 9798              		.section	.debug_line,"",%progbits
 9799              	.Ldebug_line0:
 9800 0000 2C090000 		.section	.debug_str,"MS",%progbits,1
 9800      0200A003 
 9800      00000201 
 9800      FB0E0D00 
 9800      01010101 
ARM GAS  C:\Users\pearlstl\AppData\Local\Temp\ccmYHcOW.s 			page 202


 9801              	.LASF14:
 9802 0000 696E7438 		.ascii	"int8_t\000"
 9802      5F7400
 9803              	.LASF123:
 9804 0007 636F6C6F 		.ascii	"color_chroma_key\000"
 9804      725F6368 
 9804      726F6D61 
 9804      5F6B6579 
 9804      00
 9805              	.LASF27:
 9806 0018 4C565F46 		.ascii	"LV_FONT_SUBPX_NONE\000"
 9806      4F4E545F 
 9806      53554250 
 9806      585F4E4F 
 9806      4E4500
 9807              	.LASF21:
 9808 002b 6164765F 		.ascii	"adv_w\000"
 9808      7700
 9809              	.LASF57:
 9810 0031 73697A65 		.ascii	"sizetype\000"
 9810      74797065 
 9810      00
 9811              	.LASF158:
 9812 003a 6C765F64 		.ascii	"lv_disp_t\000"
 9812      6973705F 
 9812      7400
 9813              	.LASF54:
 9814 0044 6C765F63 		.ascii	"lv_color32_t\000"
 9814      6F6C6F72 
 9814      33325F74 
 9814      00
 9815              	.LASF242:
 9816 0051 6C765F72 		.ascii	"lv_refr_get_disp_refreshing\000"
 9816      6566725F 
 9816      6765745F 
 9816      64697370 
 9816      5F726566 
 9817              	.LASF94:
 9818 006d 7461696C 		.ascii	"tail\000"
 9818      00
 9819              	.LASF129:
 9820 0072 6163745F 		.ascii	"act_scr\000"
 9820      73637200 
 9821              	.LASF180:
 9822 007a 7363725F 		.ascii	"scr_transp\000"
 9822      7472616E 
 9822      737000
 9823              	.LASF56:
 9824 0085 6C765F6F 		.ascii	"lv_opa_t\000"
 9824      70615F74 
 9824      00
 9825              	.LASF81:
 9826 008e 696E7465 		.ascii	"intense\000"
 9826      6E736500 
 9827              	.LASF29:
 9828 0096 4C565F46 		.ascii	"LV_FONT_SUBPX_VER\000"
 9828      4F4E545F 
ARM GAS  C:\Users\pearlstl\AppData\Local\Temp\ccmYHcOW.s 			page 203


 9828      53554250 
 9828      585F5645 
 9828      5200
 9829              	.LASF59:
 9830 00a8 6C765F70 		.ascii	"lv_point_t\000"
 9830      6F696E74 
 9830      5F7400
 9831              	.LASF73:
 9832 00b3 72616469 		.ascii	"radius\000"
 9832      757300
 9833              	.LASF172:
 9834 00ba 6C765F72 		.ascii	"lv_reailgn_t\000"
 9834      6561696C 
 9834      676E5F74 
 9834      00
 9835              	.LASF33:
 9836 00c7 6C696E65 		.ascii	"line_height\000"
 9836      5F686569 
 9836      67687400 
 9837              	.LASF144:
 9838 00d3 636C6963 		.ascii	"click\000"
 9838      6B00
 9839              	.LASF165:
 9840 00d9 6C765F61 		.ascii	"lv_align_t\000"
 9840      6C69676E 
 9840      5F7400
 9841              	.LASF161:
 9842 00e4 6C765F65 		.ascii	"lv_event_t\000"
 9842      76656E74 
 9842      5F7400
 9843              	.LASF206:
 9844 00ef 6269746D 		.ascii	"bitmask_init\000"
 9844      61736B5F 
 9844      696E6974 
 9844      00
 9845              	.LASF229:
 9846 00fc 6368726F 		.ascii	"chroma_key\000"
 9846      6D615F6B 
 9846      657900
 9847              	.LASF186:
 9848 0107 62675F74 		.ascii	"bg_tmp\000"
 9848      6D7000
 9849              	.LASF66:
 9850 010e 74797065 		.ascii	"type\000"
 9850      00
 9851              	.LASF222:
 9852 0113 7265735F 		.ascii	"res_color\000"
 9852      636F6C6F 
 9852      7200
 9853              	.LASF247:
 9854 011d 474E5520 		.ascii	"GNU C11 5.4.1 20160609 (release) [ARM/embedded-5-br"
 9854      43313120 
 9854      352E342E 
 9854      31203230 
 9854      31363036 
 9855 0150 616E6368 		.ascii	"anch revision 237715] -mcpu=cortex-m4 -mfloat-abi=s"
 9855      20726576 
ARM GAS  C:\Users\pearlstl\AppData\Local\Temp\ccmYHcOW.s 			page 204


 9855      6973696F 
 9855      6E203233 
 9855      37373135 
 9856 0183 6F667466 		.ascii	"oftfp -mfpu=fpv4-sp-d16 -mthumb -g -O3 -ffunction-s"
 9856      70202D6D 
 9856      6670753D 
 9856      66707634 
 9856      2D73702D 
 9857 01b6 65637469 		.ascii	"ections -ffat-lto-objects\000"
 9857      6F6E7320 
 9857      2D666661 
 9857      742D6C74 
 9857      6F2D6F62 
 9858              	.LASF104:
 9859 01d0 7072696F 		.ascii	"prio\000"
 9859      00
 9860              	.LASF182:
 9861 01d5 6D656D5F 		.ascii	"mem_width\000"
 9861      77696474 
 9861      6800
 9862              	.LASF128:
 9863 01df 7363725F 		.ascii	"scr_ll\000"
 9863      6C6C00
 9864              	.LASF1:
 9865 01e6 5F5F7569 		.ascii	"__uint8_t\000"
 9865      6E74385F 
 9865      7400
 9866              	.LASF52:
 9867 01f0 616C7068 		.ascii	"alpha\000"
 9867      6100
 9868              	.LASF116:
 9869 01f6 7665725F 		.ascii	"ver_res\000"
 9869      72657300 
 9870              	.LASF210:
 9871 01fe 77696474 		.ascii	"width_bit\000"
 9871      685F6269 
 9871      7400
 9872              	.LASF237:
 9873 0208 6C617374 		.ascii	"last_img_px\000"
 9873      5F696D67 
 9873      5F707800 
 9874              	.LASF230:
 9875 0214 616C7068 		.ascii	"alpha_byte\000"
 9875      615F6279 
 9875      746500
 9876              	.LASF148:
 9877 021f 68696464 		.ascii	"hidden\000"
 9877      656E00
 9878              	.LASF30:
 9879 0226 4C565F46 		.ascii	"LV_FONT_SUBPX_BOTH\000"
 9879      4F4E545F 
 9879      53554250 
 9879      585F424F 
 9879      544800
 9880              	.LASF135:
 9881 0239 6C617374 		.ascii	"last_activity_time\000"
 9881      5F616374 
ARM GAS  C:\Users\pearlstl\AppData\Local\Temp\ccmYHcOW.s 			page 205


 9881      69766974 
 9881      795F7469 
 9881      6D6500
 9882              	.LASF8:
 9883 024c 6C6F6E67 		.ascii	"long int\000"
 9883      20696E74 
 9883      00
 9884              	.LASF127:
 9885 0255 72656672 		.ascii	"refr_task\000"
 9885      5F746173 
 9885      6B00
 9886              	.LASF118:
 9887 025f 726F7461 		.ascii	"rotated\000"
 9887      74656400 
 9888              	.LASF176:
 9889 0267 61726561 		.ascii	"area_p\000"
 9889      5F7000
 9890              	.LASF244:
 9891 026e 6C765F61 		.ascii	"lv_area_intersect\000"
 9891      7265615F 
 9891      696E7465 
 9891      72736563 
 9891      7400
 9892              	.LASF93:
 9893 0280 68656164 		.ascii	"head\000"
 9893      00
 9894              	.LASF248:
 9895 0285 2E2E5C2E 		.ascii	"..\\..\\..\\lvgl\\version_6.1.2\\lvgl\\src\\lv_draw"
 9895      2E5C2E2E 
 9895      5C6C7667 
 9895      6C5C7665 
 9895      7273696F 
 9896 02b1 5C6C765F 		.ascii	"\\lv_draw_basic.c\000"
 9896      64726177 
 9896      5F626173 
 9896      69632E63 
 9896      00
 9897              	.LASF121:
 9898 02c2 7365745F 		.ascii	"set_px_cb\000"
 9898      70785F63 
 9898      6200
 9899              	.LASF2:
 9900 02cc 7369676E 		.ascii	"signed char\000"
 9900      65642063 
 9900      68617200 
 9901              	.LASF15:
 9902 02d8 75696E74 		.ascii	"uint8_t\000"
 9902      385F7400 
 9903              	.LASF115:
 9904 02e0 686F725F 		.ascii	"hor_res\000"
 9904      72657300 
 9905              	.LASF233:
 9906 02e8 6D61736B 		.ascii	"masked_a\000"
 9906      65645F61 
 9906      00
 9907              	.LASF32:
 9908 02f1 6765745F 		.ascii	"get_glyph_bitmap\000"
ARM GAS  C:\Users\pearlstl\AppData\Local\Temp\ccmYHcOW.s 			page 206


 9908      676C7970 
 9908      685F6269 
 9908      746D6170 
 9908      00
 9909              	.LASF50:
 9910 0302 626C7565 		.ascii	"blue\000"
 9910      00
 9911              	.LASF239:
 9912 0307 6F70615F 		.ascii	"opa_result\000"
 9912      72657375 
 9912      6C7400
 9913              	.LASF3:
 9914 0312 756E7369 		.ascii	"unsigned char\000"
 9914      676E6564 
 9914      20636861 
 9914      7200
 9915              	.LASF130:
 9916 0320 746F705F 		.ascii	"top_layer\000"
 9916      6C617965 
 9916      7200
 9917              	.LASF151:
 9918 032a 64726167 		.ascii	"drag_dir\000"
 9918      5F646972 
 9918      00
 9919              	.LASF201:
 9920 0333 62707034 		.ascii	"bpp4_opa_table\000"
 9920      5F6F7061 
 9920      5F746162 
 9920      6C6500
 9921              	.LASF102:
 9922 0342 7461736B 		.ascii	"task_cb\000"
 9922      5F636200 
 9923              	.LASF24:
 9924 034a 6F66735F 		.ascii	"ofs_x\000"
 9924      7800
 9925              	.LASF25:
 9926 0350 6F66735F 		.ascii	"ofs_y\000"
 9926      7900
 9927              	.LASF35:
 9928 0356 5F426F6F 		.ascii	"_Bool\000"
 9928      6C00
 9929              	.LASF164:
 9930 035c 6C765F73 		.ascii	"lv_signal_cb_t\000"
 9930      69676E61 
 9930      6C5F6362 
 9930      5F7400
 9931              	.LASF133:
 9932 036b 696E765F 		.ascii	"inv_area_joined\000"
 9932      61726561 
 9932      5F6A6F69 
 9932      6E656400 
 9933              	.LASF58:
 9934 037b 63686172 		.ascii	"char\000"
 9934      00
 9935              	.LASF193:
 9936 0380 7664625F 		.ascii	"vdb_rel_a\000"
 9936      72656C5F 
ARM GAS  C:\Users\pearlstl\AppData\Local\Temp\ccmYHcOW.s 			page 207


 9936      6100
 9937              	.LASF194:
 9938 038a 7664625F 		.ascii	"vdb_buf_tmp\000"
 9938      6275665F 
 9938      746D7000 
 9939              	.LASF85:
 9940 0396 626F6479 		.ascii	"body\000"
 9940      00
 9941              	.LASF168:
 9942 039b 796F6673 		.ascii	"yofs\000"
 9942      00
 9943              	.LASF200:
 9944 03a0 62707032 		.ascii	"bpp2_opa_table\000"
 9944      5F6F7061 
 9944      5F746162 
 9944      6C6500
 9945              	.LASF99:
 9946 03af 5F6C765F 		.ascii	"_lv_task_t\000"
 9946      7461736B 
 9946      5F7400
 9947              	.LASF6:
 9948 03ba 5F5F7569 		.ascii	"__uint16_t\000"
 9948      6E743136 
 9948      5F7400
 9949              	.LASF205:
 9950 03c5 6270705F 		.ascii	"bpp_opa_table\000"
 9950      6F70615F 
 9950      7461626C 
 9950      6500
 9951              	.LASF141:
 9952 03d3 64657369 		.ascii	"design_cb\000"
 9952      676E5F63 
 9952      6200
 9953              	.LASF162:
 9954 03dd 6C765F65 		.ascii	"lv_event_cb_t\000"
 9954      76656E74 
 9954      5F63625F 
 9954      7400
 9955              	.LASF112:
 9956 03eb 666C7573 		.ascii	"flushing\000"
 9956      68696E67 
 9956      00
 9957              	.LASF86:
 9958 03f4 74657874 		.ascii	"text\000"
 9958      00
 9959              	.LASF87:
 9960 03f9 696D6167 		.ascii	"image\000"
 9960      6500
 9961              	.LASF83:
 9962 03ff 726F756E 		.ascii	"rounded\000"
 9962      64656400 
 9963              	.LASF209:
 9964 0407 77696474 		.ascii	"width_byte_scr\000"
 9964      685F6279 
 9964      74655F73 
 9964      637200
 9965              	.LASF146:
ARM GAS  C:\Users\pearlstl\AppData\Local\Temp\ccmYHcOW.s 			page 208


 9966 0416 64726167 		.ascii	"drag_throw\000"
 9966      5F746872 
 9966      6F7700
 9967              	.LASF96:
 9968 0421 6C765F62 		.ascii	"lv_bidi_dir_t\000"
 9968      6964695F 
 9968      6469725F 
 9968      7400
 9969              	.LASF246:
 9970 042f 6C765F66 		.ascii	"lv_font_get_glyph_bitmap\000"
 9970      6F6E745F 
 9970      6765745F 
 9970      676C7970 
 9970      685F6269 
 9971              	.LASF156:
 9972 0448 6578745F 		.ascii	"ext_draw_pad\000"
 9972      64726177 
 9972      5F706164 
 9972      00
 9973              	.LASF60:
 9974 0455 6C765F61 		.ascii	"lv_area_t\000"
 9974      7265615F 
 9974      7400
 9975              	.LASF117:
 9976 045f 62756666 		.ascii	"buffer\000"
 9976      657200
 9977              	.LASF68:
 9978 0466 6C656674 		.ascii	"left\000"
 9978      00
 9979              	.LASF157:
 9980 046b 7265616C 		.ascii	"realign\000"
 9980      69676E00 
 9981              	.LASF243:
 9982 0473 6C765F64 		.ascii	"lv_disp_get_buf\000"
 9982      6973705F 
 9982      6765745F 
 9982      62756600 
 9983              	.LASF207:
 9984 0483 6269746D 		.ascii	"bitmask\000"
 9984      61736B00 
 9985              	.LASF219:
 9986 048b 666F6E74 		.ascii	"font_rgb\000"
 9986      5F726762 
 9986      00
 9987              	.LASF111:
 9988 0494 61726561 		.ascii	"area\000"
 9988      00
 9989              	.LASF89:
 9990 0499 6C765F73 		.ascii	"lv_style_t\000"
 9990      74796C65 
 9990      5F7400
 9991              	.LASF70:
 9992 04a4 696E6E65 		.ascii	"inner\000"
 9992      7200
 9993              	.LASF188:
 9994 04aa 6C765F64 		.ascii	"lv_draw_px\000"
 9994      7261775F 
ARM GAS  C:\Users\pearlstl\AppData\Local\Temp\ccmYHcOW.s 			page 209


 9994      707800
 9995              	.LASF10:
 9996 04b5 6C6F6E67 		.ascii	"long unsigned int\000"
 9996      20756E73 
 9996      69676E65 
 9996      6420696E 
 9996      7400
 9997              	.LASF220:
 9998 04c7 7478745F 		.ascii	"txt_rgb\000"
 9998      72676200 
 9999              	.LASF208:
 10000 04cf 6D61705F 		.ascii	"map_p\000"
 10000      7000
 10001              	.LASF240:
 10002 04d5 70785F63 		.ascii	"px_color_p\000"
 10002      6F6C6F72 
 10002      5F7000
 10003              	.LASF195:
 10004 04e0 6C765F64 		.ascii	"lv_draw_letter\000"
 10004      7261775F 
 10004      6C657474 
 10004      657200
 10005              	.LASF238:
 10006 04ef 7265636F 		.ascii	"recolored_px\000"
 10006      6C6F7265 
 10006      645F7078 
 10006      00
 10007              	.LASF88:
 10008 04fc 6C696E65 		.ascii	"line\000"
 10008      00
 10009              	.LASF217:
 10010 0501 70785F6F 		.ascii	"px_opa\000"
 10010      706100
 10011              	.LASF38:
 10012 0508 4C565F4F 		.ascii	"LV_OPA_0\000"
 10012      50415F30 
 10012      00
 10013              	.LASF231:
 10014 0511 7265636F 		.ascii	"recolor\000"
 10014      6C6F7200 
 10015              	.LASF114:
 10016 0519 5F646973 		.ascii	"_disp_drv_t\000"
 10016      705F6472 
 10016      765F7400 
 10017              	.LASF181:
 10018 0525 7664625F 		.ascii	"vdb_px_p\000"
 10018      70785F70 
 10018      00
 10019              	.LASF213:
 10020 052e 726F775F 		.ascii	"row_start\000"
 10020      73746172 
 10020      7400
 10021              	.LASF174:
 10022 0538 6C765F63 		.ascii	"lv_color_mix\000"
 10022      6F6C6F72 
 10022      5F6D6978 
 10022      00
ARM GAS  C:\Users\pearlstl\AppData\Local\Temp\ccmYHcOW.s 			page 210


 10023              	.LASF223:
 10024 0545 62675F72 		.ascii	"bg_rgb\000"
 10024      676200
 10025              	.LASF113:
 10026 054c 6C765F64 		.ascii	"lv_disp_buf_t\000"
 10026      6973705F 
 10026      6275665F 
 10026      7400
 10027              	.LASF9:
 10028 055a 5F5F7569 		.ascii	"__uint32_t\000"
 10028      6E743332 
 10028      5F7400
 10029              	.LASF139:
 10030 0565 6576656E 		.ascii	"event_cb\000"
 10030      745F6362 
 10030      00
 10031              	.LASF69:
 10032 056e 72696768 		.ascii	"right\000"
 10032      7400
 10033              	.LASF143:
 10034 0574 7374796C 		.ascii	"style_p\000"
 10034      655F7000 
 10035              	.LASF11:
 10036 057c 6C6F6E67 		.ascii	"long long int\000"
 10036      206C6F6E 
 10036      6720696E 
 10036      7400
 10037              	.LASF64:
 10038 058a 77696474 		.ascii	"width\000"
 10038      6800
 10039              	.LASF67:
 10040 0590 626F7474 		.ascii	"bottom\000"
 10040      6F6D00
 10041              	.LASF137:
 10042 0597 6368696C 		.ascii	"child_ll\000"
 10042      645F6C6C 
 10042      00
 10043              	.LASF190:
 10044 05a0 636F7264 		.ascii	"cords_p\000"
 10044      735F7000 
 10045              	.LASF154:
 10046 05a8 70726F74 		.ascii	"protect\000"
 10046      65637400 
 10047              	.LASF107:
 10048 05b0 62756631 		.ascii	"buf1\000"
 10048      00
 10049              	.LASF108:
 10050 05b5 62756632 		.ascii	"buf2\000"
 10050      00
 10051              	.LASF150:
 10052 05ba 70617265 		.ascii	"parent_event\000"
 10052      6E745F65 
 10052      76656E74 
 10052      00
 10053              	.LASF169:
 10054 05c7 616C6967 		.ascii	"align\000"
 10054      6E00
ARM GAS  C:\Users\pearlstl\AppData\Local\Temp\ccmYHcOW.s 			page 211


 10055              	.LASF37:
 10056 05cd 4C565F4F 		.ascii	"LV_OPA_TRANSP\000"
 10056      50415F54 
 10056      52414E53 
 10056      5000
 10057              	.LASF184:
 10058 05db 6D656D5F 		.ascii	"mem_first\000"
 10058      66697273 
 10058      7400
 10059              	.LASF84:
 10060 05e5 676C6173 		.ascii	"glass\000"
 10060      7300
 10061              	.LASF28:
 10062 05eb 4C565F46 		.ascii	"LV_FONT_SUBPX_HOR\000"
 10062      4F4E545F 
 10062      53554250 
 10062      585F484F 
 10062      5200
 10063              	.LASF13:
 10064 05fd 756E7369 		.ascii	"unsigned int\000"
 10064      676E6564 
 10064      20696E74 
 10064      00
 10065              	.LASF178:
 10066 060a 64697370 		.ascii	"disp\000"
 10066      00
 10067              	.LASF177:
 10068 060f 6D61736B 		.ascii	"mask_p\000"
 10068      5F7000
 10069              	.LASF212:
 10070 0616 636F6C5F 		.ascii	"col_end\000"
 10070      656E6400 
 10071              	.LASF191:
 10072 061e 7265735F 		.ascii	"res_a\000"
 10072      6100
 10073              	.LASF132:
 10074 0624 696E765F 		.ascii	"inv_areas\000"
 10074      61726561 
 10074      7300
 10075              	.LASF236:
 10076 062e 6D61705F 		.ascii	"map_useful_w\000"
 10076      75736566 
 10076      756C5F77 
 10076      00
 10077              	.LASF170:
 10078 063b 6175746F 		.ascii	"auto_realign\000"
 10078      5F726561 
 10078      6C69676E 
 10078      00
 10079              	.LASF105:
 10080 0648 6F6E6365 		.ascii	"once\000"
 10080      00
 10081              	.LASF192:
 10082 064d 756E696F 		.ascii	"union_ok\000"
 10082      6E5F6F6B 
 10082      00
 10083              	.LASF232:
ARM GAS  C:\Users\pearlstl\AppData\Local\Temp\ccmYHcOW.s 			page 212


 10084 0656 7265636F 		.ascii	"recolor_opa\000"
 10084      6C6F725F 
 10084      6F706100 
 10085              	.LASF26:
 10086 0662 6C765F66 		.ascii	"lv_font_glyph_dsc_t\000"
 10086      6F6E745F 
 10086      676C7970 
 10086      685F6473 
 10086      635F7400 
 10087              	.LASF72:
 10088 0676 67726164 		.ascii	"grad_color\000"
 10088      5F636F6C 
 10088      6F7200
 10089              	.LASF125:
 10090 0681 5F646973 		.ascii	"_disp_t\000"
 10090      705F7400 
 10091              	.LASF48:
 10092 0689 4C565F4F 		.ascii	"LV_OPA_100\000"
 10092      50415F31 
 10092      303000
 10093              	.LASF185:
 10094 0694 636F7079 		.ascii	"copy_size\000"
 10094      5F73697A 
 10094      6500
 10095              	.LASF196:
 10096 069e 706F735F 		.ascii	"pos_p\000"
 10096      7000
 10097              	.LASF203:
 10098 06a4 706F735F 		.ascii	"pos_x\000"
 10098      7800
 10099              	.LASF204:
 10100 06aa 706F735F 		.ascii	"pos_y\000"
 10100      7900
 10101              	.LASF90:
 10102 06b0 6C765F72 		.ascii	"lv_res_t\000"
 10102      65735F74 
 10102      00
 10103              	.LASF216:
 10104 06b9 6C657474 		.ascii	"letter_px\000"
 10104      65725F70 
 10104      7800
 10105              	.LASF109:
 10106 06c3 6275665F 		.ascii	"buf_act\000"
 10106      61637400 
 10107              	.LASF20:
 10108 06cb 6C6F6E67 		.ascii	"long double\000"
 10108      20646F75 
 10108      626C6500 
 10109              	.LASF173:
 10110 06d7 6C765F64 		.ascii	"lv_drag_dir_t\000"
 10110      7261675F 
 10110      6469725F 
 10110      7400
 10111              	.LASF142:
 10112 06e5 6578745F 		.ascii	"ext_attr\000"
 10112      61747472 
 10112      00
ARM GAS  C:\Users\pearlstl\AppData\Local\Temp\ccmYHcOW.s 			page 213


 10113              	.LASF159:
 10114 06ee 6C765F64 		.ascii	"lv_design_mode_t\000"
 10114      65736967 
 10114      6E5F6D6F 
 10114      64655F74 
 10114      00
 10115              	.LASF82:
 10116 06ff 73756270 		.ascii	"subpx\000"
 10116      7800
 10117              	.LASF49:
 10118 0705 4C565F4F 		.ascii	"LV_OPA_COVER\000"
 10118      50415F43 
 10118      4F564552 
 10118      00
 10119              	.LASF179:
 10120 0712 7664625F 		.ascii	"vdb_width\000"
 10120      77696474 
 10120      6800
 10121              	.LASF234:
 10122 071c 70785F73 		.ascii	"px_size_byte\000"
 10122      697A655F 
 10122      62797465 
 10122      00
 10123              	.LASF71:
 10124 0729 6D61696E 		.ascii	"main_color\000"
 10124      5F636F6C 
 10124      6F7200
 10125              	.LASF0:
 10126 0734 5F5F696E 		.ascii	"__int8_t\000"
 10126      74385F74 
 10126      00
 10127              	.LASF183:
 10128 073d 66696C6C 		.ascii	"fill_area\000"
 10128      5F617265 
 10128      6100
 10129              	.LASF163:
 10130 0747 6C765F73 		.ascii	"lv_signal_t\000"
 10130      69676E61 
 10130      6C5F7400 
 10131              	.LASF110:
 10132 0753 73697A65 		.ascii	"size\000"
 10132      00
 10133              	.LASF12:
 10134 0758 6C6F6E67 		.ascii	"long long unsigned int\000"
 10134      206C6F6E 
 10134      6720756E 
 10134      7369676E 
 10134      65642069 
 10135              	.LASF227:
 10136 076f 6C656E67 		.ascii	"length\000"
 10136      746800
 10137              	.LASF17:
 10138 0776 75696E74 		.ascii	"uint16_t\000"
 10138      31365F74 
 10138      00
 10139              	.LASF101:
 10140 077f 6C617374 		.ascii	"last_run\000"
ARM GAS  C:\Users\pearlstl\AppData\Local\Temp\ccmYHcOW.s 			page 214


 10140      5F72756E 
 10140      00
 10141              	.LASF55:
 10142 0788 6C765F63 		.ascii	"lv_color_t\000"
 10142      6F6C6F72 
 10142      5F7400
 10143              	.LASF215:
 10144 0793 6269745F 		.ascii	"bit_ofs\000"
 10144      6F667300 
 10145              	.LASF189:
 10146 079b 6C765F64 		.ascii	"lv_draw_fill\000"
 10146      7261775F 
 10146      66696C6C 
 10146      00
 10147              	.LASF235:
 10148 07a8 6D61705F 		.ascii	"map_width\000"
 10148      77696474 
 10148      6800
 10149              	.LASF106:
 10150 07b2 6C765F74 		.ascii	"lv_task_t\000"
 10150      61736B5F 
 10150      7400
 10151              	.LASF224:
 10152 07bc 73775F63 		.ascii	"sw_color_fill\000"
 10152      6F6C6F72 
 10152      5F66696C 
 10152      6C00
 10153              	.LASF39:
 10154 07ca 4C565F4F 		.ascii	"LV_OPA_10\000"
 10154      50415F31 
 10154      3000
 10155              	.LASF197:
 10156 07d4 666F6E74 		.ascii	"font_p\000"
 10156      5F7000
 10157              	.LASF100:
 10158 07db 70657269 		.ascii	"period\000"
 10158      6F6400
 10159              	.LASF120:
 10160 07e2 726F756E 		.ascii	"rounder_cb\000"
 10160      6465725F 
 10160      636200
 10161              	.LASF4:
 10162 07ed 5F5F696E 		.ascii	"__int16_t\000"
 10162      7431365F 
 10162      7400
 10163              	.LASF226:
 10164 07f7 64657374 		.ascii	"dest\000"
 10164      00
 10165              	.LASF53:
 10166 07fc 66756C6C 		.ascii	"full\000"
 10166      00
 10167              	.LASF40:
 10168 0801 4C565F4F 		.ascii	"LV_OPA_20\000"
 10168      50415F32 
 10168      3000
 10169              	.LASF63:
 10170 080b 636F6C6F 		.ascii	"color\000"
ARM GAS  C:\Users\pearlstl\AppData\Local\Temp\ccmYHcOW.s 			page 215


 10170      7200
 10171              	.LASF80:
 10172 0811 6C696E65 		.ascii	"line_space\000"
 10172      5F737061 
 10172      636500
 10173              	.LASF167:
 10174 081c 786F6673 		.ascii	"xofs\000"
 10174      00
 10175              	.LASF126:
 10176 0821 64726976 		.ascii	"driver\000"
 10176      657200
 10177              	.LASF241:
 10178 0828 70785F63 		.ascii	"px_color\000"
 10178      6F6C6F72 
 10178      00
 10179              	.LASF62:
 10180 0831 6C765F73 		.ascii	"lv_shadow_type_t\000"
 10180      6861646F 
 10180      775F7479 
 10180      70655F74 
 10180      00
 10181              	.LASF145:
 10182 0842 64726167 		.ascii	"drag\000"
 10182      00
 10183              	.LASF221:
 10184 0847 7375625F 		.ascii	"sub_px_cnt\000"
 10184      70785F63 
 10184      6E7400
 10185              	.LASF136:
 10186 0852 5F6C765F 		.ascii	"_lv_obj_t\000"
 10186      6F626A5F 
 10186      7400
 10187              	.LASF78:
 10188 085c 666F6E74 		.ascii	"font\000"
 10188      00
 10189              	.LASF79:
 10190 0861 6C657474 		.ascii	"letter_space\000"
 10190      65725F73 
 10190      70616365 
 10190      00
 10191              	.LASF41:
 10192 086e 4C565F4F 		.ascii	"LV_OPA_30\000"
 10192      50415F33 
 10192      3000
 10193              	.LASF152:
 10194 0878 62617365 		.ascii	"base_dir\000"
 10194      5F646972 
 10194      00
 10195              	.LASF23:
 10196 0881 626F785F 		.ascii	"box_h\000"
 10196      6800
 10197              	.LASF166:
 10198 0887 62617365 		.ascii	"base\000"
 10198      00
 10199              	.LASF22:
 10200 088c 626F785F 		.ascii	"box_w\000"
 10200      7700
ARM GAS  C:\Users\pearlstl\AppData\Local\Temp\ccmYHcOW.s 			page 216


 10201              	.LASF5:
 10202 0892 73686F72 		.ascii	"short int\000"
 10202      7420696E 
 10202      7400
 10203              	.LASF34:
 10204 089c 62617365 		.ascii	"base_line\000"
 10204      5F6C696E 
 10204      6500
 10205              	.LASF134:
 10206 08a6 696E765F 		.ascii	"inv_p\000"
 10206      7000
 10207              	.LASF95:
 10208 08ac 6C765F6C 		.ascii	"lv_ll_t\000"
 10208      6C5F7400 
 10209              	.LASF218:
 10210 08b4 636F6C5F 		.ascii	"col_bit\000"
 10210      62697400 
 10211              	.LASF187:
 10212 08bc 6F70615F 		.ascii	"opa_tmp\000"
 10212      746D7000 
 10213              	.LASF211:
 10214 08c4 636F6C5F 		.ascii	"col_start\000"
 10214      73746172 
 10214      7400
 10215              	.LASF42:
 10216 08ce 4C565F4F 		.ascii	"LV_OPA_40\000"
 10216      50415F34 
 10216      3000
 10217              	.LASF16:
 10218 08d8 696E7431 		.ascii	"int16_t\000"
 10218      365F7400 
 10219              	.LASF249:
 10220 08e0 433A5C55 		.ascii	"C:\\Users\\pearlstl\\Documents\\_Research\\projects"
 10220      73657273 
 10220      5C706561 
 10220      726C7374 
 10220      6C5C446F 
 10221 090e 5C74636F 		.ascii	"\\tcom_engineering\\embed_sw\\tcom_app\\tcom_app_ps"
 10221      6D5F656E 
 10221      67696E65 
 10221      6572696E 
 10221      675C656D 
 10222 093d 6F63365F 		.ascii	"oc6_lvgl6\\tcom_displ_test_psoc6.cydsn\000"
 10222      6C76676C 
 10222      365C7463 
 10222      6F6D5F64 
 10222      6973706C 
 10223              	.LASF138:
 10224 0963 636F6F72 		.ascii	"coords\000"
 10224      647300
 10225              	.LASF225:
 10226 096a 73775F6D 		.ascii	"sw_mem_blend\000"
 10226      656D5F62 
 10226      6C656E64 
 10226      00
 10227              	.LASF131:
 10228 0977 7379735F 		.ascii	"sys_layer\000"
ARM GAS  C:\Users\pearlstl\AppData\Local\Temp\ccmYHcOW.s 			page 217


 10228      6C617965 
 10228      7200
 10229              	.LASF91:
 10230 0981 6C765F6C 		.ascii	"lv_ll_node_t\000"
 10230      6C5F6E6F 
 10230      64655F74 
 10230      00
 10231              	.LASF149:
 10232 098e 6F70615F 		.ascii	"opa_scale_en\000"
 10232      7363616C 
 10232      655F656E 
 10232      00
 10233              	.LASF198:
 10234 099b 6C657474 		.ascii	"letter\000"
 10234      657200
 10235              	.LASF75:
 10236 09a2 73686164 		.ascii	"shadow\000"
 10236      6F7700
 10237              	.LASF43:
 10238 09a9 4C565F4F 		.ascii	"LV_OPA_50\000"
 10238      50415F35 
 10238      3000
 10239              	.LASF175:
 10240 09b3 6C765F61 		.ascii	"lv_area_get_width\000"
 10240      7265615F 
 10240      6765745F 
 10240      77696474 
 10240      6800
 10241              	.LASF147:
 10242 09c5 64726167 		.ascii	"drag_parent\000"
 10242      5F706172 
 10242      656E7400 
 10243              	.LASF228:
 10244 09d1 6C765F64 		.ascii	"lv_draw_map\000"
 10244      7261775F 
 10244      6D617000 
 10245              	.LASF250:
 10246 09dd 6D656D63 		.ascii	"memcpy\000"
 10246      707900
 10247              	.LASF124:
 10248 09e4 6C765F64 		.ascii	"lv_disp_drv_t\000"
 10248      6973705F 
 10248      6472765F 
 10248      7400
 10249              	.LASF245:
 10250 09f2 6C765F66 		.ascii	"lv_font_get_glyph_dsc\000"
 10250      6F6E745F 
 10250      6765745F 
 10250      676C7970 
 10250      685F6473 
 10251              	.LASF76:
 10252 0a08 70616464 		.ascii	"padding\000"
 10252      696E6700 
 10253              	.LASF140:
 10254 0a10 7369676E 		.ascii	"signal_cb\000"
 10254      616C5F63 
 10254      6200
ARM GAS  C:\Users\pearlstl\AppData\Local\Temp\ccmYHcOW.s 			page 218


 10255              	.LASF44:
 10256 0a1a 4C565F4F 		.ascii	"LV_OPA_60\000"
 10256      50415F36 
 10256      3000
 10257              	.LASF18:
 10258 0a24 75696E74 		.ascii	"uint32_t\000"
 10258      33325F74 
 10258      00
 10259              	.LASF51:
 10260 0a2d 67726565 		.ascii	"green\000"
 10260      6E00
 10261              	.LASF36:
 10262 0a33 6C765F66 		.ascii	"lv_font_t\000"
 10262      6F6E745F 
 10262      7400
 10263              	.LASF153:
 10264 0a3d 72657365 		.ascii	"reserved\000"
 10264      72766564 
 10264      00
 10265              	.LASF122:
 10266 0a46 6D6F6E69 		.ascii	"monitor_cb\000"
 10266      746F725F 
 10266      636200
 10267              	.LASF45:
 10268 0a51 4C565F4F 		.ascii	"LV_OPA_70\000"
 10268      50415F37 
 10268      3000
 10269              	.LASF7:
 10270 0a5b 73686F72 		.ascii	"short unsigned int\000"
 10270      7420756E 
 10270      7369676E 
 10270      65642069 
 10270      6E7400
 10271              	.LASF19:
 10272 0a6e 6C765F63 		.ascii	"lv_coord_t\000"
 10272      6F6F7264 
 10272      5F7400
 10273              	.LASF119:
 10274 0a79 666C7573 		.ascii	"flush_cb\000"
 10274      685F6362 
 10274      00
 10275              	.LASF103:
 10276 0a82 75736572 		.ascii	"user_data\000"
 10276      5F646174 
 10276      6100
 10277              	.LASF202:
 10278 0a8c 675F7265 		.ascii	"g_ret\000"
 10278      7400
 10279              	.LASF74:
 10280 0a92 626F7264 		.ascii	"border\000"
 10280      657200
 10281              	.LASF214:
 10282 0a99 726F775F 		.ascii	"row_end\000"
 10282      656E6400 
 10283              	.LASF31:
 10284 0aa1 6765745F 		.ascii	"get_glyph_dsc\000"
 10284      676C7970 
ARM GAS  C:\Users\pearlstl\AppData\Local\Temp\ccmYHcOW.s 			page 219


 10284      685F6473 
 10284      6300
 10285              	.LASF61:
 10286 0aaf 6C765F62 		.ascii	"lv_border_part_t\000"
 10286      6F726465 
 10286      725F7061 
 10286      72745F74 
 10286      00
 10287              	.LASF46:
 10288 0ac0 4C565F4F 		.ascii	"LV_OPA_80\000"
 10288      50415F38 
 10288      3000
 10289              	.LASF171:
 10290 0aca 6F726967 		.ascii	"origo_align\000"
 10290      6F5F616C 
 10290      69676E00 
 10291              	.LASF77:
 10292 0ad6 73656C5F 		.ascii	"sel_color\000"
 10292      636F6C6F 
 10292      7200
 10293              	.LASF97:
 10294 0ae0 6C765F74 		.ascii	"lv_task_cb_t\000"
 10294      61736B5F 
 10294      63625F74 
 10294      00
 10295              	.LASF199:
 10296 0aed 62707031 		.ascii	"bpp1_opa_table\000"
 10296      5F6F7061 
 10296      5F746162 
 10296      6C6500
 10297              	.LASF98:
 10298 0afc 5F6C765F 		.ascii	"_lv_font_struct\000"
 10298      666F6E74 
 10298      5F737472 
 10298      75637400 
 10299              	.LASF65:
 10300 0b0c 70617274 		.ascii	"part\000"
 10300      00
 10301              	.LASF92:
 10302 0b11 6E5F7369 		.ascii	"n_size\000"
 10302      7A6500
 10303              	.LASF160:
 10304 0b18 6C765F64 		.ascii	"lv_design_cb_t\000"
 10304      65736967 
 10304      6E5F6362 
 10304      5F7400
 10305              	.LASF47:
 10306 0b27 4C565F4F 		.ascii	"LV_OPA_90\000"
 10306      50415F39 
 10306      3000
 10307              	.LASF155:
 10308 0b31 6F70615F 		.ascii	"opa_scale\000"
 10308      7363616C 
 10308      6500
 10309              		.ident	"GCC: (GNU Tools for ARM Embedded Processors) 5.4.1 20160609 (release) [ARM/embedded-5-bran
