ARM GAS  C:\Users\pearlstl\AppData\Local\Temp\ccJvDP4q.s 			page 1


   1              		.syntax unified
   2              		.cpu cortex-m4
   3              		.eabi_attribute 27, 1
   4              		.fpu fpv4-sp-d16
   5              		.eabi_attribute 20, 1
   6              		.eabi_attribute 21, 1
   7              		.eabi_attribute 23, 3
   8              		.eabi_attribute 24, 1
   9              		.eabi_attribute 25, 1
  10              		.eabi_attribute 26, 1
  11              		.eabi_attribute 30, 2
  12              		.eabi_attribute 34, 1
  13              		.eabi_attribute 18, 4
  14              		.thumb
  15              		.syntax unified
  16              		.file	"lv_draw_img.c"
  17              		.text
  18              	.Ltext0:
  19              		.cfi_sections	.debug_frame
  20              		.section	.text.lv_draw_img,"ax",%progbits
  21              		.align	2
  22              		.global	lv_draw_img
  23              		.thumb
  24              		.thumb_func
  25              		.type	lv_draw_img, %function
  26              	lv_draw_img:
  27              	.LFB31:
  28              		.file 1 "..\\..\\..\\lvgl\\version_6.1.2\\lvgl\\src\\lv_draw\\lv_draw_img.c"
   1:..\..\..\lvgl\version_6.1.2\lvgl\src\lv_draw/lv_draw_img.c **** /**
   2:..\..\..\lvgl\version_6.1.2\lvgl\src\lv_draw/lv_draw_img.c ****  * @file lv_draw_img.c
   3:..\..\..\lvgl\version_6.1.2\lvgl\src\lv_draw/lv_draw_img.c ****  *
   4:..\..\..\lvgl\version_6.1.2\lvgl\src\lv_draw/lv_draw_img.c ****  */
   5:..\..\..\lvgl\version_6.1.2\lvgl\src\lv_draw/lv_draw_img.c **** 
   6:..\..\..\lvgl\version_6.1.2\lvgl\src\lv_draw/lv_draw_img.c **** /*********************
   7:..\..\..\lvgl\version_6.1.2\lvgl\src\lv_draw/lv_draw_img.c ****  *      INCLUDES
   8:..\..\..\lvgl\version_6.1.2\lvgl\src\lv_draw/lv_draw_img.c ****  *********************/
   9:..\..\..\lvgl\version_6.1.2\lvgl\src\lv_draw/lv_draw_img.c **** #include "lv_draw_img.h"
  10:..\..\..\lvgl\version_6.1.2\lvgl\src\lv_draw/lv_draw_img.c **** #include "lv_img_cache.h"
  11:..\..\..\lvgl\version_6.1.2\lvgl\src\lv_draw/lv_draw_img.c **** #include "../lv_misc/lv_log.h"
  12:..\..\..\lvgl\version_6.1.2\lvgl\src\lv_draw/lv_draw_img.c **** #include "../lv_misc/lv_mem.h"
  13:..\..\..\lvgl\version_6.1.2\lvgl\src\lv_draw/lv_draw_img.c **** 
  14:..\..\..\lvgl\version_6.1.2\lvgl\src\lv_draw/lv_draw_img.c **** /*********************
  15:..\..\..\lvgl\version_6.1.2\lvgl\src\lv_draw/lv_draw_img.c ****  *      DEFINES
  16:..\..\..\lvgl\version_6.1.2\lvgl\src\lv_draw/lv_draw_img.c ****  *********************/
  17:..\..\..\lvgl\version_6.1.2\lvgl\src\lv_draw/lv_draw_img.c **** 
  18:..\..\..\lvgl\version_6.1.2\lvgl\src\lv_draw/lv_draw_img.c **** /**********************
  19:..\..\..\lvgl\version_6.1.2\lvgl\src\lv_draw/lv_draw_img.c ****  *      TYPEDEFS
  20:..\..\..\lvgl\version_6.1.2\lvgl\src\lv_draw/lv_draw_img.c ****  **********************/
  21:..\..\..\lvgl\version_6.1.2\lvgl\src\lv_draw/lv_draw_img.c **** 
  22:..\..\..\lvgl\version_6.1.2\lvgl\src\lv_draw/lv_draw_img.c **** /**********************
  23:..\..\..\lvgl\version_6.1.2\lvgl\src\lv_draw/lv_draw_img.c ****  *  STATIC PROTOTYPES
  24:..\..\..\lvgl\version_6.1.2\lvgl\src\lv_draw/lv_draw_img.c ****  **********************/
  25:..\..\..\lvgl\version_6.1.2\lvgl\src\lv_draw/lv_draw_img.c **** static lv_res_t lv_img_draw_core(const lv_area_t * coords, const lv_area_t * mask, const void * src
  26:..\..\..\lvgl\version_6.1.2\lvgl\src\lv_draw/lv_draw_img.c ****                                  const lv_style_t * style, lv_opa_t opa_scale);
  27:..\..\..\lvgl\version_6.1.2\lvgl\src\lv_draw/lv_draw_img.c **** 
  28:..\..\..\lvgl\version_6.1.2\lvgl\src\lv_draw/lv_draw_img.c **** /**********************
  29:..\..\..\lvgl\version_6.1.2\lvgl\src\lv_draw/lv_draw_img.c ****  *  STATIC VARIABLES
ARM GAS  C:\Users\pearlstl\AppData\Local\Temp\ccJvDP4q.s 			page 2


  30:..\..\..\lvgl\version_6.1.2\lvgl\src\lv_draw/lv_draw_img.c ****  **********************/
  31:..\..\..\lvgl\version_6.1.2\lvgl\src\lv_draw/lv_draw_img.c **** 
  32:..\..\..\lvgl\version_6.1.2\lvgl\src\lv_draw/lv_draw_img.c **** /**********************
  33:..\..\..\lvgl\version_6.1.2\lvgl\src\lv_draw/lv_draw_img.c ****  *      MACROS
  34:..\..\..\lvgl\version_6.1.2\lvgl\src\lv_draw/lv_draw_img.c ****  **********************/
  35:..\..\..\lvgl\version_6.1.2\lvgl\src\lv_draw/lv_draw_img.c **** 
  36:..\..\..\lvgl\version_6.1.2\lvgl\src\lv_draw/lv_draw_img.c **** /**********************
  37:..\..\..\lvgl\version_6.1.2\lvgl\src\lv_draw/lv_draw_img.c ****  *   GLOBAL FUNCTIONS
  38:..\..\..\lvgl\version_6.1.2\lvgl\src\lv_draw/lv_draw_img.c ****  **********************/
  39:..\..\..\lvgl\version_6.1.2\lvgl\src\lv_draw/lv_draw_img.c **** 
  40:..\..\..\lvgl\version_6.1.2\lvgl\src\lv_draw/lv_draw_img.c **** /**
  41:..\..\..\lvgl\version_6.1.2\lvgl\src\lv_draw/lv_draw_img.c ****  * Draw an image
  42:..\..\..\lvgl\version_6.1.2\lvgl\src\lv_draw/lv_draw_img.c ****  * @param coords the coordinates of the image
  43:..\..\..\lvgl\version_6.1.2\lvgl\src\lv_draw/lv_draw_img.c ****  * @param mask the image will be drawn only in this area
  44:..\..\..\lvgl\version_6.1.2\lvgl\src\lv_draw/lv_draw_img.c ****  * @param src pointer to a lv_color_t array which contains the pixels of the image
  45:..\..\..\lvgl\version_6.1.2\lvgl\src\lv_draw/lv_draw_img.c ****  * @param style style of the image
  46:..\..\..\lvgl\version_6.1.2\lvgl\src\lv_draw/lv_draw_img.c ****  * @param opa_scale scale down all opacities by the factor
  47:..\..\..\lvgl\version_6.1.2\lvgl\src\lv_draw/lv_draw_img.c ****  */
  48:..\..\..\lvgl\version_6.1.2\lvgl\src\lv_draw/lv_draw_img.c **** void lv_draw_img(const lv_area_t * coords, const lv_area_t * mask, const void * src, const lv_style
  49:..\..\..\lvgl\version_6.1.2\lvgl\src\lv_draw/lv_draw_img.c ****                  lv_opa_t opa_scale)
  50:..\..\..\lvgl\version_6.1.2\lvgl\src\lv_draw/lv_draw_img.c **** {
  29              		.loc 1 50 0
  30              		.cfi_startproc
  31              		@ args = 4, pretend = 0, frame = 48
  32              		@ frame_needed = 0, uses_anonymous_args = 0
  33              	.LVL0:
  34 0000 2DE9F04F 		push	{r4, r5, r6, r7, r8, r9, r10, fp, lr}
  35              		.cfi_def_cfa_offset 36
  36              		.cfi_offset 4, -36
  37              		.cfi_offset 5, -32
  38              		.cfi_offset 6, -28
  39              		.cfi_offset 7, -24
  40              		.cfi_offset 8, -20
  41              		.cfi_offset 9, -16
  42              		.cfi_offset 10, -12
  43              		.cfi_offset 11, -8
  44              		.cfi_offset 14, -4
  45 0004 93B0     		sub	sp, sp, #76
  46              		.cfi_def_cfa_offset 112
  47              		.loc 1 50 0
  48 0006 0446     		mov	r4, r0
  49 0008 8846     		mov	r8, r1
  50 000a 9DF87090 		ldrb	r9, [sp, #112]	@ zero_extendqisi2
  51:..\..\..\lvgl\version_6.1.2\lvgl\src\lv_draw/lv_draw_img.c ****     if(src == NULL) {
  51              		.loc 1 51 0
  52 000e 1746     		mov	r7, r2
  53 0010 002A     		cmp	r2, #0
  54 0012 00F0F380 		beq	.L31
  55              	.LVL1:
  56              	.LBB50:
  57              	.LBB51:
  52:..\..\..\lvgl\version_6.1.2\lvgl\src\lv_draw/lv_draw_img.c ****         LV_LOG_WARN("Image draw: src is NULL");
  53:..\..\..\lvgl\version_6.1.2\lvgl\src\lv_draw/lv_draw_img.c ****         lv_draw_rect(coords, mask, &lv_style_plain, LV_OPA_COVER);
  54:..\..\..\lvgl\version_6.1.2\lvgl\src\lv_draw/lv_draw_img.c ****         lv_draw_label(coords, mask, &lv_style_plain, LV_OPA_COVER, "No\ndata", LV_TXT_FLAG_NONE, NU
  55:..\..\..\lvgl\version_6.1.2\lvgl\src\lv_draw/lv_draw_img.c ****         return;
  56:..\..\..\lvgl\version_6.1.2\lvgl\src\lv_draw/lv_draw_img.c ****     }
  57:..\..\..\lvgl\version_6.1.2\lvgl\src\lv_draw/lv_draw_img.c **** 
ARM GAS  C:\Users\pearlstl\AppData\Local\Temp\ccJvDP4q.s 			page 3


  58:..\..\..\lvgl\version_6.1.2\lvgl\src\lv_draw/lv_draw_img.c ****     lv_res_t res;
  59:..\..\..\lvgl\version_6.1.2\lvgl\src\lv_draw/lv_draw_img.c ****     res = lv_img_draw_core(coords, mask, src, style, opa_scale);
  60:..\..\..\lvgl\version_6.1.2\lvgl\src\lv_draw/lv_draw_img.c **** 
  61:..\..\..\lvgl\version_6.1.2\lvgl\src\lv_draw/lv_draw_img.c ****     if(res == LV_RES_INV) {
  62:..\..\..\lvgl\version_6.1.2\lvgl\src\lv_draw/lv_draw_img.c ****         LV_LOG_WARN("Image draw error");
  63:..\..\..\lvgl\version_6.1.2\lvgl\src\lv_draw/lv_draw_img.c ****         lv_draw_rect(coords, mask, &lv_style_plain, LV_OPA_COVER);
  64:..\..\..\lvgl\version_6.1.2\lvgl\src\lv_draw/lv_draw_img.c ****         lv_draw_label(coords, mask, &lv_style_plain, LV_OPA_COVER, "No\ndata", LV_TXT_FLAG_NONE, NU
  65:..\..\..\lvgl\version_6.1.2\lvgl\src\lv_draw/lv_draw_img.c ****         return;
  66:..\..\..\lvgl\version_6.1.2\lvgl\src\lv_draw/lv_draw_img.c ****     }
  67:..\..\..\lvgl\version_6.1.2\lvgl\src\lv_draw/lv_draw_img.c **** }
  68:..\..\..\lvgl\version_6.1.2\lvgl\src\lv_draw/lv_draw_img.c **** 
  69:..\..\..\lvgl\version_6.1.2\lvgl\src\lv_draw/lv_draw_img.c **** /**
  70:..\..\..\lvgl\version_6.1.2\lvgl\src\lv_draw/lv_draw_img.c ****  * Get the color of an image's pixel
  71:..\..\..\lvgl\version_6.1.2\lvgl\src\lv_draw/lv_draw_img.c ****  * @param dsc an image descriptor
  72:..\..\..\lvgl\version_6.1.2\lvgl\src\lv_draw/lv_draw_img.c ****  * @param x x coordinate of the point to get
  73:..\..\..\lvgl\version_6.1.2\lvgl\src\lv_draw/lv_draw_img.c ****  * @param y x coordinate of the point to get
  74:..\..\..\lvgl\version_6.1.2\lvgl\src\lv_draw/lv_draw_img.c ****  * @param style style of the image. In case of `LV_IMG_CF_ALPHA_1/2/4/8` `style->image.color` shows
  75:..\..\..\lvgl\version_6.1.2\lvgl\src\lv_draw/lv_draw_img.c ****  * the color. Can be `NULL` but for `ALPHA` images black will be returned. In other cases it is not
  76:..\..\..\lvgl\version_6.1.2\lvgl\src\lv_draw/lv_draw_img.c ****  * used.
  77:..\..\..\lvgl\version_6.1.2\lvgl\src\lv_draw/lv_draw_img.c ****  * @return color of the point
  78:..\..\..\lvgl\version_6.1.2\lvgl\src\lv_draw/lv_draw_img.c ****  */
  79:..\..\..\lvgl\version_6.1.2\lvgl\src\lv_draw/lv_draw_img.c **** lv_color_t lv_img_buf_get_px_color(lv_img_dsc_t * dsc, lv_coord_t x, lv_coord_t y, const lv_style_t
  80:..\..\..\lvgl\version_6.1.2\lvgl\src\lv_draw/lv_draw_img.c **** {
  81:..\..\..\lvgl\version_6.1.2\lvgl\src\lv_draw/lv_draw_img.c ****     lv_color_t p_color = LV_COLOR_BLACK;
  82:..\..\..\lvgl\version_6.1.2\lvgl\src\lv_draw/lv_draw_img.c ****     if(x >= (lv_coord_t)dsc->header.w) {
  83:..\..\..\lvgl\version_6.1.2\lvgl\src\lv_draw/lv_draw_img.c ****         x = dsc->header.w - 1;
  84:..\..\..\lvgl\version_6.1.2\lvgl\src\lv_draw/lv_draw_img.c ****         LV_LOG_WARN("lv_canvas_get_px: x is too large (out of canvas)");
  85:..\..\..\lvgl\version_6.1.2\lvgl\src\lv_draw/lv_draw_img.c ****     } else if(x < 0) {
  86:..\..\..\lvgl\version_6.1.2\lvgl\src\lv_draw/lv_draw_img.c ****         x = 0;
  87:..\..\..\lvgl\version_6.1.2\lvgl\src\lv_draw/lv_draw_img.c ****         LV_LOG_WARN("lv_canvas_get_px: x is < 0 (out of canvas)");
  88:..\..\..\lvgl\version_6.1.2\lvgl\src\lv_draw/lv_draw_img.c ****     }
  89:..\..\..\lvgl\version_6.1.2\lvgl\src\lv_draw/lv_draw_img.c **** 
  90:..\..\..\lvgl\version_6.1.2\lvgl\src\lv_draw/lv_draw_img.c ****     if(y >= (lv_coord_t)dsc->header.h) {
  91:..\..\..\lvgl\version_6.1.2\lvgl\src\lv_draw/lv_draw_img.c ****         y = dsc->header.h - 1;
  92:..\..\..\lvgl\version_6.1.2\lvgl\src\lv_draw/lv_draw_img.c ****         LV_LOG_WARN("lv_canvas_get_px: y is too large (out of canvas)");
  93:..\..\..\lvgl\version_6.1.2\lvgl\src\lv_draw/lv_draw_img.c ****     } else if(y < 0) {
  94:..\..\..\lvgl\version_6.1.2\lvgl\src\lv_draw/lv_draw_img.c ****         y = 0;
  95:..\..\..\lvgl\version_6.1.2\lvgl\src\lv_draw/lv_draw_img.c ****         LV_LOG_WARN("lv_canvas_get_px: y is < 0 (out of canvas)");
  96:..\..\..\lvgl\version_6.1.2\lvgl\src\lv_draw/lv_draw_img.c ****     }
  97:..\..\..\lvgl\version_6.1.2\lvgl\src\lv_draw/lv_draw_img.c **** 
  98:..\..\..\lvgl\version_6.1.2\lvgl\src\lv_draw/lv_draw_img.c ****     uint8_t * buf_u8 = (uint8_t *)dsc->data;
  99:..\..\..\lvgl\version_6.1.2\lvgl\src\lv_draw/lv_draw_img.c **** 
 100:..\..\..\lvgl\version_6.1.2\lvgl\src\lv_draw/lv_draw_img.c ****     if(dsc->header.cf == LV_IMG_CF_TRUE_COLOR || dsc->header.cf == LV_IMG_CF_TRUE_COLOR_CHROMA_KEYE
 101:..\..\..\lvgl\version_6.1.2\lvgl\src\lv_draw/lv_draw_img.c ****        dsc->header.cf == LV_IMG_CF_TRUE_COLOR_ALPHA) {
 102:..\..\..\lvgl\version_6.1.2\lvgl\src\lv_draw/lv_draw_img.c ****         uint8_t px_size = lv_img_color_format_get_px_size(dsc->header.cf) >> 3;
 103:..\..\..\lvgl\version_6.1.2\lvgl\src\lv_draw/lv_draw_img.c ****         uint32_t px     = dsc->header.w * y * px_size + x * px_size;
 104:..\..\..\lvgl\version_6.1.2\lvgl\src\lv_draw/lv_draw_img.c ****         memcpy(&p_color, &buf_u8[px], sizeof(lv_color_t));
 105:..\..\..\lvgl\version_6.1.2\lvgl\src\lv_draw/lv_draw_img.c **** #if LV_COLOR_SIZE == 32
 106:..\..\..\lvgl\version_6.1.2\lvgl\src\lv_draw/lv_draw_img.c ****         p_color.ch.alpha = 0xFF; /*Only the color should be get so use a deafult alpha value*/
 107:..\..\..\lvgl\version_6.1.2\lvgl\src\lv_draw/lv_draw_img.c **** #endif
 108:..\..\..\lvgl\version_6.1.2\lvgl\src\lv_draw/lv_draw_img.c ****     } else if(dsc->header.cf == LV_IMG_CF_INDEXED_1BIT) {
 109:..\..\..\lvgl\version_6.1.2\lvgl\src\lv_draw/lv_draw_img.c ****         buf_u8 += 4 * 2;
 110:..\..\..\lvgl\version_6.1.2\lvgl\src\lv_draw/lv_draw_img.c ****         uint8_t bit = x & 0x7;
 111:..\..\..\lvgl\version_6.1.2\lvgl\src\lv_draw/lv_draw_img.c ****         x           = x >> 3;
 112:..\..\..\lvgl\version_6.1.2\lvgl\src\lv_draw/lv_draw_img.c **** 
 113:..\..\..\lvgl\version_6.1.2\lvgl\src\lv_draw/lv_draw_img.c ****         /* Get the current pixel.
 114:..\..\..\lvgl\version_6.1.2\lvgl\src\lv_draw/lv_draw_img.c ****          * dsc->header.w + 7 means rounding up to 8 because the lines are byte aligned
ARM GAS  C:\Users\pearlstl\AppData\Local\Temp\ccJvDP4q.s 			page 4


 115:..\..\..\lvgl\version_6.1.2\lvgl\src\lv_draw/lv_draw_img.c ****          * so the possible real width are 8, 16, 24 ...*/
 116:..\..\..\lvgl\version_6.1.2\lvgl\src\lv_draw/lv_draw_img.c ****         uint32_t px  = ((dsc->header.w + 7) >> 3) * y + x;
 117:..\..\..\lvgl\version_6.1.2\lvgl\src\lv_draw/lv_draw_img.c ****         p_color.full = (buf_u8[px] & (1 << (7 - bit))) >> (7 - bit);
 118:..\..\..\lvgl\version_6.1.2\lvgl\src\lv_draw/lv_draw_img.c ****     } else if(dsc->header.cf == LV_IMG_CF_INDEXED_2BIT) {
 119:..\..\..\lvgl\version_6.1.2\lvgl\src\lv_draw/lv_draw_img.c ****         buf_u8 += 4 * 4;
 120:..\..\..\lvgl\version_6.1.2\lvgl\src\lv_draw/lv_draw_img.c ****         uint8_t bit = (x & 0x3) * 2;
 121:..\..\..\lvgl\version_6.1.2\lvgl\src\lv_draw/lv_draw_img.c ****         x           = x >> 2;
 122:..\..\..\lvgl\version_6.1.2\lvgl\src\lv_draw/lv_draw_img.c **** 
 123:..\..\..\lvgl\version_6.1.2\lvgl\src\lv_draw/lv_draw_img.c ****         /* Get the current pixel.
 124:..\..\..\lvgl\version_6.1.2\lvgl\src\lv_draw/lv_draw_img.c ****          * dsc->header.w + 3 means rounding up to 4 because the lines are byte aligned
 125:..\..\..\lvgl\version_6.1.2\lvgl\src\lv_draw/lv_draw_img.c ****          * so the possible real width are 4, 8, 12 ...*/
 126:..\..\..\lvgl\version_6.1.2\lvgl\src\lv_draw/lv_draw_img.c ****         uint32_t px  = ((dsc->header.w + 3) >> 2) * y + x;
 127:..\..\..\lvgl\version_6.1.2\lvgl\src\lv_draw/lv_draw_img.c ****         p_color.full = (buf_u8[px] & (3 << (6 - bit))) >> (6 - bit);
 128:..\..\..\lvgl\version_6.1.2\lvgl\src\lv_draw/lv_draw_img.c ****     } else if(dsc->header.cf == LV_IMG_CF_INDEXED_4BIT) {
 129:..\..\..\lvgl\version_6.1.2\lvgl\src\lv_draw/lv_draw_img.c ****         buf_u8 += 4 * 16;
 130:..\..\..\lvgl\version_6.1.2\lvgl\src\lv_draw/lv_draw_img.c ****         uint8_t bit = (x & 0x1) * 4;
 131:..\..\..\lvgl\version_6.1.2\lvgl\src\lv_draw/lv_draw_img.c ****         x           = x >> 1;
 132:..\..\..\lvgl\version_6.1.2\lvgl\src\lv_draw/lv_draw_img.c **** 
 133:..\..\..\lvgl\version_6.1.2\lvgl\src\lv_draw/lv_draw_img.c ****         /* Get the current pixel.
 134:..\..\..\lvgl\version_6.1.2\lvgl\src\lv_draw/lv_draw_img.c ****          * dsc->header.w + 1 means rounding up to 2 because the lines are byte aligned
 135:..\..\..\lvgl\version_6.1.2\lvgl\src\lv_draw/lv_draw_img.c ****          * so the possible real width are 2, 4, 6 ...*/
 136:..\..\..\lvgl\version_6.1.2\lvgl\src\lv_draw/lv_draw_img.c ****         uint32_t px  = ((dsc->header.w + 1) >> 1) * y + x;
 137:..\..\..\lvgl\version_6.1.2\lvgl\src\lv_draw/lv_draw_img.c ****         p_color.full = (buf_u8[px] & (0xF << (4 - bit))) >> (4 - bit);
 138:..\..\..\lvgl\version_6.1.2\lvgl\src\lv_draw/lv_draw_img.c ****     } else if(dsc->header.cf == LV_IMG_CF_INDEXED_8BIT) {
 139:..\..\..\lvgl\version_6.1.2\lvgl\src\lv_draw/lv_draw_img.c ****         buf_u8 += 4 * 256;
 140:..\..\..\lvgl\version_6.1.2\lvgl\src\lv_draw/lv_draw_img.c ****         uint32_t px  = dsc->header.w * y + x;
 141:..\..\..\lvgl\version_6.1.2\lvgl\src\lv_draw/lv_draw_img.c ****         p_color.full = buf_u8[px];
 142:..\..\..\lvgl\version_6.1.2\lvgl\src\lv_draw/lv_draw_img.c ****     } else if(dsc->header.cf == LV_IMG_CF_ALPHA_1BIT || dsc->header.cf == LV_IMG_CF_ALPHA_2BIT ||
 143:..\..\..\lvgl\version_6.1.2\lvgl\src\lv_draw/lv_draw_img.c ****               dsc->header.cf == LV_IMG_CF_ALPHA_4BIT || dsc->header.cf == LV_IMG_CF_ALPHA_8BIT) {
 144:..\..\..\lvgl\version_6.1.2\lvgl\src\lv_draw/lv_draw_img.c ****         if(style)
 145:..\..\..\lvgl\version_6.1.2\lvgl\src\lv_draw/lv_draw_img.c ****             p_color = style->image.color;
 146:..\..\..\lvgl\version_6.1.2\lvgl\src\lv_draw/lv_draw_img.c ****         else
 147:..\..\..\lvgl\version_6.1.2\lvgl\src\lv_draw/lv_draw_img.c ****             p_color = LV_COLOR_BLACK;
 148:..\..\..\lvgl\version_6.1.2\lvgl\src\lv_draw/lv_draw_img.c ****     }
 149:..\..\..\lvgl\version_6.1.2\lvgl\src\lv_draw/lv_draw_img.c ****     return p_color;
 150:..\..\..\lvgl\version_6.1.2\lvgl\src\lv_draw/lv_draw_img.c **** }
 151:..\..\..\lvgl\version_6.1.2\lvgl\src\lv_draw/lv_draw_img.c **** 
 152:..\..\..\lvgl\version_6.1.2\lvgl\src\lv_draw/lv_draw_img.c **** /**
 153:..\..\..\lvgl\version_6.1.2\lvgl\src\lv_draw/lv_draw_img.c ****  * Get the alpha value of an image's pixel
 154:..\..\..\lvgl\version_6.1.2\lvgl\src\lv_draw/lv_draw_img.c ****  * @param dsc pointer to an image descriptor
 155:..\..\..\lvgl\version_6.1.2\lvgl\src\lv_draw/lv_draw_img.c ****  * @param x x coordinate of the point to set
 156:..\..\..\lvgl\version_6.1.2\lvgl\src\lv_draw/lv_draw_img.c ****  * @param y x coordinate of the point to set
 157:..\..\..\lvgl\version_6.1.2\lvgl\src\lv_draw/lv_draw_img.c ****  * @return alpha value of the point
 158:..\..\..\lvgl\version_6.1.2\lvgl\src\lv_draw/lv_draw_img.c ****  */
 159:..\..\..\lvgl\version_6.1.2\lvgl\src\lv_draw/lv_draw_img.c **** lv_opa_t lv_img_buf_get_px_alpha(lv_img_dsc_t * dsc, lv_coord_t x, lv_coord_t y)
 160:..\..\..\lvgl\version_6.1.2\lvgl\src\lv_draw/lv_draw_img.c **** {
 161:..\..\..\lvgl\version_6.1.2\lvgl\src\lv_draw/lv_draw_img.c ****     if(x >= (lv_coord_t)dsc->header.w) {
 162:..\..\..\lvgl\version_6.1.2\lvgl\src\lv_draw/lv_draw_img.c ****         x = dsc->header.w - 1;
 163:..\..\..\lvgl\version_6.1.2\lvgl\src\lv_draw/lv_draw_img.c ****         LV_LOG_WARN("lv_canvas_get_px: x is too large (out of canvas)");
 164:..\..\..\lvgl\version_6.1.2\lvgl\src\lv_draw/lv_draw_img.c ****     } else if(x < 0) {
 165:..\..\..\lvgl\version_6.1.2\lvgl\src\lv_draw/lv_draw_img.c ****         x = 0;
 166:..\..\..\lvgl\version_6.1.2\lvgl\src\lv_draw/lv_draw_img.c ****         LV_LOG_WARN("lv_canvas_get_px: x is < 0 (out of canvas)");
 167:..\..\..\lvgl\version_6.1.2\lvgl\src\lv_draw/lv_draw_img.c ****     }
 168:..\..\..\lvgl\version_6.1.2\lvgl\src\lv_draw/lv_draw_img.c **** 
 169:..\..\..\lvgl\version_6.1.2\lvgl\src\lv_draw/lv_draw_img.c ****     if(y >= (lv_coord_t)dsc->header.h) {
 170:..\..\..\lvgl\version_6.1.2\lvgl\src\lv_draw/lv_draw_img.c ****         y = dsc->header.h - 1;
 171:..\..\..\lvgl\version_6.1.2\lvgl\src\lv_draw/lv_draw_img.c ****         LV_LOG_WARN("lv_canvas_get_px: y is too large (out of canvas)");
ARM GAS  C:\Users\pearlstl\AppData\Local\Temp\ccJvDP4q.s 			page 5


 172:..\..\..\lvgl\version_6.1.2\lvgl\src\lv_draw/lv_draw_img.c ****     } else if(y < 0) {
 173:..\..\..\lvgl\version_6.1.2\lvgl\src\lv_draw/lv_draw_img.c ****         y = 0;
 174:..\..\..\lvgl\version_6.1.2\lvgl\src\lv_draw/lv_draw_img.c ****         LV_LOG_WARN("lv_canvas_get_px: y is < 0 (out of canvas)");
 175:..\..\..\lvgl\version_6.1.2\lvgl\src\lv_draw/lv_draw_img.c ****     }
 176:..\..\..\lvgl\version_6.1.2\lvgl\src\lv_draw/lv_draw_img.c **** 
 177:..\..\..\lvgl\version_6.1.2\lvgl\src\lv_draw/lv_draw_img.c ****     uint8_t * buf_u8 = (uint8_t *)dsc->data;
 178:..\..\..\lvgl\version_6.1.2\lvgl\src\lv_draw/lv_draw_img.c **** 
 179:..\..\..\lvgl\version_6.1.2\lvgl\src\lv_draw/lv_draw_img.c ****     if(dsc->header.cf == LV_IMG_CF_TRUE_COLOR_ALPHA) {
 180:..\..\..\lvgl\version_6.1.2\lvgl\src\lv_draw/lv_draw_img.c ****         uint32_t px = dsc->header.w * y * LV_IMG_PX_SIZE_ALPHA_BYTE + x * LV_IMG_PX_SIZE_ALPHA_BYTE
 181:..\..\..\lvgl\version_6.1.2\lvgl\src\lv_draw/lv_draw_img.c ****         return buf_u8[px + LV_IMG_PX_SIZE_ALPHA_BYTE - 1];
 182:..\..\..\lvgl\version_6.1.2\lvgl\src\lv_draw/lv_draw_img.c ****     } else if(dsc->header.cf == LV_IMG_CF_ALPHA_1BIT) {
 183:..\..\..\lvgl\version_6.1.2\lvgl\src\lv_draw/lv_draw_img.c ****         uint8_t bit = x & 0x7;
 184:..\..\..\lvgl\version_6.1.2\lvgl\src\lv_draw/lv_draw_img.c ****         x           = x >> 3;
 185:..\..\..\lvgl\version_6.1.2\lvgl\src\lv_draw/lv_draw_img.c **** 
 186:..\..\..\lvgl\version_6.1.2\lvgl\src\lv_draw/lv_draw_img.c ****         /* Get the current pixel.
 187:..\..\..\lvgl\version_6.1.2\lvgl\src\lv_draw/lv_draw_img.c ****          * dsc->header.w + 7 means rounding up to 8 because the lines are byte aligned
 188:..\..\..\lvgl\version_6.1.2\lvgl\src\lv_draw/lv_draw_img.c ****          * so the possible real width are 8 ,16, 24 ...*/
 189:..\..\..\lvgl\version_6.1.2\lvgl\src\lv_draw/lv_draw_img.c ****         uint32_t px    = ((dsc->header.w + 7) >> 3) * y + x;
 190:..\..\..\lvgl\version_6.1.2\lvgl\src\lv_draw/lv_draw_img.c ****         uint8_t px_opa = (buf_u8[px] & (1 << (7 - bit))) >> (7 - bit);
 191:..\..\..\lvgl\version_6.1.2\lvgl\src\lv_draw/lv_draw_img.c ****         return px_opa ? LV_OPA_TRANSP : LV_OPA_COVER;
 192:..\..\..\lvgl\version_6.1.2\lvgl\src\lv_draw/lv_draw_img.c ****     } else if(dsc->header.cf == LV_IMG_CF_ALPHA_2BIT) {
 193:..\..\..\lvgl\version_6.1.2\lvgl\src\lv_draw/lv_draw_img.c ****         const uint8_t opa_table[4] = {0, 85, 170, 255}; /*Opacity mapping with bpp = 2*/
 194:..\..\..\lvgl\version_6.1.2\lvgl\src\lv_draw/lv_draw_img.c **** 
 195:..\..\..\lvgl\version_6.1.2\lvgl\src\lv_draw/lv_draw_img.c ****         uint8_t bit = (x & 0x3) * 2;
 196:..\..\..\lvgl\version_6.1.2\lvgl\src\lv_draw/lv_draw_img.c ****         x           = x >> 2;
 197:..\..\..\lvgl\version_6.1.2\lvgl\src\lv_draw/lv_draw_img.c **** 
 198:..\..\..\lvgl\version_6.1.2\lvgl\src\lv_draw/lv_draw_img.c ****         /* Get the current pixel.
 199:..\..\..\lvgl\version_6.1.2\lvgl\src\lv_draw/lv_draw_img.c ****          * dsc->header.w + 4 means rounding up to 8 because the lines are byte aligned
 200:..\..\..\lvgl\version_6.1.2\lvgl\src\lv_draw/lv_draw_img.c ****          * so the possible real width are 4 ,8, 12 ...*/
 201:..\..\..\lvgl\version_6.1.2\lvgl\src\lv_draw/lv_draw_img.c ****         uint32_t px    = ((dsc->header.w + 3) >> 2) * y + x;
 202:..\..\..\lvgl\version_6.1.2\lvgl\src\lv_draw/lv_draw_img.c ****         uint8_t px_opa = (buf_u8[px] & (3 << (6 - bit))) >> (6 - bit);
 203:..\..\..\lvgl\version_6.1.2\lvgl\src\lv_draw/lv_draw_img.c ****         return opa_table[px_opa];
 204:..\..\..\lvgl\version_6.1.2\lvgl\src\lv_draw/lv_draw_img.c ****     } else if(dsc->header.cf == LV_IMG_CF_ALPHA_4BIT) {
 205:..\..\..\lvgl\version_6.1.2\lvgl\src\lv_draw/lv_draw_img.c ****         const uint8_t opa_table[16] = {0,  17, 34,  51, /*Opacity mapping with bpp = 4*/
 206:..\..\..\lvgl\version_6.1.2\lvgl\src\lv_draw/lv_draw_img.c ****                                        68, 85, 102, 119, 136, 153, 170, 187, 204, 221, 238, 255};
 207:..\..\..\lvgl\version_6.1.2\lvgl\src\lv_draw/lv_draw_img.c **** 
 208:..\..\..\lvgl\version_6.1.2\lvgl\src\lv_draw/lv_draw_img.c ****         uint8_t bit = (x & 0x1) * 4;
 209:..\..\..\lvgl\version_6.1.2\lvgl\src\lv_draw/lv_draw_img.c ****         x           = x >> 1;
 210:..\..\..\lvgl\version_6.1.2\lvgl\src\lv_draw/lv_draw_img.c **** 
 211:..\..\..\lvgl\version_6.1.2\lvgl\src\lv_draw/lv_draw_img.c ****         /* Get the current pixel.
 212:..\..\..\lvgl\version_6.1.2\lvgl\src\lv_draw/lv_draw_img.c ****          * dsc->header.w + 1 means rounding up to 8 because the lines are byte aligned
 213:..\..\..\lvgl\version_6.1.2\lvgl\src\lv_draw/lv_draw_img.c ****          * so the possible real width are 2 ,4, 6 ...*/
 214:..\..\..\lvgl\version_6.1.2\lvgl\src\lv_draw/lv_draw_img.c ****         uint32_t px    = ((dsc->header.w + 1) >> 1) * y + x;
 215:..\..\..\lvgl\version_6.1.2\lvgl\src\lv_draw/lv_draw_img.c ****         uint8_t px_opa = (buf_u8[px] & (0xF << (4 - bit))) >> (4 - bit);
 216:..\..\..\lvgl\version_6.1.2\lvgl\src\lv_draw/lv_draw_img.c ****         return opa_table[px_opa];
 217:..\..\..\lvgl\version_6.1.2\lvgl\src\lv_draw/lv_draw_img.c ****     } else if(dsc->header.cf == LV_IMG_CF_ALPHA_8BIT) {
 218:..\..\..\lvgl\version_6.1.2\lvgl\src\lv_draw/lv_draw_img.c ****         uint32_t px = dsc->header.w * y + x;
 219:..\..\..\lvgl\version_6.1.2\lvgl\src\lv_draw/lv_draw_img.c ****         return buf_u8[px];
 220:..\..\..\lvgl\version_6.1.2\lvgl\src\lv_draw/lv_draw_img.c ****     }
 221:..\..\..\lvgl\version_6.1.2\lvgl\src\lv_draw/lv_draw_img.c **** 
 222:..\..\..\lvgl\version_6.1.2\lvgl\src\lv_draw/lv_draw_img.c ****     return LV_OPA_COVER;
 223:..\..\..\lvgl\version_6.1.2\lvgl\src\lv_draw/lv_draw_img.c **** }
 224:..\..\..\lvgl\version_6.1.2\lvgl\src\lv_draw/lv_draw_img.c **** 
 225:..\..\..\lvgl\version_6.1.2\lvgl\src\lv_draw/lv_draw_img.c **** /**
 226:..\..\..\lvgl\version_6.1.2\lvgl\src\lv_draw/lv_draw_img.c ****  * Set the color of a pixel of an image. The alpha channel won't be affected.
 227:..\..\..\lvgl\version_6.1.2\lvgl\src\lv_draw/lv_draw_img.c ****  * @param dsc pointer to an image descriptor
 228:..\..\..\lvgl\version_6.1.2\lvgl\src\lv_draw/lv_draw_img.c ****  * @param x x coordinate of the point to set
ARM GAS  C:\Users\pearlstl\AppData\Local\Temp\ccJvDP4q.s 			page 6


 229:..\..\..\lvgl\version_6.1.2\lvgl\src\lv_draw/lv_draw_img.c ****  * @param y x coordinate of the point to set
 230:..\..\..\lvgl\version_6.1.2\lvgl\src\lv_draw/lv_draw_img.c ****  * @param c color of the point
 231:..\..\..\lvgl\version_6.1.2\lvgl\src\lv_draw/lv_draw_img.c ****  */
 232:..\..\..\lvgl\version_6.1.2\lvgl\src\lv_draw/lv_draw_img.c **** void lv_img_buf_set_px_color(lv_img_dsc_t * dsc, lv_coord_t x, lv_coord_t y, lv_color_t c)
 233:..\..\..\lvgl\version_6.1.2\lvgl\src\lv_draw/lv_draw_img.c **** {
 234:..\..\..\lvgl\version_6.1.2\lvgl\src\lv_draw/lv_draw_img.c ****     uint8_t * buf_u8 = (uint8_t *)dsc->data;
 235:..\..\..\lvgl\version_6.1.2\lvgl\src\lv_draw/lv_draw_img.c **** 
 236:..\..\..\lvgl\version_6.1.2\lvgl\src\lv_draw/lv_draw_img.c ****     if(dsc->header.cf == LV_IMG_CF_TRUE_COLOR || dsc->header.cf == LV_IMG_CF_TRUE_COLOR_CHROMA_KEYE
 237:..\..\..\lvgl\version_6.1.2\lvgl\src\lv_draw/lv_draw_img.c ****         uint8_t px_size = lv_img_color_format_get_px_size(dsc->header.cf) >> 3;
 238:..\..\..\lvgl\version_6.1.2\lvgl\src\lv_draw/lv_draw_img.c ****         uint32_t px     = dsc->header.w * y * px_size + x * px_size;
 239:..\..\..\lvgl\version_6.1.2\lvgl\src\lv_draw/lv_draw_img.c ****         memcpy(&buf_u8[px], &c, px_size);
 240:..\..\..\lvgl\version_6.1.2\lvgl\src\lv_draw/lv_draw_img.c ****     } else if(dsc->header.cf == LV_IMG_CF_TRUE_COLOR_ALPHA) {
 241:..\..\..\lvgl\version_6.1.2\lvgl\src\lv_draw/lv_draw_img.c ****         uint8_t px_size = lv_img_color_format_get_px_size(dsc->header.cf) >> 3;
 242:..\..\..\lvgl\version_6.1.2\lvgl\src\lv_draw/lv_draw_img.c ****         uint32_t px     = dsc->header.w * y * px_size + x * px_size;
 243:..\..\..\lvgl\version_6.1.2\lvgl\src\lv_draw/lv_draw_img.c ****         memcpy(&buf_u8[px], &c, px_size - 1); /*-1 to not overwrite the alpha value*/
 244:..\..\..\lvgl\version_6.1.2\lvgl\src\lv_draw/lv_draw_img.c ****     } else if(dsc->header.cf == LV_IMG_CF_INDEXED_1BIT) {
 245:..\..\..\lvgl\version_6.1.2\lvgl\src\lv_draw/lv_draw_img.c ****         buf_u8 += sizeof(lv_color32_t) * 2; /*Skip the palette*/
 246:..\..\..\lvgl\version_6.1.2\lvgl\src\lv_draw/lv_draw_img.c **** 
 247:..\..\..\lvgl\version_6.1.2\lvgl\src\lv_draw/lv_draw_img.c ****         uint8_t bit = x & 0x7;
 248:..\..\..\lvgl\version_6.1.2\lvgl\src\lv_draw/lv_draw_img.c ****         x           = x >> 3;
 249:..\..\..\lvgl\version_6.1.2\lvgl\src\lv_draw/lv_draw_img.c **** 
 250:..\..\..\lvgl\version_6.1.2\lvgl\src\lv_draw/lv_draw_img.c ****         /* Get the current pixel.
 251:..\..\..\lvgl\version_6.1.2\lvgl\src\lv_draw/lv_draw_img.c ****          * dsc->header.w + 7 means rounding up to 8 because the lines are byte aligned
 252:..\..\..\lvgl\version_6.1.2\lvgl\src\lv_draw/lv_draw_img.c ****          * so the possible real width are 8 ,16, 24 ...*/
 253:..\..\..\lvgl\version_6.1.2\lvgl\src\lv_draw/lv_draw_img.c ****         uint32_t px = ((dsc->header.w + 7) >> 3) * y + x;
 254:..\..\..\lvgl\version_6.1.2\lvgl\src\lv_draw/lv_draw_img.c ****         buf_u8[px]  = buf_u8[px] & ~(1 << (7 - bit));
 255:..\..\..\lvgl\version_6.1.2\lvgl\src\lv_draw/lv_draw_img.c ****         buf_u8[px]  = buf_u8[px] | ((c.full & 0x1) << (7 - bit));
 256:..\..\..\lvgl\version_6.1.2\lvgl\src\lv_draw/lv_draw_img.c ****     } else if(dsc->header.cf == LV_IMG_CF_INDEXED_2BIT) {
 257:..\..\..\lvgl\version_6.1.2\lvgl\src\lv_draw/lv_draw_img.c ****         buf_u8 += sizeof(lv_color32_t) * 4; /*Skip the palette*/
 258:..\..\..\lvgl\version_6.1.2\lvgl\src\lv_draw/lv_draw_img.c ****         uint8_t bit = (x & 0x3) * 2;
 259:..\..\..\lvgl\version_6.1.2\lvgl\src\lv_draw/lv_draw_img.c ****         x           = x >> 2;
 260:..\..\..\lvgl\version_6.1.2\lvgl\src\lv_draw/lv_draw_img.c **** 
 261:..\..\..\lvgl\version_6.1.2\lvgl\src\lv_draw/lv_draw_img.c ****         /* Get the current pixel.
 262:..\..\..\lvgl\version_6.1.2\lvgl\src\lv_draw/lv_draw_img.c ****          * dsc->header.w + 3 means rounding up to 4 because the lines are byte aligned
 263:..\..\..\lvgl\version_6.1.2\lvgl\src\lv_draw/lv_draw_img.c ****          * so the possible real width are 4, 8 ,12 ...*/
 264:..\..\..\lvgl\version_6.1.2\lvgl\src\lv_draw/lv_draw_img.c ****         uint32_t px = ((dsc->header.w + 3) >> 2) * y + x;
 265:..\..\..\lvgl\version_6.1.2\lvgl\src\lv_draw/lv_draw_img.c **** 
 266:..\..\..\lvgl\version_6.1.2\lvgl\src\lv_draw/lv_draw_img.c ****         buf_u8[px] = buf_u8[px] & ~(3 << (6 - bit));
 267:..\..\..\lvgl\version_6.1.2\lvgl\src\lv_draw/lv_draw_img.c ****         buf_u8[px] = buf_u8[px] | ((c.full & 0x3) << (6 - bit));
 268:..\..\..\lvgl\version_6.1.2\lvgl\src\lv_draw/lv_draw_img.c ****     } else if(dsc->header.cf == LV_IMG_CF_INDEXED_4BIT) {
 269:..\..\..\lvgl\version_6.1.2\lvgl\src\lv_draw/lv_draw_img.c ****         buf_u8 += sizeof(lv_color32_t) * 16; /*Skip the palette*/
 270:..\..\..\lvgl\version_6.1.2\lvgl\src\lv_draw/lv_draw_img.c ****         uint8_t bit = (x & 0x1) * 4;
 271:..\..\..\lvgl\version_6.1.2\lvgl\src\lv_draw/lv_draw_img.c ****         x           = x >> 1;
 272:..\..\..\lvgl\version_6.1.2\lvgl\src\lv_draw/lv_draw_img.c **** 
 273:..\..\..\lvgl\version_6.1.2\lvgl\src\lv_draw/lv_draw_img.c ****         /* Get the current pixel.
 274:..\..\..\lvgl\version_6.1.2\lvgl\src\lv_draw/lv_draw_img.c ****          * dsc->header.w + 1 means rounding up to 2 because the lines are byte aligned
 275:..\..\..\lvgl\version_6.1.2\lvgl\src\lv_draw/lv_draw_img.c ****          * so the possible real width are 2 ,4, 6 ...*/
 276:..\..\..\lvgl\version_6.1.2\lvgl\src\lv_draw/lv_draw_img.c ****         uint32_t px = ((dsc->header.w + 1) >> 1) * y + x;
 277:..\..\..\lvgl\version_6.1.2\lvgl\src\lv_draw/lv_draw_img.c ****         buf_u8[px]  = buf_u8[px] & ~(0xF << (4 - bit));
 278:..\..\..\lvgl\version_6.1.2\lvgl\src\lv_draw/lv_draw_img.c ****         buf_u8[px]  = buf_u8[px] | ((c.full & 0xF) << (4 - bit));
 279:..\..\..\lvgl\version_6.1.2\lvgl\src\lv_draw/lv_draw_img.c ****     } else if(dsc->header.cf == LV_IMG_CF_INDEXED_8BIT) {
 280:..\..\..\lvgl\version_6.1.2\lvgl\src\lv_draw/lv_draw_img.c ****         buf_u8 += sizeof(lv_color32_t) * 256; /*Skip the palette*/
 281:..\..\..\lvgl\version_6.1.2\lvgl\src\lv_draw/lv_draw_img.c ****         uint32_t px = dsc->header.w * y + x;
 282:..\..\..\lvgl\version_6.1.2\lvgl\src\lv_draw/lv_draw_img.c ****         buf_u8[px]  = c.full;
 283:..\..\..\lvgl\version_6.1.2\lvgl\src\lv_draw/lv_draw_img.c ****     }
 284:..\..\..\lvgl\version_6.1.2\lvgl\src\lv_draw/lv_draw_img.c **** }
 285:..\..\..\lvgl\version_6.1.2\lvgl\src\lv_draw/lv_draw_img.c **** 
ARM GAS  C:\Users\pearlstl\AppData\Local\Temp\ccJvDP4q.s 			page 7


 286:..\..\..\lvgl\version_6.1.2\lvgl\src\lv_draw/lv_draw_img.c **** /**
 287:..\..\..\lvgl\version_6.1.2\lvgl\src\lv_draw/lv_draw_img.c ****  * Set the alpha value of a pixel of an image. The color won't be affected
 288:..\..\..\lvgl\version_6.1.2\lvgl\src\lv_draw/lv_draw_img.c ****  * @param dsc pointer to an image descriptor
 289:..\..\..\lvgl\version_6.1.2\lvgl\src\lv_draw/lv_draw_img.c ****  * @param x x coordinate of the point to set
 290:..\..\..\lvgl\version_6.1.2\lvgl\src\lv_draw/lv_draw_img.c ****  * @param y x coordinate of the point to set
 291:..\..\..\lvgl\version_6.1.2\lvgl\src\lv_draw/lv_draw_img.c ****  * @param opa the desired opacity
 292:..\..\..\lvgl\version_6.1.2\lvgl\src\lv_draw/lv_draw_img.c ****  */
 293:..\..\..\lvgl\version_6.1.2\lvgl\src\lv_draw/lv_draw_img.c **** void lv_img_buf_set_px_alpha(lv_img_dsc_t * dsc, lv_coord_t x, lv_coord_t y, lv_opa_t opa)
 294:..\..\..\lvgl\version_6.1.2\lvgl\src\lv_draw/lv_draw_img.c **** {
 295:..\..\..\lvgl\version_6.1.2\lvgl\src\lv_draw/lv_draw_img.c ****     uint8_t * buf_u8 = (uint8_t *)dsc->data;
 296:..\..\..\lvgl\version_6.1.2\lvgl\src\lv_draw/lv_draw_img.c **** 
 297:..\..\..\lvgl\version_6.1.2\lvgl\src\lv_draw/lv_draw_img.c ****     if(dsc->header.cf == LV_IMG_CF_TRUE_COLOR_ALPHA) {
 298:..\..\..\lvgl\version_6.1.2\lvgl\src\lv_draw/lv_draw_img.c ****         uint8_t px_size          = lv_img_color_format_get_px_size(dsc->header.cf) >> 3;
 299:..\..\..\lvgl\version_6.1.2\lvgl\src\lv_draw/lv_draw_img.c ****         uint32_t px              = dsc->header.w * y * px_size + x * px_size;
 300:..\..\..\lvgl\version_6.1.2\lvgl\src\lv_draw/lv_draw_img.c ****         buf_u8[px + px_size - 1] = opa;
 301:..\..\..\lvgl\version_6.1.2\lvgl\src\lv_draw/lv_draw_img.c ****     } else if(dsc->header.cf == LV_IMG_CF_ALPHA_1BIT) {
 302:..\..\..\lvgl\version_6.1.2\lvgl\src\lv_draw/lv_draw_img.c ****         opa         = opa >> 7; /*opa -> [0,1]*/
 303:..\..\..\lvgl\version_6.1.2\lvgl\src\lv_draw/lv_draw_img.c ****         uint8_t bit = x & 0x7;
 304:..\..\..\lvgl\version_6.1.2\lvgl\src\lv_draw/lv_draw_img.c ****         x           = x >> 3;
 305:..\..\..\lvgl\version_6.1.2\lvgl\src\lv_draw/lv_draw_img.c **** 
 306:..\..\..\lvgl\version_6.1.2\lvgl\src\lv_draw/lv_draw_img.c ****         /* Get the current pixel.
 307:..\..\..\lvgl\version_6.1.2\lvgl\src\lv_draw/lv_draw_img.c ****          * dsc->header.w + 7 means rounding up to 8 because the lines are byte aligned
 308:..\..\..\lvgl\version_6.1.2\lvgl\src\lv_draw/lv_draw_img.c ****          * so the possible real width are 8 ,16, 24 ...*/
 309:..\..\..\lvgl\version_6.1.2\lvgl\src\lv_draw/lv_draw_img.c ****         uint32_t px = ((dsc->header.w + 7) >> 3) * y + x;
 310:..\..\..\lvgl\version_6.1.2\lvgl\src\lv_draw/lv_draw_img.c ****         buf_u8[px]  = buf_u8[px] & ~(1 << (7 - bit));
 311:..\..\..\lvgl\version_6.1.2\lvgl\src\lv_draw/lv_draw_img.c ****         buf_u8[px]  = buf_u8[px] | ((opa & 0x1) << (7 - bit));
 312:..\..\..\lvgl\version_6.1.2\lvgl\src\lv_draw/lv_draw_img.c ****     } else if(dsc->header.cf == LV_IMG_CF_ALPHA_2BIT) {
 313:..\..\..\lvgl\version_6.1.2\lvgl\src\lv_draw/lv_draw_img.c ****         opa         = opa >> 6; /*opa -> [0,3]*/
 314:..\..\..\lvgl\version_6.1.2\lvgl\src\lv_draw/lv_draw_img.c ****         uint8_t bit = (x & 0x3) * 2;
 315:..\..\..\lvgl\version_6.1.2\lvgl\src\lv_draw/lv_draw_img.c ****         x           = x >> 2;
 316:..\..\..\lvgl\version_6.1.2\lvgl\src\lv_draw/lv_draw_img.c **** 
 317:..\..\..\lvgl\version_6.1.2\lvgl\src\lv_draw/lv_draw_img.c ****         /* Get the current pixel.
 318:..\..\..\lvgl\version_6.1.2\lvgl\src\lv_draw/lv_draw_img.c ****          * dsc->header.w + 4 means rounding up to 8 because the lines are byte aligned
 319:..\..\..\lvgl\version_6.1.2\lvgl\src\lv_draw/lv_draw_img.c ****          * so the possible real width are 4 ,8, 12 ...*/
 320:..\..\..\lvgl\version_6.1.2\lvgl\src\lv_draw/lv_draw_img.c ****         uint32_t px = ((dsc->header.w + 3) >> 2) * y + x;
 321:..\..\..\lvgl\version_6.1.2\lvgl\src\lv_draw/lv_draw_img.c ****         buf_u8[px]  = buf_u8[px] & ~(3 << (6 - bit));
 322:..\..\..\lvgl\version_6.1.2\lvgl\src\lv_draw/lv_draw_img.c ****         buf_u8[px]  = buf_u8[px] | ((opa & 0x3) << (6 - bit));
 323:..\..\..\lvgl\version_6.1.2\lvgl\src\lv_draw/lv_draw_img.c ****     } else if(dsc->header.cf == LV_IMG_CF_ALPHA_4BIT) {
 324:..\..\..\lvgl\version_6.1.2\lvgl\src\lv_draw/lv_draw_img.c ****         opa         = opa >> 4; /*opa -> [0,15]*/
 325:..\..\..\lvgl\version_6.1.2\lvgl\src\lv_draw/lv_draw_img.c ****         uint8_t bit = (x & 0x1) * 4;
 326:..\..\..\lvgl\version_6.1.2\lvgl\src\lv_draw/lv_draw_img.c ****         x           = x >> 1;
 327:..\..\..\lvgl\version_6.1.2\lvgl\src\lv_draw/lv_draw_img.c **** 
 328:..\..\..\lvgl\version_6.1.2\lvgl\src\lv_draw/lv_draw_img.c ****         /* Get the current pixel.
 329:..\..\..\lvgl\version_6.1.2\lvgl\src\lv_draw/lv_draw_img.c ****          * dsc->header.w + 1 means rounding up to 8 because the lines are byte aligned
 330:..\..\..\lvgl\version_6.1.2\lvgl\src\lv_draw/lv_draw_img.c ****          * so the possible real width are 2 ,4, 6 ...*/
 331:..\..\..\lvgl\version_6.1.2\lvgl\src\lv_draw/lv_draw_img.c ****         uint32_t px = ((dsc->header.w + 1) >> 1) * y + x;
 332:..\..\..\lvgl\version_6.1.2\lvgl\src\lv_draw/lv_draw_img.c ****         buf_u8[px]  = buf_u8[px] & ~(0xF << (4 - bit));
 333:..\..\..\lvgl\version_6.1.2\lvgl\src\lv_draw/lv_draw_img.c ****         buf_u8[px]  = buf_u8[px] | ((opa & 0xF) << (4 - bit));
 334:..\..\..\lvgl\version_6.1.2\lvgl\src\lv_draw/lv_draw_img.c ****     } else if(dsc->header.cf == LV_IMG_CF_ALPHA_8BIT) {
 335:..\..\..\lvgl\version_6.1.2\lvgl\src\lv_draw/lv_draw_img.c ****         uint32_t px = dsc->header.w * y + x;
 336:..\..\..\lvgl\version_6.1.2\lvgl\src\lv_draw/lv_draw_img.c ****         buf_u8[px]  = opa;
 337:..\..\..\lvgl\version_6.1.2\lvgl\src\lv_draw/lv_draw_img.c ****     }
 338:..\..\..\lvgl\version_6.1.2\lvgl\src\lv_draw/lv_draw_img.c **** }
 339:..\..\..\lvgl\version_6.1.2\lvgl\src\lv_draw/lv_draw_img.c **** 
 340:..\..\..\lvgl\version_6.1.2\lvgl\src\lv_draw/lv_draw_img.c **** /**
 341:..\..\..\lvgl\version_6.1.2\lvgl\src\lv_draw/lv_draw_img.c ****  * Set the palette color of an indexed image. Valid only for `LV_IMG_CF_INDEXED1/2/4/8`
 342:..\..\..\lvgl\version_6.1.2\lvgl\src\lv_draw/lv_draw_img.c ****  * @param dsc pointer to an image descriptor
ARM GAS  C:\Users\pearlstl\AppData\Local\Temp\ccJvDP4q.s 			page 8


 343:..\..\..\lvgl\version_6.1.2\lvgl\src\lv_draw/lv_draw_img.c ****  * @param id the palette color to set:
 344:..\..\..\lvgl\version_6.1.2\lvgl\src\lv_draw/lv_draw_img.c ****  *   - for `LV_IMG_CF_INDEXED1`: 0..1
 345:..\..\..\lvgl\version_6.1.2\lvgl\src\lv_draw/lv_draw_img.c ****  *   - for `LV_IMG_CF_INDEXED2`: 0..3
 346:..\..\..\lvgl\version_6.1.2\lvgl\src\lv_draw/lv_draw_img.c ****  *   - for `LV_IMG_CF_INDEXED4`: 0..15
 347:..\..\..\lvgl\version_6.1.2\lvgl\src\lv_draw/lv_draw_img.c ****  *   - for `LV_IMG_CF_INDEXED8`: 0..255
 348:..\..\..\lvgl\version_6.1.2\lvgl\src\lv_draw/lv_draw_img.c ****  * @param c the color to set
 349:..\..\..\lvgl\version_6.1.2\lvgl\src\lv_draw/lv_draw_img.c ****  */
 350:..\..\..\lvgl\version_6.1.2\lvgl\src\lv_draw/lv_draw_img.c **** void lv_img_buf_set_palette(lv_img_dsc_t * dsc, uint8_t id, lv_color_t c)
 351:..\..\..\lvgl\version_6.1.2\lvgl\src\lv_draw/lv_draw_img.c **** {
 352:..\..\..\lvgl\version_6.1.2\lvgl\src\lv_draw/lv_draw_img.c ****     if((dsc->header.cf == LV_IMG_CF_ALPHA_1BIT && id > 1) || (dsc->header.cf == LV_IMG_CF_ALPHA_2BI
 353:..\..\..\lvgl\version_6.1.2\lvgl\src\lv_draw/lv_draw_img.c ****        (dsc->header.cf == LV_IMG_CF_ALPHA_4BIT && id > 15) || (dsc->header.cf == LV_IMG_CF_ALPHA_8B
 354:..\..\..\lvgl\version_6.1.2\lvgl\src\lv_draw/lv_draw_img.c ****         LV_LOG_WARN("lv_img_buf_set_px_alpha: invalid 'id'");
 355:..\..\..\lvgl\version_6.1.2\lvgl\src\lv_draw/lv_draw_img.c ****         return;
 356:..\..\..\lvgl\version_6.1.2\lvgl\src\lv_draw/lv_draw_img.c ****     }
 357:..\..\..\lvgl\version_6.1.2\lvgl\src\lv_draw/lv_draw_img.c **** 
 358:..\..\..\lvgl\version_6.1.2\lvgl\src\lv_draw/lv_draw_img.c ****     lv_color32_t c32;
 359:..\..\..\lvgl\version_6.1.2\lvgl\src\lv_draw/lv_draw_img.c ****     c32.full      = lv_color_to32(c);
 360:..\..\..\lvgl\version_6.1.2\lvgl\src\lv_draw/lv_draw_img.c ****     uint8_t * buf = (uint8_t *)dsc->data;
 361:..\..\..\lvgl\version_6.1.2\lvgl\src\lv_draw/lv_draw_img.c ****     memcpy(&buf[id * sizeof(c32)], &c32, sizeof(c32));
 362:..\..\..\lvgl\version_6.1.2\lvgl\src\lv_draw/lv_draw_img.c **** }
 363:..\..\..\lvgl\version_6.1.2\lvgl\src\lv_draw/lv_draw_img.c **** 
 364:..\..\..\lvgl\version_6.1.2\lvgl\src\lv_draw/lv_draw_img.c **** /**
 365:..\..\..\lvgl\version_6.1.2\lvgl\src\lv_draw/lv_draw_img.c ****  * Get the pixel size of a color format in bits
 366:..\..\..\lvgl\version_6.1.2\lvgl\src\lv_draw/lv_draw_img.c ****  * @param cf a color format (`LV_IMG_CF_...`)
 367:..\..\..\lvgl\version_6.1.2\lvgl\src\lv_draw/lv_draw_img.c ****  * @return the pixel size in bits
 368:..\..\..\lvgl\version_6.1.2\lvgl\src\lv_draw/lv_draw_img.c ****  */
 369:..\..\..\lvgl\version_6.1.2\lvgl\src\lv_draw/lv_draw_img.c **** uint8_t lv_img_color_format_get_px_size(lv_img_cf_t cf)
 370:..\..\..\lvgl\version_6.1.2\lvgl\src\lv_draw/lv_draw_img.c **** {
 371:..\..\..\lvgl\version_6.1.2\lvgl\src\lv_draw/lv_draw_img.c ****     uint8_t px_size = 0;
 372:..\..\..\lvgl\version_6.1.2\lvgl\src\lv_draw/lv_draw_img.c **** 
 373:..\..\..\lvgl\version_6.1.2\lvgl\src\lv_draw/lv_draw_img.c ****     switch(cf) {
 374:..\..\..\lvgl\version_6.1.2\lvgl\src\lv_draw/lv_draw_img.c ****         case LV_IMG_CF_UNKNOWN:
 375:..\..\..\lvgl\version_6.1.2\lvgl\src\lv_draw/lv_draw_img.c ****         case LV_IMG_CF_RAW: px_size = 0; break;
 376:..\..\..\lvgl\version_6.1.2\lvgl\src\lv_draw/lv_draw_img.c ****         case LV_IMG_CF_TRUE_COLOR:
 377:..\..\..\lvgl\version_6.1.2\lvgl\src\lv_draw/lv_draw_img.c ****         case LV_IMG_CF_TRUE_COLOR_CHROMA_KEYED: px_size = LV_COLOR_SIZE; break;
 378:..\..\..\lvgl\version_6.1.2\lvgl\src\lv_draw/lv_draw_img.c ****         case LV_IMG_CF_TRUE_COLOR_ALPHA: px_size = LV_IMG_PX_SIZE_ALPHA_BYTE << 3; break;
 379:..\..\..\lvgl\version_6.1.2\lvgl\src\lv_draw/lv_draw_img.c ****         case LV_IMG_CF_INDEXED_1BIT:
 380:..\..\..\lvgl\version_6.1.2\lvgl\src\lv_draw/lv_draw_img.c ****         case LV_IMG_CF_ALPHA_1BIT: px_size = 1; break;
 381:..\..\..\lvgl\version_6.1.2\lvgl\src\lv_draw/lv_draw_img.c ****         case LV_IMG_CF_INDEXED_2BIT:
 382:..\..\..\lvgl\version_6.1.2\lvgl\src\lv_draw/lv_draw_img.c ****         case LV_IMG_CF_ALPHA_2BIT: px_size = 2; break;
 383:..\..\..\lvgl\version_6.1.2\lvgl\src\lv_draw/lv_draw_img.c ****         case LV_IMG_CF_INDEXED_4BIT:
 384:..\..\..\lvgl\version_6.1.2\lvgl\src\lv_draw/lv_draw_img.c ****         case LV_IMG_CF_ALPHA_4BIT: px_size = 4; break;
 385:..\..\..\lvgl\version_6.1.2\lvgl\src\lv_draw/lv_draw_img.c ****         case LV_IMG_CF_INDEXED_8BIT:
 386:..\..\..\lvgl\version_6.1.2\lvgl\src\lv_draw/lv_draw_img.c ****         case LV_IMG_CF_ALPHA_8BIT: px_size = 8; break;
 387:..\..\..\lvgl\version_6.1.2\lvgl\src\lv_draw/lv_draw_img.c ****         default: px_size = 0; break;
 388:..\..\..\lvgl\version_6.1.2\lvgl\src\lv_draw/lv_draw_img.c ****     }
 389:..\..\..\lvgl\version_6.1.2\lvgl\src\lv_draw/lv_draw_img.c **** 
 390:..\..\..\lvgl\version_6.1.2\lvgl\src\lv_draw/lv_draw_img.c ****     return px_size;
 391:..\..\..\lvgl\version_6.1.2\lvgl\src\lv_draw/lv_draw_img.c **** }
 392:..\..\..\lvgl\version_6.1.2\lvgl\src\lv_draw/lv_draw_img.c **** 
 393:..\..\..\lvgl\version_6.1.2\lvgl\src\lv_draw/lv_draw_img.c **** /**
 394:..\..\..\lvgl\version_6.1.2\lvgl\src\lv_draw/lv_draw_img.c ****  * Check if a color format is chroma keyed or not
 395:..\..\..\lvgl\version_6.1.2\lvgl\src\lv_draw/lv_draw_img.c ****  * @param cf a color format (`LV_IMG_CF_...`)
 396:..\..\..\lvgl\version_6.1.2\lvgl\src\lv_draw/lv_draw_img.c ****  * @return true: chroma keyed; false: not chroma keyed
 397:..\..\..\lvgl\version_6.1.2\lvgl\src\lv_draw/lv_draw_img.c ****  */
 398:..\..\..\lvgl\version_6.1.2\lvgl\src\lv_draw/lv_draw_img.c **** bool lv_img_color_format_is_chroma_keyed(lv_img_cf_t cf)
 399:..\..\..\lvgl\version_6.1.2\lvgl\src\lv_draw/lv_draw_img.c **** {
ARM GAS  C:\Users\pearlstl\AppData\Local\Temp\ccJvDP4q.s 			page 9


 400:..\..\..\lvgl\version_6.1.2\lvgl\src\lv_draw/lv_draw_img.c ****     bool is_chroma_keyed = false;
 401:..\..\..\lvgl\version_6.1.2\lvgl\src\lv_draw/lv_draw_img.c **** 
 402:..\..\..\lvgl\version_6.1.2\lvgl\src\lv_draw/lv_draw_img.c ****     switch(cf) {
 403:..\..\..\lvgl\version_6.1.2\lvgl\src\lv_draw/lv_draw_img.c ****         case LV_IMG_CF_TRUE_COLOR_CHROMA_KEYED:
 404:..\..\..\lvgl\version_6.1.2\lvgl\src\lv_draw/lv_draw_img.c ****         case LV_IMG_CF_RAW_CHROMA_KEYED:
 405:..\..\..\lvgl\version_6.1.2\lvgl\src\lv_draw/lv_draw_img.c **** #if LV_INDEXED_CHROMA
 406:..\..\..\lvgl\version_6.1.2\lvgl\src\lv_draw/lv_draw_img.c ****         case LV_IMG_CF_INDEXED_1BIT:
 407:..\..\..\lvgl\version_6.1.2\lvgl\src\lv_draw/lv_draw_img.c ****         case LV_IMG_CF_INDEXED_2BIT:
 408:..\..\..\lvgl\version_6.1.2\lvgl\src\lv_draw/lv_draw_img.c ****         case LV_IMG_CF_INDEXED_4BIT:
 409:..\..\..\lvgl\version_6.1.2\lvgl\src\lv_draw/lv_draw_img.c ****         case LV_IMG_CF_INDEXED_8BIT:
 410:..\..\..\lvgl\version_6.1.2\lvgl\src\lv_draw/lv_draw_img.c **** #endif
 411:..\..\..\lvgl\version_6.1.2\lvgl\src\lv_draw/lv_draw_img.c ****             is_chroma_keyed = true; break;
 412:..\..\..\lvgl\version_6.1.2\lvgl\src\lv_draw/lv_draw_img.c **** 
 413:..\..\..\lvgl\version_6.1.2\lvgl\src\lv_draw/lv_draw_img.c ****         default: is_chroma_keyed = false; break;
 414:..\..\..\lvgl\version_6.1.2\lvgl\src\lv_draw/lv_draw_img.c ****     }
 415:..\..\..\lvgl\version_6.1.2\lvgl\src\lv_draw/lv_draw_img.c **** 
 416:..\..\..\lvgl\version_6.1.2\lvgl\src\lv_draw/lv_draw_img.c ****     return is_chroma_keyed;
 417:..\..\..\lvgl\version_6.1.2\lvgl\src\lv_draw/lv_draw_img.c **** }
 418:..\..\..\lvgl\version_6.1.2\lvgl\src\lv_draw/lv_draw_img.c **** 
 419:..\..\..\lvgl\version_6.1.2\lvgl\src\lv_draw/lv_draw_img.c **** /**
 420:..\..\..\lvgl\version_6.1.2\lvgl\src\lv_draw/lv_draw_img.c ****  * Check if a color format has alpha channel or not
 421:..\..\..\lvgl\version_6.1.2\lvgl\src\lv_draw/lv_draw_img.c ****  * @param cf a color format (`LV_IMG_CF_...`)
 422:..\..\..\lvgl\version_6.1.2\lvgl\src\lv_draw/lv_draw_img.c ****  * @return true: has alpha channel; false: doesn't have alpha channel
 423:..\..\..\lvgl\version_6.1.2\lvgl\src\lv_draw/lv_draw_img.c ****  */
 424:..\..\..\lvgl\version_6.1.2\lvgl\src\lv_draw/lv_draw_img.c **** bool lv_img_color_format_has_alpha(lv_img_cf_t cf)
 425:..\..\..\lvgl\version_6.1.2\lvgl\src\lv_draw/lv_draw_img.c **** {
 426:..\..\..\lvgl\version_6.1.2\lvgl\src\lv_draw/lv_draw_img.c ****     bool has_alpha = false;
 427:..\..\..\lvgl\version_6.1.2\lvgl\src\lv_draw/lv_draw_img.c **** 
 428:..\..\..\lvgl\version_6.1.2\lvgl\src\lv_draw/lv_draw_img.c ****     switch(cf) {
 429:..\..\..\lvgl\version_6.1.2\lvgl\src\lv_draw/lv_draw_img.c ****         case LV_IMG_CF_TRUE_COLOR_ALPHA:
 430:..\..\..\lvgl\version_6.1.2\lvgl\src\lv_draw/lv_draw_img.c ****         case LV_IMG_CF_RAW_ALPHA:
 431:..\..\..\lvgl\version_6.1.2\lvgl\src\lv_draw/lv_draw_img.c ****         case LV_IMG_CF_INDEXED_1BIT:
 432:..\..\..\lvgl\version_6.1.2\lvgl\src\lv_draw/lv_draw_img.c ****         case LV_IMG_CF_INDEXED_2BIT:
 433:..\..\..\lvgl\version_6.1.2\lvgl\src\lv_draw/lv_draw_img.c ****         case LV_IMG_CF_INDEXED_4BIT:
 434:..\..\..\lvgl\version_6.1.2\lvgl\src\lv_draw/lv_draw_img.c ****         case LV_IMG_CF_INDEXED_8BIT:
 435:..\..\..\lvgl\version_6.1.2\lvgl\src\lv_draw/lv_draw_img.c ****         case LV_IMG_CF_ALPHA_1BIT:
 436:..\..\..\lvgl\version_6.1.2\lvgl\src\lv_draw/lv_draw_img.c ****         case LV_IMG_CF_ALPHA_2BIT:
 437:..\..\..\lvgl\version_6.1.2\lvgl\src\lv_draw/lv_draw_img.c ****         case LV_IMG_CF_ALPHA_4BIT:
 438:..\..\..\lvgl\version_6.1.2\lvgl\src\lv_draw/lv_draw_img.c ****         case LV_IMG_CF_ALPHA_8BIT: has_alpha = true; break;
 439:..\..\..\lvgl\version_6.1.2\lvgl\src\lv_draw/lv_draw_img.c ****         default: has_alpha = false; break;
 440:..\..\..\lvgl\version_6.1.2\lvgl\src\lv_draw/lv_draw_img.c ****     }
 441:..\..\..\lvgl\version_6.1.2\lvgl\src\lv_draw/lv_draw_img.c **** 
 442:..\..\..\lvgl\version_6.1.2\lvgl\src\lv_draw/lv_draw_img.c ****     return has_alpha;
 443:..\..\..\lvgl\version_6.1.2\lvgl\src\lv_draw/lv_draw_img.c **** }
 444:..\..\..\lvgl\version_6.1.2\lvgl\src\lv_draw/lv_draw_img.c **** 
 445:..\..\..\lvgl\version_6.1.2\lvgl\src\lv_draw/lv_draw_img.c **** /**
 446:..\..\..\lvgl\version_6.1.2\lvgl\src\lv_draw/lv_draw_img.c ****  * Get the type of an image source
 447:..\..\..\lvgl\version_6.1.2\lvgl\src\lv_draw/lv_draw_img.c ****  * @param src pointer to an image source:
 448:..\..\..\lvgl\version_6.1.2\lvgl\src\lv_draw/lv_draw_img.c ****  *  - pointer to an 'lv_img_t' variable (image stored internally and compiled into the code)
 449:..\..\..\lvgl\version_6.1.2\lvgl\src\lv_draw/lv_draw_img.c ****  *  - a path to a file (e.g. "S:/folder/image.bin")
 450:..\..\..\lvgl\version_6.1.2\lvgl\src\lv_draw/lv_draw_img.c ****  *  - or a symbol (e.g. LV_SYMBOL_CLOSE)
 451:..\..\..\lvgl\version_6.1.2\lvgl\src\lv_draw/lv_draw_img.c ****  * @return type of the image source LV_IMG_SRC_VARIABLE/FILE/SYMBOL/UNKNOWN
 452:..\..\..\lvgl\version_6.1.2\lvgl\src\lv_draw/lv_draw_img.c ****  */
 453:..\..\..\lvgl\version_6.1.2\lvgl\src\lv_draw/lv_draw_img.c **** lv_img_src_t lv_img_src_get_type(const void * src)
 454:..\..\..\lvgl\version_6.1.2\lvgl\src\lv_draw/lv_draw_img.c **** {
 455:..\..\..\lvgl\version_6.1.2\lvgl\src\lv_draw/lv_draw_img.c ****     lv_img_src_t img_src_type = LV_IMG_SRC_UNKNOWN;
 456:..\..\..\lvgl\version_6.1.2\lvgl\src\lv_draw/lv_draw_img.c **** 
ARM GAS  C:\Users\pearlstl\AppData\Local\Temp\ccJvDP4q.s 			page 10


 457:..\..\..\lvgl\version_6.1.2\lvgl\src\lv_draw/lv_draw_img.c ****     if(src == NULL) return img_src_type;
 458:..\..\..\lvgl\version_6.1.2\lvgl\src\lv_draw/lv_draw_img.c ****     const uint8_t * u8_p = src;
 459:..\..\..\lvgl\version_6.1.2\lvgl\src\lv_draw/lv_draw_img.c **** 
 460:..\..\..\lvgl\version_6.1.2\lvgl\src\lv_draw/lv_draw_img.c ****     /*The first byte shows the type of the image source*/
 461:..\..\..\lvgl\version_6.1.2\lvgl\src\lv_draw/lv_draw_img.c ****     if(u8_p[0] >= 0x20 && u8_p[0] <= 0x7F) {
 462:..\..\..\lvgl\version_6.1.2\lvgl\src\lv_draw/lv_draw_img.c ****         img_src_type = LV_IMG_SRC_FILE; /*If it's an ASCII character then it's file name*/
 463:..\..\..\lvgl\version_6.1.2\lvgl\src\lv_draw/lv_draw_img.c ****     } else if(u8_p[0] >= 0x80) {
 464:..\..\..\lvgl\version_6.1.2\lvgl\src\lv_draw/lv_draw_img.c ****         img_src_type = LV_IMG_SRC_SYMBOL; /*Symbols begins after 0x7F*/
 465:..\..\..\lvgl\version_6.1.2\lvgl\src\lv_draw/lv_draw_img.c ****     } else {
 466:..\..\..\lvgl\version_6.1.2\lvgl\src\lv_draw/lv_draw_img.c ****         img_src_type = LV_IMG_SRC_VARIABLE; /*`lv_img_dsc_t` is design to the first byte < 0x20*/
 467:..\..\..\lvgl\version_6.1.2\lvgl\src\lv_draw/lv_draw_img.c ****     }
 468:..\..\..\lvgl\version_6.1.2\lvgl\src\lv_draw/lv_draw_img.c **** 
 469:..\..\..\lvgl\version_6.1.2\lvgl\src\lv_draw/lv_draw_img.c ****     if(LV_IMG_SRC_UNKNOWN == img_src_type) {
 470:..\..\..\lvgl\version_6.1.2\lvgl\src\lv_draw/lv_draw_img.c ****         LV_LOG_WARN("lv_img_src_get_type: unknown image type");
 471:..\..\..\lvgl\version_6.1.2\lvgl\src\lv_draw/lv_draw_img.c ****     }
 472:..\..\..\lvgl\version_6.1.2\lvgl\src\lv_draw/lv_draw_img.c **** 
 473:..\..\..\lvgl\version_6.1.2\lvgl\src\lv_draw/lv_draw_img.c ****     return img_src_type;
 474:..\..\..\lvgl\version_6.1.2\lvgl\src\lv_draw/lv_draw_img.c **** }
 475:..\..\..\lvgl\version_6.1.2\lvgl\src\lv_draw/lv_draw_img.c **** 
 476:..\..\..\lvgl\version_6.1.2\lvgl\src\lv_draw/lv_draw_img.c **** lv_img_dsc_t *lv_img_buf_alloc(lv_coord_t w, lv_coord_t h, lv_img_cf_t cf)
 477:..\..\..\lvgl\version_6.1.2\lvgl\src\lv_draw/lv_draw_img.c **** {
 478:..\..\..\lvgl\version_6.1.2\lvgl\src\lv_draw/lv_draw_img.c ****     /* Allocate image descriptor */
 479:..\..\..\lvgl\version_6.1.2\lvgl\src\lv_draw/lv_draw_img.c ****     lv_img_dsc_t *dsc = lv_mem_alloc(sizeof(lv_img_dsc_t));
 480:..\..\..\lvgl\version_6.1.2\lvgl\src\lv_draw/lv_draw_img.c ****     if(dsc == NULL)
 481:..\..\..\lvgl\version_6.1.2\lvgl\src\lv_draw/lv_draw_img.c ****         return NULL;
 482:..\..\..\lvgl\version_6.1.2\lvgl\src\lv_draw/lv_draw_img.c ****     
 483:..\..\..\lvgl\version_6.1.2\lvgl\src\lv_draw/lv_draw_img.c ****     memset(dsc, 0, sizeof(lv_img_dsc_t));
 484:..\..\..\lvgl\version_6.1.2\lvgl\src\lv_draw/lv_draw_img.c ****     
 485:..\..\..\lvgl\version_6.1.2\lvgl\src\lv_draw/lv_draw_img.c ****     /* Get image data size */
 486:..\..\..\lvgl\version_6.1.2\lvgl\src\lv_draw/lv_draw_img.c ****     dsc->data_size = lv_img_buf_get_img_size(w, h, cf);
 487:..\..\..\lvgl\version_6.1.2\lvgl\src\lv_draw/lv_draw_img.c ****     if(dsc->data_size == 0) {
 488:..\..\..\lvgl\version_6.1.2\lvgl\src\lv_draw/lv_draw_img.c ****         lv_mem_free(dsc);
 489:..\..\..\lvgl\version_6.1.2\lvgl\src\lv_draw/lv_draw_img.c ****         return NULL;
 490:..\..\..\lvgl\version_6.1.2\lvgl\src\lv_draw/lv_draw_img.c ****     }
 491:..\..\..\lvgl\version_6.1.2\lvgl\src\lv_draw/lv_draw_img.c ****     
 492:..\..\..\lvgl\version_6.1.2\lvgl\src\lv_draw/lv_draw_img.c ****     /* Allocate raw buffer */
 493:..\..\..\lvgl\version_6.1.2\lvgl\src\lv_draw/lv_draw_img.c ****     dsc->data = lv_mem_alloc(dsc->data_size);
 494:..\..\..\lvgl\version_6.1.2\lvgl\src\lv_draw/lv_draw_img.c ****     if(dsc->data == NULL) {
 495:..\..\..\lvgl\version_6.1.2\lvgl\src\lv_draw/lv_draw_img.c ****         lv_mem_free(dsc);
 496:..\..\..\lvgl\version_6.1.2\lvgl\src\lv_draw/lv_draw_img.c ****         return NULL;
 497:..\..\..\lvgl\version_6.1.2\lvgl\src\lv_draw/lv_draw_img.c ****     }
 498:..\..\..\lvgl\version_6.1.2\lvgl\src\lv_draw/lv_draw_img.c ****     memset((uint8_t *)dsc->data, 0, dsc->data_size);
 499:..\..\..\lvgl\version_6.1.2\lvgl\src\lv_draw/lv_draw_img.c ****     
 500:..\..\..\lvgl\version_6.1.2\lvgl\src\lv_draw/lv_draw_img.c ****     /* Fill in header */
 501:..\..\..\lvgl\version_6.1.2\lvgl\src\lv_draw/lv_draw_img.c ****     dsc->header.always_zero = 0;
 502:..\..\..\lvgl\version_6.1.2\lvgl\src\lv_draw/lv_draw_img.c ****     dsc->header.w = w;
 503:..\..\..\lvgl\version_6.1.2\lvgl\src\lv_draw/lv_draw_img.c ****     dsc->header.h = h;
 504:..\..\..\lvgl\version_6.1.2\lvgl\src\lv_draw/lv_draw_img.c ****     dsc->header.cf = cf;
 505:..\..\..\lvgl\version_6.1.2\lvgl\src\lv_draw/lv_draw_img.c ****     return dsc;
 506:..\..\..\lvgl\version_6.1.2\lvgl\src\lv_draw/lv_draw_img.c **** }
 507:..\..\..\lvgl\version_6.1.2\lvgl\src\lv_draw/lv_draw_img.c **** 
 508:..\..\..\lvgl\version_6.1.2\lvgl\src\lv_draw/lv_draw_img.c **** void lv_img_buf_free(lv_img_dsc_t *dsc)
 509:..\..\..\lvgl\version_6.1.2\lvgl\src\lv_draw/lv_draw_img.c **** {
 510:..\..\..\lvgl\version_6.1.2\lvgl\src\lv_draw/lv_draw_img.c ****     if(dsc != NULL) {
 511:..\..\..\lvgl\version_6.1.2\lvgl\src\lv_draw/lv_draw_img.c ****         if(dsc->data != NULL)
 512:..\..\..\lvgl\version_6.1.2\lvgl\src\lv_draw/lv_draw_img.c ****             lv_mem_free(dsc->data);
 513:..\..\..\lvgl\version_6.1.2\lvgl\src\lv_draw/lv_draw_img.c ****         
ARM GAS  C:\Users\pearlstl\AppData\Local\Temp\ccJvDP4q.s 			page 11


 514:..\..\..\lvgl\version_6.1.2\lvgl\src\lv_draw/lv_draw_img.c ****         lv_mem_free(dsc);
 515:..\..\..\lvgl\version_6.1.2\lvgl\src\lv_draw/lv_draw_img.c ****     }
 516:..\..\..\lvgl\version_6.1.2\lvgl\src\lv_draw/lv_draw_img.c **** }
 517:..\..\..\lvgl\version_6.1.2\lvgl\src\lv_draw/lv_draw_img.c **** 
 518:..\..\..\lvgl\version_6.1.2\lvgl\src\lv_draw/lv_draw_img.c **** uint32_t lv_img_buf_get_img_size(lv_coord_t w, lv_coord_t h, lv_img_cf_t cf)
 519:..\..\..\lvgl\version_6.1.2\lvgl\src\lv_draw/lv_draw_img.c **** {
 520:..\..\..\lvgl\version_6.1.2\lvgl\src\lv_draw/lv_draw_img.c ****     switch(cf) {
 521:..\..\..\lvgl\version_6.1.2\lvgl\src\lv_draw/lv_draw_img.c ****         case LV_IMG_CF_TRUE_COLOR: return LV_IMG_BUF_SIZE_TRUE_COLOR(w, h);
 522:..\..\..\lvgl\version_6.1.2\lvgl\src\lv_draw/lv_draw_img.c ****         case LV_IMG_CF_TRUE_COLOR_ALPHA: return LV_IMG_BUF_SIZE_TRUE_COLOR_ALPHA(w, h);
 523:..\..\..\lvgl\version_6.1.2\lvgl\src\lv_draw/lv_draw_img.c ****         case LV_IMG_CF_TRUE_COLOR_CHROMA_KEYED: return LV_IMG_BUF_SIZE_TRUE_COLOR_CHROMA_KEYED(w, h
 524:..\..\..\lvgl\version_6.1.2\lvgl\src\lv_draw/lv_draw_img.c ****         case LV_IMG_CF_ALPHA_1BIT: return LV_IMG_BUF_SIZE_ALPHA_1BIT(w, h);
 525:..\..\..\lvgl\version_6.1.2\lvgl\src\lv_draw/lv_draw_img.c ****         case LV_IMG_CF_ALPHA_2BIT: return LV_IMG_BUF_SIZE_ALPHA_2BIT(w, h);
 526:..\..\..\lvgl\version_6.1.2\lvgl\src\lv_draw/lv_draw_img.c ****         case LV_IMG_CF_ALPHA_4BIT: return LV_IMG_BUF_SIZE_ALPHA_4BIT(w, h);
 527:..\..\..\lvgl\version_6.1.2\lvgl\src\lv_draw/lv_draw_img.c ****         case LV_IMG_CF_ALPHA_8BIT: return LV_IMG_BUF_SIZE_ALPHA_8BIT(w, h);
 528:..\..\..\lvgl\version_6.1.2\lvgl\src\lv_draw/lv_draw_img.c ****         case LV_IMG_CF_INDEXED_1BIT: return LV_IMG_BUF_SIZE_INDEXED_1BIT(w, h);
 529:..\..\..\lvgl\version_6.1.2\lvgl\src\lv_draw/lv_draw_img.c ****         case LV_IMG_CF_INDEXED_2BIT: return LV_IMG_BUF_SIZE_INDEXED_2BIT(w, h);
 530:..\..\..\lvgl\version_6.1.2\lvgl\src\lv_draw/lv_draw_img.c ****         case LV_IMG_CF_INDEXED_4BIT: return LV_IMG_BUF_SIZE_INDEXED_4BIT(w, h);
 531:..\..\..\lvgl\version_6.1.2\lvgl\src\lv_draw/lv_draw_img.c ****         case LV_IMG_CF_INDEXED_8BIT: return LV_IMG_BUF_SIZE_INDEXED_8BIT(w, h);
 532:..\..\..\lvgl\version_6.1.2\lvgl\src\lv_draw/lv_draw_img.c ****         default: return 0;
 533:..\..\..\lvgl\version_6.1.2\lvgl\src\lv_draw/lv_draw_img.c ****     }
 534:..\..\..\lvgl\version_6.1.2\lvgl\src\lv_draw/lv_draw_img.c **** }
 535:..\..\..\lvgl\version_6.1.2\lvgl\src\lv_draw/lv_draw_img.c **** 
 536:..\..\..\lvgl\version_6.1.2\lvgl\src\lv_draw/lv_draw_img.c **** /**********************
 537:..\..\..\lvgl\version_6.1.2\lvgl\src\lv_draw/lv_draw_img.c ****  *   STATIC FUNCTIONS
 538:..\..\..\lvgl\version_6.1.2\lvgl\src\lv_draw/lv_draw_img.c ****  **********************/
 539:..\..\..\lvgl\version_6.1.2\lvgl\src\lv_draw/lv_draw_img.c **** 
 540:..\..\..\lvgl\version_6.1.2\lvgl\src\lv_draw/lv_draw_img.c **** static lv_res_t lv_img_draw_core(const lv_area_t * coords, const lv_area_t * mask, const void * src
 541:..\..\..\lvgl\version_6.1.2\lvgl\src\lv_draw/lv_draw_img.c ****                                  const lv_style_t * style, lv_opa_t opa_scale)
 542:..\..\..\lvgl\version_6.1.2\lvgl\src\lv_draw/lv_draw_img.c **** {
 543:..\..\..\lvgl\version_6.1.2\lvgl\src\lv_draw/lv_draw_img.c **** 
 544:..\..\..\lvgl\version_6.1.2\lvgl\src\lv_draw/lv_draw_img.c ****     lv_area_t mask_com; /*Common area of mask and coords*/
 545:..\..\..\lvgl\version_6.1.2\lvgl\src\lv_draw/lv_draw_img.c ****     bool union_ok;
 546:..\..\..\lvgl\version_6.1.2\lvgl\src\lv_draw/lv_draw_img.c ****     union_ok = lv_area_intersect(&mask_com, mask, coords);
  58              		.loc 1 546 0
  59 0016 0EAE     		add	r6, sp, #56
  60 0018 3046     		mov	r0, r6
  61              	.LVL2:
  62 001a 2246     		mov	r2, r4
  63              	.LVL3:
  64 001c 1D46     		mov	r5, r3
  65              	.LVL4:
  66 001e FFF7FEFF 		bl	lv_area_intersect
  67              	.LVL5:
 547:..\..\..\lvgl\version_6.1.2\lvgl\src\lv_draw/lv_draw_img.c ****     if(union_ok == false) {
  68              		.loc 1 547 0
  69 0022 0028     		cmp	r0, #0
  70 0024 44D0     		beq	.L1
 548:..\..\..\lvgl\version_6.1.2\lvgl\src\lv_draw/lv_draw_img.c ****         return LV_RES_OK; /*Out of mask. There is nothing to draw so the image is drawn
 549:..\..\..\lvgl\version_6.1.2\lvgl\src\lv_draw/lv_draw_img.c ****                              successfully.*/
 550:..\..\..\lvgl\version_6.1.2\lvgl\src\lv_draw/lv_draw_img.c ****     }
 551:..\..\..\lvgl\version_6.1.2\lvgl\src\lv_draw/lv_draw_img.c **** 
 552:..\..\..\lvgl\version_6.1.2\lvgl\src\lv_draw/lv_draw_img.c ****     lv_opa_t opa =
  71              		.loc 1 552 0
  72 0026 B9F1FF0F 		cmp	r9, #255
  73 002a 16BF     		itet	ne
  74 002c 95F84530 		ldrbne	r3, [r5, #69]	@ zero_extendqisi2
  75 0030 95F84590 		ldrbeq	r9, [r5, #69]	@ zero_extendqisi2
ARM GAS  C:\Users\pearlstl\AppData\Local\Temp\ccJvDP4q.s 			page 12


  76              	.LVL6:
  77 0034 03FB09F9 		mulne	r9, r3, r9
 553:..\..\..\lvgl\version_6.1.2\lvgl\src\lv_draw/lv_draw_img.c ****         opa_scale == LV_OPA_COVER ? style->image.opa : (uint16_t)((uint16_t)style->image.opa * opa_
 554:..\..\..\lvgl\version_6.1.2\lvgl\src\lv_draw/lv_draw_img.c **** 
 555:..\..\..\lvgl\version_6.1.2\lvgl\src\lv_draw/lv_draw_img.c ****     lv_img_cache_entry_t * cdsc = lv_img_cache_open(src, style);
  78              		.loc 1 555 0
  79 0038 3846     		mov	r0, r7
  80              	.LVL7:
  81 003a 2946     		mov	r1, r5
 552:..\..\..\lvgl\version_6.1.2\lvgl\src\lv_draw/lv_draw_img.c ****         opa_scale == LV_OPA_COVER ? style->image.opa : (uint16_t)((uint16_t)style->image.opa * opa_
  82              		.loc 1 552 0
  83 003c 18BF     		it	ne
  84 003e C9F30729 		ubfxne	r9, r9, #8, #8
  85              	.LVL8:
  86              		.loc 1 555 0
  87 0042 FFF7FEFF 		bl	lv_img_cache_open
  88              	.LVL9:
 556:..\..\..\lvgl\version_6.1.2\lvgl\src\lv_draw/lv_draw_img.c **** 
 557:..\..\..\lvgl\version_6.1.2\lvgl\src\lv_draw/lv_draw_img.c ****     if(cdsc == NULL) return LV_RES_INV;
  89              		.loc 1 557 0
  90 0046 0746     		mov	r7, r0
  91              	.LVL10:
  92 0048 0028     		cmp	r0, #0
  93 004a 00F09E80 		beq	.L7
 558:..\..\..\lvgl\version_6.1.2\lvgl\src\lv_draw/lv_draw_img.c **** 
 559:..\..\..\lvgl\version_6.1.2\lvgl\src\lv_draw/lv_draw_img.c ****     bool chroma_keyed = lv_img_color_format_is_chroma_keyed(cdsc->dec_dsc.header.cf);
  94              		.loc 1 559 0
  95 004e 037C     		ldrb	r3, [r0, #16]	@ zero_extendqisi2
  96 0050 03F01F03 		and	r3, r3, #31
  97              	.LVL11:
  98 0054 0A2B     		cmp	r3, #10
  99 0056 00F2AF80 		bhi	.L8
 100 005a 4FF0010B 		mov	fp, #1
 101 005e 0BFA03F2 		lsl	r2, fp, r3
 102 0062 12F4F96F 		tst	r2, #1992
 103 0066 03D1     		bne	.L9
 104              	.LVL12:
 105              	.L10:
 106 0068 0122     		movs	r2, #1
 107 006a 9A40     		lsls	r2, r2, r3
 108              	.LBE51:
 109              	.LBE50:
  50:..\..\..\lvgl\version_6.1.2\lvgl\src\lv_draw/lv_draw_img.c ****     if(src == NULL) {
 110              		.loc 1 50 0
 111 006c 4FF0000B 		mov	fp, #0
 112              	.LVL13:
 113              	.L9:
 114 0070 47F6A473 		movw	r3, #32676
 115              	.LVL14:
 116 0074 1340     		ands	r3, r3, r2
 117 0076 002B     		cmp	r3, #0
 118 0078 40F0A580 		bne	.L21
 119              	.LVL15:
 120              	.L11:
 121              	.LBB64:
 122              	.LBB61:
 123              	.LBB52:
ARM GAS  C:\Users\pearlstl\AppData\Local\Temp\ccJvDP4q.s 			page 13


 124              	.LBB53:
 439:..\..\..\lvgl\version_6.1.2\lvgl\src\lv_draw/lv_draw_img.c ****     }
 125              		.loc 1 439 0
 126 007c 0023     		movs	r3, #0
 127 007e 0793     		str	r3, [sp, #28]
 128              	.LBE53:
 129              	.LBE52:
 560:..\..\..\lvgl\version_6.1.2\lvgl\src\lv_draw/lv_draw_img.c ****     bool alpha_byte   = lv_img_color_format_has_alpha(cdsc->dec_dsc.header.cf);
 561:..\..\..\lvgl\version_6.1.2\lvgl\src\lv_draw/lv_draw_img.c **** 
 562:..\..\..\lvgl\version_6.1.2\lvgl\src\lv_draw/lv_draw_img.c ****     if(cdsc->dec_dsc.error_msg != NULL) {
 130              		.loc 1 562 0
 131 0080 FB69     		ldr	r3, [r7, #28]
 132 0082 002B     		cmp	r3, #0
 133 0084 00F0A580 		beq	.L13
 134              	.L32:
 563:..\..\..\lvgl\version_6.1.2\lvgl\src\lv_draw/lv_draw_img.c ****         LV_LOG_WARN("Image draw error");
 564:..\..\..\lvgl\version_6.1.2\lvgl\src\lv_draw/lv_draw_img.c ****         lv_draw_rect(coords, mask, &lv_style_plain, LV_OPA_COVER);
 135              		.loc 1 564 0
 136 0088 FF23     		movs	r3, #255
 137 008a 664A     		ldr	r2, .L33
 138 008c 4146     		mov	r1, r8
 139 008e 2046     		mov	r0, r4
 140              	.LVL16:
 141 0090 FFF7FEFF 		bl	lv_draw_rect
 142              	.LVL17:
 565:..\..\..\lvgl\version_6.1.2\lvgl\src\lv_draw/lv_draw_img.c ****         lv_draw_label(coords, mask, &lv_style_plain, LV_OPA_COVER, cdsc->dec_dsc.error_msg, LV_TXT_
 143              		.loc 1 565 0
 144 0094 0023     		movs	r3, #0
 145 0096 0593     		str	r3, [sp, #20]
 146 0098 0493     		str	r3, [sp, #16]
 147 009a 0393     		str	r3, [sp, #12]
 148 009c 0293     		str	r3, [sp, #8]
 149 009e 0193     		str	r3, [sp, #4]
 150 00a0 FB69     		ldr	r3, [r7, #28]
 151 00a2 0093     		str	r3, [sp]
 152 00a4 4146     		mov	r1, r8
 153 00a6 2046     		mov	r0, r4
 154 00a8 FF23     		movs	r3, #255
 155 00aa 5E4A     		ldr	r2, .L33
 156 00ac FFF7FEFF 		bl	lv_draw_label
 157              	.LVL18:
 158              	.L1:
 159              	.LBE61:
 160              	.LBE64:
  67:..\..\..\lvgl\version_6.1.2\lvgl\src\lv_draw/lv_draw_img.c **** 
 161              		.loc 1 67 0
 162 00b0 13B0     		add	sp, sp, #76
 163              		.cfi_remember_state
 164              		.cfi_def_cfa_offset 36
 165              		@ sp needed
 166 00b2 BDE8F08F 		pop	{r4, r5, r6, r7, r8, r9, r10, fp, pc}
 167              	.LVL19:
 168              	.L14:
 169              		.cfi_restore_state
 170              	.LBB65:
 171              	.LBB62:
 172              	.LBB55:
ARM GAS  C:\Users\pearlstl\AppData\Local\Temp\ccJvDP4q.s 			page 14


 173              	.LBB56:
 174              	.LBB57:
 175              		.file 2 "..\\..\\..\\lvgl\\version_6.1.2\\lvgl\\src\\lv_draw\\../lv_core/../lv_misc/lv_area.h"
   1:..\..\..\lvgl\version_6.1.2\lvgl\src\lv_draw\../lv_core/../lv_misc/lv_area.h **** /**
   2:..\..\..\lvgl\version_6.1.2\lvgl\src\lv_draw\../lv_core/../lv_misc/lv_area.h ****  * @file lv_area.h
   3:..\..\..\lvgl\version_6.1.2\lvgl\src\lv_draw\../lv_core/../lv_misc/lv_area.h ****  *
   4:..\..\..\lvgl\version_6.1.2\lvgl\src\lv_draw\../lv_core/../lv_misc/lv_area.h ****  */
   5:..\..\..\lvgl\version_6.1.2\lvgl\src\lv_draw\../lv_core/../lv_misc/lv_area.h **** 
   6:..\..\..\lvgl\version_6.1.2\lvgl\src\lv_draw\../lv_core/../lv_misc/lv_area.h **** #ifndef LV_AREA_H
   7:..\..\..\lvgl\version_6.1.2\lvgl\src\lv_draw\../lv_core/../lv_misc/lv_area.h **** #define LV_AREA_H
   8:..\..\..\lvgl\version_6.1.2\lvgl\src\lv_draw\../lv_core/../lv_misc/lv_area.h **** 
   9:..\..\..\lvgl\version_6.1.2\lvgl\src\lv_draw\../lv_core/../lv_misc/lv_area.h **** #ifdef __cplusplus
  10:..\..\..\lvgl\version_6.1.2\lvgl\src\lv_draw\../lv_core/../lv_misc/lv_area.h **** extern "C" {
  11:..\..\..\lvgl\version_6.1.2\lvgl\src\lv_draw\../lv_core/../lv_misc/lv_area.h **** #endif
  12:..\..\..\lvgl\version_6.1.2\lvgl\src\lv_draw\../lv_core/../lv_misc/lv_area.h **** 
  13:..\..\..\lvgl\version_6.1.2\lvgl\src\lv_draw\../lv_core/../lv_misc/lv_area.h **** /*********************
  14:..\..\..\lvgl\version_6.1.2\lvgl\src\lv_draw\../lv_core/../lv_misc/lv_area.h ****  *      INCLUDES
  15:..\..\..\lvgl\version_6.1.2\lvgl\src\lv_draw\../lv_core/../lv_misc/lv_area.h ****  *********************/
  16:..\..\..\lvgl\version_6.1.2\lvgl\src\lv_draw\../lv_core/../lv_misc/lv_area.h **** #include <string.h>
  17:..\..\..\lvgl\version_6.1.2\lvgl\src\lv_draw\../lv_core/../lv_misc/lv_area.h **** #include <stdbool.h>
  18:..\..\..\lvgl\version_6.1.2\lvgl\src\lv_draw\../lv_core/../lv_misc/lv_area.h **** #include <stdint.h>
  19:..\..\..\lvgl\version_6.1.2\lvgl\src\lv_draw\../lv_core/../lv_misc/lv_area.h **** #ifdef LV_CONF_INCLUDE_SIMPLE
  20:..\..\..\lvgl\version_6.1.2\lvgl\src\lv_draw\../lv_core/../lv_misc/lv_area.h **** #include "lv_conf.h"
  21:..\..\..\lvgl\version_6.1.2\lvgl\src\lv_draw\../lv_core/../lv_misc/lv_area.h **** #else
  22:..\..\..\lvgl\version_6.1.2\lvgl\src\lv_draw\../lv_core/../lv_misc/lv_area.h **** #include "../../../lv_conf.h"
  23:..\..\..\lvgl\version_6.1.2\lvgl\src\lv_draw\../lv_core/../lv_misc/lv_area.h **** #endif
  24:..\..\..\lvgl\version_6.1.2\lvgl\src\lv_draw\../lv_core/../lv_misc/lv_area.h **** 
  25:..\..\..\lvgl\version_6.1.2\lvgl\src\lv_draw\../lv_core/../lv_misc/lv_area.h **** /*********************
  26:..\..\..\lvgl\version_6.1.2\lvgl\src\lv_draw\../lv_core/../lv_misc/lv_area.h ****  *      DEFINES
  27:..\..\..\lvgl\version_6.1.2\lvgl\src\lv_draw\../lv_core/../lv_misc/lv_area.h ****  *********************/
  28:..\..\..\lvgl\version_6.1.2\lvgl\src\lv_draw\../lv_core/../lv_misc/lv_area.h **** /*To avoid overflow don't let the max ranges (reduce with 1000) */
  29:..\..\..\lvgl\version_6.1.2\lvgl\src\lv_draw\../lv_core/../lv_misc/lv_area.h **** #define LV_COORD_MAX ((lv_coord_t)((uint32_t)((uint32_t)1 << (8 * sizeof(lv_coord_t) - 1)) - 1000))
  30:..\..\..\lvgl\version_6.1.2\lvgl\src\lv_draw\../lv_core/../lv_misc/lv_area.h **** #define LV_COORD_MIN (-LV_COORD_MAX)
  31:..\..\..\lvgl\version_6.1.2\lvgl\src\lv_draw\../lv_core/../lv_misc/lv_area.h **** 
  32:..\..\..\lvgl\version_6.1.2\lvgl\src\lv_draw\../lv_core/../lv_misc/lv_area.h **** LV_EXPORT_CONST_INT(LV_COORD_MAX);
  33:..\..\..\lvgl\version_6.1.2\lvgl\src\lv_draw\../lv_core/../lv_misc/lv_area.h **** LV_EXPORT_CONST_INT(LV_COORD_MIN);
  34:..\..\..\lvgl\version_6.1.2\lvgl\src\lv_draw\../lv_core/../lv_misc/lv_area.h **** 
  35:..\..\..\lvgl\version_6.1.2\lvgl\src\lv_draw\../lv_core/../lv_misc/lv_area.h **** /**********************
  36:..\..\..\lvgl\version_6.1.2\lvgl\src\lv_draw\../lv_core/../lv_misc/lv_area.h ****  *      TYPEDEFS
  37:..\..\..\lvgl\version_6.1.2\lvgl\src\lv_draw\../lv_core/../lv_misc/lv_area.h ****  **********************/
  38:..\..\..\lvgl\version_6.1.2\lvgl\src\lv_draw\../lv_core/../lv_misc/lv_area.h **** 
  39:..\..\..\lvgl\version_6.1.2\lvgl\src\lv_draw\../lv_core/../lv_misc/lv_area.h **** /**
  40:..\..\..\lvgl\version_6.1.2\lvgl\src\lv_draw\../lv_core/../lv_misc/lv_area.h ****  * Represents a point on the screen.
  41:..\..\..\lvgl\version_6.1.2\lvgl\src\lv_draw\../lv_core/../lv_misc/lv_area.h ****  */
  42:..\..\..\lvgl\version_6.1.2\lvgl\src\lv_draw\../lv_core/../lv_misc/lv_area.h **** typedef struct
  43:..\..\..\lvgl\version_6.1.2\lvgl\src\lv_draw\../lv_core/../lv_misc/lv_area.h **** {
  44:..\..\..\lvgl\version_6.1.2\lvgl\src\lv_draw\../lv_core/../lv_misc/lv_area.h ****     lv_coord_t x;
  45:..\..\..\lvgl\version_6.1.2\lvgl\src\lv_draw\../lv_core/../lv_misc/lv_area.h ****     lv_coord_t y;
  46:..\..\..\lvgl\version_6.1.2\lvgl\src\lv_draw\../lv_core/../lv_misc/lv_area.h **** } lv_point_t;
  47:..\..\..\lvgl\version_6.1.2\lvgl\src\lv_draw\../lv_core/../lv_misc/lv_area.h **** 
  48:..\..\..\lvgl\version_6.1.2\lvgl\src\lv_draw\../lv_core/../lv_misc/lv_area.h **** /** Represents an area of the screen. */
  49:..\..\..\lvgl\version_6.1.2\lvgl\src\lv_draw\../lv_core/../lv_misc/lv_area.h **** typedef struct
  50:..\..\..\lvgl\version_6.1.2\lvgl\src\lv_draw\../lv_core/../lv_misc/lv_area.h **** {
  51:..\..\..\lvgl\version_6.1.2\lvgl\src\lv_draw\../lv_core/../lv_misc/lv_area.h ****     lv_coord_t x1;
  52:..\..\..\lvgl\version_6.1.2\lvgl\src\lv_draw\../lv_core/../lv_misc/lv_area.h ****     lv_coord_t y1;
  53:..\..\..\lvgl\version_6.1.2\lvgl\src\lv_draw\../lv_core/../lv_misc/lv_area.h ****     lv_coord_t x2;
  54:..\..\..\lvgl\version_6.1.2\lvgl\src\lv_draw\../lv_core/../lv_misc/lv_area.h ****     lv_coord_t y2;
ARM GAS  C:\Users\pearlstl\AppData\Local\Temp\ccJvDP4q.s 			page 15


  55:..\..\..\lvgl\version_6.1.2\lvgl\src\lv_draw\../lv_core/../lv_misc/lv_area.h **** } lv_area_t;
  56:..\..\..\lvgl\version_6.1.2\lvgl\src\lv_draw\../lv_core/../lv_misc/lv_area.h **** 
  57:..\..\..\lvgl\version_6.1.2\lvgl\src\lv_draw\../lv_core/../lv_misc/lv_area.h **** /**********************
  58:..\..\..\lvgl\version_6.1.2\lvgl\src\lv_draw\../lv_core/../lv_misc/lv_area.h ****  * GLOBAL PROTOTYPES
  59:..\..\..\lvgl\version_6.1.2\lvgl\src\lv_draw\../lv_core/../lv_misc/lv_area.h ****  **********************/
  60:..\..\..\lvgl\version_6.1.2\lvgl\src\lv_draw\../lv_core/../lv_misc/lv_area.h **** 
  61:..\..\..\lvgl\version_6.1.2\lvgl\src\lv_draw\../lv_core/../lv_misc/lv_area.h **** /**
  62:..\..\..\lvgl\version_6.1.2\lvgl\src\lv_draw\../lv_core/../lv_misc/lv_area.h ****  * Initialize an area
  63:..\..\..\lvgl\version_6.1.2\lvgl\src\lv_draw\../lv_core/../lv_misc/lv_area.h ****  * @param area_p pointer to an area
  64:..\..\..\lvgl\version_6.1.2\lvgl\src\lv_draw\../lv_core/../lv_misc/lv_area.h ****  * @param x1 left coordinate of the area
  65:..\..\..\lvgl\version_6.1.2\lvgl\src\lv_draw\../lv_core/../lv_misc/lv_area.h ****  * @param y1 top coordinate of the area
  66:..\..\..\lvgl\version_6.1.2\lvgl\src\lv_draw\../lv_core/../lv_misc/lv_area.h ****  * @param x2 right coordinate of the area
  67:..\..\..\lvgl\version_6.1.2\lvgl\src\lv_draw\../lv_core/../lv_misc/lv_area.h ****  * @param y2 bottom coordinate of the area
  68:..\..\..\lvgl\version_6.1.2\lvgl\src\lv_draw\../lv_core/../lv_misc/lv_area.h ****  */
  69:..\..\..\lvgl\version_6.1.2\lvgl\src\lv_draw\../lv_core/../lv_misc/lv_area.h **** void lv_area_set(lv_area_t * area_p, lv_coord_t x1, lv_coord_t y1, lv_coord_t x2, lv_coord_t y2);
  70:..\..\..\lvgl\version_6.1.2\lvgl\src\lv_draw\../lv_core/../lv_misc/lv_area.h **** 
  71:..\..\..\lvgl\version_6.1.2\lvgl\src\lv_draw\../lv_core/../lv_misc/lv_area.h **** /**
  72:..\..\..\lvgl\version_6.1.2\lvgl\src\lv_draw\../lv_core/../lv_misc/lv_area.h ****  * Copy an area
  73:..\..\..\lvgl\version_6.1.2\lvgl\src\lv_draw\../lv_core/../lv_misc/lv_area.h ****  * @param dest pointer to the destination area
  74:..\..\..\lvgl\version_6.1.2\lvgl\src\lv_draw\../lv_core/../lv_misc/lv_area.h ****  * @param src pointer to the source area
  75:..\..\..\lvgl\version_6.1.2\lvgl\src\lv_draw\../lv_core/../lv_misc/lv_area.h ****  */
  76:..\..\..\lvgl\version_6.1.2\lvgl\src\lv_draw\../lv_core/../lv_misc/lv_area.h **** inline static void lv_area_copy(lv_area_t * dest, const lv_area_t * src)
  77:..\..\..\lvgl\version_6.1.2\lvgl\src\lv_draw\../lv_core/../lv_misc/lv_area.h **** {
  78:..\..\..\lvgl\version_6.1.2\lvgl\src\lv_draw\../lv_core/../lv_misc/lv_area.h ****     memcpy(dest, src, sizeof(lv_area_t));
  79:..\..\..\lvgl\version_6.1.2\lvgl\src\lv_draw\../lv_core/../lv_misc/lv_area.h **** }
  80:..\..\..\lvgl\version_6.1.2\lvgl\src\lv_draw\../lv_core/../lv_misc/lv_area.h **** 
  81:..\..\..\lvgl\version_6.1.2\lvgl\src\lv_draw\../lv_core/../lv_misc/lv_area.h **** /**
  82:..\..\..\lvgl\version_6.1.2\lvgl\src\lv_draw\../lv_core/../lv_misc/lv_area.h ****  * Get the width of an area
  83:..\..\..\lvgl\version_6.1.2\lvgl\src\lv_draw\../lv_core/../lv_misc/lv_area.h ****  * @param area_p pointer to an area
  84:..\..\..\lvgl\version_6.1.2\lvgl\src\lv_draw\../lv_core/../lv_misc/lv_area.h ****  * @return the width of the area (if x1 == x2 -> width = 1)
  85:..\..\..\lvgl\version_6.1.2\lvgl\src\lv_draw\../lv_core/../lv_misc/lv_area.h ****  */
  86:..\..\..\lvgl\version_6.1.2\lvgl\src\lv_draw\../lv_core/../lv_misc/lv_area.h **** static inline lv_coord_t lv_area_get_width(const lv_area_t * area_p)
  87:..\..\..\lvgl\version_6.1.2\lvgl\src\lv_draw\../lv_core/../lv_misc/lv_area.h **** {
  88:..\..\..\lvgl\version_6.1.2\lvgl\src\lv_draw\../lv_core/../lv_misc/lv_area.h ****     return (lv_coord_t)(area_p->x2 - area_p->x1 + 1);
 176              		.loc 2 88 0
 177 00b6 BDF83C30 		ldrh	r3, [sp, #60]
 178 00ba BDF83810 		ldrh	r1, [sp, #56]
 179 00be 0892     		str	r2, [sp, #32]
 180 00c0 0133     		adds	r3, r3, #1
 181 00c2 5B1A     		subs	r3, r3, r1
 182 00c4 1BB2     		sxth	r3, r3
 183              	.LBE57:
 184              	.LBE56:
 566:..\..\..\lvgl\version_6.1.2\lvgl\src\lv_draw/lv_draw_img.c ****     }
 567:..\..\..\lvgl\version_6.1.2\lvgl\src\lv_draw/lv_draw_img.c ****     /* The decoder open could open the image and gave the entire uncompressed image.
 568:..\..\..\lvgl\version_6.1.2\lvgl\src\lv_draw/lv_draw_img.c ****      * Just draw it!*/
 569:..\..\..\lvgl\version_6.1.2\lvgl\src\lv_draw/lv_draw_img.c ****     else if(cdsc->dec_dsc.img_data) {
 570:..\..\..\lvgl\version_6.1.2\lvgl\src\lv_draw/lv_draw_img.c ****         lv_draw_map(coords, mask, cdsc->dec_dsc.img_data, opa, chroma_keyed, alpha_byte, style->ima
 571:..\..\..\lvgl\version_6.1.2\lvgl\src\lv_draw/lv_draw_img.c ****                     style->image.intense);
 572:..\..\..\lvgl\version_6.1.2\lvgl\src\lv_draw/lv_draw_img.c ****     }
 573:..\..\..\lvgl\version_6.1.2\lvgl\src\lv_draw/lv_draw_img.c ****     /* The whole uncompressed image is not available. Try to read it line-by-line*/
 574:..\..\..\lvgl\version_6.1.2\lvgl\src\lv_draw/lv_draw_img.c ****     else {
 575:..\..\..\lvgl\version_6.1.2\lvgl\src\lv_draw/lv_draw_img.c ****         lv_coord_t width = lv_area_get_width(&mask_com);
 576:..\..\..\lvgl\version_6.1.2\lvgl\src\lv_draw/lv_draw_img.c **** 
 577:..\..\..\lvgl\version_6.1.2\lvgl\src\lv_draw/lv_draw_img.c ****         uint8_t  * buf = lv_draw_get_buf(lv_area_get_width(&mask_com) * LV_IMG_PX_SIZE_ALPHA_BYTE);
 185              		.loc 1 577 0
 186 00c6 9800     		lsls	r0, r3, #2
ARM GAS  C:\Users\pearlstl\AppData\Local\Temp\ccJvDP4q.s 			page 16


 187              	.LVL20:
 188 00c8 0D93     		str	r3, [sp, #52]
 189 00ca FFF7FEFF 		bl	lv_draw_get_buf
 190              	.LVL21:
 191 00ce 0C90     		str	r0, [sp, #48]
 192              	.LVL22:
 193              	.LBB58:
 194              	.LBB59:
  78:..\..\..\lvgl\version_6.1.2\lvgl\src\lv_draw\../lv_core/../lv_misc/lv_area.h **** }
 195              		.loc 2 78 0
 196 00d0 96E80300 		ldmia	r6, {r0, r1}
 197 00d4 10AA     		add	r2, sp, #64
 198              	.LVL23:
 199 00d6 82E80300 		stmia	r2, {r0, r1}
 200              	.LVL24:
 201              	.LBE59:
 202              	.LBE58:
 578:..\..\..\lvgl\version_6.1.2\lvgl\src\lv_draw/lv_draw_img.c **** 
 579:..\..\..\lvgl\version_6.1.2\lvgl\src\lv_draw/lv_draw_img.c ****         lv_area_t line;
 580:..\..\..\lvgl\version_6.1.2\lvgl\src\lv_draw/lv_draw_img.c ****         lv_area_copy(&line, &mask_com);
 581:..\..\..\lvgl\version_6.1.2\lvgl\src\lv_draw/lv_draw_img.c ****         lv_area_set_height(&line, 1);
 203              		.loc 1 581 0
 204 00da 1046     		mov	r0, r2
 205 00dc 0121     		movs	r1, #1
 206 00de FFF7FEFF 		bl	lv_area_set_height
 207              	.LVL25:
 582:..\..\..\lvgl\version_6.1.2\lvgl\src\lv_draw/lv_draw_img.c ****         lv_coord_t x = mask_com.x1 - coords->x1;
 583:..\..\..\lvgl\version_6.1.2\lvgl\src\lv_draw/lv_draw_img.c ****         lv_coord_t y = mask_com.y1 - coords->y1;
 208              		.loc 1 583 0
 209 00e2 BDF93A00 		ldrsh	r0, [sp, #58]
 210 00e6 6188     		ldrh	r1, [r4, #2]
 582:..\..\..\lvgl\version_6.1.2\lvgl\src\lv_draw/lv_draw_img.c ****         lv_coord_t x = mask_com.x1 - coords->x1;
 211              		.loc 1 582 0
 212 00e8 BDF83830 		ldrh	r3, [sp, #56]
 213 00ec B4F800E0 		ldrh	lr, [r4]
 584:..\..\..\lvgl\version_6.1.2\lvgl\src\lv_draw/lv_draw_img.c ****         lv_coord_t row;
 585:..\..\..\lvgl\version_6.1.2\lvgl\src\lv_draw/lv_draw_img.c ****         lv_res_t read_res;
 586:..\..\..\lvgl\version_6.1.2\lvgl\src\lv_draw/lv_draw_img.c ****         for(row = mask_com.y1; row <= mask_com.y2; row++) {
 214              		.loc 1 586 0
 215 00f0 BDF93EC0 		ldrsh	ip, [sp, #62]
 583:..\..\..\lvgl\version_6.1.2\lvgl\src\lv_draw/lv_draw_img.c ****         lv_coord_t row;
 216              		.loc 1 583 0
 217 00f4 86B2     		uxth	r6, r0
 218              	.LVL26:
 219 00f6 711A     		subs	r1, r6, r1
 220 00f8 8AB2     		uxth	r2, r1
 582:..\..\..\lvgl\version_6.1.2\lvgl\src\lv_draw/lv_draw_img.c ****         lv_coord_t x = mask_com.x1 - coords->x1;
 221              		.loc 1 582 0
 222 00fa CEEB0303 		rsb	r3, lr, r3
 583:..\..\..\lvgl\version_6.1.2\lvgl\src\lv_draw/lv_draw_img.c ****         lv_coord_t row;
 223              		.loc 1 583 0
 224 00fe 0A92     		str	r2, [sp, #40]
 225              		.loc 1 586 0
 226 0100 8445     		cmp	ip, r0
 582:..\..\..\lvgl\version_6.1.2\lvgl\src\lv_draw/lv_draw_img.c ****         lv_coord_t x = mask_com.x1 - coords->x1;
 227              		.loc 1 582 0
 228 0102 1AB2     		sxth	r2, r3
ARM GAS  C:\Users\pearlstl\AppData\Local\Temp\ccJvDP4q.s 			page 17


 229 0104 0992     		str	r2, [sp, #36]
 230              	.LVL27:
 231              		.loc 1 586 0
 232 0106 D3DB     		blt	.L1
 233 0108 089A     		ldr	r2, [sp, #32]
 234 010a 0897     		str	r7, [sp, #32]
 235 010c 9246     		mov	r10, r2
 236 010e 721C     		adds	r2, r6, #1
 237 0110 0B92     		str	r2, [sp, #44]
 238 0112 0C9E     		ldr	r6, [sp, #48]
 239 0114 CDF830B0 		str	fp, [sp, #48]
 240 0118 DDF834B0 		ldr	fp, [sp, #52]
 241 011c 0D94     		str	r4, [sp, #52]
 242 011e 1CE0     		b	.L17
 243              	.LVL28:
 244              	.L16:
 587:..\..\..\lvgl\version_6.1.2\lvgl\src\lv_draw/lv_draw_img.c ****             read_res = lv_img_decoder_read_line(&cdsc->dec_dsc, x, y, width, buf);
 588:..\..\..\lvgl\version_6.1.2\lvgl\src\lv_draw/lv_draw_img.c ****             if(read_res != LV_RES_OK) {
 589:..\..\..\lvgl\version_6.1.2\lvgl\src\lv_draw/lv_draw_img.c ****                 lv_img_decoder_close(&cdsc->dec_dsc);
 590:..\..\..\lvgl\version_6.1.2\lvgl\src\lv_draw/lv_draw_img.c ****                 LV_LOG_WARN("Image draw can't read the line");
 591:..\..\..\lvgl\version_6.1.2\lvgl\src\lv_draw/lv_draw_img.c ****                 return LV_RES_INV;
 592:..\..\..\lvgl\version_6.1.2\lvgl\src\lv_draw/lv_draw_img.c ****             }
 593:..\..\..\lvgl\version_6.1.2\lvgl\src\lv_draw/lv_draw_img.c ****             lv_draw_map(&line, mask, buf, opa, chroma_keyed, alpha_byte, style->image.color, style-
 245              		.loc 1 593 0
 246 0120 2F6C     		ldr	r7, [r5, #64]
 247 0122 95F844E0 		ldrb	lr, [r5, #68]	@ zero_extendqisi2
 248 0126 0297     		str	r7, [sp, #8]
 249 0128 079F     		ldr	r7, [sp, #28]
 250 012a 0197     		str	r7, [sp, #4]
 251 012c 0C9F     		ldr	r7, [sp, #48]
 252 012e 0097     		str	r7, [sp]
 253 0130 CDF80CE0 		str	lr, [sp, #12]
 254 0134 FFF7FEFF 		bl	lv_draw_map
 255              	.LVL29:
 586:..\..\..\lvgl\version_6.1.2\lvgl\src\lv_draw/lv_draw_img.c ****             read_res = lv_img_decoder_read_line(&cdsc->dec_dsc, x, y, width, buf);
 256              		.loc 1 586 0
 257 0138 0B98     		ldr	r0, [sp, #44]
 594:..\..\..\lvgl\version_6.1.2\lvgl\src\lv_draw/lv_draw_img.c ****             line.y1++;
 258              		.loc 1 594 0
 259 013a BDF84220 		ldrh	r2, [sp, #66]
 595:..\..\..\lvgl\version_6.1.2\lvgl\src\lv_draw/lv_draw_img.c ****             line.y2++;
 260              		.loc 1 595 0
 261 013e BDF84630 		ldrh	r3, [sp, #70]
 586:..\..\..\lvgl\version_6.1.2\lvgl\src\lv_draw/lv_draw_img.c ****             read_res = lv_img_decoder_read_line(&cdsc->dec_dsc, x, y, width, buf);
 262              		.loc 1 586 0
 263 0142 BDF93E10 		ldrsh	r1, [sp, #62]
 264 0146 0444     		add	r4, r4, r0
 265              	.LVL30:
 266 0148 24B2     		sxth	r4, r4
 594:..\..\..\lvgl\version_6.1.2\lvgl\src\lv_draw/lv_draw_img.c ****             line.y1++;
 267              		.loc 1 594 0
 268 014a 0132     		adds	r2, r2, #1
 269              		.loc 1 595 0
 270 014c 0133     		adds	r3, r3, #1
 586:..\..\..\lvgl\version_6.1.2\lvgl\src\lv_draw/lv_draw_img.c ****             read_res = lv_img_decoder_read_line(&cdsc->dec_dsc, x, y, width, buf);
 271              		.loc 1 586 0
 272 014e A142     		cmp	r1, r4
ARM GAS  C:\Users\pearlstl\AppData\Local\Temp\ccJvDP4q.s 			page 18


 594:..\..\..\lvgl\version_6.1.2\lvgl\src\lv_draw/lv_draw_img.c ****             line.y1++;
 273              		.loc 1 594 0
 274 0150 ADF84220 		strh	r2, [sp, #66]	@ movhi
 275              		.loc 1 595 0
 276 0154 ADF84630 		strh	r3, [sp, #70]	@ movhi
 586:..\..\..\lvgl\version_6.1.2\lvgl\src\lv_draw/lv_draw_img.c ****             read_res = lv_img_decoder_read_line(&cdsc->dec_dsc, x, y, width, buf);
 277              		.loc 1 586 0
 278 0158 AADB     		blt	.L1
 279              	.L17:
 587:..\..\..\lvgl\version_6.1.2\lvgl\src\lv_draw/lv_draw_img.c ****             if(read_res != LV_RES_OK) {
 280              		.loc 1 587 0
 281 015a 0A9B     		ldr	r3, [sp, #40]
 282 015c 0999     		ldr	r1, [sp, #36]
 283 015e 0096     		str	r6, [sp]
 284 0160 1FFA8AF4 		uxth	r4, r10
 285              	.LVL31:
 286 0164 E218     		adds	r2, r4, r3
 287 0166 12B2     		sxth	r2, r2
 288 0168 5B46     		mov	r3, fp
 289 016a 0898     		ldr	r0, [sp, #32]
 290 016c FFF7FEFF 		bl	lv_img_decoder_read_line
 291              	.LVL32:
 588:..\..\..\lvgl\version_6.1.2\lvgl\src\lv_draw/lv_draw_img.c ****                 lv_img_decoder_close(&cdsc->dec_dsc);
 292              		.loc 1 588 0
 293 0170 0128     		cmp	r0, #1
 593:..\..\..\lvgl\version_6.1.2\lvgl\src\lv_draw/lv_draw_img.c ****             line.y1++;
 294              		.loc 1 593 0
 295 0172 4B46     		mov	r3, r9
 296 0174 3246     		mov	r2, r6
 297 0176 4146     		mov	r1, r8
 298 0178 10A8     		add	r0, sp, #64
 299              	.LVL33:
 300 017a 0AF1010A 		add	r10, r10, #1
 588:..\..\..\lvgl\version_6.1.2\lvgl\src\lv_draw/lv_draw_img.c ****                 lv_img_decoder_close(&cdsc->dec_dsc);
 301              		.loc 1 588 0
 302 017e CFD0     		beq	.L16
 303              	.LVL34:
 304 0180 089F     		ldr	r7, [sp, #32]
 305 0182 0D9C     		ldr	r4, [sp, #52]
 306              	.LVL35:
 589:..\..\..\lvgl\version_6.1.2\lvgl\src\lv_draw/lv_draw_img.c ****                 LV_LOG_WARN("Image draw can't read the line");
 307              		.loc 1 589 0
 308 0184 3846     		mov	r0, r7
 309 0186 FFF7FEFF 		bl	lv_img_decoder_close
 310              	.LVL36:
 311              	.L7:
 312              	.LBE55:
 313              	.LBE62:
 314              	.LBE65:
  63:..\..\..\lvgl\version_6.1.2\lvgl\src\lv_draw/lv_draw_img.c ****         lv_draw_label(coords, mask, &lv_style_plain, LV_OPA_COVER, "No\ndata", LV_TXT_FLAG_NONE, NU
 315              		.loc 1 63 0
 316 018a 4146     		mov	r1, r8
 317 018c 2046     		mov	r0, r4
 318 018e FF23     		movs	r3, #255
 319 0190 244A     		ldr	r2, .L33
 320 0192 FFF7FEFF 		bl	lv_draw_rect
 321              	.LVL37:
ARM GAS  C:\Users\pearlstl\AppData\Local\Temp\ccJvDP4q.s 			page 19


  64:..\..\..\lvgl\version_6.1.2\lvgl\src\lv_draw/lv_draw_img.c ****         return;
 322              		.loc 1 64 0
 323 0196 244A     		ldr	r2, .L33+4
 324 0198 0023     		movs	r3, #0
 325 019a 8DE80C00 		stmia	sp, {r2, r3}
 326 019e 0593     		str	r3, [sp, #20]
 327 01a0 0493     		str	r3, [sp, #16]
 328 01a2 0393     		str	r3, [sp, #12]
 329 01a4 0293     		str	r3, [sp, #8]
 330 01a6 4146     		mov	r1, r8
 331 01a8 2046     		mov	r0, r4
 332 01aa FF23     		movs	r3, #255
 333 01ac 1D4A     		ldr	r2, .L33
 334 01ae FFF7FEFF 		bl	lv_draw_label
 335              	.LVL38:
  67:..\..\..\lvgl\version_6.1.2\lvgl\src\lv_draw/lv_draw_img.c **** 
 336              		.loc 1 67 0
 337 01b2 13B0     		add	sp, sp, #76
 338              		.cfi_remember_state
 339              		.cfi_def_cfa_offset 36
 340              		@ sp needed
 341 01b4 BDE8F08F 		pop	{r4, r5, r6, r7, r8, r9, r10, fp, pc}
 342              	.LVL39:
 343              	.L8:
 344              		.cfi_restore_state
 345 01b8 0E2B     		cmp	r3, #14
 346              	.LBB66:
 347              	.LBB63:
 559:..\..\..\lvgl\version_6.1.2\lvgl\src\lv_draw/lv_draw_img.c ****     bool alpha_byte   = lv_img_color_format_has_alpha(cdsc->dec_dsc.header.cf);
 348              		.loc 1 559 0
 349 01ba 88BF     		it	hi
 350 01bc 4FF0000B 		movhi	fp, #0
 351 01c0 3FF65CAF 		bhi	.L11
 352 01c4 50E7     		b	.L10
 353              	.LVL40:
 354              	.L21:
 355              	.LBB60:
 356              	.LBB54:
 438:..\..\..\lvgl\version_6.1.2\lvgl\src\lv_draw/lv_draw_img.c ****         default: has_alpha = false; break;
 357              		.loc 1 438 0
 358 01c6 0123     		movs	r3, #1
 359 01c8 0793     		str	r3, [sp, #28]
 360              	.LVL41:
 361              	.LBE54:
 362              	.LBE60:
 562:..\..\..\lvgl\version_6.1.2\lvgl\src\lv_draw/lv_draw_img.c ****         LV_LOG_WARN("Image draw error");
 363              		.loc 1 562 0
 364 01ca FB69     		ldr	r3, [r7, #28]
 365 01cc 002B     		cmp	r3, #0
 366 01ce 7FF45BAF 		bne	.L32
 367              	.L13:
 569:..\..\..\lvgl\version_6.1.2\lvgl\src\lv_draw/lv_draw_img.c ****         lv_draw_map(coords, mask, cdsc->dec_dsc.img_data, opa, chroma_keyed, alpha_byte, style->ima
 368              		.loc 1 569 0
 369 01d2 7A69     		ldr	r2, [r7, #20]
 370 01d4 002A     		cmp	r2, #0
 371 01d6 3FF46EAF 		beq	.L14
 570:..\..\..\lvgl\version_6.1.2\lvgl\src\lv_draw/lv_draw_img.c ****                     style->image.intense);
ARM GAS  C:\Users\pearlstl\AppData\Local\Temp\ccJvDP4q.s 			page 20


 372              		.loc 1 570 0
 373 01da 95F84460 		ldrb	r6, [r5, #68]	@ zero_extendqisi2
 374 01de 079B     		ldr	r3, [sp, #28]
 375 01e0 2D6C     		ldr	r5, [r5, #64]
 376              	.LVL42:
 377 01e2 0295     		str	r5, [sp, #8]
 378 01e4 0193     		str	r3, [sp, #4]
 379 01e6 CDF800B0 		str	fp, [sp]
 380 01ea 4B46     		mov	r3, r9
 381 01ec 4146     		mov	r1, r8
 382 01ee 2046     		mov	r0, r4
 383              	.LVL43:
 384 01f0 0396     		str	r6, [sp, #12]
 385 01f2 FFF7FEFF 		bl	lv_draw_map
 386              	.LVL44:
 387              	.LBE63:
 388              	.LBE66:
  67:..\..\..\lvgl\version_6.1.2\lvgl\src\lv_draw/lv_draw_img.c **** 
 389              		.loc 1 67 0
 390 01f6 13B0     		add	sp, sp, #76
 391              		.cfi_remember_state
 392              		.cfi_def_cfa_offset 36
 393              		@ sp needed
 394 01f8 BDE8F08F 		pop	{r4, r5, r6, r7, r8, r9, r10, fp, pc}
 395              	.LVL45:
 396              	.L31:
 397              		.cfi_restore_state
  53:..\..\..\lvgl\version_6.1.2\lvgl\src\lv_draw/lv_draw_img.c ****         lv_draw_label(coords, mask, &lv_style_plain, LV_OPA_COVER, "No\ndata", LV_TXT_FLAG_NONE, NU
 398              		.loc 1 53 0
 399 01fc FF23     		movs	r3, #255
 400              	.LVL46:
 401 01fe 094A     		ldr	r2, .L33
 402              	.LVL47:
 403 0200 FFF7FEFF 		bl	lv_draw_rect
 404              	.LVL48:
  54:..\..\..\lvgl\version_6.1.2\lvgl\src\lv_draw/lv_draw_img.c ****         return;
 405              		.loc 1 54 0
 406 0204 084B     		ldr	r3, .L33+4
 407 0206 0093     		str	r3, [sp]
 408 0208 0597     		str	r7, [sp, #20]
 409 020a 0497     		str	r7, [sp, #16]
 410 020c 0397     		str	r7, [sp, #12]
 411 020e 0297     		str	r7, [sp, #8]
 412 0210 0197     		str	r7, [sp, #4]
 413 0212 4146     		mov	r1, r8
 414 0214 2046     		mov	r0, r4
 415 0216 FF23     		movs	r3, #255
 416 0218 024A     		ldr	r2, .L33
 417 021a FFF7FEFF 		bl	lv_draw_label
 418              	.LVL49:
  67:..\..\..\lvgl\version_6.1.2\lvgl\src\lv_draw/lv_draw_img.c **** 
 419              		.loc 1 67 0
 420 021e 13B0     		add	sp, sp, #76
 421              		.cfi_def_cfa_offset 36
 422              		@ sp needed
 423 0220 BDE8F08F 		pop	{r4, r5, r6, r7, r8, r9, r10, fp, pc}
 424              	.LVL50:
ARM GAS  C:\Users\pearlstl\AppData\Local\Temp\ccJvDP4q.s 			page 21


 425              	.L34:
 426              		.align	2
 427              	.L33:
 428 0224 00000000 		.word	lv_style_plain
 429 0228 00000000 		.word	.LC2
 430              		.cfi_endproc
 431              	.LFE31:
 432              		.size	lv_draw_img, .-lv_draw_img
 433              		.section	.text.lv_img_buf_get_px_color,"ax",%progbits
 434              		.align	2
 435              		.global	lv_img_buf_get_px_color
 436              		.thumb
 437              		.thumb_func
 438              		.type	lv_img_buf_get_px_color, %function
 439              	lv_img_buf_get_px_color:
 440              	.LFB32:
  80:..\..\..\lvgl\version_6.1.2\lvgl\src\lv_draw/lv_draw_img.c ****     lv_color_t p_color = LV_COLOR_BLACK;
 441              		.loc 1 80 0
 442              		.cfi_startproc
 443              		@ args = 0, pretend = 0, frame = 8
 444              		@ frame_needed = 0, uses_anonymous_args = 0
 445              	.LVL51:
 446 0000 F0B5     		push	{r4, r5, r6, r7, lr}
 447              		.cfi_def_cfa_offset 20
 448              		.cfi_offset 4, -20
 449              		.cfi_offset 5, -16
 450              		.cfi_offset 6, -12
 451              		.cfi_offset 7, -8
 452              		.cfi_offset 14, -4
  82:..\..\..\lvgl\version_6.1.2\lvgl\src\lv_draw/lv_draw_img.c ****         x = dsc->header.w - 1;
 453              		.loc 1 82 0
 454 0002 0568     		ldr	r5, [r0]
  98:..\..\..\lvgl\version_6.1.2\lvgl\src\lv_draw/lv_draw_img.c **** 
 455              		.loc 1 98 0
 456 0004 8768     		ldr	r7, [r0, #8]
  80:..\..\..\lvgl\version_6.1.2\lvgl\src\lv_draw/lv_draw_img.c ****     lv_color_t p_color = LV_COLOR_BLACK;
 457              		.loc 1 80 0
 458 0006 83B0     		sub	sp, sp, #12
 459              		.cfi_def_cfa_offset 32
  81:..\..\..\lvgl\version_6.1.2\lvgl\src\lv_draw/lv_draw_img.c ****     if(x >= (lv_coord_t)dsc->header.w) {
 460              		.loc 1 81 0
 461 0008 4FF07F44 		mov	r4, #-16777216
  82:..\..\..\lvgl\version_6.1.2\lvgl\src\lv_draw/lv_draw_img.c ****         x = dsc->header.w - 1;
 462              		.loc 1 82 0
 463 000c C5F38A25 		ubfx	r5, r5, #10, #11
 464 0010 AEB2     		uxth	r6, r5
  81:..\..\..\lvgl\version_6.1.2\lvgl\src\lv_draw/lv_draw_img.c ****     if(x >= (lv_coord_t)dsc->header.w) {
 465              		.loc 1 81 0
 466 0012 0194     		str	r4, [sp, #4]
  90:..\..\..\lvgl\version_6.1.2\lvgl\src\lv_draw/lv_draw_img.c ****         y = dsc->header.h - 1;
 467              		.loc 1 90 0
 468 0014 4488     		ldrh	r4, [r0, #2]
  82:..\..\..\lvgl\version_6.1.2\lvgl\src\lv_draw/lv_draw_img.c ****         x = dsc->header.w - 1;
 469              		.loc 1 82 0
 470 0016 B142     		cmp	r1, r6
  90:..\..\..\lvgl\version_6.1.2\lvgl\src\lv_draw/lv_draw_img.c ****         y = dsc->header.h - 1;
 471              		.loc 1 90 0
ARM GAS  C:\Users\pearlstl\AppData\Local\Temp\ccJvDP4q.s 			page 22


 472 0018 C4F34A14 		ubfx	r4, r4, #5, #11
  83:..\..\..\lvgl\version_6.1.2\lvgl\src\lv_draw/lv_draw_img.c ****         LV_LOG_WARN("lv_canvas_get_px: x is too large (out of canvas)");
 473              		.loc 1 83 0
 474 001c A6BF     		itte	ge
 475 001e 06F1FF31 		addge	r1, r6, #-1
 476              	.LVL52:
 477 0022 09B2     		sxthge	r1, r1
 478              	.LVL53:
 479 0024 21EAE171 		biclt	r1, r1, r1, asr #31
 480              	.LVL54:
  90:..\..\..\lvgl\version_6.1.2\lvgl\src\lv_draw/lv_draw_img.c ****         y = dsc->header.h - 1;
 481              		.loc 1 90 0
 482 0028 A242     		cmp	r2, r4
  91:..\..\..\lvgl\version_6.1.2\lvgl\src\lv_draw/lv_draw_img.c ****         LV_LOG_WARN("lv_canvas_get_px: y is too large (out of canvas)");
 483              		.loc 1 91 0
 484 002a A4BF     		itt	ge
 485 002c 04F1FF34 		addge	r4, r4, #-1
 486 0030 22B2     		sxthge	r2, r4
 487              	.LVL55:
 100:..\..\..\lvgl\version_6.1.2\lvgl\src\lv_draw/lv_draw_img.c ****        dsc->header.cf == LV_IMG_CF_TRUE_COLOR_ALPHA) {
 488              		.loc 1 100 0
 489 0032 0478     		ldrb	r4, [r0]	@ zero_extendqisi2
 490 0034 04F01F00 		and	r0, r4, #31
 491              	.LVL56:
 492 0038 A0F1040E 		sub	lr, r0, #4
 493 003c B8BF     		it	lt
 494 003e 22EAE272 		biclt	r2, r2, r2, asr #31
 495              	.LVL57:
 496 0042 BEF1020F 		cmp	lr, #2
 497 0046 0ED9     		bls	.L52
 108:..\..\..\lvgl\version_6.1.2\lvgl\src\lv_draw/lv_draw_img.c ****         buf_u8 += 4 * 2;
 498              		.loc 1 108 0
 499 0048 0728     		cmp	r0, #7
 500 004a 23D0     		beq	.L53
 118:..\..\..\lvgl\version_6.1.2\lvgl\src\lv_draw/lv_draw_img.c ****         buf_u8 += 4 * 4;
 501              		.loc 1 118 0
 502 004c 0828     		cmp	r0, #8
 503 004e 33D0     		beq	.L54
 128:..\..\..\lvgl\version_6.1.2\lvgl\src\lv_draw/lv_draw_img.c ****         buf_u8 += 4 * 16;
 504              		.loc 1 128 0
 505 0050 0928     		cmp	r0, #9
 506 0052 43D0     		beq	.L55
 138:..\..\..\lvgl\version_6.1.2\lvgl\src\lv_draw/lv_draw_img.c ****         buf_u8 += 4 * 256;
 507              		.loc 1 138 0
 508 0054 0A28     		cmp	r0, #10
 509 0056 54D0     		beq	.L56
 142:..\..\..\lvgl\version_6.1.2\lvgl\src\lv_draw/lv_draw_img.c ****               dsc->header.cf == LV_IMG_CF_ALPHA_4BIT || dsc->header.cf == LV_IMG_CF_ALPHA_8BIT) {
 510              		.loc 1 142 0
 511 0058 0B38     		subs	r0, r0, #11
 512 005a 0328     		cmp	r0, #3
 513 005c 15D8     		bhi	.L42
 144:..\..\..\lvgl\version_6.1.2\lvgl\src\lv_draw/lv_draw_img.c ****             p_color = style->image.color;
 514              		.loc 1 144 0
 515 005e A3B1     		cbz	r3, .L42
 145:..\..\..\lvgl\version_6.1.2\lvgl\src\lv_draw/lv_draw_img.c ****         else
 516              		.loc 1 145 0
 517 0060 1B6C     		ldr	r3, [r3, #64]
ARM GAS  C:\Users\pearlstl\AppData\Local\Temp\ccJvDP4q.s 			page 23


 518              	.LVL58:
 519 0062 0193     		str	r3, [sp, #4]
 520 0064 11E0     		b	.L42
 521              	.LVL59:
 522              	.L52:
 523              	.LBB67:
 102:..\..\..\lvgl\version_6.1.2\lvgl\src\lv_draw/lv_draw_img.c ****         uint32_t px     = dsc->header.w * y * px_size + x * px_size;
 524              		.loc 1 102 0
 525 0066 C4F30404 		ubfx	r4, r4, #0, #5
 526 006a 043C     		subs	r4, r4, #4
 527 006c E4B2     		uxtb	r4, r4
 528 006e 0A2C     		cmp	r4, #10
 529 0070 0ED8     		bhi	.L47
 530 0072 274B     		ldr	r3, .L57
 531              	.LVL60:
 532 0074 1B5D     		ldrb	r3, [r3, r4]	@ zero_extendqisi2
 533 0076 12FB0512 		smlabb	r2, r2, r5, r1
 534 007a D908     		lsrs	r1, r3, #3
 535 007c 02FB01F2 		mul	r2, r2, r1
 536              	.L41:
 537              	.LVL61:
 104:..\..\..\lvgl\version_6.1.2\lvgl\src\lv_draw/lv_draw_img.c **** #if LV_COLOR_SIZE == 32
 538              		.loc 1 104 0
 539 0080 B858     		ldr	r0, [r7, r2]	@ unaligned
 540 0082 0190     		str	r0, [sp, #4]	@ unaligned
 106:..\..\..\lvgl\version_6.1.2\lvgl\src\lv_draw/lv_draw_img.c **** #endif
 541              		.loc 1 106 0
 542 0084 FF23     		movs	r3, #255
 543 0086 8DF80730 		strb	r3, [sp, #7]
 544              	.LVL62:
 545              	.L42:
 546              	.LBE67:
 150:..\..\..\lvgl\version_6.1.2\lvgl\src\lv_draw/lv_draw_img.c **** 
 547              		.loc 1 150 0
 548 008a 0198     		ldr	r0, [sp, #4]
 549 008c 03B0     		add	sp, sp, #12
 550              		.cfi_remember_state
 551              		.cfi_def_cfa_offset 20
 552              		@ sp needed
 553 008e F0BD     		pop	{r4, r5, r6, r7, pc}
 554              	.LVL63:
 555              	.L47:
 556              		.cfi_restore_state
 557              	.LBB68:
 102:..\..\..\lvgl\version_6.1.2\lvgl\src\lv_draw/lv_draw_img.c ****         uint32_t px     = dsc->header.w * y * px_size + x * px_size;
 558              		.loc 1 102 0
 559 0090 0022     		movs	r2, #0
 560 0092 F5E7     		b	.L41
 561              	.LVL64:
 562              	.L53:
 563              	.LBE68:
 564              	.LBB69:
 117:..\..\..\lvgl\version_6.1.2\lvgl\src\lv_draw/lv_draw_img.c ****     } else if(dsc->header.cf == LV_IMG_CF_INDEXED_2BIT) {
 565              		.loc 1 117 0
 566 0094 F01D     		adds	r0, r6, #7
 567 0096 C310     		asrs	r3, r0, #3
 568              	.LVL65:
ARM GAS  C:\Users\pearlstl\AppData\Local\Temp\ccJvDP4q.s 			page 24


 569 0098 02FB0372 		mla	r2, r2, r3, r7
 570 009c 02EBE102 		add	r2, r2, r1, asr #3
 571 00a0 01F00701 		and	r1, r1, #7
 572 00a4 C1F10701 		rsb	r1, r1, #7
 573 00a8 127A     		ldrb	r2, [r2, #8]	@ zero_extendqisi2
 574 00aa 0123     		movs	r3, #1
 575 00ac 8B40     		lsls	r3, r3, r1
 576 00ae 1340     		ands	r3, r3, r2
 577 00b0 43FA01F1 		asr	r1, r3, r1
 578 00b4 0191     		str	r1, [sp, #4]
 579              	.LBE69:
 580 00b6 E8E7     		b	.L42
 581              	.LVL66:
 582              	.L54:
 583              	.LBB70:
 127:..\..\..\lvgl\version_6.1.2\lvgl\src\lv_draw/lv_draw_img.c ****     } else if(dsc->header.cf == LV_IMG_CF_INDEXED_4BIT) {
 584              		.loc 1 127 0
 585 00b8 F01C     		adds	r0, r6, #3
 586 00ba 8310     		asrs	r3, r0, #2
 587              	.LVL67:
 588 00bc 02FB0372 		mla	r2, r2, r3, r7
 589 00c0 02EBA102 		add	r2, r2, r1, asr #2
 590 00c4 01F00301 		and	r1, r1, #3
 591 00c8 4900     		lsls	r1, r1, #1
 592 00ca 137C     		ldrb	r3, [r2, #16]	@ zero_extendqisi2
 593 00cc C1F10601 		rsb	r1, r1, #6
 594 00d0 0322     		movs	r2, #3
 595 00d2 8A40     		lsls	r2, r2, r1
 596 00d4 1340     		ands	r3, r3, r2
 597 00d6 0B41     		asrs	r3, r3, r1
 598 00d8 0193     		str	r3, [sp, #4]
 599              	.LBE70:
 600 00da D6E7     		b	.L42
 601              	.LVL68:
 602              	.L55:
 603              	.LBB71:
 137:..\..\..\lvgl\version_6.1.2\lvgl\src\lv_draw/lv_draw_img.c ****     } else if(dsc->header.cf == LV_IMG_CF_INDEXED_8BIT) {
 604              		.loc 1 137 0
 605 00dc 701C     		adds	r0, r6, #1
 606 00de 4010     		asrs	r0, r0, #1
 607 00e0 02FB0073 		mla	r3, r2, r0, r7
 608              	.LVL69:
 609 00e4 03EB6103 		add	r3, r3, r1, asr #1
 610 00e8 01F00101 		and	r1, r1, #1
 611 00ec 8900     		lsls	r1, r1, #2
 612 00ee 93F84030 		ldrb	r3, [r3, #64]	@ zero_extendqisi2
 613 00f2 C1F10401 		rsb	r1, r1, #4
 614 00f6 0F22     		movs	r2, #15
 615 00f8 8A40     		lsls	r2, r2, r1
 616 00fa 1340     		ands	r3, r3, r2
 617 00fc 0B41     		asrs	r3, r3, r1
 618 00fe 0193     		str	r3, [sp, #4]
 619              	.LBE71:
 620 0100 C3E7     		b	.L42
 621              	.LVL70:
 622              	.L56:
 623              	.LBB72:
ARM GAS  C:\Users\pearlstl\AppData\Local\Temp\ccJvDP4q.s 			page 25


 141:..\..\..\lvgl\version_6.1.2\lvgl\src\lv_draw/lv_draw_img.c ****     } else if(dsc->header.cf == LV_IMG_CF_ALPHA_1BIT || dsc->header.cf == LV_IMG_CF_ALPHA_2BIT ||
 624              		.loc 1 141 0
 625 0102 12FB0512 		smlabb	r2, r2, r5, r1
 626 0106 BB18     		adds	r3, r7, r2
 627              	.LVL71:
 628 0108 93F80034 		ldrb	r3, [r3, #1024]	@ zero_extendqisi2
 629 010c 0193     		str	r3, [sp, #4]
 630              	.LBE72:
 631 010e BCE7     		b	.L42
 632              	.L58:
 633              		.align	2
 634              	.L57:
 635 0110 00000000 		.word	.LANCHOR0
 636              		.cfi_endproc
 637              	.LFE32:
 638              		.size	lv_img_buf_get_px_color, .-lv_img_buf_get_px_color
 639              		.section	.text.lv_img_buf_get_px_alpha,"ax",%progbits
 640              		.align	2
 641              		.global	lv_img_buf_get_px_alpha
 642              		.thumb
 643              		.thumb_func
 644              		.type	lv_img_buf_get_px_alpha, %function
 645              	lv_img_buf_get_px_alpha:
 646              	.LFB33:
 160:..\..\..\lvgl\version_6.1.2\lvgl\src\lv_draw/lv_draw_img.c ****     if(x >= (lv_coord_t)dsc->header.w) {
 647              		.loc 1 160 0
 648              		.cfi_startproc
 649              		@ args = 0, pretend = 0, frame = 16
 650              		@ frame_needed = 0, uses_anonymous_args = 0
 651              		@ link register save eliminated.
 652              	.LVL72:
 161:..\..\..\lvgl\version_6.1.2\lvgl\src\lv_draw/lv_draw_img.c ****         x = dsc->header.w - 1;
 653              		.loc 1 161 0
 654 0000 0368     		ldr	r3, [r0]
 160:..\..\..\lvgl\version_6.1.2\lvgl\src\lv_draw/lv_draw_img.c ****     if(x >= (lv_coord_t)dsc->header.w) {
 655              		.loc 1 160 0
 656 0002 F0B4     		push	{r4, r5, r6, r7}
 657              		.cfi_def_cfa_offset 16
 658              		.cfi_offset 4, -16
 659              		.cfi_offset 5, -12
 660              		.cfi_offset 6, -8
 661              		.cfi_offset 7, -4
 161:..\..\..\lvgl\version_6.1.2\lvgl\src\lv_draw/lv_draw_img.c ****         x = dsc->header.w - 1;
 662              		.loc 1 161 0
 663 0004 C3F38A25 		ubfx	r5, r3, #10, #11
 664 0008 ACB2     		uxth	r4, r5
 169:..\..\..\lvgl\version_6.1.2\lvgl\src\lv_draw/lv_draw_img.c ****         y = dsc->header.h - 1;
 665              		.loc 1 169 0
 666 000a 4388     		ldrh	r3, [r0, #2]
 177:..\..\..\lvgl\version_6.1.2\lvgl\src\lv_draw/lv_draw_img.c **** 
 667              		.loc 1 177 0
 668 000c 8668     		ldr	r6, [r0, #8]
 161:..\..\..\lvgl\version_6.1.2\lvgl\src\lv_draw/lv_draw_img.c ****         x = dsc->header.w - 1;
 669              		.loc 1 161 0
 670 000e A142     		cmp	r1, r4
 169:..\..\..\lvgl\version_6.1.2\lvgl\src\lv_draw/lv_draw_img.c ****         y = dsc->header.h - 1;
 671              		.loc 1 169 0
ARM GAS  C:\Users\pearlstl\AppData\Local\Temp\ccJvDP4q.s 			page 26


 672 0010 C3F34A13 		ubfx	r3, r3, #5, #11
 162:..\..\..\lvgl\version_6.1.2\lvgl\src\lv_draw/lv_draw_img.c ****         LV_LOG_WARN("lv_canvas_get_px: x is too large (out of canvas)");
 673              		.loc 1 162 0
 674 0014 A6BF     		itte	ge
 675 0016 04F1FF31 		addge	r1, r4, #-1
 676              	.LVL73:
 677 001a 09B2     		sxthge	r1, r1
 678              	.LVL74:
 679 001c 21EAE171 		biclt	r1, r1, r1, asr #31
 680              	.LVL75:
 169:..\..\..\lvgl\version_6.1.2\lvgl\src\lv_draw/lv_draw_img.c ****         y = dsc->header.h - 1;
 681              		.loc 1 169 0
 682 0020 9A42     		cmp	r2, r3
 170:..\..\..\lvgl\version_6.1.2\lvgl\src\lv_draw/lv_draw_img.c ****         LV_LOG_WARN("lv_canvas_get_px: y is too large (out of canvas)");
 683              		.loc 1 170 0
 684 0022 A4BF     		itt	ge
 685 0024 03F1FF33 		addge	r3, r3, #-1
 686 0028 1AB2     		sxthge	r2, r3
 687              	.LVL76:
 179:..\..\..\lvgl\version_6.1.2\lvgl\src\lv_draw/lv_draw_img.c ****         uint32_t px = dsc->header.w * y * LV_IMG_PX_SIZE_ALPHA_BYTE + x * LV_IMG_PX_SIZE_ALPHA_BYTE
 688              		.loc 1 179 0
 689 002a 0378     		ldrb	r3, [r0]	@ zero_extendqisi2
 690 002c 03F01F03 		and	r3, r3, #31
 691 0030 B8BF     		it	lt
 692 0032 22EAE272 		biclt	r2, r2, r2, asr #31
 693              	.LVL77:
 694 0036 052B     		cmp	r3, #5
 160:..\..\..\lvgl\version_6.1.2\lvgl\src\lv_draw/lv_draw_img.c ****     if(x >= (lv_coord_t)dsc->header.w) {
 695              		.loc 1 160 0
 696 0038 84B0     		sub	sp, sp, #16
 697              		.cfi_def_cfa_offset 32
 179:..\..\..\lvgl\version_6.1.2\lvgl\src\lv_draw/lv_draw_img.c ****         uint32_t px = dsc->header.w * y * LV_IMG_PX_SIZE_ALPHA_BYTE + x * LV_IMG_PX_SIZE_ALPHA_BYTE
 698              		.loc 1 179 0
 699 003a 3BD0     		beq	.L71
 182:..\..\..\lvgl\version_6.1.2\lvgl\src\lv_draw/lv_draw_img.c ****         uint8_t bit = x & 0x7;
 700              		.loc 1 182 0
 701 003c 0B2B     		cmp	r3, #11
 702 003e 0CD0     		beq	.L72
 192:..\..\..\lvgl\version_6.1.2\lvgl\src\lv_draw/lv_draw_img.c ****         const uint8_t opa_table[4] = {0, 85, 170, 255}; /*Opacity mapping with bpp = 2*/
 703              		.loc 1 192 0
 704 0040 0C2B     		cmp	r3, #12
 705 0042 1ED0     		beq	.L73
 204:..\..\..\lvgl\version_6.1.2\lvgl\src\lv_draw/lv_draw_img.c ****         const uint8_t opa_table[16] = {0,  17, 34,  51, /*Opacity mapping with bpp = 4*/
 706              		.loc 1 204 0
 707 0044 0D2B     		cmp	r3, #13
 708 0046 3DD0     		beq	.L74
 217:..\..\..\lvgl\version_6.1.2\lvgl\src\lv_draw/lv_draw_img.c ****         uint32_t px = dsc->header.w * y + x;
 709              		.loc 1 217 0
 710 0048 0E2B     		cmp	r3, #14
 711              	.LVL78:
 712              	.LBB73:
 219:..\..\..\lvgl\version_6.1.2\lvgl\src\lv_draw/lv_draw_img.c ****     }
 713              		.loc 1 219 0
 714 004a 0ABF     		itet	eq
 715 004c 12FB0511 		smlabbeq	r1, r2, r5, r1
 716              	.LVL79:
 717              	.LBE73:
ARM GAS  C:\Users\pearlstl\AppData\Local\Temp\ccJvDP4q.s 			page 27


 222:..\..\..\lvgl\version_6.1.2\lvgl\src\lv_draw/lv_draw_img.c **** }
 718              		.loc 1 222 0
 719 0050 FF20     		movne	r0, #255
 720              	.LVL80:
 721              	.LBB74:
 219:..\..\..\lvgl\version_6.1.2\lvgl\src\lv_draw/lv_draw_img.c ****     }
 722              		.loc 1 219 0
 723 0052 705C     		ldrbeq	r0, [r6, r1]	@ zero_extendqisi2
 724              	.LVL81:
 725              	.L65:
 726              	.LBE74:
 223:..\..\..\lvgl\version_6.1.2\lvgl\src\lv_draw/lv_draw_img.c **** 
 727              		.loc 1 223 0 discriminator 1
 728 0054 04B0     		add	sp, sp, #16
 729              		.cfi_remember_state
 730              		.cfi_def_cfa_offset 16
 731              		@ sp needed
 732 0056 F0BC     		pop	{r4, r5, r6, r7}
 733              		.cfi_restore 7
 734              		.cfi_restore 6
 735              		.cfi_restore 5
 736              		.cfi_restore 4
 737              		.cfi_def_cfa_offset 0
 738 0058 7047     		bx	lr
 739              	.LVL82:
 740              	.L72:
 741              		.cfi_restore_state
 742              	.LBB75:
 190:..\..\..\lvgl\version_6.1.2\lvgl\src\lv_draw/lv_draw_img.c ****         return px_opa ? LV_OPA_TRANSP : LV_OPA_COVER;
 743              		.loc 1 190 0
 744 005a E01D     		adds	r0, r4, #7
 745              	.LVL83:
 746 005c C010     		asrs	r0, r0, #3
 747 005e 02FB0062 		mla	r2, r2, r0, r6
 748              	.LVL84:
 749 0062 CB10     		asrs	r3, r1, #3
 750 0064 01F00701 		and	r1, r1, #7
 751              	.LVL85:
 191:..\..\..\lvgl\version_6.1.2\lvgl\src\lv_draw/lv_draw_img.c ****     } else if(dsc->header.cf == LV_IMG_CF_ALPHA_2BIT) {
 752              		.loc 1 191 0
 753 0068 D25C     		ldrb	r2, [r2, r3]	@ zero_extendqisi2
 190:..\..\..\lvgl\version_6.1.2\lvgl\src\lv_draw/lv_draw_img.c ****         return px_opa ? LV_OPA_TRANSP : LV_OPA_COVER;
 754              		.loc 1 190 0
 755 006a C1F10701 		rsb	r1, r1, #7
 756              	.LVL86:
 191:..\..\..\lvgl\version_6.1.2\lvgl\src\lv_draw/lv_draw_img.c ****     } else if(dsc->header.cf == LV_IMG_CF_ALPHA_2BIT) {
 757              		.loc 1 191 0
 758 006e 0123     		movs	r3, #1
 759 0070 8B40     		lsls	r3, r3, r1
 760 0072 1340     		ands	r3, r3, r2
 761 0074 0B41     		asrs	r3, r3, r1
 762 0076 0CBF     		ite	eq
 763 0078 FF20     		moveq	r0, #255
 764 007a 0020     		movne	r0, #0
 765              	.LBE75:
 223:..\..\..\lvgl\version_6.1.2\lvgl\src\lv_draw/lv_draw_img.c **** 
 766              		.loc 1 223 0
ARM GAS  C:\Users\pearlstl\AppData\Local\Temp\ccJvDP4q.s 			page 28


 767 007c 04B0     		add	sp, sp, #16
 768              		.cfi_remember_state
 769              		.cfi_def_cfa_offset 16
 770              		@ sp needed
 771 007e F0BC     		pop	{r4, r5, r6, r7}
 772              		.cfi_restore 4
 773              		.cfi_restore 5
 774              		.cfi_restore 6
 775              		.cfi_restore 7
 776              		.cfi_def_cfa_offset 0
 777              	.LVL87:
 778 0080 7047     		bx	lr
 779              	.LVL88:
 780              	.L73:
 781              		.cfi_restore_state
 782              	.LBB76:
 202:..\..\..\lvgl\version_6.1.2\lvgl\src\lv_draw/lv_draw_img.c ****         return opa_table[px_opa];
 783              		.loc 1 202 0
 784 0082 0334     		adds	r4, r4, #3
 785 0084 A410     		asrs	r4, r4, #2
 786 0086 02FB0462 		mla	r2, r2, r4, r6
 787              	.LVL89:
 788 008a 8B10     		asrs	r3, r1, #2
 789 008c 01F00301 		and	r1, r1, #3
 790              	.LVL90:
 791 0090 4900     		lsls	r1, r1, #1
 203:..\..\..\lvgl\version_6.1.2\lvgl\src\lv_draw/lv_draw_img.c ****     } else if(dsc->header.cf == LV_IMG_CF_ALPHA_4BIT) {
 792              		.loc 1 203 0
 793 0092 D35C     		ldrb	r3, [r2, r3]	@ zero_extendqisi2
 193:..\..\..\lvgl\version_6.1.2\lvgl\src\lv_draw/lv_draw_img.c **** 
 794              		.loc 1 193 0
 795 0094 1848     		ldr	r0, .L75
 796              	.LVL91:
 202:..\..\..\lvgl\version_6.1.2\lvgl\src\lv_draw/lv_draw_img.c ****         return opa_table[px_opa];
 797              		.loc 1 202 0
 798 0096 C1F10601 		rsb	r1, r1, #6
 203:..\..\..\lvgl\version_6.1.2\lvgl\src\lv_draw/lv_draw_img.c ****     } else if(dsc->header.cf == LV_IMG_CF_ALPHA_4BIT) {
 799              		.loc 1 203 0
 800 009a 0322     		movs	r2, #3
 801 009c 8A40     		lsls	r2, r2, r1
 802 009e 1340     		ands	r3, r3, r2
 803 00a0 0B41     		asrs	r3, r3, r1
 804 00a2 04AA     		add	r2, sp, #16
 193:..\..\..\lvgl\version_6.1.2\lvgl\src\lv_draw/lv_draw_img.c **** 
 805              		.loc 1 193 0
 806 00a4 0068     		ldr	r0, [r0]	@ unaligned
 807 00a6 0090     		str	r0, [sp]	@ unaligned
 808              	.LVL92:
 203:..\..\..\lvgl\version_6.1.2\lvgl\src\lv_draw/lv_draw_img.c ****     } else if(dsc->header.cf == LV_IMG_CF_ALPHA_4BIT) {
 809              		.loc 1 203 0
 810 00a8 1344     		add	r3, r3, r2
 811 00aa 13F8100C 		ldrb	r0, [r3, #-16]	@ zero_extendqisi2
 812              	.LBE76:
 223:..\..\..\lvgl\version_6.1.2\lvgl\src\lv_draw/lv_draw_img.c **** 
 813              		.loc 1 223 0
 814 00ae 04B0     		add	sp, sp, #16
 815              		.cfi_remember_state
ARM GAS  C:\Users\pearlstl\AppData\Local\Temp\ccJvDP4q.s 			page 29


 816              		.cfi_def_cfa_offset 16
 817              		@ sp needed
 818 00b0 F0BC     		pop	{r4, r5, r6, r7}
 819              		.cfi_restore 4
 820              		.cfi_restore 5
 821              		.cfi_restore 6
 822              		.cfi_restore 7
 823              		.cfi_def_cfa_offset 0
 824              	.LVL93:
 825 00b2 7047     		bx	lr
 826              	.LVL94:
 827              	.L71:
 828              		.cfi_restore_state
 829              	.LBB77:
 181:..\..\..\lvgl\version_6.1.2\lvgl\src\lv_draw/lv_draw_img.c ****     } else if(dsc->header.cf == LV_IMG_CF_ALPHA_1BIT) {
 830              		.loc 1 181 0
 831 00b4 12FB0511 		smlabb	r1, r2, r5, r1
 832              	.LVL95:
 833 00b8 06EB8102 		add	r2, r6, r1, lsl #2
 834              	.LVL96:
 835 00bc D078     		ldrb	r0, [r2, #3]	@ zero_extendqisi2
 836              	.LVL97:
 837              	.LBE77:
 223:..\..\..\lvgl\version_6.1.2\lvgl\src\lv_draw/lv_draw_img.c **** 
 838              		.loc 1 223 0
 839 00be 04B0     		add	sp, sp, #16
 840              		.cfi_remember_state
 841              		.cfi_def_cfa_offset 16
 842              		@ sp needed
 843 00c0 F0BC     		pop	{r4, r5, r6, r7}
 844              		.cfi_restore 4
 845              		.cfi_restore 5
 846              		.cfi_restore 6
 847              		.cfi_restore 7
 848              		.cfi_def_cfa_offset 0
 849              	.LVL98:
 850 00c2 7047     		bx	lr
 851              	.LVL99:
 852              	.L74:
 853              		.cfi_restore_state
 854              	.LBB78:
 215:..\..\..\lvgl\version_6.1.2\lvgl\src\lv_draw/lv_draw_img.c ****         return opa_table[px_opa];
 855              		.loc 1 215 0
 856 00c4 601C     		adds	r0, r4, #1
 857              	.LVL100:
 205:..\..\..\lvgl\version_6.1.2\lvgl\src\lv_draw/lv_draw_img.c ****                                        68, 85, 102, 119, 136, 153, 170, 187, 204, 221, 238, 255};
 858              		.loc 1 205 0
 859 00c6 0D4B     		ldr	r3, .L75+4
 215:..\..\..\lvgl\version_6.1.2\lvgl\src\lv_draw/lv_draw_img.c ****         return opa_table[px_opa];
 860              		.loc 1 215 0
 861 00c8 4010     		asrs	r0, r0, #1
 862 00ca 02FB0064 		mla	r4, r2, r0, r6
 863 00ce 4E10     		asrs	r6, r1, #1
 864              	.LVL101:
 865 00d0 01F00101 		and	r1, r1, #1
 866              	.LVL102:
 205:..\..\..\lvgl\version_6.1.2\lvgl\src\lv_draw/lv_draw_img.c ****                                        68, 85, 102, 119, 136, 153, 170, 187, 204, 221, 238, 255};
ARM GAS  C:\Users\pearlstl\AppData\Local\Temp\ccJvDP4q.s 			page 30


 867              		.loc 1 205 0
 868 00d4 1868     		ldr	r0, [r3]	@ unaligned
 869 00d6 9A68     		ldr	r2, [r3, #8]	@ unaligned
 870              	.LVL103:
 216:..\..\..\lvgl\version_6.1.2\lvgl\src\lv_draw/lv_draw_img.c ****     } else if(dsc->header.cf == LV_IMG_CF_ALPHA_8BIT) {
 871              		.loc 1 216 0
 872 00d8 A75D     		ldrb	r7, [r4, r6]	@ zero_extendqisi2
 215:..\..\..\lvgl\version_6.1.2\lvgl\src\lv_draw/lv_draw_img.c ****         return opa_table[px_opa];
 873              		.loc 1 215 0
 874 00da 8D00     		lsls	r5, r1, #2
 205:..\..\..\lvgl\version_6.1.2\lvgl\src\lv_draw/lv_draw_img.c ****                                        68, 85, 102, 119, 136, 153, 170, 187, 204, 221, 238, 255};
 875              		.loc 1 205 0
 876 00dc 5968     		ldr	r1, [r3, #4]	@ unaligned
 877 00de DB68     		ldr	r3, [r3, #12]	@ unaligned
 878 00e0 6E46     		mov	r6, sp
 879 00e2 0FC6     		stmia	r6!, {r0, r1, r2, r3}
 880              	.LVL104:
 215:..\..\..\lvgl\version_6.1.2\lvgl\src\lv_draw/lv_draw_img.c ****         return opa_table[px_opa];
 881              		.loc 1 215 0
 882 00e4 C5F10405 		rsb	r5, r5, #4
 883              	.LVL105:
 216:..\..\..\lvgl\version_6.1.2\lvgl\src\lv_draw/lv_draw_img.c ****     } else if(dsc->header.cf == LV_IMG_CF_ALPHA_8BIT) {
 884              		.loc 1 216 0
 885 00e8 0F24     		movs	r4, #15
 886 00ea AC40     		lsls	r4, r4, r5
 887 00ec 3C40     		ands	r4, r4, r7
 888 00ee 2C41     		asrs	r4, r4, r5
 889 00f0 3444     		add	r4, r4, r6
 890 00f2 14F8100C 		ldrb	r0, [r4, #-16]	@ zero_extendqisi2
 891 00f6 ADE7     		b	.L65
 892              	.L76:
 893              		.align	2
 894              	.L75:
 895 00f8 0C000000 		.word	.LANCHOR0+12
 896 00fc 10000000 		.word	.LANCHOR0+16
 897              	.LBE78:
 898              		.cfi_endproc
 899              	.LFE33:
 900              		.size	lv_img_buf_get_px_alpha, .-lv_img_buf_get_px_alpha
 901              		.section	.text.lv_img_buf_set_px_color,"ax",%progbits
 902              		.align	2
 903              		.global	lv_img_buf_set_px_color
 904              		.thumb
 905              		.thumb_func
 906              		.type	lv_img_buf_set_px_color, %function
 907              	lv_img_buf_set_px_color:
 908              	.LFB34:
 233:..\..\..\lvgl\version_6.1.2\lvgl\src\lv_draw/lv_draw_img.c ****     uint8_t * buf_u8 = (uint8_t *)dsc->data;
 909              		.loc 1 233 0
 910              		.cfi_startproc
 911              		@ args = 0, pretend = 0, frame = 8
 912              		@ frame_needed = 0, uses_anonymous_args = 0
 913              	.LVL106:
 914 0000 70B5     		push	{r4, r5, r6, lr}
 915              		.cfi_def_cfa_offset 16
 916              		.cfi_offset 4, -16
 917              		.cfi_offset 5, -12
ARM GAS  C:\Users\pearlstl\AppData\Local\Temp\ccJvDP4q.s 			page 31


 918              		.cfi_offset 6, -8
 919              		.cfi_offset 14, -4
 236:..\..\..\lvgl\version_6.1.2\lvgl\src\lv_draw/lv_draw_img.c ****         uint8_t px_size = lv_img_color_format_get_px_size(dsc->header.cf) >> 3;
 920              		.loc 1 236 0
 921 0002 0478     		ldrb	r4, [r0]	@ zero_extendqisi2
 234:..\..\..\lvgl\version_6.1.2\lvgl\src\lv_draw/lv_draw_img.c **** 
 922              		.loc 1 234 0
 923 0004 8568     		ldr	r5, [r0, #8]
 924              	.LVL107:
 233:..\..\..\lvgl\version_6.1.2\lvgl\src\lv_draw/lv_draw_img.c ****     uint8_t * buf_u8 = (uint8_t *)dsc->data;
 925              		.loc 1 233 0
 926 0006 82B0     		sub	sp, sp, #8
 927              		.cfi_def_cfa_offset 24
 236:..\..\..\lvgl\version_6.1.2\lvgl\src\lv_draw/lv_draw_img.c ****         uint8_t px_size = lv_img_color_format_get_px_size(dsc->header.cf) >> 3;
 928              		.loc 1 236 0
 929 0008 04F01D06 		and	r6, r4, #29
 930 000c 042E     		cmp	r6, #4
 233:..\..\..\lvgl\version_6.1.2\lvgl\src\lv_draw/lv_draw_img.c ****     uint8_t * buf_u8 = (uint8_t *)dsc->data;
 931              		.loc 1 233 0
 932 000e 0193     		str	r3, [sp, #4]
 236:..\..\..\lvgl\version_6.1.2\lvgl\src\lv_draw/lv_draw_img.c ****         uint8_t px_size = lv_img_color_format_get_px_size(dsc->header.cf) >> 3;
 933              		.loc 1 236 0
 934 0010 14D0     		beq	.L90
 935 0012 04F01F06 		and	r6, r4, #31
 240:..\..\..\lvgl\version_6.1.2\lvgl\src\lv_draw/lv_draw_img.c ****         uint8_t px_size = lv_img_color_format_get_px_size(dsc->header.cf) >> 3;
 936              		.loc 1 240 0
 937 0016 052E     		cmp	r6, #5
 938 0018 27D0     		beq	.L91
 244:..\..\..\lvgl\version_6.1.2\lvgl\src\lv_draw/lv_draw_img.c ****         buf_u8 += sizeof(lv_color32_t) * 2; /*Skip the palette*/
 939              		.loc 1 244 0
 940 001a 072E     		cmp	r6, #7
 941 001c 33D0     		beq	.L92
 256:..\..\..\lvgl\version_6.1.2\lvgl\src\lv_draw/lv_draw_img.c ****         buf_u8 += sizeof(lv_color32_t) * 4; /*Skip the palette*/
 942              		.loc 1 256 0
 943 001e 082E     		cmp	r6, #8
 944 0020 49D0     		beq	.L93
 268:..\..\..\lvgl\version_6.1.2\lvgl\src\lv_draw/lv_draw_img.c ****         buf_u8 += sizeof(lv_color32_t) * 16; /*Skip the palette*/
 945              		.loc 1 268 0
 946 0022 092E     		cmp	r6, #9
 947 0024 65D0     		beq	.L94
 279:..\..\..\lvgl\version_6.1.2\lvgl\src\lv_draw/lv_draw_img.c ****         buf_u8 += sizeof(lv_color32_t) * 256; /*Skip the palette*/
 948              		.loc 1 279 0
 949 0026 0A2E     		cmp	r6, #10
 950 0028 1DD1     		bne	.L77
 951              	.LVL108:
 952              	.LBB79:
 281:..\..\..\lvgl\version_6.1.2\lvgl\src\lv_draw/lv_draw_img.c ****         buf_u8[px]  = c.full;
 953              		.loc 1 281 0
 954 002a 0068     		ldr	r0, [r0]
 955              	.LVL109:
 956 002c C0F38A20 		ubfx	r0, r0, #10, #11
 957              	.LVL110:
 282:..\..\..\lvgl\version_6.1.2\lvgl\src\lv_draw/lv_draw_img.c ****     }
 958              		.loc 1 282 0
 959 0030 12FB0011 		smlabb	r1, r2, r0, r1
 960              	.LVL111:
 961 0034 0D44     		add	r5, r5, r1
ARM GAS  C:\Users\pearlstl\AppData\Local\Temp\ccJvDP4q.s 			page 32


 962              	.LVL112:
 963 0036 85F80034 		strb	r3, [r5, #1024]
 964              	.LVL113:
 965              	.LBE79:
 284:..\..\..\lvgl\version_6.1.2\lvgl\src\lv_draw/lv_draw_img.c **** 
 966              		.loc 1 284 0
 967 003a 14E0     		b	.L77
 968              	.LVL114:
 969              	.L90:
 970              	.LBB80:
 237:..\..\..\lvgl\version_6.1.2\lvgl\src\lv_draw/lv_draw_img.c ****         uint32_t px     = dsc->header.w * y * px_size + x * px_size;
 971              		.loc 1 237 0
 972 003c C4F30404 		ubfx	r4, r4, #0, #5
 973 0040 043C     		subs	r4, r4, #4
 974 0042 E4B2     		uxtb	r4, r4
 975 0044 0A2C     		cmp	r4, #10
 976 0046 1BD8     		bhi	.L86
 977 0048 324B     		ldr	r3, .L95
 978 004a 1C5D     		ldrb	r4, [r3, r4]	@ zero_extendqisi2
 979 004c E408     		lsrs	r4, r4, #3
 980 004e 2646     		mov	r6, r4
 981              	.LVL115:
 982              	.L82:
 983              	.LBE80:
 984              	.LBB81:
 242:..\..\..\lvgl\version_6.1.2\lvgl\src\lv_draw/lv_draw_img.c ****         memcpy(&buf_u8[px], &c, px_size - 1); /*-1 to not overwrite the alpha value*/
 985              		.loc 1 242 0
 986 0050 0368     		ldr	r3, [r0]
 987 0052 C3F38A23 		ubfx	r3, r3, #10, #11
 988              	.LVL116:
 243:..\..\..\lvgl\version_6.1.2\lvgl\src\lv_draw/lv_draw_img.c ****     } else if(dsc->header.cf == LV_IMG_CF_INDEXED_1BIT) {
 989              		.loc 1 243 0
 990 0056 12FB0310 		smlabb	r0, r2, r3, r1
 991              	.LVL117:
 992 005a 04FB0050 		mla	r0, r4, r0, r5
 993 005e 3246     		mov	r2, r6
 994              	.LVL118:
 995 0060 01A9     		add	r1, sp, #4
 996              	.LVL119:
 997 0062 FFF7FEFF 		bl	memcpy
 998              	.LVL120:
 999              	.L77:
 1000              	.LBE81:
 284:..\..\..\lvgl\version_6.1.2\lvgl\src\lv_draw/lv_draw_img.c **** 
 1001              		.loc 1 284 0
 1002 0066 02B0     		add	sp, sp, #8
 1003              		.cfi_remember_state
 1004              		.cfi_def_cfa_offset 16
 1005              		@ sp needed
 1006 0068 70BD     		pop	{r4, r5, r6, pc}
 1007              	.LVL121:
 1008              	.L91:
 1009              		.cfi_restore_state
 1010              	.LBB82:
 241:..\..\..\lvgl\version_6.1.2\lvgl\src\lv_draw/lv_draw_img.c ****         uint32_t px     = dsc->header.w * y * px_size + x * px_size;
 1011              		.loc 1 241 0
 1012 006a C4F30404 		ubfx	r4, r4, #0, #5
ARM GAS  C:\Users\pearlstl\AppData\Local\Temp\ccJvDP4q.s 			page 33


 1013 006e 043C     		subs	r4, r4, #4
 1014 0070 E4B2     		uxtb	r4, r4
 1015 0072 0A2C     		cmp	r4, #10
 1016 0074 39D8     		bhi	.L87
 1017 0076 274B     		ldr	r3, .L95
 1018 0078 1C5D     		ldrb	r4, [r3, r4]	@ zero_extendqisi2
 1019 007a E408     		lsrs	r4, r4, #3
 1020 007c 661E     		subs	r6, r4, #1
 1021 007e E7E7     		b	.L82
 1022              	.LVL122:
 1023              	.L86:
 1024              	.LBE82:
 1025              	.LBB83:
 237:..\..\..\lvgl\version_6.1.2\lvgl\src\lv_draw/lv_draw_img.c ****         uint32_t px     = dsc->header.w * y * px_size + x * px_size;
 1026              		.loc 1 237 0
 1027 0080 0026     		movs	r6, #0
 1028 0082 3446     		mov	r4, r6
 1029 0084 E4E7     		b	.L82
 1030              	.LVL123:
 1031              	.L92:
 1032              	.LBE83:
 1033              	.LBB84:
 253:..\..\..\lvgl\version_6.1.2\lvgl\src\lv_draw/lv_draw_img.c ****         buf_u8[px]  = buf_u8[px] & ~(1 << (7 - bit));
 1034              		.loc 1 253 0
 1035 0086 0068     		ldr	r0, [r0]
 1036              	.LVL124:
 254:..\..\..\lvgl\version_6.1.2\lvgl\src\lv_draw/lv_draw_img.c ****         buf_u8[px]  = buf_u8[px] | ((c.full & 0x1) << (7 - bit));
 1037              		.loc 1 254 0
 1038 0088 C0F38A20 		ubfx	r0, r0, #10, #11
 1039 008c 0730     		adds	r0, r0, #7
 1040 008e CC10     		asrs	r4, r1, #3
 1041 0090 C010     		asrs	r0, r0, #3
 1042 0092 02FB0042 		mla	r2, r2, r0, r4
 1043              	.LVL125:
 1044 0096 0832     		adds	r2, r2, #8
 1045 0098 01F00701 		and	r1, r1, #7
 1046              	.LVL126:
 1047 009c C1F10701 		rsb	r1, r1, #7
 255:..\..\..\lvgl\version_6.1.2\lvgl\src\lv_draw/lv_draw_img.c ****     } else if(dsc->header.cf == LV_IMG_CF_INDEXED_2BIT) {
 1048              		.loc 1 255 0
 1049 00a0 0124     		movs	r4, #1
 1050 00a2 A85C     		ldrb	r0, [r5, r2]	@ zero_extendqisi2
 1051 00a4 2340     		ands	r3, r3, r4
 1052 00a6 8C40     		lsls	r4, r4, r1
 1053 00a8 03FA01F1 		lsl	r1, r3, r1
 1054 00ac 20EA0403 		bic	r3, r0, r4
 1055 00b0 0B43     		orrs	r3, r3, r1
 1056 00b2 AB54     		strb	r3, [r5, r2]
 1057              	.LVL127:
 1058              	.LBE84:
 1059 00b4 D7E7     		b	.L77
 1060              	.LVL128:
 1061              	.L93:
 1062              	.LBB85:
 264:..\..\..\lvgl\version_6.1.2\lvgl\src\lv_draw/lv_draw_img.c **** 
 1063              		.loc 1 264 0
 1064 00b6 0068     		ldr	r0, [r0]
ARM GAS  C:\Users\pearlstl\AppData\Local\Temp\ccJvDP4q.s 			page 34


 1065              	.LVL129:
 266:..\..\..\lvgl\version_6.1.2\lvgl\src\lv_draw/lv_draw_img.c ****         buf_u8[px] = buf_u8[px] | ((c.full & 0x3) << (6 - bit));
 1066              		.loc 1 266 0
 1067 00b8 C0F38A20 		ubfx	r0, r0, #10, #11
 1068 00bc 0330     		adds	r0, r0, #3
 1069 00be 8C10     		asrs	r4, r1, #2
 1070 00c0 8010     		asrs	r0, r0, #2
 1071 00c2 01F00301 		and	r1, r1, #3
 1072              	.LVL130:
 1073 00c6 02FB0042 		mla	r2, r2, r0, r4
 1074              	.LVL131:
 1075 00ca 4900     		lsls	r1, r1, #1
 1076 00cc 1032     		adds	r2, r2, #16
 1077 00ce C1F10601 		rsb	r1, r1, #6
 267:..\..\..\lvgl\version_6.1.2\lvgl\src\lv_draw/lv_draw_img.c ****     } else if(dsc->header.cf == LV_IMG_CF_INDEXED_4BIT) {
 1078              		.loc 1 267 0
 1079 00d2 0324     		movs	r4, #3
 1080              	.LVL132:
 1081              	.L89:
 1082              	.LBE85:
 1083              	.LBB86:
 278:..\..\..\lvgl\version_6.1.2\lvgl\src\lv_draw/lv_draw_img.c ****     } else if(dsc->header.cf == LV_IMG_CF_INDEXED_8BIT) {
 1084              		.loc 1 278 0
 1085 00d4 A85C     		ldrb	r0, [r5, r2]	@ zero_extendqisi2
 1086 00d6 2340     		ands	r3, r3, r4
 1087 00d8 8C40     		lsls	r4, r4, r1
 1088 00da 20EA0400 		bic	r0, r0, r4
 1089 00de 03FA01F1 		lsl	r1, r3, r1
 1090 00e2 0143     		orrs	r1, r1, r0
 1091 00e4 A954     		strb	r1, [r5, r2]
 1092              	.LBE86:
 284:..\..\..\lvgl\version_6.1.2\lvgl\src\lv_draw/lv_draw_img.c **** 
 1093              		.loc 1 284 0
 1094 00e6 02B0     		add	sp, sp, #8
 1095              		.cfi_remember_state
 1096              		.cfi_def_cfa_offset 16
 1097              		@ sp needed
 1098 00e8 70BD     		pop	{r4, r5, r6, pc}
 1099              	.LVL133:
 1100              	.L87:
 1101              		.cfi_restore_state
 1102              	.LBB87:
 241:..\..\..\lvgl\version_6.1.2\lvgl\src\lv_draw/lv_draw_img.c ****         uint32_t px     = dsc->header.w * y * px_size + x * px_size;
 1103              		.loc 1 241 0
 1104 00ea 4FF0FF36 		mov	r6, #-1
 1105 00ee 0024     		movs	r4, #0
 1106 00f0 AEE7     		b	.L82
 1107              	.LVL134:
 1108              	.L94:
 1109              	.LBE87:
 1110              	.LBB88:
 276:..\..\..\lvgl\version_6.1.2\lvgl\src\lv_draw/lv_draw_img.c ****         buf_u8[px]  = buf_u8[px] & ~(0xF << (4 - bit));
 1111              		.loc 1 276 0
 1112 00f2 0068     		ldr	r0, [r0]
 1113              	.LVL135:
 277:..\..\..\lvgl\version_6.1.2\lvgl\src\lv_draw/lv_draw_img.c ****         buf_u8[px]  = buf_u8[px] | ((c.full & 0xF) << (4 - bit));
 1114              		.loc 1 277 0
ARM GAS  C:\Users\pearlstl\AppData\Local\Temp\ccJvDP4q.s 			page 35


 1115 00f4 C0F38A20 		ubfx	r0, r0, #10, #11
 1116 00f8 0130     		adds	r0, r0, #1
 1117 00fa 4C10     		asrs	r4, r1, #1
 1118 00fc 4010     		asrs	r0, r0, #1
 1119 00fe 01F00101 		and	r1, r1, #1
 1120              	.LVL136:
 1121 0102 02FB0042 		mla	r2, r2, r0, r4
 1122              	.LVL137:
 1123 0106 8900     		lsls	r1, r1, #2
 1124 0108 4032     		adds	r2, r2, #64
 1125 010a C1F10401 		rsb	r1, r1, #4
 278:..\..\..\lvgl\version_6.1.2\lvgl\src\lv_draw/lv_draw_img.c ****     } else if(dsc->header.cf == LV_IMG_CF_INDEXED_8BIT) {
 1126              		.loc 1 278 0
 1127 010e 0F24     		movs	r4, #15
 1128 0110 E0E7     		b	.L89
 1129              	.L96:
 1130 0112 00BF     		.align	2
 1131              	.L95:
 1132 0114 00000000 		.word	.LANCHOR0
 1133              	.LBE88:
 1134              		.cfi_endproc
 1135              	.LFE34:
 1136              		.size	lv_img_buf_set_px_color, .-lv_img_buf_set_px_color
 1137              		.section	.text.lv_img_buf_set_px_alpha,"ax",%progbits
 1138              		.align	2
 1139              		.global	lv_img_buf_set_px_alpha
 1140              		.thumb
 1141              		.thumb_func
 1142              		.type	lv_img_buf_set_px_alpha, %function
 1143              	lv_img_buf_set_px_alpha:
 1144              	.LFB35:
 294:..\..\..\lvgl\version_6.1.2\lvgl\src\lv_draw/lv_draw_img.c ****     uint8_t * buf_u8 = (uint8_t *)dsc->data;
 1145              		.loc 1 294 0
 1146              		.cfi_startproc
 1147              		@ args = 0, pretend = 0, frame = 0
 1148              		@ frame_needed = 0, uses_anonymous_args = 0
 1149              		@ link register save eliminated.
 1150              	.LVL138:
 1151 0000 70B4     		push	{r4, r5, r6}
 1152              		.cfi_def_cfa_offset 12
 1153              		.cfi_offset 4, -12
 1154              		.cfi_offset 5, -8
 1155              		.cfi_offset 6, -4
 297:..\..\..\lvgl\version_6.1.2\lvgl\src\lv_draw/lv_draw_img.c ****         uint8_t px_size          = lv_img_color_format_get_px_size(dsc->header.cf) >> 3;
 1156              		.loc 1 297 0
 1157 0002 0478     		ldrb	r4, [r0]	@ zero_extendqisi2
 295:..\..\..\lvgl\version_6.1.2\lvgl\src\lv_draw/lv_draw_img.c **** 
 1158              		.loc 1 295 0
 1159 0004 8668     		ldr	r6, [r0, #8]
 1160              	.LVL139:
 297:..\..\..\lvgl\version_6.1.2\lvgl\src\lv_draw/lv_draw_img.c ****         uint8_t px_size          = lv_img_color_format_get_px_size(dsc->header.cf) >> 3;
 1161              		.loc 1 297 0
 1162 0006 04F01F05 		and	r5, r4, #31
 1163 000a 052D     		cmp	r5, #5
 1164 000c 0FD0     		beq	.L107
 301:..\..\..\lvgl\version_6.1.2\lvgl\src\lv_draw/lv_draw_img.c ****         opa         = opa >> 7; /*opa -> [0,1]*/
 1165              		.loc 1 301 0
ARM GAS  C:\Users\pearlstl\AppData\Local\Temp\ccJvDP4q.s 			page 36


 1166 000e 0B2D     		cmp	r5, #11
 1167 0010 3ED0     		beq	.L108
 312:..\..\..\lvgl\version_6.1.2\lvgl\src\lv_draw/lv_draw_img.c ****         opa         = opa >> 6; /*opa -> [0,3]*/
 1168              		.loc 1 312 0
 1169 0012 0C2D     		cmp	r5, #12
 1170 0014 1FD0     		beq	.L109
 323:..\..\..\lvgl\version_6.1.2\lvgl\src\lv_draw/lv_draw_img.c ****         opa         = opa >> 4; /*opa -> [0,15]*/
 1171              		.loc 1 323 0
 1172 0016 0D2D     		cmp	r5, #13
 1173 0018 52D0     		beq	.L110
 334:..\..\..\lvgl\version_6.1.2\lvgl\src\lv_draw/lv_draw_img.c ****         uint32_t px = dsc->header.w * y + x;
 1174              		.loc 1 334 0
 1175 001a 0E2D     		cmp	r5, #14
 1176 001c 05D1     		bne	.L97
 1177              	.LBB89:
 335:..\..\..\lvgl\version_6.1.2\lvgl\src\lv_draw/lv_draw_img.c ****         buf_u8[px]  = opa;
 1178              		.loc 1 335 0
 1179 001e 0068     		ldr	r0, [r0]
 1180              	.LVL140:
 1181 0020 C0F38A20 		ubfx	r0, r0, #10, #11
 1182              	.LVL141:
 336:..\..\..\lvgl\version_6.1.2\lvgl\src\lv_draw/lv_draw_img.c ****     }
 1183              		.loc 1 336 0
 1184 0024 12FB0012 		smlabb	r2, r2, r0, r1
 1185              	.LVL142:
 1186 0028 B354     		strb	r3, [r6, r2]
 1187              	.LVL143:
 1188              	.L97:
 1189              	.LBE89:
 338:..\..\..\lvgl\version_6.1.2\lvgl\src\lv_draw/lv_draw_img.c **** 
 1190              		.loc 1 338 0
 1191 002a 70BC     		pop	{r4, r5, r6}
 1192              		.cfi_remember_state
 1193              		.cfi_restore 6
 1194              		.cfi_restore 5
 1195              		.cfi_restore 4
 1196              		.cfi_def_cfa_offset 0
 1197              	.LVL144:
 1198 002c 7047     		bx	lr
 1199              	.LVL145:
 1200              	.L107:
 1201              		.cfi_restore_state
 1202              	.LBB90:
 298:..\..\..\lvgl\version_6.1.2\lvgl\src\lv_draw/lv_draw_img.c ****         uint32_t px              = dsc->header.w * y * px_size + x * px_size;
 1203              		.loc 1 298 0
 1204 002e C4F30404 		ubfx	r4, r4, #0, #5
 1205 0032 043C     		subs	r4, r4, #4
 1206 0034 E4B2     		uxtb	r4, r4
 1207 0036 0A2C     		cmp	r4, #10
 1208 0038 26D8     		bhi	.L104
 1209 003a 2A4D     		ldr	r5, .L111
 1210 003c 2C5D     		ldrb	r4, [r5, r4]	@ zero_extendqisi2
 1211 003e E408     		lsrs	r4, r4, #3
 1212 0040 651E     		subs	r5, r4, #1
 1213              	.L99:
 1214              	.LVL146:
 299:..\..\..\lvgl\version_6.1.2\lvgl\src\lv_draw/lv_draw_img.c ****         buf_u8[px + px_size - 1] = opa;
ARM GAS  C:\Users\pearlstl\AppData\Local\Temp\ccJvDP4q.s 			page 37


 1215              		.loc 1 299 0
 1216 0042 0068     		ldr	r0, [r0]
 1217              	.LVL147:
 1218 0044 C0F38A20 		ubfx	r0, r0, #10, #11
 1219              	.LVL148:
 300:..\..\..\lvgl\version_6.1.2\lvgl\src\lv_draw/lv_draw_img.c ****     } else if(dsc->header.cf == LV_IMG_CF_ALPHA_1BIT) {
 1220              		.loc 1 300 0
 1221 0048 12FB0012 		smlabb	r2, r2, r0, r1
 1222              	.LVL149:
 1223 004c 04FB0261 		mla	r1, r4, r2, r6
 1224              	.LVL150:
 1225 0050 4B55     		strb	r3, [r1, r5]
 1226              	.LBE90:
 338:..\..\..\lvgl\version_6.1.2\lvgl\src\lv_draw/lv_draw_img.c **** 
 1227              		.loc 1 338 0
 1228 0052 70BC     		pop	{r4, r5, r6}
 1229              		.cfi_remember_state
 1230              		.cfi_restore 4
 1231              		.cfi_restore 5
 1232              		.cfi_restore 6
 1233              		.cfi_def_cfa_offset 0
 1234              	.LVL151:
 1235 0054 7047     		bx	lr
 1236              	.LVL152:
 1237              	.L109:
 1238              		.cfi_restore_state
 1239              	.LBB91:
 320:..\..\..\lvgl\version_6.1.2\lvgl\src\lv_draw/lv_draw_img.c ****         buf_u8[px]  = buf_u8[px] & ~(3 << (6 - bit));
 1240              		.loc 1 320 0
 1241 0056 0068     		ldr	r0, [r0]
 1242              	.LVL153:
 321:..\..\..\lvgl\version_6.1.2\lvgl\src\lv_draw/lv_draw_img.c ****         buf_u8[px]  = buf_u8[px] | ((opa & 0x3) << (6 - bit));
 1243              		.loc 1 321 0
 1244 0058 C0F38A20 		ubfx	r0, r0, #10, #11
 1245 005c 0330     		adds	r0, r0, #3
 1246 005e 8C10     		asrs	r4, r1, #2
 1247 0060 8010     		asrs	r0, r0, #2
 1248 0062 02FB0042 		mla	r2, r2, r0, r4
 1249              	.LVL154:
 1250 0066 01F00301 		and	r1, r1, #3
 1251              	.LVL155:
 1252 006a 4900     		lsls	r1, r1, #1
 322:..\..\..\lvgl\version_6.1.2\lvgl\src\lv_draw/lv_draw_img.c ****     } else if(dsc->header.cf == LV_IMG_CF_ALPHA_4BIT) {
 1253              		.loc 1 322 0
 1254 006c B05C     		ldrb	r0, [r6, r2]	@ zero_extendqisi2
 321:..\..\..\lvgl\version_6.1.2\lvgl\src\lv_draw/lv_draw_img.c ****         buf_u8[px]  = buf_u8[px] | ((opa & 0x3) << (6 - bit));
 1255              		.loc 1 321 0
 1256 006e C1F10601 		rsb	r1, r1, #6
 322:..\..\..\lvgl\version_6.1.2\lvgl\src\lv_draw/lv_draw_img.c ****     } else if(dsc->header.cf == LV_IMG_CF_ALPHA_4BIT) {
 1257              		.loc 1 322 0
 1258 0072 0324     		movs	r4, #3
 1259 0074 9B09     		lsrs	r3, r3, #6
 1260              	.LVL156:
 1261              	.L106:
 1262              	.LBE91:
 1263              	.LBB92:
 333:..\..\..\lvgl\version_6.1.2\lvgl\src\lv_draw/lv_draw_img.c ****     } else if(dsc->header.cf == LV_IMG_CF_ALPHA_8BIT) {
ARM GAS  C:\Users\pearlstl\AppData\Local\Temp\ccJvDP4q.s 			page 38


 1264              		.loc 1 333 0
 1265 0076 8C40     		lsls	r4, r4, r1
 1266 0078 03FA01F1 		lsl	r1, r3, r1
 1267 007c 20EA0403 		bic	r3, r0, r4
 1268 0080 1943     		orrs	r1, r1, r3
 1269 0082 B154     		strb	r1, [r6, r2]
 1270              	.LBE92:
 338:..\..\..\lvgl\version_6.1.2\lvgl\src\lv_draw/lv_draw_img.c **** 
 1271              		.loc 1 338 0
 1272 0084 70BC     		pop	{r4, r5, r6}
 1273              		.cfi_remember_state
 1274              		.cfi_restore 4
 1275              		.cfi_restore 5
 1276              		.cfi_restore 6
 1277              		.cfi_def_cfa_offset 0
 1278              	.LVL157:
 1279 0086 7047     		bx	lr
 1280              	.LVL158:
 1281              	.L104:
 1282              		.cfi_restore_state
 1283              	.LBB93:
 298:..\..\..\lvgl\version_6.1.2\lvgl\src\lv_draw/lv_draw_img.c ****         uint32_t px              = dsc->header.w * y * px_size + x * px_size;
 1284              		.loc 1 298 0
 1285 0088 4FF0FF35 		mov	r5, #-1
 1286 008c 0024     		movs	r4, #0
 1287 008e D8E7     		b	.L99
 1288              	.LVL159:
 1289              	.L108:
 1290              	.LBE93:
 1291              	.LBB94:
 309:..\..\..\lvgl\version_6.1.2\lvgl\src\lv_draw/lv_draw_img.c ****         buf_u8[px]  = buf_u8[px] & ~(1 << (7 - bit));
 1292              		.loc 1 309 0
 1293 0090 0068     		ldr	r0, [r0]
 1294              	.LVL160:
 310:..\..\..\lvgl\version_6.1.2\lvgl\src\lv_draw/lv_draw_img.c ****         buf_u8[px]  = buf_u8[px] | ((opa & 0x1) << (7 - bit));
 1295              		.loc 1 310 0
 1296 0092 C0F38A20 		ubfx	r0, r0, #10, #11
 1297 0096 0730     		adds	r0, r0, #7
 1298 0098 CC10     		asrs	r4, r1, #3
 1299 009a C010     		asrs	r0, r0, #3
 1300 009c 02FB0042 		mla	r2, r2, r0, r4
 1301              	.LVL161:
 1302 00a0 01F00701 		and	r1, r1, #7
 1303              	.LVL162:
 311:..\..\..\lvgl\version_6.1.2\lvgl\src\lv_draw/lv_draw_img.c ****     } else if(dsc->header.cf == LV_IMG_CF_ALPHA_2BIT) {
 1304              		.loc 1 311 0
 1305 00a4 B05C     		ldrb	r0, [r6, r2]	@ zero_extendqisi2
 310:..\..\..\lvgl\version_6.1.2\lvgl\src\lv_draw/lv_draw_img.c ****         buf_u8[px]  = buf_u8[px] | ((opa & 0x1) << (7 - bit));
 1306              		.loc 1 310 0
 1307 00a6 C1F10701 		rsb	r1, r1, #7
 311:..\..\..\lvgl\version_6.1.2\lvgl\src\lv_draw/lv_draw_img.c ****     } else if(dsc->header.cf == LV_IMG_CF_ALPHA_2BIT) {
 1308              		.loc 1 311 0
 1309 00aa 0124     		movs	r4, #1
 1310 00ac 8C40     		lsls	r4, r4, r1
 1311 00ae DB09     		lsrs	r3, r3, #7
 1312              	.LVL163:
 1313 00b0 03FA01F1 		lsl	r1, r3, r1
ARM GAS  C:\Users\pearlstl\AppData\Local\Temp\ccJvDP4q.s 			page 39


 1314 00b4 20EA0403 		bic	r3, r0, r4
 1315 00b8 0B43     		orrs	r3, r3, r1
 1316 00ba B354     		strb	r3, [r6, r2]
 1317              	.LVL164:
 1318              	.LBE94:
 338:..\..\..\lvgl\version_6.1.2\lvgl\src\lv_draw/lv_draw_img.c **** 
 1319              		.loc 1 338 0
 1320 00bc 70BC     		pop	{r4, r5, r6}
 1321              		.cfi_remember_state
 1322              		.cfi_restore 4
 1323              		.cfi_restore 5
 1324              		.cfi_restore 6
 1325              		.cfi_def_cfa_offset 0
 1326              	.LVL165:
 1327 00be 7047     		bx	lr
 1328              	.LVL166:
 1329              	.L110:
 1330              		.cfi_restore_state
 1331              	.LBB95:
 331:..\..\..\lvgl\version_6.1.2\lvgl\src\lv_draw/lv_draw_img.c ****         buf_u8[px]  = buf_u8[px] & ~(0xF << (4 - bit));
 1332              		.loc 1 331 0
 1333 00c0 0068     		ldr	r0, [r0]
 1334              	.LVL167:
 332:..\..\..\lvgl\version_6.1.2\lvgl\src\lv_draw/lv_draw_img.c ****         buf_u8[px]  = buf_u8[px] | ((opa & 0xF) << (4 - bit));
 1335              		.loc 1 332 0
 1336 00c2 C0F38A20 		ubfx	r0, r0, #10, #11
 1337 00c6 0130     		adds	r0, r0, #1
 1338 00c8 4C10     		asrs	r4, r1, #1
 1339 00ca 4010     		asrs	r0, r0, #1
 1340 00cc 02FB0042 		mla	r2, r2, r0, r4
 1341              	.LVL168:
 1342 00d0 01F00101 		and	r1, r1, #1
 1343              	.LVL169:
 1344 00d4 8900     		lsls	r1, r1, #2
 1345 00d6 C1F10401 		rsb	r1, r1, #4
 333:..\..\..\lvgl\version_6.1.2\lvgl\src\lv_draw/lv_draw_img.c ****     } else if(dsc->header.cf == LV_IMG_CF_ALPHA_8BIT) {
 1346              		.loc 1 333 0
 1347 00da 0F24     		movs	r4, #15
 1348 00dc B05C     		ldrb	r0, [r6, r2]	@ zero_extendqisi2
 1349 00de 1B09     		lsrs	r3, r3, #4
 1350              	.LVL170:
 1351 00e0 C9E7     		b	.L106
 1352              	.L112:
 1353 00e2 00BF     		.align	2
 1354              	.L111:
 1355 00e4 00000000 		.word	.LANCHOR0
 1356              	.LBE95:
 1357              		.cfi_endproc
 1358              	.LFE35:
 1359              		.size	lv_img_buf_set_px_alpha, .-lv_img_buf_set_px_alpha
 1360              		.section	.text.lv_img_buf_set_palette,"ax",%progbits
 1361              		.align	2
 1362              		.global	lv_img_buf_set_palette
 1363              		.thumb
 1364              		.thumb_func
 1365              		.type	lv_img_buf_set_palette, %function
 1366              	lv_img_buf_set_palette:
ARM GAS  C:\Users\pearlstl\AppData\Local\Temp\ccJvDP4q.s 			page 40


 1367              	.LFB36:
 351:..\..\..\lvgl\version_6.1.2\lvgl\src\lv_draw/lv_draw_img.c ****     if((dsc->header.cf == LV_IMG_CF_ALPHA_1BIT && id > 1) || (dsc->header.cf == LV_IMG_CF_ALPHA_2BI
 1368              		.loc 1 351 0
 1369              		.cfi_startproc
 1370              		@ args = 0, pretend = 0, frame = 8
 1371              		@ frame_needed = 0, uses_anonymous_args = 0
 1372              		@ link register save eliminated.
 1373              	.LVL171:
 1374 0000 10B4     		push	{r4}
 1375              		.cfi_def_cfa_offset 4
 1376              		.cfi_offset 4, -4
 352:..\..\..\lvgl\version_6.1.2\lvgl\src\lv_draw/lv_draw_img.c ****        (dsc->header.cf == LV_IMG_CF_ALPHA_4BIT && id > 15) || (dsc->header.cf == LV_IMG_CF_ALPHA_8B
 1377              		.loc 1 352 0
 1378 0002 0378     		ldrb	r3, [r0]	@ zero_extendqisi2
 1379 0004 03F01F03 		and	r3, r3, #31
 1380 0008 0B2B     		cmp	r3, #11
 351:..\..\..\lvgl\version_6.1.2\lvgl\src\lv_draw/lv_draw_img.c ****     if((dsc->header.cf == LV_IMG_CF_ALPHA_1BIT && id > 1) || (dsc->header.cf == LV_IMG_CF_ALPHA_2BI
 1381              		.loc 1 351 0
 1382 000a 83B0     		sub	sp, sp, #12
 1383              		.cfi_def_cfa_offset 16
 352:..\..\..\lvgl\version_6.1.2\lvgl\src\lv_draw/lv_draw_img.c ****        (dsc->header.cf == LV_IMG_CF_ALPHA_4BIT && id > 15) || (dsc->header.cf == LV_IMG_CF_ALPHA_8B
 1384              		.loc 1 352 0
 1385 000c 16D0     		beq	.L125
 352:..\..\..\lvgl\version_6.1.2\lvgl\src\lv_draw/lv_draw_img.c ****        (dsc->header.cf == LV_IMG_CF_ALPHA_4BIT && id > 15) || (dsc->header.cf == LV_IMG_CF_ALPHA_8B
 1386              		.loc 1 352 0 is_stmt 0 discriminator 3
 1387 000e 0C2B     		cmp	r3, #12
 1388 0010 07D0     		beq	.L126
 352:..\..\..\lvgl\version_6.1.2\lvgl\src\lv_draw/lv_draw_img.c ****        (dsc->header.cf == LV_IMG_CF_ALPHA_4BIT && id > 15) || (dsc->header.cf == LV_IMG_CF_ALPHA_8B
 1389              		.loc 1 352 0 discriminator 6
 1390 0012 0D2B     		cmp	r3, #13
 1391 0014 18D0     		beq	.L127
 353:..\..\..\lvgl\version_6.1.2\lvgl\src\lv_draw/lv_draw_img.c ****         LV_LOG_WARN("lv_img_buf_set_px_alpha: invalid 'id'");
 1392              		.loc 1 353 0 is_stmt 1 discriminator 1
 1393 0016 0E2B     		cmp	r3, #14
 1394 0018 05D1     		bne	.L116
 1395              	.L113:
 362:..\..\..\lvgl\version_6.1.2\lvgl\src\lv_draw/lv_draw_img.c **** 
 1396              		.loc 1 362 0
 1397 001a 03B0     		add	sp, sp, #12
 1398              		.cfi_remember_state
 1399              		.cfi_def_cfa_offset 4
 1400              		@ sp needed
 1401 001c 5DF8044B 		ldr	r4, [sp], #4
 1402              		.cfi_restore 4
 1403              		.cfi_def_cfa_offset 0
 1404 0020 7047     		bx	lr
 1405              	.L126:
 1406              		.cfi_restore_state
 352:..\..\..\lvgl\version_6.1.2\lvgl\src\lv_draw/lv_draw_img.c ****        (dsc->header.cf == LV_IMG_CF_ALPHA_4BIT && id > 15) || (dsc->header.cf == LV_IMG_CF_ALPHA_8B
 1407              		.loc 1 352 0 discriminator 4
 1408 0022 0329     		cmp	r1, #3
 1409 0024 F9D8     		bhi	.L113
 1410              	.L116:
 1411              	.LVL172:
 359:..\..\..\lvgl\version_6.1.2\lvgl\src\lv_draw/lv_draw_img.c ****     uint8_t * buf = (uint8_t *)dsc->data;
 1412              		.loc 1 359 0
 1413 0026 02AB     		add	r3, sp, #8
ARM GAS  C:\Users\pearlstl\AppData\Local\Temp\ccJvDP4q.s 			page 41


 361:..\..\..\lvgl\version_6.1.2\lvgl\src\lv_draw/lv_draw_img.c **** }
 1414              		.loc 1 361 0
 1415 0028 8468     		ldr	r4, [r0, #8]
 359:..\..\..\lvgl\version_6.1.2\lvgl\src\lv_draw/lv_draw_img.c ****     uint8_t * buf = (uint8_t *)dsc->data;
 1416              		.loc 1 359 0
 1417 002a 43F8042D 		str	r2, [r3, #-4]!
 1418              	.LVL173:
 361:..\..\..\lvgl\version_6.1.2\lvgl\src\lv_draw/lv_draw_img.c **** }
 1419              		.loc 1 361 0
 1420 002e 1868     		ldr	r0, [r3]	@ unaligned
 1421              	.LVL174:
 1422 0030 44F82100 		str	r0, [r4, r1, lsl #2]	@ unaligned
 1423              	.LVL175:
 362:..\..\..\lvgl\version_6.1.2\lvgl\src\lv_draw/lv_draw_img.c **** 
 1424              		.loc 1 362 0
 1425 0034 03B0     		add	sp, sp, #12
 1426              		.cfi_remember_state
 1427              		.cfi_def_cfa_offset 4
 1428              		@ sp needed
 1429 0036 5DF8044B 		ldr	r4, [sp], #4
 1430              		.cfi_restore 4
 1431              		.cfi_def_cfa_offset 0
 1432 003a 7047     		bx	lr
 1433              	.LVL176:
 1434              	.L125:
 1435              		.cfi_restore_state
 352:..\..\..\lvgl\version_6.1.2\lvgl\src\lv_draw/lv_draw_img.c ****        (dsc->header.cf == LV_IMG_CF_ALPHA_4BIT && id > 15) || (dsc->header.cf == LV_IMG_CF_ALPHA_8B
 1436              		.loc 1 352 0 discriminator 1
 1437 003c 0129     		cmp	r1, #1
 1438 003e F2D9     		bls	.L116
 362:..\..\..\lvgl\version_6.1.2\lvgl\src\lv_draw/lv_draw_img.c **** 
 1439              		.loc 1 362 0
 1440 0040 03B0     		add	sp, sp, #12
 1441              		.cfi_remember_state
 1442              		.cfi_def_cfa_offset 4
 1443              		@ sp needed
 1444 0042 5DF8044B 		ldr	r4, [sp], #4
 1445              		.cfi_restore 4
 1446              		.cfi_def_cfa_offset 0
 1447 0046 7047     		bx	lr
 1448              	.L127:
 1449              		.cfi_restore_state
 353:..\..\..\lvgl\version_6.1.2\lvgl\src\lv_draw/lv_draw_img.c ****         LV_LOG_WARN("lv_img_buf_set_px_alpha: invalid 'id'");
 1450              		.loc 1 353 0
 1451 0048 0F29     		cmp	r1, #15
 1452 004a E6D8     		bhi	.L113
 1453 004c EBE7     		b	.L116
 1454              		.cfi_endproc
 1455              	.LFE36:
 1456              		.size	lv_img_buf_set_palette, .-lv_img_buf_set_palette
 1457 004e 00BF     		.section	.text.lv_img_color_format_get_px_size,"ax",%progbits
 1458              		.align	2
 1459              		.global	lv_img_color_format_get_px_size
 1460              		.thumb
 1461              		.thumb_func
 1462              		.type	lv_img_color_format_get_px_size, %function
 1463              	lv_img_color_format_get_px_size:
ARM GAS  C:\Users\pearlstl\AppData\Local\Temp\ccJvDP4q.s 			page 42


 1464              	.LFB37:
 370:..\..\..\lvgl\version_6.1.2\lvgl\src\lv_draw/lv_draw_img.c ****     uint8_t px_size = 0;
 1465              		.loc 1 370 0
 1466              		.cfi_startproc
 1467              		@ args = 0, pretend = 0, frame = 0
 1468              		@ frame_needed = 0, uses_anonymous_args = 0
 1469              		@ link register save eliminated.
 1470              	.LVL177:
 1471 0000 0438     		subs	r0, r0, #4
 1472              	.LVL178:
 1473 0002 C0B2     		uxtb	r0, r0
 1474 0004 0A28     		cmp	r0, #10
 1475 0006 9ABF     		itte	ls
 1476 0008 014B     		ldrls	r3, .L131
 1477 000a 185C     		ldrbls	r0, [r3, r0]	@ zero_extendqisi2
 370:..\..\..\lvgl\version_6.1.2\lvgl\src\lv_draw/lv_draw_img.c ****     uint8_t px_size = 0;
 1478              		.loc 1 370 0
 1479 000c 0020     		movhi	r0, #0
 1480              	.LVL179:
 391:..\..\..\lvgl\version_6.1.2\lvgl\src\lv_draw/lv_draw_img.c **** 
 1481              		.loc 1 391 0
 1482 000e 7047     		bx	lr
 1483              	.L132:
 1484              		.align	2
 1485              	.L131:
 1486 0010 00000000 		.word	.LANCHOR0
 1487              		.cfi_endproc
 1488              	.LFE37:
 1489              		.size	lv_img_color_format_get_px_size, .-lv_img_color_format_get_px_size
 1490              		.section	.text.lv_img_color_format_is_chroma_keyed,"ax",%progbits
 1491              		.align	2
 1492              		.global	lv_img_color_format_is_chroma_keyed
 1493              		.thumb
 1494              		.thumb_func
 1495              		.type	lv_img_color_format_is_chroma_keyed, %function
 1496              	lv_img_color_format_is_chroma_keyed:
 1497              	.LFB38:
 399:..\..\..\lvgl\version_6.1.2\lvgl\src\lv_draw/lv_draw_img.c ****     bool is_chroma_keyed = false;
 1498              		.loc 1 399 0
 1499              		.cfi_startproc
 1500              		@ args = 0, pretend = 0, frame = 0
 1501              		@ frame_needed = 0, uses_anonymous_args = 0
 1502              		@ link register save eliminated.
 1503              	.LVL180:
 1504 0000 0A28     		cmp	r0, #10
 1505 0002 08D8     		bhi	.L135
 1506 0004 0123     		movs	r3, #1
 1507 0006 03FA00F0 		lsl	r0, r3, r0
 1508              	.LVL181:
 1509 000a 10F4F96F 		tst	r0, #1992
 1510 000e 14BF     		ite	ne
 1511 0010 1846     		movne	r0, r3
 1512 0012 0020     		moveq	r0, #0
 1513 0014 7047     		bx	lr
 1514              	.LVL182:
 1515              	.L135:
 413:..\..\..\lvgl\version_6.1.2\lvgl\src\lv_draw/lv_draw_img.c ****     }
ARM GAS  C:\Users\pearlstl\AppData\Local\Temp\ccJvDP4q.s 			page 43


 1516              		.loc 1 413 0
 1517 0016 0020     		movs	r0, #0
 1518              	.LVL183:
 417:..\..\..\lvgl\version_6.1.2\lvgl\src\lv_draw/lv_draw_img.c **** 
 1519              		.loc 1 417 0
 1520 0018 7047     		bx	lr
 1521              		.cfi_endproc
 1522              	.LFE38:
 1523              		.size	lv_img_color_format_is_chroma_keyed, .-lv_img_color_format_is_chroma_keyed
 1524 001a 00BF     		.section	.text.lv_img_color_format_has_alpha,"ax",%progbits
 1525              		.align	2
 1526              		.global	lv_img_color_format_has_alpha
 1527              		.thumb
 1528              		.thumb_func
 1529              		.type	lv_img_color_format_has_alpha, %function
 1530              	lv_img_color_format_has_alpha:
 1531              	.LFB39:
 425:..\..\..\lvgl\version_6.1.2\lvgl\src\lv_draw/lv_draw_img.c ****     bool has_alpha = false;
 1532              		.loc 1 425 0
 1533              		.cfi_startproc
 1534              		@ args = 0, pretend = 0, frame = 0
 1535              		@ frame_needed = 0, uses_anonymous_args = 0
 1536              		@ link register save eliminated.
 1537              	.LVL184:
 1538 0000 0E28     		cmp	r0, #14
 1539 0002 08D8     		bhi	.L138
 1540 0004 0123     		movs	r3, #1
 1541 0006 8340     		lsls	r3, r3, r0
 1542 0008 47F6A470 		movw	r0, #32676
 1543              	.LVL185:
 1544 000c 1840     		ands	r0, r0, r3
 1545 000e 0030     		adds	r0, r0, #0
 1546 0010 18BF     		it	ne
 1547 0012 0120     		movne	r0, #1
 1548 0014 7047     		bx	lr
 1549              	.LVL186:
 1550              	.L138:
 439:..\..\..\lvgl\version_6.1.2\lvgl\src\lv_draw/lv_draw_img.c ****     }
 1551              		.loc 1 439 0
 1552 0016 0020     		movs	r0, #0
 1553              	.LVL187:
 443:..\..\..\lvgl\version_6.1.2\lvgl\src\lv_draw/lv_draw_img.c **** 
 1554              		.loc 1 443 0
 1555 0018 7047     		bx	lr
 1556              		.cfi_endproc
 1557              	.LFE39:
 1558              		.size	lv_img_color_format_has_alpha, .-lv_img_color_format_has_alpha
 1559 001a 00BF     		.section	.text.lv_img_src_get_type,"ax",%progbits
 1560              		.align	2
 1561              		.global	lv_img_src_get_type
 1562              		.thumb
 1563              		.thumb_func
 1564              		.type	lv_img_src_get_type, %function
 1565              	lv_img_src_get_type:
 1566              	.LFB40:
 454:..\..\..\lvgl\version_6.1.2\lvgl\src\lv_draw/lv_draw_img.c ****     lv_img_src_t img_src_type = LV_IMG_SRC_UNKNOWN;
 1567              		.loc 1 454 0
ARM GAS  C:\Users\pearlstl\AppData\Local\Temp\ccJvDP4q.s 			page 44


 1568              		.cfi_startproc
 1569              		@ args = 0, pretend = 0, frame = 0
 1570              		@ frame_needed = 0, uses_anonymous_args = 0
 1571              		@ link register save eliminated.
 1572              	.LVL188:
 457:..\..\..\lvgl\version_6.1.2\lvgl\src\lv_draw/lv_draw_img.c ****     const uint8_t * u8_p = src;
 1573              		.loc 1 457 0
 1574 0000 60B1     		cbz	r0, .L141
 1575              	.LVL189:
 461:..\..\..\lvgl\version_6.1.2\lvgl\src\lv_draw/lv_draw_img.c ****         img_src_type = LV_IMG_SRC_FILE; /*If it's an ASCII character then it's file name*/
 1576              		.loc 1 461 0
 1577 0002 0378     		ldrb	r3, [r0]	@ zero_extendqisi2
 1578 0004 A3F12002 		sub	r2, r3, #32
 1579 0008 5F2A     		cmp	r2, #95
 1580 000a 05D9     		bls	.L142
 463:..\..\..\lvgl\version_6.1.2\lvgl\src\lv_draw/lv_draw_img.c ****         img_src_type = LV_IMG_SRC_SYMBOL; /*Symbols begins after 0x7F*/
 1581              		.loc 1 463 0
 1582 000c 13F0800F 		tst	r3, #128
 466:..\..\..\lvgl\version_6.1.2\lvgl\src\lv_draw/lv_draw_img.c ****     }
 1583              		.loc 1 466 0
 1584 0010 14BF     		ite	ne
 1585 0012 0220     		movne	r0, #2
 1586              	.LVL190:
 1587 0014 0020     		moveq	r0, #0
 1588 0016 7047     		bx	lr
 1589              	.LVL191:
 1590              	.L142:
 462:..\..\..\lvgl\version_6.1.2\lvgl\src\lv_draw/lv_draw_img.c ****     } else if(u8_p[0] >= 0x80) {
 1591              		.loc 1 462 0
 1592 0018 0120     		movs	r0, #1
 1593              	.LVL192:
 474:..\..\..\lvgl\version_6.1.2\lvgl\src\lv_draw/lv_draw_img.c **** 
 1594              		.loc 1 474 0
 1595 001a 7047     		bx	lr
 1596              	.LVL193:
 1597              	.L141:
 457:..\..\..\lvgl\version_6.1.2\lvgl\src\lv_draw/lv_draw_img.c ****     const uint8_t * u8_p = src;
 1598              		.loc 1 457 0
 1599 001c 0320     		movs	r0, #3
 1600              	.LVL194:
 1601 001e 7047     		bx	lr
 1602              		.cfi_endproc
 1603              	.LFE40:
 1604              		.size	lv_img_src_get_type, .-lv_img_src_get_type
 1605              		.section	.text.lv_img_buf_alloc,"ax",%progbits
 1606              		.align	2
 1607              		.global	lv_img_buf_alloc
 1608              		.thumb
 1609              		.thumb_func
 1610              		.type	lv_img_buf_alloc, %function
 1611              	lv_img_buf_alloc:
 1612              	.LFB41:
 477:..\..\..\lvgl\version_6.1.2\lvgl\src\lv_draw/lv_draw_img.c ****     /* Allocate image descriptor */
 1613              		.loc 1 477 0
 1614              		.cfi_startproc
 1615              		@ args = 0, pretend = 0, frame = 8
 1616              		@ frame_needed = 0, uses_anonymous_args = 0
ARM GAS  C:\Users\pearlstl\AppData\Local\Temp\ccJvDP4q.s 			page 45


 1617              	.LVL195:
 1618 0000 F0B5     		push	{r4, r5, r6, r7, lr}
 1619              		.cfi_def_cfa_offset 20
 1620              		.cfi_offset 4, -20
 1621              		.cfi_offset 5, -16
 1622              		.cfi_offset 6, -12
 1623              		.cfi_offset 7, -8
 1624              		.cfi_offset 14, -4
 1625 0002 0546     		mov	r5, r0
 1626 0004 83B0     		sub	sp, sp, #12
 1627              		.cfi_def_cfa_offset 32
 479:..\..\..\lvgl\version_6.1.2\lvgl\src\lv_draw/lv_draw_img.c ****     if(dsc == NULL)
 1628              		.loc 1 479 0
 1629 0006 0C20     		movs	r0, #12
 1630              	.LVL196:
 477:..\..\..\lvgl\version_6.1.2\lvgl\src\lv_draw/lv_draw_img.c ****     /* Allocate image descriptor */
 1631              		.loc 1 477 0
 1632 0008 0E46     		mov	r6, r1
 1633 000a 1746     		mov	r7, r2
 479:..\..\..\lvgl\version_6.1.2\lvgl\src\lv_draw/lv_draw_img.c ****     if(dsc == NULL)
 1634              		.loc 1 479 0
 1635 000c FFF7FEFF 		bl	lv_mem_alloc
 1636              	.LVL197:
 480:..\..\..\lvgl\version_6.1.2\lvgl\src\lv_draw/lv_draw_img.c ****         return NULL;
 1637              		.loc 1 480 0
 1638 0010 0446     		mov	r4, r0
 1639 0012 0028     		cmp	r0, #0
 1640 0014 6CD0     		beq	.L170
 483:..\..\..\lvgl\version_6.1.2\lvgl\src\lv_draw/lv_draw_img.c ****     
 1641              		.loc 1 483 0
 1642 0016 0022     		movs	r2, #0
 1643              	.LBB98:
 1644              	.LBB99:
 520:..\..\..\lvgl\version_6.1.2\lvgl\src\lv_draw/lv_draw_img.c ****         case LV_IMG_CF_TRUE_COLOR: return LV_IMG_BUF_SIZE_TRUE_COLOR(w, h);
 1645              		.loc 1 520 0
 1646 0018 3B1F     		subs	r3, r7, #4
 1647              	.LBE99:
 1648              	.LBE98:
 483:..\..\..\lvgl\version_6.1.2\lvgl\src\lv_draw/lv_draw_img.c ****     
 1649              		.loc 1 483 0
 1650 001a 0260     		str	r2, [r0]	@ unaligned
 1651 001c 4260     		str	r2, [r0, #4]	@ unaligned
 1652 001e 8260     		str	r2, [r0, #8]	@ unaligned
 1653              	.LVL198:
 1654              	.LBB102:
 1655              	.LBB100:
 520:..\..\..\lvgl\version_6.1.2\lvgl\src\lv_draw/lv_draw_img.c ****         case LV_IMG_CF_TRUE_COLOR: return LV_IMG_BUF_SIZE_TRUE_COLOR(w, h);
 1656              		.loc 1 520 0
 1657 0020 0A2B     		cmp	r3, #10
 1658 0022 60D8     		bhi	.L146
 1659 0024 DFE803F0 		tbb	[pc, r3]
 1660              	.L148:
 1661 0028 06       		.byte	(.L150-.L148)/2
 1662 0029 06       		.byte	(.L150-.L148)/2
 1663 002a 06       		.byte	(.L150-.L148)/2
 1664 002b 2E       		.byte	(.L151-.L148)/2
 1665 002c 37       		.byte	(.L152-.L148)/2
ARM GAS  C:\Users\pearlstl\AppData\Local\Temp\ccJvDP4q.s 			page 46


 1666 002d 40       		.byte	(.L153-.L148)/2
 1667 002e 47       		.byte	(.L154-.L148)/2
 1668 002f 4C       		.byte	(.L155-.L148)/2
 1669 0030 54       		.byte	(.L156-.L148)/2
 1670 0031 28       		.byte	(.L157-.L148)/2
 1671 0032 5C       		.byte	(.L158-.L148)/2
 1672 0033 00       		.p2align 1
 1673              	.L150:
 523:..\..\..\lvgl\version_6.1.2\lvgl\src\lv_draw/lv_draw_img.c ****         case LV_IMG_CF_ALPHA_1BIT: return LV_IMG_BUF_SIZE_ALPHA_1BIT(w, h);
 1674              		.loc 1 523 0
 1675 0034 A800     		lsls	r0, r5, #2
 1676              	.LVL199:
 1677 0036 06FB00F0 		mul	r0, r6, r0
 1678              	.L159:
 1679              	.LVL200:
 1680              	.LBE100:
 1681              	.LBE102:
 486:..\..\..\lvgl\version_6.1.2\lvgl\src\lv_draw/lv_draw_img.c ****     if(dsc->data_size == 0) {
 1682              		.loc 1 486 0
 1683 003a 6060     		str	r0, [r4, #4]
 487:..\..\..\lvgl\version_6.1.2\lvgl\src\lv_draw/lv_draw_img.c ****         lv_mem_free(dsc);
 1684              		.loc 1 487 0
 1685 003c 0028     		cmp	r0, #0
 1686 003e 54D0     		beq	.L166
 493:..\..\..\lvgl\version_6.1.2\lvgl\src\lv_draw/lv_draw_img.c ****     if(dsc->data == NULL) {
 1687              		.loc 1 493 0
 1688 0040 FFF7FEFF 		bl	lv_mem_alloc
 1689              	.LVL201:
 1690 0044 A060     		str	r0, [r4, #8]
 494:..\..\..\lvgl\version_6.1.2\lvgl\src\lv_draw/lv_draw_img.c ****         lv_mem_free(dsc);
 1691              		.loc 1 494 0
 1692 0046 0028     		cmp	r0, #0
 1693 0048 55D0     		beq	.L171
 498:..\..\..\lvgl\version_6.1.2\lvgl\src\lv_draw/lv_draw_img.c ****     
 1694              		.loc 1 498 0
 1695 004a 6268     		ldr	r2, [r4, #4]
 1696 004c 0021     		movs	r1, #0
 1697 004e FFF7FEFF 		bl	memset
 1698              	.LVL202:
 501:..\..\..\lvgl\version_6.1.2\lvgl\src\lv_draw/lv_draw_img.c ****     dsc->header.w = w;
 1699              		.loc 1 501 0
 1700 0052 2378     		ldrb	r3, [r4]	@ zero_extendqisi2
 1701 0054 6FF34713 		bfc	r3, #5, #3
 1702 0058 2370     		strb	r3, [r4]
 502:..\..\..\lvgl\version_6.1.2\lvgl\src\lv_draw/lv_draw_img.c ****     dsc->header.h = h;
 1703              		.loc 1 502 0
 1704 005a 2368     		ldr	r3, [r4]
 1705 005c 65F39423 		bfi	r3, r5, #10, #11
 503:..\..\..\lvgl\version_6.1.2\lvgl\src\lv_draw/lv_draw_img.c ****     dsc->header.cf = cf;
 1706              		.loc 1 503 0
 1707 0060 190C     		lsrs	r1, r3, #16
 504:..\..\..\lvgl\version_6.1.2\lvgl\src\lv_draw/lv_draw_img.c ****     return dsc;
 1708              		.loc 1 504 0
 1709 0062 1A46     		mov	r2, r3
 503:..\..\..\lvgl\version_6.1.2\lvgl\src\lv_draw/lv_draw_img.c ****     dsc->header.cf = cf;
 1710              		.loc 1 503 0
 1711 0064 66F34F11 		bfi	r1, r6, #5, #11
ARM GAS  C:\Users\pearlstl\AppData\Local\Temp\ccJvDP4q.s 			page 47


 504:..\..\..\lvgl\version_6.1.2\lvgl\src\lv_draw/lv_draw_img.c ****     return dsc;
 1712              		.loc 1 504 0
 1713 0068 67F30402 		bfi	r2, r7, #0, #5
 502:..\..\..\lvgl\version_6.1.2\lvgl\src\lv_draw/lv_draw_img.c ****     dsc->header.h = h;
 1714              		.loc 1 502 0
 1715 006c 2360     		str	r3, [r4]
 505:..\..\..\lvgl\version_6.1.2\lvgl\src\lv_draw/lv_draw_img.c **** }
 1716              		.loc 1 505 0
 1717 006e 2046     		mov	r0, r4
 503:..\..\..\lvgl\version_6.1.2\lvgl\src\lv_draw/lv_draw_img.c ****     dsc->header.cf = cf;
 1718              		.loc 1 503 0
 1719 0070 6180     		strh	r1, [r4, #2]	@ movhi
 504:..\..\..\lvgl\version_6.1.2\lvgl\src\lv_draw/lv_draw_img.c ****     return dsc;
 1720              		.loc 1 504 0
 1721 0072 2270     		strb	r2, [r4]
 1722              	.L168:
 506:..\..\..\lvgl\version_6.1.2\lvgl\src\lv_draw/lv_draw_img.c **** 
 1723              		.loc 1 506 0
 1724 0074 03B0     		add	sp, sp, #12
 1725              		.cfi_remember_state
 1726              		.cfi_def_cfa_offset 20
 1727              		@ sp needed
 1728 0076 F0BD     		pop	{r4, r5, r6, r7, pc}
 1729              	.LVL203:
 1730              	.L157:
 1731              		.cfi_restore_state
 1732              	.LBB103:
 1733              	.LBB101:
 526:..\..\..\lvgl\version_6.1.2\lvgl\src\lv_draw/lv_draw_img.c ****         case LV_IMG_CF_ALPHA_8BIT: return LV_IMG_BUF_SIZE_ALPHA_8BIT(w, h);
 1734              		.loc 1 526 0
 1735 0078 05EBD570 		add	r0, r5, r5, lsr #31
 1736              	.LVL204:
 1737 007c 4010     		asrs	r0, r0, #1
 1738 007e 00FB0660 		mla	r0, r0, r6, r6
 1739 0082 DAE7     		b	.L159
 1740              	.LVL205:
 1741              	.L151:
 528:..\..\..\lvgl\version_6.1.2\lvgl\src\lv_draw/lv_draw_img.c ****         case LV_IMG_CF_INDEXED_2BIT: return LV_IMG_BUF_SIZE_INDEXED_2BIT(w, h);
 1742              		.loc 1 528 0
 1743 0084 002D     		cmp	r5, #0
 1744 0086 2846     		mov	r0, r5
 1745              	.LVL206:
 1746 0088 B8BF     		it	lt
 1747 008a E81D     		addlt	r0, r5, #7
 1748 008c C010     		asrs	r0, r0, #3
 1749 008e 00FB0660 		mla	r0, r0, r6, r6
 1750 0092 0830     		adds	r0, r0, #8
 1751 0094 D1E7     		b	.L159
 1752              	.LVL207:
 1753              	.L152:
 529:..\..\..\lvgl\version_6.1.2\lvgl\src\lv_draw/lv_draw_img.c ****         case LV_IMG_CF_INDEXED_4BIT: return LV_IMG_BUF_SIZE_INDEXED_4BIT(w, h);
 1754              		.loc 1 529 0
 1755 0096 002D     		cmp	r5, #0
 1756 0098 2846     		mov	r0, r5
 1757              	.LVL208:
 1758 009a B8BF     		it	lt
 1759 009c E81C     		addlt	r0, r5, #3
ARM GAS  C:\Users\pearlstl\AppData\Local\Temp\ccJvDP4q.s 			page 48


 1760 009e 8010     		asrs	r0, r0, #2
 1761 00a0 00FB0660 		mla	r0, r0, r6, r6
 1762 00a4 1030     		adds	r0, r0, #16
 1763 00a6 C8E7     		b	.L159
 1764              	.LVL209:
 1765              	.L153:
 530:..\..\..\lvgl\version_6.1.2\lvgl\src\lv_draw/lv_draw_img.c ****         case LV_IMG_CF_INDEXED_8BIT: return LV_IMG_BUF_SIZE_INDEXED_8BIT(w, h);
 1766              		.loc 1 530 0
 1767 00a8 05EBD570 		add	r0, r5, r5, lsr #31
 1768              	.LVL210:
 1769 00ac 4010     		asrs	r0, r0, #1
 1770 00ae 00FB0660 		mla	r0, r0, r6, r6
 1771 00b2 4030     		adds	r0, r0, #64
 1772 00b4 C1E7     		b	.L159
 1773              	.LVL211:
 1774              	.L154:
 531:..\..\..\lvgl\version_6.1.2\lvgl\src\lv_draw/lv_draw_img.c ****         default: return 0;
 1775              		.loc 1 531 0
 1776 00b6 4FF48060 		mov	r0, #1024
 1777              	.LVL212:
 1778 00ba 05FB0600 		mla	r0, r5, r6, r0
 1779 00be BCE7     		b	.L159
 1780              	.LVL213:
 1781              	.L155:
 524:..\..\..\lvgl\version_6.1.2\lvgl\src\lv_draw/lv_draw_img.c ****         case LV_IMG_CF_ALPHA_2BIT: return LV_IMG_BUF_SIZE_ALPHA_2BIT(w, h);
 1782              		.loc 1 524 0
 1783 00c0 002D     		cmp	r5, #0
 1784 00c2 2846     		mov	r0, r5
 1785              	.LVL214:
 1786 00c4 B8BF     		it	lt
 1787 00c6 E81D     		addlt	r0, r5, #7
 1788 00c8 C010     		asrs	r0, r0, #3
 1789 00ca 00FB0660 		mla	r0, r0, r6, r6
 1790 00ce B4E7     		b	.L159
 1791              	.LVL215:
 1792              	.L156:
 525:..\..\..\lvgl\version_6.1.2\lvgl\src\lv_draw/lv_draw_img.c ****         case LV_IMG_CF_ALPHA_4BIT: return LV_IMG_BUF_SIZE_ALPHA_4BIT(w, h);
 1793              		.loc 1 525 0
 1794 00d0 002D     		cmp	r5, #0
 1795 00d2 2846     		mov	r0, r5
 1796              	.LVL216:
 1797 00d4 B8BF     		it	lt
 1798 00d6 E81C     		addlt	r0, r5, #3
 1799 00d8 8010     		asrs	r0, r0, #2
 1800 00da 00FB0660 		mla	r0, r0, r6, r6
 1801 00de ACE7     		b	.L159
 1802              	.LVL217:
 1803              	.L158:
 527:..\..\..\lvgl\version_6.1.2\lvgl\src\lv_draw/lv_draw_img.c ****         case LV_IMG_CF_INDEXED_1BIT: return LV_IMG_BUF_SIZE_INDEXED_1BIT(w, h);
 1804              		.loc 1 527 0
 1805 00e0 05FB06F0 		mul	r0, r5, r6
 1806              	.LVL218:
 1807 00e4 A9E7     		b	.L159
 1808              	.LVL219:
 1809              	.L146:
 1810              	.LBE101:
 1811              	.LBE103:
ARM GAS  C:\Users\pearlstl\AppData\Local\Temp\ccJvDP4q.s 			page 49


 486:..\..\..\lvgl\version_6.1.2\lvgl\src\lv_draw/lv_draw_img.c ****     if(dsc->data_size == 0) {
 1812              		.loc 1 486 0
 1813 00e6 0023     		movs	r3, #0
 1814 00e8 4360     		str	r3, [r0, #4]
 1815              	.LVL220:
 1816              	.L166:
 488:..\..\..\lvgl\version_6.1.2\lvgl\src\lv_draw/lv_draw_img.c ****         return NULL;
 1817              		.loc 1 488 0
 1818 00ea 2046     		mov	r0, r4
 1819 00ec FFF7FEFF 		bl	lv_mem_free
 1820              	.LVL221:
 1821              	.L170:
 489:..\..\..\lvgl\version_6.1.2\lvgl\src\lv_draw/lv_draw_img.c ****     }
 1822              		.loc 1 489 0
 1823 00f0 0020     		movs	r0, #0
 506:..\..\..\lvgl\version_6.1.2\lvgl\src\lv_draw/lv_draw_img.c **** 
 1824              		.loc 1 506 0
 1825 00f2 03B0     		add	sp, sp, #12
 1826              		.cfi_remember_state
 1827              		.cfi_def_cfa_offset 20
 1828              		@ sp needed
 1829 00f4 F0BD     		pop	{r4, r5, r6, r7, pc}
 1830              	.LVL222:
 1831              	.L171:
 1832              		.cfi_restore_state
 1833 00f6 0190     		str	r0, [sp, #4]
 495:..\..\..\lvgl\version_6.1.2\lvgl\src\lv_draw/lv_draw_img.c ****         return NULL;
 1834              		.loc 1 495 0
 1835 00f8 2046     		mov	r0, r4
 1836 00fa FFF7FEFF 		bl	lv_mem_free
 1837              	.LVL223:
 496:..\..\..\lvgl\version_6.1.2\lvgl\src\lv_draw/lv_draw_img.c ****     }
 1838              		.loc 1 496 0
 1839 00fe 019B     		ldr	r3, [sp, #4]
 1840 0100 1846     		mov	r0, r3
 1841 0102 B7E7     		b	.L168
 1842              		.cfi_endproc
 1843              	.LFE41:
 1844              		.size	lv_img_buf_alloc, .-lv_img_buf_alloc
 1845              		.section	.text.lv_img_buf_free,"ax",%progbits
 1846              		.align	2
 1847              		.global	lv_img_buf_free
 1848              		.thumb
 1849              		.thumb_func
 1850              		.type	lv_img_buf_free, %function
 1851              	lv_img_buf_free:
 1852              	.LFB42:
 509:..\..\..\lvgl\version_6.1.2\lvgl\src\lv_draw/lv_draw_img.c ****     if(dsc != NULL) {
 1853              		.loc 1 509 0
 1854              		.cfi_startproc
 1855              		@ args = 0, pretend = 0, frame = 0
 1856              		@ frame_needed = 0, uses_anonymous_args = 0
 1857              	.LVL224:
 510:..\..\..\lvgl\version_6.1.2\lvgl\src\lv_draw/lv_draw_img.c ****         if(dsc->data != NULL)
 1858              		.loc 1 510 0
 1859 0000 50B1     		cbz	r0, .L179
 509:..\..\..\lvgl\version_6.1.2\lvgl\src\lv_draw/lv_draw_img.c ****     if(dsc != NULL) {
ARM GAS  C:\Users\pearlstl\AppData\Local\Temp\ccJvDP4q.s 			page 50


 1860              		.loc 1 509 0
 1861 0002 10B5     		push	{r4, lr}
 1862              		.cfi_def_cfa_offset 8
 1863              		.cfi_offset 4, -8
 1864              		.cfi_offset 14, -4
 1865 0004 0446     		mov	r4, r0
 511:..\..\..\lvgl\version_6.1.2\lvgl\src\lv_draw/lv_draw_img.c ****             lv_mem_free(dsc->data);
 1866              		.loc 1 511 0
 1867 0006 8068     		ldr	r0, [r0, #8]
 1868              	.LVL225:
 1869 0008 08B1     		cbz	r0, .L174
 512:..\..\..\lvgl\version_6.1.2\lvgl\src\lv_draw/lv_draw_img.c ****         
 1870              		.loc 1 512 0
 1871 000a FFF7FEFF 		bl	lv_mem_free
 1872              	.LVL226:
 1873              	.L174:
 514:..\..\..\lvgl\version_6.1.2\lvgl\src\lv_draw/lv_draw_img.c ****     }
 1874              		.loc 1 514 0
 1875 000e 2046     		mov	r0, r4
 516:..\..\..\lvgl\version_6.1.2\lvgl\src\lv_draw/lv_draw_img.c **** 
 1876              		.loc 1 516 0
 1877 0010 BDE81040 		pop	{r4, lr}
 1878              		.cfi_restore 14
 1879              		.cfi_restore 4
 1880              		.cfi_def_cfa_offset 0
 1881              	.LVL227:
 514:..\..\..\lvgl\version_6.1.2\lvgl\src\lv_draw/lv_draw_img.c ****     }
 1882              		.loc 1 514 0
 1883 0014 FFF7FEBF 		b	lv_mem_free
 1884              	.LVL228:
 1885              	.L179:
 1886 0018 7047     		bx	lr
 1887              		.cfi_endproc
 1888              	.LFE42:
 1889              		.size	lv_img_buf_free, .-lv_img_buf_free
 1890 001a 00BF     		.section	.text.lv_img_buf_get_img_size,"ax",%progbits
 1891              		.align	2
 1892              		.global	lv_img_buf_get_img_size
 1893              		.thumb
 1894              		.thumb_func
 1895              		.type	lv_img_buf_get_img_size, %function
 1896              	lv_img_buf_get_img_size:
 1897              	.LFB43:
 519:..\..\..\lvgl\version_6.1.2\lvgl\src\lv_draw/lv_draw_img.c ****     switch(cf) {
 1898              		.loc 1 519 0
 1899              		.cfi_startproc
 1900              		@ args = 0, pretend = 0, frame = 0
 1901              		@ frame_needed = 0, uses_anonymous_args = 0
 1902              		@ link register save eliminated.
 1903              	.LVL229:
 520:..\..\..\lvgl\version_6.1.2\lvgl\src\lv_draw/lv_draw_img.c ****         case LV_IMG_CF_TRUE_COLOR: return LV_IMG_BUF_SIZE_TRUE_COLOR(w, h);
 1904              		.loc 1 520 0
 1905 0000 043A     		subs	r2, r2, #4
 1906              	.LVL230:
 519:..\..\..\lvgl\version_6.1.2\lvgl\src\lv_draw/lv_draw_img.c ****     switch(cf) {
 1907              		.loc 1 519 0
 1908 0002 F0B4     		push	{r4, r5, r6, r7}
ARM GAS  C:\Users\pearlstl\AppData\Local\Temp\ccJvDP4q.s 			page 51


 1909              		.cfi_def_cfa_offset 16
 1910              		.cfi_offset 4, -16
 1911              		.cfi_offset 5, -12
 1912              		.cfi_offset 6, -8
 1913              		.cfi_offset 7, -4
 520:..\..\..\lvgl\version_6.1.2\lvgl\src\lv_draw/lv_draw_img.c ****         case LV_IMG_CF_TRUE_COLOR: return LV_IMG_BUF_SIZE_TRUE_COLOR(w, h);
 1914              		.loc 1 520 0
 1915 0004 0A2A     		cmp	r2, #10
 1916 0006 3FD8     		bhi	.L198
 1917 0008 DFE802F0 		tbb	[pc, r2]
 1918              	.L183:
 1919 000c 06       		.byte	(.L185-.L183)/2
 1920 000d 06       		.byte	(.L185-.L183)/2
 1921 000e 06       		.byte	(.L185-.L183)/2
 1922 000f 11       		.byte	(.L186-.L183)/2
 1923 0010 19       		.byte	(.L187-.L183)/2
 1924 0011 21       		.byte	(.L188-.L183)/2
 1925 0012 28       		.byte	(.L189-.L183)/2
 1926 0013 2D       		.byte	(.L190-.L183)/2
 1927 0014 34       		.byte	(.L191-.L183)/2
 1928 0015 0B       		.byte	(.L192-.L183)/2
 1929 0016 3B       		.byte	(.L193-.L183)/2
 1930 0017 00       		.p2align 1
 1931              	.L185:
 523:..\..\..\lvgl\version_6.1.2\lvgl\src\lv_draw/lv_draw_img.c ****         case LV_IMG_CF_ALPHA_1BIT: return LV_IMG_BUF_SIZE_ALPHA_1BIT(w, h);
 1932              		.loc 1 523 0
 1933 0018 8000     		lsls	r0, r0, #2
 1934              	.LVL231:
 1935 001a 01FB00F0 		mul	r0, r1, r0
 1936              	.L181:
 534:..\..\..\lvgl\version_6.1.2\lvgl\src\lv_draw/lv_draw_img.c **** 
 1937              		.loc 1 534 0
 1938 001e F0BC     		pop	{r4, r5, r6, r7}
 1939              		.cfi_remember_state
 1940              		.cfi_restore 7
 1941              		.cfi_restore 6
 1942              		.cfi_restore 5
 1943              		.cfi_restore 4
 1944              		.cfi_def_cfa_offset 0
 1945 0020 7047     		bx	lr
 1946              	.LVL232:
 1947              	.L192:
 1948              		.cfi_restore_state
 526:..\..\..\lvgl\version_6.1.2\lvgl\src\lv_draw/lv_draw_img.c ****         case LV_IMG_CF_ALPHA_8BIT: return LV_IMG_BUF_SIZE_ALPHA_8BIT(w, h);
 1949              		.loc 1 526 0
 1950 0022 00EBD077 		add	r7, r0, r0, lsr #31
 1951 0026 7E10     		asrs	r6, r7, #1
 1952 0028 06FB0110 		mla	r0, r6, r1, r1
 1953              	.LVL233:
 1954 002c F7E7     		b	.L181
 1955              	.LVL234:
 1956              	.L186:
 528:..\..\..\lvgl\version_6.1.2\lvgl\src\lv_draw/lv_draw_img.c ****         case LV_IMG_CF_INDEXED_2BIT: return LV_IMG_BUF_SIZE_INDEXED_2BIT(w, h);
 1957              		.loc 1 528 0
 1958 002e 021E     		subs	r2, r0, #0
 1959 0030 B8BF     		it	lt
 1960 0032 0732     		addlt	r2, r2, #7
ARM GAS  C:\Users\pearlstl\AppData\Local\Temp\ccJvDP4q.s 			page 52


 1961 0034 D210     		asrs	r2, r2, #3
 1962 0036 02FB0110 		mla	r0, r2, r1, r1
 1963              	.LVL235:
 1964 003a 0830     		adds	r0, r0, #8
 1965 003c EFE7     		b	.L181
 1966              	.LVL236:
 1967              	.L187:
 529:..\..\..\lvgl\version_6.1.2\lvgl\src\lv_draw/lv_draw_img.c ****         case LV_IMG_CF_INDEXED_4BIT: return LV_IMG_BUF_SIZE_INDEXED_4BIT(w, h);
 1968              		.loc 1 529 0
 1969 003e 031E     		subs	r3, r0, #0
 1970 0040 B8BF     		it	lt
 1971 0042 0333     		addlt	r3, r3, #3
 1972 0044 9B10     		asrs	r3, r3, #2
 1973 0046 03FB0110 		mla	r0, r3, r1, r1
 1974              	.LVL237:
 1975 004a 1030     		adds	r0, r0, #16
 1976 004c E7E7     		b	.L181
 1977              	.LVL238:
 1978              	.L188:
 530:..\..\..\lvgl\version_6.1.2\lvgl\src\lv_draw/lv_draw_img.c ****         case LV_IMG_CF_INDEXED_8BIT: return LV_IMG_BUF_SIZE_INDEXED_8BIT(w, h);
 1979              		.loc 1 530 0
 1980 004e 00EBD076 		add	r6, r0, r0, lsr #31
 1981 0052 7610     		asrs	r6, r6, #1
 1982 0054 06FB0110 		mla	r0, r6, r1, r1
 1983              	.LVL239:
 1984 0058 4030     		adds	r0, r0, #64
 1985 005a E0E7     		b	.L181
 1986              	.LVL240:
 1987              	.L189:
 531:..\..\..\lvgl\version_6.1.2\lvgl\src\lv_draw/lv_draw_img.c ****         default: return 0;
 1988              		.loc 1 531 0
 1989 005c 4FF48064 		mov	r4, #1024
 1990 0060 00FB0140 		mla	r0, r0, r1, r4
 1991              	.LVL241:
 1992 0064 DBE7     		b	.L181
 1993              	.LVL242:
 1994              	.L190:
 524:..\..\..\lvgl\version_6.1.2\lvgl\src\lv_draw/lv_draw_img.c ****         case LV_IMG_CF_ALPHA_2BIT: return LV_IMG_BUF_SIZE_ALPHA_2BIT(w, h);
 1995              		.loc 1 524 0
 1996 0066 051E     		subs	r5, r0, #0
 1997 0068 B8BF     		it	lt
 1998 006a 0735     		addlt	r5, r5, #7
 1999 006c EF10     		asrs	r7, r5, #3
 2000 006e 07FB0110 		mla	r0, r7, r1, r1
 2001              	.LVL243:
 2002 0072 D4E7     		b	.L181
 2003              	.LVL244:
 2004              	.L191:
 525:..\..\..\lvgl\version_6.1.2\lvgl\src\lv_draw/lv_draw_img.c ****         case LV_IMG_CF_ALPHA_4BIT: return LV_IMG_BUF_SIZE_ALPHA_4BIT(w, h);
 2005              		.loc 1 525 0
 2006 0074 041E     		subs	r4, r0, #0
 2007 0076 B8BF     		it	lt
 2008 0078 0334     		addlt	r4, r4, #3
 2009 007a A410     		asrs	r4, r4, #2
 2010 007c 04FB0110 		mla	r0, r4, r1, r1
 2011              	.LVL245:
 2012 0080 CDE7     		b	.L181
ARM GAS  C:\Users\pearlstl\AppData\Local\Temp\ccJvDP4q.s 			page 53


 2013              	.LVL246:
 2014              	.L193:
 527:..\..\..\lvgl\version_6.1.2\lvgl\src\lv_draw/lv_draw_img.c ****         case LV_IMG_CF_INDEXED_1BIT: return LV_IMG_BUF_SIZE_INDEXED_1BIT(w, h);
 2015              		.loc 1 527 0
 2016 0082 00FB01F0 		mul	r0, r0, r1
 2017              	.LVL247:
 2018 0086 CAE7     		b	.L181
 2019              	.LVL248:
 2020              	.L198:
 532:..\..\..\lvgl\version_6.1.2\lvgl\src\lv_draw/lv_draw_img.c ****     }
 2021              		.loc 1 532 0
 2022 0088 0020     		movs	r0, #0
 2023              	.LVL249:
 2024 008a C8E7     		b	.L181
 2025              		.cfi_endproc
 2026              	.LFE43:
 2027              		.size	lv_img_buf_get_img_size, .-lv_img_buf_get_img_size
 2028              		.section	.rodata
 2029              		.align	2
 2030              		.set	.LANCHOR0,. + 0
 2031              		.type	CSWTCH.17, %object
 2032              		.size	CSWTCH.17, 11
 2033              	CSWTCH.17:
 2034 0000 20       		.byte	32
 2035 0001 20       		.byte	32
 2036 0002 20       		.byte	32
 2037 0003 01       		.byte	1
 2038 0004 02       		.byte	2
 2039 0005 04       		.byte	4
 2040 0006 08       		.byte	8
 2041 0007 01       		.byte	1
 2042 0008 02       		.byte	2
 2043 0009 04       		.byte	4
 2044 000a 08       		.byte	8
 2045 000b 00       		.space	1
 2046              	.LC0:
 2047 000c 00       		.byte	0
 2048 000d 55       		.byte	85
 2049 000e AA       		.byte	-86
 2050 000f FF       		.byte	-1
 2051              	.LC1:
 2052 0010 00       		.byte	0
 2053 0011 11       		.byte	17
 2054 0012 22       		.byte	34
 2055 0013 33       		.byte	51
 2056 0014 44       		.byte	68
 2057 0015 55       		.byte	85
 2058 0016 66       		.byte	102
 2059 0017 77       		.byte	119
 2060 0018 88       		.byte	-120
 2061 0019 99       		.byte	-103
 2062 001a AA       		.byte	-86
 2063 001b BB       		.byte	-69
 2064 001c CC       		.byte	-52
 2065 001d DD       		.byte	-35
 2066 001e EE       		.byte	-18
 2067 001f FF       		.byte	-1
ARM GAS  C:\Users\pearlstl\AppData\Local\Temp\ccJvDP4q.s 			page 54


 2068              		.section	.rodata.str1.4,"aMS",%progbits,1
 2069              		.align	2
 2070              	.LC2:
 2071 0000 4E6F0A64 		.ascii	"No\012data\000"
 2071      61746100 
 2072              		.text
 2073              	.Letext0:
 2074              		.file 3 "c:\\program files (x86)\\cypress\\psoc creator\\4.2\\psoc creator\\import\\gnu\\arm\\5.4.
 2075              		.file 4 "c:\\program files (x86)\\cypress\\psoc creator\\4.2\\psoc creator\\import\\gnu\\arm\\5.4.
 2076              		.file 5 "..\\..\\..\\lvgl\\version_6.1.2\\lvgl\\src\\lv_draw\\../../../lv_conf.h"
 2077              		.file 6 "..\\..\\..\\lvgl\\version_6.1.2\\lvgl\\src\\lv_draw\\../lv_core/../lv_font/lv_font.h"
 2078              		.file 7 "..\\..\\..\\lvgl\\version_6.1.2\\lvgl\\src\\lv_draw\\../lv_core/../lv_misc/lv_color.h"
 2079              		.file 8 "..\\..\\..\\lvgl\\version_6.1.2\\lvgl\\src\\lv_draw\\../lv_core/lv_style.h"
 2080              		.file 9 "..\\..\\..\\lvgl\\version_6.1.2\\lvgl\\src\\lv_draw\\../lv_misc/lv_txt.h"
 2081              		.file 10 "..\\..\\..\\lvgl\\version_6.1.2\\lvgl\\src\\lv_draw\\../lv_misc/lv_types.h"
 2082              		.file 11 "..\\..\\..\\lvgl\\version_6.1.2\\lvgl\\src\\lv_draw\\lv_img_decoder.h"
 2083              		.file 12 "..\\..\\..\\lvgl\\version_6.1.2\\lvgl\\src\\lv_draw\\../lv_misc/lv_bidi.h"
 2084              		.file 13 "..\\..\\..\\lvgl\\version_6.1.2\\lvgl\\src\\lv_draw\\lv_img_cache.h"
 2085              		.file 14 "..\\..\\..\\lvgl\\version_6.1.2\\lvgl\\src\\lv_draw\\lv_draw.h"
 2086              		.file 15 "..\\..\\..\\lvgl\\version_6.1.2\\lvgl\\src\\lv_draw\\lv_draw_basic.h"
 2087              		.file 16 "..\\..\\..\\lvgl\\version_6.1.2\\lvgl\\src\\lv_draw\\lv_draw_rect.h"
 2088              		.file 17 "..\\..\\..\\lvgl\\version_6.1.2\\lvgl\\src\\lv_draw\\lv_draw_label.h"
 2089              		.file 18 "..\\..\\..\\lvgl\\version_6.1.2\\lvgl\\src\\lv_draw\\../lv_misc/lv_mem.h"
 2090              		.section	.debug_info,"",%progbits
 2091              	.Ldebug_info0:
 2092 0000 1E170000 		.4byte	0x171e
 2093 0004 0400     		.2byte	0x4
 2094 0006 00000000 		.4byte	.Ldebug_abbrev0
 2095 000a 04       		.byte	0x4
 2096 000b 01       		.uleb128 0x1
 2097 000c D0000000 		.4byte	.LASF218
 2098 0010 0C       		.byte	0xc
 2099 0011 560A0000 		.4byte	.LASF219
 2100 0015 E90B0000 		.4byte	.LASF220
 2101 0019 10010000 		.4byte	.Ldebug_ranges0+0x110
 2102 001d 00000000 		.4byte	0
 2103 0021 00000000 		.4byte	.Ldebug_line0
 2104 0025 02       		.uleb128 0x2
 2105 0026 CC060000 		.4byte	.LASF0
 2106 002a 03       		.byte	0x3
 2107 002b 1B       		.byte	0x1b
 2108 002c 30000000 		.4byte	0x30
 2109 0030 03       		.uleb128 0x3
 2110 0031 01       		.byte	0x1
 2111 0032 06       		.byte	0x6
 2112 0033 E60A0000 		.4byte	.LASF2
 2113 0037 02       		.uleb128 0x2
 2114 0038 E9070000 		.4byte	.LASF1
 2115 003c 03       		.byte	0x3
 2116 003d 1D       		.byte	0x1d
 2117 003e 42000000 		.4byte	0x42
 2118 0042 03       		.uleb128 0x3
 2119 0043 01       		.byte	0x1
 2120 0044 08       		.byte	0x8
 2121 0045 1B090000 		.4byte	.LASF3
 2122 0049 02       		.uleb128 0x2
 2123 004a 54060000 		.4byte	.LASF4
ARM GAS  C:\Users\pearlstl\AppData\Local\Temp\ccJvDP4q.s 			page 55


 2124 004e 03       		.byte	0x3
 2125 004f 29       		.byte	0x29
 2126 0050 54000000 		.4byte	0x54
 2127 0054 03       		.uleb128 0x3
 2128 0055 02       		.byte	0x2
 2129 0056 05       		.byte	0x5
 2130 0057 74070000 		.4byte	.LASF5
 2131 005b 02       		.uleb128 0x2
 2132 005c 8D030000 		.4byte	.LASF6
 2133 0060 03       		.byte	0x3
 2134 0061 2B       		.byte	0x2b
 2135 0062 66000000 		.4byte	0x66
 2136 0066 03       		.uleb128 0x3
 2137 0067 02       		.byte	0x2
 2138 0068 07       		.byte	0x7
 2139 0069 FF0A0000 		.4byte	.LASF7
 2140 006d 02       		.uleb128 0x2
 2141 006e C1010000 		.4byte	.LASF8
 2142 0072 03       		.byte	0x3
 2143 0073 3F       		.byte	0x3f
 2144 0074 78000000 		.4byte	0x78
 2145 0078 03       		.uleb128 0x3
 2146 0079 04       		.byte	0x4
 2147 007a 05       		.byte	0x5
 2148 007b 9B070000 		.4byte	.LASF9
 2149 007f 02       		.uleb128 0x2
 2150 0080 29090000 		.4byte	.LASF10
 2151 0084 03       		.byte	0x3
 2152 0085 41       		.byte	0x41
 2153 0086 8A000000 		.4byte	0x8a
 2154 008a 03       		.uleb128 0x3
 2155 008b 04       		.byte	0x4
 2156 008c 07       		.byte	0x7
 2157 008d 48080000 		.4byte	.LASF11
 2158 0091 03       		.uleb128 0x3
 2159 0092 08       		.byte	0x8
 2160 0093 05       		.byte	0x5
 2161 0094 94050000 		.4byte	.LASF12
 2162 0098 03       		.uleb128 0x3
 2163 0099 08       		.byte	0x8
 2164 009a 07       		.byte	0x7
 2165 009b 57030000 		.4byte	.LASF13
 2166 009f 04       		.uleb128 0x4
 2167 00a0 04       		.byte	0x4
 2168 00a1 05       		.byte	0x5
 2169 00a2 696E7400 		.ascii	"int\000"
 2170 00a6 03       		.uleb128 0x3
 2171 00a7 04       		.byte	0x4
 2172 00a8 07       		.byte	0x7
 2173 00a9 B7000000 		.4byte	.LASF14
 2174 00ad 02       		.uleb128 0x2
 2175 00ae D4020000 		.4byte	.LASF15
 2176 00b2 04       		.byte	0x4
 2177 00b3 14       		.byte	0x14
 2178 00b4 25000000 		.4byte	0x25
 2179 00b8 02       		.uleb128 0x2
 2180 00b9 16050000 		.4byte	.LASF16
ARM GAS  C:\Users\pearlstl\AppData\Local\Temp\ccJvDP4q.s 			page 56


 2181 00bd 04       		.byte	0x4
 2182 00be 18       		.byte	0x18
 2183 00bf 37000000 		.4byte	0x37
 2184 00c3 02       		.uleb128 0x2
 2185 00c4 3D030000 		.4byte	.LASF17
 2186 00c8 04       		.byte	0x4
 2187 00c9 20       		.byte	0x20
 2188 00ca 49000000 		.4byte	0x49
 2189 00ce 02       		.uleb128 0x2
 2190 00cf F8060000 		.4byte	.LASF18
 2191 00d3 04       		.byte	0x4
 2192 00d4 24       		.byte	0x24
 2193 00d5 5B000000 		.4byte	0x5b
 2194 00d9 02       		.uleb128 0x2
 2195 00da E4080000 		.4byte	.LASF19
 2196 00de 04       		.byte	0x4
 2197 00df 2C       		.byte	0x2c
 2198 00e0 6D000000 		.4byte	0x6d
 2199 00e4 02       		.uleb128 0x2
 2200 00e5 CB020000 		.4byte	.LASF20
 2201 00e9 04       		.byte	0x4
 2202 00ea 30       		.byte	0x30
 2203 00eb 7F000000 		.4byte	0x7f
 2204 00ef 02       		.uleb128 0x2
 2205 00f0 CE070000 		.4byte	.LASF21
 2206 00f4 05       		.byte	0x5
 2207 00f5 3A       		.byte	0x3a
 2208 00f6 C3000000 		.4byte	0xc3
 2209 00fa 05       		.uleb128 0x5
 2210 00fb 04       		.byte	0x4
 2211 00fc 03       		.uleb128 0x3
 2212 00fd 08       		.byte	0x8
 2213 00fe 04       		.byte	0x4
 2214 00ff EC060000 		.4byte	.LASF22
 2215 0103 06       		.uleb128 0x6
 2216 0104 08       		.byte	0x8
 2217 0105 06       		.byte	0x6
 2218 0106 2E       		.byte	0x2e
 2219 0107 54010000 		.4byte	0x154
 2220 010b 07       		.uleb128 0x7
 2221 010c 1E0D0000 		.4byte	.LASF23
 2222 0110 06       		.byte	0x6
 2223 0111 30       		.byte	0x30
 2224 0112 CE000000 		.4byte	0xce
 2225 0116 00       		.byte	0
 2226 0117 07       		.uleb128 0x7
 2227 0118 42080000 		.4byte	.LASF24
 2228 011c 06       		.byte	0x6
 2229 011d 31       		.byte	0x31
 2230 011e B8000000 		.4byte	0xb8
 2231 0122 02       		.byte	0x2
 2232 0123 07       		.uleb128 0x7
 2233 0124 23080000 		.4byte	.LASF25
 2234 0128 06       		.byte	0x6
 2235 0129 32       		.byte	0x32
 2236 012a B8000000 		.4byte	0xb8
 2237 012e 03       		.byte	0x3
ARM GAS  C:\Users\pearlstl\AppData\Local\Temp\ccJvDP4q.s 			page 57


 2238 012f 07       		.uleb128 0x7
 2239 0130 C4000000 		.4byte	.LASF26
 2240 0134 06       		.byte	0x6
 2241 0135 33       		.byte	0x33
 2242 0136 AD000000 		.4byte	0xad
 2243 013a 04       		.byte	0x4
 2244 013b 07       		.uleb128 0x7
 2245 013c CA000000 		.4byte	.LASF27
 2246 0140 06       		.byte	0x6
 2247 0141 34       		.byte	0x34
 2248 0142 AD000000 		.4byte	0xad
 2249 0146 05       		.byte	0x5
 2250 0147 08       		.uleb128 0x8
 2251 0148 62707000 		.ascii	"bpp\000"
 2252 014c 06       		.byte	0x6
 2253 014d 35       		.byte	0x35
 2254 014e B8000000 		.4byte	0xb8
 2255 0152 06       		.byte	0x6
 2256 0153 00       		.byte	0
 2257 0154 02       		.uleb128 0x2
 2258 0155 DA040000 		.4byte	.LASF28
 2259 0159 06       		.byte	0x6
 2260 015a 36       		.byte	0x36
 2261 015b 03010000 		.4byte	0x103
 2262 015f 09       		.uleb128 0x9
 2263 0160 60040000 		.4byte	.LASF141
 2264 0164 10       		.byte	0x10
 2265 0165 06       		.byte	0x6
 2266 0166 44       		.byte	0x44
 2267 0167 B7010000 		.4byte	0x1b7
 2268 016b 07       		.uleb128 0x7
 2269 016c 83010000 		.4byte	.LASF29
 2270 0170 06       		.byte	0x6
 2271 0171 47       		.byte	0x47
 2272 0172 ED010000 		.4byte	0x1ed
 2273 0176 00       		.byte	0
 2274 0177 07       		.uleb128 0x7
 2275 0178 7B090000 		.4byte	.LASF30
 2276 017c 06       		.byte	0x6
 2277 017d 4A       		.byte	0x4a
 2278 017e 12020000 		.4byte	0x212
 2279 0182 04       		.byte	0x4
 2280 0183 07       		.uleb128 0x7
 2281 0184 7B040000 		.4byte	.LASF31
 2282 0188 06       		.byte	0x6
 2283 0189 4D       		.byte	0x4d
 2284 018a B8000000 		.4byte	0xb8
 2285 018e 08       		.byte	0x8
 2286 018f 07       		.uleb128 0x7
 2287 0190 EC080000 		.4byte	.LASF32
 2288 0194 06       		.byte	0x6
 2289 0195 4E       		.byte	0x4e
 2290 0196 AD000000 		.4byte	0xad
 2291 019a 09       		.byte	0x9
 2292 019b 0A       		.uleb128 0xa
 2293 019c A3060000 		.4byte	.LASF79
 2294 01a0 06       		.byte	0x6
ARM GAS  C:\Users\pearlstl\AppData\Local\Temp\ccJvDP4q.s 			page 58


 2295 01a1 4F       		.byte	0x4f
 2296 01a2 B8000000 		.4byte	0xb8
 2297 01a6 01       		.byte	0x1
 2298 01a7 02       		.byte	0x2
 2299 01a8 06       		.byte	0x6
 2300 01a9 0A       		.byte	0xa
 2301 01aa 08       		.uleb128 0x8
 2302 01ab 64736300 		.ascii	"dsc\000"
 2303 01af 06       		.byte	0x6
 2304 01b0 50       		.byte	0x50
 2305 01b1 FA000000 		.4byte	0xfa
 2306 01b5 0C       		.byte	0xc
 2307 01b6 00       		.byte	0
 2308 01b7 0B       		.uleb128 0xb
 2309 01b8 D5010000 		.4byte	0x1d5
 2310 01bc D5010000 		.4byte	0x1d5
 2311 01c0 0C       		.uleb128 0xc
 2312 01c1 DC010000 		.4byte	0x1dc
 2313 01c5 0C       		.uleb128 0xc
 2314 01c6 E7010000 		.4byte	0x1e7
 2315 01ca 0C       		.uleb128 0xc
 2316 01cb E4000000 		.4byte	0xe4
 2317 01cf 0C       		.uleb128 0xc
 2318 01d0 E4000000 		.4byte	0xe4
 2319 01d4 00       		.byte	0
 2320 01d5 03       		.uleb128 0x3
 2321 01d6 01       		.byte	0x1
 2322 01d7 02       		.byte	0x2
 2323 01d8 31040000 		.4byte	.LASF33
 2324 01dc 0D       		.uleb128 0xd
 2325 01dd 04       		.byte	0x4
 2326 01de E2010000 		.4byte	0x1e2
 2327 01e2 0E       		.uleb128 0xe
 2328 01e3 5F010000 		.4byte	0x15f
 2329 01e7 0D       		.uleb128 0xd
 2330 01e8 04       		.byte	0x4
 2331 01e9 54010000 		.4byte	0x154
 2332 01ed 0D       		.uleb128 0xd
 2333 01ee 04       		.byte	0x4
 2334 01ef B7010000 		.4byte	0x1b7
 2335 01f3 0B       		.uleb128 0xb
 2336 01f4 07020000 		.4byte	0x207
 2337 01f8 07020000 		.4byte	0x207
 2338 01fc 0C       		.uleb128 0xc
 2339 01fd DC010000 		.4byte	0x1dc
 2340 0201 0C       		.uleb128 0xc
 2341 0202 E4000000 		.4byte	0xe4
 2342 0206 00       		.byte	0
 2343 0207 0D       		.uleb128 0xd
 2344 0208 04       		.byte	0x4
 2345 0209 0D020000 		.4byte	0x20d
 2346 020d 0E       		.uleb128 0xe
 2347 020e B8000000 		.4byte	0xb8
 2348 0212 0D       		.uleb128 0xd
 2349 0213 04       		.byte	0x4
 2350 0214 F3010000 		.4byte	0x1f3
 2351 0218 02       		.uleb128 0x2
ARM GAS  C:\Users\pearlstl\AppData\Local\Temp\ccJvDP4q.s 			page 59


 2352 0219 52070000 		.4byte	.LASF34
 2353 021d 06       		.byte	0x6
 2354 021e 56       		.byte	0x56
 2355 021f 5F010000 		.4byte	0x15f
 2356 0223 0F       		.uleb128 0xf
 2357 0224 01       		.byte	0x1
 2358 0225 42000000 		.4byte	0x42
 2359 0229 07       		.byte	0x7
 2360 022a 3E       		.byte	0x3e
 2361 022b 7E020000 		.4byte	0x27e
 2362 022f 10       		.uleb128 0x10
 2363 0230 7F030000 		.4byte	.LASF35
 2364 0234 00       		.byte	0
 2365 0235 10       		.uleb128 0x10
 2366 0236 AE000000 		.4byte	.LASF36
 2367 023a 00       		.byte	0
 2368 023b 10       		.uleb128 0x10
 2369 023c 71050000 		.4byte	.LASF37
 2370 0240 19       		.byte	0x19
 2371 0241 10       		.uleb128 0x10
 2372 0242 6D060000 		.4byte	.LASF38
 2373 0246 33       		.byte	0x33
 2374 0247 10       		.uleb128 0x10
 2375 0248 E2060000 		.4byte	.LASF39
 2376 024c 4C       		.byte	0x4c
 2377 024d 10       		.uleb128 0x10
 2378 024e A4070000 		.4byte	.LASF40
 2379 0252 66       		.byte	0x66
 2380 0253 10       		.uleb128 0x10
 2381 0254 F3070000 		.4byte	.LASF41
 2382 0258 7F       		.byte	0x7f
 2383 0259 10       		.uleb128 0x10
 2384 025a 0C090000 		.4byte	.LASF42
 2385 025e 99       		.byte	0x99
 2386 025f 10       		.uleb128 0x10
 2387 0260 4C0A0000 		.4byte	.LASF43
 2388 0264 B2       		.byte	0xb2
 2389 0265 10       		.uleb128 0x10
 2390 0266 CA0B0000 		.4byte	.LASF44
 2391 026a CC       		.byte	0xcc
 2392 026b 10       		.uleb128 0x10
 2393 026c 26000000 		.4byte	.LASF45
 2394 0270 E5       		.byte	0xe5
 2395 0271 10       		.uleb128 0x10
 2396 0272 DE070000 		.4byte	.LASF46
 2397 0276 FF       		.byte	0xff
 2398 0277 10       		.uleb128 0x10
 2399 0278 14000000 		.4byte	.LASF47
 2400 027c FF       		.byte	0xff
 2401 027d 00       		.byte	0
 2402 027e 06       		.uleb128 0x6
 2403 027f 04       		.byte	0x4
 2404 0280 07       		.byte	0x7
 2405 0281 F3       		.byte	0xf3
 2406 0282 B7020000 		.4byte	0x2b7
 2407 0286 07       		.uleb128 0x7
 2408 0287 C9070000 		.4byte	.LASF48
ARM GAS  C:\Users\pearlstl\AppData\Local\Temp\ccJvDP4q.s 			page 60


 2409 028b 07       		.byte	0x7
 2410 028c F5       		.byte	0xf5
 2411 028d B8000000 		.4byte	0xb8
 2412 0291 00       		.byte	0
 2413 0292 07       		.uleb128 0x7
 2414 0293 DC060000 		.4byte	.LASF49
 2415 0297 07       		.byte	0x7
 2416 0298 F6       		.byte	0xf6
 2417 0299 B8000000 		.4byte	0xb8
 2418 029d 01       		.byte	0x1
 2419 029e 08       		.uleb128 0x8
 2420 029f 72656400 		.ascii	"red\000"
 2421 02a3 07       		.byte	0x7
 2422 02a4 F7       		.byte	0xf7
 2423 02a5 B8000000 		.4byte	0xb8
 2424 02a9 02       		.byte	0x2
 2425 02aa 07       		.uleb128 0x7
 2426 02ab DE080000 		.4byte	.LASF50
 2427 02af 07       		.byte	0x7
 2428 02b0 F8       		.byte	0xf8
 2429 02b1 B8000000 		.4byte	0xb8
 2430 02b5 03       		.byte	0x3
 2431 02b6 00       		.byte	0
 2432 02b7 11       		.uleb128 0x11
 2433 02b8 04       		.byte	0x4
 2434 02b9 07       		.byte	0x7
 2435 02ba F1       		.byte	0xf1
 2436 02bb D5020000 		.4byte	0x2d5
 2437 02bf 12       		.uleb128 0x12
 2438 02c0 636800   		.ascii	"ch\000"
 2439 02c3 07       		.byte	0x7
 2440 02c4 F9       		.byte	0xf9
 2441 02c5 7E020000 		.4byte	0x27e
 2442 02c9 13       		.uleb128 0x13
 2443 02ca 21000000 		.4byte	.LASF51
 2444 02ce 07       		.byte	0x7
 2445 02cf FA       		.byte	0xfa
 2446 02d0 E4000000 		.4byte	0xe4
 2447 02d4 00       		.byte	0
 2448 02d5 02       		.uleb128 0x2
 2449 02d6 DB020000 		.4byte	.LASF52
 2450 02da 07       		.byte	0x7
 2451 02db FB       		.byte	0xfb
 2452 02dc B7020000 		.4byte	0x2b7
 2453 02e0 14       		.uleb128 0x14
 2454 02e1 A9060000 		.4byte	.LASF53
 2455 02e5 07       		.byte	0x7
 2456 02e6 0801     		.2byte	0x108
 2457 02e8 D5020000 		.4byte	0x2d5
 2458 02ec 14       		.uleb128 0x14
 2459 02ed 85070000 		.4byte	.LASF54
 2460 02f1 07       		.byte	0x7
 2461 02f2 0D01     		.2byte	0x10d
 2462 02f4 B8000000 		.4byte	0xb8
 2463 02f8 03       		.uleb128 0x3
 2464 02f9 04       		.byte	0x4
 2465 02fa 07       		.byte	0x7
ARM GAS  C:\Users\pearlstl\AppData\Local\Temp\ccJvDP4q.s 			page 61


 2466 02fb 49070000 		.4byte	.LASF55
 2467 02ff 03       		.uleb128 0x3
 2468 0300 01       		.byte	0x1
 2469 0301 08       		.byte	0x8
 2470 0302 B4040000 		.4byte	.LASF56
 2471 0306 0D       		.uleb128 0xd
 2472 0307 04       		.byte	0x4
 2473 0308 0C030000 		.4byte	0x30c
 2474 030c 0E       		.uleb128 0xe
 2475 030d FF020000 		.4byte	0x2ff
 2476 0311 06       		.uleb128 0x6
 2477 0312 08       		.byte	0x8
 2478 0313 02       		.byte	0x2
 2479 0314 31       		.byte	0x31
 2480 0315 46030000 		.4byte	0x346
 2481 0319 08       		.uleb128 0x8
 2482 031a 783100   		.ascii	"x1\000"
 2483 031d 02       		.byte	0x2
 2484 031e 33       		.byte	0x33
 2485 031f EF000000 		.4byte	0xef
 2486 0323 00       		.byte	0
 2487 0324 08       		.uleb128 0x8
 2488 0325 793100   		.ascii	"y1\000"
 2489 0328 02       		.byte	0x2
 2490 0329 34       		.byte	0x34
 2491 032a EF000000 		.4byte	0xef
 2492 032e 02       		.byte	0x2
 2493 032f 08       		.uleb128 0x8
 2494 0330 783200   		.ascii	"x2\000"
 2495 0333 02       		.byte	0x2
 2496 0334 35       		.byte	0x35
 2497 0335 EF000000 		.4byte	0xef
 2498 0339 04       		.byte	0x4
 2499 033a 08       		.uleb128 0x8
 2500 033b 793200   		.ascii	"y2\000"
 2501 033e 02       		.byte	0x2
 2502 033f 36       		.byte	0x36
 2503 0340 EF000000 		.4byte	0xef
 2504 0344 06       		.byte	0x6
 2505 0345 00       		.byte	0
 2506 0346 02       		.uleb128 0x2
 2507 0347 D00A0000 		.4byte	.LASF57
 2508 034b 02       		.byte	0x2
 2509 034c 37       		.byte	0x37
 2510 034d 11030000 		.4byte	0x311
 2511 0351 02       		.uleb128 0x2
 2512 0352 7C0C0000 		.4byte	.LASF58
 2513 0356 08       		.byte	0x8
 2514 0357 2C       		.byte	0x2c
 2515 0358 B8000000 		.4byte	0xb8
 2516 035c 02       		.uleb128 0x2
 2517 035d 1E050000 		.4byte	.LASF59
 2518 0361 08       		.byte	0x8
 2519 0362 33       		.byte	0x33
 2520 0363 B8000000 		.4byte	0xb8
 2521 0367 06       		.uleb128 0x6
 2522 0368 08       		.byte	0x8
ARM GAS  C:\Users\pearlstl\AppData\Local\Temp\ccJvDP4q.s 			page 62


 2523 0369 08       		.byte	0x8
 2524 036a 48       		.byte	0x48
 2525 036b A0030000 		.4byte	0x3a0
 2526 036f 07       		.uleb128 0x7
 2527 0370 DB030000 		.4byte	.LASF60
 2528 0374 08       		.byte	0x8
 2529 0375 4A       		.byte	0x4a
 2530 0376 E0020000 		.4byte	0x2e0
 2531 037a 00       		.byte	0
 2532 037b 07       		.uleb128 0x7
 2533 037c 2B040000 		.4byte	.LASF61
 2534 0380 08       		.byte	0x8
 2535 0381 4B       		.byte	0x4b
 2536 0382 EF000000 		.4byte	0xef
 2537 0386 04       		.byte	0x4
 2538 0387 07       		.uleb128 0x7
 2539 0388 6E030000 		.4byte	.LASF62
 2540 038c 08       		.byte	0x8
 2541 038d 4C       		.byte	0x4c
 2542 038e 51030000 		.4byte	0x351
 2543 0392 06       		.byte	0x6
 2544 0393 08       		.uleb128 0x8
 2545 0394 6F706100 		.ascii	"opa\000"
 2546 0398 08       		.byte	0x8
 2547 0399 4D       		.byte	0x4d
 2548 039a EC020000 		.4byte	0x2ec
 2549 039e 07       		.byte	0x7
 2550 039f 00       		.byte	0
 2551 03a0 06       		.uleb128 0x6
 2552 03a1 08       		.byte	0x8
 2553 03a2 08       		.byte	0x8
 2554 03a3 51       		.byte	0x51
 2555 03a4 CD030000 		.4byte	0x3cd
 2556 03a8 07       		.uleb128 0x7
 2557 03a9 DB030000 		.4byte	.LASF60
 2558 03ad 08       		.byte	0x8
 2559 03ae 53       		.byte	0x53
 2560 03af E0020000 		.4byte	0x2e0
 2561 03b3 00       		.byte	0
 2562 03b4 07       		.uleb128 0x7
 2563 03b5 2B040000 		.4byte	.LASF61
 2564 03b9 08       		.byte	0x8
 2565 03ba 54       		.byte	0x54
 2566 03bb EF000000 		.4byte	0xef
 2567 03bf 04       		.byte	0x4
 2568 03c0 07       		.uleb128 0x7
 2569 03c1 16090000 		.4byte	.LASF63
 2570 03c5 08       		.byte	0x8
 2571 03c6 55       		.byte	0x55
 2572 03c7 5C030000 		.4byte	0x35c
 2573 03cb 06       		.byte	0x6
 2574 03cc 00       		.byte	0
 2575 03cd 06       		.uleb128 0x6
 2576 03ce 0A       		.byte	0xa
 2577 03cf 08       		.byte	0x8
 2578 03d0 58       		.byte	0x58
 2579 03d1 12040000 		.4byte	0x412
ARM GAS  C:\Users\pearlstl\AppData\Local\Temp\ccJvDP4q.s 			page 63


 2580 03d5 08       		.uleb128 0x8
 2581 03d6 746F7000 		.ascii	"top\000"
 2582 03da 08       		.byte	0x8
 2583 03db 5A       		.byte	0x5a
 2584 03dc EF000000 		.4byte	0xef
 2585 03e0 00       		.byte	0
 2586 03e1 07       		.uleb128 0x7
 2587 03e2 CE040000 		.4byte	.LASF64
 2588 03e6 08       		.byte	0x8
 2589 03e7 5B       		.byte	0x5b
 2590 03e8 EF000000 		.4byte	0xef
 2591 03ec 02       		.byte	0x2
 2592 03ed 07       		.uleb128 0x7
 2593 03ee D9070000 		.4byte	.LASF65
 2594 03f2 08       		.byte	0x8
 2595 03f3 5C       		.byte	0x5c
 2596 03f4 EF000000 		.4byte	0xef
 2597 03f8 04       		.byte	0x4
 2598 03f9 07       		.uleb128 0x7
 2599 03fa 2F050000 		.4byte	.LASF66
 2600 03fe 08       		.byte	0x8
 2601 03ff 5D       		.byte	0x5d
 2602 0400 EF000000 		.4byte	0xef
 2603 0404 06       		.byte	0x6
 2604 0405 07       		.uleb128 0x7
 2605 0406 96020000 		.4byte	.LASF67
 2606 040a 08       		.byte	0x8
 2607 040b 5E       		.byte	0x5e
 2608 040c EF000000 		.4byte	0xef
 2609 0410 08       		.byte	0x8
 2610 0411 00       		.byte	0
 2611 0412 06       		.uleb128 0x6
 2612 0413 28       		.byte	0x28
 2613 0414 08       		.byte	0x8
 2614 0415 41       		.byte	0x41
 2615 0416 6F040000 		.4byte	0x46f
 2616 041a 07       		.uleb128 0x7
 2617 041b 69070000 		.4byte	.LASF68
 2618 041f 08       		.byte	0x8
 2619 0420 43       		.byte	0x43
 2620 0421 E0020000 		.4byte	0x2e0
 2621 0425 00       		.byte	0
 2622 0426 07       		.uleb128 0x7
 2623 0427 1C070000 		.4byte	.LASF69
 2624 042b 08       		.byte	0x8
 2625 042c 44       		.byte	0x44
 2626 042d E0020000 		.4byte	0x2e0
 2627 0431 04       		.byte	0x4
 2628 0432 07       		.uleb128 0x7
 2629 0433 F6080000 		.4byte	.LASF70
 2630 0437 08       		.byte	0x8
 2631 0438 45       		.byte	0x45
 2632 0439 EF000000 		.4byte	0xef
 2633 043d 08       		.byte	0x8
 2634 043e 08       		.uleb128 0x8
 2635 043f 6F706100 		.ascii	"opa\000"
 2636 0443 08       		.byte	0x8
ARM GAS  C:\Users\pearlstl\AppData\Local\Temp\ccJvDP4q.s 			page 64


 2637 0444 46       		.byte	0x46
 2638 0445 EC020000 		.4byte	0x2ec
 2639 0449 0A       		.byte	0xa
 2640 044a 07       		.uleb128 0x7
 2641 044b A8030000 		.4byte	.LASF71
 2642 044f 08       		.byte	0x8
 2643 0450 4E       		.byte	0x4e
 2644 0451 67030000 		.4byte	0x367
 2645 0455 0C       		.byte	0xc
 2646 0456 07       		.uleb128 0x7
 2647 0457 C90A0000 		.4byte	.LASF72
 2648 045b 08       		.byte	0x8
 2649 045c 56       		.byte	0x56
 2650 045d A0030000 		.4byte	0x3a0
 2651 0461 14       		.byte	0x14
 2652 0462 07       		.uleb128 0x7
 2653 0463 F4050000 		.4byte	.LASF73
 2654 0467 08       		.byte	0x8
 2655 0468 5F       		.byte	0x5f
 2656 0469 CD030000 		.4byte	0x3cd
 2657 046d 1C       		.byte	0x1c
 2658 046e 00       		.byte	0
 2659 046f 06       		.uleb128 0x6
 2660 0470 14       		.byte	0x14
 2661 0471 08       		.byte	0x8
 2662 0472 63       		.byte	0x63
 2663 0473 C0040000 		.4byte	0x4c0
 2664 0477 07       		.uleb128 0x7
 2665 0478 DB030000 		.4byte	.LASF60
 2666 047c 08       		.byte	0x8
 2667 047d 65       		.byte	0x65
 2668 047e E0020000 		.4byte	0x2e0
 2669 0482 00       		.byte	0
 2670 0483 07       		.uleb128 0x7
 2671 0484 FF020000 		.4byte	.LASF74
 2672 0488 08       		.byte	0x8
 2673 0489 66       		.byte	0x66
 2674 048a E0020000 		.4byte	0x2e0
 2675 048e 04       		.byte	0x4
 2676 048f 07       		.uleb128 0x7
 2677 0490 34080000 		.4byte	.LASF75
 2678 0494 08       		.byte	0x8
 2679 0495 67       		.byte	0x67
 2680 0496 C0040000 		.4byte	0x4c0
 2681 049a 08       		.byte	0x8
 2682 049b 07       		.uleb128 0x7
 2683 049c 5C070000 		.4byte	.LASF76
 2684 04a0 08       		.byte	0x8
 2685 04a1 68       		.byte	0x68
 2686 04a2 EF000000 		.4byte	0xef
 2687 04a6 0C       		.byte	0xc
 2688 04a7 07       		.uleb128 0x7
 2689 04a8 70040000 		.4byte	.LASF77
 2690 04ac 08       		.byte	0x8
 2691 04ad 69       		.byte	0x69
 2692 04ae EF000000 		.4byte	0xef
 2693 04b2 0E       		.byte	0xe
ARM GAS  C:\Users\pearlstl\AppData\Local\Temp\ccJvDP4q.s 			page 65


 2694 04b3 08       		.uleb128 0x8
 2695 04b4 6F706100 		.ascii	"opa\000"
 2696 04b8 08       		.byte	0x8
 2697 04b9 6A       		.byte	0x6a
 2698 04ba EC020000 		.4byte	0x2ec
 2699 04be 10       		.byte	0x10
 2700 04bf 00       		.byte	0
 2701 04c0 0D       		.uleb128 0xd
 2702 04c1 04       		.byte	0x4
 2703 04c2 C6040000 		.4byte	0x4c6
 2704 04c6 0E       		.uleb128 0xe
 2705 04c7 18020000 		.4byte	0x218
 2706 04cb 06       		.uleb128 0x6
 2707 04cc 08       		.byte	0x8
 2708 04cd 08       		.byte	0x8
 2709 04ce 6E       		.byte	0x6e
 2710 04cf F8040000 		.4byte	0x4f8
 2711 04d3 07       		.uleb128 0x7
 2712 04d4 DB030000 		.4byte	.LASF60
 2713 04d8 08       		.byte	0x8
 2714 04d9 70       		.byte	0x70
 2715 04da E0020000 		.4byte	0x2e0
 2716 04de 00       		.byte	0
 2717 04df 07       		.uleb128 0x7
 2718 04e0 68080000 		.4byte	.LASF78
 2719 04e4 08       		.byte	0x8
 2720 04e5 71       		.byte	0x71
 2721 04e6 EC020000 		.4byte	0x2ec
 2722 04ea 04       		.byte	0x4
 2723 04eb 08       		.uleb128 0x8
 2724 04ec 6F706100 		.ascii	"opa\000"
 2725 04f0 08       		.byte	0x8
 2726 04f1 72       		.byte	0x72
 2727 04f2 EC020000 		.4byte	0x2ec
 2728 04f6 05       		.byte	0x5
 2729 04f7 00       		.byte	0
 2730 04f8 06       		.uleb128 0x6
 2731 04f9 08       		.byte	0x8
 2732 04fa 08       		.byte	0x8
 2733 04fb 76       		.byte	0x76
 2734 04fc 34050000 		.4byte	0x534
 2735 0500 07       		.uleb128 0x7
 2736 0501 DB030000 		.4byte	.LASF60
 2737 0505 08       		.byte	0x8
 2738 0506 78       		.byte	0x78
 2739 0507 E0020000 		.4byte	0x2e0
 2740 050b 00       		.byte	0
 2741 050c 07       		.uleb128 0x7
 2742 050d 2B040000 		.4byte	.LASF61
 2743 0511 08       		.byte	0x8
 2744 0512 79       		.byte	0x79
 2745 0513 EF000000 		.4byte	0xef
 2746 0517 04       		.byte	0x4
 2747 0518 08       		.uleb128 0x8
 2748 0519 6F706100 		.ascii	"opa\000"
 2749 051d 08       		.byte	0x8
 2750 051e 7A       		.byte	0x7a
ARM GAS  C:\Users\pearlstl\AppData\Local\Temp\ccJvDP4q.s 			page 66


 2751 051f EC020000 		.4byte	0x2ec
 2752 0523 06       		.byte	0x6
 2753 0524 0A       		.uleb128 0xa
 2754 0525 E1030000 		.4byte	.LASF80
 2755 0529 08       		.byte	0x8
 2756 052a 7B       		.byte	0x7b
 2757 052b B8000000 		.4byte	0xb8
 2758 052f 01       		.byte	0x1
 2759 0530 01       		.byte	0x1
 2760 0531 07       		.byte	0x7
 2761 0532 07       		.byte	0x7
 2762 0533 00       		.byte	0
 2763 0534 06       		.uleb128 0x6
 2764 0535 50       		.byte	0x50
 2765 0536 08       		.byte	0x8
 2766 0537 3C       		.byte	0x3c
 2767 0538 7C050000 		.4byte	0x57c
 2768 053c 0A       		.uleb128 0xa
 2769 053d A2050000 		.4byte	.LASF81
 2770 0541 08       		.byte	0x8
 2771 0542 3E       		.byte	0x3e
 2772 0543 B8000000 		.4byte	0xb8
 2773 0547 01       		.byte	0x1
 2774 0548 01       		.byte	0x1
 2775 0549 07       		.byte	0x7
 2776 054a 00       		.byte	0
 2777 054b 07       		.uleb128 0x7
 2778 054c 07090000 		.4byte	.LASF82
 2779 0550 08       		.byte	0x8
 2780 0551 60       		.byte	0x60
 2781 0552 12040000 		.4byte	0x412
 2782 0556 04       		.byte	0x4
 2783 0557 07       		.uleb128 0x7
 2784 0558 DA050000 		.4byte	.LASF83
 2785 055c 08       		.byte	0x8
 2786 055d 6B       		.byte	0x6b
 2787 055e 6F040000 		.4byte	0x46f
 2788 0562 2C       		.byte	0x2c
 2789 0563 07       		.uleb128 0x7
 2790 0564 77060000 		.4byte	.LASF84
 2791 0568 08       		.byte	0x8
 2792 0569 73       		.byte	0x73
 2793 056a CB040000 		.4byte	0x4cb
 2794 056e 40       		.byte	0x40
 2795 056f 07       		.uleb128 0x7
 2796 0570 4C090000 		.4byte	.LASF85
 2797 0574 08       		.byte	0x8
 2798 0575 7C       		.byte	0x7c
 2799 0576 F8040000 		.4byte	0x4f8
 2800 057a 48       		.byte	0x48
 2801 057b 00       		.byte	0
 2802 057c 02       		.uleb128 0x2
 2803 057d 91010000 		.4byte	.LASF86
 2804 0581 08       		.byte	0x8
 2805 0582 84       		.byte	0x84
 2806 0583 34050000 		.4byte	0x534
 2807 0587 0F       		.uleb128 0xf
ARM GAS  C:\Users\pearlstl\AppData\Local\Temp\ccJvDP4q.s 			page 67


 2808 0588 01       		.byte	0x1
 2809 0589 42000000 		.4byte	0x42
 2810 058d 09       		.byte	0x9
 2811 058e 2B       		.byte	0x2b
 2812 058f B2050000 		.4byte	0x5b2
 2813 0593 10       		.uleb128 0x10
 2814 0594 6B0B0000 		.4byte	.LASF87
 2815 0598 00       		.byte	0
 2816 0599 10       		.uleb128 0x10
 2817 059a 82020000 		.4byte	.LASF88
 2818 059e 01       		.byte	0x1
 2819 059f 10       		.uleb128 0x10
 2820 05a0 7C0B0000 		.4byte	.LASF89
 2821 05a4 02       		.byte	0x2
 2822 05a5 10       		.uleb128 0x10
 2823 05a6 A4020000 		.4byte	.LASF90
 2824 05aa 04       		.byte	0x4
 2825 05ab 10       		.uleb128 0x10
 2826 05ac C9030000 		.4byte	.LASF91
 2827 05b0 08       		.byte	0x8
 2828 05b1 00       		.byte	0
 2829 05b2 0F       		.uleb128 0xf
 2830 05b3 01       		.byte	0x1
 2831 05b4 42000000 		.4byte	0x42
 2832 05b8 0A       		.byte	0xa
 2833 05b9 27       		.byte	0x27
 2834 05ba CB050000 		.4byte	0x5cb
 2835 05be 10       		.uleb128 0x10
 2836 05bf D90C0000 		.4byte	.LASF92
 2837 05c3 00       		.byte	0
 2838 05c4 10       		.uleb128 0x10
 2839 05c5 32060000 		.4byte	.LASF93
 2840 05c9 01       		.byte	0x1
 2841 05ca 00       		.byte	0
 2842 05cb 02       		.uleb128 0x2
 2843 05cc B9040000 		.4byte	.LASF94
 2844 05d0 0A       		.byte	0xa
 2845 05d1 2C       		.byte	0x2c
 2846 05d2 B8000000 		.4byte	0xb8
 2847 05d6 0F       		.uleb128 0xf
 2848 05d7 01       		.byte	0x1
 2849 05d8 42000000 		.4byte	0x42
 2850 05dc 0B       		.byte	0xb
 2851 05dd 2E       		.byte	0x2e
 2852 05de FB050000 		.4byte	0x5fb
 2853 05e2 10       		.uleb128 0x10
 2854 05e3 00000000 		.4byte	.LASF95
 2855 05e7 00       		.byte	0
 2856 05e8 10       		.uleb128 0x10
 2857 05e9 6C0C0000 		.4byte	.LASF96
 2858 05ed 01       		.byte	0x1
 2859 05ee 10       		.uleb128 0x10
 2860 05ef 37040000 		.4byte	.LASF97
 2861 05f3 02       		.byte	0x2
 2862 05f4 10       		.uleb128 0x10
 2863 05f5 2A030000 		.4byte	.LASF98
 2864 05f9 03       		.byte	0x3
ARM GAS  C:\Users\pearlstl\AppData\Local\Temp\ccJvDP4q.s 			page 68


 2865 05fa 00       		.byte	0
 2866 05fb 02       		.uleb128 0x2
 2867 05fc B4010000 		.4byte	.LASF99
 2868 0600 0B       		.byte	0xb
 2869 0601 35       		.byte	0x35
 2870 0602 B8000000 		.4byte	0xb8
 2871 0606 06       		.uleb128 0x6
 2872 0607 04       		.byte	0x4
 2873 0608 0B       		.byte	0xb
 2874 0609 39       		.byte	0x39
 2875 060a 55060000 		.4byte	0x655
 2876 060e 15       		.uleb128 0x15
 2877 060f 636600   		.ascii	"cf\000"
 2878 0612 0B       		.byte	0xb
 2879 0613 3E       		.byte	0x3e
 2880 0614 E4000000 		.4byte	0xe4
 2881 0618 04       		.byte	0x4
 2882 0619 05       		.byte	0x5
 2883 061a 1B       		.byte	0x1b
 2884 061b 00       		.byte	0
 2885 061c 0A       		.uleb128 0xa
 2886 061d 6E000000 		.4byte	.LASF100
 2887 0621 0B       		.byte	0xb
 2888 0622 3F       		.byte	0x3f
 2889 0623 E4000000 		.4byte	0xe4
 2890 0627 04       		.byte	0x4
 2891 0628 03       		.byte	0x3
 2892 0629 18       		.byte	0x18
 2893 062a 00       		.byte	0
 2894 062b 0A       		.uleb128 0xa
 2895 062c A30B0000 		.4byte	.LASF101
 2896 0630 0B       		.byte	0xb
 2897 0631 42       		.byte	0x42
 2898 0632 E4000000 		.4byte	0xe4
 2899 0636 04       		.byte	0x4
 2900 0637 02       		.byte	0x2
 2901 0638 16       		.byte	0x16
 2902 0639 00       		.byte	0
 2903 063a 15       		.uleb128 0x15
 2904 063b 7700     		.ascii	"w\000"
 2905 063d 0B       		.byte	0xb
 2906 063e 44       		.byte	0x44
 2907 063f E4000000 		.4byte	0xe4
 2908 0643 04       		.byte	0x4
 2909 0644 0B       		.byte	0xb
 2910 0645 0B       		.byte	0xb
 2911 0646 00       		.byte	0
 2912 0647 15       		.uleb128 0x15
 2913 0648 6800     		.ascii	"h\000"
 2914 064a 0B       		.byte	0xb
 2915 064b 45       		.byte	0x45
 2916 064c E4000000 		.4byte	0xe4
 2917 0650 04       		.byte	0x4
 2918 0651 0B       		.byte	0xb
 2919 0652 00       		.byte	0
 2920 0653 00       		.byte	0
 2921 0654 00       		.byte	0
ARM GAS  C:\Users\pearlstl\AppData\Local\Temp\ccJvDP4q.s 			page 69


 2922 0655 02       		.uleb128 0x2
 2923 0656 0E0D0000 		.4byte	.LASF102
 2924 065a 0B       		.byte	0xb
 2925 065b 46       		.byte	0x46
 2926 065c 06060000 		.4byte	0x606
 2927 0660 0F       		.uleb128 0xf
 2928 0661 01       		.byte	0x1
 2929 0662 42000000 		.4byte	0x42
 2930 0666 0B       		.byte	0xb
 2931 0667 49       		.byte	0x49
 2932 0668 2D070000 		.4byte	0x72d
 2933 066c 10       		.uleb128 0x10
 2934 066d 150A0000 		.4byte	.LASF103
 2935 0671 00       		.byte	0
 2936 0672 10       		.uleb128 0x10
 2937 0673 FD070000 		.4byte	.LASF104
 2938 0677 01       		.byte	0x1
 2939 0678 10       		.uleb128 0x10
 2940 0679 17040000 		.4byte	.LASF105
 2941 067d 02       		.byte	0x2
 2942 067e 10       		.uleb128 0x10
 2943 067f 01070000 		.4byte	.LASF106
 2944 0683 03       		.byte	0x3
 2945 0684 10       		.uleb128 0x10
 2946 0685 3B020000 		.4byte	.LASF107
 2947 0689 04       		.byte	0x4
 2948 068a 10       		.uleb128 0x10
 2949 068b 30000000 		.4byte	.LASF108
 2950 068f 05       		.byte	0x5
 2951 0690 10       		.uleb128 0x10
 2952 0691 B70C0000 		.4byte	.LASF109
 2953 0695 06       		.byte	0x6
 2954 0696 10       		.uleb128 0x10
 2955 0697 EE030000 		.4byte	.LASF110
 2956 069b 07       		.byte	0x7
 2957 069c 10       		.uleb128 0x10
 2958 069d 910A0000 		.4byte	.LASF111
 2959 06a1 08       		.byte	0x8
 2960 06a2 10       		.uleb128 0x10
 2961 06a3 97000000 		.4byte	.LASF112
 2962 06a7 09       		.byte	0x9
 2963 06a8 10       		.uleb128 0x10
 2964 06a9 49040000 		.4byte	.LASF113
 2965 06ad 0A       		.byte	0xa
 2966 06ae 10       		.uleb128 0x10
 2967 06af 190B0000 		.4byte	.LASF114
 2968 06b3 0B       		.byte	0xb
 2969 06b4 10       		.uleb128 0x10
 2970 06b5 DF050000 		.4byte	.LASF115
 2971 06b9 0C       		.byte	0xc
 2972 06ba 10       		.uleb128 0x10
 2973 06bb 27070000 		.4byte	.LASF116
 2974 06bf 0D       		.byte	0xd
 2975 06c0 10       		.uleb128 0x10
 2976 06c1 D40B0000 		.4byte	.LASF117
 2977 06c5 0E       		.byte	0xe
 2978 06c6 10       		.uleb128 0x10
ARM GAS  C:\Users\pearlstl\AppData\Local\Temp\ccJvDP4q.s 			page 70


 2979 06c7 70080000 		.4byte	.LASF118
 2980 06cb 0F       		.byte	0xf
 2981 06cc 10       		.uleb128 0x10
 2982 06cd 86080000 		.4byte	.LASF119
 2983 06d1 10       		.byte	0x10
 2984 06d2 10       		.uleb128 0x10
 2985 06d3 9C080000 		.4byte	.LASF120
 2986 06d7 11       		.byte	0x11
 2987 06d8 10       		.uleb128 0x10
 2988 06d9 B2080000 		.4byte	.LASF121
 2989 06dd 12       		.byte	0x12
 2990 06de 10       		.uleb128 0x10
 2991 06df C8080000 		.4byte	.LASF122
 2992 06e3 13       		.byte	0x13
 2993 06e4 10       		.uleb128 0x10
 2994 06e5 AC090000 		.4byte	.LASF123
 2995 06e9 14       		.byte	0x14
 2996 06ea 10       		.uleb128 0x10
 2997 06eb C2090000 		.4byte	.LASF124
 2998 06ef 15       		.byte	0x15
 2999 06f0 10       		.uleb128 0x10
 3000 06f1 D8090000 		.4byte	.LASF125
 3001 06f5 16       		.byte	0x16
 3002 06f6 10       		.uleb128 0x10
 3003 06f7 EE090000 		.4byte	.LASF126
 3004 06fb 17       		.byte	0x17
 3005 06fc 10       		.uleb128 0x10
 3006 06fd 3F050000 		.4byte	.LASF127
 3007 0701 18       		.byte	0x18
 3008 0702 10       		.uleb128 0x10
 3009 0703 58050000 		.4byte	.LASF128
 3010 0707 19       		.byte	0x19
 3011 0708 10       		.uleb128 0x10
 3012 0709 F50C0000 		.4byte	.LASF129
 3013 070d 1A       		.byte	0x1a
 3014 070e 10       		.uleb128 0x10
 3015 070f 7B050000 		.4byte	.LASF130
 3016 0713 1B       		.byte	0x1b
 3017 0714 10       		.uleb128 0x10
 3018 0715 240D0000 		.4byte	.LASF131
 3019 0719 1C       		.byte	0x1c
 3020 071a 10       		.uleb128 0x10
 3021 071b 3D0D0000 		.4byte	.LASF132
 3022 071f 1D       		.byte	0x1d
 3023 0720 10       		.uleb128 0x10
 3024 0721 A8050000 		.4byte	.LASF133
 3025 0725 1E       		.byte	0x1e
 3026 0726 10       		.uleb128 0x10
 3027 0727 C1050000 		.4byte	.LASF134
 3028 072b 1F       		.byte	0x1f
 3029 072c 00       		.byte	0
 3030 072d 02       		.uleb128 0x2
 3031 072e C2040000 		.4byte	.LASF135
 3032 0732 0B       		.byte	0xb
 3033 0733 74       		.byte	0x74
 3034 0734 B8000000 		.4byte	0xb8
 3035 0738 06       		.uleb128 0x6
ARM GAS  C:\Users\pearlstl\AppData\Local\Temp\ccJvDP4q.s 			page 71


 3036 0739 0C       		.byte	0xc
 3037 073a 0B       		.byte	0xb
 3038 073b 78       		.byte	0x78
 3039 073c 65070000 		.4byte	0x765
 3040 0740 07       		.uleb128 0x7
 3041 0741 82060000 		.4byte	.LASF136
 3042 0745 0B       		.byte	0xb
 3043 0746 7A       		.byte	0x7a
 3044 0747 55060000 		.4byte	0x655
 3045 074b 00       		.byte	0
 3046 074c 07       		.uleb128 0x7
 3047 074d 0D040000 		.4byte	.LASF137
 3048 0751 0B       		.byte	0xb
 3049 0752 7B       		.byte	0x7b
 3050 0753 E4000000 		.4byte	0xe4
 3051 0757 04       		.byte	0x4
 3052 0758 07       		.uleb128 0x7
 3053 0759 D5040000 		.4byte	.LASF138
 3054 075d 0B       		.byte	0xb
 3055 075e 7C       		.byte	0x7c
 3056 075f 07020000 		.4byte	0x207
 3057 0763 08       		.byte	0x8
 3058 0764 00       		.byte	0
 3059 0765 02       		.uleb128 0x2
 3060 0766 BC0A0000 		.4byte	.LASF139
 3061 076a 0B       		.byte	0xb
 3062 076b 7D       		.byte	0x7d
 3063 076c 38070000 		.4byte	0x738
 3064 0770 02       		.uleb128 0x2
 3065 0771 F5010000 		.4byte	.LASF140
 3066 0775 0B       		.byte	0xb
 3067 0776 8B       		.byte	0x8b
 3068 0777 7B070000 		.4byte	0x77b
 3069 077b 0D       		.uleb128 0xd
 3070 077c 04       		.byte	0x4
 3071 077d 81070000 		.4byte	0x781
 3072 0781 0B       		.uleb128 0xb
 3073 0782 CB050000 		.4byte	0x5cb
 3074 0786 9A070000 		.4byte	0x79a
 3075 078a 0C       		.uleb128 0xc
 3076 078b 9A070000 		.4byte	0x79a
 3077 078f 0C       		.uleb128 0xc
 3078 0790 DD070000 		.4byte	0x7dd
 3079 0794 0C       		.uleb128 0xc
 3080 0795 E4070000 		.4byte	0x7e4
 3081 0799 00       		.byte	0
 3082 079a 0D       		.uleb128 0xd
 3083 079b 04       		.byte	0x4
 3084 079c A0070000 		.4byte	0x7a0
 3085 07a0 09       		.uleb128 0x9
 3086 07a1 89060000 		.4byte	.LASF142
 3087 07a5 10       		.byte	0x10
 3088 07a6 0B       		.byte	0xb
 3089 07a7 AA       		.byte	0xaa
 3090 07a8 DD070000 		.4byte	0x7dd
 3091 07ac 07       		.uleb128 0x7
 3092 07ad 87040000 		.4byte	.LASF143
ARM GAS  C:\Users\pearlstl\AppData\Local\Temp\ccJvDP4q.s 			page 72


 3093 07b1 0B       		.byte	0xb
 3094 07b2 AC       		.byte	0xac
 3095 07b3 70070000 		.4byte	0x770
 3096 07b7 00       		.byte	0
 3097 07b8 07       		.uleb128 0x7
 3098 07b9 C1070000 		.4byte	.LASF144
 3099 07bd 0B       		.byte	0xb
 3100 07be AD       		.byte	0xad
 3101 07bf EA070000 		.4byte	0x7ea
 3102 07c3 04       		.byte	0x4
 3103 07c4 07       		.uleb128 0x7
 3104 07c5 2D0A0000 		.4byte	.LASF145
 3105 07c9 0B       		.byte	0xb
 3106 07ca AE       		.byte	0xae
 3107 07cb 8E080000 		.4byte	0x88e
 3108 07cf 08       		.byte	0x8
 3109 07d0 07       		.uleb128 0x7
 3110 07d1 98030000 		.4byte	.LASF146
 3111 07d5 0B       		.byte	0xb
 3112 07d6 AF       		.byte	0xaf
 3113 07d7 CD080000 		.4byte	0x8cd
 3114 07db 0C       		.byte	0xc
 3115 07dc 00       		.byte	0
 3116 07dd 0D       		.uleb128 0xd
 3117 07de 04       		.byte	0x4
 3118 07df E3070000 		.4byte	0x7e3
 3119 07e3 16       		.uleb128 0x16
 3120 07e4 0D       		.uleb128 0xd
 3121 07e5 04       		.byte	0x4
 3122 07e6 55060000 		.4byte	0x655
 3123 07ea 02       		.uleb128 0x2
 3124 07eb FC050000 		.4byte	.LASF147
 3125 07ef 0B       		.byte	0xb
 3126 07f0 93       		.byte	0x93
 3127 07f1 F5070000 		.4byte	0x7f5
 3128 07f5 0D       		.uleb128 0xd
 3129 07f6 04       		.byte	0x4
 3130 07f7 FB070000 		.4byte	0x7fb
 3131 07fb 0B       		.uleb128 0xb
 3132 07fc CB050000 		.4byte	0x5cb
 3133 0800 0F080000 		.4byte	0x80f
 3134 0804 0C       		.uleb128 0xc
 3135 0805 9A070000 		.4byte	0x79a
 3136 0809 0C       		.uleb128 0xc
 3137 080a 0F080000 		.4byte	0x80f
 3138 080e 00       		.byte	0
 3139 080f 0D       		.uleb128 0xd
 3140 0810 04       		.byte	0x4
 3141 0811 15080000 		.4byte	0x815
 3142 0815 09       		.uleb128 0x9
 3143 0816 A80A0000 		.4byte	.LASF148
 3144 081a 24       		.byte	0x24
 3145 081b 0B       		.byte	0xb
 3146 081c B7       		.byte	0xb7
 3147 081d 8E080000 		.4byte	0x88e
 3148 0821 07       		.uleb128 0x7
 3149 0822 05040000 		.4byte	.LASF149
ARM GAS  C:\Users\pearlstl\AppData\Local\Temp\ccJvDP4q.s 			page 73


 3150 0826 0B       		.byte	0xb
 3151 0827 BA       		.byte	0xba
 3152 0828 F9080000 		.4byte	0x8f9
 3153 082c 00       		.byte	0
 3154 082d 08       		.uleb128 0x8
 3155 082e 73726300 		.ascii	"src\000"
 3156 0832 0B       		.byte	0xb
 3157 0833 BD       		.byte	0xbd
 3158 0834 DD070000 		.4byte	0x7dd
 3159 0838 04       		.byte	0x4
 3160 0839 07       		.uleb128 0x7
 3161 083a 270A0000 		.4byte	.LASF150
 3162 083e 0B       		.byte	0xb
 3163 083f C0       		.byte	0xc0
 3164 0840 FF080000 		.4byte	0x8ff
 3165 0844 08       		.byte	0x8
 3166 0845 07       		.uleb128 0x7
 3167 0846 430A0000 		.4byte	.LASF151
 3168 084a 0B       		.byte	0xb
 3169 084b C3       		.byte	0xc3
 3170 084c FB050000 		.4byte	0x5fb
 3171 0850 0C       		.byte	0xc
 3172 0851 07       		.uleb128 0x7
 3173 0852 82060000 		.4byte	.LASF136
 3174 0856 0B       		.byte	0xb
 3175 0857 C6       		.byte	0xc6
 3176 0858 55060000 		.4byte	0x655
 3177 085c 10       		.byte	0x10
 3178 085d 07       		.uleb128 0x7
 3179 085e 7A000000 		.4byte	.LASF152
 3180 0862 0B       		.byte	0xb
 3181 0863 CA       		.byte	0xca
 3182 0864 07020000 		.4byte	0x207
 3183 0868 14       		.byte	0x14
 3184 0869 07       		.uleb128 0x7
 3185 086a BC030000 		.4byte	.LASF153
 3186 086e 0B       		.byte	0xb
 3187 086f CE       		.byte	0xce
 3188 0870 E4000000 		.4byte	0xe4
 3189 0874 18       		.byte	0x18
 3190 0875 07       		.uleb128 0x7
 3191 0876 EB010000 		.4byte	.LASF154
 3192 087a 0B       		.byte	0xb
 3193 087b D2       		.byte	0xd2
 3194 087c 06030000 		.4byte	0x306
 3195 0880 1C       		.byte	0x1c
 3196 0881 07       		.uleb128 0x7
 3197 0882 35050000 		.4byte	.LASF155
 3198 0886 0B       		.byte	0xb
 3199 0887 D5       		.byte	0xd5
 3200 0888 FA000000 		.4byte	0xfa
 3201 088c 20       		.byte	0x20
 3202 088d 00       		.byte	0
 3203 088e 02       		.uleb128 0x2
 3204 088f 0D020000 		.4byte	.LASF156
 3205 0893 0B       		.byte	0xb
 3206 0894 A0       		.byte	0xa0
ARM GAS  C:\Users\pearlstl\AppData\Local\Temp\ccJvDP4q.s 			page 74


 3207 0895 99080000 		.4byte	0x899
 3208 0899 0D       		.uleb128 0xd
 3209 089a 04       		.byte	0x4
 3210 089b 9F080000 		.4byte	0x89f
 3211 089f 0B       		.uleb128 0xb
 3212 08a0 CB050000 		.4byte	0x5cb
 3213 08a4 C7080000 		.4byte	0x8c7
 3214 08a8 0C       		.uleb128 0xc
 3215 08a9 9A070000 		.4byte	0x79a
 3216 08ad 0C       		.uleb128 0xc
 3217 08ae 0F080000 		.4byte	0x80f
 3218 08b2 0C       		.uleb128 0xc
 3219 08b3 EF000000 		.4byte	0xef
 3220 08b7 0C       		.uleb128 0xc
 3221 08b8 EF000000 		.4byte	0xef
 3222 08bc 0C       		.uleb128 0xc
 3223 08bd EF000000 		.4byte	0xef
 3224 08c1 0C       		.uleb128 0xc
 3225 08c2 C7080000 		.4byte	0x8c7
 3226 08c6 00       		.byte	0
 3227 08c7 0D       		.uleb128 0xd
 3228 08c8 04       		.byte	0x4
 3229 08c9 B8000000 		.4byte	0xb8
 3230 08cd 02       		.uleb128 0x2
 3231 08ce 2E0B0000 		.4byte	.LASF157
 3232 08d2 0B       		.byte	0xb
 3233 08d3 A8       		.byte	0xa8
 3234 08d4 D8080000 		.4byte	0x8d8
 3235 08d8 0D       		.uleb128 0xd
 3236 08d9 04       		.byte	0x4
 3237 08da DE080000 		.4byte	0x8de
 3238 08de 17       		.uleb128 0x17
 3239 08df EE080000 		.4byte	0x8ee
 3240 08e3 0C       		.uleb128 0xc
 3241 08e4 9A070000 		.4byte	0x79a
 3242 08e8 0C       		.uleb128 0xc
 3243 08e9 0F080000 		.4byte	0x80f
 3244 08ed 00       		.byte	0
 3245 08ee 02       		.uleb128 0x2
 3246 08ef 0B080000 		.4byte	.LASF158
 3247 08f3 0B       		.byte	0xb
 3248 08f4 B4       		.byte	0xb4
 3249 08f5 A0070000 		.4byte	0x7a0
 3250 08f9 0D       		.uleb128 0xd
 3251 08fa 04       		.byte	0x4
 3252 08fb EE080000 		.4byte	0x8ee
 3253 08ff 0D       		.uleb128 0xd
 3254 0900 04       		.byte	0x4
 3255 0901 05090000 		.4byte	0x905
 3256 0905 0E       		.uleb128 0xe
 3257 0906 7C050000 		.4byte	0x57c
 3258 090a 02       		.uleb128 0x2
 3259 090b 66090000 		.4byte	.LASF159
 3260 090f 0B       		.byte	0xb
 3261 0910 D6       		.byte	0xd6
 3262 0911 15080000 		.4byte	0x815
 3263 0915 0F       		.uleb128 0xf
ARM GAS  C:\Users\pearlstl\AppData\Local\Temp\ccJvDP4q.s 			page 75


 3264 0916 01       		.byte	0x1
 3265 0917 42000000 		.4byte	0x42
 3266 091b 0C       		.byte	0xc
 3267 091c 25       		.byte	0x25
 3268 091d 46090000 		.4byte	0x946
 3269 0921 10       		.uleb128 0x10
 3270 0922 5E000000 		.4byte	.LASF160
 3271 0926 00       		.byte	0
 3272 0927 10       		.uleb128 0x10
 3273 0928 A4040000 		.4byte	.LASF161
 3274 092c 01       		.byte	0x1
 3275 092d 10       		.uleb128 0x10
 3276 092e 2A020000 		.4byte	.LASF162
 3277 0932 02       		.byte	0x2
 3278 0933 10       		.uleb128 0x10
 3279 0934 B7020000 		.4byte	.LASF163
 3280 0938 03       		.byte	0x3
 3281 0939 10       		.uleb128 0x10
 3282 093a 8F0B0000 		.4byte	.LASF164
 3283 093e 20       		.byte	0x20
 3284 093f 10       		.uleb128 0x10
 3285 0940 09030000 		.4byte	.LASF165
 3286 0944 21       		.byte	0x21
 3287 0945 00       		.byte	0
 3288 0946 06       		.uleb128 0x6
 3289 0947 28       		.byte	0x28
 3290 0948 0D       		.byte	0xd
 3291 0949 1F       		.byte	0x1f
 3292 094a 67090000 		.4byte	0x967
 3293 094e 07       		.uleb128 0x7
 3294 094f 9C010000 		.4byte	.LASF166
 3295 0953 0D       		.byte	0xd
 3296 0954 21       		.byte	0x21
 3297 0955 0A090000 		.4byte	0x90a
 3298 0959 00       		.byte	0
 3299 095a 07       		.uleb128 0x7
 3300 095b E9030000 		.4byte	.LASF167
 3301 095f 0D       		.byte	0xd
 3302 0960 26       		.byte	0x26
 3303 0961 D9000000 		.4byte	0xd9
 3304 0965 24       		.byte	0x24
 3305 0966 00       		.byte	0
 3306 0967 02       		.uleb128 0x2
 3307 0968 51090000 		.4byte	.LASF168
 3308 096c 0D       		.byte	0xd
 3309 096d 27       		.byte	0x27
 3310 096e 46090000 		.4byte	0x946
 3311 0972 18       		.uleb128 0x18
 3312 0973 A50C0000 		.4byte	.LASF169
 3313 0977 02       		.byte	0x2
 3314 0978 56       		.byte	0x56
 3315 0979 EF000000 		.4byte	0xef
 3316 097d 03       		.byte	0x3
 3317 097e 8E090000 		.4byte	0x98e
 3318 0982 19       		.uleb128 0x19
 3319 0983 D5060000 		.4byte	.LASF171
 3320 0987 02       		.byte	0x2
ARM GAS  C:\Users\pearlstl\AppData\Local\Temp\ccJvDP4q.s 			page 76


 3321 0988 56       		.byte	0x56
 3322 0989 8E090000 		.4byte	0x98e
 3323 098d 00       		.byte	0
 3324 098e 0D       		.uleb128 0xd
 3325 098f 04       		.byte	0x4
 3326 0990 94090000 		.4byte	0x994
 3327 0994 0E       		.uleb128 0xe
 3328 0995 46030000 		.4byte	0x346
 3329 0999 1A       		.uleb128 0x1a
 3330 099a 5A080000 		.4byte	.LASF170
 3331 099e 07       		.byte	0x7
 3332 099f 7A01     		.2byte	0x17a
 3333 09a1 E4000000 		.4byte	0xe4
 3334 09a5 03       		.byte	0x3
 3335 09a6 B7090000 		.4byte	0x9b7
 3336 09aa 1B       		.uleb128 0x1b
 3337 09ab DB030000 		.4byte	.LASF60
 3338 09af 07       		.byte	0x7
 3339 09b0 7A01     		.2byte	0x17a
 3340 09b2 E0020000 		.4byte	0x2e0
 3341 09b6 00       		.byte	0
 3342 09b7 1C       		.uleb128 0x1c
 3343 09b8 8C090000 		.4byte	.LASF172
 3344 09bc 01       		.byte	0x1
 3345 09bd 7101     		.2byte	0x171
 3346 09bf B8000000 		.4byte	0xb8
 3347 09c3 01       		.byte	0x1
 3348 09c4 E0090000 		.4byte	0x9e0
 3349 09c8 1D       		.uleb128 0x1d
 3350 09c9 636600   		.ascii	"cf\000"
 3351 09cc 01       		.byte	0x1
 3352 09cd 7101     		.2byte	0x171
 3353 09cf 2D070000 		.4byte	0x72d
 3354 09d3 1E       		.uleb128 0x1e
 3355 09d4 5E060000 		.4byte	.LASF174
 3356 09d8 01       		.byte	0x1
 3357 09d9 7301     		.2byte	0x173
 3358 09db B8000000 		.4byte	0xb8
 3359 09df 00       		.byte	0
 3360 09e0 1C       		.uleb128 0x1c
 3361 09e1 AC0B0000 		.4byte	.LASF173
 3362 09e5 01       		.byte	0x1
 3363 09e6 A801     		.2byte	0x1a8
 3364 09e8 D5010000 		.4byte	0x1d5
 3365 09ec 01       		.byte	0x1
 3366 09ed 090A0000 		.4byte	0xa09
 3367 09f1 1D       		.uleb128 0x1d
 3368 09f2 636600   		.ascii	"cf\000"
 3369 09f5 01       		.byte	0x1
 3370 09f6 A801     		.2byte	0x1a8
 3371 09f8 2D070000 		.4byte	0x72d
 3372 09fc 1E       		.uleb128 0x1e
 3373 09fd 99060000 		.4byte	.LASF175
 3374 0a01 01       		.byte	0x1
 3375 0a02 AA01     		.2byte	0x1aa
 3376 0a04 D5010000 		.4byte	0x1d5
 3377 0a08 00       		.byte	0
ARM GAS  C:\Users\pearlstl\AppData\Local\Temp\ccJvDP4q.s 			page 77


 3378 0a09 1C       		.uleb128 0x1c
 3379 0a0a 470B0000 		.4byte	.LASF176
 3380 0a0e 01       		.byte	0x1
 3381 0a0f 8E01     		.2byte	0x18e
 3382 0a11 D5010000 		.4byte	0x1d5
 3383 0a15 01       		.byte	0x1
 3384 0a16 320A0000 		.4byte	0xa32
 3385 0a1a 1D       		.uleb128 0x1d
 3386 0a1b 636600   		.ascii	"cf\000"
 3387 0a1e 01       		.byte	0x1
 3388 0a1f 8E01     		.2byte	0x18e
 3389 0a21 2D070000 		.4byte	0x72d
 3390 0a25 1E       		.uleb128 0x1e
 3391 0a26 1A030000 		.4byte	.LASF177
 3392 0a2a 01       		.byte	0x1
 3393 0a2b 9001     		.2byte	0x190
 3394 0a2d D5010000 		.4byte	0x1d5
 3395 0a31 00       		.byte	0
 3396 0a32 1F       		.uleb128 0x1f
 3397 0a33 F20A0000 		.4byte	.LASF221
 3398 0a37 02       		.byte	0x2
 3399 0a38 4C       		.byte	0x4c
 3400 0a39 03       		.byte	0x3
 3401 0a3a 550A0000 		.4byte	0xa55
 3402 0a3e 19       		.uleb128 0x19
 3403 0a3f E40C0000 		.4byte	.LASF178
 3404 0a43 02       		.byte	0x2
 3405 0a44 4C       		.byte	0x4c
 3406 0a45 550A0000 		.4byte	0xa55
 3407 0a49 20       		.uleb128 0x20
 3408 0a4a 73726300 		.ascii	"src\000"
 3409 0a4e 02       		.byte	0x2
 3410 0a4f 4C       		.byte	0x4c
 3411 0a50 8E090000 		.4byte	0x98e
 3412 0a54 00       		.byte	0
 3413 0a55 0D       		.uleb128 0xd
 3414 0a56 04       		.byte	0x4
 3415 0a57 46030000 		.4byte	0x346
 3416 0a5b 1A       		.uleb128 0x1a
 3417 0a5c 71020000 		.4byte	.LASF179
 3418 0a60 01       		.byte	0x1
 3419 0a61 1C02     		.2byte	0x21c
 3420 0a63 CB050000 		.4byte	0x5cb
 3421 0a67 01       		.byte	0x1
 3422 0a68 430B0000 		.4byte	0xb43
 3423 0a6c 1B       		.uleb128 0x1b
 3424 0a6d 7E070000 		.4byte	.LASF180
 3425 0a71 01       		.byte	0x1
 3426 0a72 1C02     		.2byte	0x21c
 3427 0a74 8E090000 		.4byte	0x98e
 3428 0a78 1B       		.uleb128 0x1b
 3429 0a79 7D060000 		.4byte	.LASF181
 3430 0a7d 01       		.byte	0x1
 3431 0a7e 1C02     		.2byte	0x21c
 3432 0a80 8E090000 		.4byte	0x98e
 3433 0a84 1D       		.uleb128 0x1d
 3434 0a85 73726300 		.ascii	"src\000"
ARM GAS  C:\Users\pearlstl\AppData\Local\Temp\ccJvDP4q.s 			page 78


 3435 0a89 01       		.byte	0x1
 3436 0a8a 1C02     		.2byte	0x21c
 3437 0a8c DD070000 		.4byte	0x7dd
 3438 0a90 1B       		.uleb128 0x1b
 3439 0a91 270A0000 		.4byte	.LASF150
 3440 0a95 01       		.byte	0x1
 3441 0a96 1D02     		.2byte	0x21d
 3442 0a98 FF080000 		.4byte	0x8ff
 3443 0a9c 1B       		.uleb128 0x1b
 3444 0a9d FD080000 		.4byte	.LASF182
 3445 0aa1 01       		.byte	0x1
 3446 0aa2 1D02     		.2byte	0x21d
 3447 0aa4 EC020000 		.4byte	0x2ec
 3448 0aa8 1E       		.uleb128 0x1e
 3449 0aa9 3A0A0000 		.4byte	.LASF183
 3450 0aad 01       		.byte	0x1
 3451 0aae 2002     		.2byte	0x220
 3452 0ab0 46030000 		.4byte	0x346
 3453 0ab4 1E       		.uleb128 0x1e
 3454 0ab5 B8070000 		.4byte	.LASF184
 3455 0ab9 01       		.byte	0x1
 3456 0aba 2102     		.2byte	0x221
 3457 0abc D5010000 		.4byte	0x1d5
 3458 0ac0 21       		.uleb128 0x21
 3459 0ac1 6F706100 		.ascii	"opa\000"
 3460 0ac5 01       		.byte	0x1
 3461 0ac6 2802     		.2byte	0x228
 3462 0ac8 EC020000 		.4byte	0x2ec
 3463 0acc 1E       		.uleb128 0x1e
 3464 0acd 5D020000 		.4byte	.LASF185
 3465 0ad1 01       		.byte	0x1
 3466 0ad2 2B02     		.2byte	0x22b
 3467 0ad4 430B0000 		.4byte	0xb43
 3468 0ad8 1E       		.uleb128 0x1e
 3469 0ad9 8E070000 		.4byte	.LASF186
 3470 0add 01       		.byte	0x1
 3471 0ade 2F02     		.2byte	0x22f
 3472 0ae0 D5010000 		.4byte	0x1d5
 3473 0ae4 1E       		.uleb128 0x1e
 3474 0ae5 29080000 		.4byte	.LASF187
 3475 0ae9 01       		.byte	0x1
 3476 0aea 3002     		.2byte	0x230
 3477 0aec D5010000 		.4byte	0x1d5
 3478 0af0 22       		.uleb128 0x22
 3479 0af1 1E       		.uleb128 0x1e
 3480 0af2 2B040000 		.4byte	.LASF61
 3481 0af6 01       		.byte	0x1
 3482 0af7 3F02     		.2byte	0x23f
 3483 0af9 EF000000 		.4byte	0xef
 3484 0afd 21       		.uleb128 0x21
 3485 0afe 62756600 		.ascii	"buf\000"
 3486 0b02 01       		.byte	0x1
 3487 0b03 4102     		.2byte	0x241
 3488 0b05 C7080000 		.4byte	0x8c7
 3489 0b09 1E       		.uleb128 0x1e
 3490 0b0a 4C090000 		.4byte	.LASF85
 3491 0b0e 01       		.byte	0x1
ARM GAS  C:\Users\pearlstl\AppData\Local\Temp\ccJvDP4q.s 			page 79


 3492 0b0f 4302     		.2byte	0x243
 3493 0b11 46030000 		.4byte	0x346
 3494 0b15 21       		.uleb128 0x21
 3495 0b16 7800     		.ascii	"x\000"
 3496 0b18 01       		.byte	0x1
 3497 0b19 4602     		.2byte	0x246
 3498 0b1b EF000000 		.4byte	0xef
 3499 0b1f 21       		.uleb128 0x21
 3500 0b20 7900     		.ascii	"y\000"
 3501 0b22 01       		.byte	0x1
 3502 0b23 4702     		.2byte	0x247
 3503 0b25 EF000000 		.4byte	0xef
 3504 0b29 21       		.uleb128 0x21
 3505 0b2a 726F7700 		.ascii	"row\000"
 3506 0b2e 01       		.byte	0x1
 3507 0b2f 4802     		.2byte	0x248
 3508 0b31 EF000000 		.4byte	0xef
 3509 0b35 1E       		.uleb128 0x1e
 3510 0b36 39080000 		.4byte	.LASF188
 3511 0b3a 01       		.byte	0x1
 3512 0b3b 4902     		.2byte	0x249
 3513 0b3d CB050000 		.4byte	0x5cb
 3514 0b41 00       		.byte	0
 3515 0b42 00       		.byte	0
 3516 0b43 0D       		.uleb128 0xd
 3517 0b44 04       		.byte	0x4
 3518 0b45 67090000 		.4byte	0x967
 3519 0b49 23       		.uleb128 0x23
 3520 0b4a 73030000 		.4byte	.LASF195
 3521 0b4e 01       		.byte	0x1
 3522 0b4f 30       		.byte	0x30
 3523 0b50 00000000 		.4byte	.LFB31
 3524 0b54 2C020000 		.4byte	.LFE31-.LFB31
 3525 0b58 01       		.uleb128 0x1
 3526 0b59 9C       		.byte	0x9c
 3527 0b5a 1C0F0000 		.4byte	0xf1c
 3528 0b5e 24       		.uleb128 0x24
 3529 0b5f 7E070000 		.4byte	.LASF180
 3530 0b63 01       		.byte	0x1
 3531 0b64 30       		.byte	0x30
 3532 0b65 8E090000 		.4byte	0x98e
 3533 0b69 00000000 		.4byte	.LLST0
 3534 0b6d 24       		.uleb128 0x24
 3535 0b6e 7D060000 		.4byte	.LASF181
 3536 0b72 01       		.byte	0x1
 3537 0b73 30       		.byte	0x30
 3538 0b74 8E090000 		.4byte	0x98e
 3539 0b78 80000000 		.4byte	.LLST1
 3540 0b7c 25       		.uleb128 0x25
 3541 0b7d 73726300 		.ascii	"src\000"
 3542 0b81 01       		.byte	0x1
 3543 0b82 30       		.byte	0x30
 3544 0b83 DD070000 		.4byte	0x7dd
 3545 0b87 EE000000 		.4byte	.LLST2
 3546 0b8b 24       		.uleb128 0x24
 3547 0b8c 270A0000 		.4byte	.LASF150
 3548 0b90 01       		.byte	0x1
ARM GAS  C:\Users\pearlstl\AppData\Local\Temp\ccJvDP4q.s 			page 80


 3549 0b91 30       		.byte	0x30
 3550 0b92 FF080000 		.4byte	0x8ff
 3551 0b96 3E010000 		.4byte	.LLST3
 3552 0b9a 24       		.uleb128 0x24
 3553 0b9b FD080000 		.4byte	.LASF182
 3554 0b9f 01       		.byte	0x1
 3555 0ba0 31       		.byte	0x31
 3556 0ba1 EC020000 		.4byte	0x2ec
 3557 0ba5 83010000 		.4byte	.LLST4
 3558 0ba9 26       		.uleb128 0x26
 3559 0baa 72657300 		.ascii	"res\000"
 3560 0bae 01       		.byte	0x1
 3561 0baf 3A       		.byte	0x3a
 3562 0bb0 CB050000 		.4byte	0x5cb
 3563 0bb4 27       		.uleb128 0x27
 3564 0bb5 5B0A0000 		.4byte	0xa5b
 3565 0bb9 16000000 		.4byte	.LBB50
 3566 0bbd 00000000 		.4byte	.Ldebug_ranges0+0
 3567 0bc1 01       		.byte	0x1
 3568 0bc2 3B       		.byte	0x3b
 3569 0bc3 560E0000 		.4byte	0xe56
 3570 0bc7 28       		.uleb128 0x28
 3571 0bc8 9C0A0000 		.4byte	0xa9c
 3572 0bcc AF010000 		.4byte	.LLST5
 3573 0bd0 28       		.uleb128 0x28
 3574 0bd1 900A0000 		.4byte	0xa90
 3575 0bd5 DA010000 		.4byte	.LLST6
 3576 0bd9 28       		.uleb128 0x28
 3577 0bda 840A0000 		.4byte	0xa84
 3578 0bde 11020000 		.4byte	.LLST7
 3579 0be2 28       		.uleb128 0x28
 3580 0be3 780A0000 		.4byte	0xa78
 3581 0be7 4B020000 		.4byte	.LLST8
 3582 0beb 28       		.uleb128 0x28
 3583 0bec 6C0A0000 		.4byte	0xa6c
 3584 0bf0 A0020000 		.4byte	.LLST9
 3585 0bf4 29       		.uleb128 0x29
 3586 0bf5 00000000 		.4byte	.Ldebug_ranges0+0
 3587 0bf9 2A       		.uleb128 0x2a
 3588 0bfa A80A0000 		.4byte	0xaa8
 3589 0bfe 02       		.uleb128 0x2
 3590 0bff 91       		.byte	0x91
 3591 0c00 48       		.sleb128 -56
 3592 0c01 2B       		.uleb128 0x2b
 3593 0c02 B40A0000 		.4byte	0xab4
 3594 0c06 EE020000 		.4byte	.LLST10
 3595 0c0a 2B       		.uleb128 0x2b
 3596 0c0b C00A0000 		.4byte	0xac0
 3597 0c0f 01030000 		.4byte	.LLST11
 3598 0c13 2B       		.uleb128 0x2b
 3599 0c14 CC0A0000 		.4byte	0xacc
 3600 0c18 2A030000 		.4byte	.LLST12
 3601 0c1c 2A       		.uleb128 0x2a
 3602 0c1d D80A0000 		.4byte	0xad8
 3603 0c21 01       		.uleb128 0x1
 3604 0c22 5B       		.byte	0x5b
 3605 0c23 2C       		.uleb128 0x2c
ARM GAS  C:\Users\pearlstl\AppData\Local\Temp\ccJvDP4q.s 			page 81


 3606 0c24 E40A0000 		.4byte	0xae4
 3607 0c28 2D       		.uleb128 0x2d
 3608 0c29 E0090000 		.4byte	0x9e0
 3609 0c2d 7C000000 		.4byte	.LBB52
 3610 0c31 28000000 		.4byte	.Ldebug_ranges0+0x28
 3611 0c35 01       		.byte	0x1
 3612 0c36 3002     		.2byte	0x230
 3613 0c38 550C0000 		.4byte	0xc55
 3614 0c3c 28       		.uleb128 0x28
 3615 0c3d F1090000 		.4byte	0x9f1
 3616 0c41 81030000 		.4byte	.LLST13
 3617 0c45 29       		.uleb128 0x29
 3618 0c46 28000000 		.4byte	.Ldebug_ranges0+0x28
 3619 0c4a 2B       		.uleb128 0x2b
 3620 0c4b FC090000 		.4byte	0x9fc
 3621 0c4f C1030000 		.4byte	.LLST14
 3622 0c53 00       		.byte	0
 3623 0c54 00       		.byte	0
 3624 0c55 2E       		.uleb128 0x2e
 3625 0c56 B6000000 		.4byte	.LBB55
 3626 0c5a D4000000 		.4byte	.LBE55-.LBB55
 3627 0c5e 810D0000 		.4byte	0xd81
 3628 0c62 2C       		.uleb128 0x2c
 3629 0c63 F10A0000 		.4byte	0xaf1
 3630 0c67 2B       		.uleb128 0x2b
 3631 0c68 FD0A0000 		.4byte	0xafd
 3632 0c6c E1030000 		.4byte	.LLST15
 3633 0c70 2A       		.uleb128 0x2a
 3634 0c71 090B0000 		.4byte	0xb09
 3635 0c75 02       		.uleb128 0x2
 3636 0c76 91       		.byte	0x91
 3637 0c77 50       		.sleb128 -48
 3638 0c78 2B       		.uleb128 0x2b
 3639 0c79 150B0000 		.4byte	0xb15
 3640 0c7d F5030000 		.4byte	.LLST16
 3641 0c81 2B       		.uleb128 0x2b
 3642 0c82 1F0B0000 		.4byte	0xb1f
 3643 0c86 0A040000 		.4byte	.LLST17
 3644 0c8a 2B       		.uleb128 0x2b
 3645 0c8b 290B0000 		.4byte	0xb29
 3646 0c8f 45040000 		.4byte	.LLST18
 3647 0c93 2B       		.uleb128 0x2b
 3648 0c94 350B0000 		.4byte	0xb35
 3649 0c98 58040000 		.4byte	.LLST19
 3650 0c9c 2F       		.uleb128 0x2f
 3651 0c9d 72090000 		.4byte	0x972
 3652 0ca1 B6000000 		.4byte	.LBB56
 3653 0ca5 10000000 		.4byte	.LBE56-.LBB56
 3654 0ca9 01       		.byte	0x1
 3655 0caa 3F02     		.2byte	0x23f
 3656 0cac C30C0000 		.4byte	0xcc3
 3657 0cb0 28       		.uleb128 0x28
 3658 0cb1 82090000 		.4byte	0x982
 3659 0cb5 6B040000 		.4byte	.LLST20
 3660 0cb9 28       		.uleb128 0x28
 3661 0cba 82090000 		.4byte	0x982
 3662 0cbe 6B040000 		.4byte	.LLST20
ARM GAS  C:\Users\pearlstl\AppData\Local\Temp\ccJvDP4q.s 			page 82


 3663 0cc2 00       		.byte	0
 3664 0cc3 2F       		.uleb128 0x2f
 3665 0cc4 320A0000 		.4byte	0xa32
 3666 0cc8 D0000000 		.4byte	.LBB58
 3667 0ccc 0A000000 		.4byte	.LBE58-.LBB58
 3668 0cd0 01       		.byte	0x1
 3669 0cd1 4402     		.2byte	0x244
 3670 0cd3 EA0C0000 		.4byte	0xcea
 3671 0cd7 28       		.uleb128 0x28
 3672 0cd8 490A0000 		.4byte	0xa49
 3673 0cdc 8B040000 		.4byte	.LLST22
 3674 0ce0 28       		.uleb128 0x28
 3675 0ce1 3E0A0000 		.4byte	0xa3e
 3676 0ce5 9E040000 		.4byte	.LLST23
 3677 0ce9 00       		.byte	0
 3678 0cea 30       		.uleb128 0x30
 3679 0ceb CE000000 		.4byte	.LVL21
 3680 0cef 94160000 		.4byte	0x1694
 3681 0cf3 010D0000 		.4byte	0xd01
 3682 0cf7 31       		.uleb128 0x31
 3683 0cf8 01       		.uleb128 0x1
 3684 0cf9 50       		.byte	0x50
 3685 0cfa 05       		.uleb128 0x5
 3686 0cfb 91       		.byte	0x91
 3687 0cfc 44       		.sleb128 -60
 3688 0cfd 06       		.byte	0x6
 3689 0cfe 32       		.byte	0x32
 3690 0cff 24       		.byte	0x24
 3691 0d00 00       		.byte	0
 3692 0d01 30       		.uleb128 0x30
 3693 0d02 E2000000 		.4byte	.LVL25
 3694 0d06 9F160000 		.4byte	0x169f
 3695 0d0a 1A0D0000 		.4byte	0xd1a
 3696 0d0e 31       		.uleb128 0x31
 3697 0d0f 01       		.uleb128 0x1
 3698 0d10 50       		.byte	0x50
 3699 0d11 02       		.uleb128 0x2
 3700 0d12 91       		.byte	0x91
 3701 0d13 50       		.sleb128 -48
 3702 0d14 31       		.uleb128 0x31
 3703 0d15 01       		.uleb128 0x1
 3704 0d16 51       		.byte	0x51
 3705 0d17 01       		.uleb128 0x1
 3706 0d18 31       		.byte	0x31
 3707 0d19 00       		.byte	0
 3708 0d1a 30       		.uleb128 0x30
 3709 0d1b 38010000 		.4byte	.LVL29
 3710 0d1f AA160000 		.4byte	0x16aa
 3711 0d23 390D0000 		.4byte	0xd39
 3712 0d27 31       		.uleb128 0x31
 3713 0d28 02       		.uleb128 0x2
 3714 0d29 7D       		.byte	0x7d
 3715 0d2a 00       		.sleb128 0
 3716 0d2b 02       		.uleb128 0x2
 3717 0d2c 77       		.byte	0x77
 3718 0d2d 00       		.sleb128 0
 3719 0d2e 31       		.uleb128 0x31
ARM GAS  C:\Users\pearlstl\AppData\Local\Temp\ccJvDP4q.s 			page 83


 3720 0d2f 02       		.uleb128 0x2
 3721 0d30 7D       		.byte	0x7d
 3722 0d31 04       		.sleb128 4
 3723 0d32 05       		.uleb128 0x5
 3724 0d33 91       		.byte	0x91
 3725 0d34 AC7F     		.sleb128 -84
 3726 0d36 94       		.byte	0x94
 3727 0d37 01       		.byte	0x1
 3728 0d38 00       		.byte	0
 3729 0d39 30       		.uleb128 0x30
 3730 0d3a 70010000 		.4byte	.LVL32
 3731 0d3e B5160000 		.4byte	0x16b5
 3732 0d42 700D0000 		.4byte	0xd70
 3733 0d46 31       		.uleb128 0x31
 3734 0d47 01       		.uleb128 0x1
 3735 0d48 50       		.byte	0x50
 3736 0d49 04       		.uleb128 0x4
 3737 0d4a 91       		.byte	0x91
 3738 0d4b B07F     		.sleb128 -80
 3739 0d4d 06       		.byte	0x6
 3740 0d4e 31       		.uleb128 0x31
 3741 0d4f 01       		.uleb128 0x1
 3742 0d50 51       		.byte	0x51
 3743 0d51 05       		.uleb128 0x5
 3744 0d52 91       		.byte	0x91
 3745 0d53 B47F     		.sleb128 -76
 3746 0d55 94       		.byte	0x94
 3747 0d56 02       		.byte	0x2
 3748 0d57 31       		.uleb128 0x31
 3749 0d58 01       		.uleb128 0x1
 3750 0d59 52       		.byte	0x52
 3751 0d5a 07       		.uleb128 0x7
 3752 0d5b 74       		.byte	0x74
 3753 0d5c 00       		.sleb128 0
 3754 0d5d 91       		.byte	0x91
 3755 0d5e B87F     		.sleb128 -72
 3756 0d60 06       		.byte	0x6
 3757 0d61 22       		.byte	0x22
 3758 0d62 31       		.uleb128 0x31
 3759 0d63 01       		.uleb128 0x1
 3760 0d64 53       		.byte	0x53
 3761 0d65 02       		.uleb128 0x2
 3762 0d66 7B       		.byte	0x7b
 3763 0d67 00       		.sleb128 0
 3764 0d68 31       		.uleb128 0x31
 3765 0d69 02       		.uleb128 0x2
 3766 0d6a 7D       		.byte	0x7d
 3767 0d6b 00       		.sleb128 0
 3768 0d6c 02       		.uleb128 0x2
 3769 0d6d 76       		.byte	0x76
 3770 0d6e 00       		.sleb128 0
 3771 0d6f 00       		.byte	0
 3772 0d70 32       		.uleb128 0x32
 3773 0d71 8A010000 		.4byte	.LVL36
 3774 0d75 C1160000 		.4byte	0x16c1
 3775 0d79 31       		.uleb128 0x31
 3776 0d7a 01       		.uleb128 0x1
ARM GAS  C:\Users\pearlstl\AppData\Local\Temp\ccJvDP4q.s 			page 84


 3777 0d7b 50       		.byte	0x50
 3778 0d7c 02       		.uleb128 0x2
 3779 0d7d 77       		.byte	0x77
 3780 0d7e 00       		.sleb128 0
 3781 0d7f 00       		.byte	0
 3782 0d80 00       		.byte	0
 3783 0d81 30       		.uleb128 0x30
 3784 0d82 22000000 		.4byte	.LVL5
 3785 0d86 CD160000 		.4byte	0x16cd
 3786 0d8a A10D0000 		.4byte	0xda1
 3787 0d8e 31       		.uleb128 0x31
 3788 0d8f 01       		.uleb128 0x1
 3789 0d90 50       		.byte	0x50
 3790 0d91 02       		.uleb128 0x2
 3791 0d92 76       		.byte	0x76
 3792 0d93 00       		.sleb128 0
 3793 0d94 31       		.uleb128 0x31
 3794 0d95 01       		.uleb128 0x1
 3795 0d96 51       		.byte	0x51
 3796 0d97 02       		.uleb128 0x2
 3797 0d98 78       		.byte	0x78
 3798 0d99 00       		.sleb128 0
 3799 0d9a 31       		.uleb128 0x31
 3800 0d9b 01       		.uleb128 0x1
 3801 0d9c 52       		.byte	0x52
 3802 0d9d 02       		.uleb128 0x2
 3803 0d9e 74       		.byte	0x74
 3804 0d9f 00       		.sleb128 0
 3805 0da0 00       		.byte	0
 3806 0da1 30       		.uleb128 0x30
 3807 0da2 46000000 		.4byte	.LVL9
 3808 0da6 D8160000 		.4byte	0x16d8
 3809 0daa BB0D0000 		.4byte	0xdbb
 3810 0dae 31       		.uleb128 0x31
 3811 0daf 01       		.uleb128 0x1
 3812 0db0 50       		.byte	0x50
 3813 0db1 02       		.uleb128 0x2
 3814 0db2 77       		.byte	0x77
 3815 0db3 00       		.sleb128 0
 3816 0db4 31       		.uleb128 0x31
 3817 0db5 01       		.uleb128 0x1
 3818 0db6 51       		.byte	0x51
 3819 0db7 02       		.uleb128 0x2
 3820 0db8 75       		.byte	0x75
 3821 0db9 00       		.sleb128 0
 3822 0dba 00       		.byte	0
 3823 0dbb 30       		.uleb128 0x30
 3824 0dbc 94000000 		.4byte	.LVL17
 3825 0dc0 E3160000 		.4byte	0x16e3
 3826 0dc4 DB0D0000 		.4byte	0xddb
 3827 0dc8 31       		.uleb128 0x31
 3828 0dc9 01       		.uleb128 0x1
 3829 0dca 50       		.byte	0x50
 3830 0dcb 02       		.uleb128 0x2
 3831 0dcc 74       		.byte	0x74
 3832 0dcd 00       		.sleb128 0
 3833 0dce 31       		.uleb128 0x31
ARM GAS  C:\Users\pearlstl\AppData\Local\Temp\ccJvDP4q.s 			page 85


 3834 0dcf 01       		.uleb128 0x1
 3835 0dd0 51       		.byte	0x51
 3836 0dd1 02       		.uleb128 0x2
 3837 0dd2 78       		.byte	0x78
 3838 0dd3 00       		.sleb128 0
 3839 0dd4 31       		.uleb128 0x31
 3840 0dd5 01       		.uleb128 0x1
 3841 0dd6 53       		.byte	0x53
 3842 0dd7 02       		.uleb128 0x2
 3843 0dd8 09       		.byte	0x9
 3844 0dd9 FF       		.byte	0xff
 3845 0dda 00       		.byte	0
 3846 0ddb 30       		.uleb128 0x30
 3847 0ddc B0000000 		.4byte	.LVL18
 3848 0de0 EE160000 		.4byte	0x16ee
 3849 0de4 190E0000 		.4byte	0xe19
 3850 0de8 31       		.uleb128 0x31
 3851 0de9 01       		.uleb128 0x1
 3852 0dea 50       		.byte	0x50
 3853 0deb 02       		.uleb128 0x2
 3854 0dec 74       		.byte	0x74
 3855 0ded 00       		.sleb128 0
 3856 0dee 31       		.uleb128 0x31
 3857 0def 01       		.uleb128 0x1
 3858 0df0 51       		.byte	0x51
 3859 0df1 02       		.uleb128 0x2
 3860 0df2 78       		.byte	0x78
 3861 0df3 00       		.sleb128 0
 3862 0df4 31       		.uleb128 0x31
 3863 0df5 01       		.uleb128 0x1
 3864 0df6 53       		.byte	0x53
 3865 0df7 02       		.uleb128 0x2
 3866 0df8 09       		.byte	0x9
 3867 0df9 FF       		.byte	0xff
 3868 0dfa 31       		.uleb128 0x31
 3869 0dfb 02       		.uleb128 0x2
 3870 0dfc 7D       		.byte	0x7d
 3871 0dfd 04       		.sleb128 4
 3872 0dfe 01       		.uleb128 0x1
 3873 0dff 30       		.byte	0x30
 3874 0e00 31       		.uleb128 0x31
 3875 0e01 02       		.uleb128 0x2
 3876 0e02 7D       		.byte	0x7d
 3877 0e03 08       		.sleb128 8
 3878 0e04 01       		.uleb128 0x1
 3879 0e05 30       		.byte	0x30
 3880 0e06 31       		.uleb128 0x31
 3881 0e07 02       		.uleb128 0x2
 3882 0e08 7D       		.byte	0x7d
 3883 0e09 0C       		.sleb128 12
 3884 0e0a 01       		.uleb128 0x1
 3885 0e0b 30       		.byte	0x30
 3886 0e0c 31       		.uleb128 0x31
 3887 0e0d 02       		.uleb128 0x2
 3888 0e0e 7D       		.byte	0x7d
 3889 0e0f 10       		.sleb128 16
 3890 0e10 01       		.uleb128 0x1
ARM GAS  C:\Users\pearlstl\AppData\Local\Temp\ccJvDP4q.s 			page 86


 3891 0e11 30       		.byte	0x30
 3892 0e12 31       		.uleb128 0x31
 3893 0e13 02       		.uleb128 0x2
 3894 0e14 7D       		.byte	0x7d
 3895 0e15 14       		.sleb128 20
 3896 0e16 01       		.uleb128 0x1
 3897 0e17 30       		.byte	0x30
 3898 0e18 00       		.byte	0
 3899 0e19 32       		.uleb128 0x32
 3900 0e1a F6010000 		.4byte	.LVL44
 3901 0e1e AA160000 		.4byte	0x16aa
 3902 0e22 31       		.uleb128 0x31
 3903 0e23 01       		.uleb128 0x1
 3904 0e24 50       		.byte	0x50
 3905 0e25 02       		.uleb128 0x2
 3906 0e26 74       		.byte	0x74
 3907 0e27 00       		.sleb128 0
 3908 0e28 31       		.uleb128 0x31
 3909 0e29 01       		.uleb128 0x1
 3910 0e2a 51       		.byte	0x51
 3911 0e2b 02       		.uleb128 0x2
 3912 0e2c 78       		.byte	0x78
 3913 0e2d 00       		.sleb128 0
 3914 0e2e 31       		.uleb128 0x31
 3915 0e2f 01       		.uleb128 0x1
 3916 0e30 53       		.byte	0x53
 3917 0e31 02       		.uleb128 0x2
 3918 0e32 79       		.byte	0x79
 3919 0e33 00       		.sleb128 0
 3920 0e34 31       		.uleb128 0x31
 3921 0e35 02       		.uleb128 0x2
 3922 0e36 7D       		.byte	0x7d
 3923 0e37 00       		.sleb128 0
 3924 0e38 02       		.uleb128 0x2
 3925 0e39 7B       		.byte	0x7b
 3926 0e3a 00       		.sleb128 0
 3927 0e3b 31       		.uleb128 0x31
 3928 0e3c 02       		.uleb128 0x2
 3929 0e3d 7D       		.byte	0x7d
 3930 0e3e 04       		.sleb128 4
 3931 0e3f 05       		.uleb128 0x5
 3932 0e40 91       		.byte	0x91
 3933 0e41 AC7F     		.sleb128 -84
 3934 0e43 94       		.byte	0x94
 3935 0e44 01       		.byte	0x1
 3936 0e45 31       		.uleb128 0x31
 3937 0e46 02       		.uleb128 0x2
 3938 0e47 7D       		.byte	0x7d
 3939 0e48 08       		.sleb128 8
 3940 0e49 02       		.uleb128 0x2
 3941 0e4a 75       		.byte	0x75
 3942 0e4b 00       		.sleb128 0
 3943 0e4c 31       		.uleb128 0x31
 3944 0e4d 02       		.uleb128 0x2
 3945 0e4e 7D       		.byte	0x7d
 3946 0e4f 0C       		.sleb128 12
 3947 0e50 02       		.uleb128 0x2
ARM GAS  C:\Users\pearlstl\AppData\Local\Temp\ccJvDP4q.s 			page 87


 3948 0e51 76       		.byte	0x76
 3949 0e52 00       		.sleb128 0
 3950 0e53 00       		.byte	0
 3951 0e54 00       		.byte	0
 3952 0e55 00       		.byte	0
 3953 0e56 30       		.uleb128 0x30
 3954 0e57 96010000 		.4byte	.LVL37
 3955 0e5b E3160000 		.4byte	0x16e3
 3956 0e5f 760E0000 		.4byte	0xe76
 3957 0e63 31       		.uleb128 0x31
 3958 0e64 01       		.uleb128 0x1
 3959 0e65 50       		.byte	0x50
 3960 0e66 02       		.uleb128 0x2
 3961 0e67 74       		.byte	0x74
 3962 0e68 00       		.sleb128 0
 3963 0e69 31       		.uleb128 0x31
 3964 0e6a 01       		.uleb128 0x1
 3965 0e6b 51       		.byte	0x51
 3966 0e6c 02       		.uleb128 0x2
 3967 0e6d 78       		.byte	0x78
 3968 0e6e 00       		.sleb128 0
 3969 0e6f 31       		.uleb128 0x31
 3970 0e70 01       		.uleb128 0x1
 3971 0e71 53       		.byte	0x53
 3972 0e72 02       		.uleb128 0x2
 3973 0e73 09       		.byte	0x9
 3974 0e74 FF       		.byte	0xff
 3975 0e75 00       		.byte	0
 3976 0e76 30       		.uleb128 0x30
 3977 0e77 B2010000 		.4byte	.LVL38
 3978 0e7b EE160000 		.4byte	0x16ee
 3979 0e7f BE0E0000 		.4byte	0xebe
 3980 0e83 31       		.uleb128 0x31
 3981 0e84 01       		.uleb128 0x1
 3982 0e85 50       		.byte	0x50
 3983 0e86 02       		.uleb128 0x2
 3984 0e87 74       		.byte	0x74
 3985 0e88 00       		.sleb128 0
 3986 0e89 31       		.uleb128 0x31
 3987 0e8a 01       		.uleb128 0x1
 3988 0e8b 51       		.byte	0x51
 3989 0e8c 02       		.uleb128 0x2
 3990 0e8d 78       		.byte	0x78
 3991 0e8e 00       		.sleb128 0
 3992 0e8f 31       		.uleb128 0x31
 3993 0e90 01       		.uleb128 0x1
 3994 0e91 53       		.byte	0x53
 3995 0e92 02       		.uleb128 0x2
 3996 0e93 09       		.byte	0x9
 3997 0e94 FF       		.byte	0xff
 3998 0e95 31       		.uleb128 0x31
 3999 0e96 02       		.uleb128 0x2
 4000 0e97 7D       		.byte	0x7d
 4001 0e98 00       		.sleb128 0
 4002 0e99 05       		.uleb128 0x5
 4003 0e9a 03       		.byte	0x3
 4004 0e9b 00000000 		.4byte	.LC2
ARM GAS  C:\Users\pearlstl\AppData\Local\Temp\ccJvDP4q.s 			page 88


 4005 0e9f 31       		.uleb128 0x31
 4006 0ea0 02       		.uleb128 0x2
 4007 0ea1 7D       		.byte	0x7d
 4008 0ea2 04       		.sleb128 4
 4009 0ea3 01       		.uleb128 0x1
 4010 0ea4 30       		.byte	0x30
 4011 0ea5 31       		.uleb128 0x31
 4012 0ea6 02       		.uleb128 0x2
 4013 0ea7 7D       		.byte	0x7d
 4014 0ea8 08       		.sleb128 8
 4015 0ea9 01       		.uleb128 0x1
 4016 0eaa 30       		.byte	0x30
 4017 0eab 31       		.uleb128 0x31
 4018 0eac 02       		.uleb128 0x2
 4019 0ead 7D       		.byte	0x7d
 4020 0eae 0C       		.sleb128 12
 4021 0eaf 01       		.uleb128 0x1
 4022 0eb0 30       		.byte	0x30
 4023 0eb1 31       		.uleb128 0x31
 4024 0eb2 02       		.uleb128 0x2
 4025 0eb3 7D       		.byte	0x7d
 4026 0eb4 10       		.sleb128 16
 4027 0eb5 01       		.uleb128 0x1
 4028 0eb6 30       		.byte	0x30
 4029 0eb7 31       		.uleb128 0x31
 4030 0eb8 02       		.uleb128 0x2
 4031 0eb9 7D       		.byte	0x7d
 4032 0eba 14       		.sleb128 20
 4033 0ebb 01       		.uleb128 0x1
 4034 0ebc 30       		.byte	0x30
 4035 0ebd 00       		.byte	0
 4036 0ebe 30       		.uleb128 0x30
 4037 0ebf 04020000 		.4byte	.LVL48
 4038 0ec3 E3160000 		.4byte	0x16e3
 4039 0ec7 D20E0000 		.4byte	0xed2
 4040 0ecb 31       		.uleb128 0x31
 4041 0ecc 01       		.uleb128 0x1
 4042 0ecd 53       		.byte	0x53
 4043 0ece 02       		.uleb128 0x2
 4044 0ecf 09       		.byte	0x9
 4045 0ed0 FF       		.byte	0xff
 4046 0ed1 00       		.byte	0
 4047 0ed2 32       		.uleb128 0x32
 4048 0ed3 1E020000 		.4byte	.LVL49
 4049 0ed7 EE160000 		.4byte	0x16ee
 4050 0edb 31       		.uleb128 0x31
 4051 0edc 01       		.uleb128 0x1
 4052 0edd 50       		.byte	0x50
 4053 0ede 02       		.uleb128 0x2
 4054 0edf 74       		.byte	0x74
 4055 0ee0 00       		.sleb128 0
 4056 0ee1 31       		.uleb128 0x31
 4057 0ee2 01       		.uleb128 0x1
 4058 0ee3 51       		.byte	0x51
 4059 0ee4 02       		.uleb128 0x2
 4060 0ee5 78       		.byte	0x78
 4061 0ee6 00       		.sleb128 0
ARM GAS  C:\Users\pearlstl\AppData\Local\Temp\ccJvDP4q.s 			page 89


 4062 0ee7 31       		.uleb128 0x31
 4063 0ee8 01       		.uleb128 0x1
 4064 0ee9 53       		.byte	0x53
 4065 0eea 02       		.uleb128 0x2
 4066 0eeb 09       		.byte	0x9
 4067 0eec FF       		.byte	0xff
 4068 0eed 31       		.uleb128 0x31
 4069 0eee 02       		.uleb128 0x2
 4070 0eef 7D       		.byte	0x7d
 4071 0ef0 00       		.sleb128 0
 4072 0ef1 05       		.uleb128 0x5
 4073 0ef2 03       		.byte	0x3
 4074 0ef3 00000000 		.4byte	.LC2
 4075 0ef7 31       		.uleb128 0x31
 4076 0ef8 02       		.uleb128 0x2
 4077 0ef9 7D       		.byte	0x7d
 4078 0efa 04       		.sleb128 4
 4079 0efb 02       		.uleb128 0x2
 4080 0efc 77       		.byte	0x77
 4081 0efd 00       		.sleb128 0
 4082 0efe 31       		.uleb128 0x31
 4083 0eff 02       		.uleb128 0x2
 4084 0f00 7D       		.byte	0x7d
 4085 0f01 08       		.sleb128 8
 4086 0f02 02       		.uleb128 0x2
 4087 0f03 77       		.byte	0x77
 4088 0f04 00       		.sleb128 0
 4089 0f05 31       		.uleb128 0x31
 4090 0f06 02       		.uleb128 0x2
 4091 0f07 7D       		.byte	0x7d
 4092 0f08 0C       		.sleb128 12
 4093 0f09 02       		.uleb128 0x2
 4094 0f0a 77       		.byte	0x77
 4095 0f0b 00       		.sleb128 0
 4096 0f0c 31       		.uleb128 0x31
 4097 0f0d 02       		.uleb128 0x2
 4098 0f0e 7D       		.byte	0x7d
 4099 0f0f 10       		.sleb128 16
 4100 0f10 02       		.uleb128 0x2
 4101 0f11 77       		.byte	0x77
 4102 0f12 00       		.sleb128 0
 4103 0f13 31       		.uleb128 0x31
 4104 0f14 02       		.uleb128 0x2
 4105 0f15 7D       		.byte	0x7d
 4106 0f16 14       		.sleb128 20
 4107 0f17 02       		.uleb128 0x2
 4108 0f18 77       		.byte	0x77
 4109 0f19 00       		.sleb128 0
 4110 0f1a 00       		.byte	0
 4111 0f1b 00       		.byte	0
 4112 0f1c 33       		.uleb128 0x33
 4113 0f1d EE040000 		.4byte	.LASF191
 4114 0f21 01       		.byte	0x1
 4115 0f22 4F       		.byte	0x4f
 4116 0f23 E0020000 		.4byte	0x2e0
 4117 0f27 00000000 		.4byte	.LFB32
 4118 0f2b 14010000 		.4byte	.LFE32-.LFB32
ARM GAS  C:\Users\pearlstl\AppData\Local\Temp\ccJvDP4q.s 			page 90


 4119 0f2f 01       		.uleb128 0x1
 4120 0f30 9C       		.byte	0x9c
 4121 0f31 27100000 		.4byte	0x1027
 4122 0f35 25       		.uleb128 0x25
 4123 0f36 64736300 		.ascii	"dsc\000"
 4124 0f3a 01       		.byte	0x1
 4125 0f3b 4F       		.byte	0x4f
 4126 0f3c 27100000 		.4byte	0x1027
 4127 0f40 BE040000 		.4byte	.LLST24
 4128 0f44 25       		.uleb128 0x25
 4129 0f45 7800     		.ascii	"x\000"
 4130 0f47 01       		.byte	0x1
 4131 0f48 4F       		.byte	0x4f
 4132 0f49 EF000000 		.4byte	0xef
 4133 0f4d DF040000 		.4byte	.LLST25
 4134 0f51 25       		.uleb128 0x25
 4135 0f52 7900     		.ascii	"y\000"
 4136 0f54 01       		.byte	0x1
 4137 0f55 4F       		.byte	0x4f
 4138 0f56 EF000000 		.4byte	0xef
 4139 0f5a 17050000 		.4byte	.LLST26
 4140 0f5e 24       		.uleb128 0x24
 4141 0f5f 270A0000 		.4byte	.LASF150
 4142 0f63 01       		.byte	0x1
 4143 0f64 4F       		.byte	0x4f
 4144 0f65 FF080000 		.4byte	0x8ff
 4145 0f69 41050000 		.4byte	.LLST27
 4146 0f6d 34       		.uleb128 0x34
 4147 0f6e 9C020000 		.4byte	.LASF189
 4148 0f72 01       		.byte	0x1
 4149 0f73 51       		.byte	0x51
 4150 0f74 E0020000 		.4byte	0x2e0
 4151 0f78 02       		.uleb128 0x2
 4152 0f79 91       		.byte	0x91
 4153 0f7a 64       		.sleb128 -28
 4154 0f7b 35       		.uleb128 0x35
 4155 0f7c A1030000 		.4byte	.LASF190
 4156 0f80 01       		.byte	0x1
 4157 0f81 62       		.byte	0x62
 4158 0f82 C7080000 		.4byte	0x8c7
 4159 0f86 DF050000 		.4byte	.LLST28
 4160 0f8a 36       		.uleb128 0x36
 4161 0f8b 40000000 		.4byte	.Ldebug_ranges0+0x40
 4162 0f8f A90F0000 		.4byte	0xfa9
 4163 0f93 37       		.uleb128 0x37
 4164 0f94 5E060000 		.4byte	.LASF174
 4165 0f98 01       		.byte	0x1
 4166 0f99 66       		.byte	0x66
 4167 0f9a B8000000 		.4byte	0xb8
 4168 0f9e 26       		.uleb128 0x26
 4169 0f9f 707800   		.ascii	"px\000"
 4170 0fa2 01       		.byte	0x1
 4171 0fa3 67       		.byte	0x67
 4172 0fa4 E4000000 		.4byte	0xe4
 4173 0fa8 00       		.byte	0
 4174 0fa9 2E       		.uleb128 0x2e
 4175 0faa 94000000 		.4byte	.LBB69
ARM GAS  C:\Users\pearlstl\AppData\Local\Temp\ccJvDP4q.s 			page 91


 4176 0fae 22000000 		.4byte	.LBE69-.LBB69
 4177 0fb2 CC0F0000 		.4byte	0xfcc
 4178 0fb6 26       		.uleb128 0x26
 4179 0fb7 62697400 		.ascii	"bit\000"
 4180 0fbb 01       		.byte	0x1
 4181 0fbc 6E       		.byte	0x6e
 4182 0fbd B8000000 		.4byte	0xb8
 4183 0fc1 26       		.uleb128 0x26
 4184 0fc2 707800   		.ascii	"px\000"
 4185 0fc5 01       		.byte	0x1
 4186 0fc6 74       		.byte	0x74
 4187 0fc7 E4000000 		.4byte	0xe4
 4188 0fcb 00       		.byte	0
 4189 0fcc 2E       		.uleb128 0x2e
 4190 0fcd B8000000 		.4byte	.LBB70
 4191 0fd1 22000000 		.4byte	.LBE70-.LBB70
 4192 0fd5 EF0F0000 		.4byte	0xfef
 4193 0fd9 26       		.uleb128 0x26
 4194 0fda 62697400 		.ascii	"bit\000"
 4195 0fde 01       		.byte	0x1
 4196 0fdf 78       		.byte	0x78
 4197 0fe0 B8000000 		.4byte	0xb8
 4198 0fe4 26       		.uleb128 0x26
 4199 0fe5 707800   		.ascii	"px\000"
 4200 0fe8 01       		.byte	0x1
 4201 0fe9 7E       		.byte	0x7e
 4202 0fea E4000000 		.4byte	0xe4
 4203 0fee 00       		.byte	0
 4204 0fef 2E       		.uleb128 0x2e
 4205 0ff0 DC000000 		.4byte	.LBB71
 4206 0ff4 24000000 		.4byte	.LBE71-.LBB71
 4207 0ff8 12100000 		.4byte	0x1012
 4208 0ffc 26       		.uleb128 0x26
 4209 0ffd 62697400 		.ascii	"bit\000"
 4210 1001 01       		.byte	0x1
 4211 1002 82       		.byte	0x82
 4212 1003 B8000000 		.4byte	0xb8
 4213 1007 26       		.uleb128 0x26
 4214 1008 707800   		.ascii	"px\000"
 4215 100b 01       		.byte	0x1
 4216 100c 88       		.byte	0x88
 4217 100d E4000000 		.4byte	0xe4
 4218 1011 00       		.byte	0
 4219 1012 38       		.uleb128 0x38
 4220 1013 02010000 		.4byte	.LBB72
 4221 1017 0C000000 		.4byte	.LBE72-.LBB72
 4222 101b 26       		.uleb128 0x26
 4223 101c 707800   		.ascii	"px\000"
 4224 101f 01       		.byte	0x1
 4225 1020 8C       		.byte	0x8c
 4226 1021 E4000000 		.4byte	0xe4
 4227 1025 00       		.byte	0
 4228 1026 00       		.byte	0
 4229 1027 0D       		.uleb128 0xd
 4230 1028 04       		.byte	0x4
 4231 1029 65070000 		.4byte	0x765
 4232 102d 33       		.uleb128 0x33
ARM GAS  C:\Users\pearlstl\AppData\Local\Temp\ccJvDP4q.s 			page 92


 4233 102e 3C060000 		.4byte	.LASF192
 4234 1032 01       		.byte	0x1
 4235 1033 9F       		.byte	0x9f
 4236 1034 EC020000 		.4byte	0x2ec
 4237 1038 00000000 		.4byte	.LFB33
 4238 103c 00010000 		.4byte	.LFE33-.LFB33
 4239 1040 01       		.uleb128 0x1
 4240 1041 9C       		.byte	0x9c
 4241 1042 5D110000 		.4byte	0x115d
 4242 1046 25       		.uleb128 0x25
 4243 1047 64736300 		.ascii	"dsc\000"
 4244 104b 01       		.byte	0x1
 4245 104c 9F       		.byte	0x9f
 4246 104d 27100000 		.4byte	0x1027
 4247 1051 33060000 		.4byte	.LLST29
 4248 1055 25       		.uleb128 0x25
 4249 1056 7800     		.ascii	"x\000"
 4250 1058 01       		.byte	0x1
 4251 1059 9F       		.byte	0x9f
 4252 105a EF000000 		.4byte	0xef
 4253 105e B8060000 		.4byte	.LLST30
 4254 1062 25       		.uleb128 0x25
 4255 1063 7900     		.ascii	"y\000"
 4256 1065 01       		.byte	0x1
 4257 1066 9F       		.byte	0x9f
 4258 1067 EF000000 		.4byte	0xef
 4259 106b 14070000 		.4byte	.LLST31
 4260 106f 35       		.uleb128 0x35
 4261 1070 A1030000 		.4byte	.LASF190
 4262 1074 01       		.byte	0x1
 4263 1075 B1       		.byte	0xb1
 4264 1076 C7080000 		.4byte	0x8c7
 4265 107a 5E070000 		.4byte	.LLST32
 4266 107e 36       		.uleb128 0x36
 4267 107f 58000000 		.4byte	.Ldebug_ranges0+0x58
 4268 1083 96100000 		.4byte	0x1096
 4269 1087 39       		.uleb128 0x39
 4270 1088 707800   		.ascii	"px\000"
 4271 108b 01       		.byte	0x1
 4272 108c DA       		.byte	0xda
 4273 108d E4000000 		.4byte	0xe4
 4274 1091 E8070000 		.4byte	.LLST33
 4275 1095 00       		.byte	0
 4276 1096 2E       		.uleb128 0x2e
 4277 1097 5A000000 		.4byte	.LBB75
 4278 109b 22000000 		.4byte	.LBE75-.LBB75
 4279 109f CC100000 		.4byte	0x10cc
 4280 10a3 39       		.uleb128 0x39
 4281 10a4 62697400 		.ascii	"bit\000"
 4282 10a8 01       		.byte	0x1
 4283 10a9 B7       		.byte	0xb7
 4284 10aa B8000000 		.4byte	0xb8
 4285 10ae 0F080000 		.4byte	.LLST34
 4286 10b2 39       		.uleb128 0x39
 4287 10b3 707800   		.ascii	"px\000"
 4288 10b6 01       		.byte	0x1
 4289 10b7 BD       		.byte	0xbd
ARM GAS  C:\Users\pearlstl\AppData\Local\Temp\ccJvDP4q.s 			page 93


 4290 10b8 E4000000 		.4byte	0xe4
 4291 10bc 26080000 		.4byte	.LLST35
 4292 10c0 37       		.uleb128 0x37
 4293 10c1 1C080000 		.4byte	.LASF193
 4294 10c5 01       		.byte	0x1
 4295 10c6 BE       		.byte	0xbe
 4296 10c7 B8000000 		.4byte	0xb8
 4297 10cb 00       		.byte	0
 4298 10cc 2E       		.uleb128 0x2e
 4299 10cd 82000000 		.4byte	.LBB76
 4300 10d1 2C000000 		.4byte	.LBE76-.LBB76
 4301 10d5 08110000 		.4byte	0x1108
 4302 10d9 34       		.uleb128 0x34
 4303 10da AE070000 		.4byte	.LASF194
 4304 10de 01       		.byte	0x1
 4305 10df C1       		.byte	0xc1
 4306 10e0 6D110000 		.4byte	0x116d
 4307 10e4 02       		.uleb128 0x2
 4308 10e5 91       		.byte	0x91
 4309 10e6 60       		.sleb128 -32
 4310 10e7 26       		.uleb128 0x26
 4311 10e8 62697400 		.ascii	"bit\000"
 4312 10ec 01       		.byte	0x1
 4313 10ed C3       		.byte	0xc3
 4314 10ee B8000000 		.4byte	0xb8
 4315 10f2 26       		.uleb128 0x26
 4316 10f3 707800   		.ascii	"px\000"
 4317 10f6 01       		.byte	0x1
 4318 10f7 C9       		.byte	0xc9
 4319 10f8 E4000000 		.4byte	0xe4
 4320 10fc 37       		.uleb128 0x37
 4321 10fd 1C080000 		.4byte	.LASF193
 4322 1101 01       		.byte	0x1
 4323 1102 CA       		.byte	0xca
 4324 1103 B8000000 		.4byte	0xb8
 4325 1107 00       		.byte	0
 4326 1108 2E       		.uleb128 0x2e
 4327 1109 B4000000 		.4byte	.LBB77
 4328 110d 0A000000 		.4byte	.LBE77-.LBB77
 4329 1111 24110000 		.4byte	0x1124
 4330 1115 39       		.uleb128 0x39
 4331 1116 707800   		.ascii	"px\000"
 4332 1119 01       		.byte	0x1
 4333 111a B4       		.byte	0xb4
 4334 111b E4000000 		.4byte	0xe4
 4335 111f 4D080000 		.4byte	.LLST36
 4336 1123 00       		.byte	0
 4337 1124 38       		.uleb128 0x38
 4338 1125 C4000000 		.4byte	.LBB78
 4339 1129 3C000000 		.4byte	.LBE78-.LBB78
 4340 112d 34       		.uleb128 0x34
 4341 112e AE070000 		.4byte	.LASF194
 4342 1132 01       		.byte	0x1
 4343 1133 CD       		.byte	0xcd
 4344 1134 82110000 		.4byte	0x1182
 4345 1138 02       		.uleb128 0x2
 4346 1139 91       		.byte	0x91
ARM GAS  C:\Users\pearlstl\AppData\Local\Temp\ccJvDP4q.s 			page 94


 4347 113a 60       		.sleb128 -32
 4348 113b 26       		.uleb128 0x26
 4349 113c 62697400 		.ascii	"bit\000"
 4350 1140 01       		.byte	0x1
 4351 1141 D0       		.byte	0xd0
 4352 1142 B8000000 		.4byte	0xb8
 4353 1146 26       		.uleb128 0x26
 4354 1147 707800   		.ascii	"px\000"
 4355 114a 01       		.byte	0x1
 4356 114b D6       		.byte	0xd6
 4357 114c E4000000 		.4byte	0xe4
 4358 1150 37       		.uleb128 0x37
 4359 1151 1C080000 		.4byte	.LASF193
 4360 1155 01       		.byte	0x1
 4361 1156 D7       		.byte	0xd7
 4362 1157 B8000000 		.4byte	0xb8
 4363 115b 00       		.byte	0
 4364 115c 00       		.byte	0
 4365 115d 3A       		.uleb128 0x3a
 4366 115e 0D020000 		.4byte	0x20d
 4367 1162 6D110000 		.4byte	0x116d
 4368 1166 3B       		.uleb128 0x3b
 4369 1167 F8020000 		.4byte	0x2f8
 4370 116b 03       		.byte	0x3
 4371 116c 00       		.byte	0
 4372 116d 0E       		.uleb128 0xe
 4373 116e 5D110000 		.4byte	0x115d
 4374 1172 3A       		.uleb128 0x3a
 4375 1173 0D020000 		.4byte	0x20d
 4376 1177 82110000 		.4byte	0x1182
 4377 117b 3B       		.uleb128 0x3b
 4378 117c F8020000 		.4byte	0x2f8
 4379 1180 0F       		.byte	0xf
 4380 1181 00       		.byte	0
 4381 1182 0E       		.uleb128 0xe
 4382 1183 72110000 		.4byte	0x1172
 4383 1187 23       		.uleb128 0x23
 4384 1188 B4060000 		.4byte	.LASF196
 4385 118c 01       		.byte	0x1
 4386 118d E8       		.byte	0xe8
 4387 118e 00000000 		.4byte	.LFB34
 4388 1192 18010000 		.4byte	.LFE34-.LFB34
 4389 1196 01       		.uleb128 0x1
 4390 1197 9C       		.byte	0x9c
 4391 1198 D3120000 		.4byte	0x12d3
 4392 119c 25       		.uleb128 0x25
 4393 119d 64736300 		.ascii	"dsc\000"
 4394 11a1 01       		.byte	0x1
 4395 11a2 E8       		.byte	0xe8
 4396 11a3 27100000 		.4byte	0x1027
 4397 11a7 76080000 		.4byte	.LLST37
 4398 11ab 25       		.uleb128 0x25
 4399 11ac 7800     		.ascii	"x\000"
 4400 11ae 01       		.byte	0x1
 4401 11af E8       		.byte	0xe8
 4402 11b0 EF000000 		.4byte	0xef
 4403 11b4 FB080000 		.4byte	.LLST38
ARM GAS  C:\Users\pearlstl\AppData\Local\Temp\ccJvDP4q.s 			page 95


 4404 11b8 25       		.uleb128 0x25
 4405 11b9 7900     		.ascii	"y\000"
 4406 11bb 01       		.byte	0x1
 4407 11bc E8       		.byte	0xe8
 4408 11bd EF000000 		.4byte	0xef
 4409 11c1 A8090000 		.4byte	.LLST39
 4410 11c5 3C       		.uleb128 0x3c
 4411 11c6 6300     		.ascii	"c\000"
 4412 11c8 01       		.byte	0x1
 4413 11c9 E8       		.byte	0xe8
 4414 11ca E0020000 		.4byte	0x2e0
 4415 11ce 02       		.uleb128 0x2
 4416 11cf 91       		.byte	0x91
 4417 11d0 6C       		.sleb128 -20
 4418 11d1 35       		.uleb128 0x35
 4419 11d2 A1030000 		.4byte	.LASF190
 4420 11d6 01       		.byte	0x1
 4421 11d7 EA       		.byte	0xea
 4422 11d8 C7080000 		.4byte	0x8c7
 4423 11dc 140A0000 		.4byte	.LLST40
 4424 11e0 2E       		.uleb128 0x2e
 4425 11e1 2A000000 		.4byte	.LBB79
 4426 11e5 10000000 		.4byte	.LBE79-.LBB79
 4427 11e9 FD110000 		.4byte	0x11fd
 4428 11ed 3D       		.uleb128 0x3d
 4429 11ee 707800   		.ascii	"px\000"
 4430 11f1 01       		.byte	0x1
 4431 11f2 1901     		.2byte	0x119
 4432 11f4 E4000000 		.4byte	0xe4
 4433 11f8 920A0000 		.4byte	.LLST41
 4434 11fc 00       		.byte	0
 4435 11fd 36       		.uleb128 0x36
 4436 11fe 70000000 		.4byte	.Ldebug_ranges0+0x70
 4437 1202 1C120000 		.4byte	0x121c
 4438 1206 37       		.uleb128 0x37
 4439 1207 5E060000 		.4byte	.LASF174
 4440 120b 01       		.byte	0x1
 4441 120c ED       		.byte	0xed
 4442 120d B8000000 		.4byte	0xb8
 4443 1211 26       		.uleb128 0x26
 4444 1212 707800   		.ascii	"px\000"
 4445 1215 01       		.byte	0x1
 4446 1216 EE       		.byte	0xee
 4447 1217 E4000000 		.4byte	0xe4
 4448 121b 00       		.byte	0
 4449 121c 36       		.uleb128 0x36
 4450 121d 88000000 		.4byte	.Ldebug_ranges0+0x88
 4451 1221 55120000 		.4byte	0x1255
 4452 1225 37       		.uleb128 0x37
 4453 1226 5E060000 		.4byte	.LASF174
 4454 122a 01       		.byte	0x1
 4455 122b F1       		.byte	0xf1
 4456 122c B8000000 		.4byte	0xb8
 4457 1230 39       		.uleb128 0x39
 4458 1231 707800   		.ascii	"px\000"
 4459 1234 01       		.byte	0x1
 4460 1235 F2       		.byte	0xf2
ARM GAS  C:\Users\pearlstl\AppData\Local\Temp\ccJvDP4q.s 			page 96


 4461 1236 E4000000 		.4byte	0xe4
 4462 123a D90A0000 		.4byte	.LLST42
 4463 123e 32       		.uleb128 0x32
 4464 123f 66000000 		.4byte	.LVL120
 4465 1243 F9160000 		.4byte	0x16f9
 4466 1247 31       		.uleb128 0x31
 4467 1248 01       		.uleb128 0x1
 4468 1249 51       		.byte	0x51
 4469 124a 02       		.uleb128 0x2
 4470 124b 91       		.byte	0x91
 4471 124c 6C       		.sleb128 -20
 4472 124d 31       		.uleb128 0x31
 4473 124e 01       		.uleb128 0x1
 4474 124f 52       		.byte	0x52
 4475 1250 02       		.uleb128 0x2
 4476 1251 76       		.byte	0x76
 4477 1252 00       		.sleb128 0
 4478 1253 00       		.byte	0
 4479 1254 00       		.byte	0
 4480 1255 2E       		.uleb128 0x2e
 4481 1256 86000000 		.4byte	.LBB84
 4482 125a 2E000000 		.4byte	.LBE84-.LBB84
 4483 125e 80120000 		.4byte	0x1280
 4484 1262 39       		.uleb128 0x39
 4485 1263 62697400 		.ascii	"bit\000"
 4486 1267 01       		.byte	0x1
 4487 1268 F7       		.byte	0xf7
 4488 1269 B8000000 		.4byte	0xb8
 4489 126d 4A0B0000 		.4byte	.LLST43
 4490 1271 39       		.uleb128 0x39
 4491 1272 707800   		.ascii	"px\000"
 4492 1275 01       		.byte	0x1
 4493 1276 FD       		.byte	0xfd
 4494 1277 E4000000 		.4byte	0xe4
 4495 127b 610B0000 		.4byte	.LLST44
 4496 127f 00       		.byte	0
 4497 1280 2E       		.uleb128 0x2e
 4498 1281 B6000000 		.4byte	.LBB85
 4499 1285 1E000000 		.4byte	.LBE85-.LBB85
 4500 1289 AD120000 		.4byte	0x12ad
 4501 128d 3D       		.uleb128 0x3d
 4502 128e 62697400 		.ascii	"bit\000"
 4503 1292 01       		.byte	0x1
 4504 1293 0201     		.2byte	0x102
 4505 1295 B8000000 		.4byte	0xb8
 4506 1299 290C0000 		.4byte	.LLST45
 4507 129d 3D       		.uleb128 0x3d
 4508 129e 707800   		.ascii	"px\000"
 4509 12a1 01       		.byte	0x1
 4510 12a2 0801     		.2byte	0x108
 4511 12a4 E4000000 		.4byte	0xe4
 4512 12a8 420C0000 		.4byte	.LLST46
 4513 12ac 00       		.byte	0
 4514 12ad 29       		.uleb128 0x29
 4515 12ae A8000000 		.4byte	.Ldebug_ranges0+0xa8
 4516 12b2 3D       		.uleb128 0x3d
 4517 12b3 62697400 		.ascii	"bit\000"
ARM GAS  C:\Users\pearlstl\AppData\Local\Temp\ccJvDP4q.s 			page 97


 4518 12b7 01       		.byte	0x1
 4519 12b8 0E01     		.2byte	0x10e
 4520 12ba B8000000 		.4byte	0xb8
 4521 12be 0A0D0000 		.4byte	.LLST47
 4522 12c2 3D       		.uleb128 0x3d
 4523 12c3 707800   		.ascii	"px\000"
 4524 12c6 01       		.byte	0x1
 4525 12c7 1401     		.2byte	0x114
 4526 12c9 E4000000 		.4byte	0xe4
 4527 12cd 230D0000 		.4byte	.LLST48
 4528 12d1 00       		.byte	0
 4529 12d2 00       		.byte	0
 4530 12d3 3E       		.uleb128 0x3e
 4531 12d4 8D0C0000 		.4byte	.LASF197
 4532 12d8 01       		.byte	0x1
 4533 12d9 2501     		.2byte	0x125
 4534 12db 00000000 		.4byte	.LFB35
 4535 12df E8000000 		.4byte	.LFE35-.LFB35
 4536 12e3 01       		.uleb128 0x1
 4537 12e4 9C       		.byte	0x9c
 4538 12e5 F7130000 		.4byte	0x13f7
 4539 12e9 3F       		.uleb128 0x3f
 4540 12ea 64736300 		.ascii	"dsc\000"
 4541 12ee 01       		.byte	0x1
 4542 12ef 2501     		.2byte	0x125
 4543 12f1 27100000 		.4byte	0x1027
 4544 12f5 EB0D0000 		.4byte	.LLST49
 4545 12f9 3F       		.uleb128 0x3f
 4546 12fa 7800     		.ascii	"x\000"
 4547 12fc 01       		.byte	0x1
 4548 12fd 2501     		.2byte	0x125
 4549 12ff EF000000 		.4byte	0xef
 4550 1303 700E0000 		.4byte	.LLST50
 4551 1307 3F       		.uleb128 0x3f
 4552 1308 7900     		.ascii	"y\000"
 4553 130a 01       		.byte	0x1
 4554 130b 2501     		.2byte	0x125
 4555 130d EF000000 		.4byte	0xef
 4556 1311 F90E0000 		.4byte	.LLST51
 4557 1315 3F       		.uleb128 0x3f
 4558 1316 6F706100 		.ascii	"opa\000"
 4559 131a 01       		.byte	0x1
 4560 131b 2501     		.2byte	0x125
 4561 131d EC020000 		.4byte	0x2ec
 4562 1321 7E0F0000 		.4byte	.LLST52
 4563 1325 40       		.uleb128 0x40
 4564 1326 A1030000 		.4byte	.LASF190
 4565 132a 01       		.byte	0x1
 4566 132b 2701     		.2byte	0x127
 4567 132d C7080000 		.4byte	0x8c7
 4568 1331 E90F0000 		.4byte	.LLST53
 4569 1335 2E       		.uleb128 0x2e
 4570 1336 1E000000 		.4byte	.LBB89
 4571 133a 0C000000 		.4byte	.LBE89-.LBB89
 4572 133e 52130000 		.4byte	0x1352
 4573 1342 3D       		.uleb128 0x3d
 4574 1343 707800   		.ascii	"px\000"
ARM GAS  C:\Users\pearlstl\AppData\Local\Temp\ccJvDP4q.s 			page 98


 4575 1346 01       		.byte	0x1
 4576 1347 4F01     		.2byte	0x14f
 4577 1349 E4000000 		.4byte	0xe4
 4578 134d 28100000 		.4byte	.LLST54
 4579 1351 00       		.byte	0
 4580 1352 36       		.uleb128 0x36
 4581 1353 C0000000 		.4byte	.Ldebug_ranges0+0xc0
 4582 1357 77130000 		.4byte	0x1377
 4583 135b 1E       		.uleb128 0x1e
 4584 135c 5E060000 		.4byte	.LASF174
 4585 1360 01       		.byte	0x1
 4586 1361 2A01     		.2byte	0x12a
 4587 1363 B8000000 		.4byte	0xb8
 4588 1367 3D       		.uleb128 0x3d
 4589 1368 707800   		.ascii	"px\000"
 4590 136b 01       		.byte	0x1
 4591 136c 2B01     		.2byte	0x12b
 4592 136e E4000000 		.4byte	0xe4
 4593 1372 6F100000 		.4byte	.LLST55
 4594 1376 00       		.byte	0
 4595 1377 2E       		.uleb128 0x2e
 4596 1378 56000000 		.4byte	.LBB91
 4597 137c 20000000 		.4byte	.LBE91-.LBB91
 4598 1380 A4130000 		.4byte	0x13a4
 4599 1384 3D       		.uleb128 0x3d
 4600 1385 62697400 		.ascii	"bit\000"
 4601 1389 01       		.byte	0x1
 4602 138a 3A01     		.2byte	0x13a
 4603 138c B8000000 		.4byte	0xb8
 4604 1390 E0100000 		.4byte	.LLST56
 4605 1394 3D       		.uleb128 0x3d
 4606 1395 707800   		.ascii	"px\000"
 4607 1398 01       		.byte	0x1
 4608 1399 4001     		.2byte	0x140
 4609 139b E4000000 		.4byte	0xe4
 4610 139f F9100000 		.4byte	.LLST57
 4611 13a3 00       		.byte	0
 4612 13a4 36       		.uleb128 0x36
 4613 13a5 D8000000 		.4byte	.Ldebug_ranges0+0xd8
 4614 13a9 CD130000 		.4byte	0x13cd
 4615 13ad 3D       		.uleb128 0x3d
 4616 13ae 62697400 		.ascii	"bit\000"
 4617 13b2 01       		.byte	0x1
 4618 13b3 4501     		.2byte	0x145
 4619 13b5 B8000000 		.4byte	0xb8
 4620 13b9 C1110000 		.4byte	.LLST58
 4621 13bd 3D       		.uleb128 0x3d
 4622 13be 707800   		.ascii	"px\000"
 4623 13c1 01       		.byte	0x1
 4624 13c2 4B01     		.2byte	0x14b
 4625 13c4 E4000000 		.4byte	0xe4
 4626 13c8 DA110000 		.4byte	.LLST59
 4627 13cc 00       		.byte	0
 4628 13cd 38       		.uleb128 0x38
 4629 13ce 90000000 		.4byte	.LBB94
 4630 13d2 2C000000 		.4byte	.LBE94-.LBB94
 4631 13d6 3D       		.uleb128 0x3d
ARM GAS  C:\Users\pearlstl\AppData\Local\Temp\ccJvDP4q.s 			page 99


 4632 13d7 62697400 		.ascii	"bit\000"
 4633 13db 01       		.byte	0x1
 4634 13dc 2F01     		.2byte	0x12f
 4635 13de B8000000 		.4byte	0xb8
 4636 13e2 A2120000 		.4byte	.LLST60
 4637 13e6 3D       		.uleb128 0x3d
 4638 13e7 707800   		.ascii	"px\000"
 4639 13ea 01       		.byte	0x1
 4640 13eb 3501     		.2byte	0x135
 4641 13ed E4000000 		.4byte	0xe4
 4642 13f1 B9120000 		.4byte	.LLST61
 4643 13f5 00       		.byte	0
 4644 13f6 00       		.byte	0
 4645 13f7 3E       		.uleb128 0x3e
 4646 13f8 E8020000 		.4byte	.LASF198
 4647 13fc 01       		.byte	0x1
 4648 13fd 5E01     		.2byte	0x15e
 4649 13ff 00000000 		.4byte	.LFB36
 4650 1403 4E000000 		.4byte	.LFE36-.LFB36
 4651 1407 01       		.uleb128 0x1
 4652 1408 9C       		.byte	0x9c
 4653 1409 56140000 		.4byte	0x1456
 4654 140d 3F       		.uleb128 0x3f
 4655 140e 64736300 		.ascii	"dsc\000"
 4656 1412 01       		.byte	0x1
 4657 1413 5E01     		.2byte	0x15e
 4658 1415 27100000 		.4byte	0x1027
 4659 1419 81130000 		.4byte	.LLST62
 4660 141d 41       		.uleb128 0x41
 4661 141e 696400   		.ascii	"id\000"
 4662 1421 01       		.byte	0x1
 4663 1422 5E01     		.2byte	0x15e
 4664 1424 B8000000 		.4byte	0xb8
 4665 1428 01       		.uleb128 0x1
 4666 1429 51       		.byte	0x51
 4667 142a 41       		.uleb128 0x41
 4668 142b 6300     		.ascii	"c\000"
 4669 142d 01       		.byte	0x1
 4670 142e 5E01     		.2byte	0x15e
 4671 1430 E0020000 		.4byte	0x2e0
 4672 1434 01       		.uleb128 0x1
 4673 1435 52       		.byte	0x52
 4674 1436 42       		.uleb128 0x42
 4675 1437 63333200 		.ascii	"c32\000"
 4676 143b 01       		.byte	0x1
 4677 143c 6601     		.2byte	0x166
 4678 143e D5020000 		.4byte	0x2d5
 4679 1442 02       		.uleb128 0x2
 4680 1443 91       		.byte	0x91
 4681 1444 74       		.sleb128 -12
 4682 1445 3D       		.uleb128 0x3d
 4683 1446 62756600 		.ascii	"buf\000"
 4684 144a 01       		.byte	0x1
 4685 144b 6801     		.2byte	0x168
 4686 144d C7080000 		.4byte	0x8c7
 4687 1451 AD130000 		.4byte	.LLST63
 4688 1455 00       		.byte	0
ARM GAS  C:\Users\pearlstl\AppData\Local\Temp\ccJvDP4q.s 			page 100


 4689 1456 43       		.uleb128 0x43
 4690 1457 B7090000 		.4byte	0x9b7
 4691 145b 00000000 		.4byte	.LFB37
 4692 145f 14000000 		.4byte	.LFE37-.LFB37
 4693 1463 01       		.uleb128 0x1
 4694 1464 9C       		.byte	0x9c
 4695 1465 7C140000 		.4byte	0x147c
 4696 1469 28       		.uleb128 0x28
 4697 146a C8090000 		.4byte	0x9c8
 4698 146e D0130000 		.4byte	.LLST64
 4699 1472 2B       		.uleb128 0x2b
 4700 1473 D3090000 		.4byte	0x9d3
 4701 1477 F1130000 		.4byte	.LLST65
 4702 147b 00       		.byte	0
 4703 147c 43       		.uleb128 0x43
 4704 147d 090A0000 		.4byte	0xa09
 4705 1481 00000000 		.4byte	.LFB38
 4706 1485 1A000000 		.4byte	.LFE38-.LFB38
 4707 1489 01       		.uleb128 0x1
 4708 148a 9C       		.byte	0x9c
 4709 148b A2140000 		.4byte	0x14a2
 4710 148f 28       		.uleb128 0x28
 4711 1490 1A0A0000 		.4byte	0xa1a
 4712 1494 10140000 		.4byte	.LLST66
 4713 1498 2B       		.uleb128 0x2b
 4714 1499 250A0000 		.4byte	0xa25
 4715 149d 4A140000 		.4byte	.LLST67
 4716 14a1 00       		.byte	0
 4717 14a2 43       		.uleb128 0x43
 4718 14a3 E0090000 		.4byte	0x9e0
 4719 14a7 00000000 		.4byte	.LFB39
 4720 14ab 1A000000 		.4byte	.LFE39-.LFB39
 4721 14af 01       		.uleb128 0x1
 4722 14b0 9C       		.byte	0x9c
 4723 14b1 C8140000 		.4byte	0x14c8
 4724 14b5 28       		.uleb128 0x28
 4725 14b6 F1090000 		.4byte	0x9f1
 4726 14ba 69140000 		.4byte	.LLST68
 4727 14be 2B       		.uleb128 0x2b
 4728 14bf FC090000 		.4byte	0x9fc
 4729 14c3 A3140000 		.4byte	.LLST69
 4730 14c7 00       		.byte	0
 4731 14c8 44       		.uleb128 0x44
 4732 14c9 83000000 		.4byte	.LASF199
 4733 14cd 01       		.byte	0x1
 4734 14ce C501     		.2byte	0x1c5
 4735 14d0 FB050000 		.4byte	0x5fb
 4736 14d4 00000000 		.4byte	.LFB40
 4737 14d8 20000000 		.4byte	.LFE40-.LFB40
 4738 14dc 01       		.uleb128 0x1
 4739 14dd 9C       		.byte	0x9c
 4740 14de 10150000 		.4byte	0x1510
 4741 14e2 3F       		.uleb128 0x3f
 4742 14e3 73726300 		.ascii	"src\000"
 4743 14e7 01       		.byte	0x1
 4744 14e8 C501     		.2byte	0x1c5
 4745 14ea DD070000 		.4byte	0x7dd
ARM GAS  C:\Users\pearlstl\AppData\Local\Temp\ccJvDP4q.s 			page 101


 4746 14ee C2140000 		.4byte	.LLST70
 4747 14f2 45       		.uleb128 0x45
 4748 14f3 AF030000 		.4byte	.LASF200
 4749 14f7 01       		.byte	0x1
 4750 14f8 C701     		.2byte	0x1c7
 4751 14fa FB050000 		.4byte	0x5fb
 4752 14fe 03       		.byte	0x3
 4753 14ff 40       		.uleb128 0x40
 4754 1500 2D060000 		.4byte	.LASF201
 4755 1504 01       		.byte	0x1
 4756 1505 CA01     		.2byte	0x1ca
 4757 1507 07020000 		.4byte	0x207
 4758 150b 15150000 		.4byte	.LLST71
 4759 150f 00       		.byte	0
 4760 1510 1C       		.uleb128 0x1c
 4761 1511 34090000 		.4byte	.LASF202
 4762 1515 01       		.byte	0x1
 4763 1516 0602     		.2byte	0x206
 4764 1518 E4000000 		.4byte	0xe4
 4765 151c 01       		.byte	0x1
 4766 151d 41150000 		.4byte	0x1541
 4767 1521 1D       		.uleb128 0x1d
 4768 1522 7700     		.ascii	"w\000"
 4769 1524 01       		.byte	0x1
 4770 1525 0602     		.2byte	0x206
 4771 1527 EF000000 		.4byte	0xef
 4772 152b 1D       		.uleb128 0x1d
 4773 152c 6800     		.ascii	"h\000"
 4774 152e 01       		.byte	0x1
 4775 152f 0602     		.2byte	0x206
 4776 1531 EF000000 		.4byte	0xef
 4777 1535 1D       		.uleb128 0x1d
 4778 1536 636600   		.ascii	"cf\000"
 4779 1539 01       		.byte	0x1
 4780 153a 0602     		.2byte	0x206
 4781 153c 2D070000 		.4byte	0x72d
 4782 1540 00       		.byte	0
 4783 1541 44       		.uleb128 0x44
 4784 1542 040A0000 		.4byte	.LASF203
 4785 1546 01       		.byte	0x1
 4786 1547 DC01     		.2byte	0x1dc
 4787 1549 27100000 		.4byte	0x1027
 4788 154d 00000000 		.4byte	.LFB41
 4789 1551 04010000 		.4byte	.LFE41-.LFB41
 4790 1555 01       		.uleb128 0x1
 4791 1556 9C       		.byte	0x9c
 4792 1557 1A160000 		.4byte	0x161a
 4793 155b 3F       		.uleb128 0x3f
 4794 155c 7700     		.ascii	"w\000"
 4795 155e 01       		.byte	0x1
 4796 155f DC01     		.2byte	0x1dc
 4797 1561 EF000000 		.4byte	0xef
 4798 1565 4F150000 		.4byte	.LLST72
 4799 1569 3F       		.uleb128 0x3f
 4800 156a 6800     		.ascii	"h\000"
 4801 156c 01       		.byte	0x1
 4802 156d DC01     		.2byte	0x1dc
ARM GAS  C:\Users\pearlstl\AppData\Local\Temp\ccJvDP4q.s 			page 102


 4803 156f EF000000 		.4byte	0xef
 4804 1573 70150000 		.4byte	.LLST73
 4805 1577 3F       		.uleb128 0x3f
 4806 1578 636600   		.ascii	"cf\000"
 4807 157b 01       		.byte	0x1
 4808 157c DC01     		.2byte	0x1dc
 4809 157e 2D070000 		.4byte	0x72d
 4810 1582 91150000 		.4byte	.LLST74
 4811 1586 3D       		.uleb128 0x3d
 4812 1587 64736300 		.ascii	"dsc\000"
 4813 158b 01       		.byte	0x1
 4814 158c DF01     		.2byte	0x1df
 4815 158e 27100000 		.4byte	0x1027
 4816 1592 B2150000 		.4byte	.LLST75
 4817 1596 2D       		.uleb128 0x2d
 4818 1597 10150000 		.4byte	0x1510
 4819 159b 18000000 		.4byte	.LBB98
 4820 159f F0000000 		.4byte	.Ldebug_ranges0+0xf0
 4821 15a3 01       		.byte	0x1
 4822 15a4 E601     		.2byte	0x1e6
 4823 15a6 C6150000 		.4byte	0x15c6
 4824 15aa 28       		.uleb128 0x28
 4825 15ab 35150000 		.4byte	0x1535
 4826 15af 96160000 		.4byte	.LLST76
 4827 15b3 28       		.uleb128 0x28
 4828 15b4 2B150000 		.4byte	0x152b
 4829 15b8 B4160000 		.4byte	.LLST77
 4830 15bc 28       		.uleb128 0x28
 4831 15bd 21150000 		.4byte	0x1521
 4832 15c1 D2160000 		.4byte	.LLST78
 4833 15c5 00       		.byte	0
 4834 15c6 30       		.uleb128 0x30
 4835 15c7 10000000 		.4byte	.LVL197
 4836 15cb 02170000 		.4byte	0x1702
 4837 15cf D9150000 		.4byte	0x15d9
 4838 15d3 31       		.uleb128 0x31
 4839 15d4 01       		.uleb128 0x1
 4840 15d5 50       		.byte	0x50
 4841 15d6 01       		.uleb128 0x1
 4842 15d7 3C       		.byte	0x3c
 4843 15d8 00       		.byte	0
 4844 15d9 46       		.uleb128 0x46
 4845 15da 44000000 		.4byte	.LVL201
 4846 15de 02170000 		.4byte	0x1702
 4847 15e2 30       		.uleb128 0x30
 4848 15e3 52000000 		.4byte	.LVL202
 4849 15e7 0D170000 		.4byte	0x170d
 4850 15eb F5150000 		.4byte	0x15f5
 4851 15ef 31       		.uleb128 0x31
 4852 15f0 01       		.uleb128 0x1
 4853 15f1 51       		.byte	0x51
 4854 15f2 01       		.uleb128 0x1
 4855 15f3 30       		.byte	0x30
 4856 15f4 00       		.byte	0
 4857 15f5 30       		.uleb128 0x30
 4858 15f6 F0000000 		.4byte	.LVL221
 4859 15fa 16170000 		.4byte	0x1716
ARM GAS  C:\Users\pearlstl\AppData\Local\Temp\ccJvDP4q.s 			page 103


 4860 15fe 09160000 		.4byte	0x1609
 4861 1602 31       		.uleb128 0x31
 4862 1603 01       		.uleb128 0x1
 4863 1604 50       		.byte	0x50
 4864 1605 02       		.uleb128 0x2
 4865 1606 74       		.byte	0x74
 4866 1607 00       		.sleb128 0
 4867 1608 00       		.byte	0
 4868 1609 32       		.uleb128 0x32
 4869 160a FE000000 		.4byte	.LVL223
 4870 160e 16170000 		.4byte	0x1716
 4871 1612 31       		.uleb128 0x31
 4872 1613 01       		.uleb128 0x1
 4873 1614 50       		.byte	0x50
 4874 1615 02       		.uleb128 0x2
 4875 1616 74       		.byte	0x74
 4876 1617 00       		.sleb128 0
 4877 1618 00       		.byte	0
 4878 1619 00       		.byte	0
 4879 161a 3E       		.uleb128 0x3e
 4880 161b 06050000 		.4byte	.LASF204
 4881 161f 01       		.byte	0x1
 4882 1620 FC01     		.2byte	0x1fc
 4883 1622 00000000 		.4byte	.LFB42
 4884 1626 1A000000 		.4byte	.LFE42-.LFB42
 4885 162a 01       		.uleb128 0x1
 4886 162b 9C       		.byte	0x9c
 4887 162c 5B160000 		.4byte	0x165b
 4888 1630 3F       		.uleb128 0x3f
 4889 1631 64736300 		.ascii	"dsc\000"
 4890 1635 01       		.byte	0x1
 4891 1636 FC01     		.2byte	0x1fc
 4892 1638 27100000 		.4byte	0x1027
 4893 163c F0160000 		.4byte	.LLST79
 4894 1640 46       		.uleb128 0x46
 4895 1641 0E000000 		.4byte	.LVL226
 4896 1645 16170000 		.4byte	0x1716
 4897 1649 47       		.uleb128 0x47
 4898 164a 18000000 		.4byte	.LVL228
 4899 164e 16170000 		.4byte	0x1716
 4900 1652 31       		.uleb128 0x31
 4901 1653 01       		.uleb128 0x1
 4902 1654 50       		.byte	0x50
 4903 1655 03       		.uleb128 0x3
 4904 1656 F3       		.byte	0xf3
 4905 1657 01       		.uleb128 0x1
 4906 1658 50       		.byte	0x50
 4907 1659 00       		.byte	0
 4908 165a 00       		.byte	0
 4909 165b 43       		.uleb128 0x43
 4910 165c 10150000 		.4byte	0x1510
 4911 1660 00000000 		.4byte	.LFB43
 4912 1664 8C000000 		.4byte	.LFE43-.LFB43
 4913 1668 01       		.uleb128 0x1
 4914 1669 9C       		.byte	0x9c
 4915 166a 88160000 		.4byte	0x1688
 4916 166e 28       		.uleb128 0x28
ARM GAS  C:\Users\pearlstl\AppData\Local\Temp\ccJvDP4q.s 			page 104


 4917 166f 21150000 		.4byte	0x1521
 4918 1673 32170000 		.4byte	.LLST80
 4919 1677 48       		.uleb128 0x48
 4920 1678 2B150000 		.4byte	0x152b
 4921 167c 01       		.uleb128 0x1
 4922 167d 51       		.byte	0x51
 4923 167e 28       		.uleb128 0x28
 4924 167f 35150000 		.4byte	0x1535
 4925 1683 34180000 		.4byte	.LLST81
 4926 1687 00       		.byte	0
 4927 1688 49       		.uleb128 0x49
 4928 1689 62020000 		.4byte	.LASF222
 4929 168d 08       		.byte	0x8
 4930 168e 0F01     		.2byte	0x10f
 4931 1690 7C050000 		.4byte	0x57c
 4932 1694 4A       		.uleb128 0x4a
 4933 1695 A4010000 		.4byte	.LASF205
 4934 1699 A4010000 		.4byte	.LASF205
 4935 169d 0E       		.byte	0xe
 4936 169e 2B       		.byte	0x2b
 4937 169f 4A       		.uleb128 0x4a
 4938 16a0 4B000000 		.4byte	.LASF206
 4939 16a4 4B000000 		.4byte	.LASF206
 4940 16a8 02       		.byte	0x2
 4941 16a9 71       		.byte	0x71
 4942 16aa 4A       		.uleb128 0x4a
 4943 16ab E90C0000 		.4byte	.LASF207
 4944 16af E90C0000 		.4byte	.LASF207
 4945 16b3 0F       		.byte	0xf
 4946 16b4 47       		.byte	0x47
 4947 16b5 4B       		.uleb128 0x4b
 4948 16b6 14060000 		.4byte	.LASF208
 4949 16ba 14060000 		.4byte	.LASF208
 4950 16be 0B       		.byte	0xb
 4951 16bf 0401     		.2byte	0x104
 4952 16c1 4B       		.uleb128 0x4b
 4953 16c2 8F040000 		.4byte	.LASF209
 4954 16c6 8F040000 		.4byte	.LASF209
 4955 16ca 0B       		.byte	0xb
 4956 16cb 0B01     		.2byte	0x10b
 4957 16cd 4A       		.uleb128 0x4a
 4958 16ce 45030000 		.4byte	.LASF210
 4959 16d2 45030000 		.4byte	.LASF210
 4960 16d6 02       		.byte	0x2
 4961 16d7 89       		.byte	0x89
 4962 16d8 4A       		.uleb128 0x4a
 4963 16d9 CB010000 		.4byte	.LASF211
 4964 16dd CB010000 		.4byte	.LASF211
 4965 16e1 0D       		.byte	0xd
 4966 16e2 35       		.byte	0x35
 4967 16e3 4A       		.uleb128 0x4a
 4968 16e4 3C070000 		.4byte	.LASF212
 4969 16e8 3C070000 		.4byte	.LASF212
 4970 16ec 10       		.byte	0x10
 4971 16ed 25       		.byte	0x25
 4972 16ee 4A       		.uleb128 0x4a
 4973 16ef DD010000 		.4byte	.LASF213
ARM GAS  C:\Users\pearlstl\AppData\Local\Temp\ccJvDP4q.s 			page 105


 4974 16f3 DD010000 		.4byte	.LASF213
 4975 16f7 11       		.byte	0x11
 4976 16f8 44       		.byte	0x44
 4977 16f9 4C       		.uleb128 0x4c
 4978 16fa 120B0000 		.4byte	.LASF215
 4979 16fe 120B0000 		.4byte	.LASF215
 4980 1702 4A       		.uleb128 0x4a
 4981 1703 50020000 		.4byte	.LASF214
 4982 1707 50020000 		.4byte	.LASF214
 4983 170b 12       		.byte	0x12
 4984 170c 45       		.byte	0x45
 4985 170d 4C       		.uleb128 0x4c
 4986 170e 66060000 		.4byte	.LASF216
 4987 1712 66060000 		.4byte	.LASF216
 4988 1716 4A       		.uleb128 0x4a
 4989 1717 DA0A0000 		.4byte	.LASF217
 4990 171b DA0A0000 		.4byte	.LASF217
 4991 171f 12       		.byte	0x12
 4992 1720 4B       		.byte	0x4b
 4993 1721 00       		.byte	0
 4994              		.section	.debug_abbrev,"",%progbits
 4995              	.Ldebug_abbrev0:
 4996 0000 01       		.uleb128 0x1
 4997 0001 11       		.uleb128 0x11
 4998 0002 01       		.byte	0x1
 4999 0003 25       		.uleb128 0x25
 5000 0004 0E       		.uleb128 0xe
 5001 0005 13       		.uleb128 0x13
 5002 0006 0B       		.uleb128 0xb
 5003 0007 03       		.uleb128 0x3
 5004 0008 0E       		.uleb128 0xe
 5005 0009 1B       		.uleb128 0x1b
 5006 000a 0E       		.uleb128 0xe
 5007 000b 55       		.uleb128 0x55
 5008 000c 17       		.uleb128 0x17
 5009 000d 11       		.uleb128 0x11
 5010 000e 01       		.uleb128 0x1
 5011 000f 10       		.uleb128 0x10
 5012 0010 17       		.uleb128 0x17
 5013 0011 00       		.byte	0
 5014 0012 00       		.byte	0
 5015 0013 02       		.uleb128 0x2
 5016 0014 16       		.uleb128 0x16
 5017 0015 00       		.byte	0
 5018 0016 03       		.uleb128 0x3
 5019 0017 0E       		.uleb128 0xe
 5020 0018 3A       		.uleb128 0x3a
 5021 0019 0B       		.uleb128 0xb
 5022 001a 3B       		.uleb128 0x3b
 5023 001b 0B       		.uleb128 0xb
 5024 001c 49       		.uleb128 0x49
 5025 001d 13       		.uleb128 0x13
 5026 001e 00       		.byte	0
 5027 001f 00       		.byte	0
 5028 0020 03       		.uleb128 0x3
 5029 0021 24       		.uleb128 0x24
 5030 0022 00       		.byte	0
ARM GAS  C:\Users\pearlstl\AppData\Local\Temp\ccJvDP4q.s 			page 106


 5031 0023 0B       		.uleb128 0xb
 5032 0024 0B       		.uleb128 0xb
 5033 0025 3E       		.uleb128 0x3e
 5034 0026 0B       		.uleb128 0xb
 5035 0027 03       		.uleb128 0x3
 5036 0028 0E       		.uleb128 0xe
 5037 0029 00       		.byte	0
 5038 002a 00       		.byte	0
 5039 002b 04       		.uleb128 0x4
 5040 002c 24       		.uleb128 0x24
 5041 002d 00       		.byte	0
 5042 002e 0B       		.uleb128 0xb
 5043 002f 0B       		.uleb128 0xb
 5044 0030 3E       		.uleb128 0x3e
 5045 0031 0B       		.uleb128 0xb
 5046 0032 03       		.uleb128 0x3
 5047 0033 08       		.uleb128 0x8
 5048 0034 00       		.byte	0
 5049 0035 00       		.byte	0
 5050 0036 05       		.uleb128 0x5
 5051 0037 0F       		.uleb128 0xf
 5052 0038 00       		.byte	0
 5053 0039 0B       		.uleb128 0xb
 5054 003a 0B       		.uleb128 0xb
 5055 003b 00       		.byte	0
 5056 003c 00       		.byte	0
 5057 003d 06       		.uleb128 0x6
 5058 003e 13       		.uleb128 0x13
 5059 003f 01       		.byte	0x1
 5060 0040 0B       		.uleb128 0xb
 5061 0041 0B       		.uleb128 0xb
 5062 0042 3A       		.uleb128 0x3a
 5063 0043 0B       		.uleb128 0xb
 5064 0044 3B       		.uleb128 0x3b
 5065 0045 0B       		.uleb128 0xb
 5066 0046 01       		.uleb128 0x1
 5067 0047 13       		.uleb128 0x13
 5068 0048 00       		.byte	0
 5069 0049 00       		.byte	0
 5070 004a 07       		.uleb128 0x7
 5071 004b 0D       		.uleb128 0xd
 5072 004c 00       		.byte	0
 5073 004d 03       		.uleb128 0x3
 5074 004e 0E       		.uleb128 0xe
 5075 004f 3A       		.uleb128 0x3a
 5076 0050 0B       		.uleb128 0xb
 5077 0051 3B       		.uleb128 0x3b
 5078 0052 0B       		.uleb128 0xb
 5079 0053 49       		.uleb128 0x49
 5080 0054 13       		.uleb128 0x13
 5081 0055 38       		.uleb128 0x38
 5082 0056 0B       		.uleb128 0xb
 5083 0057 00       		.byte	0
 5084 0058 00       		.byte	0
 5085 0059 08       		.uleb128 0x8
 5086 005a 0D       		.uleb128 0xd
 5087 005b 00       		.byte	0
ARM GAS  C:\Users\pearlstl\AppData\Local\Temp\ccJvDP4q.s 			page 107


 5088 005c 03       		.uleb128 0x3
 5089 005d 08       		.uleb128 0x8
 5090 005e 3A       		.uleb128 0x3a
 5091 005f 0B       		.uleb128 0xb
 5092 0060 3B       		.uleb128 0x3b
 5093 0061 0B       		.uleb128 0xb
 5094 0062 49       		.uleb128 0x49
 5095 0063 13       		.uleb128 0x13
 5096 0064 38       		.uleb128 0x38
 5097 0065 0B       		.uleb128 0xb
 5098 0066 00       		.byte	0
 5099 0067 00       		.byte	0
 5100 0068 09       		.uleb128 0x9
 5101 0069 13       		.uleb128 0x13
 5102 006a 01       		.byte	0x1
 5103 006b 03       		.uleb128 0x3
 5104 006c 0E       		.uleb128 0xe
 5105 006d 0B       		.uleb128 0xb
 5106 006e 0B       		.uleb128 0xb
 5107 006f 3A       		.uleb128 0x3a
 5108 0070 0B       		.uleb128 0xb
 5109 0071 3B       		.uleb128 0x3b
 5110 0072 0B       		.uleb128 0xb
 5111 0073 01       		.uleb128 0x1
 5112 0074 13       		.uleb128 0x13
 5113 0075 00       		.byte	0
 5114 0076 00       		.byte	0
 5115 0077 0A       		.uleb128 0xa
 5116 0078 0D       		.uleb128 0xd
 5117 0079 00       		.byte	0
 5118 007a 03       		.uleb128 0x3
 5119 007b 0E       		.uleb128 0xe
 5120 007c 3A       		.uleb128 0x3a
 5121 007d 0B       		.uleb128 0xb
 5122 007e 3B       		.uleb128 0x3b
 5123 007f 0B       		.uleb128 0xb
 5124 0080 49       		.uleb128 0x49
 5125 0081 13       		.uleb128 0x13
 5126 0082 0B       		.uleb128 0xb
 5127 0083 0B       		.uleb128 0xb
 5128 0084 0D       		.uleb128 0xd
 5129 0085 0B       		.uleb128 0xb
 5130 0086 0C       		.uleb128 0xc
 5131 0087 0B       		.uleb128 0xb
 5132 0088 38       		.uleb128 0x38
 5133 0089 0B       		.uleb128 0xb
 5134 008a 00       		.byte	0
 5135 008b 00       		.byte	0
 5136 008c 0B       		.uleb128 0xb
 5137 008d 15       		.uleb128 0x15
 5138 008e 01       		.byte	0x1
 5139 008f 27       		.uleb128 0x27
 5140 0090 19       		.uleb128 0x19
 5141 0091 49       		.uleb128 0x49
 5142 0092 13       		.uleb128 0x13
 5143 0093 01       		.uleb128 0x1
 5144 0094 13       		.uleb128 0x13
ARM GAS  C:\Users\pearlstl\AppData\Local\Temp\ccJvDP4q.s 			page 108


 5145 0095 00       		.byte	0
 5146 0096 00       		.byte	0
 5147 0097 0C       		.uleb128 0xc
 5148 0098 05       		.uleb128 0x5
 5149 0099 00       		.byte	0
 5150 009a 49       		.uleb128 0x49
 5151 009b 13       		.uleb128 0x13
 5152 009c 00       		.byte	0
 5153 009d 00       		.byte	0
 5154 009e 0D       		.uleb128 0xd
 5155 009f 0F       		.uleb128 0xf
 5156 00a0 00       		.byte	0
 5157 00a1 0B       		.uleb128 0xb
 5158 00a2 0B       		.uleb128 0xb
 5159 00a3 49       		.uleb128 0x49
 5160 00a4 13       		.uleb128 0x13
 5161 00a5 00       		.byte	0
 5162 00a6 00       		.byte	0
 5163 00a7 0E       		.uleb128 0xe
 5164 00a8 26       		.uleb128 0x26
 5165 00a9 00       		.byte	0
 5166 00aa 49       		.uleb128 0x49
 5167 00ab 13       		.uleb128 0x13
 5168 00ac 00       		.byte	0
 5169 00ad 00       		.byte	0
 5170 00ae 0F       		.uleb128 0xf
 5171 00af 04       		.uleb128 0x4
 5172 00b0 01       		.byte	0x1
 5173 00b1 0B       		.uleb128 0xb
 5174 00b2 0B       		.uleb128 0xb
 5175 00b3 49       		.uleb128 0x49
 5176 00b4 13       		.uleb128 0x13
 5177 00b5 3A       		.uleb128 0x3a
 5178 00b6 0B       		.uleb128 0xb
 5179 00b7 3B       		.uleb128 0x3b
 5180 00b8 0B       		.uleb128 0xb
 5181 00b9 01       		.uleb128 0x1
 5182 00ba 13       		.uleb128 0x13
 5183 00bb 00       		.byte	0
 5184 00bc 00       		.byte	0
 5185 00bd 10       		.uleb128 0x10
 5186 00be 28       		.uleb128 0x28
 5187 00bf 00       		.byte	0
 5188 00c0 03       		.uleb128 0x3
 5189 00c1 0E       		.uleb128 0xe
 5190 00c2 1C       		.uleb128 0x1c
 5191 00c3 0B       		.uleb128 0xb
 5192 00c4 00       		.byte	0
 5193 00c5 00       		.byte	0
 5194 00c6 11       		.uleb128 0x11
 5195 00c7 17       		.uleb128 0x17
 5196 00c8 01       		.byte	0x1
 5197 00c9 0B       		.uleb128 0xb
 5198 00ca 0B       		.uleb128 0xb
 5199 00cb 3A       		.uleb128 0x3a
 5200 00cc 0B       		.uleb128 0xb
 5201 00cd 3B       		.uleb128 0x3b
ARM GAS  C:\Users\pearlstl\AppData\Local\Temp\ccJvDP4q.s 			page 109


 5202 00ce 0B       		.uleb128 0xb
 5203 00cf 01       		.uleb128 0x1
 5204 00d0 13       		.uleb128 0x13
 5205 00d1 00       		.byte	0
 5206 00d2 00       		.byte	0
 5207 00d3 12       		.uleb128 0x12
 5208 00d4 0D       		.uleb128 0xd
 5209 00d5 00       		.byte	0
 5210 00d6 03       		.uleb128 0x3
 5211 00d7 08       		.uleb128 0x8
 5212 00d8 3A       		.uleb128 0x3a
 5213 00d9 0B       		.uleb128 0xb
 5214 00da 3B       		.uleb128 0x3b
 5215 00db 0B       		.uleb128 0xb
 5216 00dc 49       		.uleb128 0x49
 5217 00dd 13       		.uleb128 0x13
 5218 00de 00       		.byte	0
 5219 00df 00       		.byte	0
 5220 00e0 13       		.uleb128 0x13
 5221 00e1 0D       		.uleb128 0xd
 5222 00e2 00       		.byte	0
 5223 00e3 03       		.uleb128 0x3
 5224 00e4 0E       		.uleb128 0xe
 5225 00e5 3A       		.uleb128 0x3a
 5226 00e6 0B       		.uleb128 0xb
 5227 00e7 3B       		.uleb128 0x3b
 5228 00e8 0B       		.uleb128 0xb
 5229 00e9 49       		.uleb128 0x49
 5230 00ea 13       		.uleb128 0x13
 5231 00eb 00       		.byte	0
 5232 00ec 00       		.byte	0
 5233 00ed 14       		.uleb128 0x14
 5234 00ee 16       		.uleb128 0x16
 5235 00ef 00       		.byte	0
 5236 00f0 03       		.uleb128 0x3
 5237 00f1 0E       		.uleb128 0xe
 5238 00f2 3A       		.uleb128 0x3a
 5239 00f3 0B       		.uleb128 0xb
 5240 00f4 3B       		.uleb128 0x3b
 5241 00f5 05       		.uleb128 0x5
 5242 00f6 49       		.uleb128 0x49
 5243 00f7 13       		.uleb128 0x13
 5244 00f8 00       		.byte	0
 5245 00f9 00       		.byte	0
 5246 00fa 15       		.uleb128 0x15
 5247 00fb 0D       		.uleb128 0xd
 5248 00fc 00       		.byte	0
 5249 00fd 03       		.uleb128 0x3
 5250 00fe 08       		.uleb128 0x8
 5251 00ff 3A       		.uleb128 0x3a
 5252 0100 0B       		.uleb128 0xb
 5253 0101 3B       		.uleb128 0x3b
 5254 0102 0B       		.uleb128 0xb
 5255 0103 49       		.uleb128 0x49
 5256 0104 13       		.uleb128 0x13
 5257 0105 0B       		.uleb128 0xb
 5258 0106 0B       		.uleb128 0xb
ARM GAS  C:\Users\pearlstl\AppData\Local\Temp\ccJvDP4q.s 			page 110


 5259 0107 0D       		.uleb128 0xd
 5260 0108 0B       		.uleb128 0xb
 5261 0109 0C       		.uleb128 0xc
 5262 010a 0B       		.uleb128 0xb
 5263 010b 38       		.uleb128 0x38
 5264 010c 0B       		.uleb128 0xb
 5265 010d 00       		.byte	0
 5266 010e 00       		.byte	0
 5267 010f 16       		.uleb128 0x16
 5268 0110 26       		.uleb128 0x26
 5269 0111 00       		.byte	0
 5270 0112 00       		.byte	0
 5271 0113 00       		.byte	0
 5272 0114 17       		.uleb128 0x17
 5273 0115 15       		.uleb128 0x15
 5274 0116 01       		.byte	0x1
 5275 0117 27       		.uleb128 0x27
 5276 0118 19       		.uleb128 0x19
 5277 0119 01       		.uleb128 0x1
 5278 011a 13       		.uleb128 0x13
 5279 011b 00       		.byte	0
 5280 011c 00       		.byte	0
 5281 011d 18       		.uleb128 0x18
 5282 011e 2E       		.uleb128 0x2e
 5283 011f 01       		.byte	0x1
 5284 0120 03       		.uleb128 0x3
 5285 0121 0E       		.uleb128 0xe
 5286 0122 3A       		.uleb128 0x3a
 5287 0123 0B       		.uleb128 0xb
 5288 0124 3B       		.uleb128 0x3b
 5289 0125 0B       		.uleb128 0xb
 5290 0126 27       		.uleb128 0x27
 5291 0127 19       		.uleb128 0x19
 5292 0128 49       		.uleb128 0x49
 5293 0129 13       		.uleb128 0x13
 5294 012a 20       		.uleb128 0x20
 5295 012b 0B       		.uleb128 0xb
 5296 012c 01       		.uleb128 0x1
 5297 012d 13       		.uleb128 0x13
 5298 012e 00       		.byte	0
 5299 012f 00       		.byte	0
 5300 0130 19       		.uleb128 0x19
 5301 0131 05       		.uleb128 0x5
 5302 0132 00       		.byte	0
 5303 0133 03       		.uleb128 0x3
 5304 0134 0E       		.uleb128 0xe
 5305 0135 3A       		.uleb128 0x3a
 5306 0136 0B       		.uleb128 0xb
 5307 0137 3B       		.uleb128 0x3b
 5308 0138 0B       		.uleb128 0xb
 5309 0139 49       		.uleb128 0x49
 5310 013a 13       		.uleb128 0x13
 5311 013b 00       		.byte	0
 5312 013c 00       		.byte	0
 5313 013d 1A       		.uleb128 0x1a
 5314 013e 2E       		.uleb128 0x2e
 5315 013f 01       		.byte	0x1
ARM GAS  C:\Users\pearlstl\AppData\Local\Temp\ccJvDP4q.s 			page 111


 5316 0140 03       		.uleb128 0x3
 5317 0141 0E       		.uleb128 0xe
 5318 0142 3A       		.uleb128 0x3a
 5319 0143 0B       		.uleb128 0xb
 5320 0144 3B       		.uleb128 0x3b
 5321 0145 05       		.uleb128 0x5
 5322 0146 27       		.uleb128 0x27
 5323 0147 19       		.uleb128 0x19
 5324 0148 49       		.uleb128 0x49
 5325 0149 13       		.uleb128 0x13
 5326 014a 20       		.uleb128 0x20
 5327 014b 0B       		.uleb128 0xb
 5328 014c 01       		.uleb128 0x1
 5329 014d 13       		.uleb128 0x13
 5330 014e 00       		.byte	0
 5331 014f 00       		.byte	0
 5332 0150 1B       		.uleb128 0x1b
 5333 0151 05       		.uleb128 0x5
 5334 0152 00       		.byte	0
 5335 0153 03       		.uleb128 0x3
 5336 0154 0E       		.uleb128 0xe
 5337 0155 3A       		.uleb128 0x3a
 5338 0156 0B       		.uleb128 0xb
 5339 0157 3B       		.uleb128 0x3b
 5340 0158 05       		.uleb128 0x5
 5341 0159 49       		.uleb128 0x49
 5342 015a 13       		.uleb128 0x13
 5343 015b 00       		.byte	0
 5344 015c 00       		.byte	0
 5345 015d 1C       		.uleb128 0x1c
 5346 015e 2E       		.uleb128 0x2e
 5347 015f 01       		.byte	0x1
 5348 0160 3F       		.uleb128 0x3f
 5349 0161 19       		.uleb128 0x19
 5350 0162 03       		.uleb128 0x3
 5351 0163 0E       		.uleb128 0xe
 5352 0164 3A       		.uleb128 0x3a
 5353 0165 0B       		.uleb128 0xb
 5354 0166 3B       		.uleb128 0x3b
 5355 0167 05       		.uleb128 0x5
 5356 0168 27       		.uleb128 0x27
 5357 0169 19       		.uleb128 0x19
 5358 016a 49       		.uleb128 0x49
 5359 016b 13       		.uleb128 0x13
 5360 016c 20       		.uleb128 0x20
 5361 016d 0B       		.uleb128 0xb
 5362 016e 01       		.uleb128 0x1
 5363 016f 13       		.uleb128 0x13
 5364 0170 00       		.byte	0
 5365 0171 00       		.byte	0
 5366 0172 1D       		.uleb128 0x1d
 5367 0173 05       		.uleb128 0x5
 5368 0174 00       		.byte	0
 5369 0175 03       		.uleb128 0x3
 5370 0176 08       		.uleb128 0x8
 5371 0177 3A       		.uleb128 0x3a
 5372 0178 0B       		.uleb128 0xb
ARM GAS  C:\Users\pearlstl\AppData\Local\Temp\ccJvDP4q.s 			page 112


 5373 0179 3B       		.uleb128 0x3b
 5374 017a 05       		.uleb128 0x5
 5375 017b 49       		.uleb128 0x49
 5376 017c 13       		.uleb128 0x13
 5377 017d 00       		.byte	0
 5378 017e 00       		.byte	0
 5379 017f 1E       		.uleb128 0x1e
 5380 0180 34       		.uleb128 0x34
 5381 0181 00       		.byte	0
 5382 0182 03       		.uleb128 0x3
 5383 0183 0E       		.uleb128 0xe
 5384 0184 3A       		.uleb128 0x3a
 5385 0185 0B       		.uleb128 0xb
 5386 0186 3B       		.uleb128 0x3b
 5387 0187 05       		.uleb128 0x5
 5388 0188 49       		.uleb128 0x49
 5389 0189 13       		.uleb128 0x13
 5390 018a 00       		.byte	0
 5391 018b 00       		.byte	0
 5392 018c 1F       		.uleb128 0x1f
 5393 018d 2E       		.uleb128 0x2e
 5394 018e 01       		.byte	0x1
 5395 018f 03       		.uleb128 0x3
 5396 0190 0E       		.uleb128 0xe
 5397 0191 3A       		.uleb128 0x3a
 5398 0192 0B       		.uleb128 0xb
 5399 0193 3B       		.uleb128 0x3b
 5400 0194 0B       		.uleb128 0xb
 5401 0195 27       		.uleb128 0x27
 5402 0196 19       		.uleb128 0x19
 5403 0197 20       		.uleb128 0x20
 5404 0198 0B       		.uleb128 0xb
 5405 0199 01       		.uleb128 0x1
 5406 019a 13       		.uleb128 0x13
 5407 019b 00       		.byte	0
 5408 019c 00       		.byte	0
 5409 019d 20       		.uleb128 0x20
 5410 019e 05       		.uleb128 0x5
 5411 019f 00       		.byte	0
 5412 01a0 03       		.uleb128 0x3
 5413 01a1 08       		.uleb128 0x8
 5414 01a2 3A       		.uleb128 0x3a
 5415 01a3 0B       		.uleb128 0xb
 5416 01a4 3B       		.uleb128 0x3b
 5417 01a5 0B       		.uleb128 0xb
 5418 01a6 49       		.uleb128 0x49
 5419 01a7 13       		.uleb128 0x13
 5420 01a8 00       		.byte	0
 5421 01a9 00       		.byte	0
 5422 01aa 21       		.uleb128 0x21
 5423 01ab 34       		.uleb128 0x34
 5424 01ac 00       		.byte	0
 5425 01ad 03       		.uleb128 0x3
 5426 01ae 08       		.uleb128 0x8
 5427 01af 3A       		.uleb128 0x3a
 5428 01b0 0B       		.uleb128 0xb
 5429 01b1 3B       		.uleb128 0x3b
ARM GAS  C:\Users\pearlstl\AppData\Local\Temp\ccJvDP4q.s 			page 113


 5430 01b2 05       		.uleb128 0x5
 5431 01b3 49       		.uleb128 0x49
 5432 01b4 13       		.uleb128 0x13
 5433 01b5 00       		.byte	0
 5434 01b6 00       		.byte	0
 5435 01b7 22       		.uleb128 0x22
 5436 01b8 0B       		.uleb128 0xb
 5437 01b9 01       		.byte	0x1
 5438 01ba 00       		.byte	0
 5439 01bb 00       		.byte	0
 5440 01bc 23       		.uleb128 0x23
 5441 01bd 2E       		.uleb128 0x2e
 5442 01be 01       		.byte	0x1
 5443 01bf 3F       		.uleb128 0x3f
 5444 01c0 19       		.uleb128 0x19
 5445 01c1 03       		.uleb128 0x3
 5446 01c2 0E       		.uleb128 0xe
 5447 01c3 3A       		.uleb128 0x3a
 5448 01c4 0B       		.uleb128 0xb
 5449 01c5 3B       		.uleb128 0x3b
 5450 01c6 0B       		.uleb128 0xb
 5451 01c7 27       		.uleb128 0x27
 5452 01c8 19       		.uleb128 0x19
 5453 01c9 11       		.uleb128 0x11
 5454 01ca 01       		.uleb128 0x1
 5455 01cb 12       		.uleb128 0x12
 5456 01cc 06       		.uleb128 0x6
 5457 01cd 40       		.uleb128 0x40
 5458 01ce 18       		.uleb128 0x18
 5459 01cf 9742     		.uleb128 0x2117
 5460 01d1 19       		.uleb128 0x19
 5461 01d2 01       		.uleb128 0x1
 5462 01d3 13       		.uleb128 0x13
 5463 01d4 00       		.byte	0
 5464 01d5 00       		.byte	0
 5465 01d6 24       		.uleb128 0x24
 5466 01d7 05       		.uleb128 0x5
 5467 01d8 00       		.byte	0
 5468 01d9 03       		.uleb128 0x3
 5469 01da 0E       		.uleb128 0xe
 5470 01db 3A       		.uleb128 0x3a
 5471 01dc 0B       		.uleb128 0xb
 5472 01dd 3B       		.uleb128 0x3b
 5473 01de 0B       		.uleb128 0xb
 5474 01df 49       		.uleb128 0x49
 5475 01e0 13       		.uleb128 0x13
 5476 01e1 02       		.uleb128 0x2
 5477 01e2 17       		.uleb128 0x17
 5478 01e3 00       		.byte	0
 5479 01e4 00       		.byte	0
 5480 01e5 25       		.uleb128 0x25
 5481 01e6 05       		.uleb128 0x5
 5482 01e7 00       		.byte	0
 5483 01e8 03       		.uleb128 0x3
 5484 01e9 08       		.uleb128 0x8
 5485 01ea 3A       		.uleb128 0x3a
 5486 01eb 0B       		.uleb128 0xb
ARM GAS  C:\Users\pearlstl\AppData\Local\Temp\ccJvDP4q.s 			page 114


 5487 01ec 3B       		.uleb128 0x3b
 5488 01ed 0B       		.uleb128 0xb
 5489 01ee 49       		.uleb128 0x49
 5490 01ef 13       		.uleb128 0x13
 5491 01f0 02       		.uleb128 0x2
 5492 01f1 17       		.uleb128 0x17
 5493 01f2 00       		.byte	0
 5494 01f3 00       		.byte	0
 5495 01f4 26       		.uleb128 0x26
 5496 01f5 34       		.uleb128 0x34
 5497 01f6 00       		.byte	0
 5498 01f7 03       		.uleb128 0x3
 5499 01f8 08       		.uleb128 0x8
 5500 01f9 3A       		.uleb128 0x3a
 5501 01fa 0B       		.uleb128 0xb
 5502 01fb 3B       		.uleb128 0x3b
 5503 01fc 0B       		.uleb128 0xb
 5504 01fd 49       		.uleb128 0x49
 5505 01fe 13       		.uleb128 0x13
 5506 01ff 00       		.byte	0
 5507 0200 00       		.byte	0
 5508 0201 27       		.uleb128 0x27
 5509 0202 1D       		.uleb128 0x1d
 5510 0203 01       		.byte	0x1
 5511 0204 31       		.uleb128 0x31
 5512 0205 13       		.uleb128 0x13
 5513 0206 52       		.uleb128 0x52
 5514 0207 01       		.uleb128 0x1
 5515 0208 55       		.uleb128 0x55
 5516 0209 17       		.uleb128 0x17
 5517 020a 58       		.uleb128 0x58
 5518 020b 0B       		.uleb128 0xb
 5519 020c 59       		.uleb128 0x59
 5520 020d 0B       		.uleb128 0xb
 5521 020e 01       		.uleb128 0x1
 5522 020f 13       		.uleb128 0x13
 5523 0210 00       		.byte	0
 5524 0211 00       		.byte	0
 5525 0212 28       		.uleb128 0x28
 5526 0213 05       		.uleb128 0x5
 5527 0214 00       		.byte	0
 5528 0215 31       		.uleb128 0x31
 5529 0216 13       		.uleb128 0x13
 5530 0217 02       		.uleb128 0x2
 5531 0218 17       		.uleb128 0x17
 5532 0219 00       		.byte	0
 5533 021a 00       		.byte	0
 5534 021b 29       		.uleb128 0x29
 5535 021c 0B       		.uleb128 0xb
 5536 021d 01       		.byte	0x1
 5537 021e 55       		.uleb128 0x55
 5538 021f 17       		.uleb128 0x17
 5539 0220 00       		.byte	0
 5540 0221 00       		.byte	0
 5541 0222 2A       		.uleb128 0x2a
 5542 0223 34       		.uleb128 0x34
 5543 0224 00       		.byte	0
ARM GAS  C:\Users\pearlstl\AppData\Local\Temp\ccJvDP4q.s 			page 115


 5544 0225 31       		.uleb128 0x31
 5545 0226 13       		.uleb128 0x13
 5546 0227 02       		.uleb128 0x2
 5547 0228 18       		.uleb128 0x18
 5548 0229 00       		.byte	0
 5549 022a 00       		.byte	0
 5550 022b 2B       		.uleb128 0x2b
 5551 022c 34       		.uleb128 0x34
 5552 022d 00       		.byte	0
 5553 022e 31       		.uleb128 0x31
 5554 022f 13       		.uleb128 0x13
 5555 0230 02       		.uleb128 0x2
 5556 0231 17       		.uleb128 0x17
 5557 0232 00       		.byte	0
 5558 0233 00       		.byte	0
 5559 0234 2C       		.uleb128 0x2c
 5560 0235 34       		.uleb128 0x34
 5561 0236 00       		.byte	0
 5562 0237 31       		.uleb128 0x31
 5563 0238 13       		.uleb128 0x13
 5564 0239 00       		.byte	0
 5565 023a 00       		.byte	0
 5566 023b 2D       		.uleb128 0x2d
 5567 023c 1D       		.uleb128 0x1d
 5568 023d 01       		.byte	0x1
 5569 023e 31       		.uleb128 0x31
 5570 023f 13       		.uleb128 0x13
 5571 0240 52       		.uleb128 0x52
 5572 0241 01       		.uleb128 0x1
 5573 0242 55       		.uleb128 0x55
 5574 0243 17       		.uleb128 0x17
 5575 0244 58       		.uleb128 0x58
 5576 0245 0B       		.uleb128 0xb
 5577 0246 59       		.uleb128 0x59
 5578 0247 05       		.uleb128 0x5
 5579 0248 01       		.uleb128 0x1
 5580 0249 13       		.uleb128 0x13
 5581 024a 00       		.byte	0
 5582 024b 00       		.byte	0
 5583 024c 2E       		.uleb128 0x2e
 5584 024d 0B       		.uleb128 0xb
 5585 024e 01       		.byte	0x1
 5586 024f 11       		.uleb128 0x11
 5587 0250 01       		.uleb128 0x1
 5588 0251 12       		.uleb128 0x12
 5589 0252 06       		.uleb128 0x6
 5590 0253 01       		.uleb128 0x1
 5591 0254 13       		.uleb128 0x13
 5592 0255 00       		.byte	0
 5593 0256 00       		.byte	0
 5594 0257 2F       		.uleb128 0x2f
 5595 0258 1D       		.uleb128 0x1d
 5596 0259 01       		.byte	0x1
 5597 025a 31       		.uleb128 0x31
 5598 025b 13       		.uleb128 0x13
 5599 025c 11       		.uleb128 0x11
 5600 025d 01       		.uleb128 0x1
ARM GAS  C:\Users\pearlstl\AppData\Local\Temp\ccJvDP4q.s 			page 116


 5601 025e 12       		.uleb128 0x12
 5602 025f 06       		.uleb128 0x6
 5603 0260 58       		.uleb128 0x58
 5604 0261 0B       		.uleb128 0xb
 5605 0262 59       		.uleb128 0x59
 5606 0263 05       		.uleb128 0x5
 5607 0264 01       		.uleb128 0x1
 5608 0265 13       		.uleb128 0x13
 5609 0266 00       		.byte	0
 5610 0267 00       		.byte	0
 5611 0268 30       		.uleb128 0x30
 5612 0269 898201   		.uleb128 0x4109
 5613 026c 01       		.byte	0x1
 5614 026d 11       		.uleb128 0x11
 5615 026e 01       		.uleb128 0x1
 5616 026f 31       		.uleb128 0x31
 5617 0270 13       		.uleb128 0x13
 5618 0271 01       		.uleb128 0x1
 5619 0272 13       		.uleb128 0x13
 5620 0273 00       		.byte	0
 5621 0274 00       		.byte	0
 5622 0275 31       		.uleb128 0x31
 5623 0276 8A8201   		.uleb128 0x410a
 5624 0279 00       		.byte	0
 5625 027a 02       		.uleb128 0x2
 5626 027b 18       		.uleb128 0x18
 5627 027c 9142     		.uleb128 0x2111
 5628 027e 18       		.uleb128 0x18
 5629 027f 00       		.byte	0
 5630 0280 00       		.byte	0
 5631 0281 32       		.uleb128 0x32
 5632 0282 898201   		.uleb128 0x4109
 5633 0285 01       		.byte	0x1
 5634 0286 11       		.uleb128 0x11
 5635 0287 01       		.uleb128 0x1
 5636 0288 31       		.uleb128 0x31
 5637 0289 13       		.uleb128 0x13
 5638 028a 00       		.byte	0
 5639 028b 00       		.byte	0
 5640 028c 33       		.uleb128 0x33
 5641 028d 2E       		.uleb128 0x2e
 5642 028e 01       		.byte	0x1
 5643 028f 3F       		.uleb128 0x3f
 5644 0290 19       		.uleb128 0x19
 5645 0291 03       		.uleb128 0x3
 5646 0292 0E       		.uleb128 0xe
 5647 0293 3A       		.uleb128 0x3a
 5648 0294 0B       		.uleb128 0xb
 5649 0295 3B       		.uleb128 0x3b
 5650 0296 0B       		.uleb128 0xb
 5651 0297 27       		.uleb128 0x27
 5652 0298 19       		.uleb128 0x19
 5653 0299 49       		.uleb128 0x49
 5654 029a 13       		.uleb128 0x13
 5655 029b 11       		.uleb128 0x11
 5656 029c 01       		.uleb128 0x1
 5657 029d 12       		.uleb128 0x12
ARM GAS  C:\Users\pearlstl\AppData\Local\Temp\ccJvDP4q.s 			page 117


 5658 029e 06       		.uleb128 0x6
 5659 029f 40       		.uleb128 0x40
 5660 02a0 18       		.uleb128 0x18
 5661 02a1 9742     		.uleb128 0x2117
 5662 02a3 19       		.uleb128 0x19
 5663 02a4 01       		.uleb128 0x1
 5664 02a5 13       		.uleb128 0x13
 5665 02a6 00       		.byte	0
 5666 02a7 00       		.byte	0
 5667 02a8 34       		.uleb128 0x34
 5668 02a9 34       		.uleb128 0x34
 5669 02aa 00       		.byte	0
 5670 02ab 03       		.uleb128 0x3
 5671 02ac 0E       		.uleb128 0xe
 5672 02ad 3A       		.uleb128 0x3a
 5673 02ae 0B       		.uleb128 0xb
 5674 02af 3B       		.uleb128 0x3b
 5675 02b0 0B       		.uleb128 0xb
 5676 02b1 49       		.uleb128 0x49
 5677 02b2 13       		.uleb128 0x13
 5678 02b3 02       		.uleb128 0x2
 5679 02b4 18       		.uleb128 0x18
 5680 02b5 00       		.byte	0
 5681 02b6 00       		.byte	0
 5682 02b7 35       		.uleb128 0x35
 5683 02b8 34       		.uleb128 0x34
 5684 02b9 00       		.byte	0
 5685 02ba 03       		.uleb128 0x3
 5686 02bb 0E       		.uleb128 0xe
 5687 02bc 3A       		.uleb128 0x3a
 5688 02bd 0B       		.uleb128 0xb
 5689 02be 3B       		.uleb128 0x3b
 5690 02bf 0B       		.uleb128 0xb
 5691 02c0 49       		.uleb128 0x49
 5692 02c1 13       		.uleb128 0x13
 5693 02c2 02       		.uleb128 0x2
 5694 02c3 17       		.uleb128 0x17
 5695 02c4 00       		.byte	0
 5696 02c5 00       		.byte	0
 5697 02c6 36       		.uleb128 0x36
 5698 02c7 0B       		.uleb128 0xb
 5699 02c8 01       		.byte	0x1
 5700 02c9 55       		.uleb128 0x55
 5701 02ca 17       		.uleb128 0x17
 5702 02cb 01       		.uleb128 0x1
 5703 02cc 13       		.uleb128 0x13
 5704 02cd 00       		.byte	0
 5705 02ce 00       		.byte	0
 5706 02cf 37       		.uleb128 0x37
 5707 02d0 34       		.uleb128 0x34
 5708 02d1 00       		.byte	0
 5709 02d2 03       		.uleb128 0x3
 5710 02d3 0E       		.uleb128 0xe
 5711 02d4 3A       		.uleb128 0x3a
 5712 02d5 0B       		.uleb128 0xb
 5713 02d6 3B       		.uleb128 0x3b
 5714 02d7 0B       		.uleb128 0xb
ARM GAS  C:\Users\pearlstl\AppData\Local\Temp\ccJvDP4q.s 			page 118


 5715 02d8 49       		.uleb128 0x49
 5716 02d9 13       		.uleb128 0x13
 5717 02da 00       		.byte	0
 5718 02db 00       		.byte	0
 5719 02dc 38       		.uleb128 0x38
 5720 02dd 0B       		.uleb128 0xb
 5721 02de 01       		.byte	0x1
 5722 02df 11       		.uleb128 0x11
 5723 02e0 01       		.uleb128 0x1
 5724 02e1 12       		.uleb128 0x12
 5725 02e2 06       		.uleb128 0x6
 5726 02e3 00       		.byte	0
 5727 02e4 00       		.byte	0
 5728 02e5 39       		.uleb128 0x39
 5729 02e6 34       		.uleb128 0x34
 5730 02e7 00       		.byte	0
 5731 02e8 03       		.uleb128 0x3
 5732 02e9 08       		.uleb128 0x8
 5733 02ea 3A       		.uleb128 0x3a
 5734 02eb 0B       		.uleb128 0xb
 5735 02ec 3B       		.uleb128 0x3b
 5736 02ed 0B       		.uleb128 0xb
 5737 02ee 49       		.uleb128 0x49
 5738 02ef 13       		.uleb128 0x13
 5739 02f0 02       		.uleb128 0x2
 5740 02f1 17       		.uleb128 0x17
 5741 02f2 00       		.byte	0
 5742 02f3 00       		.byte	0
 5743 02f4 3A       		.uleb128 0x3a
 5744 02f5 01       		.uleb128 0x1
 5745 02f6 01       		.byte	0x1
 5746 02f7 49       		.uleb128 0x49
 5747 02f8 13       		.uleb128 0x13
 5748 02f9 01       		.uleb128 0x1
 5749 02fa 13       		.uleb128 0x13
 5750 02fb 00       		.byte	0
 5751 02fc 00       		.byte	0
 5752 02fd 3B       		.uleb128 0x3b
 5753 02fe 21       		.uleb128 0x21
 5754 02ff 00       		.byte	0
 5755 0300 49       		.uleb128 0x49
 5756 0301 13       		.uleb128 0x13
 5757 0302 2F       		.uleb128 0x2f
 5758 0303 0B       		.uleb128 0xb
 5759 0304 00       		.byte	0
 5760 0305 00       		.byte	0
 5761 0306 3C       		.uleb128 0x3c
 5762 0307 05       		.uleb128 0x5
 5763 0308 00       		.byte	0
 5764 0309 03       		.uleb128 0x3
 5765 030a 08       		.uleb128 0x8
 5766 030b 3A       		.uleb128 0x3a
 5767 030c 0B       		.uleb128 0xb
 5768 030d 3B       		.uleb128 0x3b
 5769 030e 0B       		.uleb128 0xb
 5770 030f 49       		.uleb128 0x49
 5771 0310 13       		.uleb128 0x13
ARM GAS  C:\Users\pearlstl\AppData\Local\Temp\ccJvDP4q.s 			page 119


 5772 0311 02       		.uleb128 0x2
 5773 0312 18       		.uleb128 0x18
 5774 0313 00       		.byte	0
 5775 0314 00       		.byte	0
 5776 0315 3D       		.uleb128 0x3d
 5777 0316 34       		.uleb128 0x34
 5778 0317 00       		.byte	0
 5779 0318 03       		.uleb128 0x3
 5780 0319 08       		.uleb128 0x8
 5781 031a 3A       		.uleb128 0x3a
 5782 031b 0B       		.uleb128 0xb
 5783 031c 3B       		.uleb128 0x3b
 5784 031d 05       		.uleb128 0x5
 5785 031e 49       		.uleb128 0x49
 5786 031f 13       		.uleb128 0x13
 5787 0320 02       		.uleb128 0x2
 5788 0321 17       		.uleb128 0x17
 5789 0322 00       		.byte	0
 5790 0323 00       		.byte	0
 5791 0324 3E       		.uleb128 0x3e
 5792 0325 2E       		.uleb128 0x2e
 5793 0326 01       		.byte	0x1
 5794 0327 3F       		.uleb128 0x3f
 5795 0328 19       		.uleb128 0x19
 5796 0329 03       		.uleb128 0x3
 5797 032a 0E       		.uleb128 0xe
 5798 032b 3A       		.uleb128 0x3a
 5799 032c 0B       		.uleb128 0xb
 5800 032d 3B       		.uleb128 0x3b
 5801 032e 05       		.uleb128 0x5
 5802 032f 27       		.uleb128 0x27
 5803 0330 19       		.uleb128 0x19
 5804 0331 11       		.uleb128 0x11
 5805 0332 01       		.uleb128 0x1
 5806 0333 12       		.uleb128 0x12
 5807 0334 06       		.uleb128 0x6
 5808 0335 40       		.uleb128 0x40
 5809 0336 18       		.uleb128 0x18
 5810 0337 9742     		.uleb128 0x2117
 5811 0339 19       		.uleb128 0x19
 5812 033a 01       		.uleb128 0x1
 5813 033b 13       		.uleb128 0x13
 5814 033c 00       		.byte	0
 5815 033d 00       		.byte	0
 5816 033e 3F       		.uleb128 0x3f
 5817 033f 05       		.uleb128 0x5
 5818 0340 00       		.byte	0
 5819 0341 03       		.uleb128 0x3
 5820 0342 08       		.uleb128 0x8
 5821 0343 3A       		.uleb128 0x3a
 5822 0344 0B       		.uleb128 0xb
 5823 0345 3B       		.uleb128 0x3b
 5824 0346 05       		.uleb128 0x5
 5825 0347 49       		.uleb128 0x49
 5826 0348 13       		.uleb128 0x13
 5827 0349 02       		.uleb128 0x2
 5828 034a 17       		.uleb128 0x17
ARM GAS  C:\Users\pearlstl\AppData\Local\Temp\ccJvDP4q.s 			page 120


 5829 034b 00       		.byte	0
 5830 034c 00       		.byte	0
 5831 034d 40       		.uleb128 0x40
 5832 034e 34       		.uleb128 0x34
 5833 034f 00       		.byte	0
 5834 0350 03       		.uleb128 0x3
 5835 0351 0E       		.uleb128 0xe
 5836 0352 3A       		.uleb128 0x3a
 5837 0353 0B       		.uleb128 0xb
 5838 0354 3B       		.uleb128 0x3b
 5839 0355 05       		.uleb128 0x5
 5840 0356 49       		.uleb128 0x49
 5841 0357 13       		.uleb128 0x13
 5842 0358 02       		.uleb128 0x2
 5843 0359 17       		.uleb128 0x17
 5844 035a 00       		.byte	0
 5845 035b 00       		.byte	0
 5846 035c 41       		.uleb128 0x41
 5847 035d 05       		.uleb128 0x5
 5848 035e 00       		.byte	0
 5849 035f 03       		.uleb128 0x3
 5850 0360 08       		.uleb128 0x8
 5851 0361 3A       		.uleb128 0x3a
 5852 0362 0B       		.uleb128 0xb
 5853 0363 3B       		.uleb128 0x3b
 5854 0364 05       		.uleb128 0x5
 5855 0365 49       		.uleb128 0x49
 5856 0366 13       		.uleb128 0x13
 5857 0367 02       		.uleb128 0x2
 5858 0368 18       		.uleb128 0x18
 5859 0369 00       		.byte	0
 5860 036a 00       		.byte	0
 5861 036b 42       		.uleb128 0x42
 5862 036c 34       		.uleb128 0x34
 5863 036d 00       		.byte	0
 5864 036e 03       		.uleb128 0x3
 5865 036f 08       		.uleb128 0x8
 5866 0370 3A       		.uleb128 0x3a
 5867 0371 0B       		.uleb128 0xb
 5868 0372 3B       		.uleb128 0x3b
 5869 0373 05       		.uleb128 0x5
 5870 0374 49       		.uleb128 0x49
 5871 0375 13       		.uleb128 0x13
 5872 0376 02       		.uleb128 0x2
 5873 0377 18       		.uleb128 0x18
 5874 0378 00       		.byte	0
 5875 0379 00       		.byte	0
 5876 037a 43       		.uleb128 0x43
 5877 037b 2E       		.uleb128 0x2e
 5878 037c 01       		.byte	0x1
 5879 037d 31       		.uleb128 0x31
 5880 037e 13       		.uleb128 0x13
 5881 037f 11       		.uleb128 0x11
 5882 0380 01       		.uleb128 0x1
 5883 0381 12       		.uleb128 0x12
 5884 0382 06       		.uleb128 0x6
 5885 0383 40       		.uleb128 0x40
ARM GAS  C:\Users\pearlstl\AppData\Local\Temp\ccJvDP4q.s 			page 121


 5886 0384 18       		.uleb128 0x18
 5887 0385 9742     		.uleb128 0x2117
 5888 0387 19       		.uleb128 0x19
 5889 0388 01       		.uleb128 0x1
 5890 0389 13       		.uleb128 0x13
 5891 038a 00       		.byte	0
 5892 038b 00       		.byte	0
 5893 038c 44       		.uleb128 0x44
 5894 038d 2E       		.uleb128 0x2e
 5895 038e 01       		.byte	0x1
 5896 038f 3F       		.uleb128 0x3f
 5897 0390 19       		.uleb128 0x19
 5898 0391 03       		.uleb128 0x3
 5899 0392 0E       		.uleb128 0xe
 5900 0393 3A       		.uleb128 0x3a
 5901 0394 0B       		.uleb128 0xb
 5902 0395 3B       		.uleb128 0x3b
 5903 0396 05       		.uleb128 0x5
 5904 0397 27       		.uleb128 0x27
 5905 0398 19       		.uleb128 0x19
 5906 0399 49       		.uleb128 0x49
 5907 039a 13       		.uleb128 0x13
 5908 039b 11       		.uleb128 0x11
 5909 039c 01       		.uleb128 0x1
 5910 039d 12       		.uleb128 0x12
 5911 039e 06       		.uleb128 0x6
 5912 039f 40       		.uleb128 0x40
 5913 03a0 18       		.uleb128 0x18
 5914 03a1 9742     		.uleb128 0x2117
 5915 03a3 19       		.uleb128 0x19
 5916 03a4 01       		.uleb128 0x1
 5917 03a5 13       		.uleb128 0x13
 5918 03a6 00       		.byte	0
 5919 03a7 00       		.byte	0
 5920 03a8 45       		.uleb128 0x45
 5921 03a9 34       		.uleb128 0x34
 5922 03aa 00       		.byte	0
 5923 03ab 03       		.uleb128 0x3
 5924 03ac 0E       		.uleb128 0xe
 5925 03ad 3A       		.uleb128 0x3a
 5926 03ae 0B       		.uleb128 0xb
 5927 03af 3B       		.uleb128 0x3b
 5928 03b0 05       		.uleb128 0x5
 5929 03b1 49       		.uleb128 0x49
 5930 03b2 13       		.uleb128 0x13
 5931 03b3 1C       		.uleb128 0x1c
 5932 03b4 0B       		.uleb128 0xb
 5933 03b5 00       		.byte	0
 5934 03b6 00       		.byte	0
 5935 03b7 46       		.uleb128 0x46
 5936 03b8 898201   		.uleb128 0x4109
 5937 03bb 00       		.byte	0
 5938 03bc 11       		.uleb128 0x11
 5939 03bd 01       		.uleb128 0x1
 5940 03be 31       		.uleb128 0x31
 5941 03bf 13       		.uleb128 0x13
 5942 03c0 00       		.byte	0
ARM GAS  C:\Users\pearlstl\AppData\Local\Temp\ccJvDP4q.s 			page 122


 5943 03c1 00       		.byte	0
 5944 03c2 47       		.uleb128 0x47
 5945 03c3 898201   		.uleb128 0x4109
 5946 03c6 01       		.byte	0x1
 5947 03c7 11       		.uleb128 0x11
 5948 03c8 01       		.uleb128 0x1
 5949 03c9 9542     		.uleb128 0x2115
 5950 03cb 19       		.uleb128 0x19
 5951 03cc 31       		.uleb128 0x31
 5952 03cd 13       		.uleb128 0x13
 5953 03ce 00       		.byte	0
 5954 03cf 00       		.byte	0
 5955 03d0 48       		.uleb128 0x48
 5956 03d1 05       		.uleb128 0x5
 5957 03d2 00       		.byte	0
 5958 03d3 31       		.uleb128 0x31
 5959 03d4 13       		.uleb128 0x13
 5960 03d5 02       		.uleb128 0x2
 5961 03d6 18       		.uleb128 0x18
 5962 03d7 00       		.byte	0
 5963 03d8 00       		.byte	0
 5964 03d9 49       		.uleb128 0x49
 5965 03da 34       		.uleb128 0x34
 5966 03db 00       		.byte	0
 5967 03dc 03       		.uleb128 0x3
 5968 03dd 0E       		.uleb128 0xe
 5969 03de 3A       		.uleb128 0x3a
 5970 03df 0B       		.uleb128 0xb
 5971 03e0 3B       		.uleb128 0x3b
 5972 03e1 05       		.uleb128 0x5
 5973 03e2 49       		.uleb128 0x49
 5974 03e3 13       		.uleb128 0x13
 5975 03e4 3F       		.uleb128 0x3f
 5976 03e5 19       		.uleb128 0x19
 5977 03e6 3C       		.uleb128 0x3c
 5978 03e7 19       		.uleb128 0x19
 5979 03e8 00       		.byte	0
 5980 03e9 00       		.byte	0
 5981 03ea 4A       		.uleb128 0x4a
 5982 03eb 2E       		.uleb128 0x2e
 5983 03ec 00       		.byte	0
 5984 03ed 3F       		.uleb128 0x3f
 5985 03ee 19       		.uleb128 0x19
 5986 03ef 3C       		.uleb128 0x3c
 5987 03f0 19       		.uleb128 0x19
 5988 03f1 6E       		.uleb128 0x6e
 5989 03f2 0E       		.uleb128 0xe
 5990 03f3 03       		.uleb128 0x3
 5991 03f4 0E       		.uleb128 0xe
 5992 03f5 3A       		.uleb128 0x3a
 5993 03f6 0B       		.uleb128 0xb
 5994 03f7 3B       		.uleb128 0x3b
 5995 03f8 0B       		.uleb128 0xb
 5996 03f9 00       		.byte	0
 5997 03fa 00       		.byte	0
 5998 03fb 4B       		.uleb128 0x4b
 5999 03fc 2E       		.uleb128 0x2e
ARM GAS  C:\Users\pearlstl\AppData\Local\Temp\ccJvDP4q.s 			page 123


 6000 03fd 00       		.byte	0
 6001 03fe 3F       		.uleb128 0x3f
 6002 03ff 19       		.uleb128 0x19
 6003 0400 3C       		.uleb128 0x3c
 6004 0401 19       		.uleb128 0x19
 6005 0402 6E       		.uleb128 0x6e
 6006 0403 0E       		.uleb128 0xe
 6007 0404 03       		.uleb128 0x3
 6008 0405 0E       		.uleb128 0xe
 6009 0406 3A       		.uleb128 0x3a
 6010 0407 0B       		.uleb128 0xb
 6011 0408 3B       		.uleb128 0x3b
 6012 0409 05       		.uleb128 0x5
 6013 040a 00       		.byte	0
 6014 040b 00       		.byte	0
 6015 040c 4C       		.uleb128 0x4c
 6016 040d 2E       		.uleb128 0x2e
 6017 040e 00       		.byte	0
 6018 040f 3F       		.uleb128 0x3f
 6019 0410 19       		.uleb128 0x19
 6020 0411 3C       		.uleb128 0x3c
 6021 0412 19       		.uleb128 0x19
 6022 0413 6E       		.uleb128 0x6e
 6023 0414 0E       		.uleb128 0xe
 6024 0415 03       		.uleb128 0x3
 6025 0416 0E       		.uleb128 0xe
 6026 0417 00       		.byte	0
 6027 0418 00       		.byte	0
 6028 0419 00       		.byte	0
 6029              		.section	.debug_loc,"",%progbits
 6030              	.Ldebug_loc0:
 6031              	.LLST0:
 6032 0000 00000000 		.4byte	.LVL0
 6033 0004 1A000000 		.4byte	.LVL2
 6034 0008 0100     		.2byte	0x1
 6035 000a 50       		.byte	0x50
 6036 000b 1A000000 		.4byte	.LVL2
 6037 000f B0000000 		.4byte	.LVL18
 6038 0013 0100     		.2byte	0x1
 6039 0015 54       		.byte	0x54
 6040 0016 B0000000 		.4byte	.LVL18
 6041 001a B6000000 		.4byte	.LVL19
 6042 001e 0400     		.2byte	0x4
 6043 0020 F3       		.byte	0xf3
 6044 0021 01       		.uleb128 0x1
 6045 0022 50       		.byte	0x50
 6046 0023 9F       		.byte	0x9f
 6047 0024 B6000000 		.4byte	.LVL19
 6048 0028 20010000 		.4byte	.LVL28
 6049 002c 0100     		.2byte	0x1
 6050 002e 54       		.byte	0x54
 6051 002f 20010000 		.4byte	.LVL28
 6052 0033 8A010000 		.4byte	.LVL36
 6053 0037 0200     		.2byte	0x2
 6054 0039 91       		.byte	0x91
 6055 003a 44       		.sleb128 -60
 6056 003b 8A010000 		.4byte	.LVL36
ARM GAS  C:\Users\pearlstl\AppData\Local\Temp\ccJvDP4q.s 			page 124


 6057 003f B8010000 		.4byte	.LVL39
 6058 0043 0400     		.2byte	0x4
 6059 0045 F3       		.byte	0xf3
 6060 0046 01       		.uleb128 0x1
 6061 0047 50       		.byte	0x50
 6062 0048 9F       		.byte	0x9f
 6063 0049 B8010000 		.4byte	.LVL39
 6064 004d FC010000 		.4byte	.LVL45
 6065 0051 0100     		.2byte	0x1
 6066 0053 54       		.byte	0x54
 6067 0054 FC010000 		.4byte	.LVL45
 6068 0058 03020000 		.4byte	.LVL48-1
 6069 005c 0100     		.2byte	0x1
 6070 005e 50       		.byte	0x50
 6071 005f 03020000 		.4byte	.LVL48-1
 6072 0063 24020000 		.4byte	.LVL50
 6073 0067 0100     		.2byte	0x1
 6074 0069 54       		.byte	0x54
 6075 006a 24020000 		.4byte	.LVL50
 6076 006e 2C020000 		.4byte	.LFE31
 6077 0072 0400     		.2byte	0x4
 6078 0074 F3       		.byte	0xf3
 6079 0075 01       		.uleb128 0x1
 6080 0076 50       		.byte	0x50
 6081 0077 9F       		.byte	0x9f
 6082 0078 00000000 		.4byte	0
 6083 007c 00000000 		.4byte	0
 6084              	.LLST1:
 6085 0080 00000000 		.4byte	.LVL0
 6086 0084 21000000 		.4byte	.LVL5-1
 6087 0088 0100     		.2byte	0x1
 6088 008a 51       		.byte	0x51
 6089 008b 21000000 		.4byte	.LVL5-1
 6090 008f 20010000 		.4byte	.LVL28
 6091 0093 0100     		.2byte	0x1
 6092 0095 58       		.byte	0x58
 6093 0096 20010000 		.4byte	.LVL28
 6094 009a 37010000 		.4byte	.LVL29-1
 6095 009e 0100     		.2byte	0x1
 6096 00a0 51       		.byte	0x51
 6097 00a1 37010000 		.4byte	.LVL29-1
 6098 00a5 80010000 		.4byte	.LVL34
 6099 00a9 0100     		.2byte	0x1
 6100 00ab 58       		.byte	0x58
 6101 00ac 80010000 		.4byte	.LVL34
 6102 00b0 89010000 		.4byte	.LVL36-1
 6103 00b4 0100     		.2byte	0x1
 6104 00b6 51       		.byte	0x51
 6105 00b7 89010000 		.4byte	.LVL36-1
 6106 00bb FC010000 		.4byte	.LVL45
 6107 00bf 0100     		.2byte	0x1
 6108 00c1 58       		.byte	0x58
 6109 00c2 FC010000 		.4byte	.LVL45
 6110 00c6 03020000 		.4byte	.LVL48-1
 6111 00ca 0100     		.2byte	0x1
 6112 00cc 51       		.byte	0x51
 6113 00cd 03020000 		.4byte	.LVL48-1
ARM GAS  C:\Users\pearlstl\AppData\Local\Temp\ccJvDP4q.s 			page 125


 6114 00d1 24020000 		.4byte	.LVL50
 6115 00d5 0100     		.2byte	0x1
 6116 00d7 58       		.byte	0x58
 6117 00d8 24020000 		.4byte	.LVL50
 6118 00dc 2C020000 		.4byte	.LFE31
 6119 00e0 0400     		.2byte	0x4
 6120 00e2 F3       		.byte	0xf3
 6121 00e3 01       		.uleb128 0x1
 6122 00e4 51       		.byte	0x51
 6123 00e5 9F       		.byte	0x9f
 6124 00e6 00000000 		.4byte	0
 6125 00ea 00000000 		.4byte	0
 6126              	.LLST2:
 6127 00ee 00000000 		.4byte	.LVL0
 6128 00f2 1C000000 		.4byte	.LVL3
 6129 00f6 0100     		.2byte	0x1
 6130 00f8 52       		.byte	0x52
 6131 00f9 1C000000 		.4byte	.LVL3
 6132 00fd 48000000 		.4byte	.LVL10
 6133 0101 0100     		.2byte	0x1
 6134 0103 57       		.byte	0x57
 6135 0104 48000000 		.4byte	.LVL10
 6136 0108 FC010000 		.4byte	.LVL45
 6137 010c 0400     		.2byte	0x4
 6138 010e F3       		.byte	0xf3
 6139 010f 01       		.uleb128 0x1
 6140 0110 52       		.byte	0x52
 6141 0111 9F       		.byte	0x9f
 6142 0112 FC010000 		.4byte	.LVL45
 6143 0116 00020000 		.4byte	.LVL47
 6144 011a 0100     		.2byte	0x1
 6145 011c 52       		.byte	0x52
 6146 011d 00020000 		.4byte	.LVL47
 6147 0121 24020000 		.4byte	.LVL50
 6148 0125 0100     		.2byte	0x1
 6149 0127 57       		.byte	0x57
 6150 0128 24020000 		.4byte	.LVL50
 6151 012c 2C020000 		.4byte	.LFE31
 6152 0130 0400     		.2byte	0x4
 6153 0132 F3       		.byte	0xf3
 6154 0133 01       		.uleb128 0x1
 6155 0134 52       		.byte	0x52
 6156 0135 9F       		.byte	0x9f
 6157 0136 00000000 		.4byte	0
 6158 013a 00000000 		.4byte	0
 6159              	.LLST3:
 6160 013e 00000000 		.4byte	.LVL0
 6161 0142 21000000 		.4byte	.LVL5-1
 6162 0146 0100     		.2byte	0x1
 6163 0148 53       		.byte	0x53
 6164 0149 21000000 		.4byte	.LVL5-1
 6165 014d E2010000 		.4byte	.LVL42
 6166 0151 0100     		.2byte	0x1
 6167 0153 55       		.byte	0x55
 6168 0154 E2010000 		.4byte	.LVL42
 6169 0158 FC010000 		.4byte	.LVL45
 6170 015c 0400     		.2byte	0x4
ARM GAS  C:\Users\pearlstl\AppData\Local\Temp\ccJvDP4q.s 			page 126


 6171 015e F3       		.byte	0xf3
 6172 015f 01       		.uleb128 0x1
 6173 0160 53       		.byte	0x53
 6174 0161 9F       		.byte	0x9f
 6175 0162 FC010000 		.4byte	.LVL45
 6176 0166 FE010000 		.4byte	.LVL46
 6177 016a 0100     		.2byte	0x1
 6178 016c 53       		.byte	0x53
 6179 016d FE010000 		.4byte	.LVL46
 6180 0171 2C020000 		.4byte	.LFE31
 6181 0175 0400     		.2byte	0x4
 6182 0177 F3       		.byte	0xf3
 6183 0178 01       		.uleb128 0x1
 6184 0179 53       		.byte	0x53
 6185 017a 9F       		.byte	0x9f
 6186 017b 00000000 		.4byte	0
 6187 017f 00000000 		.4byte	0
 6188              	.LLST4:
 6189 0183 00000000 		.4byte	.LVL0
 6190 0187 B6000000 		.4byte	.LVL19
 6191 018b 0200     		.2byte	0x2
 6192 018d 91       		.byte	0x91
 6193 018e 00       		.sleb128 0
 6194 018f B6000000 		.4byte	.LVL19
 6195 0193 24020000 		.4byte	.LVL50
 6196 0197 0200     		.2byte	0x2
 6197 0199 91       		.byte	0x91
 6198 019a 00       		.sleb128 0
 6199 019b 24020000 		.4byte	.LVL50
 6200 019f 2C020000 		.4byte	.LFE31
 6201 01a3 0200     		.2byte	0x2
 6202 01a5 7D       		.byte	0x7d
 6203 01a6 00       		.sleb128 0
 6204 01a7 00000000 		.4byte	0
 6205 01ab 00000000 		.4byte	0
 6206              	.LLST5:
 6207 01af 1E000000 		.4byte	.LVL4
 6208 01b3 34000000 		.4byte	.LVL6
 6209 01b7 0100     		.2byte	0x1
 6210 01b9 59       		.byte	0x59
 6211 01ba 34000000 		.4byte	.LVL6
 6212 01be 8A010000 		.4byte	.LVL36
 6213 01c2 0200     		.2byte	0x2
 6214 01c4 91       		.byte	0x91
 6215 01c5 00       		.sleb128 0
 6216 01c6 B8010000 		.4byte	.LVL39
 6217 01ca FC010000 		.4byte	.LVL45
 6218 01ce 0200     		.2byte	0x2
 6219 01d0 91       		.byte	0x91
 6220 01d1 00       		.sleb128 0
 6221 01d2 00000000 		.4byte	0
 6222 01d6 00000000 		.4byte	0
 6223              	.LLST6:
 6224 01da 1E000000 		.4byte	.LVL4
 6225 01de 21000000 		.4byte	.LVL5-1
 6226 01e2 0100     		.2byte	0x1
 6227 01e4 53       		.byte	0x53
ARM GAS  C:\Users\pearlstl\AppData\Local\Temp\ccJvDP4q.s 			page 127


 6228 01e5 21000000 		.4byte	.LVL5-1
 6229 01e9 8A010000 		.4byte	.LVL36
 6230 01ed 0100     		.2byte	0x1
 6231 01ef 55       		.byte	0x55
 6232 01f0 B8010000 		.4byte	.LVL39
 6233 01f4 E2010000 		.4byte	.LVL42
 6234 01f8 0100     		.2byte	0x1
 6235 01fa 55       		.byte	0x55
 6236 01fb E2010000 		.4byte	.LVL42
 6237 01ff FC010000 		.4byte	.LVL45
 6238 0203 0400     		.2byte	0x4
 6239 0205 F3       		.byte	0xf3
 6240 0206 01       		.uleb128 0x1
 6241 0207 53       		.byte	0x53
 6242 0208 9F       		.byte	0x9f
 6243 0209 00000000 		.4byte	0
 6244 020d 00000000 		.4byte	0
 6245              	.LLST7:
 6246 0211 16000000 		.4byte	.LVL1
 6247 0215 1C000000 		.4byte	.LVL3
 6248 0219 0100     		.2byte	0x1
 6249 021b 52       		.byte	0x52
 6250 021c 1C000000 		.4byte	.LVL3
 6251 0220 48000000 		.4byte	.LVL10
 6252 0224 0100     		.2byte	0x1
 6253 0226 57       		.byte	0x57
 6254 0227 48000000 		.4byte	.LVL10
 6255 022b 8A010000 		.4byte	.LVL36
 6256 022f 0400     		.2byte	0x4
 6257 0231 F3       		.byte	0xf3
 6258 0232 01       		.uleb128 0x1
 6259 0233 52       		.byte	0x52
 6260 0234 9F       		.byte	0x9f
 6261 0235 B8010000 		.4byte	.LVL39
 6262 0239 FC010000 		.4byte	.LVL45
 6263 023d 0400     		.2byte	0x4
 6264 023f F3       		.byte	0xf3
 6265 0240 01       		.uleb128 0x1
 6266 0241 52       		.byte	0x52
 6267 0242 9F       		.byte	0x9f
 6268 0243 00000000 		.4byte	0
 6269 0247 00000000 		.4byte	0
 6270              	.LLST8:
 6271 024b 16000000 		.4byte	.LVL1
 6272 024f 21000000 		.4byte	.LVL5-1
 6273 0253 0100     		.2byte	0x1
 6274 0255 51       		.byte	0x51
 6275 0256 21000000 		.4byte	.LVL5-1
 6276 025a 20010000 		.4byte	.LVL28
 6277 025e 0100     		.2byte	0x1
 6278 0260 58       		.byte	0x58
 6279 0261 20010000 		.4byte	.LVL28
 6280 0265 37010000 		.4byte	.LVL29-1
 6281 0269 0100     		.2byte	0x1
 6282 026b 51       		.byte	0x51
 6283 026c 37010000 		.4byte	.LVL29-1
 6284 0270 80010000 		.4byte	.LVL34
ARM GAS  C:\Users\pearlstl\AppData\Local\Temp\ccJvDP4q.s 			page 128


 6285 0274 0100     		.2byte	0x1
 6286 0276 58       		.byte	0x58
 6287 0277 80010000 		.4byte	.LVL34
 6288 027b 89010000 		.4byte	.LVL36-1
 6289 027f 0100     		.2byte	0x1
 6290 0281 51       		.byte	0x51
 6291 0282 89010000 		.4byte	.LVL36-1
 6292 0286 8A010000 		.4byte	.LVL36
 6293 028a 0100     		.2byte	0x1
 6294 028c 58       		.byte	0x58
 6295 028d B8010000 		.4byte	.LVL39
 6296 0291 FC010000 		.4byte	.LVL45
 6297 0295 0100     		.2byte	0x1
 6298 0297 58       		.byte	0x58
 6299 0298 00000000 		.4byte	0
 6300 029c 00000000 		.4byte	0
 6301              	.LLST9:
 6302 02a0 16000000 		.4byte	.LVL1
 6303 02a4 1A000000 		.4byte	.LVL2
 6304 02a8 0100     		.2byte	0x1
 6305 02aa 50       		.byte	0x50
 6306 02ab 1A000000 		.4byte	.LVL2
 6307 02af B0000000 		.4byte	.LVL18
 6308 02b3 0100     		.2byte	0x1
 6309 02b5 54       		.byte	0x54
 6310 02b6 B0000000 		.4byte	.LVL18
 6311 02ba B6000000 		.4byte	.LVL19
 6312 02be 0400     		.2byte	0x4
 6313 02c0 F3       		.byte	0xf3
 6314 02c1 01       		.uleb128 0x1
 6315 02c2 50       		.byte	0x50
 6316 02c3 9F       		.byte	0x9f
 6317 02c4 B6000000 		.4byte	.LVL19
 6318 02c8 20010000 		.4byte	.LVL28
 6319 02cc 0100     		.2byte	0x1
 6320 02ce 54       		.byte	0x54
 6321 02cf 20010000 		.4byte	.LVL28
 6322 02d3 8A010000 		.4byte	.LVL36
 6323 02d7 0200     		.2byte	0x2
 6324 02d9 91       		.byte	0x91
 6325 02da 44       		.sleb128 -60
 6326 02db B8010000 		.4byte	.LVL39
 6327 02df FC010000 		.4byte	.LVL45
 6328 02e3 0100     		.2byte	0x1
 6329 02e5 54       		.byte	0x54
 6330 02e6 00000000 		.4byte	0
 6331 02ea 00000000 		.4byte	0
 6332              	.LLST10:
 6333 02ee 22000000 		.4byte	.LVL5
 6334 02f2 3A000000 		.4byte	.LVL7
 6335 02f6 0100     		.2byte	0x1
 6336 02f8 50       		.byte	0x50
 6337 02f9 00000000 		.4byte	0
 6338 02fd 00000000 		.4byte	0
 6339              	.LLST11:
 6340 0301 42000000 		.4byte	.LVL8
 6341 0305 B0000000 		.4byte	.LVL18
ARM GAS  C:\Users\pearlstl\AppData\Local\Temp\ccJvDP4q.s 			page 129


 6342 0309 0100     		.2byte	0x1
 6343 030b 59       		.byte	0x59
 6344 030c B6000000 		.4byte	.LVL19
 6345 0310 8A010000 		.4byte	.LVL36
 6346 0314 0100     		.2byte	0x1
 6347 0316 59       		.byte	0x59
 6348 0317 B8010000 		.4byte	.LVL39
 6349 031b FC010000 		.4byte	.LVL45
 6350 031f 0100     		.2byte	0x1
 6351 0321 59       		.byte	0x59
 6352 0322 00000000 		.4byte	0
 6353 0326 00000000 		.4byte	0
 6354              	.LLST12:
 6355 032a 46000000 		.4byte	.LVL9
 6356 032e 90000000 		.4byte	.LVL16
 6357 0332 0100     		.2byte	0x1
 6358 0334 50       		.byte	0x50
 6359 0335 90000000 		.4byte	.LVL16
 6360 0339 B0000000 		.4byte	.LVL18
 6361 033d 0100     		.2byte	0x1
 6362 033f 57       		.byte	0x57
 6363 0340 B6000000 		.4byte	.LVL19
 6364 0344 C8000000 		.4byte	.LVL20
 6365 0348 0100     		.2byte	0x1
 6366 034a 50       		.byte	0x50
 6367 034b C8000000 		.4byte	.LVL20
 6368 034f 20010000 		.4byte	.LVL28
 6369 0353 0100     		.2byte	0x1
 6370 0355 57       		.byte	0x57
 6371 0356 20010000 		.4byte	.LVL28
 6372 035a 8A010000 		.4byte	.LVL36
 6373 035e 0300     		.2byte	0x3
 6374 0360 91       		.byte	0x91
 6375 0361 B07F     		.sleb128 -80
 6376 0363 B8010000 		.4byte	.LVL39
 6377 0367 F0010000 		.4byte	.LVL43
 6378 036b 0100     		.2byte	0x1
 6379 036d 50       		.byte	0x50
 6380 036e F0010000 		.4byte	.LVL43
 6381 0372 FC010000 		.4byte	.LVL45
 6382 0376 0100     		.2byte	0x1
 6383 0378 57       		.byte	0x57
 6384 0379 00000000 		.4byte	0
 6385 037d 00000000 		.4byte	0
 6386              	.LLST13:
 6387 0381 68000000 		.4byte	.LVL12
 6388 0385 74000000 		.4byte	.LVL14
 6389 0389 0100     		.2byte	0x1
 6390 038b 53       		.byte	0x53
 6391 038c 74000000 		.4byte	.LVL14
 6392 0390 7C000000 		.4byte	.LVL15
 6393 0394 0700     		.2byte	0x7
 6394 0396 70       		.byte	0x70
 6395 0397 10       		.sleb128 16
 6396 0398 94       		.byte	0x94
 6397 0399 01       		.byte	0x1
 6398 039a 4F       		.byte	0x4f
ARM GAS  C:\Users\pearlstl\AppData\Local\Temp\ccJvDP4q.s 			page 130


 6399 039b 1A       		.byte	0x1a
 6400 039c 9F       		.byte	0x9f
 6401 039d B8010000 		.4byte	.LVL39
 6402 03a1 C6010000 		.4byte	.LVL40
 6403 03a5 0100     		.2byte	0x1
 6404 03a7 53       		.byte	0x53
 6405 03a8 C6010000 		.4byte	.LVL40
 6406 03ac CA010000 		.4byte	.LVL41
 6407 03b0 0700     		.2byte	0x7
 6408 03b2 70       		.byte	0x70
 6409 03b3 10       		.sleb128 16
 6410 03b4 94       		.byte	0x94
 6411 03b5 01       		.byte	0x1
 6412 03b6 4F       		.byte	0x4f
 6413 03b7 1A       		.byte	0x1a
 6414 03b8 9F       		.byte	0x9f
 6415 03b9 00000000 		.4byte	0
 6416 03bd 00000000 		.4byte	0
 6417              	.LLST14:
 6418 03c1 68000000 		.4byte	.LVL12
 6419 03c5 7C000000 		.4byte	.LVL15
 6420 03c9 0200     		.2byte	0x2
 6421 03cb 30       		.byte	0x30
 6422 03cc 9F       		.byte	0x9f
 6423 03cd B8010000 		.4byte	.LVL39
 6424 03d1 CA010000 		.4byte	.LVL41
 6425 03d5 0200     		.2byte	0x2
 6426 03d7 30       		.byte	0x30
 6427 03d8 9F       		.byte	0x9f
 6428 03d9 00000000 		.4byte	0
 6429 03dd 00000000 		.4byte	0
 6430              	.LLST15:
 6431 03e1 CE000000 		.4byte	.LVL21
 6432 03e5 D0000000 		.4byte	.LVL22
 6433 03e9 0200     		.2byte	0x2
 6434 03eb 91       		.byte	0x91
 6435 03ec 40       		.sleb128 -64
 6436 03ed 00000000 		.4byte	0
 6437 03f1 00000000 		.4byte	0
 6438              	.LLST16:
 6439 03f5 06010000 		.4byte	.LVL27
 6440 03f9 8A010000 		.4byte	.LVL36
 6441 03fd 0300     		.2byte	0x3
 6442 03ff 91       		.byte	0x91
 6443 0400 B47F     		.sleb128 -76
 6444 0402 00000000 		.4byte	0
 6445 0406 00000000 		.4byte	0
 6446              	.LLST17:
 6447 040a 06010000 		.4byte	.LVL27
 6448 040e 20010000 		.4byte	.LVL28
 6449 0412 0300     		.2byte	0x3
 6450 0414 91       		.byte	0x91
 6451 0415 B87F     		.sleb128 -72
 6452 0417 20010000 		.4byte	.LVL28
 6453 041b 48010000 		.4byte	.LVL30
 6454 041f 0900     		.2byte	0x9
 6455 0421 74       		.byte	0x74
ARM GAS  C:\Users\pearlstl\AppData\Local\Temp\ccJvDP4q.s 			page 131


 6456 0422 00       		.sleb128 0
 6457 0423 91       		.byte	0x91
 6458 0424 B87F     		.sleb128 -72
 6459 0426 94       		.byte	0x94
 6460 0427 02       		.byte	0x2
 6461 0428 22       		.byte	0x22
 6462 0429 9F       		.byte	0x9f
 6463 042a 64010000 		.4byte	.LVL31
 6464 042e 84010000 		.4byte	.LVL35
 6465 0432 0900     		.2byte	0x9
 6466 0434 74       		.byte	0x74
 6467 0435 00       		.sleb128 0
 6468 0436 91       		.byte	0x91
 6469 0437 B87F     		.sleb128 -72
 6470 0439 94       		.byte	0x94
 6471 043a 02       		.byte	0x2
 6472 043b 22       		.byte	0x22
 6473 043c 9F       		.byte	0x9f
 6474 043d 00000000 		.4byte	0
 6475 0441 00000000 		.4byte	0
 6476              	.LLST18:
 6477 0445 06010000 		.4byte	.LVL27
 6478 0449 20010000 		.4byte	.LVL28
 6479 044d 0100     		.2byte	0x1
 6480 044f 50       		.byte	0x50
 6481 0450 00000000 		.4byte	0
 6482 0454 00000000 		.4byte	0
 6483              	.LLST19:
 6484 0458 70010000 		.4byte	.LVL32
 6485 045c 7A010000 		.4byte	.LVL33
 6486 0460 0100     		.2byte	0x1
 6487 0462 50       		.byte	0x50
 6488 0463 00000000 		.4byte	0
 6489 0467 00000000 		.4byte	0
 6490              	.LLST20:
 6491 046b B6000000 		.4byte	.LVL19
 6492 046f F6000000 		.4byte	.LVL26
 6493 0473 0100     		.2byte	0x1
 6494 0475 56       		.byte	0x56
 6495 0476 F6000000 		.4byte	.LVL26
 6496 047a 8A010000 		.4byte	.LVL36
 6497 047e 0300     		.2byte	0x3
 6498 0480 91       		.byte	0x91
 6499 0481 48       		.sleb128 -56
 6500 0482 9F       		.byte	0x9f
 6501 0483 00000000 		.4byte	0
 6502 0487 00000000 		.4byte	0
 6503              	.LLST22:
 6504 048b CE000000 		.4byte	.LVL21
 6505 048f DA000000 		.4byte	.LVL24
 6506 0493 0100     		.2byte	0x1
 6507 0495 56       		.byte	0x56
 6508 0496 00000000 		.4byte	0
 6509 049a 00000000 		.4byte	0
 6510              	.LLST23:
 6511 049e CE000000 		.4byte	.LVL21
 6512 04a2 D6000000 		.4byte	.LVL23
ARM GAS  C:\Users\pearlstl\AppData\Local\Temp\ccJvDP4q.s 			page 132


 6513 04a6 0300     		.2byte	0x3
 6514 04a8 91       		.byte	0x91
 6515 04a9 50       		.sleb128 -48
 6516 04aa 9F       		.byte	0x9f
 6517 04ab D6000000 		.4byte	.LVL23
 6518 04af DA000000 		.4byte	.LVL24
 6519 04b3 0100     		.2byte	0x1
 6520 04b5 52       		.byte	0x52
 6521 04b6 00000000 		.4byte	0
 6522 04ba 00000000 		.4byte	0
 6523              	.LLST24:
 6524 04be 00000000 		.4byte	.LVL51
 6525 04c2 38000000 		.4byte	.LVL56
 6526 04c6 0100     		.2byte	0x1
 6527 04c8 50       		.byte	0x50
 6528 04c9 38000000 		.4byte	.LVL56
 6529 04cd 14010000 		.4byte	.LFE32
 6530 04d1 0400     		.2byte	0x4
 6531 04d3 F3       		.byte	0xf3
 6532 04d4 01       		.uleb128 0x1
 6533 04d5 50       		.byte	0x50
 6534 04d6 9F       		.byte	0x9f
 6535 04d7 00000000 		.4byte	0
 6536 04db 00000000 		.4byte	0
 6537              	.LLST25:
 6538 04df 00000000 		.4byte	.LVL51
 6539 04e3 22000000 		.4byte	.LVL52
 6540 04e7 0100     		.2byte	0x1
 6541 04e9 51       		.byte	0x51
 6542 04ea 22000000 		.4byte	.LVL52
 6543 04ee 24000000 		.4byte	.LVL53
 6544 04f2 0400     		.2byte	0x4
 6545 04f4 F3       		.byte	0xf3
 6546 04f5 01       		.uleb128 0x1
 6547 04f6 51       		.byte	0x51
 6548 04f7 9F       		.byte	0x9f
 6549 04f8 24000000 		.4byte	.LVL53
 6550 04fc 28000000 		.4byte	.LVL54
 6551 0500 0D00     		.2byte	0xd
 6552 0502 71       		.byte	0x71
 6553 0503 00       		.sleb128 0
 6554 0504 12       		.byte	0x12
 6555 0505 30       		.byte	0x30
 6556 0506 16       		.byte	0x16
 6557 0507 14       		.byte	0x14
 6558 0508 2B       		.byte	0x2b
 6559 0509 28       		.byte	0x28
 6560 050a 0100     		.2byte	0x1
 6561 050c 16       		.byte	0x16
 6562 050d 13       		.byte	0x13
 6563 050e 9F       		.byte	0x9f
 6564 050f 00000000 		.4byte	0
 6565 0513 00000000 		.4byte	0
 6566              	.LLST26:
 6567 0517 00000000 		.4byte	.LVL51
 6568 051b 32000000 		.4byte	.LVL55
 6569 051f 0100     		.2byte	0x1
ARM GAS  C:\Users\pearlstl\AppData\Local\Temp\ccJvDP4q.s 			page 133


 6570 0521 52       		.byte	0x52
 6571 0522 32000000 		.4byte	.LVL55
 6572 0526 42000000 		.4byte	.LVL57
 6573 052a 0D00     		.2byte	0xd
 6574 052c 72       		.byte	0x72
 6575 052d 00       		.sleb128 0
 6576 052e 12       		.byte	0x12
 6577 052f 30       		.byte	0x30
 6578 0530 16       		.byte	0x16
 6579 0531 14       		.byte	0x14
 6580 0532 2B       		.byte	0x2b
 6581 0533 28       		.byte	0x28
 6582 0534 0100     		.2byte	0x1
 6583 0536 16       		.byte	0x16
 6584 0537 13       		.byte	0x13
 6585 0538 9F       		.byte	0x9f
 6586 0539 00000000 		.4byte	0
 6587 053d 00000000 		.4byte	0
 6588              	.LLST27:
 6589 0541 00000000 		.4byte	.LVL51
 6590 0545 62000000 		.4byte	.LVL58
 6591 0549 0100     		.2byte	0x1
 6592 054b 53       		.byte	0x53
 6593 054c 62000000 		.4byte	.LVL58
 6594 0550 66000000 		.4byte	.LVL59
 6595 0554 0400     		.2byte	0x4
 6596 0556 F3       		.byte	0xf3
 6597 0557 01       		.uleb128 0x1
 6598 0558 53       		.byte	0x53
 6599 0559 9F       		.byte	0x9f
 6600 055a 66000000 		.4byte	.LVL59
 6601 055e 74000000 		.4byte	.LVL60
 6602 0562 0100     		.2byte	0x1
 6603 0564 53       		.byte	0x53
 6604 0565 74000000 		.4byte	.LVL60
 6605 0569 90000000 		.4byte	.LVL63
 6606 056d 0400     		.2byte	0x4
 6607 056f F3       		.byte	0xf3
 6608 0570 01       		.uleb128 0x1
 6609 0571 53       		.byte	0x53
 6610 0572 9F       		.byte	0x9f
 6611 0573 90000000 		.4byte	.LVL63
 6612 0577 98000000 		.4byte	.LVL65
 6613 057b 0100     		.2byte	0x1
 6614 057d 53       		.byte	0x53
 6615 057e 98000000 		.4byte	.LVL65
 6616 0582 B8000000 		.4byte	.LVL66
 6617 0586 0400     		.2byte	0x4
 6618 0588 F3       		.byte	0xf3
 6619 0589 01       		.uleb128 0x1
 6620 058a 53       		.byte	0x53
 6621 058b 9F       		.byte	0x9f
 6622 058c B8000000 		.4byte	.LVL66
 6623 0590 BC000000 		.4byte	.LVL67
 6624 0594 0100     		.2byte	0x1
 6625 0596 53       		.byte	0x53
 6626 0597 BC000000 		.4byte	.LVL67
ARM GAS  C:\Users\pearlstl\AppData\Local\Temp\ccJvDP4q.s 			page 134


 6627 059b DC000000 		.4byte	.LVL68
 6628 059f 0400     		.2byte	0x4
 6629 05a1 F3       		.byte	0xf3
 6630 05a2 01       		.uleb128 0x1
 6631 05a3 53       		.byte	0x53
 6632 05a4 9F       		.byte	0x9f
 6633 05a5 DC000000 		.4byte	.LVL68
 6634 05a9 E4000000 		.4byte	.LVL69
 6635 05ad 0100     		.2byte	0x1
 6636 05af 53       		.byte	0x53
 6637 05b0 E4000000 		.4byte	.LVL69
 6638 05b4 02010000 		.4byte	.LVL70
 6639 05b8 0400     		.2byte	0x4
 6640 05ba F3       		.byte	0xf3
 6641 05bb 01       		.uleb128 0x1
 6642 05bc 53       		.byte	0x53
 6643 05bd 9F       		.byte	0x9f
 6644 05be 02010000 		.4byte	.LVL70
 6645 05c2 08010000 		.4byte	.LVL71
 6646 05c6 0100     		.2byte	0x1
 6647 05c8 53       		.byte	0x53
 6648 05c9 08010000 		.4byte	.LVL71
 6649 05cd 14010000 		.4byte	.LFE32
 6650 05d1 0400     		.2byte	0x4
 6651 05d3 F3       		.byte	0xf3
 6652 05d4 01       		.uleb128 0x1
 6653 05d5 53       		.byte	0x53
 6654 05d6 9F       		.byte	0x9f
 6655 05d7 00000000 		.4byte	0
 6656 05db 00000000 		.4byte	0
 6657              	.LLST28:
 6658 05df 32000000 		.4byte	.LVL55
 6659 05e3 8A000000 		.4byte	.LVL62
 6660 05e7 0100     		.2byte	0x1
 6661 05e9 57       		.byte	0x57
 6662 05ea 90000000 		.4byte	.LVL63
 6663 05ee 94000000 		.4byte	.LVL64
 6664 05f2 0100     		.2byte	0x1
 6665 05f4 57       		.byte	0x57
 6666 05f5 94000000 		.4byte	.LVL64
 6667 05f9 B8000000 		.4byte	.LVL66
 6668 05fd 0300     		.2byte	0x3
 6669 05ff 77       		.byte	0x77
 6670 0600 08       		.sleb128 8
 6671 0601 9F       		.byte	0x9f
 6672 0602 B8000000 		.4byte	.LVL66
 6673 0606 DC000000 		.4byte	.LVL68
 6674 060a 0300     		.2byte	0x3
 6675 060c 77       		.byte	0x77
 6676 060d 10       		.sleb128 16
 6677 060e 9F       		.byte	0x9f
 6678 060f DC000000 		.4byte	.LVL68
 6679 0613 02010000 		.4byte	.LVL70
 6680 0617 0400     		.2byte	0x4
 6681 0619 77       		.byte	0x77
 6682 061a C000     		.sleb128 64
 6683 061c 9F       		.byte	0x9f
ARM GAS  C:\Users\pearlstl\AppData\Local\Temp\ccJvDP4q.s 			page 135


 6684 061d 02010000 		.4byte	.LVL70
 6685 0621 14010000 		.4byte	.LFE32
 6686 0625 0400     		.2byte	0x4
 6687 0627 77       		.byte	0x77
 6688 0628 8008     		.sleb128 1024
 6689 062a 9F       		.byte	0x9f
 6690 062b 00000000 		.4byte	0
 6691 062f 00000000 		.4byte	0
 6692              	.LLST29:
 6693 0633 00000000 		.4byte	.LVL72
 6694 0637 52000000 		.4byte	.LVL80
 6695 063b 0100     		.2byte	0x1
 6696 063d 50       		.byte	0x50
 6697 063e 52000000 		.4byte	.LVL80
 6698 0642 5A000000 		.4byte	.LVL82
 6699 0646 0400     		.2byte	0x4
 6700 0648 F3       		.byte	0xf3
 6701 0649 01       		.uleb128 0x1
 6702 064a 50       		.byte	0x50
 6703 064b 9F       		.byte	0x9f
 6704 064c 5A000000 		.4byte	.LVL82
 6705 0650 5C000000 		.4byte	.LVL83
 6706 0654 0100     		.2byte	0x1
 6707 0656 50       		.byte	0x50
 6708 0657 5C000000 		.4byte	.LVL83
 6709 065b 82000000 		.4byte	.LVL88
 6710 065f 0400     		.2byte	0x4
 6711 0661 F3       		.byte	0xf3
 6712 0662 01       		.uleb128 0x1
 6713 0663 50       		.byte	0x50
 6714 0664 9F       		.byte	0x9f
 6715 0665 82000000 		.4byte	.LVL88
 6716 0669 96000000 		.4byte	.LVL91
 6717 066d 0100     		.2byte	0x1
 6718 066f 50       		.byte	0x50
 6719 0670 96000000 		.4byte	.LVL91
 6720 0674 B4000000 		.4byte	.LVL94
 6721 0678 0400     		.2byte	0x4
 6722 067a F3       		.byte	0xf3
 6723 067b 01       		.uleb128 0x1
 6724 067c 50       		.byte	0x50
 6725 067d 9F       		.byte	0x9f
 6726 067e B4000000 		.4byte	.LVL94
 6727 0682 BE000000 		.4byte	.LVL97
 6728 0686 0100     		.2byte	0x1
 6729 0688 50       		.byte	0x50
 6730 0689 BE000000 		.4byte	.LVL97
 6731 068d C4000000 		.4byte	.LVL99
 6732 0691 0400     		.2byte	0x4
 6733 0693 F3       		.byte	0xf3
 6734 0694 01       		.uleb128 0x1
 6735 0695 50       		.byte	0x50
 6736 0696 9F       		.byte	0x9f
 6737 0697 C4000000 		.4byte	.LVL99
 6738 069b C6000000 		.4byte	.LVL100
 6739 069f 0100     		.2byte	0x1
 6740 06a1 50       		.byte	0x50
ARM GAS  C:\Users\pearlstl\AppData\Local\Temp\ccJvDP4q.s 			page 136


 6741 06a2 C6000000 		.4byte	.LVL100
 6742 06a6 00010000 		.4byte	.LFE33
 6743 06aa 0400     		.2byte	0x4
 6744 06ac F3       		.byte	0xf3
 6745 06ad 01       		.uleb128 0x1
 6746 06ae 50       		.byte	0x50
 6747 06af 9F       		.byte	0x9f
 6748 06b0 00000000 		.4byte	0
 6749 06b4 00000000 		.4byte	0
 6750              	.LLST30:
 6751 06b8 00000000 		.4byte	.LVL72
 6752 06bc 1A000000 		.4byte	.LVL73
 6753 06c0 0100     		.2byte	0x1
 6754 06c2 51       		.byte	0x51
 6755 06c3 1A000000 		.4byte	.LVL73
 6756 06c7 1C000000 		.4byte	.LVL74
 6757 06cb 0400     		.2byte	0x4
 6758 06cd F3       		.byte	0xf3
 6759 06ce 01       		.uleb128 0x1
 6760 06cf 51       		.byte	0x51
 6761 06d0 9F       		.byte	0x9f
 6762 06d1 1C000000 		.4byte	.LVL74
 6763 06d5 50000000 		.4byte	.LVL79
 6764 06d9 0100     		.2byte	0x1
 6765 06db 51       		.byte	0x51
 6766 06dc 5A000000 		.4byte	.LVL82
 6767 06e0 68000000 		.4byte	.LVL85
 6768 06e4 0500     		.2byte	0x5
 6769 06e6 71       		.byte	0x71
 6770 06e7 00       		.sleb128 0
 6771 06e8 33       		.byte	0x33
 6772 06e9 26       		.byte	0x26
 6773 06ea 9F       		.byte	0x9f
 6774 06eb 82000000 		.4byte	.LVL88
 6775 06ef 90000000 		.4byte	.LVL90
 6776 06f3 0100     		.2byte	0x1
 6777 06f5 51       		.byte	0x51
 6778 06f6 B4000000 		.4byte	.LVL94
 6779 06fa B8000000 		.4byte	.LVL95
 6780 06fe 0100     		.2byte	0x1
 6781 0700 51       		.byte	0x51
 6782 0701 C4000000 		.4byte	.LVL99
 6783 0705 D4000000 		.4byte	.LVL102
 6784 0709 0100     		.2byte	0x1
 6785 070b 51       		.byte	0x51
 6786 070c 00000000 		.4byte	0
 6787 0710 00000000 		.4byte	0
 6788              	.LLST31:
 6789 0714 00000000 		.4byte	.LVL72
 6790 0718 2A000000 		.4byte	.LVL76
 6791 071c 0100     		.2byte	0x1
 6792 071e 52       		.byte	0x52
 6793 071f 2A000000 		.4byte	.LVL76
 6794 0723 54000000 		.4byte	.LVL81
 6795 0727 0100     		.2byte	0x1
 6796 0729 52       		.byte	0x52
 6797 072a 5A000000 		.4byte	.LVL82
ARM GAS  C:\Users\pearlstl\AppData\Local\Temp\ccJvDP4q.s 			page 137


 6798 072e 62000000 		.4byte	.LVL84
 6799 0732 0100     		.2byte	0x1
 6800 0734 52       		.byte	0x52
 6801 0735 82000000 		.4byte	.LVL88
 6802 0739 8A000000 		.4byte	.LVL89
 6803 073d 0100     		.2byte	0x1
 6804 073f 52       		.byte	0x52
 6805 0740 B4000000 		.4byte	.LVL94
 6806 0744 BC000000 		.4byte	.LVL96
 6807 0748 0100     		.2byte	0x1
 6808 074a 52       		.byte	0x52
 6809 074b C4000000 		.4byte	.LVL99
 6810 074f D8000000 		.4byte	.LVL103
 6811 0753 0100     		.2byte	0x1
 6812 0755 52       		.byte	0x52
 6813 0756 00000000 		.4byte	0
 6814 075a 00000000 		.4byte	0
 6815              	.LLST32:
 6816 075e 36000000 		.4byte	.LVL77
 6817 0762 54000000 		.4byte	.LVL81
 6818 0766 0100     		.2byte	0x1
 6819 0768 56       		.byte	0x56
 6820 0769 54000000 		.4byte	.LVL81
 6821 076d 5A000000 		.4byte	.LVL82
 6822 0771 0500     		.2byte	0x5
 6823 0773 F3       		.byte	0xf3
 6824 0774 01       		.uleb128 0x1
 6825 0775 50       		.byte	0x50
 6826 0776 23       		.byte	0x23
 6827 0777 08       		.uleb128 0x8
 6828 0778 5A000000 		.4byte	.LVL82
 6829 077c 80000000 		.4byte	.LVL87
 6830 0780 0100     		.2byte	0x1
 6831 0782 56       		.byte	0x56
 6832 0783 80000000 		.4byte	.LVL87
 6833 0787 82000000 		.4byte	.LVL88
 6834 078b 0500     		.2byte	0x5
 6835 078d F3       		.byte	0xf3
 6836 078e 01       		.uleb128 0x1
 6837 078f 50       		.byte	0x50
 6838 0790 23       		.byte	0x23
 6839 0791 08       		.uleb128 0x8
 6840 0792 82000000 		.4byte	.LVL88
 6841 0796 B2000000 		.4byte	.LVL93
 6842 079a 0100     		.2byte	0x1
 6843 079c 56       		.byte	0x56
 6844 079d B2000000 		.4byte	.LVL93
 6845 07a1 B4000000 		.4byte	.LVL94
 6846 07a5 0500     		.2byte	0x5
 6847 07a7 F3       		.byte	0xf3
 6848 07a8 01       		.uleb128 0x1
 6849 07a9 50       		.byte	0x50
 6850 07aa 23       		.byte	0x23
 6851 07ab 08       		.uleb128 0x8
 6852 07ac B4000000 		.4byte	.LVL94
 6853 07b0 C2000000 		.4byte	.LVL98
 6854 07b4 0100     		.2byte	0x1
ARM GAS  C:\Users\pearlstl\AppData\Local\Temp\ccJvDP4q.s 			page 138


 6855 07b6 56       		.byte	0x56
 6856 07b7 C2000000 		.4byte	.LVL98
 6857 07bb C4000000 		.4byte	.LVL99
 6858 07bf 0500     		.2byte	0x5
 6859 07c1 F3       		.byte	0xf3
 6860 07c2 01       		.uleb128 0x1
 6861 07c3 50       		.byte	0x50
 6862 07c4 23       		.byte	0x23
 6863 07c5 08       		.uleb128 0x8
 6864 07c6 C4000000 		.4byte	.LVL99
 6865 07ca D0000000 		.4byte	.LVL101
 6866 07ce 0100     		.2byte	0x1
 6867 07d0 56       		.byte	0x56
 6868 07d1 D0000000 		.4byte	.LVL101
 6869 07d5 00010000 		.4byte	.LFE33
 6870 07d9 0500     		.2byte	0x5
 6871 07db F3       		.byte	0xf3
 6872 07dc 01       		.uleb128 0x1
 6873 07dd 50       		.byte	0x50
 6874 07de 23       		.byte	0x23
 6875 07df 08       		.uleb128 0x8
 6876 07e0 00000000 		.4byte	0
 6877 07e4 00000000 		.4byte	0
 6878              	.LLST33:
 6879 07e8 4A000000 		.4byte	.LVL78
 6880 07ec 50000000 		.4byte	.LVL79
 6881 07f0 1500     		.2byte	0x15
 6882 07f2 72       		.byte	0x72
 6883 07f3 00       		.sleb128 0
 6884 07f4 40       		.byte	0x40
 6885 07f5 24       		.byte	0x24
 6886 07f6 40       		.byte	0x40
 6887 07f7 26       		.byte	0x26
 6888 07f8 75       		.byte	0x75
 6889 07f9 00       		.sleb128 0
 6890 07fa 40       		.byte	0x40
 6891 07fb 24       		.byte	0x24
 6892 07fc 40       		.byte	0x40
 6893 07fd 26       		.byte	0x26
 6894 07fe 1E       		.byte	0x1e
 6895 07ff 71       		.byte	0x71
 6896 0800 00       		.sleb128 0
 6897 0801 40       		.byte	0x40
 6898 0802 24       		.byte	0x24
 6899 0803 40       		.byte	0x40
 6900 0804 26       		.byte	0x26
 6901 0805 22       		.byte	0x22
 6902 0806 9F       		.byte	0x9f
 6903 0807 00000000 		.4byte	0
 6904 080b 00000000 		.4byte	0
 6905              	.LLST34:
 6906 080f 5A000000 		.4byte	.LVL82
 6907 0813 68000000 		.4byte	.LVL85
 6908 0817 0500     		.2byte	0x5
 6909 0819 71       		.byte	0x71
 6910 081a 00       		.sleb128 0
 6911 081b 37       		.byte	0x37
ARM GAS  C:\Users\pearlstl\AppData\Local\Temp\ccJvDP4q.s 			page 139


 6912 081c 1A       		.byte	0x1a
 6913 081d 9F       		.byte	0x9f
 6914 081e 00000000 		.4byte	0
 6915 0822 00000000 		.4byte	0
 6916              	.LLST35:
 6917 0826 5A000000 		.4byte	.LVL82
 6918 082a 62000000 		.4byte	.LVL84
 6919 082e 1500     		.2byte	0x15
 6920 0830 74       		.byte	0x74
 6921 0831 07       		.sleb128 7
 6922 0832 33       		.byte	0x33
 6923 0833 26       		.byte	0x26
 6924 0834 72       		.byte	0x72
 6925 0835 00       		.sleb128 0
 6926 0836 40       		.byte	0x40
 6927 0837 24       		.byte	0x24
 6928 0838 40       		.byte	0x40
 6929 0839 26       		.byte	0x26
 6930 083a 1E       		.byte	0x1e
 6931 083b 71       		.byte	0x71
 6932 083c 00       		.sleb128 0
 6933 083d 33       		.byte	0x33
 6934 083e 26       		.byte	0x26
 6935 083f 40       		.byte	0x40
 6936 0840 24       		.byte	0x24
 6937 0841 40       		.byte	0x40
 6938 0842 26       		.byte	0x26
 6939 0843 22       		.byte	0x22
 6940 0844 9F       		.byte	0x9f
 6941 0845 00000000 		.4byte	0
 6942 0849 00000000 		.4byte	0
 6943              	.LLST36:
 6944 084d B4000000 		.4byte	.LVL94
 6945 0851 B8000000 		.4byte	.LVL95
 6946 0855 1700     		.2byte	0x17
 6947 0857 72       		.byte	0x72
 6948 0858 00       		.sleb128 0
 6949 0859 40       		.byte	0x40
 6950 085a 24       		.byte	0x24
 6951 085b 40       		.byte	0x40
 6952 085c 26       		.byte	0x26
 6953 085d 75       		.byte	0x75
 6954 085e 00       		.sleb128 0
 6955 085f 40       		.byte	0x40
 6956 0860 24       		.byte	0x24
 6957 0861 40       		.byte	0x40
 6958 0862 26       		.byte	0x26
 6959 0863 1E       		.byte	0x1e
 6960 0864 71       		.byte	0x71
 6961 0865 00       		.sleb128 0
 6962 0866 40       		.byte	0x40
 6963 0867 24       		.byte	0x24
 6964 0868 40       		.byte	0x40
 6965 0869 26       		.byte	0x26
 6966 086a 22       		.byte	0x22
 6967 086b 32       		.byte	0x32
 6968 086c 24       		.byte	0x24
ARM GAS  C:\Users\pearlstl\AppData\Local\Temp\ccJvDP4q.s 			page 140


 6969 086d 9F       		.byte	0x9f
 6970 086e 00000000 		.4byte	0
 6971 0872 00000000 		.4byte	0
 6972              	.LLST37:
 6973 0876 00000000 		.4byte	.LVL106
 6974 087a 2C000000 		.4byte	.LVL109
 6975 087e 0100     		.2byte	0x1
 6976 0880 50       		.byte	0x50
 6977 0881 2C000000 		.4byte	.LVL109
 6978 0885 3C000000 		.4byte	.LVL114
 6979 0889 0400     		.2byte	0x4
 6980 088b F3       		.byte	0xf3
 6981 088c 01       		.uleb128 0x1
 6982 088d 50       		.byte	0x50
 6983 088e 9F       		.byte	0x9f
 6984 088f 3C000000 		.4byte	.LVL114
 6985 0893 5A000000 		.4byte	.LVL117
 6986 0897 0100     		.2byte	0x1
 6987 0899 50       		.byte	0x50
 6988 089a 5A000000 		.4byte	.LVL117
 6989 089e 6A000000 		.4byte	.LVL121
 6990 08a2 0400     		.2byte	0x4
 6991 08a4 F3       		.byte	0xf3
 6992 08a5 01       		.uleb128 0x1
 6993 08a6 50       		.byte	0x50
 6994 08a7 9F       		.byte	0x9f
 6995 08a8 6A000000 		.4byte	.LVL121
 6996 08ac 88000000 		.4byte	.LVL124
 6997 08b0 0100     		.2byte	0x1
 6998 08b2 50       		.byte	0x50
 6999 08b3 88000000 		.4byte	.LVL124
 7000 08b7 B6000000 		.4byte	.LVL128
 7001 08bb 0400     		.2byte	0x4
 7002 08bd F3       		.byte	0xf3
 7003 08be 01       		.uleb128 0x1
 7004 08bf 50       		.byte	0x50
 7005 08c0 9F       		.byte	0x9f
 7006 08c1 B6000000 		.4byte	.LVL128
 7007 08c5 B8000000 		.4byte	.LVL129
 7008 08c9 0100     		.2byte	0x1
 7009 08cb 50       		.byte	0x50
 7010 08cc B8000000 		.4byte	.LVL129
 7011 08d0 EA000000 		.4byte	.LVL133
 7012 08d4 0400     		.2byte	0x4
 7013 08d6 F3       		.byte	0xf3
 7014 08d7 01       		.uleb128 0x1
 7015 08d8 50       		.byte	0x50
 7016 08d9 9F       		.byte	0x9f
 7017 08da EA000000 		.4byte	.LVL133
 7018 08de F4000000 		.4byte	.LVL135
 7019 08e2 0100     		.2byte	0x1
 7020 08e4 50       		.byte	0x50
 7021 08e5 F4000000 		.4byte	.LVL135
 7022 08e9 18010000 		.4byte	.LFE34
 7023 08ed 0400     		.2byte	0x4
 7024 08ef F3       		.byte	0xf3
 7025 08f0 01       		.uleb128 0x1
ARM GAS  C:\Users\pearlstl\AppData\Local\Temp\ccJvDP4q.s 			page 141


 7026 08f1 50       		.byte	0x50
 7027 08f2 9F       		.byte	0x9f
 7028 08f3 00000000 		.4byte	0
 7029 08f7 00000000 		.4byte	0
 7030              	.LLST38:
 7031 08fb 00000000 		.4byte	.LVL106
 7032 08ff 34000000 		.4byte	.LVL111
 7033 0903 0100     		.2byte	0x1
 7034 0905 51       		.byte	0x51
 7035 0906 34000000 		.4byte	.LVL111
 7036 090a 3C000000 		.4byte	.LVL114
 7037 090e 0400     		.2byte	0x4
 7038 0910 F3       		.byte	0xf3
 7039 0911 01       		.uleb128 0x1
 7040 0912 51       		.byte	0x51
 7041 0913 9F       		.byte	0x9f
 7042 0914 3C000000 		.4byte	.LVL114
 7043 0918 62000000 		.4byte	.LVL119
 7044 091c 0100     		.2byte	0x1
 7045 091e 51       		.byte	0x51
 7046 091f 62000000 		.4byte	.LVL119
 7047 0923 66000000 		.4byte	.LVL120
 7048 0927 0400     		.2byte	0x4
 7049 0929 F3       		.byte	0xf3
 7050 092a 01       		.uleb128 0x1
 7051 092b 51       		.byte	0x51
 7052 092c 9F       		.byte	0x9f
 7053 092d 6A000000 		.4byte	.LVL121
 7054 0931 86000000 		.4byte	.LVL123
 7055 0935 0100     		.2byte	0x1
 7056 0937 51       		.byte	0x51
 7057 0938 86000000 		.4byte	.LVL123
 7058 093c 9C000000 		.4byte	.LVL126
 7059 0940 0500     		.2byte	0x5
 7060 0942 71       		.byte	0x71
 7061 0943 00       		.sleb128 0
 7062 0944 33       		.byte	0x33
 7063 0945 26       		.byte	0x26
 7064 0946 9F       		.byte	0x9f
 7065 0947 9C000000 		.4byte	.LVL126
 7066 094b B6000000 		.4byte	.LVL128
 7067 094f 0600     		.2byte	0x6
 7068 0951 F3       		.byte	0xf3
 7069 0952 01       		.uleb128 0x1
 7070 0953 51       		.byte	0x51
 7071 0954 33       		.byte	0x33
 7072 0955 26       		.byte	0x26
 7073 0956 9F       		.byte	0x9f
 7074 0957 B6000000 		.4byte	.LVL128
 7075 095b C6000000 		.4byte	.LVL130
 7076 095f 0500     		.2byte	0x5
 7077 0961 71       		.byte	0x71
 7078 0962 00       		.sleb128 0
 7079 0963 32       		.byte	0x32
 7080 0964 26       		.byte	0x26
 7081 0965 9F       		.byte	0x9f
 7082 0966 C6000000 		.4byte	.LVL130
ARM GAS  C:\Users\pearlstl\AppData\Local\Temp\ccJvDP4q.s 			page 142


 7083 096a D4000000 		.4byte	.LVL132
 7084 096e 0600     		.2byte	0x6
 7085 0970 F3       		.byte	0xf3
 7086 0971 01       		.uleb128 0x1
 7087 0972 51       		.byte	0x51
 7088 0973 32       		.byte	0x32
 7089 0974 26       		.byte	0x26
 7090 0975 9F       		.byte	0x9f
 7091 0976 EA000000 		.4byte	.LVL133
 7092 097a F2000000 		.4byte	.LVL134
 7093 097e 0100     		.2byte	0x1
 7094 0980 51       		.byte	0x51
 7095 0981 F2000000 		.4byte	.LVL134
 7096 0985 02010000 		.4byte	.LVL136
 7097 0989 0500     		.2byte	0x5
 7098 098b 71       		.byte	0x71
 7099 098c 00       		.sleb128 0
 7100 098d 31       		.byte	0x31
 7101 098e 26       		.byte	0x26
 7102 098f 9F       		.byte	0x9f
 7103 0990 02010000 		.4byte	.LVL136
 7104 0994 18010000 		.4byte	.LFE34
 7105 0998 0600     		.2byte	0x6
 7106 099a F3       		.byte	0xf3
 7107 099b 01       		.uleb128 0x1
 7108 099c 51       		.byte	0x51
 7109 099d 31       		.byte	0x31
 7110 099e 26       		.byte	0x26
 7111 099f 9F       		.byte	0x9f
 7112 09a0 00000000 		.4byte	0
 7113 09a4 00000000 		.4byte	0
 7114              	.LLST39:
 7115 09a8 00000000 		.4byte	.LVL106
 7116 09ac 60000000 		.4byte	.LVL118
 7117 09b0 0100     		.2byte	0x1
 7118 09b2 52       		.byte	0x52
 7119 09b3 60000000 		.4byte	.LVL118
 7120 09b7 6A000000 		.4byte	.LVL121
 7121 09bb 0400     		.2byte	0x4
 7122 09bd F3       		.byte	0xf3
 7123 09be 01       		.uleb128 0x1
 7124 09bf 52       		.byte	0x52
 7125 09c0 9F       		.byte	0x9f
 7126 09c1 6A000000 		.4byte	.LVL121
 7127 09c5 96000000 		.4byte	.LVL125
 7128 09c9 0100     		.2byte	0x1
 7129 09cb 52       		.byte	0x52
 7130 09cc 96000000 		.4byte	.LVL125
 7131 09d0 B6000000 		.4byte	.LVL128
 7132 09d4 0400     		.2byte	0x4
 7133 09d6 F3       		.byte	0xf3
 7134 09d7 01       		.uleb128 0x1
 7135 09d8 52       		.byte	0x52
 7136 09d9 9F       		.byte	0x9f
 7137 09da B6000000 		.4byte	.LVL128
 7138 09de CA000000 		.4byte	.LVL131
 7139 09e2 0100     		.2byte	0x1
ARM GAS  C:\Users\pearlstl\AppData\Local\Temp\ccJvDP4q.s 			page 143


 7140 09e4 52       		.byte	0x52
 7141 09e5 CA000000 		.4byte	.LVL131
 7142 09e9 EA000000 		.4byte	.LVL133
 7143 09ed 0400     		.2byte	0x4
 7144 09ef F3       		.byte	0xf3
 7145 09f0 01       		.uleb128 0x1
 7146 09f1 52       		.byte	0x52
 7147 09f2 9F       		.byte	0x9f
 7148 09f3 EA000000 		.4byte	.LVL133
 7149 09f7 06010000 		.4byte	.LVL137
 7150 09fb 0100     		.2byte	0x1
 7151 09fd 52       		.byte	0x52
 7152 09fe 06010000 		.4byte	.LVL137
 7153 0a02 18010000 		.4byte	.LFE34
 7154 0a06 0400     		.2byte	0x4
 7155 0a08 F3       		.byte	0xf3
 7156 0a09 01       		.uleb128 0x1
 7157 0a0a 52       		.byte	0x52
 7158 0a0b 9F       		.byte	0x9f
 7159 0a0c 00000000 		.4byte	0
 7160 0a10 00000000 		.4byte	0
 7161              	.LLST40:
 7162 0a14 06000000 		.4byte	.LVL107
 7163 0a18 2A000000 		.4byte	.LVL108
 7164 0a1c 0100     		.2byte	0x1
 7165 0a1e 55       		.byte	0x55
 7166 0a1f 2A000000 		.4byte	.LVL108
 7167 0a23 36000000 		.4byte	.LVL112
 7168 0a27 0400     		.2byte	0x4
 7169 0a29 75       		.byte	0x75
 7170 0a2a 8008     		.sleb128 1024
 7171 0a2c 9F       		.byte	0x9f
 7172 0a2d 36000000 		.4byte	.LVL112
 7173 0a31 3A000000 		.4byte	.LVL113
 7174 0a35 0A00     		.2byte	0xa
 7175 0a37 F3       		.byte	0xf3
 7176 0a38 01       		.uleb128 0x1
 7177 0a39 50       		.byte	0x50
 7178 0a3a 23       		.byte	0x23
 7179 0a3b 08       		.uleb128 0x8
 7180 0a3c 06       		.byte	0x6
 7181 0a3d 23       		.byte	0x23
 7182 0a3e 8008     		.uleb128 0x400
 7183 0a40 9F       		.byte	0x9f
 7184 0a41 3C000000 		.4byte	.LVL114
 7185 0a45 66000000 		.4byte	.LVL120
 7186 0a49 0100     		.2byte	0x1
 7187 0a4b 55       		.byte	0x55
 7188 0a4c 6A000000 		.4byte	.LVL121
 7189 0a50 86000000 		.4byte	.LVL123
 7190 0a54 0100     		.2byte	0x1
 7191 0a56 55       		.byte	0x55
 7192 0a57 86000000 		.4byte	.LVL123
 7193 0a5b B6000000 		.4byte	.LVL128
 7194 0a5f 0300     		.2byte	0x3
 7195 0a61 75       		.byte	0x75
 7196 0a62 08       		.sleb128 8
ARM GAS  C:\Users\pearlstl\AppData\Local\Temp\ccJvDP4q.s 			page 144


 7197 0a63 9F       		.byte	0x9f
 7198 0a64 B6000000 		.4byte	.LVL128
 7199 0a68 D4000000 		.4byte	.LVL132
 7200 0a6c 0300     		.2byte	0x3
 7201 0a6e 75       		.byte	0x75
 7202 0a6f 10       		.sleb128 16
 7203 0a70 9F       		.byte	0x9f
 7204 0a71 EA000000 		.4byte	.LVL133
 7205 0a75 F2000000 		.4byte	.LVL134
 7206 0a79 0100     		.2byte	0x1
 7207 0a7b 55       		.byte	0x55
 7208 0a7c F2000000 		.4byte	.LVL134
 7209 0a80 18010000 		.4byte	.LFE34
 7210 0a84 0400     		.2byte	0x4
 7211 0a86 75       		.byte	0x75
 7212 0a87 C000     		.sleb128 64
 7213 0a89 9F       		.byte	0x9f
 7214 0a8a 00000000 		.4byte	0
 7215 0a8e 00000000 		.4byte	0
 7216              	.LLST41:
 7217 0a92 30000000 		.4byte	.LVL110
 7218 0a96 34000000 		.4byte	.LVL111
 7219 0a9a 1500     		.2byte	0x15
 7220 0a9c 72       		.byte	0x72
 7221 0a9d 00       		.sleb128 0
 7222 0a9e 40       		.byte	0x40
 7223 0a9f 24       		.byte	0x24
 7224 0aa0 40       		.byte	0x40
 7225 0aa1 26       		.byte	0x26
 7226 0aa2 70       		.byte	0x70
 7227 0aa3 00       		.sleb128 0
 7228 0aa4 40       		.byte	0x40
 7229 0aa5 24       		.byte	0x24
 7230 0aa6 40       		.byte	0x40
 7231 0aa7 26       		.byte	0x26
 7232 0aa8 1E       		.byte	0x1e
 7233 0aa9 71       		.byte	0x71
 7234 0aaa 00       		.sleb128 0
 7235 0aab 40       		.byte	0x40
 7236 0aac 24       		.byte	0x24
 7237 0aad 40       		.byte	0x40
 7238 0aae 26       		.byte	0x26
 7239 0aaf 22       		.byte	0x22
 7240 0ab0 9F       		.byte	0x9f
 7241 0ab1 34000000 		.4byte	.LVL111
 7242 0ab5 3C000000 		.4byte	.LVL114
 7243 0ab9 1600     		.2byte	0x16
 7244 0abb 72       		.byte	0x72
 7245 0abc 00       		.sleb128 0
 7246 0abd 40       		.byte	0x40
 7247 0abe 24       		.byte	0x24
 7248 0abf 40       		.byte	0x40
 7249 0ac0 26       		.byte	0x26
 7250 0ac1 70       		.byte	0x70
 7251 0ac2 00       		.sleb128 0
 7252 0ac3 40       		.byte	0x40
 7253 0ac4 24       		.byte	0x24
ARM GAS  C:\Users\pearlstl\AppData\Local\Temp\ccJvDP4q.s 			page 145


 7254 0ac5 40       		.byte	0x40
 7255 0ac6 26       		.byte	0x26
 7256 0ac7 1E       		.byte	0x1e
 7257 0ac8 F3       		.byte	0xf3
 7258 0ac9 01       		.uleb128 0x1
 7259 0aca 51       		.byte	0x51
 7260 0acb 40       		.byte	0x40
 7261 0acc 24       		.byte	0x24
 7262 0acd 40       		.byte	0x40
 7263 0ace 26       		.byte	0x26
 7264 0acf 22       		.byte	0x22
 7265 0ad0 9F       		.byte	0x9f
 7266 0ad1 00000000 		.4byte	0
 7267 0ad5 00000000 		.4byte	0
 7268              	.LLST42:
 7269 0ad9 56000000 		.4byte	.LVL116
 7270 0add 60000000 		.4byte	.LVL118
 7271 0ae1 1800     		.2byte	0x18
 7272 0ae3 72       		.byte	0x72
 7273 0ae4 00       		.sleb128 0
 7274 0ae5 40       		.byte	0x40
 7275 0ae6 24       		.byte	0x24
 7276 0ae7 40       		.byte	0x40
 7277 0ae8 26       		.byte	0x26
 7278 0ae9 73       		.byte	0x73
 7279 0aea 00       		.sleb128 0
 7280 0aeb 40       		.byte	0x40
 7281 0aec 24       		.byte	0x24
 7282 0aed 40       		.byte	0x40
 7283 0aee 26       		.byte	0x26
 7284 0aef 1E       		.byte	0x1e
 7285 0af0 71       		.byte	0x71
 7286 0af1 00       		.sleb128 0
 7287 0af2 40       		.byte	0x40
 7288 0af3 24       		.byte	0x24
 7289 0af4 40       		.byte	0x40
 7290 0af5 26       		.byte	0x26
 7291 0af6 22       		.byte	0x22
 7292 0af7 74       		.byte	0x74
 7293 0af8 00       		.sleb128 0
 7294 0af9 1E       		.byte	0x1e
 7295 0afa 9F       		.byte	0x9f
 7296 0afb 60000000 		.4byte	.LVL118
 7297 0aff 62000000 		.4byte	.LVL119
 7298 0b03 1900     		.2byte	0x19
 7299 0b05 F3       		.byte	0xf3
 7300 0b06 01       		.uleb128 0x1
 7301 0b07 52       		.byte	0x52
 7302 0b08 40       		.byte	0x40
 7303 0b09 24       		.byte	0x24
 7304 0b0a 40       		.byte	0x40
 7305 0b0b 26       		.byte	0x26
 7306 0b0c 73       		.byte	0x73
 7307 0b0d 00       		.sleb128 0
 7308 0b0e 40       		.byte	0x40
 7309 0b0f 24       		.byte	0x24
 7310 0b10 40       		.byte	0x40
ARM GAS  C:\Users\pearlstl\AppData\Local\Temp\ccJvDP4q.s 			page 146


 7311 0b11 26       		.byte	0x26
 7312 0b12 1E       		.byte	0x1e
 7313 0b13 71       		.byte	0x71
 7314 0b14 00       		.sleb128 0
 7315 0b15 40       		.byte	0x40
 7316 0b16 24       		.byte	0x24
 7317 0b17 40       		.byte	0x40
 7318 0b18 26       		.byte	0x26
 7319 0b19 22       		.byte	0x22
 7320 0b1a 74       		.byte	0x74
 7321 0b1b 00       		.sleb128 0
 7322 0b1c 1E       		.byte	0x1e
 7323 0b1d 9F       		.byte	0x9f
 7324 0b1e 62000000 		.4byte	.LVL119
 7325 0b22 65000000 		.4byte	.LVL120-1
 7326 0b26 1A00     		.2byte	0x1a
 7327 0b28 F3       		.byte	0xf3
 7328 0b29 01       		.uleb128 0x1
 7329 0b2a 52       		.byte	0x52
 7330 0b2b 40       		.byte	0x40
 7331 0b2c 24       		.byte	0x24
 7332 0b2d 40       		.byte	0x40
 7333 0b2e 26       		.byte	0x26
 7334 0b2f 73       		.byte	0x73
 7335 0b30 00       		.sleb128 0
 7336 0b31 40       		.byte	0x40
 7337 0b32 24       		.byte	0x24
 7338 0b33 40       		.byte	0x40
 7339 0b34 26       		.byte	0x26
 7340 0b35 1E       		.byte	0x1e
 7341 0b36 F3       		.byte	0xf3
 7342 0b37 01       		.uleb128 0x1
 7343 0b38 51       		.byte	0x51
 7344 0b39 40       		.byte	0x40
 7345 0b3a 24       		.byte	0x24
 7346 0b3b 40       		.byte	0x40
 7347 0b3c 26       		.byte	0x26
 7348 0b3d 22       		.byte	0x22
 7349 0b3e 74       		.byte	0x74
 7350 0b3f 00       		.sleb128 0
 7351 0b40 1E       		.byte	0x1e
 7352 0b41 9F       		.byte	0x9f
 7353 0b42 00000000 		.4byte	0
 7354 0b46 00000000 		.4byte	0
 7355              	.LLST43:
 7356 0b4a 86000000 		.4byte	.LVL123
 7357 0b4e 9C000000 		.4byte	.LVL126
 7358 0b52 0500     		.2byte	0x5
 7359 0b54 71       		.byte	0x71
 7360 0b55 00       		.sleb128 0
 7361 0b56 37       		.byte	0x37
 7362 0b57 1A       		.byte	0x1a
 7363 0b58 9F       		.byte	0x9f
 7364 0b59 00000000 		.4byte	0
 7365 0b5d 00000000 		.4byte	0
 7366              	.LLST44:
 7367 0b61 86000000 		.4byte	.LVL123
ARM GAS  C:\Users\pearlstl\AppData\Local\Temp\ccJvDP4q.s 			page 147


 7368 0b65 88000000 		.4byte	.LVL124
 7369 0b69 2300     		.2byte	0x23
 7370 0b6b 70       		.byte	0x70
 7371 0b6c 01       		.sleb128 1
 7372 0b6d 94       		.byte	0x94
 7373 0b6e 02       		.byte	0x2
 7374 0b6f 09       		.byte	0x9
 7375 0b70 F7       		.byte	0xf7
 7376 0b71 24       		.byte	0x24
 7377 0b72 09       		.byte	0x9
 7378 0b73 F9       		.byte	0xf9
 7379 0b74 26       		.byte	0x26
 7380 0b75 0A       		.byte	0xa
 7381 0b76 FFFF     		.2byte	0xffff
 7382 0b78 1A       		.byte	0x1a
 7383 0b79 23       		.byte	0x23
 7384 0b7a 07       		.uleb128 0x7
 7385 0b7b 33       		.byte	0x33
 7386 0b7c 26       		.byte	0x26
 7387 0b7d 72       		.byte	0x72
 7388 0b7e 00       		.sleb128 0
 7389 0b7f 40       		.byte	0x40
 7390 0b80 24       		.byte	0x24
 7391 0b81 40       		.byte	0x40
 7392 0b82 26       		.byte	0x26
 7393 0b83 1E       		.byte	0x1e
 7394 0b84 71       		.byte	0x71
 7395 0b85 00       		.sleb128 0
 7396 0b86 33       		.byte	0x33
 7397 0b87 26       		.byte	0x26
 7398 0b88 40       		.byte	0x40
 7399 0b89 24       		.byte	0x24
 7400 0b8a 40       		.byte	0x40
 7401 0b8b 26       		.byte	0x26
 7402 0b8c 22       		.byte	0x22
 7403 0b8d 9F       		.byte	0x9f
 7404 0b8e 88000000 		.4byte	.LVL124
 7405 0b92 96000000 		.4byte	.LVL125
 7406 0b96 2600     		.2byte	0x26
 7407 0b98 F3       		.byte	0xf3
 7408 0b99 01       		.uleb128 0x1
 7409 0b9a 50       		.byte	0x50
 7410 0b9b 23       		.byte	0x23
 7411 0b9c 01       		.uleb128 0x1
 7412 0b9d 94       		.byte	0x94
 7413 0b9e 02       		.byte	0x2
 7414 0b9f 09       		.byte	0x9
 7415 0ba0 F7       		.byte	0xf7
 7416 0ba1 24       		.byte	0x24
 7417 0ba2 09       		.byte	0x9
 7418 0ba3 F9       		.byte	0xf9
 7419 0ba4 26       		.byte	0x26
 7420 0ba5 0A       		.byte	0xa
 7421 0ba6 FFFF     		.2byte	0xffff
 7422 0ba8 1A       		.byte	0x1a
 7423 0ba9 23       		.byte	0x23
 7424 0baa 07       		.uleb128 0x7
ARM GAS  C:\Users\pearlstl\AppData\Local\Temp\ccJvDP4q.s 			page 148


 7425 0bab 33       		.byte	0x33
 7426 0bac 26       		.byte	0x26
 7427 0bad 72       		.byte	0x72
 7428 0bae 00       		.sleb128 0
 7429 0baf 40       		.byte	0x40
 7430 0bb0 24       		.byte	0x24
 7431 0bb1 40       		.byte	0x40
 7432 0bb2 26       		.byte	0x26
 7433 0bb3 1E       		.byte	0x1e
 7434 0bb4 71       		.byte	0x71
 7435 0bb5 00       		.sleb128 0
 7436 0bb6 33       		.byte	0x33
 7437 0bb7 26       		.byte	0x26
 7438 0bb8 40       		.byte	0x40
 7439 0bb9 24       		.byte	0x24
 7440 0bba 40       		.byte	0x40
 7441 0bbb 26       		.byte	0x26
 7442 0bbc 22       		.byte	0x22
 7443 0bbd 9F       		.byte	0x9f
 7444 0bbe 96000000 		.4byte	.LVL125
 7445 0bc2 9C000000 		.4byte	.LVL126
 7446 0bc6 2700     		.2byte	0x27
 7447 0bc8 F3       		.byte	0xf3
 7448 0bc9 01       		.uleb128 0x1
 7449 0bca 50       		.byte	0x50
 7450 0bcb 23       		.byte	0x23
 7451 0bcc 01       		.uleb128 0x1
 7452 0bcd 94       		.byte	0x94
 7453 0bce 02       		.byte	0x2
 7454 0bcf 09       		.byte	0x9
 7455 0bd0 F7       		.byte	0xf7
 7456 0bd1 24       		.byte	0x24
 7457 0bd2 09       		.byte	0x9
 7458 0bd3 F9       		.byte	0xf9
 7459 0bd4 26       		.byte	0x26
 7460 0bd5 0A       		.byte	0xa
 7461 0bd6 FFFF     		.2byte	0xffff
 7462 0bd8 1A       		.byte	0x1a
 7463 0bd9 23       		.byte	0x23
 7464 0bda 07       		.uleb128 0x7
 7465 0bdb 33       		.byte	0x33
 7466 0bdc 26       		.byte	0x26
 7467 0bdd F3       		.byte	0xf3
 7468 0bde 01       		.uleb128 0x1
 7469 0bdf 52       		.byte	0x52
 7470 0be0 40       		.byte	0x40
 7471 0be1 24       		.byte	0x24
 7472 0be2 40       		.byte	0x40
 7473 0be3 26       		.byte	0x26
 7474 0be4 1E       		.byte	0x1e
 7475 0be5 71       		.byte	0x71
 7476 0be6 00       		.sleb128 0
 7477 0be7 33       		.byte	0x33
 7478 0be8 26       		.byte	0x26
 7479 0be9 40       		.byte	0x40
 7480 0bea 24       		.byte	0x24
 7481 0beb 40       		.byte	0x40
ARM GAS  C:\Users\pearlstl\AppData\Local\Temp\ccJvDP4q.s 			page 149


 7482 0bec 26       		.byte	0x26
 7483 0bed 22       		.byte	0x22
 7484 0bee 9F       		.byte	0x9f
 7485 0bef 9C000000 		.4byte	.LVL126
 7486 0bf3 B4000000 		.4byte	.LVL127
 7487 0bf7 2800     		.2byte	0x28
 7488 0bf9 F3       		.byte	0xf3
 7489 0bfa 01       		.uleb128 0x1
 7490 0bfb 50       		.byte	0x50
 7491 0bfc 23       		.byte	0x23
 7492 0bfd 01       		.uleb128 0x1
 7493 0bfe 94       		.byte	0x94
 7494 0bff 02       		.byte	0x2
 7495 0c00 09       		.byte	0x9
 7496 0c01 F7       		.byte	0xf7
 7497 0c02 24       		.byte	0x24
 7498 0c03 09       		.byte	0x9
 7499 0c04 F9       		.byte	0xf9
 7500 0c05 26       		.byte	0x26
 7501 0c06 0A       		.byte	0xa
 7502 0c07 FFFF     		.2byte	0xffff
 7503 0c09 1A       		.byte	0x1a
 7504 0c0a 23       		.byte	0x23
 7505 0c0b 07       		.uleb128 0x7
 7506 0c0c 33       		.byte	0x33
 7507 0c0d 26       		.byte	0x26
 7508 0c0e F3       		.byte	0xf3
 7509 0c0f 01       		.uleb128 0x1
 7510 0c10 52       		.byte	0x52
 7511 0c11 40       		.byte	0x40
 7512 0c12 24       		.byte	0x24
 7513 0c13 40       		.byte	0x40
 7514 0c14 26       		.byte	0x26
 7515 0c15 1E       		.byte	0x1e
 7516 0c16 F3       		.byte	0xf3
 7517 0c17 01       		.uleb128 0x1
 7518 0c18 51       		.byte	0x51
 7519 0c19 33       		.byte	0x33
 7520 0c1a 26       		.byte	0x26
 7521 0c1b 40       		.byte	0x40
 7522 0c1c 24       		.byte	0x24
 7523 0c1d 40       		.byte	0x40
 7524 0c1e 26       		.byte	0x26
 7525 0c1f 22       		.byte	0x22
 7526 0c20 9F       		.byte	0x9f
 7527 0c21 00000000 		.4byte	0
 7528 0c25 00000000 		.4byte	0
 7529              	.LLST45:
 7530 0c29 B6000000 		.4byte	.LVL128
 7531 0c2d C6000000 		.4byte	.LVL130
 7532 0c31 0700     		.2byte	0x7
 7533 0c33 71       		.byte	0x71
 7534 0c34 00       		.sleb128 0
 7535 0c35 33       		.byte	0x33
 7536 0c36 1A       		.byte	0x1a
 7537 0c37 31       		.byte	0x31
 7538 0c38 24       		.byte	0x24
ARM GAS  C:\Users\pearlstl\AppData\Local\Temp\ccJvDP4q.s 			page 150


 7539 0c39 9F       		.byte	0x9f
 7540 0c3a 00000000 		.4byte	0
 7541 0c3e 00000000 		.4byte	0
 7542              	.LLST46:
 7543 0c42 B6000000 		.4byte	.LVL128
 7544 0c46 B8000000 		.4byte	.LVL129
 7545 0c4a 2300     		.2byte	0x23
 7546 0c4c 70       		.byte	0x70
 7547 0c4d 01       		.sleb128 1
 7548 0c4e 94       		.byte	0x94
 7549 0c4f 02       		.byte	0x2
 7550 0c50 09       		.byte	0x9
 7551 0c51 F7       		.byte	0xf7
 7552 0c52 24       		.byte	0x24
 7553 0c53 09       		.byte	0x9
 7554 0c54 F9       		.byte	0xf9
 7555 0c55 26       		.byte	0x26
 7556 0c56 0A       		.byte	0xa
 7557 0c57 FFFF     		.2byte	0xffff
 7558 0c59 1A       		.byte	0x1a
 7559 0c5a 23       		.byte	0x23
 7560 0c5b 03       		.uleb128 0x3
 7561 0c5c 32       		.byte	0x32
 7562 0c5d 26       		.byte	0x26
 7563 0c5e 72       		.byte	0x72
 7564 0c5f 00       		.sleb128 0
 7565 0c60 40       		.byte	0x40
 7566 0c61 24       		.byte	0x24
 7567 0c62 40       		.byte	0x40
 7568 0c63 26       		.byte	0x26
 7569 0c64 1E       		.byte	0x1e
 7570 0c65 71       		.byte	0x71
 7571 0c66 00       		.sleb128 0
 7572 0c67 32       		.byte	0x32
 7573 0c68 26       		.byte	0x26
 7574 0c69 40       		.byte	0x40
 7575 0c6a 24       		.byte	0x24
 7576 0c6b 40       		.byte	0x40
 7577 0c6c 26       		.byte	0x26
 7578 0c6d 22       		.byte	0x22
 7579 0c6e 9F       		.byte	0x9f
 7580 0c6f B8000000 		.4byte	.LVL129
 7581 0c73 C6000000 		.4byte	.LVL130
 7582 0c77 2600     		.2byte	0x26
 7583 0c79 F3       		.byte	0xf3
 7584 0c7a 01       		.uleb128 0x1
 7585 0c7b 50       		.byte	0x50
 7586 0c7c 23       		.byte	0x23
 7587 0c7d 01       		.uleb128 0x1
 7588 0c7e 94       		.byte	0x94
 7589 0c7f 02       		.byte	0x2
 7590 0c80 09       		.byte	0x9
 7591 0c81 F7       		.byte	0xf7
 7592 0c82 24       		.byte	0x24
 7593 0c83 09       		.byte	0x9
 7594 0c84 F9       		.byte	0xf9
 7595 0c85 26       		.byte	0x26
ARM GAS  C:\Users\pearlstl\AppData\Local\Temp\ccJvDP4q.s 			page 151


 7596 0c86 0A       		.byte	0xa
 7597 0c87 FFFF     		.2byte	0xffff
 7598 0c89 1A       		.byte	0x1a
 7599 0c8a 23       		.byte	0x23
 7600 0c8b 03       		.uleb128 0x3
 7601 0c8c 32       		.byte	0x32
 7602 0c8d 26       		.byte	0x26
 7603 0c8e 72       		.byte	0x72
 7604 0c8f 00       		.sleb128 0
 7605 0c90 40       		.byte	0x40
 7606 0c91 24       		.byte	0x24
 7607 0c92 40       		.byte	0x40
 7608 0c93 26       		.byte	0x26
 7609 0c94 1E       		.byte	0x1e
 7610 0c95 71       		.byte	0x71
 7611 0c96 00       		.sleb128 0
 7612 0c97 32       		.byte	0x32
 7613 0c98 26       		.byte	0x26
 7614 0c99 40       		.byte	0x40
 7615 0c9a 24       		.byte	0x24
 7616 0c9b 40       		.byte	0x40
 7617 0c9c 26       		.byte	0x26
 7618 0c9d 22       		.byte	0x22
 7619 0c9e 9F       		.byte	0x9f
 7620 0c9f C6000000 		.4byte	.LVL130
 7621 0ca3 CA000000 		.4byte	.LVL131
 7622 0ca7 2700     		.2byte	0x27
 7623 0ca9 F3       		.byte	0xf3
 7624 0caa 01       		.uleb128 0x1
 7625 0cab 50       		.byte	0x50
 7626 0cac 23       		.byte	0x23
 7627 0cad 01       		.uleb128 0x1
 7628 0cae 94       		.byte	0x94
 7629 0caf 02       		.byte	0x2
 7630 0cb0 09       		.byte	0x9
 7631 0cb1 F7       		.byte	0xf7
 7632 0cb2 24       		.byte	0x24
 7633 0cb3 09       		.byte	0x9
 7634 0cb4 F9       		.byte	0xf9
 7635 0cb5 26       		.byte	0x26
 7636 0cb6 0A       		.byte	0xa
 7637 0cb7 FFFF     		.2byte	0xffff
 7638 0cb9 1A       		.byte	0x1a
 7639 0cba 23       		.byte	0x23
 7640 0cbb 03       		.uleb128 0x3
 7641 0cbc 32       		.byte	0x32
 7642 0cbd 26       		.byte	0x26
 7643 0cbe 72       		.byte	0x72
 7644 0cbf 00       		.sleb128 0
 7645 0cc0 40       		.byte	0x40
 7646 0cc1 24       		.byte	0x24
 7647 0cc2 40       		.byte	0x40
 7648 0cc3 26       		.byte	0x26
 7649 0cc4 1E       		.byte	0x1e
 7650 0cc5 F3       		.byte	0xf3
 7651 0cc6 01       		.uleb128 0x1
 7652 0cc7 51       		.byte	0x51
ARM GAS  C:\Users\pearlstl\AppData\Local\Temp\ccJvDP4q.s 			page 152


 7653 0cc8 32       		.byte	0x32
 7654 0cc9 26       		.byte	0x26
 7655 0cca 40       		.byte	0x40
 7656 0ccb 24       		.byte	0x24
 7657 0ccc 40       		.byte	0x40
 7658 0ccd 26       		.byte	0x26
 7659 0cce 22       		.byte	0x22
 7660 0ccf 9F       		.byte	0x9f
 7661 0cd0 CA000000 		.4byte	.LVL131
 7662 0cd4 D4000000 		.4byte	.LVL132
 7663 0cd8 2800     		.2byte	0x28
 7664 0cda F3       		.byte	0xf3
 7665 0cdb 01       		.uleb128 0x1
 7666 0cdc 50       		.byte	0x50
 7667 0cdd 23       		.byte	0x23
 7668 0cde 01       		.uleb128 0x1
 7669 0cdf 94       		.byte	0x94
 7670 0ce0 02       		.byte	0x2
 7671 0ce1 09       		.byte	0x9
 7672 0ce2 F7       		.byte	0xf7
 7673 0ce3 24       		.byte	0x24
 7674 0ce4 09       		.byte	0x9
 7675 0ce5 F9       		.byte	0xf9
 7676 0ce6 26       		.byte	0x26
 7677 0ce7 0A       		.byte	0xa
 7678 0ce8 FFFF     		.2byte	0xffff
 7679 0cea 1A       		.byte	0x1a
 7680 0ceb 23       		.byte	0x23
 7681 0cec 03       		.uleb128 0x3
 7682 0ced 32       		.byte	0x32
 7683 0cee 26       		.byte	0x26
 7684 0cef F3       		.byte	0xf3
 7685 0cf0 01       		.uleb128 0x1
 7686 0cf1 52       		.byte	0x52
 7687 0cf2 40       		.byte	0x40
 7688 0cf3 24       		.byte	0x24
 7689 0cf4 40       		.byte	0x40
 7690 0cf5 26       		.byte	0x26
 7691 0cf6 1E       		.byte	0x1e
 7692 0cf7 F3       		.byte	0xf3
 7693 0cf8 01       		.uleb128 0x1
 7694 0cf9 51       		.byte	0x51
 7695 0cfa 32       		.byte	0x32
 7696 0cfb 26       		.byte	0x26
 7697 0cfc 40       		.byte	0x40
 7698 0cfd 24       		.byte	0x24
 7699 0cfe 40       		.byte	0x40
 7700 0cff 26       		.byte	0x26
 7701 0d00 22       		.byte	0x22
 7702 0d01 9F       		.byte	0x9f
 7703 0d02 00000000 		.4byte	0
 7704 0d06 00000000 		.4byte	0
 7705              	.LLST47:
 7706 0d0a F2000000 		.4byte	.LVL134
 7707 0d0e 02010000 		.4byte	.LVL136
 7708 0d12 0700     		.2byte	0x7
 7709 0d14 71       		.byte	0x71
ARM GAS  C:\Users\pearlstl\AppData\Local\Temp\ccJvDP4q.s 			page 153


 7710 0d15 00       		.sleb128 0
 7711 0d16 31       		.byte	0x31
 7712 0d17 1A       		.byte	0x1a
 7713 0d18 32       		.byte	0x32
 7714 0d19 24       		.byte	0x24
 7715 0d1a 9F       		.byte	0x9f
 7716 0d1b 00000000 		.4byte	0
 7717 0d1f 00000000 		.4byte	0
 7718              	.LLST48:
 7719 0d23 F2000000 		.4byte	.LVL134
 7720 0d27 F4000000 		.4byte	.LVL135
 7721 0d2b 2300     		.2byte	0x23
 7722 0d2d 70       		.byte	0x70
 7723 0d2e 01       		.sleb128 1
 7724 0d2f 94       		.byte	0x94
 7725 0d30 02       		.byte	0x2
 7726 0d31 09       		.byte	0x9
 7727 0d32 F7       		.byte	0xf7
 7728 0d33 24       		.byte	0x24
 7729 0d34 09       		.byte	0x9
 7730 0d35 F9       		.byte	0xf9
 7731 0d36 26       		.byte	0x26
 7732 0d37 0A       		.byte	0xa
 7733 0d38 FFFF     		.2byte	0xffff
 7734 0d3a 1A       		.byte	0x1a
 7735 0d3b 23       		.byte	0x23
 7736 0d3c 01       		.uleb128 0x1
 7737 0d3d 31       		.byte	0x31
 7738 0d3e 26       		.byte	0x26
 7739 0d3f 72       		.byte	0x72
 7740 0d40 00       		.sleb128 0
 7741 0d41 40       		.byte	0x40
 7742 0d42 24       		.byte	0x24
 7743 0d43 40       		.byte	0x40
 7744 0d44 26       		.byte	0x26
 7745 0d45 1E       		.byte	0x1e
 7746 0d46 71       		.byte	0x71
 7747 0d47 00       		.sleb128 0
 7748 0d48 31       		.byte	0x31
 7749 0d49 26       		.byte	0x26
 7750 0d4a 40       		.byte	0x40
 7751 0d4b 24       		.byte	0x24
 7752 0d4c 40       		.byte	0x40
 7753 0d4d 26       		.byte	0x26
 7754 0d4e 22       		.byte	0x22
 7755 0d4f 9F       		.byte	0x9f
 7756 0d50 F4000000 		.4byte	.LVL135
 7757 0d54 02010000 		.4byte	.LVL136
 7758 0d58 2600     		.2byte	0x26
 7759 0d5a F3       		.byte	0xf3
 7760 0d5b 01       		.uleb128 0x1
 7761 0d5c 50       		.byte	0x50
 7762 0d5d 23       		.byte	0x23
 7763 0d5e 01       		.uleb128 0x1
 7764 0d5f 94       		.byte	0x94
 7765 0d60 02       		.byte	0x2
 7766 0d61 09       		.byte	0x9
ARM GAS  C:\Users\pearlstl\AppData\Local\Temp\ccJvDP4q.s 			page 154


 7767 0d62 F7       		.byte	0xf7
 7768 0d63 24       		.byte	0x24
 7769 0d64 09       		.byte	0x9
 7770 0d65 F9       		.byte	0xf9
 7771 0d66 26       		.byte	0x26
 7772 0d67 0A       		.byte	0xa
 7773 0d68 FFFF     		.2byte	0xffff
 7774 0d6a 1A       		.byte	0x1a
 7775 0d6b 23       		.byte	0x23
 7776 0d6c 01       		.uleb128 0x1
 7777 0d6d 31       		.byte	0x31
 7778 0d6e 26       		.byte	0x26
 7779 0d6f 72       		.byte	0x72
 7780 0d70 00       		.sleb128 0
 7781 0d71 40       		.byte	0x40
 7782 0d72 24       		.byte	0x24
 7783 0d73 40       		.byte	0x40
 7784 0d74 26       		.byte	0x26
 7785 0d75 1E       		.byte	0x1e
 7786 0d76 71       		.byte	0x71
 7787 0d77 00       		.sleb128 0
 7788 0d78 31       		.byte	0x31
 7789 0d79 26       		.byte	0x26
 7790 0d7a 40       		.byte	0x40
 7791 0d7b 24       		.byte	0x24
 7792 0d7c 40       		.byte	0x40
 7793 0d7d 26       		.byte	0x26
 7794 0d7e 22       		.byte	0x22
 7795 0d7f 9F       		.byte	0x9f
 7796 0d80 02010000 		.4byte	.LVL136
 7797 0d84 06010000 		.4byte	.LVL137
 7798 0d88 2700     		.2byte	0x27
 7799 0d8a F3       		.byte	0xf3
 7800 0d8b 01       		.uleb128 0x1
 7801 0d8c 50       		.byte	0x50
 7802 0d8d 23       		.byte	0x23
 7803 0d8e 01       		.uleb128 0x1
 7804 0d8f 94       		.byte	0x94
 7805 0d90 02       		.byte	0x2
 7806 0d91 09       		.byte	0x9
 7807 0d92 F7       		.byte	0xf7
 7808 0d93 24       		.byte	0x24
 7809 0d94 09       		.byte	0x9
 7810 0d95 F9       		.byte	0xf9
 7811 0d96 26       		.byte	0x26
 7812 0d97 0A       		.byte	0xa
 7813 0d98 FFFF     		.2byte	0xffff
 7814 0d9a 1A       		.byte	0x1a
 7815 0d9b 23       		.byte	0x23
 7816 0d9c 01       		.uleb128 0x1
 7817 0d9d 31       		.byte	0x31
 7818 0d9e 26       		.byte	0x26
 7819 0d9f 72       		.byte	0x72
 7820 0da0 00       		.sleb128 0
 7821 0da1 40       		.byte	0x40
 7822 0da2 24       		.byte	0x24
 7823 0da3 40       		.byte	0x40
ARM GAS  C:\Users\pearlstl\AppData\Local\Temp\ccJvDP4q.s 			page 155


 7824 0da4 26       		.byte	0x26
 7825 0da5 1E       		.byte	0x1e
 7826 0da6 F3       		.byte	0xf3
 7827 0da7 01       		.uleb128 0x1
 7828 0da8 51       		.byte	0x51
 7829 0da9 31       		.byte	0x31
 7830 0daa 26       		.byte	0x26
 7831 0dab 40       		.byte	0x40
 7832 0dac 24       		.byte	0x24
 7833 0dad 40       		.byte	0x40
 7834 0dae 26       		.byte	0x26
 7835 0daf 22       		.byte	0x22
 7836 0db0 9F       		.byte	0x9f
 7837 0db1 06010000 		.4byte	.LVL137
 7838 0db5 18010000 		.4byte	.LFE34
 7839 0db9 2800     		.2byte	0x28
 7840 0dbb F3       		.byte	0xf3
 7841 0dbc 01       		.uleb128 0x1
 7842 0dbd 50       		.byte	0x50
 7843 0dbe 23       		.byte	0x23
 7844 0dbf 01       		.uleb128 0x1
 7845 0dc0 94       		.byte	0x94
 7846 0dc1 02       		.byte	0x2
 7847 0dc2 09       		.byte	0x9
 7848 0dc3 F7       		.byte	0xf7
 7849 0dc4 24       		.byte	0x24
 7850 0dc5 09       		.byte	0x9
 7851 0dc6 F9       		.byte	0xf9
 7852 0dc7 26       		.byte	0x26
 7853 0dc8 0A       		.byte	0xa
 7854 0dc9 FFFF     		.2byte	0xffff
 7855 0dcb 1A       		.byte	0x1a
 7856 0dcc 23       		.byte	0x23
 7857 0dcd 01       		.uleb128 0x1
 7858 0dce 31       		.byte	0x31
 7859 0dcf 26       		.byte	0x26
 7860 0dd0 F3       		.byte	0xf3
 7861 0dd1 01       		.uleb128 0x1
 7862 0dd2 52       		.byte	0x52
 7863 0dd3 40       		.byte	0x40
 7864 0dd4 24       		.byte	0x24
 7865 0dd5 40       		.byte	0x40
 7866 0dd6 26       		.byte	0x26
 7867 0dd7 1E       		.byte	0x1e
 7868 0dd8 F3       		.byte	0xf3
 7869 0dd9 01       		.uleb128 0x1
 7870 0dda 51       		.byte	0x51
 7871 0ddb 31       		.byte	0x31
 7872 0ddc 26       		.byte	0x26
 7873 0ddd 40       		.byte	0x40
 7874 0dde 24       		.byte	0x24
 7875 0ddf 40       		.byte	0x40
 7876 0de0 26       		.byte	0x26
 7877 0de1 22       		.byte	0x22
 7878 0de2 9F       		.byte	0x9f
 7879 0de3 00000000 		.4byte	0
 7880 0de7 00000000 		.4byte	0
ARM GAS  C:\Users\pearlstl\AppData\Local\Temp\ccJvDP4q.s 			page 156


 7881              	.LLST49:
 7882 0deb 00000000 		.4byte	.LVL138
 7883 0def 20000000 		.4byte	.LVL140
 7884 0df3 0100     		.2byte	0x1
 7885 0df5 50       		.byte	0x50
 7886 0df6 20000000 		.4byte	.LVL140
 7887 0dfa 2E000000 		.4byte	.LVL145
 7888 0dfe 0400     		.2byte	0x4
 7889 0e00 F3       		.byte	0xf3
 7890 0e01 01       		.uleb128 0x1
 7891 0e02 50       		.byte	0x50
 7892 0e03 9F       		.byte	0x9f
 7893 0e04 2E000000 		.4byte	.LVL145
 7894 0e08 44000000 		.4byte	.LVL147
 7895 0e0c 0100     		.2byte	0x1
 7896 0e0e 50       		.byte	0x50
 7897 0e0f 44000000 		.4byte	.LVL147
 7898 0e13 56000000 		.4byte	.LVL152
 7899 0e17 0400     		.2byte	0x4
 7900 0e19 F3       		.byte	0xf3
 7901 0e1a 01       		.uleb128 0x1
 7902 0e1b 50       		.byte	0x50
 7903 0e1c 9F       		.byte	0x9f
 7904 0e1d 56000000 		.4byte	.LVL152
 7905 0e21 58000000 		.4byte	.LVL153
 7906 0e25 0100     		.2byte	0x1
 7907 0e27 50       		.byte	0x50
 7908 0e28 58000000 		.4byte	.LVL153
 7909 0e2c 88000000 		.4byte	.LVL158
 7910 0e30 0400     		.2byte	0x4
 7911 0e32 F3       		.byte	0xf3
 7912 0e33 01       		.uleb128 0x1
 7913 0e34 50       		.byte	0x50
 7914 0e35 9F       		.byte	0x9f
 7915 0e36 88000000 		.4byte	.LVL158
 7916 0e3a 92000000 		.4byte	.LVL160
 7917 0e3e 0100     		.2byte	0x1
 7918 0e40 50       		.byte	0x50
 7919 0e41 92000000 		.4byte	.LVL160
 7920 0e45 C0000000 		.4byte	.LVL166
 7921 0e49 0400     		.2byte	0x4
 7922 0e4b F3       		.byte	0xf3
 7923 0e4c 01       		.uleb128 0x1
 7924 0e4d 50       		.byte	0x50
 7925 0e4e 9F       		.byte	0x9f
 7926 0e4f C0000000 		.4byte	.LVL166
 7927 0e53 C2000000 		.4byte	.LVL167
 7928 0e57 0100     		.2byte	0x1
 7929 0e59 50       		.byte	0x50
 7930 0e5a C2000000 		.4byte	.LVL167
 7931 0e5e E8000000 		.4byte	.LFE35
 7932 0e62 0400     		.2byte	0x4
 7933 0e64 F3       		.byte	0xf3
 7934 0e65 01       		.uleb128 0x1
 7935 0e66 50       		.byte	0x50
 7936 0e67 9F       		.byte	0x9f
 7937 0e68 00000000 		.4byte	0
ARM GAS  C:\Users\pearlstl\AppData\Local\Temp\ccJvDP4q.s 			page 157


 7938 0e6c 00000000 		.4byte	0
 7939              	.LLST50:
 7940 0e70 00000000 		.4byte	.LVL138
 7941 0e74 50000000 		.4byte	.LVL150
 7942 0e78 0100     		.2byte	0x1
 7943 0e7a 51       		.byte	0x51
 7944 0e7b 50000000 		.4byte	.LVL150
 7945 0e7f 56000000 		.4byte	.LVL152
 7946 0e83 0400     		.2byte	0x4
 7947 0e85 F3       		.byte	0xf3
 7948 0e86 01       		.uleb128 0x1
 7949 0e87 51       		.byte	0x51
 7950 0e88 9F       		.byte	0x9f
 7951 0e89 56000000 		.4byte	.LVL152
 7952 0e8d 6A000000 		.4byte	.LVL155
 7953 0e91 0500     		.2byte	0x5
 7954 0e93 71       		.byte	0x71
 7955 0e94 00       		.sleb128 0
 7956 0e95 32       		.byte	0x32
 7957 0e96 26       		.byte	0x26
 7958 0e97 9F       		.byte	0x9f
 7959 0e98 6A000000 		.4byte	.LVL155
 7960 0e9c 76000000 		.4byte	.LVL156
 7961 0ea0 0600     		.2byte	0x6
 7962 0ea2 F3       		.byte	0xf3
 7963 0ea3 01       		.uleb128 0x1
 7964 0ea4 51       		.byte	0x51
 7965 0ea5 32       		.byte	0x32
 7966 0ea6 26       		.byte	0x26
 7967 0ea7 9F       		.byte	0x9f
 7968 0ea8 88000000 		.4byte	.LVL158
 7969 0eac 90000000 		.4byte	.LVL159
 7970 0eb0 0100     		.2byte	0x1
 7971 0eb2 51       		.byte	0x51
 7972 0eb3 90000000 		.4byte	.LVL159
 7973 0eb7 A4000000 		.4byte	.LVL162
 7974 0ebb 0500     		.2byte	0x5
 7975 0ebd 71       		.byte	0x71
 7976 0ebe 00       		.sleb128 0
 7977 0ebf 33       		.byte	0x33
 7978 0ec0 26       		.byte	0x26
 7979 0ec1 9F       		.byte	0x9f
 7980 0ec2 A4000000 		.4byte	.LVL162
 7981 0ec6 C0000000 		.4byte	.LVL166
 7982 0eca 0600     		.2byte	0x6
 7983 0ecc F3       		.byte	0xf3
 7984 0ecd 01       		.uleb128 0x1
 7985 0ece 51       		.byte	0x51
 7986 0ecf 33       		.byte	0x33
 7987 0ed0 26       		.byte	0x26
 7988 0ed1 9F       		.byte	0x9f
 7989 0ed2 C0000000 		.4byte	.LVL166
 7990 0ed6 D4000000 		.4byte	.LVL169
 7991 0eda 0500     		.2byte	0x5
 7992 0edc 71       		.byte	0x71
 7993 0edd 00       		.sleb128 0
 7994 0ede 31       		.byte	0x31
ARM GAS  C:\Users\pearlstl\AppData\Local\Temp\ccJvDP4q.s 			page 158


 7995 0edf 26       		.byte	0x26
 7996 0ee0 9F       		.byte	0x9f
 7997 0ee1 D4000000 		.4byte	.LVL169
 7998 0ee5 E8000000 		.4byte	.LFE35
 7999 0ee9 0600     		.2byte	0x6
 8000 0eeb F3       		.byte	0xf3
 8001 0eec 01       		.uleb128 0x1
 8002 0eed 51       		.byte	0x51
 8003 0eee 31       		.byte	0x31
 8004 0eef 26       		.byte	0x26
 8005 0ef0 9F       		.byte	0x9f
 8006 0ef1 00000000 		.4byte	0
 8007 0ef5 00000000 		.4byte	0
 8008              	.LLST51:
 8009 0ef9 00000000 		.4byte	.LVL138
 8010 0efd 28000000 		.4byte	.LVL142
 8011 0f01 0100     		.2byte	0x1
 8012 0f03 52       		.byte	0x52
 8013 0f04 28000000 		.4byte	.LVL142
 8014 0f08 2E000000 		.4byte	.LVL145
 8015 0f0c 0400     		.2byte	0x4
 8016 0f0e F3       		.byte	0xf3
 8017 0f0f 01       		.uleb128 0x1
 8018 0f10 52       		.byte	0x52
 8019 0f11 9F       		.byte	0x9f
 8020 0f12 2E000000 		.4byte	.LVL145
 8021 0f16 4C000000 		.4byte	.LVL149
 8022 0f1a 0100     		.2byte	0x1
 8023 0f1c 52       		.byte	0x52
 8024 0f1d 4C000000 		.4byte	.LVL149
 8025 0f21 56000000 		.4byte	.LVL152
 8026 0f25 0400     		.2byte	0x4
 8027 0f27 F3       		.byte	0xf3
 8028 0f28 01       		.uleb128 0x1
 8029 0f29 52       		.byte	0x52
 8030 0f2a 9F       		.byte	0x9f
 8031 0f2b 56000000 		.4byte	.LVL152
 8032 0f2f 66000000 		.4byte	.LVL154
 8033 0f33 0100     		.2byte	0x1
 8034 0f35 52       		.byte	0x52
 8035 0f36 66000000 		.4byte	.LVL154
 8036 0f3a 88000000 		.4byte	.LVL158
 8037 0f3e 0400     		.2byte	0x4
 8038 0f40 F3       		.byte	0xf3
 8039 0f41 01       		.uleb128 0x1
 8040 0f42 52       		.byte	0x52
 8041 0f43 9F       		.byte	0x9f
 8042 0f44 88000000 		.4byte	.LVL158
 8043 0f48 A0000000 		.4byte	.LVL161
 8044 0f4c 0100     		.2byte	0x1
 8045 0f4e 52       		.byte	0x52
 8046 0f4f A0000000 		.4byte	.LVL161
 8047 0f53 C0000000 		.4byte	.LVL166
 8048 0f57 0400     		.2byte	0x4
 8049 0f59 F3       		.byte	0xf3
 8050 0f5a 01       		.uleb128 0x1
 8051 0f5b 52       		.byte	0x52
ARM GAS  C:\Users\pearlstl\AppData\Local\Temp\ccJvDP4q.s 			page 159


 8052 0f5c 9F       		.byte	0x9f
 8053 0f5d C0000000 		.4byte	.LVL166
 8054 0f61 D0000000 		.4byte	.LVL168
 8055 0f65 0100     		.2byte	0x1
 8056 0f67 52       		.byte	0x52
 8057 0f68 D0000000 		.4byte	.LVL168
 8058 0f6c E8000000 		.4byte	.LFE35
 8059 0f70 0400     		.2byte	0x4
 8060 0f72 F3       		.byte	0xf3
 8061 0f73 01       		.uleb128 0x1
 8062 0f74 52       		.byte	0x52
 8063 0f75 9F       		.byte	0x9f
 8064 0f76 00000000 		.4byte	0
 8065 0f7a 00000000 		.4byte	0
 8066              	.LLST52:
 8067 0f7e 00000000 		.4byte	.LVL138
 8068 0f82 56000000 		.4byte	.LVL152
 8069 0f86 0100     		.2byte	0x1
 8070 0f88 53       		.byte	0x53
 8071 0f89 56000000 		.4byte	.LVL152
 8072 0f8d 76000000 		.4byte	.LVL156
 8073 0f91 0500     		.2byte	0x5
 8074 0f93 73       		.byte	0x73
 8075 0f94 00       		.sleb128 0
 8076 0f95 36       		.byte	0x36
 8077 0f96 25       		.byte	0x25
 8078 0f97 9F       		.byte	0x9f
 8079 0f98 88000000 		.4byte	.LVL158
 8080 0f9c 90000000 		.4byte	.LVL159
 8081 0fa0 0100     		.2byte	0x1
 8082 0fa2 53       		.byte	0x53
 8083 0fa3 90000000 		.4byte	.LVL159
 8084 0fa7 B0000000 		.4byte	.LVL163
 8085 0fab 0500     		.2byte	0x5
 8086 0fad 73       		.byte	0x73
 8087 0fae 00       		.sleb128 0
 8088 0faf 37       		.byte	0x37
 8089 0fb0 25       		.byte	0x25
 8090 0fb1 9F       		.byte	0x9f
 8091 0fb2 B0000000 		.4byte	.LVL163
 8092 0fb6 C0000000 		.4byte	.LVL166
 8093 0fba 0600     		.2byte	0x6
 8094 0fbc F3       		.byte	0xf3
 8095 0fbd 01       		.uleb128 0x1
 8096 0fbe 53       		.byte	0x53
 8097 0fbf 37       		.byte	0x37
 8098 0fc0 25       		.byte	0x25
 8099 0fc1 9F       		.byte	0x9f
 8100 0fc2 C0000000 		.4byte	.LVL166
 8101 0fc6 E0000000 		.4byte	.LVL170
 8102 0fca 0500     		.2byte	0x5
 8103 0fcc 73       		.byte	0x73
 8104 0fcd 00       		.sleb128 0
 8105 0fce 34       		.byte	0x34
 8106 0fcf 25       		.byte	0x25
 8107 0fd0 9F       		.byte	0x9f
 8108 0fd1 E0000000 		.4byte	.LVL170
ARM GAS  C:\Users\pearlstl\AppData\Local\Temp\ccJvDP4q.s 			page 160


 8109 0fd5 E8000000 		.4byte	.LFE35
 8110 0fd9 0600     		.2byte	0x6
 8111 0fdb F3       		.byte	0xf3
 8112 0fdc 01       		.uleb128 0x1
 8113 0fdd 53       		.byte	0x53
 8114 0fde 34       		.byte	0x34
 8115 0fdf 25       		.byte	0x25
 8116 0fe0 9F       		.byte	0x9f
 8117 0fe1 00000000 		.4byte	0
 8118 0fe5 00000000 		.4byte	0
 8119              	.LLST53:
 8120 0fe9 06000000 		.4byte	.LVL139
 8121 0fed 2C000000 		.4byte	.LVL144
 8122 0ff1 0100     		.2byte	0x1
 8123 0ff3 56       		.byte	0x56
 8124 0ff4 2E000000 		.4byte	.LVL145
 8125 0ff8 54000000 		.4byte	.LVL151
 8126 0ffc 0100     		.2byte	0x1
 8127 0ffe 56       		.byte	0x56
 8128 0fff 56000000 		.4byte	.LVL152
 8129 1003 86000000 		.4byte	.LVL157
 8130 1007 0100     		.2byte	0x1
 8131 1009 56       		.byte	0x56
 8132 100a 88000000 		.4byte	.LVL158
 8133 100e BE000000 		.4byte	.LVL165
 8134 1012 0100     		.2byte	0x1
 8135 1014 56       		.byte	0x56
 8136 1015 C0000000 		.4byte	.LVL166
 8137 1019 E8000000 		.4byte	.LFE35
 8138 101d 0100     		.2byte	0x1
 8139 101f 56       		.byte	0x56
 8140 1020 00000000 		.4byte	0
 8141 1024 00000000 		.4byte	0
 8142              	.LLST54:
 8143 1028 24000000 		.4byte	.LVL141
 8144 102c 28000000 		.4byte	.LVL142
 8145 1030 1500     		.2byte	0x15
 8146 1032 72       		.byte	0x72
 8147 1033 00       		.sleb128 0
 8148 1034 40       		.byte	0x40
 8149 1035 24       		.byte	0x24
 8150 1036 40       		.byte	0x40
 8151 1037 26       		.byte	0x26
 8152 1038 70       		.byte	0x70
 8153 1039 00       		.sleb128 0
 8154 103a 40       		.byte	0x40
 8155 103b 24       		.byte	0x24
 8156 103c 40       		.byte	0x40
 8157 103d 26       		.byte	0x26
 8158 103e 1E       		.byte	0x1e
 8159 103f 71       		.byte	0x71
 8160 1040 00       		.sleb128 0
 8161 1041 40       		.byte	0x40
 8162 1042 24       		.byte	0x24
 8163 1043 40       		.byte	0x40
 8164 1044 26       		.byte	0x26
 8165 1045 22       		.byte	0x22
ARM GAS  C:\Users\pearlstl\AppData\Local\Temp\ccJvDP4q.s 			page 161


 8166 1046 9F       		.byte	0x9f
 8167 1047 28000000 		.4byte	.LVL142
 8168 104b 2A000000 		.4byte	.LVL143
 8169 104f 1600     		.2byte	0x16
 8170 1051 F3       		.byte	0xf3
 8171 1052 01       		.uleb128 0x1
 8172 1053 52       		.byte	0x52
 8173 1054 40       		.byte	0x40
 8174 1055 24       		.byte	0x24
 8175 1056 40       		.byte	0x40
 8176 1057 26       		.byte	0x26
 8177 1058 70       		.byte	0x70
 8178 1059 00       		.sleb128 0
 8179 105a 40       		.byte	0x40
 8180 105b 24       		.byte	0x24
 8181 105c 40       		.byte	0x40
 8182 105d 26       		.byte	0x26
 8183 105e 1E       		.byte	0x1e
 8184 105f 71       		.byte	0x71
 8185 1060 00       		.sleb128 0
 8186 1061 40       		.byte	0x40
 8187 1062 24       		.byte	0x24
 8188 1063 40       		.byte	0x40
 8189 1064 26       		.byte	0x26
 8190 1065 22       		.byte	0x22
 8191 1066 9F       		.byte	0x9f
 8192 1067 00000000 		.4byte	0
 8193 106b 00000000 		.4byte	0
 8194              	.LLST55:
 8195 106f 48000000 		.4byte	.LVL148
 8196 1073 4C000000 		.4byte	.LVL149
 8197 1077 1800     		.2byte	0x18
 8198 1079 72       		.byte	0x72
 8199 107a 00       		.sleb128 0
 8200 107b 40       		.byte	0x40
 8201 107c 24       		.byte	0x24
 8202 107d 40       		.byte	0x40
 8203 107e 26       		.byte	0x26
 8204 107f 70       		.byte	0x70
 8205 1080 00       		.sleb128 0
 8206 1081 40       		.byte	0x40
 8207 1082 24       		.byte	0x24
 8208 1083 40       		.byte	0x40
 8209 1084 26       		.byte	0x26
 8210 1085 1E       		.byte	0x1e
 8211 1086 71       		.byte	0x71
 8212 1087 00       		.sleb128 0
 8213 1088 40       		.byte	0x40
 8214 1089 24       		.byte	0x24
 8215 108a 40       		.byte	0x40
 8216 108b 26       		.byte	0x26
 8217 108c 22       		.byte	0x22
 8218 108d 74       		.byte	0x74
 8219 108e 00       		.sleb128 0
 8220 108f 1E       		.byte	0x1e
 8221 1090 9F       		.byte	0x9f
 8222 1091 4C000000 		.4byte	.LVL149
ARM GAS  C:\Users\pearlstl\AppData\Local\Temp\ccJvDP4q.s 			page 162


 8223 1095 50000000 		.4byte	.LVL150
 8224 1099 1900     		.2byte	0x19
 8225 109b F3       		.byte	0xf3
 8226 109c 01       		.uleb128 0x1
 8227 109d 52       		.byte	0x52
 8228 109e 40       		.byte	0x40
 8229 109f 24       		.byte	0x24
 8230 10a0 40       		.byte	0x40
 8231 10a1 26       		.byte	0x26
 8232 10a2 70       		.byte	0x70
 8233 10a3 00       		.sleb128 0
 8234 10a4 40       		.byte	0x40
 8235 10a5 24       		.byte	0x24
 8236 10a6 40       		.byte	0x40
 8237 10a7 26       		.byte	0x26
 8238 10a8 1E       		.byte	0x1e
 8239 10a9 71       		.byte	0x71
 8240 10aa 00       		.sleb128 0
 8241 10ab 40       		.byte	0x40
 8242 10ac 24       		.byte	0x24
 8243 10ad 40       		.byte	0x40
 8244 10ae 26       		.byte	0x26
 8245 10af 22       		.byte	0x22
 8246 10b0 74       		.byte	0x74
 8247 10b1 00       		.sleb128 0
 8248 10b2 1E       		.byte	0x1e
 8249 10b3 9F       		.byte	0x9f
 8250 10b4 50000000 		.4byte	.LVL150
 8251 10b8 54000000 		.4byte	.LVL151
 8252 10bc 1A00     		.2byte	0x1a
 8253 10be F3       		.byte	0xf3
 8254 10bf 01       		.uleb128 0x1
 8255 10c0 52       		.byte	0x52
 8256 10c1 40       		.byte	0x40
 8257 10c2 24       		.byte	0x24
 8258 10c3 40       		.byte	0x40
 8259 10c4 26       		.byte	0x26
 8260 10c5 70       		.byte	0x70
 8261 10c6 00       		.sleb128 0
 8262 10c7 40       		.byte	0x40
 8263 10c8 24       		.byte	0x24
 8264 10c9 40       		.byte	0x40
 8265 10ca 26       		.byte	0x26
 8266 10cb 1E       		.byte	0x1e
 8267 10cc F3       		.byte	0xf3
 8268 10cd 01       		.uleb128 0x1
 8269 10ce 51       		.byte	0x51
 8270 10cf 40       		.byte	0x40
 8271 10d0 24       		.byte	0x24
 8272 10d1 40       		.byte	0x40
 8273 10d2 26       		.byte	0x26
 8274 10d3 22       		.byte	0x22
 8275 10d4 74       		.byte	0x74
 8276 10d5 00       		.sleb128 0
 8277 10d6 1E       		.byte	0x1e
 8278 10d7 9F       		.byte	0x9f
 8279 10d8 00000000 		.4byte	0
ARM GAS  C:\Users\pearlstl\AppData\Local\Temp\ccJvDP4q.s 			page 163


 8280 10dc 00000000 		.4byte	0
 8281              	.LLST56:
 8282 10e0 56000000 		.4byte	.LVL152
 8283 10e4 6A000000 		.4byte	.LVL155
 8284 10e8 0700     		.2byte	0x7
 8285 10ea 71       		.byte	0x71
 8286 10eb 00       		.sleb128 0
 8287 10ec 33       		.byte	0x33
 8288 10ed 1A       		.byte	0x1a
 8289 10ee 31       		.byte	0x31
 8290 10ef 24       		.byte	0x24
 8291 10f0 9F       		.byte	0x9f
 8292 10f1 00000000 		.4byte	0
 8293 10f5 00000000 		.4byte	0
 8294              	.LLST57:
 8295 10f9 56000000 		.4byte	.LVL152
 8296 10fd 58000000 		.4byte	.LVL153
 8297 1101 2300     		.2byte	0x23
 8298 1103 70       		.byte	0x70
 8299 1104 01       		.sleb128 1
 8300 1105 94       		.byte	0x94
 8301 1106 02       		.byte	0x2
 8302 1107 09       		.byte	0x9
 8303 1108 F7       		.byte	0xf7
 8304 1109 24       		.byte	0x24
 8305 110a 09       		.byte	0x9
 8306 110b F9       		.byte	0xf9
 8307 110c 26       		.byte	0x26
 8308 110d 0A       		.byte	0xa
 8309 110e FFFF     		.2byte	0xffff
 8310 1110 1A       		.byte	0x1a
 8311 1111 23       		.byte	0x23
 8312 1112 03       		.uleb128 0x3
 8313 1113 32       		.byte	0x32
 8314 1114 26       		.byte	0x26
 8315 1115 72       		.byte	0x72
 8316 1116 00       		.sleb128 0
 8317 1117 40       		.byte	0x40
 8318 1118 24       		.byte	0x24
 8319 1119 40       		.byte	0x40
 8320 111a 26       		.byte	0x26
 8321 111b 1E       		.byte	0x1e
 8322 111c 71       		.byte	0x71
 8323 111d 00       		.sleb128 0
 8324 111e 32       		.byte	0x32
 8325 111f 26       		.byte	0x26
 8326 1120 40       		.byte	0x40
 8327 1121 24       		.byte	0x24
 8328 1122 40       		.byte	0x40
 8329 1123 26       		.byte	0x26
 8330 1124 22       		.byte	0x22
 8331 1125 9F       		.byte	0x9f
 8332 1126 58000000 		.4byte	.LVL153
 8333 112a 66000000 		.4byte	.LVL154
 8334 112e 2600     		.2byte	0x26
 8335 1130 F3       		.byte	0xf3
 8336 1131 01       		.uleb128 0x1
ARM GAS  C:\Users\pearlstl\AppData\Local\Temp\ccJvDP4q.s 			page 164


 8337 1132 50       		.byte	0x50
 8338 1133 23       		.byte	0x23
 8339 1134 01       		.uleb128 0x1
 8340 1135 94       		.byte	0x94
 8341 1136 02       		.byte	0x2
 8342 1137 09       		.byte	0x9
 8343 1138 F7       		.byte	0xf7
 8344 1139 24       		.byte	0x24
 8345 113a 09       		.byte	0x9
 8346 113b F9       		.byte	0xf9
 8347 113c 26       		.byte	0x26
 8348 113d 0A       		.byte	0xa
 8349 113e FFFF     		.2byte	0xffff
 8350 1140 1A       		.byte	0x1a
 8351 1141 23       		.byte	0x23
 8352 1142 03       		.uleb128 0x3
 8353 1143 32       		.byte	0x32
 8354 1144 26       		.byte	0x26
 8355 1145 72       		.byte	0x72
 8356 1146 00       		.sleb128 0
 8357 1147 40       		.byte	0x40
 8358 1148 24       		.byte	0x24
 8359 1149 40       		.byte	0x40
 8360 114a 26       		.byte	0x26
 8361 114b 1E       		.byte	0x1e
 8362 114c 71       		.byte	0x71
 8363 114d 00       		.sleb128 0
 8364 114e 32       		.byte	0x32
 8365 114f 26       		.byte	0x26
 8366 1150 40       		.byte	0x40
 8367 1151 24       		.byte	0x24
 8368 1152 40       		.byte	0x40
 8369 1153 26       		.byte	0x26
 8370 1154 22       		.byte	0x22
 8371 1155 9F       		.byte	0x9f
 8372 1156 66000000 		.4byte	.LVL154
 8373 115a 6A000000 		.4byte	.LVL155
 8374 115e 2700     		.2byte	0x27
 8375 1160 F3       		.byte	0xf3
 8376 1161 01       		.uleb128 0x1
 8377 1162 50       		.byte	0x50
 8378 1163 23       		.byte	0x23
 8379 1164 01       		.uleb128 0x1
 8380 1165 94       		.byte	0x94
 8381 1166 02       		.byte	0x2
 8382 1167 09       		.byte	0x9
 8383 1168 F7       		.byte	0xf7
 8384 1169 24       		.byte	0x24
 8385 116a 09       		.byte	0x9
 8386 116b F9       		.byte	0xf9
 8387 116c 26       		.byte	0x26
 8388 116d 0A       		.byte	0xa
 8389 116e FFFF     		.2byte	0xffff
 8390 1170 1A       		.byte	0x1a
 8391 1171 23       		.byte	0x23
 8392 1172 03       		.uleb128 0x3
 8393 1173 32       		.byte	0x32
ARM GAS  C:\Users\pearlstl\AppData\Local\Temp\ccJvDP4q.s 			page 165


 8394 1174 26       		.byte	0x26
 8395 1175 F3       		.byte	0xf3
 8396 1176 01       		.uleb128 0x1
 8397 1177 52       		.byte	0x52
 8398 1178 40       		.byte	0x40
 8399 1179 24       		.byte	0x24
 8400 117a 40       		.byte	0x40
 8401 117b 26       		.byte	0x26
 8402 117c 1E       		.byte	0x1e
 8403 117d 71       		.byte	0x71
 8404 117e 00       		.sleb128 0
 8405 117f 32       		.byte	0x32
 8406 1180 26       		.byte	0x26
 8407 1181 40       		.byte	0x40
 8408 1182 24       		.byte	0x24
 8409 1183 40       		.byte	0x40
 8410 1184 26       		.byte	0x26
 8411 1185 22       		.byte	0x22
 8412 1186 9F       		.byte	0x9f
 8413 1187 6A000000 		.4byte	.LVL155
 8414 118b 76000000 		.4byte	.LVL156
 8415 118f 2800     		.2byte	0x28
 8416 1191 F3       		.byte	0xf3
 8417 1192 01       		.uleb128 0x1
 8418 1193 50       		.byte	0x50
 8419 1194 23       		.byte	0x23
 8420 1195 01       		.uleb128 0x1
 8421 1196 94       		.byte	0x94
 8422 1197 02       		.byte	0x2
 8423 1198 09       		.byte	0x9
 8424 1199 F7       		.byte	0xf7
 8425 119a 24       		.byte	0x24
 8426 119b 09       		.byte	0x9
 8427 119c F9       		.byte	0xf9
 8428 119d 26       		.byte	0x26
 8429 119e 0A       		.byte	0xa
 8430 119f FFFF     		.2byte	0xffff
 8431 11a1 1A       		.byte	0x1a
 8432 11a2 23       		.byte	0x23
 8433 11a3 03       		.uleb128 0x3
 8434 11a4 32       		.byte	0x32
 8435 11a5 26       		.byte	0x26
 8436 11a6 F3       		.byte	0xf3
 8437 11a7 01       		.uleb128 0x1
 8438 11a8 52       		.byte	0x52
 8439 11a9 40       		.byte	0x40
 8440 11aa 24       		.byte	0x24
 8441 11ab 40       		.byte	0x40
 8442 11ac 26       		.byte	0x26
 8443 11ad 1E       		.byte	0x1e
 8444 11ae F3       		.byte	0xf3
 8445 11af 01       		.uleb128 0x1
 8446 11b0 51       		.byte	0x51
 8447 11b1 32       		.byte	0x32
 8448 11b2 26       		.byte	0x26
 8449 11b3 40       		.byte	0x40
 8450 11b4 24       		.byte	0x24
ARM GAS  C:\Users\pearlstl\AppData\Local\Temp\ccJvDP4q.s 			page 166


 8451 11b5 40       		.byte	0x40
 8452 11b6 26       		.byte	0x26
 8453 11b7 22       		.byte	0x22
 8454 11b8 9F       		.byte	0x9f
 8455 11b9 00000000 		.4byte	0
 8456 11bd 00000000 		.4byte	0
 8457              	.LLST58:
 8458 11c1 C0000000 		.4byte	.LVL166
 8459 11c5 D4000000 		.4byte	.LVL169
 8460 11c9 0700     		.2byte	0x7
 8461 11cb 71       		.byte	0x71
 8462 11cc 00       		.sleb128 0
 8463 11cd 31       		.byte	0x31
 8464 11ce 1A       		.byte	0x1a
 8465 11cf 32       		.byte	0x32
 8466 11d0 24       		.byte	0x24
 8467 11d1 9F       		.byte	0x9f
 8468 11d2 00000000 		.4byte	0
 8469 11d6 00000000 		.4byte	0
 8470              	.LLST59:
 8471 11da C0000000 		.4byte	.LVL166
 8472 11de C2000000 		.4byte	.LVL167
 8473 11e2 2300     		.2byte	0x23
 8474 11e4 70       		.byte	0x70
 8475 11e5 01       		.sleb128 1
 8476 11e6 94       		.byte	0x94
 8477 11e7 02       		.byte	0x2
 8478 11e8 09       		.byte	0x9
 8479 11e9 F7       		.byte	0xf7
 8480 11ea 24       		.byte	0x24
 8481 11eb 09       		.byte	0x9
 8482 11ec F9       		.byte	0xf9
 8483 11ed 26       		.byte	0x26
 8484 11ee 0A       		.byte	0xa
 8485 11ef FFFF     		.2byte	0xffff
 8486 11f1 1A       		.byte	0x1a
 8487 11f2 23       		.byte	0x23
 8488 11f3 01       		.uleb128 0x1
 8489 11f4 31       		.byte	0x31
 8490 11f5 26       		.byte	0x26
 8491 11f6 72       		.byte	0x72
 8492 11f7 00       		.sleb128 0
 8493 11f8 40       		.byte	0x40
 8494 11f9 24       		.byte	0x24
 8495 11fa 40       		.byte	0x40
 8496 11fb 26       		.byte	0x26
 8497 11fc 1E       		.byte	0x1e
 8498 11fd 71       		.byte	0x71
 8499 11fe 00       		.sleb128 0
 8500 11ff 31       		.byte	0x31
 8501 1200 26       		.byte	0x26
 8502 1201 40       		.byte	0x40
 8503 1202 24       		.byte	0x24
 8504 1203 40       		.byte	0x40
 8505 1204 26       		.byte	0x26
 8506 1205 22       		.byte	0x22
 8507 1206 9F       		.byte	0x9f
ARM GAS  C:\Users\pearlstl\AppData\Local\Temp\ccJvDP4q.s 			page 167


 8508 1207 C2000000 		.4byte	.LVL167
 8509 120b D0000000 		.4byte	.LVL168
 8510 120f 2600     		.2byte	0x26
 8511 1211 F3       		.byte	0xf3
 8512 1212 01       		.uleb128 0x1
 8513 1213 50       		.byte	0x50
 8514 1214 23       		.byte	0x23
 8515 1215 01       		.uleb128 0x1
 8516 1216 94       		.byte	0x94
 8517 1217 02       		.byte	0x2
 8518 1218 09       		.byte	0x9
 8519 1219 F7       		.byte	0xf7
 8520 121a 24       		.byte	0x24
 8521 121b 09       		.byte	0x9
 8522 121c F9       		.byte	0xf9
 8523 121d 26       		.byte	0x26
 8524 121e 0A       		.byte	0xa
 8525 121f FFFF     		.2byte	0xffff
 8526 1221 1A       		.byte	0x1a
 8527 1222 23       		.byte	0x23
 8528 1223 01       		.uleb128 0x1
 8529 1224 31       		.byte	0x31
 8530 1225 26       		.byte	0x26
 8531 1226 72       		.byte	0x72
 8532 1227 00       		.sleb128 0
 8533 1228 40       		.byte	0x40
 8534 1229 24       		.byte	0x24
 8535 122a 40       		.byte	0x40
 8536 122b 26       		.byte	0x26
 8537 122c 1E       		.byte	0x1e
 8538 122d 71       		.byte	0x71
 8539 122e 00       		.sleb128 0
 8540 122f 31       		.byte	0x31
 8541 1230 26       		.byte	0x26
 8542 1231 40       		.byte	0x40
 8543 1232 24       		.byte	0x24
 8544 1233 40       		.byte	0x40
 8545 1234 26       		.byte	0x26
 8546 1235 22       		.byte	0x22
 8547 1236 9F       		.byte	0x9f
 8548 1237 D0000000 		.4byte	.LVL168
 8549 123b D4000000 		.4byte	.LVL169
 8550 123f 2700     		.2byte	0x27
 8551 1241 F3       		.byte	0xf3
 8552 1242 01       		.uleb128 0x1
 8553 1243 50       		.byte	0x50
 8554 1244 23       		.byte	0x23
 8555 1245 01       		.uleb128 0x1
 8556 1246 94       		.byte	0x94
 8557 1247 02       		.byte	0x2
 8558 1248 09       		.byte	0x9
 8559 1249 F7       		.byte	0xf7
 8560 124a 24       		.byte	0x24
 8561 124b 09       		.byte	0x9
 8562 124c F9       		.byte	0xf9
 8563 124d 26       		.byte	0x26
 8564 124e 0A       		.byte	0xa
ARM GAS  C:\Users\pearlstl\AppData\Local\Temp\ccJvDP4q.s 			page 168


 8565 124f FFFF     		.2byte	0xffff
 8566 1251 1A       		.byte	0x1a
 8567 1252 23       		.byte	0x23
 8568 1253 01       		.uleb128 0x1
 8569 1254 31       		.byte	0x31
 8570 1255 26       		.byte	0x26
 8571 1256 F3       		.byte	0xf3
 8572 1257 01       		.uleb128 0x1
 8573 1258 52       		.byte	0x52
 8574 1259 40       		.byte	0x40
 8575 125a 24       		.byte	0x24
 8576 125b 40       		.byte	0x40
 8577 125c 26       		.byte	0x26
 8578 125d 1E       		.byte	0x1e
 8579 125e 71       		.byte	0x71
 8580 125f 00       		.sleb128 0
 8581 1260 31       		.byte	0x31
 8582 1261 26       		.byte	0x26
 8583 1262 40       		.byte	0x40
 8584 1263 24       		.byte	0x24
 8585 1264 40       		.byte	0x40
 8586 1265 26       		.byte	0x26
 8587 1266 22       		.byte	0x22
 8588 1267 9F       		.byte	0x9f
 8589 1268 D4000000 		.4byte	.LVL169
 8590 126c E8000000 		.4byte	.LFE35
 8591 1270 2800     		.2byte	0x28
 8592 1272 F3       		.byte	0xf3
 8593 1273 01       		.uleb128 0x1
 8594 1274 50       		.byte	0x50
 8595 1275 23       		.byte	0x23
 8596 1276 01       		.uleb128 0x1
 8597 1277 94       		.byte	0x94
 8598 1278 02       		.byte	0x2
 8599 1279 09       		.byte	0x9
 8600 127a F7       		.byte	0xf7
 8601 127b 24       		.byte	0x24
 8602 127c 09       		.byte	0x9
 8603 127d F9       		.byte	0xf9
 8604 127e 26       		.byte	0x26
 8605 127f 0A       		.byte	0xa
 8606 1280 FFFF     		.2byte	0xffff
 8607 1282 1A       		.byte	0x1a
 8608 1283 23       		.byte	0x23
 8609 1284 01       		.uleb128 0x1
 8610 1285 31       		.byte	0x31
 8611 1286 26       		.byte	0x26
 8612 1287 F3       		.byte	0xf3
 8613 1288 01       		.uleb128 0x1
 8614 1289 52       		.byte	0x52
 8615 128a 40       		.byte	0x40
 8616 128b 24       		.byte	0x24
 8617 128c 40       		.byte	0x40
 8618 128d 26       		.byte	0x26
 8619 128e 1E       		.byte	0x1e
 8620 128f F3       		.byte	0xf3
 8621 1290 01       		.uleb128 0x1
ARM GAS  C:\Users\pearlstl\AppData\Local\Temp\ccJvDP4q.s 			page 169


 8622 1291 51       		.byte	0x51
 8623 1292 31       		.byte	0x31
 8624 1293 26       		.byte	0x26
 8625 1294 40       		.byte	0x40
 8626 1295 24       		.byte	0x24
 8627 1296 40       		.byte	0x40
 8628 1297 26       		.byte	0x26
 8629 1298 22       		.byte	0x22
 8630 1299 9F       		.byte	0x9f
 8631 129a 00000000 		.4byte	0
 8632 129e 00000000 		.4byte	0
 8633              	.LLST60:
 8634 12a2 90000000 		.4byte	.LVL159
 8635 12a6 A4000000 		.4byte	.LVL162
 8636 12aa 0500     		.2byte	0x5
 8637 12ac 71       		.byte	0x71
 8638 12ad 00       		.sleb128 0
 8639 12ae 37       		.byte	0x37
 8640 12af 1A       		.byte	0x1a
 8641 12b0 9F       		.byte	0x9f
 8642 12b1 00000000 		.4byte	0
 8643 12b5 00000000 		.4byte	0
 8644              	.LLST61:
 8645 12b9 90000000 		.4byte	.LVL159
 8646 12bd 92000000 		.4byte	.LVL160
 8647 12c1 2300     		.2byte	0x23
 8648 12c3 70       		.byte	0x70
 8649 12c4 01       		.sleb128 1
 8650 12c5 94       		.byte	0x94
 8651 12c6 02       		.byte	0x2
 8652 12c7 09       		.byte	0x9
 8653 12c8 F7       		.byte	0xf7
 8654 12c9 24       		.byte	0x24
 8655 12ca 09       		.byte	0x9
 8656 12cb F9       		.byte	0xf9
 8657 12cc 26       		.byte	0x26
 8658 12cd 0A       		.byte	0xa
 8659 12ce FFFF     		.2byte	0xffff
 8660 12d0 1A       		.byte	0x1a
 8661 12d1 23       		.byte	0x23
 8662 12d2 07       		.uleb128 0x7
 8663 12d3 33       		.byte	0x33
 8664 12d4 26       		.byte	0x26
 8665 12d5 72       		.byte	0x72
 8666 12d6 00       		.sleb128 0
 8667 12d7 40       		.byte	0x40
 8668 12d8 24       		.byte	0x24
 8669 12d9 40       		.byte	0x40
 8670 12da 26       		.byte	0x26
 8671 12db 1E       		.byte	0x1e
 8672 12dc 71       		.byte	0x71
 8673 12dd 00       		.sleb128 0
 8674 12de 33       		.byte	0x33
 8675 12df 26       		.byte	0x26
 8676 12e0 40       		.byte	0x40
 8677 12e1 24       		.byte	0x24
 8678 12e2 40       		.byte	0x40
ARM GAS  C:\Users\pearlstl\AppData\Local\Temp\ccJvDP4q.s 			page 170


 8679 12e3 26       		.byte	0x26
 8680 12e4 22       		.byte	0x22
 8681 12e5 9F       		.byte	0x9f
 8682 12e6 92000000 		.4byte	.LVL160
 8683 12ea A0000000 		.4byte	.LVL161
 8684 12ee 2600     		.2byte	0x26
 8685 12f0 F3       		.byte	0xf3
 8686 12f1 01       		.uleb128 0x1
 8687 12f2 50       		.byte	0x50
 8688 12f3 23       		.byte	0x23
 8689 12f4 01       		.uleb128 0x1
 8690 12f5 94       		.byte	0x94
 8691 12f6 02       		.byte	0x2
 8692 12f7 09       		.byte	0x9
 8693 12f8 F7       		.byte	0xf7
 8694 12f9 24       		.byte	0x24
 8695 12fa 09       		.byte	0x9
 8696 12fb F9       		.byte	0xf9
 8697 12fc 26       		.byte	0x26
 8698 12fd 0A       		.byte	0xa
 8699 12fe FFFF     		.2byte	0xffff
 8700 1300 1A       		.byte	0x1a
 8701 1301 23       		.byte	0x23
 8702 1302 07       		.uleb128 0x7
 8703 1303 33       		.byte	0x33
 8704 1304 26       		.byte	0x26
 8705 1305 72       		.byte	0x72
 8706 1306 00       		.sleb128 0
 8707 1307 40       		.byte	0x40
 8708 1308 24       		.byte	0x24
 8709 1309 40       		.byte	0x40
 8710 130a 26       		.byte	0x26
 8711 130b 1E       		.byte	0x1e
 8712 130c 71       		.byte	0x71
 8713 130d 00       		.sleb128 0
 8714 130e 33       		.byte	0x33
 8715 130f 26       		.byte	0x26
 8716 1310 40       		.byte	0x40
 8717 1311 24       		.byte	0x24
 8718 1312 40       		.byte	0x40
 8719 1313 26       		.byte	0x26
 8720 1314 22       		.byte	0x22
 8721 1315 9F       		.byte	0x9f
 8722 1316 A0000000 		.4byte	.LVL161
 8723 131a A4000000 		.4byte	.LVL162
 8724 131e 2700     		.2byte	0x27
 8725 1320 F3       		.byte	0xf3
 8726 1321 01       		.uleb128 0x1
 8727 1322 50       		.byte	0x50
 8728 1323 23       		.byte	0x23
 8729 1324 01       		.uleb128 0x1
 8730 1325 94       		.byte	0x94
 8731 1326 02       		.byte	0x2
 8732 1327 09       		.byte	0x9
 8733 1328 F7       		.byte	0xf7
 8734 1329 24       		.byte	0x24
 8735 132a 09       		.byte	0x9
ARM GAS  C:\Users\pearlstl\AppData\Local\Temp\ccJvDP4q.s 			page 171


 8736 132b F9       		.byte	0xf9
 8737 132c 26       		.byte	0x26
 8738 132d 0A       		.byte	0xa
 8739 132e FFFF     		.2byte	0xffff
 8740 1330 1A       		.byte	0x1a
 8741 1331 23       		.byte	0x23
 8742 1332 07       		.uleb128 0x7
 8743 1333 33       		.byte	0x33
 8744 1334 26       		.byte	0x26
 8745 1335 F3       		.byte	0xf3
 8746 1336 01       		.uleb128 0x1
 8747 1337 52       		.byte	0x52
 8748 1338 40       		.byte	0x40
 8749 1339 24       		.byte	0x24
 8750 133a 40       		.byte	0x40
 8751 133b 26       		.byte	0x26
 8752 133c 1E       		.byte	0x1e
 8753 133d 71       		.byte	0x71
 8754 133e 00       		.sleb128 0
 8755 133f 33       		.byte	0x33
 8756 1340 26       		.byte	0x26
 8757 1341 40       		.byte	0x40
 8758 1342 24       		.byte	0x24
 8759 1343 40       		.byte	0x40
 8760 1344 26       		.byte	0x26
 8761 1345 22       		.byte	0x22
 8762 1346 9F       		.byte	0x9f
 8763 1347 A4000000 		.4byte	.LVL162
 8764 134b BC000000 		.4byte	.LVL164
 8765 134f 2800     		.2byte	0x28
 8766 1351 F3       		.byte	0xf3
 8767 1352 01       		.uleb128 0x1
 8768 1353 50       		.byte	0x50
 8769 1354 23       		.byte	0x23
 8770 1355 01       		.uleb128 0x1
 8771 1356 94       		.byte	0x94
 8772 1357 02       		.byte	0x2
 8773 1358 09       		.byte	0x9
 8774 1359 F7       		.byte	0xf7
 8775 135a 24       		.byte	0x24
 8776 135b 09       		.byte	0x9
 8777 135c F9       		.byte	0xf9
 8778 135d 26       		.byte	0x26
 8779 135e 0A       		.byte	0xa
 8780 135f FFFF     		.2byte	0xffff
 8781 1361 1A       		.byte	0x1a
 8782 1362 23       		.byte	0x23
 8783 1363 07       		.uleb128 0x7
 8784 1364 33       		.byte	0x33
 8785 1365 26       		.byte	0x26
 8786 1366 F3       		.byte	0xf3
 8787 1367 01       		.uleb128 0x1
 8788 1368 52       		.byte	0x52
 8789 1369 40       		.byte	0x40
 8790 136a 24       		.byte	0x24
 8791 136b 40       		.byte	0x40
 8792 136c 26       		.byte	0x26
ARM GAS  C:\Users\pearlstl\AppData\Local\Temp\ccJvDP4q.s 			page 172


 8793 136d 1E       		.byte	0x1e
 8794 136e F3       		.byte	0xf3
 8795 136f 01       		.uleb128 0x1
 8796 1370 51       		.byte	0x51
 8797 1371 33       		.byte	0x33
 8798 1372 26       		.byte	0x26
 8799 1373 40       		.byte	0x40
 8800 1374 24       		.byte	0x24
 8801 1375 40       		.byte	0x40
 8802 1376 26       		.byte	0x26
 8803 1377 22       		.byte	0x22
 8804 1378 9F       		.byte	0x9f
 8805 1379 00000000 		.4byte	0
 8806 137d 00000000 		.4byte	0
 8807              	.LLST62:
 8808 1381 00000000 		.4byte	.LVL171
 8809 1385 30000000 		.4byte	.LVL174
 8810 1389 0100     		.2byte	0x1
 8811 138b 50       		.byte	0x50
 8812 138c 30000000 		.4byte	.LVL174
 8813 1390 3C000000 		.4byte	.LVL176
 8814 1394 0400     		.2byte	0x4
 8815 1396 F3       		.byte	0xf3
 8816 1397 01       		.uleb128 0x1
 8817 1398 50       		.byte	0x50
 8818 1399 9F       		.byte	0x9f
 8819 139a 3C000000 		.4byte	.LVL176
 8820 139e 4E000000 		.4byte	.LFE36
 8821 13a2 0100     		.2byte	0x1
 8822 13a4 50       		.byte	0x50
 8823 13a5 00000000 		.4byte	0
 8824 13a9 00000000 		.4byte	0
 8825              	.LLST63:
 8826 13ad 2E000000 		.4byte	.LVL173
 8827 13b1 30000000 		.4byte	.LVL174
 8828 13b5 0200     		.2byte	0x2
 8829 13b7 70       		.byte	0x70
 8830 13b8 08       		.sleb128 8
 8831 13b9 30000000 		.4byte	.LVL174
 8832 13bd 34000000 		.4byte	.LVL175
 8833 13c1 0500     		.2byte	0x5
 8834 13c3 F3       		.byte	0xf3
 8835 13c4 01       		.uleb128 0x1
 8836 13c5 50       		.byte	0x50
 8837 13c6 23       		.byte	0x23
 8838 13c7 08       		.uleb128 0x8
 8839 13c8 00000000 		.4byte	0
 8840 13cc 00000000 		.4byte	0
 8841              	.LLST64:
 8842 13d0 00000000 		.4byte	.LVL177
 8843 13d4 02000000 		.4byte	.LVL178
 8844 13d8 0100     		.2byte	0x1
 8845 13da 50       		.byte	0x50
 8846 13db 02000000 		.4byte	.LVL178
 8847 13df 14000000 		.4byte	.LFE37
 8848 13e3 0400     		.2byte	0x4
 8849 13e5 F3       		.byte	0xf3
ARM GAS  C:\Users\pearlstl\AppData\Local\Temp\ccJvDP4q.s 			page 173


 8850 13e6 01       		.uleb128 0x1
 8851 13e7 50       		.byte	0x50
 8852 13e8 9F       		.byte	0x9f
 8853 13e9 00000000 		.4byte	0
 8854 13ed 00000000 		.4byte	0
 8855              	.LLST65:
 8856 13f1 00000000 		.4byte	.LVL177
 8857 13f5 0E000000 		.4byte	.LVL179
 8858 13f9 0200     		.2byte	0x2
 8859 13fb 30       		.byte	0x30
 8860 13fc 9F       		.byte	0x9f
 8861 13fd 0E000000 		.4byte	.LVL179
 8862 1401 14000000 		.4byte	.LFE37
 8863 1405 0100     		.2byte	0x1
 8864 1407 50       		.byte	0x50
 8865 1408 00000000 		.4byte	0
 8866 140c 00000000 		.4byte	0
 8867              	.LLST66:
 8868 1410 00000000 		.4byte	.LVL180
 8869 1414 0A000000 		.4byte	.LVL181
 8870 1418 0100     		.2byte	0x1
 8871 141a 50       		.byte	0x50
 8872 141b 0A000000 		.4byte	.LVL181
 8873 141f 16000000 		.4byte	.LVL182
 8874 1423 0400     		.2byte	0x4
 8875 1425 F3       		.byte	0xf3
 8876 1426 01       		.uleb128 0x1
 8877 1427 50       		.byte	0x50
 8878 1428 9F       		.byte	0x9f
 8879 1429 16000000 		.4byte	.LVL182
 8880 142d 18000000 		.4byte	.LVL183
 8881 1431 0100     		.2byte	0x1
 8882 1433 50       		.byte	0x50
 8883 1434 18000000 		.4byte	.LVL183
 8884 1438 1A000000 		.4byte	.LFE38
 8885 143c 0400     		.2byte	0x4
 8886 143e F3       		.byte	0xf3
 8887 143f 01       		.uleb128 0x1
 8888 1440 50       		.byte	0x50
 8889 1441 9F       		.byte	0x9f
 8890 1442 00000000 		.4byte	0
 8891 1446 00000000 		.4byte	0
 8892              	.LLST67:
 8893 144a 00000000 		.4byte	.LVL180
 8894 144e 18000000 		.4byte	.LVL183
 8895 1452 0200     		.2byte	0x2
 8896 1454 30       		.byte	0x30
 8897 1455 9F       		.byte	0x9f
 8898 1456 18000000 		.4byte	.LVL183
 8899 145a 1A000000 		.4byte	.LFE38
 8900 145e 0100     		.2byte	0x1
 8901 1460 50       		.byte	0x50
 8902 1461 00000000 		.4byte	0
 8903 1465 00000000 		.4byte	0
 8904              	.LLST68:
 8905 1469 00000000 		.4byte	.LVL184
 8906 146d 0C000000 		.4byte	.LVL185
ARM GAS  C:\Users\pearlstl\AppData\Local\Temp\ccJvDP4q.s 			page 174


 8907 1471 0100     		.2byte	0x1
 8908 1473 50       		.byte	0x50
 8909 1474 0C000000 		.4byte	.LVL185
 8910 1478 16000000 		.4byte	.LVL186
 8911 147c 0400     		.2byte	0x4
 8912 147e F3       		.byte	0xf3
 8913 147f 01       		.uleb128 0x1
 8914 1480 50       		.byte	0x50
 8915 1481 9F       		.byte	0x9f
 8916 1482 16000000 		.4byte	.LVL186
 8917 1486 18000000 		.4byte	.LVL187
 8918 148a 0100     		.2byte	0x1
 8919 148c 50       		.byte	0x50
 8920 148d 18000000 		.4byte	.LVL187
 8921 1491 1A000000 		.4byte	.LFE39
 8922 1495 0400     		.2byte	0x4
 8923 1497 F3       		.byte	0xf3
 8924 1498 01       		.uleb128 0x1
 8925 1499 50       		.byte	0x50
 8926 149a 9F       		.byte	0x9f
 8927 149b 00000000 		.4byte	0
 8928 149f 00000000 		.4byte	0
 8929              	.LLST69:
 8930 14a3 00000000 		.4byte	.LVL184
 8931 14a7 18000000 		.4byte	.LVL187
 8932 14ab 0200     		.2byte	0x2
 8933 14ad 30       		.byte	0x30
 8934 14ae 9F       		.byte	0x9f
 8935 14af 18000000 		.4byte	.LVL187
 8936 14b3 1A000000 		.4byte	.LFE39
 8937 14b7 0100     		.2byte	0x1
 8938 14b9 50       		.byte	0x50
 8939 14ba 00000000 		.4byte	0
 8940 14be 00000000 		.4byte	0
 8941              	.LLST70:
 8942 14c2 00000000 		.4byte	.LVL188
 8943 14c6 14000000 		.4byte	.LVL190
 8944 14ca 0100     		.2byte	0x1
 8945 14cc 50       		.byte	0x50
 8946 14cd 14000000 		.4byte	.LVL190
 8947 14d1 18000000 		.4byte	.LVL191
 8948 14d5 0400     		.2byte	0x4
 8949 14d7 F3       		.byte	0xf3
 8950 14d8 01       		.uleb128 0x1
 8951 14d9 50       		.byte	0x50
 8952 14da 9F       		.byte	0x9f
 8953 14db 18000000 		.4byte	.LVL191
 8954 14df 1A000000 		.4byte	.LVL192
 8955 14e3 0100     		.2byte	0x1
 8956 14e5 50       		.byte	0x50
 8957 14e6 1A000000 		.4byte	.LVL192
 8958 14ea 1C000000 		.4byte	.LVL193
 8959 14ee 0400     		.2byte	0x4
 8960 14f0 F3       		.byte	0xf3
 8961 14f1 01       		.uleb128 0x1
 8962 14f2 50       		.byte	0x50
 8963 14f3 9F       		.byte	0x9f
ARM GAS  C:\Users\pearlstl\AppData\Local\Temp\ccJvDP4q.s 			page 175


 8964 14f4 1C000000 		.4byte	.LVL193
 8965 14f8 1E000000 		.4byte	.LVL194
 8966 14fc 0100     		.2byte	0x1
 8967 14fe 50       		.byte	0x50
 8968 14ff 1E000000 		.4byte	.LVL194
 8969 1503 20000000 		.4byte	.LFE40
 8970 1507 0400     		.2byte	0x4
 8971 1509 F3       		.byte	0xf3
 8972 150a 01       		.uleb128 0x1
 8973 150b 50       		.byte	0x50
 8974 150c 9F       		.byte	0x9f
 8975 150d 00000000 		.4byte	0
 8976 1511 00000000 		.4byte	0
 8977              	.LLST71:
 8978 1515 02000000 		.4byte	.LVL189
 8979 1519 14000000 		.4byte	.LVL190
 8980 151d 0100     		.2byte	0x1
 8981 151f 50       		.byte	0x50
 8982 1520 14000000 		.4byte	.LVL190
 8983 1524 18000000 		.4byte	.LVL191
 8984 1528 0400     		.2byte	0x4
 8985 152a F3       		.byte	0xf3
 8986 152b 01       		.uleb128 0x1
 8987 152c 50       		.byte	0x50
 8988 152d 9F       		.byte	0x9f
 8989 152e 18000000 		.4byte	.LVL191
 8990 1532 1A000000 		.4byte	.LVL192
 8991 1536 0100     		.2byte	0x1
 8992 1538 50       		.byte	0x50
 8993 1539 1A000000 		.4byte	.LVL192
 8994 153d 1C000000 		.4byte	.LVL193
 8995 1541 0400     		.2byte	0x4
 8996 1543 F3       		.byte	0xf3
 8997 1544 01       		.uleb128 0x1
 8998 1545 50       		.byte	0x50
 8999 1546 9F       		.byte	0x9f
 9000 1547 00000000 		.4byte	0
 9001 154b 00000000 		.4byte	0
 9002              	.LLST72:
 9003 154f 00000000 		.4byte	.LVL195
 9004 1553 08000000 		.4byte	.LVL196
 9005 1557 0100     		.2byte	0x1
 9006 1559 50       		.byte	0x50
 9007 155a 08000000 		.4byte	.LVL196
 9008 155e 04010000 		.4byte	.LFE41
 9009 1562 0400     		.2byte	0x4
 9010 1564 F3       		.byte	0xf3
 9011 1565 01       		.uleb128 0x1
 9012 1566 50       		.byte	0x50
 9013 1567 9F       		.byte	0x9f
 9014 1568 00000000 		.4byte	0
 9015 156c 00000000 		.4byte	0
 9016              	.LLST73:
 9017 1570 00000000 		.4byte	.LVL195
 9018 1574 0F000000 		.4byte	.LVL197-1
 9019 1578 0100     		.2byte	0x1
 9020 157a 51       		.byte	0x51
ARM GAS  C:\Users\pearlstl\AppData\Local\Temp\ccJvDP4q.s 			page 176


 9021 157b 0F000000 		.4byte	.LVL197-1
 9022 157f 04010000 		.4byte	.LFE41
 9023 1583 0400     		.2byte	0x4
 9024 1585 F3       		.byte	0xf3
 9025 1586 01       		.uleb128 0x1
 9026 1587 51       		.byte	0x51
 9027 1588 9F       		.byte	0x9f
 9028 1589 00000000 		.4byte	0
 9029 158d 00000000 		.4byte	0
 9030              	.LLST74:
 9031 1591 00000000 		.4byte	.LVL195
 9032 1595 0F000000 		.4byte	.LVL197-1
 9033 1599 0100     		.2byte	0x1
 9034 159b 52       		.byte	0x52
 9035 159c 0F000000 		.4byte	.LVL197-1
 9036 15a0 04010000 		.4byte	.LFE41
 9037 15a4 0400     		.2byte	0x4
 9038 15a6 F3       		.byte	0xf3
 9039 15a7 01       		.uleb128 0x1
 9040 15a8 52       		.byte	0x52
 9041 15a9 9F       		.byte	0x9f
 9042 15aa 00000000 		.4byte	0
 9043 15ae 00000000 		.4byte	0
 9044              	.LLST75:
 9045 15b2 10000000 		.4byte	.LVL197
 9046 15b6 36000000 		.4byte	.LVL199
 9047 15ba 0100     		.2byte	0x1
 9048 15bc 50       		.byte	0x50
 9049 15bd 36000000 		.4byte	.LVL199
 9050 15c1 78000000 		.4byte	.LVL203
 9051 15c5 0100     		.2byte	0x1
 9052 15c7 54       		.byte	0x54
 9053 15c8 78000000 		.4byte	.LVL203
 9054 15cc 7C000000 		.4byte	.LVL204
 9055 15d0 0100     		.2byte	0x1
 9056 15d2 50       		.byte	0x50
 9057 15d3 7C000000 		.4byte	.LVL204
 9058 15d7 84000000 		.4byte	.LVL205
 9059 15db 0100     		.2byte	0x1
 9060 15dd 54       		.byte	0x54
 9061 15de 84000000 		.4byte	.LVL205
 9062 15e2 88000000 		.4byte	.LVL206
 9063 15e6 0100     		.2byte	0x1
 9064 15e8 50       		.byte	0x50
 9065 15e9 88000000 		.4byte	.LVL206
 9066 15ed 96000000 		.4byte	.LVL207
 9067 15f1 0100     		.2byte	0x1
 9068 15f3 54       		.byte	0x54
 9069 15f4 96000000 		.4byte	.LVL207
 9070 15f8 9A000000 		.4byte	.LVL208
 9071 15fc 0100     		.2byte	0x1
 9072 15fe 50       		.byte	0x50
 9073 15ff 9A000000 		.4byte	.LVL208
 9074 1603 A8000000 		.4byte	.LVL209
 9075 1607 0100     		.2byte	0x1
 9076 1609 54       		.byte	0x54
 9077 160a A8000000 		.4byte	.LVL209
ARM GAS  C:\Users\pearlstl\AppData\Local\Temp\ccJvDP4q.s 			page 177


 9078 160e AC000000 		.4byte	.LVL210
 9079 1612 0100     		.2byte	0x1
 9080 1614 50       		.byte	0x50
 9081 1615 AC000000 		.4byte	.LVL210
 9082 1619 B6000000 		.4byte	.LVL211
 9083 161d 0100     		.2byte	0x1
 9084 161f 54       		.byte	0x54
 9085 1620 B6000000 		.4byte	.LVL211
 9086 1624 BA000000 		.4byte	.LVL212
 9087 1628 0100     		.2byte	0x1
 9088 162a 50       		.byte	0x50
 9089 162b BA000000 		.4byte	.LVL212
 9090 162f C0000000 		.4byte	.LVL213
 9091 1633 0100     		.2byte	0x1
 9092 1635 54       		.byte	0x54
 9093 1636 C0000000 		.4byte	.LVL213
 9094 163a C4000000 		.4byte	.LVL214
 9095 163e 0100     		.2byte	0x1
 9096 1640 50       		.byte	0x50
 9097 1641 C4000000 		.4byte	.LVL214
 9098 1645 D0000000 		.4byte	.LVL215
 9099 1649 0100     		.2byte	0x1
 9100 164b 54       		.byte	0x54
 9101 164c D0000000 		.4byte	.LVL215
 9102 1650 D4000000 		.4byte	.LVL216
 9103 1654 0100     		.2byte	0x1
 9104 1656 50       		.byte	0x50
 9105 1657 D4000000 		.4byte	.LVL216
 9106 165b E0000000 		.4byte	.LVL217
 9107 165f 0100     		.2byte	0x1
 9108 1661 54       		.byte	0x54
 9109 1662 E0000000 		.4byte	.LVL217
 9110 1666 E4000000 		.4byte	.LVL218
 9111 166a 0100     		.2byte	0x1
 9112 166c 50       		.byte	0x50
 9113 166d E4000000 		.4byte	.LVL218
 9114 1671 E6000000 		.4byte	.LVL219
 9115 1675 0100     		.2byte	0x1
 9116 1677 54       		.byte	0x54
 9117 1678 E6000000 		.4byte	.LVL219
 9118 167c EA000000 		.4byte	.LVL220
 9119 1680 0100     		.2byte	0x1
 9120 1682 50       		.byte	0x50
 9121 1683 EA000000 		.4byte	.LVL220
 9122 1687 04010000 		.4byte	.LFE41
 9123 168b 0100     		.2byte	0x1
 9124 168d 54       		.byte	0x54
 9125 168e 00000000 		.4byte	0
 9126 1692 00000000 		.4byte	0
 9127              	.LLST76:
 9128 1696 20000000 		.4byte	.LVL198
 9129 169a 3A000000 		.4byte	.LVL200
 9130 169e 0100     		.2byte	0x1
 9131 16a0 57       		.byte	0x57
 9132 16a1 78000000 		.4byte	.LVL203
 9133 16a5 E6000000 		.4byte	.LVL219
 9134 16a9 0100     		.2byte	0x1
ARM GAS  C:\Users\pearlstl\AppData\Local\Temp\ccJvDP4q.s 			page 178


 9135 16ab 57       		.byte	0x57
 9136 16ac 00000000 		.4byte	0
 9137 16b0 00000000 		.4byte	0
 9138              	.LLST77:
 9139 16b4 20000000 		.4byte	.LVL198
 9140 16b8 3A000000 		.4byte	.LVL200
 9141 16bc 0100     		.2byte	0x1
 9142 16be 56       		.byte	0x56
 9143 16bf 78000000 		.4byte	.LVL203
 9144 16c3 E6000000 		.4byte	.LVL219
 9145 16c7 0100     		.2byte	0x1
 9146 16c9 56       		.byte	0x56
 9147 16ca 00000000 		.4byte	0
 9148 16ce 00000000 		.4byte	0
 9149              	.LLST78:
 9150 16d2 20000000 		.4byte	.LVL198
 9151 16d6 3A000000 		.4byte	.LVL200
 9152 16da 0100     		.2byte	0x1
 9153 16dc 55       		.byte	0x55
 9154 16dd 78000000 		.4byte	.LVL203
 9155 16e1 E6000000 		.4byte	.LVL219
 9156 16e5 0100     		.2byte	0x1
 9157 16e7 55       		.byte	0x55
 9158 16e8 00000000 		.4byte	0
 9159 16ec 00000000 		.4byte	0
 9160              	.LLST79:
 9161 16f0 00000000 		.4byte	.LVL224
 9162 16f4 08000000 		.4byte	.LVL225
 9163 16f8 0100     		.2byte	0x1
 9164 16fa 50       		.byte	0x50
 9165 16fb 08000000 		.4byte	.LVL225
 9166 16ff 14000000 		.4byte	.LVL227
 9167 1703 0100     		.2byte	0x1
 9168 1705 54       		.byte	0x54
 9169 1706 14000000 		.4byte	.LVL227
 9170 170a 17000000 		.4byte	.LVL228-1
 9171 170e 0100     		.2byte	0x1
 9172 1710 50       		.byte	0x50
 9173 1711 17000000 		.4byte	.LVL228-1
 9174 1715 18000000 		.4byte	.LVL228
 9175 1719 0400     		.2byte	0x4
 9176 171b F3       		.byte	0xf3
 9177 171c 01       		.uleb128 0x1
 9178 171d 50       		.byte	0x50
 9179 171e 9F       		.byte	0x9f
 9180 171f 18000000 		.4byte	.LVL228
 9181 1723 1A000000 		.4byte	.LFE42
 9182 1727 0100     		.2byte	0x1
 9183 1729 50       		.byte	0x50
 9184 172a 00000000 		.4byte	0
 9185 172e 00000000 		.4byte	0
 9186              	.LLST80:
 9187 1732 00000000 		.4byte	.LVL229
 9188 1736 1A000000 		.4byte	.LVL231
 9189 173a 0100     		.2byte	0x1
 9190 173c 50       		.byte	0x50
 9191 173d 1A000000 		.4byte	.LVL231
ARM GAS  C:\Users\pearlstl\AppData\Local\Temp\ccJvDP4q.s 			page 179


 9192 1741 22000000 		.4byte	.LVL232
 9193 1745 0400     		.2byte	0x4
 9194 1747 F3       		.byte	0xf3
 9195 1748 01       		.uleb128 0x1
 9196 1749 50       		.byte	0x50
 9197 174a 9F       		.byte	0x9f
 9198 174b 22000000 		.4byte	.LVL232
 9199 174f 2C000000 		.4byte	.LVL233
 9200 1753 0100     		.2byte	0x1
 9201 1755 50       		.byte	0x50
 9202 1756 2C000000 		.4byte	.LVL233
 9203 175a 2E000000 		.4byte	.LVL234
 9204 175e 0400     		.2byte	0x4
 9205 1760 F3       		.byte	0xf3
 9206 1761 01       		.uleb128 0x1
 9207 1762 50       		.byte	0x50
 9208 1763 9F       		.byte	0x9f
 9209 1764 2E000000 		.4byte	.LVL234
 9210 1768 3A000000 		.4byte	.LVL235
 9211 176c 0100     		.2byte	0x1
 9212 176e 50       		.byte	0x50
 9213 176f 3A000000 		.4byte	.LVL235
 9214 1773 3E000000 		.4byte	.LVL236
 9215 1777 0400     		.2byte	0x4
 9216 1779 F3       		.byte	0xf3
 9217 177a 01       		.uleb128 0x1
 9218 177b 50       		.byte	0x50
 9219 177c 9F       		.byte	0x9f
 9220 177d 3E000000 		.4byte	.LVL236
 9221 1781 4A000000 		.4byte	.LVL237
 9222 1785 0100     		.2byte	0x1
 9223 1787 50       		.byte	0x50
 9224 1788 4A000000 		.4byte	.LVL237
 9225 178c 4E000000 		.4byte	.LVL238
 9226 1790 0400     		.2byte	0x4
 9227 1792 F3       		.byte	0xf3
 9228 1793 01       		.uleb128 0x1
 9229 1794 50       		.byte	0x50
 9230 1795 9F       		.byte	0x9f
 9231 1796 4E000000 		.4byte	.LVL238
 9232 179a 58000000 		.4byte	.LVL239
 9233 179e 0100     		.2byte	0x1
 9234 17a0 50       		.byte	0x50
 9235 17a1 58000000 		.4byte	.LVL239
 9236 17a5 5C000000 		.4byte	.LVL240
 9237 17a9 0400     		.2byte	0x4
 9238 17ab F3       		.byte	0xf3
 9239 17ac 01       		.uleb128 0x1
 9240 17ad 50       		.byte	0x50
 9241 17ae 9F       		.byte	0x9f
 9242 17af 5C000000 		.4byte	.LVL240
 9243 17b3 64000000 		.4byte	.LVL241
 9244 17b7 0100     		.2byte	0x1
 9245 17b9 50       		.byte	0x50
 9246 17ba 64000000 		.4byte	.LVL241
 9247 17be 66000000 		.4byte	.LVL242
 9248 17c2 0400     		.2byte	0x4
ARM GAS  C:\Users\pearlstl\AppData\Local\Temp\ccJvDP4q.s 			page 180


 9249 17c4 F3       		.byte	0xf3
 9250 17c5 01       		.uleb128 0x1
 9251 17c6 50       		.byte	0x50
 9252 17c7 9F       		.byte	0x9f
 9253 17c8 66000000 		.4byte	.LVL242
 9254 17cc 72000000 		.4byte	.LVL243
 9255 17d0 0100     		.2byte	0x1
 9256 17d2 50       		.byte	0x50
 9257 17d3 72000000 		.4byte	.LVL243
 9258 17d7 74000000 		.4byte	.LVL244
 9259 17db 0400     		.2byte	0x4
 9260 17dd F3       		.byte	0xf3
 9261 17de 01       		.uleb128 0x1
 9262 17df 50       		.byte	0x50
 9263 17e0 9F       		.byte	0x9f
 9264 17e1 74000000 		.4byte	.LVL244
 9265 17e5 80000000 		.4byte	.LVL245
 9266 17e9 0100     		.2byte	0x1
 9267 17eb 50       		.byte	0x50
 9268 17ec 80000000 		.4byte	.LVL245
 9269 17f0 82000000 		.4byte	.LVL246
 9270 17f4 0400     		.2byte	0x4
 9271 17f6 F3       		.byte	0xf3
 9272 17f7 01       		.uleb128 0x1
 9273 17f8 50       		.byte	0x50
 9274 17f9 9F       		.byte	0x9f
 9275 17fa 82000000 		.4byte	.LVL246
 9276 17fe 86000000 		.4byte	.LVL247
 9277 1802 0100     		.2byte	0x1
 9278 1804 50       		.byte	0x50
 9279 1805 86000000 		.4byte	.LVL247
 9280 1809 88000000 		.4byte	.LVL248
 9281 180d 0400     		.2byte	0x4
 9282 180f F3       		.byte	0xf3
 9283 1810 01       		.uleb128 0x1
 9284 1811 50       		.byte	0x50
 9285 1812 9F       		.byte	0x9f
 9286 1813 88000000 		.4byte	.LVL248
 9287 1817 8A000000 		.4byte	.LVL249
 9288 181b 0100     		.2byte	0x1
 9289 181d 50       		.byte	0x50
 9290 181e 8A000000 		.4byte	.LVL249
 9291 1822 8C000000 		.4byte	.LFE43
 9292 1826 0400     		.2byte	0x4
 9293 1828 F3       		.byte	0xf3
 9294 1829 01       		.uleb128 0x1
 9295 182a 50       		.byte	0x50
 9296 182b 9F       		.byte	0x9f
 9297 182c 00000000 		.4byte	0
 9298 1830 00000000 		.4byte	0
 9299              	.LLST81:
 9300 1834 00000000 		.4byte	.LVL229
 9301 1838 02000000 		.4byte	.LVL230
 9302 183c 0100     		.2byte	0x1
 9303 183e 52       		.byte	0x52
 9304 183f 02000000 		.4byte	.LVL230
 9305 1843 8C000000 		.4byte	.LFE43
ARM GAS  C:\Users\pearlstl\AppData\Local\Temp\ccJvDP4q.s 			page 181


 9306 1847 0400     		.2byte	0x4
 9307 1849 F3       		.byte	0xf3
 9308 184a 01       		.uleb128 0x1
 9309 184b 52       		.byte	0x52
 9310 184c 9F       		.byte	0x9f
 9311 184d 00000000 		.4byte	0
 9312 1851 00000000 		.4byte	0
 9313              		.section	.debug_aranges,"",%progbits
 9314 0000 7C000000 		.4byte	0x7c
 9315 0004 0200     		.2byte	0x2
 9316 0006 00000000 		.4byte	.Ldebug_info0
 9317 000a 04       		.byte	0x4
 9318 000b 00       		.byte	0
 9319 000c 0000     		.2byte	0
 9320 000e 0000     		.2byte	0
 9321 0010 00000000 		.4byte	.LFB31
 9322 0014 2C020000 		.4byte	.LFE31-.LFB31
 9323 0018 00000000 		.4byte	.LFB32
 9324 001c 14010000 		.4byte	.LFE32-.LFB32
 9325 0020 00000000 		.4byte	.LFB33
 9326 0024 00010000 		.4byte	.LFE33-.LFB33
 9327 0028 00000000 		.4byte	.LFB34
 9328 002c 18010000 		.4byte	.LFE34-.LFB34
 9329 0030 00000000 		.4byte	.LFB35
 9330 0034 E8000000 		.4byte	.LFE35-.LFB35
 9331 0038 00000000 		.4byte	.LFB36
 9332 003c 4E000000 		.4byte	.LFE36-.LFB36
 9333 0040 00000000 		.4byte	.LFB37
 9334 0044 14000000 		.4byte	.LFE37-.LFB37
 9335 0048 00000000 		.4byte	.LFB38
 9336 004c 1A000000 		.4byte	.LFE38-.LFB38
 9337 0050 00000000 		.4byte	.LFB39
 9338 0054 1A000000 		.4byte	.LFE39-.LFB39
 9339 0058 00000000 		.4byte	.LFB40
 9340 005c 20000000 		.4byte	.LFE40-.LFB40
 9341 0060 00000000 		.4byte	.LFB41
 9342 0064 04010000 		.4byte	.LFE41-.LFB41
 9343 0068 00000000 		.4byte	.LFB42
 9344 006c 1A000000 		.4byte	.LFE42-.LFB42
 9345 0070 00000000 		.4byte	.LFB43
 9346 0074 8C000000 		.4byte	.LFE43-.LFB43
 9347 0078 00000000 		.4byte	0
 9348 007c 00000000 		.4byte	0
 9349              		.section	.debug_ranges,"",%progbits
 9350              	.Ldebug_ranges0:
 9351 0000 16000000 		.4byte	.LBB50
 9352 0004 6C000000 		.4byte	.LBE50
 9353 0008 7C000000 		.4byte	.LBB64
 9354 000c B0000000 		.4byte	.LBE64
 9355 0010 B6000000 		.4byte	.LBB65
 9356 0014 8A010000 		.4byte	.LBE65
 9357 0018 BA010000 		.4byte	.LBB66
 9358 001c F6010000 		.4byte	.LBE66
 9359 0020 00000000 		.4byte	0
 9360 0024 00000000 		.4byte	0
 9361 0028 7C000000 		.4byte	.LBB52
 9362 002c 80000000 		.4byte	.LBE52
ARM GAS  C:\Users\pearlstl\AppData\Local\Temp\ccJvDP4q.s 			page 182


 9363 0030 C6010000 		.4byte	.LBB60
 9364 0034 CA010000 		.4byte	.LBE60
 9365 0038 00000000 		.4byte	0
 9366 003c 00000000 		.4byte	0
 9367 0040 66000000 		.4byte	.LBB67
 9368 0044 8A000000 		.4byte	.LBE67
 9369 0048 90000000 		.4byte	.LBB68
 9370 004c 94000000 		.4byte	.LBE68
 9371 0050 00000000 		.4byte	0
 9372 0054 00000000 		.4byte	0
 9373 0058 4A000000 		.4byte	.LBB73
 9374 005c 50000000 		.4byte	.LBE73
 9375 0060 52000000 		.4byte	.LBB74
 9376 0064 54000000 		.4byte	.LBE74
 9377 0068 00000000 		.4byte	0
 9378 006c 00000000 		.4byte	0
 9379 0070 3C000000 		.4byte	.LBB80
 9380 0074 50000000 		.4byte	.LBE80
 9381 0078 80000000 		.4byte	.LBB83
 9382 007c 86000000 		.4byte	.LBE83
 9383 0080 00000000 		.4byte	0
 9384 0084 00000000 		.4byte	0
 9385 0088 50000000 		.4byte	.LBB81
 9386 008c 66000000 		.4byte	.LBE81
 9387 0090 6A000000 		.4byte	.LBB82
 9388 0094 80000000 		.4byte	.LBE82
 9389 0098 EA000000 		.4byte	.LBB87
 9390 009c F2000000 		.4byte	.LBE87
 9391 00a0 00000000 		.4byte	0
 9392 00a4 00000000 		.4byte	0
 9393 00a8 D4000000 		.4byte	.LBB86
 9394 00ac E6000000 		.4byte	.LBE86
 9395 00b0 F2000000 		.4byte	.LBB88
 9396 00b4 18010000 		.4byte	.LBE88
 9397 00b8 00000000 		.4byte	0
 9398 00bc 00000000 		.4byte	0
 9399 00c0 2E000000 		.4byte	.LBB90
 9400 00c4 52000000 		.4byte	.LBE90
 9401 00c8 88000000 		.4byte	.LBB93
 9402 00cc 90000000 		.4byte	.LBE93
 9403 00d0 00000000 		.4byte	0
 9404 00d4 00000000 		.4byte	0
 9405 00d8 76000000 		.4byte	.LBB92
 9406 00dc 84000000 		.4byte	.LBE92
 9407 00e0 C0000000 		.4byte	.LBB95
 9408 00e4 E8000000 		.4byte	.LBE95
 9409 00e8 00000000 		.4byte	0
 9410 00ec 00000000 		.4byte	0
 9411 00f0 18000000 		.4byte	.LBB98
 9412 00f4 1A000000 		.4byte	.LBE98
 9413 00f8 20000000 		.4byte	.LBB102
 9414 00fc 3A000000 		.4byte	.LBE102
 9415 0100 78000000 		.4byte	.LBB103
 9416 0104 E6000000 		.4byte	.LBE103
 9417 0108 00000000 		.4byte	0
 9418 010c 00000000 		.4byte	0
 9419 0110 00000000 		.4byte	.LFB31
ARM GAS  C:\Users\pearlstl\AppData\Local\Temp\ccJvDP4q.s 			page 183


 9420 0114 2C020000 		.4byte	.LFE31
 9421 0118 00000000 		.4byte	.LFB32
 9422 011c 14010000 		.4byte	.LFE32
 9423 0120 00000000 		.4byte	.LFB33
 9424 0124 00010000 		.4byte	.LFE33
 9425 0128 00000000 		.4byte	.LFB34
 9426 012c 18010000 		.4byte	.LFE34
 9427 0130 00000000 		.4byte	.LFB35
 9428 0134 E8000000 		.4byte	.LFE35
 9429 0138 00000000 		.4byte	.LFB36
 9430 013c 4E000000 		.4byte	.LFE36
 9431 0140 00000000 		.4byte	.LFB37
 9432 0144 14000000 		.4byte	.LFE37
 9433 0148 00000000 		.4byte	.LFB38
 9434 014c 1A000000 		.4byte	.LFE38
 9435 0150 00000000 		.4byte	.LFB39
 9436 0154 1A000000 		.4byte	.LFE39
 9437 0158 00000000 		.4byte	.LFB40
 9438 015c 20000000 		.4byte	.LFE40
 9439 0160 00000000 		.4byte	.LFB41
 9440 0164 04010000 		.4byte	.LFE41
 9441 0168 00000000 		.4byte	.LFB42
 9442 016c 1A000000 		.4byte	.LFE42
 9443 0170 00000000 		.4byte	.LFB43
 9444 0174 8C000000 		.4byte	.LFE43
 9445 0178 00000000 		.4byte	0
 9446 017c 00000000 		.4byte	0
 9447              		.section	.debug_line,"",%progbits
 9448              	.Ldebug_line0:
 9449 0000 4D060000 		.section	.debug_str,"MS",%progbits,1
 9449      02005B03 
 9449      00000201 
 9449      FB0E0D00 
 9449      01010101 
 9450              	.LASF95:
 9451 0000 4C565F49 		.ascii	"LV_IMG_SRC_VARIABLE\000"
 9451      4D475F53 
 9451      52435F56 
 9451      41524941 
 9451      424C4500 
 9452              	.LASF47:
 9453 0014 4C565F4F 		.ascii	"LV_OPA_COVER\000"
 9453      50415F43 
 9453      4F564552 
 9453      00
 9454              	.LASF51:
 9455 0021 66756C6C 		.ascii	"full\000"
 9455      00
 9456              	.LASF45:
 9457 0026 4C565F4F 		.ascii	"LV_OPA_90\000"
 9457      50415F39 
 9457      3000
 9458              	.LASF108:
 9459 0030 4C565F49 		.ascii	"LV_IMG_CF_TRUE_COLOR_ALPHA\000"
 9459      4D475F43 
 9459      465F5452 
 9459      55455F43 
ARM GAS  C:\Users\pearlstl\AppData\Local\Temp\ccJvDP4q.s 			page 184


 9459      4F4C4F52 
 9460              	.LASF206:
 9461 004b 6C765F61 		.ascii	"lv_area_set_height\000"
 9461      7265615F 
 9461      7365745F 
 9461      68656967 
 9461      687400
 9462              	.LASF160:
 9463 005e 4C565F42 		.ascii	"LV_BIDI_DIR_LTR\000"
 9463      4944495F 
 9463      4449525F 
 9463      4C545200 
 9464              	.LASF100:
 9465 006e 616C7761 		.ascii	"always_zero\000"
 9465      79735F7A 
 9465      65726F00 
 9466              	.LASF152:
 9467 007a 696D675F 		.ascii	"img_data\000"
 9467      64617461 
 9467      00
 9468              	.LASF199:
 9469 0083 6C765F69 		.ascii	"lv_img_src_get_type\000"
 9469      6D675F73 
 9469      72635F67 
 9469      65745F74 
 9469      79706500 
 9470              	.LASF112:
 9471 0097 4C565F49 		.ascii	"LV_IMG_CF_INDEXED_4BIT\000"
 9471      4D475F43 
 9471      465F494E 
 9471      44455845 
 9471      445F3442 
 9472              	.LASF36:
 9473 00ae 4C565F4F 		.ascii	"LV_OPA_0\000"
 9473      50415F30 
 9473      00
 9474              	.LASF14:
 9475 00b7 756E7369 		.ascii	"unsigned int\000"
 9475      676E6564 
 9475      20696E74 
 9475      00
 9476              	.LASF26:
 9477 00c4 6F66735F 		.ascii	"ofs_x\000"
 9477      7800
 9478              	.LASF27:
 9479 00ca 6F66735F 		.ascii	"ofs_y\000"
 9479      7900
 9480              	.LASF218:
 9481 00d0 474E5520 		.ascii	"GNU C11 5.4.1 20160609 (release) [ARM/embedded-5-br"
 9481      43313120 
 9481      352E342E 
 9481      31203230 
 9481      31363036 
 9482 0103 616E6368 		.ascii	"anch revision 237715] -mcpu=cortex-m4 -mfloat-abi=s"
 9482      20726576 
 9482      6973696F 
 9482      6E203233 
ARM GAS  C:\Users\pearlstl\AppData\Local\Temp\ccJvDP4q.s 			page 185


 9482      37373135 
 9483 0136 6F667466 		.ascii	"oftfp -mfpu=fpv4-sp-d16 -mthumb -g -O3 -ffunction-s"
 9483      70202D6D 
 9483      6670753D 
 9483      66707634 
 9483      2D73702D 
 9484 0169 65637469 		.ascii	"ections -ffat-lto-objects\000"
 9484      6F6E7320 
 9484      2D666661 
 9484      742D6C74 
 9484      6F2D6F62 
 9485              	.LASF29:
 9486 0183 6765745F 		.ascii	"get_glyph_dsc\000"
 9486      676C7970 
 9486      685F6473 
 9486      6300
 9487              	.LASF86:
 9488 0191 6C765F73 		.ascii	"lv_style_t\000"
 9488      74796C65 
 9488      5F7400
 9489              	.LASF166:
 9490 019c 6465635F 		.ascii	"dec_dsc\000"
 9490      64736300 
 9491              	.LASF205:
 9492 01a4 6C765F64 		.ascii	"lv_draw_get_buf\000"
 9492      7261775F 
 9492      6765745F 
 9492      62756600 
 9493              	.LASF99:
 9494 01b4 6C765F69 		.ascii	"lv_img_src_t\000"
 9494      6D675F73 
 9494      72635F74 
 9494      00
 9495              	.LASF8:
 9496 01c1 5F5F696E 		.ascii	"__int32_t\000"
 9496      7433325F 
 9496      7400
 9497              	.LASF211:
 9498 01cb 6C765F69 		.ascii	"lv_img_cache_open\000"
 9498      6D675F63 
 9498      61636865 
 9498      5F6F7065 
 9498      6E00
 9499              	.LASF213:
 9500 01dd 6C765F64 		.ascii	"lv_draw_label\000"
 9500      7261775F 
 9500      6C616265 
 9500      6C00
 9501              	.LASF154:
 9502 01eb 6572726F 		.ascii	"error_msg\000"
 9502      725F6D73 
 9502      6700
 9503              	.LASF140:
 9504 01f5 6C765F69 		.ascii	"lv_img_decoder_info_f_t\000"
 9504      6D675F64 
 9504      65636F64 
 9504      65725F69 
ARM GAS  C:\Users\pearlstl\AppData\Local\Temp\ccJvDP4q.s 			page 186


 9504      6E666F5F 
 9505              	.LASF156:
 9506 020d 6C765F69 		.ascii	"lv_img_decoder_read_line_f_t\000"
 9506      6D675F64 
 9506      65636F64 
 9506      65725F72 
 9506      6561645F 
 9507              	.LASF162:
 9508 022a 4C565F42 		.ascii	"LV_BIDI_DIR_AUTO\000"
 9508      4944495F 
 9508      4449525F 
 9508      4155544F 
 9508      00
 9509              	.LASF107:
 9510 023b 4C565F49 		.ascii	"LV_IMG_CF_TRUE_COLOR\000"
 9510      4D475F43 
 9510      465F5452 
 9510      55455F43 
 9510      4F4C4F52 
 9511              	.LASF214:
 9512 0250 6C765F6D 		.ascii	"lv_mem_alloc\000"
 9512      656D5F61 
 9512      6C6C6F63 
 9512      00
 9513              	.LASF185:
 9514 025d 63647363 		.ascii	"cdsc\000"
 9514      00
 9515              	.LASF222:
 9516 0262 6C765F73 		.ascii	"lv_style_plain\000"
 9516      74796C65 
 9516      5F706C61 
 9516      696E00
 9517              	.LASF179:
 9518 0271 6C765F69 		.ascii	"lv_img_draw_core\000"
 9518      6D675F64 
 9518      7261775F 
 9518      636F7265 
 9518      00
 9519              	.LASF88:
 9520 0282 4C565F54 		.ascii	"LV_TXT_FLAG_RECOLOR\000"
 9520      58545F46 
 9520      4C41475F 
 9520      5245434F 
 9520      4C4F5200 
 9521              	.LASF67:
 9522 0296 696E6E65 		.ascii	"inner\000"
 9522      7200
 9523              	.LASF189:
 9524 029c 705F636F 		.ascii	"p_color\000"
 9524      6C6F7200 
 9525              	.LASF90:
 9526 02a4 4C565F54 		.ascii	"LV_TXT_FLAG_CENTER\000"
 9526      58545F46 
 9526      4C41475F 
 9526      43454E54 
 9526      455200
 9527              	.LASF163:
ARM GAS  C:\Users\pearlstl\AppData\Local\Temp\ccJvDP4q.s 			page 187


 9528 02b7 4C565F42 		.ascii	"LV_BIDI_DIR_INHERIT\000"
 9528      4944495F 
 9528      4449525F 
 9528      494E4845 
 9528      52495400 
 9529              	.LASF20:
 9530 02cb 75696E74 		.ascii	"uint32_t\000"
 9530      33325F74 
 9530      00
 9531              	.LASF15:
 9532 02d4 696E7438 		.ascii	"int8_t\000"
 9532      5F7400
 9533              	.LASF52:
 9534 02db 6C765F63 		.ascii	"lv_color32_t\000"
 9534      6F6C6F72 
 9534      33325F74 
 9534      00
 9535              	.LASF198:
 9536 02e8 6C765F69 		.ascii	"lv_img_buf_set_palette\000"
 9536      6D675F62 
 9536      75665F73 
 9536      65745F70 
 9536      616C6574 
 9537              	.LASF74:
 9538 02ff 73656C5F 		.ascii	"sel_color\000"
 9538      636F6C6F 
 9538      7200
 9539              	.LASF165:
 9540 0309 4C565F42 		.ascii	"LV_BIDI_DIR_WEAK\000"
 9540      4944495F 
 9540      4449525F 
 9540      5745414B 
 9540      00
 9541              	.LASF177:
 9542 031a 69735F63 		.ascii	"is_chroma_keyed\000"
 9542      68726F6D 
 9542      615F6B65 
 9542      79656400 
 9543              	.LASF98:
 9544 032a 4C565F49 		.ascii	"LV_IMG_SRC_UNKNOWN\000"
 9544      4D475F53 
 9544      52435F55 
 9544      4E4B4E4F 
 9544      574E00
 9545              	.LASF17:
 9546 033d 696E7431 		.ascii	"int16_t\000"
 9546      365F7400 
 9547              	.LASF210:
 9548 0345 6C765F61 		.ascii	"lv_area_intersect\000"
 9548      7265615F 
 9548      696E7465 
 9548      72736563 
 9548      7400
 9549              	.LASF13:
 9550 0357 6C6F6E67 		.ascii	"long long unsigned int\000"
 9550      206C6F6E 
 9550      6720756E 
ARM GAS  C:\Users\pearlstl\AppData\Local\Temp\ccJvDP4q.s 			page 188


 9550      7369676E 
 9550      65642069 
 9551              	.LASF62:
 9552 036e 70617274 		.ascii	"part\000"
 9552      00
 9553              	.LASF195:
 9554 0373 6C765F64 		.ascii	"lv_draw_img\000"
 9554      7261775F 
 9554      696D6700 
 9555              	.LASF35:
 9556 037f 4C565F4F 		.ascii	"LV_OPA_TRANSP\000"
 9556      50415F54 
 9556      52414E53 
 9556      5000
 9557              	.LASF6:
 9558 038d 5F5F7569 		.ascii	"__uint16_t\000"
 9558      6E743136 
 9558      5F7400
 9559              	.LASF146:
 9560 0398 636C6F73 		.ascii	"close_cb\000"
 9560      655F6362 
 9560      00
 9561              	.LASF190:
 9562 03a1 6275665F 		.ascii	"buf_u8\000"
 9562      753800
 9563              	.LASF71:
 9564 03a8 626F7264 		.ascii	"border\000"
 9564      657200
 9565              	.LASF200:
 9566 03af 696D675F 		.ascii	"img_src_type\000"
 9566      7372635F 
 9566      74797065 
 9566      00
 9567              	.LASF153:
 9568 03bc 74696D65 		.ascii	"time_to_open\000"
 9568      5F746F5F 
 9568      6F70656E 
 9568      00
 9569              	.LASF91:
 9570 03c9 4C565F54 		.ascii	"LV_TXT_FLAG_RIGHT\000"
 9570      58545F46 
 9570      4C41475F 
 9570      52494748 
 9570      5400
 9571              	.LASF60:
 9572 03db 636F6C6F 		.ascii	"color\000"
 9572      7200
 9573              	.LASF80:
 9574 03e1 726F756E 		.ascii	"rounded\000"
 9574      64656400 
 9575              	.LASF167:
 9576 03e9 6C696665 		.ascii	"life\000"
 9576      00
 9577              	.LASF110:
 9578 03ee 4C565F49 		.ascii	"LV_IMG_CF_INDEXED_1BIT\000"
 9578      4D475F43 
 9578      465F494E 
ARM GAS  C:\Users\pearlstl\AppData\Local\Temp\ccJvDP4q.s 			page 189


 9578      44455845 
 9578      445F3142 
 9579              	.LASF149:
 9580 0405 6465636F 		.ascii	"decoder\000"
 9580      64657200 
 9581              	.LASF137:
 9582 040d 64617461 		.ascii	"data_size\000"
 9582      5F73697A 
 9582      6500
 9583              	.LASF105:
 9584 0417 4C565F49 		.ascii	"LV_IMG_CF_RAW_ALPHA\000"
 9584      4D475F43 
 9584      465F5241 
 9584      575F414C 
 9584      50484100 
 9585              	.LASF61:
 9586 042b 77696474 		.ascii	"width\000"
 9586      6800
 9587              	.LASF33:
 9588 0431 5F426F6F 		.ascii	"_Bool\000"
 9588      6C00
 9589              	.LASF97:
 9590 0437 4C565F49 		.ascii	"LV_IMG_SRC_SYMBOL\000"
 9590      4D475F53 
 9590      52435F53 
 9590      594D424F 
 9590      4C00
 9591              	.LASF113:
 9592 0449 4C565F49 		.ascii	"LV_IMG_CF_INDEXED_8BIT\000"
 9592      4D475F43 
 9592      465F494E 
 9592      44455845 
 9592      445F3842 
 9593              	.LASF141:
 9594 0460 5F6C765F 		.ascii	"_lv_font_struct\000"
 9594      666F6E74 
 9594      5F737472 
 9594      75637400 
 9595              	.LASF77:
 9596 0470 6C696E65 		.ascii	"line_space\000"
 9596      5F737061 
 9596      636500
 9597              	.LASF31:
 9598 047b 6C696E65 		.ascii	"line_height\000"
 9598      5F686569 
 9598      67687400 
 9599              	.LASF143:
 9600 0487 696E666F 		.ascii	"info_cb\000"
 9600      5F636200 
 9601              	.LASF209:
 9602 048f 6C765F69 		.ascii	"lv_img_decoder_close\000"
 9602      6D675F64 
 9602      65636F64 
 9602      65725F63 
 9602      6C6F7365 
 9603              	.LASF161:
 9604 04a4 4C565F42 		.ascii	"LV_BIDI_DIR_RTL\000"
ARM GAS  C:\Users\pearlstl\AppData\Local\Temp\ccJvDP4q.s 			page 190


 9604      4944495F 
 9604      4449525F 
 9604      52544C00 
 9605              	.LASF56:
 9606 04b4 63686172 		.ascii	"char\000"
 9606      00
 9607              	.LASF94:
 9608 04b9 6C765F72 		.ascii	"lv_res_t\000"
 9608      65735F74 
 9608      00
 9609              	.LASF135:
 9610 04c2 6C765F69 		.ascii	"lv_img_cf_t\000"
 9610      6D675F63 
 9610      665F7400 
 9611              	.LASF64:
 9612 04ce 626F7474 		.ascii	"bottom\000"
 9612      6F6D00
 9613              	.LASF138:
 9614 04d5 64617461 		.ascii	"data\000"
 9614      00
 9615              	.LASF28:
 9616 04da 6C765F66 		.ascii	"lv_font_glyph_dsc_t\000"
 9616      6F6E745F 
 9616      676C7970 
 9616      685F6473 
 9616      635F7400 
 9617              	.LASF191:
 9618 04ee 6C765F69 		.ascii	"lv_img_buf_get_px_color\000"
 9618      6D675F62 
 9618      75665F67 
 9618      65745F70 
 9618      785F636F 
 9619              	.LASF204:
 9620 0506 6C765F69 		.ascii	"lv_img_buf_free\000"
 9620      6D675F62 
 9620      75665F66 
 9620      72656500 
 9621              	.LASF16:
 9622 0516 75696E74 		.ascii	"uint8_t\000"
 9622      385F7400 
 9623              	.LASF59:
 9624 051e 6C765F73 		.ascii	"lv_shadow_type_t\000"
 9624      6861646F 
 9624      775F7479 
 9624      70655F74 
 9624      00
 9625              	.LASF66:
 9626 052f 72696768 		.ascii	"right\000"
 9626      7400
 9627              	.LASF155:
 9628 0535 75736572 		.ascii	"user_data\000"
 9628      5F646174 
 9628      6100
 9629              	.LASF127:
 9630 053f 4C565F49 		.ascii	"LV_IMG_CF_USER_ENCODED_0\000"
 9630      4D475F43 
 9630      465F5553 
ARM GAS  C:\Users\pearlstl\AppData\Local\Temp\ccJvDP4q.s 			page 191


 9630      45525F45 
 9630      4E434F44 
 9631              	.LASF128:
 9632 0558 4C565F49 		.ascii	"LV_IMG_CF_USER_ENCODED_1\000"
 9632      4D475F43 
 9632      465F5553 
 9632      45525F45 
 9632      4E434F44 
 9633              	.LASF37:
 9634 0571 4C565F4F 		.ascii	"LV_OPA_10\000"
 9634      50415F31 
 9634      3000
 9635              	.LASF130:
 9636 057b 4C565F49 		.ascii	"LV_IMG_CF_USER_ENCODED_3\000"
 9636      4D475F43 
 9636      465F5553 
 9636      45525F45 
 9636      4E434F44 
 9637              	.LASF12:
 9638 0594 6C6F6E67 		.ascii	"long long int\000"
 9638      206C6F6E 
 9638      6720696E 
 9638      7400
 9639              	.LASF81:
 9640 05a2 676C6173 		.ascii	"glass\000"
 9640      7300
 9641              	.LASF133:
 9642 05a8 4C565F49 		.ascii	"LV_IMG_CF_USER_ENCODED_6\000"
 9642      4D475F43 
 9642      465F5553 
 9642      45525F45 
 9642      4E434F44 
 9643              	.LASF134:
 9644 05c1 4C565F49 		.ascii	"LV_IMG_CF_USER_ENCODED_7\000"
 9644      4D475F43 
 9644      465F5553 
 9644      45525F45 
 9644      4E434F44 
 9645              	.LASF83:
 9646 05da 74657874 		.ascii	"text\000"
 9646      00
 9647              	.LASF115:
 9648 05df 4C565F49 		.ascii	"LV_IMG_CF_ALPHA_2BIT\000"
 9648      4D475F43 
 9648      465F414C 
 9648      5048415F 
 9648      32424954 
 9649              	.LASF73:
 9650 05f4 70616464 		.ascii	"padding\000"
 9650      696E6700 
 9651              	.LASF147:
 9652 05fc 6C765F69 		.ascii	"lv_img_decoder_open_f_t\000"
 9652      6D675F64 
 9652      65636F64 
 9652      65725F6F 
 9652      70656E5F 
 9653              	.LASF208:
ARM GAS  C:\Users\pearlstl\AppData\Local\Temp\ccJvDP4q.s 			page 192


 9654 0614 6C765F69 		.ascii	"lv_img_decoder_read_line\000"
 9654      6D675F64 
 9654      65636F64 
 9654      65725F72 
 9654      6561645F 
 9655              	.LASF201:
 9656 062d 75385F70 		.ascii	"u8_p\000"
 9656      00
 9657              	.LASF93:
 9658 0632 4C565F52 		.ascii	"LV_RES_OK\000"
 9658      45535F4F 
 9658      4B00
 9659              	.LASF192:
 9660 063c 6C765F69 		.ascii	"lv_img_buf_get_px_alpha\000"
 9660      6D675F62 
 9660      75665F67 
 9660      65745F70 
 9660      785F616C 
 9661              	.LASF4:
 9662 0654 5F5F696E 		.ascii	"__int16_t\000"
 9662      7431365F 
 9662      7400
 9663              	.LASF174:
 9664 065e 70785F73 		.ascii	"px_size\000"
 9664      697A6500 
 9665              	.LASF216:
 9666 0666 6D656D73 		.ascii	"memset\000"
 9666      657400
 9667              	.LASF38:
 9668 066d 4C565F4F 		.ascii	"LV_OPA_20\000"
 9668      50415F32 
 9668      3000
 9669              	.LASF84:
 9670 0677 696D6167 		.ascii	"image\000"
 9670      6500
 9671              	.LASF181:
 9672 067d 6D61736B 		.ascii	"mask\000"
 9672      00
 9673              	.LASF136:
 9674 0682 68656164 		.ascii	"header\000"
 9674      657200
 9675              	.LASF142:
 9676 0689 5F6C765F 		.ascii	"_lv_img_decoder\000"
 9676      696D675F 
 9676      6465636F 
 9676      64657200 
 9677              	.LASF175:
 9678 0699 6861735F 		.ascii	"has_alpha\000"
 9678      616C7068 
 9678      6100
 9679              	.LASF79:
 9680 06a3 73756270 		.ascii	"subpx\000"
 9680      7800
 9681              	.LASF53:
 9682 06a9 6C765F63 		.ascii	"lv_color_t\000"
 9682      6F6C6F72 
 9682      5F7400
ARM GAS  C:\Users\pearlstl\AppData\Local\Temp\ccJvDP4q.s 			page 193


 9683              	.LASF196:
 9684 06b4 6C765F69 		.ascii	"lv_img_buf_set_px_color\000"
 9684      6D675F62 
 9684      75665F73 
 9684      65745F70 
 9684      785F636F 
 9685              	.LASF0:
 9686 06cc 5F5F696E 		.ascii	"__int8_t\000"
 9686      74385F74 
 9686      00
 9687              	.LASF171:
 9688 06d5 61726561 		.ascii	"area_p\000"
 9688      5F7000
 9689              	.LASF49:
 9690 06dc 67726565 		.ascii	"green\000"
 9690      6E00
 9691              	.LASF39:
 9692 06e2 4C565F4F 		.ascii	"LV_OPA_30\000"
 9692      50415F33 
 9692      3000
 9693              	.LASF22:
 9694 06ec 6C6F6E67 		.ascii	"long double\000"
 9694      20646F75 
 9694      626C6500 
 9695              	.LASF18:
 9696 06f8 75696E74 		.ascii	"uint16_t\000"
 9696      31365F74 
 9696      00
 9697              	.LASF106:
 9698 0701 4C565F49 		.ascii	"LV_IMG_CF_RAW_CHROMA_KEYED\000"
 9698      4D475F43 
 9698      465F5241 
 9698      575F4348 
 9698      524F4D41 
 9699              	.LASF69:
 9700 071c 67726164 		.ascii	"grad_color\000"
 9700      5F636F6C 
 9700      6F7200
 9701              	.LASF116:
 9702 0727 4C565F49 		.ascii	"LV_IMG_CF_ALPHA_4BIT\000"
 9702      4D475F43 
 9702      465F414C 
 9702      5048415F 
 9702      34424954 
 9703              	.LASF212:
 9704 073c 6C765F64 		.ascii	"lv_draw_rect\000"
 9704      7261775F 
 9704      72656374 
 9704      00
 9705              	.LASF55:
 9706 0749 73697A65 		.ascii	"sizetype\000"
 9706      74797065 
 9706      00
 9707              	.LASF34:
 9708 0752 6C765F66 		.ascii	"lv_font_t\000"
 9708      6F6E745F 
 9708      7400
ARM GAS  C:\Users\pearlstl\AppData\Local\Temp\ccJvDP4q.s 			page 194


 9709              	.LASF76:
 9710 075c 6C657474 		.ascii	"letter_space\000"
 9710      65725F73 
 9710      70616365 
 9710      00
 9711              	.LASF68:
 9712 0769 6D61696E 		.ascii	"main_color\000"
 9712      5F636F6C 
 9712      6F7200
 9713              	.LASF5:
 9714 0774 73686F72 		.ascii	"short int\000"
 9714      7420696E 
 9714      7400
 9715              	.LASF180:
 9716 077e 636F6F72 		.ascii	"coords\000"
 9716      647300
 9717              	.LASF54:
 9718 0785 6C765F6F 		.ascii	"lv_opa_t\000"
 9718      70615F74 
 9718      00
 9719              	.LASF186:
 9720 078e 6368726F 		.ascii	"chroma_keyed\000"
 9720      6D615F6B 
 9720      65796564 
 9720      00
 9721              	.LASF9:
 9722 079b 6C6F6E67 		.ascii	"long int\000"
 9722      20696E74 
 9722      00
 9723              	.LASF40:
 9724 07a4 4C565F4F 		.ascii	"LV_OPA_40\000"
 9724      50415F34 
 9724      3000
 9725              	.LASF194:
 9726 07ae 6F70615F 		.ascii	"opa_table\000"
 9726      7461626C 
 9726      6500
 9727              	.LASF184:
 9728 07b8 756E696F 		.ascii	"union_ok\000"
 9728      6E5F6F6B 
 9728      00
 9729              	.LASF144:
 9730 07c1 6F70656E 		.ascii	"open_cb\000"
 9730      5F636200 
 9731              	.LASF48:
 9732 07c9 626C7565 		.ascii	"blue\000"
 9732      00
 9733              	.LASF21:
 9734 07ce 6C765F63 		.ascii	"lv_coord_t\000"
 9734      6F6F7264 
 9734      5F7400
 9735              	.LASF65:
 9736 07d9 6C656674 		.ascii	"left\000"
 9736      00
 9737              	.LASF46:
 9738 07de 4C565F4F 		.ascii	"LV_OPA_100\000"
 9738      50415F31 
ARM GAS  C:\Users\pearlstl\AppData\Local\Temp\ccJvDP4q.s 			page 195


 9738      303000
 9739              	.LASF1:
 9740 07e9 5F5F7569 		.ascii	"__uint8_t\000"
 9740      6E74385F 
 9740      7400
 9741              	.LASF41:
 9742 07f3 4C565F4F 		.ascii	"LV_OPA_50\000"
 9742      50415F35 
 9742      3000
 9743              	.LASF104:
 9744 07fd 4C565F49 		.ascii	"LV_IMG_CF_RAW\000"
 9744      4D475F43 
 9744      465F5241 
 9744      5700
 9745              	.LASF158:
 9746 080b 6C765F69 		.ascii	"lv_img_decoder_t\000"
 9746      6D675F64 
 9746      65636F64 
 9746      65725F74 
 9746      00
 9747              	.LASF193:
 9748 081c 70785F6F 		.ascii	"px_opa\000"
 9748      706100
 9749              	.LASF25:
 9750 0823 626F785F 		.ascii	"box_h\000"
 9750      6800
 9751              	.LASF187:
 9752 0829 616C7068 		.ascii	"alpha_byte\000"
 9752      615F6279 
 9752      746500
 9753              	.LASF75:
 9754 0834 666F6E74 		.ascii	"font\000"
 9754      00
 9755              	.LASF188:
 9756 0839 72656164 		.ascii	"read_res\000"
 9756      5F726573 
 9756      00
 9757              	.LASF24:
 9758 0842 626F785F 		.ascii	"box_w\000"
 9758      7700
 9759              	.LASF11:
 9760 0848 6C6F6E67 		.ascii	"long unsigned int\000"
 9760      20756E73 
 9760      69676E65 
 9760      6420696E 
 9760      7400
 9761              	.LASF170:
 9762 085a 6C765F63 		.ascii	"lv_color_to32\000"
 9762      6F6C6F72 
 9762      5F746F33 
 9762      3200
 9763              	.LASF78:
 9764 0868 696E7465 		.ascii	"intense\000"
 9764      6E736500 
 9765              	.LASF118:
 9766 0870 4C565F49 		.ascii	"LV_IMG_CF_RESERVED_15\000"
 9766      4D475F43 
ARM GAS  C:\Users\pearlstl\AppData\Local\Temp\ccJvDP4q.s 			page 196


 9766      465F5245 
 9766      53455256 
 9766      45445F31 
 9767              	.LASF119:
 9768 0886 4C565F49 		.ascii	"LV_IMG_CF_RESERVED_16\000"
 9768      4D475F43 
 9768      465F5245 
 9768      53455256 
 9768      45445F31 
 9769              	.LASF120:
 9770 089c 4C565F49 		.ascii	"LV_IMG_CF_RESERVED_17\000"
 9770      4D475F43 
 9770      465F5245 
 9770      53455256 
 9770      45445F31 
 9771              	.LASF121:
 9772 08b2 4C565F49 		.ascii	"LV_IMG_CF_RESERVED_18\000"
 9772      4D475F43 
 9772      465F5245 
 9772      53455256 
 9772      45445F31 
 9773              	.LASF122:
 9774 08c8 4C565F49 		.ascii	"LV_IMG_CF_RESERVED_19\000"
 9774      4D475F43 
 9774      465F5245 
 9774      53455256 
 9774      45445F31 
 9775              	.LASF50:
 9776 08de 616C7068 		.ascii	"alpha\000"
 9776      6100
 9777              	.LASF19:
 9778 08e4 696E7433 		.ascii	"int32_t\000"
 9778      325F7400 
 9779              	.LASF32:
 9780 08ec 62617365 		.ascii	"base_line\000"
 9780      5F6C696E 
 9780      6500
 9781              	.LASF70:
 9782 08f6 72616469 		.ascii	"radius\000"
 9782      757300
 9783              	.LASF182:
 9784 08fd 6F70615F 		.ascii	"opa_scale\000"
 9784      7363616C 
 9784      6500
 9785              	.LASF82:
 9786 0907 626F6479 		.ascii	"body\000"
 9786      00
 9787              	.LASF42:
 9788 090c 4C565F4F 		.ascii	"LV_OPA_60\000"
 9788      50415F36 
 9788      3000
 9789              	.LASF63:
 9790 0916 74797065 		.ascii	"type\000"
 9790      00
 9791              	.LASF3:
 9792 091b 756E7369 		.ascii	"unsigned char\000"
 9792      676E6564 
ARM GAS  C:\Users\pearlstl\AppData\Local\Temp\ccJvDP4q.s 			page 197


 9792      20636861 
 9792      7200
 9793              	.LASF10:
 9794 0929 5F5F7569 		.ascii	"__uint32_t\000"
 9794      6E743332 
 9794      5F7400
 9795              	.LASF202:
 9796 0934 6C765F69 		.ascii	"lv_img_buf_get_img_size\000"
 9796      6D675F62 
 9796      75665F67 
 9796      65745F69 
 9796      6D675F73 
 9797              	.LASF85:
 9798 094c 6C696E65 		.ascii	"line\000"
 9798      00
 9799              	.LASF168:
 9800 0951 6C765F69 		.ascii	"lv_img_cache_entry_t\000"
 9800      6D675F63 
 9800      61636865 
 9800      5F656E74 
 9800      72795F74 
 9801              	.LASF159:
 9802 0966 6C765F69 		.ascii	"lv_img_decoder_dsc_t\000"
 9802      6D675F64 
 9802      65636F64 
 9802      65725F64 
 9802      73635F74 
 9803              	.LASF30:
 9804 097b 6765745F 		.ascii	"get_glyph_bitmap\000"
 9804      676C7970 
 9804      685F6269 
 9804      746D6170 
 9804      00
 9805              	.LASF172:
 9806 098c 6C765F69 		.ascii	"lv_img_color_format_get_px_size\000"
 9806      6D675F63 
 9806      6F6C6F72 
 9806      5F666F72 
 9806      6D61745F 
 9807              	.LASF123:
 9808 09ac 4C565F49 		.ascii	"LV_IMG_CF_RESERVED_20\000"
 9808      4D475F43 
 9808      465F5245 
 9808      53455256 
 9808      45445F32 
 9809              	.LASF124:
 9810 09c2 4C565F49 		.ascii	"LV_IMG_CF_RESERVED_21\000"
 9810      4D475F43 
 9810      465F5245 
 9810      53455256 
 9810      45445F32 
 9811              	.LASF125:
 9812 09d8 4C565F49 		.ascii	"LV_IMG_CF_RESERVED_22\000"
 9812      4D475F43 
 9812      465F5245 
 9812      53455256 
 9812      45445F32 
ARM GAS  C:\Users\pearlstl\AppData\Local\Temp\ccJvDP4q.s 			page 198


 9813              	.LASF126:
 9814 09ee 4C565F49 		.ascii	"LV_IMG_CF_RESERVED_23\000"
 9814      4D475F43 
 9814      465F5245 
 9814      53455256 
 9814      45445F32 
 9815              	.LASF203:
 9816 0a04 6C765F69 		.ascii	"lv_img_buf_alloc\000"
 9816      6D675F62 
 9816      75665F61 
 9816      6C6C6F63 
 9816      00
 9817              	.LASF103:
 9818 0a15 4C565F49 		.ascii	"LV_IMG_CF_UNKNOWN\000"
 9818      4D475F43 
 9818      465F554E 
 9818      4B4E4F57 
 9818      4E00
 9819              	.LASF150:
 9820 0a27 7374796C 		.ascii	"style\000"
 9820      6500
 9821              	.LASF145:
 9822 0a2d 72656164 		.ascii	"read_line_cb\000"
 9822      5F6C696E 
 9822      655F6362 
 9822      00
 9823              	.LASF183:
 9824 0a3a 6D61736B 		.ascii	"mask_com\000"
 9824      5F636F6D 
 9824      00
 9825              	.LASF151:
 9826 0a43 7372635F 		.ascii	"src_type\000"
 9826      74797065 
 9826      00
 9827              	.LASF43:
 9828 0a4c 4C565F4F 		.ascii	"LV_OPA_70\000"
 9828      50415F37 
 9828      3000
 9829              	.LASF219:
 9830 0a56 2E2E5C2E 		.ascii	"..\\..\\..\\lvgl\\version_6.1.2\\lvgl\\src\\lv_draw"
 9830      2E5C2E2E 
 9830      5C6C7667 
 9830      6C5C7665 
 9830      7273696F 
 9831 0a82 5C6C765F 		.ascii	"\\lv_draw_img.c\000"
 9831      64726177 
 9831      5F696D67 
 9831      2E6300
 9832              	.LASF111:
 9833 0a91 4C565F49 		.ascii	"LV_IMG_CF_INDEXED_2BIT\000"
 9833      4D475F43 
 9833      465F494E 
 9833      44455845 
 9833      445F3242 
 9834              	.LASF148:
 9835 0aa8 5F6C765F 		.ascii	"_lv_img_decoder_dsc\000"
 9835      696D675F 
ARM GAS  C:\Users\pearlstl\AppData\Local\Temp\ccJvDP4q.s 			page 199


 9835      6465636F 
 9835      6465725F 
 9835      64736300 
 9836              	.LASF139:
 9837 0abc 6C765F69 		.ascii	"lv_img_dsc_t\000"
 9837      6D675F64 
 9837      73635F74 
 9837      00
 9838              	.LASF72:
 9839 0ac9 73686164 		.ascii	"shadow\000"
 9839      6F7700
 9840              	.LASF57:
 9841 0ad0 6C765F61 		.ascii	"lv_area_t\000"
 9841      7265615F 
 9841      7400
 9842              	.LASF217:
 9843 0ada 6C765F6D 		.ascii	"lv_mem_free\000"
 9843      656D5F66 
 9843      72656500 
 9844              	.LASF2:
 9845 0ae6 7369676E 		.ascii	"signed char\000"
 9845      65642063 
 9845      68617200 
 9846              	.LASF221:
 9847 0af2 6C765F61 		.ascii	"lv_area_copy\000"
 9847      7265615F 
 9847      636F7079 
 9847      00
 9848              	.LASF7:
 9849 0aff 73686F72 		.ascii	"short unsigned int\000"
 9849      7420756E 
 9849      7369676E 
 9849      65642069 
 9849      6E7400
 9850              	.LASF215:
 9851 0b12 6D656D63 		.ascii	"memcpy\000"
 9851      707900
 9852              	.LASF114:
 9853 0b19 4C565F49 		.ascii	"LV_IMG_CF_ALPHA_1BIT\000"
 9853      4D475F43 
 9853      465F414C 
 9853      5048415F 
 9853      31424954 
 9854              	.LASF157:
 9855 0b2e 6C765F69 		.ascii	"lv_img_decoder_close_f_t\000"
 9855      6D675F64 
 9855      65636F64 
 9855      65725F63 
 9855      6C6F7365 
 9856              	.LASF176:
 9857 0b47 6C765F69 		.ascii	"lv_img_color_format_is_chroma_keyed\000"
 9857      6D675F63 
 9857      6F6C6F72 
 9857      5F666F72 
 9857      6D61745F 
 9858              	.LASF87:
 9859 0b6b 4C565F54 		.ascii	"LV_TXT_FLAG_NONE\000"
ARM GAS  C:\Users\pearlstl\AppData\Local\Temp\ccJvDP4q.s 			page 200


 9859      58545F46 
 9859      4C41475F 
 9859      4E4F4E45 
 9859      00
 9860              	.LASF89:
 9861 0b7c 4C565F54 		.ascii	"LV_TXT_FLAG_EXPAND\000"
 9861      58545F46 
 9861      4C41475F 
 9861      45585041 
 9861      4E4400
 9862              	.LASF164:
 9863 0b8f 4C565F42 		.ascii	"LV_BIDI_DIR_NEUTRAL\000"
 9863      4944495F 
 9863      4449525F 
 9863      4E455554 
 9863      52414C00 
 9864              	.LASF101:
 9865 0ba3 72657365 		.ascii	"reserved\000"
 9865      72766564 
 9865      00
 9866              	.LASF173:
 9867 0bac 6C765F69 		.ascii	"lv_img_color_format_has_alpha\000"
 9867      6D675F63 
 9867      6F6C6F72 
 9867      5F666F72 
 9867      6D61745F 
 9868              	.LASF44:
 9869 0bca 4C565F4F 		.ascii	"LV_OPA_80\000"
 9869      50415F38 
 9869      3000
 9870              	.LASF117:
 9871 0bd4 4C565F49 		.ascii	"LV_IMG_CF_ALPHA_8BIT\000"
 9871      4D475F43 
 9871      465F414C 
 9871      5048415F 
 9871      38424954 
 9872              	.LASF220:
 9873 0be9 433A5C55 		.ascii	"C:\\Users\\pearlstl\\Documents\\_Research\\projects"
 9873      73657273 
 9873      5C706561 
 9873      726C7374 
 9873      6C5C446F 
 9874 0c17 5C74636F 		.ascii	"\\tcom_engineering\\embed_sw\\tcom_app\\tcom_app_ps"
 9874      6D5F656E 
 9874      67696E65 
 9874      6572696E 
 9874      675C656D 
 9875 0c46 6F63365F 		.ascii	"oc6_lvgl6\\tcom_displ_test_psoc6.cydsn\000"
 9875      6C76676C 
 9875      365C7463 
 9875      6F6D5F64 
 9875      6973706C 
 9876              	.LASF96:
 9877 0c6c 4C565F49 		.ascii	"LV_IMG_SRC_FILE\000"
 9877      4D475F53 
 9877      52435F46 
 9877      494C4500 
ARM GAS  C:\Users\pearlstl\AppData\Local\Temp\ccJvDP4q.s 			page 201


 9878              	.LASF58:
 9879 0c7c 6C765F62 		.ascii	"lv_border_part_t\000"
 9879      6F726465 
 9879      725F7061 
 9879      72745F74 
 9879      00
 9880              	.LASF197:
 9881 0c8d 6C765F69 		.ascii	"lv_img_buf_set_px_alpha\000"
 9881      6D675F62 
 9881      75665F73 
 9881      65745F70 
 9881      785F616C 
 9882              	.LASF169:
 9883 0ca5 6C765F61 		.ascii	"lv_area_get_width\000"
 9883      7265615F 
 9883      6765745F 
 9883      77696474 
 9883      6800
 9884              	.LASF109:
 9885 0cb7 4C565F49 		.ascii	"LV_IMG_CF_TRUE_COLOR_CHROMA_KEYED\000"
 9885      4D475F43 
 9885      465F5452 
 9885      55455F43 
 9885      4F4C4F52 
 9886              	.LASF92:
 9887 0cd9 4C565F52 		.ascii	"LV_RES_INV\000"
 9887      45535F49 
 9887      4E5600
 9888              	.LASF178:
 9889 0ce4 64657374 		.ascii	"dest\000"
 9889      00
 9890              	.LASF207:
 9891 0ce9 6C765F64 		.ascii	"lv_draw_map\000"
 9891      7261775F 
 9891      6D617000 
 9892              	.LASF129:
 9893 0cf5 4C565F49 		.ascii	"LV_IMG_CF_USER_ENCODED_2\000"
 9893      4D475F43 
 9893      465F5553 
 9893      45525F45 
 9893      4E434F44 
 9894              	.LASF102:
 9895 0d0e 6C765F69 		.ascii	"lv_img_header_t\000"
 9895      6D675F68 
 9895      65616465 
 9895      725F7400 
 9896              	.LASF23:
 9897 0d1e 6164765F 		.ascii	"adv_w\000"
 9897      7700
 9898              	.LASF131:
 9899 0d24 4C565F49 		.ascii	"LV_IMG_CF_USER_ENCODED_4\000"
 9899      4D475F43 
 9899      465F5553 
 9899      45525F45 
 9899      4E434F44 
 9900              	.LASF132:
 9901 0d3d 4C565F49 		.ascii	"LV_IMG_CF_USER_ENCODED_5\000"
ARM GAS  C:\Users\pearlstl\AppData\Local\Temp\ccJvDP4q.s 			page 202


 9901      4D475F43 
 9901      465F5553 
 9901      45525F45 
 9901      4E434F44 
 9902              		.ident	"GCC: (GNU Tools for ARM Embedded Processors) 5.4.1 20160609 (release) [ARM/embedded-5-bran
