ARM GAS  C:\Users\pearlstl\AppData\Local\Temp\ccJvDP4q.s 			page 1


   1              		.syntax unified
   2              		.cpu cortex-m4
   3              		.eabi_attribute 27, 1
   4              		.fpu fpv4-sp-d16
   5              		.eabi_attribute 20, 1
   6              		.eabi_attribute 21, 1
   7              		.eabi_attribute 23, 3
   8              		.eabi_attribute 24, 1
   9              		.eabi_attribute 25, 1
  10              		.eabi_attribute 26, 1
  11              		.eabi_attribute 30, 2
  12              		.eabi_attribute 34, 1
  13              		.eabi_attribute 18, 4
  14              		.thumb
  15              		.syntax unified
  16              		.file	"lv_draw_img.c"
  17              		.text
  18              	.Ltext0:
  19              		.cfi_sections	.debug_frame
  20              		.section	.text.lv_draw_img,"ax",%progbits
  21              		.align	2
  22              		.global	lv_draw_img
  23              		.thumb
  24              		.thumb_func
  25              		.type	lv_draw_img, %function
  26              	lv_draw_img:
  27              	.LFB31:
  28              		.file 1 "..\\..\\..\\lvgl\\version_6.1.2\\lvgl\\src\\lv_draw\\lv_draw_img.c"
   1:..\..\..\lvgl\version_6.1.2\lvgl\src\lv_draw/lv_draw_img.c **** /**
   2:..\..\..\lvgl\version_6.1.2\lvgl\src\lv_draw/lv_draw_img.c ****  * @file lv_draw_img.c
   3:..\..\..\lvgl\version_6.1.2\lvgl\src\lv_draw/lv_draw_img.c ****  *
   4:..\..\..\lvgl\version_6.1.2\lvgl\src\lv_draw/lv_draw_img.c ****  */
   5:..\..\..\lvgl\version_6.1.2\lvgl\src\lv_draw/lv_draw_img.c **** 
   6:..\..\..\lvgl\version_6.1.2\lvgl\src\lv_draw/lv_draw_img.c **** /*********************
   7:..\..\..\lvgl\version_6.1.2\lvgl\src\lv_draw/lv_draw_img.c ****  *      INCLUDES
   8:..\..\..\lvgl\version_6.1.2\lvgl\src\lv_draw/lv_draw_img.c ****  *********************/
   9:..\..\..\lvgl\version_6.1.2\lvgl\src\lv_draw/lv_draw_img.c **** #include "lv_draw_img.h"
  10:..\..\..\lvgl\version_6.1.2\lvgl\src\lv_draw/lv_draw_img.c **** #include "lv_img_cache.h"
  11:..\..\..\lvgl\version_6.1.2\lvgl\src\lv_draw/lv_draw_img.c **** #include "../lv_misc/lv_log.h"
  12:..\..\..\lvgl\version_6.1.2\lvgl\src\lv_draw/lv_draw_img.c **** #include "../lv_misc/lv_mem.h"
  13:..\..\..\lvgl\version_6.1.2\lvgl\src\lv_draw/lv_draw_img.c **** 
  14:..\..\..\lvgl\version_6.1.2\lvgl\src\lv_draw/lv_draw_img.c **** /*********************
  15:..\..\..\lvgl\version_6.1.2\lvgl\src\lv_draw/lv_draw_img.c ****  *      DEFINES
  16:..\..\..\lvgl\version_6.1.2\lvgl\src\lv_draw/lv_draw_img.c ****  *********************/
  17:..\..\..\lvgl\version_6.1.2\lvgl\src\lv_draw/lv_draw_img.c **** 
  18:..\..\..\lvgl\version_6.1.2\lvgl\src\lv_draw/lv_draw_img.c **** /**********************
  19:..\..\..\lvgl\version_6.1.2\lvgl\src\lv_draw/lv_draw_img.c ****  *      TYPEDEFS
  20:..\..\..\lvgl\version_6.1.2\lvgl\src\lv_draw/lv_draw_img.c ****  **********************/
  21:..\..\..\lvgl\version_6.1.2\lvgl\src\lv_draw/lv_draw_img.c **** 
  22:..\..\..\lvgl\version_6.1.2\lvgl\src\lv_draw/lv_draw_img.c **** /**********************
  23:..\..\..\lvgl\version_6.1.2\lvgl\src\lv_draw/lv_draw_img.c ****  *  STATIC PROTOTYPES
  24:..\..\..\lvgl\version_6.1.2\lvgl\src\lv_draw/lv_draw_img.c ****  **********************/
  25:..\..\..\lvgl\version_6.1.2\lvgl\src\lv_draw/lv_draw_img.c **** static lv_res_t lv_img_draw_core(const lv_area_t * coords, const lv_area_t * mask, const void * src
  26:..\..\..\lvgl\version_6.1.2\lvgl\src\lv_draw/lv_draw_img.c ****                                  const lv_style_t * style, lv_opa_t opa_scale);
  27:..\..\..\lvgl\version_6.1.2\lvgl\src\lv_draw/lv_draw_img.c **** 
  28:..\..\..\lvgl\version_6.1.2\lvgl\src\lv_draw/lv_draw_img.c **** /**********************
  29:..\..\..\lvgl\version_6.1.2\lvgl\src\lv_draw/lv_draw_img.c ****  *  STATIC VARIABLES
ARM GAS  C:\Users\pearlstl\AppData\Local\Temp\ccJvDP4q.s 			page 2


  30:..\..\..\lvgl\version_6.1.2\lvgl\src\lv_draw/lv_draw_img.c ****  **********************/
  31:..\..\..\lvgl\version_6.1.2\lvgl\src\lv_draw/lv_draw_img.c **** 
  32:..\..\..\lvgl\version_6.1.2\lvgl\src\lv_draw/lv_draw_img.c **** /**********************
  33:..\..\..\lvgl\version_6.1.2\lvgl\src\lv_draw/lv_draw_img.c ****  *      MACROS
  34:..\..\..\lvgl\version_6.1.2\lvgl\src\lv_draw/lv_draw_img.c ****  **********************/
  35:..\..\..\lvgl\version_6.1.2\lvgl\src\lv_draw/lv_draw_img.c **** 
  36:..\..\..\lvgl\version_6.1.2\lvgl\src\lv_draw/lv_draw_img.c **** /**********************
  37:..\..\..\lvgl\version_6.1.2\lvgl\src\lv_draw/lv_draw_img.c ****  *   GLOBAL FUNCTIONS
  38:..\..\..\lvgl\version_6.1.2\lvgl\src\lv_draw/lv_draw_img.c ****  **********************/
  39:..\..\..\lvgl\version_6.1.2\lvgl\src\lv_draw/lv_draw_img.c **** 
  40:..\..\..\lvgl\version_6.1.2\lvgl\src\lv_draw/lv_draw_img.c **** /**
  41:..\..\..\lvgl\version_6.1.2\lvgl\src\lv_draw/lv_draw_img.c ****  * Draw an image
  42:..\..\..\lvgl\version_6.1.2\lvgl\src\lv_draw/lv_draw_img.c ****  * @param coords the coordinates of the image
  43:..\..\..\lvgl\version_6.1.2\lvgl\src\lv_draw/lv_draw_img.c ****  * @param mask the image will be drawn only in this area
  44:..\..\..\lvgl\version_6.1.2\lvgl\src\lv_draw/lv_draw_img.c ****  * @param src pointer to a lv_color_t array which contains the pixels of the image
  45:..\..\..\lvgl\version_6.1.2\lvgl\src\lv_draw/lv_draw_img.c ****  * @param style style of the image
  46:..\..\..\lvgl\version_6.1.2\lvgl\src\lv_draw/lv_draw_img.c ****  * @param opa_scale scale down all opacities by the factor
  47:..\..\..\lvgl\version_6.1.2\lvgl\src\lv_draw/lv_draw_img.c ****  */
  48:..\..\..\lvgl\version_6.1.2\lvgl\src\lv_draw/lv_draw_img.c **** void lv_draw_img(const lv_area_t * coords, const lv_area_t * mask, const void * src, const lv_style
  49:..\..\..\lvgl\version_6.1.2\lvgl\src\lv_draw/lv_draw_img.c ****                  lv_opa_t opa_scale)
  50:..\..\..\lvgl\version_6.1.2\lvgl\src\lv_draw/lv_draw_img.c **** {
  29              		.loc 1 50 0
  30              		.cfi_startproc
  31              		@ args = 4, pretend = 0, frame = 48
  32              		@ frame_needed = 0, uses_anonymous_args = 0
  33              	.LVL0:
  34 0000 2DE9F04F 		push	{r4, r5, r6, r7, r8, r9, r10, fp, lr}
  35              		.cfi_def_cfa_offset 36
  36              		.cfi_offset 4, -36
  37              		.cfi_offset 5, -32
  38              		.cfi_offset 6, -28
  39              		.cfi_offset 7, -24
  40              		.cfi_offset 8, -20
  41              		.cfi_offset 9, -16
  42              		.cfi_offset 10, -12
  43              		.cfi_offset 11, -8
  44              		.cfi_offset 14, -4
  45 0004 93B0     		sub	sp, sp, #76
  46              		.cfi_def_cfa_offset 112
  47              		.loc 1 50 0
  48 0006 0446     		mov	r4, r0
  49 0008 8846     		mov	r8, r1
  50 000a 9DF87090 		ldrb	r9, [sp, #112]	@ zero_extendqisi2
  51:..\..\..\lvgl\version_6.1.2\lvgl\src\lv_draw/lv_draw_img.c ****     if(src == NULL) {
  51              		.loc 1 51 0
  52 000e 1746     		mov	r7, r2
  53 0010 002A     		cmp	r2, #0
  54 0012 00F0F380 		beq	.L31
  55              	.LVL1:
  56              	.LBB50:
  57              	.LBB51:
  52:..\..\..\lvgl\version_6.1.2\lvgl\src\lv_draw/lv_draw_img.c ****         LV_LOG_WARN("Image draw: src is NULL");
  53:..\..\..\lvgl\version_6.1.2\lvgl\src\lv_draw/lv_draw_img.c ****         lv_draw_rect(coords, mask, &lv_style_plain, LV_OPA_COVER);
  54:..\..\..\lvgl\version_6.1.2\lvgl\src\lv_draw/lv_draw_img.c ****         lv_draw_label(coords, mask, &lv_style_plain, LV_OPA_COVER, "No\ndata", LV_TXT_FLAG_NONE, NU
  55:..\..\..\lvgl\version_6.1.2\lvgl\src\lv_draw/lv_draw_img.c ****         return;
  56:..\..\..\lvgl\version_6.1.2\lvgl\src\lv_draw/lv_draw_img.c ****     }
  57:..\..\..\lvgl\version_6.1.2\lvgl\src\lv_draw/lv_draw_img.c **** 
ARM GAS  C:\Users\pearlstl\AppData\Local\Temp\ccJvDP4q.s 			page 3


  58:..\..\..\lvgl\version_6.1.2\lvgl\src\lv_draw/lv_draw_img.c ****     lv_res_t res;
  59:..\..\..\lvgl\version_6.1.2\lvgl\src\lv_draw/lv_draw_img.c ****     res = lv_img_draw_core(coords, mask, src, style, opa_scale);
  60:..\..\..\lvgl\version_6.1.2\lvgl\src\lv_draw/lv_draw_img.c **** 
  61:..\..\..\lvgl\version_6.1.2\lvgl\src\lv_draw/lv_draw_img.c ****     if(res == LV_RES_INV) {
  62:..\..\..\lvgl\version_6.1.2\lvgl\src\lv_draw/lv_draw_img.c ****         LV_LOG_WARN("Image draw error");
  63:..\..\..\lvgl\version_6.1.2\lvgl\src\lv_draw/lv_draw_img.c ****         lv_draw_rect(coords, mask, &lv_style_plain, LV_OPA_COVER);
  64:..\..\..\lvgl\version_6.1.2\lvgl\src\lv_draw/lv_draw_img.c ****         lv_draw_label(coords, mask, &lv_style_plain, LV_OPA_COVER, "No\ndata", LV_TXT_FLAG_NONE, NU
  65:..\..\..\lvgl\version_6.1.2\lvgl\src\lv_draw/lv_draw_img.c ****         return;
  66:..\..\..\lvgl\version_6.1.2\lvgl\src\lv_draw/lv_draw_img.c ****     }
  67:..\..\..\lvgl\version_6.1.2\lvgl\src\lv_draw/lv_draw_img.c **** }
  68:..\..\..\lvgl\version_6.1.2\lvgl\src\lv_draw/lv_draw_img.c **** 
  69:..\..\..\lvgl\version_6.1.2\lvgl\src\lv_draw/lv_draw_img.c **** /**
  70:..\..\..\lvgl\version_6.1.2\lvgl\src\lv_draw/lv_draw_img.c ****  * Get the color of an image's pixel
  71:..\..\..\lvgl\version_6.1.2\lvgl\src\lv_draw/lv_draw_img.c ****  * @param dsc an image descriptor
  72:..\..\..\lvgl\version_6.1.2\lvgl\src\lv_draw/lv_draw_img.c ****  * @param x x coordinate of the point to get
  73:..\..\..\lvgl\version_6.1.2\lvgl\src\lv_draw/lv_draw_img.c ****  * @param y x coordinate of the point to get
  74:..\..\..\lvgl\version_6.1.2\lvgl\src\lv_draw/lv_draw_img.c ****  * @param style style of the image. In case of `LV_IMG_CF_ALPHA_1/2/4/8` `style->image.color` shows
  75:..\..\..\lvgl\version_6.1.2\lvgl\src\lv_draw/lv_draw_img.c ****  * the color. Can be `NULL` but for `ALPHA` images black will be returned. In other cases it is not
  76:..\..\..\lvgl\version_6.1.2\lvgl\src\lv_draw/lv_draw_img.c ****  * used.
  77:..\..\..\lvgl\version_6.1.2\lvgl\src\lv_draw/lv_draw_img.c ****  * @return color of the point
  78:..\..\..\lvgl\version_6.1.2\lvgl\src\lv_draw/lv_draw_img.c ****  */
  79:..\..\..\lvgl\version_6.1.2\lvgl\src\lv_draw/lv_draw_img.c **** lv_color_t lv_img_buf_get_px_color(lv_img_dsc_t * dsc, lv_coord_t x, lv_coord_t y, const lv_style_t
  80:..\..\..\lvgl\version_6.1.2\lvgl\src\lv_draw/lv_draw_img.c **** {
  81:..\..\..\lvgl\version_6.1.2\lvgl\src\lv_draw/lv_draw_img.c ****     lv_color_t p_color = LV_COLOR_BLACK;
  82:..\..\..\lvgl\version_6.1.2\lvgl\src\lv_draw/lv_draw_img.c ****     if(x >= (lv_coord_t)dsc->header.w) {
  83:..\..\..\lvgl\version_6.1.2\lvgl\src\lv_draw/lv_draw_img.c ****         x = dsc->header.w - 1;
  84:..\..\..\lvgl\version_6.1.2\lvgl\src\lv_draw/lv_draw_img.c ****         LV_LOG_WARN("lv_canvas_get_px: x is too large (out of canvas)");
  85:..\..\..\lvgl\version_6.1.2\lvgl\src\lv_draw/lv_draw_img.c ****     } else if(x < 0) {
  86:..\..\..\lvgl\version_6.1.2\lvgl\src\lv_draw/lv_draw_img.c ****         x = 0;
  87:..\..\..\lvgl\version_6.1.2\lvgl\src\lv_draw/lv_draw_img.c ****         LV_LOG_WARN("lv_canvas_get_px: x is < 0 (out of canvas)");
  88:..\..\..\lvgl\version_6.1.2\lvgl\src\lv_draw/lv_draw_img.c ****     }
  89:..\..\..\lvgl\version_6.1.2\lvgl\src\lv_draw/lv_draw_img.c **** 
  90:..\..\..\lvgl\version_6.1.2\lvgl\src\lv_draw/lv_draw_img.c ****     if(y >= (lv_coord_t)dsc->header.h) {
  91:..\..\..\lvgl\version_6.1.2\lvgl\src\lv_draw/lv_draw_img.c ****         y = dsc->header.h - 1;
  92:..\..\..\lvgl\version_6.1.2\lvgl\src\lv_draw/lv_draw_img.c ****         LV_LOG_WARN("lv_canvas_get_px: y is too large (out of canvas)");
  93:..\..\..\lvgl\version_6.1.2\lvgl\src\lv_draw/lv_draw_img.c ****     } else if(y < 0) {
  94:..\..\..\lvgl\version_6.1.2\lvgl\src\lv_draw/lv_draw_img.c ****         y = 0;
  95:..\..\..\lvgl\version_6.1.2\lvgl\src\lv_draw/lv_draw_img.c ****         LV_LOG_WARN("lv_canvas_get_px: y is < 0 (out of canvas)");
  96:..\..\..\lvgl\version_6.1.2\lvgl\src\lv_draw/lv_draw_img.c ****     }
  97:..\..\..\lvgl\version_6.1.2\lvgl\src\lv_draw/lv_draw_img.c **** 
  98:..\..\..\lvgl\version_6.1.2\lvgl\src\lv_draw/lv_draw_img.c ****     uint8_t * buf_u8 = (uint8_t *)dsc->data;
  99:..\..\..\lvgl\version_6.1.2\lvgl\src\lv_draw/lv_draw_img.c **** 
 100:..\..\..\lvgl\version_6.1.2\lvgl\src\lv_draw/lv_draw_img.c ****     if(dsc->header.cf == LV_IMG_CF_TRUE_COLOR || dsc->header.cf == LV_IMG_CF_TRUE_COLOR_CHROMA_KEYE
 101:..\..\..\lvgl\version_6.1.2\lvgl\src\lv_draw/lv_draw_img.c ****        dsc->header.cf == LV_IMG_CF_TRUE_COLOR_ALPHA) {
 102:..\..\..\lvgl\version_6.1.2\lvgl\src\lv_draw/lv_draw_img.c ****         uint8_t px_size = lv_img_color_format_get_px_size(dsc->header.cf) >> 3;
 103:..\..\..\lvgl\version_6.1.2\lvgl\src\lv_draw/lv_draw_img.c ****         uint32_t px     = dsc->header.w * y * px_size + x * px_size;
 104:..\..\..\lvgl\version_6.1.2\lvgl\src\lv_draw/lv_draw_img.c ****         memcpy(&p_color, &buf_u8[px], sizeof(lv_color_t));
 105:..\..\..\lvgl\version_6.1.2\lvgl\src\lv_draw/lv_draw_img.c **** #if LV_COLOR_SIZE == 32
 106:..\..\..\lvgl\version_6.1.2\lvgl\src\lv_draw/lv_draw_img.c ****         p_color.ch.alpha = 0xFF; /*Only the color should be get so use a deafult alpha value*/
 107:..\..\..\lvgl\version_6.1.2\lvgl\src\lv_draw/lv_draw_img.c **** #endif
 108:..\..\..\lvgl\version_6.1.2\lvgl\src\lv_draw/lv_draw_img.c ****     } else if(dsc->header.cf == LV_IMG_CF_INDEXED_1BIT) {
 109:..\..\..\lvgl\version_6.1.2\lvgl\src\lv_draw/lv_draw_img.c ****         buf_u8 += 4 * 2;
 110:..\..\..\lvgl\version_6.1.2\lvgl\src\lv_draw/lv_draw_img.c ****         uint8_t bit = x & 0x7;
 111:..\..\..\lvgl\version_6.1.2\lvgl\src\lv_draw/lv_draw_img.c ****         x           = x >> 3;
 112:..\..\..\lvgl\version_6.1.2\lvgl\src\lv_draw/lv_draw_img.c **** 
 113:..\..\..\lvgl\version_6.1.2\lvgl\src\lv_draw/lv_draw_img.c ****         /* Get the current pixel.
 114:..\..\..\lvgl\version_6.1.2\lvgl\src\lv_draw/lv_draw_img.c ****          * dsc->header.w + 7 means rounding up to 8 because the lines are byte aligned
ARM GAS  C:\Users\pearlstl\AppData\Local\Temp\ccJvDP4q.s 			page 4


 115:..\..\..\lvgl\version_6.1.2\lvgl\src\lv_draw/lv_draw_img.c ****          * so the possible real width are 8, 16, 24 ...*/
 116:..\..\..\lvgl\version_6.1.2\lvgl\src\lv_draw/lv_draw_img.c ****         uint32_t px  = ((dsc->header.w + 7) >> 3) * y + x;
 117:..\..\..\lvgl\version_6.1.2\lvgl\src\lv_draw/lv_draw_img.c ****         p_color.full = (buf_u8[px] & (1 << (7 - bit))) >> (7 - bit);
 118:..\..\..\lvgl\version_6.1.2\lvgl\src\lv_draw/lv_draw_img.c ****     } else if(dsc->header.cf == LV_IMG_CF_INDEXED_2BIT) {
 119:..\..\..\lvgl\version_6.1.2\lvgl\src\lv_draw/lv_draw_img.c ****         buf_u8 += 4 * 4;
 120:..\..\..\lvgl\version_6.1.2\lvgl\src\lv_draw/lv_draw_img.c ****         uint8_t bit = (x & 0x3) * 2;
 121:..\..\..\lvgl\version_6.1.2\lvgl\src\lv_draw/lv_draw_img.c ****         x           = x >> 2;
 122:..\..\..\lvgl\version_6.1.2\lvgl\src\lv_draw/lv_draw_img.c **** 
 123:..\..\..\lvgl\version_6.1.2\lvgl\src\lv_draw/lv_draw_img.c ****         /* Get the current pixel.
 124:..\..\..\lvgl\version_6.1.2\lvgl\src\lv_draw/lv_draw_img.c ****          * dsc->header.w + 3 means rounding up to 4 because the lines are byte aligned
 125:..\..\..\lvgl\version_6.1.2\lvgl\src\lv_draw/lv_draw_img.c ****          * so the possible real width are 4, 8, 12 ...*/
 126:..\..\..\lvgl\version_6.1.2\lvgl\src\lv_draw/lv_draw_img.c ****         uint32_t px  = ((dsc->header.w + 3) >> 2) * y + x;
 127:..\..\..\lvgl\version_6.1.2\lvgl\src\lv_draw/lv_draw_img.c ****         p_color.full = (buf_u8[px] & (3 << (6 - bit))) >> (6 - bit);
 128:..\..\..\lvgl\version_6.1.2\lvgl\src\lv_draw/lv_draw_img.c ****     } else if(dsc->header.cf == LV_IMG_CF_INDEXED_4BIT) {
 129:..\..\..\lvgl\version_6.1.2\lvgl\src\lv_draw/lv_draw_img.c ****         buf_u8 += 4 * 16;
 130:..\..\..\lvgl\version_6.1.2\lvgl\src\lv_draw/lv_draw_img.c ****         uint8_t bit = (x & 0x1) * 4;
 131:..\..\..\lvgl\version_6.1.2\lvgl\src\lv_draw/lv_draw_img.c ****         x           = x >> 1;
 132:..\..\..\lvgl\version_6.1.2\lvgl\src\lv_draw/lv_draw_img.c **** 
 133:..\..\..\lvgl\version_6.1.2\lvgl\src\lv_draw/lv_draw_img.c ****         /* Get the current pixel.
 134:..\..\..\lvgl\version_6.1.2\lvgl\src\lv_draw/lv_draw_img.c ****          * dsc->header.w + 1 means rounding up to 2 because the lines are byte aligned
 135:..\..\..\lvgl\version_6.1.2\lvgl\src\lv_draw/lv_draw_img.c ****          * so the possible real width are 2, 4, 6 ...*/
 136:..\..\..\lvgl\version_6.1.2\lvgl\src\lv_draw/lv_draw_img.c ****         uint32_t px  = ((dsc->header.w + 1) >> 1) * y + x;
 137:..\..\..\lvgl\version_6.1.2\lvgl\src\lv_draw/lv_draw_img.c ****         p_color.full = (buf_u8[px] & (0xF << (4 - bit))) >> (4 - bit);
 138:..\..\..\lvgl\version_6.1.2\lvgl\src\lv_draw/lv_draw_img.c ****     } else if(dsc->header.cf == LV_IMG_CF_INDEXED_8BIT) {
 139:..\..\..\lvgl\version_6.1.2\lvgl\src\lv_draw/lv_draw_img.c ****         buf_u8 += 4 * 256;
 140:..\..\..\lvgl\version_6.1.2\lvgl\src\lv_draw/lv_draw_img.c ****         uint32_t px  = dsc->header.w * y + x;
 141:..\..\..\lvgl\version_6.1.2\lvgl\src\lv_draw/lv_draw_img.c ****         p_color.full = buf_u8[px];
 142:..\..\..\lvgl\version_6.1.2\lvgl\src\lv_draw/lv_draw_img.c ****     } else if(dsc->header.cf == LV_IMG_CF_ALPHA_1BIT || dsc->header.cf == LV_IMG_CF_ALPHA_2BIT ||
 143:..\..\..\lvgl\version_6.1.2\lvgl\src\lv_draw/lv_draw_img.c ****               dsc->header.cf == LV_IMG_CF_ALPHA_4BIT || dsc->header.cf == LV_IMG_CF_ALPHA_8BIT) {
 144:..\..\..\lvgl\version_6.1.2\lvgl\src\lv_draw/lv_draw_img.c ****         if(style)
 145:..\..\..\lvgl\version_6.1.2\lvgl\src\lv_draw/lv_draw_img.c ****             p_color = style->image.color;
 146:..\..\..\lvgl\version_6.1.2\lvgl\src\lv_draw/lv_draw_img.c ****         else
 147:..\..\..\lvgl\version_6.1.2\lvgl\src\lv_draw/lv_draw_img.c ****             p_color = LV_COLOR_BLACK;
 148:..\..\..\lvgl\version_6.1.2\lvgl\src\lv_draw/lv_draw_img.c ****     }
 149:..\..\..\lvgl\version_6.1.2\lvgl\src\lv_draw/lv_draw_img.c ****     return p_color;
 150:..\..\..\lvgl\version_6.1.2\lvgl\src\lv_draw/lv_draw_img.c **** }
 151:..\..\..\lvgl\version_6.1.2\lvgl\src\lv_draw/lv_draw_img.c **** 
 152:..\..\..\lvgl\version_6.1.2\lvgl\src\lv_draw/lv_draw_img.c **** /**
 153:..\..\..\lvgl\version_6.1.2\lvgl\src\lv_draw/lv_draw_img.c ****  * Get the alpha value of an image's pixel
 154:..\..\..\lvgl\version_6.1.2\lvgl\src\lv_draw/lv_draw_img.c ****  * @param dsc pointer to an image descriptor
 155:..\..\..\lvgl\version_6.1.2\lvgl\src\lv_draw/lv_draw_img.c ****  * @param x x coordinate of the point to set
 156:..\..\..\lvgl\version_6.1.2\lvgl\src\lv_draw/lv_draw_img.c ****  * @param y x coordinate of the point to set
 157:..\..\..\lvgl\version_6.1.2\lvgl\src\lv_draw/lv_draw_img.c ****  * @return alpha value of the point
 158:..\..\..\lvgl\version_6.1.2\lvgl\src\lv_draw/lv_draw_img.c ****  */
 159:..\..\..\lvgl\version_6.1.2\lvgl\src\lv_draw/lv_draw_img.c **** lv_opa_t lv_img_buf_get_px_alpha(lv_img_dsc_t * dsc, lv_coord_t x, lv_coord_t y)
 160:..\..\..\lvgl\version_6.1.2\lvgl\src\lv_draw/lv_draw_img.c **** {
 161:..\..\..\lvgl\version_6.1.2\lvgl\src\lv_draw/lv_draw_img.c ****     if(x >= (lv_coord_t)dsc->header.w) {
 162:..\..\..\lvgl\version_6.1.2\lvgl\src\lv_draw/lv_draw_img.c ****         x = dsc->header.w - 1;
 163:..\..\..\lvgl\version_6.1.2\lvgl\src\lv_draw/lv_draw_img.c ****         LV_LOG_WARN("lv_canvas_get_px: x is too large (out of canvas)");
 164:..\..\..\lvgl\version_6.1.2\lvgl\src\lv_draw/lv_draw_img.c ****     } else if(x < 0) {
 165:..\..\..\lvgl\version_6.1.2\lvgl\src\lv_draw/lv_draw_img.c ****         x = 0;
 166:..\..\..\lvgl\version_6.1.2\lvgl\src\lv_draw/lv_draw_img.c ****         LV_LOG_WARN("lv_canvas_get_px: x is < 0 (out of canvas)");
 167:..\..\..\lvgl\version_6.1.2\lvgl\src\lv_draw/lv_draw_img.c ****     }
 168:..\..\..\lvgl\version_6.1.2\lvgl\src\lv_draw/lv_draw_img.c **** 
 169:..\..\..\lvgl\version_6.1.2\lvgl\src\lv_draw/lv_draw_img.c ****     if(y >= (lv_coord_t)dsc->header.h) {
 170:..\..\..\lvgl\version_6.1.2\lvgl\src\lv_draw/lv_draw_img.c ****         y = dsc->header.h - 1;
 171:..\..\..\lvgl\version_6.1.2\lvgl\src\lv_draw/lv_draw_img.c ****         LV_LOG_WARN("lv_canvas_get_px: y is too large (out of canvas)");
ARM GAS  C:\Users\pearlstl\AppData\Local\Temp\ccJvDP4q.s 			page 5


 172:..\..\..\lvgl\version_6.1.2\lvgl\src\lv_draw/lv_draw_img.c ****     } else if(y < 0) {
 173:..\..\..\lvgl\version_6.1.2\lvgl\src\lv_draw/lv_draw_img.c ****         y = 0;
 174:..\..\..\lvgl\version_6.1.2\lvgl\src\lv_draw/lv_draw_img.c ****         LV_LOG_WARN("lv_canvas_get_px: y is < 0 (out of canvas)");
 175:..\..\..\lvgl\version_6.1.2\lvgl\src\lv_draw/lv_draw_img.c ****     }
 176:..\..\..\lvgl\version_6.1.2\lvgl\src\lv_draw/lv_draw_img.c **** 
 177:..\..\..\lvgl\version_6.1.2\lvgl\src\lv_draw/lv_draw_img.c ****     uint8_t * buf_u8 = (uint8_t *)dsc->data;
 178:..\..\..\lvgl\version_6.1.2\lvgl\src\lv_draw/lv_draw_img.c **** 
 179:..\..\..\lvgl\version_6.1.2\lvgl\src\lv_draw/lv_draw_img.c ****     if(dsc->header.cf == LV_IMG_CF_TRUE_COLOR_ALPHA) {
 180:..\..\..\lvgl\version_6.1.2\lvgl\src\lv_draw/lv_draw_img.c ****         uint32_t px = dsc->header.w * y * LV_IMG_PX_SIZE_ALPHA_BYTE + x * LV_IMG_PX_SIZE_ALPHA_BYTE
 181:..\..\..\lvgl\version_6.1.2\lvgl\src\lv_draw/lv_draw_img.c ****         return buf_u8[px + LV_IMG_PX_SIZE_ALPHA_BYTE - 1];
 182:..\..\..\lvgl\version_6.1.2\lvgl\src\lv_draw/lv_draw_img.c ****     } else if(dsc->header.cf == LV_IMG_CF_ALPHA_1BIT) {
 183:..\..\..\lvgl\version_6.1.2\lvgl\src\lv_draw/lv_draw_img.c ****         uint8_t bit = x & 0x7;
 184:..\..\..\lvgl\version_6.1.2\lvgl\src\lv_draw/lv_draw_img.c ****         x           = x >> 3;
 185:..\..\..\lvgl\version_6.1.2\lvgl\src\lv_draw/lv_draw_img.c **** 
 186:..\..\..\lvgl\version_6.1.2\lvgl\src\lv_draw/lv_draw_img.c ****         /* Get the current pixel.
 187:..\..\..\lvgl\version_6.1.2\lvgl\src\lv_draw/lv_draw_img.c ****          * dsc->header.w + 7 means rounding up to 8 because the lines are byte aligned
 188:..\..\..\lvgl\version_6.1.2\lvgl\src\lv_draw/lv_draw_img.c ****          * so the possible real width are 8 ,16, 24 ...*/
 189:..\..\..\lvgl\version_6.1.2\lvgl\src\lv_draw/lv_draw_img.c ****         uint32_t px    = ((dsc->header.w + 7) >> 3) * y + x;
 190:..\..\..\lvgl\version_6.1.2\lvgl\src\lv_draw/lv_draw_img.c ****         uint8_t px_opa = (buf_u8[px] & (1 << (7 - bit))) >> (7 - bit);
 191:..\..\..\lvgl\version_6.1.2\lvgl\src\lv_draw/lv_draw_img.c ****         return px_opa ? LV_OPA_TRANSP : LV_OPA_COVER;
 192:..\..\..\lvgl\version_6.1.2\lvgl\src\lv_draw/lv_draw_img.c ****     } else if(dsc->header.cf == LV_IMG_CF_ALPHA_2BIT) {
 193:..\..\..\lvgl\version_6.1.2\lvgl\src\lv_draw/lv_draw_img.c ****         const uint8_t opa_table[4] = {0, 85, 170, 255}; /*Opacity mapping with bpp = 2*/
 194:..\..\..\lvgl\version_6.1.2\lvgl\src\lv_draw/lv_draw_img.c **** 
 195:..\..\..\lvgl\version_6.1.2\lvgl\src\lv_draw/lv_draw_img.c ****         uint8_t bit = (x & 0x3) * 2;
 196:..\..\..\lvgl\version_6.1.2\lvgl\src\lv_draw/lv_draw_img.c ****         x           = x >> 2;
 197:..\..\..\lvgl\version_6.1.2\lvgl\src\lv_draw/lv_draw_img.c **** 
 198:..\..\..\lvgl\version_6.1.2\lvgl\src\lv_draw/lv_draw_img.c ****         /* Get the current pixel.
 199:..\..\..\lvgl\version_6.1.2\lvgl\src\lv_draw/lv_draw_img.c ****          * dsc->header.w + 4 means rounding up to 8 because the lines are byte aligned
 200:..\..\..\lvgl\version_6.1.2\lvgl\src\lv_draw/lv_draw_img.c ****          * so the possible real width are 4 ,8, 12 ...*/
 201:..\..\..\lvgl\version_6.1.2\lvgl\src\lv_draw/lv_draw_img.c ****         uint32_t px    = ((dsc->header.w + 3) >> 2) * y + x;
 202:..\..\..\lvgl\version_6.1.2\lvgl\src\lv_draw/lv_draw_img.c ****         uint8_t px_opa = (buf_u8[px] & (3 << (6 - bit))) >> (6 - bit);
 203:..\..\..\lvgl\version_6.1.2\lvgl\src\lv_draw/lv_draw_img.c ****         return opa_table[px_opa];
 204:..\..\..\lvgl\version_6.1.2\lvgl\src\lv_draw/lv_draw_img.c ****     } else if(dsc->header.cf == LV_IMG_CF_ALPHA_4BIT) {
 205:..\..\..\lvgl\version_6.1.2\lvgl\src\lv_draw/lv_draw_img.c ****         const uint8_t opa_table[16] = {0,  17, 34,  51, /*Opacity mapping with bpp = 4*/
 206:..\..\..\lvgl\version_6.1.2\lvgl\src\lv_draw/lv_draw_img.c ****                                        68, 85, 102, 119, 136, 153, 170, 187, 204, 221, 238, 255};
 207:..\..\..\lvgl\version_6.1.2\lvgl\src\lv_draw/lv_draw_img.c **** 
 208:..\..\..\lvgl\version_6.1.2\lvgl\src\lv_draw/lv_draw_img.c ****         uint8_t bit = (x & 0x1) * 4;
 209:..\..\..\lvgl\version_6.1.2\lvgl\src\lv_draw/lv_draw_img.c ****         x           = x >> 1;
 210:..\..\..\lvgl\version_6.1.2\lvgl\src\lv_draw/lv_draw_img.c **** 
 211:..\..\..\lvgl\version_6.1.2\lvgl\src\lv_draw/lv_draw_img.c ****         /* Get the current pixel.
 212:..\..\..\lvgl\version_6.1.2\lvgl\src\lv_draw/lv_draw_img.c ****          * dsc->header.w + 1 means rounding up to 8 because the lines are byte aligned
 213:..\..\..\lvgl\version_6.1.2\lvgl\src\lv_draw/lv_draw_img.c ****          * so the possible real width are 2 ,4, 6 ...*/
 214:..\..\..\lvgl\version_6.1.2\lvgl\src\lv_draw/lv_draw_img.c ****         uint32_t px    = ((dsc->header.w + 1) >> 1) * y + x;
 215:..\..\..\lvgl\version_6.1.2\lvgl\src\lv_draw/lv_draw_img.c ****         uint8_t px_opa = (buf_u8[px] & (0xF << (4 - bit))) >> (4 - bit);
 216:..\..\..\lvgl\version_6.1.2\lvgl\src\lv_draw/lv_draw_img.c ****         return opa_table[px_opa];
 217:..\..\..\lvgl\version_6.1.2\lvgl\src\lv_draw/lv_draw_img.c ****     } else if(dsc->header.cf == LV_IMG_CF_ALPHA_8BIT) {
 218:..\..\..\lvgl\version_6.1.2\lvgl\src\lv_draw/lv_draw_img.c ****         uint32_t px = dsc->header.w * y + x;
 219:..\..\..\lvgl\version_6.1.2\lvgl\src\lv_draw/lv_draw_img.c ****         return buf_u8[px];
 220:..\..\..\lvgl\version_6.1.2\lvgl\src\lv_draw/lv_draw_img.c ****     }
 221:..\..\..\lvgl\version_6.1.2\lvgl\src\lv_draw/lv_draw_img.c **** 
 222:..\..\..\lvgl\version_6.1.2\lvgl\src\lv_draw/lv_draw_img.c ****     return LV_OPA_COVER;
 223:..\..\..\lvgl\version_6.1.2\lvgl\src\lv_draw/lv_draw_img.c **** }
 224:..\..\..\lvgl\version_6.1.2\lvgl\src\lv_draw/lv_draw_img.c **** 
 225:..\..\..\lvgl\version_6.1.2\lvgl\src\lv_draw/lv_draw_img.c **** /**
 226:..\..\..\lvgl\version_6.1.2\lvgl\src\lv_draw/lv_draw_img.c ****  * Set the color of a pixel of an image. The alpha channel won't be affected.
 227:..\..\..\lvgl\version_6.1.2\lvgl\src\lv_draw/lv_draw_img.c ****  * @param dsc pointer to an image descriptor
 228:..\..\..\lvgl\version_6.1.2\lvgl\src\lv_draw/lv_draw_img.c ****  * @param x x coordinate of the point to set
ARM GAS  C:\Users\pearlstl\AppData\Local\Temp\ccJvDP4q.s 			page 6


 229:..\..\..\lvgl\version_6.1.2\lvgl\src\lv_draw/lv_draw_img.c ****  * @param y x coordinate of the point to set
 230:..\..\..\lvgl\version_6.1.2\lvgl\src\lv_draw/lv_draw_img.c ****  * @param c color of the point
 231:..\..\..\lvgl\version_6.1.2\lvgl\src\lv_draw/lv_draw_img.c ****  */
 232:..\..\..\lvgl\version_6.1.2\lvgl\src\lv_draw/lv_draw_img.c **** void lv_img_buf_set_px_color(lv_img_dsc_t * dsc, lv_coord_t x, lv_coord_t y, lv_color_t c)
 233:..\..\..\lvgl\version_6.1.2\lvgl\src\lv_draw/lv_draw_img.c **** {
 234:..\..\..\lvgl\version_6.1.2\lvgl\src\lv_draw/lv_draw_img.c ****     uint8_t * buf_u8 = (uint8_t *)dsc->data;
 235:..\..\..\lvgl\version_6.1.2\lvgl\src\lv_draw/lv_draw_img.c **** 
 236:..\..\..\lvgl\version_6.1.2\lvgl\src\lv_draw/lv_draw_img.c ****     if(dsc->header.cf == LV_IMG_CF_TRUE_COLOR || dsc->header.cf == LV_IMG_CF_TRUE_COLOR_CHROMA_KEYE
 237:..\..\..\lvgl\version_6.1.2\lvgl\src\lv_draw/lv_draw_img.c ****         uint8_t px_size = lv_img_color_format_get_px_size(dsc->header.cf) >> 3;
 238:..\..\..\lvgl\version_6.1.2\lvgl\src\lv_draw/lv_draw_img.c ****         uint32_t px     = dsc->header.w * y * px_size + x * px_size;
 239:..\..\..\lvgl\version_6.1.2\lvgl\src\lv_draw/lv_draw_img.c ****         memcpy(&buf_u8[px], &c, px_size);
 240:..\..\..\lvgl\version_6.1.2\lvgl\src\lv_draw/lv_draw_img.c ****     } else if(dsc->header.cf == LV_IMG_CF_TRUE_COLOR_ALPHA) {
 241:..\..\..\lvgl\version_6.1.2\lvgl\src\lv_draw/lv_draw_img.c ****         uint8_t px_size = lv_img_color_format_get_px_size(dsc->header.cf) >> 3;
 242:..\..\..\lvgl\version_6.1.2\lvgl\src\lv_draw/lv_draw_img.c ****         uint32_t px     = dsc->header.w * y * px_size + x * px_size;
 243:..\..\..\lvgl\version_6.1.2\lvgl\src\lv_draw/lv_draw_img.c ****         memcpy(&buf_u8[px], &c, px_size - 1); /*-1 to not overwrite the alpha value*/
 244:..\..\..\lvgl\version_6.1.2\lvgl\src\lv_draw/lv_draw_img.c ****     } else if(dsc->header.cf == LV_IMG_CF_INDEXED_1BIT) {
 245:..\..\..\lvgl\version_6.1.2\lvgl\src\lv_draw/lv_draw_img.c ****         buf_u8 += sizeof(lv_color32_t) * 2; /*Skip the palette*/
 246:..\..\..\lvgl\version_6.1.2\lvgl\src\lv_draw/lv_draw_img.c **** 
 247:..\..\..\lvgl\version_6.1.2\lvgl\src\lv_draw/lv_draw_img.c ****         uint8_t bit = x & 0x7;
 248:..\..\..\lvgl\version_6.1.2\lvgl\src\lv_draw/lv_draw_img.c ****         x           = x >> 3;
 249:..\..\..\lvgl\version_6.1.2\lvgl\src\lv_draw/lv_draw_img.c **** 
 250:..\..\..\lvgl\version_6.1.2\lvgl\src\lv_draw/lv_draw_img.c ****         /* Get the current pixel.
 251:..\..\..\lvgl\version_6.1.2\lvgl\src\lv_draw/lv_draw_img.c ****          * dsc->header.w + 7 means rounding up to 8 because the lines are byte aligned
 252:..\..\..\lvgl\version_6.1.2\lvgl\src\lv_draw/lv_draw_img.c ****          * so the possible real width are 8 ,16, 24 ...*/
 253:..\..\..\lvgl\version_6.1.2\lvgl\src\lv_draw/lv_draw_img.c ****         uint32_t px = ((dsc->header.w + 7) >> 3) * y + x;
 254:..\..\..\lvgl\version_6.1.2\lvgl\src\lv_draw/lv_draw_img.c ****         buf_u8[px]  = buf_u8[px] & ~(1 << (7 - bit));
 255:..\..\..\lvgl\version_6.1.2\lvgl\src\lv_draw/lv_draw_img.c ****         buf_u8[px]  = buf_u8[px] | ((c.full & 0x1) << (7 - bit));
 256:..\..\..\lvgl\version_6.1.2\lvgl\src\lv_draw/lv_draw_img.c ****     } else if(dsc->header.cf == LV_IMG_CF_INDEXED_2BIT) {
 257:..\..\..\lvgl\version_6.1.2\lvgl\src\lv_draw/lv_draw_img.c ****         buf_u8 += sizeof(lv_color32_t) * 4; /*Skip the palette*/
 258:..\..\..\lvgl\version_6.1.2\lvgl\src\lv_draw/lv_draw_img.c ****         uint8_t bit = (x & 0x3) * 2;
 259:..\..\..\lvgl\version_6.1.2\lvgl\src\lv_draw/lv_draw_img.c ****         x           = x >> 2;
 260:..\..\..\lvgl\version_6.1.2\lvgl\src\lv_draw/lv_draw_img.c **** 
 261:..\..\..\lvgl\version_6.1.2\lvgl\src\lv_draw/lv_draw_img.c ****         /* Get the current pixel.
 262:..\..\..\lvgl\version_6.1.2\lvgl\src\lv_draw/lv_draw_img.c ****          * dsc->header.w + 3 means rounding up to 4 because the lines are byte aligned
 263:..\..\..\lvgl\version_6.1.2\lvgl\src\lv_draw/lv_draw_img.c ****          * so the possible real width are 4, 8 ,12 ...*/
 264:..\..\..\lvgl\version_6.1.2\lvgl\src\lv_draw/lv_draw_img.c ****         uint32_t px = ((dsc->header.w + 3) >> 2) * y + x;
 265:..\..\..\lvgl\version_6.1.2\lvgl\src\lv_draw/lv_draw_img.c **** 
 266:..\..\..\lvgl\version_6.1.2\lvgl\src\lv_draw/lv_draw_img.c ****         buf_u8[px] = buf_u8[px] & ~(3 << (6 - bit));
 267:..\..\..\lvgl\version_6.1.2\lvgl\src\lv_draw/lv_draw_img.c ****         buf_u8[px] = buf_u8[px] | ((c.full & 0x3) << (6 - bit));
 268:..\..\..\lvgl\version_6.1.2\lvgl\src\lv_draw/lv_draw_img.c ****     } else if(dsc->header.cf == LV_IMG_CF_INDEXED_4BIT) {
 269:..\..\..\lvgl\version_6.1.2\lvgl\src\lv_draw/lv_draw_img.c ****         buf_u8 += sizeof(lv_color32_t) * 16; /*Skip the palette*/
 270:..\..\..\lvgl\version_6.1.2\lvgl\src\lv_draw/lv_draw_img.c ****         uint8_t bit = (x & 0x1) * 4;
 271:..\..\..\lvgl\version_6.1.2\lvgl\src\lv_draw/lv_draw_img.c ****         x           = x >> 1;
 272:..\..\..\lvgl\version_6.1.2\lvgl\src\lv_draw/lv_draw_img.c **** 
 273:..\..\..\lvgl\version_6.1.2\lvgl\src\lv_draw/lv_draw_img.c ****         /* Get the current pixel.
 274:..\..\..\lvgl\version_6.1.2\lvgl\src\lv_draw/lv_draw_img.c ****          * dsc->header.w + 1 means rounding up to 2 because the lines are byte aligned
 275:..\..\..\lvgl\version_6.1.2\lvgl\src\lv_draw/lv_draw_img.c ****          * so the possible real width are 2 ,4, 6 ...*/
 276:..\..\..\lvgl\version_6.1.2\lvgl\src\lv_draw/lv_draw_img.c ****         uint32_t px = ((dsc->header.w + 1) >> 1) * y + x;
 277:..\..\..\lvgl\version_6.1.2\lvgl\src\lv_draw/lv_draw_img.c ****         buf_u8[px]  = buf_u8[px] & ~(0xF << (4 - bit));
 278:..\..\..\lvgl\version_6.1.2\lvgl\src\lv_draw/lv_draw_img.c ****         buf_u8[px]  = buf_u8[px] | ((c.full & 0xF) << (4 - bit));
 279:..\..\..\lvgl\version_6.1.2\lvgl\src\lv_draw/lv_draw_img.c ****     } else if(dsc->header.cf == LV_IMG_CF_INDEXED_8BIT) {
 280:..\..\..\lvgl\version_6.1.2\lvgl\src\lv_draw/lv_draw_img.c ****         buf_u8 += sizeof(lv_color32_t) * 256; /*Skip the palette*/
 281:..\..\..\lvgl\version_6.1.2\lvgl\src\lv_draw/lv_draw_img.c ****         uint32_t px = dsc->header.w * y + x;
 282:..\..\..\lvgl\version_6.1.2\lvgl\src\lv_draw/lv_draw_img.c ****         buf_u8[px]  = c.full;
 283:..\..\..\lvgl\version_6.1.2\lvgl\src\lv_draw/lv_draw_img.c ****     }
 284:..\..\..\lvgl\version_6.1.2\lvgl\src\lv_draw/lv_draw_img.c **** }
 285:..\..\..\lvgl\version_6.1.2\lvgl\src\lv_draw/lv_draw_img.c **** 
ARM GAS  C:\Users\pearlstl\AppData\Local\Temp\ccJvDP4q.s 			page 7


 286:..\..\..\lvgl\version_6.1.2\lvgl\src\lv_draw/lv_draw_img.c **** /**
 287:..\..\..\lvgl\version_6.1.2\lvgl\src\lv_draw/lv_draw_img.c ****  * Set the alpha value of a pixel of an image. The color won't be affected
 288:..\..\..\lvgl\version_6.1.2\lvgl\src\lv_draw/lv_draw_img.c ****  * @param dsc pointer to an image descriptor
 289:..\..\..\lvgl\version_6.1.2\lvgl\src\lv_draw/lv_draw_img.c ****  * @param x x coordinate of the point to set
 290:..\..\..\lvgl\version_6.1.2\lvgl\src\lv_draw/lv_draw_img.c ****  * @param y x coordinate of the point to set
 291:..\..\..\lvgl\version_6.1.2\lvgl\src\lv_draw/lv_draw_img.c ****  * @param opa the desired opacity
 292:..\..\..\lvgl\version_6.1.2\lvgl\src\lv_draw/lv_draw_img.c ****  */
 293:..\..\..\lvgl\version_6.1.2\lvgl\src\lv_draw/lv_draw_img.c **** void lv_img_buf_set_px_alpha(lv_img_dsc_t * dsc, lv_coord_t x, lv_coord_t y, lv_opa_t opa)
 294:..\..\..\lvgl\version_6.1.2\lvgl\src\lv_draw/lv_draw_img.c **** {
 295:..\..\..\lvgl\version_6.1.2\lvgl\src\lv_draw/lv_draw_img.c ****     uint8_t * buf_u8 = (uint8_t *)dsc->data;
 296:..\..\..\lvgl\version_6.1.2\lvgl\src\lv_draw/lv_draw_img.c **** 
 297:..\..\..\lvgl\version_6.1.2\lvgl\src\lv_draw/lv_draw_img.c ****     if(dsc->header.cf == LV_IMG_CF_TRUE_COLOR_ALPHA) {
 298:..\..\..\lvgl\version_6.1.2\lvgl\src\lv_draw/lv_draw_img.c ****         uint8_t px_size          = lv_img_color_format_get_px_size(dsc->header.cf) >> 3;
 299:..\..\..\lvgl\version_6.1.2\lvgl\src\lv_draw/lv_draw_img.c ****         uint32_t px              = dsc->header.w * y * px_size + x * px_size;
 300:..\..\..\lvgl\version_6.1.2\lvgl\src\lv_draw/lv_draw_img.c ****         buf_u8[px + px_size - 1] = opa;
 301:..\..\..\lvgl\version_6.1.2\lvgl\src\lv_draw/lv_draw_img.c ****     } else if(dsc->header.cf == LV_IMG_CF_ALPHA_1BIT) {
 302:..\..\..\lvgl\version_6.1.2\lvgl\src\lv_draw/lv_draw_img.c ****         opa         = opa >> 7; /*opa -> [0,1]*/
 303:..\..\..\lvgl\version_6.1.2\lvgl\src\lv_draw/lv_draw_img.c ****         uint8_t bit = x & 0x7;
 304:..\..\..\lvgl\version_6.1.2\lvgl\src\lv_draw/lv_draw_img.c ****         x           = x >> 3;
 305:..\..\..\lvgl\version_6.1.2\lvgl\src\lv_draw/lv_draw_img.c **** 
 306:..\..\..\lvgl\version_6.1.2\lvgl\src\lv_draw/lv_draw_img.c ****         /* Get the current pixel.
 307:..\..\..\lvgl\version_6.1.2\lvgl\src\lv_draw/lv_draw_img.c ****          * dsc->header.w + 7 means rounding up to 8 because the lines are byte aligned
 308:..\..\..\lvgl\version_6.1.2\lvgl\src\lv_draw/lv_draw_img.c ****          * so the possible real width are 8 ,16, 24 ...*/
 309:..\..\..\lvgl\version_6.1.2\lvgl\src\lv_draw/lv_draw_img.c ****         uint32_t px = ((dsc->header.w + 7) >> 3) * y + x;
 310:..\..\..\lvgl\version_6.1.2\lvgl\src\lv_draw/lv_draw_img.c ****         buf_u8[px]  = buf_u8[px] & ~(1 << (7 - bit));
 311:..\..\..\lvgl\version_6.1.2\lvgl\src\lv_draw/lv_draw_img.c ****         buf_u8[px]  = buf_u8[px] | ((opa & 0x1) << (7 - bit));
 312:..\..\..\lvgl\version_6.1.2\lvgl\src\lv_draw/lv_draw_img.c ****     } else if(dsc->header.cf == LV_IMG_CF_ALPHA_2BIT) {
 313:..\..\..\lvgl\version_6.1.2\lvgl\src\lv_draw/lv_draw_img.c ****         opa         = opa >> 6; /*opa -> [0,3]*/
 314:..\..\..\lvgl\version_6.1.2\lvgl\src\lv_draw/lv_draw_img.c ****         uint8_t bit = (x & 0x3) * 2;
 315:..\..\..\lvgl\version_6.1.2\lvgl\src\lv_draw/lv_draw_img.c ****         x           = x >> 2;
 316:..\..\..\lvgl\version_6.1.2\lvgl\src\lv_draw/lv_draw_img.c **** 
 317:..\..\..\lvgl\version_6.1.2\lvgl\src\lv_draw/lv_draw_img.c ****         /* Get the current pixel.
 318:..\..\..\lvgl\version_6.1.2\lvgl\src\lv_draw/lv_draw_img.c ****          * dsc->header.w + 4 means rounding up to 8 because the lines are byte aligned
 319:..\..\..\lvgl\version_6.1.2\lvgl\src\lv_draw/lv_draw_img.c ****          * so the possible real width are 4 ,8, 12 ...*/
 320:..\..\..\lvgl\version_6.1.2\lvgl\src\lv_draw/lv_draw_img.c ****         uint32_t px = ((dsc->header.w + 3) >> 2) * y + x;
 321:..\..\..\lvgl\version_6.1.2\lvgl\src\lv_draw/lv_draw_img.c ****         buf_u8[px]  = buf_u8[px] & ~(3 << (6 - bit));
 322:..\..\..\lvgl\version_6.1.2\lvgl\src\lv_draw/lv_draw_img.c ****         buf_u8[px]  = buf_u8[px] | ((opa & 0x3) << (6 - bit));
 323:..\..\..\lvgl\version_6.1.2\lvgl\src\lv_draw/lv_draw_img.c ****     } else if(dsc->header.cf == LV_IMG_CF_ALPHA_4BIT) {
 324:..\..\..\lvgl\version_6.1.2\lvgl\src\lv_draw/lv_draw_img.c ****         opa         = opa >> 4; /*opa -> [0,15]*/
 325:..\..\..\lvgl\version_6.1.2\lvgl\src\lv_draw/lv_draw_img.c ****         uint8_t bit = (x & 0x1) * 4;
 326:..\..\..\lvgl\version_6.1.2\lvgl\src\lv_draw/lv_draw_img.c ****         x           = x >> 1;
 327:..\..\..\lvgl\version_6.1.2\lvgl\src\lv_draw/lv_draw_img.c **** 
 328:..\..\..\lvgl\version_6.1.2\lvgl\src\lv_draw/lv_draw_img.c ****         /* Get the current pixel.
 329:..\..\..\lvgl\version_6.1.2\lvgl\src\lv_draw/lv_draw_img.c ****          * dsc->header.w + 1 means rounding up to 8 because the lines are byte aligned
 330:..\..\..\lvgl\version_6.1.2\lvgl\src\lv_draw/lv_draw_img.c ****          * so the possible real width are 2 ,4, 6 ...*/
 331:..\..\..\lvgl\version_6.1.2\lvgl\src\lv_draw/lv_draw_img.c ****         uint32_t px = ((dsc->header.w + 1) >> 1) * y + x;
 332:..\..\..\lvgl\version_6.1.2\lvgl\src\lv_draw/lv_draw_img.c ****         buf_u8[px]  = buf_u8[px] & ~(0xF << (4 - bit));
 333:..\..\..\lvgl\version_6.1.2\lvgl\src\lv_draw/lv_draw_img.c ****         buf_u8[px]  = buf_u8[px] | ((opa & 0xF) << (4 - bit));
 334:..\..\..\lvgl\version_6.1.2\lvgl\src\lv_draw/lv_draw_img.c ****     } else if(dsc->header.cf == LV_IMG_CF_ALPHA_8BIT) {
 335:..\..\..\lvgl\version_6.1.2\lvgl\src\lv_draw/lv_draw_img.c ****         uint32_t px = dsc->header.w * y + x;
 336:..\..\..\lvgl\version_6.1.2\lvgl\src\lv_draw/lv_draw_img.c ****         buf_u8[px]  = opa;
 337:..\..\..\lvgl\version_6.1.2\lvgl\src\lv_draw/lv_draw_img.c ****     }
 338:..\..\..\lvgl\version_6.1.2\lvgl\src\lv_draw/lv_draw_img.c **** }
 339:..\..\..\lvgl\version_6.1.2\lvgl\src\lv_draw/lv_draw_img.c **** 
 340:..\..\..\lvgl\version_6.1.2\lvgl\src\lv_draw/lv_draw_img.c **** /**
 341:..\..\..\lvgl\version_6.1.2\lvgl\src\lv_draw/lv_draw_img.c ****  * Set the palette color of an indexed image. Valid only for `LV_IMG_CF_INDEXED1/2/4/8`
 342:..\..\..\lvgl\version_6.1.2\lvgl\src\lv_draw/lv_draw_img.c ****  * @param dsc pointer to an image descriptor
ARM GAS  C:\Users\pearlstl\AppData\Local\Temp\ccJvDP4q.s 			page 8


 343:..\..\..\lvgl\version_6.1.2\lvgl\src\lv_draw/lv_draw_img.c ****  * @param id the palette color to set:
 344:..\..\..\lvgl\version_6.1.2\lvgl\src\lv_draw/lv_draw_img.c ****  *   - for `LV_IMG_CF_INDEXED1`: 0..1
 345:..\..\..\lvgl\version_6.1.2\lvgl\src\lv_draw/lv_draw_img.c ****  *   - for `LV_IMG_CF_INDEXED2`: 0..3
 346:..\..\..\lvgl\version_6.1.2\lvgl\src\lv_draw/lv_draw_img.c ****  *   - for `LV_IMG_CF_INDEXED4`: 0..15
 347:..\..\..\lvgl\version_6.1.2\lvgl\src\lv_draw/lv_draw_img.c ****  *   - for `LV_IMG_CF_INDEXED8`: 0..255
 348:..\..\..\lvgl\version_6.1.2\lvgl\src\lv_draw/lv_draw_img.c ****  * @param c the color to set
 349:..\..\..\lvgl\version_6.1.2\lvgl\src\lv_draw/lv_draw_img.c ****  */
 350:..\..\..\lvgl\version_6.1.2\lvgl\src\lv_draw/lv_draw_img.c **** void lv_img_buf_set_palette(lv_img_dsc_t * dsc, uint8_t id, lv_color_t c)
 351:..\..\..\lvgl\version_6.1.2\lvgl\src\lv_draw/lv_draw_img.c **** {
 352:..\..\..\lvgl\version_6.1.2\lvgl\src\lv_draw/lv_draw_img.c ****     if((dsc->header.cf == LV_IMG_CF_ALPHA_1BIT && id > 1) || (dsc->header.cf == LV_IMG_CF_ALPHA_2BI
 353:..\..\..\lvgl\version_6.1.2\lvgl\src\lv_draw/lv_draw_img.c ****        (dsc->header.cf == LV_IMG_CF_ALPHA_4BIT && id > 15) || (dsc->header.cf == LV_IMG_CF_ALPHA_8B
 354:..\..\..\lvgl\version_6.1.2\lvgl\src\lv_draw/lv_draw_img.c ****         LV_LOG_WARN("lv_img_buf_set_px_alpha: invalid 'id'");
 355:..\..\..\lvgl\version_6.1.2\lvgl\src\lv_draw/lv_draw_img.c ****         return;
 356:..\..\..\lvgl\version_6.1.2\lvgl\src\lv_draw/lv_draw_img.c ****     }
 357:..\..\..\lvgl\version_6.1.2\lvgl\src\lv_draw/lv_draw_img.c **** 
 358:..\..\..\lvgl\version_6.1.2\lvgl\src\lv_draw/lv_draw_img.c ****     lv_color32_t c32;
 359:..\..\..\lvgl\version_6.1.2\lvgl\src\lv_draw/lv_draw_img.c ****     c32.full      = lv_color_to32(c);
 360:..\..\..\lvgl\version_6.1.2\lvgl\src\lv_draw/lv_draw_img.c ****     uint8_t * buf = (uint8_t *)dsc->data;
 361:..\..\..\lvgl\version_6.1.2\lvgl\src\lv_draw/lv_draw_img.c ****     memcpy(&buf[id * sizeof(c32)], &c32, sizeof(c32));
 362:..\..\..\lvgl\version_6.1.2\lvgl\src\lv_draw/lv_draw_img.c **** }
 363:..\..\..\lvgl\version_6.1.2\lvgl\src\lv_draw/lv_draw_img.c **** 
 364:..\..\..\lvgl\version_6.1.2\lvgl\src\lv_draw/lv_draw_img.c **** /**
 365:..\..\..\lvgl\version_6.1.2\lvgl\src\lv_draw/lv_draw_img.c ****  * Get the pixel size of a color format in bits
 366:..\..\..\lvgl\version_6.1.2\lvgl\src\lv_draw/lv_draw_img.c ****  * @param cf a color format (`LV_IMG_CF_...`)
 367:..\..\..\lvgl\version_6.1.2\lvgl\src\lv_draw/lv_draw_img.c ****  * @return the pixel size in bits
 368:..\..\..\lvgl\version_6.1.2\lvgl\src\lv_draw/lv_draw_img.c ****  */
 369:..\..\..\lvgl\version_6.1.2\lvgl\src\lv_draw/lv_draw_img.c **** uint8_t lv_img_color_format_get_px_size(lv_img_cf_t cf)
 370:..\..\..\lvgl\version_6.1.2\lvgl\src\lv_draw/lv_draw_img.c **** {
 371:..\..\..\lvgl\version_6.1.2\lvgl\src\lv_draw/lv_draw_img.c ****     uint8_t px_size = 0;
 372:..\..\..\lvgl\version_6.1.2\lvgl\src\lv_draw/lv_draw_img.c **** 
 373:..\..\..\lvgl\version_6.1.2\lvgl\src\lv_draw/lv_draw_img.c ****     switch(cf) {
 374:..\..\..\lvgl\version_6.1.2\lvgl\src\lv_draw/lv_draw_img.c ****         case LV_IMG_CF_UNKNOWN:
 375:..\..\..\lvgl\version_6.1.2\lvgl\src\lv_draw/lv_draw_img.c ****         case LV_IMG_CF_RAW: px_size = 0; break;
 376:..\..\..\lvgl\version_6.1.2\lvgl\src\lv_draw/lv_draw_img.c ****         case LV_IMG_CF_TRUE_COLOR:
 377:..\..\..\lvgl\version_6.1.2\lvgl\src\lv_draw/lv_draw_img.c ****         case LV_IMG_CF_TRUE_COLOR_CHROMA_KEYED: px_size = LV_COLOR_SIZE; break;
 378:..\..\..\lvgl\version_6.1.2\lvgl\src\lv_draw/lv_draw_img.c ****         case LV_IMG_CF_TRUE_COLOR_ALPHA: px_size = LV_IMG_PX_SIZE_ALPHA_BYTE << 3; break;
 379:..\..\..\lvgl\version_6.1.2\lvgl\src\lv_draw/lv_draw_img.c ****         case LV_IMG_CF_INDEXED_1BIT:
 380:..\..\..\lvgl\version_6.1.2\lvgl\src\lv_draw/lv_draw_img.c ****         case LV_IMG_CF_ALPHA_1BIT: px_size = 1; break;
 381:..\..\..\lvgl\version_6.1.2\lvgl\src\lv_draw/lv_draw_img.c ****         case LV_IMG_CF_INDEXED_2BIT:
 382:..\..\..\lvgl\version_6.1.2\lvgl\src\lv_draw/lv_draw_img.c ****         case LV_IMG_CF_ALPHA_2BIT: px_size = 2; break;
 383:..\..\..\lvgl\version_6.1.2\lvgl\src\lv_draw/lv_draw_img.c ****         case LV_IMG_CF_INDEXED_4BIT:
 384:..\..\..\lvgl\version_6.1.2\lvgl\src\lv_draw/lv_draw_img.c ****         case LV_IMG_CF_ALPHA_4BIT: px_size = 4; break;
 385:..\..\..\lvgl\version_6.1.2\lvgl\src\lv_draw/lv_draw_img.c ****         case LV_IMG_CF_INDEXED_8BIT:
 386:..\..\..\lvgl\version_6.1.2\lvgl\src\lv_draw/lv_draw_img.c ****         case LV_IMG_CF_ALPHA_8BIT: px_size = 8; break;
 387:..\..\..\lvgl\version_6.1.2\lvgl\src\lv_draw/lv_draw_img.c ****         default: px_size = 0; break;
 388:..\..\..\lvgl\version_6.1.2\lvgl\src\lv_draw/lv_draw_img.c ****     }
 389:..\..\..\lvgl\version_6.1.2\lvgl\src\lv_draw/lv_draw_img.c **** 
 390:..\..\..\lvgl\version_6.1.2\lvgl\src\lv_draw/lv_draw_img.c ****     return px_size;
 391:..\..\..\lvgl\version_6.1.2\lvgl\src\lv_draw/lv_draw_img.c **** }
 392:..\..\..\lvgl\version_6.1.2\lvgl\src\lv_draw/lv_draw_img.c **** 
 393:..\..\..\lvgl\version_6.1.2\lvgl\src\lv_draw/lv_draw_img.c **** /**
 394:..\..\..\lvgl\version_6.1.2\lvgl\src\lv_draw/lv_draw_img.c ****  * Check if a color format is chroma keyed or not
 395:..\..\..\lvgl\version_6.1.2\lvgl\src\lv_draw/lv_draw_img.c ****  * @param cf a color format (`LV_IMG_CF_...`)
 396:..\..\..\lvgl\version_6.1.2\lvgl\src\lv_draw/lv_draw_img.c ****  * @return true: chroma keyed; false: not chroma keyed
 397:..\..\..\lvgl\version_6.1.2\lvgl\src\lv_draw/lv_draw_img.c ****  */
 398:..\..\..\lvgl\version_6.1.2\lvgl\src\lv_draw/lv_draw_img.c **** bool lv_img_color_format_is_chroma_keyed(lv_img_cf_t cf)
 399:..\..\..\lvgl\version_6.1.2\lvgl\src\lv_draw/lv_draw_img.c **** {
ARM GAS  C:\Users\pearlstl\AppData\Local\Temp\ccJvDP4q.s 			page 9


 400:..\..\..\lvgl\version_6.1.2\lvgl\src\lv_draw/lv_draw_img.c ****     bool is_chroma_keyed = false;
 401:..\..\..\lvgl\version_6.1.2\lvgl\src\lv_draw/lv_draw_img.c **** 
 402:..\..\..\lvgl\version_6.1.2\lvgl\src\lv_draw/lv_draw_img.c ****     switch(cf) {
 403:..\..\..\lvgl\version_6.1.2\lvgl\src\lv_draw/lv_draw_img.c ****         case LV_IMG_CF_TRUE_COLOR_CHROMA_KEYED:
 404:..\..\..\lvgl\version_6.1.2\lvgl\src\lv_draw/lv_draw_img.c ****         case LV_IMG_CF_RAW_CHROMA_KEYED:
 405:..\..\..\lvgl\version_6.1.2\lvgl\src\lv_draw/lv_draw_img.c **** #if LV_INDEXED_CHROMA
 406:..\..\..\lvgl\version_6.1.2\lvgl\src\lv_draw/lv_draw_img.c ****         case LV_IMG_CF_INDEXED_1BIT:
 407:..\..\..\lvgl\version_6.1.2\lvgl\src\lv_draw/lv_draw_img.c ****         case LV_IMG_CF_INDEXED_2BIT:
 408:..\..\..\lvgl\version_6.1.2\lvgl\src\lv_draw/lv_draw_img.c ****         case LV_IMG_CF_INDEXED_4BIT:
 409:..\..\..\lvgl\version_6.1.2\lvgl\src\lv_draw/lv_draw_img.c ****         case LV_IMG_CF_INDEXED_8BIT:
 410:..\..\..\lvgl\version_6.1.2\lvgl\src\lv_draw/lv_draw_img.c **** #endif
 411:..\..\..\lvgl\version_6.1.2\lvgl\src\lv_draw/lv_draw_img.c ****             is_chroma_keyed = true; break;
 412:..\..\..\lvgl\version_6.1.2\lvgl\src\lv_draw/lv_draw_img.c **** 
 413:..\..\..\lvgl\version_6.1.2\lvgl\src\lv_draw/lv_draw_img.c ****         default: is_chroma_keyed = false; break;
 414:..\..\..\lvgl\version_6.1.2\lvgl\src\lv_draw/lv_draw_img.c ****     }
 415:..\..\..\lvgl\version_6.1.2\lvgl\src\lv_draw/lv_draw_img.c **** 
 416:..\..\..\lvgl\version_6.1.2\lvgl\src\lv_draw/lv_draw_img.c ****     return is_chroma_keyed;
 417:..\..\..\lvgl\version_6.1.2\lvgl\src\lv_draw/lv_draw_img.c **** }
 418:..\..\..\lvgl\version_6.1.2\lvgl\src\lv_draw/lv_draw_img.c **** 
 419:..\..\..\lvgl\version_6.1.2\lvgl\src\lv_draw/lv_draw_img.c **** /**
 420:..\..\..\lvgl\version_6.1.2\lvgl\src\lv_draw/lv_draw_img.c ****  * Check if a color format has alpha channel or not
 421:..\..\..\lvgl\version_6.1.2\lvgl\src\lv_draw/lv_draw_img.c ****  * @param cf a color format (`LV_IMG_CF_...`)
 422:..\..\..\lvgl\version_6.1.2\lvgl\src\lv_draw/lv_draw_img.c ****  * @return true: has alpha channel; false: doesn't have alpha channel
 423:..\..\..\lvgl\version_6.1.2\lvgl\src\lv_draw/lv_draw_img.c ****  */
 424:..\..\..\lvgl\version_6.1.2\lvgl\src\lv_draw/lv_draw_img.c **** bool lv_img_color_format_has_alpha(lv_img_cf_t cf)
 425:..\..\..\lvgl\version_6.1.2\lvgl\src\lv_draw/lv_draw_img.c **** {
 426:..\..\..\lvgl\version_6.1.2\lvgl\src\lv_draw/lv_draw_img.c ****     bool has_alpha = false;
 427:..\..\..\lvgl\version_6.1.2\lvgl\src\lv_draw/lv_draw_img.c **** 
 428:..\..\..\lvgl\version_6.1.2\lvgl\src\lv_draw/lv_draw_img.c ****     switch(cf) {
 429:..\..\..\lvgl\version_6.1.2\lvgl\src\lv_draw/lv_draw_img.c ****         case LV_IMG_CF_TRUE_COLOR_ALPHA:
 430:..\..\..\lvgl\version_6.1.2\lvgl\src\lv_draw/lv_draw_img.c ****         case LV_IMG_CF_RAW_ALPHA:
 431:..\..\..\lvgl\version_6.1.2\lvgl\src\lv_draw/lv_draw_img.c ****         case LV_IMG_CF_INDEXED_1BIT:
 432:..\..\..\lvgl\version_6.1.2\lvgl\src\lv_draw/lv_draw_img.c ****         case LV_IMG_CF_INDEXED_2BIT:
 433:..\..\..\lvgl\version_6.1.2\lvgl\src\lv_draw/lv_draw_img.c ****         case LV_IMG_CF_INDEXED_4BIT:
 434:..\..\..\lvgl\version_6.1.2\lvgl\src\lv_draw/lv_draw_img.c ****         case LV_IMG_CF_INDEXED_8BIT:
 435:..\..\..\lvgl\version_6.1.2\lvgl\src\lv_draw/lv_draw_img.c ****         case LV_IMG_CF_ALPHA_1BIT:
 436:..\..\..\lvgl\version_6.1.2\lvgl\src\lv_draw/lv_draw_img.c ****         case LV_IMG_CF_ALPHA_2BIT:
 437:..\..\..\lvgl\version_6.1.2\lvgl\src\lv_draw/lv_draw_img.c ****         case LV_IMG_CF_ALPHA_4BIT:
 438:..\..\..\lvgl\version_6.1.2\lvgl\src\lv_draw/lv_draw_img.c ****         case LV_IMG_CF_ALPHA_8BIT: has_alpha = true; break;
 439:..\..\..\lvgl\version_6.1.2\lvgl\src\lv_draw/lv_draw_img.c ****         default: has_alpha = false; break;
 440:..\..\..\lvgl\version_6.1.2\lvgl\src\lv_draw/lv_draw_img.c ****     }
 441:..\..\..\lvgl\version_6.1.2\lvgl\src\lv_draw/lv_draw_img.c **** 
 442:..\..\..\lvgl\version_6.1.2\lvgl\src\lv_draw/lv_draw_img.c ****     return has_alpha;
 443:..\..\..\lvgl\version_6.1.2\lvgl\src\lv_draw/lv_draw_img.c **** }
 444:..\..\..\lvgl\version_6.1.2\lvgl\src\lv_draw/lv_draw_img.c **** 
 445:..\..\..\lvgl\version_6.1.2\lvgl\src\lv_draw/lv_draw_img.c **** /**
 446:..\..\..\lvgl\version_6.1.2\lvgl\src\lv_draw/lv_draw_img.c ****  * Get the type of an image source
 447:..\..\..\lvgl\version_6.1.2\lvgl\src\lv_draw/lv_draw_img.c ****  * @param src pointer to an image source:
 448:..\..\..\lvgl\version_6.1.2\lvgl\src\lv_draw/lv_draw_img.c ****  *  - pointer to an 'lv_img_t' variable (image stored internally and compiled into the code)
 449:..\..\..\lvgl\version_6.1.2\lvgl\src\lv_draw/lv_draw_img.c ****  *  - a path to a file (e.g. "S:/folder/image.bin")
 450:..\..\..\lvgl\version_6.1.2\lvgl\src\lv_draw/lv_draw_img.c ****  *  - or a symbol (e.g. LV_SYMBOL_CLOSE)
 451:..\..\..\lvgl\version_6.1.2\lvgl\src\lv_draw/lv_draw_img.c ****  * @return type of the image source LV_IMG_SRC_VARIABLE/FILE/SYMBOL/UNKNOWN
 452:..\..\..\lvgl\version_6.1.2\lvgl\src\lv_draw/lv_draw_img.c ****  */
 453:..\..\..\lvgl\version_6.1.2\lvgl\src\lv_draw/lv_draw_img.c **** lv_img_src_t lv_img_src_get_type(const void * src)
 454:..\..\..\lvgl\version_6.1.2\lvgl\src\lv_draw/lv_draw_img.c **** {
 455:..\..\..\lvgl\version_6.1.2\lvgl\src\lv_draw/lv_draw_img.c ****     lv_img_src_t img_src_type = LV_IMG_SRC_UNKNOWN;
 456:..\..\..\lvgl\version_6.1.2\lvgl\src\lv_draw/lv_draw_img.c **** 
ARM GAS  C:\Users\pearlstl\AppData\Local\Temp\ccJvDP4q.s 			page 10


 457:..\..\..\lvgl\version_6.1.2\lvgl\src\lv_draw/lv_draw_img.c ****     if(src == NULL) return img_src_type;
 458:..\..\..\lvgl\version_6.1.2\lvgl\src\lv_draw/lv_draw_img.c ****     const uint8_t * u8_p = src;
 459:..\..\..\lvgl\version_6.1.2\lvgl\src\lv_draw/lv_draw_img.c **** 
 460:..\..\..\lvgl\version_6.1.2\lvgl\src\lv_draw/lv_draw_img.c ****     /*The first byte shows the type of the image source*/
 461:..\..\..\lvgl\version_6.1.2\lvgl\src\lv_draw/lv_draw_img.c ****     if(u8_p[0] >= 0x20 && u8_p[0] <= 0x7F) {
 462:..\..\..\lvgl\version_6.1.2\lvgl\src\lv_draw/lv_draw_img.c ****         img_src_type = LV_IMG_SRC_FILE; /*If it's an ASCII character then it's file name*/
 463:..\..\..\lvgl\version_6.1.2\lvgl\src\lv_draw/lv_draw_img.c ****     } else if(u8_p[0] >= 0x80) {
 464:..\..\..\lvgl\version_6.1.2\lvgl\src\lv_draw/lv_draw_img.c ****         img_src_type = LV_IMG_SRC_SYMBOL; /*Symbols begins after 0x7F*/
 465:..\..\..\lvgl\version_6.1.2\lvgl\src\lv_draw/lv_draw_img.c ****     } else {
 466:..\..\..\lvgl\version_6.1.2\lvgl\src\lv_draw/lv_draw_img.c ****         img_src_type = LV_IMG_SRC_VARIABLE; /*`lv_img_dsc_t` is design to the first byte < 0x20*/
 467:..\..\..\lvgl\version_6.1.2\lvgl\src\lv_draw/lv_draw_img.c ****     }
 468:..\..\..\lvgl\version_6.1.2\lvgl\src\lv_draw/lv_draw_img.c **** 
 469:..\..\..\lvgl\version_6.1.2\lvgl\src\lv_draw/lv_draw_img.c ****     if(LV_IMG_SRC_UNKNOWN == img_src_type) {
 470:..\..\..\lvgl\version_6.1.2\lvgl\src\lv_draw/lv_draw_img.c ****         LV_LOG_WARN("lv_img_src_get_type: unknown image type");
 471:..\..\..\lvgl\version_6.1.2\lvgl\src\lv_draw/lv_draw_img.c ****     }
 472:..\..\..\lvgl\version_6.1.2\lvgl\src\lv_draw/lv_draw_img.c **** 
 473:..\..\..\lvgl\version_6.1.2\lvgl\src\lv_draw/lv_draw_img.c ****     return img_src_type;
 474:..\..\..\lvgl\version_6.1.2\lvgl\src\lv_draw/lv_draw_img.c **** }
 475:..\..\..\lvgl\version_6.1.2\lvgl\src\lv_draw/lv_draw_img.c **** 
 476:..\..\..\lvgl\version_6.1.2\lvgl\src\lv_draw/lv_draw_img.c **** lv_img_dsc_t *lv_img_buf_alloc(lv_coord_t w, lv_coord_t h, lv_img_cf_t cf)
 477:..\..\..\lvgl\version_6.1.2\lvgl\src\lv_draw/lv_draw_img.c **** {
 478:..\..\..\lvgl\version_6.1.2\lvgl\src\lv_draw/lv_draw_img.c ****     /* Allocate image descriptor */
 479:..\..\..\lvgl\version_6.1.2\lvgl\src\lv_draw/lv_draw_img.c ****     lv_img_dsc_t *dsc = lv_mem_alloc(sizeof(lv_img_dsc_t));
 480:..\..\..\lvgl\version_6.1.2\lvgl\src\lv_draw/lv_draw_img.c ****     if(dsc == NULL)
 481:..\..\..\lvgl\version_6.1.2\lvgl\src\lv_draw/lv_draw_img.c ****         return NULL;
 482:..\..\..\lvgl\version_6.1.2\lvgl\src\lv_draw/lv_draw_img.c ****     
 483:..\..\..\lvgl\version_6.1.2\lvgl\src\lv_draw/lv_draw_img.c ****     memset(dsc, 0, sizeof(lv_img_dsc_t));
 484:..\..\..\lvgl\version_6.1.2\lvgl\src\lv_draw/lv_draw_img.c ****     
 485:..\..\..\lvgl\version_6.1.2\lvgl\src\lv_draw/lv_draw_img.c ****     /* Get image data size */
 486:..\..\..\lvgl\version_6.1.2\lvgl\src\lv_draw/lv_draw_img.c ****     dsc->data_size = lv_img_buf_get_img_size(w, h, cf);
 487:..\..\..\lvgl\version_6.1.2\lvgl\src\lv_draw/lv_draw_img.c ****     if(dsc->data_size == 0) {
 488:..\..\..\lvgl\version_6.1.2\lvgl\src\lv_draw/lv_draw_img.c ****         lv_mem_free(dsc);
 489:..\..\..\lvgl\version_6.1.2\lvgl\src\lv_draw/lv_draw_img.c ****         return NULL;
 490:..\..\..\lvgl\version_6.1.2\lvgl\src\lv_draw/lv_draw_img.c ****     }
 491:..\..\..\lvgl\version_6.1.2\lvgl\src\lv_draw/lv_draw_img.c ****     
 492:..\..\..\lvgl\version_6.1.2\lvgl\src\lv_draw/lv_draw_img.c ****     /* Allocate raw buffer */
 493:..\..\..\lvgl\version_6.1.2\lvgl\src\lv_draw/lv_draw_img.c ****     dsc->data = lv_mem_alloc(dsc->data_size);
 494:..\..\..\lvgl\version_6.1.2\lvgl\src\lv_draw/lv_draw_img.c ****     if(dsc->data == NULL) {
 495:..\..\..\lvgl\version_6.1.2\lvgl\src\lv_draw/lv_draw_img.c ****         lv_mem_free(dsc);
 496:..\..\..\lvgl\version_6.1.2\lvgl\src\lv_draw/lv_draw_img.c ****         return NULL;
 497:..\..\..\lvgl\version_6.1.2\lvgl\src\lv_draw/lv_draw_img.c ****     }
 498:..\..\..\lvgl\version_6.1.2\lvgl\src\lv_draw/lv_draw_img.c ****     memset((uint8_t *)dsc->data, 0, dsc->data_size);
 499:..\..\..\lvgl\version_6.1.2\lvgl\src\lv_draw/lv_draw_img.c ****     
 500:..\..\..\lvgl\version_6.1.2\lvgl\src\lv_draw/lv_draw_img.c ****     /* Fill in header */
 501:..\..\..\lvgl\version_6.1.2\lvgl\src\lv_draw/lv_draw_img.c ****     dsc->header.always_zero = 0;
 502:..\..\..\lvgl\version_6.1.2\lvgl\src\lv_draw/lv_draw_img.c ****     dsc->header.w = w;
 503:..\..\..\lvgl\version_6.1.2\lvgl\src\lv_draw/lv_draw_img.c ****     dsc->header.h = h;
 504:..\..\..\lvgl\version_6.1.2\lvgl\src\lv_draw/lv_draw_img.c ****     dsc->header.cf = cf;
 505:..\..\..\lvgl\version_6.1.2\lvgl\src\lv_draw/lv_draw_img.c ****     return dsc;
 506:..\..\..\lvgl\version_6.1.2\lvgl\src\lv_draw/lv_draw_img.c **** }
 507:..\..\..\lvgl\version_6.1.2\lvgl\src\lv_draw/lv_draw_img.c **** 
 508:..\..\..\lvgl\version_6.1.2\lvgl\src\lv_draw/lv_draw_img.c **** void lv_img_buf_free(lv_img_dsc_t *dsc)
 509:..\..\..\lvgl\version_6.1.2\lvgl\src\lv_draw/lv_draw_img.c **** {
 510:..\..\..\lvgl\version_6.1.2\lvgl\src\lv_draw/lv_draw_img.c ****     if(dsc != NULL) {
 511:..\..\..\lvgl\version_6.1.2\lvgl\src\lv_draw/lv_draw_img.c ****         if(dsc->data != NULL)
 512:..\..\..\lvgl\version_6.1.2\lvgl\src\lv_draw/lv_draw_img.c ****             lv_mem_free(dsc->data);
 513:..\..\..\lvgl\version_6.1.2\lvgl\src\lv_draw/lv_draw_img.c ****         
ARM GAS  C:\Users\pearlstl\AppData\Local\Temp\ccJvDP4q.s 			page 11


 514:..\..\..\lvgl\version_6.1.2\lvgl\src\lv_draw/lv_draw_img.c ****         lv_mem_free(dsc);
 515:..\..\..\lvgl\version_6.1.2\lvgl\src\lv_draw/lv_draw_img.c ****     }
 516:..\..\..\lvgl\version_6.1.2\lvgl\src\lv_draw/lv_draw_img.c **** }
 517:..\..\..\lvgl\version_6.1.2\lvgl\src\lv_draw/lv_draw_img.c **** 
 518:..\..\..\lvgl\version_6.1.2\lvgl\src\lv_draw/lv_draw_img.c **** uint32_t lv_img_buf_get_img_size(lv_coord_t w, lv_coord_t h, lv_img_cf_t cf)
 519:..\..\..\lvgl\version_6.1.2\lvgl\src\lv_draw/lv_draw_img.c **** {
 520:..\..\..\lvgl\version_6.1.2\lvgl\src\lv_draw/lv_draw_img.c ****     switch(cf) {
 521:..\..\..\lvgl\version_6.1.2\lvgl\src\lv_draw/lv_draw_img.c ****         case LV_IMG_CF_TRUE_COLOR: return LV_IMG_BUF_SIZE_TRUE_COLOR(w, h);
 522:..\..\..\lvgl\version_6.1.2\lvgl\src\lv_draw/lv_draw_img.c ****         case LV_IMG_CF_TRUE_COLOR_ALPHA: return LV_IMG_BUF_SIZE_TRUE_COLOR_ALPHA(w, h);
 523:..\..\..\lvgl\version_6.1.2\lvgl\src\lv_draw/lv_draw_img.c ****         case LV_IMG_CF_TRUE_COLOR_CHROMA_KEYED: return LV_IMG_BUF_SIZE_TRUE_COLOR_CHROMA_KEYED(w, h
 524:..\..\..\lvgl\version_6.1.2\lvgl\src\lv_draw/lv_draw_img.c ****         case LV_IMG_CF_ALPHA_1BIT: return LV_IMG_BUF_SIZE_ALPHA_1BIT(w, h);
 525:..\..\..\lvgl\version_6.1.2\lvgl\src\lv_draw/lv_draw_img.c ****         case LV_IMG_CF_ALPHA_2BIT: return LV_IMG_BUF_SIZE_ALPHA_2BIT(w, h);
 526:..\..\..\lvgl\version_6.1.2\lvgl\src\lv_draw/lv_draw_img.c ****         case LV_IMG_CF_ALPHA_4BIT: return LV_IMG_BUF_SIZE_ALPHA_4BIT(w, h);
 527:..\..\..\lvgl\version_6.1.2\lvgl\src\lv_draw/lv_draw_img.c ****         case LV_IMG_CF_ALPHA_8BIT: return LV_IMG_BUF_SIZE_ALPHA_8BIT(w, h);
 528:..\..\..\lvgl\version_6.1.2\lvgl\src\lv_draw/lv_draw_img.c ****         case LV_IMG_CF_INDEXED_1BIT: return LV_IMG_BUF_SIZE_INDEXED_1BIT(w, h);
 529:..\..\..\lvgl\version_6.1.2\lvgl\src\lv_draw/lv_draw_img.c ****         case LV_IMG_CF_INDEXED_2BIT: return LV_IMG_BUF_SIZE_INDEXED_2BIT(w, h);
 530:..\..\..\lvgl\version_6.1.2\lvgl\src\lv_draw/lv_draw_img.c ****         case LV_IMG_CF_INDEXED_4BIT: return LV_IMG_BUF_SIZE_INDEXED_4BIT(w, h);
 531:..\..\..\lvgl\version_6.1.2\lvgl\src\lv_draw/lv_draw_img.c ****         case LV_IMG_CF_INDEXED_8BIT: return LV_IMG_BUF_SIZE_INDEXED_8BIT(w, h);
 532:..\..\..\lvgl\version_6.1.2\lvgl\src\lv_draw/lv_draw_img.c ****         default: return 0;
 533:..\..\..\lvgl\version_6.1.2\lvgl\src\lv_draw/lv_draw_img.c ****     }
 534:..\..\..\lvgl\version_6.1.2\lvgl\src\lv_draw/lv_draw_img.c **** }
 535:..\..\..\lvgl\version_6.1.2\lvgl\src\lv_draw/lv_draw_img.c **** 
 536:..\..\..\lvgl\version_6.1.2\lvgl\src\lv_draw/lv_draw_img.c **** /**********************
 537:..\..\..\lvgl\version_6.1.2\lvgl\src\lv_draw/lv_draw_img.c ****  *   STATIC FUNCTIONS
 538:..\..\..\lvgl\version_6.1.2\lvgl\src\lv_draw/lv_draw_img.c ****  **********************/
 539:..\..\..\lvgl\version_6.1.2\lvgl\src\lv_draw/lv_draw_img.c **** 
 540:..\..\..\lvgl\version_6.1.2\lvgl\src\lv_draw/lv_draw_img.c **** static lv_res_t lv_img_draw_core(const lv_area_t * coords, const lv_area_t * mask, const void * src
 541:..\..\..\lvgl\version_6.1.2\lvgl\src\lv_draw/lv_draw_img.c ****                                  const lv_style_t * style, lv_opa_t opa_scale)
 542:..\..\..\lvgl\version_6.1.2\lvgl\src\lv_draw/lv_draw_img.c **** {
 543:..\..\..\lvgl\version_6.1.2\lvgl\src\lv_draw/lv_draw_img.c **** 
 544:..\..\..\lvgl\version_6.1.2\lvgl\src\lv_draw/lv_draw_img.c ****     lv_area_t mask_com; /*Common area of mask and coords*/
 545:..\..\..\lvgl\version_6.1.2\lvgl\src\lv_draw/lv_draw_img.c ****     bool union_ok;
 546:..\..\..\lvgl\version_6.1.2\lvgl\src\lv_draw/lv_draw_img.c ****     union_ok = lv_area_intersect(&mask_com, mask, coords);
  58              		.loc 1 546 0
  59 0016 0EAE     		add	r6, sp, #56
  60 0018 3046     		mov	r0, r6
  61              	.LVL2:
  62 001a 2246     		mov	r2, r4
  63              	.LVL3:
  64 001c 1D46     		mov	r5, r3
  65              	.LVL4:
  66 001e FFF7FEFF 		bl	lv_area_intersect
  67              	.LVL5:
 547:..\..\..\lvgl\version_6.1.2\lvgl\src\lv_draw/lv_draw_img.c ****     if(union_ok == false) {
  68              		.loc 1 547 0
  69 0022 0028     		cmp	r0, #0
  70 0024 44D0     		beq	.L1
 548:..\..\..\lvgl\version_6.1.2\lvgl\src\lv_draw/lv_draw_img.c ****         return LV_RES_OK; /*Out of mask. There is nothing to draw so the image is drawn
 549:..\..\..\lvgl\version_6.1.2\lvgl\src\lv_draw/lv_draw_img.c ****                              successfully.*/
 550:..\..\..\lvgl\version_6.1.2\lvgl\src\lv_draw/lv_draw_img.c ****     }
 551:..\..\..\lvgl\version_6.1.2\lvgl\src\lv_draw/lv_draw_img.c **** 
 552:..\..\..\lvgl\version_6.1.2\lvgl\src\lv_draw/lv_draw_img.c ****     lv_opa_t opa =
  71              		.loc 1 552 0
  72 0026 B9F1FF0F 		cmp	r9, #255
  73 002a 16BF     		itet	ne
  74 002c 95F84530 		ldrbne	r3, [r5, #69]	@ zero_extendqisi2
  75 0030 95F84590 		ldrbeq	r9, [r5, #69]	@ zero_extendqisi2
ARM GAS  C:\Users\pearlstl\AppData\Local\Temp\ccJvDP4q.s 			page 12


  76              	.LVL6:
  77 0034 03FB09F9 		mulne	r9, r3, r9
 553:..\..\..\lvgl\version_6.1.2\lvgl\src\lv_draw/lv_draw_img.c ****         opa_scale == LV_OPA_COVER ? style->image.opa : (uint16_t)((uint16_t)style->image.opa * opa_
 554:..\..\..\lvgl\version_6.1.2\lvgl\src\lv_draw/lv_draw_img.c **** 
 555:..\..\..\lvgl\version_6.1.2\lvgl\src\lv_draw/lv_draw_img.c ****     lv_img_cache_entry_t * cdsc = lv_img_cache_open(src, style);
  78              		.loc 1 555 0
  79 0038 3846     		mov	r0, r7
  80              	.LVL7:
  81 003a 2946     		mov	r1, r5
 552:..\..\..\lvgl\version_6.1.2\lvgl\src\lv_draw/lv_draw_img.c ****         opa_scale == LV_OPA_COVER ? style->image.opa : (uint16_t)((uint16_t)style->image.opa * opa_
  82              		.loc 1 552 0
  83 003c 18BF     		it	ne
  84 003e C9F30729 		ubfxne	r9, r9, #8, #8
  85              	.LVL8:
  86              		.loc 1 555 0
  87 0042 FFF7FEFF 		bl	lv_img_cache_open
  88              	.LVL9:
 556:..\..\..\lvgl\version_6.1.2\lvgl\src\lv_draw/lv_draw_img.c **** 
 557:..\..\..\lvgl\version_6.1.2\lvgl\src\lv_draw/lv_draw_img.c ****     if(cdsc == NULL) return LV_RES_INV;
  89              		.loc 1 557 0
  90 0046 0746     		mov	r7, r0
  91              	.LVL10:
  92 0048 0028     		cmp	r0, #0
  93 004a 00F09E80 		beq	.L7
 558:..\..\..\lvgl\version_6.1.2\lvgl\src\lv_draw/lv_draw_img.c **** 
 559:..\..\..\lvgl\version_6.1.2\lvgl\src\lv_draw/lv_draw_img.c ****     bool chroma_keyed = lv_img_color_format_is_chroma_keyed(cdsc->dec_dsc.header.cf);
  94              		.loc 1 559 0
  95 004e 037C     		ldrb	r3, [r0, #16]	@ zero_extendqisi2
  96 0050 03F01F03 		and	r3, r3, #31
  97              	.LVL11:
  98 0054 0A2B     		cmp	r3, #10
  99 0056 00F2AF80 		bhi	.L8
 100 005a 4FF0010B 		mov	fp, #1
 101 005e 0BFA03F2 		lsl	r2, fp, r3
 102 0062 12F4F96F 		tst	r2, #1992
 103 0066 03D1     		bne	.L9
 104              	.LVL12:
 105              	.L10:
 106 0068 0122     		movs	r2, #1
 107 006a 9A40     		lsls	r2, r2, r3
 108              	.LBE51:
 109              	.LBE50:
  50:..\..\..\lvgl\version_6.1.2\lvgl\src\lv_draw/lv_draw_img.c ****     if(src == NULL) {
 110              		.loc 1 50 0
 111 006c 4FF0000B 		mov	fp, #0
 112              	.LVL13:
 113              	.L9:
 114 0070 47F6A473 		movw	r3, #32676
 115              	.LVL14:
 116 0074 1340     		ands	r3, r3, r2
 117 0076 002B     		cmp	r3, #0
 118 0078 40F0A580 		bne	.L21
 119              	.LVL15:
 120              	.L11:
 121              	.LBB64:
 122              	.LBB61:
 123              	.LBB52:
ARM GAS  C:\Users\pearlstl\AppData\Local\Temp\ccJvDP4q.s 			page 13


 124              	.LBB53:
 439:..\..\..\lvgl\version_6.1.2\lvgl\src\lv_draw/lv_draw_img.c ****     }
 125              		.loc 1 439 0
 126 007c 0023     		movs	r3, #0
 127 007e 0793     		str	r3, [sp, #28]
 128              	.LBE53:
 129              	.LBE52:
 560:..\..\..\lvgl\version_6.1.2\lvgl\src\lv_draw/lv_draw_img.c ****     bool alpha_byte   = lv_img_color_format_has_alpha(cdsc->dec_dsc.header.cf);
 561:..\..\..\lvgl\version_6.1.2\lvgl\src\lv_draw/lv_draw_img.c **** 
 562:..\..\..\lvgl\version_6.1.2\lvgl\src\lv_draw/lv_draw_img.c ****     if(cdsc->dec_dsc.error_msg != NULL) {
 130              		.loc 1 562 0
 131 0080 FB69     		ldr	r3, [r7, #28]
 132 0082 002B     		cmp	r3, #0
 133 0084 00F0A580 		beq	.L13
 134              	.L32:
 563:..\..\..\lvgl\version_6.1.2\lvgl\src\lv_draw/lv_draw_img.c ****         LV_LOG_WARN("Image draw error");
 564:..\..\..\lvgl\version_6.1.2\lvgl\src\lv_draw/lv_draw_img.c ****         lv_draw_rect(coords, mask, &lv_style_plain, LV_OPA_COVER);
 135              		.loc 1 564 0
 136 0088 FF23     		movs	r3, #255
 137 008a 664A     		ldr	r2, .L33
 138 008c 4146     		mov	r1, r8
 139 008e 2046     		mov	r0, r4
 140              	.LVL16:
 141 0090 FFF7FEFF 		bl	lv_draw_rect
 142              	.LVL17:
 565:..\..\..\lvgl\version_6.1.2\lvgl\src\lv_draw/lv_draw_img.c ****         lv_draw_label(coords, mask, &lv_style_plain, LV_OPA_COVER, cdsc->dec_dsc.error_msg, LV_TXT_
 143              		.loc 1 565 0
 144 0094 0023     		movs	r3, #0
 145 0096 0593     		str	r3, [sp, #20]
 146 0098 0493     		str	r3, [sp, #16]
 147 009a 0393     		str	r3, [sp, #12]
 148 009c 0293     		str	r3, [sp, #8]
 149 009e 0193     		str	r3, [sp, #4]
 150 00a0 FB69     		ldr	r3, [r7, #28]
 151 00a2 0093     		str	r3, [sp]
 152 00a4 4146     		mov	r1, r8
 153 00a6 2046     		mov	r0, r4
 154 00a8 FF23     		movs	r3, #255
 155 00aa 5E4A     		ldr	r2, .L33
 156 00ac FFF7FEFF 		bl	lv_draw_label
 157              	.LVL18:
 158              	.L1:
 159              	.LBE61:
 160              	.LBE64:
  67:..\..\..\lvgl\version_6.1.2\lvgl\src\lv_draw/lv_draw_img.c **** 
 161              		.loc 1 67 0
 162 00b0 13B0     		add	sp, sp, #76
 163              		.cfi_remember_state
 164              		.cfi_def_cfa_offset 36
 165              		@ sp needed
 166 00b2 BDE8F08F 		pop	{r4, r5, r6, r7, r8, r9, r10, fp, pc}
 167              	.LVL19:
 168              	.L14:
 169              		.cfi_restore_state
 170              	.LBB65:
 171              	.LBB62:
 172              	.LBB55:
ARM GAS  C:\Users\pearlstl\AppData\Local\Temp\ccJvDP4q.s 			page 14


 173              	.LBB56:
 174              	.LBB57:
 175              		.file 2 "..\\..\\..\\lvgl\\version_6.1.2\\lvgl\\src\\lv_draw\\../lv_core/../lv_misc/lv_area.h"
   1:..\..\..\lvgl\version_6.1.2\lvgl\src\lv_draw\../lv_core/../lv_misc/lv_area.h **** /**
   2:..\..\..\lvgl\version_6.1.2\lvgl\src\lv_draw\../lv_core/../lv_misc/lv_area.h ****  * @file lv_area.h
   3:..\..\..\lvgl\version_6.1.2\lvgl\src\lv_draw\../lv_core/../lv_misc/lv_area.h ****  *
   4:..\..\..\lvgl\version_6.1.2\lvgl\src\lv_draw\../lv_core/../lv_misc/lv_area.h ****  */
   5:..\..\..\lvgl\version_6.1.2\lvgl\src\lv_draw\../lv_core/../lv_misc/lv_area.h **** 
   6:..\..\..\lvgl\version_6.1.2\lvgl\src\lv_draw\../lv_core/../lv_misc/lv_area.h **** #ifndef LV_AREA_H
   7:..\..\..\lvgl\version_6.1.2\lvgl\src\lv_draw\../lv_core/../lv_misc/lv_area.h **** #define LV_AREA_H
   8:..\..\..\lvgl\version_6.1.2\lvgl\src\lv_draw\../lv_core/../lv_misc/lv_area.h **** 
   9:..\..\..\lvgl\version_6.1.2\lvgl\src\lv_draw\../lv_core/../lv_misc/lv_area.h **** #ifdef __cplusplus
  10:..\..\..\lvgl\version_6.1.2\lvgl\src\lv_draw\../lv_core/../lv_misc/lv_area.h **** extern "C" {
  11:..\..\..\lvgl\version_6.1.2\lvgl\src\lv_draw\../lv_core/../lv_misc/lv_area.h **** #endif
  12:..\..\..\lvgl\version_6.1.2\lvgl\src\lv_draw\../lv_core/../lv_misc/lv_area.h **** 
  13:..\..\..\lvgl\version_6.1.2\lvgl\src\lv_draw\../lv_core/../lv_misc/lv_area.h **** /*********************
  14:..\..\..\lvgl\version_6.1.2\lvgl\src\lv_draw\../lv_core/../lv_misc/lv_area.h ****  *      INCLUDES
  15:..\..\..\lvgl\version_6.1.2\lvgl\src\lv_draw\../lv_core/../lv_misc/lv_area.h ****  *********************/
  16:..\..\..\lvgl\version_6.1.2\lvgl\src\lv_draw\../lv_core/../lv_misc/lv_area.h **** #include <string.h>
  17:..\..\..\lvgl\version_6.1.2\lvgl\src\lv_draw\../lv_core/../lv_misc/lv_area.h **** #include <stdbool.h>
  18:..\..\..\lvgl\version_6.1.2\lvgl\src\lv_draw\../lv_core/../lv_misc/lv_area.h **** #include <stdint.h>
  19:..\..\..\lvgl\version_6.1.2\lvgl\src\lv_draw\../lv_core/../lv_misc/lv_area.h **** #ifdef LV_CONF_INCLUDE_SIMPLE
  20:..\..\..\lvgl\version_6.1.2\lvgl\src\lv_draw\../lv_core/../lv_misc/lv_area.h **** #include "lv_conf.h"
  21:..\..\..\lvgl\version_6.1.2\lvgl\src\lv_draw\../lv_core/../lv_misc/lv_area.h **** #else
  22:..\..\..\lvgl\version_6.1.2\lvgl\src\lv_draw\../lv_core/../lv_misc/lv_area.h **** #include "../../../lv_conf.h"
  23:..\..\..\lvgl\version_6.1.2\lvgl\src\lv_draw\../lv_core/../lv_misc/lv_area.h **** #endif
  24:..\..\..\lvgl\version_6.1.2\lvgl\src\lv_draw\../lv_core/../lv_misc/lv_area.h **** 
  25:..\..\..\lvgl\version_6.1.2\lvgl\src\lv_draw\../lv_core/../lv_misc/lv_area.h **** /*********************
  26:..\..\..\lvgl\version_6.1.2\lvgl\src\lv_draw\../lv_core/../lv_misc/lv_area.h ****  *      DEFINES
  27:..\..\..\lvgl\version_6.1.2\lvgl\src\lv_draw\../lv_core/../lv_misc/lv_area.h ****  *********************/
  28:..\..\..\lvgl\version_6.1.2\lvgl\src\lv_draw\../lv_core/../lv_misc/lv_area.h **** /*To avoid overflow don't let the max ranges (reduce with 1000) */
  29:..\..\..\lvgl\version_6.1.2\lvgl\src\lv_draw\../lv_core/../lv_misc/lv_area.h **** #define LV_COORD_MAX ((lv_coord_t)((uint32_t)((uint32_t)1 << (8 * sizeof(lv_coord_t) - 1)) - 1000))
  30:..\..\..\lvgl\version_6.1.2\lvgl\src\lv_draw\../lv_core/../lv_misc/lv_area.h **** #define LV_COORD_MIN (-LV_COORD_MAX)
  31:..\..\..\lvgl\version_6.1.2\lvgl\src\lv_draw\../lv_core/../lv_misc/lv_area.h **** 
  32:..\..\..\lvgl\version_6.1.2\lvgl\src\lv_draw\../lv_core/../lv_misc/lv_area.h **** LV_EXPORT_CONST_INT(LV_COORD_MAX);
  33:..\..\..\lvgl\version_6.1.2\lvgl\src\lv_draw\../lv_core/../lv_misc/lv_area.h **** LV_EXPORT_CONST_INT(LV_COORD_MIN);
  34:..\..\..\lvgl\version_6.1.2\lvgl\src\lv_draw\../lv_core/../lv_misc/lv_area.h **** 
  35:..\..\..\lvgl\version_6.1.2\lvgl\src\lv_draw\../lv_core/../lv_misc/lv_area.h **** /**********************
  36:..\..\..\lvgl\version_6.1.2\lvgl\src\lv_draw\../lv_core/../lv_misc/lv_area.h ****  *      TYPEDEFS
  37:..\..\..\lvgl\version_6.1.2\lvgl\src\lv_draw\../lv_core/../lv_misc/lv_area.h ****  **********************/
  38:..\..\..\lvgl\version_6.1.2\lvgl\src\lv_draw\../lv_core/../lv_misc/lv_area.h **** 
  39:..\..\..\lvgl\version_6.1.2\lvgl\src\lv_draw\../lv_core/../lv_misc/lv_area.h **** /**
  40:..\..\..\lvgl\version_6.1.2\lvgl\src\lv_draw\../lv_core/../lv_misc/lv_area.h ****  * Represents a point on the screen.
  41:..\..\..\lvgl\version_6.1.2\lvgl\src\lv_draw\../lv_core/../lv_misc/lv_area.h ****  */
  42:..\..\..\lvgl\version_6.1.2\lvgl\src\lv_draw\../lv_core/../lv_misc/lv_area.h **** typedef struct
  43:..\..\..\lvgl\version_6.1.2\lvgl\src\lv_draw\../lv_core/../lv_misc/lv_area.h **** {
  44:..\..\..\lvgl\version_6.1.2\lvgl\src\lv_draw\../lv_core/../lv_misc/lv_area.h ****     lv_coord_t x;
  45:..\..\..\lvgl\version_6.1.2\lvgl\src\lv_draw\../lv_core/../lv_misc/lv_area.h ****     lv_coord_t y;
  46:..\..\..\lvgl\version_6.1.2\lvgl\src\lv_draw\../lv_core/../lv_misc/lv_area.h **** } lv_point_t;
  47:..\..\..\lvgl\version_6.1.2\lvgl\src\lv_draw\../lv_core/../lv_misc/lv_area.h **** 
  48:..\..\..\lvgl\version_6.1.2\lvgl\src\lv_draw\../lv_core/../lv_misc/lv_area.h **** /** Represents an area of the screen. */
  49:..\..\..\lvgl\version_6.1.2\lvgl\src\lv_draw\../lv_core/../lv_misc/lv_area.h **** typedef struct
  50:..\..\..\lvgl\version_6.1.2\lvgl\src\lv_draw\../lv_core/../lv_misc/lv_area.h **** {
  51:..\..\..\lvgl\version_6.1.2\lvgl\src\lv_draw\../lv_core/../lv_misc/lv_area.h ****     lv_coord_t x1;
  52:..\..\..\lvgl\version_6.1.2\lvgl\src\lv_draw\../lv_core/../lv_misc/lv_area.h ****     lv_coord_t y1;
  53:..\..\..\lvgl\version_6.1.2\lvgl\src\lv_draw\../lv_core/../lv_misc/lv_area.h ****     lv_coord_t x2;
  54:..\..\..\lvgl\version_6.1.2\lvgl\src\lv_draw\../lv_core/../lv_misc/lv_area.h ****     lv_coord_t y2;
ARM GAS  C:\Users\pearlstl\AppData\Local\Temp\ccJvDP4q.s 			page 15


  55:..\..\..\lvgl\version_6.1.2\lvgl\src\lv_draw\../lv_core/../lv_misc/lv_area.h **** } lv_area_t;
  56:..\..\..\lvgl\version_6.1.2\lvgl\src\lv_draw\../lv_core/../lv_misc/lv_area.h **** 
  57:..\..\..\lvgl\version_6.1.2\lvgl\src\lv_draw\../lv_core/../lv_misc/lv_area.h **** /**********************
  58:..\..\..\lvgl\version_6.1.2\lvgl\src\lv_draw\../lv_core/../lv_misc/lv_area.h ****  * GLOBAL PROTOTYPES
  59:..\..\..\lvgl\version_6.1.2\lvgl\src\lv_draw\../lv_core/../lv_misc/lv_area.h ****  **********************/
  60:..\..\..\lvgl\version_6.1.2\lvgl\src\lv_draw\../lv_core/../lv_misc/lv_area.h **** 
  61:..\..\..\lvgl\version_6.1.2\lvgl\src\lv_draw\../lv_core/../lv_misc/lv_area.h **** /**
  62:..\..\..\lvgl\version_6.1.2\lvgl\src\lv_draw\../lv_core/../lv_misc/lv_area.h ****  * Initialize an area
  63:..\..\..\lvgl\version_6.1.2\lvgl\src\lv_draw\../lv_core/../lv_misc/lv_area.h ****  * @param area_p pointer to an area
  64:..\..\..\lvgl\version_6.1.2\lvgl\src\lv_draw\../lv_core/../lv_misc/lv_area.h ****  * @param x1 left coordinate of the area
  65:..\..\..\lvgl\version_6.1.2\lvgl\src\lv_draw\../lv_core/../lv_misc/lv_area.h ****  * @param y1 top coordinate of the area
  66:..\..\..\lvgl\version_6.1.2\lvgl\src\lv_draw\../lv_core/../lv_misc/lv_area.h ****  * @param x2 right coordinate of the area
  67:..\..\..\lvgl\version_6.1.2\lvgl\src\lv_draw\../lv_core/../lv_misc/lv_area.h ****  * @param y2 bottom coordinate of the area
  68:..\..\..\lvgl\version_6.1.2\lvgl\src\lv_draw\../lv_core/../lv_misc/lv_area.h ****  */
  69:..\..\..\lvgl\version_6.1.2\lvgl\src\lv_draw\../lv_core/../lv_misc/lv_area.h **** void lv_area_set(lv_area_t * area_p, lv_coord_t x1, lv_coord_t y1, lv_coord_t x2, lv_coord_t y2);
  70:..\..\..\lvgl\version_6.1.2\lvgl\src\lv_draw\../lv_core/../lv_misc/lv_area.h **** 
  71:..\..\..\lvgl\version_6.1.2\lvgl\src\lv_draw\../lv_core/../lv_misc/lv_area.h **** /**
  72:..\..\..\lvgl\version_6.1.2\lvgl\src\lv_draw\../lv_core/../lv_misc/lv_area.h ****  * Copy an area
  73:..\..\..\lvgl\version_6.1.2\lvgl\src\lv_draw\../lv_core/../lv_misc/lv_area.h ****  * @param dest pointer to the destination area
  74:..\..\..\lvgl\version_6.1.2\lvgl\src\lv_draw\../lv_core/../lv_misc/lv_area.h ****  * @param src pointer to the source area
  75:..\..\..\lvgl\version_6.1.2\lvgl\src\lv_draw\../lv_core/../lv_misc/lv_area.h ****  */
  76:..\..\..\lvgl\version_6.1.2\lvgl\src\lv_draw\../lv_core/../lv_misc/lv_area.h **** inline static void lv_area_copy(lv_area_t * dest, const lv_area_t * src)
  77:..\..\..\lvgl\version_6.1.2\lvgl\src\lv_draw\../lv_core/../lv_misc/lv_area.h **** {
  78:..\..\..\lvgl\version_6.1.2\lvgl\src\lv_draw\../lv_core/../lv_misc/lv_area.h ****     memcpy(dest, src, sizeof(lv_area_t));
  79:..\..\..\lvgl\version_6.1.2\lvgl\src\lv_draw\../lv_core/../lv_misc/lv_area.h **** }
  80:..\..\..\lvgl\version_6.1.2\lvgl\src\lv_draw\../lv_core/../lv_misc/lv_area.h **** 
  81:..\..\..\lvgl\version_6.1.2\lvgl\src\lv_draw\../lv_core/../lv_misc/lv_area.h **** /**
  82:..\..\..\lvgl\version_6.1.2\lvgl\src\lv_draw\../lv_core/../lv_misc/lv_area.h ****  * Get the width of an area
  83:..\..\..\lvgl\version_6.1.2\lvgl\src\lv_draw\../lv_core/../lv_misc/lv_area.h ****  * @param area_p pointer to an area
  84:..\..\..\lvgl\version_6.1.2\lvgl\src\lv_draw\../lv_core/../lv_misc/lv_area.h ****  * @return the width of the area (if x1 == x2 -> width = 1)
  85:..\..\..\lvgl\version_6.1.2\lvgl\src\lv_draw\../lv_core/../lv_misc/lv_area.h ****  */
  86:..\..\..\lvgl\version_6.1.2\lvgl\src\lv_draw\../lv_core/../lv_misc/lv_area.h **** static inline lv_coord_t lv_area_get_width(const lv_area_t * area_p)
  87:..\..\..\lvgl\version_6.1.2\lvgl\src\lv_draw\../lv_core/../lv_misc/lv_area.h **** {
  88:..\..\..\lvgl\version_6.1.2\lvgl\src\lv_draw\../lv_core/../lv_misc/lv_area.h ****     return (lv_coord_t)(area_p->x2 - area_p->x1 + 1);
 176              		.loc 2 88 0
 177 00b6 BDF83C30 		ldrh	r3, [sp, #60]
 178 00ba BDF83810 		ldrh	r1, [sp, #56]
 179 00be 0892     		str	r2, [sp, #32]
 180 00c0 0133     		adds	r3, r3, #1
 181 00c2 5B1A     		subs	r3, r3, r1
 182 00c4 1BB2     		sxth	r3, r3
 183              	.LBE57:
 184              	.LBE56:
 566:..\..\..\lvgl\version_6.1.2\lvgl\src\lv_draw/lv_draw_img.c ****     }
 567:..\..\..\lvgl\version_6.1.2\lvgl\src\lv_draw/lv_draw_img.c ****     /* The decoder open could open the image and gave the entire uncompressed image.
 568:..\..\..\lvgl\version_6.1.2\lvgl\src\lv_draw/lv_draw_img.c ****      * Just draw it!*/
 569:..\..\..\lvgl\version_6.1.2\lvgl\src\lv_draw/lv_draw_img.c ****     else if(cdsc->dec_dsc.img_data) {
 570:..\..\..\lvgl\version_6.1.2\lvgl\src\lv_draw/lv_draw_img.c ****         lv_draw_map(coords, mask, cdsc->dec_dsc.img_data, opa, chroma_keyed, alpha_byte, style->ima
 571:..\..\..\lvgl\version_6.1.2\lvgl\src\lv_draw/lv_draw_img.c ****                     style->image.intense);
 572:..\..\..\lvgl\version_6.1.2\lvgl\src\lv_draw/lv_draw_img.c ****     }
 573:..\..\..\lvgl\version_6.1.2\lvgl\src\lv_draw/lv_draw_img.c ****     /* The whole uncompressed image is not available. Try to read it line-by-line*/
 574:..\..\..\lvgl\version_6.1.2\lvgl\src\lv_draw/lv_draw_img.c ****     else {
 575:..\..\..\lvgl\version_6.1.2\lvgl\src\lv_draw/lv_draw_img.c ****         lv_coord_t width = lv_area_get_width(&mask_com);
 576:..\..\..\lvgl\version_6.1.2\lvgl\src\lv_draw/lv_draw_img.c **** 
 577:..\..\..\lvgl\version_6.1.2\lvgl\src\lv_draw/lv_draw_img.c ****         uint8_t  * buf = lv_draw_get_buf(lv_area_get_width(&mask_com) * LV_IMG_PX_SIZE_ALPHA_BYTE);
 185              		.loc 1 577 0
 186 00c6 9800     		lsls	r0, r3, #2
ARM GAS  C:\Users\pearlstl\AppData\Local\Temp\ccJvDP4q.s 			page 16


 187              	.LVL20:
 188 00c8 0D93     		str	r3, [sp, #52]
 189 00ca FFF7FEFF 		bl	lv_draw_get_buf
 190              	.LVL21:
 191 00ce 0C90     		str	r0, [sp, #48]
 192              	.LVL22:
 193              	.LBB58:
 194              	.LBB59:
  78:..\..\..\lvgl\version_6.1.2\lvgl\src\lv_draw\../lv_core/../lv_misc/lv_area.h **** }
 195              		.loc 2 78 0
 196 00d0 96E80300 		ldmia	r6, {r0, r1}
 197 00d4 10AA     		add	r2, sp, #64
 198              	.LVL23:
 199 00d6 82E80300 		stmia	r2, {r0, r1}
 200              	.LVL24:
 201              	.LBE59:
 202              	.LBE58:
 578:..\..\..\lvgl\version_6.1.2\lvgl\src\lv_draw/lv_draw_img.c **** 
 579:..\..\..\lvgl\version_6.1.2\lvgl\src\lv_draw/lv_draw_img.c ****         lv_area_t line;
 580:..\..\..\lvgl\version_6.1.2\lvgl\src\lv_draw/lv_draw_img.c ****         lv_area_copy(&line, &mask_com);
 581:..\..\..\lvgl\version_6.1.2\lvgl\src\lv_draw/lv_draw_img.c ****         lv_area_set_height(&line, 1);
 203              		.loc 1 581 0
 204 00da 1046     		mov	r0, r2
 205 00dc 0121     		movs	r1, #1
 206 00de FFF7FEFF 		bl	lv_area_set_height
 207              	.LVL25:
 582:..\..\..\lvgl\version_6.1.2\lvgl\src\lv_draw/lv_draw_img.c ****         lv_coord_t x = mask_com.x1 - coords->x1;
 583:..\..\..\lvgl\version_6.1.2\lvgl\src\lv_draw/lv_draw_img.c ****         lv_coord_t y = mask_com.y1 - coords->y1;
 208              		.loc 1 583 0
 209 00e2 BDF93A00 		ldrsh	r0, [sp, #58]
 210 00e6 6188     		ldrh	r1, [r4, #2]
 582:..\..\..\lvgl\version_6.1.2\lvgl\src\lv_draw/lv_draw_img.c ****         lv_coord_t x = mask_com.x1 - coords->x1;
 211              		.loc 1 582 0
 212 00e8 BDF83830 		ldrh	r3, [sp, #56]
 213 00ec B4F800E0 		ldrh	lr, [r4]
 584:..\..\..\lvgl\version_6.1.2\lvgl\src\lv_draw/lv_draw_img.c ****         lv_coord_t row;
 585:..\..\..\lvgl\version_6.1.2\lvgl\src\lv_draw/lv_draw_img.c ****         lv_res_t read_res;
 586:..\..\..\lvgl\version_6.1.2\lvgl\src\lv_draw/lv_draw_img.c ****         for(row = mask_com.y1; row <= mask_com.y2; row++) {
 214              		.loc 1 586 0
 215 00f0 BDF93EC0 		ldrsh	ip, [sp, #62]
 583:..\..\..\lvgl\version_6.1.2\lvgl\src\lv_draw/lv_draw_img.c ****         lv_coord_t row;
 216              		.loc 1 583 0
 217 00f4 86B2     		uxth	r6, r0
 218              	.LVL26:
 219 00f6 711A     		subs	r1, r6, r1
 220 00f8 8AB2     		uxth	r2, r1
 582:..\..\..\lvgl\version_6.1.2\lvgl\src\lv_draw/lv_draw_img.c ****         lv_coord_t x = mask_com.x1 - coords->x1;
 221              		.loc 1 582 0
 222 00fa CEEB0303 		rsb	r3, lr, r3
 583:..\..\..\lvgl\version_6.1.2\lvgl\src\lv_draw/lv_draw_img.c ****         lv_coord_t row;
 223              		.loc 1 583 0
 224 00fe 0A92     		str	r2, [sp, #40]
 225              		.loc 1 586 0
 226 0100 8445     		cmp	ip, r0
 582:..\..\..\lvgl\version_6.1.2\lvgl\src\lv_draw/lv_draw_img.c ****         lv_coord_t x = mask_com.x1 - coords->x1;
 227              		.loc 1 582 0
 228 0102 1AB2     		sxth	r2, r3
ARM GAS  C:\Users\pearlstl\AppData\Local\Temp\ccJvDP4q.s 			page 17


 229 0104 0992     		str	r2, [sp, #36]
 230              	.LVL27:
 231              		.loc 1 586 0
 232 0106 D3DB     		blt	.L1
 233 0108 089A     		ldr	r2, [sp, #32]
 234 010a 0897     		str	r7, [sp, #32]
 235 010c 9246     		mov	r10, r2
 236 010e 721C     		adds	r2, r6, #1
 237 0110 0B92     		str	r2, [sp, #44]
 238 0112 0C9E     		ldr	r6, [sp, #48]
 239 0114 CDF830B0 		str	fp, [sp, #48]
 240 0118 DDF834B0 		ldr	fp, [sp, #52]
 241 011c 0D94     		str	r4, [sp, #52]
 242 011e 1CE0     		b	.L17
 243              	.LVL28:
 244              	.L16:
 587:..\..\..\lvgl\version_6.1.2\lvgl\src\lv_draw/lv_draw_img.c ****             read_res = lv_img_decoder_read_line(&cdsc->dec_dsc, x, y, width, buf);
 588:..\..\..\lvgl\version_6.1.2\lvgl\src\lv_draw/lv_draw_img.c ****             if(read_res != LV_RES_OK) {
 589:..\..\..\lvgl\version_6.1.2\lvgl\src\lv_draw/lv_draw_img.c ****                 lv_img_decoder_close(&cdsc->dec_dsc);
 590:..\..\..\lvgl\version_6.1.2\lvgl\src\lv_draw/lv_draw_img.c ****                 LV_LOG_WARN("Image draw can't read the line");
 591:..\..\..\lvgl\version_6.1.2\lvgl\src\lv_draw/lv_draw_img.c ****                 return LV_RES_INV;
 592:..\..\..\lvgl\version_6.1.2\lvgl\src\lv_draw/lv_draw_img.c ****             }
 593:..\..\..\lvgl\version_6.1.2\lvgl\src\lv_draw/lv_draw_img.c ****             lv_draw_map(&line, mask, buf, opa, chroma_keyed, alpha_byte, style->image.color, style-
 245              		.loc 1 593 0
 246 0120 2F6C     		ldr	r7, [r5, #64]
 247 0122 95F844E0 		ldrb	lr, [r5, #68]	@ zero_extendqisi2
 248 0126 0297     		str	r7, [sp, #8]
 249 0128 079F     		ldr	r7, [sp, #28]
 250 012a 0197     		str	r7, [sp, #4]
 251 012c 0C9F     		ldr	r7, [sp, #48]
 252 012e 0097     		str	r7, [sp]
 253 0130 CDF80CE0 		str	lr, [sp, #12]
 254 0134 FFF7FEFF 		bl	lv_draw_map
 255              	.LVL29:
 586:..\..\..\lvgl\version_6.1.2\lvgl\src\lv_draw/lv_draw_img.c ****             read_res = lv_img_decoder_read_line(&cdsc->dec_dsc, x, y, width, buf);
 256              		.loc 1 586 0
 257 0138 0B98     		ldr	r0, [sp, #44]
 594:..\..\..\lvgl\version_6.1.2\lvgl\src\lv_draw/lv_draw_img.c ****             line.y1++;
 258              		.loc 1 594 0
 259 013a BDF84220 		ldrh	r2, [sp, #66]
 595:..\..\..\lvgl\version_6.1.2\lvgl\src\lv_draw/lv_draw_img.c ****             line.y2++;
 260              		.loc 1 595 0
 261 013e BDF84630 		ldrh	r3, [sp, #70]
 586:..\..\..\lvgl\version_6.1.2\lvgl\src\lv_draw/lv_draw_img.c ****             read_res = lv_img_decoder_read_line(&cdsc->dec_dsc, x, y, width, buf);
 262              		.loc 1 586 0
 263 0142 BDF93E10 		ldrsh	r1, [sp, #62]
 264 0146 0444     		add	r4, r4, r0
 265              	.LVL30:
 266 0148 24B2     		sxth	r4, r4
 594:..\..\..\lvgl\version_6.1.2\lvgl\src\lv_draw/lv_draw_img.c ****             line.y1++;
 267              		.loc 1 594 0
 268 014a 0132     		adds	r2, r2, #1
 269              		.loc 1 595 0
 270 014c 0133     		adds	r3, r3, #1
 586:..\..\..\lvgl\version_6.1.2\lvgl\src\lv_draw/lv_draw_img.c ****             read_res = lv_img_decoder_read_line(&cdsc->dec_dsc, x, y, width, buf);
 271              		.loc 1 586 0
 272 014e A142     		cmp	r1, r4
ARM GAS  C:\Users\pearlstl\AppData\Local\Temp\ccJvDP4q.s 			page 18


 594:..\..\..\lvgl\version_6.1.2\lvgl\src\lv_draw/lv_draw_img.c ****             line.y1++;
 273              		.loc 1 594 0
 274 0150 ADF84220 		strh	r2, [sp, #66]	@ movhi
 275              		.loc 1 595 0
 276 0154 ADF84630 		strh	r3, [sp, #70]	@ movhi
 586:..\..\..\lvgl\version_6.1.2\lvgl\src\lv_draw/lv_draw_img.c ****             read_res = lv_img_decoder_read_line(&cdsc->dec_dsc, x, y, width, buf);
 277              		.loc 1 586 0
 278 0158 AADB     		blt	.L1
 279              	.L17:
 587:..\..\..\lvgl\version_6.1.2\lvgl\src\lv_draw/lv_draw_img.c ****             if(read_res != LV_RES_OK) {
 280              		.loc 1 587 0
 281 015a 0A9B     		ldr	r3, [sp, #40]
 282 015c 0999     		ldr	r1, [sp, #36]
 283 015e 0096     		str	r6, [sp]
 284 0160 1FFA8AF4 		uxth	r4, r10
 285              	.LVL31:
 286 0164 E218     		adds	r2, r4, r3
 287 0166 12B2     		sxth	r2, r2
 288 0168 5B46     		mov	r3, fp
 289 016a 0898     		ldr	r0, [sp, #32]
 290 016c FFF7FEFF 		bl	lv_img_decoder_read_line
 291              	.LVL32:
 588:..\..\..\lvgl\version_6.1.2\lvgl\src\lv_draw/lv_draw_img.c ****                 lv_img_decoder_close(&cdsc->dec_dsc);
 292              		.loc 1 588 0
 293 0170 0128     		cmp	r0, #1
 593:..\..\..\lvgl\version_6.1.2\lvgl\src\lv_draw/lv_draw_img.c ****             line.y1++;
 294              		.loc 1 593 0
 295 0172 4B46     		mov	r3, r9
 296 0174 3246     		mov	r2, r6
 297 0176 4146     		mov	r1, r8
 298 0178 10A8     		add	r0, sp, #64
 299              	.LVL33:
 300 017a 0AF1010A 		add	r10, r10, #1
 588:..\..\..\lvgl\version_6.1.2\lvgl\src\lv_draw/lv_draw_img.c ****                 lv_img_decoder_close(&cdsc->dec_dsc);
 301              		.loc 1 588 0
 302 017e CFD0     		beq	.L16
 303              	.LVL34:
 304 0180 089F     		ldr	r7, [sp, #32]
 305 0182 0D9C     		ldr	r4, [sp, #52]
 306              	.LVL35:
 589:..\..\..\lvgl\version_6.1.2\lvgl\src\lv_draw/lv_draw_img.c ****                 LV_LOG_WARN("Image draw can't read the line");
 307              		.loc 1 589 0
 308 0184 3846     		mov	r0, r7
 309 0186 FFF7FEFF 		bl	lv_img_decoder_close
 310              	.LVL36:
 311              	.L7:
 312              	.LBE55:
 313              	.LBE62:
 314              	.LBE65:
  63:..\..\..\lvgl\version_6.1.2\lvgl\src\lv_draw/lv_draw_img.c ****         lv_draw_label(coords, mask, &lv_style_plain, LV_OPA_COVER, "No\ndata", LV_TXT_FLAG_NONE, NU
 315              		.loc 1 63 0
 316 018a 4146     		mov	r1, r8
 317 018c 2046     		mov	r0, r4
 318 018e FF23     		movs	r3, #255
 319 0190 244A     		ldr	r2, .L33
 320 0192 FFF7FEFF 		bl	lv_draw_rect
 321              	.LVL37:
ARM GAS  C:\Users\pearlstl\AppData\Local\Temp\ccJvDP4q.s 			page 19


  64:..\..\..\lvgl\version_6.1.2\lvgl\src\lv_draw/lv_draw_img.c ****         return;
 322              		.loc 1 64 0
 323 0196 244A     		ldr	r2, .L33+4
 324 0198 0023     		movs	r3, #0
 325 019a 8DE80C00 		stmia	sp, {r2, r3}
 326 019e 0593     		str	r3, [sp, #20]
 327 01a0 0493     		str	r3, [sp, #16]
 328 01a2 0393     		str	r3, [sp, #12]
 329 01a4 0293     		str	r3, [sp, #8]
 330 01a6 4146     		mov	r1, r8
 331 01a8 2046     		mov	r0, r4
 332 01aa FF23     		movs	r3, #255
 333 01ac 1D4A     		ldr	r2, .L33
 334 01ae FFF7FEFF 		bl	lv_draw_label
 335              	.LVL38:
  67:..\..\..\lvgl\version_6.1.2\lvgl\src\lv_draw/lv_draw_img.c **** 
 336              		.loc 1 67 0
 337 01b2 13B0     		add	sp, sp, #76
 338              		.cfi_remember_state
 339              		.cfi_def_cfa_offset 36
 340              		@ sp needed
 341 01b4 BDE8F08F 		pop	{r4, r5, r6, r7, r8, r9, r10, fp, pc}
 342              	.LVL39:
 343              	.L8:
 344              		.cfi_restore_state
 345 01b8 0E2B     		cmp	r3, #14
 346              	.LBB66:
 347              	.LBB63:
 559:..\..\..\lvgl\version_6.1.2\lvgl\src\lv_draw/lv_draw_img.c ****     bool alpha_byte   = lv_img_color_format_has_alpha(cdsc->dec_dsc.header.cf);
 348              		.loc 1 559 0
 349 01ba 88BF     		it	hi
 350 01bc 4FF0000B 		movhi	fp, #0
 351 01c0 3FF65CAF 		bhi	.L11
 352 01c4 50E7     		b	.L10
 353              	.LVL40:
 354              	.L21:
 355              	.LBB60:
 356              	.LBB54:
 438:..\..\..\lvgl\version_6.1.2\lvgl\src\lv_draw/lv_draw_img.c ****         default: has_alpha = false; break;
 357              		.loc 1 438 0
 358 01c6 0123     		movs	r3, #1
 359 01c8 0793     		str	r3, [sp, #28]
 360              	.LVL41:
 361              	.LBE54:
 362              	.LBE60:
 562:..\..\..\lvgl\version_6.1.2\lvgl\src\lv_draw/lv_draw_img.c ****         LV_LOG_WARN("Image draw error");
 363              		.loc 1 562 0
 364 01ca FB69     		ldr	r3, [r7, #28]
 365 01cc 002B     		cmp	r3, #0
 366 01ce 7FF45BAF 		bne	.L32
 367              	.L13:
 569:..\..\..\lvgl\version_6.1.2\lvgl\src\lv_draw/lv_draw_img.c ****         lv_draw_map(coords, mask, cdsc->dec_dsc.img_data, opa, chroma_keyed, alpha_byte, style->ima
 368              		.loc 1 569 0
 369 01d2 7A69     		ldr	r2, [r7, #20]
 370 01d4 002A     		cmp	r2, #0
 371 01d6 3FF46EAF 		beq	.L14
 570:..\..\..\lvgl\version_6.1.2\lvgl\src\lv_draw/lv_draw_img.c ****                     style->image.intense);
ARM GAS  C:\Users\pearlstl\AppData\Local\Temp\ccJvDP4q.s 			page 20


 372              		.loc 1 570 0
 373 01da 95F84460 		ldrb	r6, [r5, #68]	@ zero_extendqisi2
 374 01de 079B     		ldr	r3, [sp, #28]
 375 01e0 2D6C     		ldr	r5, [r5, #64]
 376              	.LVL42:
 377 01e2 0295     		str	r5, [sp, #8]
 378 01e4 0193     		str	r3, [sp, #4]
 379 01e6 CDF800B0 		str	fp, [sp]
 380 01ea 4B46     		mov	r3, r9
 381 01ec 4146     		mov	r1, r8
 382 01ee 2046     		mov	r0, r4
 383              	.LVL43:
 384 01f0 0396     		str	r6, [sp, #12]
 385 01f2 FFF7FEFF 		bl	lv_draw_map
 386              	.LVL44:
 387              	.LBE63:
 388              	.LBE66:
  67:..\..\..\lvgl\version_6.1.2\lvgl\src\lv_draw/lv_draw_img.c **** 
 389              		.loc 1 67 0
 390 01f6 13B0     		add	sp, sp, #76
 391              		.cfi_remember_state
 392              		.cfi_def_cfa_offset 36
 393              		@ sp needed
 394 01f8 BDE8F08F 		pop	{r4, r5, r6, r7, r8, r9, r10, fp, pc}
 395              	.LVL45:
 396              	.L31:
 397              		.cfi_restore_state
  53:..\..\..\lvgl\version_6.1.2\lvgl\src\lv_draw/lv_draw_img.c ****         lv_draw_label(coords, mask, &lv_style_plain, LV_OPA_COVER, "No\ndata", LV_TXT_FLAG_NONE, NU
 398              		.loc 1 53 0
 399 01fc FF23     		movs	r3, #255
 400              	.LVL46:
 401 01fe 094A     		ldr	r2, .L33
 402              	.LVL47:
 403 0200 FFF7FEFF 		bl	lv_draw_rect
 404              	.LVL48:
  54:..\..\..\lvgl\version_6.1.2\lvgl\src\lv_draw/lv_draw_img.c ****         return;
 405              		.loc 1 54 0
 406 0204 084B     		ldr	r3, .L33+4
 407 0206 0093     		str	r3, [sp]
 408 0208 0597     		str	r7, [sp, #20]
 409 020a 0497     		str	r7, [sp, #16]
 410 020c 0397     		str	r7, [sp, #12]
 411 020e 0297     		str	r7, [sp, #8]
 412 0210 0197     		str	r7, [sp, #4]
 413 0212 4146     		mov	r1, r8
 414 0214 2046     		mov	r0, r4
 415 0216 FF23     		movs	r3, #255
 416 0218 024A     		ldr	r2, .L33
 417 021a FFF7FEFF 		bl	lv_draw_label
 418              	.LVL49:
  67:..\..\..\lvgl\version_6.1.2\lvgl\src\lv_draw/lv_draw_img.c **** 
 419              		.loc 1 67 0
 420 021e 13B0     		add	sp, sp, #76
 421              		.cfi_def_cfa_offset 36
 422              		@ sp needed
 423 0220 BDE8F08F 		pop	{r4, r5, r6, r7, r8, r9, r10, fp, pc}
 424              	.LVL50:
ARM GAS  C:\Users\pearlstl\AppData\Local\Temp\ccJvDP4q.s 			page 21


 425              	.L34:
 426              		.align	2
 427              	.L33:
 428 0224 00000000 		.word	lv_style_plain
 429 0228 00000000 		.word	.LC2
 430              		.cfi_endproc
 431              	.LFE31:
 432              		.size	lv_draw_img, .-lv_draw_img
 433              		.section	.text.lv_img_buf_get_px_color,"ax",%progbits
 434              		.align	2
 435              		.global	lv_img_buf_get_px_color
 436              		.thumb
 437              		.thumb_func
 438              		.type	lv_img_buf_get_px_color, %function
 439              	lv_img_buf_get_px_color:
 440              	.LFB32:
  80:..\..\..\lvgl\version_6.1.2\lvgl\src\lv_draw/lv_draw_img.c ****     lv_color_t p_color = LV_COLOR_BLACK;
 441              		.loc 1 80 0
 442              		.cfi_startproc
 443              		@ args = 0, pretend = 0, frame = 8
 444              		@ frame_needed = 0, uses_anonymous_args = 0
 445              	.LVL51:
 446 0000 F0B5     		push	{r4, r5, r6, r7, lr}
 447              		.cfi_def_cfa_offset 20
 448              		.cfi_offset 4, -20
 449              		.cfi_offset 5, -16
 450              		.cfi_offset 6, -12
 451              		.cfi_offset 7, -8
 452              		.cfi_offset 14, -4
  82:..\..\..\lvgl\version_6.1.2\lvgl\src\lv_draw/lv_draw_img.c ****         x = dsc->header.w - 1;
 453              		.loc 1 82 0
 454 0002 0568     		ldr	r5, [r0]
  98:..\..\..\lvgl\version_6.1.2\lvgl\src\lv_draw/lv_draw_img.c **** 
 455              		.loc 1 98 0
 456 0004 8768     		ldr	r7, [r0, #8]
  80:..\..\..\lvgl\version_6.1.2\lvgl\src\lv_draw/lv_draw_img.c ****     lv_color_t p_color = LV_COLOR_BLACK;
 457              		.loc 1 80 0
 458 0006 83B0     		sub	sp, sp, #12
 459              		.cfi_def_cfa_offset 32
  81:..\..\..\lvgl\version_6.1.2\lvgl\src\lv_draw/lv_draw_img.c ****     if(x >= (lv_coord_t)dsc->header.w) {
 460              		.loc 1 81 0
 461 0008 4FF07F44 		mov	r4, #-16777216
  82:..\..\..\lvgl\version_6.1.2\lvgl\src\lv_draw/lv_draw_img.c ****         x = dsc->header.w - 1;
 462              		.loc 1 82 0
 463 000c C5F38A25 		ubfx	r5, r5, #10, #11
 464 0010 AEB2     		uxth	r6, r5
  81:..\..\..\lvgl\version_6.1.2\lvgl\src\lv_draw/lv_draw_img.c ****     if(x >= (lv_coord_t)dsc->header.w) {
 465              		.loc 1 81 0
 466 0012 0194     		str	r4, [sp, #4]
  90:..\..\..\lvgl\version_6.1.2\lvgl\src\lv_draw/lv_draw_img.c ****         y = dsc->header.h - 1;
 467              		.loc 1 90 0
 468 0014 4488     		ldrh	r4, [r0, #2]
  82:..\..\..\lvgl\version_6.1.2\lvgl\src\lv_draw/lv_draw_img.c ****         x = dsc->header.w - 1;
 469              		.loc 1 82 0
 470 0016 B142     		cmp	r1, r6
  90:..\..\..\lvgl\version_6.1.2\lvgl\src\lv_draw/lv_draw_img.c ****         y = dsc->header.h - 1;
 471              		.loc 1 90 0
ARM GAS  C:\Users\pearlstl\AppData\Local\Temp\ccJvDP4q.s 			page 22


 472 0018 C4F34A14 		ubfx	r4, r4, #5, #11
  83:..\..\..\lvgl\version_6.1.2\lvgl\src\lv_draw/lv_draw_img.c ****         LV_LOG_WARN("lv_canvas_get_px: x is too large (out of canvas)");
 473              		.loc 1 83 0
 474 001c A6BF     		itte	ge
 475 001e 06F1FF31 		addge	r1, r6, #-1
 476              	.LVL52:
 477 0022 09B2     		sxthge	r1, r1
 478              	.LVL53:
 479 0024 21EAE171 		biclt	r1, r1, r1, asr #31
 480              	.LVL54:
  90:..\..\..\lvgl\version_6.1.2\lvgl\src\lv_draw/lv_draw_img.c ****         y = dsc->header.h - 1;
 481              		.loc 1 90 0
 482 0028 A242     		cmp	r2, r4
  91:..\..\..\lvgl\version_6.1.2\lvgl\src\lv_draw/lv_draw_img.c ****         LV_LOG_WARN("lv_canvas_get_px: y is too large (out of canvas)");
 483              		.loc 1 91 0
 484 002a A4BF     		itt	ge
 485 002c 04F1FF34 		addge	r4, r4, #-1
 486 0030 22B2     		sxthge	r2, r4
 487              	.LVL55:
 100:..\..\..\lvgl\version_6.1.2\lvgl\src\lv_draw/lv_draw_img.c ****        dsc->header.cf == LV_IMG_CF_TRUE_COLOR_ALPHA) {
 488              		.loc 1 100 0
 489 0032 0478     		ldrb	r4, [r0]	@ zero_extendqisi2
 490 0034 04F01F00 		and	r0, r4, #31
 491              	.LVL56:
 492 0038 A0F1040E 		sub	lr, r0, #4
 493 003c B8BF     		it	lt
 494 003e 22EAE272 		biclt	r2, r2, r2, asr #31
 495              	.LVL57:
 496 0042 BEF1020F 		cmp	lr, #2
 497 0046 0ED9     		bls	.L52
 108:..\..\..\lvgl\version_6.1.2\lvgl\src\lv_draw/lv_draw_img.c ****         buf_u8 += 4 * 2;
 498              		.loc 1 108 0
 499 0048 0728     		cmp	r0, #7
 500 004a 23D0     		beq	.L53
 118:..\..\..\lvgl\version_6.1.2\lvgl\src\lv_draw/lv_draw_img.c ****         buf_u8 += 4 * 4;
 501              		.loc 1 118 0
 502 004c 0828     		cmp	r0, #8
 503 004e 33D0     		beq	.L54
 128:..\..\..\lvgl\version_6.1.2\lvgl\src\lv_draw/lv_draw_img.c ****         buf_u8 += 4 * 16;
 504              		.loc 1 128 0
 505 0050 0928     		cmp	r0, #9
 506 0052 43D0     		beq	.L55
 138:..\..\..\lvgl\version_6.1.2\lvgl\src\lv_draw/lv_draw_img.c ****         buf_u8 += 4 * 256;
 507              		.loc 1 138 0
 508 0054 0A28     		cmp	r0, #10
 509 0056 54D0     		beq	.L56
 142:..\..\..\lvgl\version_6.1.2\lvgl\src\lv_draw/lv_draw_img.c ****               dsc->header.cf == LV_IMG_CF_ALPHA_4BIT || dsc->header.cf == LV_IMG_CF_ALPHA_8BIT) {
 510              		.loc 1 142 0
 511 0058 0B38     		subs	r0, r0, #11
 512 005a 0328     		cmp	r0, #3
 513 005c 15D8     		bhi	.L42
 144:..\..\..\lvgl\version_6.1.2\lvgl\src\lv_draw/lv_draw_img.c ****             p_color = style->image.color;
 514              		.loc 1 144 0
 515 005e A3B1     		cbz	r3, .L42
 145:..\..\..\lvgl\version_6.1.2\lvgl\src\lv_draw/lv_draw_img.c ****         else
 516              		.loc 1 145 0
 517 0060 1B6C     		ldr	r3, [r3, #64]
ARM GAS  C:\Users\pearlstl\AppData\Local\Temp\ccJvDP4q.s 			page 23


 518              	.LVL58:
 519 0062 0193     		str	r3, [sp, #4]
 520 0064 11E0     		b	.L42
 521              	.LVL59:
 522              	.L52:
 523              	.LBB67:
 102:..\..\..\lvgl\version_6.1.2\lvgl\src\lv_draw/lv_draw_img.c ****         uint32_t px     = dsc->header.w * y * px_size + x * px_size;
 524              		.loc 1 102 0
 525 0066 C4F30404 		ubfx	r4, r4, #0, #5
 526 006a 043C     		subs	r4, r4, #4
 527 006c E4B2     		uxtb	r4, r4
 528 006e 0A2C     		cmp	r4, #10
 529 0070 0ED8     		bhi	.L47
 530 0072 274B     		ldr	r3, .L57
 531              	.LVL60:
 532 0074 1B5D     		ldrb	r3, [r3, r4]	@ zero_extendqisi2
 533 0076 12FB0512 		smlabb	r2, r2, r5, r1
 534 007a D908     		lsrs	r1, r3, #3
 535 007c 02FB01F2 		mul	r2, r2, r1
 536              	.L41:
 537              	.LVL61:
 104:..\..\..\lvgl\version_6.1.2\lvgl\src\lv_draw/lv_draw_img.c **** #if LV_COLOR_SIZE == 32
 538              		.loc 1 104 0
 539 0080 B858     		ldr	r0, [r7, r2]	@ unaligned
 540 0082 0190     		str	r0, [sp, #4]	@ unaligned
 106:..\..\..\lvgl\version_6.1.2\lvgl\src\lv_draw/lv_draw_img.c **** #endif
 541              		.loc 1 106 0
 542 0084 FF23     		movs	r3, #255
 543 0086 8DF80730 		strb	r3, [sp, #7]
 544              	.LVL62:
 545              	.L42:
 546              	.LBE67:
 150:..\..\..\lvgl\version_6.1.2\lvgl\src\lv_draw/lv_draw_img.c **** 
 547              		.loc 1 150 0
 548 008a 0198     		ldr	r0, [sp, #4]
 549 008c 03B0     		add	sp, sp, #12
 550              		.cfi_remember_state
 551              		.cfi_def_cfa_offset 20
 552              		@ sp needed
 553 008e F0BD     		pop	{r4, r5, r6, r7, pc}
 554              	.LVL63:
 555              	.L47:
 556              		.cfi_restore_state
 557              	.LBB68:
 102:..\..\..\lvgl\version_6.1.2\lvgl\src\lv_draw/lv_draw_img.c ****         uint32_t px     = dsc->header.w * y * px_size + x * px_size;
 558              		.loc 1 102 0
 559 0090 0022     		movs	r2, #0
 560 0092 F5E7     		b	.L41
 561              	.LVL64:
 562              	.L53:
 563              	.LBE68:
 564              	.LBB69:
 117:..\..\..\lvgl\version_6.1.2\lvgl\src\lv_draw/lv_draw_img.c ****     } else if(dsc->header.cf == LV_IMG_CF_INDEXED_2BIT) {
 565              		.loc 1 117 0
 566 0094 F01D     		adds	r0, r6, #7
 567 0096 C310     		asrs	r3, r0, #3
 568              	.LVL65:
ARM GAS  C:\Users\pearlstl\AppData\Local\Temp\ccJvDP4q.s 			page 24


 569 0098 02FB0372 		mla	r2, r2, r3, r7
 570 009c 02EBE102 		add	r2, r2, r1, asr #3
 571 00a0 01F00701 		and	r1, r1, #7
 572 00a4 C1F10701 		rsb	r1, r1, #7
 573 00a8 127A     		ldrb	r2, [r2, #8]	@ zero_extendqisi2
 574 00aa 0123     		movs	r3, #1
 575 00ac 8B40     		lsls	r3, r3, r1
 576 00ae 1340     		ands	r3, r3, r2
 577 00b0 43FA01F1 		asr	r1, r3, r1
 578 00b4 0191     		str	r1, [sp, #4]
 579              	.LBE69:
 580 00b6 E8E7     		b	.L42
 581              	.LVL66:
 582              	.L54:
 583              	.LBB70:
 127:..\..\..\lvgl\version_6.1.2\lvgl\src\lv_draw/lv_draw_img.c ****     } else if(dsc->header.cf == LV_IMG_CF_INDEXED_4BIT) {
 584              		.loc 1 127 0
 585 00b8 F01C     		adds	r0, r6, #3
 586 00ba 8310     		asrs	r3, r0, #2
 587              	.LVL67:
 588 00bc 02FB0372 		mla	r2, r2, r3, r7
 589 00c0 02EBA102 		add	r2, r2, r1, asr #2
 590 00c4 01F00301 		and	r1, r1, #3
 591 00c8 4900     		lsls	r1, r1, #1
 592 00ca 137C     		ldrb	r3, [r2, #16]	@ zero_extendqisi2
 593 00cc C1F10601 		rsb	r1, r1, #6
 594 00d0 0322     		movs	r2, #3
 595 00d2 8A40     		lsls	r2, r2, r1
 596 00d4 1340     		ands	r3, r3, r2
 597 00d6 0B41     		asrs	r3, r3, r1
 598 00d8 0193     		str	r3, [sp, #4]
 599              	.LBE70:
 600 00da D6E7     		b	.L42
 601              	.LVL68:
 602              	.L55:
 603              	.LBB71:
 137:..\..\..\lvgl\version_6.1.2\lvgl\src\lv_draw/lv_draw_img.c ****     } else if(dsc->header.cf == LV_IMG_CF_INDEXED_8BIT) {
 604              		.loc 1 137 0
 605 00dc 701C     		adds	r0, r6, #1
 606 00de 4010     		asrs	r0, r0, #1
 607 00e0 02FB0073 		mla	r3, r2, r0, r7
 608              	.LVL69:
 609 00e4 03EB6103 		add	r3, r3, r1, asr #1
 610 00e8 01F00101 		and	r1, r1, #1
 611 00ec 8900     		lsls	r1, r1, #2
 612 00ee 93F84030 		ldrb	r3, [r3, #64]	@ zero_extendqisi2
 613 00f2 C1F10401 		rsb	r1, r1, #4
 614 00f6 0F22     		movs	r2, #15
 615 00f8 8A40     		lsls	r2, r2, r1
 616 00fa 1340     		ands	r3, r3, r2
 617 00fc 0B41     		asrs	r3, r3, r1
 618 00fe 0193     		str	r3, [sp, #4]
 619              	.LBE71:
 620 0100 C3E7     		b	.L42
 621              	.LVL70:
 622              	.L56:
 623              	.LBB72:
ARM GAS  C:\Users\pearlstl\AppData\Local\Temp\ccJvDP4q.s 			page 25


 141:..\..\..\lvgl\version_6.1.2\lvgl\src\lv_draw/lv_draw_img.c ****     } else if(dsc->header.cf == LV_IMG_CF_ALPHA_1BIT || dsc->header.cf == LV_IMG_CF_ALPHA_2BIT ||
 624              		.loc 1 141 0
 625 0102 12FB0512 		smlabb	r2, r2, r5, r1
 626 0106 BB18     		adds	r3, r7, r2
 627              	.LVL71:
 628 0108 93F80034 		ldrb	r3, [r3, #1024]	@ zero_extendqisi2
 629 010c 0193     		str	r3, [sp, #4]
 630              	.LBE72:
 631 010e BCE7     		b	.L42
 632              	.L58:
 633              		.align	2
 634              	.L57:
 635 0110 00000000 		.word	.LANCHOR0
 636              		.cfi_endproc
 637              	.LFE32:
 638              		.size	lv_img_buf_get_px_color, .-lv_img_buf_get_px_color
 639              		.section	.text.lv_img_buf_get_px_alpha,"ax",%progbits
 640              		.align	2
 641              		.global	lv_img_buf_get_px_alpha
 642              		.thumb
 643              		.thumb_func
 644              		.type	lv_img_buf_get_px_alpha, %function
 645              	lv_img_buf_get_px_alpha:
 646              	.LFB33:
 160:..\..\..\lvgl\version_6.1.2\lvgl\src\lv_draw/lv_draw_img.c ****     if(x >= (lv_coord_t)dsc->header.w) {
 647              		.loc 1 160 0
 648              		.cfi_startproc
 649              		@ args = 0, pretend = 0, frame = 16
 650              		@ frame_needed = 0, uses_anonymous_args = 0
 651              		@ link register save eliminated.
 652              	.LVL72:
 161:..\..\..\lvgl\version_6.1.2\lvgl\src\lv_draw/lv_draw_img.c ****         x = dsc->header.w - 1;
 653              		.loc 1 161 0
 654 0000 0368     		ldr	r3, [r0]
 160:..\..\..\lvgl\version_6.1.2\lvgl\src\lv_draw/lv_draw_img.c ****     if(x >= (lv_coord_t)dsc->header.w) {
 655              		.loc 1 160 0
 656 0002 F0B4     		push	{r4, r5, r6, r7}
 657              		.cfi_def_cfa_offset 16
 658              		.cfi_offset 4, -16
 659              		.cfi_offset 5, -12
 660              		.cfi_offset 6, -8
 661              		.cfi_offset 7, -4
 161:..\..\..\lvgl\version_6.1.2\lvgl\src\lv_draw/lv_draw_img.c ****         x = dsc->header.w - 1;
 662              		.loc 1 161 0
 663 0004 C3F38A25 		ubfx	r5, r3, #10, #11
 664 0008 ACB2     		uxth	r4, r5
 169:..\..\..\lvgl\version_6.1.2\lvgl\src\lv_draw/lv_draw_img.c ****         y = dsc->header.h - 1;
 665              		.loc 1 169 0
 666 000a 4388     		ldrh	r3, [r0, #2]
 177:..\..\..\lvgl\version_6.1.2\lvgl\src\lv_draw/lv_draw_img.c **** 
 667              		.loc 1 177 0
 668 000c 8668     		ldr	r6, [r0, #8]
 161:..\..\..\lvgl\version_6.1.2\lvgl\src\lv_draw/lv_draw_img.c ****         x = dsc->header.w - 1;
 669              		.loc 1 161 0
 670 000e A142     		cmp	r1, r4
 169:..\..\..\lvgl\version_6.1.2\lvgl\src\lv_draw/lv_draw_img.c ****         y = dsc->header.h - 1;
 671              		.loc 1 169 0
ARM GAS  C:\Users\pearlstl\AppData\Local\Temp\ccJvDP4q.s 			page 26


 672 0010 C3F34A13 		ubfx	r3, r3, #5, #11
 162:..\..\..\lvgl\version_6.1.2\lvgl\src\lv_draw/lv_draw_img.c ****         LV_LOG_WARN("lv_canvas_get_px: x is too large (out of canvas)");
 673              		.loc 1 162 0
 674 0014 A6BF     		itte	ge
 675 0016 04F1FF31 		addge	r1, r4, #-1
 676              	.LVL73:
 677 001a 09B2     		sxthge	r1, r1
 678              	.LVL74:
 679 001c 21EAE171 		biclt	r1, r1, r1, asr #31
 680              	.LVL75:
 169:..\..\..\lvgl\version_6.1.2\lvgl\src\lv_draw/lv_draw_img.c ****         y = dsc->header.h - 1;
 681              		.loc 1 169 0
 682 0020 9A42     		cmp	r2, r3
 170:..\..\..\lvgl\version_6.1.2\lvgl\src\lv_draw/lv_draw_img.c ****         LV_LOG_WARN("lv_canvas_get_px: y is too large (out of canvas)");
 683              		.loc 1 170 0
 684 0022 A4BF     		itt	ge
 685 0024 03F1FF33 		addge	r3, r3, #-1
 686 0028 1AB2     		sxthge	r2, r3
 687              	.LVL76:
 179:..\..\..\lvgl\version_6.1.2\lvgl\src\lv_draw/lv_draw_img.c ****         uint32_t px = dsc->header.w * y * LV_IMG_PX_SIZE_ALPHA_BYTE + x * LV_IMG_PX_SIZE_ALPHA_BYTE
 688              		.loc 1 179 0
 689 002a 0378     		ldrb	r3, [r0]	@ zero_extendqisi2
 690 002c 03F01F03 		and	r3, r3, #31
 691 0030 B8BF     		it	lt
 692 0032 22EAE272 		biclt	r2, r2, r2, asr #31
 693              	.LVL77:
 694 0036 052B     		cmp	r3, #5
 160:..\..\..\lvgl\version_6.1.2\lvgl\src\lv_draw/lv_draw_img.c ****     if(x >= (lv_coord_t)dsc->header.w) {
 695              		.loc 1 160 0
 696 0038 84B0     		sub	sp, sp, #16
 697              		.cfi_def_cfa_offset 32
 179:..\..\..\lvgl\version_6.1.2\lvgl\src\lv_draw/lv_draw_img.c ****         uint32_t px = dsc->header.w * y * LV_IMG_PX_SIZE_ALPHA_BYTE + x * LV_IMG_PX_SIZE_ALPHA_BYTE
 698              		.loc 1 179 0
 699 003a 3BD0     		beq	.L71
 182:..\..\..\lvgl\version_6.1.2\lvgl\src\lv_draw/lv_draw_img.c ****         uint8_t bit = x & 0x7;
 700              		.loc 1 182 0
 701 003c 0B2B     		cmp	r3, #11
 702 003e 0CD0     		beq	.L72
 192:..\..\..\lvgl\version_6.1.2\lvgl\src\lv_draw/lv_draw_img.c ****         const uint8_t opa_table[4] = {0, 85, 170, 255}; /*Opacity mapping with bpp = 2*/
 703              		.loc 1 192 0
 704 0040 0C2B     		cmp	r3, #12
 705 0042 1ED0     		beq	.L73
 204:..\..\..\lvgl\version_6.1.2\lvgl\src\lv_draw/lv_draw_img.c ****         const uint8_t opa_table[16] = {0,  17, 34,  51, /*Opacity mapping with bpp = 4*/
 706              		.loc 1 204 0
 707 0044 0D2B     		cmp	r3, #13
 708 0046 3DD0     		beq	.L74
 217:..\..\..\lvgl\version_6.1.2\lvgl\src\lv_draw/lv_draw_img.c ****         uint32_t px = dsc->header.w * y + x;
 709              		.loc 1 217 0
 710 0048 0E2B     		cmp	r3, #14
 711              	.LVL78:
 712              	.LBB73:
 219:..\..\..\lvgl\version_6.1.2\lvgl\src\lv_draw/lv_draw_img.c ****     }
 713              		.loc 1 219 0
 714 004a 0ABF     		itet	eq
 715 004c 12FB0511 		smlabbeq	r1, r2, r5, r1
 716              	.LVL79:
 717              	.LBE73:
ARM GAS  C:\Users\pearlstl\AppData\Local\Temp\ccJvDP4q.s 			page 27


 222:..\..\..\lvgl\version_6.1.2\lvgl\src\lv_draw/lv_draw_img.c **** }
 718              		.loc 1 222 0
 719 0050 FF20     		movne	r0, #255
 720              	.LVL80:
 721              	.LBB74:
 219:..\..\..\lvgl\version_6.1.2\lvgl\src\lv_draw/lv_draw_img.c ****     }
 722              		.loc 1 219 0
 723 0052 705C     		ldrbeq	r0, [r6, r1]	@ zero_extendqisi2
 724              	.LVL81:
 725              	.L65:
 726              	.LBE74:
 223:..\..\..\lvgl\version_6.1.2\lvgl\src\lv_draw/lv_draw_img.c **** 
 727              		.loc 1 223 0 discriminator 1
 728 0054 04B0     		add	sp, sp, #16
 729              		.cfi_remember_state
 730              		.cfi_def_cfa_offset 16
 731              		@ sp needed
 732 0056 F0BC     		pop	{r4, r5, r6, r7}
 733              		.cfi_restore 7
 734              		.cfi_restore 6
 735              		.cfi_restore 5
 736              		.cfi_restore 4
 737              		.cfi_def_cfa_offset 0
 738 0058 7047     		bx	lr
 739              	.LVL82:
 740              	.L72:
 741              		.cfi_restore_state
 742              	.LBB75:
 190:..\..\..\lvgl\version_6.1.2\lvgl\src\lv_draw/lv_draw_img.c ****         return px_opa ? LV_OPA_TRANSP : LV_OPA_COVER;
 743              		.loc 1 190 0
 744 005a E01D     		adds	r0, r4, #7
 745              	.LVL83:
 746 005c C010     		asrs	r0, r0, #3
 747 005e 02FB0062 		mla	r2, r2, r0, r6
 748              	.LVL84:
 749 0062 CB10     		asrs	r3, r1, #3
 750 0064 01F00701 		and	r1, r1, #7
 751              	.LVL85:
 191:..\..\..\lvgl\version_6.1.2\lvgl\src\lv_draw/lv_draw_img.c ****     } else if(dsc->header.cf == LV_IMG_CF_ALPHA_2BIT) {
 752              		.loc 1 191 0
 753 0068 D25C     		ldrb	r2, [r2, r3]	@ zero_extendqisi2
 190:..\..\..\lvgl\version_6.1.2\lvgl\src\lv_draw/lv_draw_img.c ****         return px_opa ? LV_OPA_TRANSP : LV_OPA_COVER;
 754              		.loc 1 190 0
 755 006a C1F10701 		rsb	r1, r1, #7
 756              	.LVL86:
 191:..\..\..\lvgl\version_6.1.2\lvgl\src\lv_draw/lv_draw_img.c ****     } else if(dsc->header.cf == LV_IMG_CF_ALPHA_2BIT) {
 757              		.loc 1 191 0
 758 006e 0123     		movs	r3, #1
 759 0070 8B40     		lsls	r3, r3, r1
 760 0072 1340     		ands	r3, r3, r2
 761 0074 0B41     		asrs	r3, r3, r1
 762 0076 0CBF     		ite	eq
 763 0078 FF20     		moveq	r0, #255
 764 007a 0020     		movne	r0, #0
 765              	.LBE75:
 223:..\..\..\lvgl\version_6.1.2\lvgl\src\lv_draw/lv_draw_img.c **** 
 766              		.loc 1 223 0
ARM GAS  C:\Users\pearlstl\AppData\Local\Temp\ccJvDP4q.s 			page 28


 767 007c 04B0     		add	sp, sp, #16
 768              		.cfi_remember_state
 769              		.cfi_def_cfa_offset 16
 770              		@ sp needed
 771 007e F0BC     		pop	{r4, r5, r6, r7}
 772              		.cfi_restore 4
 773              		.cfi_restore 5
 774              		.cfi_restore 6
 775              		.cfi_restore 7
 776              		.cfi_def_cfa_offset 0
 777              	.LVL87:
 778 0080 7047     		bx	lr
 779              	.LVL88:
 780              	.L73:
 781              		.cfi_restore_state
 782              	.LBB76:
 202:..\..\..\lvgl\version_6.1.2\lvgl\src\lv_draw/lv_draw_img.c ****         return opa_table[px_opa];
 783              		.loc 1 202 0
 784 0082 0334     		adds	r4, r4, #3
 785 0084 A410     		asrs	r4, r4, #2
 786 0086 02FB0462 		mla	r2, r2, r4, r6
 787              	.LVL89:
 788 008a 8B10     		asrs	r3, r1, #2
 789 008c 01F00301 		and	r1, r1, #3
 790              	.LVL90:
 791 0090 4900     		lsls	r1, r1, #1
 203:..\..\..\lvgl\version_6.1.2\lvgl\src\lv_draw/lv_draw_img.c ****     } else if(dsc->header.cf == LV_IMG_CF_ALPHA_4BIT) {
 792              		.loc 1 203 0
 793 0092 D35C     		ldrb	r3, [r2, r3]	@ zero_extendqisi2
 193:..\..\..\lvgl\version_6.1.2\lvgl\src\lv_draw/lv_draw_img.c **** 
 794              		.loc 1 193 0
 795 0094 1848     		ldr	r0, .L75
 796              	.LVL91:
 202:..\..\..\lvgl\version_6.1.2\lvgl\src\lv_draw/lv_draw_img.c ****         return opa_table[px_opa];
 797              		.loc 1 202 0
 798 0096 C1F10601 		rsb	r1, r1, #6
 203:..\..\..\lvgl\version_6.1.2\lvgl\src\lv_draw/lv_draw_img.c ****     } else if(dsc->header.cf == LV_IMG_CF_ALPHA_4BIT) {
 799              		.loc 1 203 0
 800 009a 0322     		movs	r2, #3
 801 009c 8A40     		lsls	r2, r2, r1
 802 009e 1340     		ands	r3, r3, r2
 803 00a0 0B41     		asrs	r3, r3, r1
 804 00a2 04AA     		add	r2, sp, #16
 193:..\..\..\lvgl\version_6.1.2\lvgl\src\lv_draw/lv_draw_img.c **** 
 805              		.loc 1 193 0
 806 00a4 0068     		ldr	r0, [r0]	@ unaligned
 807 00a6 0090     		str	r0, [sp]	@ unaligned
 808              	.LVL92:
 203:..\..\..\lvgl\version_6.1.2\lvgl\src\lv_draw/lv_draw_img.c ****     } else if(dsc->header.cf == LV_IMG_CF_ALPHA_4BIT) {
 809              		.loc 1 203 0
 810 00a8 1344     		add	r3, r3, r2
 811 00aa 13F8100C 		ldrb	r0, [r3, #-16]	@ zero_extendqisi2
 812              	.LBE76:
 223:..\..\..\lvgl\version_6.1.2\lvgl\src\lv_draw/lv_draw_img.c **** 
 813              		.loc 1 223 0
 814 00ae 04B0     		add	sp, sp, #16
 815              		.cfi_remember_state
ARM GAS  C:\Users\pearlstl\AppData\Local\Temp\ccJvDP4q.s 			page 29


 816              		.cfi_def_cfa_offset 16
 817              		@ sp needed
 818 00b0 F0BC     		pop	{r4, r5, r6, r7}
 819              		.cfi_restore 4
 820              		.cfi_restore 5
 821              		.cfi_restore 6
 822              		.cfi_restore 7
 823              		.cfi_def_cfa_offset 0
 824              	.LVL93:
 825 00b2 7047     		bx	lr
 826              	.LVL94:
 827              	.L71:
 828              		.cfi_restore_state
 829              	.LBB77:
 181:..\..\..\lvgl\version_6.1.2\lvgl\src\lv_draw/lv_draw_img.c ****     } else if(dsc->header.cf == LV_IMG_CF_ALPHA_1BIT) {
 830              		.loc 1 181 0
 831 00b4 12FB0511 		smlabb	r1, r2, r5, r1
 832              	.LVL95:
 833 00b8 06EB8102 		add	r2, r6, r1, lsl #2
 834              	.LVL96:
 835 00bc D078     		ldrb	r0, [r2, #3]	@ zero_extendqisi2
 836              	.LVL97:
 837              	.LBE77:
 223:..\..\..\lvgl\version_6.1.2\lvgl\src\lv_draw/lv_draw_img.c **** 
 838              		.loc 1 223 0
 839 00be 04B0     		add	sp, sp, #16
 840              		.cfi_remember_state
 841              		.cfi_def_cfa_offset 16
 842              		@ sp needed
 843 00c0 F0BC     		pop	{r4, r5, r6, r7}
 844              		.cfi_restore 4
 845              		.cfi_restore 5
 846              		.cfi_restore 6
 847              		.cfi_restore 7
 848              		.cfi_def_cfa_offset 0
 849              	.LVL98:
 850 00c2 7047     		bx	lr
 851              	.LVL99:
 852              	.L74:
 853              		.cfi_restore_state
 854              	.LBB78:
 215:..\..\..\lvgl\version_6.1.2\lvgl\src\lv_draw/lv_draw_img.c ****         return opa_table[px_opa];
 855              		.loc 1 215 0
 856 00c4 601C     		adds	r0, r4, #1
 857              	.LVL100:
 205:..\..\..\lvgl\version_6.1.2\lvgl\src\lv_draw/lv_draw_img.c ****                                        68, 85, 102, 119, 136, 153, 170, 187, 204, 221, 238, 255};
 858              		.loc 1 205 0
 859 00c6 0D4B     		ldr	r3, .L75+4
 215:..\..\..\lvgl\version_6.1.2\lvgl\src\lv_draw/lv_draw_img.c ****         return opa_table[px_opa];
 860              		.loc 1 215 0
 861 00c8 4010     		asrs	r0, r0, #1
 862 00ca 02FB0064 		mla	r4, r2, r0, r6
 863 00ce 4E10     		asrs	r6, r1, #1
 864              	.LVL101:
 865 00d0 01F00101 		and	r1, r1, #1
 866              	.LVL102:
 205:..\..\..\lvgl\version_6.1.2\lvgl\src\lv_draw/lv_draw_img.c ****                                        68, 85, 102, 119, 136, 153, 170, 187, 204, 221, 238, 255};
ARM GAS  C:\Users\pearlstl\AppData\Local\Temp\ccJvDP4q.s 			page 30


 867              		.loc 1 205 0
 868 00d4 1868     		ldr	r0, [r3]	@ unaligned
 869 00d6 9A68     		ldr	r2, [r3, #8]	@ unaligned
 870              	.LVL103:
 216:..\..\..\lvgl\version_6.1.2\lvgl\src\lv_draw/lv_draw_img.c ****     } else if(dsc->header.cf == LV_IMG_CF_ALPHA_8BIT) {
 871              		.loc 1 216 0
 872 00d8 A75D     		ldrb	r7, [r4, r6]	@ zero_extendqisi2
 215:..\..\..\lvgl\version_6.1.2\lvgl\src\lv_draw/lv_draw_img.c ****         return opa_table[px_opa];
 873              		.loc 1 215 0
 874 00da 8D00     		lsls	r5, r1, #2
 205:..\..\..\lvgl\version_6.1.2\lvgl\src\lv_draw/lv_draw_img.c ****                                        68, 85, 102, 119, 136, 153, 170, 187, 204, 221, 238, 255};
 875              		.loc 1 205 0
 876 00dc 5968     		ldr	r1, [r3, #4]	@ unaligned
 877 00de DB68     		ldr	r3, [r3, #12]	@ unaligned
 878 00e0 6E46     		mov	r6, sp
 879 00e2 0FC6     		stmia	r6!, {r0, r1, r2, r3}
 880              	.LVL104:
 215:..\..\..\lvgl\version_6.1.2\lvgl\src\lv_draw/lv_draw_img.c ****         return opa_table[px_opa];
 881              		.loc 1 215 0
 882 00e4 C5F10405 		rsb	r5, r5, #4
 883              	.LVL105:
 216:..\..\..\lvgl\version_6.1.2\lvgl\src\lv_draw/lv_draw_img.c ****     } else if(dsc->header.cf == LV_IMG_CF_ALPHA_8BIT) {
 884              		.loc 1 216 0
 885 00e8 0F24     		movs	r4, #15
 886 00ea AC40     		lsls	r4, r4, r5
 887 00ec 3C40     		ands	r4, r4, r7
 888 00ee 2C41     		asrs	r4, r4, r5
 889 00f0 3444     		add	r4, r4, r6
 890 00f2 14F8100C 		ldrb	r0, [r4, #-16]	@ zero_extendqisi2
 891 00f6 ADE7     		b	.L65
 892              	.L76:
 893              		.align	2
 894              	.L75:
 895 00f8 0C000000 		.word	.LANCHOR0+12
 896 00fc 10000000 		.word	.LANCHOR0+16
 897              	.LBE78:
 898              		.cfi_endproc
 899              	.LFE33:
 900              		.size	lv_img_buf_get_px_alpha, .-lv_img_buf_get_px_alpha
 901              		.section	.text.lv_img_buf_set_px_color,"ax",%progbits
 902              		.align	2
 903              		.global	lv_img_buf_set_px_color
 904              		.thumb
 905              		.thumb_func
 906              		.type	lv_img_buf_set_px_color, %function
 907              	lv_img_buf_set_px_color:
 908              	.LFB34:
 233:..\..\..\lvgl\version_6.1.2\lvgl\src\lv_draw/lv_draw_img.c ****     uint8_t * buf_u8 = (uint8_t *)dsc->data;
 909              		.loc 1 233 0
 910              		.cfi_startproc
 911              		@ args = 0, pretend = 0, frame = 8
 912              		@ frame_needed = 0, uses_anonymous_args = 0
 913              	.LVL106:
 914 0000 70B5     		push	{r4, r5, r6, lr}
 915              		.cfi_def_cfa_offset 16
 916              		.cfi_offset 4, -16
 917              		.cfi_offset 5, -12
ARM GAS  C:\Users\pearlstl\AppData\Local\Temp\ccJvDP4q.s 			page 31


 918              		.cfi_offset 6, -8
 919              		.cfi_offset 14, -4
 236:..\..\..\lvgl\version_6.1.2\lvgl\src\lv_draw/lv_draw_img.c ****         uint8_t px_size = lv_img_color_format_get_px_size(dsc->header.cf) >> 3;
 920              		.loc 1 236 0
 921 0002 0478     		ldrb	r4, [r0]	@ zero_extendqisi2
 234:..\..\..\lvgl\version_6.1.2\lvgl\src\lv_draw/lv_draw_img.c **** 
 922              		.loc 1 234 0
 923 0004 8568     		ldr	r5, [r0, #8]
 924              	.LVL107:
 233:..\..\..\lvgl\version_6.1.2\lvgl\src\lv_draw/lv_draw_img.c ****     uint8_t * buf_u8 = (uint8_t *)dsc->data;
 925              		.loc 1 233 0
 926 0006 82B0     		sub	sp, sp, #8
 927              		.cfi_def_cfa_offset 24
 236:..\..\..\lvgl\version_6.1.2\lvgl\src\lv_draw/lv_draw_img.c ****         uint8_t px_size = lv_img_color_format_get_px_size(dsc->header.cf) >> 3;
 928              		.loc 1 236 0
 929 0008 04F01D06 		and	r6, r4, #29
 930 000c 042E     		cmp	r6, #4
 233:..\..\..\lvgl\version_6.1.2\lvgl\src\lv_draw/lv_draw_img.c ****     uint8_t * buf_u8 = (uint8_t *)dsc->data;
 931              		.loc 1 233 0
 932 000e 0193     		str	r3, [sp, #4]
 236:..\..\..\lvgl\version_6.1.2\lvgl\src\lv_draw/lv_draw_img.c ****         uint8_t px_size = lv_img_color_format_get_px_size(dsc->header.cf) >> 3;
 933              		.loc 1 236 0
 934 0010 14D0     		beq	.L90
 935 0012 04F01F06 		and	r6, r4, #31
 240:..\..\..\lvgl\version_6.1.2\lvgl\src\lv_draw/lv_draw_img.c ****         uint8_t px_size = lv_img_color_format_get_px_size(dsc->header.cf) >> 3;
 936              		.loc 1 240 0
 937 0016 052E     		cmp	r6, #5
 938 0018 27D0     		beq	.L91
 244:..\..\..\lvgl\version_6.1.2\lvgl\src\lv_draw/lv_draw_img.c ****         buf_u8 += sizeof(lv_color32_t) * 2; /*Skip the palette*/
 939              		.loc 1 244 0
 940 001a 072E     		cmp	r6, #7
 941 001c 33D0     		beq	.L92
 256:..\..\..\lvgl\version_6.1.2\lvgl\src\lv_draw/lv_draw_img.c ****         buf_u8 += sizeof(lv_color32_t) * 4; /*Skip the palette*/
 942              		.loc 1 256 0
 943 001e 082E     		cmp	r6, #8
 944 0020 49D0     		beq	.L93
 268:..\..\..\lvgl\version_6.1.2\lvgl\src\lv_draw/lv_draw_img.c ****         buf_u8 += sizeof(lv_color32_t) * 16; /*Skip the palette*/
 945              		.loc 1 268 0
 946 0022 092E     		cmp	r6, #9
 947 0024 65D0     		beq	.L94
 279:..\..\..\lvgl\version_6.1.2\lvgl\src\lv_draw/lv_draw_img.c ****         buf_u8 += sizeof(lv_color32_t) * 256; /*Skip the palette*/
 948              		.loc 1 279 0
 949 0026 0A2E     		cmp	r6, #10
 950 0028 1DD1     		bne	.L77
 951              	.LVL108:
 952              	.LBB79:
 281:..\..\..\lvgl\version_6.1.2\lvgl\src\lv_draw/lv_draw_img.c ****         buf_u8[px]  = c.full;
 953              		.loc 1 281 0
 954 002a 0068     		ldr	r0, [r0]
 955              	.LVL109:
 956 002c C0F38A20 		ubfx	r0, r0, #10, #11
 957              	.LVL110:
 282:..\..\..\lvgl\version_6.1.2\lvgl\src\lv_draw/lv_draw_img.c ****     }
 958              		.loc 1 282 0
 959 0030 12FB0011 		smlabb	r1, r2, r0, r1
 960              	.LVL111:
 961 0034 0D44     		add	r5, r5, r1
ARM GAS  C:\Users\pearlstl\AppData\Local\Temp\ccJvDP4q.s 			page 32


 962              	.LVL112:
 963 0036 85F80034 		strb	r3, [r5, #1024]
 964              	.LVL113:
 965              	.LBE79:
 284:..\..\..\lvgl\version_6.1.2\lvgl\src\lv_draw/lv_draw_img.c **** 
 966              		.loc 1 284 0
 967 003a 14E0     		b	.L77
 968              	.LVL114:
 969              	.L90:
 970              	.LBB80:
 237:..\..\..\lvgl\version_6.1.2\lvgl\src\lv_draw/lv_draw_img.c ****         uint32_t px     = dsc->header.w * y * px_size + x * px_size;
 971              		.loc 1 237 0
 972 003c C4F30404 		ubfx	r4, r4, #0, #5
 973 0040 043C     		subs	r4, r4, #4
 974 0042 E4B2     		uxtb	r4, r4
 975 0044 0A2C     		cmp	r4, #10
 976 0046 1BD8     		bhi	.L86
 977 0048 324B     		ldr	r3, .L95
 978 004a 1C5D     		ldrb	r4, [r3, r4]	@ zero_extendqisi2
 979 004c E408     		lsrs	r4, r4, #3
 980 004e 2646     		mov	r6, r4
 981              	.LVL115:
 982              	.L82:
 983              	.LBE80:
 984              	.LBB81:
 242:..\..\..\lvgl\version_6.1.2\lvgl\src\lv_draw/lv_draw_img.c ****         memcpy(&buf_u8[px], &c, px_size - 1); /*-1 to not overwrite the alpha value*/
 985              		.loc 1 242 0
 986 0050 0368     		ldr	r3, [r0]
 987 0052 C3F38A23 		ubfx	r3, r3, #10, #11
 988              	.LVL116:
 243:..\..\..\lvgl\version_6.1.2\lvgl\src\lv_draw/lv_draw_img.c ****     } else if(dsc->header.cf == LV_IMG_CF_INDEXED_1BIT) {
 989              		.loc 1 243 0
 990 0056 12FB0310 		smlabb	r0, r2, r3, r1
 991              	.LVL117:
 992 005a 04FB0050 		mla	r0, r4, r0, r5
 993 005e 3246     		mov	r2, r6
 994              	.LVL118:
 995 0060 01A9     		add	r1, sp, #4
 996              	.LVL119:
 997 0062 FFF7FEFF 		bl	memcpy
 998              	.LVL120:
 999              	.L77:
 1000              	.LBE81:
 284:..\..\..\lvgl\version_6.1.2\lvgl\src\lv_draw/lv_draw_img.c **** 
 1001              		.loc 1 284 0
 1002 0066 02B0     		add	sp, sp, #8
 1003              		.cfi_remember_state
 1004              		.cfi_def_cfa_offset 16
 1005              		@ sp needed
 1006 0068 70BD     		pop	{r4, r5, r6, pc}
 1007              	.LVL121:
 1008              	.L91:
 1009              		.cfi_restore_state
 1010              	.LBB82:
 241:..\..\..\lvgl\version_6.1.2\lvgl\src\lv_draw/lv_draw_img.c ****         uint32_t px     = dsc->header.w * y * px_size + x * px_size;
 1011              		.loc 1 241 0
 1012 006a C4F30404 		ubfx	r4, r4, #0, #5
ARM GAS  C:\Users\pearlstl\AppData\Local\Temp\ccJvDP4q.s 			page 33


 1013 006e 043C     		subs	r4, r4, #4
 1014 0070 E4B2     		uxtb	r4, r4
 1015 0072 0A2C     		cmp	r4, #10
 1016 0074 39D8     		bhi	.L87
 1017 0076 274B     		ldr	r3, .L95
 1018 0078 1C5D     		ldrb	r4, [r3, r4]	@ zero_extendqisi2
 1019 007a E408     		lsrs	r4, r4, #3
 1020 007c 661E     		subs	r6, r4, #1
 1021 007e E7E7     		b	.L82
 1022              	.LVL122:
 1023              	.L86:
 1024              	.LBE82:
 1025              	.LBB83:
 237:..\..\..\lvgl\version_6.1.2\lvgl\src\lv_draw/lv_draw_img.c ****         uint32_t px     = dsc->header.w * y * px_size + x * px_size;
 1026              		.loc 1 237 0
 1027 0080 0026     		movs	r6, #0
 1028 0082 3446     		mov	r4, r6
 1029 0084 E4E7     		b	.L82
 1030              	.LVL123:
 1031              	.L92:
 1032              	.LBE83:
 1033              	.LBB84:
 253:..\..\..\lvgl\version_6.1.2\lvgl\src\lv_draw/lv_draw_img.c ****         buf_u8[px]  = buf_u8[px] & ~(1 << (7 - bit));
 1034              		.loc 1 253 0
 1035 0086 0068     		ldr	r0, [r0]
 1036              	.LVL124:
 254:..\..\..\lvgl\version_6.1.2\lvgl\src\lv_draw/lv_draw_img.c ****         buf_u8[px]  = buf_u8[px] | ((c.full & 0x1) << (7 - bit));
 1037              		.loc 1 254 0
 1038 0088 C0F38A20 		ubfx	r0, r0, #10, #11
 1039 008c 0730     		adds	r0, r0, #7
 1040 008e CC10     		asrs	r4, r1, #3
 1041 0090 C010     		asrs	r0, r0, #3
 1042 0092 02FB0042 		mla	r2, r2, r0, r4
 1043              	.LVL125:
 1044 0096 0832     		adds	r2, r2, #8
 1045 0098 01F00701 		and	r1, r1, #7
 1046              	.LVL126:
 1047 009c C1F10701 		rsb	r1, r1, #7
 255:..\..\..\lvgl\version_6.1.2\lvgl\src\lv_draw/lv_draw_img.c ****     } else if(dsc->header.cf == LV_IMG_CF_INDEXED_2BIT) {
 1048              		.loc 1 255 0
 1049 00a0 0124     		movs	r4, #1
 1050 00a2 A85C     		ldrb	r0, [r5, r2]	@ zero_extendqisi2
 1051 00a4 2340     		ands	r3, r3, r4
 1052 00a6 8C40     		lsls	r4, r4, r1
 1053 00a8 03FA01F1 		lsl	r1, r3, r1
 1054 00ac 20EA0403 		bic	r3, r0, r4
 1055 00b0 0B43     		orrs	r3, r3, r1
 1056 00b2 AB54     		strb	r3, [r5, r2]
 1057              	.LVL127:
 1058              	.LBE84:
 1059 00b4 D7E7     		b	.L77
 1060              	.LVL128:
 1061              	.L93:
 1062              	.LBB85:
 264:..\..\..\lvgl\version_6.1.2\lvgl\src\lv_draw/lv_draw_img.c **** 
 1063              		.loc 1 264 0
 1064 00b6 0068     		ldr	r0, [r0]
ARM GAS  C:\Users\pearlstl\AppData\Local\Temp\ccJvDP4q.s 			page 34


 1065              	.LVL129:
 266:..\..\..\lvgl\version_6.1.2\lvgl\src\lv_draw/lv_draw_img.c ****         buf_u8[px] = buf_u8[px] | ((c.full & 0x3) << (6 - bit));
 1066              		.loc 1 266 0
 1067 00b8 C0F38A20 		ubfx	r0, r0, #10, #11
 1068 00bc 0330     		adds	r0, r0, #3
 1069 00be 8C10     		asrs	r4, r1, #2
 1070 00c0 8010     		asrs	r0, r0, #2
 1071 00c2 01F00301 		and	r1, r1, #3
 1072              	.LVL130:
 1073 00c6 02FB0042 		mla	r2, r2, r0, r4
 1074              	.LVL131:
 1075 00ca 4900     		lsls	r1, r1, #1
 1076 00cc 1032     		adds	r2, r2, #16
 1077 00ce C1F10601 		rsb	r1, r1, #6
 267:..\..\..\lvgl\version_6.1.2\lvgl\src\lv_draw/lv_draw_img.c ****     } else if(dsc->header.cf == LV_IMG_CF_INDEXED_4BIT) {
 1078              		.loc 1 267 0
 1079 00d2 0324     		movs	r4, #3
 1080              	.LVL132:
 1081              	.L89:
 1082              	.LBE85:
 1083              	.LBB86:
 278:..\..\..\lvgl\version_6.1.2\lvgl\src\lv_draw/lv_draw_img.c ****     } else if(dsc->header.cf == LV_IMG_CF_INDEXED_8BIT) {
 1084              		.loc 1 278 0
 1085 00d4 A85C     		ldrb	r0, [r5, r2]	@ zero_extendqisi2
 1086 00d6 2340     		ands	r3, r3, r4
 1087 00d8 8C40     		lsls	r4, r4, r1
 1088 00da 20EA0400 		bic	r0, r0, r4
 1089 00de 03FA01F1 		lsl	r1, r3, r1
 1090 00e2 0143     		orrs	r1, r1, r0
 1091 00e4 A954     		strb	r1, [r5, r2]
 1092              	.LBE86:
 284:..\..\..\lvgl\version_6.1.2\lvgl\src\lv_draw/lv_draw_img.c **** 
 1093              		.loc 1 284 0
 1094 00e6 02B0     		add	sp, sp, #8
 1095              		.cfi_remember_state
 1096              		.cfi_def_cfa_offset 16
 1097              		@ sp needed
 1098 00e8 70BD     		pop	{r4, r5, r6, pc}
 1099              	.LVL133:
 1100              	.L87:
 1101              		.cfi_restore_state
 1102              	.LBB87:
 241:..\..\..\lvgl\version_6.1.2\lvgl\src\lv_draw/lv_draw_img.c ****         uint32_t px     = dsc->header.w * y * px_size + x * px_size;
 1103              		.loc 1 241 0
 1104 00ea 4FF0FF36 		mov	r6, #-1
 1105 00ee 0024     		movs	r4, #0
 1106 00f0 AEE7     		b	.L82
 1107              	.LVL134:
 1108              	.L94:
 1109              	.LBE87:
 1110              	.LBB88:
 276:..\..\..\lvgl\version_6.1.2\lvgl\src\lv_draw/lv_draw_img.c ****         buf_u8[px]  = buf_u8[px] & ~(0xF << (4 - bit));
 1111              		.loc 1 276 0
 1112 00f2 0068     		ldr	r0, [r0]
 1113              	.LVL135:
 277:..\..\..\lvgl\version_6.1.2\lvgl\src\lv_draw/lv_draw_img.c ****         buf_u8[px]  = buf_u8[px] | ((c.full & 0xF) << (4 - bit));
 1114              		.loc 1 277 0
ARM GAS  C:\Users\pearlstl\AppData\Local\Temp\ccJvDP4q.s 			page 35


 1115 00f4 C0F38A20 		ubfx	r0, r0, #10, #11
 1116 00f8 0130     		adds	r0, r0, #1
 1117 00fa 4C10     		asrs	r4, r1, #1
 1118 00fc 4010     		asrs	r0, r0, #1
 1119 00fe 01F00101 		and	r1, r1, #1
 1120              	.LVL136:
 1121 0102 02FB0042 		mla	r2, r2, r0, r4
 1122              	.LVL137:
 1123 0106 8900     		lsls	r1, r1, #2
 1124 0108 4032     		adds	r2, r2, #64
 1125 010a C1F10401 		rsb	r1, r1, #4
 278:..\..\..\lvgl\version_6.1.2\lvgl\src\lv_draw/lv_draw_img.c ****     } else if(dsc->header.cf == LV_IMG_CF_INDEXED_8BIT) {
 1126              		.loc 1 278 0
 1127 010e 0F24     		movs	r4, #15
 1128 0110 E0E7     		b	.L89
 1129              	.L96:
 1130 0112 00BF     		.align	2
 1131              	.L95:
 1132 0114 00000000 		.word	.LANCHOR0
 1133              	.LBE88:
 1134              		.cfi_endproc
 1135              	.LFE34:
 1136              		.size	lv_img_buf_set_px_color, .-lv_img_buf_set_px_color
 1137              		.section	.text.lv_img_buf_set_px_alpha,"ax",%progbits
 1138              		.align	2
 1139              		.global	lv_img_buf_set_px_alpha
 1140              		.thumb
 1141              		.thumb_func
 1142              		.type	lv_img_buf_set_px_alpha, %function
 1143              	lv_img_buf_set_px_alpha:
 1144              	.LFB35:
 294:..\..\..\lvgl\version_6.1.2\lvgl\src\lv_draw/lv_draw_img.c ****     uint8_t * buf_u8 = (uint8_t *)dsc->data;
 1145              		.loc 1 294 0
 1146              		.cfi_startproc
 1147              		@ args = 0, pretend = 0, frame = 0
 1148              		@ frame_needed = 0, uses_anonymous_args = 0
 1149              		@ link register save eliminated.
 1150              	.LVL138:
 1151 0000 70B4     		push	{r4, r5, r6}
 1152              		.cfi_def_cfa_offset 12
 1153              		.cfi_offset 4, -12
 1154              		.cfi_offset 5, -8
 1155              		.cfi_offset 6, -4
 297:..\..\..\lvgl\version_6.1.2\lvgl\src\lv_draw/lv_draw_img.c ****         uint8_t px_size          = lv_img_color_format_get_px_size(dsc->header.cf) >> 3;
 1156              		.loc 1 297 0
 1157 0002 0478     		ldrb	r4, [r0]	@ zero_extendqisi2
 295:..\..\..\lvgl\version_6.1.2\lvgl\src\lv_draw/lv_draw_img.c **** 
 1158              		.loc 1 295 0
 1159 0004 8668     		ldr	r6, [r0, #8]
 1160              	.LVL139:
 297:..\..\..\lvgl\version_6.1.2\lvgl\src\lv_draw/lv_draw_img.c ****         uint8_t px_size          = lv_img_color_format_get_px_size(dsc->header.cf) >> 3;
 1161              		.loc 1 297 0
 1162 0006 04F01F05 		and	r5, r4, #31
 1163 000a 052D     		cmp	r5, #5
 1164 000c 0FD0     		beq	.L107
 301:..\..\..\lvgl\version_6.1.2\lvgl\src\lv_draw/lv_draw_img.c ****         opa         = opa >> 7; /*opa -> [0,1]*/
 1165              		.loc 1 301 0
ARM GAS  C:\Users\pearlstl\AppData\Local\Temp\ccJvDP4q.s 			page 36


 1166 000e 0B2D     		cmp	r5, #11
 1167 0010 3ED0     		beq	.L108
 312:..\..\..\lvgl\version_6.1.2\lvgl\src\lv_draw/lv_draw_img.c ****         opa         = opa >> 6; /*opa -> [0,3]*/
 1168              		.loc 1 312 0
 1169 0012 0C2D     		cmp	r5, #12
 1170 0014 1FD0     		beq	.L109
 323:..\..\..\lvgl\version_6.1.2\lvgl\src\lv_draw/lv_draw_img.c ****         opa         = opa >> 4; /*opa -> [0,15]*/
 1171              		.loc 1 323 0
 1172 0016 0D2D     		cmp	r5, #13
 1173 0018 52D0     		beq	.L110
 334:..\..\..\lvgl\version_6.1.2\lvgl\src\lv_draw/lv_draw_img.c ****         uint32_t px = dsc->header.w * y + x;
 1174              		.loc 1 334 0
 1175 001a 0E2D     		cmp	r5, #14
 1176 001c 05D1     		bne	.L97
 1177              	.LBB89:
 335:..\..\..\lvgl\version_6.1.2\lvgl\src\lv_draw/lv_draw_img.c ****         buf_u8[px]  = opa;
 1178              		.loc 1 335 0
 1179 001e 0068     		ldr	r0, [r0]
 1180              	.LVL140:
 1181 0020 C0F38A20 		ubfx	r0, r0, #10, #11
 1182              	.LVL141:
 336:..\..\..\lvgl\version_6.1.2\lvgl\src\lv_draw/lv_draw_img.c ****     }
 1183              		.loc 1 336 0
 1184 0024 12FB0012 		smlabb	r2, r2, r0, r1
 1185              	.LVL142:
 1186 0028 B354     		strb	r3, [r6, r2]
 1187              	.LVL143:
 1188              	.L97:
 1189              	.LBE89:
 338:..\..\..\lvgl\version_6.1.2\lvgl\src\lv_draw/lv_draw_img.c **** 
 1190              		.loc 1 338 0
 1191 002a 70BC     		pop	{r4, r5, r6}
 1192              		.cfi_remember_state
 1193              		.cfi_restore 6
 1194              		.cfi_restore 5
 1195              		.cfi_restore 4
 1196              		.cfi_def_cfa_offset 0
 1197              	.LVL144:
 1198 002c 7047     		bx	lr
 1199              	.LVL145:
 1200              	.L107:
 1201              		.cfi_restore_state
 1202              	.LBB90:
 298:..\..\..\lvgl\version_6.1.2\lvgl\src\lv_draw/lv_draw_img.c ****         uint32_t px              = dsc->header.w * y * px_size + x * px_size;
 1203              		.loc 1 298 0
 1204 002e C4F30404 		ubfx	r4, r4, #0, #5
 1205 0032 043C     		subs	r4, r4, #4
 1206 0034 E4B2     		uxtb	r4, r4
 1207 0036 0A2C     		cmp	r4, #10
 1208 0038 26D8     		bhi	.L104
 1209 003a 2A4D     		ldr	r5, .L111
 1210 003c 2C5D     		ldrb	r4, [r5, r4]	@ zero_extendqisi2
 1211 003e E408     		lsrs	r4, r4, #3
 1212 0040 651E     		subs	r5, r4, #1
 1213              	.L99:
 1214              	.LVL146:
 299:..\..\..\lvgl\version_6.1.2\lvgl\src\lv_draw/lv_draw_img.c ****         buf_u8[px + px_size - 1] = opa;
ARM GAS  C:\Users\pearlstl\AppData\Local\Temp\ccJvDP4q.s 			page 37


 1215              		.loc 1 299 0
 1216 0042 0068     		ldr	r0, [r0]
 1217              	.LVL147:
 1218 0044 C0F38A20 		ubfx	r0, r0, #10, #11
 1219              	.LVL148:
 300:..\..\..\lvgl\version_6.1.2\lvgl\src\lv_draw/lv_draw_img.c ****     } else if(dsc->header.cf == LV_IMG_CF_ALPHA_1BIT) {
 1220              		.loc 1 300 0
 1221 0048 12FB0012 		smlabb	r2, r2, r0, r1
 1222              	.LVL149:
 1223 004c 04FB0261 		mla	r1, r4, r2, r6
 1224              	.LVL150:
 1225 0050 4B55     		strb	r3, [r1, r5]
 1226              	.LBE90:
 338:..\..\..\lvgl\version_6.1.2\lvgl\src\lv_draw/lv_draw_img.c **** 
 1227              		.loc 1 338 0
 1228 0052 70BC     		pop	{r4, r5, r6}
 1229              		.cfi_remember_state
 1230              		.cfi_restore 4
 1231              		.cfi_restore 5
 1232              		.cfi_restore 6
 1233              		.cfi_def_cfa_offset 0
 1234              	.LVL151:
 1235 0054 7047     		bx	lr
 1236              	.LVL152:
 1237              	.L109:
 1238              		.cfi_restore_state
 1239              	.LBB91:
 320:..\..\..\lvgl\version_6.1.2\lvgl\src\lv_draw/lv_draw_img.c ****         buf_u8[px]  = buf_u8[px] & ~(3 << (6 - bit));
 1240              		.loc 1 320 0
 1241 0056 0068     		ldr	r0, [r0]
 1242              	.LVL153:
 321:..\..\..\lvgl\version_6.1.2\lvgl\src\lv_draw/lv_draw_img.c ****         buf_u8[px]  = buf_u8[px] | ((opa & 0x3) << (6 - bit));
 1243              		.loc 1 321 0
 1244 0058 C0F38A20 		ubfx	r0, r0, #10, #11
 1245 005c 0330     		adds	r0, r0, #3
 1246 005e 8C10     		asrs	r4, r1, #2
 1247 0060 8010     		asrs	r0, r0, #2
 1248 0062 02FB0042 		mla	r2, r2, r0, r4
 1249              	.LVL154:
 1250 0066 01F00301 		and	r1, r1, #3
 1251              	.LVL155:
 1252 006a 4900     		lsls	r1, r1, #1
 322:..\..\..\lvgl\version_6.1.2\lvgl\src\lv_draw/lv_draw_img.c ****     } else if(dsc->header.cf == LV_IMG_CF_ALPHA_4BIT) {
 1253              		.loc 1 322 0
 1254 006c B05C     		ldrb	r0, [r6, r2]	@ zero_extendqisi2
 321:..\..\..\lvgl\version_6.1.2\lvgl\src\lv_draw/lv_draw_img.c ****         buf_u8[px]  = buf_u8[px] | ((opa & 0x3) << (6 - bit));
 1255              		.loc 1 321 0
 1256 006e C1F10601 		rsb	r1, r1, #6
 322:..\..\..\lvgl\version_6.1.2\lvgl\src\lv_draw/lv_draw_img.c ****     } else if(dsc->header.cf == LV_IMG_CF_ALPHA_4BIT) {
 1257              		.loc 1 322 0
 1258 0072 0324     		movs	r4, #3
 1259 0074 9B09     		lsrs	r3, r3, #6
 1260              	.LVL156:
 1261              	.L106:
 1262              	.LBE91:
 1263              	.LBB92:
 333:..\..\..\lvgl\version_6.1.2\lvgl\src\lv_draw/lv_draw_img.c ****     } else if(dsc->header.cf == LV_IMG_CF_ALPHA_8BIT) {
ARM GAS  C:\Users\pearlstl\AppData\Local\Temp\ccJvDP4q.s 			page 38


 1264              		.loc 1 333 0
 1265 0076 8C40     		lsls	r4, r4, r1
 1266 0078 03FA01F1 		lsl	r1, r3, r1
 1267 007c 20EA0403 		bic	r3, r0, r4
 1268 0080 1943     		orrs	r1, r1, r3
 1269 0082 B154     		strb	r1, [r6, r2]
 1270              	.LBE92:
 338:..\..\..\lvgl\version_6.1.2\lvgl\src\lv_draw/lv_draw_img.c **** 
 1271              		.loc 1 338 0
 1272 0084 70BC     		pop	{r4, r5, r6}
 1273              		.cfi_remember_state
 1274              		.cfi_restore 4
 1275              		.cfi_restore 5
 1276              		.cfi_restore 6
 1277              		.cfi_def_cfa_offset 0
 1278              	.LVL157:
 1279 0086 7047     		bx	lr
 1280              	.LVL158:
 1281              	.L104:
 1282              		.cfi_restore_state
 1283              	.LBB93:
 298:..\..\..\lvgl\version_6.1.2\lvgl\src\lv_draw/lv_draw_img.c ****         uint32_t px              = dsc->header.w * y * px_size + x * px_size;
 1284              		.loc 1 298 0
 1285 0088 4FF0FF35 		mov	r5, #-1
 1286 008c 0024     		movs	r4, #0
 1287 008e D8E7     		b	.L99
 1288              	.LVL159:
 1289              	.L108:
 1290              	.LBE93:
 1291              	.LBB94:
 309:..\..\..\lvgl\version_6.1.2\lvgl\src\lv_draw/lv_draw_img.c ****         buf_u8[px]  = buf_u8[px] & ~(1 << (7 - bit));
 1292              		.loc 1 309 0
 1293 0090 0068     		ldr	r0, [r0]
 1294              	.LVL160:
 310:..\..\..\lvgl\version_6.1.2\lvgl\src\lv_draw/lv_draw_img.c ****         buf_u8[px]  = buf_u8[px] | ((opa & 0x1) << (7 - bit));
 1295              		.loc 1 310 0
 1296 0092 C0F38A20 		ubfx	r0, r0, #10, #11
 1297 0096 0730     		adds	r0, r0, #7
 1298 0098 CC10     		asrs	r4, r1, #3
 1299 009a C010     		asrs	r0, r0, #3
 1300 009c 02FB0042 		mla	r2, r2, r0, r4
 1301              	.LVL161:
 1302 00a0 01F00701 		and	r1, r1, #7
 1303              	.LVL162:
 311:..\..\..\lvgl\version_6.1.2\lvgl\src\lv_draw/lv_draw_img.c ****     } else if(dsc->header.cf == LV_IMG_CF_ALPHA_2BIT) {
 1304              		.loc 1 311 0
 1305 00a4 B05C     		ldrb	r0, [r6, r2]	@ zero_extendqisi2
 310:..\..\..\lvgl\version_6.1.2\lvgl\src\lv_draw/lv_draw_img.c ****         buf_u8[px]  = buf_u8[px] | ((opa & 0x1) << (7 - bit));
 1306              		.loc 1 310 0
 1307 00a6 C1F10701 		rsb	r1, r1, #7
 311:..\..\..\lvgl\version_6.1.2\lvgl\src\lv_draw/lv_draw_img.c ****     } else if(dsc->header.cf == LV_IMG_CF_ALPHA_2BIT) {
 1308              		.loc 1 311 0
 1309 00aa 0124     		movs	r4, #1
 1310 00ac 8C40     		lsls	r4, r4, r1
 1311 00ae DB09     		lsrs	r3, r3, #7
 1312              	.LVL163:
 1313 00b0 03FA01F1 		lsl	r1, r3, r1
ARM GAS  C:\Users\pearlstl\AppData\Local\Temp\ccJvDP4q.s 			page 39


 1314 00b4 20EA0403 		bic	r3, r0, r4
 1315 00b8 0B43     		orrs	r3, r3, r1
 1316 00ba B354     		strb	r3, [r6, r2]
 1317              	.LVL164:
 1318              	.LBE94:
 338:..\..\..\lvgl\version_6.1.2\lvgl\src\lv_draw/lv_draw_img.c **** 
 1319              		.loc 1 338 0
 1320 00bc 70BC     		pop	{r4, r5, r6}
 1321              		.cfi_remember_state
 1322              		.cfi_restore 4
 1323              		.cfi_restore 5
 1324              		.cfi_restore 6
 1325              		.cfi_def_cfa_offset 0
 1326              	.LVL165:
 1327 00be 7047     		bx	lr
 1328              	.LVL166:
 1329              	.L110:
 1330              		.cfi_restore_state
 1331              	.LBB95:
 331:..\..\..\lvgl\version_6.1.2\lvgl\src\lv_draw/lv_draw_img.c ****         buf_u8[px]  = buf_u8[px] & ~(0xF << (4 - bit));
 1332              		.loc 1 331 0
 1333 00c0 0068     		ldr	r0, [r0]
 1334              	.LVL167:
 332:..\..\..\lvgl\version_6.1.2\lvgl\src\lv_draw/lv_draw_img.c ****         buf_u8[px]  = buf_u8[px] | ((opa & 0xF) << (4 - bit));
 1335              		.loc 1 332 0
 1336 00c2 C0F38A20 		ubfx	r0, r0, #10, #11
 1337 00c6 0130     		adds	r0, r0, #1
 1338 00c8 4C10     		asrs	r4, r1, #1
 1339 00ca 4010     		asrs	r0, r0, #1
 1340 00cc 02FB0042 		mla	r2, r2, r0, r4
 1341              	.LVL168:
 1342 00d0 01F00101 		and	r1, r1, #1
 1343              	.LVL169:
 1344 00d4 8900     		lsls	r1, r1, #2
 1345 00d6 C1F10401 		rsb	r1, r1, #4
 333:..\..\..\lvgl\version_6.1.2\lvgl\src\lv_draw/lv_draw_img.c ****     } else if(dsc->header.cf == LV_IMG_CF_ALPHA_8BIT) {
 1346              		.loc 1 333 0
 1347 00da 0F24     		movs	r4, #15
 1348 00dc B05C     		ldrb	r0, [r6, r2]	@ zero_extendqisi2
 1349 00de 1B09     		lsrs	r3, r3, #4
 1350              	.LVL170:
 1351 00e0 C9E7     		b	.L106
 1352              	.L112:
 1353 00e2 00BF     		.align	2
 1354              	.L111:
 1355 00e4 00000000 		.word	.LANCHOR0
 1356              	.LBE95:
 1357              		.cfi_endproc
 1358              	.LFE35:
 1359              		.size	lv_img_buf_set_px_alpha, .-lv_img_buf_set_px_alpha
 1360              		.section	.text.lv_img_buf_set_palette,"ax",%progbits
 1361              		.align	2
 1362              		.global	lv_img_buf_set_palette
 1363              		.thumb
 1364              		.thumb_func
 1365              		.type	lv_img_buf_set_palette, %function
 1366              	lv_img_buf_set_palette:
ARM GAS  C:\Users\pearlstl\AppData\Local\Temp\ccJvDP4q.s 			page 40


 1367              	.LFB36:
 351:..\..\..\lvgl\version_6.1.2\lvgl\src\lv_draw/lv_draw_img.c ****     if((dsc->header.cf == LV_IMG_CF_ALPHA_1BIT && id > 1) || (dsc->header.cf == LV_IMG_CF_ALPHA_2BI
 1368              		.loc 1 351 0
 1369              		.cfi_startproc
 1370              		@ args = 0, pretend = 0, frame = 8
 1371              		@ frame_needed = 0, uses_anonymous_args = 0
 1372              		@ link register save eliminated.
 1373              	.LVL171:
 1374 0000 10B4     		push	{r4}
 1375              		.cfi_def_cfa_offset 4
 1376              		.cfi_offset 4, -4
 352:..\..\..\lvgl\version_6.1.2\lvgl\src\lv_draw/lv_draw_img.c ****        (dsc->header.cf == LV_IMG_CF_ALPHA_4BIT && id > 15) || (dsc->header.cf == LV_IMG_CF_ALPHA_8B
 1377              		.loc 1 352 0
 1378 0002 0378     		ldrb	r3, [r0]	@ zero_extendqisi2
 1379 0004 03F01F03 		and	r3, r3, #31
 1380 0008 0B2B     		cmp	r3, #11
 351:..\..\..\lvgl\version_6.1.2\lvgl\src\lv_draw/lv_draw_img.c ****     if((dsc->header.cf == LV_IMG_CF_ALPHA_1BIT && id > 1) || (dsc->header.cf == LV_IMG_CF_ALPHA_2BI
 1381              		.loc 1 351 0
 1382 000a 83B0     		sub	sp, sp, #12
 1383              		.cfi_def_cfa_offset 16
 352:..\..\..\lvgl\version_6.1.2\lvgl\src\lv_draw/lv_draw_img.c ****        (dsc->header.cf == LV_IMG_CF_ALPHA_4BIT && id > 15) || (dsc->header.cf == LV_IMG_CF_ALPHA_8B
 1384              		.loc 1 352 0
 1385 000c 16D0     		beq	.L125
 352:..\..\..\lvgl\version_6.1.2\lvgl\src\lv_draw/lv_draw_img.c ****        (dsc->header.cf == LV_IMG_CF_ALPHA_4BIT && id > 15) || (dsc->header.cf == LV_IMG_CF_ALPHA_8B
 1386              		.loc 1 352 0 is_stmt 0 discriminator 3
 1387 000e 0C2B     		cmp	r3, #12
 1388 0010 07D0     		beq	.L126
 352:..\..\..\lvgl\version_6.1.2\lvgl\src\lv_draw/lv_draw_img.c ****        (dsc->header.cf == LV_IMG_CF_ALPHA_4BIT && id > 15) || (dsc->header.cf == LV_IMG_CF_ALPHA_8B
 1389              		.loc 1 352 0 discriminator 6
 1390 0012 0D2B     		cmp	r3, #13
 1391 0014 18D0     		beq	.L127
 353:..\..\..\lvgl\version_6.1.2\lvgl\src\lv_draw/lv_draw_img.c ****         LV_LOG_WARN("lv_img_buf_set_px_alpha: invalid 'id'");
 1392              		.loc 1 353 0 is_stmt 1 discriminator 1
 1393 0016 0E2B     		cmp	r3, #14
 1394 0018 05D1     		bne	.L116
 1395              	.L113:
 362:..\..\..\lvgl\version_6.1.2\lvgl\src\lv_draw/lv_draw_img.c **** 
 1396              		.loc 1 362 0
 1397 001a 03B0     		add	sp, sp, #12
 1398              		.cfi_remember_state
 1399              		.cfi_def_cfa_offset 4
 1400              		@ sp needed
 1401 001c 5DF8044B 		ldr	r4, [sp], #4
 1402              		.cfi_restore 4
 1403              		.cfi_def_cfa_offset 0
 1404 0020 7047     		bx	lr
 1405              	.L126:
 1406              		.cfi_restore_state
 352:..\..\..\lvgl\version_6.1.2\lvgl\src\lv_draw/lv_draw_img.c ****        (dsc->header.cf == LV_IMG_CF_ALPHA_4BIT && id > 15) || (dsc->header.cf == LV_IMG_CF_ALPHA_8B
 1407              		.loc 1 352 0 discriminator 4
 1408 0022 0329     		cmp	r1, #3
 1409 0024 F9D8     		bhi	.L113
 1410              	.L116:
 1411              	.LVL172:
 359:..\..\..\lvgl\version_6.1.2\lvgl\src\lv_draw/lv_draw_img.c ****     uint8_t * buf = (uint8_t *)dsc->data;
 1412              		.loc 1 359 0
 1413 0026 02AB     		add	r3, sp, #8
ARM GAS  C:\Users\pearlstl\AppData\Local\Temp\ccJvDP4q.s 			page 41


 361:..\..\..\lvgl\version_6.1.2\lvgl\src\lv_draw/lv_draw_img.c **** }
 1414              		.loc 1 361 0
 1415 0028 8468     		ldr	r4, [r0, #8]
 359:..\..\..\lvgl\version_6.1.2\lvgl\src\lv_draw/lv_draw_img.c ****     uint8_t * buf = (uint8_t *)dsc->data;
 1416              		.loc 1 359 0
 1417 002a 43F8042D 		str	r2, [r3, #-4]!
 1418              	.LVL173:
 361:..\..\..\lvgl\version_6.1.2\lvgl\src\lv_draw/lv_draw_img.c **** }
 1419              		.loc 1 361 0
 1420 002e 1868     		ldr	r0, [r3]	@ unaligned
 1421              	.LVL174:
 1422 0030 44F82100 		str	r0, [r4, r1, lsl #2]	@ unaligned
 1423              	.LVL175:
 362:..\..\..\lvgl\version_6.1.2\lvgl\src\lv_draw/lv_draw_img.c **** 
 1424              		.loc 1 362 0
 1425 0034 03B0     		add	sp, sp, #12
 1426              		.cfi_remember_state
 1427              		.cfi_def_cfa_offset 4
 1428              		@ sp needed
 1429 0036 5DF8044B 		ldr	r4, [sp], #4
 1430              		.cfi_restore 4
 1431              		.cfi_def_cfa_offset 0
 1432 003a 7047     		bx	lr
 1433              	.LVL176:
 1434              	.L125:
 1435              		.cfi_restore_state
 352:..\..\..\lvgl\version_6.1.2\lvgl\src\lv_draw/lv_draw_img.c ****        (dsc->header.cf == LV_IMG_CF_ALPHA_4BIT && id > 15) || (dsc->header.cf == LV_IMG_CF_ALPHA_8B
 1436              		.loc 1 352 0 discriminator 1
 1437 003c 0129     		cmp	r1, #1
 1438 003e F2D9     		bls	.L116
 362:..\..\..\lvgl\version_6.1.2\lvgl\src\lv_draw/lv_draw_img.c **** 
 1439              		.loc 1 362 0
 1440 0040 03B0     		add	sp, sp, #12
 1441              		.cfi_remember_state
 1442              		.cfi_def_cfa_offset 4
 1443              		@ sp needed
 1444 0042 5DF8044B 		ldr	r4, [sp], #4
 1445              		.cfi_restore 4
 1446              		.cfi_def_cfa_offset 0
 1447 0046 7047     		bx	lr
 1448              	.L127:
 1449              		.cfi_restore_state
 353:..\..\..\lvgl\version_6.1.2\lvgl\src\lv_draw/lv_draw_img.c ****         LV_LOG_WARN("lv_img_buf_set_px_alpha: invalid 'id'");
 1450              		.loc 1 353 0
 1451 0048 0F29     		cmp	r1, #15
 1452 004a E6D8     		bhi	.L113
 1453 004c EBE7     		b	.L116
 1454              		.cfi_endproc
 1455              	.LFE36:
 1456              		.size	lv_img_buf_set_palette, .-lv_img_buf_set_palette
 1457 004e 00BF     		.section	.text.lv_img_color_format_get_px_size,"ax",%progbits
 1458              		.align	2
 1459              		.global	lv_img_color_format_get_px_size
 1460              		.thumb
 1461              		.thumb_func
 1462              		.type	lv_img_color_format_get_px_size, %function
 1463              	lv_img_color_format_get_px_size:
ARM GAS  C:\Users\pearlstl\AppData\Local\Temp\ccJvDP4q.s 			page 42


 1464              	.LFB37:
 370:..\..\..\lvgl\version_6.1.2\lvgl\src\lv_draw/lv_draw_img.c ****     uint8_t px_size = 0;
 1465              		.loc 1 370 0
 1466              		.cfi_startproc
 1467              		@ args = 0, pretend = 0, frame = 0
 1468              		@ frame_needed = 0, uses_anonymous_args = 0
 1469              		@ link register save eliminated.
 1470              	.LVL177:
 1471 0000 0438     		subs	r0, r0, #4
 1472              	.LVL178:
 1473 0002 C0B2     		uxtb	r0, r0
 1474 0004 0A28     		cmp	r0, #10
 1475 0006 9ABF     		itte	ls
 1476 0008 014B     		ldrls	r3, .L131
 1477 000a 185C     		ldrbls	r0, [r3, r0]	@ zero_extendqisi2
 370:..\..\..\lvgl\version_6.1.2\lvgl\src\lv_draw/lv_draw_img.c ****     uint8_t px_size = 0;
 1478              		.loc 1 370 0
 1479 000c 0020     		movhi	r0, #0
 1480              	.LVL179:
 391:..\..\..\lvgl\version_6.1.2\lvgl\src\lv_draw/lv_draw_img.c **** 
 1481              		.loc 1 391 0
 1482 000e 7047     		bx	lr
 1483              	.L132:
 1484              		.align	2
 1485              	.L131:
 1486 0010 00000000 		.word	.LANCHOR0
 1487              		.cfi_endproc
 1488              	.LFE37:
 1489              		.size	lv_img_color_format_get_px_size, .-lv_img_color_format_get_px_size
 1490              		.section	.text.lv_img_color_format_is_chroma_keyed,"ax",%progbits
 1491              		.align	2
 1492              		.global	lv_img_color_format_is_chroma_keyed
 1493              		.thumb
 1494              		.thumb_func
 1495              		.type	lv_img_color_format_is_chroma_keyed, %function
 1496              	lv_img_color_format_is_chroma_keyed:
 1497              	.LFB38:
 399:..\..\..\lvgl\version_6.1.2\lvgl\src\lv_draw/lv_draw_img.c ****     bool is_chroma_keyed = false;
 1498              		.loc 1 399 0
 1499              		.cfi_startproc
 1500              		@ args = 0, pretend = 0, frame = 0
 1501              		@ frame_needed = 0, uses_anonymous_args = 0
 1502              		@ link register save eliminated.
 1503              	.LVL180:
 1504 0000 0A28     		cmp	r0, #10
 1505 0002 08D8     		bhi	.L135
 1506 0004 0123     		movs	r3, #1
 1507 0006 03FA00F0 		lsl	r0, r3, r0
 1508              	.LVL181:
 1509 000a 10F4F96F 		tst	r0, #1992
 1510 000e 14BF     		ite	ne
 1511 0010 1846     		movne	r0, r3
 1512 0012 0020     		moveq	r0, #0
 1513 0014 7047     		bx	lr
 1514              	.LVL182:
 1515              	.L135:
 413:..\..\..\lvgl\version_6.1.2\lvgl\src\lv_draw/lv_draw_img.c ****     }
ARM GAS  C:\Users\pearlstl\AppData\Local\Temp\ccJvDP4q.s 			page 43


 1516              		.loc 1 413 0
 1517 0016 0020     		movs	r0, #0
 1518              	.LVL183:
 417:..\..\..\lvgl\version_6.1.2\lvgl\src\lv_draw/lv_draw_img.c **** 
 1519              		.loc 1 417 0
 1520 0018 7047     		bx	lr
 1521              		.cfi_endproc
 1522              	.LFE38:
 1523              		.size	lv_img_color_format_is_chroma_keyed, .-lv_img_color_format_is_chroma_keyed
 1524 001a 00BF     		.section	.text.lv_img_color_format_has_alpha,"ax",%progbits
 1525              		.align	2
 1526              		.global	lv_img_color_format_has_alpha
 1527              		.thumb
 1528              		.thumb_func
 1529              		.type	lv_img_color_format_has_alpha, %function
 1530              	lv_img_color_format_has_alpha:
 1531              	.LFB39:
 425:..\..\..\lvgl\version_6.1.2\lvgl\src\lv_draw/lv_draw_img.c ****     bool has_alpha = false;
 1532              		.loc 1 425 0
 1533              		.cfi_startproc
 1534              		@ args = 0, pretend = 0, frame = 0
 1535              		@ frame_needed = 0, uses_anonymous_args = 0
 1536              		@ link register save eliminated.
 1537              	.LVL184:
 1538 0000 0E28     		cmp	r0, #14
 1539 0002 08D8     		bhi	.L138
 1540 0004 0123     		movs	r3, #1
 1541 0006 8340     		lsls	r3, r3, r0
 1542 0008 47F6A470 		movw	r0, #32676
 1543              	.LVL185:
 1544 000c 1840     		ands	r0, r0, r3
 1545 000e 0030     		adds	r0, r0, #0
 1546 0010 18BF     		it	ne
 1547 0012 0120     		movne	r0, #1
 1548 0014 7047     		bx	lr
 1549              	.LVL186:
 1550              	.L138:
 439:..\..\..\lvgl\version_6.1.2\lvgl\src\lv_draw/lv_draw_img.c ****     }
 1551              		.loc 1 439 0
 1552 0016 0020     		movs	r0, #0
 1553              	.LVL187:
 443:..\..\..\lvgl\version_6.1.2\lvgl\src\lv_draw/lv_draw_img.c **** 
 1554              		.loc 1 443 0
 1555 0018 7047     		bx	lr
 1556              		.cfi_endproc
 1557              	.LFE39:
 1558              		.size	lv_img_color_format_has_alpha, .-lv_img_color_format_has_alpha
 1559 001a 00BF     		.section	.text.lv_img_src_get_type,"ax",%progbits
 1560              		.align	2
 1561              		.global	lv_img_src_get_type
 1562              		.thumb
 1563              		.thumb_func
 1564              		.type	lv_img_src_get_type, %function
 1565              	lv_img_src_get_type:
 1566              	.LFB40:
 454:..\..\..\lvgl\version_6.1.2\lvgl\src\lv_draw/lv_draw_img.c ****     lv_img_src_t img_src_type = LV_IMG_SRC_UNKNOWN;
 1567              		.loc 1 454 0
ARM GAS  C:\Users\pearlstl\AppData\Local\Temp\ccJvDP4q.s 			page 44


 1568              		.cfi_startproc
 1569              		@ args = 0, pretend = 0, frame = 0
 1570              		@ frame_needed = 0, uses_anonymous_args = 0
 1571              		@ link register save eliminated.
 1572              	.LVL188:
 457:..\..\..\lvgl\version_6.1.2\lvgl\src\lv_draw/lv_draw_img.c ****     const uint8_t * u8_p = src;
 1573              		.loc 1 457 0
 1574 0000 60B1     		cbz	r0, .L141
 1575              	.LVL189:
 461:..\..\..\lvgl\version_6.1.2\lvgl\src\lv_draw/lv_draw_img.c ****         img_src_type = LV_IMG_SRC_FILE; /*If it's an ASCII character then it's file name*/
 1576              		.loc 1 461 0
 1577 0002 0378     		ldrb	r3, [r0]	@ zero_extendqisi2
 1578 0004 A3F12002 		sub	r2, r3, #32
 1579 0008 5F2A     		cmp	r2, #95
 1580 000a 05D9     		bls	.L142
 463:..\..\..\lvgl\version_6.1.2\lvgl\src\lv_draw/lv_draw_img.c ****         img_src_type = LV_IMG_SRC_SYMBOL; /*Symbols begins after 0x7F*/
 1581              		.loc 1 463 0
 1582 000c 13F0800F 		tst	r3, #128
 466:..\..\..\lvgl\version_6.1.2\lvgl\src\lv_draw/lv_draw_img.c ****     }
 1583              		.loc 1 466 0
 1584 0010 14BF     		ite	ne
 1585 0012 0220     		movne	r0, #2
 1586              	.LVL190:
 1587 0014 0020     		moveq	r0, #0
 1588 0016 7047     		bx	lr
 1589              	.LVL191:
 1590              	.L142:
 462:..\..\..\lvgl\version_6.1.2\lvgl\src\lv_draw/lv_draw_img.c ****     } else if(u8_p[0] >= 0x80) {
 1591              		.loc 1 462 0
 1592 0018 0120     		movs	r0, #1
 1593              	.LVL192:
 474:..\..\..\lvgl\version_6.1.2\lvgl\src\lv_draw/lv_draw_img.c **** 
 1594              		.loc 1 474 0
 1595 001a 7047     		bx	lr
 1596              	.LVL193:
 1597              	.L141:
 457:..\..\..\lvgl\version_6.1.2\lvgl\src\lv_draw/lv_draw_img.c ****     const uint8_t * u8_p = src;
 1598              		.loc 1 457 0
 1599 001c 0320     		movs	r0, #3
 1600              	.LVL194:
 1601 001e 7047     		bx	lr
 1602              		.cfi_endproc
 1603              	.LFE40:
 1604              		.size	lv_img_src_get_type, .-lv_img_src_get_type
 1605              		.section	.text.lv_img_buf_alloc,"ax",%progbits
 1606              		.align	2
 1607              		.global	lv_img_buf_alloc
 1608              		.thumb
 1609              		.thumb_func
 1610              		.type	lv_img_buf_alloc, %function
 1611              	lv_img_buf_alloc:
 1612              	.LFB41:
 477:..\..\..\lvgl\version_6.1.2\lvgl\src\lv_draw/lv_draw_img.c ****     /* Allocate image descriptor */
 1613              		.loc 1 477 0
 1614              		.cfi_startproc
 1615              		@ args = 0, pretend = 0, frame = 8
 1616              		@ frame_needed = 0, uses_anonymous_args = 0
ARM GAS  C:\Users\pearlstl\AppData\Local\Temp\ccJvDP4q.s 			page 45


 1617              	.LVL195:
 1618 0000 F0B5     		push	{r4, r5, r6, r7, lr}
 1619              		.cfi_def_cfa_offset 20
 1620              		.cfi_offset 4, -20
 1621              		.cfi_offset 5, -16
 1622              		.cfi_offset 6, -12
 1623              		.cfi_offset 7, -8
 1624              		.cfi_offset 14, -4
 1625 0002 0546     		mov	r5, r0
 1626 0004 83B0     		sub	sp, sp, #12
 1627              		.cfi_def_cfa_offset 32
 479:..\..\..\lvgl\version_6.1.2\lvgl\src\lv_draw/lv_draw_img.c ****     if(dsc == NULL)
 1628              		.loc 1 479 0
 1629 0006 0C20     		movs	r0, #12
 1630              	.LVL196:
 477:..\..\..\lvgl\version_6.1.2\lvgl\src\lv_draw/lv_draw_img.c ****     /* Allocate image descriptor */
 1631              		.loc 1 477 0
 1632 0008 0E46     		mov	r6, r1
 1633 000a 1746     		mov	r7, r2
 479:..\..\..\lvgl\version_6.1.2\lvgl\src\lv_draw/lv_draw_img.c ****     if(dsc == NULL)
 1634              		.loc 1 479 0
 1635 000c FFF7FEFF 		bl	lv_mem_alloc
 1636              	.LVL197:
 480:..\..\..\lvgl\version_6.1.2\lvgl\src\lv_draw/lv_draw_img.c ****         return NULL;
 1637              		.loc 1 480 0
 1638 0010 0446     		mov	r4, r0
 1639 0012 0028     		cmp	r0, #0
 1640 0014 6CD0     		beq	.L170
 483:..\..\..\lvgl\version_6.1.2\lvgl\src\lv_draw/lv_draw_img.c ****     
 1641              		.loc 1 483 0
 1642 0016 0022     		movs	r2, #0
 1643              	.LBB98:
 1644              	.LBB99:
 520:..\..\..\lvgl\version_6.1.2\lvgl\src\lv_draw/lv_draw_img.c ****         case LV_IMG_CF_TRUE_COLOR: return LV_IMG_BUF_SIZE_TRUE_COLOR(w, h);
 1645              		.loc 1 520 0
 1646 0018 3B1F     		subs	r3, r7, #4
 1647              	.LBE99:
 1648              	.LBE98:
 483:..\..\..\lvgl\version_6.1.2\lvgl\src\lv_draw/lv_draw_img.c ****     
 1649              		.loc 1 483 0
 1650 001a 0260     		str	r2, [r0]	@ unaligned
 1651 001c 4260     		str	r2, [r0, #4]	@ unaligned
 1652 001e 8260     		str	r2, [r0, #8]	@ unaligned
 1653              	.LVL198:
 1654              	.LBB102:
 1655              	.LBB100:
 520:..\..\..\lvgl\version_6.1.2\lvgl\src\lv_draw/lv_draw_img.c ****         case LV_IMG_CF_TRUE_COLOR: return LV_IMG_BUF_SIZE_TRUE_COLOR(w, h);
 1656              		.loc 1 520 0
 1657 0020 0A2B     		cmp	r3, #10
 1658 0022 60D8     		bhi	.L146
 1659 0024 DFE803F0 		tbb	[pc, r3]
 1660              	.L148:
 1661 0028 06       		.byte	(.L150-.L148)/2
 1662 0029 06       		.byte	(.L150-.L148)/2
 1663 002a 06       		.byte	(.L150-.L148)/2
 1664 002b 2E       		.byte	(.L151-.L148)/2
 1665 002c 37       		.byte	(.L152-.L148)/2
ARM GAS  C:\Users\pearlstl\AppData\Local\Temp\ccJvDP4q.s 			page 46


 1666 002d 40       		.byte	(.L153-.L148)/2
 1667 002e 47       		.byte	(.L154-.L148)/2
 1668 002f 4C       		.byte	(.L155-.L148)/2
 1669 0030 54       		.byte	(.L156-.L148)/2
 1670 0031 28       		.byte	(.L157-.L148)/2
 1671 0032 5C       		.byte	(.L158-.L148)/2
 1672 0033 00       		.p2align 1
 1673              	.L150:
 523:..\..\..\lvgl\version_6.1.2\lvgl\src\lv_draw/lv_draw_img.c ****         case LV_IMG_CF_ALPHA_1BIT: return LV_IMG_BUF_SIZE_ALPHA_1BIT(w, h);
 1674              		.loc 1 523 0
 1675 0034 A800     		lsls	r0, r5, #2
 1676              	.LVL199:
 1677 0036 06FB00F0 		mul	r0, r6, r0
 1678              	.L159:
 1679              	.LVL200:
 1680              	.LBE100:
 1681              	.LBE102:
 486:..\..\..\lvgl\version_6.1.2\lvgl\src\lv_draw/lv_draw_img.c ****     if(dsc->data_size == 0) {
 1682              		.loc 1 486 0
 1683 003a 6060     		str	r0, [r4, #4]
 487:..\..\..\lvgl\version_6.1.2\lvgl\src\lv_draw/lv_draw_img.c ****         lv_mem_free(dsc);
 1684              		.loc 1 487 0
 1685 003c 0028     		cmp	r0, #0
 1686 003e 54D0     		beq	.L166
 493:..\..\..\lvgl\version_6.1.2\lvgl\src\lv_draw/lv_draw_img.c ****     if(dsc->data == NULL) {
 1687              		.loc 1 493 0
 1688 0040 FFF7FEFF 		bl	lv_mem_alloc
 1689              	.LVL201:
 1690 0044 A060     		str	r0, [r4, #8]
 494:..\..\..\lvgl\version_6.1.2\lvgl\src\lv_draw/lv_draw_img.c ****         lv_mem_free(dsc);
 1691              		.loc 1 494 0
 1692 0046 0028     		cmp	r0, #0
 1693 0048 55D0     		beq	.L171
 498:..\..\..\lvgl\version_6.1.2\lvgl\src\lv_draw/lv_draw_img.c ****     
 1694              		.loc 1 498 0
 1695 004a 6268     		ldr	r2, [r4, #4]
 1696 004c 0021     		movs	r1, #0
 1697 004e FFF7FEFF 		bl	memset
 1698              	.LVL202:
 501:..\..\..\lvgl\version_6.1.2\lvgl\src\lv_draw/lv_draw_img.c ****     dsc->header.w = w;
 1699              		.loc 1 501 0
 1700 0052 2378     		ldrb	r3, [r4]	@ zero_extendqisi2
 1701 0054 6FF34713 		bfc	r3, #5, #3
 1702 0058 2370     		strb	r3, [r4]
 502:..\..\..\lvgl\version_6.1.2\lvgl\src\lv_draw/lv_draw_img.c ****     dsc->header.h = h;
 1703              		.loc 1 502 0
 1704 005a 2368     		ldr	r3, [r4]
 1705 005c 65F39423 		bfi	r3, r5, #10, #11
 503:..\..\..\lvgl\version_6.1.2\lvgl\src\lv_draw/lv_draw_img.c ****     dsc->header.cf = cf;
 1706              		.loc 1 503 0
 1707 0060 190C     		lsrs	r1, r3, #16
 504:..\..\..\lvgl\version_6.1.2\lvgl\src\lv_draw/lv_draw_img.c ****     return dsc;
 1708              		.loc 1 504 0
 1709 0062 1A46     		mov	r2, r3
 503:..\..\..\lvgl\version_6.1.2\lvgl\src\lv_draw/lv_draw_img.c ****     dsc->header.cf = cf;
 1710              		.loc 1 503 0
 1711 0064 66F34F11 		bfi	r1, r6, #5, #11
ARM GAS  C:\Users\pearlstl\AppData\Local\Temp\ccJvDP4q.s 			page 47


 504:..\..\..\lvgl\version_6.1.2\lvgl\src\lv_draw/lv_draw_img.c ****     return dsc;
 1712              		.loc 1 504 0
 1713 0068 67F30402 		bfi	r2, r7, #0, #5
 502:..\..\..\lvgl\version_6.1.2\lvgl\src\lv_draw/lv_draw_img.c ****     dsc->header.h = h;
 1714              		.loc 1 502 0
 1715 006c 2360     		str	r3, [r4]
 505:..\..\..\lvgl\version_6.1.2\lvgl\src\lv_draw/lv_draw_img.c **** }
 1716              		.loc 1 505 0
 1717 006e 2046     		mov	r0, r4
 503:..\..\..\lvgl\version_6.1.2\lvgl\src\lv_draw/lv_draw_img.c ****     dsc->header.cf = cf;
 1718              		.loc 1 503 0
 1719 0070 6180     		strh	r1, [r4, #2]	@ movhi
 504:..\..\..\lvgl\version_6.1.2\lvgl\src\lv_draw/lv_draw_img.c ****     return dsc;
 1720              		.loc 1 504 0
 1721 0072 2270     		strb	r2, [r4]
 1722              	.L168:
 506:..\..\..\lvgl\version_6.1.2\lvgl\src\lv_draw/lv_draw_img.c **** 
 1723              		.loc 1 506 0
 1724 0074 03B0     		add	sp, sp, #12
 1725              		.cfi_remember_state
 1726              		.cfi_def_cfa_offset 20
 1727              		@ sp needed
 1728 0076 F0BD     		pop	{r4, r5, r6, r7, pc}
 1729              	.LVL203:
 1730              	.L157:
 1731              		.cfi_restore_state
 1732              	.LBB103:
 1733              	.LBB101:
 526:..\..\..\lvgl\version_6.1.2\lvgl\src\lv_draw/lv_draw_img.c ****         case LV_IMG_CF_ALPHA_8BIT: return LV_IMG_BUF_SIZE_ALPHA_8BIT(w, h);
 1734              		.loc 1 526 0
 1735 0078 05EBD570 		add	r0, r5, r5, lsr #31
 1736              	.LVL204:
 1737 007c 4010     		asrs	r0, r0, #1
 1738 007e 00FB0660 		mla	r0, r0, r6, r6
 1739 0082 DAE7     		b	.L159
 1740              	.LVL205:
 1741              	.L151:
 528:..\..\..\lvgl\version_6.1.2\lvgl\src\lv_draw/lv_draw_img.c ****         case LV_IMG_CF_INDEXED_2BIT: return LV_IMG_BUF_SIZE_INDEXED_2BIT(w, h);
 1742              		.loc 1 528 0
 1743 0084 002D     		cmp	r5, #0
 1744 0086 2846     		mov	r0, r5
 1745              	.LVL206:
 1746 0088 B8BF     		it	lt
 1747 008a E81D     		addlt	r0, r5, #7
 1748 008c C010     		asrs	r0, r0, #3
 1749 008e 00FB0660 		mla	r0, r0, r6, r6
 1750 0092 0830     		adds	r0, r0, #8
 1751 0094 D1E7     		b	.L159
 1752              	.LVL207:
 1753              	.L152:
 529:..\..\..\lvgl\version_6.1.2\lvgl\src\lv_draw/lv_draw_img.c ****         case LV_IMG_CF_INDEXED_4BIT: return LV_IMG_BUF_SIZE_INDEXED_4BIT(w, h);
 1754              		.loc 1 529 0
 1755 0096 002D     		cmp	r5, #0
 1756 0098 2846     		mov	r0, r5
 1757              	.LVL208:
 1758 009a B8BF     		it	lt
 1759 009c E81C     		addlt	r0, r5, #3
ARM GAS  C:\Users\pearlstl\AppData\Local\Temp\ccJvDP4q.s 			page 48


 1760 009e 8010     		asrs	r0, r0, #2
 1761 00a0 00FB0660 		mla	r0, r0, r6, r6
 1762 00a4 1030     		adds	r0, r0, #16
 1763 00a6 C8E7     		b	.L159
 1764              	.LVL209:
 1765              	.L153:
 530:..\..\..\lvgl\version_6.1.2\lvgl\src\lv_draw/lv_draw_img.c ****         case LV_IMG_CF_INDEXED_8BIT: return LV_IMG_BUF_SIZE_INDEXED_8BIT(w, h);
 1766              		.loc 1 530 0
 1767 00a8 05EBD570 		add	r0, r5, r5, lsr #31
 1768              	.LVL210:
 1769 00ac 4010     		asrs	r0, r0, #1
 1770 00ae 00FB0660 		mla	r0, r0, r6, r6
 1771 00b2 4030     		adds	r0, r0, #64
 1772 00b4 C1E7     		b	.L159
 1773              	.LVL211:
 1774              	.L154:
 531:..\..\..\lvgl\version_6.1.2\lvgl\src\lv_draw/lv_draw_img.c ****         default: return 0;
 1775              		.loc 1 531 0
 1776 00b6 4FF48060 		mov	r0, #1024
 1777              	.LVL212:
 1778 00ba 05FB0600 		mla	r0, r5, r6, r0
 1779 00be BCE7     		b	.L159
 1780              	.LVL213:
 1781              	.L155:
 524:..\..\..\lvgl\version_6.1.2\lvgl\src\lv_draw/lv_draw_img.c ****         case LV_IMG_CF_ALPHA_2BIT: return LV_IMG_BUF_SIZE_ALPHA_2BIT(w, h);
 1782              		.loc 1 524 0
 1783 00c0 002D     		cmp	r5, #0
 1784 00c2 2846     		mov	r0, r5
 1785              	.LVL214:
 1786 00c4 B8BF     		it	lt
 1787 00c6 E81D     		addlt	r0, r5, #7
 1788 00c8 C010     		asrs	r0, r0, #3
 1789 00ca 00FB0660 		mla	r0, r0, r6, r6
 1790 00ce B4E7     		b	.L159
 1791              	.LVL215:
 1792              	.L156:
 525:..\..\..\lvgl\version_6.1.2\lvgl\src\lv_draw/lv_draw_img.c ****         case LV_IMG_CF_ALPHA_4BIT: return LV_IMG_BUF_SIZE_ALPHA_4BIT(w, h);
 1793              		.loc 1 525 0
 1794 00d0 002D     		cmp	r5, #0
 1795 00d2 2846     		mov	r0, r5
 1796              	.LVL216:
 1797 00d4 B8BF     		it	lt
 1798 00d6 E81C     		addlt	r0, r5, #3
 1799 00d8 8010     		asrs	r0, r0, #2
 1800 00da 00FB0660 		mla	r0, r0, r6, r6
 1801 00de ACE7     		b	.L159
 1802              	.LVL217:
 1803              	.L158:
 527:..\..\..\lvgl\version_6.1.2\lvgl\src\lv_draw/lv_draw_img.c ****         case LV_IMG_CF_INDEXED_1BIT: return LV_IMG_BUF_SIZE_INDEXED_1BIT(w, h);
 1804              		.loc 1 527 0
 1805 00e0 05FB06F0 		mul	r0, r5, r6
 1806              	.LVL218:
 1807 00e4 A9E7     		b	.L159
 1808              	.LVL219:
 1809              	.L146:
 1810              	.LBE101:
 1811              	.LBE103:
ARM GAS  C:\Users\pearlstl\AppData\Local\Temp\ccJvDP4q.s 			page 49


 486:..\..\..\lvgl\version_6.1.2\lvgl\src\lv_draw/lv_draw_img.c ****     if(dsc->data_size == 0) {
 1812              		.loc 1 486 0
 1813 00e6 0023     		movs	r3, #0
 1814 00e8 4360     		str	r3, [r0, #4]
 1815              	.LVL220:
 1816              	.L166:
 488:..\..\..\lvgl\version_6.1.2\lvgl\src\lv_draw/lv_draw_img.c ****         return NULL;
 1817              		.loc 1 488 0
 1818 00ea 2046     		mov	r0, r4
 1819 00ec FFF7FEFF 		bl	lv_mem_free
 1820              	.LVL221:
 1821              	.L170:
 489:..\..\..\lvgl\version_6.1.2\lvgl\src\lv_draw/lv_draw_img.c ****     }
 1822              		.loc 1 489 0
 1823 00f0 0020     		movs	r0, #0
 506:..\..\..\lvgl\version_6.1.2\lvgl\src\lv_draw/lv_draw_img.c **** 
 1824              		.loc 1 506 0
 1825 00f2 03B0     		add	sp, sp, #12
 1826              		.cfi_remember_state
 1827              		.cfi_def_cfa_offset 20
 1828              		@ sp needed
 1829 00f4 F0BD     		pop	{r4, r5, r6, r7, pc}
 1830              	.LVL222:
 1831              	.L171:
 1832              		.cfi_restore_state
 1833 00f6 0190     		str	r0, [sp, #4]
 495:..\..\..\lvgl\version_6.1.2\lvgl\src\lv_draw/lv_draw_img.c ****         return NULL;
 1834              		.loc 1 495 0
 1835 00f8 2046     		mov	r0, r4
 1836 00fa FFF7FEFF 		bl	lv_mem_free
 1837              	.LVL223:
 496:..\..\..\lvgl\version_6.1.2\lvgl\src\lv_draw/lv_draw_img.c ****     }
 1838              		.loc 1 496 0
 1839 00fe 019B     		ldr	r3, [sp, #4]
 1840 0100 1846     		mov	r0, r3
 1841 0102 B7E7     		b	.L168
 1842              		.cfi_endproc
 1843              	.LFE41:
 1844              		.size	lv_img_buf_alloc, .-lv_img_buf_alloc
 1845              		.section	.text.lv_img_buf_free,"ax",%progbits
 1846              		.align	2
 1847              		.global	lv_img_buf_free
 1848              		.thumb
 1849              		.thumb_func
 1850              		.type	lv_img_buf_free, %function
 1851              	lv_img_buf_free:
 1852              	.LFB42:
 509:..\..\..\lvgl\version_6.1.2\lvgl\src\lv_draw/lv_draw_img.c ****     if(dsc != NULL) {
 1853              		.loc 1 509 0
 1854              		.cfi_startproc
 1855              		@ args = 0, pretend = 0, frame = 0
 1856              		@ frame_needed = 0, uses_anonymous_args = 0
 1857              	.LVL224:
 510:..\..\..\lvgl\version_6.1.2\lvgl\src\lv_draw/lv_draw_img.c ****         if(dsc->data != NULL)
 1858              		.loc 1 510 0
 1859 0000 50B1     		cbz	r0, .L179
 509:..\..\..\lvgl\version_6.1.2\lvgl\src\lv_draw/lv_draw_img.c ****     if(dsc != NULL) {
ARM GAS  C:\Users\pearlstl\AppData\Local\Temp\ccJvDP4q.s 			page 50


 1860              		.loc 1 509 0
 1861 0002 10B5     		push	{r4, lr}
 1862              		.cfi_def_cfa_offset 8
 1863              		.cfi_offset 4, -8
 1864              		.cfi_offset 14, -4
 1865 0004 0446     		mov	r4, r0
 511:..\..\..\lvgl\version_6.1.2\lvgl\src\lv_draw/lv_draw_img.c ****             lv_mem_free(dsc->data);
 1866              		.loc 1 511 0
 1867 0006 8068     		ldr	r0, [r0, #8]
 1868              	.LVL225:
 1869 0008 08B1     		cbz	r0, .L174
 512:..\..\..\lvgl\version_6.1.2\lvgl\src\lv_draw/lv_draw_img.c ****         
 1870              		.loc 1 512 0
 1871 000a FFF7FEFF 		bl	lv_mem_free
 1872              	.LVL226:
 1873              	.L174:
 514:..\..\..\lvgl\version_6.1.2\lvgl\src\lv_draw/lv_draw_img.c ****     }
 1874              		.loc 1 514 0
 1875 000e 2046     		mov	r0, r4
 516:..\..\..\lvgl\version_6.1.2\lvgl\src\lv_draw/lv_draw_img.c **** 
 1876              		.loc 1 516 0
 1877 0010 BDE81040 		pop	{r4, lr}
 1878              		.cfi_restore 14
 1879              		.cfi_restore 4
 1880              		.cfi_def_cfa_offset 0
 1881              	.LVL227:
 514:..\..\..\lvgl\version_6.1.2\lvgl\src\lv_draw/lv_draw_img.c ****     }
 1882              		.loc 1 514 0
 1883 0014 FFF7FEBF 		b	lv_mem_free
 1884              	.LVL228:
 1885              	.L179:
 1886 0018 7047     		bx	lr
 1887              		.cfi_endproc
 1888              	.LFE42:
 1889              		.size	lv_img_buf_free, .-lv_img_buf_free
 1890 001a 00BF     		.section	.text.lv_img_buf_get_img_size,"ax",%progbits
 1891              		.align	2
 1892              		.global	lv_img_buf_get_img_size
 1893              		.thumb
 1894              		.thumb_func
 1895              		.type	lv_img_buf_get_img_size, %function
 1896              	lv_img_buf_get_img_size:
 1897              	.LFB43:
 519:..\..\..\lvgl\version_6.1.2\lvgl\src\lv_draw/lv_draw_img.c ****     switch(cf) {
 1898              		.loc 1 519 0
 1899              		.cfi_startproc
 1900              		@ args = 0, pretend = 0, frame = 0
 1901              		@ frame_needed = 0, uses_anonymous_args = 0
 1902              		@ link register save eliminated.
 1903              	.LVL229:
 520:..\..\..\lvgl\version_6.1.2\lvgl\src\lv_draw/lv_draw_img.c ****         case LV_IMG_CF_TRUE_COLOR: return LV_IMG_BUF_SIZE_TRUE_COLOR(w, h);
 1904              		.loc 1 520 0
 1905 0000 043A     		subs	r2, r2, #4
 1906              	.LVL230:
 519:..\..\..\lvgl\version_6.1.2\lvgl\src\lv_draw/lv_draw_img.c ****     switch(cf) {
 1907              		.loc 1 519 0
 1908 0002 F0B4     		push	{r4, r5, r6, r7}
ARM GAS  C:\Users\pearlstl\AppData\Local\Temp\ccJvDP4q.s 			page 51


 1909              		.cfi_def_cfa_offset 16
 1910              		.cfi_offset 4, -16
 1911              		.cfi_offset 5, -12
 1912              		.cfi_offset 6, -8
 1913              		.cfi_offset 7, -4
 520:..\..\..\lvgl\version_6.1.2\lvgl\src\lv_draw/lv_draw_img.c ****         case LV_IMG_CF_TRUE_COLOR: return LV_IMG_BUF_SIZE_TRUE_COLOR(w, h);
 1914              		.loc 1 520 0
 1915 0004 0A2A     		cmp	r2, #10
 1916 0006 3FD8     		bhi	.L198
 1917 0008 DFE802F0 		tbb	[pc, r2]
 1918              	.L183:
 1919 000c 06       		.byte	(.L185-.L183)/2
 1920 000d 06       		.byte	(.L185-.L183)/2
 1921 000e 06       		.byte	(.L185-.L183)/2
 1922 000f 11       		.byte	(.L186-.L183)/2
 1923 0010 19       		.byte	(.L187-.L183)/2
 1924 0011 21       		.byte	(.L188-.L183)/2
 1925 0012 28       		.byte	(.L189-.L183)/2
 1926 0013 2D       		.byte	(.L190-.L183)/2
 1927 0014 34       		.byte	(.L191-.L183)/2
 1928 0015 0B       		.byte	(.L192-.L183)/2
 1929 0016 3B       		.byte	(.L193-.L183)/2
 1930 0017 00       		.p2align 1
 1931              	.L185:
 523:..\..\..\lvgl\version_6.1.2\lvgl\src\lv_draw/lv_draw_img.c ****         case LV_IMG_CF_ALPHA_1BIT: return LV_IMG_BUF_SIZE_ALPHA_1BIT(w, h);
 1932              		.loc 1 523 0
 1933 0018 8000     		lsls	r0, r0, #2
 1934              	.LVL231:
 1935 001a 01FB00F0 		mul	r0, r1, r0
 1936              	.L181:
 534:..\..\..\lvgl\version_6.1.2\lvgl\src\lv_draw/lv_draw_img.c **** 
 1937              		.loc 1 534 0
 1938 001e F0BC     		pop	{r4, r5, r6, r7}
 1939              		.cfi_remember_state
 1940              		.cfi_restore 7
 1941              		.cfi_restore 6
 1942              		.cfi_restore 5
 1943              		.cfi_restore 4
 1944              		.cfi_def_cfa_offset 0
 1945 0020 7047     		bx	lr
 1946              	.LVL232:
 1947              	.L192:
 1948              		.cfi_restore_state
 526:..\..\..\lvgl\version_6.1.2\lvgl\src\lv_draw/lv_draw_img.c ****         case LV_IMG_CF_ALPHA_8BIT: return LV_IMG_BUF_SIZE_ALPHA_8BIT(w, h);
 1949              		.loc 1 526 0
 1950 0022 00EBD077 		add	r7, r0, r0, lsr #31
 1951 0026 7E10     		asrs	r6, r7, #1
 1952 0028 06FB0110 		mla	r0, r6, r1, r1
 1953              	.LVL233:
 1954 002c F7E7     		b	.L181
 1955              	.LVL234:
 1956              	.L186:
 528:..\..\..\lvgl\version_6.1.2\lvgl\src\lv_draw/lv_draw_img.c ****         case LV_IMG_CF_INDEXED_2BIT: return LV_IMG_BUF_SIZE_INDEXED_2BIT(w, h);
 1957              		.loc 1 528 0
 1958 002e 021E     		subs	r2, r0, #0
 1959 0030 B8BF     		it	lt
 1960 0032 0732     		addlt	r2, r2, #7
ARM GAS  C:\Users\pearlstl\AppData\Local\Temp\ccJvDP4q.s 			page 52


 1961 0034 D210     		asrs	r2, r2, #3
 1962 0036 02FB0110 		mla	r0, r2, r1, r1
 1963              	.LVL235:
 1964 003a 0830     		adds	r0, r0, #8
 1965 003c EFE7     		b	.L181
 1966              	.LVL236:
 1967              	.L187:
 529:..\..\..\lvgl\version_6.1.2\lvgl\src\lv_draw/lv_draw_img.c ****         case LV_IMG_CF_INDEXED_4BIT: return LV_IMG_BUF_SIZE_INDEXED_4BIT(w, h);
 1968              		.loc 1 529 0
 1969 003e 031E     		subs	r3, r0, #0
 1970 0040 B8BF     		it	lt
 1971 0042 0333     		addlt	r3, r3, #3
 1972 0044 9B10     		asrs	r3, r3, #2
 1973 0046 03FB0110 		mla	r0, r3, r1, r1
 1974              	.LVL237:
 1975 004a 1030     		adds	r0, r0, #16
 1976 004c E7E7     		b	.L181
 1977              	.LVL238:
 1978              	.L188:
 530:..\..\..\lvgl\version_6.1.2\lvgl\src\lv_draw/lv_draw_img.c ****         case LV_IMG_CF_INDEXED_8BIT: return LV_IMG_BUF_SIZE_INDEXED_8BIT(w, h);
 1979              		.loc 1 530 0
 1980 004e 00EBD076 		add	r6, r0, r0, lsr #31
 1981 0052 7610     		asrs	r6, r6, #1
 1982 0054 06FB0110 		mla	r0, r6, r1, r1
 1983              	.LVL239:
 1984 0058 4030     		adds	r0, r0, #64
 1985 005a E0E7     		b	.L181
 1986              	.LVL240:
 1987              	.L189:
 531:..\..\..\lvgl\version_6.1.2\lvgl\src\lv_draw/lv_draw_img.c ****         default: return 0;
 1988              		.loc 1 531 0
 1989 005c 4FF48064 		mov	r4, #1024
 1990 0060 00FB0140 		mla	r0, r0, r1, r4
 1991              	.LVL241:
 1992 0064 DBE7     		b	.L181
 1993              	.LVL242:
 1994              	.L190:
 524:..\..\..\lvgl\version_6.1.2\lvgl\src\lv_draw/lv_draw_img.c ****         case LV_IMG_CF_ALPHA_2BIT: return LV_IMG_BUF_SIZE_ALPHA_2BIT(w, h);
 1995              		.loc 1 524 0
 1996 0066 051E     		subs	r5, r0, #0
 1997 0068 B8BF     		it	lt
 1998 006a 0735     		addlt	r5, r5, #7
 1999 006c EF10     		asrs	r7, r5, #3
 2000 006e 07FB0110 		mla	r0, r7, r1, r1
 2001              	.LVL243:
 2002 0072 D4E7     		b	.L181
 2003              	.LVL244:
 2004              	.L191:
 525:..\..\..\lvgl\version_6.1.2\lvgl\src\lv_draw/lv_draw_img.c ****         case LV_IMG_CF_ALPHA_4BIT: return LV_IMG_BUF_SIZE_ALPHA_4BIT(w, h);
 2005              		.loc 1 525 0
 2006 0074 041E     		subs	r4, r0, #0
 2007 0076 B8BF     		it	lt
 2008 0078 0334     		addlt	r4, r4, #3
 2009 007a A410     		asrs	r4, r4, #2
 2010 007c 04FB0110 		mla	r0, r4, r1, r1
 2011              	.LVL245:
 2012 0080 CDE7     		b	.L181
ARM GAS  C:\Users\pearlstl\AppData\Local\Temp\ccJvDP4q.s 			page 53


 2013              	.LVL246:
 2014              	.L193:
 527:..\..\..\lvgl\version_6.1.2\lvgl\src\lv_draw/lv_draw_img.c ****         case LV_IMG_CF_INDEXED_1BIT: return LV_IMG_BUF_SIZE_INDEXED_1BIT(w, h);
 2015              		.loc 1 527 0
 2016 0082 00FB01F0 		mul	r0, r0, r1
 2017              	.LVL247:
 2018 0086 CAE7     		b	.L181
 2019              	.LVL248:
 2020              	.L198:
 532:..\..\..\lvgl\version_6.1.2\lvgl\src\lv_draw/lv_draw_img.c ****     }
 2021              		.loc 1 532 0
 2022 0088 0020     		movs	r0, #0
 2023              	.LVL249:
 2024 008a C8E7     		b	.L181
 2025              		.cfi_endproc
 2026              	.LFE43:
 2027              		.size	lv_img_buf_get_img_size, .-lv_img_buf_get_img_size
 2028              		.section	.rodata
 2029              		.align	2
 2030              		.set	.LANCHOR0,. + 0
 2031              		.type	CSWTCH.17, %object
 2032              		.size	CSWTCH.17, 11
 2033              	CSWTCH.17:
 2034 0000 20       		.byte	32
 2035 0001 20       		.byte	32
 2036 0002 20       		.byte	32
 2037 0003 01       		.byte	1
 2038 0004 02       		.byte	2
 2039 0005 04       		.byte	4
 2040 0006 08       		.byte	8
 2041 0007 01       		.byte	1
 2042 0008 02       		.byte	2
 2043 0009 04       		.byte	4
 2044 000a 08       		.byte	8
 2045 000b 00       		.space	1
 2046              	.LC0:
 2047 000c 00       		.byte	0
 2048 000d 55       		.byte	85
 2049 000e AA       		.byte	-86
 2050 000f FF       		.byte	-1
 2051              	.LC1:
 2052 0010 00       		.byte	0
 2053 0011 11       		.byte	17
 2054 0012 22       		.byte	34
 2055 0013 33       		.byte	51
 2056 0014 44       		.byte	68
 2057 0015 55       		.byte	85
 2058 0016 66       		.byte	102
 2059 0017 77       		.byte	119
 2060 0018 88       		.byte	-120
 2061 0019 99       		.byte	-103
 2062 001a AA       		.byte	-86
 2063 001b BB       		.byte	-69
 2064 001c CC       		.byte	-52
 2065 001d DD       		.byte	-35
 2066 001e EE       		.byte	-18
 2067 001f FF       		.byte	-1
ARM GAS  C:\Users\pearlstl\AppData\Local\Temp\ccJvDP4q.s 			page 54


 2068              		.section	.rodata.str1.4,"aMS",%progbits,1
 2069              		.align	2
 2070              	.LC2:
 2071 0000 4E6F0A64 		.ascii	"No\012data\000"
 2071      61746100 
 2072              		.text
 2073              	.Letext0:
 2074              		.file 3 "c:\\program files (x86)\\cypress\\psoc creator\\4.2\\psoc creator\\import\\gnu\\arm\\5.4.
 2075              		.file 4 "c:\\program files (x86)\\cypress\\psoc creator\\4.2\\psoc creator\\import\\gnu\\arm\\5.4.
 2076              		.file 5 "..\\..\\..\\lvgl\\version_6.1.2\\lvgl\\src\\lv_draw\\../../../lv_conf.h"
 2077              		.file 6 "..\\..\\..\\lvgl\\version_6.1.2\\lvgl\\src\\lv_draw\\../lv_core/../lv_font/lv_font.h"
 2078              		.file 7 "..\\..\\..\\lvgl\\version_6.1.2\\lvgl\\src\\lv_draw\\../lv_core/../lv_misc/lv_color.h"
 2079              		.file 8 "..\\..\\..\\lvgl\\version_6.1.2\\lvgl\\src\\lv_draw\\../lv_core/lv_style.h"
 2080              		.file 9 "..\\..\\..\\lvgl\\version_6.1.2\\lvgl\\src\\lv_draw\\../lv_misc/lv_txt.h"
 2081              		.file 10 "..\\..\\..\\lvgl\\version_6.1.2\\lvgl\\src\\lv_draw\\../lv_misc/lv_types.h"
 2082              		.file 11 "..\\..\\..\\lvgl\\version_6.1.2\\lvgl\\src\\lv_draw\\lv_img_decoder.h"
 2083              		.file 12 "..\\..\\..\\lvgl\\version_6.1.2\\lvgl\\src\\lv_draw\\../lv_misc/lv_bidi.h"
 2084              		.file 13 "..\\..\\..\\lvgl\\version_6.1.2\\lvgl\\src\\lv_draw\\lv_img_cache.h"
 2085              		.file 14 "..\\..\\..\\lvgl\\version_6.1.2\\lvgl\\src\\lv_draw\\lv_draw.h"
 2086              		.file 15 "..\\..\\..\\lvgl\\version_6.1.2\\lvgl\\src\\lv_draw\\lv_draw_basic.h"
 2087              		.file 16 "..\\..\\..\\lvgl\\version_6.1.2\\lvgl\\src\\lv_draw\\lv_draw_rect.h"
 2088              		.file 17 "..\\..\\..\\lvgl\\version_6.1.2\\lvgl\\src\\lv_draw\\lv_draw_label.h"
 2089              		.file 18 "..\\..\\..\\lvgl\\version_6.1.2\\lvgl\\src\\lv_draw\\../lv_misc/lv_mem.h"