ARM GAS  C:\Users\pearlstl\AppData\Local\Temp\ccmYHcOW.s 			page 1


   1              		.syntax unified
   2              		.cpu cortex-m4
   3              		.eabi_attribute 27, 1
   4              		.fpu fpv4-sp-d16
   5              		.eabi_attribute 20, 1
   6              		.eabi_attribute 21, 1
   7              		.eabi_attribute 23, 3
   8              		.eabi_attribute 24, 1
   9              		.eabi_attribute 25, 1
  10              		.eabi_attribute 26, 1
  11              		.eabi_attribute 30, 2
  12              		.eabi_attribute 34, 1
  13              		.eabi_attribute 18, 4
  14              		.thumb
  15              		.syntax unified
  16              		.file	"lv_draw_basic.c"
  17              		.text
  18              	.Ltext0:
  19              		.cfi_sections	.debug_frame
  20              		.section	.text.lv_draw_px,"ax",%progbits
  21              		.align	2
  22              		.global	lv_draw_px
  23              		.thumb
  24              		.thumb_func
  25              		.type	lv_draw_px, %function
  26              	lv_draw_px:
  27              	.LFB31:
  28              		.file 1 "..\\..\\..\\lvgl\\version_6.1.2\\lvgl\\src\\lv_draw\\lv_draw_basic.c"
   1:..\..\..\lvgl\version_6.1.2\lvgl\src\lv_draw/lv_draw_basic.c **** /**
   2:..\..\..\lvgl\version_6.1.2\lvgl\src\lv_draw/lv_draw_basic.c ****  * @file lv_draw_basic.c
   3:..\..\..\lvgl\version_6.1.2\lvgl\src\lv_draw/lv_draw_basic.c ****  *
   4:..\..\..\lvgl\version_6.1.2\lvgl\src\lv_draw/lv_draw_basic.c ****  */
   5:..\..\..\lvgl\version_6.1.2\lvgl\src\lv_draw/lv_draw_basic.c **** 
   6:..\..\..\lvgl\version_6.1.2\lvgl\src\lv_draw/lv_draw_basic.c **** #include "lv_draw_basic.h"
   7:..\..\..\lvgl\version_6.1.2\lvgl\src\lv_draw/lv_draw_basic.c **** 
   8:..\..\..\lvgl\version_6.1.2\lvgl\src\lv_draw/lv_draw_basic.c **** #include <stdbool.h>
   9:..\..\..\lvgl\version_6.1.2\lvgl\src\lv_draw/lv_draw_basic.c **** #include <stdint.h>
  10:..\..\..\lvgl\version_6.1.2\lvgl\src\lv_draw/lv_draw_basic.c **** #include <string.h>
  11:..\..\..\lvgl\version_6.1.2\lvgl\src\lv_draw/lv_draw_basic.c **** 
  12:..\..\..\lvgl\version_6.1.2\lvgl\src\lv_draw/lv_draw_basic.c **** #include "../lv_core/lv_refr.h"
  13:..\..\..\lvgl\version_6.1.2\lvgl\src\lv_draw/lv_draw_basic.c **** #include "../lv_hal/lv_hal.h"
  14:..\..\..\lvgl\version_6.1.2\lvgl\src\lv_draw/lv_draw_basic.c **** #include "../lv_font/lv_font.h"
  15:..\..\..\lvgl\version_6.1.2\lvgl\src\lv_draw/lv_draw_basic.c **** #include "../lv_misc/lv_area.h"
  16:..\..\..\lvgl\version_6.1.2\lvgl\src\lv_draw/lv_draw_basic.c **** #include "../lv_misc/lv_color.h"
  17:..\..\..\lvgl\version_6.1.2\lvgl\src\lv_draw/lv_draw_basic.c **** #include "../lv_misc/lv_log.h"
  18:..\..\..\lvgl\version_6.1.2\lvgl\src\lv_draw/lv_draw_basic.c **** 
  19:..\..\..\lvgl\version_6.1.2\lvgl\src\lv_draw/lv_draw_basic.c **** #include <stddef.h>
  20:..\..\..\lvgl\version_6.1.2\lvgl\src\lv_draw/lv_draw_basic.c **** #include "lv_draw.h"
  21:..\..\..\lvgl\version_6.1.2\lvgl\src\lv_draw/lv_draw_basic.c **** 
  22:..\..\..\lvgl\version_6.1.2\lvgl\src\lv_draw/lv_draw_basic.c **** /*********************
  23:..\..\..\lvgl\version_6.1.2\lvgl\src\lv_draw/lv_draw_basic.c ****  *      INCLUDES
  24:..\..\..\lvgl\version_6.1.2\lvgl\src\lv_draw/lv_draw_basic.c ****  *********************/
  25:..\..\..\lvgl\version_6.1.2\lvgl\src\lv_draw/lv_draw_basic.c **** 
  26:..\..\..\lvgl\version_6.1.2\lvgl\src\lv_draw/lv_draw_basic.c **** /*********************
  27:..\..\..\lvgl\version_6.1.2\lvgl\src\lv_draw/lv_draw_basic.c ****  *      DEFINES
  28:..\..\..\lvgl\version_6.1.2\lvgl\src\lv_draw/lv_draw_basic.c ****  *********************/
  29:..\..\..\lvgl\version_6.1.2\lvgl\src\lv_draw/lv_draw_basic.c **** 
ARM GAS  C:\Users\pearlstl\AppData\Local\Temp\ccmYHcOW.s 			page 2


  30:..\..\..\lvgl\version_6.1.2\lvgl\src\lv_draw/lv_draw_basic.c **** /*Always fill < 50 px with 'sw_color_fill' because of the hw. init overhead*/
  31:..\..\..\lvgl\version_6.1.2\lvgl\src\lv_draw/lv_draw_basic.c **** #define VFILL_HW_ACC_SIZE_LIMIT 50
  32:..\..\..\lvgl\version_6.1.2\lvgl\src\lv_draw/lv_draw_basic.c **** 
  33:..\..\..\lvgl\version_6.1.2\lvgl\src\lv_draw/lv_draw_basic.c **** #ifndef LV_ATTRIBUTE_MEM_ALIGN
  34:..\..\..\lvgl\version_6.1.2\lvgl\src\lv_draw/lv_draw_basic.c **** #define LV_ATTRIBUTE_MEM_ALIGN
  35:..\..\..\lvgl\version_6.1.2\lvgl\src\lv_draw/lv_draw_basic.c **** #endif
  36:..\..\..\lvgl\version_6.1.2\lvgl\src\lv_draw/lv_draw_basic.c **** 
  37:..\..\..\lvgl\version_6.1.2\lvgl\src\lv_draw/lv_draw_basic.c **** /**********************
  38:..\..\..\lvgl\version_6.1.2\lvgl\src\lv_draw/lv_draw_basic.c ****  *      TYPEDEFS
  39:..\..\..\lvgl\version_6.1.2\lvgl\src\lv_draw/lv_draw_basic.c ****  **********************/
  40:..\..\..\lvgl\version_6.1.2\lvgl\src\lv_draw/lv_draw_basic.c **** 
  41:..\..\..\lvgl\version_6.1.2\lvgl\src\lv_draw/lv_draw_basic.c **** /**********************
  42:..\..\..\lvgl\version_6.1.2\lvgl\src\lv_draw/lv_draw_basic.c ****  *  STATIC PROTOTYPES
  43:..\..\..\lvgl\version_6.1.2\lvgl\src\lv_draw/lv_draw_basic.c ****  **********************/
  44:..\..\..\lvgl\version_6.1.2\lvgl\src\lv_draw/lv_draw_basic.c **** static void sw_mem_blend(lv_color_t * dest, const lv_color_t * src, uint32_t length, lv_opa_t opa);
  45:..\..\..\lvgl\version_6.1.2\lvgl\src\lv_draw/lv_draw_basic.c **** static void sw_color_fill(lv_color_t * mem, lv_coord_t mem_width, const lv_area_t * fill_area, lv_c
  46:..\..\..\lvgl\version_6.1.2\lvgl\src\lv_draw/lv_draw_basic.c ****                           lv_opa_t opa);
  47:..\..\..\lvgl\version_6.1.2\lvgl\src\lv_draw/lv_draw_basic.c **** 
  48:..\..\..\lvgl\version_6.1.2\lvgl\src\lv_draw/lv_draw_basic.c **** #if LV_COLOR_DEPTH == 32 && LV_COLOR_SCREEN_TRANSP
  49:..\..\..\lvgl\version_6.1.2\lvgl\src\lv_draw/lv_draw_basic.c **** static inline lv_color_t color_mix_2_alpha(lv_color_t bg_color, lv_opa_t bg_opa, lv_color_t fg_colo
  50:..\..\..\lvgl\version_6.1.2\lvgl\src\lv_draw/lv_draw_basic.c **** #endif
  51:..\..\..\lvgl\version_6.1.2\lvgl\src\lv_draw/lv_draw_basic.c **** 
  52:..\..\..\lvgl\version_6.1.2\lvgl\src\lv_draw/lv_draw_basic.c **** /**********************
  53:..\..\..\lvgl\version_6.1.2\lvgl\src\lv_draw/lv_draw_basic.c ****  *  STATIC VARIABLES
  54:..\..\..\lvgl\version_6.1.2\lvgl\src\lv_draw/lv_draw_basic.c ****  **********************/
  55:..\..\..\lvgl\version_6.1.2\lvgl\src\lv_draw/lv_draw_basic.c **** 
  56:..\..\..\lvgl\version_6.1.2\lvgl\src\lv_draw/lv_draw_basic.c **** /**********************
  57:..\..\..\lvgl\version_6.1.2\lvgl\src\lv_draw/lv_draw_basic.c ****  *      MACROS
  58:..\..\..\lvgl\version_6.1.2\lvgl\src\lv_draw/lv_draw_basic.c ****  **********************/
  59:..\..\..\lvgl\version_6.1.2\lvgl\src\lv_draw/lv_draw_basic.c **** 
  60:..\..\..\lvgl\version_6.1.2\lvgl\src\lv_draw/lv_draw_basic.c **** /**********************
  61:..\..\..\lvgl\version_6.1.2\lvgl\src\lv_draw/lv_draw_basic.c ****  *   GLOBAL FUNCTIONS
  62:..\..\..\lvgl\version_6.1.2\lvgl\src\lv_draw/lv_draw_basic.c ****  **********************/
  63:..\..\..\lvgl\version_6.1.2\lvgl\src\lv_draw/lv_draw_basic.c **** 
  64:..\..\..\lvgl\version_6.1.2\lvgl\src\lv_draw/lv_draw_basic.c **** /**
  65:..\..\..\lvgl\version_6.1.2\lvgl\src\lv_draw/lv_draw_basic.c ****  * Put a pixel in the Virtual Display Buffer
  66:..\..\..\lvgl\version_6.1.2\lvgl\src\lv_draw/lv_draw_basic.c ****  * @param x pixel x coordinate
  67:..\..\..\lvgl\version_6.1.2\lvgl\src\lv_draw/lv_draw_basic.c ****  * @param y pixel y coordinate
  68:..\..\..\lvgl\version_6.1.2\lvgl\src\lv_draw/lv_draw_basic.c ****  * @param mask_p fill only on this mask (truncated to VDB area)
  69:..\..\..\lvgl\version_6.1.2\lvgl\src\lv_draw/lv_draw_basic.c ****  * @param color pixel color
  70:..\..\..\lvgl\version_6.1.2\lvgl\src\lv_draw/lv_draw_basic.c ****  * @param opa opacity of the area (0..255)
  71:..\..\..\lvgl\version_6.1.2\lvgl\src\lv_draw/lv_draw_basic.c ****  */
  72:..\..\..\lvgl\version_6.1.2\lvgl\src\lv_draw/lv_draw_basic.c **** void lv_draw_px(lv_coord_t x, lv_coord_t y, const lv_area_t * mask_p, lv_color_t color, lv_opa_t op
  73:..\..\..\lvgl\version_6.1.2\lvgl\src\lv_draw/lv_draw_basic.c **** {
  29              		.loc 1 73 0
  30              		.cfi_startproc
  31              		@ args = 4, pretend = 0, frame = 0
  32              		@ frame_needed = 0, uses_anonymous_args = 0
  33              	.LVL0:
  34 0000 2DE9F043 		push	{r4, r5, r6, r7, r8, r9, lr}
  35              		.cfi_def_cfa_offset 28
  36              		.cfi_offset 4, -28
  37              		.cfi_offset 5, -24
  38              		.cfi_offset 6, -20
  39              		.cfi_offset 7, -16
  40              		.cfi_offset 8, -12
  41              		.cfi_offset 9, -8
ARM GAS  C:\Users\pearlstl\AppData\Local\Temp\ccmYHcOW.s 			page 3


  42              		.cfi_offset 14, -4
  43 0004 85B0     		sub	sp, sp, #20
  44              		.cfi_def_cfa_offset 48
  45              		.loc 1 73 0
  46 0006 9DF83040 		ldrb	r4, [sp, #48]	@ zero_extendqisi2
  74:..\..\..\lvgl\version_6.1.2\lvgl\src\lv_draw/lv_draw_basic.c **** 
  75:..\..\..\lvgl\version_6.1.2\lvgl\src\lv_draw/lv_draw_basic.c ****     if(opa < LV_OPA_MIN) return;
  47              		.loc 1 75 0
  48 000a 0F2C     		cmp	r4, #15
  49 000c 2ED9     		bls	.L1
  76:..\..\..\lvgl\version_6.1.2\lvgl\src\lv_draw/lv_draw_basic.c ****     if(opa > LV_OPA_MAX) opa = LV_OPA_COVER;
  77:..\..\..\lvgl\version_6.1.2\lvgl\src\lv_draw/lv_draw_basic.c **** 
  78:..\..\..\lvgl\version_6.1.2\lvgl\src\lv_draw/lv_draw_basic.c ****     /*Pixel out of the mask*/
  79:..\..\..\lvgl\version_6.1.2\lvgl\src\lv_draw/lv_draw_basic.c ****     if(x < mask_p->x1 || x > mask_p->x2 || y < mask_p->y1 || y > mask_p->y2) {
  50              		.loc 1 79 0
  51 000e B2F90050 		ldrsh	r5, [r2]
  76:..\..\..\lvgl\version_6.1.2\lvgl\src\lv_draw/lv_draw_basic.c ****     if(opa > LV_OPA_MAX) opa = LV_OPA_COVER;
  52              		.loc 1 76 0
  53 0012 FC2C     		cmp	r4, #252
  54 0014 28BF     		it	cs
  55 0016 FF24     		movcs	r4, #255
  56              	.LVL1:
  57              		.loc 1 79 0
  58 0018 8542     		cmp	r5, r0
  59 001a 27DC     		bgt	.L1
  60              		.loc 1 79 0 is_stmt 0 discriminator 1
  61 001c B2F90450 		ldrsh	r5, [r2, #4]
  62 0020 8542     		cmp	r5, r0
  63 0022 23DB     		blt	.L1
  64              		.loc 1 79 0 discriminator 2
  65 0024 B2F90250 		ldrsh	r5, [r2, #2]
  66 0028 8D42     		cmp	r5, r1
  67 002a 1FDC     		bgt	.L1
  68              		.loc 1 79 0 discriminator 3
  69 002c B2F90620 		ldrsh	r2, [r2, #6]
  70              	.LVL2:
  71 0030 8A42     		cmp	r2, r1
  72 0032 1BDB     		blt	.L1
  73 0034 8946     		mov	r9, r1
  74 0036 1E46     		mov	r6, r3
  75 0038 0546     		mov	r5, r0
  80:..\..\..\lvgl\version_6.1.2\lvgl\src\lv_draw/lv_draw_basic.c ****         return;
  81:..\..\..\lvgl\version_6.1.2\lvgl\src\lv_draw/lv_draw_basic.c ****     }
  82:..\..\..\lvgl\version_6.1.2\lvgl\src\lv_draw/lv_draw_basic.c **** 
  83:..\..\..\lvgl\version_6.1.2\lvgl\src\lv_draw/lv_draw_basic.c ****     lv_disp_t * disp    = lv_refr_get_disp_refreshing();
  76              		.loc 1 83 0 is_stmt 1
  77 003a FFF7FEFF 		bl	lv_refr_get_disp_refreshing
  78              	.LVL3:
  79 003e 8046     		mov	r8, r0
  80              	.LVL4:
  84:..\..\..\lvgl\version_6.1.2\lvgl\src\lv_draw/lv_draw_basic.c ****     lv_disp_buf_t * vdb = lv_disp_get_buf(disp);
  81              		.loc 1 84 0
  82 0040 FFF7FEFF 		bl	lv_disp_get_buf
  83              	.LVL5:
  84              	.LBB44:
  85              	.LBB45:
  86              		.file 2 "..\\..\\..\\lvgl\\version_6.1.2\\lvgl\\src\\lv_draw\\../lv_misc/lv_area.h"
ARM GAS  C:\Users\pearlstl\AppData\Local\Temp\ccmYHcOW.s 			page 4


   1:..\..\..\lvgl\version_6.1.2\lvgl\src\lv_draw\../lv_misc/lv_area.h **** /**
   2:..\..\..\lvgl\version_6.1.2\lvgl\src\lv_draw\../lv_misc/lv_area.h ****  * @file lv_area.h
   3:..\..\..\lvgl\version_6.1.2\lvgl\src\lv_draw\../lv_misc/lv_area.h ****  *
   4:..\..\..\lvgl\version_6.1.2\lvgl\src\lv_draw\../lv_misc/lv_area.h ****  */
   5:..\..\..\lvgl\version_6.1.2\lvgl\src\lv_draw\../lv_misc/lv_area.h **** 
   6:..\..\..\lvgl\version_6.1.2\lvgl\src\lv_draw\../lv_misc/lv_area.h **** #ifndef LV_AREA_H
   7:..\..\..\lvgl\version_6.1.2\lvgl\src\lv_draw\../lv_misc/lv_area.h **** #define LV_AREA_H
   8:..\..\..\lvgl\version_6.1.2\lvgl\src\lv_draw\../lv_misc/lv_area.h **** 
   9:..\..\..\lvgl\version_6.1.2\lvgl\src\lv_draw\../lv_misc/lv_area.h **** #ifdef __cplusplus
  10:..\..\..\lvgl\version_6.1.2\lvgl\src\lv_draw\../lv_misc/lv_area.h **** extern "C" {
  11:..\..\..\lvgl\version_6.1.2\lvgl\src\lv_draw\../lv_misc/lv_area.h **** #endif
  12:..\..\..\lvgl\version_6.1.2\lvgl\src\lv_draw\../lv_misc/lv_area.h **** 
  13:..\..\..\lvgl\version_6.1.2\lvgl\src\lv_draw\../lv_misc/lv_area.h **** /*********************
  14:..\..\..\lvgl\version_6.1.2\lvgl\src\lv_draw\../lv_misc/lv_area.h ****  *      INCLUDES
  15:..\..\..\lvgl\version_6.1.2\lvgl\src\lv_draw\../lv_misc/lv_area.h ****  *********************/
  16:..\..\..\lvgl\version_6.1.2\lvgl\src\lv_draw\../lv_misc/lv_area.h **** #include <string.h>
  17:..\..\..\lvgl\version_6.1.2\lvgl\src\lv_draw\../lv_misc/lv_area.h **** #include <stdbool.h>
  18:..\..\..\lvgl\version_6.1.2\lvgl\src\lv_draw\../lv_misc/lv_area.h **** #include <stdint.h>
  19:..\..\..\lvgl\version_6.1.2\lvgl\src\lv_draw\../lv_misc/lv_area.h **** #ifdef LV_CONF_INCLUDE_SIMPLE
  20:..\..\..\lvgl\version_6.1.2\lvgl\src\lv_draw\../lv_misc/lv_area.h **** #include "lv_conf.h"
  21:..\..\..\lvgl\version_6.1.2\lvgl\src\lv_draw\../lv_misc/lv_area.h **** #else
  22:..\..\..\lvgl\version_6.1.2\lvgl\src\lv_draw\../lv_misc/lv_area.h **** #include "../../../lv_conf.h"
  23:..\..\..\lvgl\version_6.1.2\lvgl\src\lv_draw\../lv_misc/lv_area.h **** #endif
  24:..\..\..\lvgl\version_6.1.2\lvgl\src\lv_draw\../lv_misc/lv_area.h **** 
  25:..\..\..\lvgl\version_6.1.2\lvgl\src\lv_draw\../lv_misc/lv_area.h **** /*********************
  26:..\..\..\lvgl\version_6.1.2\lvgl\src\lv_draw\../lv_misc/lv_area.h ****  *      DEFINES
  27:..\..\..\lvgl\version_6.1.2\lvgl\src\lv_draw\../lv_misc/lv_area.h ****  *********************/
  28:..\..\..\lvgl\version_6.1.2\lvgl\src\lv_draw\../lv_misc/lv_area.h **** /*To avoid overflow don't let the max ranges (reduce with 1000) */
  29:..\..\..\lvgl\version_6.1.2\lvgl\src\lv_draw\../lv_misc/lv_area.h **** #define LV_COORD_MAX ((lv_coord_t)((uint32_t)((uint32_t)1 << (8 * sizeof(lv_coord_t) - 1)) - 1000))
  30:..\..\..\lvgl\version_6.1.2\lvgl\src\lv_draw\../lv_misc/lv_area.h **** #define LV_COORD_MIN (-LV_COORD_MAX)
  31:..\..\..\lvgl\version_6.1.2\lvgl\src\lv_draw\../lv_misc/lv_area.h **** 
  32:..\..\..\lvgl\version_6.1.2\lvgl\src\lv_draw\../lv_misc/lv_area.h **** LV_EXPORT_CONST_INT(LV_COORD_MAX);
  33:..\..\..\lvgl\version_6.1.2\lvgl\src\lv_draw\../lv_misc/lv_area.h **** LV_EXPORT_CONST_INT(LV_COORD_MIN);
  34:..\..\..\lvgl\version_6.1.2\lvgl\src\lv_draw\../lv_misc/lv_area.h **** 
  35:..\..\..\lvgl\version_6.1.2\lvgl\src\lv_draw\../lv_misc/lv_area.h **** /**********************
  36:..\..\..\lvgl\version_6.1.2\lvgl\src\lv_draw\../lv_misc/lv_area.h ****  *      TYPEDEFS
  37:..\..\..\lvgl\version_6.1.2\lvgl\src\lv_draw\../lv_misc/lv_area.h ****  **********************/
  38:..\..\..\lvgl\version_6.1.2\lvgl\src\lv_draw\../lv_misc/lv_area.h **** 
  39:..\..\..\lvgl\version_6.1.2\lvgl\src\lv_draw\../lv_misc/lv_area.h **** /**
  40:..\..\..\lvgl\version_6.1.2\lvgl\src\lv_draw\../lv_misc/lv_area.h ****  * Represents a point on the screen.
  41:..\..\..\lvgl\version_6.1.2\lvgl\src\lv_draw\../lv_misc/lv_area.h ****  */
  42:..\..\..\lvgl\version_6.1.2\lvgl\src\lv_draw\../lv_misc/lv_area.h **** typedef struct
  43:..\..\..\lvgl\version_6.1.2\lvgl\src\lv_draw\../lv_misc/lv_area.h **** {
  44:..\..\..\lvgl\version_6.1.2\lvgl\src\lv_draw\../lv_misc/lv_area.h ****     lv_coord_t x;
  45:..\..\..\lvgl\version_6.1.2\lvgl\src\lv_draw\../lv_misc/lv_area.h ****     lv_coord_t y;
  46:..\..\..\lvgl\version_6.1.2\lvgl\src\lv_draw\../lv_misc/lv_area.h **** } lv_point_t;
  47:..\..\..\lvgl\version_6.1.2\lvgl\src\lv_draw\../lv_misc/lv_area.h **** 
  48:..\..\..\lvgl\version_6.1.2\lvgl\src\lv_draw\../lv_misc/lv_area.h **** /** Represents an area of the screen. */
  49:..\..\..\lvgl\version_6.1.2\lvgl\src\lv_draw\../lv_misc/lv_area.h **** typedef struct
  50:..\..\..\lvgl\version_6.1.2\lvgl\src\lv_draw\../lv_misc/lv_area.h **** {
  51:..\..\..\lvgl\version_6.1.2\lvgl\src\lv_draw\../lv_misc/lv_area.h ****     lv_coord_t x1;
  52:..\..\..\lvgl\version_6.1.2\lvgl\src\lv_draw\../lv_misc/lv_area.h ****     lv_coord_t y1;
  53:..\..\..\lvgl\version_6.1.2\lvgl\src\lv_draw\../lv_misc/lv_area.h ****     lv_coord_t x2;
  54:..\..\..\lvgl\version_6.1.2\lvgl\src\lv_draw\../lv_misc/lv_area.h ****     lv_coord_t y2;
  55:..\..\..\lvgl\version_6.1.2\lvgl\src\lv_draw\../lv_misc/lv_area.h **** } lv_area_t;
  56:..\..\..\lvgl\version_6.1.2\lvgl\src\lv_draw\../lv_misc/lv_area.h **** 
  57:..\..\..\lvgl\version_6.1.2\lvgl\src\lv_draw\../lv_misc/lv_area.h **** /**********************
ARM GAS  C:\Users\pearlstl\AppData\Local\Temp\ccmYHcOW.s 			page 5


  58:..\..\..\lvgl\version_6.1.2\lvgl\src\lv_draw\../lv_misc/lv_area.h ****  * GLOBAL PROTOTYPES
  59:..\..\..\lvgl\version_6.1.2\lvgl\src\lv_draw\../lv_misc/lv_area.h ****  **********************/
  60:..\..\..\lvgl\version_6.1.2\lvgl\src\lv_draw\../lv_misc/lv_area.h **** 
  61:..\..\..\lvgl\version_6.1.2\lvgl\src\lv_draw\../lv_misc/lv_area.h **** /**
  62:..\..\..\lvgl\version_6.1.2\lvgl\src\lv_draw\../lv_misc/lv_area.h ****  * Initialize an area
  63:..\..\..\lvgl\version_6.1.2\lvgl\src\lv_draw\../lv_misc/lv_area.h ****  * @param area_p pointer to an area
  64:..\..\..\lvgl\version_6.1.2\lvgl\src\lv_draw\../lv_misc/lv_area.h ****  * @param x1 left coordinate of the area
  65:..\..\..\lvgl\version_6.1.2\lvgl\src\lv_draw\../lv_misc/lv_area.h ****  * @param y1 top coordinate of the area
  66:..\..\..\lvgl\version_6.1.2\lvgl\src\lv_draw\../lv_misc/lv_area.h ****  * @param x2 right coordinate of the area
  67:..\..\..\lvgl\version_6.1.2\lvgl\src\lv_draw\../lv_misc/lv_area.h ****  * @param y2 bottom coordinate of the area
  68:..\..\..\lvgl\version_6.1.2\lvgl\src\lv_draw\../lv_misc/lv_area.h ****  */
  69:..\..\..\lvgl\version_6.1.2\lvgl\src\lv_draw\../lv_misc/lv_area.h **** void lv_area_set(lv_area_t * area_p, lv_coord_t x1, lv_coord_t y1, lv_coord_t x2, lv_coord_t y2);
  70:..\..\..\lvgl\version_6.1.2\lvgl\src\lv_draw\../lv_misc/lv_area.h **** 
  71:..\..\..\lvgl\version_6.1.2\lvgl\src\lv_draw\../lv_misc/lv_area.h **** /**
  72:..\..\..\lvgl\version_6.1.2\lvgl\src\lv_draw\../lv_misc/lv_area.h ****  * Copy an area
  73:..\..\..\lvgl\version_6.1.2\lvgl\src\lv_draw\../lv_misc/lv_area.h ****  * @param dest pointer to the destination area
  74:..\..\..\lvgl\version_6.1.2\lvgl\src\lv_draw\../lv_misc/lv_area.h ****  * @param src pointer to the source area
  75:..\..\..\lvgl\version_6.1.2\lvgl\src\lv_draw\../lv_misc/lv_area.h ****  */
  76:..\..\..\lvgl\version_6.1.2\lvgl\src\lv_draw\../lv_misc/lv_area.h **** inline static void lv_area_copy(lv_area_t * dest, const lv_area_t * src)
  77:..\..\..\lvgl\version_6.1.2\lvgl\src\lv_draw\../lv_misc/lv_area.h **** {
  78:..\..\..\lvgl\version_6.1.2\lvgl\src\lv_draw\../lv_misc/lv_area.h ****     memcpy(dest, src, sizeof(lv_area_t));
  79:..\..\..\lvgl\version_6.1.2\lvgl\src\lv_draw\../lv_misc/lv_area.h **** }
  80:..\..\..\lvgl\version_6.1.2\lvgl\src\lv_draw\../lv_misc/lv_area.h **** 
  81:..\..\..\lvgl\version_6.1.2\lvgl\src\lv_draw\../lv_misc/lv_area.h **** /**
  82:..\..\..\lvgl\version_6.1.2\lvgl\src\lv_draw\../lv_misc/lv_area.h ****  * Get the width of an area
  83:..\..\..\lvgl\version_6.1.2\lvgl\src\lv_draw\../lv_misc/lv_area.h ****  * @param area_p pointer to an area
  84:..\..\..\lvgl\version_6.1.2\lvgl\src\lv_draw\../lv_misc/lv_area.h ****  * @return the width of the area (if x1 == x2 -> width = 1)
  85:..\..\..\lvgl\version_6.1.2\lvgl\src\lv_draw\../lv_misc/lv_area.h ****  */
  86:..\..\..\lvgl\version_6.1.2\lvgl\src\lv_draw\../lv_misc/lv_area.h **** static inline lv_coord_t lv_area_get_width(const lv_area_t * area_p)
  87:..\..\..\lvgl\version_6.1.2\lvgl\src\lv_draw\../lv_misc/lv_area.h **** {
  88:..\..\..\lvgl\version_6.1.2\lvgl\src\lv_draw\../lv_misc/lv_area.h ****     return (lv_coord_t)(area_p->x2 - area_p->x1 + 1);
  87              		.loc 2 88 0
  88 0044 828A     		ldrh	r2, [r0, #20]
  89 0046 038A     		ldrh	r3, [r0, #16]
  90              	.LBE45:
  91              	.LBE44:
  85:..\..\..\lvgl\version_6.1.2\lvgl\src\lv_draw/lv_draw_basic.c ****     uint32_t vdb_width  = lv_area_get_width(&vdb->area);
  86:..\..\..\lvgl\version_6.1.2\lvgl\src\lv_draw/lv_draw_basic.c **** 
  87:..\..\..\lvgl\version_6.1.2\lvgl\src\lv_draw/lv_draw_basic.c ****     /*Make the coordinates relative to VDB*/
  88:..\..\..\lvgl\version_6.1.2\lvgl\src\lv_draw/lv_draw_basic.c ****     x -= vdb->area.x1;
  89:..\..\..\lvgl\version_6.1.2\lvgl\src\lv_draw/lv_draw_basic.c ****     y -= vdb->area.y1;
  92              		.loc 1 89 0
  93 0048 418A     		ldrh	r1, [r0, #18]
  90:..\..\..\lvgl\version_6.1.2\lvgl\src\lv_draw/lv_draw_basic.c **** 
  91:..\..\..\lvgl\version_6.1.2\lvgl\src\lv_draw/lv_draw_basic.c ****     if(disp->driver.set_px_cb) {
  94              		.loc 1 91 0
  95 004a D8F81470 		ldr	r7, [r8, #20]
  96              	.LBB48:
  97              	.LBB46:
  98              		.loc 2 88 0
  99 004e 0132     		adds	r2, r2, #1
 100 0050 D21A     		subs	r2, r2, r3
 101              	.LBE46:
 102              	.LBE48:
  88:..\..\..\lvgl\version_6.1.2\lvgl\src\lv_draw/lv_draw_basic.c ****     y -= vdb->area.y1;
 103              		.loc 1 88 0
 104 0052 ED1A     		subs	r5, r5, r3
ARM GAS  C:\Users\pearlstl\AppData\Local\Temp\ccmYHcOW.s 			page 6


  89:..\..\..\lvgl\version_6.1.2\lvgl\src\lv_draw/lv_draw_basic.c **** 
 105              		.loc 1 89 0
 106 0054 C1EB0901 		rsb	r1, r1, r9
  88:..\..\..\lvgl\version_6.1.2\lvgl\src\lv_draw/lv_draw_basic.c ****     y -= vdb->area.y1;
 107              		.loc 1 88 0
 108 0058 2BB2     		sxth	r3, r5
 109              	.LBB49:
 110              	.LBB47:
 111              		.loc 2 88 0
 112 005a 12B2     		sxth	r2, r2
 113              	.LVL6:
 114              	.LBE47:
 115              	.LBE49:
  89:..\..\..\lvgl\version_6.1.2\lvgl\src\lv_draw/lv_draw_basic.c **** 
 116              		.loc 1 89 0
 117 005c 0DB2     		sxth	r5, r1
 118              	.LVL7:
 119              		.loc 1 91 0
 120 005e 47B1     		cbz	r7, .L4
  92:..\..\..\lvgl\version_6.1.2\lvgl\src\lv_draw/lv_draw_basic.c ****         disp->driver.set_px_cb(&disp->driver, (uint8_t *)vdb->buf_act, vdb_width, x, y, color, opa)
 121              		.loc 1 92 0
 122 0060 8168     		ldr	r1, [r0, #8]
 123 0062 0294     		str	r4, [sp, #8]
 124 0064 8DE86000 		stmia	sp, {r5, r6}
 125 0068 4046     		mov	r0, r8
 126              	.LVL8:
 127 006a B847     		blx	r7
 128              	.LVL9:
 129              	.L1:
  93:..\..\..\lvgl\version_6.1.2\lvgl\src\lv_draw/lv_draw_basic.c ****     } else {
  94:..\..\..\lvgl\version_6.1.2\lvgl\src\lv_draw/lv_draw_basic.c ****         bool scr_transp = false;
  95:..\..\..\lvgl\version_6.1.2\lvgl\src\lv_draw/lv_draw_basic.c **** #if LV_COLOR_DEPTH == 32 && LV_COLOR_SCREEN_TRANSP
  96:..\..\..\lvgl\version_6.1.2\lvgl\src\lv_draw/lv_draw_basic.c ****         scr_transp = disp->driver.screen_transp;
  97:..\..\..\lvgl\version_6.1.2\lvgl\src\lv_draw/lv_draw_basic.c **** #endif
  98:..\..\..\lvgl\version_6.1.2\lvgl\src\lv_draw/lv_draw_basic.c **** 
  99:..\..\..\lvgl\version_6.1.2\lvgl\src\lv_draw/lv_draw_basic.c ****         lv_color_t * vdb_px_p = vdb->buf_act;
 100:..\..\..\lvgl\version_6.1.2\lvgl\src\lv_draw/lv_draw_basic.c ****         vdb_px_p += y * vdb_width + x;
 101:..\..\..\lvgl\version_6.1.2\lvgl\src\lv_draw/lv_draw_basic.c **** 
 102:..\..\..\lvgl\version_6.1.2\lvgl\src\lv_draw/lv_draw_basic.c ****         if(scr_transp == false) {
 103:..\..\..\lvgl\version_6.1.2\lvgl\src\lv_draw/lv_draw_basic.c ****             if(opa == LV_OPA_COVER) {
 104:..\..\..\lvgl\version_6.1.2\lvgl\src\lv_draw/lv_draw_basic.c ****                 *vdb_px_p = color;
 105:..\..\..\lvgl\version_6.1.2\lvgl\src\lv_draw/lv_draw_basic.c ****             } else {
 106:..\..\..\lvgl\version_6.1.2\lvgl\src\lv_draw/lv_draw_basic.c ****                 *vdb_px_p = lv_color_mix(color, *vdb_px_p, opa);
 107:..\..\..\lvgl\version_6.1.2\lvgl\src\lv_draw/lv_draw_basic.c ****             }
 108:..\..\..\lvgl\version_6.1.2\lvgl\src\lv_draw/lv_draw_basic.c ****         } else {
 109:..\..\..\lvgl\version_6.1.2\lvgl\src\lv_draw/lv_draw_basic.c **** #if LV_COLOR_DEPTH == 32 && LV_COLOR_SCREEN_TRANSP
 110:..\..\..\lvgl\version_6.1.2\lvgl\src\lv_draw/lv_draw_basic.c ****             *vdb_px_p = color_mix_2_alpha(*vdb_px_p, (*vdb_px_p).ch.alpha, color, opa);
 111:..\..\..\lvgl\version_6.1.2\lvgl\src\lv_draw/lv_draw_basic.c **** #endif
 112:..\..\..\lvgl\version_6.1.2\lvgl\src\lv_draw/lv_draw_basic.c ****         }
 113:..\..\..\lvgl\version_6.1.2\lvgl\src\lv_draw/lv_draw_basic.c ****     }
 114:..\..\..\lvgl\version_6.1.2\lvgl\src\lv_draw/lv_draw_basic.c **** }
 130              		.loc 1 114 0
 131 006c 05B0     		add	sp, sp, #20
 132              		.cfi_remember_state
 133              		.cfi_def_cfa_offset 28
 134              		@ sp needed
 135 006e BDE8F083 		pop	{r4, r5, r6, r7, r8, r9, pc}
ARM GAS  C:\Users\pearlstl\AppData\Local\Temp\ccmYHcOW.s 			page 7


 136              	.LVL10:
 137              	.L4:
 138              		.cfi_restore_state
 139              	.LBB50:
  99:..\..\..\lvgl\version_6.1.2\lvgl\src\lv_draw/lv_draw_basic.c ****         vdb_px_p += y * vdb_width + x;
 140              		.loc 1 99 0
 141 0072 8768     		ldr	r7, [r0, #8]
 142              	.LVL11:
 100:..\..\..\lvgl\version_6.1.2\lvgl\src\lv_draw/lv_draw_basic.c **** 
 143              		.loc 1 100 0
 144 0074 02FB0532 		mla	r2, r2, r5, r3
 145              	.LVL12:
 103:..\..\..\lvgl\version_6.1.2\lvgl\src\lv_draw/lv_draw_basic.c ****                 *vdb_px_p = color;
 146              		.loc 1 103 0
 147 0078 FF2C     		cmp	r4, #255
 100:..\..\..\lvgl\version_6.1.2\lvgl\src\lv_draw/lv_draw_basic.c **** 
 148              		.loc 1 100 0
 149 007a 07EB8205 		add	r5, r7, r2, lsl #2
 150              	.LVL13:
 103:..\..\..\lvgl\version_6.1.2\lvgl\src\lv_draw/lv_draw_basic.c ****                 *vdb_px_p = color;
 151              		.loc 1 103 0
 152 007e 26D0     		beq	.L8
 153              	.LVL14:
 106:..\..\..\lvgl\version_6.1.2\lvgl\src\lv_draw/lv_draw_basic.c ****             }
 154              		.loc 1 106 0
 155 0080 17F82280 		ldrb	r8, [r7, r2, lsl #2]	@ zero_extendqisi2
 156              	.LVL15:
 157              	.LBB51:
 158              	.LBB52:
 159              		.file 3 "..\\..\\..\\lvgl\\version_6.1.2\\lvgl\\src\\lv_draw\\../lv_misc/lv_color.h"
   1:..\..\..\lvgl\version_6.1.2\lvgl\src\lv_draw\../lv_misc/lv_color.h **** /**
   2:..\..\..\lvgl\version_6.1.2\lvgl\src\lv_draw\../lv_misc/lv_color.h ****  * @file lv_color.h
   3:..\..\..\lvgl\version_6.1.2\lvgl\src\lv_draw\../lv_misc/lv_color.h ****  *
   4:..\..\..\lvgl\version_6.1.2\lvgl\src\lv_draw\../lv_misc/lv_color.h ****  */
   5:..\..\..\lvgl\version_6.1.2\lvgl\src\lv_draw\../lv_misc/lv_color.h **** 
   6:..\..\..\lvgl\version_6.1.2\lvgl\src\lv_draw\../lv_misc/lv_color.h **** #ifndef LV_COLOR_H
   7:..\..\..\lvgl\version_6.1.2\lvgl\src\lv_draw\../lv_misc/lv_color.h **** #define LV_COLOR_H
   8:..\..\..\lvgl\version_6.1.2\lvgl\src\lv_draw\../lv_misc/lv_color.h **** 
   9:..\..\..\lvgl\version_6.1.2\lvgl\src\lv_draw\../lv_misc/lv_color.h **** #ifdef __cplusplus
  10:..\..\..\lvgl\version_6.1.2\lvgl\src\lv_draw\../lv_misc/lv_color.h **** extern "C" {
  11:..\..\..\lvgl\version_6.1.2\lvgl\src\lv_draw\../lv_misc/lv_color.h **** #endif
  12:..\..\..\lvgl\version_6.1.2\lvgl\src\lv_draw\../lv_misc/lv_color.h **** 
  13:..\..\..\lvgl\version_6.1.2\lvgl\src\lv_draw\../lv_misc/lv_color.h **** /*********************
  14:..\..\..\lvgl\version_6.1.2\lvgl\src\lv_draw\../lv_misc/lv_color.h ****  *      INCLUDES
  15:..\..\..\lvgl\version_6.1.2\lvgl\src\lv_draw\../lv_misc/lv_color.h ****  *********************/
  16:..\..\..\lvgl\version_6.1.2\lvgl\src\lv_draw\../lv_misc/lv_color.h **** #ifdef LV_CONF_INCLUDE_SIMPLE
  17:..\..\..\lvgl\version_6.1.2\lvgl\src\lv_draw\../lv_misc/lv_color.h **** #include "lv_conf.h"
  18:..\..\..\lvgl\version_6.1.2\lvgl\src\lv_draw\../lv_misc/lv_color.h **** #else
  19:..\..\..\lvgl\version_6.1.2\lvgl\src\lv_draw\../lv_misc/lv_color.h **** #include "../../../lv_conf.h"
  20:..\..\..\lvgl\version_6.1.2\lvgl\src\lv_draw\../lv_misc/lv_color.h **** #endif
  21:..\..\..\lvgl\version_6.1.2\lvgl\src\lv_draw\../lv_misc/lv_color.h **** 
  22:..\..\..\lvgl\version_6.1.2\lvgl\src\lv_draw\../lv_misc/lv_color.h **** /*Error checking*/
  23:..\..\..\lvgl\version_6.1.2\lvgl\src\lv_draw\../lv_misc/lv_color.h **** #if LV_COLOR_DEPTH == 24
  24:..\..\..\lvgl\version_6.1.2\lvgl\src\lv_draw\../lv_misc/lv_color.h **** #error "LV_COLOR_DEPTH  24 is deprecated. Use LV_COLOR_DEPTH  32 instead (lv_conf.h)"
  25:..\..\..\lvgl\version_6.1.2\lvgl\src\lv_draw\../lv_misc/lv_color.h **** #endif
  26:..\..\..\lvgl\version_6.1.2\lvgl\src\lv_draw\../lv_misc/lv_color.h **** 
  27:..\..\..\lvgl\version_6.1.2\lvgl\src\lv_draw\../lv_misc/lv_color.h **** #if LV_COLOR_DEPTH != 32 && LV_COLOR_SCREEN_TRANSP != 0
ARM GAS  C:\Users\pearlstl\AppData\Local\Temp\ccmYHcOW.s 			page 8


  28:..\..\..\lvgl\version_6.1.2\lvgl\src\lv_draw\../lv_misc/lv_color.h **** #error "LV_COLOR_SCREEN_TRANSP requires LV_COLOR_DEPTH == 32. Set it in lv_conf.h"
  29:..\..\..\lvgl\version_6.1.2\lvgl\src\lv_draw\../lv_misc/lv_color.h **** #endif
  30:..\..\..\lvgl\version_6.1.2\lvgl\src\lv_draw\../lv_misc/lv_color.h **** 
  31:..\..\..\lvgl\version_6.1.2\lvgl\src\lv_draw\../lv_misc/lv_color.h **** #if LV_COLOR_DEPTH != 16 && LV_COLOR_16_SWAP != 0
  32:..\..\..\lvgl\version_6.1.2\lvgl\src\lv_draw\../lv_misc/lv_color.h **** #error "LV_COLOR_16_SWAP requires LV_COLOR_DEPTH == 16. Set it in lv_conf.h"
  33:..\..\..\lvgl\version_6.1.2\lvgl\src\lv_draw\../lv_misc/lv_color.h **** #endif
  34:..\..\..\lvgl\version_6.1.2\lvgl\src\lv_draw\../lv_misc/lv_color.h **** 
  35:..\..\..\lvgl\version_6.1.2\lvgl\src\lv_draw\../lv_misc/lv_color.h **** #include <stdint.h>
  36:..\..\..\lvgl\version_6.1.2\lvgl\src\lv_draw\../lv_misc/lv_color.h **** 
  37:..\..\..\lvgl\version_6.1.2\lvgl\src\lv_draw\../lv_misc/lv_color.h **** /*********************
  38:..\..\..\lvgl\version_6.1.2\lvgl\src\lv_draw\../lv_misc/lv_color.h ****  *      DEFINES
  39:..\..\..\lvgl\version_6.1.2\lvgl\src\lv_draw\../lv_misc/lv_color.h ****  *********************/
  40:..\..\..\lvgl\version_6.1.2\lvgl\src\lv_draw\../lv_misc/lv_color.h **** #define LV_COLOR_WHITE LV_COLOR_MAKE(0xFF, 0xFF, 0xFF)
  41:..\..\..\lvgl\version_6.1.2\lvgl\src\lv_draw\../lv_misc/lv_color.h **** #define LV_COLOR_SILVER LV_COLOR_MAKE(0xC0, 0xC0, 0xC0)
  42:..\..\..\lvgl\version_6.1.2\lvgl\src\lv_draw\../lv_misc/lv_color.h **** #define LV_COLOR_GRAY LV_COLOR_MAKE(0x80, 0x80, 0x80)
  43:..\..\..\lvgl\version_6.1.2\lvgl\src\lv_draw\../lv_misc/lv_color.h **** #define LV_COLOR_BLACK LV_COLOR_MAKE(0x00, 0x00, 0x00)
  44:..\..\..\lvgl\version_6.1.2\lvgl\src\lv_draw\../lv_misc/lv_color.h **** #define LV_COLOR_RED LV_COLOR_MAKE(0xFF, 0x00, 0x00)
  45:..\..\..\lvgl\version_6.1.2\lvgl\src\lv_draw\../lv_misc/lv_color.h **** #define LV_COLOR_MAROON LV_COLOR_MAKE(0x80, 0x00, 0x00)
  46:..\..\..\lvgl\version_6.1.2\lvgl\src\lv_draw\../lv_misc/lv_color.h **** #define LV_COLOR_YELLOW LV_COLOR_MAKE(0xFF, 0xFF, 0x00)
  47:..\..\..\lvgl\version_6.1.2\lvgl\src\lv_draw\../lv_misc/lv_color.h **** #define LV_COLOR_OLIVE LV_COLOR_MAKE(0x80, 0x80, 0x00)
  48:..\..\..\lvgl\version_6.1.2\lvgl\src\lv_draw\../lv_misc/lv_color.h **** #define LV_COLOR_LIME LV_COLOR_MAKE(0x00, 0xFF, 0x00)
  49:..\..\..\lvgl\version_6.1.2\lvgl\src\lv_draw\../lv_misc/lv_color.h **** #define LV_COLOR_GREEN LV_COLOR_MAKE(0x00, 0x80, 0x00)
  50:..\..\..\lvgl\version_6.1.2\lvgl\src\lv_draw\../lv_misc/lv_color.h **** #define LV_COLOR_CYAN LV_COLOR_MAKE(0x00, 0xFF, 0xFF)
  51:..\..\..\lvgl\version_6.1.2\lvgl\src\lv_draw\../lv_misc/lv_color.h **** #define LV_COLOR_AQUA LV_COLOR_CYAN
  52:..\..\..\lvgl\version_6.1.2\lvgl\src\lv_draw\../lv_misc/lv_color.h **** #define LV_COLOR_TEAL LV_COLOR_MAKE(0x00, 0x80, 0x80)
  53:..\..\..\lvgl\version_6.1.2\lvgl\src\lv_draw\../lv_misc/lv_color.h **** #define LV_COLOR_BLUE LV_COLOR_MAKE(0x00, 0x00, 0xFF)
  54:..\..\..\lvgl\version_6.1.2\lvgl\src\lv_draw\../lv_misc/lv_color.h **** #define LV_COLOR_NAVY LV_COLOR_MAKE(0x00, 0x00, 0x80)
  55:..\..\..\lvgl\version_6.1.2\lvgl\src\lv_draw\../lv_misc/lv_color.h **** #define LV_COLOR_MAGENTA LV_COLOR_MAKE(0xFF, 0x00, 0xFF)
  56:..\..\..\lvgl\version_6.1.2\lvgl\src\lv_draw\../lv_misc/lv_color.h **** #define LV_COLOR_PURPLE LV_COLOR_MAKE(0x80, 0x00, 0x80)
  57:..\..\..\lvgl\version_6.1.2\lvgl\src\lv_draw\../lv_misc/lv_color.h **** #define LV_COLOR_ORANGE LV_COLOR_MAKE(0xFF, 0xA5, 0x00)
  58:..\..\..\lvgl\version_6.1.2\lvgl\src\lv_draw\../lv_misc/lv_color.h **** 
  59:..\..\..\lvgl\version_6.1.2\lvgl\src\lv_draw\../lv_misc/lv_color.h **** /**
  60:..\..\..\lvgl\version_6.1.2\lvgl\src\lv_draw\../lv_misc/lv_color.h ****  * Opacity percentages.
  61:..\..\..\lvgl\version_6.1.2\lvgl\src\lv_draw\../lv_misc/lv_color.h ****  */
  62:..\..\..\lvgl\version_6.1.2\lvgl\src\lv_draw\../lv_misc/lv_color.h **** enum {
  63:..\..\..\lvgl\version_6.1.2\lvgl\src\lv_draw\../lv_misc/lv_color.h ****     LV_OPA_TRANSP = 0,
  64:..\..\..\lvgl\version_6.1.2\lvgl\src\lv_draw\../lv_misc/lv_color.h ****     LV_OPA_0      = 0,
  65:..\..\..\lvgl\version_6.1.2\lvgl\src\lv_draw\../lv_misc/lv_color.h ****     LV_OPA_10     = 25,
  66:..\..\..\lvgl\version_6.1.2\lvgl\src\lv_draw\../lv_misc/lv_color.h ****     LV_OPA_20     = 51,
  67:..\..\..\lvgl\version_6.1.2\lvgl\src\lv_draw\../lv_misc/lv_color.h ****     LV_OPA_30     = 76,
  68:..\..\..\lvgl\version_6.1.2\lvgl\src\lv_draw\../lv_misc/lv_color.h ****     LV_OPA_40     = 102,
  69:..\..\..\lvgl\version_6.1.2\lvgl\src\lv_draw\../lv_misc/lv_color.h ****     LV_OPA_50     = 127,
  70:..\..\..\lvgl\version_6.1.2\lvgl\src\lv_draw\../lv_misc/lv_color.h ****     LV_OPA_60     = 153,
  71:..\..\..\lvgl\version_6.1.2\lvgl\src\lv_draw\../lv_misc/lv_color.h ****     LV_OPA_70     = 178,
  72:..\..\..\lvgl\version_6.1.2\lvgl\src\lv_draw\../lv_misc/lv_color.h ****     LV_OPA_80     = 204,
  73:..\..\..\lvgl\version_6.1.2\lvgl\src\lv_draw\../lv_misc/lv_color.h ****     LV_OPA_90     = 229,
  74:..\..\..\lvgl\version_6.1.2\lvgl\src\lv_draw\../lv_misc/lv_color.h ****     LV_OPA_100    = 255,
  75:..\..\..\lvgl\version_6.1.2\lvgl\src\lv_draw\../lv_misc/lv_color.h ****     LV_OPA_COVER  = 255,
  76:..\..\..\lvgl\version_6.1.2\lvgl\src\lv_draw\../lv_misc/lv_color.h **** };
  77:..\..\..\lvgl\version_6.1.2\lvgl\src\lv_draw\../lv_misc/lv_color.h **** 
  78:..\..\..\lvgl\version_6.1.2\lvgl\src\lv_draw\../lv_misc/lv_color.h **** #define LV_OPA_MIN 16  /*Opacities below this will be transparent*/
  79:..\..\..\lvgl\version_6.1.2\lvgl\src\lv_draw\../lv_misc/lv_color.h **** #define LV_OPA_MAX 251 /*Opacities above this will fully cover*/
  80:..\..\..\lvgl\version_6.1.2\lvgl\src\lv_draw\../lv_misc/lv_color.h **** 
  81:..\..\..\lvgl\version_6.1.2\lvgl\src\lv_draw\../lv_misc/lv_color.h **** #if LV_COLOR_DEPTH == 1
  82:..\..\..\lvgl\version_6.1.2\lvgl\src\lv_draw\../lv_misc/lv_color.h **** #define LV_COLOR_SIZE 8
  83:..\..\..\lvgl\version_6.1.2\lvgl\src\lv_draw\../lv_misc/lv_color.h **** #elif LV_COLOR_DEPTH == 8
  84:..\..\..\lvgl\version_6.1.2\lvgl\src\lv_draw\../lv_misc/lv_color.h **** #define LV_COLOR_SIZE 8
ARM GAS  C:\Users\pearlstl\AppData\Local\Temp\ccmYHcOW.s 			page 9


  85:..\..\..\lvgl\version_6.1.2\lvgl\src\lv_draw\../lv_misc/lv_color.h **** #elif LV_COLOR_DEPTH == 16
  86:..\..\..\lvgl\version_6.1.2\lvgl\src\lv_draw\../lv_misc/lv_color.h **** #define LV_COLOR_SIZE 16
  87:..\..\..\lvgl\version_6.1.2\lvgl\src\lv_draw\../lv_misc/lv_color.h **** #elif LV_COLOR_DEPTH == 32
  88:..\..\..\lvgl\version_6.1.2\lvgl\src\lv_draw\../lv_misc/lv_color.h **** #define LV_COLOR_SIZE 32
  89:..\..\..\lvgl\version_6.1.2\lvgl\src\lv_draw\../lv_misc/lv_color.h **** #else
  90:..\..\..\lvgl\version_6.1.2\lvgl\src\lv_draw\../lv_misc/lv_color.h **** #error "Invalid LV_COLOR_DEPTH in lv_conf.h! Set it to 1, 8, 16 or 32!"
  91:..\..\..\lvgl\version_6.1.2\lvgl\src\lv_draw\../lv_misc/lv_color.h **** #endif
  92:..\..\..\lvgl\version_6.1.2\lvgl\src\lv_draw\../lv_misc/lv_color.h **** 
  93:..\..\..\lvgl\version_6.1.2\lvgl\src\lv_draw\../lv_misc/lv_color.h **** /*---------------------------------------
  94:..\..\..\lvgl\version_6.1.2\lvgl\src\lv_draw\../lv_misc/lv_color.h ****  * Macros for all existing  color depths
  95:..\..\..\lvgl\version_6.1.2\lvgl\src\lv_draw\../lv_misc/lv_color.h ****  * to set/get values of the color channels
  96:..\..\..\lvgl\version_6.1.2\lvgl\src\lv_draw\../lv_misc/lv_color.h ****  *------------------------------------------*/
  97:..\..\..\lvgl\version_6.1.2\lvgl\src\lv_draw\../lv_misc/lv_color.h **** # define LV_COLOR_SET_R1(c, v) (c).ch.red = (uint8_t)((v) & 0x1);
  98:..\..\..\lvgl\version_6.1.2\lvgl\src\lv_draw\../lv_misc/lv_color.h **** # define LV_COLOR_SET_G1(c, v) (c).ch.green = (uint8_t)((v) & 0x1);
  99:..\..\..\lvgl\version_6.1.2\lvgl\src\lv_draw\../lv_misc/lv_color.h **** # define LV_COLOR_SET_B1(c, v) (c).ch.blue = (uint8_t)((v) & 0x1);
 100:..\..\..\lvgl\version_6.1.2\lvgl\src\lv_draw\../lv_misc/lv_color.h **** # define LV_COLOR_SET_A1(c, v)
 101:..\..\..\lvgl\version_6.1.2\lvgl\src\lv_draw\../lv_misc/lv_color.h **** 
 102:..\..\..\lvgl\version_6.1.2\lvgl\src\lv_draw\../lv_misc/lv_color.h **** # define LV_COLOR_GET_R1(c) (c).ch.red
 103:..\..\..\lvgl\version_6.1.2\lvgl\src\lv_draw\../lv_misc/lv_color.h **** # define LV_COLOR_GET_G1(c) (c).ch.green
 104:..\..\..\lvgl\version_6.1.2\lvgl\src\lv_draw\../lv_misc/lv_color.h **** # define LV_COLOR_GET_B1(c) (c).ch.blue
 105:..\..\..\lvgl\version_6.1.2\lvgl\src\lv_draw\../lv_misc/lv_color.h **** # define LV_COLOR_GET_A1(c) 1
 106:..\..\..\lvgl\version_6.1.2\lvgl\src\lv_draw\../lv_misc/lv_color.h **** 
 107:..\..\..\lvgl\version_6.1.2\lvgl\src\lv_draw\../lv_misc/lv_color.h **** # define LV_COLOR_SET_R8(c, v) (c).ch.red = (uint8_t)(v) & 0x7U;
 108:..\..\..\lvgl\version_6.1.2\lvgl\src\lv_draw\../lv_misc/lv_color.h **** # define LV_COLOR_SET_G8(c, v) (c).ch.green = (uint8_t)(v) & 0x7U;
 109:..\..\..\lvgl\version_6.1.2\lvgl\src\lv_draw\../lv_misc/lv_color.h **** # define LV_COLOR_SET_B8(c, v) (c).ch.blue = (uint8_t)(v) & 0x3U;
 110:..\..\..\lvgl\version_6.1.2\lvgl\src\lv_draw\../lv_misc/lv_color.h **** # define LV_COLOR_SET_A8(c, v) do {} while(0)
 111:..\..\..\lvgl\version_6.1.2\lvgl\src\lv_draw\../lv_misc/lv_color.h **** 
 112:..\..\..\lvgl\version_6.1.2\lvgl\src\lv_draw\../lv_misc/lv_color.h **** # define LV_COLOR_GET_R8(c) (c).ch.red
 113:..\..\..\lvgl\version_6.1.2\lvgl\src\lv_draw\../lv_misc/lv_color.h **** # define LV_COLOR_GET_G8(c) (c).ch.green
 114:..\..\..\lvgl\version_6.1.2\lvgl\src\lv_draw\../lv_misc/lv_color.h **** # define LV_COLOR_GET_B8(c) (c).ch.blue
 115:..\..\..\lvgl\version_6.1.2\lvgl\src\lv_draw\../lv_misc/lv_color.h **** # define LV_COLOR_GET_A8(c) 0xFF
 116:..\..\..\lvgl\version_6.1.2\lvgl\src\lv_draw\../lv_misc/lv_color.h **** 
 117:..\..\..\lvgl\version_6.1.2\lvgl\src\lv_draw\../lv_misc/lv_color.h **** # define LV_COLOR_SET_R16(c, v) (c).ch.red = (uint8_t)(v) & 0x1FU;
 118:..\..\..\lvgl\version_6.1.2\lvgl\src\lv_draw\../lv_misc/lv_color.h **** # define LV_COLOR_SET_G16(c, v) (c).ch.green = (uint8_t)(v) & 0x3FU;
 119:..\..\..\lvgl\version_6.1.2\lvgl\src\lv_draw\../lv_misc/lv_color.h **** # define LV_COLOR_SET_G16_SWAP(c, v) {(c).ch.green_h = (uint8_t)(((v) >> 3) & 0x7); (c).ch.green_l 
 120:..\..\..\lvgl\version_6.1.2\lvgl\src\lv_draw\../lv_misc/lv_color.h **** # define LV_COLOR_SET_B16(c, v) (c).ch.blue = (uint8_t)(v) & 0x1FU;
 121:..\..\..\lvgl\version_6.1.2\lvgl\src\lv_draw\../lv_misc/lv_color.h **** # define LV_COLOR_SET_A16(c, v) do {} while(0)
 122:..\..\..\lvgl\version_6.1.2\lvgl\src\lv_draw\../lv_misc/lv_color.h **** 
 123:..\..\..\lvgl\version_6.1.2\lvgl\src\lv_draw\../lv_misc/lv_color.h **** # define LV_COLOR_GET_R16(c) (c).ch.red
 124:..\..\..\lvgl\version_6.1.2\lvgl\src\lv_draw\../lv_misc/lv_color.h **** # define LV_COLOR_GET_G16(c) (c).ch.green
 125:..\..\..\lvgl\version_6.1.2\lvgl\src\lv_draw\../lv_misc/lv_color.h **** # define LV_COLOR_GET_G16_SWAP(c) (((c).ch.green_h << 3) + (c).ch.green_l)
 126:..\..\..\lvgl\version_6.1.2\lvgl\src\lv_draw\../lv_misc/lv_color.h **** # define LV_COLOR_GET_B16(c) (c).ch.blue
 127:..\..\..\lvgl\version_6.1.2\lvgl\src\lv_draw\../lv_misc/lv_color.h **** # define LV_COLOR_GET_A16(c) 0xFF
 128:..\..\..\lvgl\version_6.1.2\lvgl\src\lv_draw\../lv_misc/lv_color.h **** 
 129:..\..\..\lvgl\version_6.1.2\lvgl\src\lv_draw\../lv_misc/lv_color.h **** # define LV_COLOR_SET_R32(c, v) (c).ch.red = (uint32_t)((v) & 0xFF);
 130:..\..\..\lvgl\version_6.1.2\lvgl\src\lv_draw\../lv_misc/lv_color.h **** # define LV_COLOR_SET_G32(c, v) (c).ch.green = (uint32_t)((v) & 0xFF);
 131:..\..\..\lvgl\version_6.1.2\lvgl\src\lv_draw\../lv_misc/lv_color.h **** # define LV_COLOR_SET_B32(c, v) (c).ch.blue = (uint32_t)((v) & 0xFF);
 132:..\..\..\lvgl\version_6.1.2\lvgl\src\lv_draw\../lv_misc/lv_color.h **** # define LV_COLOR_SET_A32(c, v) (c).ch.alpha = (uint32_t)((v) & 0xFF);
 133:..\..\..\lvgl\version_6.1.2\lvgl\src\lv_draw\../lv_misc/lv_color.h **** 
 134:..\..\..\lvgl\version_6.1.2\lvgl\src\lv_draw\../lv_misc/lv_color.h **** # define LV_COLOR_GET_R32(c) (c).ch.red
 135:..\..\..\lvgl\version_6.1.2\lvgl\src\lv_draw\../lv_misc/lv_color.h **** # define LV_COLOR_GET_G32(c) (c).ch.green
 136:..\..\..\lvgl\version_6.1.2\lvgl\src\lv_draw\../lv_misc/lv_color.h **** # define LV_COLOR_GET_B32(c) (c).ch.blue
 137:..\..\..\lvgl\version_6.1.2\lvgl\src\lv_draw\../lv_misc/lv_color.h **** # define LV_COLOR_GET_A32(c) (c).ch.alpha
 138:..\..\..\lvgl\version_6.1.2\lvgl\src\lv_draw\../lv_misc/lv_color.h **** 
 139:..\..\..\lvgl\version_6.1.2\lvgl\src\lv_draw\../lv_misc/lv_color.h **** 
 140:..\..\..\lvgl\version_6.1.2\lvgl\src\lv_draw\../lv_misc/lv_color.h **** /*---------------------------------------
 141:..\..\..\lvgl\version_6.1.2\lvgl\src\lv_draw\../lv_misc/lv_color.h ****  * Macros for the current color depth
ARM GAS  C:\Users\pearlstl\AppData\Local\Temp\ccmYHcOW.s 			page 10


 142:..\..\..\lvgl\version_6.1.2\lvgl\src\lv_draw\../lv_misc/lv_color.h ****  * to set/get values of the color channels
 143:..\..\..\lvgl\version_6.1.2\lvgl\src\lv_draw\../lv_misc/lv_color.h ****  *------------------------------------------*/
 144:..\..\..\lvgl\version_6.1.2\lvgl\src\lv_draw\../lv_misc/lv_color.h **** #if LV_COLOR_DEPTH == 1
 145:..\..\..\lvgl\version_6.1.2\lvgl\src\lv_draw\../lv_misc/lv_color.h **** # define LV_COLOR_SET_R(c, v) LV_COLOR_SET_R1(c,v)
 146:..\..\..\lvgl\version_6.1.2\lvgl\src\lv_draw\../lv_misc/lv_color.h **** # define LV_COLOR_SET_G(c, v) LV_COLOR_SET_G1(c,v)
 147:..\..\..\lvgl\version_6.1.2\lvgl\src\lv_draw\../lv_misc/lv_color.h **** # define LV_COLOR_SET_B(c, v) LV_COLOR_SET_B1(c,v)
 148:..\..\..\lvgl\version_6.1.2\lvgl\src\lv_draw\../lv_misc/lv_color.h **** # define LV_COLOR_SET_A(c, v) LV_COLOR_SET_A1(c,v)
 149:..\..\..\lvgl\version_6.1.2\lvgl\src\lv_draw\../lv_misc/lv_color.h **** 
 150:..\..\..\lvgl\version_6.1.2\lvgl\src\lv_draw\../lv_misc/lv_color.h **** # define LV_COLOR_GET_R(c) LV_COLOR_GET_R1(c)
 151:..\..\..\lvgl\version_6.1.2\lvgl\src\lv_draw\../lv_misc/lv_color.h **** # define LV_COLOR_GET_G(c) LV_COLOR_GET_G1(c)
 152:..\..\..\lvgl\version_6.1.2\lvgl\src\lv_draw\../lv_misc/lv_color.h **** # define LV_COLOR_GET_B(c) LV_COLOR_GET_B1(c)
 153:..\..\..\lvgl\version_6.1.2\lvgl\src\lv_draw\../lv_misc/lv_color.h **** # define LV_COLOR_GET_A(c) LV_COLOR_GET_A1(c)
 154:..\..\..\lvgl\version_6.1.2\lvgl\src\lv_draw\../lv_misc/lv_color.h **** 
 155:..\..\..\lvgl\version_6.1.2\lvgl\src\lv_draw\../lv_misc/lv_color.h **** #elif LV_COLOR_DEPTH == 8
 156:..\..\..\lvgl\version_6.1.2\lvgl\src\lv_draw\../lv_misc/lv_color.h **** # define LV_COLOR_SET_R(c, v) LV_COLOR_SET_R8(c,v)
 157:..\..\..\lvgl\version_6.1.2\lvgl\src\lv_draw\../lv_misc/lv_color.h **** # define LV_COLOR_SET_G(c, v) LV_COLOR_SET_G8(c,v)
 158:..\..\..\lvgl\version_6.1.2\lvgl\src\lv_draw\../lv_misc/lv_color.h **** # define LV_COLOR_SET_B(c, v) LV_COLOR_SET_B8(c,v)
 159:..\..\..\lvgl\version_6.1.2\lvgl\src\lv_draw\../lv_misc/lv_color.h **** # define LV_COLOR_SET_A(c, v) LV_COLOR_SET_A8(c,v)
 160:..\..\..\lvgl\version_6.1.2\lvgl\src\lv_draw\../lv_misc/lv_color.h **** 
 161:..\..\..\lvgl\version_6.1.2\lvgl\src\lv_draw\../lv_misc/lv_color.h **** # define LV_COLOR_GET_R(c) LV_COLOR_GET_R8(c)
 162:..\..\..\lvgl\version_6.1.2\lvgl\src\lv_draw\../lv_misc/lv_color.h **** # define LV_COLOR_GET_G(c) LV_COLOR_GET_G8(c)
 163:..\..\..\lvgl\version_6.1.2\lvgl\src\lv_draw\../lv_misc/lv_color.h **** # define LV_COLOR_GET_B(c) LV_COLOR_GET_B8(c)
 164:..\..\..\lvgl\version_6.1.2\lvgl\src\lv_draw\../lv_misc/lv_color.h **** # define LV_COLOR_GET_A(c) LV_COLOR_GET_A8(c)
 165:..\..\..\lvgl\version_6.1.2\lvgl\src\lv_draw\../lv_misc/lv_color.h **** 
 166:..\..\..\lvgl\version_6.1.2\lvgl\src\lv_draw\../lv_misc/lv_color.h **** #elif LV_COLOR_DEPTH == 16
 167:..\..\..\lvgl\version_6.1.2\lvgl\src\lv_draw\../lv_misc/lv_color.h **** # define LV_COLOR_SET_R(c, v) LV_COLOR_SET_R16(c,v)
 168:..\..\..\lvgl\version_6.1.2\lvgl\src\lv_draw\../lv_misc/lv_color.h **** # if LV_COLOR_16_SWAP == 0
 169:..\..\..\lvgl\version_6.1.2\lvgl\src\lv_draw\../lv_misc/lv_color.h **** #   define LV_COLOR_SET_G(c, v) LV_COLOR_SET_G16(c,v)
 170:..\..\..\lvgl\version_6.1.2\lvgl\src\lv_draw\../lv_misc/lv_color.h **** # else
 171:..\..\..\lvgl\version_6.1.2\lvgl\src\lv_draw\../lv_misc/lv_color.h **** #   define LV_COLOR_SET_G(c, v) LV_COLOR_SET_G16_SWAP(c,v)
 172:..\..\..\lvgl\version_6.1.2\lvgl\src\lv_draw\../lv_misc/lv_color.h **** # endif
 173:..\..\..\lvgl\version_6.1.2\lvgl\src\lv_draw\../lv_misc/lv_color.h **** # define LV_COLOR_SET_B(c, v) LV_COLOR_SET_B16(c,v)
 174:..\..\..\lvgl\version_6.1.2\lvgl\src\lv_draw\../lv_misc/lv_color.h **** # define LV_COLOR_SET_A(c, v) LV_COLOR_SET_A16(c,v)
 175:..\..\..\lvgl\version_6.1.2\lvgl\src\lv_draw\../lv_misc/lv_color.h **** 
 176:..\..\..\lvgl\version_6.1.2\lvgl\src\lv_draw\../lv_misc/lv_color.h **** # define LV_COLOR_GET_R(c) LV_COLOR_GET_R16(c)
 177:..\..\..\lvgl\version_6.1.2\lvgl\src\lv_draw\../lv_misc/lv_color.h **** # if LV_COLOR_16_SWAP == 0
 178:..\..\..\lvgl\version_6.1.2\lvgl\src\lv_draw\../lv_misc/lv_color.h **** #   define LV_COLOR_GET_G(c) LV_COLOR_GET_G16(c)
 179:..\..\..\lvgl\version_6.1.2\lvgl\src\lv_draw\../lv_misc/lv_color.h **** # else
 180:..\..\..\lvgl\version_6.1.2\lvgl\src\lv_draw\../lv_misc/lv_color.h **** #   define LV_COLOR_GET_G(c) LV_COLOR_GET_G16_SWAP(c)
 181:..\..\..\lvgl\version_6.1.2\lvgl\src\lv_draw\../lv_misc/lv_color.h **** # endif
 182:..\..\..\lvgl\version_6.1.2\lvgl\src\lv_draw\../lv_misc/lv_color.h **** # define LV_COLOR_GET_B(c)   LV_COLOR_GET_B16(c)
 183:..\..\..\lvgl\version_6.1.2\lvgl\src\lv_draw\../lv_misc/lv_color.h **** # define LV_COLOR_GET_A(c)   LV_COLOR_GET_A16(c)
 184:..\..\..\lvgl\version_6.1.2\lvgl\src\lv_draw\../lv_misc/lv_color.h **** 
 185:..\..\..\lvgl\version_6.1.2\lvgl\src\lv_draw\../lv_misc/lv_color.h **** #elif LV_COLOR_DEPTH == 32
 186:..\..\..\lvgl\version_6.1.2\lvgl\src\lv_draw\../lv_misc/lv_color.h **** # define LV_COLOR_SET_R(c, v) LV_COLOR_SET_R32(c,v)
 187:..\..\..\lvgl\version_6.1.2\lvgl\src\lv_draw\../lv_misc/lv_color.h **** # define LV_COLOR_SET_G(c, v) LV_COLOR_SET_G32(c,v)
 188:..\..\..\lvgl\version_6.1.2\lvgl\src\lv_draw\../lv_misc/lv_color.h **** # define LV_COLOR_SET_B(c, v) LV_COLOR_SET_B32(c,v)
 189:..\..\..\lvgl\version_6.1.2\lvgl\src\lv_draw\../lv_misc/lv_color.h **** # define LV_COLOR_SET_A(c, v) LV_COLOR_SET_A32(c,v)
 190:..\..\..\lvgl\version_6.1.2\lvgl\src\lv_draw\../lv_misc/lv_color.h **** 
 191:..\..\..\lvgl\version_6.1.2\lvgl\src\lv_draw\../lv_misc/lv_color.h **** # define LV_COLOR_GET_R(c) LV_COLOR_GET_R32(c)
 192:..\..\..\lvgl\version_6.1.2\lvgl\src\lv_draw\../lv_misc/lv_color.h **** # define LV_COLOR_GET_G(c) LV_COLOR_GET_G32(c)
 193:..\..\..\lvgl\version_6.1.2\lvgl\src\lv_draw\../lv_misc/lv_color.h **** # define LV_COLOR_GET_B(c) LV_COLOR_GET_B32(c)
 194:..\..\..\lvgl\version_6.1.2\lvgl\src\lv_draw\../lv_misc/lv_color.h **** # define LV_COLOR_GET_A(c) LV_COLOR_GET_A32(c)
 195:..\..\..\lvgl\version_6.1.2\lvgl\src\lv_draw\../lv_misc/lv_color.h **** #endif
 196:..\..\..\lvgl\version_6.1.2\lvgl\src\lv_draw\../lv_misc/lv_color.h **** 
 197:..\..\..\lvgl\version_6.1.2\lvgl\src\lv_draw\../lv_misc/lv_color.h **** /**********************
 198:..\..\..\lvgl\version_6.1.2\lvgl\src\lv_draw\../lv_misc/lv_color.h ****  *      TYPEDEFS
ARM GAS  C:\Users\pearlstl\AppData\Local\Temp\ccmYHcOW.s 			page 11


 199:..\..\..\lvgl\version_6.1.2\lvgl\src\lv_draw\../lv_misc/lv_color.h ****  **********************/
 200:..\..\..\lvgl\version_6.1.2\lvgl\src\lv_draw\../lv_misc/lv_color.h **** 
 201:..\..\..\lvgl\version_6.1.2\lvgl\src\lv_draw\../lv_misc/lv_color.h **** typedef union
 202:..\..\..\lvgl\version_6.1.2\lvgl\src\lv_draw\../lv_misc/lv_color.h **** {
 203:..\..\..\lvgl\version_6.1.2\lvgl\src\lv_draw\../lv_misc/lv_color.h ****     struct
 204:..\..\..\lvgl\version_6.1.2\lvgl\src\lv_draw\../lv_misc/lv_color.h ****     {
 205:..\..\..\lvgl\version_6.1.2\lvgl\src\lv_draw\../lv_misc/lv_color.h ****         uint8_t blue : 1;
 206:..\..\..\lvgl\version_6.1.2\lvgl\src\lv_draw\../lv_misc/lv_color.h ****         uint8_t green : 1;
 207:..\..\..\lvgl\version_6.1.2\lvgl\src\lv_draw\../lv_misc/lv_color.h ****         uint8_t red : 1;
 208:..\..\..\lvgl\version_6.1.2\lvgl\src\lv_draw\../lv_misc/lv_color.h ****     } ch;
 209:..\..\..\lvgl\version_6.1.2\lvgl\src\lv_draw\../lv_misc/lv_color.h ****     uint8_t full;
 210:..\..\..\lvgl\version_6.1.2\lvgl\src\lv_draw\../lv_misc/lv_color.h **** } lv_color1_t;
 211:..\..\..\lvgl\version_6.1.2\lvgl\src\lv_draw\../lv_misc/lv_color.h **** 
 212:..\..\..\lvgl\version_6.1.2\lvgl\src\lv_draw\../lv_misc/lv_color.h **** typedef union
 213:..\..\..\lvgl\version_6.1.2\lvgl\src\lv_draw\../lv_misc/lv_color.h **** {
 214:..\..\..\lvgl\version_6.1.2\lvgl\src\lv_draw\../lv_misc/lv_color.h ****     struct
 215:..\..\..\lvgl\version_6.1.2\lvgl\src\lv_draw\../lv_misc/lv_color.h ****     {
 216:..\..\..\lvgl\version_6.1.2\lvgl\src\lv_draw\../lv_misc/lv_color.h ****         uint8_t blue : 2;
 217:..\..\..\lvgl\version_6.1.2\lvgl\src\lv_draw\../lv_misc/lv_color.h ****         uint8_t green : 3;
 218:..\..\..\lvgl\version_6.1.2\lvgl\src\lv_draw\../lv_misc/lv_color.h ****         uint8_t red : 3;
 219:..\..\..\lvgl\version_6.1.2\lvgl\src\lv_draw\../lv_misc/lv_color.h ****     } ch;
 220:..\..\..\lvgl\version_6.1.2\lvgl\src\lv_draw\../lv_misc/lv_color.h ****     uint8_t full;
 221:..\..\..\lvgl\version_6.1.2\lvgl\src\lv_draw\../lv_misc/lv_color.h **** } lv_color8_t;
 222:..\..\..\lvgl\version_6.1.2\lvgl\src\lv_draw\../lv_misc/lv_color.h **** 
 223:..\..\..\lvgl\version_6.1.2\lvgl\src\lv_draw\../lv_misc/lv_color.h **** typedef union
 224:..\..\..\lvgl\version_6.1.2\lvgl\src\lv_draw\../lv_misc/lv_color.h **** {
 225:..\..\..\lvgl\version_6.1.2\lvgl\src\lv_draw\../lv_misc/lv_color.h ****     struct
 226:..\..\..\lvgl\version_6.1.2\lvgl\src\lv_draw\../lv_misc/lv_color.h ****     {
 227:..\..\..\lvgl\version_6.1.2\lvgl\src\lv_draw\../lv_misc/lv_color.h **** #if LV_COLOR_16_SWAP == 0
 228:..\..\..\lvgl\version_6.1.2\lvgl\src\lv_draw\../lv_misc/lv_color.h ****         uint16_t blue : 5;
 229:..\..\..\lvgl\version_6.1.2\lvgl\src\lv_draw\../lv_misc/lv_color.h ****         uint16_t green : 6;
 230:..\..\..\lvgl\version_6.1.2\lvgl\src\lv_draw\../lv_misc/lv_color.h ****         uint16_t red : 5;
 231:..\..\..\lvgl\version_6.1.2\lvgl\src\lv_draw\../lv_misc/lv_color.h **** #else
 232:..\..\..\lvgl\version_6.1.2\lvgl\src\lv_draw\../lv_misc/lv_color.h ****         uint16_t green_h : 3;
 233:..\..\..\lvgl\version_6.1.2\lvgl\src\lv_draw\../lv_misc/lv_color.h ****         uint16_t red : 5;
 234:..\..\..\lvgl\version_6.1.2\lvgl\src\lv_draw\../lv_misc/lv_color.h ****         uint16_t blue : 5;
 235:..\..\..\lvgl\version_6.1.2\lvgl\src\lv_draw\../lv_misc/lv_color.h ****         uint16_t green_l : 3;
 236:..\..\..\lvgl\version_6.1.2\lvgl\src\lv_draw\../lv_misc/lv_color.h **** #endif
 237:..\..\..\lvgl\version_6.1.2\lvgl\src\lv_draw\../lv_misc/lv_color.h ****     } ch;
 238:..\..\..\lvgl\version_6.1.2\lvgl\src\lv_draw\../lv_misc/lv_color.h ****     uint16_t full;
 239:..\..\..\lvgl\version_6.1.2\lvgl\src\lv_draw\../lv_misc/lv_color.h **** } lv_color16_t;
 240:..\..\..\lvgl\version_6.1.2\lvgl\src\lv_draw\../lv_misc/lv_color.h **** 
 241:..\..\..\lvgl\version_6.1.2\lvgl\src\lv_draw\../lv_misc/lv_color.h **** typedef union
 242:..\..\..\lvgl\version_6.1.2\lvgl\src\lv_draw\../lv_misc/lv_color.h **** {
 243:..\..\..\lvgl\version_6.1.2\lvgl\src\lv_draw\../lv_misc/lv_color.h ****     struct
 244:..\..\..\lvgl\version_6.1.2\lvgl\src\lv_draw\../lv_misc/lv_color.h ****     {
 245:..\..\..\lvgl\version_6.1.2\lvgl\src\lv_draw\../lv_misc/lv_color.h ****         uint8_t blue;
 246:..\..\..\lvgl\version_6.1.2\lvgl\src\lv_draw\../lv_misc/lv_color.h ****         uint8_t green;
 247:..\..\..\lvgl\version_6.1.2\lvgl\src\lv_draw\../lv_misc/lv_color.h ****         uint8_t red;
 248:..\..\..\lvgl\version_6.1.2\lvgl\src\lv_draw\../lv_misc/lv_color.h ****         uint8_t alpha;
 249:..\..\..\lvgl\version_6.1.2\lvgl\src\lv_draw\../lv_misc/lv_color.h ****     } ch;
 250:..\..\..\lvgl\version_6.1.2\lvgl\src\lv_draw\../lv_misc/lv_color.h ****     uint32_t full;
 251:..\..\..\lvgl\version_6.1.2\lvgl\src\lv_draw\../lv_misc/lv_color.h **** } lv_color32_t;
 252:..\..\..\lvgl\version_6.1.2\lvgl\src\lv_draw\../lv_misc/lv_color.h **** 
 253:..\..\..\lvgl\version_6.1.2\lvgl\src\lv_draw\../lv_misc/lv_color.h **** #if LV_COLOR_DEPTH == 1
 254:..\..\..\lvgl\version_6.1.2\lvgl\src\lv_draw\../lv_misc/lv_color.h **** typedef uint8_t lv_color_int_t;
 255:..\..\..\lvgl\version_6.1.2\lvgl\src\lv_draw\../lv_misc/lv_color.h **** typedef lv_color1_t lv_color_t;
ARM GAS  C:\Users\pearlstl\AppData\Local\Temp\ccmYHcOW.s 			page 12


 256:..\..\..\lvgl\version_6.1.2\lvgl\src\lv_draw\../lv_misc/lv_color.h **** #elif LV_COLOR_DEPTH == 8
 257:..\..\..\lvgl\version_6.1.2\lvgl\src\lv_draw\../lv_misc/lv_color.h **** typedef uint8_t lv_color_int_t;
 258:..\..\..\lvgl\version_6.1.2\lvgl\src\lv_draw\../lv_misc/lv_color.h **** typedef lv_color8_t lv_color_t;
 259:..\..\..\lvgl\version_6.1.2\lvgl\src\lv_draw\../lv_misc/lv_color.h **** #elif LV_COLOR_DEPTH == 16
 260:..\..\..\lvgl\version_6.1.2\lvgl\src\lv_draw\../lv_misc/lv_color.h **** typedef uint16_t lv_color_int_t;
 261:..\..\..\lvgl\version_6.1.2\lvgl\src\lv_draw\../lv_misc/lv_color.h **** typedef lv_color16_t lv_color_t;
 262:..\..\..\lvgl\version_6.1.2\lvgl\src\lv_draw\../lv_misc/lv_color.h **** #elif LV_COLOR_DEPTH == 32
 263:..\..\..\lvgl\version_6.1.2\lvgl\src\lv_draw\../lv_misc/lv_color.h **** typedef uint32_t lv_color_int_t;
 264:..\..\..\lvgl\version_6.1.2\lvgl\src\lv_draw\../lv_misc/lv_color.h **** typedef lv_color32_t lv_color_t;
 265:..\..\..\lvgl\version_6.1.2\lvgl\src\lv_draw\../lv_misc/lv_color.h **** #else
 266:..\..\..\lvgl\version_6.1.2\lvgl\src\lv_draw\../lv_misc/lv_color.h **** #error "Invalid LV_COLOR_DEPTH in lv_conf.h! Set it to 1, 8, 16 or 32!"
 267:..\..\..\lvgl\version_6.1.2\lvgl\src\lv_draw\../lv_misc/lv_color.h **** #endif
 268:..\..\..\lvgl\version_6.1.2\lvgl\src\lv_draw\../lv_misc/lv_color.h **** 
 269:..\..\..\lvgl\version_6.1.2\lvgl\src\lv_draw\../lv_misc/lv_color.h **** typedef uint8_t lv_opa_t;
 270:..\..\..\lvgl\version_6.1.2\lvgl\src\lv_draw\../lv_misc/lv_color.h **** 
 271:..\..\..\lvgl\version_6.1.2\lvgl\src\lv_draw\../lv_misc/lv_color.h **** typedef struct
 272:..\..\..\lvgl\version_6.1.2\lvgl\src\lv_draw\../lv_misc/lv_color.h **** {
 273:..\..\..\lvgl\version_6.1.2\lvgl\src\lv_draw\../lv_misc/lv_color.h ****     uint16_t h;
 274:..\..\..\lvgl\version_6.1.2\lvgl\src\lv_draw\../lv_misc/lv_color.h ****     uint8_t s;
 275:..\..\..\lvgl\version_6.1.2\lvgl\src\lv_draw\../lv_misc/lv_color.h ****     uint8_t v;
 276:..\..\..\lvgl\version_6.1.2\lvgl\src\lv_draw\../lv_misc/lv_color.h **** } lv_color_hsv_t;
 277:..\..\..\lvgl\version_6.1.2\lvgl\src\lv_draw\../lv_misc/lv_color.h **** 
 278:..\..\..\lvgl\version_6.1.2\lvgl\src\lv_draw\../lv_misc/lv_color.h **** /**********************
 279:..\..\..\lvgl\version_6.1.2\lvgl\src\lv_draw\../lv_misc/lv_color.h ****  * GLOBAL PROTOTYPES
 280:..\..\..\lvgl\version_6.1.2\lvgl\src\lv_draw\../lv_misc/lv_color.h ****  **********************/
 281:..\..\..\lvgl\version_6.1.2\lvgl\src\lv_draw\../lv_misc/lv_color.h **** 
 282:..\..\..\lvgl\version_6.1.2\lvgl\src\lv_draw\../lv_misc/lv_color.h **** /*In color conversations:
 283:..\..\..\lvgl\version_6.1.2\lvgl\src\lv_draw\../lv_misc/lv_color.h ****  * - When converting to bigger color type the LSB weight of 1 LSB is calculated
 284:..\..\..\lvgl\version_6.1.2\lvgl\src\lv_draw\../lv_misc/lv_color.h ****  *   E.g. 16 bit Red has 5 bits
 285:..\..\..\lvgl\version_6.1.2\lvgl\src\lv_draw\../lv_misc/lv_color.h ****  *         8 bit Red has 2 bits
 286:..\..\..\lvgl\version_6.1.2\lvgl\src\lv_draw\../lv_misc/lv_color.h ****  *        ----------------------
 287:..\..\..\lvgl\version_6.1.2\lvgl\src\lv_draw\../lv_misc/lv_color.h ****  *        8 bit red LSB = (2^5 - 1) / (2^2 - 1) = 31 / 3 = 10
 288:..\..\..\lvgl\version_6.1.2\lvgl\src\lv_draw\../lv_misc/lv_color.h ****  *
 289:..\..\..\lvgl\version_6.1.2\lvgl\src\lv_draw\../lv_misc/lv_color.h ****  * - When calculating to smaller color type simply shift out the LSBs
 290:..\..\..\lvgl\version_6.1.2\lvgl\src\lv_draw\../lv_misc/lv_color.h ****  *   E.g.  8 bit Red has 2 bits
 291:..\..\..\lvgl\version_6.1.2\lvgl\src\lv_draw\../lv_misc/lv_color.h ****  *        16 bit Red has 5 bits
 292:..\..\..\lvgl\version_6.1.2\lvgl\src\lv_draw\../lv_misc/lv_color.h ****  *        ----------------------
 293:..\..\..\lvgl\version_6.1.2\lvgl\src\lv_draw\../lv_misc/lv_color.h ****  *         Shift right with 5 - 3 = 2
 294:..\..\..\lvgl\version_6.1.2\lvgl\src\lv_draw\../lv_misc/lv_color.h ****  */
 295:..\..\..\lvgl\version_6.1.2\lvgl\src\lv_draw\../lv_misc/lv_color.h **** 
 296:..\..\..\lvgl\version_6.1.2\lvgl\src\lv_draw\../lv_misc/lv_color.h **** static inline uint8_t lv_color_to1(lv_color_t color)
 297:..\..\..\lvgl\version_6.1.2\lvgl\src\lv_draw\../lv_misc/lv_color.h **** {
 298:..\..\..\lvgl\version_6.1.2\lvgl\src\lv_draw\../lv_misc/lv_color.h **** #if LV_COLOR_DEPTH == 1
 299:..\..\..\lvgl\version_6.1.2\lvgl\src\lv_draw\../lv_misc/lv_color.h ****     return color.full;
 300:..\..\..\lvgl\version_6.1.2\lvgl\src\lv_draw\../lv_misc/lv_color.h **** #elif LV_COLOR_DEPTH == 8
 301:..\..\..\lvgl\version_6.1.2\lvgl\src\lv_draw\../lv_misc/lv_color.h ****     if((LV_COLOR_GET_R(color) & 0x4) || (LV_COLOR_GET_G(color) & 0x4) || (LV_COLOR_GET_B(color) & 0
 302:..\..\..\lvgl\version_6.1.2\lvgl\src\lv_draw\../lv_misc/lv_color.h ****         return 1;
 303:..\..\..\lvgl\version_6.1.2\lvgl\src\lv_draw\../lv_misc/lv_color.h ****     } else {
 304:..\..\..\lvgl\version_6.1.2\lvgl\src\lv_draw\../lv_misc/lv_color.h ****         return 0;
 305:..\..\..\lvgl\version_6.1.2\lvgl\src\lv_draw\../lv_misc/lv_color.h ****     }
 306:..\..\..\lvgl\version_6.1.2\lvgl\src\lv_draw\../lv_misc/lv_color.h **** #elif LV_COLOR_DEPTH == 16
 307:..\..\..\lvgl\version_6.1.2\lvgl\src\lv_draw\../lv_misc/lv_color.h ****     if((LV_COLOR_GET_R(color) & 0x10) || (LV_COLOR_GET_G(color) & 0x20) || (LV_COLOR_GET_B(color) &
 308:..\..\..\lvgl\version_6.1.2\lvgl\src\lv_draw\../lv_misc/lv_color.h ****         return 1;
 309:..\..\..\lvgl\version_6.1.2\lvgl\src\lv_draw\../lv_misc/lv_color.h ****     } else {
 310:..\..\..\lvgl\version_6.1.2\lvgl\src\lv_draw\../lv_misc/lv_color.h ****         return 0;
 311:..\..\..\lvgl\version_6.1.2\lvgl\src\lv_draw\../lv_misc/lv_color.h ****     }
 312:..\..\..\lvgl\version_6.1.2\lvgl\src\lv_draw\../lv_misc/lv_color.h **** #elif LV_COLOR_DEPTH == 32
ARM GAS  C:\Users\pearlstl\AppData\Local\Temp\ccmYHcOW.s 			page 13


 313:..\..\..\lvgl\version_6.1.2\lvgl\src\lv_draw\../lv_misc/lv_color.h ****     if((LV_COLOR_GET_R(color) & 0x80) || (LV_COLOR_GET_G(color) & 0x80) || (LV_COLOR_GET_B(color) &
 314:..\..\..\lvgl\version_6.1.2\lvgl\src\lv_draw\../lv_misc/lv_color.h ****         return 1;
 315:..\..\..\lvgl\version_6.1.2\lvgl\src\lv_draw\../lv_misc/lv_color.h ****     } else {
 316:..\..\..\lvgl\version_6.1.2\lvgl\src\lv_draw\../lv_misc/lv_color.h ****         return 0;
 317:..\..\..\lvgl\version_6.1.2\lvgl\src\lv_draw\../lv_misc/lv_color.h ****     }
 318:..\..\..\lvgl\version_6.1.2\lvgl\src\lv_draw\../lv_misc/lv_color.h **** #endif
 319:..\..\..\lvgl\version_6.1.2\lvgl\src\lv_draw\../lv_misc/lv_color.h **** }
 320:..\..\..\lvgl\version_6.1.2\lvgl\src\lv_draw\../lv_misc/lv_color.h **** 
 321:..\..\..\lvgl\version_6.1.2\lvgl\src\lv_draw\../lv_misc/lv_color.h **** static inline uint8_t lv_color_to8(lv_color_t color)
 322:..\..\..\lvgl\version_6.1.2\lvgl\src\lv_draw\../lv_misc/lv_color.h **** {
 323:..\..\..\lvgl\version_6.1.2\lvgl\src\lv_draw\../lv_misc/lv_color.h **** #if LV_COLOR_DEPTH == 1
 324:..\..\..\lvgl\version_6.1.2\lvgl\src\lv_draw\../lv_misc/lv_color.h ****     if(color.full == 0)
 325:..\..\..\lvgl\version_6.1.2\lvgl\src\lv_draw\../lv_misc/lv_color.h ****         return 0;
 326:..\..\..\lvgl\version_6.1.2\lvgl\src\lv_draw\../lv_misc/lv_color.h ****     else
 327:..\..\..\lvgl\version_6.1.2\lvgl\src\lv_draw\../lv_misc/lv_color.h ****         return 0xFF;
 328:..\..\..\lvgl\version_6.1.2\lvgl\src\lv_draw\../lv_misc/lv_color.h **** #elif LV_COLOR_DEPTH == 8
 329:..\..\..\lvgl\version_6.1.2\lvgl\src\lv_draw\../lv_misc/lv_color.h ****     return color.full;
 330:..\..\..\lvgl\version_6.1.2\lvgl\src\lv_draw\../lv_misc/lv_color.h **** #elif LV_COLOR_DEPTH == 16
 331:..\..\..\lvgl\version_6.1.2\lvgl\src\lv_draw\../lv_misc/lv_color.h ****     lv_color8_t ret;
 332:..\..\..\lvgl\version_6.1.2\lvgl\src\lv_draw\../lv_misc/lv_color.h ****     LV_COLOR_SET_R8(ret, LV_COLOR_GET_R(color) >> 2);   /* 5 - 3  = 2*/
 333:..\..\..\lvgl\version_6.1.2\lvgl\src\lv_draw\../lv_misc/lv_color.h ****     LV_COLOR_SET_G8(ret, LV_COLOR_GET_G(color) >> 3); /* 6 - 3  = 3*/
 334:..\..\..\lvgl\version_6.1.2\lvgl\src\lv_draw\../lv_misc/lv_color.h ****     LV_COLOR_SET_B8(ret, LV_COLOR_GET_B(color) >> 3);  /* 5 - 2  = 3*/
 335:..\..\..\lvgl\version_6.1.2\lvgl\src\lv_draw\../lv_misc/lv_color.h ****     return ret.full;
 336:..\..\..\lvgl\version_6.1.2\lvgl\src\lv_draw\../lv_misc/lv_color.h **** #elif LV_COLOR_DEPTH == 32
 337:..\..\..\lvgl\version_6.1.2\lvgl\src\lv_draw\../lv_misc/lv_color.h ****     lv_color8_t ret;
 338:..\..\..\lvgl\version_6.1.2\lvgl\src\lv_draw\../lv_misc/lv_color.h ****     LV_COLOR_SET_R8(ret, LV_COLOR_GET_R(color) >> 5);   /* 8 - 3  = 5*/
 339:..\..\..\lvgl\version_6.1.2\lvgl\src\lv_draw\../lv_misc/lv_color.h ****     LV_COLOR_SET_G8(ret, LV_COLOR_GET_G(color) >> 5); /* 8 - 3  = 5*/
 340:..\..\..\lvgl\version_6.1.2\lvgl\src\lv_draw\../lv_misc/lv_color.h ****     LV_COLOR_SET_B8(ret, LV_COLOR_GET_B(color) >> 6);  /* 8 - 2  = 6*/
 341:..\..\..\lvgl\version_6.1.2\lvgl\src\lv_draw\../lv_misc/lv_color.h ****     return ret.full;
 342:..\..\..\lvgl\version_6.1.2\lvgl\src\lv_draw\../lv_misc/lv_color.h **** #endif
 343:..\..\..\lvgl\version_6.1.2\lvgl\src\lv_draw\../lv_misc/lv_color.h **** }
 344:..\..\..\lvgl\version_6.1.2\lvgl\src\lv_draw\../lv_misc/lv_color.h **** 
 345:..\..\..\lvgl\version_6.1.2\lvgl\src\lv_draw\../lv_misc/lv_color.h **** static inline uint16_t lv_color_to16(lv_color_t color)
 346:..\..\..\lvgl\version_6.1.2\lvgl\src\lv_draw\../lv_misc/lv_color.h **** {
 347:..\..\..\lvgl\version_6.1.2\lvgl\src\lv_draw\../lv_misc/lv_color.h **** #if LV_COLOR_DEPTH == 1
 348:..\..\..\lvgl\version_6.1.2\lvgl\src\lv_draw\../lv_misc/lv_color.h ****     if(color.full == 0)
 349:..\..\..\lvgl\version_6.1.2\lvgl\src\lv_draw\../lv_misc/lv_color.h ****         return 0;
 350:..\..\..\lvgl\version_6.1.2\lvgl\src\lv_draw\../lv_misc/lv_color.h ****     else
 351:..\..\..\lvgl\version_6.1.2\lvgl\src\lv_draw\../lv_misc/lv_color.h ****         return 0xFFFF;
 352:..\..\..\lvgl\version_6.1.2\lvgl\src\lv_draw\../lv_misc/lv_color.h **** #elif LV_COLOR_DEPTH == 8
 353:..\..\..\lvgl\version_6.1.2\lvgl\src\lv_draw\../lv_misc/lv_color.h ****     lv_color16_t ret;
 354:..\..\..\lvgl\version_6.1.2\lvgl\src\lv_draw\../lv_misc/lv_color.h ****     LV_COLOR_SET_R16(ret, LV_COLOR_GET_R(color) * 4);     /*(2^5 - 1)/(2^3 - 1) = 31/7 = 4*/
 355:..\..\..\lvgl\version_6.1.2\lvgl\src\lv_draw\../lv_misc/lv_color.h **** #if LV_COLOR_16_SWAP == 0
 356:..\..\..\lvgl\version_6.1.2\lvgl\src\lv_draw\../lv_misc/lv_color.h ****     LV_COLOR_SET_G16(ret,  LV_COLOR_GET_G(color) * 9); /*(2^6 - 1)/(2^3 - 1) = 63/7 = 9*/
 357:..\..\..\lvgl\version_6.1.2\lvgl\src\lv_draw\../lv_misc/lv_color.h **** #else
 358:..\..\..\lvgl\version_6.1.2\lvgl\src\lv_draw\../lv_misc/lv_color.h ****     LV_COLOR_SET_G16_SWAP(ret, (LV_COLOR_GET_G(color) * 9)); /*(2^6 - 1)/(2^3 - 1) = 63/7 = 9*/
 359:..\..\..\lvgl\version_6.1.2\lvgl\src\lv_draw\../lv_misc/lv_color.h **** #endif
 360:..\..\..\lvgl\version_6.1.2\lvgl\src\lv_draw\../lv_misc/lv_color.h ****     LV_COLOR_SET_B16(ret, LV_COLOR_GET_B(color) * 10);  /*(2^5 - 1)/(2^2 - 1) = 31/3 = 10*/
 361:..\..\..\lvgl\version_6.1.2\lvgl\src\lv_draw\../lv_misc/lv_color.h ****     return ret.full;
 362:..\..\..\lvgl\version_6.1.2\lvgl\src\lv_draw\../lv_misc/lv_color.h **** #elif LV_COLOR_DEPTH == 16
 363:..\..\..\lvgl\version_6.1.2\lvgl\src\lv_draw\../lv_misc/lv_color.h ****     return color.full;
 364:..\..\..\lvgl\version_6.1.2\lvgl\src\lv_draw\../lv_misc/lv_color.h **** #elif LV_COLOR_DEPTH == 32
 365:..\..\..\lvgl\version_6.1.2\lvgl\src\lv_draw\../lv_misc/lv_color.h ****     lv_color16_t ret;
 366:..\..\..\lvgl\version_6.1.2\lvgl\src\lv_draw\../lv_misc/lv_color.h ****     LV_COLOR_SET_R16(ret, LV_COLOR_GET_R(color) >> 3);   /* 8 - 5  = 3*/
 367:..\..\..\lvgl\version_6.1.2\lvgl\src\lv_draw\../lv_misc/lv_color.h **** 
 368:..\..\..\lvgl\version_6.1.2\lvgl\src\lv_draw\../lv_misc/lv_color.h **** #if LV_COLOR_16_SWAP == 0
 369:..\..\..\lvgl\version_6.1.2\lvgl\src\lv_draw\../lv_misc/lv_color.h ****     LV_COLOR_SET_G16(ret, LV_COLOR_GET_G(color) >> 2); /* 8 - 6  = 2*/
ARM GAS  C:\Users\pearlstl\AppData\Local\Temp\ccmYHcOW.s 			page 14


 370:..\..\..\lvgl\version_6.1.2\lvgl\src\lv_draw\../lv_misc/lv_color.h **** #else
 371:..\..\..\lvgl\version_6.1.2\lvgl\src\lv_draw\../lv_misc/lv_color.h ****     LV_COLOR_SET_G16_SWAP(ret, ret.ch.green_h = (LV_COLOR_GET_G(color) >> 2); /*(2^6 - 1)/(2^3 - 1)
 372:..\..\..\lvgl\version_6.1.2\lvgl\src\lv_draw\../lv_misc/lv_color.h **** #endif
 373:..\..\..\lvgl\version_6.1.2\lvgl\src\lv_draw\../lv_misc/lv_color.h ****     LV_COLOR_SET_B16(ret, LV_COLOR_GET_B(color) >> 3);  /* 8 - 5  = 3*/
 374:..\..\..\lvgl\version_6.1.2\lvgl\src\lv_draw\../lv_misc/lv_color.h ****     return ret.full;
 375:..\..\..\lvgl\version_6.1.2\lvgl\src\lv_draw\../lv_misc/lv_color.h **** #endif                         
 376:..\..\..\lvgl\version_6.1.2\lvgl\src\lv_draw\../lv_misc/lv_color.h **** }
 377:..\..\..\lvgl\version_6.1.2\lvgl\src\lv_draw\../lv_misc/lv_color.h **** 
 378:..\..\..\lvgl\version_6.1.2\lvgl\src\lv_draw\../lv_misc/lv_color.h **** static inline uint32_t lv_color_to32(lv_color_t color)
 379:..\..\..\lvgl\version_6.1.2\lvgl\src\lv_draw\../lv_misc/lv_color.h **** {
 380:..\..\..\lvgl\version_6.1.2\lvgl\src\lv_draw\../lv_misc/lv_color.h **** #if LV_COLOR_DEPTH == 1
 381:..\..\..\lvgl\version_6.1.2\lvgl\src\lv_draw\../lv_misc/lv_color.h ****     if(color.full == 0)
 382:..\..\..\lvgl\version_6.1.2\lvgl\src\lv_draw\../lv_misc/lv_color.h ****         return 0;
 383:..\..\..\lvgl\version_6.1.2\lvgl\src\lv_draw\../lv_misc/lv_color.h ****     else
 384:..\..\..\lvgl\version_6.1.2\lvgl\src\lv_draw\../lv_misc/lv_color.h ****         return 0xFFFFFFFF;
 385:..\..\..\lvgl\version_6.1.2\lvgl\src\lv_draw\../lv_misc/lv_color.h **** #elif LV_COLOR_DEPTH == 8
 386:..\..\..\lvgl\version_6.1.2\lvgl\src\lv_draw\../lv_misc/lv_color.h ****     lv_color32_t ret;
 387:..\..\..\lvgl\version_6.1.2\lvgl\src\lv_draw\../lv_misc/lv_color.h ****     LV_COLOR_SET_R32(ret, LV_COLOR_GET_R(color) * 36);     /*(2^8 - 1)/(2^3 - 1) = 255/7 = 36*/
 388:..\..\..\lvgl\version_6.1.2\lvgl\src\lv_draw\../lv_misc/lv_color.h ****     LV_COLOR_SET_G32(ret, LV_COLOR_GET_G(color) * 36); /*(2^8 - 1)/(2^3 - 1) = 255/7 = 36*/
 389:..\..\..\lvgl\version_6.1.2\lvgl\src\lv_draw\../lv_misc/lv_color.h ****     LV_COLOR_SET_B32(ret, LV_COLOR_GET_B(color) * 85);   /*(2^8 - 1)/(2^2 - 1) = 255/3 = 85*/
 390:..\..\..\lvgl\version_6.1.2\lvgl\src\lv_draw\../lv_misc/lv_color.h ****     LV_COLOR_SET_A32(ret, 0xFF);
 391:..\..\..\lvgl\version_6.1.2\lvgl\src\lv_draw\../lv_misc/lv_color.h ****     return ret.full;
 392:..\..\..\lvgl\version_6.1.2\lvgl\src\lv_draw\../lv_misc/lv_color.h **** #elif LV_COLOR_DEPTH == 16
 393:..\..\..\lvgl\version_6.1.2\lvgl\src\lv_draw\../lv_misc/lv_color.h ****     /**
 394:..\..\..\lvgl\version_6.1.2\lvgl\src\lv_draw\../lv_misc/lv_color.h ****      * The floating point math for conversion is:
 395:..\..\..\lvgl\version_6.1.2\lvgl\src\lv_draw\../lv_misc/lv_color.h ****      *  valueto = valuefrom * ( (2^bitsto - 1) / (float)(2^bitsfrom - 1) )
 396:..\..\..\lvgl\version_6.1.2\lvgl\src\lv_draw\../lv_misc/lv_color.h ****      * The faster integer math for conversion is:
 397:..\..\..\lvgl\version_6.1.2\lvgl\src\lv_draw\../lv_misc/lv_color.h ****      *  valueto = ( valuefrom * multiplier + adder ) >> divisor
 398:..\..\..\lvgl\version_6.1.2\lvgl\src\lv_draw\../lv_misc/lv_color.h ****      *   multiplier = FLOOR( ( (2^bitsto - 1) << divisor ) / (float)(2^bitsfrom - 1) )
 399:..\..\..\lvgl\version_6.1.2\lvgl\src\lv_draw\../lv_misc/lv_color.h ****      * 
 400:..\..\..\lvgl\version_6.1.2\lvgl\src\lv_draw\../lv_misc/lv_color.h ****      * Find the first divisor where ( adder >> divisor ) <= 0
 401:..\..\..\lvgl\version_6.1.2\lvgl\src\lv_draw\../lv_misc/lv_color.h ****      * 
 402:..\..\..\lvgl\version_6.1.2\lvgl\src\lv_draw\../lv_misc/lv_color.h ****      * 5-bit to 8-bit: ( 31 * multiplier + adder ) >> divisor = 255
 403:..\..\..\lvgl\version_6.1.2\lvgl\src\lv_draw\../lv_misc/lv_color.h ****      * divisor  multiplier  adder  min (0)  max (31)
 404:..\..\..\lvgl\version_6.1.2\lvgl\src\lv_draw\../lv_misc/lv_color.h ****      *       0           8      7        7       255
 405:..\..\..\lvgl\version_6.1.2\lvgl\src\lv_draw\../lv_misc/lv_color.h ****      *       1          16     14        7       255
 406:..\..\..\lvgl\version_6.1.2\lvgl\src\lv_draw\../lv_misc/lv_color.h ****      *       2          32     28        7       255
 407:..\..\..\lvgl\version_6.1.2\lvgl\src\lv_draw\../lv_misc/lv_color.h ****      *       3          65     25        3       255
 408:..\..\..\lvgl\version_6.1.2\lvgl\src\lv_draw\../lv_misc/lv_color.h ****      *       4         131     19        1       255
 409:..\..\..\lvgl\version_6.1.2\lvgl\src\lv_draw\../lv_misc/lv_color.h ****      *       5         263      7        0       255
 410:..\..\..\lvgl\version_6.1.2\lvgl\src\lv_draw\../lv_misc/lv_color.h ****      * 
 411:..\..\..\lvgl\version_6.1.2\lvgl\src\lv_draw\../lv_misc/lv_color.h ****      * 6-bit to 8-bit: 255 = ( 63 * multiplier + adder ) >> divisor
 412:..\..\..\lvgl\version_6.1.2\lvgl\src\lv_draw\../lv_misc/lv_color.h ****      * divisor  multiplier  adder  min (0)  max (63)
 413:..\..\..\lvgl\version_6.1.2\lvgl\src\lv_draw\../lv_misc/lv_color.h ****      *       0           4      3        3       255
 414:..\..\..\lvgl\version_6.1.2\lvgl\src\lv_draw\../lv_misc/lv_color.h ****      *       1           8      6        3       255
 415:..\..\..\lvgl\version_6.1.2\lvgl\src\lv_draw\../lv_misc/lv_color.h ****      *       2          16     12        3       255
 416:..\..\..\lvgl\version_6.1.2\lvgl\src\lv_draw\../lv_misc/lv_color.h ****      *       3          32     24        3       255
 417:..\..\..\lvgl\version_6.1.2\lvgl\src\lv_draw\../lv_misc/lv_color.h ****      *       4          64     48        3       255
 418:..\..\..\lvgl\version_6.1.2\lvgl\src\lv_draw\../lv_misc/lv_color.h ****      *       5         129     33        1       255
 419:..\..\..\lvgl\version_6.1.2\lvgl\src\lv_draw\../lv_misc/lv_color.h ****      *       6         259      3        0       255
 420:..\..\..\lvgl\version_6.1.2\lvgl\src\lv_draw\../lv_misc/lv_color.h ****      */
 421:..\..\..\lvgl\version_6.1.2\lvgl\src\lv_draw\../lv_misc/lv_color.h ****     lv_color32_t ret;
 422:..\..\..\lvgl\version_6.1.2\lvgl\src\lv_draw\../lv_misc/lv_color.h ****     LV_COLOR_SET_R32(ret, (LV_COLOR_GET_R(color) * 263 + 7 ) >> 5);
 423:..\..\..\lvgl\version_6.1.2\lvgl\src\lv_draw\../lv_misc/lv_color.h ****     LV_COLOR_SET_G32(ret, (LV_COLOR_GET_G(color) * 259 + 3 ) >> 6);
 424:..\..\..\lvgl\version_6.1.2\lvgl\src\lv_draw\../lv_misc/lv_color.h ****     LV_COLOR_SET_B32(ret, (LV_COLOR_GET_B(color) * 263 + 7 ) >> 5);
 425:..\..\..\lvgl\version_6.1.2\lvgl\src\lv_draw\../lv_misc/lv_color.h ****     LV_COLOR_SET_A32(ret, 0xFF);
 426:..\..\..\lvgl\version_6.1.2\lvgl\src\lv_draw\../lv_misc/lv_color.h ****     return ret.full;
ARM GAS  C:\Users\pearlstl\AppData\Local\Temp\ccmYHcOW.s 			page 15


 427:..\..\..\lvgl\version_6.1.2\lvgl\src\lv_draw\../lv_misc/lv_color.h **** #elif LV_COLOR_DEPTH == 32
 428:..\..\..\lvgl\version_6.1.2\lvgl\src\lv_draw\../lv_misc/lv_color.h ****     return color.full;
 429:..\..\..\lvgl\version_6.1.2\lvgl\src\lv_draw\../lv_misc/lv_color.h **** #endif
 430:..\..\..\lvgl\version_6.1.2\lvgl\src\lv_draw\../lv_misc/lv_color.h **** }
 431:..\..\..\lvgl\version_6.1.2\lvgl\src\lv_draw\../lv_misc/lv_color.h **** 
 432:..\..\..\lvgl\version_6.1.2\lvgl\src\lv_draw\../lv_misc/lv_color.h **** static inline lv_color_t lv_color_mix(lv_color_t c1, lv_color_t c2, uint8_t mix)
 433:..\..\..\lvgl\version_6.1.2\lvgl\src\lv_draw\../lv_misc/lv_color.h **** {
 434:..\..\..\lvgl\version_6.1.2\lvgl\src\lv_draw\../lv_misc/lv_color.h ****     lv_color_t ret;
 435:..\..\..\lvgl\version_6.1.2\lvgl\src\lv_draw\../lv_misc/lv_color.h **** #if LV_COLOR_DEPTH != 1
 436:..\..\..\lvgl\version_6.1.2\lvgl\src\lv_draw\../lv_misc/lv_color.h ****     /*LV_COLOR_DEPTH == 8, 16 or 32*/
 437:..\..\..\lvgl\version_6.1.2\lvgl\src\lv_draw\../lv_misc/lv_color.h ****     LV_COLOR_SET_R(ret, (uint16_t)((uint16_t) LV_COLOR_GET_R(c1) * mix + LV_COLOR_GET_R(c2) * (255 
 160              		.loc 3 437 0
 161 0084 95F802C0 		ldrb	ip, [r5, #2]	@ zero_extendqisi2
 438:..\..\..\lvgl\version_6.1.2\lvgl\src\lv_draw\../lv_misc/lv_color.h ****     LV_COLOR_SET_G(ret, (uint16_t)((uint16_t) LV_COLOR_GET_G(c1) * mix + LV_COLOR_GET_G(c2) * (255 
 162              		.loc 3 438 0
 163 0088 6978     		ldrb	r1, [r5, #1]	@ zero_extendqisi2
 164              	.LVL16:
 437:..\..\..\lvgl\version_6.1.2\lvgl\src\lv_draw\../lv_misc/lv_color.h ****     LV_COLOR_SET_G(ret, (uint16_t)((uint16_t) LV_COLOR_GET_G(c1) * mix + LV_COLOR_GET_G(c2) * (255 
 165              		.loc 3 437 0
 166 008a C4F1FF00 		rsb	r0, r4, #255
 167              	.LVL17:
 168 008e 83B2     		uxth	r3, r0
 169              	.LVL18:
 170              		.loc 3 438 0
 171 0090 11FB03F1 		smulbb	r1, r1, r3
 172              	.LBE52:
 173              	.LBE51:
 106:..\..\..\lvgl\version_6.1.2\lvgl\src\lv_draw/lv_draw_basic.c ****             }
 174              		.loc 1 106 0
 175 0094 18FB03F8 		smulbb	r8, r8, r3
 176              	.LBB56:
 177              	.LBB53:
 437:..\..\..\lvgl\version_6.1.2\lvgl\src\lv_draw\../lv_misc/lv_color.h ****     LV_COLOR_SET_G(ret, (uint16_t)((uint16_t) LV_COLOR_GET_G(c1) * mix + LV_COLOR_GET_G(c2) * (255 
 178              		.loc 3 437 0
 179 0098 1CFB03FC 		smulbb	ip, ip, r3
 180 009c C6F30740 		ubfx	r0, r6, #16, #8
 181              		.loc 3 438 0
 182 00a0 C6F30723 		ubfx	r3, r6, #8, #8
 183              	.LBE53:
 184              	.LBE56:
 106:..\..\..\lvgl\version_6.1.2\lvgl\src\lv_draw/lv_draw_basic.c ****             }
 185              		.loc 1 106 0
 186 00a4 5FFA86FE 		uxtb	lr, r6
 187              	.LVL19:
 188              	.LBB57:
 189              	.LBB54:
 437:..\..\..\lvgl\version_6.1.2\lvgl\src\lv_draw\../lv_misc/lv_color.h ****     LV_COLOR_SET_G(ret, (uint16_t)((uint16_t) LV_COLOR_GET_G(c1) * mix + LV_COLOR_GET_G(c2) * (255 
 190              		.loc 3 437 0
 191 00a8 04FB00C0 		mla	r0, r4, r0, ip
 192              	.LVL20:
 193              	.LBE54:
 194              	.LBE57:
 106:..\..\..\lvgl\version_6.1.2\lvgl\src\lv_draw/lv_draw_basic.c ****             }
 195              		.loc 1 106 0
 196 00ac 0EFB0486 		mla	r6, lr, r4, r8
 197              	.LBB58:
 198              	.LBB55:
ARM GAS  C:\Users\pearlstl\AppData\Local\Temp\ccmYHcOW.s 			page 16


 199              		.loc 3 438 0
 200 00b0 04FB0314 		mla	r4, r4, r3, r1
 201              	.LVL21:
 202 00b4 C4F30724 		ubfx	r4, r4, #8, #8
 437:..\..\..\lvgl\version_6.1.2\lvgl\src\lv_draw\../lv_misc/lv_color.h ****     LV_COLOR_SET_G(ret, (uint16_t)((uint16_t) LV_COLOR_GET_G(c1) * mix + LV_COLOR_GET_G(c2) * (255 
 203              		.loc 3 437 0
 204 00b8 C0F30723 		ubfx	r3, r0, #8, #8
 205              	.LVL22:
 206              	.LBE55:
 207              	.LBE58:
 106:..\..\..\lvgl\version_6.1.2\lvgl\src\lv_draw/lv_draw_basic.c ****             }
 208              		.loc 1 106 0
 209 00bc C6F30721 		ubfx	r1, r6, #8, #8
 210 00c0 FF20     		movs	r0, #255
 211 00c2 07F82210 		strb	r1, [r7, r2, lsl #2]
 212 00c6 AB70     		strb	r3, [r5, #2]
 213 00c8 6C70     		strb	r4, [r5, #1]
 214 00ca E870     		strb	r0, [r5, #3]
 215 00cc CEE7     		b	.L1
 216              	.LVL23:
 217              	.L8:
 104:..\..\..\lvgl\version_6.1.2\lvgl\src\lv_draw/lv_draw_basic.c ****             } else {
 218              		.loc 1 104 0
 219 00ce 47F82260 		str	r6, [r7, r2, lsl #2]
 220              	.LVL24:
 221 00d2 CBE7     		b	.L1
 222              	.LBE50:
 223              		.cfi_endproc
 224              	.LFE31:
 225              		.size	lv_draw_px, .-lv_draw_px
 226              		.section	.text.lv_draw_fill,"ax",%progbits
 227              		.align	2
 228              		.global	lv_draw_fill
 229              		.thumb
 230              		.thumb_func
 231              		.type	lv_draw_fill, %function
 232              	lv_draw_fill:
 233              	.LFB32:
 115:..\..\..\lvgl\version_6.1.2\lvgl\src\lv_draw/lv_draw_basic.c **** 
 116:..\..\..\lvgl\version_6.1.2\lvgl\src\lv_draw/lv_draw_basic.c **** /**
 117:..\..\..\lvgl\version_6.1.2\lvgl\src\lv_draw/lv_draw_basic.c ****  * Fill an area in the Virtual Display Buffer
 118:..\..\..\lvgl\version_6.1.2\lvgl\src\lv_draw/lv_draw_basic.c ****  * @param cords_p coordinates of the area to fill
 119:..\..\..\lvgl\version_6.1.2\lvgl\src\lv_draw/lv_draw_basic.c ****  * @param mask_p fill only o this mask  (truncated to VDB area)
 120:..\..\..\lvgl\version_6.1.2\lvgl\src\lv_draw/lv_draw_basic.c ****  * @param color fill color
 121:..\..\..\lvgl\version_6.1.2\lvgl\src\lv_draw/lv_draw_basic.c ****  * @param opa opacity of the area (0..255)
 122:..\..\..\lvgl\version_6.1.2\lvgl\src\lv_draw/lv_draw_basic.c ****  */
 123:..\..\..\lvgl\version_6.1.2\lvgl\src\lv_draw/lv_draw_basic.c **** void lv_draw_fill(const lv_area_t * cords_p, const lv_area_t * mask_p, lv_color_t color, lv_opa_t o
 124:..\..\..\lvgl\version_6.1.2\lvgl\src\lv_draw/lv_draw_basic.c **** {
 234              		.loc 1 124 0
 235              		.cfi_startproc
 236              		@ args = 0, pretend = 0, frame = 48
 237              		@ frame_needed = 0, uses_anonymous_args = 0
 238              	.LVL25:
 125:..\..\..\lvgl\version_6.1.2\lvgl\src\lv_draw/lv_draw_basic.c ****     if(opa < LV_OPA_MIN) return;
 239              		.loc 1 125 0
 240 0000 0F2B     		cmp	r3, #15
 241 0002 11D9     		bls	.L43
ARM GAS  C:\Users\pearlstl\AppData\Local\Temp\ccmYHcOW.s 			page 17


 124:..\..\..\lvgl\version_6.1.2\lvgl\src\lv_draw/lv_draw_basic.c ****     if(opa < LV_OPA_MIN) return;
 242              		.loc 1 124 0
 243 0004 2DE9F04F 		push	{r4, r5, r6, r7, r8, r9, r10, fp, lr}
 244              		.cfi_def_cfa_offset 36
 245              		.cfi_offset 4, -36
 246              		.cfi_offset 5, -32
 247              		.cfi_offset 6, -28
 248              		.cfi_offset 7, -24
 249              		.cfi_offset 8, -20
 250              		.cfi_offset 9, -16
 251              		.cfi_offset 10, -12
 252              		.cfi_offset 11, -8
 253              		.cfi_offset 14, -4
 254 0008 91B0     		sub	sp, sp, #68
 255              		.cfi_def_cfa_offset 104
 126:..\..\..\lvgl\version_6.1.2\lvgl\src\lv_draw/lv_draw_basic.c ****     if(opa > LV_OPA_MAX) opa = LV_OPA_COVER;
 256              		.loc 1 126 0
 257 000a FC2B     		cmp	r3, #252
 258 000c 1546     		mov	r5, r2
 127:..\..\..\lvgl\version_6.1.2\lvgl\src\lv_draw/lv_draw_basic.c **** 
 128:..\..\..\lvgl\version_6.1.2\lvgl\src\lv_draw/lv_draw_basic.c ****     lv_area_t res_a;
 129:..\..\..\lvgl\version_6.1.2\lvgl\src\lv_draw/lv_draw_basic.c ****     bool union_ok;
 130:..\..\..\lvgl\version_6.1.2\lvgl\src\lv_draw/lv_draw_basic.c **** 
 131:..\..\..\lvgl\version_6.1.2\lvgl\src\lv_draw/lv_draw_basic.c ****     /*Get the union of cord and mask*/
 132:..\..\..\lvgl\version_6.1.2\lvgl\src\lv_draw/lv_draw_basic.c ****     /* The mask is already truncated to the vdb size
 133:..\..\..\lvgl\version_6.1.2\lvgl\src\lv_draw/lv_draw_basic.c ****      * in 'lv_refr_area_with_vdb' function */
 134:..\..\..\lvgl\version_6.1.2\lvgl\src\lv_draw/lv_draw_basic.c ****     union_ok = lv_area_intersect(&res_a, cords_p, mask_p);
 259              		.loc 1 134 0
 260 000e 0A46     		mov	r2, r1
 261              	.LVL26:
 262 0010 0146     		mov	r1, r0
 263              	.LVL27:
 264 0012 0EA8     		add	r0, sp, #56
 265              	.LVL28:
 266 0014 9846     		mov	r8, r3
 126:..\..\..\lvgl\version_6.1.2\lvgl\src\lv_draw/lv_draw_basic.c ****     if(opa > LV_OPA_MAX) opa = LV_OPA_COVER;
 267              		.loc 1 126 0
 268 0016 28BF     		it	cs
 269 0018 4FF0FF08 		movcs	r8, #255
 270              		.loc 1 134 0
 271 001c FFF7FEFF 		bl	lv_area_intersect
 272              	.LVL29:
 135:..\..\..\lvgl\version_6.1.2\lvgl\src\lv_draw/lv_draw_basic.c **** 
 136:..\..\..\lvgl\version_6.1.2\lvgl\src\lv_draw/lv_draw_basic.c ****     /*If there are common part of the three area then draw to the vdb*/
 137:..\..\..\lvgl\version_6.1.2\lvgl\src\lv_draw/lv_draw_basic.c ****     if(union_ok == false) {
 273              		.loc 1 137 0
 274 0020 18B9     		cbnz	r0, .L44
 275              	.LVL30:
 276              	.L9:
 138:..\..\..\lvgl\version_6.1.2\lvgl\src\lv_draw/lv_draw_basic.c ****         return;
 139:..\..\..\lvgl\version_6.1.2\lvgl\src\lv_draw/lv_draw_basic.c ****     }
 140:..\..\..\lvgl\version_6.1.2\lvgl\src\lv_draw/lv_draw_basic.c **** 
 141:..\..\..\lvgl\version_6.1.2\lvgl\src\lv_draw/lv_draw_basic.c ****     lv_disp_t * disp    = lv_refr_get_disp_refreshing();
 142:..\..\..\lvgl\version_6.1.2\lvgl\src\lv_draw/lv_draw_basic.c ****     lv_disp_buf_t * vdb = lv_disp_get_buf(disp);
 143:..\..\..\lvgl\version_6.1.2\lvgl\src\lv_draw/lv_draw_basic.c **** 
 144:..\..\..\lvgl\version_6.1.2\lvgl\src\lv_draw/lv_draw_basic.c ****     lv_area_t vdb_rel_a; /*Stores relative coordinates on vdb*/
 145:..\..\..\lvgl\version_6.1.2\lvgl\src\lv_draw/lv_draw_basic.c ****     vdb_rel_a.x1 = res_a.x1 - vdb->area.x1;
ARM GAS  C:\Users\pearlstl\AppData\Local\Temp\ccmYHcOW.s 			page 18


 146:..\..\..\lvgl\version_6.1.2\lvgl\src\lv_draw/lv_draw_basic.c ****     vdb_rel_a.y1 = res_a.y1 - vdb->area.y1;
 147:..\..\..\lvgl\version_6.1.2\lvgl\src\lv_draw/lv_draw_basic.c ****     vdb_rel_a.x2 = res_a.x2 - vdb->area.x1;
 148:..\..\..\lvgl\version_6.1.2\lvgl\src\lv_draw/lv_draw_basic.c ****     vdb_rel_a.y2 = res_a.y2 - vdb->area.y1;
 149:..\..\..\lvgl\version_6.1.2\lvgl\src\lv_draw/lv_draw_basic.c **** 
 150:..\..\..\lvgl\version_6.1.2\lvgl\src\lv_draw/lv_draw_basic.c ****     lv_color_t * vdb_buf_tmp = vdb->buf_act;
 151:..\..\..\lvgl\version_6.1.2\lvgl\src\lv_draw/lv_draw_basic.c ****     uint32_t vdb_width       = lv_area_get_width(&vdb->area);
 152:..\..\..\lvgl\version_6.1.2\lvgl\src\lv_draw/lv_draw_basic.c ****     /*Move the vdb_tmp to the first row*/
 153:..\..\..\lvgl\version_6.1.2\lvgl\src\lv_draw/lv_draw_basic.c ****     vdb_buf_tmp += vdb_width * vdb_rel_a.y1;
 154:..\..\..\lvgl\version_6.1.2\lvgl\src\lv_draw/lv_draw_basic.c **** 
 155:..\..\..\lvgl\version_6.1.2\lvgl\src\lv_draw/lv_draw_basic.c **** #if LV_USE_GPU
 156:..\..\..\lvgl\version_6.1.2\lvgl\src\lv_draw/lv_draw_basic.c ****     static LV_ATTRIBUTE_MEM_ALIGN lv_color_t color_array_tmp[LV_HOR_RES_MAX]; /*Used by 'lv_disp_me
 157:..\..\..\lvgl\version_6.1.2\lvgl\src\lv_draw/lv_draw_basic.c ****     static lv_coord_t last_width = -1;
 158:..\..\..\lvgl\version_6.1.2\lvgl\src\lv_draw/lv_draw_basic.c **** 
 159:..\..\..\lvgl\version_6.1.2\lvgl\src\lv_draw/lv_draw_basic.c ****     lv_coord_t w = lv_area_get_width(&vdb_rel_a);
 160:..\..\..\lvgl\version_6.1.2\lvgl\src\lv_draw/lv_draw_basic.c ****     /*Don't use hw. acc. for every small fill (because of the init overhead)*/
 161:..\..\..\lvgl\version_6.1.2\lvgl\src\lv_draw/lv_draw_basic.c ****     if(w < VFILL_HW_ACC_SIZE_LIMIT) {
 162:..\..\..\lvgl\version_6.1.2\lvgl\src\lv_draw/lv_draw_basic.c ****         sw_color_fill(vdb->buf_act, vdb_width, &vdb_rel_a, color, opa);
 163:..\..\..\lvgl\version_6.1.2\lvgl\src\lv_draw/lv_draw_basic.c ****     }
 164:..\..\..\lvgl\version_6.1.2\lvgl\src\lv_draw/lv_draw_basic.c ****     /*Not opaque fill*/
 165:..\..\..\lvgl\version_6.1.2\lvgl\src\lv_draw/lv_draw_basic.c ****     else if(opa == LV_OPA_COVER) {
 166:..\..\..\lvgl\version_6.1.2\lvgl\src\lv_draw/lv_draw_basic.c ****         /*Use hw fill if present*/
 167:..\..\..\lvgl\version_6.1.2\lvgl\src\lv_draw/lv_draw_basic.c ****         if(disp->driver.gpu_fill_cb) {
 168:..\..\..\lvgl\version_6.1.2\lvgl\src\lv_draw/lv_draw_basic.c ****             disp->driver.gpu_fill_cb(&disp->driver, vdb->buf_act, vdb_width, &vdb_rel_a, color);
 169:..\..\..\lvgl\version_6.1.2\lvgl\src\lv_draw/lv_draw_basic.c ****         }
 170:..\..\..\lvgl\version_6.1.2\lvgl\src\lv_draw/lv_draw_basic.c ****         /*Use hw blend if present and the area is not too small*/
 171:..\..\..\lvgl\version_6.1.2\lvgl\src\lv_draw/lv_draw_basic.c ****         else if(lv_area_get_height(&vdb_rel_a) > VFILL_HW_ACC_SIZE_LIMIT && disp->driver.gpu_blend_
 172:..\..\..\lvgl\version_6.1.2\lvgl\src\lv_draw/lv_draw_basic.c ****             /*Fill a  one line sized buffer with a color and blend this later*/
 173:..\..\..\lvgl\version_6.1.2\lvgl\src\lv_draw/lv_draw_basic.c ****             if(color_array_tmp[0].full != color.full || last_width != w) {
 174:..\..\..\lvgl\version_6.1.2\lvgl\src\lv_draw/lv_draw_basic.c ****                 uint16_t i;
 175:..\..\..\lvgl\version_6.1.2\lvgl\src\lv_draw/lv_draw_basic.c ****                 for(i = 0; i < w; i++) {
 176:..\..\..\lvgl\version_6.1.2\lvgl\src\lv_draw/lv_draw_basic.c ****                     color_array_tmp[i].full = color.full;
 177:..\..\..\lvgl\version_6.1.2\lvgl\src\lv_draw/lv_draw_basic.c ****                 }
 178:..\..\..\lvgl\version_6.1.2\lvgl\src\lv_draw/lv_draw_basic.c ****                 last_width = w;
 179:..\..\..\lvgl\version_6.1.2\lvgl\src\lv_draw/lv_draw_basic.c ****             }
 180:..\..\..\lvgl\version_6.1.2\lvgl\src\lv_draw/lv_draw_basic.c **** 
 181:..\..\..\lvgl\version_6.1.2\lvgl\src\lv_draw/lv_draw_basic.c ****             /*Blend the filled line to every line VDB line-by-line*/
 182:..\..\..\lvgl\version_6.1.2\lvgl\src\lv_draw/lv_draw_basic.c ****             lv_coord_t row;
 183:..\..\..\lvgl\version_6.1.2\lvgl\src\lv_draw/lv_draw_basic.c ****             for(row = vdb_rel_a.y1; row <= vdb_rel_a.y2; row++) {
 184:..\..\..\lvgl\version_6.1.2\lvgl\src\lv_draw/lv_draw_basic.c ****                 disp->driver.gpu_blend_cb(&disp->driver, &vdb_buf_tmp[vdb_rel_a.x1], color_array_tm
 185:..\..\..\lvgl\version_6.1.2\lvgl\src\lv_draw/lv_draw_basic.c ****                 vdb_buf_tmp += vdb_width;
 186:..\..\..\lvgl\version_6.1.2\lvgl\src\lv_draw/lv_draw_basic.c ****             }
 187:..\..\..\lvgl\version_6.1.2\lvgl\src\lv_draw/lv_draw_basic.c **** 
 188:..\..\..\lvgl\version_6.1.2\lvgl\src\lv_draw/lv_draw_basic.c ****         }
 189:..\..\..\lvgl\version_6.1.2\lvgl\src\lv_draw/lv_draw_basic.c ****         /*Else use sw fill if no better option*/
 190:..\..\..\lvgl\version_6.1.2\lvgl\src\lv_draw/lv_draw_basic.c ****         else {
 191:..\..\..\lvgl\version_6.1.2\lvgl\src\lv_draw/lv_draw_basic.c ****             sw_color_fill(vdb->buf_act, vdb_width, &vdb_rel_a, color, opa);
 192:..\..\..\lvgl\version_6.1.2\lvgl\src\lv_draw/lv_draw_basic.c ****         }
 193:..\..\..\lvgl\version_6.1.2\lvgl\src\lv_draw/lv_draw_basic.c **** 
 194:..\..\..\lvgl\version_6.1.2\lvgl\src\lv_draw/lv_draw_basic.c ****     }
 195:..\..\..\lvgl\version_6.1.2\lvgl\src\lv_draw/lv_draw_basic.c ****     /*Fill with opacity*/
 196:..\..\..\lvgl\version_6.1.2\lvgl\src\lv_draw/lv_draw_basic.c ****     else {
 197:..\..\..\lvgl\version_6.1.2\lvgl\src\lv_draw/lv_draw_basic.c ****         /*Use hw blend if present*/
 198:..\..\..\lvgl\version_6.1.2\lvgl\src\lv_draw/lv_draw_basic.c ****         if(disp->driver.gpu_blend_cb) {
 199:..\..\..\lvgl\version_6.1.2\lvgl\src\lv_draw/lv_draw_basic.c ****             if(color_array_tmp[0].full != color.full || last_width != w) {
 200:..\..\..\lvgl\version_6.1.2\lvgl\src\lv_draw/lv_draw_basic.c ****                 uint16_t i;
 201:..\..\..\lvgl\version_6.1.2\lvgl\src\lv_draw/lv_draw_basic.c ****                 for(i = 0; i < w; i++) {
 202:..\..\..\lvgl\version_6.1.2\lvgl\src\lv_draw/lv_draw_basic.c ****                     color_array_tmp[i].full = color.full;
ARM GAS  C:\Users\pearlstl\AppData\Local\Temp\ccmYHcOW.s 			page 19


 203:..\..\..\lvgl\version_6.1.2\lvgl\src\lv_draw/lv_draw_basic.c ****                 }
 204:..\..\..\lvgl\version_6.1.2\lvgl\src\lv_draw/lv_draw_basic.c **** 
 205:..\..\..\lvgl\version_6.1.2\lvgl\src\lv_draw/lv_draw_basic.c ****                 last_width = w;
 206:..\..\..\lvgl\version_6.1.2\lvgl\src\lv_draw/lv_draw_basic.c ****             }
 207:..\..\..\lvgl\version_6.1.2\lvgl\src\lv_draw/lv_draw_basic.c ****             lv_coord_t row;
 208:..\..\..\lvgl\version_6.1.2\lvgl\src\lv_draw/lv_draw_basic.c ****             for(row = vdb_rel_a.y1; row <= vdb_rel_a.y2; row++) {
 209:..\..\..\lvgl\version_6.1.2\lvgl\src\lv_draw/lv_draw_basic.c ****                 disp->driver.gpu_blend_cb(&disp->driver, &vdb_buf_tmp[vdb_rel_a.x1], color_array_tm
 210:..\..\..\lvgl\version_6.1.2\lvgl\src\lv_draw/lv_draw_basic.c ****                 vdb_buf_tmp += vdb_width;
 211:..\..\..\lvgl\version_6.1.2\lvgl\src\lv_draw/lv_draw_basic.c ****             }
 212:..\..\..\lvgl\version_6.1.2\lvgl\src\lv_draw/lv_draw_basic.c **** 
 213:..\..\..\lvgl\version_6.1.2\lvgl\src\lv_draw/lv_draw_basic.c ****         }
 214:..\..\..\lvgl\version_6.1.2\lvgl\src\lv_draw/lv_draw_basic.c ****         /*Use sw fill with opa if no better option*/
 215:..\..\..\lvgl\version_6.1.2\lvgl\src\lv_draw/lv_draw_basic.c ****         else {
 216:..\..\..\lvgl\version_6.1.2\lvgl\src\lv_draw/lv_draw_basic.c ****             sw_color_fill(vdb->buf_act, vdb_width, &vdb_rel_a, color, opa);
 217:..\..\..\lvgl\version_6.1.2\lvgl\src\lv_draw/lv_draw_basic.c ****         }
 218:..\..\..\lvgl\version_6.1.2\lvgl\src\lv_draw/lv_draw_basic.c ****     }
 219:..\..\..\lvgl\version_6.1.2\lvgl\src\lv_draw/lv_draw_basic.c **** #else
 220:..\..\..\lvgl\version_6.1.2\lvgl\src\lv_draw/lv_draw_basic.c ****     sw_color_fill(vdb->buf_act, vdb_width, &vdb_rel_a, color, opa);
 221:..\..\..\lvgl\version_6.1.2\lvgl\src\lv_draw/lv_draw_basic.c **** #endif
 222:..\..\..\lvgl\version_6.1.2\lvgl\src\lv_draw/lv_draw_basic.c **** }
 277              		.loc 1 222 0
 278 0022 11B0     		add	sp, sp, #68
 279              		.cfi_def_cfa_offset 36
 280              		@ sp needed
 281 0024 BDE8F08F 		pop	{r4, r5, r6, r7, r8, r9, r10, fp, pc}
 282              	.LVL31:
 283              	.L43:
 284              		.cfi_def_cfa_offset 0
 285              		.cfi_restore 4
 286              		.cfi_restore 5
 287              		.cfi_restore 6
 288              		.cfi_restore 7
 289              		.cfi_restore 8
 290              		.cfi_restore 9
 291              		.cfi_restore 10
 292              		.cfi_restore 11
 293              		.cfi_restore 14
 294 0028 7047     		bx	lr
 295              	.LVL32:
 296              	.L44:
 297              		.cfi_def_cfa_offset 104
 298              		.cfi_offset 4, -36
 299              		.cfi_offset 5, -32
 300              		.cfi_offset 6, -28
 301              		.cfi_offset 7, -24
 302              		.cfi_offset 8, -20
 303              		.cfi_offset 9, -16
 304              		.cfi_offset 10, -12
 305              		.cfi_offset 11, -8
 306              		.cfi_offset 14, -4
 141:..\..\..\lvgl\version_6.1.2\lvgl\src\lv_draw/lv_draw_basic.c ****     lv_disp_buf_t * vdb = lv_disp_get_buf(disp);
 307              		.loc 1 141 0
 308 002a FFF7FEFF 		bl	lv_refr_get_disp_refreshing
 309              	.LVL33:
 142:..\..\..\lvgl\version_6.1.2\lvgl\src\lv_draw/lv_draw_basic.c **** 
 310              		.loc 1 142 0
 311 002e FFF7FEFF 		bl	lv_disp_get_buf
ARM GAS  C:\Users\pearlstl\AppData\Local\Temp\ccmYHcOW.s 			page 20


 312              	.LVL34:
 145:..\..\..\lvgl\version_6.1.2\lvgl\src\lv_draw/lv_draw_basic.c ****     vdb_rel_a.y1 = res_a.y1 - vdb->area.y1;
 313              		.loc 1 145 0
 314 0032 B0F810E0 		ldrh	lr, [r0, #16]
 146:..\..\..\lvgl\version_6.1.2\lvgl\src\lv_draw/lv_draw_basic.c ****     vdb_rel_a.x2 = res_a.x2 - vdb->area.x1;
 315              		.loc 1 146 0
 316 0036 478A     		ldrh	r7, [r0, #18]
 317              	.LBB69:
 318              	.LBB70:
 319              		.loc 2 88 0
 320 0038 868A     		ldrh	r6, [r0, #20]
 321              	.LBE70:
 322              	.LBE69:
 147:..\..\..\lvgl\version_6.1.2\lvgl\src\lv_draw/lv_draw_basic.c ****     vdb_rel_a.y2 = res_a.y2 - vdb->area.y1;
 323              		.loc 1 147 0
 324 003a BDF83C20 		ldrh	r2, [sp, #60]
 150:..\..\..\lvgl\version_6.1.2\lvgl\src\lv_draw/lv_draw_basic.c ****     uint32_t vdb_width       = lv_area_get_width(&vdb->area);
 325              		.loc 1 150 0
 326 003e 8068     		ldr	r0, [r0, #8]
 327              	.LVL35:
 145:..\..\..\lvgl\version_6.1.2\lvgl\src\lv_draw/lv_draw_basic.c ****     vdb_rel_a.y1 = res_a.y1 - vdb->area.y1;
 328              		.loc 1 145 0
 329 0040 BDF83810 		ldrh	r1, [sp, #56]
 148:..\..\..\lvgl\version_6.1.2\lvgl\src\lv_draw/lv_draw_basic.c **** 
 330              		.loc 1 148 0
 331 0044 BDF83E30 		ldrh	r3, [sp, #62]
 150:..\..\..\lvgl\version_6.1.2\lvgl\src\lv_draw/lv_draw_basic.c ****     uint32_t vdb_width       = lv_area_get_width(&vdb->area);
 332              		.loc 1 150 0
 333 0048 0B90     		str	r0, [sp, #44]
 334              	.LVL36:
 335              	.LBB75:
 336              	.LBB71:
 337              		.loc 2 88 0
 338 004a CEF10100 		rsb	r0, lr, #1
 339              	.LVL37:
 340              	.LBE71:
 341              	.LBE75:
 146:..\..\..\lvgl\version_6.1.2\lvgl\src\lv_draw/lv_draw_basic.c ****     vdb_rel_a.x2 = res_a.x2 - vdb->area.x1;
 342              		.loc 1 146 0
 343 004e BDF83A40 		ldrh	r4, [sp, #58]
 344              	.LBB76:
 345              	.LBB72:
 346              		.loc 2 88 0
 347 0052 3044     		add	r0, r0, r6
 348              	.LBE72:
 349              	.LBE76:
 147:..\..\..\lvgl\version_6.1.2\lvgl\src\lv_draw/lv_draw_basic.c ****     vdb_rel_a.y2 = res_a.y2 - vdb->area.y1;
 350              		.loc 1 147 0
 351 0054 CEEB0202 		rsb	r2, lr, r2
 148:..\..\..\lvgl\version_6.1.2\lvgl\src\lv_draw/lv_draw_basic.c **** 
 352              		.loc 1 148 0
 353 0058 DB1B     		subs	r3, r3, r7
 147:..\..\..\lvgl\version_6.1.2\lvgl\src\lv_draw/lv_draw_basic.c ****     vdb_rel_a.y2 = res_a.y2 - vdb->area.y1;
 354              		.loc 1 147 0
 355 005a 12B2     		sxth	r2, r2
 145:..\..\..\lvgl\version_6.1.2\lvgl\src\lv_draw/lv_draw_basic.c ****     vdb_rel_a.y1 = res_a.y1 - vdb->area.y1;
 356              		.loc 1 145 0
ARM GAS  C:\Users\pearlstl\AppData\Local\Temp\ccmYHcOW.s 			page 21


 357 005c CEEB0101 		rsb	r1, lr, r1
 358              	.LBB77:
 359              	.LBB73:
 360              		.loc 2 88 0
 361 0060 00B2     		sxth	r0, r0
 362              	.LBE73:
 363              	.LBE77:
 146:..\..\..\lvgl\version_6.1.2\lvgl\src\lv_draw/lv_draw_basic.c ****     vdb_rel_a.x2 = res_a.x2 - vdb->area.x1;
 364              		.loc 1 146 0
 365 0062 E41B     		subs	r4, r4, r7
 147:..\..\..\lvgl\version_6.1.2\lvgl\src\lv_draw/lv_draw_basic.c ****     vdb_rel_a.y2 = res_a.y2 - vdb->area.y1;
 366              		.loc 1 147 0
 367 0064 0A92     		str	r2, [sp, #40]
 368 0066 1746     		mov	r7, r2
 148:..\..\..\lvgl\version_6.1.2\lvgl\src\lv_draw/lv_draw_basic.c **** 
 369              		.loc 1 148 0
 370 0068 0FFA83FB 		sxth	fp, r3
 371              	.LBB78:
 372              	.LBB74:
 373              		.loc 2 88 0
 374 006c 0590     		str	r0, [sp, #20]
 375              	.LVL38:
 376              	.LBE74:
 377              	.LBE78:
 145:..\..\..\lvgl\version_6.1.2\lvgl\src\lv_draw/lv_draw_basic.c ****     vdb_rel_a.y1 = res_a.y1 - vdb->area.y1;
 378              		.loc 1 145 0
 379 006e 0FFA81F9 		sxth	r9, r1
 380              	.LBB79:
 381              	.LBB80:
 223:..\..\..\lvgl\version_6.1.2\lvgl\src\lv_draw/lv_draw_basic.c **** 
 224:..\..\..\lvgl\version_6.1.2\lvgl\src\lv_draw/lv_draw_basic.c **** /**
 225:..\..\..\lvgl\version_6.1.2\lvgl\src\lv_draw/lv_draw_basic.c ****  * Draw a letter in the Virtual Display Buffer
 226:..\..\..\lvgl\version_6.1.2\lvgl\src\lv_draw/lv_draw_basic.c ****  * @param pos_p left-top coordinate of the latter
 227:..\..\..\lvgl\version_6.1.2\lvgl\src\lv_draw/lv_draw_basic.c ****  * @param mask_p the letter will be drawn only on this area  (truncated to VDB area)
 228:..\..\..\lvgl\version_6.1.2\lvgl\src\lv_draw/lv_draw_basic.c ****  * @param font_p pointer to font
 229:..\..\..\lvgl\version_6.1.2\lvgl\src\lv_draw/lv_draw_basic.c ****  * @param letter a letter to draw
 230:..\..\..\lvgl\version_6.1.2\lvgl\src\lv_draw/lv_draw_basic.c ****  * @param color color of letter
 231:..\..\..\lvgl\version_6.1.2\lvgl\src\lv_draw/lv_draw_basic.c ****  * @param opa opacity of letter (0..255)
 232:..\..\..\lvgl\version_6.1.2\lvgl\src\lv_draw/lv_draw_basic.c ****  */
 233:..\..\..\lvgl\version_6.1.2\lvgl\src\lv_draw/lv_draw_basic.c **** void lv_draw_letter(const lv_point_t * pos_p, const lv_area_t * mask_p, const lv_font_t * font_p, u
 234:..\..\..\lvgl\version_6.1.2\lvgl\src\lv_draw/lv_draw_basic.c ****                     lv_color_t color, lv_opa_t opa)
 235:..\..\..\lvgl\version_6.1.2\lvgl\src\lv_draw/lv_draw_basic.c **** {
 236:..\..\..\lvgl\version_6.1.2\lvgl\src\lv_draw/lv_draw_basic.c ****     /*clang-format off*/
 237:..\..\..\lvgl\version_6.1.2\lvgl\src\lv_draw/lv_draw_basic.c ****     const uint8_t bpp1_opa_table[2]  = {0, 255};          /*Opacity mapping with bpp = 1 (Just for 
 238:..\..\..\lvgl\version_6.1.2\lvgl\src\lv_draw/lv_draw_basic.c ****     const uint8_t bpp2_opa_table[4]  = {0, 85, 170, 255}; /*Opacity mapping with bpp = 2*/
 239:..\..\..\lvgl\version_6.1.2\lvgl\src\lv_draw/lv_draw_basic.c ****     const uint8_t bpp4_opa_table[16] = {0,  17, 34,  51,  /*Opacity mapping with bpp = 4*/
 240:..\..\..\lvgl\version_6.1.2\lvgl\src\lv_draw/lv_draw_basic.c ****                                         68, 85, 102, 119, 136, 153, 170, 187, 204, 221, 238, 255};
 241:..\..\..\lvgl\version_6.1.2\lvgl\src\lv_draw/lv_draw_basic.c ****     /*clang-format on*/
 242:..\..\..\lvgl\version_6.1.2\lvgl\src\lv_draw/lv_draw_basic.c **** 
 243:..\..\..\lvgl\version_6.1.2\lvgl\src\lv_draw/lv_draw_basic.c ****     if(opa < LV_OPA_MIN) return;
 244:..\..\..\lvgl\version_6.1.2\lvgl\src\lv_draw/lv_draw_basic.c ****     if(opa > LV_OPA_MAX) opa = LV_OPA_COVER;
 245:..\..\..\lvgl\version_6.1.2\lvgl\src\lv_draw/lv_draw_basic.c **** 
 246:..\..\..\lvgl\version_6.1.2\lvgl\src\lv_draw/lv_draw_basic.c ****     if(font_p == NULL) {
 247:..\..\..\lvgl\version_6.1.2\lvgl\src\lv_draw/lv_draw_basic.c ****         LV_LOG_WARN("Font: character's bitmap not found");
 248:..\..\..\lvgl\version_6.1.2\lvgl\src\lv_draw/lv_draw_basic.c ****         return;
 249:..\..\..\lvgl\version_6.1.2\lvgl\src\lv_draw/lv_draw_basic.c ****     }
 250:..\..\..\lvgl\version_6.1.2\lvgl\src\lv_draw/lv_draw_basic.c **** 
ARM GAS  C:\Users\pearlstl\AppData\Local\Temp\ccmYHcOW.s 			page 22


 251:..\..\..\lvgl\version_6.1.2\lvgl\src\lv_draw/lv_draw_basic.c ****     lv_font_glyph_dsc_t g;
 252:..\..\..\lvgl\version_6.1.2\lvgl\src\lv_draw/lv_draw_basic.c ****     bool g_ret = lv_font_get_glyph_dsc(font_p, &g, letter, '\0');
 253:..\..\..\lvgl\version_6.1.2\lvgl\src\lv_draw/lv_draw_basic.c ****     if(g_ret == false) return;
 254:..\..\..\lvgl\version_6.1.2\lvgl\src\lv_draw/lv_draw_basic.c **** 
 255:..\..\..\lvgl\version_6.1.2\lvgl\src\lv_draw/lv_draw_basic.c **** 
 256:..\..\..\lvgl\version_6.1.2\lvgl\src\lv_draw/lv_draw_basic.c ****     lv_coord_t pos_x = pos_p->x + g.ofs_x;
 257:..\..\..\lvgl\version_6.1.2\lvgl\src\lv_draw/lv_draw_basic.c ****     lv_coord_t pos_y = pos_p->y + (font_p->line_height - font_p->base_line) - g.box_h - g.ofs_y;
 258:..\..\..\lvgl\version_6.1.2\lvgl\src\lv_draw/lv_draw_basic.c **** 
 259:..\..\..\lvgl\version_6.1.2\lvgl\src\lv_draw/lv_draw_basic.c ****     const uint8_t * bpp_opa_table;
 260:..\..\..\lvgl\version_6.1.2\lvgl\src\lv_draw/lv_draw_basic.c ****     uint8_t bitmask_init;
 261:..\..\..\lvgl\version_6.1.2\lvgl\src\lv_draw/lv_draw_basic.c ****     uint8_t bitmask;
 262:..\..\..\lvgl\version_6.1.2\lvgl\src\lv_draw/lv_draw_basic.c **** 
 263:..\..\..\lvgl\version_6.1.2\lvgl\src\lv_draw/lv_draw_basic.c ****     /*bpp = 3 should be converted to bpp = 4 in lv_font_get_glyph_bitmap */
 264:..\..\..\lvgl\version_6.1.2\lvgl\src\lv_draw/lv_draw_basic.c ****     if(g.bpp == 3) g.bpp = 4;
 265:..\..\..\lvgl\version_6.1.2\lvgl\src\lv_draw/lv_draw_basic.c **** 
 266:..\..\..\lvgl\version_6.1.2\lvgl\src\lv_draw/lv_draw_basic.c ****     switch(g.bpp) {
 267:..\..\..\lvgl\version_6.1.2\lvgl\src\lv_draw/lv_draw_basic.c ****         case 1:
 268:..\..\..\lvgl\version_6.1.2\lvgl\src\lv_draw/lv_draw_basic.c ****             bpp_opa_table = bpp1_opa_table;
 269:..\..\..\lvgl\version_6.1.2\lvgl\src\lv_draw/lv_draw_basic.c ****             bitmask_init  = 0x80;
 270:..\..\..\lvgl\version_6.1.2\lvgl\src\lv_draw/lv_draw_basic.c ****             break;
 271:..\..\..\lvgl\version_6.1.2\lvgl\src\lv_draw/lv_draw_basic.c ****         case 2:
 272:..\..\..\lvgl\version_6.1.2\lvgl\src\lv_draw/lv_draw_basic.c ****             bpp_opa_table = bpp2_opa_table;
 273:..\..\..\lvgl\version_6.1.2\lvgl\src\lv_draw/lv_draw_basic.c ****             bitmask_init  = 0xC0;
 274:..\..\..\lvgl\version_6.1.2\lvgl\src\lv_draw/lv_draw_basic.c ****             break;
 275:..\..\..\lvgl\version_6.1.2\lvgl\src\lv_draw/lv_draw_basic.c ****         case 4:
 276:..\..\..\lvgl\version_6.1.2\lvgl\src\lv_draw/lv_draw_basic.c ****             bpp_opa_table = bpp4_opa_table;
 277:..\..\..\lvgl\version_6.1.2\lvgl\src\lv_draw/lv_draw_basic.c ****             bitmask_init  = 0xF0;
 278:..\..\..\lvgl\version_6.1.2\lvgl\src\lv_draw/lv_draw_basic.c ****             break;
 279:..\..\..\lvgl\version_6.1.2\lvgl\src\lv_draw/lv_draw_basic.c ****         case 8:
 280:..\..\..\lvgl\version_6.1.2\lvgl\src\lv_draw/lv_draw_basic.c ****             bpp_opa_table = NULL;
 281:..\..\..\lvgl\version_6.1.2\lvgl\src\lv_draw/lv_draw_basic.c ****             bitmask_init  = 0xFF;
 282:..\..\..\lvgl\version_6.1.2\lvgl\src\lv_draw/lv_draw_basic.c ****             break;       /*No opa table, pixel value will be used directly*/
 283:..\..\..\lvgl\version_6.1.2\lvgl\src\lv_draw/lv_draw_basic.c ****         default: return; /*Invalid bpp. Can't render the letter*/
 284:..\..\..\lvgl\version_6.1.2\lvgl\src\lv_draw/lv_draw_basic.c ****     }
 285:..\..\..\lvgl\version_6.1.2\lvgl\src\lv_draw/lv_draw_basic.c **** 
 286:..\..\..\lvgl\version_6.1.2\lvgl\src\lv_draw/lv_draw_basic.c ****     const uint8_t * map_p = lv_font_get_glyph_bitmap(font_p, letter);
 287:..\..\..\lvgl\version_6.1.2\lvgl\src\lv_draw/lv_draw_basic.c **** 
 288:..\..\..\lvgl\version_6.1.2\lvgl\src\lv_draw/lv_draw_basic.c ****     if(map_p == NULL) return;
 289:..\..\..\lvgl\version_6.1.2\lvgl\src\lv_draw/lv_draw_basic.c **** 
 290:..\..\..\lvgl\version_6.1.2\lvgl\src\lv_draw/lv_draw_basic.c ****     /*If the letter is completely out of mask don't draw it */
 291:..\..\..\lvgl\version_6.1.2\lvgl\src\lv_draw/lv_draw_basic.c ****     if(pos_x + g.box_w < mask_p->x1 || pos_x > mask_p->x2 || pos_y + g.box_h < mask_p->y1 || pos_y 
 292:..\..\..\lvgl\version_6.1.2\lvgl\src\lv_draw/lv_draw_basic.c **** 
 293:..\..\..\lvgl\version_6.1.2\lvgl\src\lv_draw/lv_draw_basic.c ****     lv_disp_t * disp    = lv_refr_get_disp_refreshing();
 294:..\..\..\lvgl\version_6.1.2\lvgl\src\lv_draw/lv_draw_basic.c ****     lv_disp_buf_t * vdb = lv_disp_get_buf(disp);
 295:..\..\..\lvgl\version_6.1.2\lvgl\src\lv_draw/lv_draw_basic.c **** 
 296:..\..\..\lvgl\version_6.1.2\lvgl\src\lv_draw/lv_draw_basic.c ****     lv_coord_t vdb_width     = lv_area_get_width(&vdb->area);
 297:..\..\..\lvgl\version_6.1.2\lvgl\src\lv_draw/lv_draw_basic.c ****     lv_color_t * vdb_buf_tmp = vdb->buf_act;
 298:..\..\..\lvgl\version_6.1.2\lvgl\src\lv_draw/lv_draw_basic.c ****     lv_coord_t col, row;
 299:..\..\..\lvgl\version_6.1.2\lvgl\src\lv_draw/lv_draw_basic.c **** 
 300:..\..\..\lvgl\version_6.1.2\lvgl\src\lv_draw/lv_draw_basic.c ****     uint8_t width_byte_scr = g.box_w >> 3; /*Width in bytes (on the screen finally) (e.g. w = 11 ->
 301:..\..\..\lvgl\version_6.1.2\lvgl\src\lv_draw/lv_draw_basic.c ****     if(g.box_w & 0x7) width_byte_scr++;
 302:..\..\..\lvgl\version_6.1.2\lvgl\src\lv_draw/lv_draw_basic.c ****     uint16_t width_bit = g.box_w * g.bpp; /*Letter width in bits*/
 303:..\..\..\lvgl\version_6.1.2\lvgl\src\lv_draw/lv_draw_basic.c **** 
 304:..\..\..\lvgl\version_6.1.2\lvgl\src\lv_draw/lv_draw_basic.c ****     bool subpx = font_p->subpx == LV_FONT_SUBPX_NONE ? false : true;
 305:..\..\..\lvgl\version_6.1.2\lvgl\src\lv_draw/lv_draw_basic.c **** 
 306:..\..\..\lvgl\version_6.1.2\lvgl\src\lv_draw/lv_draw_basic.c ****     /* Calculate the col/row start/end on the map*/
 307:..\..\..\lvgl\version_6.1.2\lvgl\src\lv_draw/lv_draw_basic.c ****     lv_coord_t col_start;
ARM GAS  C:\Users\pearlstl\AppData\Local\Temp\ccmYHcOW.s 			page 23


 308:..\..\..\lvgl\version_6.1.2\lvgl\src\lv_draw/lv_draw_basic.c ****     lv_coord_t col_end;
 309:..\..\..\lvgl\version_6.1.2\lvgl\src\lv_draw/lv_draw_basic.c ****     lv_coord_t row_start;
 310:..\..\..\lvgl\version_6.1.2\lvgl\src\lv_draw/lv_draw_basic.c ****     lv_coord_t row_end;
 311:..\..\..\lvgl\version_6.1.2\lvgl\src\lv_draw/lv_draw_basic.c **** 
 312:..\..\..\lvgl\version_6.1.2\lvgl\src\lv_draw/lv_draw_basic.c ****     if(subpx == false) {
 313:..\..\..\lvgl\version_6.1.2\lvgl\src\lv_draw/lv_draw_basic.c ****         col_start = pos_x >= mask_p->x1 ? 0 : mask_p->x1 - pos_x;
 314:..\..\..\lvgl\version_6.1.2\lvgl\src\lv_draw/lv_draw_basic.c ****         col_end   = pos_x + g.box_w <= mask_p->x2 ? g.box_w : mask_p->x2 - pos_x + 1;
 315:..\..\..\lvgl\version_6.1.2\lvgl\src\lv_draw/lv_draw_basic.c ****         row_start = pos_y >= mask_p->y1 ? 0 : mask_p->y1 - pos_y;
 316:..\..\..\lvgl\version_6.1.2\lvgl\src\lv_draw/lv_draw_basic.c ****         row_end   = pos_y + g.box_h <= mask_p->y2 ? g.box_h : mask_p->y2 - pos_y + 1;
 317:..\..\..\lvgl\version_6.1.2\lvgl\src\lv_draw/lv_draw_basic.c ****     } else {
 318:..\..\..\lvgl\version_6.1.2\lvgl\src\lv_draw/lv_draw_basic.c ****         col_start = pos_x >= mask_p->x1 ? 0 : (mask_p->x1 - pos_x) * 3;
 319:..\..\..\lvgl\version_6.1.2\lvgl\src\lv_draw/lv_draw_basic.c ****         col_end   = pos_x + g.box_w / 3 <= mask_p->x2 ? g.box_w : (mask_p->x2 - pos_x + 1) * 3;
 320:..\..\..\lvgl\version_6.1.2\lvgl\src\lv_draw/lv_draw_basic.c ****         row_start = pos_y >= mask_p->y1 ? 0 : mask_p->y1 - pos_y;
 321:..\..\..\lvgl\version_6.1.2\lvgl\src\lv_draw/lv_draw_basic.c ****         row_end   = pos_y + g.box_h <= mask_p->y2 ? g.box_h : mask_p->y2 - pos_y + 1;
 322:..\..\..\lvgl\version_6.1.2\lvgl\src\lv_draw/lv_draw_basic.c ****     }
 323:..\..\..\lvgl\version_6.1.2\lvgl\src\lv_draw/lv_draw_basic.c **** 
 324:..\..\..\lvgl\version_6.1.2\lvgl\src\lv_draw/lv_draw_basic.c ****     /*Set a pointer on VDB to the first pixel of the letter*/
 325:..\..\..\lvgl\version_6.1.2\lvgl\src\lv_draw/lv_draw_basic.c ****     vdb_buf_tmp += ((pos_y - vdb->area.y1) * vdb_width) + pos_x - vdb->area.x1;
 326:..\..\..\lvgl\version_6.1.2\lvgl\src\lv_draw/lv_draw_basic.c **** 
 327:..\..\..\lvgl\version_6.1.2\lvgl\src\lv_draw/lv_draw_basic.c ****     /*If the letter is partially out of mask the move there on VDB*/
 328:..\..\..\lvgl\version_6.1.2\lvgl\src\lv_draw/lv_draw_basic.c ****     if(subpx) vdb_buf_tmp += (row_start * vdb_width) + col_start / 3;
 329:..\..\..\lvgl\version_6.1.2\lvgl\src\lv_draw/lv_draw_basic.c ****     else vdb_buf_tmp += (row_start * vdb_width) + col_start;
 330:..\..\..\lvgl\version_6.1.2\lvgl\src\lv_draw/lv_draw_basic.c **** 
 331:..\..\..\lvgl\version_6.1.2\lvgl\src\lv_draw/lv_draw_basic.c ****     /*Move on the map too*/
 332:..\..\..\lvgl\version_6.1.2\lvgl\src\lv_draw/lv_draw_basic.c ****     uint32_t bit_ofs = (row_start * width_bit) + (col_start * g.bpp);
 333:..\..\..\lvgl\version_6.1.2\lvgl\src\lv_draw/lv_draw_basic.c ****     map_p += bit_ofs >> 3;
 334:..\..\..\lvgl\version_6.1.2\lvgl\src\lv_draw/lv_draw_basic.c **** 
 335:..\..\..\lvgl\version_6.1.2\lvgl\src\lv_draw/lv_draw_basic.c ****     uint8_t letter_px;
 336:..\..\..\lvgl\version_6.1.2\lvgl\src\lv_draw/lv_draw_basic.c ****     lv_opa_t px_opa = 0;
 337:..\..\..\lvgl\version_6.1.2\lvgl\src\lv_draw/lv_draw_basic.c ****     uint16_t col_bit;
 338:..\..\..\lvgl\version_6.1.2\lvgl\src\lv_draw/lv_draw_basic.c ****     col_bit = bit_ofs & 0x7; /* "& 0x7" equals to "% 8" just faster */
 339:..\..\..\lvgl\version_6.1.2\lvgl\src\lv_draw/lv_draw_basic.c **** 
 340:..\..\..\lvgl\version_6.1.2\lvgl\src\lv_draw/lv_draw_basic.c ****     bool scr_transp = false;
 341:..\..\..\lvgl\version_6.1.2\lvgl\src\lv_draw/lv_draw_basic.c **** #if LV_COLOR_DEPTH == 32 && LV_COLOR_SCREEN_TRANSP
 342:..\..\..\lvgl\version_6.1.2\lvgl\src\lv_draw/lv_draw_basic.c ****     scr_transp = disp->driver.screen_transp;
 343:..\..\..\lvgl\version_6.1.2\lvgl\src\lv_draw/lv_draw_basic.c **** #endif
 344:..\..\..\lvgl\version_6.1.2\lvgl\src\lv_draw/lv_draw_basic.c **** 
 345:..\..\..\lvgl\version_6.1.2\lvgl\src\lv_draw/lv_draw_basic.c ****     uint8_t font_rgb[3];
 346:..\..\..\lvgl\version_6.1.2\lvgl\src\lv_draw/lv_draw_basic.c ****     uint8_t txt_rgb[3] = {LV_COLOR_GET_R(color), LV_COLOR_GET_G(color), LV_COLOR_GET_B(color)};
 347:..\..\..\lvgl\version_6.1.2\lvgl\src\lv_draw/lv_draw_basic.c **** 
 348:..\..\..\lvgl\version_6.1.2\lvgl\src\lv_draw/lv_draw_basic.c ****     for(row = row_start; row < row_end; row++) {
 349:..\..\..\lvgl\version_6.1.2\lvgl\src\lv_draw/lv_draw_basic.c ****         bitmask = bitmask_init >> col_bit;
 350:..\..\..\lvgl\version_6.1.2\lvgl\src\lv_draw/lv_draw_basic.c ****         uint8_t sub_px_cnt = 0;
 351:..\..\..\lvgl\version_6.1.2\lvgl\src\lv_draw/lv_draw_basic.c ****         for(col = col_start; col < col_end; col++) {
 352:..\..\..\lvgl\version_6.1.2\lvgl\src\lv_draw/lv_draw_basic.c ****             letter_px = (*map_p & bitmask) >> (8 - col_bit - g.bpp);
 353:..\..\..\lvgl\version_6.1.2\lvgl\src\lv_draw/lv_draw_basic.c **** 
 354:..\..\..\lvgl\version_6.1.2\lvgl\src\lv_draw/lv_draw_basic.c ****             /*subpx == 0*/
 355:..\..\..\lvgl\version_6.1.2\lvgl\src\lv_draw/lv_draw_basic.c ****             if(subpx == false) {
 356:..\..\..\lvgl\version_6.1.2\lvgl\src\lv_draw/lv_draw_basic.c ****                 if(letter_px != 0) {
 357:..\..\..\lvgl\version_6.1.2\lvgl\src\lv_draw/lv_draw_basic.c ****                     if(opa == LV_OPA_COVER) {
 358:..\..\..\lvgl\version_6.1.2\lvgl\src\lv_draw/lv_draw_basic.c ****                         px_opa = g.bpp == 8 ? letter_px : bpp_opa_table[letter_px];
 359:..\..\..\lvgl\version_6.1.2\lvgl\src\lv_draw/lv_draw_basic.c ****                     } else {
 360:..\..\..\lvgl\version_6.1.2\lvgl\src\lv_draw/lv_draw_basic.c ****                         px_opa = g.bpp == 8 ? (uint16_t)((uint16_t)letter_px * opa) >> 8
 361:..\..\..\lvgl\version_6.1.2\lvgl\src\lv_draw/lv_draw_basic.c ****                                 : (uint16_t)((uint16_t)bpp_opa_table[letter_px] * opa) >> 8;
 362:..\..\..\lvgl\version_6.1.2\lvgl\src\lv_draw/lv_draw_basic.c ****                     }
 363:..\..\..\lvgl\version_6.1.2\lvgl\src\lv_draw/lv_draw_basic.c **** 
 364:..\..\..\lvgl\version_6.1.2\lvgl\src\lv_draw/lv_draw_basic.c ****                     if(disp->driver.set_px_cb) {
ARM GAS  C:\Users\pearlstl\AppData\Local\Temp\ccmYHcOW.s 			page 24


 365:..\..\..\lvgl\version_6.1.2\lvgl\src\lv_draw/lv_draw_basic.c ****                         disp->driver.set_px_cb(&disp->driver, (uint8_t *)vdb->buf_act, vdb_width,
 366:..\..\..\lvgl\version_6.1.2\lvgl\src\lv_draw/lv_draw_basic.c ****                                 (col + pos_x) - vdb->area.x1, (row + pos_y) - vdb->area.y1, color, 
 367:..\..\..\lvgl\version_6.1.2\lvgl\src\lv_draw/lv_draw_basic.c ****                     } else if(vdb_buf_tmp->full != color.full) {
 368:..\..\..\lvgl\version_6.1.2\lvgl\src\lv_draw/lv_draw_basic.c ****                         if(px_opa > LV_OPA_MAX) {
 369:..\..\..\lvgl\version_6.1.2\lvgl\src\lv_draw/lv_draw_basic.c ****                             *vdb_buf_tmp = color;
 370:..\..\..\lvgl\version_6.1.2\lvgl\src\lv_draw/lv_draw_basic.c ****                         } else if(px_opa > LV_OPA_MIN) {
 371:..\..\..\lvgl\version_6.1.2\lvgl\src\lv_draw/lv_draw_basic.c ****                             if(scr_transp == false) {
 372:..\..\..\lvgl\version_6.1.2\lvgl\src\lv_draw/lv_draw_basic.c ****                                 *vdb_buf_tmp = lv_color_mix(color, *vdb_buf_tmp, px_opa);
 373:..\..\..\lvgl\version_6.1.2\lvgl\src\lv_draw/lv_draw_basic.c ****                             } else {
 374:..\..\..\lvgl\version_6.1.2\lvgl\src\lv_draw/lv_draw_basic.c **** #if LV_COLOR_DEPTH == 32 && LV_COLOR_SCREEN_TRANSP
 375:..\..\..\lvgl\version_6.1.2\lvgl\src\lv_draw/lv_draw_basic.c ****         *vdb_buf_tmp = color_mix_2_alpha(*vdb_buf_tmp, (*vdb_buf_tmp).ch.alpha, color, px_opa);
 376:..\..\..\lvgl\version_6.1.2\lvgl\src\lv_draw/lv_draw_basic.c **** #endif
 377:..\..\..\lvgl\version_6.1.2\lvgl\src\lv_draw/lv_draw_basic.c ****                             }
 378:..\..\..\lvgl\version_6.1.2\lvgl\src\lv_draw/lv_draw_basic.c ****                         }
 379:..\..\..\lvgl\version_6.1.2\lvgl\src\lv_draw/lv_draw_basic.c ****                     }
 380:..\..\..\lvgl\version_6.1.2\lvgl\src\lv_draw/lv_draw_basic.c ****                 }
 381:..\..\..\lvgl\version_6.1.2\lvgl\src\lv_draw/lv_draw_basic.c ****                 vdb_buf_tmp++;
 382:..\..\..\lvgl\version_6.1.2\lvgl\src\lv_draw/lv_draw_basic.c ****             }
 383:..\..\..\lvgl\version_6.1.2\lvgl\src\lv_draw/lv_draw_basic.c ****             /*Handle subpx drawing*/
 384:..\..\..\lvgl\version_6.1.2\lvgl\src\lv_draw/lv_draw_basic.c ****             else {
 385:..\..\..\lvgl\version_6.1.2\lvgl\src\lv_draw/lv_draw_basic.c ****                 if(letter_px != 0) {
 386:..\..\..\lvgl\version_6.1.2\lvgl\src\lv_draw/lv_draw_basic.c ****                     if(opa == LV_OPA_COVER) {
 387:..\..\..\lvgl\version_6.1.2\lvgl\src\lv_draw/lv_draw_basic.c ****                         px_opa = g.bpp == 8 ? letter_px : bpp_opa_table[letter_px];
 388:..\..\..\lvgl\version_6.1.2\lvgl\src\lv_draw/lv_draw_basic.c ****                     } else {
 389:..\..\..\lvgl\version_6.1.2\lvgl\src\lv_draw/lv_draw_basic.c ****                         px_opa = g.bpp == 8 ? (uint16_t)((uint16_t)letter_px * opa) >> 8
 390:..\..\..\lvgl\version_6.1.2\lvgl\src\lv_draw/lv_draw_basic.c ****                                 : (uint16_t)((uint16_t)bpp_opa_table[letter_px] * opa) >> 8;
 391:..\..\..\lvgl\version_6.1.2\lvgl\src\lv_draw/lv_draw_basic.c ****                     }
 392:..\..\..\lvgl\version_6.1.2\lvgl\src\lv_draw/lv_draw_basic.c **** 
 393:..\..\..\lvgl\version_6.1.2\lvgl\src\lv_draw/lv_draw_basic.c ****                     font_rgb[sub_px_cnt] = px_opa;
 394:..\..\..\lvgl\version_6.1.2\lvgl\src\lv_draw/lv_draw_basic.c ****                 } else {
 395:..\..\..\lvgl\version_6.1.2\lvgl\src\lv_draw/lv_draw_basic.c ****                     font_rgb[sub_px_cnt] = 0;
 396:..\..\..\lvgl\version_6.1.2\lvgl\src\lv_draw/lv_draw_basic.c ****                 }
 397:..\..\..\lvgl\version_6.1.2\lvgl\src\lv_draw/lv_draw_basic.c ****                 sub_px_cnt ++;
 398:..\..\..\lvgl\version_6.1.2\lvgl\src\lv_draw/lv_draw_basic.c **** 
 399:..\..\..\lvgl\version_6.1.2\lvgl\src\lv_draw/lv_draw_basic.c ****                 if(sub_px_cnt == 3) {
 400:..\..\..\lvgl\version_6.1.2\lvgl\src\lv_draw/lv_draw_basic.c ****                     lv_color_t res_color;
 401:..\..\..\lvgl\version_6.1.2\lvgl\src\lv_draw/lv_draw_basic.c **** 
 402:..\..\..\lvgl\version_6.1.2\lvgl\src\lv_draw/lv_draw_basic.c ****                     if(font_rgb[0] == 0 && font_rgb[1] == 0 && font_rgb[2] == 0) {
 403:..\..\..\lvgl\version_6.1.2\lvgl\src\lv_draw/lv_draw_basic.c ****                         res_color = *vdb_buf_tmp;
 404:..\..\..\lvgl\version_6.1.2\lvgl\src\lv_draw/lv_draw_basic.c ****                     } else {
 405:..\..\..\lvgl\version_6.1.2\lvgl\src\lv_draw/lv_draw_basic.c **** 
 406:..\..\..\lvgl\version_6.1.2\lvgl\src\lv_draw/lv_draw_basic.c ****                         uint8_t bg_rgb[3] = {LV_COLOR_GET_R(*vdb_buf_tmp), LV_COLOR_GET_G(*vdb_buf_
 407:..\..\..\lvgl\version_6.1.2\lvgl\src\lv_draw/lv_draw_basic.c **** 
 408:..\..\..\lvgl\version_6.1.2\lvgl\src\lv_draw/lv_draw_basic.c **** #if LV_FONT_SUBPX_BGR
 409:..\..\..\lvgl\version_6.1.2\lvgl\src\lv_draw/lv_draw_basic.c ****                         LV_COLOR_SET_B(res_color, (uint16_t)((uint16_t)txt_rgb[0] * font_rgb[0] + (
 410:..\..\..\lvgl\version_6.1.2\lvgl\src\lv_draw/lv_draw_basic.c ****                         LV_COLOR_SET_R(res_color, (uint16_t)((uint16_t)txt_rgb[2] * font_rgb[2] + (
 411:..\..\..\lvgl\version_6.1.2\lvgl\src\lv_draw/lv_draw_basic.c **** #else
 412:..\..\..\lvgl\version_6.1.2\lvgl\src\lv_draw/lv_draw_basic.c ****                         LV_COLOR_SET_R(res_color, (uint16_t)((uint16_t)txt_rgb[0] * font_rgb[0] + (
 413:..\..\..\lvgl\version_6.1.2\lvgl\src\lv_draw/lv_draw_basic.c ****                         LV_COLOR_SET_B(res_color, (uint16_t)((uint16_t)txt_rgb[2] * font_rgb[2] + (
 414:..\..\..\lvgl\version_6.1.2\lvgl\src\lv_draw/lv_draw_basic.c **** #endif
 415:..\..\..\lvgl\version_6.1.2\lvgl\src\lv_draw/lv_draw_basic.c ****                         LV_COLOR_SET_G(res_color, (uint16_t)((uint16_t)txt_rgb[1] * font_rgb[1] + (
 416:..\..\..\lvgl\version_6.1.2\lvgl\src\lv_draw/lv_draw_basic.c ****                     }
 417:..\..\..\lvgl\version_6.1.2\lvgl\src\lv_draw/lv_draw_basic.c ****                     if(scr_transp == false) {
 418:..\..\..\lvgl\version_6.1.2\lvgl\src\lv_draw/lv_draw_basic.c ****                         vdb_buf_tmp->full = res_color.full;
 419:..\..\..\lvgl\version_6.1.2\lvgl\src\lv_draw/lv_draw_basic.c **** #if LV_COLOR_DEPTH == 32 && LV_COLOR_SCREEN_TRANSP
 420:..\..\..\lvgl\version_6.1.2\lvgl\src\lv_draw/lv_draw_basic.c ****                     } else {
 421:..\..\..\lvgl\version_6.1.2\lvgl\src\lv_draw/lv_draw_basic.c ****                         *vdb_buf_tmp = color_mix_2_alpha(*vdb_buf_tmp, (*vdb_buf_tmp).ch.alpha, col
ARM GAS  C:\Users\pearlstl\AppData\Local\Temp\ccmYHcOW.s 			page 25


 422:..\..\..\lvgl\version_6.1.2\lvgl\src\lv_draw/lv_draw_basic.c **** #endif
 423:..\..\..\lvgl\version_6.1.2\lvgl\src\lv_draw/lv_draw_basic.c ****                     }
 424:..\..\..\lvgl\version_6.1.2\lvgl\src\lv_draw/lv_draw_basic.c ****                     sub_px_cnt = 0;
 425:..\..\..\lvgl\version_6.1.2\lvgl\src\lv_draw/lv_draw_basic.c ****                     vdb_buf_tmp++;
 426:..\..\..\lvgl\version_6.1.2\lvgl\src\lv_draw/lv_draw_basic.c ****                 }
 427:..\..\..\lvgl\version_6.1.2\lvgl\src\lv_draw/lv_draw_basic.c ****             }
 428:..\..\..\lvgl\version_6.1.2\lvgl\src\lv_draw/lv_draw_basic.c **** 
 429:..\..\..\lvgl\version_6.1.2\lvgl\src\lv_draw/lv_draw_basic.c **** 
 430:..\..\..\lvgl\version_6.1.2\lvgl\src\lv_draw/lv_draw_basic.c ****             if(col_bit < 8 - g.bpp) {
 431:..\..\..\lvgl\version_6.1.2\lvgl\src\lv_draw/lv_draw_basic.c ****                 col_bit += g.bpp;
 432:..\..\..\lvgl\version_6.1.2\lvgl\src\lv_draw/lv_draw_basic.c ****                 bitmask = bitmask >> g.bpp;
 433:..\..\..\lvgl\version_6.1.2\lvgl\src\lv_draw/lv_draw_basic.c ****             } else {
 434:..\..\..\lvgl\version_6.1.2\lvgl\src\lv_draw/lv_draw_basic.c ****                 col_bit = 0;
 435:..\..\..\lvgl\version_6.1.2\lvgl\src\lv_draw/lv_draw_basic.c ****                 bitmask = bitmask_init;
 436:..\..\..\lvgl\version_6.1.2\lvgl\src\lv_draw/lv_draw_basic.c ****                 map_p++;
 437:..\..\..\lvgl\version_6.1.2\lvgl\src\lv_draw/lv_draw_basic.c ****             }
 438:..\..\..\lvgl\version_6.1.2\lvgl\src\lv_draw/lv_draw_basic.c ****         }
 439:..\..\..\lvgl\version_6.1.2\lvgl\src\lv_draw/lv_draw_basic.c **** 
 440:..\..\..\lvgl\version_6.1.2\lvgl\src\lv_draw/lv_draw_basic.c ****         col_bit += ((g.box_w - col_end) + col_start) * g.bpp;
 441:..\..\..\lvgl\version_6.1.2\lvgl\src\lv_draw/lv_draw_basic.c **** 
 442:..\..\..\lvgl\version_6.1.2\lvgl\src\lv_draw/lv_draw_basic.c ****         map_p += (col_bit >> 3);
 443:..\..\..\lvgl\version_6.1.2\lvgl\src\lv_draw/lv_draw_basic.c ****         col_bit = col_bit & 0x7;
 444:..\..\..\lvgl\version_6.1.2\lvgl\src\lv_draw/lv_draw_basic.c **** 
 445:..\..\..\lvgl\version_6.1.2\lvgl\src\lv_draw/lv_draw_basic.c ****         /*Next row in VDB*/
 446:..\..\..\lvgl\version_6.1.2\lvgl\src\lv_draw/lv_draw_basic.c ****         if(subpx) vdb_buf_tmp += vdb_width - (col_end - col_start) / 3;
 447:..\..\..\lvgl\version_6.1.2\lvgl\src\lv_draw/lv_draw_basic.c ****         else vdb_buf_tmp += vdb_width - (col_end - col_start);
 448:..\..\..\lvgl\version_6.1.2\lvgl\src\lv_draw/lv_draw_basic.c ****     }
 449:..\..\..\lvgl\version_6.1.2\lvgl\src\lv_draw/lv_draw_basic.c **** }
 450:..\..\..\lvgl\version_6.1.2\lvgl\src\lv_draw/lv_draw_basic.c **** 
 451:..\..\..\lvgl\version_6.1.2\lvgl\src\lv_draw/lv_draw_basic.c **** /**
 452:..\..\..\lvgl\version_6.1.2\lvgl\src\lv_draw/lv_draw_basic.c ****  * Draw a color map to the display (image)
 453:..\..\..\lvgl\version_6.1.2\lvgl\src\lv_draw/lv_draw_basic.c ****  * @param cords_p coordinates the color map
 454:..\..\..\lvgl\version_6.1.2\lvgl\src\lv_draw/lv_draw_basic.c ****  * @param mask_p the map will drawn only on this area  (truncated to VDB area)
 455:..\..\..\lvgl\version_6.1.2\lvgl\src\lv_draw/lv_draw_basic.c ****  * @param map_p pointer to a lv_color_t array
 456:..\..\..\lvgl\version_6.1.2\lvgl\src\lv_draw/lv_draw_basic.c ****  * @param opa opacity of the map
 457:..\..\..\lvgl\version_6.1.2\lvgl\src\lv_draw/lv_draw_basic.c ****  * @param chroma_keyed true: enable transparency of LV_IMG_LV_COLOR_TRANSP color pixels
 458:..\..\..\lvgl\version_6.1.2\lvgl\src\lv_draw/lv_draw_basic.c ****  * @param alpha_byte true: extra alpha byte is inserted for every pixel
 459:..\..\..\lvgl\version_6.1.2\lvgl\src\lv_draw/lv_draw_basic.c ****  * @param recolor mix the pixels with this color
 460:..\..\..\lvgl\version_6.1.2\lvgl\src\lv_draw/lv_draw_basic.c ****  * @param recolor_opa the intense of recoloring
 461:..\..\..\lvgl\version_6.1.2\lvgl\src\lv_draw/lv_draw_basic.c ****  */
 462:..\..\..\lvgl\version_6.1.2\lvgl\src\lv_draw/lv_draw_basic.c **** void lv_draw_map(const lv_area_t * cords_p, const lv_area_t * mask_p, const uint8_t * map_p, lv_opa
 463:..\..\..\lvgl\version_6.1.2\lvgl\src\lv_draw/lv_draw_basic.c ****                  bool chroma_key, bool alpha_byte, lv_color_t recolor, lv_opa_t recolor_opa)
 464:..\..\..\lvgl\version_6.1.2\lvgl\src\lv_draw/lv_draw_basic.c **** {
 465:..\..\..\lvgl\version_6.1.2\lvgl\src\lv_draw/lv_draw_basic.c **** 
 466:..\..\..\lvgl\version_6.1.2\lvgl\src\lv_draw/lv_draw_basic.c ****     if(opa < LV_OPA_MIN) return;
 467:..\..\..\lvgl\version_6.1.2\lvgl\src\lv_draw/lv_draw_basic.c ****     if(opa > LV_OPA_MAX) opa = LV_OPA_COVER;
 468:..\..\..\lvgl\version_6.1.2\lvgl\src\lv_draw/lv_draw_basic.c **** 
 469:..\..\..\lvgl\version_6.1.2\lvgl\src\lv_draw/lv_draw_basic.c ****     lv_area_t masked_a;
 470:..\..\..\lvgl\version_6.1.2\lvgl\src\lv_draw/lv_draw_basic.c ****     bool union_ok;
 471:..\..\..\lvgl\version_6.1.2\lvgl\src\lv_draw/lv_draw_basic.c **** 
 472:..\..\..\lvgl\version_6.1.2\lvgl\src\lv_draw/lv_draw_basic.c ****     /*Get the union of map size and mask*/
 473:..\..\..\lvgl\version_6.1.2\lvgl\src\lv_draw/lv_draw_basic.c ****     /* The mask is already truncated to the vdb size
 474:..\..\..\lvgl\version_6.1.2\lvgl\src\lv_draw/lv_draw_basic.c ****      * in 'lv_refr_area_with_vdb' function */
 475:..\..\..\lvgl\version_6.1.2\lvgl\src\lv_draw/lv_draw_basic.c ****     union_ok = lv_area_intersect(&masked_a, cords_p, mask_p);
 476:..\..\..\lvgl\version_6.1.2\lvgl\src\lv_draw/lv_draw_basic.c **** 
 477:..\..\..\lvgl\version_6.1.2\lvgl\src\lv_draw/lv_draw_basic.c ****     /*If there are common part of the three area then draw to the vdb*/
 478:..\..\..\lvgl\version_6.1.2\lvgl\src\lv_draw/lv_draw_basic.c ****     if(union_ok == false) return;
ARM GAS  C:\Users\pearlstl\AppData\Local\Temp\ccmYHcOW.s 			page 26


 479:..\..\..\lvgl\version_6.1.2\lvgl\src\lv_draw/lv_draw_basic.c **** 
 480:..\..\..\lvgl\version_6.1.2\lvgl\src\lv_draw/lv_draw_basic.c ****     /*The pixel size in byte is different if an alpha byte is added too*/
 481:..\..\..\lvgl\version_6.1.2\lvgl\src\lv_draw/lv_draw_basic.c ****     uint8_t px_size_byte = alpha_byte ? LV_IMG_PX_SIZE_ALPHA_BYTE : sizeof(lv_color_t);
 482:..\..\..\lvgl\version_6.1.2\lvgl\src\lv_draw/lv_draw_basic.c **** 
 483:..\..\..\lvgl\version_6.1.2\lvgl\src\lv_draw/lv_draw_basic.c ****     /*If the map starts OUT of the masked area then calc. the first pixel*/
 484:..\..\..\lvgl\version_6.1.2\lvgl\src\lv_draw/lv_draw_basic.c ****     lv_coord_t map_width = lv_area_get_width(cords_p);
 485:..\..\..\lvgl\version_6.1.2\lvgl\src\lv_draw/lv_draw_basic.c ****     if(cords_p->y1 < masked_a.y1) {
 486:..\..\..\lvgl\version_6.1.2\lvgl\src\lv_draw/lv_draw_basic.c ****         map_p += (uint32_t)map_width * ((masked_a.y1 - cords_p->y1)) * px_size_byte;
 487:..\..\..\lvgl\version_6.1.2\lvgl\src\lv_draw/lv_draw_basic.c ****     }
 488:..\..\..\lvgl\version_6.1.2\lvgl\src\lv_draw/lv_draw_basic.c ****     if(cords_p->x1 < masked_a.x1) {
 489:..\..\..\lvgl\version_6.1.2\lvgl\src\lv_draw/lv_draw_basic.c ****         map_p += (masked_a.x1 - cords_p->x1) * px_size_byte;
 490:..\..\..\lvgl\version_6.1.2\lvgl\src\lv_draw/lv_draw_basic.c ****     }
 491:..\..\..\lvgl\version_6.1.2\lvgl\src\lv_draw/lv_draw_basic.c **** 
 492:..\..\..\lvgl\version_6.1.2\lvgl\src\lv_draw/lv_draw_basic.c ****     lv_disp_t * disp    = lv_refr_get_disp_refreshing();
 493:..\..\..\lvgl\version_6.1.2\lvgl\src\lv_draw/lv_draw_basic.c ****     lv_disp_buf_t * vdb = lv_disp_get_buf(disp);
 494:..\..\..\lvgl\version_6.1.2\lvgl\src\lv_draw/lv_draw_basic.c **** 
 495:..\..\..\lvgl\version_6.1.2\lvgl\src\lv_draw/lv_draw_basic.c ****     /*Stores coordinates relative to the current VDB*/
 496:..\..\..\lvgl\version_6.1.2\lvgl\src\lv_draw/lv_draw_basic.c ****     masked_a.x1 = masked_a.x1 - vdb->area.x1;
 497:..\..\..\lvgl\version_6.1.2\lvgl\src\lv_draw/lv_draw_basic.c ****     masked_a.y1 = masked_a.y1 - vdb->area.y1;
 498:..\..\..\lvgl\version_6.1.2\lvgl\src\lv_draw/lv_draw_basic.c ****     masked_a.x2 = masked_a.x2 - vdb->area.x1;
 499:..\..\..\lvgl\version_6.1.2\lvgl\src\lv_draw/lv_draw_basic.c ****     masked_a.y2 = masked_a.y2 - vdb->area.y1;
 500:..\..\..\lvgl\version_6.1.2\lvgl\src\lv_draw/lv_draw_basic.c **** 
 501:..\..\..\lvgl\version_6.1.2\lvgl\src\lv_draw/lv_draw_basic.c ****     lv_coord_t vdb_width     = lv_area_get_width(&vdb->area);
 502:..\..\..\lvgl\version_6.1.2\lvgl\src\lv_draw/lv_draw_basic.c ****     lv_color_t * vdb_buf_tmp = vdb->buf_act;
 503:..\..\..\lvgl\version_6.1.2\lvgl\src\lv_draw/lv_draw_basic.c ****     vdb_buf_tmp += (uint32_t)vdb_width * masked_a.y1; /*Move to the first row*/
 504:..\..\..\lvgl\version_6.1.2\lvgl\src\lv_draw/lv_draw_basic.c ****     vdb_buf_tmp += (uint32_t)masked_a.x1;             /*Move to the first col*/
 505:..\..\..\lvgl\version_6.1.2\lvgl\src\lv_draw/lv_draw_basic.c **** 
 506:..\..\..\lvgl\version_6.1.2\lvgl\src\lv_draw/lv_draw_basic.c ****     lv_coord_t row;
 507:..\..\..\lvgl\version_6.1.2\lvgl\src\lv_draw/lv_draw_basic.c ****     lv_coord_t map_useful_w = lv_area_get_width(&masked_a);
 508:..\..\..\lvgl\version_6.1.2\lvgl\src\lv_draw/lv_draw_basic.c **** 
 509:..\..\..\lvgl\version_6.1.2\lvgl\src\lv_draw/lv_draw_basic.c ****     bool scr_transp = false;
 510:..\..\..\lvgl\version_6.1.2\lvgl\src\lv_draw/lv_draw_basic.c **** #if LV_COLOR_DEPTH == 32 && LV_COLOR_SCREEN_TRANSP
 511:..\..\..\lvgl\version_6.1.2\lvgl\src\lv_draw/lv_draw_basic.c ****     scr_transp = disp->driver.screen_transp;
 512:..\..\..\lvgl\version_6.1.2\lvgl\src\lv_draw/lv_draw_basic.c **** #endif
 513:..\..\..\lvgl\version_6.1.2\lvgl\src\lv_draw/lv_draw_basic.c **** 
 514:..\..\..\lvgl\version_6.1.2\lvgl\src\lv_draw/lv_draw_basic.c ****     /*The simplest case just copy the pixels into the VDB*/
 515:..\..\..\lvgl\version_6.1.2\lvgl\src\lv_draw/lv_draw_basic.c ****     if(chroma_key == false && alpha_byte == false && opa == LV_OPA_COVER && recolor_opa == LV_OPA_T
 516:..\..\..\lvgl\version_6.1.2\lvgl\src\lv_draw/lv_draw_basic.c **** 
 517:..\..\..\lvgl\version_6.1.2\lvgl\src\lv_draw/lv_draw_basic.c ****         /*Use the custom VDB write function is exists*/
 518:..\..\..\lvgl\version_6.1.2\lvgl\src\lv_draw/lv_draw_basic.c ****         if(disp->driver.set_px_cb) {
 519:..\..\..\lvgl\version_6.1.2\lvgl\src\lv_draw/lv_draw_basic.c ****             lv_coord_t col;
 520:..\..\..\lvgl\version_6.1.2\lvgl\src\lv_draw/lv_draw_basic.c ****             for(row = masked_a.y1; row <= masked_a.y2; row++) {
 521:..\..\..\lvgl\version_6.1.2\lvgl\src\lv_draw/lv_draw_basic.c ****                 for(col = 0; col < map_useful_w; col++) {
 522:..\..\..\lvgl\version_6.1.2\lvgl\src\lv_draw/lv_draw_basic.c ****                     lv_color_t px_color = *((lv_color_t *)&map_p[(uint32_t)col * px_size_byte]);
 523:..\..\..\lvgl\version_6.1.2\lvgl\src\lv_draw/lv_draw_basic.c ****                     disp->driver.set_px_cb(&disp->driver, (uint8_t *)vdb->buf_act, vdb_width, col +
 524:..\..\..\lvgl\version_6.1.2\lvgl\src\lv_draw/lv_draw_basic.c ****                                            px_color, opa);
 525:..\..\..\lvgl\version_6.1.2\lvgl\src\lv_draw/lv_draw_basic.c ****                 }
 526:..\..\..\lvgl\version_6.1.2\lvgl\src\lv_draw/lv_draw_basic.c ****                 map_p += map_width * px_size_byte; /*Next row on the map*/
 527:..\..\..\lvgl\version_6.1.2\lvgl\src\lv_draw/lv_draw_basic.c ****             }
 528:..\..\..\lvgl\version_6.1.2\lvgl\src\lv_draw/lv_draw_basic.c ****         }
 529:..\..\..\lvgl\version_6.1.2\lvgl\src\lv_draw/lv_draw_basic.c ****         /*Normal native VDB*/
 530:..\..\..\lvgl\version_6.1.2\lvgl\src\lv_draw/lv_draw_basic.c ****         else {
 531:..\..\..\lvgl\version_6.1.2\lvgl\src\lv_draw/lv_draw_basic.c ****             for(row = masked_a.y1; row <= masked_a.y2; row++) {
 532:..\..\..\lvgl\version_6.1.2\lvgl\src\lv_draw/lv_draw_basic.c **** #if LV_USE_GPU
 533:..\..\..\lvgl\version_6.1.2\lvgl\src\lv_draw/lv_draw_basic.c ****                 if(disp->driver.gpu_blend_cb == false) {
 534:..\..\..\lvgl\version_6.1.2\lvgl\src\lv_draw/lv_draw_basic.c ****                     sw_mem_blend(vdb_buf_tmp, (lv_color_t *)map_p, map_useful_w, opa);
 535:..\..\..\lvgl\version_6.1.2\lvgl\src\lv_draw/lv_draw_basic.c ****                 } else {
ARM GAS  C:\Users\pearlstl\AppData\Local\Temp\ccmYHcOW.s 			page 27


 536:..\..\..\lvgl\version_6.1.2\lvgl\src\lv_draw/lv_draw_basic.c ****                     disp->driver.gpu_blend_cb(&disp->driver, vdb_buf_tmp, (lv_color_t *)map_p, map_
 537:..\..\..\lvgl\version_6.1.2\lvgl\src\lv_draw/lv_draw_basic.c ****                 }
 538:..\..\..\lvgl\version_6.1.2\lvgl\src\lv_draw/lv_draw_basic.c **** #else
 539:..\..\..\lvgl\version_6.1.2\lvgl\src\lv_draw/lv_draw_basic.c ****                 sw_mem_blend(vdb_buf_tmp, (lv_color_t *)map_p, map_useful_w, opa);
 540:..\..\..\lvgl\version_6.1.2\lvgl\src\lv_draw/lv_draw_basic.c **** #endif
 541:..\..\..\lvgl\version_6.1.2\lvgl\src\lv_draw/lv_draw_basic.c ****                 map_p += map_width * px_size_byte; /*Next row on the map*/
 542:..\..\..\lvgl\version_6.1.2\lvgl\src\lv_draw/lv_draw_basic.c ****                 vdb_buf_tmp += vdb_width;          /*Next row on the VDB*/
 543:..\..\..\lvgl\version_6.1.2\lvgl\src\lv_draw/lv_draw_basic.c ****             }
 544:..\..\..\lvgl\version_6.1.2\lvgl\src\lv_draw/lv_draw_basic.c ****         }
 545:..\..\..\lvgl\version_6.1.2\lvgl\src\lv_draw/lv_draw_basic.c ****     }
 546:..\..\..\lvgl\version_6.1.2\lvgl\src\lv_draw/lv_draw_basic.c **** 
 547:..\..\..\lvgl\version_6.1.2\lvgl\src\lv_draw/lv_draw_basic.c ****     /*In the other cases every pixel need to be checked one-by-one*/
 548:..\..\..\lvgl\version_6.1.2\lvgl\src\lv_draw/lv_draw_basic.c ****     else {
 549:..\..\..\lvgl\version_6.1.2\lvgl\src\lv_draw/lv_draw_basic.c **** 
 550:..\..\..\lvgl\version_6.1.2\lvgl\src\lv_draw/lv_draw_basic.c ****         lv_coord_t col;
 551:..\..\..\lvgl\version_6.1.2\lvgl\src\lv_draw/lv_draw_basic.c ****         lv_color_t last_img_px  = LV_COLOR_BLACK;
 552:..\..\..\lvgl\version_6.1.2\lvgl\src\lv_draw/lv_draw_basic.c ****         lv_color_t recolored_px = lv_color_mix(recolor, last_img_px, recolor_opa);
 553:..\..\..\lvgl\version_6.1.2\lvgl\src\lv_draw/lv_draw_basic.c ****         for(row = masked_a.y1; row <= masked_a.y2; row++) {
 554:..\..\..\lvgl\version_6.1.2\lvgl\src\lv_draw/lv_draw_basic.c ****             for(col = 0; col < map_useful_w; col++) {
 555:..\..\..\lvgl\version_6.1.2\lvgl\src\lv_draw/lv_draw_basic.c ****                 lv_opa_t opa_result  = opa;
 556:..\..\..\lvgl\version_6.1.2\lvgl\src\lv_draw/lv_draw_basic.c ****                 uint8_t * px_color_p = (uint8_t *)&map_p[(uint32_t)col * px_size_byte];
 557:..\..\..\lvgl\version_6.1.2\lvgl\src\lv_draw/lv_draw_basic.c ****                 lv_color_t px_color;
 558:..\..\..\lvgl\version_6.1.2\lvgl\src\lv_draw/lv_draw_basic.c **** 
 559:..\..\..\lvgl\version_6.1.2\lvgl\src\lv_draw/lv_draw_basic.c ****                 /*Calculate with the pixel level alpha*/
 560:..\..\..\lvgl\version_6.1.2\lvgl\src\lv_draw/lv_draw_basic.c ****                 if(alpha_byte) {
 561:..\..\..\lvgl\version_6.1.2\lvgl\src\lv_draw/lv_draw_basic.c **** #if LV_COLOR_DEPTH == 8 || LV_COLOR_DEPTH == 1
 562:..\..\..\lvgl\version_6.1.2\lvgl\src\lv_draw/lv_draw_basic.c ****                     px_color.full = px_color_p[0];
 563:..\..\..\lvgl\version_6.1.2\lvgl\src\lv_draw/lv_draw_basic.c **** #elif LV_COLOR_DEPTH == 16
 564:..\..\..\lvgl\version_6.1.2\lvgl\src\lv_draw/lv_draw_basic.c ****                     /*Because of Alpha byte 16 bit color can start on odd address which can cause
 565:..\..\..\lvgl\version_6.1.2\lvgl\src\lv_draw/lv_draw_basic.c ****                      * crash*/
 566:..\..\..\lvgl\version_6.1.2\lvgl\src\lv_draw/lv_draw_basic.c ****                     px_color.full = px_color_p[0] + (px_color_p[1] << 8);
 567:..\..\..\lvgl\version_6.1.2\lvgl\src\lv_draw/lv_draw_basic.c **** #elif LV_COLOR_DEPTH == 32
 568:..\..\..\lvgl\version_6.1.2\lvgl\src\lv_draw/lv_draw_basic.c ****                     px_color = *((lv_color_t *)px_color_p);
 569:..\..\..\lvgl\version_6.1.2\lvgl\src\lv_draw/lv_draw_basic.c **** #endif
 570:..\..\..\lvgl\version_6.1.2\lvgl\src\lv_draw/lv_draw_basic.c ****                     lv_opa_t px_opa = *(px_color_p + LV_IMG_PX_SIZE_ALPHA_BYTE - 1);
 571:..\..\..\lvgl\version_6.1.2\lvgl\src\lv_draw/lv_draw_basic.c ****                     if(px_opa == LV_OPA_TRANSP)
 572:..\..\..\lvgl\version_6.1.2\lvgl\src\lv_draw/lv_draw_basic.c ****                         continue;
 573:..\..\..\lvgl\version_6.1.2\lvgl\src\lv_draw/lv_draw_basic.c ****                     else if(px_opa != LV_OPA_COVER)
 574:..\..\..\lvgl\version_6.1.2\lvgl\src\lv_draw/lv_draw_basic.c ****                         opa_result = (uint32_t)((uint32_t)px_opa * opa_result) >> 8;
 575:..\..\..\lvgl\version_6.1.2\lvgl\src\lv_draw/lv_draw_basic.c ****                 } else {
 576:..\..\..\lvgl\version_6.1.2\lvgl\src\lv_draw/lv_draw_basic.c ****                     px_color = *((lv_color_t *)px_color_p);
 577:..\..\..\lvgl\version_6.1.2\lvgl\src\lv_draw/lv_draw_basic.c ****                 }
 578:..\..\..\lvgl\version_6.1.2\lvgl\src\lv_draw/lv_draw_basic.c **** 
 579:..\..\..\lvgl\version_6.1.2\lvgl\src\lv_draw/lv_draw_basic.c ****                 /*Handle chroma key*/
 580:..\..\..\lvgl\version_6.1.2\lvgl\src\lv_draw/lv_draw_basic.c ****                 if(chroma_key && px_color.full == disp->driver.color_chroma_key.full) continue;
 581:..\..\..\lvgl\version_6.1.2\lvgl\src\lv_draw/lv_draw_basic.c **** 
 582:..\..\..\lvgl\version_6.1.2\lvgl\src\lv_draw/lv_draw_basic.c ****                 /*Re-color the pixel if required*/
 583:..\..\..\lvgl\version_6.1.2\lvgl\src\lv_draw/lv_draw_basic.c ****                 if(recolor_opa != LV_OPA_TRANSP) {
 584:..\..\..\lvgl\version_6.1.2\lvgl\src\lv_draw/lv_draw_basic.c ****                     if(last_img_px.full != px_color.full) { /*Minor acceleration: calculate only fo
 585:..\..\..\lvgl\version_6.1.2\lvgl\src\lv_draw/lv_draw_basic.c ****                                                                new colors (save the last)*/
 586:..\..\..\lvgl\version_6.1.2\lvgl\src\lv_draw/lv_draw_basic.c ****                         last_img_px  = px_color;
 587:..\..\..\lvgl\version_6.1.2\lvgl\src\lv_draw/lv_draw_basic.c ****                         recolored_px = lv_color_mix(recolor, last_img_px, recolor_opa);
 588:..\..\..\lvgl\version_6.1.2\lvgl\src\lv_draw/lv_draw_basic.c ****                     }
 589:..\..\..\lvgl\version_6.1.2\lvgl\src\lv_draw/lv_draw_basic.c ****                     /*Handle custom VDB write is present*/
 590:..\..\..\lvgl\version_6.1.2\lvgl\src\lv_draw/lv_draw_basic.c ****                     if(disp->driver.set_px_cb) {
 591:..\..\..\lvgl\version_6.1.2\lvgl\src\lv_draw/lv_draw_basic.c ****                         disp->driver.set_px_cb(&disp->driver, (uint8_t *)vdb->buf_act, vdb_width, c
 592:..\..\..\lvgl\version_6.1.2\lvgl\src\lv_draw/lv_draw_basic.c ****                                                row, recolored_px, opa_result);
ARM GAS  C:\Users\pearlstl\AppData\Local\Temp\ccmYHcOW.s 			page 28


 593:..\..\..\lvgl\version_6.1.2\lvgl\src\lv_draw/lv_draw_basic.c ****                     }
 594:..\..\..\lvgl\version_6.1.2\lvgl\src\lv_draw/lv_draw_basic.c ****                     /*Normal native VDB write*/
 595:..\..\..\lvgl\version_6.1.2\lvgl\src\lv_draw/lv_draw_basic.c ****                     else {
 596:..\..\..\lvgl\version_6.1.2\lvgl\src\lv_draw/lv_draw_basic.c ****                         if(opa_result == LV_OPA_COVER)
 597:..\..\..\lvgl\version_6.1.2\lvgl\src\lv_draw/lv_draw_basic.c ****                             vdb_buf_tmp[col].full = recolored_px.full;
 598:..\..\..\lvgl\version_6.1.2\lvgl\src\lv_draw/lv_draw_basic.c ****                         else
 599:..\..\..\lvgl\version_6.1.2\lvgl\src\lv_draw/lv_draw_basic.c ****                             vdb_buf_tmp[col] = lv_color_mix(recolored_px, vdb_buf_tmp[col], opa_res
 600:..\..\..\lvgl\version_6.1.2\lvgl\src\lv_draw/lv_draw_basic.c ****                     }
 601:..\..\..\lvgl\version_6.1.2\lvgl\src\lv_draw/lv_draw_basic.c ****                 } else {
 602:..\..\..\lvgl\version_6.1.2\lvgl\src\lv_draw/lv_draw_basic.c ****                     /*Handle custom VDB write is present*/
 603:..\..\..\lvgl\version_6.1.2\lvgl\src\lv_draw/lv_draw_basic.c ****                     if(disp->driver.set_px_cb) {
 604:..\..\..\lvgl\version_6.1.2\lvgl\src\lv_draw/lv_draw_basic.c ****                         disp->driver.set_px_cb(&disp->driver, (uint8_t *)vdb->buf_act, vdb_width, c
 605:..\..\..\lvgl\version_6.1.2\lvgl\src\lv_draw/lv_draw_basic.c ****                                                row, px_color, opa_result);
 606:..\..\..\lvgl\version_6.1.2\lvgl\src\lv_draw/lv_draw_basic.c ****                     }
 607:..\..\..\lvgl\version_6.1.2\lvgl\src\lv_draw/lv_draw_basic.c ****                     /*Normal native VDB write*/
 608:..\..\..\lvgl\version_6.1.2\lvgl\src\lv_draw/lv_draw_basic.c ****                     else {
 609:..\..\..\lvgl\version_6.1.2\lvgl\src\lv_draw/lv_draw_basic.c **** 
 610:..\..\..\lvgl\version_6.1.2\lvgl\src\lv_draw/lv_draw_basic.c ****                         if(opa_result == LV_OPA_COVER)
 611:..\..\..\lvgl\version_6.1.2\lvgl\src\lv_draw/lv_draw_basic.c ****                             vdb_buf_tmp[col] = px_color;
 612:..\..\..\lvgl\version_6.1.2\lvgl\src\lv_draw/lv_draw_basic.c ****                         else {
 613:..\..\..\lvgl\version_6.1.2\lvgl\src\lv_draw/lv_draw_basic.c ****                             if(scr_transp == false) {
 614:..\..\..\lvgl\version_6.1.2\lvgl\src\lv_draw/lv_draw_basic.c ****                                 vdb_buf_tmp[col] = lv_color_mix(px_color, vdb_buf_tmp[col], opa_res
 615:..\..\..\lvgl\version_6.1.2\lvgl\src\lv_draw/lv_draw_basic.c ****                             } else {
 616:..\..\..\lvgl\version_6.1.2\lvgl\src\lv_draw/lv_draw_basic.c **** #if LV_COLOR_DEPTH == 32 && LV_COLOR_SCREEN_TRANSP
 617:..\..\..\lvgl\version_6.1.2\lvgl\src\lv_draw/lv_draw_basic.c ****                                 vdb_buf_tmp[col] = color_mix_2_alpha(vdb_buf_tmp[col], vdb_buf_tmp[
 618:..\..\..\lvgl\version_6.1.2\lvgl\src\lv_draw/lv_draw_basic.c ****                                                                      px_color, opa_result);
 619:..\..\..\lvgl\version_6.1.2\lvgl\src\lv_draw/lv_draw_basic.c **** #endif
 620:..\..\..\lvgl\version_6.1.2\lvgl\src\lv_draw/lv_draw_basic.c ****                             }
 621:..\..\..\lvgl\version_6.1.2\lvgl\src\lv_draw/lv_draw_basic.c ****                         }
 622:..\..\..\lvgl\version_6.1.2\lvgl\src\lv_draw/lv_draw_basic.c ****                     }
 623:..\..\..\lvgl\version_6.1.2\lvgl\src\lv_draw/lv_draw_basic.c ****                 }
 624:..\..\..\lvgl\version_6.1.2\lvgl\src\lv_draw/lv_draw_basic.c ****             }
 625:..\..\..\lvgl\version_6.1.2\lvgl\src\lv_draw/lv_draw_basic.c **** 
 626:..\..\..\lvgl\version_6.1.2\lvgl\src\lv_draw/lv_draw_basic.c ****             map_p += map_width * px_size_byte; /*Next row on the map*/
 627:..\..\..\lvgl\version_6.1.2\lvgl\src\lv_draw/lv_draw_basic.c ****             vdb_buf_tmp += vdb_width;          /*Next row on the VDB*/
 628:..\..\..\lvgl\version_6.1.2\lvgl\src\lv_draw/lv_draw_basic.c ****         }
 629:..\..\..\lvgl\version_6.1.2\lvgl\src\lv_draw/lv_draw_basic.c ****     }
 630:..\..\..\lvgl\version_6.1.2\lvgl\src\lv_draw/lv_draw_basic.c **** }
 631:..\..\..\lvgl\version_6.1.2\lvgl\src\lv_draw/lv_draw_basic.c **** 
 632:..\..\..\lvgl\version_6.1.2\lvgl\src\lv_draw/lv_draw_basic.c **** /**********************
 633:..\..\..\lvgl\version_6.1.2\lvgl\src\lv_draw/lv_draw_basic.c ****  *   STATIC FUNCTIONS
 634:..\..\..\lvgl\version_6.1.2\lvgl\src\lv_draw/lv_draw_basic.c ****  **********************/
 635:..\..\..\lvgl\version_6.1.2\lvgl\src\lv_draw/lv_draw_basic.c **** 
 636:..\..\..\lvgl\version_6.1.2\lvgl\src\lv_draw/lv_draw_basic.c **** /**
 637:..\..\..\lvgl\version_6.1.2\lvgl\src\lv_draw/lv_draw_basic.c ****  * Blend pixels to destination memory using opacity
 638:..\..\..\lvgl\version_6.1.2\lvgl\src\lv_draw/lv_draw_basic.c ****  * @param dest a memory address. Copy 'src' here.
 639:..\..\..\lvgl\version_6.1.2\lvgl\src\lv_draw/lv_draw_basic.c ****  * @param src pointer to pixel map. Copy it to 'dest'.
 640:..\..\..\lvgl\version_6.1.2\lvgl\src\lv_draw/lv_draw_basic.c ****  * @param length number of pixels in 'src'
 641:..\..\..\lvgl\version_6.1.2\lvgl\src\lv_draw/lv_draw_basic.c ****  * @param opa opacity (0, LV_OPA_TRANSP: transparent ... 255, LV_OPA_COVER, fully cover)
 642:..\..\..\lvgl\version_6.1.2\lvgl\src\lv_draw/lv_draw_basic.c ****  */
 643:..\..\..\lvgl\version_6.1.2\lvgl\src\lv_draw/lv_draw_basic.c **** static void sw_mem_blend(lv_color_t * dest, const lv_color_t * src, uint32_t length, lv_opa_t opa)
 644:..\..\..\lvgl\version_6.1.2\lvgl\src\lv_draw/lv_draw_basic.c **** {
 645:..\..\..\lvgl\version_6.1.2\lvgl\src\lv_draw/lv_draw_basic.c ****     if(opa == LV_OPA_COVER) {
 646:..\..\..\lvgl\version_6.1.2\lvgl\src\lv_draw/lv_draw_basic.c ****         memcpy(dest, src, length * sizeof(lv_color_t));
 647:..\..\..\lvgl\version_6.1.2\lvgl\src\lv_draw/lv_draw_basic.c ****     } else {
 648:..\..\..\lvgl\version_6.1.2\lvgl\src\lv_draw/lv_draw_basic.c ****         uint32_t col;
 649:..\..\..\lvgl\version_6.1.2\lvgl\src\lv_draw/lv_draw_basic.c ****         for(col = 0; col < length; col++) {
ARM GAS  C:\Users\pearlstl\AppData\Local\Temp\ccmYHcOW.s 			page 29


 650:..\..\..\lvgl\version_6.1.2\lvgl\src\lv_draw/lv_draw_basic.c ****             dest[col] = lv_color_mix(src[col], dest[col], opa);
 651:..\..\..\lvgl\version_6.1.2\lvgl\src\lv_draw/lv_draw_basic.c ****         }
 652:..\..\..\lvgl\version_6.1.2\lvgl\src\lv_draw/lv_draw_basic.c ****     }
 653:..\..\..\lvgl\version_6.1.2\lvgl\src\lv_draw/lv_draw_basic.c **** }
 654:..\..\..\lvgl\version_6.1.2\lvgl\src\lv_draw/lv_draw_basic.c **** 
 655:..\..\..\lvgl\version_6.1.2\lvgl\src\lv_draw/lv_draw_basic.c **** /**
 656:..\..\..\lvgl\version_6.1.2\lvgl\src\lv_draw/lv_draw_basic.c ****  * Fill an area with a color
 657:..\..\..\lvgl\version_6.1.2\lvgl\src\lv_draw/lv_draw_basic.c ****  * @param mem a memory address. Considered to a rectangular window according to 'mem_area'
 658:..\..\..\lvgl\version_6.1.2\lvgl\src\lv_draw/lv_draw_basic.c ****  * @param mem_width width of the 'mem' buffer
 659:..\..\..\lvgl\version_6.1.2\lvgl\src\lv_draw/lv_draw_basic.c ****  * @param fill_area coordinates of an area to fill. Relative to 'mem_area'.
 660:..\..\..\lvgl\version_6.1.2\lvgl\src\lv_draw/lv_draw_basic.c ****  * @param color fill color
 661:..\..\..\lvgl\version_6.1.2\lvgl\src\lv_draw/lv_draw_basic.c ****  * @param opa opacity (0, LV_OPA_TRANSP: transparent ... 255, LV_OPA_COVER, fully cover)
 662:..\..\..\lvgl\version_6.1.2\lvgl\src\lv_draw/lv_draw_basic.c ****  */
 663:..\..\..\lvgl\version_6.1.2\lvgl\src\lv_draw/lv_draw_basic.c **** static void sw_color_fill(lv_color_t * mem, lv_coord_t mem_width, const lv_area_t * fill_area, lv_c
 664:..\..\..\lvgl\version_6.1.2\lvgl\src\lv_draw/lv_draw_basic.c ****                           lv_opa_t opa)
 665:..\..\..\lvgl\version_6.1.2\lvgl\src\lv_draw/lv_draw_basic.c **** {
 666:..\..\..\lvgl\version_6.1.2\lvgl\src\lv_draw/lv_draw_basic.c ****     /*Set all row in vdb to the given color*/
 667:..\..\..\lvgl\version_6.1.2\lvgl\src\lv_draw/lv_draw_basic.c ****     lv_coord_t row;
 668:..\..\..\lvgl\version_6.1.2\lvgl\src\lv_draw/lv_draw_basic.c ****     lv_coord_t col;
 669:..\..\..\lvgl\version_6.1.2\lvgl\src\lv_draw/lv_draw_basic.c **** 
 670:..\..\..\lvgl\version_6.1.2\lvgl\src\lv_draw/lv_draw_basic.c ****     lv_disp_t * disp = lv_refr_get_disp_refreshing();
 382              		.loc 1 670 0
 383 0072 FFF7FEFF 		bl	lv_refr_get_disp_refreshing
 384              	.LVL39:
 385              	.LBE80:
 386              	.LBE79:
 146:..\..\..\lvgl\version_6.1.2\lvgl\src\lv_draw/lv_draw_basic.c ****     vdb_rel_a.x2 = res_a.x2 - vdb->area.x1;
 387              		.loc 1 146 0
 388 0076 A4B2     		uxth	r4, r4
 389 0078 22B2     		sxth	r2, r4
 390 007a 0992     		str	r2, [sp, #36]
 391              	.LBB94:
 392              	.LBB93:
 671:..\..\..\lvgl\version_6.1.2\lvgl\src\lv_draw/lv_draw_basic.c ****     if(disp->driver.set_px_cb) {
 393              		.loc 1 671 0
 394 007c 4369     		ldr	r3, [r0, #20]
 395 007e EAB2     		uxtb	r2, r5
 396 0080 0792     		str	r2, [sp, #28]
 397 0082 C5F30722 		ubfx	r2, r5, #8, #8
 670:..\..\..\lvgl\version_6.1.2\lvgl\src\lv_draw/lv_draw_basic.c ****     if(disp->driver.set_px_cb) {
 398              		.loc 1 670 0
 399 0086 0646     		mov	r6, r0
 400              	.LVL40:
 401 0088 0692     		str	r2, [sp, #24]
 402              	.LVL41:
 403 008a C5F3074A 		ubfx	r10, r5, #16, #8
 404              	.LVL42:
 405              		.loc 1 671 0
 406 008e 33B3     		cbz	r3, .L12
 407              	.LVL43:
 672:..\..\..\lvgl\version_6.1.2\lvgl\src\lv_draw/lv_draw_basic.c ****         for(col = fill_area->x1; col <= fill_area->x2; col++) {
 408              		.loc 1 672 0
 409 0090 B945     		cmp	r9, r7
 410 0092 C6DC     		bgt	.L9
 411 0094 CDF82080 		str	r8, [sp, #32]
 412 0098 DDF82C80 		ldr	r8, [sp, #44]
 413              	.LVL44:
ARM GAS  C:\Users\pearlstl\AppData\Local\Temp\ccmYHcOW.s 			page 30


 414              	.L16:
 673:..\..\..\lvgl\version_6.1.2\lvgl\src\lv_draw/lv_draw_basic.c ****             for(row = fill_area->y1; row <= fill_area->y2; row++) {
 415              		.loc 1 673 0
 416 009c 099C     		ldr	r4, [sp, #36]
 417 009e 5C45     		cmp	r4, fp
 418 00a0 15DC     		bgt	.L18
 419              	.LVL45:
 420              	.L15:
 674:..\..\..\lvgl\version_6.1.2\lvgl\src\lv_draw/lv_draw_basic.c ****                 disp->driver.set_px_cb(&disp->driver, (uint8_t *)mem, mem_width, col, row, color, o
 421              		.loc 1 674 0
 422 00a2 079B     		ldr	r3, [sp, #28]
 423 00a4 7769     		ldr	r7, [r6, #20]
 424              	.LVL46:
 425 00a6 0094     		str	r4, [sp]
 426 00a8 63F30705 		bfi	r5, r3, #0, #8
 427              	.LVL47:
 428 00ac 069B     		ldr	r3, [sp, #24]
 429 00ae 059A     		ldr	r2, [sp, #20]
 430 00b0 63F30F25 		bfi	r5, r3, #8, #8
 431 00b4 6AF31745 		bfi	r5, r10, #16, #8
 432 00b8 089B     		ldr	r3, [sp, #32]
 433 00ba 0293     		str	r3, [sp, #8]
 434 00bc 0134     		adds	r4, r4, #1
 435              	.LVL48:
 436 00be 0195     		str	r5, [sp, #4]
 437 00c0 4B46     		mov	r3, r9
 438 00c2 4146     		mov	r1, r8
 439 00c4 3046     		mov	r0, r6
 440 00c6 24B2     		sxth	r4, r4
 441 00c8 B847     		blx	r7
 442              	.LVL49:
 673:..\..\..\lvgl\version_6.1.2\lvgl\src\lv_draw/lv_draw_basic.c ****             for(row = fill_area->y1; row <= fill_area->y2; row++) {
 443              		.loc 1 673 0
 444 00ca A345     		cmp	fp, r4
 445 00cc E9DA     		bge	.L15
 446              	.LVL50:
 447              	.L18:
 448 00ce 09F10109 		add	r9, r9, #1
 449              	.LVL51:
 672:..\..\..\lvgl\version_6.1.2\lvgl\src\lv_draw/lv_draw_basic.c ****         for(col = fill_area->x1; col <= fill_area->x2; col++) {
 450              		.loc 1 672 0
 451 00d2 0A9B     		ldr	r3, [sp, #40]
 452 00d4 0FFA89F9 		sxth	r9, r9
 453              	.LVL52:
 454 00d8 4B45     		cmp	r3, r9
 455 00da DFDA     		bge	.L16
 456 00dc A1E7     		b	.L9
 457              	.LVL53:
 458              	.L12:
 675:..\..\..\lvgl\version_6.1.2\lvgl\src\lv_draw/lv_draw_basic.c ****             }
 676:..\..\..\lvgl\version_6.1.2\lvgl\src\lv_draw/lv_draw_basic.c ****         }
 677:..\..\..\lvgl\version_6.1.2\lvgl\src\lv_draw/lv_draw_basic.c ****     } else {
 678:..\..\..\lvgl\version_6.1.2\lvgl\src\lv_draw/lv_draw_basic.c ****         mem += fill_area->y1 * mem_width; /*Go to the first row*/
 459              		.loc 1 678 0
 460 00de 099B     		ldr	r3, [sp, #36]
 461 00e0 059A     		ldr	r2, [sp, #20]
 462 00e2 03FB02F6 		mul	r6, r3, r2
ARM GAS  C:\Users\pearlstl\AppData\Local\Temp\ccmYHcOW.s 			page 31


 463 00e6 0B9B     		ldr	r3, [sp, #44]
 679:..\..\..\lvgl\version_6.1.2\lvgl\src\lv_draw/lv_draw_basic.c **** 
 680:..\..\..\lvgl\version_6.1.2\lvgl\src\lv_draw/lv_draw_basic.c ****         /*Run simpler function without opacity*/
 681:..\..\..\lvgl\version_6.1.2\lvgl\src\lv_draw/lv_draw_basic.c ****         if(opa == LV_OPA_COVER) {
 464              		.loc 1 681 0
 465 00e8 B8F1FF0F 		cmp	r8, #255
 678:..\..\..\lvgl\version_6.1.2\lvgl\src\lv_draw/lv_draw_basic.c **** 
 466              		.loc 1 678 0
 467 00ec 03EB8606 		add	r6, r3, r6, lsl #2
 468              	.LVL54:
 469              		.loc 1 681 0
 470 00f0 63D0     		beq	.L45
 471              	.LVL55:
 472              	.LBB81:
 473              	.LBB82:
 474              	.LBB83:
 439:..\..\..\lvgl\version_6.1.2\lvgl\src\lv_draw\../lv_misc/lv_color.h ****     LV_COLOR_SET_B(ret, (uint16_t)((uint16_t) LV_COLOR_GET_B(c1) * mix + LV_COLOR_GET_B(c2) * (255 
 475              		.loc 3 439 0
 476 00f2 BDF81C10 		ldrh	r1, [sp, #28]
 438:..\..\..\lvgl\version_6.1.2\lvgl\src\lv_draw\../lv_misc/lv_color.h ****     LV_COLOR_SET_B(ret, (uint16_t)((uint16_t) LV_COLOR_GET_B(c1) * mix + LV_COLOR_GET_B(c2) * (255 
 477              		.loc 3 438 0
 478 00f6 BDF81830 		ldrh	r3, [sp, #24]
 437:..\..\..\lvgl\version_6.1.2\lvgl\src\lv_draw\../lv_misc/lv_color.h ****     LV_COLOR_SET_G(ret, (uint16_t)((uint16_t) LV_COLOR_GET_G(c1) * mix + LV_COLOR_GET_G(c2) * (255 
 479              		.loc 3 437 0
 480 00fa 1FFA88F2 		uxth	r2, r8
 481 00fe 1AFB02FA 		smulbb	r10, r10, r2
 438:..\..\..\lvgl\version_6.1.2\lvgl\src\lv_draw\../lv_misc/lv_color.h ****     LV_COLOR_SET_B(ret, (uint16_t)((uint16_t) LV_COLOR_GET_B(c1) * mix + LV_COLOR_GET_B(c2) * (255 
 482              		.loc 3 438 0
 483 0102 13FB02F3 		smulbb	r3, r3, r2
 484              		.loc 3 439 0
 485 0106 11FB02F2 		smulbb	r2, r1, r2
 437:..\..\..\lvgl\version_6.1.2\lvgl\src\lv_draw\../lv_misc/lv_color.h ****     LV_COLOR_SET_G(ret, (uint16_t)((uint16_t) LV_COLOR_GET_G(c1) * mix + LV_COLOR_GET_G(c2) * (255 
 486              		.loc 3 437 0
 487 010a 1FFA8AF0 		uxth	r0, r10
 488              	.LVL56:
 438:..\..\..\lvgl\version_6.1.2\lvgl\src\lv_draw\../lv_misc/lv_color.h ****     LV_COLOR_SET_B(ret, (uint16_t)((uint16_t) LV_COLOR_GET_B(c1) * mix + LV_COLOR_GET_B(c2) * (255 
 489              		.loc 3 438 0
 490 010e 1FFA83FA 		uxth	r10, r3
 491              		.loc 3 439 0
 492 0112 93B2     		uxth	r3, r2
 493              	.LBE83:
 494              	.LBE82:
 682:..\..\..\lvgl\version_6.1.2\lvgl\src\lv_draw/lv_draw_basic.c **** 
 683:..\..\..\lvgl\version_6.1.2\lvgl\src\lv_draw/lv_draw_basic.c ****             /*Fill the first row with 'color'*/
 684:..\..\..\lvgl\version_6.1.2\lvgl\src\lv_draw/lv_draw_basic.c ****             for(col = fill_area->x1; col <= fill_area->x2; col++) {
 685:..\..\..\lvgl\version_6.1.2\lvgl\src\lv_draw/lv_draw_basic.c ****                 mem[col] = color;
 686:..\..\..\lvgl\version_6.1.2\lvgl\src\lv_draw/lv_draw_basic.c ****             }
 687:..\..\..\lvgl\version_6.1.2\lvgl\src\lv_draw/lv_draw_basic.c **** 
 688:..\..\..\lvgl\version_6.1.2\lvgl\src\lv_draw/lv_draw_basic.c ****             /*Copy the first row to all other rows*/
 689:..\..\..\lvgl\version_6.1.2\lvgl\src\lv_draw/lv_draw_basic.c ****             lv_color_t * mem_first = &mem[fill_area->x1];
 690:..\..\..\lvgl\version_6.1.2\lvgl\src\lv_draw/lv_draw_basic.c ****             lv_coord_t copy_size   = (fill_area->x2 - fill_area->x1 + 1) * sizeof(lv_color_t);
 691:..\..\..\lvgl\version_6.1.2\lvgl\src\lv_draw/lv_draw_basic.c ****             mem += mem_width;
 692:..\..\..\lvgl\version_6.1.2\lvgl\src\lv_draw/lv_draw_basic.c **** 
 693:..\..\..\lvgl\version_6.1.2\lvgl\src\lv_draw/lv_draw_basic.c ****             for(row = fill_area->y1 + 1; row <= fill_area->y2; row++) {
 694:..\..\..\lvgl\version_6.1.2\lvgl\src\lv_draw/lv_draw_basic.c ****                 memcpy(&mem[fill_area->x1], mem_first, copy_size);
 695:..\..\..\lvgl\version_6.1.2\lvgl\src\lv_draw/lv_draw_basic.c ****                 mem += mem_width;
 696:..\..\..\lvgl\version_6.1.2\lvgl\src\lv_draw/lv_draw_basic.c ****             }
ARM GAS  C:\Users\pearlstl\AppData\Local\Temp\ccmYHcOW.s 			page 32


 697:..\..\..\lvgl\version_6.1.2\lvgl\src\lv_draw/lv_draw_basic.c ****         }
 698:..\..\..\lvgl\version_6.1.2\lvgl\src\lv_draw/lv_draw_basic.c ****         /*Calculate with alpha too*/
 699:..\..\..\lvgl\version_6.1.2\lvgl\src\lv_draw/lv_draw_basic.c ****         else {
 700:..\..\..\lvgl\version_6.1.2\lvgl\src\lv_draw/lv_draw_basic.c ****             bool scr_transp = false;
 701:..\..\..\lvgl\version_6.1.2\lvgl\src\lv_draw/lv_draw_basic.c **** #if LV_COLOR_DEPTH == 32 && LV_COLOR_SCREEN_TRANSP
 702:..\..\..\lvgl\version_6.1.2\lvgl\src\lv_draw/lv_draw_basic.c ****             scr_transp = disp->driver.screen_transp;
 703:..\..\..\lvgl\version_6.1.2\lvgl\src\lv_draw/lv_draw_basic.c **** #endif
 704:..\..\..\lvgl\version_6.1.2\lvgl\src\lv_draw/lv_draw_basic.c **** 
 705:..\..\..\lvgl\version_6.1.2\lvgl\src\lv_draw/lv_draw_basic.c ****             lv_color_t bg_tmp  = LV_COLOR_BLACK;
 495              		.loc 1 705 0
 496 0114 4FF07F42 		mov	r2, #-16777216
 497 0118 0D92     		str	r2, [sp, #52]
 498              	.LVL57:
 706:..\..\..\lvgl\version_6.1.2\lvgl\src\lv_draw/lv_draw_basic.c ****             lv_color_t opa_tmp = lv_color_mix(color, bg_tmp, opa);
 707:..\..\..\lvgl\version_6.1.2\lvgl\src\lv_draw/lv_draw_basic.c ****             for(row = fill_area->y1; row <= fill_area->y2; row++) {
 499              		.loc 1 707 0
 500 011a 099A     		ldr	r2, [sp, #36]
 501              	.LBB86:
 502              	.LBB84:
 503              		.loc 3 439 0
 504 011c 1946     		mov	r1, r3
 505              	.LBE84:
 506              	.LBE86:
 507              		.loc 1 707 0
 508 011e 5A45     		cmp	r2, fp
 509              	.LBB87:
 510              	.LBB85:
 437:..\..\..\lvgl\version_6.1.2\lvgl\src\lv_draw\../lv_misc/lv_color.h ****     LV_COLOR_SET_G(ret, (uint16_t)((uint16_t) LV_COLOR_GET_G(c1) * mix + LV_COLOR_GET_G(c2) * (255 
 511              		.loc 3 437 0
 512 0120 C8F1FF03 		rsb	r3, r8, #255
 513 0124 9BB2     		uxth	r3, r3
 514 0126 4FEA102E 		lsr	lr, r0, #8
 515              	.LVL58:
 438:..\..\..\lvgl\version_6.1.2\lvgl\src\lv_draw\../lv_misc/lv_color.h ****     LV_COLOR_SET_B(ret, (uint16_t)((uint16_t) LV_COLOR_GET_B(c1) * mix + LV_COLOR_GET_B(c2) * (255 
 516              		.loc 3 438 0
 517 012a 4FEA1A27 		lsr	r7, r10, #8
 518              	.LVL59:
 519              		.loc 3 439 0
 520 012e 4FEA1125 		lsr	r5, r1, #8
 521              	.LVL60:
 522              	.LBE85:
 523              	.LBE87:
 524              		.loc 1 707 0
 525 0132 3FF776AF 		bgt	.L9
 526 0136 059A     		ldr	r2, [sp, #20]
 527 0138 CDF81890 		str	r9, [sp, #24]
 528 013c 9200     		lsls	r2, r2, #2
 529 013e DDF82890 		ldr	r9, [sp, #40]
 530 0142 CDF820B0 		str	fp, [sp, #32]
 531 0146 0792     		str	r2, [sp, #28]
 532              	.LVL61:
 708:..\..\..\lvgl\version_6.1.2\lvgl\src\lv_draw/lv_draw_basic.c ****                 for(col = fill_area->x1; col <= fill_area->x2; col++) {
 709:..\..\..\lvgl\version_6.1.2\lvgl\src\lv_draw/lv_draw_basic.c ****                     if(scr_transp == false) {
 710:..\..\..\lvgl\version_6.1.2\lvgl\src\lv_draw/lv_draw_basic.c ****                         /*If the bg color changed recalculate the result color*/
 711:..\..\..\lvgl\version_6.1.2\lvgl\src\lv_draw/lv_draw_basic.c ****                         if(mem[col].full != bg_tmp.full) {
 712:..\..\..\lvgl\version_6.1.2\lvgl\src\lv_draw/lv_draw_basic.c ****                             bg_tmp  = mem[col];
 713:..\..\..\lvgl\version_6.1.2\lvgl\src\lv_draw/lv_draw_basic.c ****                             opa_tmp = lv_color_mix(color, bg_tmp, opa);
ARM GAS  C:\Users\pearlstl\AppData\Local\Temp\ccmYHcOW.s 			page 33


 714:..\..\..\lvgl\version_6.1.2\lvgl\src\lv_draw/lv_draw_basic.c ****                         }
 715:..\..\..\lvgl\version_6.1.2\lvgl\src\lv_draw/lv_draw_basic.c **** 
 716:..\..\..\lvgl\version_6.1.2\lvgl\src\lv_draw/lv_draw_basic.c ****                         mem[col] = opa_tmp;
 533              		.loc 1 716 0
 534 0148 4FF0FF08 		mov	r8, #255
 535 014c 8B46     		mov	fp, r1
 536              	.LVL62:
 537              	.L26:
 708:..\..\..\lvgl\version_6.1.2\lvgl\src\lv_draw/lv_draw_basic.c ****                 for(col = fill_area->x1; col <= fill_area->x2; col++) {
 538              		.loc 1 708 0
 539 014e 069A     		ldr	r2, [sp, #24]
 540 0150 4A45     		cmp	r2, r9
 541 0152 D8BF     		it	le
 542 0154 0590     		strle	r0, [sp, #20]
 543 0156 26DC     		bgt	.L30
 544              	.LVL63:
 545              	.L28:
 711:..\..\..\lvgl\version_6.1.2\lvgl\src\lv_draw/lv_draw_basic.c ****                             bg_tmp  = mem[col];
 546              		.loc 1 711 0
 547 0158 56F82200 		ldr	r0, [r6, r2, lsl #2]
 548 015c 0D9C     		ldr	r4, [sp, #52]
 549 015e 02F1010C 		add	ip, r2, #1
 550 0162 A042     		cmp	r0, r4
 551 0164 06EB8201 		add	r1, r6, r2, lsl #2
 552 0168 0FFA8CF2 		sxth	r2, ip
 553              	.LVL64:
 554 016c 12D0     		beq	.L27
 555              	.LBB88:
 556              	.LBB89:
 437:..\..\..\lvgl\version_6.1.2\lvgl\src\lv_draw\../lv_misc/lv_color.h ****     LV_COLOR_SET_G(ret, (uint16_t)((uint16_t) LV_COLOR_GET_G(c1) * mix + LV_COLOR_GET_G(c2) * (255 
 557              		.loc 3 437 0
 558 016e 059C     		ldr	r4, [sp, #20]
 559              	.LBE89:
 560              	.LBE88:
 712:..\..\..\lvgl\version_6.1.2\lvgl\src\lv_draw/lv_draw_basic.c ****                             opa_tmp = lv_color_mix(color, bg_tmp, opa);
 561              		.loc 1 712 0
 562 0170 0D90     		str	r0, [sp, #52]
 563              	.LVL65:
 564              	.LBB91:
 565              	.LBB90:
 437:..\..\..\lvgl\version_6.1.2\lvgl\src\lv_draw\../lv_misc/lv_color.h ****     LV_COLOR_SET_G(ret, (uint16_t)((uint16_t) LV_COLOR_GET_G(c1) * mix + LV_COLOR_GET_G(c2) * (255 
 566              		.loc 3 437 0
 567 0172 C0F3074E 		ubfx	lr, r0, #16, #8
 568              	.LVL66:
 438:..\..\..\lvgl\version_6.1.2\lvgl\src\lv_draw\../lv_misc/lv_color.h ****     LV_COLOR_SET_B(ret, (uint16_t)((uint16_t) LV_COLOR_GET_B(c1) * mix + LV_COLOR_GET_B(c2) * (255 
 569              		.loc 3 438 0
 570 0176 C0F30727 		ubfx	r7, r0, #8, #8
 571              	.LVL67:
 572              		.loc 3 439 0
 573 017a C5B2     		uxtb	r5, r0
 574              	.LVL68:
 437:..\..\..\lvgl\version_6.1.2\lvgl\src\lv_draw\../lv_misc/lv_color.h ****     LV_COLOR_SET_G(ret, (uint16_t)((uint16_t) LV_COLOR_GET_G(c1) * mix + LV_COLOR_GET_G(c2) * (255 
 575              		.loc 3 437 0
 576 017c 03FB0E4E 		mla	lr, r3, lr, r4
 438:..\..\..\lvgl\version_6.1.2\lvgl\src\lv_draw\../lv_misc/lv_color.h ****     LV_COLOR_SET_B(ret, (uint16_t)((uint16_t) LV_COLOR_GET_B(c1) * mix + LV_COLOR_GET_B(c2) * (255 
 577              		.loc 3 438 0
 578 0180 03FB07A7 		mla	r7, r3, r7, r10
ARM GAS  C:\Users\pearlstl\AppData\Local\Temp\ccmYHcOW.s 			page 34


 579              		.loc 3 439 0
 580 0184 03FB05B5 		mla	r5, r3, r5, fp
 437:..\..\..\lvgl\version_6.1.2\lvgl\src\lv_draw\../lv_misc/lv_color.h ****     LV_COLOR_SET_G(ret, (uint16_t)((uint16_t) LV_COLOR_GET_G(c1) * mix + LV_COLOR_GET_G(c2) * (255 
 581              		.loc 3 437 0
 582 0188 CEF3072E 		ubfx	lr, lr, #8, #8
 583              	.LVL69:
 438:..\..\..\lvgl\version_6.1.2\lvgl\src\lv_draw\../lv_misc/lv_color.h ****     LV_COLOR_SET_B(ret, (uint16_t)((uint16_t) LV_COLOR_GET_B(c1) * mix + LV_COLOR_GET_B(c2) * (255 
 584              		.loc 3 438 0
 585 018c C7F30727 		ubfx	r7, r7, #8, #8
 586              	.LVL70:
 587              		.loc 3 439 0
 588 0190 C5F30725 		ubfx	r5, r5, #8, #8
 589              	.LVL71:
 590              	.L27:
 591              	.LBE90:
 592              	.LBE91:
 708:..\..\..\lvgl\version_6.1.2\lvgl\src\lv_draw/lv_draw_basic.c ****                     if(scr_transp == false) {
 593              		.loc 1 708 0
 594 0194 9145     		cmp	r9, r2
 595              		.loc 1 716 0
 596 0196 0D70     		strb	r5, [r1]
 597 0198 4F70     		strb	r7, [r1, #1]
 598 019a 81F802E0 		strb	lr, [r1, #2]
 599 019e 81F80380 		strb	r8, [r1, #3]
 708:..\..\..\lvgl\version_6.1.2\lvgl\src\lv_draw/lv_draw_basic.c ****                     if(scr_transp == false) {
 600              		.loc 1 708 0
 601 01a2 D9DA     		bge	.L28
 602 01a4 0598     		ldr	r0, [sp, #20]
 603              	.LVL72:
 604              	.L30:
 605 01a6 099A     		ldr	r2, [sp, #36]
 717:..\..\..\lvgl\version_6.1.2\lvgl\src\lv_draw/lv_draw_basic.c **** 
 718:..\..\..\lvgl\version_6.1.2\lvgl\src\lv_draw/lv_draw_basic.c ****                     } else {
 719:..\..\..\lvgl\version_6.1.2\lvgl\src\lv_draw/lv_draw_basic.c **** #if LV_COLOR_DEPTH == 32 && LV_COLOR_SCREEN_TRANSP
 720:..\..\..\lvgl\version_6.1.2\lvgl\src\lv_draw/lv_draw_basic.c ****                         mem[col] = color_mix_2_alpha(mem[col], mem[col].ch.alpha, color, opa);
 721:..\..\..\lvgl\version_6.1.2\lvgl\src\lv_draw/lv_draw_basic.c **** #endif
 722:..\..\..\lvgl\version_6.1.2\lvgl\src\lv_draw/lv_draw_basic.c ****                     }
 723:..\..\..\lvgl\version_6.1.2\lvgl\src\lv_draw/lv_draw_basic.c ****                 }
 724:..\..\..\lvgl\version_6.1.2\lvgl\src\lv_draw/lv_draw_basic.c ****                 mem += mem_width;
 606              		.loc 1 724 0
 607 01a8 0799     		ldr	r1, [sp, #28]
 608 01aa 0132     		adds	r2, r2, #1
 609 01ac 0E44     		add	r6, r6, r1
 610              	.LVL73:
 707:..\..\..\lvgl\version_6.1.2\lvgl\src\lv_draw/lv_draw_basic.c ****                 for(col = fill_area->x1; col <= fill_area->x2; col++) {
 611              		.loc 1 707 0
 612 01ae 0899     		ldr	r1, [sp, #32]
 613 01b0 12B2     		sxth	r2, r2
 614              	.LVL74:
 615 01b2 9142     		cmp	r1, r2
 616 01b4 0992     		str	r2, [sp, #36]
 617 01b6 CADA     		bge	.L26
 618 01b8 33E7     		b	.L9
 619              	.LVL75:
 620              	.L45:
 621              	.LBE81:
 622              	.LBB92:
ARM GAS  C:\Users\pearlstl\AppData\Local\Temp\ccmYHcOW.s 			page 35


 684:..\..\..\lvgl\version_6.1.2\lvgl\src\lv_draw/lv_draw_basic.c ****                 mem[col] = color;
 623              		.loc 1 684 0
 624 01ba 0A9B     		ldr	r3, [sp, #40]
 625 01bc 9945     		cmp	r9, r3
 626 01be 11DC     		bgt	.L23
 627 01c0 0698     		ldr	r0, [sp, #24]
 628              	.LVL76:
 629 01c2 079F     		ldr	r7, [sp, #28]
 630 01c4 1946     		mov	r1, r3
 631 01c6 4B46     		mov	r3, r9
 632              	.LVL77:
 633              	.L22:
 685:..\..\..\lvgl\version_6.1.2\lvgl\src\lv_draw/lv_draw_basic.c ****             }
 634              		.loc 1 685 0
 635 01c8 67F30705 		bfi	r5, r7, #0, #8
 636              	.LVL78:
 637 01cc 60F30F25 		bfi	r5, r0, #8, #8
 638 01d0 6AF31745 		bfi	r5, r10, #16, #8
 639 01d4 5A1C     		adds	r2, r3, #1
 640 01d6 46F82350 		str	r5, [r6, r3, lsl #2]
 641 01da 13B2     		sxth	r3, r2
 642              	.LVL79:
 684:..\..\..\lvgl\version_6.1.2\lvgl\src\lv_draw/lv_draw_basic.c ****                 mem[col] = color;
 643              		.loc 1 684 0
 644 01dc 9942     		cmp	r1, r3
 645 01de F3DA     		bge	.L22
 646 01e0 0A9B     		ldr	r3, [sp, #40]
 647              	.LVL80:
 648 01e2 059A     		ldr	r2, [sp, #20]
 649              	.LVL81:
 650              	.L23:
 690:..\..\..\lvgl\version_6.1.2\lvgl\src\lv_draw/lv_draw_basic.c ****             mem += mem_width;
 651              		.loc 1 690 0
 652 01e4 C9EB0305 		rsb	r5, r9, r3
 653              	.LVL82:
 693:..\..\..\lvgl\version_6.1.2\lvgl\src\lv_draw/lv_draw_basic.c ****                 memcpy(&mem[fill_area->x1], mem_first, copy_size);
 654              		.loc 1 693 0
 655 01e8 0134     		adds	r4, r4, #1
 690:..\..\..\lvgl\version_6.1.2\lvgl\src\lv_draw/lv_draw_basic.c ****             mem += mem_width;
 656              		.loc 1 690 0
 657 01ea 0135     		adds	r5, r5, #1
 693:..\..\..\lvgl\version_6.1.2\lvgl\src\lv_draw/lv_draw_basic.c ****                 memcpy(&mem[fill_area->x1], mem_first, copy_size);
 658              		.loc 1 693 0
 659 01ec 24B2     		sxth	r4, r4
 690:..\..\..\lvgl\version_6.1.2\lvgl\src\lv_draw/lv_draw_basic.c ****             mem += mem_width;
 660              		.loc 1 690 0
 661 01ee AD00     		lsls	r5, r5, #2
 689:..\..\..\lvgl\version_6.1.2\lvgl\src\lv_draw/lv_draw_basic.c ****             lv_coord_t copy_size   = (fill_area->x2 - fill_area->x1 + 1) * sizeof(lv_color_t);
 662              		.loc 1 689 0
 663 01f0 4FEA8903 		lsl	r3, r9, #2
 693:..\..\..\lvgl\version_6.1.2\lvgl\src\lv_draw/lv_draw_basic.c ****                 memcpy(&mem[fill_area->x1], mem_first, copy_size);
 664              		.loc 1 693 0
 665 01f4 A345     		cmp	fp, r4
 690:..\..\..\lvgl\version_6.1.2\lvgl\src\lv_draw/lv_draw_basic.c ****             mem += mem_width;
 666              		.loc 1 690 0
 667 01f6 2DB2     		sxth	r5, r5
 691:..\..\..\lvgl\version_6.1.2\lvgl\src\lv_draw/lv_draw_basic.c **** 
ARM GAS  C:\Users\pearlstl\AppData\Local\Temp\ccmYHcOW.s 			page 36


 668              		.loc 1 691 0
 669 01f8 4FEA8207 		lsl	r7, r2, #2
 689:..\..\..\lvgl\version_6.1.2\lvgl\src\lv_draw/lv_draw_basic.c ****             lv_coord_t copy_size   = (fill_area->x2 - fill_area->x1 + 1) * sizeof(lv_color_t);
 670              		.loc 1 689 0
 671 01fc 06EB0308 		add	r8, r6, r3
 672              	.LVL83:
 693:..\..\..\lvgl\version_6.1.2\lvgl\src\lv_draw/lv_draw_basic.c ****                 memcpy(&mem[fill_area->x1], mem_first, copy_size);
 673              		.loc 1 693 0
 674 0200 FFF60FAF 		blt	.L9
 675 0204 3B44     		add	r3, r3, r7
 676 0206 1E44     		add	r6, r6, r3
 677              	.LVL84:
 678              	.L24:
 679 0208 0134     		adds	r4, r4, #1
 680              	.LVL85:
 694:..\..\..\lvgl\version_6.1.2\lvgl\src\lv_draw/lv_draw_basic.c ****                 mem += mem_width;
 681              		.loc 1 694 0
 682 020a 3046     		mov	r0, r6
 683 020c 2A46     		mov	r2, r5
 684 020e 4146     		mov	r1, r8
 685 0210 24B2     		sxth	r4, r4
 686 0212 FFF7FEFF 		bl	memcpy
 687              	.LVL86:
 693:..\..\..\lvgl\version_6.1.2\lvgl\src\lv_draw/lv_draw_basic.c ****                 memcpy(&mem[fill_area->x1], mem_first, copy_size);
 688              		.loc 1 693 0
 689 0216 A345     		cmp	fp, r4
 690 0218 3E44     		add	r6, r6, r7
 691              	.LVL87:
 692 021a F5DA     		bge	.L24
 693 021c 01E7     		b	.L9
 694              	.LBE92:
 695              	.LBE93:
 696              	.LBE94:
 697              		.cfi_endproc
 698              	.LFE32:
 699              		.size	lv_draw_fill, .-lv_draw_fill
 700 021e 00BF     		.section	.text.lv_draw_letter,"ax",%progbits
 701              		.align	2
 702              		.global	lv_draw_letter
 703              		.thumb
 704              		.thumb_func
 705              		.type	lv_draw_letter, %function
 706              	lv_draw_letter:
 707              	.LFB33:
 235:..\..\..\lvgl\version_6.1.2\lvgl\src\lv_draw/lv_draw_basic.c ****     /*clang-format off*/
 708              		.loc 1 235 0
 709              		.cfi_startproc
 710              		@ args = 8, pretend = 0, frame = 136
 711              		@ frame_needed = 0, uses_anonymous_args = 0
 712              	.LVL88:
 713 0000 2DE9F04F 		push	{r4, r5, r6, r7, r8, r9, r10, fp, lr}
 714              		.cfi_def_cfa_offset 36
 715              		.cfi_offset 4, -36
 716              		.cfi_offset 5, -32
 717              		.cfi_offset 6, -28
 718              		.cfi_offset 7, -24
 719              		.cfi_offset 8, -20
ARM GAS  C:\Users\pearlstl\AppData\Local\Temp\ccmYHcOW.s 			page 37


 720              		.cfi_offset 9, -16
 721              		.cfi_offset 10, -12
 722              		.cfi_offset 11, -8
 723              		.cfi_offset 14, -4
 238:..\..\..\lvgl\version_6.1.2\lvgl\src\lv_draw/lv_draw_basic.c ****     const uint8_t bpp4_opa_table[16] = {0,  17, 34,  51,  /*Opacity mapping with bpp = 4*/
 724              		.loc 1 238 0
 725 0004 A44D     		ldr	r5, .L136
 235:..\..\..\lvgl\version_6.1.2\lvgl\src\lv_draw/lv_draw_basic.c ****     /*clang-format off*/
 726              		.loc 1 235 0
 727 0006 A7B0     		sub	sp, sp, #156
 728              		.cfi_def_cfa_offset 192
 239:..\..\..\lvgl\version_6.1.2\lvgl\src\lv_draw/lv_draw_basic.c ****                                         68, 85, 102, 119, 136, 153, 170, 187, 204, 221, 238, 255};
 729              		.loc 1 239 0
 730 0008 2F46     		mov	r7, r5
 235:..\..\..\lvgl\version_6.1.2\lvgl\src\lv_draw/lv_draw_basic.c ****     /*clang-format off*/
 731              		.loc 1 235 0
 732 000a 8646     		mov	lr, r0
 238:..\..\..\lvgl\version_6.1.2\lvgl\src\lv_draw/lv_draw_basic.c ****     const uint8_t bpp4_opa_table[16] = {0,  17, 34,  51,  /*Opacity mapping with bpp = 4*/
 733              		.loc 1 238 0
 734 000c 2868     		ldr	r0, [r5]	@ unaligned
 735              	.LVL89:
 736 000e 1F90     		str	r0, [sp, #124]	@ unaligned
 239:..\..\..\lvgl\version_6.1.2\lvgl\src\lv_draw/lv_draw_basic.c ****                                         68, 85, 102, 119, 136, 153, 170, 187, 204, 221, 238, 255};
 737              		.loc 1 239 0
 738 0010 57F8040F 		ldr	r0, [r7, #4]!	@ unaligned
 235:..\..\..\lvgl\version_6.1.2\lvgl\src\lv_draw/lv_draw_basic.c ****     /*clang-format off*/
 739              		.loc 1 235 0
 740 0014 9DF8C440 		ldrb	r4, [sp, #196]	@ zero_extendqisi2
 741 0018 8C46     		mov	ip, r1
 742 001a 1546     		mov	r5, r2
 239:..\..\..\lvgl\version_6.1.2\lvgl\src\lv_draw/lv_draw_basic.c ****                                         68, 85, 102, 119, 136, 153, 170, 187, 204, 221, 238, 255};
 743              		.loc 1 239 0
 744 001c 7968     		ldr	r1, [r7, #4]	@ unaligned
 745              	.LVL90:
 746 001e BA68     		ldr	r2, [r7, #8]	@ unaligned
 747              	.LVL91:
 235:..\..\..\lvgl\version_6.1.2\lvgl\src\lv_draw/lv_draw_basic.c ****     /*clang-format off*/
 748              		.loc 1 235 0
 749 0020 1E46     		mov	r6, r3
 239:..\..\..\lvgl\version_6.1.2\lvgl\src\lv_draw/lv_draw_basic.c ****                                         68, 85, 102, 119, 136, 153, 170, 187, 204, 221, 238, 255};
 750              		.loc 1 239 0
 751 0022 FB68     		ldr	r3, [r7, #12]	@ unaligned
 752              	.LVL92:
 753 0024 22AF     		add	r7, sp, #136
 754 0026 0FC7     		stmia	r7!, {r0, r1, r2, r3}
 243:..\..\..\lvgl\version_6.1.2\lvgl\src\lv_draw/lv_draw_basic.c ****     if(opa > LV_OPA_MAX) opa = LV_OPA_COVER;
 755              		.loc 1 243 0
 756 0028 0F2C     		cmp	r4, #15
 237:..\..\..\lvgl\version_6.1.2\lvgl\src\lv_draw/lv_draw_basic.c ****     const uint8_t bpp2_opa_table[4]  = {0, 85, 170, 255}; /*Opacity mapping with bpp = 2*/
 757              		.loc 1 237 0
 758 002a 4FF00003 		mov	r3, #0
 759 002e 4FF0FF02 		mov	r2, #255
 760 0032 8DF87430 		strb	r3, [sp, #116]
 761 0036 8DF87520 		strb	r2, [sp, #117]
 243:..\..\..\lvgl\version_6.1.2\lvgl\src\lv_draw/lv_draw_basic.c ****     if(opa > LV_OPA_MAX) opa = LV_OPA_COVER;
 762              		.loc 1 243 0
 763 003a 4DD9     		bls	.L46
ARM GAS  C:\Users\pearlstl\AppData\Local\Temp\ccmYHcOW.s 			page 38


 244:..\..\..\lvgl\version_6.1.2\lvgl\src\lv_draw/lv_draw_basic.c **** 
 764              		.loc 1 244 0
 765 003c FC2C     		cmp	r4, #252
 766 003e 28BF     		it	cs
 767 0040 1446     		movcs	r4, r2
 768              	.LVL93:
 246:..\..\..\lvgl\version_6.1.2\lvgl\src\lv_draw/lv_draw_basic.c ****         LV_LOG_WARN("Font: character's bitmap not found");
 769              		.loc 1 246 0
 770 0042 002D     		cmp	r5, #0
 771 0044 48D0     		beq	.L46
 252:..\..\..\lvgl\version_6.1.2\lvgl\src\lv_draw/lv_draw_basic.c ****     if(g_ret == false) return;
 772              		.loc 1 252 0
 773 0046 3246     		mov	r2, r6
 774 0048 20A9     		add	r1, sp, #128
 775 004a 2846     		mov	r0, r5
 776 004c E246     		mov	r10, ip
 777 004e 7746     		mov	r7, lr
 778 0050 FFF7FEFF 		bl	lv_font_get_glyph_dsc
 779              	.LVL94:
 253:..\..\..\lvgl\version_6.1.2\lvgl\src\lv_draw/lv_draw_basic.c **** 
 780              		.loc 1 253 0
 781 0054 0028     		cmp	r0, #0
 782 0056 3FD0     		beq	.L46
 257:..\..\..\lvgl\version_6.1.2\lvgl\src\lv_draw/lv_draw_basic.c **** 
 783              		.loc 1 257 0
 784 0058 B7F90230 		ldrsh	r3, [r7, #2]
 264:..\..\..\lvgl\version_6.1.2\lvgl\src\lv_draw/lv_draw_basic.c **** 
 785              		.loc 1 264 0
 786 005c 9DF88610 		ldrb	r1, [sp, #134]	@ zero_extendqisi2
 257:..\..\..\lvgl\version_6.1.2\lvgl\src\lv_draw/lv_draw_basic.c **** 
 787              		.loc 1 257 0
 788 0060 0593     		str	r3, [sp, #20]
 789 0062 2B7A     		ldrb	r3, [r5, #8]	@ zero_extendqisi2
 790 0064 0693     		str	r3, [sp, #24]
 264:..\..\..\lvgl\version_6.1.2\lvgl\src\lv_draw/lv_draw_basic.c **** 
 791              		.loc 1 264 0
 792 0066 0329     		cmp	r1, #3
 257:..\..\..\lvgl\version_6.1.2\lvgl\src\lv_draw/lv_draw_basic.c **** 
 793              		.loc 1 257 0
 794 0068 95F90930 		ldrsb	r3, [r5, #9]
 256:..\..\..\lvgl\version_6.1.2\lvgl\src\lv_draw/lv_draw_basic.c ****     lv_coord_t pos_y = pos_p->y + (font_p->line_height - font_p->base_line) - g.box_h - g.ofs_y;
 795              		.loc 1 256 0
 796 006c B7F90080 		ldrsh	r8, [r7]
 257:..\..\..\lvgl\version_6.1.2\lvgl\src\lv_draw/lv_draw_basic.c **** 
 797              		.loc 1 257 0
 798 0070 0793     		str	r3, [sp, #28]
 256:..\..\..\lvgl\version_6.1.2\lvgl\src\lv_draw/lv_draw_basic.c ****     lv_coord_t pos_y = pos_p->y + (font_p->line_height - font_p->base_line) - g.box_h - g.ofs_y;
 799              		.loc 1 256 0
 800 0072 9DF98470 		ldrsb	r7, [sp, #132]
 801              	.LVL95:
 257:..\..\..\lvgl\version_6.1.2\lvgl\src\lv_draw/lv_draw_basic.c **** 
 802              		.loc 1 257 0
 803 0076 9DF883B0 		ldrb	fp, [sp, #131]	@ zero_extendqisi2
 804 007a 9DF98590 		ldrsb	r9, [sp, #133]
 805              	.LVL96:
 264:..\..\..\lvgl\version_6.1.2\lvgl\src\lv_draw/lv_draw_basic.c **** 
 806              		.loc 1 264 0
ARM GAS  C:\Users\pearlstl\AppData\Local\Temp\ccmYHcOW.s 			page 39


 807 007e 00F0BC81 		beq	.L131
 266:..\..\..\lvgl\version_6.1.2\lvgl\src\lv_draw/lv_draw_basic.c ****         case 1:
 808              		.loc 1 266 0
 809 0082 0139     		subs	r1, r1, #1
 810 0084 0729     		cmp	r1, #7
 811 0086 27D8     		bhi	.L46
 812 0088 DFE811F0 		tbh	[pc, r1, lsl #1]
 813              	.L53:
 814 008c 7C01     		.2byte	(.L52-.L53)/2
 815 008e 2900     		.2byte	(.L100-.L53)/2
 816 0090 2600     		.2byte	(.L46-.L53)/2
 817 0092 BA01     		.2byte	(.L50-.L53)/2
 818 0094 2600     		.2byte	(.L46-.L53)/2
 819 0096 2600     		.2byte	(.L46-.L53)/2
 820 0098 2600     		.2byte	(.L46-.L53)/2
 821 009a 7601     		.2byte	(.L55-.L53)/2
 822              	.LVL97:
 823              		.p2align 1
 824              	.L133:
 825 009c 9DF882E0 		ldrb	lr, [sp, #130]	@ zero_extendqisi2
 826 00a0 1746     		mov	r7, r2
 827              	.LVL98:
 828              	.L74:
 829              	.LBB95:
 440:..\..\..\lvgl\version_6.1.2\lvgl\src\lv_draw/lv_draw_basic.c **** 
 830              		.loc 1 440 0
 831 00a2 1599     		ldr	r1, [sp, #84]
 832 00a4 C7EB0E02 		rsb	r2, r7, lr
 833 00a8 0A44     		add	r2, r2, r1
 834 00aa 12FB03F2 		smulbb	r2, r2, r3
 835 00ae 9244     		add	r10, r10, r2
 836              	.LVL99:
 446:..\..\..\lvgl\version_6.1.2\lvgl\src\lv_draw/lv_draw_basic.c ****         else vdb_buf_tmp += vdb_width - (col_end - col_start);
 837              		.loc 1 446 0
 838 00b0 069A     		ldr	r2, [sp, #24]
 440:..\..\..\lvgl\version_6.1.2\lvgl\src\lv_draw/lv_draw_basic.c **** 
 839              		.loc 1 440 0
 840 00b2 1FFA8AFA 		uxth	r10, r10
 841              	.LVL100:
 442:..\..\..\lvgl\version_6.1.2\lvgl\src\lv_draw/lv_draw_basic.c ****         col_bit = col_bit & 0x7;
 842              		.loc 1 442 0
 843 00b6 09EBDA09 		add	r9, r9, r10, lsr #3
 844              	.LVL101:
 443:..\..\..\lvgl\version_6.1.2\lvgl\src\lv_draw/lv_draw_basic.c **** 
 845              		.loc 1 443 0
 846 00ba 0AF0070A 		and	r10, r10, #7
 847              	.LVL102:
 446:..\..\..\lvgl\version_6.1.2\lvgl\src\lv_draw/lv_draw_basic.c ****         else vdb_buf_tmp += vdb_width - (col_end - col_start);
 848              		.loc 1 446 0
 849 00be 002A     		cmp	r2, #0
 850 00c0 00F0BC81 		beq	.L95
 446:..\..\..\lvgl\version_6.1.2\lvgl\src\lv_draw/lv_draw_basic.c ****         else vdb_buf_tmp += vdb_width - (col_end - col_start);
 851              		.loc 1 446 0 is_stmt 0 discriminator 1
 852 00c4 1A9A     		ldr	r2, [sp, #104]
 853 00c6 9044     		add	r8, r8, r2
 854              	.LVL103:
 855              	.L96:
ARM GAS  C:\Users\pearlstl\AppData\Local\Temp\ccmYHcOW.s 			page 40


 856 00c8 0D9A     		ldr	r2, [sp, #52]
 857              	.LBE95:
 348:..\..\..\lvgl\version_6.1.2\lvgl\src\lv_draw/lv_draw_basic.c ****         bitmask = bitmask_init >> col_bit;
 858              		.loc 1 348 0 is_stmt 1 discriminator 2
 859 00ca 1699     		ldr	r1, [sp, #88]
 860 00cc 0132     		adds	r2, r2, #1
 861 00ce 12B2     		sxth	r2, r2
 862 00d0 9142     		cmp	r1, r2
 863 00d2 0D92     		str	r2, [sp, #52]
 864              	.LVL104:
 865 00d4 00F3C980 		bgt	.L97
 866              	.LVL105:
 867              	.L46:
 449:..\..\..\lvgl\version_6.1.2\lvgl\src\lv_draw/lv_draw_basic.c **** 
 868              		.loc 1 449 0
 869 00d8 27B0     		add	sp, sp, #156
 870              		.cfi_remember_state
 871              		.cfi_def_cfa_offset 36
 872              		@ sp needed
 873 00da BDE8F08F 		pop	{r4, r5, r6, r7, r8, r9, r10, fp, pc}
 874              	.LVL106:
 875              	.L100:
 876              		.cfi_restore_state
 266:..\..\..\lvgl\version_6.1.2\lvgl\src\lv_draw/lv_draw_basic.c ****         case 1:
 877              		.loc 1 266 0
 878 00de C023     		movs	r3, #192
 879 00e0 0C93     		str	r3, [sp, #48]
 273:..\..\..\lvgl\version_6.1.2\lvgl\src\lv_draw/lv_draw_basic.c ****             break;
 880              		.loc 1 273 0
 881 00e2 0893     		str	r3, [sp, #32]
 272:..\..\..\lvgl\version_6.1.2\lvgl\src\lv_draw/lv_draw_basic.c ****             bitmask_init  = 0xC0;
 882              		.loc 1 272 0
 883 00e4 1FAB     		add	r3, sp, #124
 884 00e6 0993     		str	r3, [sp, #36]
 885              	.L54:
 886              	.LVL107:
 286:..\..\..\lvgl\version_6.1.2\lvgl\src\lv_draw/lv_draw_basic.c **** 
 887              		.loc 1 286 0
 888 00e8 3146     		mov	r1, r6
 889 00ea 2846     		mov	r0, r5
 890              	.LVL108:
 891 00ec FFF7FEFF 		bl	lv_font_get_glyph_bitmap
 892              	.LVL109:
 288:..\..\..\lvgl\version_6.1.2\lvgl\src\lv_draw/lv_draw_basic.c **** 
 893              		.loc 1 288 0
 894 00f0 0646     		mov	r6, r0
 895              	.LVL110:
 896 00f2 0028     		cmp	r0, #0
 897 00f4 F0D0     		beq	.L46
 256:..\..\..\lvgl\version_6.1.2\lvgl\src\lv_draw/lv_draw_basic.c ****     lv_coord_t pos_y = pos_p->y + (font_p->line_height - font_p->base_line) - g.box_h - g.ofs_y;
 898              		.loc 1 256 0
 899 00f6 08EB0703 		add	r3, r8, r7
 900 00fa 9BB2     		uxth	r3, r3
 901 00fc 1A46     		mov	r2, r3
 902 00fe 0A93     		str	r3, [sp, #40]
 291:..\..\..\lvgl\version_6.1.2\lvgl\src\lv_draw/lv_draw_basic.c **** 
 903              		.loc 1 291 0
ARM GAS  C:\Users\pearlstl\AppData\Local\Temp\ccmYHcOW.s 			page 41


 904 0100 9DF88230 		ldrb	r3, [sp, #130]	@ zero_extendqisi2
 905 0104 BAF90010 		ldrsh	r1, [r10]
 256:..\..\..\lvgl\version_6.1.2\lvgl\src\lv_draw/lv_draw_basic.c ****     lv_coord_t pos_y = pos_p->y + (font_p->line_height - font_p->base_line) - g.box_h - g.ofs_y;
 906              		.loc 1 256 0
 907 0108 12B2     		sxth	r2, r2
 291:..\..\..\lvgl\version_6.1.2\lvgl\src\lv_draw/lv_draw_basic.c **** 
 908              		.loc 1 291 0
 909 010a 1344     		add	r3, r3, r2
 910 010c 8B42     		cmp	r3, r1
 911 010e E3DB     		blt	.L46
 291:..\..\..\lvgl\version_6.1.2\lvgl\src\lv_draw/lv_draw_basic.c **** 
 912              		.loc 1 291 0 is_stmt 0 discriminator 1
 913 0110 BAF90430 		ldrsh	r3, [r10, #4]
 914 0114 9342     		cmp	r3, r2
 915 0116 DFDB     		blt	.L46
 257:..\..\..\lvgl\version_6.1.2\lvgl\src\lv_draw/lv_draw_basic.c **** 
 916              		.loc 1 257 0 is_stmt 1 discriminator 2
 917 0118 059B     		ldr	r3, [sp, #20]
 918 011a 0799     		ldr	r1, [sp, #28]
 919 011c D944     		add	r9, r9, fp
 920              	.LVL111:
 921 011e C9EB0308 		rsb	r8, r9, r3
 922              	.LVL112:
 923 0122 069B     		ldr	r3, [sp, #24]
 924 0124 5F1A     		subs	r7, r3, r1
 925 0126 4744     		add	r7, r7, r8
 926 0128 BBB2     		uxth	r3, r7
 927 012a 1846     		mov	r0, r3
 928              	.LVL113:
 929 012c 0F93     		str	r3, [sp, #60]
 291:..\..\..\lvgl\version_6.1.2\lvgl\src\lv_draw/lv_draw_basic.c **** 
 930              		.loc 1 291 0 discriminator 2
 931 012e 9DF88330 		ldrb	r3, [sp, #131]	@ zero_extendqisi2
 932 0132 BAF90210 		ldrsh	r1, [r10, #2]
 257:..\..\..\lvgl\version_6.1.2\lvgl\src\lv_draw/lv_draw_basic.c **** 
 933              		.loc 1 257 0 discriminator 2
 934 0136 07B2     		sxth	r7, r0
 291:..\..\..\lvgl\version_6.1.2\lvgl\src\lv_draw/lv_draw_basic.c **** 
 935              		.loc 1 291 0 discriminator 2
 936 0138 3B44     		add	r3, r3, r7
 937 013a 8B42     		cmp	r3, r1
 938 013c CCDB     		blt	.L46
 291:..\..\..\lvgl\version_6.1.2\lvgl\src\lv_draw/lv_draw_basic.c **** 
 939              		.loc 1 291 0 is_stmt 0 discriminator 3
 940 013e BAF90630 		ldrsh	r3, [r10, #6]
 941 0142 BB42     		cmp	r3, r7
 942 0144 C8DB     		blt	.L46
 943 0146 0792     		str	r2, [sp, #28]
 293:..\..\..\lvgl\version_6.1.2\lvgl\src\lv_draw/lv_draw_basic.c ****     lv_disp_buf_t * vdb = lv_disp_get_buf(disp);
 944              		.loc 1 293 0 is_stmt 1
 945 0148 FFF7FEFF 		bl	lv_refr_get_disp_refreshing
 946              	.LVL114:
 947 014c 0B90     		str	r0, [sp, #44]
 948              	.LVL115:
 294:..\..\..\lvgl\version_6.1.2\lvgl\src\lv_draw/lv_draw_basic.c **** 
 949              		.loc 1 294 0
 950 014e FFF7FEFF 		bl	lv_disp_get_buf
ARM GAS  C:\Users\pearlstl\AppData\Local\Temp\ccmYHcOW.s 			page 42


 951              	.LVL116:
 952 0152 0246     		mov	r2, r0
 953 0154 1190     		str	r0, [sp, #68]
 954              	.LVL117:
 955              	.LBB105:
 956              	.LBB106:
 957              		.loc 2 88 0
 958 0156 918A     		ldrh	r1, [r2, #20]
 959 0158 B2F91080 		ldrsh	r8, [r2, #16]
 960              	.LVL118:
 961              	.LBE106:
 962              	.LBE105:
 304:..\..\..\lvgl\version_6.1.2\lvgl\src\lv_draw/lv_draw_basic.c **** 
 963              		.loc 1 304 0
 964 015c A87A     		ldrb	r0, [r5, #10]	@ zero_extendqisi2
 965              	.LVL119:
 297:..\..\..\lvgl\version_6.1.2\lvgl\src\lv_draw/lv_draw_basic.c ****     lv_coord_t col, row;
 966              		.loc 1 297 0
 967 015e 9268     		ldr	r2, [r2, #8]
 968              	.LVL120:
 300:..\..\..\lvgl\version_6.1.2\lvgl\src\lv_draw/lv_draw_basic.c ****     if(g.box_w & 0x7) width_byte_scr++;
 969              		.loc 1 300 0
 970 0160 9DF882E0 		ldrb	lr, [sp, #130]	@ zero_extendqisi2
 302:..\..\..\lvgl\version_6.1.2\lvgl\src\lv_draw/lv_draw_basic.c **** 
 971              		.loc 1 302 0
 972 0164 9DF88630 		ldrb	r3, [sp, #134]	@ zero_extendqisi2
 297:..\..\..\lvgl\version_6.1.2\lvgl\src\lv_draw/lv_draw_basic.c ****     lv_coord_t col, row;
 973              		.loc 1 297 0
 974 0168 0592     		str	r2, [sp, #20]
 975              	.LBB108:
 976              	.LBB107:
 977              		.loc 2 88 0
 978 016a 0131     		adds	r1, r1, #1
 979 016c C8EB0101 		rsb	r1, r8, r1
 980 0170 0AB2     		sxth	r2, r1
 981 0172 1092     		str	r2, [sp, #64]
 982              	.LVL121:
 983              	.LBE107:
 984              	.LBE108:
 312:..\..\..\lvgl\version_6.1.2\lvgl\src\lv_draw/lv_draw_basic.c ****         col_start = pos_x >= mask_p->x1 ? 0 : mask_p->x1 - pos_x;
 985              		.loc 1 312 0
 986 0174 10F00302 		ands	r2, r0, #3
 987 0178 0692     		str	r2, [sp, #24]
 302:..\..\..\lvgl\version_6.1.2\lvgl\src\lv_draw/lv_draw_basic.c **** 
 988              		.loc 1 302 0
 989 017a 0EFB03FC 		mul	ip, lr, r3
 990              	.LVL122:
 312:..\..\..\lvgl\version_6.1.2\lvgl\src\lv_draw/lv_draw_basic.c ****         col_start = pos_x >= mask_p->x1 ? 0 : mask_p->x1 - pos_x;
 991              		.loc 1 312 0
 992 017e 079A     		ldr	r2, [sp, #28]
 313:..\..\..\lvgl\version_6.1.2\lvgl\src\lv_draw/lv_draw_basic.c ****         col_end   = pos_x + g.box_w <= mask_p->x2 ? g.box_w : mask_p->x2 - pos_x + 1;
 993              		.loc 1 313 0
 994 0180 BAF90010 		ldrsh	r1, [r10]
 312:..\..\..\lvgl\version_6.1.2\lvgl\src\lv_draw/lv_draw_basic.c ****         col_start = pos_x >= mask_p->x1 ? 0 : mask_p->x1 - pos_x;
 995              		.loc 1 312 0
 996 0184 40F09E81 		bne	.L56
 313:..\..\..\lvgl\version_6.1.2\lvgl\src\lv_draw/lv_draw_basic.c ****         col_end   = pos_x + g.box_w <= mask_p->x2 ? g.box_w : mask_p->x2 - pos_x + 1;
ARM GAS  C:\Users\pearlstl\AppData\Local\Temp\ccmYHcOW.s 			page 43


 997              		.loc 1 313 0
 998 0188 8A42     		cmp	r2, r1
 999 018a 80F2B581 		bge	.L101
 313:..\..\..\lvgl\version_6.1.2\lvgl\src\lv_draw/lv_draw_basic.c ****         col_end   = pos_x + g.box_w <= mask_p->x2 ? g.box_w : mask_p->x2 - pos_x + 1;
 1000              		.loc 1 313 0 is_stmt 0 discriminator 1
 1001 018e 0A98     		ldr	r0, [sp, #40]
 1002              	.LVL123:
 1003 0190 091A     		subs	r1, r1, r0
 1004 0192 09B2     		sxth	r1, r1
 1005 0194 1791     		str	r1, [sp, #92]
 1006 0196 1591     		str	r1, [sp, #84]
 1007 0198 13FB01F9 		smulbb	r9, r3, r1
 1008              	.L57:
 1009              	.LVL124:
 314:..\..\..\lvgl\version_6.1.2\lvgl\src\lv_draw/lv_draw_basic.c ****         row_start = pos_y >= mask_p->y1 ? 0 : mask_p->y1 - pos_y;
 1010              		.loc 1 314 0 is_stmt 1 discriminator 4
 1011 019c BAF90410 		ldrsh	r1, [r10, #4]
 1012 01a0 0EEB0200 		add	r0, lr, r2
 1013 01a4 8842     		cmp	r0, r1
 1014 01a6 40F38A81 		ble	.L130
 314:..\..\..\lvgl\version_6.1.2\lvgl\src\lv_draw/lv_draw_basic.c ****         row_start = pos_y >= mask_p->y1 ? 0 : mask_p->y1 - pos_y;
 1015              		.loc 1 314 0 is_stmt 0 discriminator 2
 1016 01aa 0A98     		ldr	r0, [sp, #40]
 1017 01ac 0131     		adds	r1, r1, #1
 1018 01ae 091A     		subs	r1, r1, r0
 1019 01b0 0FFA81FB 		sxth	fp, r1
 1020              	.LVL125:
 1021              	.L66:
 320:..\..\..\lvgl\version_6.1.2\lvgl\src\lv_draw/lv_draw_basic.c ****         row_end   = pos_y + g.box_h <= mask_p->y2 ? g.box_h : mask_p->y2 - pos_y + 1;
 1022              		.loc 1 320 0 is_stmt 1 discriminator 4
 1023 01b4 BAF90210 		ldrsh	r1, [r10, #2]
 1024 01b8 8F42     		cmp	r7, r1
 1025 01ba C0F27581 		blt	.L67
 320:..\..\..\lvgl\version_6.1.2\lvgl\src\lv_draw/lv_draw_basic.c ****         row_end   = pos_y + g.box_h <= mask_p->y2 ? g.box_h : mask_p->y2 - pos_y + 1;
 1026              		.loc 1 320 0 is_stmt 0
 1027 01be 4FF0000C 		mov	ip, #0
 1028              	.LVL126:
 1029 01c2 CDF81CC0 		str	ip, [sp, #28]
 1030 01c6 CDF834C0 		str	ip, [sp, #52]
 1031              	.L68:
 1032              	.LVL127:
 321:..\..\..\lvgl\version_6.1.2\lvgl\src\lv_draw/lv_draw_basic.c ****     }
 1033              		.loc 1 321 0 is_stmt 1 discriminator 4
 1034 01ca 9DF88300 		ldrb	r0, [sp, #131]	@ zero_extendqisi2
 1035 01ce BAF90610 		ldrsh	r1, [r10, #6]
 1036 01d2 C519     		adds	r5, r0, r7
 1037 01d4 8D42     		cmp	r5, r1
 1038 01d6 02DD     		ble	.L124
 321:..\..\..\lvgl\version_6.1.2\lvgl\src\lv_draw/lv_draw_basic.c ****     }
 1039              		.loc 1 321 0 is_stmt 0 discriminator 2
 1040 01d8 0F98     		ldr	r0, [sp, #60]
 1041 01da 0131     		adds	r1, r1, #1
 1042 01dc 081A     		subs	r0, r1, r0
 1043              	.L124:
 1044              	.LVL128:
 1045 01de 01B2     		sxth	r1, r0
 1046 01e0 1691     		str	r1, [sp, #88]
ARM GAS  C:\Users\pearlstl\AppData\Local\Temp\ccmYHcOW.s 			page 44


 1047              	.LVL129:
 325:..\..\..\lvgl\version_6.1.2\lvgl\src\lv_draw/lv_draw_basic.c **** 
 1048              		.loc 1 325 0 is_stmt 1 discriminator 2
 1049 01e2 1199     		ldr	r1, [sp, #68]
 1050 01e4 1098     		ldr	r0, [sp, #64]
 1051 01e6 B1F91210 		ldrsh	r1, [r1, #18]
 1052 01ea 791A     		subs	r1, r7, r1
 1053 01ec 00FB0121 		mla	r1, r0, r1, r2
 1054 01f0 C8EB0102 		rsb	r2, r8, r1
 1055 01f4 0599     		ldr	r1, [sp, #20]
 1056 01f6 01EB8202 		add	r2, r1, r2, lsl #2
 1057              	.LVL130:
 328:..\..\..\lvgl\version_6.1.2\lvgl\src\lv_draw/lv_draw_basic.c ****     else vdb_buf_tmp += (row_start * vdb_width) + col_start;
 1058              		.loc 1 328 0 discriminator 2
 1059 01fa 0699     		ldr	r1, [sp, #24]
 1060 01fc 0029     		cmp	r1, #0
 1061 01fe 00F04D81 		beq	.L70
 328:..\..\..\lvgl\version_6.1.2\lvgl\src\lv_draw/lv_draw_basic.c ****     else vdb_buf_tmp += (row_start * vdb_width) + col_start;
 1062              		.loc 1 328 0 is_stmt 0 discriminator 1
 1063 0202 179D     		ldr	r5, [sp, #92]
 1064 0204 2549     		ldr	r1, .L136+4
 1065 0206 2846     		mov	r0, r5
 1066 0208 81FB0001 		smull	r0, r1, r1, r0
 1067 020c 0798     		ldr	r0, [sp, #28]
 1068 020e A1EBE571 		sub	r1, r1, r5, asr #31
 1069 0212 00FA81F1 		sxtah	r1, r0, r1
 1070 0216 02EB8108 		add	r8, r2, r1, lsl #2
 1071              	.LVL131:
 1072              	.L71:
 346:..\..\..\lvgl\version_6.1.2\lvgl\src\lv_draw/lv_draw_basic.c **** 
 1073              		.loc 1 346 0 is_stmt 1
 1074 021a 309A     		ldr	r2, [sp, #192]
 348:..\..\..\lvgl\version_6.1.2\lvgl\src\lv_draw/lv_draw_basic.c ****         bitmask = bitmask_init >> col_bit;
 1075              		.loc 1 348 0
 1076 021c 1699     		ldr	r1, [sp, #88]
 346:..\..\..\lvgl\version_6.1.2\lvgl\src\lv_draw/lv_draw_basic.c **** 
 1077              		.loc 1 346 0
 1078 021e C2F30742 		ubfx	r2, r2, #16, #8
 1079 0222 1392     		str	r2, [sp, #76]
 1080 0224 309A     		ldr	r2, [sp, #192]
 1081 0226 C2F30722 		ubfx	r2, r2, #8, #8
 1082 022a 1492     		str	r2, [sp, #80]
 1083 022c 9DF8C020 		ldrb	r2, [sp, #192]	@ zero_extendqisi2
 1084              	.LVL132:
 1085 0230 1292     		str	r2, [sp, #72]
 348:..\..\..\lvgl\version_6.1.2\lvgl\src\lv_draw/lv_draw_basic.c ****         bitmask = bitmask_init >> col_bit;
 1086              		.loc 1 348 0
 1087 0232 0D9A     		ldr	r2, [sp, #52]
 1088              	.LVL133:
 332:..\..\..\lvgl\version_6.1.2\lvgl\src\lv_draw/lv_draw_basic.c ****     map_p += bit_ofs >> 3;
 1089              		.loc 1 332 0
 1090 0234 CC44     		add	ip, ip, r9
 1091              	.LVL134:
 348:..\..\..\lvgl\version_6.1.2\lvgl\src\lv_draw/lv_draw_basic.c ****         bitmask = bitmask_init >> col_bit;
 1092              		.loc 1 348 0
 1093 0236 8A42     		cmp	r2, r1
 333:..\..\..\lvgl\version_6.1.2\lvgl\src\lv_draw/lv_draw_basic.c **** 
ARM GAS  C:\Users\pearlstl\AppData\Local\Temp\ccmYHcOW.s 			page 45


 1094              		.loc 1 333 0
 1095 0238 06EBDC09 		add	r9, r6, ip, lsr #3
 1096              	.LVL135:
 338:..\..\..\lvgl\version_6.1.2\lvgl\src\lv_draw/lv_draw_basic.c **** 
 1097              		.loc 1 338 0
 1098 023c 0CF0070A 		and	r10, ip, #7
 1099              	.LVL136:
 348:..\..\..\lvgl\version_6.1.2\lvgl\src\lv_draw/lv_draw_basic.c ****         bitmask = bitmask_init >> col_bit;
 1100              		.loc 1 348 0
 1101 0240 BFF64AAF 		bge	.L46
 1102 0244 1599     		ldr	r1, [sp, #84]
 1103              	.LBB109:
 446:..\..\..\lvgl\version_6.1.2\lvgl\src\lv_draw/lv_draw_basic.c ****         else vdb_buf_tmp += vdb_width - (col_end - col_start);
 1104              		.loc 1 446 0
 1105 0246 154A     		ldr	r2, .L136+4
 1106 0248 109D     		ldr	r5, [sp, #64]
 447:..\..\..\lvgl\version_6.1.2\lvgl\src\lv_draw/lv_draw_basic.c ****     }
 1107              		.loc 1 447 0
 1108 024a 0794     		str	r4, [sp, #28]
 1109 024c C1EB0B01 		rsb	r1, r1, fp
 446:..\..\..\lvgl\version_6.1.2\lvgl\src\lv_draw/lv_draw_basic.c ****         else vdb_buf_tmp += vdb_width - (col_end - col_start);
 1110              		.loc 1 446 0
 1111 0250 82FB0102 		smull	r0, r2, r2, r1
 1112 0254 C2EBE172 		rsb	r2, r2, r1, asr #31
 1113 0258 2A44     		add	r2, r2, r5
 1114 025a 9200     		lsls	r2, r2, #2
 447:..\..\..\lvgl\version_6.1.2\lvgl\src\lv_draw/lv_draw_basic.c ****     }
 1115              		.loc 1 447 0
 1116 025c 691A     		subs	r1, r5, r1
 446:..\..\..\lvgl\version_6.1.2\lvgl\src\lv_draw/lv_draw_basic.c ****         else vdb_buf_tmp += vdb_width - (col_end - col_start);
 1117              		.loc 1 446 0
 1118 025e 1A92     		str	r2, [sp, #104]
 447:..\..\..\lvgl\version_6.1.2\lvgl\src\lv_draw/lv_draw_basic.c ****     }
 1119              		.loc 1 447 0
 1120 0260 5F46     		mov	r7, fp
 1121 0262 8A00     		lsls	r2, r1, #2
 1122 0264 DDF838B0 		ldr	fp, [sp, #56]
 1123              	.LVL137:
 1124 0268 1B92     		str	r2, [sp, #108]
 1125              	.LVL138:
 1126              	.L97:
 349:..\..\..\lvgl\version_6.1.2\lvgl\src\lv_draw/lv_draw_basic.c ****         uint8_t sub_px_cnt = 0;
 1127              		.loc 1 349 0
 1128 026a 0C9A     		ldr	r2, [sp, #48]
 351:..\..\..\lvgl\version_6.1.2\lvgl\src\lv_draw/lv_draw_basic.c ****             letter_px = (*map_p & bitmask) >> (8 - col_bit - g.bpp);
 1129              		.loc 1 351 0
 1130 026c 179C     		ldr	r4, [sp, #92]
 349:..\..\..\lvgl\version_6.1.2\lvgl\src\lv_draw/lv_draw_basic.c ****         uint8_t sub_px_cnt = 0;
 1131              		.loc 1 349 0
 1132 026e 42FA0AF5 		asr	r5, r2, r10
 351:..\..\..\lvgl\version_6.1.2\lvgl\src\lv_draw/lv_draw_basic.c ****             letter_px = (*map_p & bitmask) >> (8 - col_bit - g.bpp);
 1133              		.loc 1 351 0
 1134 0272 BC42     		cmp	r4, r7
 349:..\..\..\lvgl\version_6.1.2\lvgl\src\lv_draw/lv_draw_basic.c ****         uint8_t sub_px_cnt = 0;
 1135              		.loc 1 349 0
 1136 0274 EDB2     		uxtb	r5, r5
 1137              	.LVL139:
ARM GAS  C:\Users\pearlstl\AppData\Local\Temp\ccmYHcOW.s 			page 46


 351:..\..\..\lvgl\version_6.1.2\lvgl\src\lv_draw/lv_draw_basic.c ****             letter_px = (*map_p & bitmask) >> (8 - col_bit - g.bpp);
 1138              		.loc 1 351 0
 1139 0276 BFF614AF 		bge	.L74
 1140 027a BDF83420 		ldrh	r2, [sp, #52]
 1141 027e 0E92     		str	r2, [sp, #56]
 1142 0280 309A     		ldr	r2, [sp, #192]
 1143 0282 0597     		str	r7, [sp, #20]
 1144 0284 C2F30742 		ubfx	r2, r2, #16, #8
 1145 0288 1892     		str	r2, [sp, #96]
 1146 028a 309A     		ldr	r2, [sp, #192]
 1147 028c C2F30722 		ubfx	r2, r2, #8, #8
 1148 0290 0026     		movs	r6, #0
 1149 0292 1992     		str	r2, [sp, #100]
 1150 0294 3EE0     		b	.L94
 1151              	.L137:
 1152 0296 00BF     		.align	2
 1153              	.L136:
 1154 0298 00000000 		.word	.LANCHOR0
 1155 029c 56555555 		.word	1431655766
 1156              	.LVL140:
 1157              	.L134:
 356:..\..\..\lvgl\version_6.1.2\lvgl\src\lv_draw/lv_draw_basic.c ****                     if(opa == LV_OPA_COVER) {
 1158              		.loc 1 356 0
 1159 02a0 3AB3     		cbz	r2, .L76
 357:..\..\..\lvgl\version_6.1.2\lvgl\src\lv_draw/lv_draw_basic.c ****                         px_opa = g.bpp == 8 ? letter_px : bpp_opa_table[letter_px];
 1160              		.loc 1 357 0
 1161 02a2 0799     		ldr	r1, [sp, #28]
 1162 02a4 FF29     		cmp	r1, #255
 1163 02a6 00F0BE80 		beq	.L132
 360:..\..\..\lvgl\version_6.1.2\lvgl\src\lv_draw/lv_draw_basic.c ****                                 : (uint16_t)((uint16_t)bpp_opa_table[letter_px] * opa) >> 8;
 1164              		.loc 1 360 0
 1165 02aa 082B     		cmp	r3, #8
 1166 02ac 02D0     		beq	.L125
 360:..\..\..\lvgl\version_6.1.2\lvgl\src\lv_draw/lv_draw_basic.c ****                                 : (uint16_t)((uint16_t)bpp_opa_table[letter_px] * opa) >> 8;
 1167              		.loc 1 360 0 is_stmt 0 discriminator 2
 1168 02ae 0999     		ldr	r1, [sp, #36]
 1169 02b0 8A5C     		ldrb	r2, [r1, r2]	@ zero_extendqisi2
 1170              	.LVL141:
 1171 02b2 0799     		ldr	r1, [sp, #28]
 1172              	.L125:
 1173 02b4 02FB01F2 		mul	r2, r2, r1
 1174 02b8 C2F30722 		ubfx	r2, r2, #8, #8
 1175              	.L78:
 1176              	.LVL142:
 364:..\..\..\lvgl\version_6.1.2\lvgl\src\lv_draw/lv_draw_basic.c ****                         disp->driver.set_px_cb(&disp->driver, (uint8_t *)vdb->buf_act, vdb_width,
 1177              		.loc 1 364 0 is_stmt 1
 1178 02bc 0B99     		ldr	r1, [sp, #44]
 1179 02be 4F69     		ldr	r7, [r1, #20]
 1180 02c0 002F     		cmp	r7, #0
 1181 02c2 00F0A380 		beq	.L80
 365:..\..\..\lvgl\version_6.1.2\lvgl\src\lv_draw/lv_draw_basic.c ****                                 (col + pos_x) - vdb->area.x1, (row + pos_y) - vdb->area.y1, color, 
 1182              		.loc 1 365 0
 1183 02c6 1198     		ldr	r0, [sp, #68]
 1184 02c8 038A     		ldrh	r3, [r0, #16]
 1185              	.LVL143:
 1186 02ca 8168     		ldr	r1, [r0, #8]
 1187 02cc 0292     		str	r2, [sp, #8]
ARM GAS  C:\Users\pearlstl\AppData\Local\Temp\ccmYHcOW.s 			page 47


 1188 02ce 309A     		ldr	r2, [sp, #192]
 1189              	.LVL144:
 1190 02d0 0192     		str	r2, [sp, #4]
 1191 02d2 428A     		ldrh	r2, [r0, #18]
 1192 02d4 0F98     		ldr	r0, [sp, #60]
 1193 02d6 821A     		subs	r2, r0, r2
 1194 02d8 0A98     		ldr	r0, [sp, #40]
 1195 02da C31A     		subs	r3, r0, r3
 1196 02dc 0E98     		ldr	r0, [sp, #56]
 1197 02de 0244     		add	r2, r2, r0
 1198 02e0 12B2     		sxth	r2, r2
 1199 02e2 2344     		add	r3, r3, r4
 1200 02e4 1BB2     		sxth	r3, r3
 1201 02e6 0092     		str	r2, [sp]
 1202 02e8 0B98     		ldr	r0, [sp, #44]
 1203 02ea 109A     		ldr	r2, [sp, #64]
 1204 02ec B847     		blx	r7
 1205              	.LVL145:
 1206 02ee 9DF88630 		ldrb	r3, [sp, #134]	@ zero_extendqisi2
 1207              	.LVL146:
 1208              	.L76:
 381:..\..\..\lvgl\version_6.1.2\lvgl\src\lv_draw/lv_draw_basic.c ****             }
 1209              		.loc 1 381 0
 1210 02f2 08F10408 		add	r8, r8, #4
 1211              	.LVL147:
 1212              	.L82:
 430:..\..\..\lvgl\version_6.1.2\lvgl\src\lv_draw/lv_draw_basic.c ****                 col_bit += g.bpp;
 1213              		.loc 1 430 0
 1214 02f6 C3F10802 		rsb	r2, r3, #8
 1215 02fa 9245     		cmp	r10, r2
 1216 02fc 48DA     		bge	.L92
 431:..\..\..\lvgl\version_6.1.2\lvgl\src\lv_draw/lv_draw_basic.c ****                 bitmask = bitmask >> g.bpp;
 1217              		.loc 1 431 0
 1218 02fe 9A44     		add	r10, r10, r3
 1219              	.LVL148:
 432:..\..\..\lvgl\version_6.1.2\lvgl\src\lv_draw/lv_draw_basic.c ****             } else {
 1220              		.loc 1 432 0
 1221 0300 1D41     		asrs	r5, r5, r3
 1222              	.LVL149:
 431:..\..\..\lvgl\version_6.1.2\lvgl\src\lv_draw/lv_draw_basic.c ****                 bitmask = bitmask >> g.bpp;
 1223              		.loc 1 431 0
 1224 0302 1FFA8AFA 		uxth	r10, r10
 1225              	.LVL150:
 432:..\..\..\lvgl\version_6.1.2\lvgl\src\lv_draw/lv_draw_basic.c ****             } else {
 1226              		.loc 1 432 0
 1227 0306 EDB2     		uxtb	r5, r5
 1228              	.LVL151:
 1229              	.L93:
 1230 0308 0134     		adds	r4, r4, #1
 1231              	.LVL152:
 351:..\..\..\lvgl\version_6.1.2\lvgl\src\lv_draw/lv_draw_basic.c ****             letter_px = (*map_p & bitmask) >> (8 - col_bit - g.bpp);
 1232              		.loc 1 351 0 discriminator 2
 1233 030a 059A     		ldr	r2, [sp, #20]
 1234 030c 24B2     		sxth	r4, r4
 1235              	.LVL153:
 1236 030e A242     		cmp	r2, r4
 1237 0310 7FF7C4AE 		ble	.L133
ARM GAS  C:\Users\pearlstl\AppData\Local\Temp\ccmYHcOW.s 			page 48


 1238              	.LVL154:
 1239              	.L94:
 352:..\..\..\lvgl\version_6.1.2\lvgl\src\lv_draw/lv_draw_basic.c **** 
 1240              		.loc 1 352 0
 1241 0314 99F80010 		ldrb	r1, [r9]	@ zero_extendqisi2
 1242 0318 CAF10802 		rsb	r2, r10, #8
 1243 031c 2940     		ands	r1, r1, r5
 1244 031e D21A     		subs	r2, r2, r3
 1245 0320 41FA02F2 		asr	r2, r1, r2
 355:..\..\..\lvgl\version_6.1.2\lvgl\src\lv_draw/lv_draw_basic.c ****                 if(letter_px != 0) {
 1246              		.loc 1 355 0
 1247 0324 0699     		ldr	r1, [sp, #24]
 352:..\..\..\lvgl\version_6.1.2\lvgl\src\lv_draw/lv_draw_basic.c **** 
 1248              		.loc 1 352 0
 1249 0326 D2B2     		uxtb	r2, r2
 1250              	.LVL155:
 355:..\..\..\lvgl\version_6.1.2\lvgl\src\lv_draw/lv_draw_basic.c ****                 if(letter_px != 0) {
 1251              		.loc 1 355 0
 1252 0328 0029     		cmp	r1, #0
 1253 032a B9D0     		beq	.L134
 385:..\..\..\lvgl\version_6.1.2\lvgl\src\lv_draw/lv_draw_basic.c ****                     if(opa == LV_OPA_COVER) {
 1254              		.loc 1 385 0
 1255 032c 5AB1     		cbz	r2, .L83
 386:..\..\..\lvgl\version_6.1.2\lvgl\src\lv_draw/lv_draw_basic.c ****                         px_opa = g.bpp == 8 ? letter_px : bpp_opa_table[letter_px];
 1256              		.loc 1 386 0
 1257 032e 0799     		ldr	r1, [sp, #28]
 1258 0330 FF29     		cmp	r1, #255
 1259 0332 7ED0     		beq	.L135
 389:..\..\..\lvgl\version_6.1.2\lvgl\src\lv_draw/lv_draw_basic.c ****                                 : (uint16_t)((uint16_t)bpp_opa_table[letter_px] * opa) >> 8;
 1260              		.loc 1 389 0
 1261 0334 082B     		cmp	r3, #8
 1262 0336 02D0     		beq	.L126
 389:..\..\..\lvgl\version_6.1.2\lvgl\src\lv_draw/lv_draw_basic.c ****                                 : (uint16_t)((uint16_t)bpp_opa_table[letter_px] * opa) >> 8;
 1263              		.loc 1 389 0 is_stmt 0 discriminator 2
 1264 0338 0999     		ldr	r1, [sp, #36]
 1265 033a 8A5C     		ldrb	r2, [r1, r2]	@ zero_extendqisi2
 1266              	.LVL156:
 1267 033c 0799     		ldr	r1, [sp, #28]
 1268              	.L126:
 1269 033e 02FB01F2 		mul	r2, r2, r1
 1270 0342 C2F30722 		ubfx	r2, r2, #8, #8
 1271              	.LVL157:
 1272              	.L83:
 395:..\..\..\lvgl\version_6.1.2\lvgl\src\lv_draw/lv_draw_basic.c ****                 }
 1273              		.loc 1 395 0 is_stmt 1
 1274 0346 26A9     		add	r1, sp, #152
 1275 0348 3144     		add	r1, r1, r6
 397:..\..\..\lvgl\version_6.1.2\lvgl\src\lv_draw/lv_draw_basic.c **** 
 1276              		.loc 1 397 0
 1277 034a 0136     		adds	r6, r6, #1
 1278              	.LVL158:
 1279 034c F6B2     		uxtb	r6, r6
 1280              	.LVL159:
 399:..\..\..\lvgl\version_6.1.2\lvgl\src\lv_draw/lv_draw_basic.c ****                     lv_color_t res_color;
 1281              		.loc 1 399 0
 1282 034e 032E     		cmp	r6, #3
 395:..\..\..\lvgl\version_6.1.2\lvgl\src\lv_draw/lv_draw_basic.c ****                 }
ARM GAS  C:\Users\pearlstl\AppData\Local\Temp\ccmYHcOW.s 			page 49


 1283              		.loc 1 395 0
 1284 0350 01F8202C 		strb	r2, [r1, #-32]
 399:..\..\..\lvgl\version_6.1.2\lvgl\src\lv_draw/lv_draw_basic.c ****                     lv_color_t res_color;
 1285              		.loc 1 399 0
 1286 0354 CFD1     		bne	.L82
 1287              	.LBB96:
 402:..\..\..\lvgl\version_6.1.2\lvgl\src\lv_draw/lv_draw_basic.c ****                         res_color = *vdb_buf_tmp;
 1288              		.loc 1 402 0
 1289 0356 9DF87830 		ldrb	r3, [sp, #120]	@ zero_extendqisi2
 1290              	.LVL160:
 1291 035a FBB9     		cbnz	r3, .L88
 402:..\..\..\lvgl\version_6.1.2\lvgl\src\lv_draw/lv_draw_basic.c ****                         res_color = *vdb_buf_tmp;
 1292              		.loc 1 402 0 is_stmt 0 discriminator 1
 1293 035c 9DF87910 		ldrb	r1, [sp, #121]	@ zero_extendqisi2
 1294 0360 9DF87A00 		ldrb	r0, [sp, #122]	@ zero_extendqisi2
 1295 0364 F1B9     		cbnz	r1, .L90
 402:..\..\..\lvgl\version_6.1.2\lvgl\src\lv_draw/lv_draw_basic.c ****                         res_color = *vdb_buf_tmp;
 1296              		.loc 1 402 0 discriminator 2
 1297 0366 E8B9     		cbnz	r0, .L90
 403:..\..\..\lvgl\version_6.1.2\lvgl\src\lv_draw/lv_draw_basic.c ****                     } else {
 1298              		.loc 1 403 0 is_stmt 1
 1299 0368 D8F800B0 		ldr	fp, [r8]
 1300              	.LVL161:
 1301              	.L91:
 418:..\..\..\lvgl\version_6.1.2\lvgl\src\lv_draw/lv_draw_basic.c **** #if LV_COLOR_DEPTH == 32 && LV_COLOR_SCREEN_TRANSP
 1302              		.loc 1 418 0
 1303 036c 48F804BB 		str	fp, [r8], #4
 1304              	.LVL162:
 424:..\..\..\lvgl\version_6.1.2\lvgl\src\lv_draw/lv_draw_basic.c ****                     vdb_buf_tmp++;
 1305              		.loc 1 424 0
 1306 0370 0026     		movs	r6, #0
 1307 0372 9DF88630 		ldrb	r3, [sp, #134]	@ zero_extendqisi2
 1308 0376 BEE7     		b	.L82
 1309              	.LVL163:
 1310              	.L55:
 1311              	.LBE96:
 1312              	.LBE109:
 282:..\..\..\lvgl\version_6.1.2\lvgl\src\lv_draw/lv_draw_basic.c ****         default: return; /*Invalid bpp. Can't render the letter*/
 1313              		.loc 1 282 0
 1314 0378 FF23     		movs	r3, #255
 1315 037a 0C93     		str	r3, [sp, #48]
 281:..\..\..\lvgl\version_6.1.2\lvgl\src\lv_draw/lv_draw_basic.c ****             break;       /*No opa table, pixel value will be used directly*/
 1316              		.loc 1 281 0
 1317 037c 0893     		str	r3, [sp, #32]
 280:..\..\..\lvgl\version_6.1.2\lvgl\src\lv_draw/lv_draw_basic.c ****             bitmask_init  = 0xFF;
 1318              		.loc 1 280 0
 1319 037e 0023     		movs	r3, #0
 1320 0380 0993     		str	r3, [sp, #36]
 282:..\..\..\lvgl\version_6.1.2\lvgl\src\lv_draw/lv_draw_basic.c ****         default: return; /*Invalid bpp. Can't render the letter*/
 1321              		.loc 1 282 0
 1322 0382 B1E6     		b	.L54
 1323              	.LVL164:
 1324              	.L52:
 266:..\..\..\lvgl\version_6.1.2\lvgl\src\lv_draw/lv_draw_basic.c ****         case 1:
 1325              		.loc 1 266 0
 1326 0384 8023     		movs	r3, #128
 1327 0386 0C93     		str	r3, [sp, #48]
ARM GAS  C:\Users\pearlstl\AppData\Local\Temp\ccmYHcOW.s 			page 50


 269:..\..\..\lvgl\version_6.1.2\lvgl\src\lv_draw/lv_draw_basic.c ****             break;
 1328              		.loc 1 269 0
 1329 0388 0893     		str	r3, [sp, #32]
 268:..\..\..\lvgl\version_6.1.2\lvgl\src\lv_draw/lv_draw_basic.c ****             bitmask_init  = 0x80;
 1330              		.loc 1 268 0
 1331 038a 1DAB     		add	r3, sp, #116
 1332 038c 0993     		str	r3, [sp, #36]
 1333 038e ABE6     		b	.L54
 1334              	.LVL165:
 1335              	.L92:
 1336              	.LBB110:
 436:..\..\..\lvgl\version_6.1.2\lvgl\src\lv_draw/lv_draw_basic.c ****             }
 1337              		.loc 1 436 0
 1338 0390 09F10109 		add	r9, r9, #1
 1339              	.LVL166:
 435:..\..\..\lvgl\version_6.1.2\lvgl\src\lv_draw/lv_draw_basic.c ****                 map_p++;
 1340              		.loc 1 435 0
 1341 0394 089D     		ldr	r5, [sp, #32]
 434:..\..\..\lvgl\version_6.1.2\lvgl\src\lv_draw/lv_draw_basic.c ****                 bitmask = bitmask_init;
 1342              		.loc 1 434 0
 1343 0396 4FF0000A 		mov	r10, #0
 1344 039a B5E7     		b	.L93
 1345              	.LVL167:
 1346              	.L88:
 1347 039c 9DF87A00 		ldrb	r0, [sp, #122]	@ zero_extendqisi2
 1348 03a0 9DF87910 		ldrb	r1, [sp, #121]	@ zero_extendqisi2
 1349              	.L90:
 1350              	.LVL168:
 1351              	.LBB98:
 1352              	.LBB97:
 412:..\..\..\lvgl\version_6.1.2\lvgl\src\lv_draw/lv_draw_basic.c ****                         LV_COLOR_SET_B(res_color, (uint16_t)((uint16_t)txt_rgb[2] * font_rgb[2] + (
 1353              		.loc 1 412 0
 1354 03a4 BDF84CE0 		ldrh	lr, [sp, #76]
 1355 03a8 98F80270 		ldrb	r7, [r8, #2]	@ zero_extendqisi2
 406:..\..\..\lvgl\version_6.1.2\lvgl\src\lv_draw/lv_draw_basic.c **** 
 1356              		.loc 1 406 0
 1357 03ac 98F80020 		ldrb	r2, [r8]	@ zero_extendqisi2
 412:..\..\..\lvgl\version_6.1.2\lvgl\src\lv_draw/lv_draw_basic.c ****                         LV_COLOR_SET_B(res_color, (uint16_t)((uint16_t)txt_rgb[2] * font_rgb[2] + (
 1358              		.loc 1 412 0
 1359 03b0 C3F1FF06 		rsb	r6, r3, #255
 1360              	.LVL169:
 1361 03b4 1EFB03F3 		smulbb	r3, lr, r3
 1362 03b8 07FB0633 		mla	r3, r7, r6, r3
 413:..\..\..\lvgl\version_6.1.2\lvgl\src\lv_draw/lv_draw_basic.c **** #endif
 1363              		.loc 1 413 0
 1364 03bc BDF84860 		ldrh	r6, [sp, #72]
 1365 03c0 C0F1FF07 		rsb	r7, r0, #255
 1366 03c4 16FB00F0 		smulbb	r0, r6, r0
 1367 03c8 07FB0202 		mla	r2, r7, r2, r0
 415:..\..\..\lvgl\version_6.1.2\lvgl\src\lv_draw/lv_draw_basic.c ****                     }
 1368              		.loc 1 415 0
 1369 03cc BDF85000 		ldrh	r0, [sp, #80]
 406:..\..\..\lvgl\version_6.1.2\lvgl\src\lv_draw/lv_draw_basic.c **** 
 1370              		.loc 1 406 0
 1371 03d0 98F80160 		ldrb	r6, [r8, #1]	@ zero_extendqisi2
 1372              	.LVL170:
 412:..\..\..\lvgl\version_6.1.2\lvgl\src\lv_draw/lv_draw_basic.c ****                         LV_COLOR_SET_B(res_color, (uint16_t)((uint16_t)txt_rgb[2] * font_rgb[2] + (
ARM GAS  C:\Users\pearlstl\AppData\Local\Temp\ccmYHcOW.s 			page 51


 1373              		.loc 1 412 0
 1374 03d4 C3F3072E 		ubfx	lr, r3, #8, #8
 415:..\..\..\lvgl\version_6.1.2\lvgl\src\lv_draw/lv_draw_basic.c ****                     }
 1375              		.loc 1 415 0
 1376 03d8 C1F1FF03 		rsb	r3, r1, #255
 1377 03dc 10FB01F1 		smulbb	r1, r0, r1
 412:..\..\..\lvgl\version_6.1.2\lvgl\src\lv_draw/lv_draw_basic.c ****                         LV_COLOR_SET_B(res_color, (uint16_t)((uint16_t)txt_rgb[2] * font_rgb[2] + (
 1378              		.loc 1 412 0
 1379 03e0 6EF3174B 		bfi	fp, lr, #16, #8
 413:..\..\..\lvgl\version_6.1.2\lvgl\src\lv_draw/lv_draw_basic.c **** #endif
 1380              		.loc 1 413 0
 1381 03e4 C2F30722 		ubfx	r2, r2, #8, #8
 415:..\..\..\lvgl\version_6.1.2\lvgl\src\lv_draw/lv_draw_basic.c ****                     }
 1382              		.loc 1 415 0
 1383 03e8 03FB0613 		mla	r3, r3, r6, r1
 413:..\..\..\lvgl\version_6.1.2\lvgl\src\lv_draw/lv_draw_basic.c **** #endif
 1384              		.loc 1 413 0
 1385 03ec 62F3070B 		bfi	fp, r2, #0, #8
 415:..\..\..\lvgl\version_6.1.2\lvgl\src\lv_draw/lv_draw_basic.c ****                     }
 1386              		.loc 1 415 0
 1387 03f0 C3F30723 		ubfx	r3, r3, #8, #8
 1388 03f4 63F30F2B 		bfi	fp, r3, #8, #8
 1389 03f8 B8E7     		b	.L91
 1390              	.LVL171:
 1391              	.L131:
 1392              	.LBE97:
 1393              	.LBE98:
 1394              	.LBE110:
 264:..\..\..\lvgl\version_6.1.2\lvgl\src\lv_draw/lv_draw_basic.c **** 
 1395              		.loc 1 264 0 discriminator 1
 1396 03fa 0421     		movs	r1, #4
 1397 03fc 8DF88610 		strb	r1, [sp, #134]
 1398              	.L50:
 1399              	.LVL172:
 278:..\..\..\lvgl\version_6.1.2\lvgl\src\lv_draw/lv_draw_basic.c ****         case 8:
 1400              		.loc 1 278 0
 1401 0400 F023     		movs	r3, #240
 276:..\..\..\lvgl\version_6.1.2\lvgl\src\lv_draw/lv_draw_basic.c ****             bitmask_init  = 0xF0;
 1402              		.loc 1 276 0
 1403 0402 22AA     		add	r2, sp, #136
 1404              	.LVL173:
 278:..\..\..\lvgl\version_6.1.2\lvgl\src\lv_draw/lv_draw_basic.c ****         case 8:
 1405              		.loc 1 278 0
 1406 0404 0C93     		str	r3, [sp, #48]
 276:..\..\..\lvgl\version_6.1.2\lvgl\src\lv_draw/lv_draw_basic.c ****             bitmask_init  = 0xF0;
 1407              		.loc 1 276 0
 1408 0406 0992     		str	r2, [sp, #36]
 277:..\..\..\lvgl\version_6.1.2\lvgl\src\lv_draw/lv_draw_basic.c ****             break;
 1409              		.loc 1 277 0
 1410 0408 0893     		str	r3, [sp, #32]
 278:..\..\..\lvgl\version_6.1.2\lvgl\src\lv_draw/lv_draw_basic.c ****         case 8:
 1411              		.loc 1 278 0
 1412 040a 6DE6     		b	.L54
 1413              	.LVL174:
 1414              	.L80:
 1415              	.LBB111:
 367:..\..\..\lvgl\version_6.1.2\lvgl\src\lv_draw/lv_draw_basic.c ****                         if(px_opa > LV_OPA_MAX) {
ARM GAS  C:\Users\pearlstl\AppData\Local\Temp\ccmYHcOW.s 			page 52


 1416              		.loc 1 367 0
 1417 040c D8F80010 		ldr	r1, [r8]
 1418 0410 3098     		ldr	r0, [sp, #192]
 1419 0412 8142     		cmp	r1, r0
 1420 0414 3FF46DAF 		beq	.L76
 368:..\..\..\lvgl\version_6.1.2\lvgl\src\lv_draw/lv_draw_basic.c ****                             *vdb_buf_tmp = color;
 1421              		.loc 1 368 0
 1422 0418 FB2A     		cmp	r2, #251
 1423 041a 12D9     		bls	.L81
 369:..\..\..\lvgl\version_6.1.2\lvgl\src\lv_draw/lv_draw_basic.c ****                         } else if(px_opa > LV_OPA_MIN) {
 1424              		.loc 1 369 0
 1425 041c C8F80000 		str	r0, [r8]
 1426              	.LVL175:
 1427 0420 9DF88630 		ldrb	r3, [sp, #134]	@ zero_extendqisi2
 1428 0424 65E7     		b	.L76
 1429              	.LVL176:
 1430              	.L132:
 358:..\..\..\lvgl\version_6.1.2\lvgl\src\lv_draw/lv_draw_basic.c ****                     } else {
 1431              		.loc 1 358 0
 1432 0426 082B     		cmp	r3, #8
 1433 0428 3FF448AF 		beq	.L78
 358:..\..\..\lvgl\version_6.1.2\lvgl\src\lv_draw/lv_draw_basic.c ****                     } else {
 1434              		.loc 1 358 0 is_stmt 0 discriminator 1
 1435 042c 0999     		ldr	r1, [sp, #36]
 1436 042e 8A5C     		ldrb	r2, [r1, r2]	@ zero_extendqisi2
 1437              	.LVL177:
 1438 0430 44E7     		b	.L78
 1439              	.LVL178:
 1440              	.L135:
 387:..\..\..\lvgl\version_6.1.2\lvgl\src\lv_draw/lv_draw_basic.c ****                     } else {
 1441              		.loc 1 387 0 is_stmt 1
 1442 0432 082B     		cmp	r3, #8
 1443 0434 87D0     		beq	.L83
 387:..\..\..\lvgl\version_6.1.2\lvgl\src\lv_draw/lv_draw_basic.c ****                     } else {
 1444              		.loc 1 387 0 is_stmt 0 discriminator 1
 1445 0436 0999     		ldr	r1, [sp, #36]
 1446 0438 8A5C     		ldrb	r2, [r1, r2]	@ zero_extendqisi2
 1447              	.LVL179:
 1448 043a 84E7     		b	.L83
 1449              	.LVL180:
 1450              	.L95:
 447:..\..\..\lvgl\version_6.1.2\lvgl\src\lv_draw/lv_draw_basic.c ****     }
 1451              		.loc 1 447 0 is_stmt 1
 1452 043c 1B9A     		ldr	r2, [sp, #108]
 1453 043e 9044     		add	r8, r8, r2
 1454              	.LVL181:
 1455 0440 42E6     		b	.L96
 1456              	.LVL182:
 1457              	.L81:
 370:..\..\..\lvgl\version_6.1.2\lvgl\src\lv_draw/lv_draw_basic.c ****                             if(scr_transp == false) {
 1458              		.loc 1 370 0
 1459 0442 102A     		cmp	r2, #16
 1460 0444 7FF655AF 		bls	.L76
 1461              	.LVL183:
 372:..\..\..\lvgl\version_6.1.2\lvgl\src\lv_draw/lv_draw_basic.c ****                             } else {
 1462              		.loc 1 372 0
 1463 0448 98F80070 		ldrb	r7, [r8]	@ zero_extendqisi2
ARM GAS  C:\Users\pearlstl\AppData\Local\Temp\ccmYHcOW.s 			page 53


 1464              	.LBB99:
 1465              	.LBB100:
 437:..\..\..\lvgl\version_6.1.2\lvgl\src\lv_draw\../lv_misc/lv_color.h ****     LV_COLOR_SET_G(ret, (uint16_t)((uint16_t) LV_COLOR_GET_G(c1) * mix + LV_COLOR_GET_G(c2) * (255 
 1466              		.loc 3 437 0
 1467 044c 98F80200 		ldrb	r0, [r8, #2]	@ zero_extendqisi2
 438:..\..\..\lvgl\version_6.1.2\lvgl\src\lv_draw\../lv_misc/lv_color.h ****     LV_COLOR_SET_B(ret, (uint16_t)((uint16_t) LV_COLOR_GET_B(c1) * mix + LV_COLOR_GET_B(c2) * (255 
 1468              		.loc 3 438 0
 1469 0450 98F80110 		ldrb	r1, [r8, #1]	@ zero_extendqisi2
 437:..\..\..\lvgl\version_6.1.2\lvgl\src\lv_draw\../lv_misc/lv_color.h ****     LV_COLOR_SET_G(ret, (uint16_t)((uint16_t) LV_COLOR_GET_G(c1) * mix + LV_COLOR_GET_G(c2) * (255 
 1470              		.loc 3 437 0
 1471 0454 C2F1FF03 		rsb	r3, r2, #255
 1472              	.LVL184:
 1473 0458 9BB2     		uxth	r3, r3
 1474 045a 10FB03F0 		smulbb	r0, r0, r3
 438:..\..\..\lvgl\version_6.1.2\lvgl\src\lv_draw\../lv_misc/lv_color.h ****     LV_COLOR_SET_B(ret, (uint16_t)((uint16_t) LV_COLOR_GET_B(c1) * mix + LV_COLOR_GET_B(c2) * (255 
 1475              		.loc 3 438 0
 1476 045e 11FB03F1 		smulbb	r1, r1, r3
 1477              	.LBE100:
 1478              	.LBE99:
 372:..\..\..\lvgl\version_6.1.2\lvgl\src\lv_draw/lv_draw_basic.c ****                             } else {
 1479              		.loc 1 372 0
 1480 0462 17FB03F3 		smulbb	r3, r7, r3
 1481              	.LBB103:
 1482              	.LBB101:
 437:..\..\..\lvgl\version_6.1.2\lvgl\src\lv_draw\../lv_misc/lv_color.h ****     LV_COLOR_SET_G(ret, (uint16_t)((uint16_t) LV_COLOR_GET_G(c1) * mix + LV_COLOR_GET_G(c2) * (255 
 1483              		.loc 3 437 0
 1484 0466 189F     		ldr	r7, [sp, #96]
 1485 0468 02FB0700 		mla	r0, r2, r7, r0
 438:..\..\..\lvgl\version_6.1.2\lvgl\src\lv_draw\../lv_misc/lv_color.h ****     LV_COLOR_SET_B(ret, (uint16_t)((uint16_t) LV_COLOR_GET_B(c1) * mix + LV_COLOR_GET_B(c2) * (255 
 1486              		.loc 3 438 0
 1487 046c 199F     		ldr	r7, [sp, #100]
 1488 046e 02FB0711 		mla	r1, r2, r7, r1
 1489              	.LBE101:
 1490              	.LBE103:
 372:..\..\..\lvgl\version_6.1.2\lvgl\src\lv_draw/lv_draw_basic.c ****                             } else {
 1491              		.loc 1 372 0
 1492 0472 129F     		ldr	r7, [sp, #72]
 1493              	.LVL185:
 1494 0474 07FB0233 		mla	r3, r7, r2, r3
 1495 0478 C3F30723 		ubfx	r3, r3, #8, #8
 1496              	.LBB104:
 1497              	.LBB102:
 438:..\..\..\lvgl\version_6.1.2\lvgl\src\lv_draw\../lv_misc/lv_color.h ****     LV_COLOR_SET_B(ret, (uint16_t)((uint16_t) LV_COLOR_GET_B(c1) * mix + LV_COLOR_GET_B(c2) * (255 
 1498              		.loc 3 438 0
 1499 047c C1F30722 		ubfx	r2, r1, #8, #8
 1500              	.LVL186:
 437:..\..\..\lvgl\version_6.1.2\lvgl\src\lv_draw\../lv_misc/lv_color.h ****     LV_COLOR_SET_G(ret, (uint16_t)((uint16_t) LV_COLOR_GET_G(c1) * mix + LV_COLOR_GET_G(c2) * (255 
 1501              		.loc 3 437 0
 1502 0480 C0F30720 		ubfx	r0, r0, #8, #8
 1503              	.LVL187:
 1504              	.LBE102:
 1505              	.LBE104:
 372:..\..\..\lvgl\version_6.1.2\lvgl\src\lv_draw/lv_draw_basic.c ****                             } else {
 1506              		.loc 1 372 0
 1507 0484 FF21     		movs	r1, #255
 1508 0486 88F80200 		strb	r0, [r8, #2]
 1509 048a 88F80120 		strb	r2, [r8, #1]
ARM GAS  C:\Users\pearlstl\AppData\Local\Temp\ccmYHcOW.s 			page 54


 1510 048e 88F80030 		strb	r3, [r8]
 1511 0492 88F80310 		strb	r1, [r8, #3]
 1512 0496 9DF88630 		ldrb	r3, [sp, #134]	@ zero_extendqisi2
 1513 049a 2AE7     		b	.L76
 1514              	.LVL188:
 1515              	.L70:
 1516              	.LBE111:
 329:..\..\..\lvgl\version_6.1.2\lvgl\src\lv_draw/lv_draw_basic.c **** 
 1517              		.loc 1 329 0
 1518 049c 0799     		ldr	r1, [sp, #28]
 1519 049e 1598     		ldr	r0, [sp, #84]
 1520 04a0 0144     		add	r1, r1, r0
 1521 04a2 02EB8108 		add	r8, r2, r1, lsl #2
 1522              	.LVL189:
 1523 04a6 B8E6     		b	.L71
 1524              	.LVL190:
 1525              	.L67:
 320:..\..\..\lvgl\version_6.1.2\lvgl\src\lv_draw/lv_draw_basic.c ****         row_end   = pos_y + g.box_h <= mask_p->y2 ? g.box_h : mask_p->y2 - pos_y + 1;
 1526              		.loc 1 320 0 discriminator 1
 1527 04a8 0F98     		ldr	r0, [sp, #60]
 1528 04aa 091A     		subs	r1, r1, r0
 1529 04ac 1098     		ldr	r0, [sp, #64]
 1530 04ae 09B2     		sxth	r1, r1
 1531 04b0 0D91     		str	r1, [sp, #52]
 1532 04b2 0CFB01FC 		mul	ip, ip, r1
 1533              	.LVL191:
 1534 04b6 01FB00F1 		mul	r1, r1, r0
 1535 04ba 0791     		str	r1, [sp, #28]
 1536 04bc 85E6     		b	.L68
 1537              	.LVL192:
 1538              	.L130:
 319:..\..\..\lvgl\version_6.1.2\lvgl\src\lv_draw/lv_draw_basic.c ****         row_start = pos_y >= mask_p->y1 ? 0 : mask_p->y1 - pos_y;
 1539              		.loc 1 319 0 discriminator 1
 1540 04be 0FFA8EFB 		sxth	fp, lr
 1541 04c2 77E6     		b	.L66
 1542              	.LVL193:
 1543              	.L56:
 318:..\..\..\lvgl\version_6.1.2\lvgl\src\lv_draw/lv_draw_basic.c ****         col_end   = pos_x + g.box_w / 3 <= mask_p->x2 ? g.box_w : (mask_p->x2 - pos_x + 1) * 3;
 1544              		.loc 1 318 0
 1545 04c4 8A42     		cmp	r2, r1
 1546 04c6 1CDA     		bge	.L102
 318:..\..\..\lvgl\version_6.1.2\lvgl\src\lv_draw/lv_draw_basic.c ****         col_end   = pos_x + g.box_w / 3 <= mask_p->x2 ? g.box_w : (mask_p->x2 - pos_x + 1) * 3;
 1547              		.loc 1 318 0 is_stmt 0 discriminator 1
 1548 04c8 891A     		subs	r1, r1, r2
 1549 04ca 01EB4101 		add	r1, r1, r1, lsl #1
 1550 04ce 09B2     		sxth	r1, r1
 1551 04d0 1791     		str	r1, [sp, #92]
 1552 04d2 1591     		str	r1, [sp, #84]
 1553 04d4 13FB01F9 		smulbb	r9, r3, r1
 1554              	.L64:
 1555              	.LVL194:
 319:..\..\..\lvgl\version_6.1.2\lvgl\src\lv_draw/lv_draw_basic.c ****         row_start = pos_y >= mask_p->y1 ? 0 : mask_p->y1 - pos_y;
 1556              		.loc 1 319 0 is_stmt 1 discriminator 4
 1557 04d8 0D48     		ldr	r0, .L138
 1558              	.LVL195:
 1559 04da BAF90410 		ldrsh	r1, [r10, #4]
 1560 04de A0FB0E50 		umull	r5, r0, r0, lr
ARM GAS  C:\Users\pearlstl\AppData\Local\Temp\ccmYHcOW.s 			page 55


 1561              	.LVL196:
 1562 04e2 02EB5000 		add	r0, r2, r0, lsr #1
 1563 04e6 8842     		cmp	r0, r1
 1564 04e8 E9DD     		ble	.L130
 319:..\..\..\lvgl\version_6.1.2\lvgl\src\lv_draw/lv_draw_basic.c ****         row_start = pos_y >= mask_p->y1 ? 0 : mask_p->y1 - pos_y;
 1565              		.loc 1 319 0 is_stmt 0 discriminator 2
 1566 04ea 891A     		subs	r1, r1, r2
 1567 04ec 0131     		adds	r1, r1, #1
 1568 04ee 01EB4101 		add	r1, r1, r1, lsl #1
 1569 04f2 0FFA81FB 		sxth	fp, r1
 1570 04f6 5DE6     		b	.L66
 1571              	.LVL197:
 1572              	.L101:
 1573 04f8 0699     		ldr	r1, [sp, #24]
 1574 04fa 1591     		str	r1, [sp, #84]
 1575 04fc 8946     		mov	r9, r1
 313:..\..\..\lvgl\version_6.1.2\lvgl\src\lv_draw/lv_draw_basic.c ****         col_end   = pos_x + g.box_w <= mask_p->x2 ? g.box_w : mask_p->x2 - pos_x + 1;
 1576              		.loc 1 313 0 is_stmt 1
 1577 04fe 1791     		str	r1, [sp, #92]
 1578 0500 4CE6     		b	.L57
 1579              	.L102:
 1580 0502 4FF00009 		mov	r9, #0
 1581 0506 CDF85490 		str	r9, [sp, #84]
 318:..\..\..\lvgl\version_6.1.2\lvgl\src\lv_draw/lv_draw_basic.c ****         col_end   = pos_x + g.box_w / 3 <= mask_p->x2 ? g.box_w : (mask_p->x2 - pos_x + 1) * 3;
 1582              		.loc 1 318 0
 1583 050a CDF85C90 		str	r9, [sp, #92]
 1584 050e E3E7     		b	.L64
 1585              	.L139:
 1586              		.align	2
 1587              	.L138:
 1588 0510 ABAAAAAA 		.word	-1431655765
 1589              		.cfi_endproc
 1590              	.LFE33:
 1591              		.size	lv_draw_letter, .-lv_draw_letter
 1592              		.section	.text.lv_draw_map,"ax",%progbits
 1593              		.align	2
 1594              		.global	lv_draw_map
 1595              		.thumb
 1596              		.thumb_func
 1597              		.type	lv_draw_map, %function
 1598              	lv_draw_map:
 1599              	.LFB34:
 464:..\..\..\lvgl\version_6.1.2\lvgl\src\lv_draw/lv_draw_basic.c **** 
 1600              		.loc 1 464 0
 1601              		.cfi_startproc
 1602              		@ args = 16, pretend = 0, frame = 72
 1603              		@ frame_needed = 0, uses_anonymous_args = 0
 1604              	.LVL198:
 1605 0000 2DE9F04F 		push	{r4, r5, r6, r7, r8, r9, r10, fp, lr}
 1606              		.cfi_def_cfa_offset 36
 1607              		.cfi_offset 4, -36
 1608              		.cfi_offset 5, -32
 1609              		.cfi_offset 6, -28
 1610              		.cfi_offset 7, -24
 1611              		.cfi_offset 8, -20
 1612              		.cfi_offset 9, -16
 1613              		.cfi_offset 10, -12
ARM GAS  C:\Users\pearlstl\AppData\Local\Temp\ccmYHcOW.s 			page 56


 1614              		.cfi_offset 11, -8
 1615              		.cfi_offset 14, -4
 1616 0004 97B0     		sub	sp, sp, #92
 1617              		.cfi_def_cfa_offset 128
 464:..\..\..\lvgl\version_6.1.2\lvgl\src\lv_draw/lv_draw_basic.c **** 
 1618              		.loc 1 464 0
 1619 0006 9A46     		mov	r10, r3
 1620 0008 9DF88030 		ldrb	r3, [sp, #128]	@ zero_extendqisi2
 1621              	.LVL199:
 1622 000c 0593     		str	r3, [sp, #20]
 1623 000e 0446     		mov	r4, r0
 1624 0010 9DF88430 		ldrb	r3, [sp, #132]	@ zero_extendqisi2
 1625 0014 9DF88C00 		ldrb	r0, [sp, #140]	@ zero_extendqisi2
 1626              	.LVL200:
 1627 0018 0493     		str	r3, [sp, #16]
 1628              	.LVL201:
 466:..\..\..\lvgl\version_6.1.2\lvgl\src\lv_draw/lv_draw_basic.c ****     if(opa > LV_OPA_MAX) opa = LV_OPA_COVER;
 1629              		.loc 1 466 0
 1630 001a BAF10F0F 		cmp	r10, #15
 464:..\..\..\lvgl\version_6.1.2\lvgl\src\lv_draw/lv_draw_basic.c **** 
 1631              		.loc 1 464 0
 1632 001e 0C92     		str	r2, [sp, #48]
 1633 0020 229B     		ldr	r3, [sp, #136]
 1634              	.LVL202:
 1635 0022 0890     		str	r0, [sp, #32]
 466:..\..\..\lvgl\version_6.1.2\lvgl\src\lv_draw/lv_draw_basic.c ****     if(opa > LV_OPA_MAX) opa = LV_OPA_COVER;
 1636              		.loc 1 466 0
 1637 0024 10D9     		bls	.L140
 467:..\..\..\lvgl\version_6.1.2\lvgl\src\lv_draw/lv_draw_basic.c **** 
 1638              		.loc 1 467 0
 1639 0026 BAF1FC0F 		cmp	r10, #252
 1640 002a 1646     		mov	r6, r2
 475:..\..\..\lvgl\version_6.1.2\lvgl\src\lv_draw/lv_draw_basic.c **** 
 1641              		.loc 1 475 0
 1642 002c 14A8     		add	r0, sp, #80
 1643 002e 0A46     		mov	r2, r1
 1644              	.LVL203:
 1645 0030 2146     		mov	r1, r4
 1646              	.LVL204:
 467:..\..\..\lvgl\version_6.1.2\lvgl\src\lv_draw/lv_draw_basic.c **** 
 1647              		.loc 1 467 0
 1648 0032 28BF     		it	cs
 1649 0034 4FF0FF0A 		movcs	r10, #255
 1650 0038 DFB2     		uxtb	r7, r3
 1651 003a C3F3072B 		ubfx	fp, r3, #8, #8
 1652 003e C3F30745 		ubfx	r5, r3, #16, #8
 1653              	.LVL205:
 475:..\..\..\lvgl\version_6.1.2\lvgl\src\lv_draw/lv_draw_basic.c **** 
 1654              		.loc 1 475 0
 1655 0042 FFF7FEFF 		bl	lv_area_intersect
 1656              	.LVL206:
 478:..\..\..\lvgl\version_6.1.2\lvgl\src\lv_draw/lv_draw_basic.c **** 
 1657              		.loc 1 478 0
 1658 0046 10B9     		cbnz	r0, .L189
 1659              	.LVL207:
 1660              	.L140:
 630:..\..\..\lvgl\version_6.1.2\lvgl\src\lv_draw/lv_draw_basic.c **** 
ARM GAS  C:\Users\pearlstl\AppData\Local\Temp\ccmYHcOW.s 			page 57


 1661              		.loc 1 630 0
 1662 0048 17B0     		add	sp, sp, #92
 1663              		.cfi_remember_state
 1664              		.cfi_def_cfa_offset 36
 1665              		@ sp needed
 1666 004a BDE8F08F 		pop	{r4, r5, r6, r7, r8, r9, r10, fp, pc}
 1667              	.LVL208:
 1668              	.L189:
 1669              		.cfi_restore_state
 1670              	.LBB136:
 1671              	.LBB137:
 1672              		.loc 2 88 0
 1673 004e A388     		ldrh	r3, [r4, #4]
 1674 0050 B4F90010 		ldrsh	r1, [r4]
 1675              	.LVL209:
 1676              	.LBE137:
 1677              	.LBE136:
 485:..\..\..\lvgl\version_6.1.2\lvgl\src\lv_draw/lv_draw_basic.c ****         map_p += (uint32_t)map_width * ((masked_a.y1 - cords_p->y1)) * px_size_byte;
 1678              		.loc 1 485 0
 1679 0054 B4F90200 		ldrsh	r0, [r4, #2]
 1680              	.LVL210:
 1681 0058 BDF95220 		ldrsh	r2, [sp, #82]
 1682              	.LBB140:
 1683              	.LBB138:
 1684              		.loc 2 88 0
 1685 005c 0133     		adds	r3, r3, #1
 1686 005e 5B1A     		subs	r3, r3, r1
 1687 0060 1BB2     		sxth	r3, r3
 1688              	.LBE138:
 1689              	.LBE140:
 485:..\..\..\lvgl\version_6.1.2\lvgl\src\lv_draw/lv_draw_basic.c ****         map_p += (uint32_t)map_width * ((masked_a.y1 - cords_p->y1)) * px_size_byte;
 1690              		.loc 1 485 0
 1691 0062 9042     		cmp	r0, r2
 1692              	.LBB141:
 1693              	.LBB139:
 1694              		.loc 2 88 0
 1695 0064 1C46     		mov	r4, r3
 1696              	.LVL211:
 1697 0066 0693     		str	r3, [sp, #24]
 1698              	.LBE139:
 1699              	.LBE141:
 485:..\..\..\lvgl\version_6.1.2\lvgl\src\lv_draw/lv_draw_basic.c ****         map_p += (uint32_t)map_width * ((masked_a.y1 - cords_p->y1)) * px_size_byte;
 1700              		.loc 1 485 0
 1701 0068 04DA     		bge	.L143
 486:..\..\..\lvgl\version_6.1.2\lvgl\src\lv_draw/lv_draw_basic.c ****     }
 1702              		.loc 1 486 0
 1703 006a 131A     		subs	r3, r2, r0
 1704 006c 9B00     		lsls	r3, r3, #2
 1705 006e 04FB0363 		mla	r3, r4, r3, r6
 1706 0072 0C93     		str	r3, [sp, #48]
 1707              	.LVL212:
 1708              	.L143:
 488:..\..\..\lvgl\version_6.1.2\lvgl\src\lv_draw/lv_draw_basic.c ****         map_p += (masked_a.x1 - cords_p->x1) * px_size_byte;
 1709              		.loc 1 488 0
 1710 0074 BDF95030 		ldrsh	r3, [sp, #80]
 1711 0078 8B42     		cmp	r3, r1
 1712 007a 04DD     		ble	.L144
ARM GAS  C:\Users\pearlstl\AppData\Local\Temp\ccmYHcOW.s 			page 58


 489:..\..\..\lvgl\version_6.1.2\lvgl\src\lv_draw/lv_draw_basic.c ****     }
 1713              		.loc 1 489 0
 1714 007c 0C9A     		ldr	r2, [sp, #48]
 1715 007e 5B1A     		subs	r3, r3, r1
 1716 0080 02EB8303 		add	r3, r2, r3, lsl #2
 1717 0084 0C93     		str	r3, [sp, #48]
 1718              	.LVL213:
 1719              	.L144:
 492:..\..\..\lvgl\version_6.1.2\lvgl\src\lv_draw/lv_draw_basic.c ****     lv_disp_buf_t * vdb = lv_disp_get_buf(disp);
 1720              		.loc 1 492 0
 1721 0086 FFF7FEFF 		bl	lv_refr_get_disp_refreshing
 1722              	.LVL214:
 1723 008a 8046     		mov	r8, r0
 1724              	.LVL215:
 493:..\..\..\lvgl\version_6.1.2\lvgl\src\lv_draw/lv_draw_basic.c **** 
 1725              		.loc 1 493 0
 1726 008c FFF7FEFF 		bl	lv_disp_get_buf
 1727              	.LVL216:
 1728 0090 0446     		mov	r4, r0
 496:..\..\..\lvgl\version_6.1.2\lvgl\src\lv_draw/lv_draw_basic.c ****     masked_a.y1 = masked_a.y1 - vdb->area.y1;
 1729              		.loc 1 496 0
 1730 0092 0346     		mov	r3, r0
 1731 0094 BDF85010 		ldrh	r1, [sp, #80]
 1732 0098 008A     		ldrh	r0, [r0, #16]
 1733              	.LVL217:
 498:..\..\..\lvgl\version_6.1.2\lvgl\src\lv_draw/lv_draw_basic.c ****     masked_a.y2 = masked_a.y2 - vdb->area.y1;
 1734              		.loc 1 498 0
 1735 009a BDF85420 		ldrh	r2, [sp, #84]
 1736              	.LBB142:
 1737              	.LBB143:
 1738              		.loc 2 88 0
 1739 009e A48A     		ldrh	r4, [r4, #20]
 1740              	.LBE143:
 1741              	.LBE142:
 497:..\..\..\lvgl\version_6.1.2\lvgl\src\lv_draw/lv_draw_basic.c ****     masked_a.x2 = masked_a.x2 - vdb->area.x1;
 1742              		.loc 1 497 0
 1743 00a0 0B93     		str	r3, [sp, #44]
 1744 00a2 BDF85260 		ldrh	r6, [sp, #82]
 1745 00a6 5B8A     		ldrh	r3, [r3, #18]
 1746              	.LVL218:
 499:..\..\..\lvgl\version_6.1.2\lvgl\src\lv_draw/lv_draw_basic.c **** 
 1747              		.loc 1 499 0
 1748 00a8 BDF856E0 		ldrh	lr, [sp, #86]
 496:..\..\..\lvgl\version_6.1.2\lvgl\src\lv_draw/lv_draw_basic.c ****     masked_a.y1 = masked_a.y1 - vdb->area.y1;
 1749              		.loc 1 496 0
 1750 00ac 091A     		subs	r1, r1, r0
 498:..\..\..\lvgl\version_6.1.2\lvgl\src\lv_draw/lv_draw_basic.c ****     masked_a.y2 = masked_a.y2 - vdb->area.y1;
 1751              		.loc 1 498 0
 1752 00ae 121A     		subs	r2, r2, r0
 1753              	.LBB146:
 1754              	.LBB144:
 1755              		.loc 2 88 0
 1756 00b0 C0F10100 		rsb	r0, r0, #1
 1757 00b4 2044     		add	r0, r0, r4
 1758              	.LBE144:
 1759              	.LBE146:
 497:..\..\..\lvgl\version_6.1.2\lvgl\src\lv_draw/lv_draw_basic.c ****     masked_a.x2 = masked_a.x2 - vdb->area.x1;
ARM GAS  C:\Users\pearlstl\AppData\Local\Temp\ccmYHcOW.s 			page 59


 1760              		.loc 1 497 0
 1761 00b6 F61A     		subs	r6, r6, r3
 1762              	.LBB147:
 1763              	.LBB145:
 1764              		.loc 2 88 0
 1765 00b8 00B2     		sxth	r0, r0
 1766 00ba 0A90     		str	r0, [sp, #40]
 1767              	.LBE145:
 1768              	.LBE147:
 497:..\..\..\lvgl\version_6.1.2\lvgl\src\lv_draw/lv_draw_basic.c ****     masked_a.x2 = masked_a.x2 - vdb->area.x1;
 1769              		.loc 1 497 0
 1770 00bc 30B2     		sxth	r0, r6
 1771 00be 0990     		str	r0, [sp, #36]
 499:..\..\..\lvgl\version_6.1.2\lvgl\src\lv_draw/lv_draw_basic.c **** 
 1772              		.loc 1 499 0
 1773 00c0 C3EB0E00 		rsb	r0, r3, lr
 504:..\..\..\lvgl\version_6.1.2\lvgl\src\lv_draw/lv_draw_basic.c **** 
 1774              		.loc 1 504 0
 1775 00c4 099B     		ldr	r3, [sp, #36]
 502:..\..\..\lvgl\version_6.1.2\lvgl\src\lv_draw/lv_draw_basic.c ****     vdb_buf_tmp += (uint32_t)vdb_width * masked_a.y1; /*Move to the first row*/
 1776              		.loc 1 502 0
 1777 00c6 0B9E     		ldr	r6, [sp, #44]
 498:..\..\..\lvgl\version_6.1.2\lvgl\src\lv_draw/lv_draw_basic.c ****     masked_a.y2 = masked_a.y2 - vdb->area.y1;
 1778              		.loc 1 498 0
 1779 00c8 92B2     		uxth	r2, r2
 1780              	.LBB148:
 1781              	.LBB149:
 1782              		.loc 2 88 0
 1783 00ca 02F10109 		add	r9, r2, #1
 1784              	.LBE149:
 1785              	.LBE148:
 496:..\..\..\lvgl\version_6.1.2\lvgl\src\lv_draw/lv_draw_basic.c ****     masked_a.y1 = masked_a.y1 - vdb->area.y1;
 1786              		.loc 1 496 0
 1787 00ce 89B2     		uxth	r1, r1
 504:..\..\..\lvgl\version_6.1.2\lvgl\src\lv_draw/lv_draw_basic.c **** 
 1788              		.loc 1 504 0
 1789 00d0 9E46     		mov	lr, r3
 498:..\..\..\lvgl\version_6.1.2\lvgl\src\lv_draw/lv_draw_basic.c ****     masked_a.y2 = masked_a.y2 - vdb->area.y1;
 1790              		.loc 1 498 0
 1791 00d2 ADF85420 		strh	r2, [sp, #84]	@ movhi
 504:..\..\..\lvgl\version_6.1.2\lvgl\src\lv_draw/lv_draw_basic.c **** 
 1792              		.loc 1 504 0
 1793 00d6 0A9B     		ldr	r3, [sp, #40]
 497:..\..\..\lvgl\version_6.1.2\lvgl\src\lv_draw/lv_draw_basic.c ****     masked_a.x2 = masked_a.x2 - vdb->area.x1;
 1794              		.loc 1 497 0
 1795 00d8 BDF82420 		ldrh	r2, [sp, #36]
 502:..\..\..\lvgl\version_6.1.2\lvgl\src\lv_draw/lv_draw_basic.c ****     vdb_buf_tmp += (uint32_t)vdb_width * masked_a.y1; /*Move to the first row*/
 1796              		.loc 1 502 0
 1797 00dc B668     		ldr	r6, [r6, #8]
 497:..\..\..\lvgl\version_6.1.2\lvgl\src\lv_draw/lv_draw_basic.c ****     masked_a.x2 = masked_a.x2 - vdb->area.x1;
 1798              		.loc 1 497 0
 1799 00de ADF85220 		strh	r2, [sp, #82]	@ movhi
 496:..\..\..\lvgl\version_6.1.2\lvgl\src\lv_draw/lv_draw_basic.c ****     masked_a.y1 = masked_a.y1 - vdb->area.y1;
 1800              		.loc 1 496 0
 1801 00e2 0CB2     		sxth	r4, r1
 515:..\..\..\lvgl\version_6.1.2\lvgl\src\lv_draw/lv_draw_basic.c **** 
 1802              		.loc 1 515 0
ARM GAS  C:\Users\pearlstl\AppData\Local\Temp\ccmYHcOW.s 			page 60


 1803 00e4 059A     		ldr	r2, [sp, #20]
 496:..\..\..\lvgl\version_6.1.2\lvgl\src\lv_draw/lv_draw_basic.c ****     masked_a.y1 = masked_a.y1 - vdb->area.y1;
 1804              		.loc 1 496 0
 1805 00e6 ADF85040 		strh	r4, [sp, #80]	@ movhi
 1806              	.LBB152:
 1807              	.LBB150:
 1808              		.loc 2 88 0
 1809 00ea C1EB0901 		rsb	r1, r1, r9
 1810              	.LBE150:
 1811              	.LBE152:
 504:..\..\..\lvgl\version_6.1.2\lvgl\src\lv_draw/lv_draw_basic.c **** 
 1812              		.loc 1 504 0
 1813 00ee 03FB0E43 		mla	r3, r3, lr, r4
 499:..\..\..\lvgl\version_6.1.2\lvgl\src\lv_draw/lv_draw_basic.c **** 
 1814              		.loc 1 499 0
 1815 00f2 00B2     		sxth	r0, r0
 1816              	.LBB153:
 1817              	.LBB151:
 1818              		.loc 2 88 0
 1819 00f4 0FFA81F9 		sxth	r9, r1
 1820              	.LBE151:
 1821              	.LBE153:
 504:..\..\..\lvgl\version_6.1.2\lvgl\src\lv_draw/lv_draw_basic.c **** 
 1822              		.loc 1 504 0
 1823 00f8 06EB8303 		add	r3, r6, r3, lsl #2
 499:..\..\..\lvgl\version_6.1.2\lvgl\src\lv_draw/lv_draw_basic.c **** 
 1824              		.loc 1 499 0
 1825 00fc ADF85600 		strh	r0, [sp, #86]	@ movhi
 1826              	.LVL219:
 515:..\..\..\lvgl\version_6.1.2\lvgl\src\lv_draw/lv_draw_basic.c **** 
 1827              		.loc 1 515 0
 1828 0100 002A     		cmp	r2, #0
 1829 0102 00F01881 		beq	.L190
 1830              	.L145:
 1831              	.LBB154:
 1832              	.LBB155:
 1833              	.LBB156:
 437:..\..\..\lvgl\version_6.1.2\lvgl\src\lv_draw\../lv_misc/lv_color.h ****     LV_COLOR_SET_G(ret, (uint16_t)((uint16_t) LV_COLOR_GET_G(c1) * mix + LV_COLOR_GET_G(c2) * (255 
 1834              		.loc 3 437 0
 1835 0106 089E     		ldr	r6, [sp, #32]
 1836 0108 B2B2     		uxth	r2, r6
 1837              		.loc 3 439 0
 1838 010a 07FB02F1 		mul	r1, r7, r2
 438:..\..\..\lvgl\version_6.1.2\lvgl\src\lv_draw\../lv_misc/lv_color.h ****     LV_COLOR_SET_B(ret, (uint16_t)((uint16_t) LV_COLOR_GET_B(c1) * mix + LV_COLOR_GET_B(c2) * (255 
 1839              		.loc 3 438 0
 1840 010e 0BFB02F4 		mul	r4, fp, r2
 1841              		.loc 3 439 0
 1842 0112 1091     		str	r1, [sp, #64]
 437:..\..\..\lvgl\version_6.1.2\lvgl\src\lv_draw\../lv_misc/lv_color.h ****     LV_COLOR_SET_G(ret, (uint16_t)((uint16_t) LV_COLOR_GET_G(c1) * mix + LV_COLOR_GET_G(c2) * (255 
 1843              		.loc 3 437 0
 1844 0114 05FB02F2 		mul	r2, r5, r2
 1845 0118 090A     		lsrs	r1, r1, #8
 1846 011a 0027     		movs	r7, #0
 1847              	.LVL220:
 1848 011c 1546     		mov	r5, r2
 1849 011e 61F30707 		bfi	r7, r1, #0, #8
 1850              	.LVL221:
ARM GAS  C:\Users\pearlstl\AppData\Local\Temp\ccmYHcOW.s 			page 61


 1851 0122 0E92     		str	r2, [sp, #56]
 1852 0124 220A     		lsrs	r2, r4, #8
 1853 0126 62F30F27 		bfi	r7, r2, #8, #8
 1854 012a 2A0A     		lsrs	r2, r5, #8
 1855 012c 62F31747 		bfi	r7, r2, #16, #8
 1856 0130 C6F1FF02 		rsb	r2, r6, #255
 1857 0134 92B2     		uxth	r2, r2
 1858 0136 0792     		str	r2, [sp, #28]
 1859              	.LBE156:
 1860              	.LBE155:
 553:..\..\..\lvgl\version_6.1.2\lvgl\src\lv_draw/lv_draw_basic.c ****             for(col = 0; col < map_useful_w; col++) {
 1861              		.loc 1 553 0
 1862 0138 099A     		ldr	r2, [sp, #36]
 1863              	.LBB158:
 1864              	.LBB157:
 438:..\..\..\lvgl\version_6.1.2\lvgl\src\lv_draw\../lv_misc/lv_color.h ****     LV_COLOR_SET_B(ret, (uint16_t)((uint16_t) LV_COLOR_GET_B(c1) * mix + LV_COLOR_GET_B(c2) * (255 
 1865              		.loc 3 438 0
 1866 013a 0F94     		str	r4, [sp, #60]
 1867              	.LBE157:
 1868              	.LBE158:
 551:..\..\..\lvgl\version_6.1.2\lvgl\src\lv_draw/lv_draw_basic.c ****         lv_color_t recolored_px = lv_color_mix(recolor, last_img_px, recolor_opa);
 1869              		.loc 1 551 0
 1870 013c 4FF07F41 		mov	r1, #-16777216
 553:..\..\..\lvgl\version_6.1.2\lvgl\src\lv_draw/lv_draw_basic.c ****             for(col = 0; col < map_useful_w; col++) {
 1871              		.loc 1 553 0
 1872 0140 8242     		cmp	r2, r0
 1873 0142 47EA0107 		orr	r7, r7, r1
 1874              	.LVL222:
 551:..\..\..\lvgl\version_6.1.2\lvgl\src\lv_draw/lv_draw_basic.c ****         lv_color_t recolored_px = lv_color_mix(recolor, last_img_px, recolor_opa);
 1875              		.loc 1 551 0
 1876 0146 1391     		str	r1, [sp, #76]
 1877              	.LVL223:
 553:..\..\..\lvgl\version_6.1.2\lvgl\src\lv_draw/lv_draw_basic.c ****             for(col = 0; col < map_useful_w; col++) {
 1878              		.loc 1 553 0
 1879 0148 3FF77EAF 		bgt	.L140
 1880 014c 069A     		ldr	r2, [sp, #24]
 1881 014e CDF818A0 		str	r10, [sp, #24]
 1882 0152 9200     		lsls	r2, r2, #2
 1883 0154 0333     		adds	r3, r3, #3
 1884              	.LVL224:
 1885 0156 DDF810A0 		ldr	r10, [sp, #16]
 1886              	.LVL225:
 1887 015a 1192     		str	r2, [sp, #68]
 1888 015c 0D93     		str	r3, [sp, #52]
 1889              	.LVL226:
 1890              	.L155:
 554:..\..\..\lvgl\version_6.1.2\lvgl\src\lv_draw/lv_draw_basic.c ****                 lv_opa_t opa_result  = opa;
 1891              		.loc 1 554 0 discriminator 1
 1892 015e B9F1000F 		cmp	r9, #0
 1893 0162 61DD     		ble	.L170
 1894 0164 0C9D     		ldr	r5, [sp, #48]
 554:..\..\..\lvgl\version_6.1.2\lvgl\src\lv_draw/lv_draw_basic.c ****                 lv_opa_t opa_result  = opa;
 1895              		.loc 1 554 0 is_stmt 0
 1896 0166 0D9E     		ldr	r6, [sp, #52]
 1897              	.LVL227:
 1898 0168 0497     		str	r7, [sp, #16]
 1899 016a 0024     		movs	r4, #0
ARM GAS  C:\Users\pearlstl\AppData\Local\Temp\ccmYHcOW.s 			page 62


 1900              	.LVL228:
 1901              	.L168:
 1902              	.LBB159:
 560:..\..\..\lvgl\version_6.1.2\lvgl\src\lv_draw/lv_draw_basic.c **** #if LV_COLOR_DEPTH == 8 || LV_COLOR_DEPTH == 1
 1903              		.loc 1 560 0 is_stmt 1
 1904 016c BAF1000F 		cmp	r10, #0
 1905 0170 6CD0     		beq	.L156
 1906              	.LBB160:
 570:..\..\..\lvgl\version_6.1.2\lvgl\src\lv_draw/lv_draw_basic.c ****                     if(px_opa == LV_OPA_TRANSP)
 1907              		.loc 1 570 0
 1908 0172 EB78     		ldrb	r3, [r5, #3]	@ zero_extendqisi2
 1909              	.LVL229:
 568:..\..\..\lvgl\version_6.1.2\lvgl\src\lv_draw/lv_draw_basic.c **** #endif
 1910              		.loc 1 568 0
 1911 0174 2A68     		ldr	r2, [r5]
 1912              	.LVL230:
 571:..\..\..\lvgl\version_6.1.2\lvgl\src\lv_draw/lv_draw_basic.c ****                         continue;
 1913              		.loc 1 571 0
 1914 0176 002B     		cmp	r3, #0
 1915 0178 4BD0     		beq	.L167
 573:..\..\..\lvgl\version_6.1.2\lvgl\src\lv_draw/lv_draw_basic.c ****                         opa_result = (uint32_t)((uint32_t)px_opa * opa_result) >> 8;
 1916              		.loc 1 573 0
 1917 017a FF2B     		cmp	r3, #255
 1918 017c 00F0D280 		beq	.L173
 574:..\..\..\lvgl\version_6.1.2\lvgl\src\lv_draw/lv_draw_basic.c ****                 } else {
 1919              		.loc 1 574 0
 1920 0180 BDF81810 		ldrh	r1, [sp, #24]
 1921 0184 13FB01F3 		smulbb	r3, r3, r1
 1922              	.LVL231:
 1923 0188 C3F30723 		ubfx	r3, r3, #8, #8
 1924              	.LVL232:
 1925              	.L158:
 1926              	.LBE160:
 580:..\..\..\lvgl\version_6.1.2\lvgl\src\lv_draw/lv_draw_basic.c **** 
 1927              		.loc 1 580 0
 1928 018c 0599     		ldr	r1, [sp, #20]
 1929 018e 19B1     		cbz	r1, .L159
 580:..\..\..\lvgl\version_6.1.2\lvgl\src\lv_draw/lv_draw_basic.c **** 
 1930              		.loc 1 580 0 is_stmt 0 discriminator 1
 1931 0190 D8F81C10 		ldr	r1, [r8, #28]
 1932              	.LVL233:
 1933 0194 8A42     		cmp	r2, r1
 1934 0196 3CD0     		beq	.L167
 1935              	.L159:
 583:..\..\..\lvgl\version_6.1.2\lvgl\src\lv_draw/lv_draw_basic.c ****                     if(last_img_px.full != px_color.full) { /*Minor acceleration: calculate only fo
 1936              		.loc 1 583 0 is_stmt 1
 1937 0198 0899     		ldr	r1, [sp, #32]
 1938 019a 0029     		cmp	r1, #0
 1939 019c 59D0     		beq	.L160
 584:..\..\..\lvgl\version_6.1.2\lvgl\src\lv_draw/lv_draw_basic.c ****                                                                new colors (save the last)*/
 1940              		.loc 1 584 0
 1941 019e 1399     		ldr	r1, [sp, #76]
 1942 01a0 9142     		cmp	r1, r2
 1943 01a2 23D0     		beq	.L161
 1944 01a4 079F     		ldr	r7, [sp, #28]
 1945 01a6 1098     		ldr	r0, [sp, #64]
 586:..\..\..\lvgl\version_6.1.2\lvgl\src\lv_draw/lv_draw_basic.c ****                         recolored_px = lv_color_mix(recolor, last_img_px, recolor_opa);
ARM GAS  C:\Users\pearlstl\AppData\Local\Temp\ccmYHcOW.s 			page 63


 1946              		.loc 1 586 0
 1947 01a8 1392     		str	r2, [sp, #76]
 1948 01aa D1B2     		uxtb	r1, r2
 1949 01ac 07FB0101 		mla	r1, r7, r1, r0
 1950              	.LBB161:
 1951              	.LBB162:
 438:..\..\..\lvgl\version_6.1.2\lvgl\src\lv_draw\../lv_misc/lv_color.h ****     LV_COLOR_SET_B(ret, (uint16_t)((uint16_t) LV_COLOR_GET_B(c1) * mix + LV_COLOR_GET_B(c2) * (255 
 1952              		.loc 3 438 0
 1953 01b0 BE46     		mov	lr, r7
 1954              	.LVL234:
 1955 01b2 0F9F     		ldr	r7, [sp, #60]
 1956 01b4 C2F30720 		ubfx	r0, r2, #8, #8
 1957 01b8 0EFB0070 		mla	r0, lr, r0, r7
 1958 01bc 049F     		ldr	r7, [sp, #16]
 1959 01be C1F30721 		ubfx	r1, r1, #8, #8
 1960 01c2 61F30707 		bfi	r7, r1, #0, #8
 1961              	.LVL235:
 1962 01c6 0497     		str	r7, [sp, #16]
 437:..\..\..\lvgl\version_6.1.2\lvgl\src\lv_draw\../lv_misc/lv_color.h ****     LV_COLOR_SET_G(ret, (uint16_t)((uint16_t) LV_COLOR_GET_G(c1) * mix + LV_COLOR_GET_G(c2) * (255 
 1963              		.loc 3 437 0
 1964 01c8 0E9F     		ldr	r7, [sp, #56]
 1965              	.LVL236:
 1966 01ca C2F30741 		ubfx	r1, r2, #16, #8
 1967 01ce 0EFB0171 		mla	r1, lr, r1, r7
 1968 01d2 049F     		ldr	r7, [sp, #16]
 438:..\..\..\lvgl\version_6.1.2\lvgl\src\lv_draw\../lv_misc/lv_color.h ****     LV_COLOR_SET_B(ret, (uint16_t)((uint16_t) LV_COLOR_GET_B(c1) * mix + LV_COLOR_GET_B(c2) * (255 
 1969              		.loc 3 438 0
 1970 01d4 C0F30720 		ubfx	r0, r0, #8, #8
 1971 01d8 60F30F27 		bfi	r7, r0, #8, #8
 1972              	.LVL237:
 1973 01dc 3846     		mov	r0, r7
 437:..\..\..\lvgl\version_6.1.2\lvgl\src\lv_draw\../lv_misc/lv_color.h ****     LV_COLOR_SET_G(ret, (uint16_t)((uint16_t) LV_COLOR_GET_G(c1) * mix + LV_COLOR_GET_G(c2) * (255 
 1974              		.loc 3 437 0
 1975 01de C1F30721 		ubfx	r1, r1, #8, #8
 1976 01e2 61F31740 		bfi	r0, r1, #16, #8
 1977              	.LVL238:
 1978 01e6 40F07F42 		orr	r2, r0, #-16777216
 1979              	.LVL239:
 1980 01ea 0492     		str	r2, [sp, #16]
 1981              	.LVL240:
 1982              	.L161:
 1983              	.LBE162:
 1984              	.LBE161:
 590:..\..\..\lvgl\version_6.1.2\lvgl\src\lv_draw/lv_draw_basic.c ****                         disp->driver.set_px_cb(&disp->driver, (uint8_t *)vdb->buf_act, vdb_width, c
 1985              		.loc 1 590 0
 1986 01ec D8F814B0 		ldr	fp, [r8, #20]
 1987 01f0 BBF1000F 		cmp	fp, #0
 1988 01f4 3AD0     		beq	.L162
 591:..\..\..\lvgl\version_6.1.2\lvgl\src\lv_draw/lv_draw_basic.c ****                                                row, recolored_px, opa_result);
 1989              		.loc 1 591 0
 1990 01f6 BDF85020 		ldrh	r2, [sp, #80]
 1991              	.LVL241:
 1992 01fa 0B99     		ldr	r1, [sp, #44]
 1993 01fc 8968     		ldr	r1, [r1, #8]
 1994 01fe 0293     		str	r3, [sp, #8]
 1995 0200 A318     		adds	r3, r4, r2
 1996              	.LVL242:
ARM GAS  C:\Users\pearlstl\AppData\Local\Temp\ccmYHcOW.s 			page 64


 1997 0202 049A     		ldr	r2, [sp, #16]
 1998              	.LVL243:
 1999 0204 1BB2     		sxth	r3, r3
 2000              	.LVL244:
 2001              	.L187:
