ARM GAS  C:\Users\pearlstl\AppData\Local\Temp\ccVE6Vs6.s 			page 1


   1              		.syntax unified
   2              		.cpu cortex-m4
   3              		.eabi_attribute 27, 1
   4              		.fpu fpv4-sp-d16
   5              		.eabi_attribute 20, 1
   6              		.eabi_attribute 21, 1
   7              		.eabi_attribute 23, 3
   8              		.eabi_attribute 24, 1
   9              		.eabi_attribute 25, 1
  10              		.eabi_attribute 26, 1
  11              		.eabi_attribute 30, 2
  12              		.eabi_attribute 34, 1
  13              		.eabi_attribute 18, 4
  14              		.thumb
  15              		.syntax unified
  16              		.file	"lv_draw_triangle.c"
  17              		.text
  18              	.Ltext0:
  19              		.cfi_sections	.debug_frame
  20              		.section	.text.tri_draw_flat,"ax",%progbits
  21              		.align	2
  22              		.global	tri_draw_flat
  23              		.thumb
  24              		.thumb_func
  25              		.type	tri_draw_flat, %function
  26              	tri_draw_flat:
  27              	.LFB33:
  28              		.file 1 "..\\..\\..\\lvgl\\version_6.1.2\\lvgl\\src\\lv_draw\\lv_draw_triangle.c"
   1:..\..\..\lvgl\version_6.1.2\lvgl\src\lv_draw/lv_draw_triangle.c **** /**
   2:..\..\..\lvgl\version_6.1.2\lvgl\src\lv_draw/lv_draw_triangle.c ****  * @file lv_draw_triangle.c
   3:..\..\..\lvgl\version_6.1.2\lvgl\src\lv_draw/lv_draw_triangle.c ****  *
   4:..\..\..\lvgl\version_6.1.2\lvgl\src\lv_draw/lv_draw_triangle.c ****  */
   5:..\..\..\lvgl\version_6.1.2\lvgl\src\lv_draw/lv_draw_triangle.c **** 
   6:..\..\..\lvgl\version_6.1.2\lvgl\src\lv_draw/lv_draw_triangle.c **** /*********************
   7:..\..\..\lvgl\version_6.1.2\lvgl\src\lv_draw/lv_draw_triangle.c ****  *      INCLUDES
   8:..\..\..\lvgl\version_6.1.2\lvgl\src\lv_draw/lv_draw_triangle.c ****  *********************/
   9:..\..\..\lvgl\version_6.1.2\lvgl\src\lv_draw/lv_draw_triangle.c **** #include "lv_draw_triangle.h"
  10:..\..\..\lvgl\version_6.1.2\lvgl\src\lv_draw/lv_draw_triangle.c **** #include "../lv_misc/lv_math.h"
  11:..\..\..\lvgl\version_6.1.2\lvgl\src\lv_draw/lv_draw_triangle.c **** 
  12:..\..\..\lvgl\version_6.1.2\lvgl\src\lv_draw/lv_draw_triangle.c **** /*********************
  13:..\..\..\lvgl\version_6.1.2\lvgl\src\lv_draw/lv_draw_triangle.c ****  *      DEFINES
  14:..\..\..\lvgl\version_6.1.2\lvgl\src\lv_draw/lv_draw_triangle.c ****  *********************/
  15:..\..\..\lvgl\version_6.1.2\lvgl\src\lv_draw/lv_draw_triangle.c **** 
  16:..\..\..\lvgl\version_6.1.2\lvgl\src\lv_draw/lv_draw_triangle.c **** /**********************
  17:..\..\..\lvgl\version_6.1.2\lvgl\src\lv_draw/lv_draw_triangle.c ****  *      TYPEDEFS
  18:..\..\..\lvgl\version_6.1.2\lvgl\src\lv_draw/lv_draw_triangle.c ****  **********************/
  19:..\..\..\lvgl\version_6.1.2\lvgl\src\lv_draw/lv_draw_triangle.c **** 
  20:..\..\..\lvgl\version_6.1.2\lvgl\src\lv_draw/lv_draw_triangle.c **** /**********************
  21:..\..\..\lvgl\version_6.1.2\lvgl\src\lv_draw/lv_draw_triangle.c ****  *  STATIC PROTOTYPES
  22:..\..\..\lvgl\version_6.1.2\lvgl\src\lv_draw/lv_draw_triangle.c ****  **********************/
  23:..\..\..\lvgl\version_6.1.2\lvgl\src\lv_draw/lv_draw_triangle.c **** void tri_draw_flat(const lv_point_t * points, const lv_area_t * mask, const lv_style_t * style, lv_
  24:..\..\..\lvgl\version_6.1.2\lvgl\src\lv_draw/lv_draw_triangle.c **** void tri_draw_tall(const lv_point_t * points, const lv_area_t * mask, const lv_style_t * style, lv_
  25:..\..\..\lvgl\version_6.1.2\lvgl\src\lv_draw/lv_draw_triangle.c **** static void point_swap(lv_point_t * p1, lv_point_t * p2);
  26:..\..\..\lvgl\version_6.1.2\lvgl\src\lv_draw/lv_draw_triangle.c **** 
  27:..\..\..\lvgl\version_6.1.2\lvgl\src\lv_draw/lv_draw_triangle.c **** /**********************
  28:..\..\..\lvgl\version_6.1.2\lvgl\src\lv_draw/lv_draw_triangle.c ****  *  STATIC VARIABLES
  29:..\..\..\lvgl\version_6.1.2\lvgl\src\lv_draw/lv_draw_triangle.c ****  **********************/
ARM GAS  C:\Users\pearlstl\AppData\Local\Temp\ccVE6Vs6.s 			page 2


  30:..\..\..\lvgl\version_6.1.2\lvgl\src\lv_draw/lv_draw_triangle.c **** 
  31:..\..\..\lvgl\version_6.1.2\lvgl\src\lv_draw/lv_draw_triangle.c **** /**********************
  32:..\..\..\lvgl\version_6.1.2\lvgl\src\lv_draw/lv_draw_triangle.c ****  *      MACROS
  33:..\..\..\lvgl\version_6.1.2\lvgl\src\lv_draw/lv_draw_triangle.c ****  **********************/
  34:..\..\..\lvgl\version_6.1.2\lvgl\src\lv_draw/lv_draw_triangle.c **** 
  35:..\..\..\lvgl\version_6.1.2\lvgl\src\lv_draw/lv_draw_triangle.c **** /**********************
  36:..\..\..\lvgl\version_6.1.2\lvgl\src\lv_draw/lv_draw_triangle.c ****  *   GLOBAL FUNCTIONS
  37:..\..\..\lvgl\version_6.1.2\lvgl\src\lv_draw/lv_draw_triangle.c ****  **********************/
  38:..\..\..\lvgl\version_6.1.2\lvgl\src\lv_draw/lv_draw_triangle.c **** 
  39:..\..\..\lvgl\version_6.1.2\lvgl\src\lv_draw/lv_draw_triangle.c **** /**
  40:..\..\..\lvgl\version_6.1.2\lvgl\src\lv_draw/lv_draw_triangle.c ****  *
  41:..\..\..\lvgl\version_6.1.2\lvgl\src\lv_draw/lv_draw_triangle.c ****  * @param points pointer to an array with 3 points
  42:..\..\..\lvgl\version_6.1.2\lvgl\src\lv_draw/lv_draw_triangle.c ****  * @param mask the triangle will be drawn only in this mask
  43:..\..\..\lvgl\version_6.1.2\lvgl\src\lv_draw/lv_draw_triangle.c ****  * @param style style for of the triangle
  44:..\..\..\lvgl\version_6.1.2\lvgl\src\lv_draw/lv_draw_triangle.c ****  * @param opa_scale scale down all opacities by the factor (0..255)
  45:..\..\..\lvgl\version_6.1.2\lvgl\src\lv_draw/lv_draw_triangle.c ****  */
  46:..\..\..\lvgl\version_6.1.2\lvgl\src\lv_draw/lv_draw_triangle.c **** void lv_draw_triangle(const lv_point_t * points, const lv_area_t * mask, const lv_style_t * style, 
  47:..\..\..\lvgl\version_6.1.2\lvgl\src\lv_draw/lv_draw_triangle.c **** {
  48:..\..\..\lvgl\version_6.1.2\lvgl\src\lv_draw/lv_draw_triangle.c ****     /*Return if the triangle is degenerated*/
  49:..\..\..\lvgl\version_6.1.2\lvgl\src\lv_draw/lv_draw_triangle.c ****     if(points[0].x == points[1].x && points[0].y == points[1].y) return;
  50:..\..\..\lvgl\version_6.1.2\lvgl\src\lv_draw/lv_draw_triangle.c ****     if(points[1].x == points[2].x && points[1].y == points[2].y) return;
  51:..\..\..\lvgl\version_6.1.2\lvgl\src\lv_draw/lv_draw_triangle.c ****     if(points[0].x == points[2].x && points[0].y == points[2].y) return;
  52:..\..\..\lvgl\version_6.1.2\lvgl\src\lv_draw/lv_draw_triangle.c **** 
  53:..\..\..\lvgl\version_6.1.2\lvgl\src\lv_draw/lv_draw_triangle.c ****     if(points[0].x == points[1].x && points[1].x == points[2].x) return;
  54:..\..\..\lvgl\version_6.1.2\lvgl\src\lv_draw/lv_draw_triangle.c ****     if(points[0].y == points[1].y && points[1].y == points[2].y) return;
  55:..\..\..\lvgl\version_6.1.2\lvgl\src\lv_draw/lv_draw_triangle.c **** 
  56:..\..\..\lvgl\version_6.1.2\lvgl\src\lv_draw/lv_draw_triangle.c ****     lv_opa_t opa = opa_scale == LV_OPA_COVER ? style->body.opa : (uint16_t)((uint16_t)style->body.o
  57:..\..\..\lvgl\version_6.1.2\lvgl\src\lv_draw/lv_draw_triangle.c **** 
  58:..\..\..\lvgl\version_6.1.2\lvgl\src\lv_draw/lv_draw_triangle.c ****     /*Is the triangle flat or tall?*/
  59:..\..\..\lvgl\version_6.1.2\lvgl\src\lv_draw/lv_draw_triangle.c ****     lv_coord_t x_min = LV_MATH_MIN(LV_MATH_MIN(points[0].x, points[1].x), points[2].x);
  60:..\..\..\lvgl\version_6.1.2\lvgl\src\lv_draw/lv_draw_triangle.c ****     lv_coord_t x_max = LV_MATH_MAX(LV_MATH_MAX(points[0].x, points[1].x), points[2].x);
  61:..\..\..\lvgl\version_6.1.2\lvgl\src\lv_draw/lv_draw_triangle.c ****     lv_coord_t y_min = LV_MATH_MIN(LV_MATH_MIN(points[0].y, points[1].y), points[2].y);
  62:..\..\..\lvgl\version_6.1.2\lvgl\src\lv_draw/lv_draw_triangle.c ****     lv_coord_t y_max = LV_MATH_MAX(LV_MATH_MAX(points[0].y, points[1].y), points[2].y);
  63:..\..\..\lvgl\version_6.1.2\lvgl\src\lv_draw/lv_draw_triangle.c **** 
  64:..\..\..\lvgl\version_6.1.2\lvgl\src\lv_draw/lv_draw_triangle.c ****     /* Draw the tall rectangles from vertical lines
  65:..\..\..\lvgl\version_6.1.2\lvgl\src\lv_draw/lv_draw_triangle.c ****      * and from the flat triangles from horizontal lines
  66:..\..\..\lvgl\version_6.1.2\lvgl\src\lv_draw/lv_draw_triangle.c ****      * to minimize the number of lines.
  67:..\..\..\lvgl\version_6.1.2\lvgl\src\lv_draw/lv_draw_triangle.c ****      * Some pixels are overdrawn on the common edges of the triangles
  68:..\..\..\lvgl\version_6.1.2\lvgl\src\lv_draw/lv_draw_triangle.c ****      * so use it only if the triangle has no opacity*/
  69:..\..\..\lvgl\version_6.1.2\lvgl\src\lv_draw/lv_draw_triangle.c **** 
  70:..\..\..\lvgl\version_6.1.2\lvgl\src\lv_draw/lv_draw_triangle.c ****     /* Draw from horizontal lines*/
  71:..\..\..\lvgl\version_6.1.2\lvgl\src\lv_draw/lv_draw_triangle.c ****     if(x_max - x_min < y_max - y_min) {
  72:..\..\..\lvgl\version_6.1.2\lvgl\src\lv_draw/lv_draw_triangle.c ****         tri_draw_tall(points, mask, style, opa);
  73:..\..\..\lvgl\version_6.1.2\lvgl\src\lv_draw/lv_draw_triangle.c ****     }
  74:..\..\..\lvgl\version_6.1.2\lvgl\src\lv_draw/lv_draw_triangle.c ****     /*Else flat so draw from vertical lines*/
  75:..\..\..\lvgl\version_6.1.2\lvgl\src\lv_draw/lv_draw_triangle.c ****     else {
  76:..\..\..\lvgl\version_6.1.2\lvgl\src\lv_draw/lv_draw_triangle.c ****         tri_draw_flat(points, mask, style, opa);
  77:..\..\..\lvgl\version_6.1.2\lvgl\src\lv_draw/lv_draw_triangle.c ****     }
  78:..\..\..\lvgl\version_6.1.2\lvgl\src\lv_draw/lv_draw_triangle.c **** }
  79:..\..\..\lvgl\version_6.1.2\lvgl\src\lv_draw/lv_draw_triangle.c **** 
  80:..\..\..\lvgl\version_6.1.2\lvgl\src\lv_draw/lv_draw_triangle.c **** /**
  81:..\..\..\lvgl\version_6.1.2\lvgl\src\lv_draw/lv_draw_triangle.c ****  * Draw a polygon from triangles. Only convex polygons are supported
  82:..\..\..\lvgl\version_6.1.2\lvgl\src\lv_draw/lv_draw_triangle.c ****  * @param points an array of points
  83:..\..\..\lvgl\version_6.1.2\lvgl\src\lv_draw/lv_draw_triangle.c ****  * @param point_cnt number of points
  84:..\..\..\lvgl\version_6.1.2\lvgl\src\lv_draw/lv_draw_triangle.c ****  * @param mask polygon will be drawn only in this mask
  85:..\..\..\lvgl\version_6.1.2\lvgl\src\lv_draw/lv_draw_triangle.c ****  * @param style style of the polygon
  86:..\..\..\lvgl\version_6.1.2\lvgl\src\lv_draw/lv_draw_triangle.c ****  * @param opa_scale scale down all opacities by the factor (0..255)
ARM GAS  C:\Users\pearlstl\AppData\Local\Temp\ccVE6Vs6.s 			page 3


  87:..\..\..\lvgl\version_6.1.2\lvgl\src\lv_draw/lv_draw_triangle.c ****  */
  88:..\..\..\lvgl\version_6.1.2\lvgl\src\lv_draw/lv_draw_triangle.c **** void lv_draw_polygon(const lv_point_t * points, uint32_t point_cnt, const lv_area_t * mask, const l
  89:..\..\..\lvgl\version_6.1.2\lvgl\src\lv_draw/lv_draw_triangle.c ****                      lv_opa_t opa_scale)
  90:..\..\..\lvgl\version_6.1.2\lvgl\src\lv_draw/lv_draw_triangle.c **** {
  91:..\..\..\lvgl\version_6.1.2\lvgl\src\lv_draw/lv_draw_triangle.c ****     if(point_cnt < 3) return;
  92:..\..\..\lvgl\version_6.1.2\lvgl\src\lv_draw/lv_draw_triangle.c ****     if(points == NULL) return;
  93:..\..\..\lvgl\version_6.1.2\lvgl\src\lv_draw/lv_draw_triangle.c **** 
  94:..\..\..\lvgl\version_6.1.2\lvgl\src\lv_draw/lv_draw_triangle.c ****     uint32_t i;
  95:..\..\..\lvgl\version_6.1.2\lvgl\src\lv_draw/lv_draw_triangle.c ****     lv_point_t tri[3];
  96:..\..\..\lvgl\version_6.1.2\lvgl\src\lv_draw/lv_draw_triangle.c ****     tri[0].x = points[0].x;
  97:..\..\..\lvgl\version_6.1.2\lvgl\src\lv_draw/lv_draw_triangle.c ****     tri[0].y = points[0].y;
  98:..\..\..\lvgl\version_6.1.2\lvgl\src\lv_draw/lv_draw_triangle.c ****     for(i = 0; i < point_cnt - 1; i++) {
  99:..\..\..\lvgl\version_6.1.2\lvgl\src\lv_draw/lv_draw_triangle.c ****         tri[1].x = points[i].x;
 100:..\..\..\lvgl\version_6.1.2\lvgl\src\lv_draw/lv_draw_triangle.c ****         tri[1].y = points[i].y;
 101:..\..\..\lvgl\version_6.1.2\lvgl\src\lv_draw/lv_draw_triangle.c ****         tri[2].x = points[i + 1].x;
 102:..\..\..\lvgl\version_6.1.2\lvgl\src\lv_draw/lv_draw_triangle.c ****         tri[2].y = points[i + 1].y;
 103:..\..\..\lvgl\version_6.1.2\lvgl\src\lv_draw/lv_draw_triangle.c ****         lv_draw_triangle(tri, mask, style, opa_scale);
 104:..\..\..\lvgl\version_6.1.2\lvgl\src\lv_draw/lv_draw_triangle.c ****     }
 105:..\..\..\lvgl\version_6.1.2\lvgl\src\lv_draw/lv_draw_triangle.c **** }
 106:..\..\..\lvgl\version_6.1.2\lvgl\src\lv_draw/lv_draw_triangle.c **** 
 107:..\..\..\lvgl\version_6.1.2\lvgl\src\lv_draw/lv_draw_triangle.c **** /**********************
 108:..\..\..\lvgl\version_6.1.2\lvgl\src\lv_draw/lv_draw_triangle.c ****  *   STATIC FUNCTIONS
 109:..\..\..\lvgl\version_6.1.2\lvgl\src\lv_draw/lv_draw_triangle.c ****  **********************/
 110:..\..\..\lvgl\version_6.1.2\lvgl\src\lv_draw/lv_draw_triangle.c **** 
 111:..\..\..\lvgl\version_6.1.2\lvgl\src\lv_draw/lv_draw_triangle.c **** void tri_draw_flat(const lv_point_t * points, const lv_area_t * mask, const lv_style_t * style, lv_
 112:..\..\..\lvgl\version_6.1.2\lvgl\src\lv_draw/lv_draw_triangle.c **** {
  29              		.loc 1 112 0
  30              		.cfi_startproc
  31              		@ args = 0, pretend = 0, frame = 120
  32              		@ frame_needed = 0, uses_anonymous_args = 0
  33              	.LVL0:
  34 0000 2DE9F04F 		push	{r4, r5, r6, r7, r8, r9, r10, fp, lr}
  35              		.cfi_def_cfa_offset 36
  36              		.cfi_offset 4, -36
  37              		.cfi_offset 5, -32
  38              		.cfi_offset 6, -28
  39              		.cfi_offset 7, -24
  40              		.cfi_offset 8, -20
  41              		.cfi_offset 9, -16
  42              		.cfi_offset 10, -12
  43              		.cfi_offset 11, -8
  44              		.cfi_offset 14, -4
  45 0004 0D46     		mov	r5, r1
  46 0006 9FB0     		sub	sp, sp, #124
  47              		.cfi_def_cfa_offset 160
 113:..\..\..\lvgl\version_6.1.2\lvgl\src\lv_draw/lv_draw_triangle.c ****     /*Return if the points are out of the mask*/
 114:..\..\..\lvgl\version_6.1.2\lvgl\src\lv_draw/lv_draw_triangle.c ****     if(points[0].x < mask->x1 && points[1].x < mask->x1 && points[2].x < mask->x1) {
  48              		.loc 1 114 0
  49 0008 B0F90010 		ldrsh	r1, [r0]
  50              	.LVL1:
  51 000c 0491     		str	r1, [sp, #16]
 112:..\..\..\lvgl\version_6.1.2\lvgl\src\lv_draw/lv_draw_triangle.c ****     /*Return if the points are out of the mask*/
  52              		.loc 1 112 0
  53 000e 0446     		mov	r4, r0
  54              		.loc 1 114 0
  55 0010 0846     		mov	r0, r1
  56              	.LVL2:
ARM GAS  C:\Users\pearlstl\AppData\Local\Temp\ccVE6Vs6.s 			page 4


  57 0012 B5F90010 		ldrsh	r1, [r5]
  58 0016 8842     		cmp	r0, r1
 112:..\..\..\lvgl\version_6.1.2\lvgl\src\lv_draw/lv_draw_triangle.c ****     /*Return if the points are out of the mask*/
  59              		.loc 1 112 0
  60 0018 9646     		mov	lr, r2
  61              		.loc 1 114 0
  62 001a 08DA     		bge	.L2
  63              		.loc 1 114 0 is_stmt 0 discriminator 1
  64 001c B4F90420 		ldrsh	r2, [r4, #4]
  65              	.LVL3:
  66 0020 8A42     		cmp	r2, r1
  67 0022 04DA     		bge	.L2
  68              		.loc 1 114 0 discriminator 2
  69 0024 B4F90820 		ldrsh	r2, [r4, #8]
  70 0028 8A42     		cmp	r2, r1
  71 002a C0F27581 		blt	.L1
  72              	.L2:
 115:..\..\..\lvgl\version_6.1.2\lvgl\src\lv_draw/lv_draw_triangle.c ****         return;
 116:..\..\..\lvgl\version_6.1.2\lvgl\src\lv_draw/lv_draw_triangle.c ****     }
 117:..\..\..\lvgl\version_6.1.2\lvgl\src\lv_draw/lv_draw_triangle.c **** 
 118:..\..\..\lvgl\version_6.1.2\lvgl\src\lv_draw/lv_draw_triangle.c ****     if(points[0].x > mask->x2 && points[1].x > mask->x2 && points[2].x > mask->x2) {
  73              		.loc 1 118 0 is_stmt 1
  74 002e B5F90420 		ldrsh	r2, [r5, #4]
  75 0032 0499     		ldr	r1, [sp, #16]
  76 0034 9142     		cmp	r1, r2
  77 0036 08DD     		ble	.L4
  78              		.loc 1 118 0 is_stmt 0 discriminator 1
  79 0038 B4F90410 		ldrsh	r1, [r4, #4]
  80 003c 9142     		cmp	r1, r2
  81 003e 04DD     		ble	.L4
  82              		.loc 1 118 0 discriminator 2
  83 0040 B4F90810 		ldrsh	r1, [r4, #8]
  84 0044 9142     		cmp	r1, r2
  85 0046 00F36781 		bgt	.L1
  86              	.L4:
 119:..\..\..\lvgl\version_6.1.2\lvgl\src\lv_draw/lv_draw_triangle.c ****         return;
 120:..\..\..\lvgl\version_6.1.2\lvgl\src\lv_draw/lv_draw_triangle.c ****     }
 121:..\..\..\lvgl\version_6.1.2\lvgl\src\lv_draw/lv_draw_triangle.c **** 
 122:..\..\..\lvgl\version_6.1.2\lvgl\src\lv_draw/lv_draw_triangle.c ****     if(points[0].y < mask->y1 && points[1].y < mask->y1 && points[2].y < mask->y1) {
  87              		.loc 1 122 0 is_stmt 1
  88 004a B4F90220 		ldrsh	r2, [r4, #2]
  89 004e 0292     		str	r2, [sp, #8]
  90 0050 1146     		mov	r1, r2
  91 0052 B5F90220 		ldrsh	r2, [r5, #2]
  92 0056 9142     		cmp	r1, r2
  93 0058 08DA     		bge	.L5
  94              		.loc 1 122 0 is_stmt 0 discriminator 1
  95 005a B4F90610 		ldrsh	r1, [r4, #6]
  96 005e 9142     		cmp	r1, r2
  97 0060 04DA     		bge	.L5
  98              		.loc 1 122 0 discriminator 2
  99 0062 B4F90A10 		ldrsh	r1, [r4, #10]
 100 0066 9142     		cmp	r1, r2
 101 0068 C0F25681 		blt	.L1
 102              	.L5:
 123:..\..\..\lvgl\version_6.1.2\lvgl\src\lv_draw/lv_draw_triangle.c ****         return;
 124:..\..\..\lvgl\version_6.1.2\lvgl\src\lv_draw/lv_draw_triangle.c ****     }
ARM GAS  C:\Users\pearlstl\AppData\Local\Temp\ccVE6Vs6.s 			page 5


 125:..\..\..\lvgl\version_6.1.2\lvgl\src\lv_draw/lv_draw_triangle.c **** 
 126:..\..\..\lvgl\version_6.1.2\lvgl\src\lv_draw/lv_draw_triangle.c ****     if(points[0].y > mask->y2 && points[1].y > mask->y2 && points[2].y > mask->y2) {
 103              		.loc 1 126 0 is_stmt 1
 104 006c B5F90620 		ldrsh	r2, [r5, #6]
 105 0070 0299     		ldr	r1, [sp, #8]
 106 0072 9142     		cmp	r1, r2
 107 0074 08DD     		ble	.L6
 108              		.loc 1 126 0 is_stmt 0 discriminator 1
 109 0076 B4F90610 		ldrsh	r1, [r4, #6]
 110 007a 9142     		cmp	r1, r2
 111 007c 04DD     		ble	.L6
 112              		.loc 1 126 0 discriminator 2
 113 007e B4F90A10 		ldrsh	r1, [r4, #10]
 114 0082 9142     		cmp	r1, r2
 115 0084 00F34881 		bgt	.L1
 116              	.L6:
 127:..\..\..\lvgl\version_6.1.2\lvgl\src\lv_draw/lv_draw_triangle.c ****         return;
 128:..\..\..\lvgl\version_6.1.2\lvgl\src\lv_draw/lv_draw_triangle.c ****     }
 129:..\..\..\lvgl\version_6.1.2\lvgl\src\lv_draw/lv_draw_triangle.c **** 
 130:..\..\..\lvgl\version_6.1.2\lvgl\src\lv_draw/lv_draw_triangle.c ****     lv_point_t tri[3];
 131:..\..\..\lvgl\version_6.1.2\lvgl\src\lv_draw/lv_draw_triangle.c **** 
 132:..\..\..\lvgl\version_6.1.2\lvgl\src\lv_draw/lv_draw_triangle.c ****     memcpy(tri, points, sizeof(tri));
 117              		.loc 1 132 0 is_stmt 1
 118 0088 6168     		ldr	r1, [r4, #4]	@ unaligned
 119 008a A268     		ldr	r2, [r4, #8]	@ unaligned
 120 008c 2068     		ldr	r0, [r4]	@ unaligned
 121 008e 1BAC     		add	r4, sp, #108
 122              	.LVL4:
 123 0090 07C4     		stmia	r4!, {r0, r1, r2}
 133:..\..\..\lvgl\version_6.1.2\lvgl\src\lv_draw/lv_draw_triangle.c **** 
 134:..\..\..\lvgl\version_6.1.2\lvgl\src\lv_draw/lv_draw_triangle.c ****     /*Sort the vertices according to their y coordinate (0: y max, 1: y mid, 2:y min)*/
 135:..\..\..\lvgl\version_6.1.2\lvgl\src\lv_draw/lv_draw_triangle.c ****     if(tri[1].y < tri[0].y) point_swap(&tri[1], &tri[0]);
 124              		.loc 1 135 0
 125 0092 0299     		ldr	r1, [sp, #8]
 126 0094 BDF97220 		ldrsh	r2, [sp, #114]
 127 0098 9142     		cmp	r1, r2
 128 009a 00F32E81 		bgt	.L7
 129 009e 0292     		str	r2, [sp, #8]
 130 00a0 BDF97020 		ldrsh	r2, [sp, #112]
 131 00a4 0492     		str	r2, [sp, #16]
 132 00a6 BDF96C10 		ldrsh	r1, [sp, #108]
 133 00aa BDF96E20 		ldrsh	r2, [sp, #110]
 134              	.L8:
 136:..\..\..\lvgl\version_6.1.2\lvgl\src\lv_draw/lv_draw_triangle.c ****     if(tri[2].y < tri[1].y) point_swap(&tri[2], &tri[1]);
 135              		.loc 1 136 0
 136 00ae BDF97600 		ldrsh	r0, [sp, #118]
 137 00b2 029F     		ldr	r7, [sp, #8]
 138 00b4 0390     		str	r0, [sp, #12]
 139 00b6 B842     		cmp	r0, r7
 140 00b8 3E46     		mov	r6, r7
 141 00ba C0F26081 		blt	.L9
 142 00be 049C     		ldr	r4, [sp, #16]
 143 00c0 0594     		str	r4, [sp, #20]
 144 00c2 BDF97440 		ldrsh	r4, [sp, #116]
 145 00c6 0397     		str	r7, [sp, #12]
 146 00c8 0494     		str	r4, [sp, #16]
 147 00ca 0290     		str	r0, [sp, #8]
ARM GAS  C:\Users\pearlstl\AppData\Local\Temp\ccVE6Vs6.s 			page 6


 148              	.L10:
 137:..\..\..\lvgl\version_6.1.2\lvgl\src\lv_draw/lv_draw_triangle.c ****     if(tri[1].y < tri[0].y) point_swap(&tri[1], &tri[0]);
 149              		.loc 1 137 0
 150 00cc B242     		cmp	r2, r6
 151 00ce 40F35181 		ble	.L53
 152              	.LVL5:
 153 00d2 0024     		movs	r4, #0
 154 00d4 059F     		ldr	r7, [sp, #20]
 155              	.LBB14:
 156              	.LBB15:
 138:..\..\..\lvgl\version_6.1.2\lvgl\src\lv_draw/lv_draw_triangle.c **** 
 139:..\..\..\lvgl\version_6.1.2\lvgl\src\lv_draw/lv_draw_triangle.c ****     /*Draw the triangle*/
 140:..\..\..\lvgl\version_6.1.2\lvgl\src\lv_draw/lv_draw_triangle.c ****     lv_point_t edge1;
 141:..\..\..\lvgl\version_6.1.2\lvgl\src\lv_draw/lv_draw_triangle.c ****     lv_coord_t dx1  = LV_MATH_ABS(tri[0].x - tri[1].x);
 142:..\..\..\lvgl\version_6.1.2\lvgl\src\lv_draw/lv_draw_triangle.c ****     lv_coord_t sx1  = tri[0].x < tri[1].x ? 1 : -1;
 143:..\..\..\lvgl\version_6.1.2\lvgl\src\lv_draw/lv_draw_triangle.c ****     lv_coord_t dy1  = LV_MATH_ABS(tri[0].y - tri[1].y);
 144:..\..\..\lvgl\version_6.1.2\lvgl\src\lv_draw/lv_draw_triangle.c ****     lv_coord_t sy1  = tri[0].y < tri[1].y ? 1 : -1;
 145:..\..\..\lvgl\version_6.1.2\lvgl\src\lv_draw/lv_draw_triangle.c ****     lv_coord_t err1 = (dx1 > dy1 ? dx1 : -dy1) / 2;
 146:..\..\..\lvgl\version_6.1.2\lvgl\src\lv_draw/lv_draw_triangle.c ****     lv_coord_t err_tmp1;
 147:..\..\..\lvgl\version_6.1.2\lvgl\src\lv_draw/lv_draw_triangle.c **** 
 148:..\..\..\lvgl\version_6.1.2\lvgl\src\lv_draw/lv_draw_triangle.c ****     lv_point_t edge2;
 149:..\..\..\lvgl\version_6.1.2\lvgl\src\lv_draw/lv_draw_triangle.c ****     lv_coord_t dx2  = LV_MATH_ABS(tri[0].x - tri[2].x);
 150:..\..\..\lvgl\version_6.1.2\lvgl\src\lv_draw/lv_draw_triangle.c ****     lv_coord_t sx2  = tri[0].x < tri[2].x ? 1 : -1;
 151:..\..\..\lvgl\version_6.1.2\lvgl\src\lv_draw/lv_draw_triangle.c ****     lv_coord_t dy2  = LV_MATH_ABS(tri[0].y - tri[2].y);
 152:..\..\..\lvgl\version_6.1.2\lvgl\src\lv_draw/lv_draw_triangle.c ****     lv_coord_t sy2  = tri[0].y < tri[2].y ? 1 : -1;
 153:..\..\..\lvgl\version_6.1.2\lvgl\src\lv_draw/lv_draw_triangle.c ****     lv_coord_t err2 = (dx1 > dy2 ? dx2 : -dy2) / 2;
 154:..\..\..\lvgl\version_6.1.2\lvgl\src\lv_draw/lv_draw_triangle.c ****     lv_coord_t err_tmp2;
 155:..\..\..\lvgl\version_6.1.2\lvgl\src\lv_draw/lv_draw_triangle.c **** 
 156:..\..\..\lvgl\version_6.1.2\lvgl\src\lv_draw/lv_draw_triangle.c ****     lv_coord_t y1_tmp;
 157:..\..\..\lvgl\version_6.1.2\lvgl\src\lv_draw/lv_draw_triangle.c ****     lv_coord_t y2_tmp;
 158:..\..\..\lvgl\version_6.1.2\lvgl\src\lv_draw/lv_draw_triangle.c **** 
 159:..\..\..\lvgl\version_6.1.2\lvgl\src\lv_draw/lv_draw_triangle.c ****     edge1.x = tri[0].x;
 160:..\..\..\lvgl\version_6.1.2\lvgl\src\lv_draw/lv_draw_triangle.c ****     edge1.y = tri[0].y;
 161:..\..\..\lvgl\version_6.1.2\lvgl\src\lv_draw/lv_draw_triangle.c ****     edge2.x = tri[0].x;
 162:..\..\..\lvgl\version_6.1.2\lvgl\src\lv_draw/lv_draw_triangle.c ****     edge2.y = tri[0].y;
 163:..\..\..\lvgl\version_6.1.2\lvgl\src\lv_draw/lv_draw_triangle.c ****     lv_area_t act_area;
 164:..\..\..\lvgl\version_6.1.2\lvgl\src\lv_draw/lv_draw_triangle.c ****     lv_area_t draw_area;
 165:..\..\..\lvgl\version_6.1.2\lvgl\src\lv_draw/lv_draw_triangle.c **** 
 166:..\..\..\lvgl\version_6.1.2\lvgl\src\lv_draw/lv_draw_triangle.c ****     while(1) {
 167:..\..\..\lvgl\version_6.1.2\lvgl\src\lv_draw/lv_draw_triangle.c ****         act_area.x1 = edge1.x;
 168:..\..\..\lvgl\version_6.1.2\lvgl\src\lv_draw/lv_draw_triangle.c ****         act_area.x2 = edge2.x;
 169:..\..\..\lvgl\version_6.1.2\lvgl\src\lv_draw/lv_draw_triangle.c ****         act_area.y1 = edge1.y;
 170:..\..\..\lvgl\version_6.1.2\lvgl\src\lv_draw/lv_draw_triangle.c ****         act_area.y2 = edge2.y;
 171:..\..\..\lvgl\version_6.1.2\lvgl\src\lv_draw/lv_draw_triangle.c **** 
 172:..\..\..\lvgl\version_6.1.2\lvgl\src\lv_draw/lv_draw_triangle.c ****         /* Get the area of a line.
 173:..\..\..\lvgl\version_6.1.2\lvgl\src\lv_draw/lv_draw_triangle.c ****          * Adjust it a little bit to perfectly match (no redrawn pixels) with the adjacent triangle
 174:..\..\..\lvgl\version_6.1.2\lvgl\src\lv_draw/lv_draw_triangle.c ****         draw_area.x1 = LV_MATH_MIN(act_area.x1, act_area.x2) + 1;
 175:..\..\..\lvgl\version_6.1.2\lvgl\src\lv_draw/lv_draw_triangle.c ****         draw_area.x2 = LV_MATH_MAX(act_area.x1, act_area.x2);
 176:..\..\..\lvgl\version_6.1.2\lvgl\src\lv_draw/lv_draw_triangle.c ****         draw_area.y1 = LV_MATH_MIN(act_area.y1, act_area.y2) - 1;
 177:..\..\..\lvgl\version_6.1.2\lvgl\src\lv_draw/lv_draw_triangle.c ****         draw_area.y2 = LV_MATH_MAX(act_area.y1, act_area.y2) - 1;
 178:..\..\..\lvgl\version_6.1.2\lvgl\src\lv_draw/lv_draw_triangle.c **** 
 179:..\..\..\lvgl\version_6.1.2\lvgl\src\lv_draw/lv_draw_triangle.c ****         lv_draw_fill(&draw_area, mask, style->body.main_color, opa);
 180:..\..\..\lvgl\version_6.1.2\lvgl\src\lv_draw/lv_draw_triangle.c **** 
 181:..\..\..\lvgl\version_6.1.2\lvgl\src\lv_draw/lv_draw_triangle.c ****         /*Calc. the next point of edge1*/
 182:..\..\..\lvgl\version_6.1.2\lvgl\src\lv_draw/lv_draw_triangle.c ****         y1_tmp = edge1.y;
 183:..\..\..\lvgl\version_6.1.2\lvgl\src\lv_draw/lv_draw_triangle.c ****         do {
 184:..\..\..\lvgl\version_6.1.2\lvgl\src\lv_draw/lv_draw_triangle.c ****             if(edge1.x == tri[1].x && edge1.y == tri[1].y) {
ARM GAS  C:\Users\pearlstl\AppData\Local\Temp\ccVE6Vs6.s 			page 7


 185:..\..\..\lvgl\version_6.1.2\lvgl\src\lv_draw/lv_draw_triangle.c **** 
 186:..\..\..\lvgl\version_6.1.2\lvgl\src\lv_draw/lv_draw_triangle.c ****                 dx1  = LV_MATH_ABS(tri[1].x - tri[2].x);
 187:..\..\..\lvgl\version_6.1.2\lvgl\src\lv_draw/lv_draw_triangle.c ****                 sx1  = tri[1].x < tri[2].x ? 1 : -1;
 188:..\..\..\lvgl\version_6.1.2\lvgl\src\lv_draw/lv_draw_triangle.c ****                 dy1  = LV_MATH_ABS(tri[1].y - tri[2].y);
 189:..\..\..\lvgl\version_6.1.2\lvgl\src\lv_draw/lv_draw_triangle.c ****                 sy1  = tri[1].y < tri[2].y ? 1 : -1;
 190:..\..\..\lvgl\version_6.1.2\lvgl\src\lv_draw/lv_draw_triangle.c ****                 err1 = (dx1 > dy1 ? dx1 : -dy1) / 2;
 191:..\..\..\lvgl\version_6.1.2\lvgl\src\lv_draw/lv_draw_triangle.c ****             } else if(edge1.x == tri[2].x && edge1.y == tri[2].y) {
 192:..\..\..\lvgl\version_6.1.2\lvgl\src\lv_draw/lv_draw_triangle.c ****                 return;
 193:..\..\..\lvgl\version_6.1.2\lvgl\src\lv_draw/lv_draw_triangle.c ****             }
 194:..\..\..\lvgl\version_6.1.2\lvgl\src\lv_draw/lv_draw_triangle.c ****             err_tmp1 = err1;
 195:..\..\..\lvgl\version_6.1.2\lvgl\src\lv_draw/lv_draw_triangle.c ****             if(err_tmp1 > -dx1) {
 196:..\..\..\lvgl\version_6.1.2\lvgl\src\lv_draw/lv_draw_triangle.c ****                 err1 -= dy1;
 197:..\..\..\lvgl\version_6.1.2\lvgl\src\lv_draw/lv_draw_triangle.c ****                 edge1.x += sx1;
 198:..\..\..\lvgl\version_6.1.2\lvgl\src\lv_draw/lv_draw_triangle.c ****             }
 199:..\..\..\lvgl\version_6.1.2\lvgl\src\lv_draw/lv_draw_triangle.c ****             if(err_tmp1 < dy1) {
 200:..\..\..\lvgl\version_6.1.2\lvgl\src\lv_draw/lv_draw_triangle.c ****                 err1 += dx1;
 201:..\..\..\lvgl\version_6.1.2\lvgl\src\lv_draw/lv_draw_triangle.c ****                 edge1.y += sy1;
 202:..\..\..\lvgl\version_6.1.2\lvgl\src\lv_draw/lv_draw_triangle.c ****             }
 203:..\..\..\lvgl\version_6.1.2\lvgl\src\lv_draw/lv_draw_triangle.c ****         } while(edge1.y == y1_tmp);
 204:..\..\..\lvgl\version_6.1.2\lvgl\src\lv_draw/lv_draw_triangle.c **** 
 205:..\..\..\lvgl\version_6.1.2\lvgl\src\lv_draw/lv_draw_triangle.c ****         /*Calc. the next point of edge2*/
 206:..\..\..\lvgl\version_6.1.2\lvgl\src\lv_draw/lv_draw_triangle.c ****         y2_tmp = edge2.y;
 207:..\..\..\lvgl\version_6.1.2\lvgl\src\lv_draw/lv_draw_triangle.c ****         do {
 208:..\..\..\lvgl\version_6.1.2\lvgl\src\lv_draw/lv_draw_triangle.c ****             if(edge2.x == tri[2].x && edge2.y == tri[2].y) return;
 209:..\..\..\lvgl\version_6.1.2\lvgl\src\lv_draw/lv_draw_triangle.c ****             err_tmp2 = err2;
 210:..\..\..\lvgl\version_6.1.2\lvgl\src\lv_draw/lv_draw_triangle.c ****             if(err_tmp2 > -dx2) {
 211:..\..\..\lvgl\version_6.1.2\lvgl\src\lv_draw/lv_draw_triangle.c ****                 err2 -= dy2;
 212:..\..\..\lvgl\version_6.1.2\lvgl\src\lv_draw/lv_draw_triangle.c ****                 edge2.x += sx2;
 213:..\..\..\lvgl\version_6.1.2\lvgl\src\lv_draw/lv_draw_triangle.c ****             }
 214:..\..\..\lvgl\version_6.1.2\lvgl\src\lv_draw/lv_draw_triangle.c ****             if(err_tmp2 < dy2) {
 215:..\..\..\lvgl\version_6.1.2\lvgl\src\lv_draw/lv_draw_triangle.c ****                 err2 += dx2;
 216:..\..\..\lvgl\version_6.1.2\lvgl\src\lv_draw/lv_draw_triangle.c ****                 edge2.y += sy2;
 217:..\..\..\lvgl\version_6.1.2\lvgl\src\lv_draw/lv_draw_triangle.c ****             }
 218:..\..\..\lvgl\version_6.1.2\lvgl\src\lv_draw/lv_draw_triangle.c ****         } while(edge2.y == y2_tmp);
 219:..\..\..\lvgl\version_6.1.2\lvgl\src\lv_draw/lv_draw_triangle.c ****     }
 220:..\..\..\lvgl\version_6.1.2\lvgl\src\lv_draw/lv_draw_triangle.c **** }
 221:..\..\..\lvgl\version_6.1.2\lvgl\src\lv_draw/lv_draw_triangle.c **** 
 222:..\..\..\lvgl\version_6.1.2\lvgl\src\lv_draw/lv_draw_triangle.c **** void tri_draw_tall(const lv_point_t * points, const lv_area_t * mask, const lv_style_t * style, lv_
 223:..\..\..\lvgl\version_6.1.2\lvgl\src\lv_draw/lv_draw_triangle.c **** {
 224:..\..\..\lvgl\version_6.1.2\lvgl\src\lv_draw/lv_draw_triangle.c ****     /*
 225:..\..\..\lvgl\version_6.1.2\lvgl\src\lv_draw/lv_draw_triangle.c ****      * Better to draw from vertical lines
 226:..\..\..\lvgl\version_6.1.2\lvgl\src\lv_draw/lv_draw_triangle.c ****      * |\
 227:..\..\..\lvgl\version_6.1.2\lvgl\src\lv_draw/lv_draw_triangle.c ****      * | |
 228:..\..\..\lvgl\version_6.1.2\lvgl\src\lv_draw/lv_draw_triangle.c ****      * | |
 229:..\..\..\lvgl\version_6.1.2\lvgl\src\lv_draw/lv_draw_triangle.c ****      * |  \
 230:..\..\..\lvgl\version_6.1.2\lvgl\src\lv_draw/lv_draw_triangle.c ****      * |   |
 231:..\..\..\lvgl\version_6.1.2\lvgl\src\lv_draw/lv_draw_triangle.c ****      * |___|
 232:..\..\..\lvgl\version_6.1.2\lvgl\src\lv_draw/lv_draw_triangle.c ****      */
 233:..\..\..\lvgl\version_6.1.2\lvgl\src\lv_draw/lv_draw_triangle.c **** 
 234:..\..\..\lvgl\version_6.1.2\lvgl\src\lv_draw/lv_draw_triangle.c ****     lv_point_t tri[3];
 235:..\..\..\lvgl\version_6.1.2\lvgl\src\lv_draw/lv_draw_triangle.c **** 
 236:..\..\..\lvgl\version_6.1.2\lvgl\src\lv_draw/lv_draw_triangle.c ****     memcpy(tri, points, sizeof(tri));
 237:..\..\..\lvgl\version_6.1.2\lvgl\src\lv_draw/lv_draw_triangle.c **** 
 238:..\..\..\lvgl\version_6.1.2\lvgl\src\lv_draw/lv_draw_triangle.c ****     /*Sort the vertices according to their x coordinate (0: x max, 1: x mid, 2:x min)*/
 239:..\..\..\lvgl\version_6.1.2\lvgl\src\lv_draw/lv_draw_triangle.c ****     if(tri[1].x < tri[0].x) point_swap(&tri[1], &tri[0]);
 240:..\..\..\lvgl\version_6.1.2\lvgl\src\lv_draw/lv_draw_triangle.c ****     if(tri[2].x < tri[1].x) point_swap(&tri[2], &tri[1]);
 241:..\..\..\lvgl\version_6.1.2\lvgl\src\lv_draw/lv_draw_triangle.c ****     if(tri[1].x < tri[0].x) point_swap(&tri[1], &tri[0]);
ARM GAS  C:\Users\pearlstl\AppData\Local\Temp\ccVE6Vs6.s 			page 8


 242:..\..\..\lvgl\version_6.1.2\lvgl\src\lv_draw/lv_draw_triangle.c **** 
 243:..\..\..\lvgl\version_6.1.2\lvgl\src\lv_draw/lv_draw_triangle.c ****     /*Draw the triangle*/
 244:..\..\..\lvgl\version_6.1.2\lvgl\src\lv_draw/lv_draw_triangle.c ****     lv_point_t edge1;
 245:..\..\..\lvgl\version_6.1.2\lvgl\src\lv_draw/lv_draw_triangle.c ****     lv_coord_t dx1  = LV_MATH_ABS(tri[0].x - tri[1].x);
 246:..\..\..\lvgl\version_6.1.2\lvgl\src\lv_draw/lv_draw_triangle.c ****     lv_coord_t sx1  = tri[0].x < tri[1].x ? 1 : -1;
 247:..\..\..\lvgl\version_6.1.2\lvgl\src\lv_draw/lv_draw_triangle.c ****     lv_coord_t dy1  = LV_MATH_ABS(tri[0].y - tri[1].y);
 248:..\..\..\lvgl\version_6.1.2\lvgl\src\lv_draw/lv_draw_triangle.c ****     lv_coord_t sy1  = tri[0].y < tri[1].y ? 1 : -1;
 249:..\..\..\lvgl\version_6.1.2\lvgl\src\lv_draw/lv_draw_triangle.c ****     lv_coord_t err1 = (dx1 > dy1 ? dx1 : -dy1) / 2;
 250:..\..\..\lvgl\version_6.1.2\lvgl\src\lv_draw/lv_draw_triangle.c ****     lv_coord_t err_tmp1;
 251:..\..\..\lvgl\version_6.1.2\lvgl\src\lv_draw/lv_draw_triangle.c **** 
 252:..\..\..\lvgl\version_6.1.2\lvgl\src\lv_draw/lv_draw_triangle.c ****     lv_point_t edge2;
 253:..\..\..\lvgl\version_6.1.2\lvgl\src\lv_draw/lv_draw_triangle.c ****     lv_coord_t dx2  = LV_MATH_ABS(tri[0].x - tri[2].x);
 254:..\..\..\lvgl\version_6.1.2\lvgl\src\lv_draw/lv_draw_triangle.c ****     lv_coord_t sx2  = tri[0].x < tri[2].x ? 1 : -1;
 255:..\..\..\lvgl\version_6.1.2\lvgl\src\lv_draw/lv_draw_triangle.c ****     lv_coord_t dy2  = LV_MATH_ABS(tri[0].y - tri[2].y);
 256:..\..\..\lvgl\version_6.1.2\lvgl\src\lv_draw/lv_draw_triangle.c ****     lv_coord_t sy2  = tri[0].y < tri[2].y ? 1 : -1;
 257:..\..\..\lvgl\version_6.1.2\lvgl\src\lv_draw/lv_draw_triangle.c ****     lv_coord_t err2 = (dx1 > dy2 ? dx2 : -dy2) / 2;
 258:..\..\..\lvgl\version_6.1.2\lvgl\src\lv_draw/lv_draw_triangle.c ****     lv_coord_t err_tmp2;
 259:..\..\..\lvgl\version_6.1.2\lvgl\src\lv_draw/lv_draw_triangle.c **** 
 260:..\..\..\lvgl\version_6.1.2\lvgl\src\lv_draw/lv_draw_triangle.c ****     lv_coord_t x1_tmp;
 261:..\..\..\lvgl\version_6.1.2\lvgl\src\lv_draw/lv_draw_triangle.c ****     lv_coord_t x2_tmp;
 262:..\..\..\lvgl\version_6.1.2\lvgl\src\lv_draw/lv_draw_triangle.c **** 
 263:..\..\..\lvgl\version_6.1.2\lvgl\src\lv_draw/lv_draw_triangle.c ****     edge1.x = tri[0].x;
 264:..\..\..\lvgl\version_6.1.2\lvgl\src\lv_draw/lv_draw_triangle.c ****     edge1.y = tri[0].y;
 265:..\..\..\lvgl\version_6.1.2\lvgl\src\lv_draw/lv_draw_triangle.c ****     edge2.x = tri[0].x;
 266:..\..\..\lvgl\version_6.1.2\lvgl\src\lv_draw/lv_draw_triangle.c ****     edge2.y = tri[0].y;
 267:..\..\..\lvgl\version_6.1.2\lvgl\src\lv_draw/lv_draw_triangle.c ****     lv_area_t act_area;
 268:..\..\..\lvgl\version_6.1.2\lvgl\src\lv_draw/lv_draw_triangle.c ****     lv_area_t draw_area;
 269:..\..\..\lvgl\version_6.1.2\lvgl\src\lv_draw/lv_draw_triangle.c **** 
 270:..\..\..\lvgl\version_6.1.2\lvgl\src\lv_draw/lv_draw_triangle.c ****     while(1) {
 271:..\..\..\lvgl\version_6.1.2\lvgl\src\lv_draw/lv_draw_triangle.c ****         act_area.x1 = edge1.x;
 272:..\..\..\lvgl\version_6.1.2\lvgl\src\lv_draw/lv_draw_triangle.c ****         act_area.x2 = edge2.x;
 273:..\..\..\lvgl\version_6.1.2\lvgl\src\lv_draw/lv_draw_triangle.c ****         act_area.y1 = edge1.y;
 274:..\..\..\lvgl\version_6.1.2\lvgl\src\lv_draw/lv_draw_triangle.c ****         act_area.y2 = edge2.y;
 275:..\..\..\lvgl\version_6.1.2\lvgl\src\lv_draw/lv_draw_triangle.c **** 
 276:..\..\..\lvgl\version_6.1.2\lvgl\src\lv_draw/lv_draw_triangle.c ****         draw_area.x1 = LV_MATH_MIN(act_area.x1, act_area.x2);
 277:..\..\..\lvgl\version_6.1.2\lvgl\src\lv_draw/lv_draw_triangle.c ****         draw_area.x2 = LV_MATH_MAX(act_area.x1, act_area.x2);
 278:..\..\..\lvgl\version_6.1.2\lvgl\src\lv_draw/lv_draw_triangle.c ****         draw_area.y1 = LV_MATH_MIN(act_area.y1, act_area.y2);
 279:..\..\..\lvgl\version_6.1.2\lvgl\src\lv_draw/lv_draw_triangle.c ****         draw_area.y2 = LV_MATH_MAX(act_area.y1, act_area.y2) - 1;
 280:..\..\..\lvgl\version_6.1.2\lvgl\src\lv_draw/lv_draw_triangle.c **** 
 281:..\..\..\lvgl\version_6.1.2\lvgl\src\lv_draw/lv_draw_triangle.c ****         lv_draw_fill(&draw_area, mask, style->body.main_color, opa);
 282:..\..\..\lvgl\version_6.1.2\lvgl\src\lv_draw/lv_draw_triangle.c **** 
 283:..\..\..\lvgl\version_6.1.2\lvgl\src\lv_draw/lv_draw_triangle.c ****         /*Calc. the next point of edge1*/
 284:..\..\..\lvgl\version_6.1.2\lvgl\src\lv_draw/lv_draw_triangle.c ****         x1_tmp = edge1.x;
 285:..\..\..\lvgl\version_6.1.2\lvgl\src\lv_draw/lv_draw_triangle.c ****         do {
 286:..\..\..\lvgl\version_6.1.2\lvgl\src\lv_draw/lv_draw_triangle.c ****             if(edge1.y == tri[1].y && edge1.x == tri[1].x) {
 287:..\..\..\lvgl\version_6.1.2\lvgl\src\lv_draw/lv_draw_triangle.c **** 
 288:..\..\..\lvgl\version_6.1.2\lvgl\src\lv_draw/lv_draw_triangle.c ****                 dx1  = LV_MATH_ABS(tri[1].x - tri[2].x);
 289:..\..\..\lvgl\version_6.1.2\lvgl\src\lv_draw/lv_draw_triangle.c ****                 sx1  = tri[1].x < tri[2].x ? 1 : -1;
 290:..\..\..\lvgl\version_6.1.2\lvgl\src\lv_draw/lv_draw_triangle.c ****                 dy1  = LV_MATH_ABS(tri[1].y - tri[2].y);
 291:..\..\..\lvgl\version_6.1.2\lvgl\src\lv_draw/lv_draw_triangle.c ****                 sy1  = tri[1].y < tri[2].y ? 1 : -1;
 292:..\..\..\lvgl\version_6.1.2\lvgl\src\lv_draw/lv_draw_triangle.c ****                 err1 = (dx1 > dy1 ? dx1 : -dy1) / 2;
 293:..\..\..\lvgl\version_6.1.2\lvgl\src\lv_draw/lv_draw_triangle.c ****             } else if(edge1.y == tri[2].y && edge1.x == tri[2].x) {
 294:..\..\..\lvgl\version_6.1.2\lvgl\src\lv_draw/lv_draw_triangle.c ****                 return;
 295:..\..\..\lvgl\version_6.1.2\lvgl\src\lv_draw/lv_draw_triangle.c ****             }
 296:..\..\..\lvgl\version_6.1.2\lvgl\src\lv_draw/lv_draw_triangle.c ****             err_tmp1 = err1;
 297:..\..\..\lvgl\version_6.1.2\lvgl\src\lv_draw/lv_draw_triangle.c ****             if(err_tmp1 > -dx1) {
 298:..\..\..\lvgl\version_6.1.2\lvgl\src\lv_draw/lv_draw_triangle.c ****                 err1 -= dy1;
ARM GAS  C:\Users\pearlstl\AppData\Local\Temp\ccVE6Vs6.s 			page 9


 299:..\..\..\lvgl\version_6.1.2\lvgl\src\lv_draw/lv_draw_triangle.c ****                 edge1.x += sx1;
 300:..\..\..\lvgl\version_6.1.2\lvgl\src\lv_draw/lv_draw_triangle.c ****             }
 301:..\..\..\lvgl\version_6.1.2\lvgl\src\lv_draw/lv_draw_triangle.c ****             if(err_tmp1 < dy1) {
 302:..\..\..\lvgl\version_6.1.2\lvgl\src\lv_draw/lv_draw_triangle.c ****                 err1 += dx1;
 303:..\..\..\lvgl\version_6.1.2\lvgl\src\lv_draw/lv_draw_triangle.c ****                 edge1.y += sy1;
 304:..\..\..\lvgl\version_6.1.2\lvgl\src\lv_draw/lv_draw_triangle.c ****             }
 305:..\..\..\lvgl\version_6.1.2\lvgl\src\lv_draw/lv_draw_triangle.c ****         } while(edge1.x == x1_tmp);
 306:..\..\..\lvgl\version_6.1.2\lvgl\src\lv_draw/lv_draw_triangle.c **** 
 307:..\..\..\lvgl\version_6.1.2\lvgl\src\lv_draw/lv_draw_triangle.c ****         /*Calc. the next point of edge2*/
 308:..\..\..\lvgl\version_6.1.2\lvgl\src\lv_draw/lv_draw_triangle.c ****         x2_tmp = edge2.x;
 309:..\..\..\lvgl\version_6.1.2\lvgl\src\lv_draw/lv_draw_triangle.c ****         do {
 310:..\..\..\lvgl\version_6.1.2\lvgl\src\lv_draw/lv_draw_triangle.c ****             if(edge2.y == tri[2].y && edge2.x == tri[2].x) {
 311:..\..\..\lvgl\version_6.1.2\lvgl\src\lv_draw/lv_draw_triangle.c ****                 return;
 312:..\..\..\lvgl\version_6.1.2\lvgl\src\lv_draw/lv_draw_triangle.c ****             }
 313:..\..\..\lvgl\version_6.1.2\lvgl\src\lv_draw/lv_draw_triangle.c **** 
 314:..\..\..\lvgl\version_6.1.2\lvgl\src\lv_draw/lv_draw_triangle.c ****             err_tmp2 = err2;
 315:..\..\..\lvgl\version_6.1.2\lvgl\src\lv_draw/lv_draw_triangle.c ****             if(err_tmp2 > -dx2) {
 316:..\..\..\lvgl\version_6.1.2\lvgl\src\lv_draw/lv_draw_triangle.c ****                 err2 -= dy2;
 317:..\..\..\lvgl\version_6.1.2\lvgl\src\lv_draw/lv_draw_triangle.c ****                 edge2.x += sx2;
 318:..\..\..\lvgl\version_6.1.2\lvgl\src\lv_draw/lv_draw_triangle.c ****             }
 319:..\..\..\lvgl\version_6.1.2\lvgl\src\lv_draw/lv_draw_triangle.c ****             if(err_tmp2 < dy2) {
 320:..\..\..\lvgl\version_6.1.2\lvgl\src\lv_draw/lv_draw_triangle.c ****                 err2 += dx2;
 321:..\..\..\lvgl\version_6.1.2\lvgl\src\lv_draw/lv_draw_triangle.c ****                 edge2.y += sy2;
 322:..\..\..\lvgl\version_6.1.2\lvgl\src\lv_draw/lv_draw_triangle.c ****             }
 323:..\..\..\lvgl\version_6.1.2\lvgl\src\lv_draw/lv_draw_triangle.c ****         } while(edge2.x == x2_tmp);
 324:..\..\..\lvgl\version_6.1.2\lvgl\src\lv_draw/lv_draw_triangle.c ****     }
 325:..\..\..\lvgl\version_6.1.2\lvgl\src\lv_draw/lv_draw_triangle.c **** }
 326:..\..\..\lvgl\version_6.1.2\lvgl\src\lv_draw/lv_draw_triangle.c **** 
 327:..\..\..\lvgl\version_6.1.2\lvgl\src\lv_draw/lv_draw_triangle.c **** /**
 328:..\..\..\lvgl\version_6.1.2\lvgl\src\lv_draw/lv_draw_triangle.c ****  * Swap two points
 329:..\..\..\lvgl\version_6.1.2\lvgl\src\lv_draw/lv_draw_triangle.c ****  * p1 pointer to the first point
 330:..\..\..\lvgl\version_6.1.2\lvgl\src\lv_draw/lv_draw_triangle.c ****  * p2 pointer to the second point
 331:..\..\..\lvgl\version_6.1.2\lvgl\src\lv_draw/lv_draw_triangle.c ****  */
 332:..\..\..\lvgl\version_6.1.2\lvgl\src\lv_draw/lv_draw_triangle.c **** static void point_swap(lv_point_t * p1, lv_point_t * p2)
 333:..\..\..\lvgl\version_6.1.2\lvgl\src\lv_draw/lv_draw_triangle.c **** {
 334:..\..\..\lvgl\version_6.1.2\lvgl\src\lv_draw/lv_draw_triangle.c ****     lv_point_t tmp;
 335:..\..\..\lvgl\version_6.1.2\lvgl\src\lv_draw/lv_draw_triangle.c ****     tmp.x = p1->x;
 336:..\..\..\lvgl\version_6.1.2\lvgl\src\lv_draw/lv_draw_triangle.c ****     tmp.y = p1->y;
 337:..\..\..\lvgl\version_6.1.2\lvgl\src\lv_draw/lv_draw_triangle.c **** 
 338:..\..\..\lvgl\version_6.1.2\lvgl\src\lv_draw/lv_draw_triangle.c ****     p1->x = p2->x;
 339:..\..\..\lvgl\version_6.1.2\lvgl\src\lv_draw/lv_draw_triangle.c ****     p1->y = p2->y;
 340:..\..\..\lvgl\version_6.1.2\lvgl\src\lv_draw/lv_draw_triangle.c **** 
 341:..\..\..\lvgl\version_6.1.2\lvgl\src\lv_draw/lv_draw_triangle.c ****     p2->x = tmp.x;
 157              		.loc 1 341 0
 158 00d6 0392     		str	r2, [sp, #12]
 159 00d8 2046     		mov	r0, r4
 160 00da 61F30F00 		bfi	r0, r1, #0, #16
 161 00de 67F30F04 		bfi	r4, r7, #0, #16
 162 00e2 66F31F44 		bfi	r4, r6, #16, #16
 163 00e6 62F31F40 		bfi	r0, r2, #16, #16
 164 00ea B346     		mov	fp, r6
 165 00ec 1C90     		str	r0, [sp, #112]
 166              	.LVL6:
 167 00ee 059E     		ldr	r6, [sp, #20]
 168 00f0 1B94     		str	r4, [sp, #108]
 169 00f2 0591     		str	r1, [sp, #20]
 170 00f4 1046     		mov	r0, r2
ARM GAS  C:\Users\pearlstl\AppData\Local\Temp\ccVE6Vs6.s 			page 10


 171              	.LVL7:
 172              	.L11:
 173              	.LBE15:
 174              	.LBE14:
 141:..\..\..\lvgl\version_6.1.2\lvgl\src\lv_draw/lv_draw_triangle.c ****     lv_coord_t sx1  = tri[0].x < tri[1].x ? 1 : -1;
 175              		.loc 1 141 0
 176 00f6 C1EB060A 		rsb	r10, r1, r6
 143:..\..\..\lvgl\version_6.1.2\lvgl\src\lv_draw/lv_draw_triangle.c ****     lv_coord_t sy1  = tri[0].y < tri[1].y ? 1 : -1;
 177              		.loc 1 143 0
 178 00fa C0EB0B08 		rsb	r8, r0, fp
 141:..\..\..\lvgl\version_6.1.2\lvgl\src\lv_draw/lv_draw_triangle.c ****     lv_coord_t sx1  = tri[0].x < tri[1].x ? 1 : -1;
 179              		.loc 1 141 0
 180 00fe BAF1000F 		cmp	r10, #0
 181 0102 B8BF     		it	lt
 182 0104 CAF1000A 		rsblt	r10, r10, #0
 143:..\..\..\lvgl\version_6.1.2\lvgl\src\lv_draw/lv_draw_triangle.c ****     lv_coord_t sy1  = tri[0].y < tri[1].y ? 1 : -1;
 183              		.loc 1 143 0
 184 0108 B8F1000F 		cmp	r8, #0
 185 010c B8BF     		it	lt
 186 010e C8F10008 		rsblt	r8, r8, #0
 141:..\..\..\lvgl\version_6.1.2\lvgl\src\lv_draw/lv_draw_triangle.c ****     lv_coord_t sx1  = tri[0].x < tri[1].x ? 1 : -1;
 187              		.loc 1 141 0
 188 0112 0FFA8AFA 		sxth	r10, r10
 189              	.LVL8:
 142:..\..\..\lvgl\version_6.1.2\lvgl\src\lv_draw/lv_draw_triangle.c ****     lv_coord_t dy1  = LV_MATH_ABS(tri[0].y - tri[1].y);
 190              		.loc 1 142 0
 191 0116 8E42     		cmp	r6, r1
 192 0118 ACBF     		ite	ge
 193 011a 4FF0FF32 		movge	r2, #-1
 194 011e 0122     		movlt	r2, #1
 143:..\..\..\lvgl\version_6.1.2\lvgl\src\lv_draw/lv_draw_triangle.c ****     lv_coord_t sy1  = tri[0].y < tri[1].y ? 1 : -1;
 195              		.loc 1 143 0
 196 0120 0FFA88F8 		sxth	r8, r8
 142:..\..\..\lvgl\version_6.1.2\lvgl\src\lv_draw/lv_draw_triangle.c ****     lv_coord_t dy1  = LV_MATH_ABS(tri[0].y - tri[1].y);
 197              		.loc 1 142 0
 198 0124 0992     		str	r2, [sp, #36]
 199              	.LVL9:
 144:..\..\..\lvgl\version_6.1.2\lvgl\src\lv_draw/lv_draw_triangle.c ****     lv_coord_t err1 = (dx1 > dy1 ? dx1 : -dy1) / 2;
 200              		.loc 1 144 0
 201 0126 8345     		cmp	fp, r0
 202 0128 ACBF     		ite	ge
 203 012a 4FF0FF32 		movge	r2, #-1
 204 012e 0122     		movlt	r2, #1
 145:..\..\..\lvgl\version_6.1.2\lvgl\src\lv_draw/lv_draw_triangle.c ****     lv_coord_t err_tmp1;
 205              		.loc 1 145 0
 206 0130 C245     		cmp	r10, r8
 144:..\..\..\lvgl\version_6.1.2\lvgl\src\lv_draw/lv_draw_triangle.c ****     lv_coord_t err1 = (dx1 > dy1 ? dx1 : -dy1) / 2;
 207              		.loc 1 144 0
 208 0132 0A92     		str	r2, [sp, #40]
 209              	.LVL10:
 145:..\..\..\lvgl\version_6.1.2\lvgl\src\lv_draw/lv_draw_triangle.c ****     lv_coord_t err_tmp1;
 210              		.loc 1 145 0
 211 0134 40F33681 		ble	.L14
 145:..\..\..\lvgl\version_6.1.2\lvgl\src\lv_draw/lv_draw_triangle.c ****     lv_coord_t err_tmp1;
 212              		.loc 1 145 0 is_stmt 0 discriminator 1
 213 0138 0AEBDA74 		add	r4, r10, r10, lsr #31
 214 013c 4FEA640C 		asr	ip, r4, #1
ARM GAS  C:\Users\pearlstl\AppData\Local\Temp\ccVE6Vs6.s 			page 11


 215              	.L15:
 216              	.LVL11:
 151:..\..\..\lvgl\version_6.1.2\lvgl\src\lv_draw/lv_draw_triangle.c ****     lv_coord_t sy2  = tri[0].y < tri[2].y ? 1 : -1;
 217              		.loc 1 151 0 is_stmt 1 discriminator 4
 218 0140 0298     		ldr	r0, [sp, #8]
 149:..\..\..\lvgl\version_6.1.2\lvgl\src\lv_draw/lv_draw_triangle.c ****     lv_coord_t sx2  = tri[0].x < tri[2].x ? 1 : -1;
 219              		.loc 1 149 0 discriminator 4
 220 0142 049F     		ldr	r7, [sp, #16]
 151:..\..\..\lvgl\version_6.1.2\lvgl\src\lv_draw/lv_draw_triangle.c ****     lv_coord_t sy2  = tri[0].y < tri[2].y ? 1 : -1;
 221              		.loc 1 151 0 discriminator 4
 222 0144 C0EB0B02 		rsb	r2, r0, fp
 223 0148 002A     		cmp	r2, #0
 224 014a B8BF     		it	lt
 225 014c 5242     		rsblt	r2, r2, #0
 226 014e 1146     		mov	r1, r2
 227 0150 1392     		str	r2, [sp, #76]
 149:..\..\..\lvgl\version_6.1.2\lvgl\src\lv_draw/lv_draw_triangle.c ****     lv_coord_t sx2  = tri[0].x < tri[2].x ? 1 : -1;
 228              		.loc 1 149 0 discriminator 4
 229 0152 F21B     		subs	r2, r6, r7
 230 0154 002A     		cmp	r2, #0
 231 0156 B8BF     		it	lt
 232 0158 5242     		rsblt	r2, r2, #0
 151:..\..\..\lvgl\version_6.1.2\lvgl\src\lv_draw/lv_draw_triangle.c ****     lv_coord_t sy2  = tri[0].y < tri[2].y ? 1 : -1;
 233              		.loc 1 151 0 discriminator 4
 234 015a 09B2     		sxth	r1, r1
 235 015c 0691     		str	r1, [sp, #24]
 149:..\..\..\lvgl\version_6.1.2\lvgl\src\lv_draw/lv_draw_triangle.c ****     lv_coord_t sx2  = tri[0].x < tri[2].x ? 1 : -1;
 236              		.loc 1 149 0 discriminator 4
 237 015e 1146     		mov	r1, r2
 238 0160 0CB2     		sxth	r4, r1
 153:..\..\..\lvgl\version_6.1.2\lvgl\src\lv_draw/lv_draw_triangle.c ****     lv_coord_t err_tmp2;
 239              		.loc 1 153 0 discriminator 4
 240 0162 0699     		ldr	r1, [sp, #24]
 149:..\..\..\lvgl\version_6.1.2\lvgl\src\lv_draw/lv_draw_triangle.c ****     lv_coord_t sx2  = tri[0].x < tri[2].x ? 1 : -1;
 241              		.loc 1 149 0 discriminator 4
 242 0164 1192     		str	r2, [sp, #68]
 150:..\..\..\lvgl\version_6.1.2\lvgl\src\lv_draw/lv_draw_triangle.c ****     lv_coord_t dy2  = LV_MATH_ABS(tri[0].y - tri[2].y);
 243              		.loc 1 150 0 discriminator 4
 244 0166 4FF6FF72 		movw	r2, #65535
 245 016a B742     		cmp	r7, r6
 246 016c D4BF     		ite	le
 247 016e 1746     		movle	r7, r2
 248 0170 0127     		movgt	r7, #1
 152:..\..\..\lvgl\version_6.1.2\lvgl\src\lv_draw/lv_draw_triangle.c ****     lv_coord_t err2 = (dx1 > dy2 ? dx2 : -dy2) / 2;
 249              		.loc 1 152 0 discriminator 4
 250 0172 5845     		cmp	r0, fp
 251 0174 C8BF     		it	gt
 252 0176 0122     		movgt	r2, #1
 153:..\..\..\lvgl\version_6.1.2\lvgl\src\lv_draw/lv_draw_triangle.c ****     lv_coord_t err_tmp2;
 253              		.loc 1 153 0 discriminator 4
 254 0178 8A45     		cmp	r10, r1
 149:..\..\..\lvgl\version_6.1.2\lvgl\src\lv_draw/lv_draw_triangle.c ****     lv_coord_t sx2  = tri[0].x < tri[2].x ? 1 : -1;
 255              		.loc 1 149 0 discriminator 4
 256 017a 1294     		str	r4, [sp, #72]
 257              	.LVL12:
 150:..\..\..\lvgl\version_6.1.2\lvgl\src\lv_draw/lv_draw_triangle.c ****     lv_coord_t dy2  = LV_MATH_ABS(tri[0].y - tri[2].y);
 258              		.loc 1 150 0 discriminator 4
ARM GAS  C:\Users\pearlstl\AppData\Local\Temp\ccVE6Vs6.s 			page 12


 259 017c 1497     		str	r7, [sp, #80]
 260              	.LVL13:
 152:..\..\..\lvgl\version_6.1.2\lvgl\src\lv_draw/lv_draw_triangle.c ****     lv_coord_t err2 = (dx1 > dy2 ? dx2 : -dy2) / 2;
 261              		.loc 1 152 0 discriminator 4
 262 017e 1592     		str	r2, [sp, #84]
 153:..\..\..\lvgl\version_6.1.2\lvgl\src\lv_draw/lv_draw_triangle.c ****     lv_coord_t err_tmp2;
 263              		.loc 1 153 0 discriminator 4
 264 0180 40F3F280 		ble	.L18
 153:..\..\..\lvgl\version_6.1.2\lvgl\src\lv_draw/lv_draw_triangle.c ****     lv_coord_t err_tmp2;
 265              		.loc 1 153 0 is_stmt 0 discriminator 1
 266 0184 04EBD477 		add	r7, r4, r4, lsr #31
 267 0188 7F10     		asrs	r7, r7, #1
 268              	.L19:
 188:..\..\..\lvgl\version_6.1.2\lvgl\src\lv_draw/lv_draw_triangle.c ****                 sy1  = tri[1].y < tri[2].y ? 1 : -1;
 269              		.loc 1 188 0 is_stmt 1
 270 018a 0399     		ldr	r1, [sp, #12]
 271 018c 0D93     		str	r3, [sp, #52]
 272 018e 0B1A     		subs	r3, r1, r0
 273              	.LVL14:
 274 0190 002B     		cmp	r3, #0
 186:..\..\..\lvgl\version_6.1.2\lvgl\src\lv_draw/lv_draw_triangle.c ****                 sx1  = tri[1].x < tri[2].x ? 1 : -1;
 275              		.loc 1 186 0
 276 0192 049C     		ldr	r4, [sp, #16]
 277              	.LVL15:
 278 0194 0B95     		str	r5, [sp, #44]
 279 0196 059D     		ldr	r5, [sp, #20]
 280              	.LVL16:
 281 0198 CDF830E0 		str	lr, [sp, #48]
 188:..\..\..\lvgl\version_6.1.2\lvgl\src\lv_draw/lv_draw_triangle.c ****                 sy1  = tri[1].y < tri[2].y ? 1 : -1;
 282              		.loc 1 188 0
 283 019c B8BF     		it	lt
 284 019e 5B42     		rsblt	r3, r3, #0
 186:..\..\..\lvgl\version_6.1.2\lvgl\src\lv_draw/lv_draw_triangle.c ****                 sx1  = tri[1].x < tri[2].x ? 1 : -1;
 285              		.loc 1 186 0
 286 01a0 2A1B     		subs	r2, r5, r4
 188:..\..\..\lvgl\version_6.1.2\lvgl\src\lv_draw/lv_draw_triangle.c ****                 sy1  = tri[1].y < tri[2].y ? 1 : -1;
 287              		.loc 1 188 0
 288 01a2 1BB2     		sxth	r3, r3
 186:..\..\..\lvgl\version_6.1.2\lvgl\src\lv_draw/lv_draw_triangle.c ****                 sx1  = tri[1].x < tri[2].x ? 1 : -1;
 289              		.loc 1 186 0
 290 01a4 002A     		cmp	r2, #0
 188:..\..\..\lvgl\version_6.1.2\lvgl\src\lv_draw/lv_draw_triangle.c ****                 sy1  = tri[1].y < tri[2].y ? 1 : -1;
 291              		.loc 1 188 0
 292 01a6 0893     		str	r3, [sp, #32]
 190:..\..\..\lvgl\version_6.1.2\lvgl\src\lv_draw/lv_draw_triangle.c ****             } else if(edge1.x == tri[2].x && edge1.y == tri[2].y) {
 293              		.loc 1 190 0
 294 01a8 03EBD373 		add	r3, r3, r3, lsr #31
 186:..\..\..\lvgl\version_6.1.2\lvgl\src\lv_draw/lv_draw_triangle.c ****                 sx1  = tri[1].x < tri[2].x ? 1 : -1;
 295              		.loc 1 186 0
 296 01ac B8BF     		it	lt
 297 01ae 5242     		rsblt	r2, r2, #0
 190:..\..\..\lvgl\version_6.1.2\lvgl\src\lv_draw/lv_draw_triangle.c ****             } else if(edge1.x == tri[2].x && edge1.y == tri[2].y) {
 298              		.loc 1 190 0
 299 01b0 5B10     		asrs	r3, r3, #1
 186:..\..\..\lvgl\version_6.1.2\lvgl\src\lv_draw/lv_draw_triangle.c ****                 sx1  = tri[1].x < tri[2].x ? 1 : -1;
 300              		.loc 1 186 0
 301 01b2 12B2     		sxth	r2, r2
ARM GAS  C:\Users\pearlstl\AppData\Local\Temp\ccVE6Vs6.s 			page 13


 190:..\..\..\lvgl\version_6.1.2\lvgl\src\lv_draw/lv_draw_triangle.c ****             } else if(edge1.x == tri[2].x && edge1.y == tri[2].y) {
 302              		.loc 1 190 0
 303 01b4 5B42     		negs	r3, r3
 304 01b6 1BB2     		sxth	r3, r3
 186:..\..\..\lvgl\version_6.1.2\lvgl\src\lv_draw/lv_draw_triangle.c ****                 sx1  = tri[1].x < tri[2].x ? 1 : -1;
 305              		.loc 1 186 0
 306 01b8 0792     		str	r2, [sp, #28]
 190:..\..\..\lvgl\version_6.1.2\lvgl\src\lv_draw/lv_draw_triangle.c ****             } else if(edge1.x == tri[2].x && edge1.y == tri[2].y) {
 307              		.loc 1 190 0
 308 01ba 02EBD272 		add	r2, r2, r2, lsr #31
 309 01be 1793     		str	r3, [sp, #92]
 310 01c0 5310     		asrs	r3, r2, #1
 311 01c2 1693     		str	r3, [sp, #88]
 312 01c4 AC42     		cmp	r4, r5
 313 01c6 CCBF     		ite	gt
 314 01c8 0123     		movgt	r3, #1
 315 01ca 4FF0FF33 		movle	r3, #-1
 316 01ce 0093     		str	r3, [sp]
 317 01d0 8842     		cmp	r0, r1
 318 01d2 CCBF     		ite	gt
 319 01d4 0123     		movgt	r3, #1
 320 01d6 4FF0FF33 		movle	r3, #-1
 321 01da 0193     		str	r3, [sp, #4]
 322 01dc D946     		mov	r9, fp
 323 01de 3546     		mov	r5, r6
 324 01e0 6446     		mov	r4, ip
 325              	.LVL17:
 326              	.L52:
 174:..\..\..\lvgl\version_6.1.2\lvgl\src\lv_draw/lv_draw_triangle.c ****         draw_area.x2 = LV_MATH_MAX(act_area.x1, act_area.x2);
 327              		.loc 1 174 0
 328 01e2 AE42     		cmp	r6, r5
 329 01e4 3246     		mov	r2, r6
 330 01e6 A8BF     		it	ge
 331 01e8 2A46     		movge	r2, r5
 176:..\..\..\lvgl\version_6.1.2\lvgl\src\lv_draw/lv_draw_triangle.c ****         draw_area.y2 = LV_MATH_MAX(act_area.y1, act_area.y2) - 1;
 332              		.loc 1 176 0
 333 01ea CB45     		cmp	fp, r9
 334 01ec 5946     		mov	r1, fp
 174:..\..\..\lvgl\version_6.1.2\lvgl\src\lv_draw/lv_draw_triangle.c ****         draw_area.x2 = LV_MATH_MAX(act_area.x1, act_area.x2);
 335              		.loc 1 174 0
 336 01ee 02F10102 		add	r2, r2, #1
 176:..\..\..\lvgl\version_6.1.2\lvgl\src\lv_draw/lv_draw_triangle.c ****         draw_area.y2 = LV_MATH_MAX(act_area.y1, act_area.y2) - 1;
 337              		.loc 1 176 0
 338 01f2 A8BF     		it	ge
 339 01f4 4946     		movge	r1, r9
 177:..\..\..\lvgl\version_6.1.2\lvgl\src\lv_draw/lv_draw_triangle.c **** 
 340              		.loc 1 177 0
 341 01f6 CB45     		cmp	fp, r9
 342 01f8 5846     		mov	r0, fp
 174:..\..\..\lvgl\version_6.1.2\lvgl\src\lv_draw/lv_draw_triangle.c ****         draw_area.x2 = LV_MATH_MAX(act_area.x1, act_area.x2);
 343              		.loc 1 174 0
 344 01fa ADF86420 		strh	r2, [sp, #100]	@ movhi
 177:..\..\..\lvgl\version_6.1.2\lvgl\src\lv_draw/lv_draw_triangle.c **** 
 345              		.loc 1 177 0
 346 01fe B8BF     		it	lt
 347 0200 4846     		movlt	r0, r9
 179:..\..\..\lvgl\version_6.1.2\lvgl\src\lv_draw/lv_draw_triangle.c **** 
ARM GAS  C:\Users\pearlstl\AppData\Local\Temp\ccVE6Vs6.s 			page 14


 348              		.loc 1 179 0
 349 0202 0C9A     		ldr	r2, [sp, #48]
 350 0204 0D9B     		ldr	r3, [sp, #52]
 351 0206 5268     		ldr	r2, [r2, #4]
 175:..\..\..\lvgl\version_6.1.2\lvgl\src\lv_draw/lv_draw_triangle.c ****         draw_area.y1 = LV_MATH_MIN(act_area.y1, act_area.y2) - 1;
 352              		.loc 1 175 0
 353 0208 AE42     		cmp	r6, r5
 176:..\..\..\lvgl\version_6.1.2\lvgl\src\lv_draw/lv_draw_triangle.c ****         draw_area.y2 = LV_MATH_MAX(act_area.y1, act_area.y2) - 1;
 354              		.loc 1 176 0
 355 020a 01F1FF31 		add	r1, r1, #-1
 177:..\..\..\lvgl\version_6.1.2\lvgl\src\lv_draw/lv_draw_triangle.c **** 
 356              		.loc 1 177 0
 357 020e 00F1FF30 		add	r0, r0, #-1
 175:..\..\..\lvgl\version_6.1.2\lvgl\src\lv_draw/lv_draw_triangle.c ****         draw_area.y1 = LV_MATH_MIN(act_area.y1, act_area.y2) - 1;
 358              		.loc 1 175 0
 359 0212 B646     		mov	lr, r6
 176:..\..\..\lvgl\version_6.1.2\lvgl\src\lv_draw/lv_draw_triangle.c ****         draw_area.y2 = LV_MATH_MAX(act_area.y1, act_area.y2) - 1;
 360              		.loc 1 176 0
 361 0214 ADF86610 		strh	r1, [sp, #102]	@ movhi
 175:..\..\..\lvgl\version_6.1.2\lvgl\src\lv_draw/lv_draw_triangle.c ****         draw_area.y1 = LV_MATH_MIN(act_area.y1, act_area.y2) - 1;
 362              		.loc 1 175 0
 363 0218 B8BF     		it	lt
 364 021a AE46     		movlt	lr, r5
 177:..\..\..\lvgl\version_6.1.2\lvgl\src\lv_draw/lv_draw_triangle.c **** 
 365              		.loc 1 177 0
 366 021c ADF86A00 		strh	r0, [sp, #106]	@ movhi
 179:..\..\..\lvgl\version_6.1.2\lvgl\src\lv_draw/lv_draw_triangle.c **** 
 367              		.loc 1 179 0
 368 0220 0B99     		ldr	r1, [sp, #44]
 175:..\..\..\lvgl\version_6.1.2\lvgl\src\lv_draw/lv_draw_triangle.c ****         draw_area.y1 = LV_MATH_MIN(act_area.y1, act_area.y2) - 1;
 369              		.loc 1 175 0
 370 0222 ADF868E0 		strh	lr, [sp, #104]	@ movhi
 179:..\..\..\lvgl\version_6.1.2\lvgl\src\lv_draw/lv_draw_triangle.c **** 
 371              		.loc 1 179 0
 372 0226 19A8     		add	r0, sp, #100
 373 0228 FFF7FEFF 		bl	lv_draw_fill
 374              	.LVL18:
 375 022c 029B     		ldr	r3, [sp, #8]
 376 022e 089A     		ldr	r2, [sp, #32]
 377 0230 9945     		cmp	r9, r3
 378 0232 079B     		ldr	r3, [sp, #28]
 379 0234 00F03281 		beq	.L20
 380 0238 9342     		cmp	r3, r2
 381 023a 039B     		ldr	r3, [sp, #12]
 382 023c 6FDC     		bgt	.L21
 383 023e 9945     		cmp	r9, r3
 384 0240 00F0B780 		beq	.L70
 385 0244 0A9B     		ldr	r3, [sp, #40]
 386 0246 DDF824E0 		ldr	lr, [sp, #36]
 387 024a 03EB0901 		add	r1, r3, r9
 201:..\..\..\lvgl\version_6.1.2\lvgl\src\lv_draw/lv_draw_triangle.c ****             }
 388              		.loc 1 201 0
 389 024e 09B2     		sxth	r1, r1
 390 0250 CAF10002 		rsb	r2, r10, #0
 391              	.LVL19:
 392              	.L23:
 197:..\..\..\lvgl\version_6.1.2\lvgl\src\lv_draw/lv_draw_triangle.c ****             }
ARM GAS  C:\Users\pearlstl\AppData\Local\Temp\ccVE6Vs6.s 			page 15


 393              		.loc 1 197 0
 394 0254 0EEB0500 		add	r0, lr, r5
 395 0258 A242     		cmp	r2, r4
 396 025a 00B2     		sxth	r0, r0
 196:..\..\..\lvgl\version_6.1.2\lvgl\src\lv_draw/lv_draw_triangle.c ****                 edge1.x += sx1;
 397              		.loc 1 196 0
 398 025c C8EB0403 		rsb	r3, r8, r4
 399 0260 B8BF     		it	lt
 400 0262 0546     		movlt	r5, r0
 401 0264 1BB2     		sxth	r3, r3
 402 0266 A8BF     		it	ge
 403 0268 2346     		movge	r3, r4
 404 026a A045     		cmp	r8, r4
 405 026c 1BB2     		sxth	r3, r3
 406 026e D4BF     		ite	le
 407 0270 4846     		movle	r0, r9
 408 0272 0846     		movgt	r0, r1
 200:..\..\..\lvgl\version_6.1.2\lvgl\src\lv_draw/lv_draw_triangle.c ****                 edge1.y += sy1;
 409              		.loc 1 200 0
 410 0274 0AEB0304 		add	r4, r10, r3
 411 0278 00B2     		sxth	r0, r0
 412 027a 24B2     		sxth	r4, r4
 413 027c D8BF     		it	le
 414 027e 1C46     		movle	r4, r3
 203:..\..\..\lvgl\version_6.1.2\lvgl\src\lv_draw/lv_draw_triangle.c **** 
 415              		.loc 1 203 0
 416 0280 8145     		cmp	r9, r0
 417 0282 2DB2     		sxth	r5, r5
 418              	.LVL20:
 419 0284 E6D0     		beq	.L23
 420              	.LVL21:
 421              	.L75:
 422 0286 8146     		mov	r9, r0
 423              	.LVL22:
 424              	.L24:
 425 0288 029B     		ldr	r3, [sp, #8]
 426 028a 9B45     		cmp	fp, r3
 427 028c 159B     		ldr	r3, [sp, #84]
 428 028e 03EB0B02 		add	r2, r3, fp
 216:..\..\..\lvgl\version_6.1.2\lvgl\src\lv_draw/lv_draw_triangle.c ****             }
 429              		.loc 1 216 0
 430 0292 12B2     		sxth	r2, r2
 431 0294 129B     		ldr	r3, [sp, #72]
 432 0296 00F02581 		beq	.L77
 433 029a CDF83C80 		str	r8, [sp, #60]
 434 029e 1094     		str	r4, [sp, #64]
 435 02a0 DDF84CE0 		ldr	lr, [sp, #76]
 436 02a4 119C     		ldr	r4, [sp, #68]
 437 02a6 DDF818C0 		ldr	ip, [sp, #24]
 438 02aa DDF85080 		ldr	r8, [sp, #80]
 439 02ae CDF838A0 		str	r10, [sp, #56]
 440 02b2 5942     		negs	r1, r3
 441              	.L48:
 442 02b4 8F42     		cmp	r7, r1
 211:..\..\..\lvgl\version_6.1.2\lvgl\src\lv_draw/lv_draw_triangle.c ****                 edge2.x += sx2;
 443              		.loc 1 211 0
 444 02b6 CEEB0703 		rsb	r3, lr, r7
ARM GAS  C:\Users\pearlstl\AppData\Local\Temp\ccVE6Vs6.s 			page 16


 212:..\..\..\lvgl\version_6.1.2\lvgl\src\lv_draw/lv_draw_triangle.c ****             }
 445              		.loc 1 212 0
 446 02ba 08EB060A 		add	r10, r8, r6
 211:..\..\..\lvgl\version_6.1.2\lvgl\src\lv_draw/lv_draw_triangle.c ****                 edge2.x += sx2;
 447              		.loc 1 211 0
 448 02be 1BB2     		sxth	r3, r3
 449 02c0 D8BF     		it	le
 450 02c2 3B46     		movle	r3, r7
 451 02c4 1BB2     		sxth	r3, r3
 212:..\..\..\lvgl\version_6.1.2\lvgl\src\lv_draw/lv_draw_triangle.c ****             }
 452              		.loc 1 212 0
 453 02c6 0FFA8AFA 		sxth	r10, r10
 215:..\..\..\lvgl\version_6.1.2\lvgl\src\lv_draw/lv_draw_triangle.c ****                 edge2.y += sy2;
 454              		.loc 1 215 0
 455 02ca 03EB0400 		add	r0, r3, r4
 456 02ce C8BF     		it	gt
 457 02d0 5646     		movgt	r6, r10
 458 02d2 BC45     		cmp	ip, r7
 459 02d4 07B2     		sxth	r7, r0
 460 02d6 D4BF     		ite	le
 461 02d8 5846     		movle	r0, fp
 462 02da 1046     		movgt	r0, r2
 463 02dc 00B2     		sxth	r0, r0
 464 02de C8BF     		it	gt
 465 02e0 3B46     		movgt	r3, r7
 218:..\..\..\lvgl\version_6.1.2\lvgl\src\lv_draw/lv_draw_triangle.c ****     }
 466              		.loc 1 218 0
 467 02e2 8345     		cmp	fp, r0
 468 02e4 36B2     		sxth	r6, r6
 469              	.LVL23:
 470 02e6 1F46     		mov	r7, r3
 471 02e8 E4D0     		beq	.L48
 472 02ea DDF838A0 		ldr	r10, [sp, #56]
 473 02ee DDF83C80 		ldr	r8, [sp, #60]
 474 02f2 109C     		ldr	r4, [sp, #64]
 475              	.LVL24:
 476              	.L49:
 190:..\..\..\lvgl\version_6.1.2\lvgl\src\lv_draw/lv_draw_triangle.c ****             } else if(edge1.x == tri[2].x && edge1.y == tri[2].y) {
 477              		.loc 1 190 0
 478 02f4 8346     		mov	fp, r0
 479 02f6 1F46     		mov	r7, r3
 480 02f8 73E7     		b	.L52
 481              	.LVL25:
 482              	.L7:
 483              	.LBB16:
 484              	.LBB17:
 339:..\..\..\lvgl\version_6.1.2\lvgl\src\lv_draw/lv_draw_triangle.c **** 
 485              		.loc 1 339 0
 486 02fa BDF80800 		ldrh	r0, [sp, #8]
 335:..\..\..\lvgl\version_6.1.2\lvgl\src\lv_draw/lv_draw_triangle.c ****     tmp.y = p1->y;
 487              		.loc 1 335 0
 488 02fe BDF97010 		ldrsh	r1, [sp, #112]
 489              	.LVL26:
 339:..\..\..\lvgl\version_6.1.2\lvgl\src\lv_draw/lv_draw_triangle.c **** 
 490              		.loc 1 339 0
 491 0302 ADF87200 		strh	r0, [sp, #114]	@ movhi
 338:..\..\..\lvgl\version_6.1.2\lvgl\src\lv_draw/lv_draw_triangle.c ****     p1->y = p2->y;
ARM GAS  C:\Users\pearlstl\AppData\Local\Temp\ccVE6Vs6.s 			page 17


 492              		.loc 1 338 0
 493 0306 BDF81000 		ldrh	r0, [sp, #16]
 342:..\..\..\lvgl\version_6.1.2\lvgl\src\lv_draw/lv_draw_triangle.c ****     p2->y = tmp.y;
 494              		.loc 1 342 0
 495 030a ADF86E20 		strh	r2, [sp, #110]	@ movhi
 341:..\..\..\lvgl\version_6.1.2\lvgl\src\lv_draw/lv_draw_triangle.c ****     p2->y = tmp.y;
 496              		.loc 1 341 0
 497 030e ADF86C10 		strh	r1, [sp, #108]	@ movhi
 338:..\..\..\lvgl\version_6.1.2\lvgl\src\lv_draw/lv_draw_triangle.c ****     p1->y = p2->y;
 498              		.loc 1 338 0
 499 0312 ADF87000 		strh	r0, [sp, #112]	@ movhi
 500 0316 CAE6     		b	.L8
 501              	.LVL27:
 502              	.L1:
 503              	.LBE17:
 504              	.LBE16:
 220:..\..\..\lvgl\version_6.1.2\lvgl\src\lv_draw/lv_draw_triangle.c **** 
 505              		.loc 1 220 0
 506 0318 1FB0     		add	sp, sp, #124
 507              		.cfi_remember_state
 508              		.cfi_def_cfa_offset 36
 509              		@ sp needed
 510 031a BDE8F08F 		pop	{r4, r5, r6, r7, r8, r9, r10, fp, pc}
 511              	.LVL28:
 512              	.L21:
 513              		.cfi_restore_state
 514 031e 9945     		cmp	r9, r3
 515 0320 00F08680 		beq	.L71
 516 0324 0A9B     		ldr	r3, [sp, #40]
 517 0326 DDF824E0 		ldr	lr, [sp, #36]
 518 032a 03EB0901 		add	r1, r3, r9
 201:..\..\..\lvgl\version_6.1.2\lvgl\src\lv_draw/lv_draw_triangle.c ****             }
 519              		.loc 1 201 0
 520 032e 09B2     		sxth	r1, r1
 521 0330 CAF10002 		rsb	r2, r10, #0
 522              	.LVL29:
 523              	.L27:
 197:..\..\..\lvgl\version_6.1.2\lvgl\src\lv_draw/lv_draw_triangle.c ****             }
 524              		.loc 1 197 0
 525 0334 0EEB0500 		add	r0, lr, r5
 526 0338 A242     		cmp	r2, r4
 527 033a 00B2     		sxth	r0, r0
 196:..\..\..\lvgl\version_6.1.2\lvgl\src\lv_draw/lv_draw_triangle.c ****                 edge1.x += sx1;
 528              		.loc 1 196 0
 529 033c C8EB0403 		rsb	r3, r8, r4
 530 0340 B8BF     		it	lt
 531 0342 0546     		movlt	r5, r0
 532 0344 1BB2     		sxth	r3, r3
 533 0346 A8BF     		it	ge
 534 0348 2346     		movge	r3, r4
 535 034a A045     		cmp	r8, r4
 536 034c 1BB2     		sxth	r3, r3
 537 034e D4BF     		ite	le
 538 0350 4846     		movle	r0, r9
 539 0352 0846     		movgt	r0, r1
 200:..\..\..\lvgl\version_6.1.2\lvgl\src\lv_draw/lv_draw_triangle.c ****                 edge1.y += sy1;
 540              		.loc 1 200 0
ARM GAS  C:\Users\pearlstl\AppData\Local\Temp\ccVE6Vs6.s 			page 18


 541 0354 0AEB0304 		add	r4, r10, r3
 542 0358 00B2     		sxth	r0, r0
 543 035a 24B2     		sxth	r4, r4
 544 035c D8BF     		it	le
 545 035e 1C46     		movle	r4, r3
 203:..\..\..\lvgl\version_6.1.2\lvgl\src\lv_draw/lv_draw_triangle.c **** 
 546              		.loc 1 203 0
 547 0360 8145     		cmp	r9, r0
 548 0362 2DB2     		sxth	r5, r5
 549              	.LVL30:
 550 0364 E6D0     		beq	.L27
 551 0366 8EE7     		b	.L75
 552              	.LVL31:
 553              	.L18:
 153:..\..\..\lvgl\version_6.1.2\lvgl\src\lv_draw/lv_draw_triangle.c ****     lv_coord_t err_tmp2;
 554              		.loc 1 153 0 discriminator 2
 555 0368 01EBD177 		add	r7, r1, r1, lsr #31
 556 036c 7F10     		asrs	r7, r7, #1
 557 036e 7F42     		negs	r7, r7
 558 0370 3FB2     		sxth	r7, r7
 559 0372 0AE7     		b	.L19
 560              	.LVL32:
 561              	.L53:
 562 0374 0E46     		mov	r6, r1
 563 0376 9346     		mov	fp, r2
 564 0378 0599     		ldr	r1, [sp, #20]
 565 037a 0398     		ldr	r0, [sp, #12]
 566 037c BBE6     		b	.L11
 567              	.L9:
 568              	.LVL33:
 569              	.LBB18:
 570              	.LBB19:
 335:..\..\..\lvgl\version_6.1.2\lvgl\src\lv_draw/lv_draw_triangle.c ****     tmp.y = p1->y;
 571              		.loc 1 335 0
 572 037e BDF97400 		ldrsh	r0, [sp, #116]
 339:..\..\..\lvgl\version_6.1.2\lvgl\src\lv_draw/lv_draw_triangle.c **** 
 573              		.loc 1 339 0
 574 0382 BDF80840 		ldrh	r4, [sp, #8]
 335:..\..\..\lvgl\version_6.1.2\lvgl\src\lv_draw/lv_draw_triangle.c ****     tmp.y = p1->y;
 575              		.loc 1 335 0
 576 0386 0590     		str	r0, [sp, #20]
 577              	.LVL34:
 339:..\..\..\lvgl\version_6.1.2\lvgl\src\lv_draw/lv_draw_triangle.c **** 
 578              		.loc 1 339 0
 579 0388 ADF87640 		strh	r4, [sp, #118]	@ movhi
 341:..\..\..\lvgl\version_6.1.2\lvgl\src\lv_draw/lv_draw_triangle.c ****     p2->y = tmp.y;
 580              		.loc 1 341 0
 581 038c ADF87000 		strh	r0, [sp, #112]	@ movhi
 582              		.loc 1 342 0
 583 0390 BDF80C40 		ldrh	r4, [sp, #12]
 338:..\..\..\lvgl\version_6.1.2\lvgl\src\lv_draw/lv_draw_triangle.c ****     p1->y = p2->y;
 584              		.loc 1 338 0
 585 0394 BDF81000 		ldrh	r0, [sp, #16]
 586              	.LVL35:
 587              		.loc 1 342 0
 588 0398 ADF87240 		strh	r4, [sp, #114]	@ movhi
 338:..\..\..\lvgl\version_6.1.2\lvgl\src\lv_draw/lv_draw_triangle.c ****     p1->y = p2->y;
ARM GAS  C:\Users\pearlstl\AppData\Local\Temp\ccVE6Vs6.s 			page 19


 589              		.loc 1 338 0
 590 039c ADF87400 		strh	r0, [sp, #116]	@ movhi
 591 03a0 039E     		ldr	r6, [sp, #12]
 592 03a2 93E6     		b	.L10
 593              	.LVL36:
 594              	.L14:
 595              	.LBE19:
 596              	.LBE18:
 145:..\..\..\lvgl\version_6.1.2\lvgl\src\lv_draw/lv_draw_triangle.c ****     lv_coord_t err_tmp1;
 597              		.loc 1 145 0 discriminator 2
 598 03a4 08EBD874 		add	r4, r8, r8, lsr #31
 599 03a8 6410     		asrs	r4, r4, #1
 600 03aa 6442     		negs	r4, r4
 601 03ac 0FFA84FC 		sxth	ip, r4
 602 03b0 C6E6     		b	.L15
 603              	.LVL37:
 604              	.L70:
 605 03b2 9446     		mov	ip, r2
 606 03b4 0E97     		str	r7, [sp, #56]
 607 03b6 2246     		mov	r2, r4
 608 03b8 CDF83CB0 		str	fp, [sp, #60]
 609 03bc 1096     		str	r6, [sp, #64]
 610 03be 0A9F     		ldr	r7, [sp, #40]
 611              	.LVL38:
 612 03c0 DDF81CE0 		ldr	lr, [sp, #28]
 613 03c4 DDF85CB0 		ldr	fp, [sp, #92]
 614              	.LVL39:
 615 03c8 059C     		ldr	r4, [sp, #20]
 616 03ca 099E     		ldr	r6, [sp, #36]
 617              	.LVL40:
 618 03cc 2846     		mov	r0, r5
 619              	.LVL41:
 620              	.L25:
 621 03ce A042     		cmp	r0, r4
 622 03d0 08BF     		it	eq
 623 03d2 5A46     		moveq	r2, fp
 624 03d4 13B2     		sxth	r3, r2
 625 03d6 009A     		ldr	r2, [sp]
 626 03d8 08BF     		it	eq
 627 03da 1646     		moveq	r6, r2
 628 03dc 019A     		ldr	r2, [sp, #4]
 629 03de 02BF     		ittt	eq
 630 03e0 F246     		moveq	r10, lr
 631 03e2 E046     		moveq	r8, ip
 632 03e4 1746     		moveq	r7, r2
 195:..\..\..\lvgl\version_6.1.2\lvgl\src\lv_draw/lv_draw_triangle.c ****                 err1 -= dy1;
 633              		.loc 1 195 0
 634 03e6 CAF10005 		rsb	r5, r10, #0
 197:..\..\..\lvgl\version_6.1.2\lvgl\src\lv_draw/lv_draw_triangle.c ****             }
 635              		.loc 1 197 0
 636 03ea 3218     		adds	r2, r6, r0
 637 03ec 9D42     		cmp	r5, r3
 196:..\..\..\lvgl\version_6.1.2\lvgl\src\lv_draw/lv_draw_triangle.c ****                 edge1.x += sx1;
 638              		.loc 1 196 0
 639 03ee C8EB0301 		rsb	r1, r8, r3
 197:..\..\..\lvgl\version_6.1.2\lvgl\src\lv_draw/lv_draw_triangle.c ****             }
 640              		.loc 1 197 0
ARM GAS  C:\Users\pearlstl\AppData\Local\Temp\ccVE6Vs6.s 			page 20


 641 03f2 12B2     		sxth	r2, r2
 201:..\..\..\lvgl\version_6.1.2\lvgl\src\lv_draw/lv_draw_triangle.c ****             }
 642              		.loc 1 201 0
 643 03f4 07EB0905 		add	r5, r7, r9
 196:..\..\..\lvgl\version_6.1.2\lvgl\src\lv_draw/lv_draw_triangle.c ****                 edge1.x += sx1;
 644              		.loc 1 196 0
 645 03f8 09B2     		sxth	r1, r1
 646 03fa B4BF     		ite	lt
 647 03fc 1046     		movlt	r0, r2
 648 03fe 1946     		movge	r1, r3
 201:..\..\..\lvgl\version_6.1.2\lvgl\src\lv_draw/lv_draw_triangle.c ****             }
 649              		.loc 1 201 0
 650 0400 2DB2     		sxth	r5, r5
 651 0402 4345     		cmp	r3, r8
 652 0404 ACBF     		ite	ge
 653 0406 4B46     		movge	r3, r9
 654 0408 2B46     		movlt	r3, r5
 200:..\..\..\lvgl\version_6.1.2\lvgl\src\lv_draw/lv_draw_triangle.c ****                 edge1.y += sy1;
 655              		.loc 1 200 0
 656 040a 0AEB0102 		add	r2, r10, r1
 657 040e 1BB2     		sxth	r3, r3
 658 0410 12B2     		sxth	r2, r2
 659 0412 A8BF     		it	ge
 660 0414 0A46     		movge	r2, r1
 203:..\..\..\lvgl\version_6.1.2\lvgl\src\lv_draw/lv_draw_triangle.c **** 
 661              		.loc 1 203 0
 662 0416 9945     		cmp	r9, r3
 663 0418 00B2     		sxth	r0, r0
 664              	.LVL42:
 665 041a D8D0     		beq	.L25
 666              	.L73:
 667 041c 0996     		str	r6, [sp, #36]
 668 041e 0A97     		str	r7, [sp, #40]
 669 0420 1446     		mov	r4, r2
 670 0422 0E9F     		ldr	r7, [sp, #56]
 671 0424 DDF83CB0 		ldr	fp, [sp, #60]
 672 0428 109E     		ldr	r6, [sp, #64]
 673 042a 0546     		mov	r5, r0
 674 042c 9946     		mov	r9, r3
 675              	.LVL43:
 676 042e 2BE7     		b	.L24
 677              	.LVL44:
 678              	.L71:
 679 0430 9446     		mov	ip, r2
 680 0432 0E97     		str	r7, [sp, #56]
 681 0434 2246     		mov	r2, r4
 682 0436 CDF83CB0 		str	fp, [sp, #60]
 683 043a 1096     		str	r6, [sp, #64]
 684 043c 0A9F     		ldr	r7, [sp, #40]
 685              	.LVL45:
 686 043e DDF81CE0 		ldr	lr, [sp, #28]
 687 0442 DDF858B0 		ldr	fp, [sp, #88]
 688              	.LVL46:
 689 0446 059C     		ldr	r4, [sp, #20]
 690 0448 099E     		ldr	r6, [sp, #36]
 691              	.LVL47:
 692 044a 2846     		mov	r0, r5
ARM GAS  C:\Users\pearlstl\AppData\Local\Temp\ccVE6Vs6.s 			page 21


 693              	.LVL48:
 694              	.L28:
 695 044c 8442     		cmp	r4, r0
 696 044e 08BF     		it	eq
 697 0450 5A46     		moveq	r2, fp
 698 0452 13B2     		sxth	r3, r2
 699 0454 009A     		ldr	r2, [sp]
 700 0456 08BF     		it	eq
 701 0458 1646     		moveq	r6, r2
 702 045a 019A     		ldr	r2, [sp, #4]
 703 045c 02BF     		ittt	eq
 704 045e F246     		moveq	r10, lr
 705 0460 E046     		moveq	r8, ip
 706 0462 1746     		moveq	r7, r2
 195:..\..\..\lvgl\version_6.1.2\lvgl\src\lv_draw/lv_draw_triangle.c ****                 err1 -= dy1;
 707              		.loc 1 195 0
 708 0464 CAF10005 		rsb	r5, r10, #0
 197:..\..\..\lvgl\version_6.1.2\lvgl\src\lv_draw/lv_draw_triangle.c ****             }
 709              		.loc 1 197 0
 710 0468 3218     		adds	r2, r6, r0
 711 046a 9D42     		cmp	r5, r3
 196:..\..\..\lvgl\version_6.1.2\lvgl\src\lv_draw/lv_draw_triangle.c ****                 edge1.x += sx1;
 712              		.loc 1 196 0
 713 046c C8EB0301 		rsb	r1, r8, r3
 197:..\..\..\lvgl\version_6.1.2\lvgl\src\lv_draw/lv_draw_triangle.c ****             }
 714              		.loc 1 197 0
 715 0470 12B2     		sxth	r2, r2
 201:..\..\..\lvgl\version_6.1.2\lvgl\src\lv_draw/lv_draw_triangle.c ****             }
 716              		.loc 1 201 0
 717 0472 07EB0905 		add	r5, r7, r9
 196:..\..\..\lvgl\version_6.1.2\lvgl\src\lv_draw/lv_draw_triangle.c ****                 edge1.x += sx1;
 718              		.loc 1 196 0
 719 0476 09B2     		sxth	r1, r1
 720 0478 B4BF     		ite	lt
 721 047a 1046     		movlt	r0, r2
 722 047c 1946     		movge	r1, r3
 201:..\..\..\lvgl\version_6.1.2\lvgl\src\lv_draw/lv_draw_triangle.c ****             }
 723              		.loc 1 201 0
 724 047e 2DB2     		sxth	r5, r5
 725 0480 4345     		cmp	r3, r8
 726 0482 ACBF     		ite	ge
 727 0484 4B46     		movge	r3, r9
 728 0486 2B46     		movlt	r3, r5
 200:..\..\..\lvgl\version_6.1.2\lvgl\src\lv_draw/lv_draw_triangle.c ****                 edge1.y += sy1;
 729              		.loc 1 200 0
 730 0488 0AEB0102 		add	r2, r10, r1
 731 048c 1BB2     		sxth	r3, r3
 732 048e 12B2     		sxth	r2, r2
 733 0490 A8BF     		it	ge
 734 0492 0A46     		movge	r2, r1
 203:..\..\..\lvgl\version_6.1.2\lvgl\src\lv_draw/lv_draw_triangle.c **** 
 735              		.loc 1 203 0
 736 0494 9945     		cmp	r9, r3
 737 0496 00B2     		sxth	r0, r0
 738              	.LVL49:
 739 0498 D8D0     		beq	.L28
 740 049a BFE7     		b	.L73
ARM GAS  C:\Users\pearlstl\AppData\Local\Temp\ccVE6Vs6.s 			page 22


 741              	.LVL50:
 742              	.L20:
 743 049c 9342     		cmp	r3, r2
 744 049e 039B     		ldr	r3, [sp, #12]
 745 04a0 4BDC     		bgt	.L29
 746 04a2 9945     		cmp	r9, r3
 747 04a4 6AD0     		beq	.L78
 201:..\..\..\lvgl\version_6.1.2\lvgl\src\lv_draw/lv_draw_triangle.c ****             }
 748              		.loc 1 201 0
 749 04a6 0A9B     		ldr	r3, [sp, #40]
 750 04a8 DDF824C0 		ldr	ip, [sp, #36]
 751 04ac DDF810E0 		ldr	lr, [sp, #16]
 752 04b0 09EB0300 		add	r0, r9, r3
 753 04b4 00B2     		sxth	r0, r0
 179:..\..\..\lvgl\version_6.1.2\lvgl\src\lv_draw/lv_draw_triangle.c **** 
 754              		.loc 1 179 0
 755 04b6 2346     		mov	r3, r4
 195:..\..\..\lvgl\version_6.1.2\lvgl\src\lv_draw/lv_draw_triangle.c ****                 err1 -= dy1;
 756              		.loc 1 195 0
 757 04b8 CAF10001 		rsb	r1, r10, #0
 758              	.LVL51:
 759              	.L32:
 191:..\..\..\lvgl\version_6.1.2\lvgl\src\lv_draw/lv_draw_triangle.c ****                 return;
 760              		.loc 1 191 0
 761 04bc AE45     		cmp	lr, r5
 762 04be 3FF42BAF 		beq	.L1
 195:..\..\..\lvgl\version_6.1.2\lvgl\src\lv_draw/lv_draw_triangle.c ****                 err1 -= dy1;
 763              		.loc 1 195 0
 764 04c2 8C42     		cmp	r4, r1
 765 04c4 04DD     		ble	.L33
 196:..\..\..\lvgl\version_6.1.2\lvgl\src\lv_draw/lv_draw_triangle.c ****                 edge1.x += sx1;
 766              		.loc 1 196 0
 767 04c6 C8EB0404 		rsb	r4, r8, r4
 768              	.LVL52:
 197:..\..\..\lvgl\version_6.1.2\lvgl\src\lv_draw/lv_draw_triangle.c ****             }
 769              		.loc 1 197 0
 770 04ca 6544     		add	r5, r5, ip
 771              	.LVL53:
 196:..\..\..\lvgl\version_6.1.2\lvgl\src\lv_draw/lv_draw_triangle.c ****                 edge1.x += sx1;
 772              		.loc 1 196 0
 773 04cc 24B2     		sxth	r4, r4
 197:..\..\..\lvgl\version_6.1.2\lvgl\src\lv_draw/lv_draw_triangle.c ****             }
 774              		.loc 1 197 0
 775 04ce 2DB2     		sxth	r5, r5
 776              	.LVL54:
 777              	.L33:
 199:..\..\..\lvgl\version_6.1.2\lvgl\src\lv_draw/lv_draw_triangle.c ****                 err1 += dx1;
 778              		.loc 1 199 0
 779 04d0 9845     		cmp	r8, r3
 200:..\..\..\lvgl\version_6.1.2\lvgl\src\lv_draw/lv_draw_triangle.c ****                 edge1.y += sy1;
 780              		.loc 1 200 0
 781 04d2 04EB0A02 		add	r2, r4, r10
 782              	.LVL55:
 199:..\..\..\lvgl\version_6.1.2\lvgl\src\lv_draw/lv_draw_triangle.c ****                 err1 += dx1;
 783              		.loc 1 199 0
 784 04d6 03DD     		ble	.L34
 203:..\..\..\lvgl\version_6.1.2\lvgl\src\lv_draw/lv_draw_triangle.c **** 
ARM GAS  C:\Users\pearlstl\AppData\Local\Temp\ccVE6Vs6.s 			page 23


 785              		.loc 1 203 0
 786 04d8 8145     		cmp	r9, r0
 200:..\..\..\lvgl\version_6.1.2\lvgl\src\lv_draw/lv_draw_triangle.c ****                 edge1.y += sy1;
 787              		.loc 1 200 0
 788 04da 14B2     		sxth	r4, r2
 789              	.LVL56:
 203:..\..\..\lvgl\version_6.1.2\lvgl\src\lv_draw/lv_draw_triangle.c **** 
 790              		.loc 1 203 0
 791 04dc 7FF4D3AE 		bne	.L75
 792              	.LVL57:
 793              	.L34:
 179:..\..\..\lvgl\version_6.1.2\lvgl\src\lv_draw/lv_draw_triangle.c **** 
 794              		.loc 1 179 0
 795 04e0 2346     		mov	r3, r4
 796 04e2 EBE7     		b	.L32
 797              	.LVL58:
 798              	.L77:
 799 04e4 CDF838A0 		str	r10, [sp, #56]
 800 04e8 CDF83C80 		str	r8, [sp, #60]
 801 04ec 1094     		str	r4, [sp, #64]
 802 04ee DDF844C0 		ldr	ip, [sp, #68]
 803 04f2 049C     		ldr	r4, [sp, #16]
 804 04f4 DDF84C80 		ldr	r8, [sp, #76]
 805 04f8 DDF818A0 		ldr	r10, [sp, #24]
 806 04fc 1498     		ldr	r0, [sp, #80]
 210:..\..\..\lvgl\version_6.1.2\lvgl\src\lv_draw/lv_draw_triangle.c ****                 err2 -= dy2;
 807              		.loc 1 210 0
 808 04fe C3F1000E 		rsb	lr, r3, #0
 809              	.L47:
 810              	.LVL59:
 208:..\..\..\lvgl\version_6.1.2\lvgl\src\lv_draw/lv_draw_triangle.c ****             err_tmp2 = err2;
 811              		.loc 1 208 0
 812 0502 A642     		cmp	r6, r4
 813 0504 3FF408AF 		beq	.L1
 210:..\..\..\lvgl\version_6.1.2\lvgl\src\lv_draw/lv_draw_triangle.c ****                 err2 -= dy2;
 814              		.loc 1 210 0
 815 0508 7745     		cmp	r7, lr
 211:..\..\..\lvgl\version_6.1.2\lvgl\src\lv_draw/lv_draw_triangle.c ****                 edge2.x += sx2;
 816              		.loc 1 211 0
 817 050a C8EB0703 		rsb	r3, r8, r7
 212:..\..\..\lvgl\version_6.1.2\lvgl\src\lv_draw/lv_draw_triangle.c ****             }
 818              		.loc 1 212 0
 819 050e 00EB0601 		add	r1, r0, r6
 211:..\..\..\lvgl\version_6.1.2\lvgl\src\lv_draw/lv_draw_triangle.c ****                 edge2.x += sx2;
 820              		.loc 1 211 0
 821 0512 C6BF     		itte	gt
 822 0514 1BB2     		sxthgt	r3, r3
 823              	.LVL60:
 212:..\..\..\lvgl\version_6.1.2\lvgl\src\lv_draw/lv_draw_triangle.c ****             }
 824              		.loc 1 212 0
 825 0516 0EB2     		sxthgt	r6, r1
 826              	.LVL61:
 827 0518 3B46     		movle	r3, r7
 828              	.LVL62:
 214:..\..\..\lvgl\version_6.1.2\lvgl\src\lv_draw/lv_draw_triangle.c ****                 err2 += dx2;
 829              		.loc 1 214 0
 830 051a 5745     		cmp	r7, r10
ARM GAS  C:\Users\pearlstl\AppData\Local\Temp\ccVE6Vs6.s 			page 24


 215:..\..\..\lvgl\version_6.1.2\lvgl\src\lv_draw/lv_draw_triangle.c ****                 edge2.y += sy2;
 831              		.loc 1 215 0
 832 051c 03EB0C01 		add	r1, r3, ip
 214:..\..\..\lvgl\version_6.1.2\lvgl\src\lv_draw/lv_draw_triangle.c ****                 err2 += dx2;
 833              		.loc 1 214 0
 834 0520 02DA     		bge	.L51
 218:..\..\..\lvgl\version_6.1.2\lvgl\src\lv_draw/lv_draw_triangle.c ****     }
 835              		.loc 1 218 0
 836 0522 9345     		cmp	fp, r2
 215:..\..\..\lvgl\version_6.1.2\lvgl\src\lv_draw/lv_draw_triangle.c ****                 edge2.y += sy2;
 837              		.loc 1 215 0
 838 0524 0BB2     		sxth	r3, r1
 839              	.LVL63:
 218:..\..\..\lvgl\version_6.1.2\lvgl\src\lv_draw/lv_draw_triangle.c ****     }
 840              		.loc 1 218 0
 841 0526 01D1     		bne	.L79
 842              	.LVL64:
 843              	.L51:
 203:..\..\..\lvgl\version_6.1.2\lvgl\src\lv_draw/lv_draw_triangle.c **** 
 844              		.loc 1 203 0
 845 0528 1F46     		mov	r7, r3
 846              	.LVL65:
 847 052a EAE7     		b	.L47
 848              	.LVL66:
 849              	.L79:
 850 052c DDF838A0 		ldr	r10, [sp, #56]
 851 0530 DDF83C80 		ldr	r8, [sp, #60]
 852 0534 109C     		ldr	r4, [sp, #64]
 853 0536 1046     		mov	r0, r2
 854 0538 DCE6     		b	.L49
 855              	.LVL67:
 856              	.L29:
 857 053a 9945     		cmp	r9, r3
 858 053c 42D0     		beq	.L80
 201:..\..\..\lvgl\version_6.1.2\lvgl\src\lv_draw/lv_draw_triangle.c ****             }
 859              		.loc 1 201 0
 860 053e 0A9B     		ldr	r3, [sp, #40]
 861 0540 DDF824C0 		ldr	ip, [sp, #36]
 862 0544 DDF810E0 		ldr	lr, [sp, #16]
 863 0548 09EB0300 		add	r0, r9, r3
 864 054c 00B2     		sxth	r0, r0
 179:..\..\..\lvgl\version_6.1.2\lvgl\src\lv_draw/lv_draw_triangle.c **** 
 865              		.loc 1 179 0
 866 054e 2346     		mov	r3, r4
 195:..\..\..\lvgl\version_6.1.2\lvgl\src\lv_draw/lv_draw_triangle.c ****                 err1 -= dy1;
 867              		.loc 1 195 0
 868 0550 CAF10001 		rsb	r1, r10, #0
 869              	.LVL68:
 870              	.L40:
 191:..\..\..\lvgl\version_6.1.2\lvgl\src\lv_draw/lv_draw_triangle.c ****                 return;
 871              		.loc 1 191 0
 872 0554 AE45     		cmp	lr, r5
 873 0556 3FF4DFAE 		beq	.L1
 195:..\..\..\lvgl\version_6.1.2\lvgl\src\lv_draw/lv_draw_triangle.c ****                 err1 -= dy1;
 874              		.loc 1 195 0
 875 055a 8C42     		cmp	r4, r1
 876 055c 04DD     		ble	.L41
ARM GAS  C:\Users\pearlstl\AppData\Local\Temp\ccVE6Vs6.s 			page 25


 196:..\..\..\lvgl\version_6.1.2\lvgl\src\lv_draw/lv_draw_triangle.c ****                 edge1.x += sx1;
 877              		.loc 1 196 0
 878 055e C8EB0404 		rsb	r4, r8, r4
 879              	.LVL69:
 197:..\..\..\lvgl\version_6.1.2\lvgl\src\lv_draw/lv_draw_triangle.c ****             }
 880              		.loc 1 197 0
 881 0562 6544     		add	r5, r5, ip
 882              	.LVL70:
 196:..\..\..\lvgl\version_6.1.2\lvgl\src\lv_draw/lv_draw_triangle.c ****                 edge1.x += sx1;
 883              		.loc 1 196 0
 884 0564 24B2     		sxth	r4, r4
 197:..\..\..\lvgl\version_6.1.2\lvgl\src\lv_draw/lv_draw_triangle.c ****             }
 885              		.loc 1 197 0
 886 0566 2DB2     		sxth	r5, r5
 887              	.LVL71:
 888              	.L41:
 199:..\..\..\lvgl\version_6.1.2\lvgl\src\lv_draw/lv_draw_triangle.c ****                 err1 += dx1;
 889              		.loc 1 199 0
 890 0568 9845     		cmp	r8, r3
 200:..\..\..\lvgl\version_6.1.2\lvgl\src\lv_draw/lv_draw_triangle.c ****                 edge1.y += sy1;
 891              		.loc 1 200 0
 892 056a 04EB0A02 		add	r2, r4, r10
 893              	.LVL72:
 199:..\..\..\lvgl\version_6.1.2\lvgl\src\lv_draw/lv_draw_triangle.c ****                 err1 += dx1;
 894              		.loc 1 199 0
 895 056e 03DD     		ble	.L42
 203:..\..\..\lvgl\version_6.1.2\lvgl\src\lv_draw/lv_draw_triangle.c **** 
 896              		.loc 1 203 0
 897 0570 8145     		cmp	r9, r0
 200:..\..\..\lvgl\version_6.1.2\lvgl\src\lv_draw/lv_draw_triangle.c ****                 edge1.y += sy1;
 898              		.loc 1 200 0
 899 0572 14B2     		sxth	r4, r2
 900              	.LVL73:
 203:..\..\..\lvgl\version_6.1.2\lvgl\src\lv_draw/lv_draw_triangle.c **** 
 901              		.loc 1 203 0
 902 0574 7FF487AE 		bne	.L75
 903              	.LVL74:
 904              	.L42:
 179:..\..\..\lvgl\version_6.1.2\lvgl\src\lv_draw/lv_draw_triangle.c **** 
 905              		.loc 1 179 0
 906 0578 2346     		mov	r3, r4
 907 057a EBE7     		b	.L40
 908              	.LVL75:
 909              	.L78:
 910 057c 0E96     		str	r6, [sp, #56]
 911 057e 0998     		ldr	r0, [sp, #36]
 912 0580 DDF828E0 		ldr	lr, [sp, #40]
 913 0584 DDF814C0 		ldr	ip, [sp, #20]
 914 0588 049E     		ldr	r6, [sp, #16]
 915              	.LVL76:
 916 058a 2246     		mov	r2, r4
 917              	.LVL77:
 918              	.L31:
 184:..\..\..\lvgl\version_6.1.2\lvgl\src\lv_draw/lv_draw_triangle.c **** 
 919              		.loc 1 184 0
 920 058c 6545     		cmp	r5, ip
 921 058e 41D0     		beq	.L59
ARM GAS  C:\Users\pearlstl\AppData\Local\Temp\ccVE6Vs6.s 			page 26


 191:..\..\..\lvgl\version_6.1.2\lvgl\src\lv_draw/lv_draw_triangle.c ****                 return;
 922              		.loc 1 191 0
 923 0590 B542     		cmp	r5, r6
 924 0592 3FF4C1AE 		beq	.L1
 925              	.LVL78:
 926              	.L35:
 195:..\..\..\lvgl\version_6.1.2\lvgl\src\lv_draw/lv_draw_triangle.c ****                 err1 -= dy1;
 927              		.loc 1 195 0
 928 0596 CAF10003 		rsb	r3, r10, #0
 929 059a 9342     		cmp	r3, r2
 196:..\..\..\lvgl\version_6.1.2\lvgl\src\lv_draw/lv_draw_triangle.c ****                 edge1.x += sx1;
 930              		.loc 1 196 0
 931 059c C8EB0204 		rsb	r4, r8, r2
 197:..\..\..\lvgl\version_6.1.2\lvgl\src\lv_draw/lv_draw_triangle.c ****             }
 932              		.loc 1 197 0
 933 05a0 00EB0503 		add	r3, r0, r5
 196:..\..\..\lvgl\version_6.1.2\lvgl\src\lv_draw/lv_draw_triangle.c ****                 edge1.x += sx1;
 934              		.loc 1 196 0
 935 05a4 BABF     		itte	lt
 936 05a6 24B2     		sxthlt	r4, r4
 937              	.LVL79:
 197:..\..\..\lvgl\version_6.1.2\lvgl\src\lv_draw/lv_draw_triangle.c ****             }
 938              		.loc 1 197 0
 939 05a8 1DB2     		sxthlt	r5, r3
 940              	.LVL80:
 195:..\..\..\lvgl\version_6.1.2\lvgl\src\lv_draw/lv_draw_triangle.c ****                 err1 -= dy1;
 941              		.loc 1 195 0
 942 05aa 1446     		movge	r4, r2
 201:..\..\..\lvgl\version_6.1.2\lvgl\src\lv_draw/lv_draw_triangle.c ****             }
 943              		.loc 1 201 0
 944 05ac 09EB0E03 		add	r3, r9, lr
 199:..\..\..\lvgl\version_6.1.2\lvgl\src\lv_draw/lv_draw_triangle.c ****                 err1 += dx1;
 945              		.loc 1 199 0
 946 05b0 4245     		cmp	r2, r8
 200:..\..\..\lvgl\version_6.1.2\lvgl\src\lv_draw/lv_draw_triangle.c ****                 edge1.y += sy1;
 947              		.loc 1 200 0
 948 05b2 04EB0A01 		add	r1, r4, r10
 949              	.LVL81:
 201:..\..\..\lvgl\version_6.1.2\lvgl\src\lv_draw/lv_draw_triangle.c ****             }
 950              		.loc 1 201 0
 951 05b6 1BB2     		sxth	r3, r3
 199:..\..\..\lvgl\version_6.1.2\lvgl\src\lv_draw/lv_draw_triangle.c ****                 err1 += dx1;
 952              		.loc 1 199 0
 953 05b8 02DA     		bge	.L37
 203:..\..\..\lvgl\version_6.1.2\lvgl\src\lv_draw/lv_draw_triangle.c **** 
 954              		.loc 1 203 0
 955 05ba 4B45     		cmp	r3, r9
 200:..\..\..\lvgl\version_6.1.2\lvgl\src\lv_draw/lv_draw_triangle.c ****                 edge1.y += sy1;
 956              		.loc 1 200 0
 957 05bc 0CB2     		sxth	r4, r1
 958              	.LVL82:
 203:..\..\..\lvgl\version_6.1.2\lvgl\src\lv_draw/lv_draw_triangle.c **** 
 959              		.loc 1 203 0
 960 05be 23D1     		bne	.L74
 961              	.LVL83:
 962              	.L37:
 179:..\..\..\lvgl\version_6.1.2\lvgl\src\lv_draw/lv_draw_triangle.c **** 
ARM GAS  C:\Users\pearlstl\AppData\Local\Temp\ccVE6Vs6.s 			page 27


 963              		.loc 1 179 0
 964 05c0 2246     		mov	r2, r4
 965              	.LVL84:
 966 05c2 E3E7     		b	.L31
 967              	.LVL85:
 968              	.L80:
 969 05c4 0E96     		str	r6, [sp, #56]
 970 05c6 0998     		ldr	r0, [sp, #36]
 971 05c8 DDF828E0 		ldr	lr, [sp, #40]
 972 05cc DDF814C0 		ldr	ip, [sp, #20]
 973 05d0 049E     		ldr	r6, [sp, #16]
 974              	.LVL86:
 975 05d2 2246     		mov	r2, r4
 976              	.LVL87:
 977              	.L39:
 184:..\..\..\lvgl\version_6.1.2\lvgl\src\lv_draw/lv_draw_triangle.c **** 
 978              		.loc 1 184 0
 979 05d4 6545     		cmp	r5, ip
 980 05d6 28D0     		beq	.L62
 191:..\..\..\lvgl\version_6.1.2\lvgl\src\lv_draw/lv_draw_triangle.c ****                 return;
 981              		.loc 1 191 0
 982 05d8 B542     		cmp	r5, r6
 983 05da 3FF49DAE 		beq	.L1
 984              	.LVL88:
 985              	.L43:
 195:..\..\..\lvgl\version_6.1.2\lvgl\src\lv_draw/lv_draw_triangle.c ****                 err1 -= dy1;
 986              		.loc 1 195 0
 987 05de CAF10003 		rsb	r3, r10, #0
 988 05e2 9A42     		cmp	r2, r3
 196:..\..\..\lvgl\version_6.1.2\lvgl\src\lv_draw/lv_draw_triangle.c ****                 edge1.x += sx1;
 989              		.loc 1 196 0
 990 05e4 C8EB0204 		rsb	r4, r8, r2
 197:..\..\..\lvgl\version_6.1.2\lvgl\src\lv_draw/lv_draw_triangle.c ****             }
 991              		.loc 1 197 0
 992 05e8 05EB0003 		add	r3, r5, r0
 196:..\..\..\lvgl\version_6.1.2\lvgl\src\lv_draw/lv_draw_triangle.c ****                 edge1.x += sx1;
 993              		.loc 1 196 0
 994 05ec C6BF     		itte	gt
 995 05ee 24B2     		sxthgt	r4, r4
 996              	.LVL89:
 197:..\..\..\lvgl\version_6.1.2\lvgl\src\lv_draw/lv_draw_triangle.c ****             }
 997              		.loc 1 197 0
 998 05f0 1DB2     		sxthgt	r5, r3
 999              	.LVL90:
 1000 05f2 1446     		movle	r4, r2
 201:..\..\..\lvgl\version_6.1.2\lvgl\src\lv_draw/lv_draw_triangle.c ****             }
 1001              		.loc 1 201 0
 1002 05f4 09EB0E03 		add	r3, r9, lr
 199:..\..\..\lvgl\version_6.1.2\lvgl\src\lv_draw/lv_draw_triangle.c ****                 err1 += dx1;
 1003              		.loc 1 199 0
 1004 05f8 9045     		cmp	r8, r2
 200:..\..\..\lvgl\version_6.1.2\lvgl\src\lv_draw/lv_draw_triangle.c ****                 edge1.y += sy1;
 1005              		.loc 1 200 0
 1006 05fa 04EB0A01 		add	r1, r4, r10
 1007              	.LVL91:
 201:..\..\..\lvgl\version_6.1.2\lvgl\src\lv_draw/lv_draw_triangle.c ****             }
 1008              		.loc 1 201 0
ARM GAS  C:\Users\pearlstl\AppData\Local\Temp\ccVE6Vs6.s 			page 28


 1009 05fe 1BB2     		sxth	r3, r3
 199:..\..\..\lvgl\version_6.1.2\lvgl\src\lv_draw/lv_draw_triangle.c ****                 err1 += dx1;
 1010              		.loc 1 199 0
 1011 0600 11DD     		ble	.L45
 203:..\..\..\lvgl\version_6.1.2\lvgl\src\lv_draw/lv_draw_triangle.c **** 
 1012              		.loc 1 203 0
 1013 0602 9945     		cmp	r9, r3
 200:..\..\..\lvgl\version_6.1.2\lvgl\src\lv_draw/lv_draw_triangle.c ****                 edge1.y += sy1;
 1014              		.loc 1 200 0
 1015 0604 0CB2     		sxth	r4, r1
 1016              	.LVL92:
 203:..\..\..\lvgl\version_6.1.2\lvgl\src\lv_draw/lv_draw_triangle.c **** 
 1017              		.loc 1 203 0
 1018 0606 0ED0     		beq	.L45
 1019              	.LVL93:
 1020              	.L74:
 1021 0608 0990     		str	r0, [sp, #36]
 1022 060a CDF828E0 		str	lr, [sp, #40]
 1023 060e 0E9E     		ldr	r6, [sp, #56]
 1024 0610 9946     		mov	r9, r3
 1025              	.LVL94:
 1026 0612 39E6     		b	.L24
 1027              	.LVL95:
 1028              	.L59:
 190:..\..\..\lvgl\version_6.1.2\lvgl\src\lv_draw/lv_draw_triangle.c ****             } else if(edge1.x == tri[2].x && edge1.y == tri[2].y) {
 1029              		.loc 1 190 0
 1030 0614 179A     		ldr	r2, [sp, #92]
 189:..\..\..\lvgl\version_6.1.2\lvgl\src\lv_draw/lv_draw_triangle.c ****                 err1 = (dx1 > dy1 ? dx1 : -dy1) / 2;
 1031              		.loc 1 189 0
 1032 0616 DDF804E0 		ldr	lr, [sp, #4]
 1033              	.LVL96:
 184:..\..\..\lvgl\version_6.1.2\lvgl\src\lv_draw/lv_draw_triangle.c **** 
 1034              		.loc 1 184 0
 1035 061a DDF82080 		ldr	r8, [sp, #32]
 1036              	.LVL97:
 187:..\..\..\lvgl\version_6.1.2\lvgl\src\lv_draw/lv_draw_triangle.c ****                 dy1  = LV_MATH_ABS(tri[1].y - tri[2].y);
 1037              		.loc 1 187 0
 1038 061e 0098     		ldr	r0, [sp]
 1039              	.LVL98:
 184:..\..\..\lvgl\version_6.1.2\lvgl\src\lv_draw/lv_draw_triangle.c **** 
 1040              		.loc 1 184 0
 1041 0620 DDF81CA0 		ldr	r10, [sp, #28]
 1042              	.LVL99:
 1043 0624 B7E7     		b	.L35
 1044              	.LVL100:
 1045              	.L45:
 179:..\..\..\lvgl\version_6.1.2\lvgl\src\lv_draw/lv_draw_triangle.c **** 
 1046              		.loc 1 179 0
 1047 0626 2246     		mov	r2, r4
 1048              	.LVL101:
 1049 0628 D4E7     		b	.L39
 1050              	.LVL102:
 1051              	.L62:
 190:..\..\..\lvgl\version_6.1.2\lvgl\src\lv_draw/lv_draw_triangle.c ****             } else if(edge1.x == tri[2].x && edge1.y == tri[2].y) {
 1052              		.loc 1 190 0
 1053 062a 169A     		ldr	r2, [sp, #88]
 189:..\..\..\lvgl\version_6.1.2\lvgl\src\lv_draw/lv_draw_triangle.c ****                 err1 = (dx1 > dy1 ? dx1 : -dy1) / 2;
ARM GAS  C:\Users\pearlstl\AppData\Local\Temp\ccVE6Vs6.s 			page 29


 1054              		.loc 1 189 0
 1055 062c DDF804E0 		ldr	lr, [sp, #4]
 1056              	.LVL103:
 1057 0630 DDF82080 		ldr	r8, [sp, #32]
 1058              	.LVL104:
 187:..\..\..\lvgl\version_6.1.2\lvgl\src\lv_draw/lv_draw_triangle.c ****                 dy1  = LV_MATH_ABS(tri[1].y - tri[2].y);
 1059              		.loc 1 187 0
 1060 0634 0098     		ldr	r0, [sp]
 1061              	.LVL105:
 1062 0636 DDF81CA0 		ldr	r10, [sp, #28]
 1063              	.LVL106:
 1064 063a D0E7     		b	.L43
 1065              		.cfi_endproc
 1066              	.LFE33:
 1067              		.size	tri_draw_flat, .-tri_draw_flat
 1068              		.section	.text.tri_draw_tall,"ax",%progbits
 1069              		.align	2
 1070              		.global	tri_draw_tall
 1071              		.thumb
 1072              		.thumb_func
 1073              		.type	tri_draw_tall, %function
 1074              	tri_draw_tall:
 1075              	.LFB34:
 223:..\..\..\lvgl\version_6.1.2\lvgl\src\lv_draw/lv_draw_triangle.c ****     /*
 1076              		.loc 1 223 0
 1077              		.cfi_startproc
 1078              		@ args = 0, pretend = 0, frame = 128
 1079              		@ frame_needed = 0, uses_anonymous_args = 0
 1080              	.LVL107:
 1081 0000 2DE9F04F 		push	{r4, r5, r6, r7, r8, r9, r10, fp, lr}
 1082              		.cfi_def_cfa_offset 36
 1083              		.cfi_offset 4, -36
 1084              		.cfi_offset 5, -32
 1085              		.cfi_offset 6, -28
 1086              		.cfi_offset 7, -24
 1087              		.cfi_offset 8, -20
 1088              		.cfi_offset 9, -16
 1089              		.cfi_offset 10, -12
 1090              		.cfi_offset 11, -8
 1091              		.cfi_offset 14, -4
 1092 0004 0446     		mov	r4, r0
 1093 0006 A1B0     		sub	sp, sp, #132
 1094              		.cfi_def_cfa_offset 168
 236:..\..\..\lvgl\version_6.1.2\lvgl\src\lv_draw/lv_draw_triangle.c **** 
 1095              		.loc 1 236 0
 1096 0008 0068     		ldr	r0, [r0]	@ unaligned
 1097              	.LVL108:
 223:..\..\..\lvgl\version_6.1.2\lvgl\src\lv_draw/lv_draw_triangle.c ****     /*
 1098              		.loc 1 223 0
 1099 000a 0F91     		str	r1, [sp, #60]
 1100 000c 1092     		str	r2, [sp, #64]
 236:..\..\..\lvgl\version_6.1.2\lvgl\src\lv_draw/lv_draw_triangle.c **** 
 1101              		.loc 1 236 0
 1102 000e 6168     		ldr	r1, [r4, #4]	@ unaligned
 1103              	.LVL109:
 1104 0010 A268     		ldr	r2, [r4, #8]	@ unaligned
 1105              	.LVL110:
ARM GAS  C:\Users\pearlstl\AppData\Local\Temp\ccVE6Vs6.s 			page 30


 223:..\..\..\lvgl\version_6.1.2\lvgl\src\lv_draw/lv_draw_triangle.c ****     /*
 1106              		.loc 1 223 0
 1107 0012 1193     		str	r3, [sp, #68]
 236:..\..\..\lvgl\version_6.1.2\lvgl\src\lv_draw/lv_draw_triangle.c **** 
 1108              		.loc 1 236 0
 1109 0014 1DAC     		add	r4, sp, #116
 1110              	.LVL111:
 1111 0016 07C4     		stmia	r4!, {r0, r1, r2}
 239:..\..\..\lvgl\version_6.1.2\lvgl\src\lv_draw/lv_draw_triangle.c ****     if(tri[2].x < tri[1].x) point_swap(&tri[2], &tri[1]);
 1112              		.loc 1 239 0
 1113 0018 BDF97810 		ldrsh	r1, [sp, #120]
 1114 001c BDF97420 		ldrsh	r2, [sp, #116]
 240:..\..\..\lvgl\version_6.1.2\lvgl\src\lv_draw/lv_draw_triangle.c ****     if(tri[1].x < tri[0].x) point_swap(&tri[1], &tri[0]);
 1115              		.loc 1 240 0
 1116 0020 BDF97C00 		ldrsh	r0, [sp, #124]
 239:..\..\..\lvgl\version_6.1.2\lvgl\src\lv_draw/lv_draw_triangle.c ****     if(tri[2].x < tri[1].x) point_swap(&tri[2], &tri[1]);
 1117              		.loc 1 239 0
 1118 0024 9142     		cmp	r1, r2
 1119 0026 80F21481 		bge	.L82
 1120              	.LVL112:
 1121              	.LBB20:
 1122              	.LBB21:
 339:..\..\..\lvgl\version_6.1.2\lvgl\src\lv_draw/lv_draw_triangle.c **** 
 1123              		.loc 1 339 0
 1124 002a BDF97630 		ldrsh	r3, [sp, #118]
 1125              	.LVL113:
 336:..\..\..\lvgl\version_6.1.2\lvgl\src\lv_draw/lv_draw_triangle.c **** 
 1126              		.loc 1 336 0
 1127 002e BDF97A40 		ldrsh	r4, [sp, #122]
 1128              	.LVL114:
 339:..\..\..\lvgl\version_6.1.2\lvgl\src\lv_draw/lv_draw_triangle.c **** 
 1129              		.loc 1 339 0
 1130 0032 0793     		str	r3, [sp, #28]
 1131              	.LBE21:
 1132              	.LBE20:
 240:..\..\..\lvgl\version_6.1.2\lvgl\src\lv_draw/lv_draw_triangle.c ****     if(tri[1].x < tri[0].x) point_swap(&tri[1], &tri[0]);
 1133              		.loc 1 240 0
 1134 0034 8242     		cmp	r2, r0
 1135              	.LBB23:
 1136              	.LBB22:
 338:..\..\..\lvgl\version_6.1.2\lvgl\src\lv_draw/lv_draw_triangle.c ****     p1->y = p2->y;
 1137              		.loc 1 338 0
 1138 0036 ADF87820 		strh	r2, [sp, #120]	@ movhi
 341:..\..\..\lvgl\version_6.1.2\lvgl\src\lv_draw/lv_draw_triangle.c ****     p2->y = tmp.y;
 1139              		.loc 1 341 0
 1140 003a ADF87410 		strh	r1, [sp, #116]	@ movhi
 1141              		.loc 1 342 0
 1142 003e ADF87640 		strh	r4, [sp, #118]	@ movhi
 339:..\..\..\lvgl\version_6.1.2\lvgl\src\lv_draw/lv_draw_triangle.c **** 
 1143              		.loc 1 339 0
 1144 0042 ADF87A30 		strh	r3, [sp, #122]	@ movhi
 1145              	.LBE22:
 1146              	.LBE23:
 240:..\..\..\lvgl\version_6.1.2\lvgl\src\lv_draw/lv_draw_triangle.c ****     if(tri[1].x < tri[0].x) point_swap(&tri[1], &tri[0]);
 1147              		.loc 1 240 0
 1148 0046 00F30E81 		bgt	.L132
 1149              	.LVL115:
ARM GAS  C:\Users\pearlstl\AppData\Local\Temp\ccVE6Vs6.s 			page 31


 1150              	.L83:
 245:..\..\..\lvgl\version_6.1.2\lvgl\src\lv_draw/lv_draw_triangle.c ****     lv_coord_t sx1  = tri[0].x < tri[1].x ? 1 : -1;
 1151              		.loc 1 245 0
 1152 004a C2EB010A 		rsb	r10, r2, r1
 1153 004e BAF1000F 		cmp	r10, #0
 1154 0052 B8BF     		it	lt
 1155 0054 CAF1000A 		rsblt	r10, r10, #0
 1156 0058 0B46     		mov	r3, r1
 246:..\..\..\lvgl\version_6.1.2\lvgl\src\lv_draw/lv_draw_triangle.c ****     lv_coord_t dy1  = LV_MATH_ABS(tri[0].y - tri[1].y);
 1157              		.loc 1 246 0
 1158 005a 0390     		str	r0, [sp, #12]
 1159 005c 8B46     		mov	fp, r1
 1160 005e 0798     		ldr	r0, [sp, #28]
 1161 0060 0992     		str	r2, [sp, #36]
 1162 0062 9142     		cmp	r1, r2
 1163 0064 ACBF     		ite	ge
 1164 0066 4FF0FF31 		movge	r1, #-1
 1165 006a 0121     		movlt	r1, #1
 1166 006c 2646     		mov	r6, r4
 245:..\..\..\lvgl\version_6.1.2\lvgl\src\lv_draw/lv_draw_triangle.c ****     lv_coord_t sx1  = tri[0].x < tri[1].x ? 1 : -1;
 1167              		.loc 1 245 0
 1168 006e 0FFA8AFA 		sxth	r10, r10
 1169              	.LVL116:
 246:..\..\..\lvgl\version_6.1.2\lvgl\src\lv_draw/lv_draw_triangle.c ****     lv_coord_t dy1  = LV_MATH_ABS(tri[0].y - tri[1].y);
 1170              		.loc 1 246 0
 1171 0072 0A91     		str	r1, [sp, #40]
 1172              	.L84:
 1173              	.LVL117:
 247:..\..\..\lvgl\version_6.1.2\lvgl\src\lv_draw/lv_draw_triangle.c ****     lv_coord_t sy1  = tri[0].y < tri[1].y ? 1 : -1;
 1174              		.loc 1 247 0 discriminator 4
 1175 0074 C0EB0608 		rsb	r8, r0, r6
 1176 0078 B8F1000F 		cmp	r8, #0
 1177 007c B8BF     		it	lt
 1178 007e C8F10008 		rsblt	r8, r8, #0
 1179 0082 0FFA88F8 		sxth	r8, r8
 1180              	.LVL118:
 248:..\..\..\lvgl\version_6.1.2\lvgl\src\lv_draw/lv_draw_triangle.c ****     lv_coord_t err1 = (dx1 > dy1 ? dx1 : -dy1) / 2;
 1181              		.loc 1 248 0 discriminator 4
 1182 0086 8642     		cmp	r6, r0
 1183 0088 ACBF     		ite	ge
 1184 008a 4FF0FF31 		movge	r1, #-1
 1185 008e 0121     		movlt	r1, #1
 249:..\..\..\lvgl\version_6.1.2\lvgl\src\lv_draw/lv_draw_triangle.c ****     lv_coord_t err_tmp1;
 1186              		.loc 1 249 0 discriminator 4
 1187 0090 D045     		cmp	r8, r10
 248:..\..\..\lvgl\version_6.1.2\lvgl\src\lv_draw/lv_draw_triangle.c ****     lv_coord_t err1 = (dx1 > dy1 ? dx1 : -dy1) / 2;
 1188              		.loc 1 248 0 discriminator 4
 1189 0092 0691     		str	r1, [sp, #24]
 1190              	.LVL119:
 249:..\..\..\lvgl\version_6.1.2\lvgl\src\lv_draw/lv_draw_triangle.c ****     lv_coord_t err_tmp1;
 1191              		.loc 1 249 0 discriminator 4
 1192 0094 80F23A81 		bge	.L86
 249:..\..\..\lvgl\version_6.1.2\lvgl\src\lv_draw/lv_draw_triangle.c ****     lv_coord_t err_tmp1;
 1193              		.loc 1 249 0 is_stmt 0 discriminator 1
 1194 0098 0AEBDA74 		add	r4, r10, r10, lsr #31
 1195 009c 6410     		asrs	r4, r4, #1
 1196              	.L87:
ARM GAS  C:\Users\pearlstl\AppData\Local\Temp\ccVE6Vs6.s 			page 32


 1197              	.LVL120:
 255:..\..\..\lvgl\version_6.1.2\lvgl\src\lv_draw/lv_draw_triangle.c ****     lv_coord_t sy2  = tri[0].y < tri[2].y ? 1 : -1;
 1198              		.loc 1 255 0 is_stmt 1 discriminator 4
 1199 009e BDF97E10 		ldrsh	r1, [sp, #126]
 253:..\..\..\lvgl\version_6.1.2\lvgl\src\lv_draw/lv_draw_triangle.c ****     lv_coord_t sx2  = tri[0].x < tri[2].x ? 1 : -1;
 1200              		.loc 1 253 0 discriminator 4
 1201 00a2 039F     		ldr	r7, [sp, #12]
 255:..\..\..\lvgl\version_6.1.2\lvgl\src\lv_draw/lv_draw_triangle.c ****     lv_coord_t sy2  = tri[0].y < tri[2].y ? 1 : -1;
 1202              		.loc 1 255 0 discriminator 4
 1203 00a4 0591     		str	r1, [sp, #20]
 1204 00a6 0846     		mov	r0, r1
 1205 00a8 711A     		subs	r1, r6, r1
 253:..\..\..\lvgl\version_6.1.2\lvgl\src\lv_draw/lv_draw_triangle.c ****     lv_coord_t sx2  = tri[0].x < tri[2].x ? 1 : -1;
 1206              		.loc 1 253 0 discriminator 4
 1207 00aa DB1B     		subs	r3, r3, r7
 255:..\..\..\lvgl\version_6.1.2\lvgl\src\lv_draw/lv_draw_triangle.c ****     lv_coord_t sy2  = tri[0].y < tri[2].y ? 1 : -1;
 1208              		.loc 1 255 0 discriminator 4
 1209 00ac 0029     		cmp	r1, #0
 1210 00ae B8BF     		it	lt
 1211 00b0 4942     		rsblt	r1, r1, #0
 253:..\..\..\lvgl\version_6.1.2\lvgl\src\lv_draw/lv_draw_triangle.c ****     lv_coord_t sx2  = tri[0].x < tri[2].x ? 1 : -1;
 1212              		.loc 1 253 0 discriminator 4
 1213 00b2 002B     		cmp	r3, #0
 1214 00b4 B8BF     		it	lt
 1215 00b6 5B42     		rsblt	r3, r3, #0
 1216 00b8 1D46     		mov	r5, r3
 1217 00ba 0D93     		str	r3, [sp, #52]
 255:..\..\..\lvgl\version_6.1.2\lvgl\src\lv_draw/lv_draw_triangle.c ****     lv_coord_t sy2  = tri[0].y < tri[2].y ? 1 : -1;
 1218              		.loc 1 255 0 discriminator 4
 1219 00bc 0BB2     		sxth	r3, r1
 1220 00be 0493     		str	r3, [sp, #16]
 254:..\..\..\lvgl\version_6.1.2\lvgl\src\lv_draw/lv_draw_triangle.c ****     lv_coord_t dy2  = LV_MATH_ABS(tri[0].y - tri[2].y);
 1221              		.loc 1 254 0 discriminator 4
 1222 00c0 4FF6FF73 		movw	r3, #65535
 256:..\..\..\lvgl\version_6.1.2\lvgl\src\lv_draw/lv_draw_triangle.c ****     lv_coord_t err2 = (dx1 > dy2 ? dx2 : -dy2) / 2;
 1223              		.loc 1 256 0 discriminator 4
 1224 00c4 B042     		cmp	r0, r6
 1225 00c6 D4BF     		ite	le
 1226 00c8 1846     		movle	r0, r3
 1227 00ca 0120     		movgt	r0, #1
 1228 00cc 0E90     		str	r0, [sp, #56]
 254:..\..\..\lvgl\version_6.1.2\lvgl\src\lv_draw/lv_draw_triangle.c ****     lv_coord_t dy2  = LV_MATH_ABS(tri[0].y - tri[2].y);
 1229              		.loc 1 254 0 discriminator 4
 1230 00ce 1846     		mov	r0, r3
 257:..\..\..\lvgl\version_6.1.2\lvgl\src\lv_draw/lv_draw_triangle.c ****     lv_coord_t err_tmp2;
 1231              		.loc 1 257 0 discriminator 4
 1232 00d0 049B     		ldr	r3, [sp, #16]
 255:..\..\..\lvgl\version_6.1.2\lvgl\src\lv_draw/lv_draw_triangle.c ****     lv_coord_t sy2  = tri[0].y < tri[2].y ? 1 : -1;
 1233              		.loc 1 255 0 discriminator 4
 1234 00d2 0891     		str	r1, [sp, #32]
 254:..\..\..\lvgl\version_6.1.2\lvgl\src\lv_draw/lv_draw_triangle.c ****     lv_coord_t dy2  = LV_MATH_ABS(tri[0].y - tri[2].y);
 1235              		.loc 1 254 0 discriminator 4
 1236 00d4 BB45     		cmp	fp, r7
 1237 00d6 B8BF     		it	lt
 1238 00d8 0120     		movlt	r0, #1
 253:..\..\..\lvgl\version_6.1.2\lvgl\src\lv_draw/lv_draw_triangle.c ****     lv_coord_t sx2  = tri[0].x < tri[2].x ? 1 : -1;
 1239              		.loc 1 253 0 discriminator 4
ARM GAS  C:\Users\pearlstl\AppData\Local\Temp\ccVE6Vs6.s 			page 33


 1240 00da 29B2     		sxth	r1, r5
 257:..\..\..\lvgl\version_6.1.2\lvgl\src\lv_draw/lv_draw_triangle.c ****     lv_coord_t err_tmp2;
 1241              		.loc 1 257 0 discriminator 4
 1242 00dc 5345     		cmp	r3, r10
 253:..\..\..\lvgl\version_6.1.2\lvgl\src\lv_draw/lv_draw_triangle.c ****     lv_coord_t sx2  = tri[0].x < tri[2].x ? 1 : -1;
 1243              		.loc 1 253 0 discriminator 4
 1244 00de 1291     		str	r1, [sp, #72]
 1245              	.LVL121:
 254:..\..\..\lvgl\version_6.1.2\lvgl\src\lv_draw/lv_draw_triangle.c ****     lv_coord_t dy2  = LV_MATH_ABS(tri[0].y - tri[2].y);
 1246              		.loc 1 254 0 discriminator 4
 1247 00e0 1790     		str	r0, [sp, #92]
 1248              	.LVL122:
 257:..\..\..\lvgl\version_6.1.2\lvgl\src\lv_draw/lv_draw_triangle.c ****     lv_coord_t err_tmp2;
 1249              		.loc 1 257 0 discriminator 4
 1250 00e2 80F20D81 		bge	.L90
 257:..\..\..\lvgl\version_6.1.2\lvgl\src\lv_draw/lv_draw_triangle.c ****     lv_coord_t err_tmp2;
 1251              		.loc 1 257 0 is_stmt 0 discriminator 1
 1252 00e6 1299     		ldr	r1, [sp, #72]
 1253 00e8 01EBD177 		add	r7, r1, r1, lsr #31
 1254 00ec 7F10     		asrs	r7, r7, #1
 1255              	.L91:
 290:..\..\..\lvgl\version_6.1.2\lvgl\src\lv_draw/lv_draw_triangle.c ****                 sy1  = tri[1].y < tri[2].y ? 1 : -1;
 1256              		.loc 1 290 0 is_stmt 1
 1257 00ee 0799     		ldr	r1, [sp, #28]
 1258 00f0 0598     		ldr	r0, [sp, #20]
 288:..\..\..\lvgl\version_6.1.2\lvgl\src\lv_draw/lv_draw_triangle.c ****                 sx1  = tri[1].x < tri[2].x ? 1 : -1;
 1259              		.loc 1 288 0
 1260 00f2 039D     		ldr	r5, [sp, #12]
 290:..\..\..\lvgl\version_6.1.2\lvgl\src\lv_draw/lv_draw_triangle.c ****                 sy1  = tri[1].y < tri[2].y ? 1 : -1;
 1261              		.loc 1 290 0
 1262 00f4 0B1A     		subs	r3, r1, r0
 1263 00f6 002B     		cmp	r3, #0
 1264 00f8 B8BF     		it	lt
 1265 00fa 5B42     		rsblt	r3, r3, #0
 288:..\..\..\lvgl\version_6.1.2\lvgl\src\lv_draw/lv_draw_triangle.c ****                 sx1  = tri[1].x < tri[2].x ? 1 : -1;
 1266              		.loc 1 288 0
 1267 00fc 521B     		subs	r2, r2, r5
 290:..\..\..\lvgl\version_6.1.2\lvgl\src\lv_draw/lv_draw_triangle.c ****                 sy1  = tri[1].y < tri[2].y ? 1 : -1;
 1268              		.loc 1 290 0
 1269 00fe 1BB2     		sxth	r3, r3
 288:..\..\..\lvgl\version_6.1.2\lvgl\src\lv_draw/lv_draw_triangle.c ****                 sx1  = tri[1].x < tri[2].x ? 1 : -1;
 1270              		.loc 1 288 0
 1271 0100 002A     		cmp	r2, #0
 290:..\..\..\lvgl\version_6.1.2\lvgl\src\lv_draw/lv_draw_triangle.c ****                 sy1  = tri[1].y < tri[2].y ? 1 : -1;
 1272              		.loc 1 290 0
 1273 0102 0C93     		str	r3, [sp, #48]
 292:..\..\..\lvgl\version_6.1.2\lvgl\src\lv_draw/lv_draw_triangle.c ****             } else if(edge1.y == tri[2].y && edge1.x == tri[2].x) {
 1274              		.loc 1 292 0
 1275 0104 03EBD373 		add	r3, r3, r3, lsr #31
 288:..\..\..\lvgl\version_6.1.2\lvgl\src\lv_draw/lv_draw_triangle.c ****                 sx1  = tri[1].x < tri[2].x ? 1 : -1;
 1276              		.loc 1 288 0
 1277 0108 B8BF     		it	lt
 1278 010a 5242     		rsblt	r2, r2, #0
 292:..\..\..\lvgl\version_6.1.2\lvgl\src\lv_draw/lv_draw_triangle.c ****             } else if(edge1.y == tri[2].y && edge1.x == tri[2].x) {
 1279              		.loc 1 292 0
 1280 010c 5B10     		asrs	r3, r3, #1
 288:..\..\..\lvgl\version_6.1.2\lvgl\src\lv_draw/lv_draw_triangle.c ****                 sx1  = tri[1].x < tri[2].x ? 1 : -1;
ARM GAS  C:\Users\pearlstl\AppData\Local\Temp\ccVE6Vs6.s 			page 34


 1281              		.loc 1 288 0
 1282 010e 12B2     		sxth	r2, r2
 292:..\..\..\lvgl\version_6.1.2\lvgl\src\lv_draw/lv_draw_triangle.c ****             } else if(edge1.y == tri[2].y && edge1.x == tri[2].x) {
 1283              		.loc 1 292 0
 1284 0110 5B42     		negs	r3, r3
 1285 0112 1BB2     		sxth	r3, r3
 288:..\..\..\lvgl\version_6.1.2\lvgl\src\lv_draw/lv_draw_triangle.c ****                 sx1  = tri[1].x < tri[2].x ? 1 : -1;
 1286              		.loc 1 288 0
 1287 0114 0B92     		str	r2, [sp, #44]
 292:..\..\..\lvgl\version_6.1.2\lvgl\src\lv_draw/lv_draw_triangle.c ****             } else if(edge1.y == tri[2].y && edge1.x == tri[2].x) {
 1288              		.loc 1 292 0
 1289 0116 02EBD272 		add	r2, r2, r2, lsr #31
 1290 011a 1993     		str	r3, [sp, #100]
 1291 011c 5310     		asrs	r3, r2, #1
 1292 011e 1893     		str	r3, [sp, #96]
 1293 0120 099B     		ldr	r3, [sp, #36]
 1294 0122 AB42     		cmp	r3, r5
 1295 0124 B4BF     		ite	lt
 1296 0126 0123     		movlt	r3, #1
 1297 0128 4FF0FF33 		movge	r3, #-1
 1298 012c 0193     		str	r3, [sp, #4]
 1299 012e 8842     		cmp	r0, r1
 1300 0130 CCBF     		ite	gt
 1301 0132 0123     		movgt	r3, #1
 1302 0134 4FF0FF33 		movle	r3, #-1
 1303 0138 0293     		str	r3, [sp, #8]
 1304 013a 3546     		mov	r5, r6
 1305 013c D946     		mov	r9, fp
 1306              	.LVL123:
 1307              	.L130:
 279:..\..\..\lvgl\version_6.1.2\lvgl\src\lv_draw/lv_draw_triangle.c **** 
 1308              		.loc 1 279 0
 1309 013e AE42     		cmp	r6, r5
 1310 0140 3246     		mov	r2, r6
 1311 0142 B8BF     		it	lt
 1312 0144 2A46     		movlt	r2, r5
 1313 0146 013A     		subs	r2, r2, #1
 276:..\..\..\lvgl\version_6.1.2\lvgl\src\lv_draw/lv_draw_triangle.c ****         draw_area.x2 = LV_MATH_MAX(act_area.x1, act_area.x2);
 1314              		.loc 1 276 0
 1315 0148 CB45     		cmp	fp, r9
 1316 014a 5946     		mov	r1, fp
 279:..\..\..\lvgl\version_6.1.2\lvgl\src\lv_draw/lv_draw_triangle.c **** 
 1317              		.loc 1 279 0
 1318 014c ADF87220 		strh	r2, [sp, #114]	@ movhi
 276:..\..\..\lvgl\version_6.1.2\lvgl\src\lv_draw/lv_draw_triangle.c ****         draw_area.x2 = LV_MATH_MAX(act_area.x1, act_area.x2);
 1319              		.loc 1 276 0
 1320 0150 A8BF     		it	ge
 1321 0152 4946     		movge	r1, r9
 281:..\..\..\lvgl\version_6.1.2\lvgl\src\lv_draw/lv_draw_triangle.c **** 
 1322              		.loc 1 281 0
 1323 0154 109A     		ldr	r2, [sp, #64]
 1324 0156 119B     		ldr	r3, [sp, #68]
 1325 0158 5268     		ldr	r2, [r2, #4]
 276:..\..\..\lvgl\version_6.1.2\lvgl\src\lv_draw/lv_draw_triangle.c ****         draw_area.x2 = LV_MATH_MAX(act_area.x1, act_area.x2);
 1326              		.loc 1 276 0
 1327 015a ADF86C10 		strh	r1, [sp, #108]	@ movhi
 277:..\..\..\lvgl\version_6.1.2\lvgl\src\lv_draw/lv_draw_triangle.c ****         draw_area.y1 = LV_MATH_MIN(act_area.y1, act_area.y2);
ARM GAS  C:\Users\pearlstl\AppData\Local\Temp\ccVE6Vs6.s 			page 35


 1328              		.loc 1 277 0
 1329 015e CB45     		cmp	fp, r9
 1330 0160 5846     		mov	r0, fp
 1331 0162 B8BF     		it	lt
 1332 0164 4846     		movlt	r0, r9
 278:..\..\..\lvgl\version_6.1.2\lvgl\src\lv_draw/lv_draw_triangle.c ****         draw_area.y2 = LV_MATH_MAX(act_area.y1, act_area.y2) - 1;
 1333              		.loc 1 278 0
 1334 0166 AE42     		cmp	r6, r5
 1335 0168 B646     		mov	lr, r6
 277:..\..\..\lvgl\version_6.1.2\lvgl\src\lv_draw/lv_draw_triangle.c ****         draw_area.y1 = LV_MATH_MIN(act_area.y1, act_area.y2);
 1336              		.loc 1 277 0
 1337 016a ADF87000 		strh	r0, [sp, #112]	@ movhi
 278:..\..\..\lvgl\version_6.1.2\lvgl\src\lv_draw/lv_draw_triangle.c ****         draw_area.y2 = LV_MATH_MAX(act_area.y1, act_area.y2) - 1;
 1338              		.loc 1 278 0
 1339 016e A8BF     		it	ge
 1340 0170 AE46     		movge	lr, r5
 281:..\..\..\lvgl\version_6.1.2\lvgl\src\lv_draw/lv_draw_triangle.c **** 
 1341              		.loc 1 281 0
 1342 0172 0F99     		ldr	r1, [sp, #60]
 278:..\..\..\lvgl\version_6.1.2\lvgl\src\lv_draw/lv_draw_triangle.c ****         draw_area.y2 = LV_MATH_MAX(act_area.y1, act_area.y2) - 1;
 1343              		.loc 1 278 0
 1344 0174 ADF86EE0 		strh	lr, [sp, #110]	@ movhi
 281:..\..\..\lvgl\version_6.1.2\lvgl\src\lv_draw/lv_draw_triangle.c **** 
 1345              		.loc 1 281 0
 1346 0178 1BA8     		add	r0, sp, #108
 1347 017a FFF7FEFF 		bl	lv_draw_fill
 1348              	.LVL124:
 1349 017e 039B     		ldr	r3, [sp, #12]
 1350 0180 0C9A     		ldr	r2, [sp, #48]
 1351 0182 9945     		cmp	r9, r3
 1352 0184 0B9B     		ldr	r3, [sp, #44]
 1353 0186 00F04481 		beq	.L92
 1354 018a 9342     		cmp	r3, r2
 1355 018c 099B     		ldr	r3, [sp, #36]
 1356 018e 00F38E80 		bgt	.L93
 1357 0192 9945     		cmp	r9, r3
 1358 0194 00F00781 		beq	.L160
 1359 0198 0A9B     		ldr	r3, [sp, #40]
 1360 019a DDF818E0 		ldr	lr, [sp, #24]
 1361 019e 1397     		str	r7, [sp, #76]
 1362 01a0 03EB0902 		add	r2, r3, r9
 299:..\..\..\lvgl\version_6.1.2\lvgl\src\lv_draw/lv_draw_triangle.c ****             }
 1363              		.loc 1 299 0
 1364 01a4 12B2     		sxth	r2, r2
 1365 01a6 CAF10001 		rsb	r1, r10, #0
 1366              	.LVL125:
 1367              	.L95:
 1368 01aa A142     		cmp	r1, r4
 298:..\..\..\lvgl\version_6.1.2\lvgl\src\lv_draw/lv_draw_triangle.c ****                 edge1.x += sx1;
 1369              		.loc 1 298 0
 1370 01ac C8EB0403 		rsb	r3, r8, r4
 1371 01b0 1BB2     		sxth	r3, r3
 303:..\..\..\lvgl\version_6.1.2\lvgl\src\lv_draw/lv_draw_triangle.c ****             }
 1372              		.loc 1 303 0
 1373 01b2 0EEB0507 		add	r7, lr, r5
 1374 01b6 A6BF     		itte	ge
 1375 01b8 2346     		movge	r3, r4
ARM GAS  C:\Users\pearlstl\AppData\Local\Temp\ccVE6Vs6.s 			page 36


 1376 01ba 4846     		movge	r0, r9
 1377 01bc 1046     		movlt	r0, r2
 302:..\..\..\lvgl\version_6.1.2\lvgl\src\lv_draw/lv_draw_triangle.c ****                 edge1.y += sy1;
 1378              		.loc 1 302 0
 1379 01be 0AEB030C 		add	ip, r10, r3
 1380 01c2 A045     		cmp	r8, r4
 303:..\..\..\lvgl\version_6.1.2\lvgl\src\lv_draw/lv_draw_triangle.c ****             }
 1381              		.loc 1 303 0
 1382 01c4 3FB2     		sxth	r7, r7
 1383 01c6 00B2     		sxth	r0, r0
 1384 01c8 C8BF     		it	gt
 1385 01ca 3D46     		movgt	r5, r7
 302:..\..\..\lvgl\version_6.1.2\lvgl\src\lv_draw/lv_draw_triangle.c ****                 edge1.y += sy1;
 1386              		.loc 1 302 0
 1387 01cc 0FFA8CF4 		sxth	r4, ip
 1388 01d0 D8BF     		it	le
 1389 01d2 1C46     		movle	r4, r3
 305:..\..\..\lvgl\version_6.1.2\lvgl\src\lv_draw/lv_draw_triangle.c **** 
 1390              		.loc 1 305 0
 1391 01d4 8145     		cmp	r9, r0
 1392 01d6 2DB2     		sxth	r5, r5
 1393              	.LVL126:
 1394 01d8 E7D0     		beq	.L95
 1395 01da 139F     		ldr	r7, [sp, #76]
 1396 01dc 8146     		mov	r9, r0
 1397              	.LVL127:
 1398              	.L96:
 1399 01de 039B     		ldr	r3, [sp, #12]
 1400 01e0 9B45     		cmp	fp, r3
 1401 01e2 179B     		ldr	r3, [sp, #92]
 1402 01e4 00F05981 		beq	.L168
 1403 01e8 03EB0B02 		add	r2, r3, fp
 1404 01ec 129B     		ldr	r3, [sp, #72]
 1405 01ee CDF84CA0 		str	r10, [sp, #76]
 1406 01f2 CDF85080 		str	r8, [sp, #80]
 1407 01f6 1695     		str	r5, [sp, #88]
 1408 01f8 DDF820C0 		ldr	ip, [sp, #32]
 1409 01fc 0D9D     		ldr	r5, [sp, #52]
 1410              	.LVL128:
 1411 01fe DDF81080 		ldr	r8, [sp, #16]
 1412 0202 DDF838A0 		ldr	r10, [sp, #56]
 1413 0206 1594     		str	r4, [sp, #84]
 317:..\..\..\lvgl\version_6.1.2\lvgl\src\lv_draw/lv_draw_triangle.c ****             }
 1414              		.loc 1 317 0
 1415 0208 12B2     		sxth	r2, r2
 1416 020a 5942     		negs	r1, r3
 1417              	.L125:
 1418 020c 8F42     		cmp	r7, r1
 316:..\..\..\lvgl\version_6.1.2\lvgl\src\lv_draw/lv_draw_triangle.c ****                 edge2.x += sx2;
 1419              		.loc 1 316 0
 1420 020e CCEB0703 		rsb	r3, ip, r7
 1421 0212 1BB2     		sxth	r3, r3
 1422 0214 D8BF     		it	le
 1423 0216 3B46     		movle	r3, r7
 1424 0218 1BB2     		sxth	r3, r3
 321:..\..\..\lvgl\version_6.1.2\lvgl\src\lv_draw/lv_draw_triangle.c ****             }
 1425              		.loc 1 321 0
ARM GAS  C:\Users\pearlstl\AppData\Local\Temp\ccVE6Vs6.s 			page 37


 1426 021a 0AEB0604 		add	r4, r10, r6
 320:..\..\..\lvgl\version_6.1.2\lvgl\src\lv_draw/lv_draw_triangle.c ****                 edge2.y += sy2;
 1427              		.loc 1 320 0
 1428 021e 03EB0500 		add	r0, r3, r5
 1429 0222 D4BF     		ite	le
 1430 0224 DE46     		movle	lr, fp
 1431 0226 9646     		movgt	lr, r2
 1432 0228 00B2     		sxth	r0, r0
 1433 022a B845     		cmp	r8, r7
 321:..\..\..\lvgl\version_6.1.2\lvgl\src\lv_draw/lv_draw_triangle.c ****             }
 1434              		.loc 1 321 0
 1435 022c 24B2     		sxth	r4, r4
 1436 022e 0FFA8EFE 		sxth	lr, lr
 1437 0232 C4BF     		itt	gt
 1438 0234 0346     		movgt	r3, r0
 1439 0236 2646     		movgt	r6, r4
 323:..\..\..\lvgl\version_6.1.2\lvgl\src\lv_draw/lv_draw_triangle.c ****     }
 1440              		.loc 1 323 0
 1441 0238 F345     		cmp	fp, lr
 1442 023a 1F46     		mov	r7, r3
 1443 023c 36B2     		sxth	r6, r6
 1444              	.LVL129:
 1445 023e E5D0     		beq	.L125
 1446 0240 DDF84CA0 		ldr	r10, [sp, #76]
 1447 0244 DDF85080 		ldr	r8, [sp, #80]
 1448 0248 159C     		ldr	r4, [sp, #84]
 1449 024a 169D     		ldr	r5, [sp, #88]
 1450              	.L126:
 292:..\..\..\lvgl\version_6.1.2\lvgl\src\lv_draw/lv_draw_triangle.c ****             } else if(edge1.y == tri[2].y && edge1.x == tri[2].x) {
 1451              		.loc 1 292 0
 1452 024c F346     		mov	fp, lr
 1453 024e 1F46     		mov	r7, r3
 1454 0250 75E7     		b	.L130
 1455              	.LVL130:
 1456              	.L82:
 240:..\..\..\lvgl\version_6.1.2\lvgl\src\lv_draw/lv_draw_triangle.c ****     if(tri[1].x < tri[0].x) point_swap(&tri[1], &tri[0]);
 1457              		.loc 1 240 0
 1458 0252 8142     		cmp	r1, r0
 1459 0254 60DD     		ble	.L169
 1460 0256 1346     		mov	r3, r2
 1461              	.LVL131:
 1462 0258 BDF97640 		ldrsh	r4, [sp, #118]
 1463 025c BDF97A20 		ldrsh	r2, [sp, #122]
 1464 0260 0792     		str	r2, [sp, #28]
 1465 0262 0A46     		mov	r2, r1
 1466 0264 1946     		mov	r1, r3
 1467              	.L132:
 1468              	.LVL132:
 1469              	.LBB24:
 1470              	.LBB25:
 336:..\..\..\lvgl\version_6.1.2\lvgl\src\lv_draw/lv_draw_triangle.c **** 
 1471              		.loc 1 336 0
 1472 0266 BDF97E60 		ldrsh	r6, [sp, #126]
 1473              	.LVL133:
 339:..\..\..\lvgl\version_6.1.2\lvgl\src\lv_draw/lv_draw_triangle.c **** 
 1474              		.loc 1 339 0
 1475 026a BDF81C30 		ldrh	r3, [sp, #28]
ARM GAS  C:\Users\pearlstl\AppData\Local\Temp\ccVE6Vs6.s 			page 38


 338:..\..\..\lvgl\version_6.1.2\lvgl\src\lv_draw/lv_draw_triangle.c ****     p1->y = p2->y;
 1476              		.loc 1 338 0
 1477 026e ADF87C20 		strh	r2, [sp, #124]	@ movhi
 1478              	.LBE25:
 1479              	.LBE24:
 241:..\..\..\lvgl\version_6.1.2\lvgl\src\lv_draw/lv_draw_triangle.c **** 
 1480              		.loc 1 241 0
 1481 0272 8842     		cmp	r0, r1
 1482              	.LBB27:
 1483              	.LBB26:
 341:..\..\..\lvgl\version_6.1.2\lvgl\src\lv_draw/lv_draw_triangle.c ****     p2->y = tmp.y;
 1484              		.loc 1 341 0
 1485 0274 ADF87800 		strh	r0, [sp, #120]	@ movhi
 1486              		.loc 1 342 0
 1487 0278 ADF87A60 		strh	r6, [sp, #122]	@ movhi
 339:..\..\..\lvgl\version_6.1.2\lvgl\src\lv_draw/lv_draw_triangle.c **** 
 1488              		.loc 1 339 0
 1489 027c ADF87E30 		strh	r3, [sp, #126]	@ movhi
 1490              	.LBE26:
 1491              	.LBE27:
 241:..\..\..\lvgl\version_6.1.2\lvgl\src\lv_draw/lv_draw_triangle.c **** 
 1492              		.loc 1 241 0
 1493 0280 80F28881 		bge	.L138
 1494              	.LVL134:
 245:..\..\..\lvgl\version_6.1.2\lvgl\src\lv_draw/lv_draw_triangle.c ****     lv_coord_t sx1  = tri[0].x < tri[1].x ? 1 : -1;
 1495              		.loc 1 245 0
 1496 0284 C1EB000A 		rsb	r10, r1, r0
 1497 0288 BAF1000F 		cmp	r10, #0
 1498 028c 0A46     		mov	r2, r1
 1499 028e 0991     		str	r1, [sp, #36]
 1500 0290 BDF97C10 		ldrsh	r1, [sp, #124]
 1501 0294 0391     		str	r1, [sp, #12]
 1502 0296 B8BF     		it	lt
 1503 0298 CAF1000A 		rsblt	r10, r10, #0
 246:..\..\..\lvgl\version_6.1.2\lvgl\src\lv_draw/lv_draw_triangle.c ****     lv_coord_t dy1  = LV_MATH_ABS(tri[0].y - tri[1].y);
 1504              		.loc 1 246 0
 1505 029c 0121     		movs	r1, #1
 245:..\..\..\lvgl\version_6.1.2\lvgl\src\lv_draw/lv_draw_triangle.c ****     lv_coord_t sx1  = tri[0].x < tri[1].x ? 1 : -1;
 1506              		.loc 1 245 0
 1507 029e 0346     		mov	r3, r0
 1508 02a0 8346     		mov	fp, r0
 1509 02a2 0794     		str	r4, [sp, #28]
 1510 02a4 0FFA8AFA 		sxth	r10, r10
 1511              	.LVL135:
 246:..\..\..\lvgl\version_6.1.2\lvgl\src\lv_draw/lv_draw_triangle.c ****     lv_coord_t dy1  = LV_MATH_ABS(tri[0].y - tri[1].y);
 1512              		.loc 1 246 0
 1513 02a8 0A91     		str	r1, [sp, #40]
 1514 02aa 2046     		mov	r0, r4
 1515              	.LVL136:
 1516 02ac E2E6     		b	.L84
 1517              	.LVL137:
 1518              	.L93:
 1519 02ae 9945     		cmp	r9, r3
 1520 02b0 3BD0     		beq	.L161
 1521 02b2 0A9B     		ldr	r3, [sp, #40]
 1522 02b4 DDF818C0 		ldr	ip, [sp, #24]
 1523 02b8 1397     		str	r7, [sp, #76]
ARM GAS  C:\Users\pearlstl\AppData\Local\Temp\ccVE6Vs6.s 			page 39


 1524 02ba 03EB0902 		add	r2, r3, r9
 299:..\..\..\lvgl\version_6.1.2\lvgl\src\lv_draw/lv_draw_triangle.c ****             }
 1525              		.loc 1 299 0
 1526 02be 12B2     		sxth	r2, r2
 1527 02c0 CAF10001 		rsb	r1, r10, #0
 1528              	.LVL138:
 1529              	.L99:
 1530 02c4 A142     		cmp	r1, r4
 298:..\..\..\lvgl\version_6.1.2\lvgl\src\lv_draw/lv_draw_triangle.c ****                 edge1.x += sx1;
 1531              		.loc 1 298 0
 1532 02c6 C8EB0403 		rsb	r3, r8, r4
 1533 02ca 1BB2     		sxth	r3, r3
 1534 02cc A8BF     		it	ge
 1535 02ce 2346     		movge	r3, r4
 303:..\..\..\lvgl\version_6.1.2\lvgl\src\lv_draw/lv_draw_triangle.c ****             }
 1536              		.loc 1 303 0
 1537 02d0 0CEB0500 		add	r0, ip, r5
 1538 02d4 ACBF     		ite	ge
 1539 02d6 4F46     		movge	r7, r9
 1540 02d8 1746     		movlt	r7, r2
 302:..\..\..\lvgl\version_6.1.2\lvgl\src\lv_draw/lv_draw_triangle.c ****                 edge1.y += sy1;
 1541              		.loc 1 302 0
 1542 02da 03EB0A0E 		add	lr, r3, r10
 1543 02de A045     		cmp	r8, r4
 1544 02e0 0FFA8EFE 		sxth	lr, lr
 303:..\..\..\lvgl\version_6.1.2\lvgl\src\lv_draw/lv_draw_triangle.c ****             }
 1545              		.loc 1 303 0
 1546 02e4 00B2     		sxth	r0, r0
 1547 02e6 3FB2     		sxth	r7, r7
 1548 02e8 CABF     		itet	gt
 1549 02ea 7446     		movgt	r4, lr
 1550 02ec 1C46     		movle	r4, r3
 1551 02ee 0546     		movgt	r5, r0
 305:..\..\..\lvgl\version_6.1.2\lvgl\src\lv_draw/lv_draw_triangle.c **** 
 1552              		.loc 1 305 0
 1553 02f0 B945     		cmp	r9, r7
 1554 02f2 24B2     		sxth	r4, r4
 1555 02f4 2DB2     		sxth	r5, r5
 1556              	.LVL139:
 1557 02f6 E5D0     		beq	.L99
 1558 02f8 3B46     		mov	r3, r7
 1559 02fa 9946     		mov	r9, r3
 1560              	.LVL140:
 1561 02fc 139F     		ldr	r7, [sp, #76]
 1562 02fe 6EE7     		b	.L96
 1563              	.LVL141:
 1564              	.L90:
 257:..\..\..\lvgl\version_6.1.2\lvgl\src\lv_draw/lv_draw_triangle.c ****     lv_coord_t err_tmp2;
 1565              		.loc 1 257 0 discriminator 2
 1566 0300 03EBD377 		add	r7, r3, r3, lsr #31
 1567 0304 7F10     		asrs	r7, r7, #1
 1568 0306 7F42     		negs	r7, r7
 1569 0308 3FB2     		sxth	r7, r7
 1570 030a F0E6     		b	.L91
 1571              	.LVL142:
 1572              	.L86:
 249:..\..\..\lvgl\version_6.1.2\lvgl\src\lv_draw/lv_draw_triangle.c ****     lv_coord_t err_tmp1;
ARM GAS  C:\Users\pearlstl\AppData\Local\Temp\ccVE6Vs6.s 			page 40


 1573              		.loc 1 249 0 discriminator 2
 1574 030c 08EBD874 		add	r4, r8, r8, lsr #31
 1575 0310 6410     		asrs	r4, r4, #1
 1576 0312 6442     		negs	r4, r4
 1577 0314 24B2     		sxth	r4, r4
 1578 0316 C2E6     		b	.L87
 1579              	.LVL143:
 1580              	.L169:
 240:..\..\..\lvgl\version_6.1.2\lvgl\src\lv_draw/lv_draw_triangle.c ****     if(tri[1].x < tri[0].x) point_swap(&tri[1], &tri[0]);
 1581              		.loc 1 240 0
 1582 0318 0B46     		mov	r3, r1
 1583              	.LVL144:
 1584 031a BDF97A10 		ldrsh	r1, [sp, #122]
 1585 031e 0791     		str	r1, [sp, #28]
 1586 0320 BDF97640 		ldrsh	r4, [sp, #118]
 1587 0324 1146     		mov	r1, r2
 1588 0326 1A46     		mov	r2, r3
 1589 0328 8FE6     		b	.L83
 1590              	.LVL145:
 1591              	.L161:
 1592 032a 2346     		mov	r3, r4
 1593 032c 1397     		str	r7, [sp, #76]
 1594 032e CDF850B0 		str	fp, [sp, #80]
 1595 0332 1596     		str	r6, [sp, #84]
 1596 0334 069F     		ldr	r7, [sp, #24]
 1597              	.LVL146:
 1598 0336 DDF82CE0 		ldr	lr, [sp, #44]
 1599 033a DDF860B0 		ldr	fp, [sp, #96]
 1600              	.LVL147:
 1601 033e 079C     		ldr	r4, [sp, #28]
 1602              	.LVL148:
 1603 0340 0A9E     		ldr	r6, [sp, #40]
 1604              	.LVL149:
 1605 0342 9446     		mov	ip, r2
 1606              	.LVL150:
 1607              	.L100:
 1608 0344 0198     		ldr	r0, [sp, #4]
 1609 0346 A542     		cmp	r5, r4
 1610 0348 04BF     		itt	eq
 1611 034a F246     		moveq	r10, lr
 1612 034c 0646     		moveq	r6, r0
 1613 034e 0298     		ldr	r0, [sp, #8]
 1614 0350 04BF     		itt	eq
 1615 0352 5B46     		moveq	r3, fp
 1616 0354 E046     		moveq	r8, ip
 297:..\..\..\lvgl\version_6.1.2\lvgl\src\lv_draw/lv_draw_triangle.c ****                 err1 -= dy1;
 1617              		.loc 1 297 0
 1618 0356 CAF10002 		rsb	r2, r10, #0
 298:..\..\..\lvgl\version_6.1.2\lvgl\src\lv_draw/lv_draw_triangle.c ****                 edge1.x += sx1;
 1619              		.loc 1 298 0
 1620 035a C8EB0301 		rsb	r1, r8, r3
 1621 035e 08BF     		it	eq
 1622 0360 0746     		moveq	r7, r0
 1623 0362 9A42     		cmp	r2, r3
 1624 0364 09B2     		sxth	r1, r1
 299:..\..\..\lvgl\version_6.1.2\lvgl\src\lv_draw/lv_draw_triangle.c ****             }
 1625              		.loc 1 299 0
ARM GAS  C:\Users\pearlstl\AppData\Local\Temp\ccVE6Vs6.s 			page 41


 1626 0366 06EB0902 		add	r2, r6, r9
 1627 036a A8BF     		it	ge
 1628 036c 1946     		movge	r1, r3
 303:..\..\..\lvgl\version_6.1.2\lvgl\src\lv_draw/lv_draw_triangle.c ****             }
 1629              		.loc 1 303 0
 1630 036e 07EB0500 		add	r0, r7, r5
 1631 0372 09B2     		sxth	r1, r1
 299:..\..\..\lvgl\version_6.1.2\lvgl\src\lv_draw/lv_draw_triangle.c ****             }
 1632              		.loc 1 299 0
 1633 0374 12B2     		sxth	r2, r2
 1634 0376 A8BF     		it	ge
 1635 0378 4A46     		movge	r2, r9
 303:..\..\..\lvgl\version_6.1.2\lvgl\src\lv_draw/lv_draw_triangle.c ****             }
 1636              		.loc 1 303 0
 1637 037a 00B2     		sxth	r0, r0
 1638 037c 4345     		cmp	r3, r8
 1639 037e 12B2     		sxth	r2, r2
 302:..\..\..\lvgl\version_6.1.2\lvgl\src\lv_draw/lv_draw_triangle.c ****                 edge1.y += sy1;
 1640              		.loc 1 302 0
 1641 0380 0AEB0103 		add	r3, r10, r1
 1642 0384 B8BF     		it	lt
 1643 0386 0546     		movlt	r5, r0
 1644 0388 1BB2     		sxth	r3, r3
 1645 038a A8BF     		it	ge
 1646 038c 0B46     		movge	r3, r1
 305:..\..\..\lvgl\version_6.1.2\lvgl\src\lv_draw/lv_draw_triangle.c **** 
 1647              		.loc 1 305 0
 1648 038e 9145     		cmp	r9, r2
 1649 0390 2DB2     		sxth	r5, r5
 1650              	.LVL151:
 1651 0392 D7D0     		beq	.L100
 1652              	.L165:
 1653 0394 0A96     		str	r6, [sp, #40]
 1654 0396 0697     		str	r7, [sp, #24]
 1655 0398 1C46     		mov	r4, r3
 1656 039a 139F     		ldr	r7, [sp, #76]
 1657 039c DDF850B0 		ldr	fp, [sp, #80]
 1658 03a0 159E     		ldr	r6, [sp, #84]
 1659 03a2 9146     		mov	r9, r2
 1660              	.LVL152:
 1661 03a4 1BE7     		b	.L96
 1662              	.LVL153:
 1663              	.L160:
 1664 03a6 2346     		mov	r3, r4
 1665 03a8 1397     		str	r7, [sp, #76]
 1666 03aa CDF850B0 		str	fp, [sp, #80]
 1667 03ae 1596     		str	r6, [sp, #84]
 1668 03b0 069F     		ldr	r7, [sp, #24]
 1669              	.LVL154:
 1670 03b2 DDF82CE0 		ldr	lr, [sp, #44]
 1671 03b6 DDF864B0 		ldr	fp, [sp, #100]
 1672              	.LVL155:
 1673 03ba 079C     		ldr	r4, [sp, #28]
 1674              	.LVL156:
 1675 03bc 0A9E     		ldr	r6, [sp, #40]
 1676              	.LVL157:
 1677 03be 9446     		mov	ip, r2
ARM GAS  C:\Users\pearlstl\AppData\Local\Temp\ccVE6Vs6.s 			page 42


 1678              	.LVL158:
 1679              	.L97:
 1680 03c0 0198     		ldr	r0, [sp, #4]
 1681 03c2 A542     		cmp	r5, r4
 1682 03c4 04BF     		itt	eq
 1683 03c6 F246     		moveq	r10, lr
 1684 03c8 0646     		moveq	r6, r0
 1685 03ca 0298     		ldr	r0, [sp, #8]
 1686 03cc 04BF     		itt	eq
 1687 03ce 5B46     		moveq	r3, fp
 1688 03d0 E046     		moveq	r8, ip
 297:..\..\..\lvgl\version_6.1.2\lvgl\src\lv_draw/lv_draw_triangle.c ****                 err1 -= dy1;
 1689              		.loc 1 297 0
 1690 03d2 CAF10002 		rsb	r2, r10, #0
 298:..\..\..\lvgl\version_6.1.2\lvgl\src\lv_draw/lv_draw_triangle.c ****                 edge1.x += sx1;
 1691              		.loc 1 298 0
 1692 03d6 C8EB0301 		rsb	r1, r8, r3
 1693 03da 08BF     		it	eq
 1694 03dc 0746     		moveq	r7, r0
 1695 03de 9A42     		cmp	r2, r3
 1696 03e0 09B2     		sxth	r1, r1
 299:..\..\..\lvgl\version_6.1.2\lvgl\src\lv_draw/lv_draw_triangle.c ****             }
 1697              		.loc 1 299 0
 1698 03e2 06EB0902 		add	r2, r6, r9
 1699 03e6 A8BF     		it	ge
 1700 03e8 1946     		movge	r1, r3
 303:..\..\..\lvgl\version_6.1.2\lvgl\src\lv_draw/lv_draw_triangle.c ****             }
 1701              		.loc 1 303 0
 1702 03ea 07EB0500 		add	r0, r7, r5
 1703 03ee 09B2     		sxth	r1, r1
 299:..\..\..\lvgl\version_6.1.2\lvgl\src\lv_draw/lv_draw_triangle.c ****             }
 1704              		.loc 1 299 0
 1705 03f0 12B2     		sxth	r2, r2
 1706 03f2 A8BF     		it	ge
 1707 03f4 4A46     		movge	r2, r9
 303:..\..\..\lvgl\version_6.1.2\lvgl\src\lv_draw/lv_draw_triangle.c ****             }
 1708              		.loc 1 303 0
 1709 03f6 00B2     		sxth	r0, r0
 1710 03f8 4345     		cmp	r3, r8
 1711 03fa 12B2     		sxth	r2, r2
 302:..\..\..\lvgl\version_6.1.2\lvgl\src\lv_draw/lv_draw_triangle.c ****                 edge1.y += sy1;
 1712              		.loc 1 302 0
 1713 03fc 0AEB0103 		add	r3, r10, r1
 1714 0400 B8BF     		it	lt
 1715 0402 0546     		movlt	r5, r0
 1716 0404 1BB2     		sxth	r3, r3
 1717 0406 A8BF     		it	ge
 1718 0408 0B46     		movge	r3, r1
 305:..\..\..\lvgl\version_6.1.2\lvgl\src\lv_draw/lv_draw_triangle.c **** 
 1719              		.loc 1 305 0
 1720 040a 9145     		cmp	r9, r2
 1721 040c 2DB2     		sxth	r5, r5
 1722              	.LVL159:
 1723 040e D7D0     		beq	.L97
 1724 0410 C0E7     		b	.L165
 1725              	.LVL160:
 1726              	.L92:
ARM GAS  C:\Users\pearlstl\AppData\Local\Temp\ccVE6Vs6.s 			page 43


 1727 0412 9342     		cmp	r3, r2
 1728 0414 099B     		ldr	r3, [sp, #36]
 1729 0416 6DDC     		bgt	.L101
 1730 0418 9945     		cmp	r9, r3
 1731 041a 1BD0     		beq	.L103
 299:..\..\..\lvgl\version_6.1.2\lvgl\src\lv_draw/lv_draw_triangle.c ****             }
 1732              		.loc 1 299 0
 1733 041c 0A9B     		ldr	r3, [sp, #40]
 1734 041e 09EB0301 		add	r1, r9, r3
 1735 0422 09B2     		sxth	r1, r1
 297:..\..\..\lvgl\version_6.1.2\lvgl\src\lv_draw/lv_draw_triangle.c ****                 err1 -= dy1;
 1736              		.loc 1 297 0
 1737 0424 CAF10000 		rsb	r0, r10, #0
 1738              	.LVL161:
 1739              	.L104:
 293:..\..\..\lvgl\version_6.1.2\lvgl\src\lv_draw/lv_draw_triangle.c ****                 return;
 1740              		.loc 1 293 0
 1741 0428 059B     		ldr	r3, [sp, #20]
 1742 042a AB42     		cmp	r3, r5
 1743 042c 2ED0     		beq	.L81
 298:..\..\..\lvgl\version_6.1.2\lvgl\src\lv_draw/lv_draw_triangle.c ****                 edge1.x += sx1;
 1744              		.loc 1 298 0
 1745 042e C8EB0403 		rsb	r3, r8, r4
 297:..\..\..\lvgl\version_6.1.2\lvgl\src\lv_draw/lv_draw_triangle.c ****                 err1 -= dy1;
 1746              		.loc 1 297 0
 1747 0432 8442     		cmp	r4, r0
 298:..\..\..\lvgl\version_6.1.2\lvgl\src\lv_draw/lv_draw_triangle.c ****                 edge1.x += sx1;
 1748              		.loc 1 298 0
 1749 0434 1BB2     		sxth	r3, r3
 1750              	.LVL162:
 299:..\..\..\lvgl\version_6.1.2\lvgl\src\lv_draw/lv_draw_triangle.c ****             }
 1751              		.loc 1 299 0
 1752 0436 0A46     		mov	r2, r1
 1753              	.LVL163:
 297:..\..\..\lvgl\version_6.1.2\lvgl\src\lv_draw/lv_draw_triangle.c ****                 err1 -= dy1;
 1754              		.loc 1 297 0
 1755 0438 40F3A780 		ble	.L106
 301:..\..\..\lvgl\version_6.1.2\lvgl\src\lv_draw/lv_draw_triangle.c ****                 err1 += dx1;
 1756              		.loc 1 301 0
 1757 043c A045     		cmp	r8, r4
 298:..\..\..\lvgl\version_6.1.2\lvgl\src\lv_draw/lv_draw_triangle.c ****                 edge1.x += sx1;
 1758              		.loc 1 298 0
 1759 043e 1C46     		mov	r4, r3
 1760              	.LVL164:
 301:..\..\..\lvgl\version_6.1.2\lvgl\src\lv_draw/lv_draw_triangle.c ****                 err1 += dx1;
 1761              		.loc 1 301 0
 1762 0440 04DD     		ble	.L107
 1763              	.L133:
 303:..\..\..\lvgl\version_6.1.2\lvgl\src\lv_draw/lv_draw_triangle.c ****             }
 1764              		.loc 1 303 0
 1765 0442 069B     		ldr	r3, [sp, #24]
 1766              	.LVL165:
 302:..\..\..\lvgl\version_6.1.2\lvgl\src\lv_draw/lv_draw_triangle.c ****                 edge1.y += sy1;
 1767              		.loc 1 302 0
 1768 0444 5444     		add	r4, r4, r10
 303:..\..\..\lvgl\version_6.1.2\lvgl\src\lv_draw/lv_draw_triangle.c ****             }
 1769              		.loc 1 303 0
ARM GAS  C:\Users\pearlstl\AppData\Local\Temp\ccVE6Vs6.s 			page 44


 1770 0446 1D44     		add	r5, r5, r3
 1771              	.LVL166:
 302:..\..\..\lvgl\version_6.1.2\lvgl\src\lv_draw/lv_draw_triangle.c ****                 edge1.y += sy1;
 1772              		.loc 1 302 0
 1773 0448 24B2     		sxth	r4, r4
 1774              	.LVL167:
 303:..\..\..\lvgl\version_6.1.2\lvgl\src\lv_draw/lv_draw_triangle.c ****             }
 1775              		.loc 1 303 0
 1776 044a 2DB2     		sxth	r5, r5
 1777              	.LVL168:
 1778              	.L107:
 305:..\..\..\lvgl\version_6.1.2\lvgl\src\lv_draw/lv_draw_triangle.c **** 
 1779              		.loc 1 305 0
 1780 044c 9145     		cmp	r9, r2
 1781 044e EBD0     		beq	.L104
 1782 0450 9146     		mov	r9, r2
 1783              	.LVL169:
 1784 0452 C4E6     		b	.L96
 1785              	.LVL170:
 1786              	.L103:
 286:..\..\..\lvgl\version_6.1.2\lvgl\src\lv_draw/lv_draw_triangle.c **** 
 1787              		.loc 1 286 0
 1788 0454 079B     		ldr	r3, [sp, #28]
 1789 0456 9D42     		cmp	r5, r3
 1790 0458 42D0     		beq	.L144
 293:..\..\..\lvgl\version_6.1.2\lvgl\src\lv_draw/lv_draw_triangle.c ****                 return;
 1791              		.loc 1 293 0
 1792 045a 059B     		ldr	r3, [sp, #20]
 1793 045c AB42     		cmp	r3, r5
 1794 045e 15D0     		beq	.L81
 1795              	.LVL171:
 1796              	.L109:
 297:..\..\..\lvgl\version_6.1.2\lvgl\src\lv_draw/lv_draw_triangle.c ****                 err1 -= dy1;
 1797              		.loc 1 297 0
 1798 0460 CAF10003 		rsb	r3, r10, #0
 1799 0464 9C42     		cmp	r4, r3
 1800 0466 14DD     		ble	.L110
 299:..\..\..\lvgl\version_6.1.2\lvgl\src\lv_draw/lv_draw_triangle.c ****             }
 1801              		.loc 1 299 0
 1802 0468 0A9B     		ldr	r3, [sp, #40]
 298:..\..\..\lvgl\version_6.1.2\lvgl\src\lv_draw/lv_draw_triangle.c ****                 edge1.x += sx1;
 1803              		.loc 1 298 0
 1804 046a C8EB0402 		rsb	r2, r8, r4
 299:..\..\..\lvgl\version_6.1.2\lvgl\src\lv_draw/lv_draw_triangle.c ****             }
 1805              		.loc 1 299 0
 1806 046e 4B44     		add	r3, r9, r3
 298:..\..\..\lvgl\version_6.1.2\lvgl\src\lv_draw/lv_draw_triangle.c ****                 edge1.x += sx1;
 1807              		.loc 1 298 0
 1808 0470 12B2     		sxth	r2, r2
 1809              	.LVL172:
 301:..\..\..\lvgl\version_6.1.2\lvgl\src\lv_draw/lv_draw_triangle.c ****                 err1 += dx1;
 1810              		.loc 1 301 0
 1811 0472 A045     		cmp	r8, r4
 299:..\..\..\lvgl\version_6.1.2\lvgl\src\lv_draw/lv_draw_triangle.c ****             }
 1812              		.loc 1 299 0
 1813 0474 1BB2     		sxth	r3, r3
 1814              	.LVL173:
ARM GAS  C:\Users\pearlstl\AppData\Local\Temp\ccVE6Vs6.s 			page 45


 298:..\..\..\lvgl\version_6.1.2\lvgl\src\lv_draw/lv_draw_triangle.c ****                 edge1.x += sx1;
 1815              		.loc 1 298 0
 1816 0476 1446     		mov	r4, r2
 1817              	.LVL174:
 301:..\..\..\lvgl\version_6.1.2\lvgl\src\lv_draw/lv_draw_triangle.c ****                 err1 += dx1;
 1818              		.loc 1 301 0
 1819 0478 04DD     		ble	.L111
 1820              	.LVL175:
 1821              	.L134:
 303:..\..\..\lvgl\version_6.1.2\lvgl\src\lv_draw/lv_draw_triangle.c ****             }
 1822              		.loc 1 303 0
 1823 047a 069A     		ldr	r2, [sp, #24]
 302:..\..\..\lvgl\version_6.1.2\lvgl\src\lv_draw/lv_draw_triangle.c ****                 edge1.y += sy1;
 1824              		.loc 1 302 0
 1825 047c 5444     		add	r4, r4, r10
 303:..\..\..\lvgl\version_6.1.2\lvgl\src\lv_draw/lv_draw_triangle.c ****             }
 1826              		.loc 1 303 0
 1827 047e 1544     		add	r5, r5, r2
 1828              	.LVL176:
 302:..\..\..\lvgl\version_6.1.2\lvgl\src\lv_draw/lv_draw_triangle.c ****                 edge1.y += sy1;
 1829              		.loc 1 302 0
 1830 0480 24B2     		sxth	r4, r4
 1831              	.LVL177:
 303:..\..\..\lvgl\version_6.1.2\lvgl\src\lv_draw/lv_draw_triangle.c ****             }
 1832              		.loc 1 303 0
 1833 0482 2DB2     		sxth	r5, r5
 1834              	.LVL178:
 1835              	.L111:
 305:..\..\..\lvgl\version_6.1.2\lvgl\src\lv_draw/lv_draw_triangle.c **** 
 1836              		.loc 1 305 0
 1837 0484 9945     		cmp	r9, r3
 1838 0486 E5D0     		beq	.L103
 1839 0488 9946     		mov	r9, r3
 1840              	.LVL179:
 1841 048a A8E6     		b	.L96
 1842              	.LVL180:
 1843              	.L81:
 325:..\..\..\lvgl\version_6.1.2\lvgl\src\lv_draw/lv_draw_triangle.c **** 
 1844              		.loc 1 325 0
 1845 048c 21B0     		add	sp, sp, #132
 1846              		.cfi_remember_state
 1847              		.cfi_def_cfa_offset 36
 1848              		@ sp needed
 1849 048e BDE8F08F 		pop	{r4, r5, r6, r7, r8, r9, r10, fp, pc}
 1850              	.LVL181:
 1851              	.L110:
 1852              		.cfi_restore_state
 301:..\..\..\lvgl\version_6.1.2\lvgl\src\lv_draw/lv_draw_triangle.c ****                 err1 += dx1;
 1853              		.loc 1 301 0
 1854 0492 A045     		cmp	r8, r4
 1855 0494 DEDD     		ble	.L103
 1856 0496 099B     		ldr	r3, [sp, #36]
 1857 0498 EFE7     		b	.L134
 1858              	.LVL182:
 1859              	.L168:
 315:..\..\..\lvgl\version_6.1.2\lvgl\src\lv_draw/lv_draw_triangle.c ****                 err2 -= dy2;
 1860              		.loc 1 315 0
ARM GAS  C:\Users\pearlstl\AppData\Local\Temp\ccVE6Vs6.s 			page 46


 1861 049a 129A     		ldr	r2, [sp, #72]
 317:..\..\..\lvgl\version_6.1.2\lvgl\src\lv_draw/lv_draw_triangle.c ****             }
 1862              		.loc 1 317 0
 1863 049c 03EB0B01 		add	r1, r3, fp
 1864 04a0 09B2     		sxth	r1, r1
 305:..\..\..\lvgl\version_6.1.2\lvgl\src\lv_draw/lv_draw_triangle.c **** 
 1865              		.loc 1 305 0
 1866 04a2 3B46     		mov	r3, r7
 315:..\..\..\lvgl\version_6.1.2\lvgl\src\lv_draw/lv_draw_triangle.c ****                 err2 -= dy2;
 1867              		.loc 1 315 0
 1868 04a4 5042     		negs	r0, r2
 1869              	.L124:
 1870              	.LVL183:
 310:..\..\..\lvgl\version_6.1.2\lvgl\src\lv_draw/lv_draw_triangle.c ****                 return;
 1871              		.loc 1 310 0
 1872 04a6 059A     		ldr	r2, [sp, #20]
 1873 04a8 B242     		cmp	r2, r6
 1874 04aa EFD0     		beq	.L81
 316:..\..\..\lvgl\version_6.1.2\lvgl\src\lv_draw/lv_draw_triangle.c ****                 edge2.x += sx2;
 1875              		.loc 1 316 0
 1876 04ac 089A     		ldr	r2, [sp, #32]
 315:..\..\..\lvgl\version_6.1.2\lvgl\src\lv_draw/lv_draw_triangle.c ****                 err2 -= dy2;
 1877              		.loc 1 315 0
 1878 04ae 8342     		cmp	r3, r0
 316:..\..\..\lvgl\version_6.1.2\lvgl\src\lv_draw/lv_draw_triangle.c ****                 edge2.x += sx2;
 1879              		.loc 1 316 0
 1880 04b0 A3EB0202 		sub	r2, r3, r2
 1881 04b4 12B2     		sxth	r2, r2
 1882              	.LVL184:
 317:..\..\..\lvgl\version_6.1.2\lvgl\src\lv_draw/lv_draw_triangle.c ****             }
 1883              		.loc 1 317 0
 1884 04b6 8E46     		mov	lr, r1
 1885              	.LVL185:
 315:..\..\..\lvgl\version_6.1.2\lvgl\src\lv_draw/lv_draw_triangle.c ****                 err2 -= dy2;
 1886              		.loc 1 315 0
 1887 04b8 0CDD     		ble	.L127
 319:..\..\..\lvgl\version_6.1.2\lvgl\src\lv_draw/lv_draw_triangle.c ****                 err2 += dx2;
 1888              		.loc 1 319 0
 1889 04ba 049F     		ldr	r7, [sp, #16]
 1890 04bc BB42     		cmp	r3, r7
 316:..\..\..\lvgl\version_6.1.2\lvgl\src\lv_draw/lv_draw_triangle.c ****                 edge2.x += sx2;
 1891              		.loc 1 316 0
 1892 04be 1346     		mov	r3, r2
 1893              	.LVL186:
 319:..\..\..\lvgl\version_6.1.2\lvgl\src\lv_draw/lv_draw_triangle.c ****                 err2 += dx2;
 1894              		.loc 1 319 0
 1895 04c0 05DA     		bge	.L128
 1896              	.LVL187:
 1897              	.L137:
 320:..\..\..\lvgl\version_6.1.2\lvgl\src\lv_draw/lv_draw_triangle.c ****                 edge2.y += sy2;
 1898              		.loc 1 320 0
 1899 04c2 0D9A     		ldr	r2, [sp, #52]
 1900 04c4 1344     		add	r3, r3, r2
 321:..\..\..\lvgl\version_6.1.2\lvgl\src\lv_draw/lv_draw_triangle.c ****             }
 1901              		.loc 1 321 0
 1902 04c6 0E9A     		ldr	r2, [sp, #56]
 1903 04c8 1644     		add	r6, r6, r2
ARM GAS  C:\Users\pearlstl\AppData\Local\Temp\ccVE6Vs6.s 			page 47


 1904              	.LVL188:
 320:..\..\..\lvgl\version_6.1.2\lvgl\src\lv_draw/lv_draw_triangle.c ****                 edge2.y += sy2;
 1905              		.loc 1 320 0
 1906 04ca 1BB2     		sxth	r3, r3
 1907              	.LVL189:
 321:..\..\..\lvgl\version_6.1.2\lvgl\src\lv_draw/lv_draw_triangle.c ****             }
 1908              		.loc 1 321 0
 1909 04cc 36B2     		sxth	r6, r6
 1910              	.LVL190:
 1911              	.L128:
 323:..\..\..\lvgl\version_6.1.2\lvgl\src\lv_draw/lv_draw_triangle.c ****     }
 1912              		.loc 1 323 0
 1913 04ce F345     		cmp	fp, lr
 1914 04d0 E9D0     		beq	.L124
 1915 04d2 BBE6     		b	.L126
 1916              	.LVL191:
 1917              	.L127:
 319:..\..\..\lvgl\version_6.1.2\lvgl\src\lv_draw/lv_draw_triangle.c ****                 err2 += dx2;
 1918              		.loc 1 319 0
 1919 04d4 049A     		ldr	r2, [sp, #16]
 1920              	.LVL192:
 1921 04d6 9342     		cmp	r3, r2
 1922 04d8 E5DA     		bge	.L124
 1923 04da DDF80CE0 		ldr	lr, [sp, #12]
 1924 04de F0E7     		b	.L137
 1925              	.LVL193:
 1926              	.L144:
 291:..\..\..\lvgl\version_6.1.2\lvgl\src\lv_draw/lv_draw_triangle.c ****                 err1 = (dx1 > dy1 ? dx1 : -dy1) / 2;
 1927              		.loc 1 291 0
 1928 04e0 029B     		ldr	r3, [sp, #8]
 1929 04e2 0693     		str	r3, [sp, #24]
 1930              	.LVL194:
 289:..\..\..\lvgl\version_6.1.2\lvgl\src\lv_draw/lv_draw_triangle.c ****                 dy1  = LV_MATH_ABS(tri[1].y - tri[2].y);
 1931              		.loc 1 289 0
 1932 04e4 019B     		ldr	r3, [sp, #4]
 292:..\..\..\lvgl\version_6.1.2\lvgl\src\lv_draw/lv_draw_triangle.c ****             } else if(edge1.y == tri[2].y && edge1.x == tri[2].x) {
 1933              		.loc 1 292 0
 1934 04e6 199C     		ldr	r4, [sp, #100]
 1935              	.LVL195:
 286:..\..\..\lvgl\version_6.1.2\lvgl\src\lv_draw/lv_draw_triangle.c **** 
 1936              		.loc 1 286 0
 1937 04e8 DDF83080 		ldr	r8, [sp, #48]
 1938              	.LVL196:
 289:..\..\..\lvgl\version_6.1.2\lvgl\src\lv_draw/lv_draw_triangle.c ****                 dy1  = LV_MATH_ABS(tri[1].y - tri[2].y);
 1939              		.loc 1 289 0
 1940 04ec 0A93     		str	r3, [sp, #40]
 1941              	.LVL197:
 286:..\..\..\lvgl\version_6.1.2\lvgl\src\lv_draw/lv_draw_triangle.c **** 
 1942              		.loc 1 286 0
 1943 04ee DDF82CA0 		ldr	r10, [sp, #44]
 1944              	.LVL198:
 1945 04f2 B5E7     		b	.L109
 1946              	.LVL199:
 1947              	.L101:
 1948 04f4 9945     		cmp	r9, r3
 1949 04f6 1AD0     		beq	.L114
 299:..\..\..\lvgl\version_6.1.2\lvgl\src\lv_draw/lv_draw_triangle.c ****             }
ARM GAS  C:\Users\pearlstl\AppData\Local\Temp\ccVE6Vs6.s 			page 48


 1950              		.loc 1 299 0
 1951 04f8 0A9B     		ldr	r3, [sp, #40]
 1952 04fa 09EB0301 		add	r1, r9, r3
 1953 04fe 09B2     		sxth	r1, r1
 297:..\..\..\lvgl\version_6.1.2\lvgl\src\lv_draw/lv_draw_triangle.c ****                 err1 -= dy1;
 1954              		.loc 1 297 0
 1955 0500 CAF10000 		rsb	r0, r10, #0
 1956              	.LVL200:
 1957              	.L115:
 293:..\..\..\lvgl\version_6.1.2\lvgl\src\lv_draw/lv_draw_triangle.c ****                 return;
 1958              		.loc 1 293 0
 1959 0504 059B     		ldr	r3, [sp, #20]
 1960 0506 AB42     		cmp	r3, r5
 1961 0508 C0D0     		beq	.L81
 298:..\..\..\lvgl\version_6.1.2\lvgl\src\lv_draw/lv_draw_triangle.c ****                 edge1.x += sx1;
 1962              		.loc 1 298 0
 1963 050a C8EB0403 		rsb	r3, r8, r4
 297:..\..\..\lvgl\version_6.1.2\lvgl\src\lv_draw/lv_draw_triangle.c ****                 err1 -= dy1;
 1964              		.loc 1 297 0
 1965 050e 8442     		cmp	r4, r0
 298:..\..\..\lvgl\version_6.1.2\lvgl\src\lv_draw/lv_draw_triangle.c ****                 edge1.x += sx1;
 1966              		.loc 1 298 0
 1967 0510 1BB2     		sxth	r3, r3
 1968              	.LVL201:
 299:..\..\..\lvgl\version_6.1.2\lvgl\src\lv_draw/lv_draw_triangle.c ****             }
 1969              		.loc 1 299 0
 1970 0512 0A46     		mov	r2, r1
 1971              	.LVL202:
 297:..\..\..\lvgl\version_6.1.2\lvgl\src\lv_draw/lv_draw_triangle.c ****                 err1 -= dy1;
 1972              		.loc 1 297 0
 1973 0514 35DD     		ble	.L116
 301:..\..\..\lvgl\version_6.1.2\lvgl\src\lv_draw/lv_draw_triangle.c ****                 err1 += dx1;
 1974              		.loc 1 301 0
 1975 0516 A045     		cmp	r8, r4
 298:..\..\..\lvgl\version_6.1.2\lvgl\src\lv_draw/lv_draw_triangle.c ****                 edge1.x += sx1;
 1976              		.loc 1 298 0
 1977 0518 1C46     		mov	r4, r3
 1978              	.LVL203:
 301:..\..\..\lvgl\version_6.1.2\lvgl\src\lv_draw/lv_draw_triangle.c ****                 err1 += dx1;
 1979              		.loc 1 301 0
 1980 051a 04DD     		ble	.L117
 1981              	.L135:
 303:..\..\..\lvgl\version_6.1.2\lvgl\src\lv_draw/lv_draw_triangle.c ****             }
 1982              		.loc 1 303 0
 1983 051c 069B     		ldr	r3, [sp, #24]
 1984              	.LVL204:
 302:..\..\..\lvgl\version_6.1.2\lvgl\src\lv_draw/lv_draw_triangle.c ****                 edge1.y += sy1;
 1985              		.loc 1 302 0
 1986 051e 5444     		add	r4, r4, r10
 303:..\..\..\lvgl\version_6.1.2\lvgl\src\lv_draw/lv_draw_triangle.c ****             }
 1987              		.loc 1 303 0
 1988 0520 1D44     		add	r5, r5, r3
 1989              	.LVL205:
 302:..\..\..\lvgl\version_6.1.2\lvgl\src\lv_draw/lv_draw_triangle.c ****                 edge1.y += sy1;
 1990              		.loc 1 302 0
 1991 0522 24B2     		sxth	r4, r4
 1992              	.LVL206:
ARM GAS  C:\Users\pearlstl\AppData\Local\Temp\ccVE6Vs6.s 			page 49


 303:..\..\..\lvgl\version_6.1.2\lvgl\src\lv_draw/lv_draw_triangle.c ****             }
 1993              		.loc 1 303 0
 1994 0524 2DB2     		sxth	r5, r5
 1995              	.LVL207:
 1996              	.L117:
 305:..\..\..\lvgl\version_6.1.2\lvgl\src\lv_draw/lv_draw_triangle.c **** 
 1997              		.loc 1 305 0
 1998 0526 9145     		cmp	r9, r2
 1999 0528 ECD0     		beq	.L115
 2000 052a 9146     		mov	r9, r2
 2001              	.LVL208:
 2002 052c 57E6     		b	.L96
 2003              	.LVL209:
 2004              	.L114:
 286:..\..\..\lvgl\version_6.1.2\lvgl\src\lv_draw/lv_draw_triangle.c **** 
 2005              		.loc 1 286 0
 2006 052e 079B     		ldr	r3, [sp, #28]
 2007 0530 9D42     		cmp	r5, r3
 2008 0532 1CD0     		beq	.L147
 293:..\..\..\lvgl\version_6.1.2\lvgl\src\lv_draw/lv_draw_triangle.c ****                 return;
 2009              		.loc 1 293 0
 2010 0534 059B     		ldr	r3, [sp, #20]
 2011 0536 AB42     		cmp	r3, r5
 2012 0538 A8D0     		beq	.L81
 2013              	.LVL210:
 2014              	.L119:
 297:..\..\..\lvgl\version_6.1.2\lvgl\src\lv_draw/lv_draw_triangle.c ****                 err1 -= dy1;
 2015              		.loc 1 297 0
 2016 053a CAF10003 		rsb	r3, r10, #0
 2017 053e 9C42     		cmp	r4, r3
 2018 0540 11DD     		ble	.L120
 299:..\..\..\lvgl\version_6.1.2\lvgl\src\lv_draw/lv_draw_triangle.c ****             }
 2019              		.loc 1 299 0
 2020 0542 0A9B     		ldr	r3, [sp, #40]
 298:..\..\..\lvgl\version_6.1.2\lvgl\src\lv_draw/lv_draw_triangle.c ****                 edge1.x += sx1;
 2021              		.loc 1 298 0
 2022 0544 C8EB0402 		rsb	r2, r8, r4
 299:..\..\..\lvgl\version_6.1.2\lvgl\src\lv_draw/lv_draw_triangle.c ****             }
 2023              		.loc 1 299 0
 2024 0548 4B44     		add	r3, r9, r3
 298:..\..\..\lvgl\version_6.1.2\lvgl\src\lv_draw/lv_draw_triangle.c ****                 edge1.x += sx1;
 2025              		.loc 1 298 0
 2026 054a 12B2     		sxth	r2, r2
 2027              	.LVL211:
 301:..\..\..\lvgl\version_6.1.2\lvgl\src\lv_draw/lv_draw_triangle.c ****                 err1 += dx1;
 2028              		.loc 1 301 0
 2029 054c A045     		cmp	r8, r4
 299:..\..\..\lvgl\version_6.1.2\lvgl\src\lv_draw/lv_draw_triangle.c ****             }
 2030              		.loc 1 299 0
 2031 054e 1BB2     		sxth	r3, r3
 2032              	.LVL212:
 298:..\..\..\lvgl\version_6.1.2\lvgl\src\lv_draw/lv_draw_triangle.c ****                 edge1.x += sx1;
 2033              		.loc 1 298 0
 2034 0550 1446     		mov	r4, r2
 2035              	.LVL213:
 301:..\..\..\lvgl\version_6.1.2\lvgl\src\lv_draw/lv_draw_triangle.c ****                 err1 += dx1;
 2036              		.loc 1 301 0
ARM GAS  C:\Users\pearlstl\AppData\Local\Temp\ccVE6Vs6.s 			page 50


 2037 0552 04DD     		ble	.L121
 2038              	.LVL214:
 2039              	.L136:
 303:..\..\..\lvgl\version_6.1.2\lvgl\src\lv_draw/lv_draw_triangle.c ****             }
 2040              		.loc 1 303 0
 2041 0554 069A     		ldr	r2, [sp, #24]
 302:..\..\..\lvgl\version_6.1.2\lvgl\src\lv_draw/lv_draw_triangle.c ****                 edge1.y += sy1;
 2042              		.loc 1 302 0
 2043 0556 5444     		add	r4, r4, r10
 303:..\..\..\lvgl\version_6.1.2\lvgl\src\lv_draw/lv_draw_triangle.c ****             }
 2044              		.loc 1 303 0
 2045 0558 1544     		add	r5, r5, r2
 2046              	.LVL215:
 302:..\..\..\lvgl\version_6.1.2\lvgl\src\lv_draw/lv_draw_triangle.c ****                 edge1.y += sy1;
 2047              		.loc 1 302 0
 2048 055a 24B2     		sxth	r4, r4
 2049              	.LVL216:
 303:..\..\..\lvgl\version_6.1.2\lvgl\src\lv_draw/lv_draw_triangle.c ****             }
 2050              		.loc 1 303 0
 2051 055c 2DB2     		sxth	r5, r5
 2052              	.LVL217:
 2053              	.L121:
 305:..\..\..\lvgl\version_6.1.2\lvgl\src\lv_draw/lv_draw_triangle.c **** 
 2054              		.loc 1 305 0
 2055 055e 9945     		cmp	r9, r3
 2056 0560 E5D0     		beq	.L114
 2057 0562 9946     		mov	r9, r3
 2058              	.LVL218:
 2059 0564 3BE6     		b	.L96
 2060              	.LVL219:
 2061              	.L120:
 301:..\..\..\lvgl\version_6.1.2\lvgl\src\lv_draw/lv_draw_triangle.c ****                 err1 += dx1;
 2062              		.loc 1 301 0
 2063 0566 A045     		cmp	r8, r4
 2064 0568 E1DD     		ble	.L114
 2065 056a 099B     		ldr	r3, [sp, #36]
 2066 056c F2E7     		b	.L136
 2067              	.LVL220:
 2068              	.L147:
 291:..\..\..\lvgl\version_6.1.2\lvgl\src\lv_draw/lv_draw_triangle.c ****                 err1 = (dx1 > dy1 ? dx1 : -dy1) / 2;
 2069              		.loc 1 291 0
 2070 056e 029B     		ldr	r3, [sp, #8]
 2071 0570 0693     		str	r3, [sp, #24]
 2072              	.LVL221:
 289:..\..\..\lvgl\version_6.1.2\lvgl\src\lv_draw/lv_draw_triangle.c ****                 dy1  = LV_MATH_ABS(tri[1].y - tri[2].y);
 2073              		.loc 1 289 0
 2074 0572 019B     		ldr	r3, [sp, #4]
 292:..\..\..\lvgl\version_6.1.2\lvgl\src\lv_draw/lv_draw_triangle.c ****             } else if(edge1.y == tri[2].y && edge1.x == tri[2].x) {
 2075              		.loc 1 292 0
 2076 0574 189C     		ldr	r4, [sp, #96]
 2077              	.LVL222:
 2078 0576 DDF83080 		ldr	r8, [sp, #48]
 2079              	.LVL223:
 289:..\..\..\lvgl\version_6.1.2\lvgl\src\lv_draw/lv_draw_triangle.c ****                 dy1  = LV_MATH_ABS(tri[1].y - tri[2].y);
 2080              		.loc 1 289 0
 2081 057a 0A93     		str	r3, [sp, #40]
 2082              	.LVL224:
ARM GAS  C:\Users\pearlstl\AppData\Local\Temp\ccVE6Vs6.s 			page 51


 2083 057c DDF82CA0 		ldr	r10, [sp, #44]
 2084              	.LVL225:
 2085 0580 DBE7     		b	.L119
 2086              	.LVL226:
 2087              	.L116:
 301:..\..\..\lvgl\version_6.1.2\lvgl\src\lv_draw/lv_draw_triangle.c ****                 err1 += dx1;
 2088              		.loc 1 301 0
 2089 0582 A045     		cmp	r8, r4
 2090 0584 BEDD     		ble	.L115
 2091 0586 039A     		ldr	r2, [sp, #12]
 2092 0588 C8E7     		b	.L135
 2093              	.L106:
 2094 058a A045     		cmp	r8, r4
 2095 058c 7FF74CAF 		ble	.L104
 2096 0590 039A     		ldr	r2, [sp, #12]
 2097 0592 56E7     		b	.L133
 2098              	.LVL227:
 2099              	.L138:
 2100 0594 1346     		mov	r3, r2
 2101 0596 0796     		str	r6, [sp, #28]
 2102 0598 0246     		mov	r2, r0
 2103 059a 1846     		mov	r0, r3
 2104              	.LVL228:
 2105 059c 55E5     		b	.L83
 2106              		.cfi_endproc
 2107              	.LFE34:
 2108              		.size	tri_draw_tall, .-tri_draw_tall
 2109 059e 00BF     		.section	.text.lv_draw_triangle,"ax",%progbits
 2110              		.align	2
 2111              		.global	lv_draw_triangle
 2112              		.thumb
 2113              		.thumb_func
 2114              		.type	lv_draw_triangle, %function
 2115              	lv_draw_triangle:
 2116              	.LFB31:
  47:..\..\..\lvgl\version_6.1.2\lvgl\src\lv_draw/lv_draw_triangle.c ****     /*Return if the triangle is degenerated*/
 2117              		.loc 1 47 0
 2118              		.cfi_startproc
 2119              		@ args = 0, pretend = 0, frame = 0
 2120              		@ frame_needed = 0, uses_anonymous_args = 0
 2121              	.LVL229:
 2122 0000 2DE9F043 		push	{r4, r5, r6, r7, r8, r9, lr}
 2123              		.cfi_def_cfa_offset 28
 2124              		.cfi_offset 4, -28
 2125              		.cfi_offset 5, -24
 2126              		.cfi_offset 6, -20
 2127              		.cfi_offset 7, -16
 2128              		.cfi_offset 8, -12
 2129              		.cfi_offset 9, -8
 2130              		.cfi_offset 14, -4
  49:..\..\..\lvgl\version_6.1.2\lvgl\src\lv_draw/lv_draw_triangle.c ****     if(points[1].x == points[2].x && points[1].y == points[2].y) return;
 2131              		.loc 1 49 0
 2132 0004 B0F90040 		ldrsh	r4, [r0]
 2133 0008 B0F90450 		ldrsh	r5, [r0, #4]
 2134 000c AC42     		cmp	r4, r5
 2135 000e 3ED0     		beq	.L185
 2136              	.L171:
ARM GAS  C:\Users\pearlstl\AppData\Local\Temp\ccVE6Vs6.s 			page 52


  50:..\..\..\lvgl\version_6.1.2\lvgl\src\lv_draw/lv_draw_triangle.c ****     if(points[0].x == points[2].x && points[0].y == points[2].y) return;
 2137              		.loc 1 50 0
 2138 0010 B0F908C0 		ldrsh	ip, [r0, #8]
 2139 0014 B0F90A90 		ldrsh	r9, [r0, #10]
 2140 0018 6545     		cmp	r5, ip
 2141 001a 40D0     		beq	.L186
  51:..\..\..\lvgl\version_6.1.2\lvgl\src\lv_draw/lv_draw_triangle.c **** 
 2142              		.loc 1 51 0
 2143 001c 6445     		cmp	r4, ip
 2144 001e 44D0     		beq	.L175
 2145              	.L189:
 2146 0020 B0F90280 		ldrsh	r8, [r0, #2]
  54:..\..\..\lvgl\version_6.1.2\lvgl\src\lv_draw/lv_draw_triangle.c **** 
 2147              		.loc 1 54 0
 2148 0024 B0F90660 		ldrsh	r6, [r0, #6]
 2149 0028 4645     		cmp	r6, r8
 2150 002a 48D0     		beq	.L187
 2151              	.L177:
  56:..\..\..\lvgl\version_6.1.2\lvgl\src\lv_draw/lv_draw_triangle.c **** 
 2152              		.loc 1 56 0
 2153 002c FF2B     		cmp	r3, #255
 2154 002e 17BF     		itett	ne
 2155 0030 977B     		ldrbne	r7, [r2, #14]	@ zero_extendqisi2
 2156 0032 937B     		ldrbeq	r3, [r2, #14]	@ zero_extendqisi2
 2157              	.LVL230:
 2158 0034 7B43     		mulne	r3, r7, r3
 2159 0036 C3F30723 		ubfxne	r3, r3, #8, #8
 2160              	.LVL231:
  71:..\..\..\lvgl\version_6.1.2\lvgl\src\lv_draw/lv_draw_triangle.c ****         tri_draw_tall(points, mask, style, opa);
 2161              		.loc 1 71 0
 2162 003a AC42     		cmp	r4, r5
 2163 003c A646     		mov	lr, r4
 2164 003e A8BF     		it	ge
 2165 0040 AE46     		movge	lr, r5
 2166 0042 4E45     		cmp	r6, r9
 2167 0044 3746     		mov	r7, r6
 2168 0046 A8BF     		it	ge
 2169 0048 4F46     		movge	r7, r9
 2170 004a E645     		cmp	lr, ip
 2171 004c A8BF     		it	ge
 2172 004e E646     		movge	lr, ip
 2173 0050 AC42     		cmp	r4, r5
 2174 0052 B8BF     		it	lt
 2175 0054 2C46     		movlt	r4, r5
 2176              	.LVL232:
 2177 0056 4745     		cmp	r7, r8
 2178 0058 A8BF     		it	ge
 2179 005a 4746     		movge	r7, r8
 2180 005c 4E45     		cmp	r6, r9
 2181 005e B8BF     		it	lt
 2182 0060 4E46     		movlt	r6, r9
 2183              	.LVL233:
 2184 0062 4645     		cmp	r6, r8
 2185 0064 ACBF     		ite	ge
 2186 0066 C7EB0606 		rsbge	r6, r7, r6
 2187 006a C7EB0806 		rsblt	r6, r7, r8
 2188 006e 6445     		cmp	r4, ip
ARM GAS  C:\Users\pearlstl\AppData\Local\Temp\ccVE6Vs6.s 			page 53


 2189 0070 ACBF     		ite	ge
 2190 0072 CEEB0404 		rsbge	r4, lr, r4
 2191 0076 CEEB0C04 		rsblt	r4, lr, ip
 2192 007a B442     		cmp	r4, r6
 2193 007c 03DB     		blt	.L188
  78:..\..\..\lvgl\version_6.1.2\lvgl\src\lv_draw/lv_draw_triangle.c **** 
 2194              		.loc 1 78 0
 2195 007e BDE8F043 		pop	{r4, r5, r6, r7, r8, r9, lr}
 2196              		.cfi_remember_state
 2197              		.cfi_restore 14
 2198              		.cfi_restore 9
 2199              		.cfi_restore 8
 2200              		.cfi_restore 7
 2201              		.cfi_restore 6
 2202              		.cfi_restore 5
 2203              		.cfi_restore 4
 2204              		.cfi_def_cfa_offset 0
  76:..\..\..\lvgl\version_6.1.2\lvgl\src\lv_draw/lv_draw_triangle.c ****     }
 2205              		.loc 1 76 0
 2206 0082 FFF7FEBF 		b	tri_draw_flat
 2207              	.LVL234:
 2208              	.L188:
 2209              		.cfi_restore_state
  78:..\..\..\lvgl\version_6.1.2\lvgl\src\lv_draw/lv_draw_triangle.c **** 
 2210              		.loc 1 78 0
 2211 0086 BDE8F043 		pop	{r4, r5, r6, r7, r8, r9, lr}
 2212              		.cfi_remember_state
 2213              		.cfi_restore 14
 2214              		.cfi_restore 9
 2215              		.cfi_restore 8
 2216              		.cfi_restore 7
 2217              		.cfi_restore 6
 2218              		.cfi_restore 5
 2219              		.cfi_restore 4
 2220              		.cfi_def_cfa_offset 0
  72:..\..\..\lvgl\version_6.1.2\lvgl\src\lv_draw/lv_draw_triangle.c ****     }
 2221              		.loc 1 72 0
 2222 008a FFF7FEBF 		b	tri_draw_tall
 2223              	.LVL235:
 2224              	.L185:
 2225              		.cfi_restore_state
  49:..\..\..\lvgl\version_6.1.2\lvgl\src\lv_draw/lv_draw_triangle.c ****     if(points[1].x == points[2].x && points[1].y == points[2].y) return;
 2226              		.loc 1 49 0 discriminator 1
 2227 008e B0F90270 		ldrsh	r7, [r0, #2]
 2228 0092 B0F90660 		ldrsh	r6, [r0, #6]
 2229 0096 B742     		cmp	r7, r6
 2230 0098 BAD1     		bne	.L171
 2231              	.L170:
 2232 009a BDE8F083 		pop	{r4, r5, r6, r7, r8, r9, pc}
 2233              	.L186:
  50:..\..\..\lvgl\version_6.1.2\lvgl\src\lv_draw/lv_draw_triangle.c ****     if(points[0].x == points[2].x && points[0].y == points[2].y) return;
 2234              		.loc 1 50 0 discriminator 1
 2235 009e B0F90660 		ldrsh	r6, [r0, #6]
 2236 00a2 4E45     		cmp	r6, r9
 2237 00a4 F9D0     		beq	.L170
  51:..\..\..\lvgl\version_6.1.2\lvgl\src\lv_draw/lv_draw_triangle.c **** 
 2238              		.loc 1 51 0
ARM GAS  C:\Users\pearlstl\AppData\Local\Temp\ccVE6Vs6.s 			page 54


 2239 00a6 6445     		cmp	r4, ip
 2240 00a8 BAD1     		bne	.L189
 2241              	.L175:
  51:..\..\..\lvgl\version_6.1.2\lvgl\src\lv_draw/lv_draw_triangle.c **** 
 2242              		.loc 1 51 0 is_stmt 0 discriminator 1
 2243 00aa B0F90260 		ldrsh	r6, [r0, #2]
 2244 00ae 4E45     		cmp	r6, r9
 2245 00b0 F3D0     		beq	.L170
  53:..\..\..\lvgl\version_6.1.2\lvgl\src\lv_draw/lv_draw_triangle.c ****     if(points[0].y == points[1].y && points[1].y == points[2].y) return;
 2246              		.loc 1 53 0 is_stmt 1
 2247 00b2 AC42     		cmp	r4, r5
 2248 00b4 06D0     		beq	.L190
  54:..\..\..\lvgl\version_6.1.2\lvgl\src\lv_draw/lv_draw_triangle.c **** 
 2249              		.loc 1 54 0
 2250 00b6 B046     		mov	r8, r6
 2251 00b8 B0F90660 		ldrsh	r6, [r0, #6]
 2252 00bc B6E7     		b	.L177
 2253              	.L187:
  54:..\..\..\lvgl\version_6.1.2\lvgl\src\lv_draw/lv_draw_triangle.c **** 
 2254              		.loc 1 54 0 is_stmt 0 discriminator 1
 2255 00be 4E45     		cmp	r6, r9
 2256 00c0 B4D1     		bne	.L177
 2257 00c2 EAE7     		b	.L170
 2258              	.L190:
 2259 00c4 BDE8F083 		pop	{r4, r5, r6, r7, r8, r9, pc}
 2260              		.cfi_endproc
 2261              	.LFE31:
 2262              		.size	lv_draw_triangle, .-lv_draw_triangle
 2263              		.section	.text.lv_draw_polygon,"ax",%progbits
 2264              		.align	2
 2265              		.global	lv_draw_polygon
 2266              		.thumb
 2267              		.thumb_func
 2268              		.type	lv_draw_polygon, %function
 2269              	lv_draw_polygon:
 2270              	.LFB32:
  90:..\..\..\lvgl\version_6.1.2\lvgl\src\lv_draw/lv_draw_triangle.c ****     if(point_cnt < 3) return;
 2271              		.loc 1 90 0 is_stmt 1
 2272              		.cfi_startproc
 2273              		@ args = 4, pretend = 0, frame = 24
 2274              		@ frame_needed = 0, uses_anonymous_args = 0
 2275              	.LVL236:
 2276 0000 2DE9F04F 		push	{r4, r5, r6, r7, r8, r9, r10, fp, lr}
 2277              		.cfi_def_cfa_offset 36
 2278              		.cfi_offset 4, -36
 2279              		.cfi_offset 5, -32
 2280              		.cfi_offset 6, -28
 2281              		.cfi_offset 7, -24
 2282              		.cfi_offset 8, -20
 2283              		.cfi_offset 9, -16
 2284              		.cfi_offset 10, -12
 2285              		.cfi_offset 11, -8
 2286              		.cfi_offset 14, -4
 2287 0004 87B0     		sub	sp, sp, #28
 2288              		.cfi_def_cfa_offset 64
  91:..\..\..\lvgl\version_6.1.2\lvgl\src\lv_draw/lv_draw_triangle.c ****     if(points == NULL) return;
 2289              		.loc 1 91 0
ARM GAS  C:\Users\pearlstl\AppData\Local\Temp\ccVE6Vs6.s 			page 55


 2290 0006 0229     		cmp	r1, #2
  90:..\..\..\lvgl\version_6.1.2\lvgl\src\lv_draw/lv_draw_triangle.c ****     if(point_cnt < 3) return;
 2291              		.loc 1 90 0
 2292 0008 9DF84080 		ldrb	r8, [sp, #64]	@ zero_extendqisi2
  91:..\..\..\lvgl\version_6.1.2\lvgl\src\lv_draw/lv_draw_triangle.c ****     if(points == NULL) return;
 2293              		.loc 1 91 0
 2294 000c 67D9     		bls	.L191
  92:..\..\..\lvgl\version_6.1.2\lvgl\src\lv_draw/lv_draw_triangle.c **** 
 2295              		.loc 1 92 0
 2296 000e 0028     		cmp	r0, #0
 2297 0010 65D0     		beq	.L191
  97:..\..\..\lvgl\version_6.1.2\lvgl\src\lv_draw/lv_draw_triangle.c ****     for(i = 0; i < point_cnt - 1; i++) {
 2298              		.loc 1 97 0
 2299 0012 0446     		mov	r4, r0
 2300 0014 1E46     		mov	r6, r3
 2301 0016 0192     		str	r2, [sp, #4]
 2302 0018 34F8023F 		ldrh	r3, [r4, #2]!
 2303              	.LVL237:
  96:..\..\..\lvgl\version_6.1.2\lvgl\src\lv_draw/lv_draw_triangle.c ****     tri[0].y = points[0].y;
 2304              		.loc 1 96 0
 2305 001c 0288     		ldrh	r2, [r0]
 2306              	.LVL238:
 2307 001e ADF80C20 		strh	r2, [sp, #12]	@ movhi
 2308 0022 4F1E     		subs	r7, r1, #1
  97:..\..\..\lvgl\version_6.1.2\lvgl\src\lv_draw/lv_draw_triangle.c ****     for(i = 0; i < point_cnt - 1; i++) {
 2309              		.loc 1 97 0
 2310 0024 ADF80E30 		strh	r3, [sp, #14]	@ movhi
 2311              	.LVL239:
  98:..\..\..\lvgl\version_6.1.2\lvgl\src\lv_draw/lv_draw_triangle.c ****         tri[1].x = points[i].x;
 2312              		.loc 1 98 0
 2313 0028 0025     		movs	r5, #0
 2314 002a 05E0     		b	.L202
 2315              	.LVL240:
 2316              	.L201:
 2317              	.LBB30:
 2318              	.LBB31:
  76:..\..\..\lvgl\version_6.1.2\lvgl\src\lv_draw/lv_draw_triangle.c ****     }
 2319              		.loc 1 76 0
 2320 002c FFF7FEFF 		bl	tri_draw_flat
 2321              	.LVL241:
 2322              	.L194:
 2323              	.LBE31:
 2324              	.LBE30:
  98:..\..\..\lvgl\version_6.1.2\lvgl\src\lv_draw/lv_draw_triangle.c ****         tri[1].x = points[i].x;
 2325              		.loc 1 98 0 discriminator 1
 2326 0030 BD42     		cmp	r5, r7
 2327 0032 04F10404 		add	r4, r4, #4
 2328              	.LVL242:
 2329 0036 52D0     		beq	.L191
 2330              	.LVL243:
 2331              	.L202:
  99:..\..\..\lvgl\version_6.1.2\lvgl\src\lv_draw/lv_draw_triangle.c ****         tri[1].y = points[i].y;
 2332              		.loc 1 99 0 discriminator 3
 2333 0038 34F9021C 		ldrsh	r1, [r4, #-2]
 2334              	.LBB36:
 2335              	.LBB32:
  49:..\..\..\lvgl\version_6.1.2\lvgl\src\lv_draw/lv_draw_triangle.c ****     if(points[1].x == points[2].x && points[1].y == points[2].y) return;
ARM GAS  C:\Users\pearlstl\AppData\Local\Temp\ccVE6Vs6.s 			page 56


 2336              		.loc 1 49 0 discriminator 3
 2337 003c BDF90CE0 		ldrsh	lr, [sp, #12]
 2338              	.LBE32:
 2339              	.LBE36:
 100:..\..\..\lvgl\version_6.1.2\lvgl\src\lv_draw/lv_draw_triangle.c ****         tri[2].x = points[i + 1].x;
 2340              		.loc 1 100 0 discriminator 3
 2341 0040 B4F900C0 		ldrsh	ip, [r4]
 101:..\..\..\lvgl\version_6.1.2\lvgl\src\lv_draw/lv_draw_triangle.c ****         tri[2].y = points[i + 1].y;
 2342              		.loc 1 101 0 discriminator 3
 2343 0044 B4F90220 		ldrsh	r2, [r4, #2]
 102:..\..\..\lvgl\version_6.1.2\lvgl\src\lv_draw/lv_draw_triangle.c ****         lv_draw_triangle(tri, mask, style, opa_scale);
 2344              		.loc 1 102 0 discriminator 3
 2345 0048 B4F90400 		ldrsh	r0, [r4, #4]
  99:..\..\..\lvgl\version_6.1.2\lvgl\src\lv_draw/lv_draw_triangle.c ****         tri[1].y = points[i].y;
 2346              		.loc 1 99 0 discriminator 3
 2347 004c ADF81010 		strh	r1, [sp, #16]	@ movhi
 2348              	.LBB37:
 2349              	.LBB33:
  49:..\..\..\lvgl\version_6.1.2\lvgl\src\lv_draw/lv_draw_triangle.c ****     if(points[1].x == points[2].x && points[1].y == points[2].y) return;
 2350              		.loc 1 49 0 discriminator 3
 2351 0050 7145     		cmp	r1, lr
 2352              	.LBE33:
 2353              	.LBE37:
 101:..\..\..\lvgl\version_6.1.2\lvgl\src\lv_draw/lv_draw_triangle.c ****         tri[2].y = points[i + 1].y;
 2354              		.loc 1 101 0 discriminator 3
 2355 0052 05F10105 		add	r5, r5, #1
 2356              	.LVL244:
 100:..\..\..\lvgl\version_6.1.2\lvgl\src\lv_draw/lv_draw_triangle.c ****         tri[2].x = points[i + 1].x;
 2357              		.loc 1 100 0 discriminator 3
 2358 0056 ADF812C0 		strh	ip, [sp, #18]	@ movhi
 101:..\..\..\lvgl\version_6.1.2\lvgl\src\lv_draw/lv_draw_triangle.c ****         tri[2].y = points[i + 1].y;
 2359              		.loc 1 101 0 discriminator 3
 2360 005a ADF81420 		strh	r2, [sp, #20]	@ movhi
 102:..\..\..\lvgl\version_6.1.2\lvgl\src\lv_draw/lv_draw_triangle.c ****         lv_draw_triangle(tri, mask, style, opa_scale);
 2361              		.loc 1 102 0 discriminator 3
 2362 005e ADF81600 		strh	r0, [sp, #22]	@ movhi
 2363              	.LVL245:
 2364              	.LBB38:
 2365              	.LBB34:
  49:..\..\..\lvgl\version_6.1.2\lvgl\src\lv_draw/lv_draw_triangle.c ****     if(points[1].x == points[2].x && points[1].y == points[2].y) return;
 2366              		.loc 1 49 0 discriminator 3
 2367 0062 3FD0     		beq	.L209
  50:..\..\..\lvgl\version_6.1.2\lvgl\src\lv_draw/lv_draw_triangle.c ****     if(points[0].x == points[2].x && points[0].y == points[2].y) return;
 2368              		.loc 1 50 0
 2369 0064 9142     		cmp	r1, r2
 2370 0066 43D0     		beq	.L210
 2371              	.L195:
  51:..\..\..\lvgl\version_6.1.2\lvgl\src\lv_draw/lv_draw_triangle.c **** 
 2372              		.loc 1 51 0
 2373 0068 7245     		cmp	r2, lr
 2374 006a 45D0     		beq	.L211
 2375              	.L196:
  53:..\..\..\lvgl\version_6.1.2\lvgl\src\lv_draw/lv_draw_triangle.c ****     if(points[0].y == points[1].y && points[1].y == points[2].y) return;
 2376              		.loc 1 53 0
 2377 006c 7145     		cmp	r1, lr
 2378 006e 49D0     		beq	.L212
 2379              	.L197:
ARM GAS  C:\Users\pearlstl\AppData\Local\Temp\ccVE6Vs6.s 			page 57


  54:..\..\..\lvgl\version_6.1.2\lvgl\src\lv_draw/lv_draw_triangle.c **** 
 2380              		.loc 1 54 0
 2381 0070 BDF90EB0 		ldrsh	fp, [sp, #14]
 2382 0074 DC45     		cmp	ip, fp
 2383 0076 4BD0     		beq	.L213
 2384              	.L198:
  56:..\..\..\lvgl\version_6.1.2\lvgl\src\lv_draw/lv_draw_triangle.c **** 
 2385              		.loc 1 56 0
 2386 0078 B37B     		ldrb	r3, [r6, #14]	@ zero_extendqisi2
 2387 007a B8F1FF0F 		cmp	r8, #255
 2388 007e 1CBF     		itt	ne
 2389 0080 03FB08F3 		mulne	r3, r3, r8
 2390 0084 C3F30723 		ubfxne	r3, r3, #8, #8
 2391              	.LVL246:
  71:..\..\..\lvgl\version_6.1.2\lvgl\src\lv_draw/lv_draw_triangle.c ****         tri_draw_tall(points, mask, style, opa);
 2392              		.loc 1 71 0
 2393 0088 9142     		cmp	r1, r2
 2394 008a 8A46     		mov	r10, r1
 2395 008c A8BF     		it	ge
 2396 008e 9246     		movge	r10, r2
 2397 0090 8445     		cmp	ip, r0
 2398 0092 E146     		mov	r9, ip
 2399 0094 A8BF     		it	ge
 2400 0096 8146     		movge	r9, r0
 2401 0098 F245     		cmp	r10, lr
 2402 009a A8BF     		it	ge
 2403 009c F246     		movge	r10, lr
 2404 009e 8A42     		cmp	r2, r1
 2405 00a0 B8BF     		it	lt
 2406 00a2 0A46     		movlt	r2, r1
 2407              	.LVL247:
 2408 00a4 D945     		cmp	r9, fp
 2409 00a6 A8BF     		it	ge
 2410 00a8 D946     		movge	r9, fp
 2411 00aa 6045     		cmp	r0, ip
 2412 00ac B8BF     		it	lt
 2413 00ae 6046     		movlt	r0, ip
 2414              	.LVL248:
 2415 00b0 5845     		cmp	r0, fp
 2416 00b2 ACBF     		ite	ge
 2417 00b4 C9EB0009 		rsbge	r9, r9, r0
 2418 00b8 C9EB0B09 		rsblt	r9, r9, fp
 2419 00bc 7245     		cmp	r2, lr
 2420 00be ACBF     		ite	ge
 2421 00c0 CAEB0202 		rsbge	r2, r10, r2
 2422 00c4 CAEB0E02 		rsblt	r2, r10, lr
 2423 00c8 4A45     		cmp	r2, r9
  72:..\..\..\lvgl\version_6.1.2\lvgl\src\lv_draw/lv_draw_triangle.c ****     }
 2424              		.loc 1 72 0
 2425 00ca 0199     		ldr	r1, [sp, #4]
 2426              	.LVL249:
 2427 00cc 3246     		mov	r2, r6
 2428 00ce 03A8     		add	r0, sp, #12
 2429              	.LVL250:
  71:..\..\..\lvgl\version_6.1.2\lvgl\src\lv_draw/lv_draw_triangle.c ****         tri_draw_tall(points, mask, style, opa);
 2430              		.loc 1 71 0
 2431 00d0 ACDA     		bge	.L201
ARM GAS  C:\Users\pearlstl\AppData\Local\Temp\ccVE6Vs6.s 			page 58


 2432              	.LVL251:
  72:..\..\..\lvgl\version_6.1.2\lvgl\src\lv_draw/lv_draw_triangle.c ****     }
 2433              		.loc 1 72 0
 2434 00d2 FFF7FEFF 		bl	tri_draw_tall
 2435              	.LVL252:
 2436              	.LBE34:
 2437              	.LBE38:
  98:..\..\..\lvgl\version_6.1.2\lvgl\src\lv_draw/lv_draw_triangle.c ****         tri[1].x = points[i].x;
 2438              		.loc 1 98 0
 2439 00d6 BD42     		cmp	r5, r7
 2440 00d8 04F10404 		add	r4, r4, #4
 2441              	.LVL253:
 2442 00dc ACD1     		bne	.L202
 2443              	.LVL254:
 2444              	.L191:
 105:..\..\..\lvgl\version_6.1.2\lvgl\src\lv_draw/lv_draw_triangle.c **** 
 2445              		.loc 1 105 0
 2446 00de 07B0     		add	sp, sp, #28
 2447              		.cfi_remember_state
 2448              		.cfi_def_cfa_offset 36
 2449              		@ sp needed
 2450 00e0 BDE8F08F 		pop	{r4, r5, r6, r7, r8, r9, r10, fp, pc}
 2451              	.LVL255:
 2452              	.L209:
 2453              		.cfi_restore_state
 2454              	.LBB39:
 2455              	.LBB35:
  49:..\..\..\lvgl\version_6.1.2\lvgl\src\lv_draw/lv_draw_triangle.c ****     if(points[1].x == points[2].x && points[1].y == points[2].y) return;
 2456              		.loc 1 49 0
 2457 00e4 BDF90E30 		ldrsh	r3, [sp, #14]
 2458 00e8 6345     		cmp	r3, ip
 2459 00ea A1D0     		beq	.L194
  50:..\..\..\lvgl\version_6.1.2\lvgl\src\lv_draw/lv_draw_triangle.c ****     if(points[0].x == points[2].x && points[0].y == points[2].y) return;
 2460              		.loc 1 50 0
 2461 00ec 9142     		cmp	r1, r2
 2462 00ee BBD1     		bne	.L195
 2463              	.L210:
 2464 00f0 8445     		cmp	ip, r0
 2465 00f2 9DD0     		beq	.L194
  51:..\..\..\lvgl\version_6.1.2\lvgl\src\lv_draw/lv_draw_triangle.c **** 
 2466              		.loc 1 51 0
 2467 00f4 7245     		cmp	r2, lr
 2468 00f6 B9D1     		bne	.L196
 2469              	.L211:
 2470 00f8 BDF90E30 		ldrsh	r3, [sp, #14]
 2471 00fc 8342     		cmp	r3, r0
 2472 00fe 97D0     		beq	.L194
  53:..\..\..\lvgl\version_6.1.2\lvgl\src\lv_draw/lv_draw_triangle.c ****     if(points[0].y == points[1].y && points[1].y == points[2].y) return;
 2473              		.loc 1 53 0
 2474 0100 7145     		cmp	r1, lr
 2475 0102 B5D1     		bne	.L197
 2476              	.L212:
 2477 0104 9142     		cmp	r1, r2
 2478 0106 93D0     		beq	.L194
  54:..\..\..\lvgl\version_6.1.2\lvgl\src\lv_draw/lv_draw_triangle.c **** 
 2479              		.loc 1 54 0
 2480 0108 BDF90EB0 		ldrsh	fp, [sp, #14]
ARM GAS  C:\Users\pearlstl\AppData\Local\Temp\ccVE6Vs6.s 			page 59


 2481 010c DC45     		cmp	ip, fp
 2482 010e B3D1     		bne	.L198
 2483              	.L213:
 2484 0110 8445     		cmp	ip, r0
 2485 0112 B1D1     		bne	.L198
 2486 0114 8CE7     		b	.L194
 2487              	.LBE35:
 2488              	.LBE39:
 2489              		.cfi_endproc
 2490              	.LFE32:
 2491              		.size	lv_draw_polygon, .-lv_draw_polygon
 2492 0116 00BF     		.text
 2493              	.Letext0:
 2494              		.file 2 "c:\\program files (x86)\\cypress\\psoc creator\\4.2\\psoc creator\\import\\gnu\\arm\\5.4.
 2495              		.file 3 "c:\\program files (x86)\\cypress\\psoc creator\\4.2\\psoc creator\\import\\gnu\\arm\\5.4.
 2496              		.file 4 "..\\..\\..\\lvgl\\version_6.1.2\\lvgl\\src\\lv_draw\\../../../lv_conf.h"
 2497              		.file 5 "..\\..\\..\\lvgl\\version_6.1.2\\lvgl\\src\\lv_draw\\../lv_core/../lv_font/lv_font.h"
 2498              		.file 6 "..\\..\\..\\lvgl\\version_6.1.2\\lvgl\\src\\lv_draw\\../lv_core/../lv_misc/lv_color.h"
 2499              		.file 7 "..\\..\\..\\lvgl\\version_6.1.2\\lvgl\\src\\lv_draw\\../lv_core/../lv_misc/lv_area.h"
 2500              		.file 8 "..\\..\\..\\lvgl\\version_6.1.2\\lvgl\\src\\lv_draw\\../lv_core/lv_style.h"
 2501              		.file 9 "..\\..\\..\\lvgl\\version_6.1.2\\lvgl\\src\\lv_draw\\lv_draw_basic.h"