ARM GAS  C:\Users\pearlstl\AppData\Local\Temp\ccVhlQKS.s 			page 1


   1              		.syntax unified
   2              		.cpu cortex-m4
   3              		.eabi_attribute 27, 1
   4              		.fpu fpv4-sp-d16
   5              		.eabi_attribute 20, 1
   6              		.eabi_attribute 21, 1
   7              		.eabi_attribute 23, 3
   8              		.eabi_attribute 24, 1
   9              		.eabi_attribute 25, 1
  10              		.eabi_attribute 26, 1
  11              		.eabi_attribute 30, 2
  12              		.eabi_attribute 34, 1
  13              		.eabi_attribute 18, 4
  14              		.thumb
  15              		.syntax unified
  16              		.file	"lv_disp.c"
  17              		.text
  18              	.Ltext0:
  19              		.cfi_sections	.debug_frame
  20              		.section	.text.lv_disp_get_scr_act,"ax",%progbits
  21              		.align	2
  22              		.global	lv_disp_get_scr_act
  23              		.thumb
  24              		.thumb_func
  25              		.type	lv_disp_get_scr_act, %function
  26              	lv_disp_get_scr_act:
  27              	.LFB35:
  28              		.file 1 "..\\..\\..\\lvgl\\version_6.1.2\\lvgl\\src\\lv_core\\lv_disp.c"
   1:..\..\..\lvgl\version_6.1.2\lvgl\src\lv_core/lv_disp.c **** /**
   2:..\..\..\lvgl\version_6.1.2\lvgl\src\lv_core/lv_disp.c ****  * @file lv_disp.c
   3:..\..\..\lvgl\version_6.1.2\lvgl\src\lv_core/lv_disp.c ****  *
   4:..\..\..\lvgl\version_6.1.2\lvgl\src\lv_core/lv_disp.c ****  */
   5:..\..\..\lvgl\version_6.1.2\lvgl\src\lv_core/lv_disp.c **** 
   6:..\..\..\lvgl\version_6.1.2\lvgl\src\lv_core/lv_disp.c **** /*********************
   7:..\..\..\lvgl\version_6.1.2\lvgl\src\lv_core/lv_disp.c ****  *      INCLUDES
   8:..\..\..\lvgl\version_6.1.2\lvgl\src\lv_core/lv_disp.c ****  *********************/
   9:..\..\..\lvgl\version_6.1.2\lvgl\src\lv_core/lv_disp.c **** #include "lv_disp.h"
  10:..\..\..\lvgl\version_6.1.2\lvgl\src\lv_core/lv_disp.c **** #include "../lv_misc/lv_math.h"
  11:..\..\..\lvgl\version_6.1.2\lvgl\src\lv_core/lv_disp.c **** 
  12:..\..\..\lvgl\version_6.1.2\lvgl\src\lv_core/lv_disp.c **** /*********************
  13:..\..\..\lvgl\version_6.1.2\lvgl\src\lv_core/lv_disp.c ****  *      DEFINES
  14:..\..\..\lvgl\version_6.1.2\lvgl\src\lv_core/lv_disp.c ****  *********************/
  15:..\..\..\lvgl\version_6.1.2\lvgl\src\lv_core/lv_disp.c **** 
  16:..\..\..\lvgl\version_6.1.2\lvgl\src\lv_core/lv_disp.c **** /**********************
  17:..\..\..\lvgl\version_6.1.2\lvgl\src\lv_core/lv_disp.c ****  *      TYPEDEFS
  18:..\..\..\lvgl\version_6.1.2\lvgl\src\lv_core/lv_disp.c ****  **********************/
  19:..\..\..\lvgl\version_6.1.2\lvgl\src\lv_core/lv_disp.c **** 
  20:..\..\..\lvgl\version_6.1.2\lvgl\src\lv_core/lv_disp.c **** /**********************
  21:..\..\..\lvgl\version_6.1.2\lvgl\src\lv_core/lv_disp.c ****  *  STATIC PROTOTYPES
  22:..\..\..\lvgl\version_6.1.2\lvgl\src\lv_core/lv_disp.c ****  **********************/
  23:..\..\..\lvgl\version_6.1.2\lvgl\src\lv_core/lv_disp.c **** 
  24:..\..\..\lvgl\version_6.1.2\lvgl\src\lv_core/lv_disp.c **** /**********************
  25:..\..\..\lvgl\version_6.1.2\lvgl\src\lv_core/lv_disp.c ****  *  STATIC VARIABLES
  26:..\..\..\lvgl\version_6.1.2\lvgl\src\lv_core/lv_disp.c ****  **********************/
  27:..\..\..\lvgl\version_6.1.2\lvgl\src\lv_core/lv_disp.c **** 
  28:..\..\..\lvgl\version_6.1.2\lvgl\src\lv_core/lv_disp.c **** /**********************
  29:..\..\..\lvgl\version_6.1.2\lvgl\src\lv_core/lv_disp.c ****  *      MACROS
ARM GAS  C:\Users\pearlstl\AppData\Local\Temp\ccVhlQKS.s 			page 2


  30:..\..\..\lvgl\version_6.1.2\lvgl\src\lv_core/lv_disp.c ****  **********************/
  31:..\..\..\lvgl\version_6.1.2\lvgl\src\lv_core/lv_disp.c **** 
  32:..\..\..\lvgl\version_6.1.2\lvgl\src\lv_core/lv_disp.c **** /**********************
  33:..\..\..\lvgl\version_6.1.2\lvgl\src\lv_core/lv_disp.c ****  *   GLOBAL FUNCTIONS
  34:..\..\..\lvgl\version_6.1.2\lvgl\src\lv_core/lv_disp.c ****  **********************/
  35:..\..\..\lvgl\version_6.1.2\lvgl\src\lv_core/lv_disp.c **** 
  36:..\..\..\lvgl\version_6.1.2\lvgl\src\lv_core/lv_disp.c **** /**
  37:..\..\..\lvgl\version_6.1.2\lvgl\src\lv_core/lv_disp.c ****  * Return with a pointer to the active screen
  38:..\..\..\lvgl\version_6.1.2\lvgl\src\lv_core/lv_disp.c ****  * @param disp pointer to display which active screen should be get. (NULL to use the default
  39:..\..\..\lvgl\version_6.1.2\lvgl\src\lv_core/lv_disp.c ****  * screen)
  40:..\..\..\lvgl\version_6.1.2\lvgl\src\lv_core/lv_disp.c ****  * @return pointer to the active screen object (loaded by 'lv_scr_load()')
  41:..\..\..\lvgl\version_6.1.2\lvgl\src\lv_core/lv_disp.c ****  */
  42:..\..\..\lvgl\version_6.1.2\lvgl\src\lv_core/lv_disp.c **** lv_obj_t * lv_disp_get_scr_act(lv_disp_t * disp)
  43:..\..\..\lvgl\version_6.1.2\lvgl\src\lv_core/lv_disp.c **** {
  29              		.loc 1 43 0
  30              		.cfi_startproc
  31              		@ args = 0, pretend = 0, frame = 0
  32              		@ frame_needed = 0, uses_anonymous_args = 0
  33              	.LVL0:
  44:..\..\..\lvgl\version_6.1.2\lvgl\src\lv_core/lv_disp.c ****     if(!disp) disp = lv_disp_get_default();
  34              		.loc 1 44 0
  35 0000 08B1     		cbz	r0, .L8
  45:..\..\..\lvgl\version_6.1.2\lvgl\src\lv_core/lv_disp.c ****     if(!disp) {
  46:..\..\..\lvgl\version_6.1.2\lvgl\src\lv_core/lv_disp.c ****         LV_LOG_WARN("lv_scr_act: no display registered to get its top layer");
  47:..\..\..\lvgl\version_6.1.2\lvgl\src\lv_core/lv_disp.c ****         return NULL;
  48:..\..\..\lvgl\version_6.1.2\lvgl\src\lv_core/lv_disp.c ****     }
  49:..\..\..\lvgl\version_6.1.2\lvgl\src\lv_core/lv_disp.c **** 
  50:..\..\..\lvgl\version_6.1.2\lvgl\src\lv_core/lv_disp.c ****     return disp->act_scr;
  36              		.loc 1 50 0
  37 0002 006B     		ldr	r0, [r0, #48]
  38              	.LVL1:
  51:..\..\..\lvgl\version_6.1.2\lvgl\src\lv_core/lv_disp.c **** }
  39              		.loc 1 51 0
  40 0004 7047     		bx	lr
  41              	.LVL2:
  42              	.L8:
  43:..\..\..\lvgl\version_6.1.2\lvgl\src\lv_core/lv_disp.c ****     if(!disp) disp = lv_disp_get_default();
  43              		.loc 1 43 0 discriminator 1
  44 0006 08B5     		push	{r3, lr}
  45              		.cfi_def_cfa_offset 8
  46              		.cfi_offset 3, -8
  47              		.cfi_offset 14, -4
  44:..\..\..\lvgl\version_6.1.2\lvgl\src\lv_core/lv_disp.c ****     if(!disp) {
  48              		.loc 1 44 0 discriminator 1
  49 0008 FFF7FEFF 		bl	lv_disp_get_default
  50              	.LVL3:
  45:..\..\..\lvgl\version_6.1.2\lvgl\src\lv_core/lv_disp.c ****         LV_LOG_WARN("lv_scr_act: no display registered to get its top layer");
  51              		.loc 1 45 0 discriminator 1
  52 000c 00B1     		cbz	r0, .L3
  50:..\..\..\lvgl\version_6.1.2\lvgl\src\lv_core/lv_disp.c **** }
  53              		.loc 1 50 0
  54 000e 006B     		ldr	r0, [r0, #48]
  55              	.LVL4:
  56              	.L3:
  57              		.loc 1 51 0
  58 0010 08BD     		pop	{r3, pc}
  59              		.cfi_endproc
ARM GAS  C:\Users\pearlstl\AppData\Local\Temp\ccVhlQKS.s 			page 3


  60              	.LFE35:
  61              		.size	lv_disp_get_scr_act, .-lv_disp_get_scr_act
  62 0012 00BF     		.section	.text.lv_disp_load_scr,"ax",%progbits
  63              		.align	2
  64              		.global	lv_disp_load_scr
  65              		.thumb
  66              		.thumb_func
  67              		.type	lv_disp_load_scr, %function
  68              	lv_disp_load_scr:
  69              	.LFB36:
  52:..\..\..\lvgl\version_6.1.2\lvgl\src\lv_core/lv_disp.c **** 
  53:..\..\..\lvgl\version_6.1.2\lvgl\src\lv_core/lv_disp.c **** /**
  54:..\..\..\lvgl\version_6.1.2\lvgl\src\lv_core/lv_disp.c ****  * Make a screen active
  55:..\..\..\lvgl\version_6.1.2\lvgl\src\lv_core/lv_disp.c ****  * @param scr pointer to a screen
  56:..\..\..\lvgl\version_6.1.2\lvgl\src\lv_core/lv_disp.c ****  */
  57:..\..\..\lvgl\version_6.1.2\lvgl\src\lv_core/lv_disp.c **** void lv_disp_load_scr(lv_obj_t * scr)
  58:..\..\..\lvgl\version_6.1.2\lvgl\src\lv_core/lv_disp.c **** {
  70              		.loc 1 58 0
  71              		.cfi_startproc
  72              		@ args = 0, pretend = 0, frame = 0
  73              		@ frame_needed = 0, uses_anonymous_args = 0
  74              	.LVL5:
  75 0000 10B5     		push	{r4, lr}
  76              		.cfi_def_cfa_offset 8
  77              		.cfi_offset 4, -8
  78              		.cfi_offset 14, -4
  79              		.loc 1 58 0
  80 0002 0446     		mov	r4, r0
  59:..\..\..\lvgl\version_6.1.2\lvgl\src\lv_core/lv_disp.c ****     lv_disp_t * d = lv_obj_get_disp(scr);
  81              		.loc 1 59 0
  82 0004 FFF7FEFF 		bl	lv_obj_get_disp
  83              	.LVL6:
  60:..\..\..\lvgl\version_6.1.2\lvgl\src\lv_core/lv_disp.c **** 
  61:..\..\..\lvgl\version_6.1.2\lvgl\src\lv_core/lv_disp.c ****     d->act_scr = scr;
  84              		.loc 1 61 0
  85 0008 0463     		str	r4, [r0, #48]
  62:..\..\..\lvgl\version_6.1.2\lvgl\src\lv_core/lv_disp.c **** 
  63:..\..\..\lvgl\version_6.1.2\lvgl\src\lv_core/lv_disp.c ****     lv_obj_invalidate(scr);
  86              		.loc 1 63 0
  87 000a 2046     		mov	r0, r4
  88              	.LVL7:
  64:..\..\..\lvgl\version_6.1.2\lvgl\src\lv_core/lv_disp.c **** }
  89              		.loc 1 64 0
  90 000c BDE81040 		pop	{r4, lr}
  91              		.cfi_restore 14
  92              		.cfi_restore 4
  93              		.cfi_def_cfa_offset 0
  94              	.LVL8:
  63:..\..\..\lvgl\version_6.1.2\lvgl\src\lv_core/lv_disp.c **** }
  95              		.loc 1 63 0
  96 0010 FFF7FEBF 		b	lv_obj_invalidate
  97              	.LVL9:
  98              		.cfi_endproc
  99              	.LFE36:
 100              		.size	lv_disp_load_scr, .-lv_disp_load_scr
 101              		.section	.text.lv_disp_get_layer_top,"ax",%progbits
 102              		.align	2
ARM GAS  C:\Users\pearlstl\AppData\Local\Temp\ccVhlQKS.s 			page 4


 103              		.global	lv_disp_get_layer_top
 104              		.thumb
 105              		.thumb_func
 106              		.type	lv_disp_get_layer_top, %function
 107              	lv_disp_get_layer_top:
 108              	.LFB37:
  65:..\..\..\lvgl\version_6.1.2\lvgl\src\lv_core/lv_disp.c **** 
  66:..\..\..\lvgl\version_6.1.2\lvgl\src\lv_core/lv_disp.c **** /**
  67:..\..\..\lvgl\version_6.1.2\lvgl\src\lv_core/lv_disp.c ****  * Return with the top layer. (Same on every screen and it is above the normal screen layer)
  68:..\..\..\lvgl\version_6.1.2\lvgl\src\lv_core/lv_disp.c ****  * @param disp pointer to display which top layer should be get. (NULL to use the default screen)
  69:..\..\..\lvgl\version_6.1.2\lvgl\src\lv_core/lv_disp.c ****  * @return pointer to the top layer object  (transparent screen sized lv_obj)
  70:..\..\..\lvgl\version_6.1.2\lvgl\src\lv_core/lv_disp.c ****  */
  71:..\..\..\lvgl\version_6.1.2\lvgl\src\lv_core/lv_disp.c **** lv_obj_t * lv_disp_get_layer_top(lv_disp_t * disp)
  72:..\..\..\lvgl\version_6.1.2\lvgl\src\lv_core/lv_disp.c **** {
 109              		.loc 1 72 0
 110              		.cfi_startproc
 111              		@ args = 0, pretend = 0, frame = 0
 112              		@ frame_needed = 0, uses_anonymous_args = 0
 113              	.LVL10:
  73:..\..\..\lvgl\version_6.1.2\lvgl\src\lv_core/lv_disp.c ****     if(!disp) disp = lv_disp_get_default();
 114              		.loc 1 73 0
 115 0000 08B1     		cbz	r0, .L17
  74:..\..\..\lvgl\version_6.1.2\lvgl\src\lv_core/lv_disp.c ****     if(!disp) {
  75:..\..\..\lvgl\version_6.1.2\lvgl\src\lv_core/lv_disp.c ****         LV_LOG_WARN("lv_layer_top: no display registered to get its top layer");
  76:..\..\..\lvgl\version_6.1.2\lvgl\src\lv_core/lv_disp.c ****         return NULL;
  77:..\..\..\lvgl\version_6.1.2\lvgl\src\lv_core/lv_disp.c ****     }
  78:..\..\..\lvgl\version_6.1.2\lvgl\src\lv_core/lv_disp.c **** 
  79:..\..\..\lvgl\version_6.1.2\lvgl\src\lv_core/lv_disp.c ****     return disp->top_layer;
 116              		.loc 1 79 0
 117 0002 406B     		ldr	r0, [r0, #52]
 118              	.LVL11:
  80:..\..\..\lvgl\version_6.1.2\lvgl\src\lv_core/lv_disp.c **** }
 119              		.loc 1 80 0
 120 0004 7047     		bx	lr
 121              	.LVL12:
 122              	.L17:
  72:..\..\..\lvgl\version_6.1.2\lvgl\src\lv_core/lv_disp.c ****     if(!disp) disp = lv_disp_get_default();
 123              		.loc 1 72 0 discriminator 1
 124 0006 08B5     		push	{r3, lr}
 125              		.cfi_def_cfa_offset 8
 126              		.cfi_offset 3, -8
 127              		.cfi_offset 14, -4
  73:..\..\..\lvgl\version_6.1.2\lvgl\src\lv_core/lv_disp.c ****     if(!disp) {
 128              		.loc 1 73 0 discriminator 1
 129 0008 FFF7FEFF 		bl	lv_disp_get_default
 130              	.LVL13:
  74:..\..\..\lvgl\version_6.1.2\lvgl\src\lv_core/lv_disp.c ****         LV_LOG_WARN("lv_layer_top: no display registered to get its top layer");
 131              		.loc 1 74 0 discriminator 1
 132 000c 00B1     		cbz	r0, .L13
  79:..\..\..\lvgl\version_6.1.2\lvgl\src\lv_core/lv_disp.c **** }
 133              		.loc 1 79 0
 134 000e 406B     		ldr	r0, [r0, #52]
 135              	.LVL14:
 136              	.L13:
 137              		.loc 1 80 0
 138 0010 08BD     		pop	{r3, pc}
 139              		.cfi_endproc
ARM GAS  C:\Users\pearlstl\AppData\Local\Temp\ccVhlQKS.s 			page 5


 140              	.LFE37:
 141              		.size	lv_disp_get_layer_top, .-lv_disp_get_layer_top
 142 0012 00BF     		.section	.text.lv_disp_get_layer_sys,"ax",%progbits
 143              		.align	2
 144              		.global	lv_disp_get_layer_sys
 145              		.thumb
 146              		.thumb_func
 147              		.type	lv_disp_get_layer_sys, %function
 148              	lv_disp_get_layer_sys:
 149              	.LFB38:
  81:..\..\..\lvgl\version_6.1.2\lvgl\src\lv_core/lv_disp.c **** 
  82:..\..\..\lvgl\version_6.1.2\lvgl\src\lv_core/lv_disp.c **** /**
  83:..\..\..\lvgl\version_6.1.2\lvgl\src\lv_core/lv_disp.c ****  * Return with the sys. layer. (Same on every screen and it is above the normal screen and the top
  84:..\..\..\lvgl\version_6.1.2\lvgl\src\lv_core/lv_disp.c ****  * layer)
  85:..\..\..\lvgl\version_6.1.2\lvgl\src\lv_core/lv_disp.c ****  * @param disp pointer to display which sys. layer  should be get. (NULL to use the default screen)
  86:..\..\..\lvgl\version_6.1.2\lvgl\src\lv_core/lv_disp.c ****  * @return pointer to the sys layer object  (transparent screen sized lv_obj)
  87:..\..\..\lvgl\version_6.1.2\lvgl\src\lv_core/lv_disp.c ****  */
  88:..\..\..\lvgl\version_6.1.2\lvgl\src\lv_core/lv_disp.c **** lv_obj_t * lv_disp_get_layer_sys(lv_disp_t * disp)
  89:..\..\..\lvgl\version_6.1.2\lvgl\src\lv_core/lv_disp.c **** {
 150              		.loc 1 89 0
 151              		.cfi_startproc
 152              		@ args = 0, pretend = 0, frame = 0
 153              		@ frame_needed = 0, uses_anonymous_args = 0
 154              	.LVL15:
  90:..\..\..\lvgl\version_6.1.2\lvgl\src\lv_core/lv_disp.c ****     if(!disp) disp = lv_disp_get_default();
 155              		.loc 1 90 0
 156 0000 08B1     		cbz	r0, .L24
  91:..\..\..\lvgl\version_6.1.2\lvgl\src\lv_core/lv_disp.c ****     if(!disp) {
  92:..\..\..\lvgl\version_6.1.2\lvgl\src\lv_core/lv_disp.c ****         LV_LOG_WARN("lv_layer_sys: no display registered to get its top layer");
  93:..\..\..\lvgl\version_6.1.2\lvgl\src\lv_core/lv_disp.c ****         return NULL;
  94:..\..\..\lvgl\version_6.1.2\lvgl\src\lv_core/lv_disp.c ****     }
  95:..\..\..\lvgl\version_6.1.2\lvgl\src\lv_core/lv_disp.c **** 
  96:..\..\..\lvgl\version_6.1.2\lvgl\src\lv_core/lv_disp.c ****     return disp->sys_layer;
 157              		.loc 1 96 0
 158 0002 806B     		ldr	r0, [r0, #56]
 159              	.LVL16:
  97:..\..\..\lvgl\version_6.1.2\lvgl\src\lv_core/lv_disp.c **** }
 160              		.loc 1 97 0
 161 0004 7047     		bx	lr
 162              	.LVL17:
 163              	.L24:
  89:..\..\..\lvgl\version_6.1.2\lvgl\src\lv_core/lv_disp.c ****     if(!disp) disp = lv_disp_get_default();
 164              		.loc 1 89 0 discriminator 1
 165 0006 08B5     		push	{r3, lr}
 166              		.cfi_def_cfa_offset 8
 167              		.cfi_offset 3, -8
 168              		.cfi_offset 14, -4
  90:..\..\..\lvgl\version_6.1.2\lvgl\src\lv_core/lv_disp.c ****     if(!disp) {
 169              		.loc 1 90 0 discriminator 1
 170 0008 FFF7FEFF 		bl	lv_disp_get_default
 171              	.LVL18:
  91:..\..\..\lvgl\version_6.1.2\lvgl\src\lv_core/lv_disp.c ****         LV_LOG_WARN("lv_layer_sys: no display registered to get its top layer");
 172              		.loc 1 91 0 discriminator 1
 173 000c 00B1     		cbz	r0, .L20
  96:..\..\..\lvgl\version_6.1.2\lvgl\src\lv_core/lv_disp.c **** }
 174              		.loc 1 96 0
 175 000e 806B     		ldr	r0, [r0, #56]
ARM GAS  C:\Users\pearlstl\AppData\Local\Temp\ccVhlQKS.s 			page 6


 176              	.LVL19:
 177              	.L20:
 178              		.loc 1 97 0
 179 0010 08BD     		pop	{r3, pc}
 180              		.cfi_endproc
 181              	.LFE38:
 182              		.size	lv_disp_get_layer_sys, .-lv_disp_get_layer_sys
 183 0012 00BF     		.section	.text.lv_disp_assign_screen,"ax",%progbits
 184              		.align	2
 185              		.global	lv_disp_assign_screen
 186              		.thumb
 187              		.thumb_func
 188              		.type	lv_disp_assign_screen, %function
 189              	lv_disp_assign_screen:
 190              	.LFB39:
  98:..\..\..\lvgl\version_6.1.2\lvgl\src\lv_core/lv_disp.c **** 
  99:..\..\..\lvgl\version_6.1.2\lvgl\src\lv_core/lv_disp.c **** /**
 100:..\..\..\lvgl\version_6.1.2\lvgl\src\lv_core/lv_disp.c ****  * Assign a screen to a display.
 101:..\..\..\lvgl\version_6.1.2\lvgl\src\lv_core/lv_disp.c ****  * @param disp pointer to a display where to assign the screen
 102:..\..\..\lvgl\version_6.1.2\lvgl\src\lv_core/lv_disp.c ****  * @param scr pointer to a screen object to assign
 103:..\..\..\lvgl\version_6.1.2\lvgl\src\lv_core/lv_disp.c ****  */
 104:..\..\..\lvgl\version_6.1.2\lvgl\src\lv_core/lv_disp.c **** void lv_disp_assign_screen(lv_disp_t * disp, lv_obj_t * scr)
 105:..\..\..\lvgl\version_6.1.2\lvgl\src\lv_core/lv_disp.c **** {
 191              		.loc 1 105 0
 192              		.cfi_startproc
 193              		@ args = 0, pretend = 0, frame = 0
 194              		@ frame_needed = 0, uses_anonymous_args = 0
 195              	.LVL20:
 196 0000 70B5     		push	{r4, r5, r6, lr}
 197              		.cfi_def_cfa_offset 16
 198              		.cfi_offset 4, -16
 199              		.cfi_offset 5, -12
 200              		.cfi_offset 6, -8
 201              		.cfi_offset 14, -4
 202              		.loc 1 105 0
 203 0002 0546     		mov	r5, r0
 106:..\..\..\lvgl\version_6.1.2\lvgl\src\lv_core/lv_disp.c ****     if(lv_obj_get_parent(scr) != NULL) {
 204              		.loc 1 106 0
 205 0004 0846     		mov	r0, r1
 206              	.LVL21:
 105:..\..\..\lvgl\version_6.1.2\lvgl\src\lv_core/lv_disp.c ****     if(lv_obj_get_parent(scr) != NULL) {
 207              		.loc 1 105 0
 208 0006 0C46     		mov	r4, r1
 209              		.loc 1 106 0
 210 0008 FFF7FEFF 		bl	lv_obj_get_parent
 211              	.LVL22:
 212 000c 00B1     		cbz	r0, .L30
 213              	.L25:
 214 000e 70BD     		pop	{r4, r5, r6, pc}
 215              	.LVL23:
 216              	.L30:
 107:..\..\..\lvgl\version_6.1.2\lvgl\src\lv_core/lv_disp.c ****         LV_LOG_WARN("lv_disp_assign_screen: try to assign a non-screen object");
 108:..\..\..\lvgl\version_6.1.2\lvgl\src\lv_core/lv_disp.c ****         return;
 109:..\..\..\lvgl\version_6.1.2\lvgl\src\lv_core/lv_disp.c ****     }
 110:..\..\..\lvgl\version_6.1.2\lvgl\src\lv_core/lv_disp.c **** 
 111:..\..\..\lvgl\version_6.1.2\lvgl\src\lv_core/lv_disp.c ****     lv_disp_t * old_disp = lv_obj_get_disp(scr);
 217              		.loc 1 111 0
ARM GAS  C:\Users\pearlstl\AppData\Local\Temp\ccVhlQKS.s 			page 7


 218 0010 2046     		mov	r0, r4
 219 0012 FFF7FEFF 		bl	lv_obj_get_disp
 220              	.LVL24:
 112:..\..\..\lvgl\version_6.1.2\lvgl\src\lv_core/lv_disp.c **** 
 113:..\..\..\lvgl\version_6.1.2\lvgl\src\lv_core/lv_disp.c ****     if(old_disp == disp) return;
 221              		.loc 1 113 0
 222 0016 A842     		cmp	r0, r5
 223 0018 F9D0     		beq	.L25
 114:..\..\..\lvgl\version_6.1.2\lvgl\src\lv_core/lv_disp.c **** 
 115:..\..\..\lvgl\version_6.1.2\lvgl\src\lv_core/lv_disp.c ****     lv_ll_chg_list(&old_disp->scr_ll, &disp->scr_ll, scr, true);
 224              		.loc 1 115 0
 225 001a 2246     		mov	r2, r4
 226 001c 05F12401 		add	r1, r5, #36
 227 0020 2430     		adds	r0, r0, #36
 228              	.LVL25:
 229 0022 0123     		movs	r3, #1
 116:..\..\..\lvgl\version_6.1.2\lvgl\src\lv_core/lv_disp.c **** }
 230              		.loc 1 116 0
 231 0024 BDE87040 		pop	{r4, r5, r6, lr}
 232              		.cfi_restore 14
 233              		.cfi_restore 6
 234              		.cfi_restore 5
 235              		.cfi_restore 4
 236              		.cfi_def_cfa_offset 0
 237              	.LVL26:
 115:..\..\..\lvgl\version_6.1.2\lvgl\src\lv_core/lv_disp.c **** }
 238              		.loc 1 115 0
 239 0028 FFF7FEBF 		b	lv_ll_chg_list
 240              	.LVL27:
 241              		.cfi_endproc
 242              	.LFE39:
 243              		.size	lv_disp_assign_screen, .-lv_disp_assign_screen
 244              		.section	.text.lv_disp_get_refr_task,"ax",%progbits
 245              		.align	2
 246              		.global	lv_disp_get_refr_task
 247              		.thumb
 248              		.thumb_func
 249              		.type	lv_disp_get_refr_task, %function
 250              	lv_disp_get_refr_task:
 251              	.LFB40:
 117:..\..\..\lvgl\version_6.1.2\lvgl\src\lv_core/lv_disp.c **** 
 118:..\..\..\lvgl\version_6.1.2\lvgl\src\lv_core/lv_disp.c **** /**
 119:..\..\..\lvgl\version_6.1.2\lvgl\src\lv_core/lv_disp.c ****  * Get a pointer to the screen refresher task to
 120:..\..\..\lvgl\version_6.1.2\lvgl\src\lv_core/lv_disp.c ****  * modify its parameters with `lv_task_...` functions.
 121:..\..\..\lvgl\version_6.1.2\lvgl\src\lv_core/lv_disp.c ****  * @param disp pointer to a display
 122:..\..\..\lvgl\version_6.1.2\lvgl\src\lv_core/lv_disp.c ****  * @return pointer to the display refresher task. (NULL on error)
 123:..\..\..\lvgl\version_6.1.2\lvgl\src\lv_core/lv_disp.c ****  */
 124:..\..\..\lvgl\version_6.1.2\lvgl\src\lv_core/lv_disp.c **** lv_task_t * lv_disp_get_refr_task(lv_disp_t * disp)
 125:..\..\..\lvgl\version_6.1.2\lvgl\src\lv_core/lv_disp.c **** {
 252              		.loc 1 125 0
 253              		.cfi_startproc
 254              		@ args = 0, pretend = 0, frame = 0
 255              		@ frame_needed = 0, uses_anonymous_args = 0
 256              	.LVL28:
 126:..\..\..\lvgl\version_6.1.2\lvgl\src\lv_core/lv_disp.c ****     if(!disp) disp = lv_disp_get_default();
 257              		.loc 1 126 0
 258 0000 08B1     		cbz	r0, .L37
ARM GAS  C:\Users\pearlstl\AppData\Local\Temp\ccVhlQKS.s 			page 8


 127:..\..\..\lvgl\version_6.1.2\lvgl\src\lv_core/lv_disp.c ****     if(!disp) {
 128:..\..\..\lvgl\version_6.1.2\lvgl\src\lv_core/lv_disp.c ****         LV_LOG_WARN("lv_disp_get_refr_task: no display registered");
 129:..\..\..\lvgl\version_6.1.2\lvgl\src\lv_core/lv_disp.c ****         return NULL;
 130:..\..\..\lvgl\version_6.1.2\lvgl\src\lv_core/lv_disp.c ****     }
 131:..\..\..\lvgl\version_6.1.2\lvgl\src\lv_core/lv_disp.c **** 
 132:..\..\..\lvgl\version_6.1.2\lvgl\src\lv_core/lv_disp.c ****     return disp->refr_task;
 259              		.loc 1 132 0
 260 0002 006A     		ldr	r0, [r0, #32]
 261              	.LVL29:
 133:..\..\..\lvgl\version_6.1.2\lvgl\src\lv_core/lv_disp.c **** }
 262              		.loc 1 133 0
 263 0004 7047     		bx	lr
 264              	.LVL30:
 265              	.L37:
 125:..\..\..\lvgl\version_6.1.2\lvgl\src\lv_core/lv_disp.c ****     if(!disp) disp = lv_disp_get_default();
 266              		.loc 1 125 0 discriminator 1
 267 0006 08B5     		push	{r3, lr}
 268              		.cfi_def_cfa_offset 8
 269              		.cfi_offset 3, -8
 270              		.cfi_offset 14, -4
 126:..\..\..\lvgl\version_6.1.2\lvgl\src\lv_core/lv_disp.c ****     if(!disp) {
 271              		.loc 1 126 0 discriminator 1
 272 0008 FFF7FEFF 		bl	lv_disp_get_default
 273              	.LVL31:
 127:..\..\..\lvgl\version_6.1.2\lvgl\src\lv_core/lv_disp.c ****         LV_LOG_WARN("lv_disp_get_refr_task: no display registered");
 274              		.loc 1 127 0 discriminator 1
 275 000c 00B1     		cbz	r0, .L33
 132:..\..\..\lvgl\version_6.1.2\lvgl\src\lv_core/lv_disp.c **** }
 276              		.loc 1 132 0
 277 000e 006A     		ldr	r0, [r0, #32]
 278              	.LVL32:
 279              	.L33:
 280              		.loc 1 133 0
 281 0010 08BD     		pop	{r3, pc}
 282              		.cfi_endproc
 283              	.LFE40:
 284              		.size	lv_disp_get_refr_task, .-lv_disp_get_refr_task
 285 0012 00BF     		.section	.text.lv_disp_get_inactive_time,"ax",%progbits
 286              		.align	2
 287              		.global	lv_disp_get_inactive_time
 288              		.thumb
 289              		.thumb_func
 290              		.type	lv_disp_get_inactive_time, %function
 291              	lv_disp_get_inactive_time:
 292              	.LFB41:
 134:..\..\..\lvgl\version_6.1.2\lvgl\src\lv_core/lv_disp.c **** 
 135:..\..\..\lvgl\version_6.1.2\lvgl\src\lv_core/lv_disp.c **** /**
 136:..\..\..\lvgl\version_6.1.2\lvgl\src\lv_core/lv_disp.c ****  * Get elapsed time since last user activity on a display (e.g. click)
 137:..\..\..\lvgl\version_6.1.2\lvgl\src\lv_core/lv_disp.c ****  * @param disp pointer to an display (NULL to get the overall smallest inactivity)
 138:..\..\..\lvgl\version_6.1.2\lvgl\src\lv_core/lv_disp.c ****  * @return elapsed ticks (milliseconds) since the last activity
 139:..\..\..\lvgl\version_6.1.2\lvgl\src\lv_core/lv_disp.c ****  */
 140:..\..\..\lvgl\version_6.1.2\lvgl\src\lv_core/lv_disp.c **** uint32_t lv_disp_get_inactive_time(const lv_disp_t * disp)
 141:..\..\..\lvgl\version_6.1.2\lvgl\src\lv_core/lv_disp.c **** {
 293              		.loc 1 141 0
 294              		.cfi_startproc
 295              		@ args = 0, pretend = 0, frame = 0
 296              		@ frame_needed = 0, uses_anonymous_args = 0
ARM GAS  C:\Users\pearlstl\AppData\Local\Temp\ccVhlQKS.s 			page 9


 297              	.LVL33:
 298 0000 08B5     		push	{r3, lr}
 299              		.cfi_def_cfa_offset 8
 300              		.cfi_offset 3, -8
 301              		.cfi_offset 14, -4
 302 0002 0346     		mov	r3, r0
 142:..\..\..\lvgl\version_6.1.2\lvgl\src\lv_core/lv_disp.c ****     if(!disp) disp = lv_disp_get_default();
 303              		.loc 1 142 0
 304 0004 28B1     		cbz	r0, .L43
 305              	.L39:
 143:..\..\..\lvgl\version_6.1.2\lvgl\src\lv_core/lv_disp.c ****     if(!disp) {
 144:..\..\..\lvgl\version_6.1.2\lvgl\src\lv_core/lv_disp.c ****         LV_LOG_WARN("lv_disp_get_inactive_time: no display registered");
 145:..\..\..\lvgl\version_6.1.2\lvgl\src\lv_core/lv_disp.c ****         return 0;
 146:..\..\..\lvgl\version_6.1.2\lvgl\src\lv_core/lv_disp.c ****     }
 147:..\..\..\lvgl\version_6.1.2\lvgl\src\lv_core/lv_disp.c **** 
 148:..\..\..\lvgl\version_6.1.2\lvgl\src\lv_core/lv_disp.c ****     if(disp) return lv_tick_elaps(disp->last_activity_time);
 306              		.loc 1 148 0 discriminator 1
 307 0006 D3F86001 		ldr	r0, [r3, #352]
 308              	.LVL34:
 149:..\..\..\lvgl\version_6.1.2\lvgl\src\lv_core/lv_disp.c **** 
 150:..\..\..\lvgl\version_6.1.2\lvgl\src\lv_core/lv_disp.c ****     lv_disp_t * d;
 151:..\..\..\lvgl\version_6.1.2\lvgl\src\lv_core/lv_disp.c ****     uint32_t t = UINT32_MAX;
 152:..\..\..\lvgl\version_6.1.2\lvgl\src\lv_core/lv_disp.c ****     d          = lv_disp_get_next(NULL);
 153:..\..\..\lvgl\version_6.1.2\lvgl\src\lv_core/lv_disp.c ****     while(d) {
 154:..\..\..\lvgl\version_6.1.2\lvgl\src\lv_core/lv_disp.c ****         t = LV_MATH_MIN(t, lv_tick_elaps(d->last_activity_time));
 155:..\..\..\lvgl\version_6.1.2\lvgl\src\lv_core/lv_disp.c ****         d = lv_disp_get_next(d);
 156:..\..\..\lvgl\version_6.1.2\lvgl\src\lv_core/lv_disp.c ****     }
 157:..\..\..\lvgl\version_6.1.2\lvgl\src\lv_core/lv_disp.c **** 
 158:..\..\..\lvgl\version_6.1.2\lvgl\src\lv_core/lv_disp.c ****     return t;
 159:..\..\..\lvgl\version_6.1.2\lvgl\src\lv_core/lv_disp.c **** }
 309              		.loc 1 159 0 discriminator 1
 310 000a BDE80840 		pop	{r3, lr}
 311              		.cfi_remember_state
 312              		.cfi_restore 14
 313              		.cfi_restore 3
 314              		.cfi_def_cfa_offset 0
 315              	.LVL35:
 148:..\..\..\lvgl\version_6.1.2\lvgl\src\lv_core/lv_disp.c **** 
 316              		.loc 1 148 0 discriminator 1
 317 000e FFF7FEBF 		b	lv_tick_elaps
 318              	.LVL36:
 319              	.L43:
 320              		.cfi_restore_state
 142:..\..\..\lvgl\version_6.1.2\lvgl\src\lv_core/lv_disp.c ****     if(!disp) {
 321              		.loc 1 142 0 discriminator 1
 322 0012 FFF7FEFF 		bl	lv_disp_get_default
 323              	.LVL37:
 143:..\..\..\lvgl\version_6.1.2\lvgl\src\lv_core/lv_disp.c ****         LV_LOG_WARN("lv_disp_get_inactive_time: no display registered");
 324              		.loc 1 143 0 discriminator 1
 325 0016 0346     		mov	r3, r0
 326 0018 0028     		cmp	r0, #0
 327 001a F4D1     		bne	.L39
 328              		.loc 1 159 0
 329 001c 08BD     		pop	{r3, pc}
 330              		.cfi_endproc
 331              	.LFE41:
 332              		.size	lv_disp_get_inactive_time, .-lv_disp_get_inactive_time
ARM GAS  C:\Users\pearlstl\AppData\Local\Temp\ccVhlQKS.s 			page 10


 333 001e 00BF     		.section	.text.lv_disp_trig_activity,"ax",%progbits
 334              		.align	2
 335              		.global	lv_disp_trig_activity
 336              		.thumb
 337              		.thumb_func
 338              		.type	lv_disp_trig_activity, %function
 339              	lv_disp_trig_activity:
 340              	.LFB42:
 160:..\..\..\lvgl\version_6.1.2\lvgl\src\lv_core/lv_disp.c **** 
 161:..\..\..\lvgl\version_6.1.2\lvgl\src\lv_core/lv_disp.c **** /**
 162:..\..\..\lvgl\version_6.1.2\lvgl\src\lv_core/lv_disp.c ****  * Manually trigger an activity on a display
 163:..\..\..\lvgl\version_6.1.2\lvgl\src\lv_core/lv_disp.c ****  * @param disp pointer to an display (NULL to use the default display)
 164:..\..\..\lvgl\version_6.1.2\lvgl\src\lv_core/lv_disp.c ****  */
 165:..\..\..\lvgl\version_6.1.2\lvgl\src\lv_core/lv_disp.c **** void lv_disp_trig_activity(lv_disp_t * disp)
 166:..\..\..\lvgl\version_6.1.2\lvgl\src\lv_core/lv_disp.c **** {
 341              		.loc 1 166 0
 342              		.cfi_startproc
 343              		@ args = 0, pretend = 0, frame = 0
 344              		@ frame_needed = 0, uses_anonymous_args = 0
 345              	.LVL38:
 346 0000 10B5     		push	{r4, lr}
 347              		.cfi_def_cfa_offset 8
 348              		.cfi_offset 4, -8
 349              		.cfi_offset 14, -4
 350 0002 0446     		mov	r4, r0
 167:..\..\..\lvgl\version_6.1.2\lvgl\src\lv_core/lv_disp.c ****     if(!disp) disp = lv_disp_get_default();
 351              		.loc 1 167 0
 352 0004 20B1     		cbz	r0, .L52
 353              	.L45:
 168:..\..\..\lvgl\version_6.1.2\lvgl\src\lv_core/lv_disp.c ****     if(!disp) {
 169:..\..\..\lvgl\version_6.1.2\lvgl\src\lv_core/lv_disp.c ****         LV_LOG_WARN("lv_disp_trig_activity: no display registered");
 170:..\..\..\lvgl\version_6.1.2\lvgl\src\lv_core/lv_disp.c ****         return;
 171:..\..\..\lvgl\version_6.1.2\lvgl\src\lv_core/lv_disp.c ****     }
 172:..\..\..\lvgl\version_6.1.2\lvgl\src\lv_core/lv_disp.c **** 
 173:..\..\..\lvgl\version_6.1.2\lvgl\src\lv_core/lv_disp.c ****     disp->last_activity_time = lv_tick_get();
 354              		.loc 1 173 0
 355 0006 FFF7FEFF 		bl	lv_tick_get
 356              	.LVL39:
 357 000a C4F86001 		str	r0, [r4, #352]
 358              	.L44:
 359 000e 10BD     		pop	{r4, pc}
 360              	.LVL40:
 361              	.L52:
 167:..\..\..\lvgl\version_6.1.2\lvgl\src\lv_core/lv_disp.c ****     if(!disp) disp = lv_disp_get_default();
 362              		.loc 1 167 0 discriminator 1
 363 0010 FFF7FEFF 		bl	lv_disp_get_default
 364              	.LVL41:
 168:..\..\..\lvgl\version_6.1.2\lvgl\src\lv_core/lv_disp.c ****     if(!disp) {
 365              		.loc 1 168 0 discriminator 1
 366 0014 0446     		mov	r4, r0
 367 0016 0028     		cmp	r0, #0
 368 0018 F9D0     		beq	.L44
 369 001a F4E7     		b	.L45
 370              		.cfi_endproc
 371              	.LFE42:
 372              		.size	lv_disp_trig_activity, .-lv_disp_trig_activity
 373              		.text
ARM GAS  C:\Users\pearlstl\AppData\Local\Temp\ccVhlQKS.s 			page 11


 374              	.Letext0:
 375              		.file 2 "c:\\program files (x86)\\cypress\\psoc creator\\4.2\\psoc creator\\import\\gnu\\arm\\5.4.
 376              		.file 3 "c:\\program files (x86)\\cypress\\psoc creator\\4.2\\psoc creator\\import\\gnu\\arm\\5.4.
 377              		.file 4 "..\\..\\..\\lvgl\\version_6.1.2\\lvgl\\src\\lv_core\\../lv_hal/../lv_misc/../../../lv_con
 378              		.file 5 "..\\..\\..\\lvgl\\version_6.1.2\\lvgl\\src\\lv_core\\../lv_hal/../lv_misc/lv_color.h"
 379              		.file 6 "..\\..\\..\\lvgl\\version_6.1.2\\lvgl\\src\\lv_core\\../lv_hal/../lv_misc/lv_area.h"
 380              		.file 7 "..\\..\\..\\lvgl\\version_6.1.2\\lvgl\\src\\lv_core\\../lv_hal/../lv_misc/lv_types.h"
 381              		.file 8 "..\\..\\..\\lvgl\\version_6.1.2\\lvgl\\src\\lv_core\\../lv_hal/../lv_misc/lv_ll.h"
 382              		.file 9 "..\\..\\..\\lvgl\\version_6.1.2\\lvgl\\src\\lv_core\\../lv_hal/../lv_misc/lv_task.h"
 383              		.file 10 "..\\..\\..\\lvgl\\version_6.1.2\\lvgl\\src\\lv_core\\../lv_hal/lv_hal_disp.h"
 384              		.file 11 "..\\..\\..\\lvgl\\version_6.1.2\\lvgl\\src\\lv_core\\lv_obj.h"
 385              		.file 12 "..\\..\\..\\lvgl\\version_6.1.2\\lvgl\\src\\lv_core\\../lv_font/lv_font.h"
 386              		.file 13 "..\\..\\..\\lvgl\\version_6.1.2\\lvgl\\src\\lv_core\\lv_style.h"
 387              		.file 14 "..\\..\\..\\lvgl\\version_6.1.2\\lvgl\\src\\lv_core\\../lv_misc/lv_bidi.h"
 388              		.file 15 "..\\..\\..\\lvgl\\version_6.1.2\\lvgl\\src\\lv_core\\../lv_hal/lv_hal_tick.h"