ARM GAS  C:\Users\pearlstl\AppData\Local\Temp\ccSsDheA.s 			page 1


   1              		.syntax unified
   2              		.cpu cortex-m4
   3              		.eabi_attribute 27, 1
   4              		.fpu fpv4-sp-d16
   5              		.eabi_attribute 20, 1
   6              		.eabi_attribute 21, 1
   7              		.eabi_attribute 23, 3
   8              		.eabi_attribute 24, 1
   9              		.eabi_attribute 25, 1
  10              		.eabi_attribute 26, 1
  11              		.eabi_attribute 30, 2
  12              		.eabi_attribute 34, 1
  13              		.eabi_attribute 18, 4
  14              		.thumb
  15              		.syntax unified
  16              		.file	"lv_draw_arc.c"
  17              		.text
  18              	.Ltext0:
  19              		.cfi_sections	.debug_frame
  20              		.section	.text.deg_test_norm,"ax",%progbits
  21              		.align	2
  22              		.thumb
  23              		.thumb_func
  24              		.type	deg_test_norm, %function
  25              	deg_test_norm:
  26              	.LFB34:
  27              		.file 1 "..\\..\\..\\lvgl\\version_6.1.2\\lvgl\\src\\lv_draw\\lv_draw_arc.c"
   1:..\..\..\lvgl\version_6.1.2\lvgl\src\lv_draw/lv_draw_arc.c **** /**
   2:..\..\..\lvgl\version_6.1.2\lvgl\src\lv_draw/lv_draw_arc.c ****  * @file lv_draw_arc.c
   3:..\..\..\lvgl\version_6.1.2\lvgl\src\lv_draw/lv_draw_arc.c ****  *
   4:..\..\..\lvgl\version_6.1.2\lvgl\src\lv_draw/lv_draw_arc.c ****  */
   5:..\..\..\lvgl\version_6.1.2\lvgl\src\lv_draw/lv_draw_arc.c **** 
   6:..\..\..\lvgl\version_6.1.2\lvgl\src\lv_draw/lv_draw_arc.c **** /*********************
   7:..\..\..\lvgl\version_6.1.2\lvgl\src\lv_draw/lv_draw_arc.c ****  *      INCLUDES
   8:..\..\..\lvgl\version_6.1.2\lvgl\src\lv_draw/lv_draw_arc.c ****  *********************/
   9:..\..\..\lvgl\version_6.1.2\lvgl\src\lv_draw/lv_draw_arc.c **** #include "lv_draw_arc.h"
  10:..\..\..\lvgl\version_6.1.2\lvgl\src\lv_draw/lv_draw_arc.c **** #include "../lv_misc/lv_math.h"
  11:..\..\..\lvgl\version_6.1.2\lvgl\src\lv_draw/lv_draw_arc.c **** 
  12:..\..\..\lvgl\version_6.1.2\lvgl\src\lv_draw/lv_draw_arc.c **** /*********************
  13:..\..\..\lvgl\version_6.1.2\lvgl\src\lv_draw/lv_draw_arc.c ****  *      DEFINES
  14:..\..\..\lvgl\version_6.1.2\lvgl\src\lv_draw/lv_draw_arc.c ****  *********************/
  15:..\..\..\lvgl\version_6.1.2\lvgl\src\lv_draw/lv_draw_arc.c **** 
  16:..\..\..\lvgl\version_6.1.2\lvgl\src\lv_draw/lv_draw_arc.c **** /**********************
  17:..\..\..\lvgl\version_6.1.2\lvgl\src\lv_draw/lv_draw_arc.c ****  *      TYPEDEFS
  18:..\..\..\lvgl\version_6.1.2\lvgl\src\lv_draw/lv_draw_arc.c ****  **********************/
  19:..\..\..\lvgl\version_6.1.2\lvgl\src\lv_draw/lv_draw_arc.c **** 
  20:..\..\..\lvgl\version_6.1.2\lvgl\src\lv_draw/lv_draw_arc.c **** /**********************
  21:..\..\..\lvgl\version_6.1.2\lvgl\src\lv_draw/lv_draw_arc.c ****  *  STATIC PROTOTYPES
  22:..\..\..\lvgl\version_6.1.2\lvgl\src\lv_draw/lv_draw_arc.c ****  **********************/
  23:..\..\..\lvgl\version_6.1.2\lvgl\src\lv_draw/lv_draw_arc.c **** static void ver_line(lv_coord_t x, lv_coord_t y, const lv_area_t * mask, lv_coord_t len, lv_color_t
  24:..\..\..\lvgl\version_6.1.2\lvgl\src\lv_draw/lv_draw_arc.c ****                      lv_opa_t opa);
  25:..\..\..\lvgl\version_6.1.2\lvgl\src\lv_draw/lv_draw_arc.c **** static void hor_line(lv_coord_t x, lv_coord_t y, const lv_area_t * mask, lv_coord_t len, lv_color_t
  26:..\..\..\lvgl\version_6.1.2\lvgl\src\lv_draw/lv_draw_arc.c ****                      lv_opa_t opa);
  27:..\..\..\lvgl\version_6.1.2\lvgl\src\lv_draw/lv_draw_arc.c **** static bool deg_test_norm(uint16_t deg, uint16_t start, uint16_t end);
  28:..\..\..\lvgl\version_6.1.2\lvgl\src\lv_draw/lv_draw_arc.c **** static bool deg_test_inv(uint16_t deg, uint16_t start, uint16_t end);
  29:..\..\..\lvgl\version_6.1.2\lvgl\src\lv_draw/lv_draw_arc.c **** 
  30:..\..\..\lvgl\version_6.1.2\lvgl\src\lv_draw/lv_draw_arc.c **** /**********************
ARM GAS  C:\Users\pearlstl\AppData\Local\Temp\ccSsDheA.s 			page 2


  31:..\..\..\lvgl\version_6.1.2\lvgl\src\lv_draw/lv_draw_arc.c ****  *  STATIC VARIABLES
  32:..\..\..\lvgl\version_6.1.2\lvgl\src\lv_draw/lv_draw_arc.c ****  **********************/
  33:..\..\..\lvgl\version_6.1.2\lvgl\src\lv_draw/lv_draw_arc.c **** 
  34:..\..\..\lvgl\version_6.1.2\lvgl\src\lv_draw/lv_draw_arc.c **** /**********************
  35:..\..\..\lvgl\version_6.1.2\lvgl\src\lv_draw/lv_draw_arc.c ****  *      MACROS
  36:..\..\..\lvgl\version_6.1.2\lvgl\src\lv_draw/lv_draw_arc.c ****  **********************/
  37:..\..\..\lvgl\version_6.1.2\lvgl\src\lv_draw/lv_draw_arc.c **** 
  38:..\..\..\lvgl\version_6.1.2\lvgl\src\lv_draw/lv_draw_arc.c **** /**********************
  39:..\..\..\lvgl\version_6.1.2\lvgl\src\lv_draw/lv_draw_arc.c ****  *   GLOBAL FUNCTIONS
  40:..\..\..\lvgl\version_6.1.2\lvgl\src\lv_draw/lv_draw_arc.c ****  **********************/
  41:..\..\..\lvgl\version_6.1.2\lvgl\src\lv_draw/lv_draw_arc.c **** 
  42:..\..\..\lvgl\version_6.1.2\lvgl\src\lv_draw/lv_draw_arc.c **** /**
  43:..\..\..\lvgl\version_6.1.2\lvgl\src\lv_draw/lv_draw_arc.c ****  * Draw an arc. (Can draw pie too with great thickness.)
  44:..\..\..\lvgl\version_6.1.2\lvgl\src\lv_draw/lv_draw_arc.c ****  * @param center_x the x coordinate of the center of the arc
  45:..\..\..\lvgl\version_6.1.2\lvgl\src\lv_draw/lv_draw_arc.c ****  * @param center_y the y coordinate of the center of the arc
  46:..\..\..\lvgl\version_6.1.2\lvgl\src\lv_draw/lv_draw_arc.c ****  * @param radius the radius of the arc
  47:..\..\..\lvgl\version_6.1.2\lvgl\src\lv_draw/lv_draw_arc.c ****  * @param mask the arc will be drawn only in this mask
  48:..\..\..\lvgl\version_6.1.2\lvgl\src\lv_draw/lv_draw_arc.c ****  * @param start_angle the start angle of the arc (0 deg on the bottom, 90 deg on the right)
  49:..\..\..\lvgl\version_6.1.2\lvgl\src\lv_draw/lv_draw_arc.c ****  * @param end_angle the end angle of the arc
  50:..\..\..\lvgl\version_6.1.2\lvgl\src\lv_draw/lv_draw_arc.c ****  * @param style style of the arc (`body.thickness`, `body.main_color`, `body.opa` is used)
  51:..\..\..\lvgl\version_6.1.2\lvgl\src\lv_draw/lv_draw_arc.c ****  * @param opa_scale scale down all opacities by the factor
  52:..\..\..\lvgl\version_6.1.2\lvgl\src\lv_draw/lv_draw_arc.c ****  */
  53:..\..\..\lvgl\version_6.1.2\lvgl\src\lv_draw/lv_draw_arc.c **** void lv_draw_arc(lv_coord_t center_x, lv_coord_t center_y, uint16_t radius, const lv_area_t * mask,
  54:..\..\..\lvgl\version_6.1.2\lvgl\src\lv_draw/lv_draw_arc.c ****                  uint16_t start_angle, uint16_t end_angle, const lv_style_t * style, lv_opa_t opa_s
  55:..\..\..\lvgl\version_6.1.2\lvgl\src\lv_draw/lv_draw_arc.c **** {
  56:..\..\..\lvgl\version_6.1.2\lvgl\src\lv_draw/lv_draw_arc.c ****     lv_coord_t thickness = style->line.width;
  57:..\..\..\lvgl\version_6.1.2\lvgl\src\lv_draw/lv_draw_arc.c ****     if(thickness > radius) thickness = radius;
  58:..\..\..\lvgl\version_6.1.2\lvgl\src\lv_draw/lv_draw_arc.c **** 
  59:..\..\..\lvgl\version_6.1.2\lvgl\src\lv_draw/lv_draw_arc.c **** #if LV_ANTIALIAS
  60:..\..\..\lvgl\version_6.1.2\lvgl\src\lv_draw/lv_draw_arc.c ****     thickness--;
  61:..\..\..\lvgl\version_6.1.2\lvgl\src\lv_draw/lv_draw_arc.c ****     radius--;
  62:..\..\..\lvgl\version_6.1.2\lvgl\src\lv_draw/lv_draw_arc.c **** #endif
  63:..\..\..\lvgl\version_6.1.2\lvgl\src\lv_draw/lv_draw_arc.c **** 
  64:..\..\..\lvgl\version_6.1.2\lvgl\src\lv_draw/lv_draw_arc.c ****     lv_coord_t r_out = radius;
  65:..\..\..\lvgl\version_6.1.2\lvgl\src\lv_draw/lv_draw_arc.c ****     lv_coord_t r_in  = r_out - thickness;
  66:..\..\..\lvgl\version_6.1.2\lvgl\src\lv_draw/lv_draw_arc.c ****     int16_t deg_base;
  67:..\..\..\lvgl\version_6.1.2\lvgl\src\lv_draw/lv_draw_arc.c ****     int16_t deg;
  68:..\..\..\lvgl\version_6.1.2\lvgl\src\lv_draw/lv_draw_arc.c ****     lv_coord_t x_start[4];
  69:..\..\..\lvgl\version_6.1.2\lvgl\src\lv_draw/lv_draw_arc.c ****     lv_coord_t x_end[4];
  70:..\..\..\lvgl\version_6.1.2\lvgl\src\lv_draw/lv_draw_arc.c **** 
  71:..\..\..\lvgl\version_6.1.2\lvgl\src\lv_draw/lv_draw_arc.c ****     lv_color_t color = style->line.color;
  72:..\..\..\lvgl\version_6.1.2\lvgl\src\lv_draw/lv_draw_arc.c ****     lv_opa_t opa = opa_scale == LV_OPA_COVER ? style->body.opa : (uint16_t)((uint16_t)style->body.o
  73:..\..\..\lvgl\version_6.1.2\lvgl\src\lv_draw/lv_draw_arc.c **** 
  74:..\..\..\lvgl\version_6.1.2\lvgl\src\lv_draw/lv_draw_arc.c ****     bool (*deg_test)(uint16_t, uint16_t, uint16_t);
  75:..\..\..\lvgl\version_6.1.2\lvgl\src\lv_draw/lv_draw_arc.c ****     if(start_angle <= end_angle)
  76:..\..\..\lvgl\version_6.1.2\lvgl\src\lv_draw/lv_draw_arc.c ****         deg_test = deg_test_norm;
  77:..\..\..\lvgl\version_6.1.2\lvgl\src\lv_draw/lv_draw_arc.c ****     else
  78:..\..\..\lvgl\version_6.1.2\lvgl\src\lv_draw/lv_draw_arc.c ****         deg_test = deg_test_inv;
  79:..\..\..\lvgl\version_6.1.2\lvgl\src\lv_draw/lv_draw_arc.c **** 
  80:..\..\..\lvgl\version_6.1.2\lvgl\src\lv_draw/lv_draw_arc.c ****     int middle_r_out = r_out;
  81:..\..\..\lvgl\version_6.1.2\lvgl\src\lv_draw/lv_draw_arc.c **** #if !LV_ANTIALIAS
  82:..\..\..\lvgl\version_6.1.2\lvgl\src\lv_draw/lv_draw_arc.c ****     thickness--;
  83:..\..\..\lvgl\version_6.1.2\lvgl\src\lv_draw/lv_draw_arc.c ****     middle_r_out = r_out - 1;
  84:..\..\..\lvgl\version_6.1.2\lvgl\src\lv_draw/lv_draw_arc.c **** #endif
  85:..\..\..\lvgl\version_6.1.2\lvgl\src\lv_draw/lv_draw_arc.c ****     if(deg_test(270, start_angle, end_angle))
  86:..\..\..\lvgl\version_6.1.2\lvgl\src\lv_draw/lv_draw_arc.c ****         hor_line(center_x - middle_r_out, center_y, mask, thickness, color, opa); /*Left Middle*/
  87:..\..\..\lvgl\version_6.1.2\lvgl\src\lv_draw/lv_draw_arc.c ****     if(deg_test(90, start_angle, end_angle))
ARM GAS  C:\Users\pearlstl\AppData\Local\Temp\ccSsDheA.s 			page 3


  88:..\..\..\lvgl\version_6.1.2\lvgl\src\lv_draw/lv_draw_arc.c ****         hor_line(center_x + r_in, center_y, mask, thickness, color, opa); /*Right Middle*/
  89:..\..\..\lvgl\version_6.1.2\lvgl\src\lv_draw/lv_draw_arc.c ****     if(deg_test(180, start_angle, end_angle))
  90:..\..\..\lvgl\version_6.1.2\lvgl\src\lv_draw/lv_draw_arc.c ****         ver_line(center_x, center_y - middle_r_out, mask, thickness, color, opa); /*Top Middle*/
  91:..\..\..\lvgl\version_6.1.2\lvgl\src\lv_draw/lv_draw_arc.c ****     if(deg_test(0, start_angle, end_angle))
  92:..\..\..\lvgl\version_6.1.2\lvgl\src\lv_draw/lv_draw_arc.c ****         ver_line(center_x, center_y + r_in, mask, thickness, color, opa); /*Bottom middle*/
  93:..\..\..\lvgl\version_6.1.2\lvgl\src\lv_draw/lv_draw_arc.c **** 
  94:..\..\..\lvgl\version_6.1.2\lvgl\src\lv_draw/lv_draw_arc.c ****     uint32_t r_out_sqr = r_out * r_out;
  95:..\..\..\lvgl\version_6.1.2\lvgl\src\lv_draw/lv_draw_arc.c ****     uint32_t r_in_sqr  = r_in * r_in;
  96:..\..\..\lvgl\version_6.1.2\lvgl\src\lv_draw/lv_draw_arc.c **** #if LV_ANTIALIAS
  97:..\..\..\lvgl\version_6.1.2\lvgl\src\lv_draw/lv_draw_arc.c ****     uint32_t r_out_aa_sqr = (r_out + 1) * (r_out + 1);
  98:..\..\..\lvgl\version_6.1.2\lvgl\src\lv_draw/lv_draw_arc.c ****     uint32_t r_in_aa_sqr  = (r_in - 1) * (r_in - 1);
  99:..\..\..\lvgl\version_6.1.2\lvgl\src\lv_draw/lv_draw_arc.c **** #endif
 100:..\..\..\lvgl\version_6.1.2\lvgl\src\lv_draw/lv_draw_arc.c ****     int16_t xi;
 101:..\..\..\lvgl\version_6.1.2\lvgl\src\lv_draw/lv_draw_arc.c ****     int16_t yi;
 102:..\..\..\lvgl\version_6.1.2\lvgl\src\lv_draw/lv_draw_arc.c ****     for(yi = -r_out; yi < 0; yi++) {
 103:..\..\..\lvgl\version_6.1.2\lvgl\src\lv_draw/lv_draw_arc.c ****         x_start[0] = LV_COORD_MIN;
 104:..\..\..\lvgl\version_6.1.2\lvgl\src\lv_draw/lv_draw_arc.c ****         x_start[1] = LV_COORD_MIN;
 105:..\..\..\lvgl\version_6.1.2\lvgl\src\lv_draw/lv_draw_arc.c ****         x_start[2] = LV_COORD_MIN;
 106:..\..\..\lvgl\version_6.1.2\lvgl\src\lv_draw/lv_draw_arc.c ****         x_start[3] = LV_COORD_MIN;
 107:..\..\..\lvgl\version_6.1.2\lvgl\src\lv_draw/lv_draw_arc.c ****         x_end[0]   = LV_COORD_MIN;
 108:..\..\..\lvgl\version_6.1.2\lvgl\src\lv_draw/lv_draw_arc.c ****         x_end[1]   = LV_COORD_MIN;
 109:..\..\..\lvgl\version_6.1.2\lvgl\src\lv_draw/lv_draw_arc.c ****         x_end[2]   = LV_COORD_MIN;
 110:..\..\..\lvgl\version_6.1.2\lvgl\src\lv_draw/lv_draw_arc.c ****         x_end[3]   = LV_COORD_MIN;
 111:..\..\..\lvgl\version_6.1.2\lvgl\src\lv_draw/lv_draw_arc.c ****         int xe     = 0;
 112:..\..\..\lvgl\version_6.1.2\lvgl\src\lv_draw/lv_draw_arc.c ****         for(xi = -r_out; xi < 0; xi++) {
 113:..\..\..\lvgl\version_6.1.2\lvgl\src\lv_draw/lv_draw_arc.c **** 
 114:..\..\..\lvgl\version_6.1.2\lvgl\src\lv_draw/lv_draw_arc.c ****             uint32_t r_act_sqr = xi * xi + yi * yi;
 115:..\..\..\lvgl\version_6.1.2\lvgl\src\lv_draw/lv_draw_arc.c **** #if LV_ANTIALIAS
 116:..\..\..\lvgl\version_6.1.2\lvgl\src\lv_draw/lv_draw_arc.c ****             if(r_act_sqr > r_out_aa_sqr) {
 117:..\..\..\lvgl\version_6.1.2\lvgl\src\lv_draw/lv_draw_arc.c ****                 continue;
 118:..\..\..\lvgl\version_6.1.2\lvgl\src\lv_draw/lv_draw_arc.c ****             }
 119:..\..\..\lvgl\version_6.1.2\lvgl\src\lv_draw/lv_draw_arc.c **** #else
 120:..\..\..\lvgl\version_6.1.2\lvgl\src\lv_draw/lv_draw_arc.c ****             if(r_act_sqr > r_out_sqr) continue;
 121:..\..\..\lvgl\version_6.1.2\lvgl\src\lv_draw/lv_draw_arc.c **** #endif
 122:..\..\..\lvgl\version_6.1.2\lvgl\src\lv_draw/lv_draw_arc.c **** 
 123:..\..\..\lvgl\version_6.1.2\lvgl\src\lv_draw/lv_draw_arc.c ****             deg_base = lv_atan2(xi, yi) - 180;
 124:..\..\..\lvgl\version_6.1.2\lvgl\src\lv_draw/lv_draw_arc.c **** 
 125:..\..\..\lvgl\version_6.1.2\lvgl\src\lv_draw/lv_draw_arc.c **** #if LV_ANTIALIAS
 126:..\..\..\lvgl\version_6.1.2\lvgl\src\lv_draw/lv_draw_arc.c ****             int opa2 = -1;
 127:..\..\..\lvgl\version_6.1.2\lvgl\src\lv_draw/lv_draw_arc.c ****             if(r_act_sqr > r_out_sqr) {
 128:..\..\..\lvgl\version_6.1.2\lvgl\src\lv_draw/lv_draw_arc.c ****                 opa2 = LV_OPA_100 * (r_out + 1) - lv_sqrt(LV_OPA_100 * LV_OPA_100 * r_act_sqr);
 129:..\..\..\lvgl\version_6.1.2\lvgl\src\lv_draw/lv_draw_arc.c ****                 if(opa2 < LV_OPA_0)
 130:..\..\..\lvgl\version_6.1.2\lvgl\src\lv_draw/lv_draw_arc.c ****                     opa2 = LV_OPA_0;
 131:..\..\..\lvgl\version_6.1.2\lvgl\src\lv_draw/lv_draw_arc.c ****                 else if(opa2 > LV_OPA_100)
 132:..\..\..\lvgl\version_6.1.2\lvgl\src\lv_draw/lv_draw_arc.c ****                     opa2 = LV_OPA_100;
 133:..\..\..\lvgl\version_6.1.2\lvgl\src\lv_draw/lv_draw_arc.c ****             } else if(r_act_sqr < r_in_sqr) {
 134:..\..\..\lvgl\version_6.1.2\lvgl\src\lv_draw/lv_draw_arc.c ****                 if(xe == 0) xe = xi;
 135:..\..\..\lvgl\version_6.1.2\lvgl\src\lv_draw/lv_draw_arc.c ****                 opa2 = lv_sqrt(LV_OPA_100 * LV_OPA_100 * r_act_sqr) - LV_OPA_100 * (r_in - 1);
 136:..\..\..\lvgl\version_6.1.2\lvgl\src\lv_draw/lv_draw_arc.c ****                 if(opa2 < LV_OPA_0)
 137:..\..\..\lvgl\version_6.1.2\lvgl\src\lv_draw/lv_draw_arc.c ****                     opa2 = LV_OPA_0;
 138:..\..\..\lvgl\version_6.1.2\lvgl\src\lv_draw/lv_draw_arc.c ****                 else if(opa2 > LV_OPA_100)
 139:..\..\..\lvgl\version_6.1.2\lvgl\src\lv_draw/lv_draw_arc.c ****                     opa2 = LV_OPA_100;
 140:..\..\..\lvgl\version_6.1.2\lvgl\src\lv_draw/lv_draw_arc.c ****                 if(r_act_sqr < r_in_aa_sqr)
 141:..\..\..\lvgl\version_6.1.2\lvgl\src\lv_draw/lv_draw_arc.c ****                     break; /*No need to continue the iteration in x once we found the inner edge of
 142:..\..\..\lvgl\version_6.1.2\lvgl\src\lv_draw/lv_draw_arc.c ****                               arc*/
 143:..\..\..\lvgl\version_6.1.2\lvgl\src\lv_draw/lv_draw_arc.c ****             }
 144:..\..\..\lvgl\version_6.1.2\lvgl\src\lv_draw/lv_draw_arc.c ****             if(opa2 != -1) {
ARM GAS  C:\Users\pearlstl\AppData\Local\Temp\ccSsDheA.s 			page 4


 145:..\..\..\lvgl\version_6.1.2\lvgl\src\lv_draw/lv_draw_arc.c ****                 if(deg_test(180 + deg_base, start_angle, end_angle)) {
 146:..\..\..\lvgl\version_6.1.2\lvgl\src\lv_draw/lv_draw_arc.c ****                     lv_draw_px(center_x + xi, center_y + yi, mask, color, opa2);
 147:..\..\..\lvgl\version_6.1.2\lvgl\src\lv_draw/lv_draw_arc.c ****                 }
 148:..\..\..\lvgl\version_6.1.2\lvgl\src\lv_draw/lv_draw_arc.c ****                 if(deg_test(360 - deg_base, start_angle, end_angle)) {
 149:..\..\..\lvgl\version_6.1.2\lvgl\src\lv_draw/lv_draw_arc.c ****                     lv_draw_px(center_x + xi, center_y - yi, mask, color, opa2);
 150:..\..\..\lvgl\version_6.1.2\lvgl\src\lv_draw/lv_draw_arc.c ****                 }
 151:..\..\..\lvgl\version_6.1.2\lvgl\src\lv_draw/lv_draw_arc.c ****                 if(deg_test(180 - deg_base, start_angle, end_angle)) {
 152:..\..\..\lvgl\version_6.1.2\lvgl\src\lv_draw/lv_draw_arc.c ****                     lv_draw_px(center_x - xi, center_y + yi, mask, color, opa2);
 153:..\..\..\lvgl\version_6.1.2\lvgl\src\lv_draw/lv_draw_arc.c ****                 }
 154:..\..\..\lvgl\version_6.1.2\lvgl\src\lv_draw/lv_draw_arc.c ****                 if(deg_test(deg_base, start_angle, end_angle)) {
 155:..\..\..\lvgl\version_6.1.2\lvgl\src\lv_draw/lv_draw_arc.c ****                     lv_draw_px(center_x - xi, center_y - yi, mask, color, opa2);
 156:..\..\..\lvgl\version_6.1.2\lvgl\src\lv_draw/lv_draw_arc.c ****                 }
 157:..\..\..\lvgl\version_6.1.2\lvgl\src\lv_draw/lv_draw_arc.c ****                 continue;
 158:..\..\..\lvgl\version_6.1.2\lvgl\src\lv_draw/lv_draw_arc.c ****             }
 159:..\..\..\lvgl\version_6.1.2\lvgl\src\lv_draw/lv_draw_arc.c **** #endif
 160:..\..\..\lvgl\version_6.1.2\lvgl\src\lv_draw/lv_draw_arc.c **** 
 161:..\..\..\lvgl\version_6.1.2\lvgl\src\lv_draw/lv_draw_arc.c ****             deg = 180 + deg_base;
 162:..\..\..\lvgl\version_6.1.2\lvgl\src\lv_draw/lv_draw_arc.c ****             if(deg_test(deg, start_angle, end_angle)) {
 163:..\..\..\lvgl\version_6.1.2\lvgl\src\lv_draw/lv_draw_arc.c ****                 if(x_start[0] == LV_COORD_MIN) x_start[0] = xi;
 164:..\..\..\lvgl\version_6.1.2\lvgl\src\lv_draw/lv_draw_arc.c ****             } else if(x_start[0] != LV_COORD_MIN && x_end[0] == LV_COORD_MIN) {
 165:..\..\..\lvgl\version_6.1.2\lvgl\src\lv_draw/lv_draw_arc.c ****                 x_end[0] = xi - 1;
 166:..\..\..\lvgl\version_6.1.2\lvgl\src\lv_draw/lv_draw_arc.c ****             }
 167:..\..\..\lvgl\version_6.1.2\lvgl\src\lv_draw/lv_draw_arc.c **** 
 168:..\..\..\lvgl\version_6.1.2\lvgl\src\lv_draw/lv_draw_arc.c ****             deg = 360 - deg_base;
 169:..\..\..\lvgl\version_6.1.2\lvgl\src\lv_draw/lv_draw_arc.c ****             if(deg_test(deg, start_angle, end_angle)) {
 170:..\..\..\lvgl\version_6.1.2\lvgl\src\lv_draw/lv_draw_arc.c ****                 if(x_start[1] == LV_COORD_MIN) x_start[1] = xi;
 171:..\..\..\lvgl\version_6.1.2\lvgl\src\lv_draw/lv_draw_arc.c ****             } else if(x_start[1] != LV_COORD_MIN && x_end[1] == LV_COORD_MIN) {
 172:..\..\..\lvgl\version_6.1.2\lvgl\src\lv_draw/lv_draw_arc.c ****                 x_end[1] = xi - 1;
 173:..\..\..\lvgl\version_6.1.2\lvgl\src\lv_draw/lv_draw_arc.c ****             }
 174:..\..\..\lvgl\version_6.1.2\lvgl\src\lv_draw/lv_draw_arc.c **** 
 175:..\..\..\lvgl\version_6.1.2\lvgl\src\lv_draw/lv_draw_arc.c ****             deg = 180 - deg_base;
 176:..\..\..\lvgl\version_6.1.2\lvgl\src\lv_draw/lv_draw_arc.c ****             if(deg_test(deg, start_angle, end_angle)) {
 177:..\..\..\lvgl\version_6.1.2\lvgl\src\lv_draw/lv_draw_arc.c ****                 if(x_start[2] == LV_COORD_MIN) x_start[2] = xi;
 178:..\..\..\lvgl\version_6.1.2\lvgl\src\lv_draw/lv_draw_arc.c ****             } else if(x_start[2] != LV_COORD_MIN && x_end[2] == LV_COORD_MIN) {
 179:..\..\..\lvgl\version_6.1.2\lvgl\src\lv_draw/lv_draw_arc.c ****                 x_end[2] = xi - 1;
 180:..\..\..\lvgl\version_6.1.2\lvgl\src\lv_draw/lv_draw_arc.c ****             }
 181:..\..\..\lvgl\version_6.1.2\lvgl\src\lv_draw/lv_draw_arc.c **** 
 182:..\..\..\lvgl\version_6.1.2\lvgl\src\lv_draw/lv_draw_arc.c ****             deg = deg_base;
 183:..\..\..\lvgl\version_6.1.2\lvgl\src\lv_draw/lv_draw_arc.c ****             if(deg_test(deg, start_angle, end_angle)) {
 184:..\..\..\lvgl\version_6.1.2\lvgl\src\lv_draw/lv_draw_arc.c ****                 if(x_start[3] == LV_COORD_MIN) x_start[3] = xi;
 185:..\..\..\lvgl\version_6.1.2\lvgl\src\lv_draw/lv_draw_arc.c ****             } else if(x_start[3] != LV_COORD_MIN && x_end[3] == LV_COORD_MIN) {
 186:..\..\..\lvgl\version_6.1.2\lvgl\src\lv_draw/lv_draw_arc.c ****                 x_end[3] = xi - 1;
 187:..\..\..\lvgl\version_6.1.2\lvgl\src\lv_draw/lv_draw_arc.c ****             }
 188:..\..\..\lvgl\version_6.1.2\lvgl\src\lv_draw/lv_draw_arc.c **** 
 189:..\..\..\lvgl\version_6.1.2\lvgl\src\lv_draw/lv_draw_arc.c ****             if(r_act_sqr < r_in_sqr) {
 190:..\..\..\lvgl\version_6.1.2\lvgl\src\lv_draw/lv_draw_arc.c ****                 xe = xi;
 191:..\..\..\lvgl\version_6.1.2\lvgl\src\lv_draw/lv_draw_arc.c ****                 break; /*No need to continue the iteration in x once we found the inner edge of the
 192:..\..\..\lvgl\version_6.1.2\lvgl\src\lv_draw/lv_draw_arc.c ****                           arc*/
 193:..\..\..\lvgl\version_6.1.2\lvgl\src\lv_draw/lv_draw_arc.c ****             }
 194:..\..\..\lvgl\version_6.1.2\lvgl\src\lv_draw/lv_draw_arc.c ****         }
 195:..\..\..\lvgl\version_6.1.2\lvgl\src\lv_draw/lv_draw_arc.c **** 
 196:..\..\..\lvgl\version_6.1.2\lvgl\src\lv_draw/lv_draw_arc.c ****         if(x_start[0] != LV_COORD_MIN) {
 197:..\..\..\lvgl\version_6.1.2\lvgl\src\lv_draw/lv_draw_arc.c ****             if(x_end[0] == LV_COORD_MIN) x_end[0] = xe - 1;
 198:..\..\..\lvgl\version_6.1.2\lvgl\src\lv_draw/lv_draw_arc.c ****             hor_line(center_x + x_start[0], center_y + yi, mask, x_end[0] - x_start[0], color, opa)
 199:..\..\..\lvgl\version_6.1.2\lvgl\src\lv_draw/lv_draw_arc.c ****         }
 200:..\..\..\lvgl\version_6.1.2\lvgl\src\lv_draw/lv_draw_arc.c **** 
 201:..\..\..\lvgl\version_6.1.2\lvgl\src\lv_draw/lv_draw_arc.c ****         if(x_start[1] != LV_COORD_MIN) {
ARM GAS  C:\Users\pearlstl\AppData\Local\Temp\ccSsDheA.s 			page 5


 202:..\..\..\lvgl\version_6.1.2\lvgl\src\lv_draw/lv_draw_arc.c ****             if(x_end[1] == LV_COORD_MIN) x_end[1] = xe - 1;
 203:..\..\..\lvgl\version_6.1.2\lvgl\src\lv_draw/lv_draw_arc.c ****             hor_line(center_x + x_start[1], center_y - yi, mask, x_end[1] - x_start[1], color, opa)
 204:..\..\..\lvgl\version_6.1.2\lvgl\src\lv_draw/lv_draw_arc.c ****         }
 205:..\..\..\lvgl\version_6.1.2\lvgl\src\lv_draw/lv_draw_arc.c **** 
 206:..\..\..\lvgl\version_6.1.2\lvgl\src\lv_draw/lv_draw_arc.c ****         if(x_start[2] != LV_COORD_MIN) {
 207:..\..\..\lvgl\version_6.1.2\lvgl\src\lv_draw/lv_draw_arc.c ****             if(x_end[2] == LV_COORD_MIN) x_end[2] = xe - 1;
 208:..\..\..\lvgl\version_6.1.2\lvgl\src\lv_draw/lv_draw_arc.c ****             hor_line(center_x - x_end[2], center_y + yi, mask, LV_MATH_ABS(x_end[2] - x_start[2]), 
 209:..\..\..\lvgl\version_6.1.2\lvgl\src\lv_draw/lv_draw_arc.c ****         }
 210:..\..\..\lvgl\version_6.1.2\lvgl\src\lv_draw/lv_draw_arc.c **** 
 211:..\..\..\lvgl\version_6.1.2\lvgl\src\lv_draw/lv_draw_arc.c ****         if(x_start[3] != LV_COORD_MIN) {
 212:..\..\..\lvgl\version_6.1.2\lvgl\src\lv_draw/lv_draw_arc.c ****             if(x_end[3] == LV_COORD_MIN) x_end[3] = xe - 1;
 213:..\..\..\lvgl\version_6.1.2\lvgl\src\lv_draw/lv_draw_arc.c ****             hor_line(center_x - x_end[3], center_y - yi, mask, LV_MATH_ABS(x_end[3] - x_start[3]), 
 214:..\..\..\lvgl\version_6.1.2\lvgl\src\lv_draw/lv_draw_arc.c ****         }
 215:..\..\..\lvgl\version_6.1.2\lvgl\src\lv_draw/lv_draw_arc.c ****     }
 216:..\..\..\lvgl\version_6.1.2\lvgl\src\lv_draw/lv_draw_arc.c **** }
 217:..\..\..\lvgl\version_6.1.2\lvgl\src\lv_draw/lv_draw_arc.c **** 
 218:..\..\..\lvgl\version_6.1.2\lvgl\src\lv_draw/lv_draw_arc.c **** /**********************
 219:..\..\..\lvgl\version_6.1.2\lvgl\src\lv_draw/lv_draw_arc.c ****  *   STATIC FUNCTIONS
 220:..\..\..\lvgl\version_6.1.2\lvgl\src\lv_draw/lv_draw_arc.c ****  **********************/
 221:..\..\..\lvgl\version_6.1.2\lvgl\src\lv_draw/lv_draw_arc.c **** static void ver_line(lv_coord_t x, lv_coord_t y, const lv_area_t * mask, lv_coord_t len, lv_color_t
 222:..\..\..\lvgl\version_6.1.2\lvgl\src\lv_draw/lv_draw_arc.c **** {
 223:..\..\..\lvgl\version_6.1.2\lvgl\src\lv_draw/lv_draw_arc.c ****     lv_area_t area;
 224:..\..\..\lvgl\version_6.1.2\lvgl\src\lv_draw/lv_draw_arc.c ****     lv_area_set(&area, x, y, x, y + len);
 225:..\..\..\lvgl\version_6.1.2\lvgl\src\lv_draw/lv_draw_arc.c **** 
 226:..\..\..\lvgl\version_6.1.2\lvgl\src\lv_draw/lv_draw_arc.c ****     lv_draw_fill(&area, mask, color, opa);
 227:..\..\..\lvgl\version_6.1.2\lvgl\src\lv_draw/lv_draw_arc.c **** }
 228:..\..\..\lvgl\version_6.1.2\lvgl\src\lv_draw/lv_draw_arc.c **** 
 229:..\..\..\lvgl\version_6.1.2\lvgl\src\lv_draw/lv_draw_arc.c **** static void hor_line(lv_coord_t x, lv_coord_t y, const lv_area_t * mask, lv_coord_t len, lv_color_t
 230:..\..\..\lvgl\version_6.1.2\lvgl\src\lv_draw/lv_draw_arc.c **** {
 231:..\..\..\lvgl\version_6.1.2\lvgl\src\lv_draw/lv_draw_arc.c ****     lv_area_t area;
 232:..\..\..\lvgl\version_6.1.2\lvgl\src\lv_draw/lv_draw_arc.c ****     lv_area_set(&area, x, y, x + len, y);
 233:..\..\..\lvgl\version_6.1.2\lvgl\src\lv_draw/lv_draw_arc.c **** 
 234:..\..\..\lvgl\version_6.1.2\lvgl\src\lv_draw/lv_draw_arc.c ****     lv_draw_fill(&area, mask, color, opa);
 235:..\..\..\lvgl\version_6.1.2\lvgl\src\lv_draw/lv_draw_arc.c **** }
 236:..\..\..\lvgl\version_6.1.2\lvgl\src\lv_draw/lv_draw_arc.c **** 
 237:..\..\..\lvgl\version_6.1.2\lvgl\src\lv_draw/lv_draw_arc.c **** static bool deg_test_norm(uint16_t deg, uint16_t start, uint16_t end)
 238:..\..\..\lvgl\version_6.1.2\lvgl\src\lv_draw/lv_draw_arc.c **** {
  28              		.loc 1 238 0
  29              		.cfi_startproc
  30              		@ args = 0, pretend = 0, frame = 0
  31              		@ frame_needed = 0, uses_anonymous_args = 0
  32              		@ link register save eliminated.
  33              	.LVL0:
 239:..\..\..\lvgl\version_6.1.2\lvgl\src\lv_draw/lv_draw_arc.c ****     if(deg >= start && deg <= end)
  34              		.loc 1 239 0
  35 0000 8842     		cmp	r0, r1
  36 0002 04D3     		bcc	.L3
  37              		.loc 1 239 0 is_stmt 0 discriminator 1
  38 0004 9042     		cmp	r0, r2
  39 0006 8CBF     		ite	hi
  40 0008 0020     		movhi	r0, #0
  41              	.LVL1:
  42 000a 0120     		movls	r0, #1
  43 000c 7047     		bx	lr
  44              	.LVL2:
  45              	.L3:
 240:..\..\..\lvgl\version_6.1.2\lvgl\src\lv_draw/lv_draw_arc.c ****         return true;
ARM GAS  C:\Users\pearlstl\AppData\Local\Temp\ccSsDheA.s 			page 6


 241:..\..\..\lvgl\version_6.1.2\lvgl\src\lv_draw/lv_draw_arc.c ****     else
 242:..\..\..\lvgl\version_6.1.2\lvgl\src\lv_draw/lv_draw_arc.c ****         return false;
  46              		.loc 1 242 0 is_stmt 1
  47 000e 0020     		movs	r0, #0
  48              	.LVL3:
 243:..\..\..\lvgl\version_6.1.2\lvgl\src\lv_draw/lv_draw_arc.c **** }
  49              		.loc 1 243 0
  50 0010 7047     		bx	lr
  51              		.cfi_endproc
  52              	.LFE34:
  53              		.size	deg_test_norm, .-deg_test_norm
  54 0012 00BF     		.section	.text.deg_test_inv,"ax",%progbits
  55              		.align	2
  56              		.thumb
  57              		.thumb_func
  58              		.type	deg_test_inv, %function
  59              	deg_test_inv:
  60              	.LFB35:
 244:..\..\..\lvgl\version_6.1.2\lvgl\src\lv_draw/lv_draw_arc.c **** 
 245:..\..\..\lvgl\version_6.1.2\lvgl\src\lv_draw/lv_draw_arc.c **** static bool deg_test_inv(uint16_t deg, uint16_t start, uint16_t end)
 246:..\..\..\lvgl\version_6.1.2\lvgl\src\lv_draw/lv_draw_arc.c **** {
  61              		.loc 1 246 0
  62              		.cfi_startproc
  63              		@ args = 0, pretend = 0, frame = 0
  64              		@ frame_needed = 0, uses_anonymous_args = 0
  65              		@ link register save eliminated.
  66              	.LVL4:
 247:..\..\..\lvgl\version_6.1.2\lvgl\src\lv_draw/lv_draw_arc.c ****     if(deg >= start || deg <= end) {
  67              		.loc 1 247 0
  68 0000 8842     		cmp	r0, r1
  69 0002 04D2     		bcs	.L7
  70              		.loc 1 247 0 is_stmt 0 discriminator 1
  71 0004 9042     		cmp	r0, r2
  72 0006 8CBF     		ite	hi
  73 0008 0020     		movhi	r0, #0
  74              	.LVL5:
  75 000a 0120     		movls	r0, #1
  76 000c 7047     		bx	lr
  77              	.LVL6:
  78              	.L7:
 248:..\..\..\lvgl\version_6.1.2\lvgl\src\lv_draw/lv_draw_arc.c ****         return true;
  79              		.loc 1 248 0 is_stmt 1
  80 000e 0120     		movs	r0, #1
  81              	.LVL7:
 249:..\..\..\lvgl\version_6.1.2\lvgl\src\lv_draw/lv_draw_arc.c ****     } else
 250:..\..\..\lvgl\version_6.1.2\lvgl\src\lv_draw/lv_draw_arc.c ****         return false;
 251:..\..\..\lvgl\version_6.1.2\lvgl\src\lv_draw/lv_draw_arc.c **** }
  82              		.loc 1 251 0
  83 0010 7047     		bx	lr
  84              		.cfi_endproc
  85              	.LFE35:
  86              		.size	deg_test_inv, .-deg_test_inv
  87 0012 00BF     		.section	.text.lv_draw_arc,"ax",%progbits
  88              		.align	2
  89              		.global	lv_draw_arc
  90              		.thumb
  91              		.thumb_func
ARM GAS  C:\Users\pearlstl\AppData\Local\Temp\ccSsDheA.s 			page 7


  92              		.type	lv_draw_arc, %function
  93              	lv_draw_arc:
  94              	.LFB31:
  55:..\..\..\lvgl\version_6.1.2\lvgl\src\lv_draw/lv_draw_arc.c ****     lv_coord_t thickness = style->line.width;
  95              		.loc 1 55 0
  96              		.cfi_startproc
  97              		@ args = 16, pretend = 0, frame = 96
  98              		@ frame_needed = 0, uses_anonymous_args = 0
  99              	.LVL8:
 100 0000 2DE9F04F 		push	{r4, r5, r6, r7, r8, r9, r10, fp, lr}
 101              		.cfi_def_cfa_offset 36
 102              		.cfi_offset 4, -36
 103              		.cfi_offset 5, -32
 104              		.cfi_offset 6, -28
 105              		.cfi_offset 7, -24
 106              		.cfi_offset 8, -20
 107              		.cfi_offset 9, -16
 108              		.cfi_offset 10, -12
 109              		.cfi_offset 11, -8
 110              		.cfi_offset 14, -4
 111 0004 9BB0     		sub	sp, sp, #108
 112              		.cfi_def_cfa_offset 144
  55:..\..\..\lvgl\version_6.1.2\lvgl\src\lv_draw/lv_draw_arc.c ****     lv_coord_t thickness = style->line.width;
 113              		.loc 1 55 0
 114 0006 1446     		mov	r4, r2
 115 0008 DDF898E0 		ldr	lr, [sp, #152]
 116 000c 1693     		str	r3, [sp, #88]
  56:..\..\..\lvgl\version_6.1.2\lvgl\src\lv_draw/lv_draw_arc.c ****     if(thickness > radius) thickness = radius;
 117              		.loc 1 56 0
 118 000e BEF94C70 		ldrsh	r7, [lr, #76]
 119              	.LVL9:
  55:..\..\..\lvgl\version_6.1.2\lvgl\src\lv_draw/lv_draw_arc.c ****     lv_coord_t thickness = style->line.width;
 120              		.loc 1 55 0
 121 0012 9DF89CC0 		ldrb	ip, [sp, #156]	@ zero_extendqisi2
 122 0016 BDF890B0 		ldrh	fp, [sp, #144]
 123 001a BDF894A0 		ldrh	r10, [sp, #148]
 124 001e 1590     		str	r0, [sp, #84]
  57:..\..\..\lvgl\version_6.1.2\lvgl\src\lv_draw/lv_draw_arc.c **** 
 125              		.loc 1 57 0
 126 0020 9742     		cmp	r7, r2
 127 0022 C8BF     		it	gt
 128 0024 17B2     		sxthgt	r7, r2
 129              	.LVL10:
  65:..\..\..\lvgl\version_6.1.2\lvgl\src\lv_draw/lv_draw_arc.c ****     int16_t deg_base;
 130              		.loc 1 65 0
 131 0026 1FFA87F9 		uxth	r9, r7
 132 002a C9EB0208 		rsb	r8, r9, r2
 133 002e 1FFA88F3 		uxth	r3, r8
 134              	.LVL11:
 135 0032 0493     		str	r3, [sp, #16]
 136 0034 0FFA83F8 		sxth	r8, r3
  71:..\..\..\lvgl\version_6.1.2\lvgl\src\lv_draw/lv_draw_arc.c ****     lv_opa_t opa = opa_scale == LV_OPA_COVER ? style->body.opa : (uint16_t)((uint16_t)style->body.o
 137              		.loc 1 71 0
 138 0038 DEF84830 		ldr	r3, [lr, #72]
 139              	.LVL12:
 140 003c 1493     		str	r3, [sp, #80]
  72:..\..\..\lvgl\version_6.1.2\lvgl\src\lv_draw/lv_draw_arc.c **** 
ARM GAS  C:\Users\pearlstl\AppData\Local\Temp\ccSsDheA.s 			page 8


 141              		.loc 1 72 0
 142 003e 9EF80E30 		ldrb	r3, [lr, #14]	@ zero_extendqisi2
 143              	.LVL13:
 144 0042 D4BF     		ite	le
 145 0044 16B2     		sxthle	r6, r2
  57:..\..\..\lvgl\version_6.1.2\lvgl\src\lv_draw/lv_draw_arc.c **** 
 146              		.loc 1 57 0
 147 0046 3E46     		movgt	r6, r7
 148              	.LVL14:
  72:..\..\..\lvgl\version_6.1.2\lvgl\src\lv_draw/lv_draw_arc.c **** 
 149              		.loc 1 72 0
 150 0048 BCF1FF0F 		cmp	ip, #255
 151 004c 1CBF     		itt	ne
 152 004e 03FB0CFC 		mulne	ip, r3, ip
 153 0052 CCF30723 		ubfxne	r3, ip, #8, #8
 154 0056 1393     		str	r3, [sp, #76]
 155              	.LVL15:
  76:..\..\..\lvgl\version_6.1.2\lvgl\src\lv_draw/lv_draw_arc.c ****     else
 156              		.loc 1 76 0
 157 0058 A74A     		ldr	r2, .L71
 158              	.LVL16:
 159 005a A84B     		ldr	r3, .L71+4
 160 005c D345     		cmp	fp, r10
 161 005e 98BF     		it	ls
 162 0060 1A46     		movls	r2, r3
  55:..\..\..\lvgl\version_6.1.2\lvgl\src\lv_draw/lv_draw_arc.c ****     lv_coord_t thickness = style->line.width;
 163              		.loc 1 55 0
 164 0062 0D46     		mov	r5, r1
  82:..\..\..\lvgl\version_6.1.2\lvgl\src\lv_draw/lv_draw_arc.c ****     middle_r_out = r_out - 1;
 165              		.loc 1 82 0
 166 0064 09F1FF39 		add	r9, r9, #-1
  76:..\..\..\lvgl\version_6.1.2\lvgl\src\lv_draw/lv_draw_arc.c ****     else
 167              		.loc 1 76 0
 168 0068 1346     		mov	r3, r2
 169 006a 0392     		str	r2, [sp, #12]
 170              	.LVL17:
  85:..\..\..\lvgl\version_6.1.2\lvgl\src\lv_draw/lv_draw_arc.c ****         hor_line(center_x - middle_r_out, center_y, mask, thickness, color, opa); /*Left Middle*/
 171              		.loc 1 85 0
 172 006c 5946     		mov	r1, fp
 173              	.LVL18:
 174 006e 5246     		mov	r2, r10
 175              	.LVL19:
 176 0070 4FF48770 		mov	r0, #270
 177              	.LVL20:
  82:..\..\..\lvgl\version_6.1.2\lvgl\src\lv_draw/lv_draw_arc.c ****     middle_r_out = r_out - 1;
 178              		.loc 1 82 0
 179 0074 1FFA89F9 		uxth	r9, r9
 180              	.LVL21:
  83:..\..\..\lvgl\version_6.1.2\lvgl\src\lv_draw/lv_draw_arc.c **** #endif
 181              		.loc 1 83 0
 182 0078 771E     		subs	r7, r6, #1
 183              	.LVL22:
  85:..\..\..\lvgl\version_6.1.2\lvgl\src\lv_draw/lv_draw_arc.c ****         hor_line(center_x - middle_r_out, center_y, mask, thickness, color, opa); /*Left Middle*/
 184              		.loc 1 85 0
 185 007a 9847     		blx	r3
 186              	.LVL23:
 187 007c 0028     		cmp	r0, #0
ARM GAS  C:\Users\pearlstl\AppData\Local\Temp\ccSsDheA.s 			page 9


 188 007e 40F06381 		bne	.L62
 189              	.L14:
  87:..\..\..\lvgl\version_6.1.2\lvgl\src\lv_draw/lv_draw_arc.c ****         hor_line(center_x + r_in, center_y, mask, thickness, color, opa); /*Right Middle*/
 190              		.loc 1 87 0
 191 0082 5246     		mov	r2, r10
 192 0084 5946     		mov	r1, fp
 193 0086 5A20     		movs	r0, #90
 194 0088 039B     		ldr	r3, [sp, #12]
 195 008a 9847     		blx	r3
 196              	.LVL24:
 197 008c 0028     		cmp	r0, #0
 198 008e 40F09581 		bne	.L63
 199              	.L15:
  89:..\..\..\lvgl\version_6.1.2\lvgl\src\lv_draw/lv_draw_arc.c ****         ver_line(center_x, center_y - middle_r_out, mask, thickness, color, opa); /*Top Middle*/
 200              		.loc 1 89 0
 201 0092 5246     		mov	r2, r10
 202 0094 5946     		mov	r1, fp
 203 0096 B420     		movs	r0, #180
 204 0098 039B     		ldr	r3, [sp, #12]
 205 009a 9847     		blx	r3
 206              	.LVL25:
 207 009c 0028     		cmp	r0, #0
 208 009e 40F07A81 		bne	.L64
 209              	.L16:
  91:..\..\..\lvgl\version_6.1.2\lvgl\src\lv_draw/lv_draw_arc.c ****         ver_line(center_x, center_y + r_in, mask, thickness, color, opa); /*Bottom middle*/
 210              		.loc 1 91 0
 211 00a2 5246     		mov	r2, r10
 212 00a4 5946     		mov	r1, fp
 213 00a6 0020     		movs	r0, #0
 214 00a8 039B     		ldr	r3, [sp, #12]
 215 00aa 9847     		blx	r3
 216              	.LVL26:
 217 00ac 0028     		cmp	r0, #0
 218 00ae 40F05E81 		bne	.L65
 219              	.L17:
 102:..\..\..\lvgl\version_6.1.2\lvgl\src\lv_draw/lv_draw_arc.c ****         x_start[0] = LV_COORD_MIN;
 220              		.loc 1 102 0
 221 00b2 6342     		negs	r3, r4
 222 00b4 1BB2     		sxth	r3, r3
  94:..\..\..\lvgl\version_6.1.2\lvgl\src\lv_draw/lv_draw_arc.c ****     uint32_t r_in_sqr  = r_in * r_in;
 223              		.loc 1 94 0
 224 00b6 06FB06F2 		mul	r2, r6, r6
 225 00ba 0692     		str	r2, [sp, #24]
 226              	.LVL27:
 102:..\..\..\lvgl\version_6.1.2\lvgl\src\lv_draw/lv_draw_arc.c ****         x_start[0] = LV_COORD_MIN;
 227              		.loc 1 102 0
 228 00bc 002B     		cmp	r3, #0
  95:..\..\..\lvgl\version_6.1.2\lvgl\src\lv_draw/lv_draw_arc.c **** #if LV_ANTIALIAS
 229              		.loc 1 95 0
 230 00be 08FB08F2 		mul	r2, r8, r8
 231              	.LVL28:
 102:..\..\..\lvgl\version_6.1.2\lvgl\src\lv_draw/lv_draw_arc.c ****         x_start[0] = LV_COORD_MIN;
 232              		.loc 1 102 0
 233 00c2 0B93     		str	r3, [sp, #44]
  95:..\..\..\lvgl\version_6.1.2\lvgl\src\lv_draw/lv_draw_arc.c **** #if LV_ANTIALIAS
 234              		.loc 1 95 0
 235 00c4 0C92     		str	r2, [sp, #48]
ARM GAS  C:\Users\pearlstl\AppData\Local\Temp\ccSsDheA.s 			page 10


 236              	.LVL29:
 102:..\..\..\lvgl\version_6.1.2\lvgl\src\lv_draw/lv_draw_arc.c ****         x_start[0] = LV_COORD_MIN;
 237              		.loc 1 102 0
 238 00c6 80F2F380 		bge	.L8
 239 00ca 6319     		adds	r3, r4, r5
 240              	.LVL30:
 241 00cc 9BB2     		uxth	r3, r3
 242 00ce 2D1B     		subs	r5, r5, r4
 243 00d0 1193     		str	r3, [sp, #68]
 244 00d2 E443     		mvns	r4, r4
 245 00d4 ABB2     		uxth	r3, r5
 246 00d6 1293     		str	r3, [sp, #72]
  78:..\..\..\lvgl\version_6.1.2\lvgl\src\lv_draw/lv_draw_arc.c **** 
 247              		.loc 1 78 0 discriminator 1
 248 00d8 DFF82482 		ldr	r8, .L71+8
 249              	.LVL31:
 250 00dc A3B2     		uxth	r3, r4
 251 00de 1793     		str	r3, [sp, #92]
 252              	.LVL32:
 253              	.L39:
 254 00e0 0B9A     		ldr	r2, [sp, #44]
 255 00e2 874B     		ldr	r3, .L71+8
 256 00e4 1093     		str	r3, [sp, #64]
 257 00e6 02FB02F2 		mul	r2, r2, r2
 258 00ea 0592     		str	r2, [sp, #20]
 259 00ec 0F93     		str	r3, [sp, #60]
 260 00ee 0E93     		str	r3, [sp, #56]
 261 00f0 0A93     		str	r3, [sp, #40]
 262 00f2 0993     		str	r3, [sp, #36]
 263 00f4 0893     		str	r3, [sp, #32]
 264 00f6 0793     		str	r3, [sp, #28]
 265 00f8 0D93     		str	r3, [sp, #52]
 266 00fa DDF85C90 		ldr	r9, [sp, #92]
 267 00fe 05E0     		b	.L30
 268              	.LVL33:
 269              	.L20:
 270              	.LBB20:
 112:..\..\..\lvgl\version_6.1.2\lvgl\src\lv_draw/lv_draw_arc.c **** 
 271              		.loc 1 112 0 discriminator 2
 272 0100 4FF6FF73 		movw	r3, #65535
 273 0104 9C42     		cmp	r4, r3
 274 0106 A146     		mov	r9, r4
 275 0108 00F00781 		beq	.L66
 276              	.LVL34:
 277              	.L30:
 278 010c 09F10104 		add	r4, r9, #1
 279              	.LBB21:
 114:..\..\..\lvgl\version_6.1.2\lvgl\src\lv_draw/lv_draw_arc.c **** #if LV_ANTIALIAS
 280              		.loc 1 114 0
 281 0110 059B     		ldr	r3, [sp, #20]
 282 0112 A4B2     		uxth	r4, r4
 283 0114 25B2     		sxth	r5, r4
 284              	.LVL35:
 285 0116 05FB0536 		mla	r6, r5, r5, r3
 286              	.LVL36:
 120:..\..\..\lvgl\version_6.1.2\lvgl\src\lv_draw/lv_draw_arc.c **** #endif
 287              		.loc 1 120 0
ARM GAS  C:\Users\pearlstl\AppData\Local\Temp\ccSsDheA.s 			page 11


 288 011a 069B     		ldr	r3, [sp, #24]
 114:..\..\..\lvgl\version_6.1.2\lvgl\src\lv_draw/lv_draw_arc.c **** #if LV_ANTIALIAS
 289              		.loc 1 114 0
 290 011c 0495     		str	r5, [sp, #16]
 120:..\..\..\lvgl\version_6.1.2\lvgl\src\lv_draw/lv_draw_arc.c **** #endif
 291              		.loc 1 120 0
 292 011e B342     		cmp	r3, r6
 293 0120 EED3     		bcc	.L20
 123:..\..\..\lvgl\version_6.1.2\lvgl\src\lv_draw/lv_draw_arc.c **** 
 294              		.loc 1 123 0
 295 0122 0B99     		ldr	r1, [sp, #44]
 296 0124 2846     		mov	r0, r5
 297 0126 FFF7FEFF 		bl	lv_atan2
 298              	.LVL37:
 162:..\..\..\lvgl\version_6.1.2\lvgl\src\lv_draw/lv_draw_arc.c ****                 if(x_start[0] == LV_COORD_MIN) x_start[0] = xi;
 299              		.loc 1 162 0
 300 012a 5246     		mov	r2, r10
 123:..\..\..\lvgl\version_6.1.2\lvgl\src\lv_draw/lv_draw_arc.c **** 
 301              		.loc 1 123 0
 302 012c A0F1B407 		sub	r7, r0, #180
 162:..\..\..\lvgl\version_6.1.2\lvgl\src\lv_draw/lv_draw_arc.c ****                 if(x_start[0] == LV_COORD_MIN) x_start[0] = xi;
 303              		.loc 1 162 0
 304 0130 5946     		mov	r1, fp
 305 0132 039B     		ldr	r3, [sp, #12]
 123:..\..\..\lvgl\version_6.1.2\lvgl\src\lv_draw/lv_draw_arc.c **** 
 306              		.loc 1 123 0
 307 0134 BFB2     		uxth	r7, r7
 308              	.LVL38:
 162:..\..\..\lvgl\version_6.1.2\lvgl\src\lv_draw/lv_draw_arc.c ****                 if(x_start[0] == LV_COORD_MIN) x_start[0] = xi;
 309              		.loc 1 162 0
 310 0136 9847     		blx	r3
 311              	.LVL39:
 312 0138 0028     		cmp	r0, #0
 313 013a 00F0C780 		beq	.L21
 314 013e 0A9A     		ldr	r2, [sp, #40]
 315 0140 1346     		mov	r3, r2
 316 0142 4245     		cmp	r2, r8
 317 0144 08BF     		it	eq
 318 0146 2B46     		moveq	r3, r5
 319 0148 0A93     		str	r3, [sp, #40]
 320              	.LVL40:
 321              	.L22:
 169:..\..\..\lvgl\version_6.1.2\lvgl\src\lv_draw/lv_draw_arc.c ****                 if(x_start[1] == LV_COORD_MIN) x_start[1] = xi;
 322              		.loc 1 169 0
 323 014a C7F5B470 		rsb	r0, r7, #360
 324 014e 80B2     		uxth	r0, r0
 325 0150 5246     		mov	r2, r10
 326 0152 5946     		mov	r1, fp
 327 0154 039B     		ldr	r3, [sp, #12]
 328 0156 9847     		blx	r3
 329              	.LVL41:
 330 0158 0028     		cmp	r0, #0
 331 015a 00F0AC80 		beq	.L23
 332 015e 099A     		ldr	r2, [sp, #36]
 333 0160 1346     		mov	r3, r2
 334 0162 4245     		cmp	r2, r8
 335 0164 08BF     		it	eq
ARM GAS  C:\Users\pearlstl\AppData\Local\Temp\ccSsDheA.s 			page 12


 336 0166 2B46     		moveq	r3, r5
 337 0168 0993     		str	r3, [sp, #36]
 338              	.LVL42:
 339              	.L24:
 176:..\..\..\lvgl\version_6.1.2\lvgl\src\lv_draw/lv_draw_arc.c ****                 if(x_start[2] == LV_COORD_MIN) x_start[2] = xi;
 340              		.loc 1 176 0
 341 016a C7F1B400 		rsb	r0, r7, #180
 342 016e 80B2     		uxth	r0, r0
 343 0170 5246     		mov	r2, r10
 344 0172 5946     		mov	r1, fp
 345 0174 039B     		ldr	r3, [sp, #12]
 346 0176 9847     		blx	r3
 347              	.LVL43:
 348 0178 0028     		cmp	r0, #0
 349 017a 00F0C380 		beq	.L25
 350 017e 089A     		ldr	r2, [sp, #32]
 351 0180 1346     		mov	r3, r2
 352 0182 4245     		cmp	r2, r8
 353 0184 08BF     		it	eq
 354 0186 2B46     		moveq	r3, r5
 355 0188 0893     		str	r3, [sp, #32]
 356              	.LVL44:
 357              	.L26:
 183:..\..\..\lvgl\version_6.1.2\lvgl\src\lv_draw/lv_draw_arc.c ****                 if(x_start[3] == LV_COORD_MIN) x_start[3] = xi;
 358              		.loc 1 183 0
 359 018a 3846     		mov	r0, r7
 360 018c 5246     		mov	r2, r10
 361 018e 5946     		mov	r1, fp
 362 0190 039B     		ldr	r3, [sp, #12]
 363 0192 9847     		blx	r3
 364              	.LVL45:
 365 0194 0028     		cmp	r0, #0
 366 0196 00F0A480 		beq	.L27
 367 019a 079A     		ldr	r2, [sp, #28]
 368 019c 1346     		mov	r3, r2
 369 019e 4245     		cmp	r2, r8
 370 01a0 08BF     		it	eq
 371 01a2 2B46     		moveq	r3, r5
 372 01a4 0793     		str	r3, [sp, #28]
 373              	.LVL46:
 374              	.L28:
 189:..\..\..\lvgl\version_6.1.2\lvgl\src\lv_draw/lv_draw_arc.c ****                 xe = xi;
 375              		.loc 1 189 0
 376 01a6 0C9B     		ldr	r3, [sp, #48]
 377 01a8 B342     		cmp	r3, r6
 378 01aa A9D9     		bls	.L20
 379              	.LVL47:
 380              	.L29:
 381              	.LBE21:
 196:..\..\..\lvgl\version_6.1.2\lvgl\src\lv_draw/lv_draw_arc.c ****             if(x_end[0] == LV_COORD_MIN) x_end[0] = xe - 1;
 382              		.loc 1 196 0
 383 01ac 0A9B     		ldr	r3, [sp, #40]
 384 01ae 4345     		cmp	r3, r8
 385 01b0 16D0     		beq	.L31
 197:..\..\..\lvgl\version_6.1.2\lvgl\src\lv_draw/lv_draw_arc.c ****             hor_line(center_x + x_start[0], center_y + yi, mask, x_end[0] - x_start[0], color, opa)
 386              		.loc 1 197 0
 387 01b2 0D9B     		ldr	r3, [sp, #52]
ARM GAS  C:\Users\pearlstl\AppData\Local\Temp\ccSsDheA.s 			page 13


 388 01b4 4345     		cmp	r3, r8
 389 01b6 00F0BD80 		beq	.L67
 390              	.L32:
 198:..\..\..\lvgl\version_6.1.2\lvgl\src\lv_draw/lv_draw_arc.c ****         }
 391              		.loc 1 198 0
 392 01ba BDF85410 		ldrh	r1, [sp, #84]
 393              	.LBB22:
 394              	.LBB23:
 232:..\..\..\lvgl\version_6.1.2\lvgl\src\lv_draw/lv_draw_arc.c **** 
 395              		.loc 1 232 0
 396 01be 0A9A     		ldr	r2, [sp, #40]
 397 01c0 0B44     		add	r3, r3, r1
 398 01c2 1144     		add	r1, r1, r2
 399              	.LBE23:
 400              	.LBE22:
 198:..\..\..\lvgl\version_6.1.2\lvgl\src\lv_draw/lv_draw_arc.c ****         }
 401              		.loc 1 198 0
 402 01c4 BDF94820 		ldrsh	r2, [sp, #72]
 403              	.LVL48:
 404              	.LBB25:
 405              	.LBB24:
 232:..\..\..\lvgl\version_6.1.2\lvgl\src\lv_draw/lv_draw_arc.c **** 
 406              		.loc 1 232 0
 407 01c8 0092     		str	r2, [sp]
 408 01ca 1BB2     		sxth	r3, r3
 409 01cc 09B2     		sxth	r1, r1
 410 01ce 18A8     		add	r0, sp, #96
 411 01d0 FFF7FEFF 		bl	lv_area_set
 412              	.LVL49:
 234:..\..\..\lvgl\version_6.1.2\lvgl\src\lv_draw/lv_draw_arc.c **** }
 413              		.loc 1 234 0
 414 01d4 139B     		ldr	r3, [sp, #76]
 415 01d6 149A     		ldr	r2, [sp, #80]
 416 01d8 1699     		ldr	r1, [sp, #88]
 417 01da 18A8     		add	r0, sp, #96
 418 01dc FFF7FEFF 		bl	lv_draw_fill
 419              	.LVL50:
 420              	.L31:
 421              	.LBE24:
 422              	.LBE25:
 201:..\..\..\lvgl\version_6.1.2\lvgl\src\lv_draw/lv_draw_arc.c ****             if(x_end[1] == LV_COORD_MIN) x_end[1] = xe - 1;
 423              		.loc 1 201 0
 424 01e0 099B     		ldr	r3, [sp, #36]
 425 01e2 4345     		cmp	r3, r8
 426 01e4 16D0     		beq	.L33
 202:..\..\..\lvgl\version_6.1.2\lvgl\src\lv_draw/lv_draw_arc.c ****             hor_line(center_x + x_start[1], center_y - yi, mask, x_end[1] - x_start[1], color, opa)
 427              		.loc 1 202 0
 428 01e6 0E9B     		ldr	r3, [sp, #56]
 429 01e8 4345     		cmp	r3, r8
 430 01ea 00F0A880 		beq	.L68
 431              	.L34:
 203:..\..\..\lvgl\version_6.1.2\lvgl\src\lv_draw/lv_draw_arc.c ****         }
 432              		.loc 1 203 0
 433 01ee BDF85410 		ldrh	r1, [sp, #84]
 434              	.LBB26:
 435              	.LBB27:
 232:..\..\..\lvgl\version_6.1.2\lvgl\src\lv_draw/lv_draw_arc.c **** 
ARM GAS  C:\Users\pearlstl\AppData\Local\Temp\ccSsDheA.s 			page 14


 436              		.loc 1 232 0
 437 01f2 099A     		ldr	r2, [sp, #36]
 438 01f4 0B44     		add	r3, r3, r1
 439 01f6 1144     		add	r1, r1, r2
 440              	.LBE27:
 441              	.LBE26:
 203:..\..\..\lvgl\version_6.1.2\lvgl\src\lv_draw/lv_draw_arc.c ****         }
 442              		.loc 1 203 0
 443 01f8 BDF94420 		ldrsh	r2, [sp, #68]
 444              	.LVL51:
 445              	.LBB29:
 446              	.LBB28:
 232:..\..\..\lvgl\version_6.1.2\lvgl\src\lv_draw/lv_draw_arc.c **** 
 447              		.loc 1 232 0
 448 01fc 0092     		str	r2, [sp]
 449 01fe 1BB2     		sxth	r3, r3
 450 0200 09B2     		sxth	r1, r1
 451 0202 18A8     		add	r0, sp, #96
 452 0204 FFF7FEFF 		bl	lv_area_set
 453              	.LVL52:
 234:..\..\..\lvgl\version_6.1.2\lvgl\src\lv_draw/lv_draw_arc.c **** }
 454              		.loc 1 234 0
 455 0208 139B     		ldr	r3, [sp, #76]
 456 020a 149A     		ldr	r2, [sp, #80]
 457 020c 1699     		ldr	r1, [sp, #88]
 458 020e 18A8     		add	r0, sp, #96
 459 0210 FFF7FEFF 		bl	lv_draw_fill
 460              	.LVL53:
 461              	.L33:
 462              	.LBE28:
 463              	.LBE29:
 206:..\..\..\lvgl\version_6.1.2\lvgl\src\lv_draw/lv_draw_arc.c ****             if(x_end[2] == LV_COORD_MIN) x_end[2] = xe - 1;
 464              		.loc 1 206 0
 465 0214 089B     		ldr	r3, [sp, #32]
 466 0216 4345     		cmp	r3, r8
 467 0218 1BD0     		beq	.L35
 207:..\..\..\lvgl\version_6.1.2\lvgl\src\lv_draw/lv_draw_arc.c ****             hor_line(center_x - x_end[2], center_y + yi, mask, LV_MATH_ABS(x_end[2] - x_start[2]), 
 468              		.loc 1 207 0
 469 021a 0F9B     		ldr	r3, [sp, #60]
 470 021c 4345     		cmp	r3, r8
 471 021e 7FD0     		beq	.L69
 472              	.L36:
 473              	.LBB30:
 474              	.LBB31:
 232:..\..\..\lvgl\version_6.1.2\lvgl\src\lv_draw/lv_draw_arc.c **** 
 475              		.loc 1 232 0
 476 0220 0F9A     		ldr	r2, [sp, #60]
 477 0222 0899     		ldr	r1, [sp, #32]
 478 0224 531A     		subs	r3, r2, r1
 479              	.LBE31:
 480              	.LBE30:
 208:..\..\..\lvgl\version_6.1.2\lvgl\src\lv_draw/lv_draw_arc.c ****         }
 481              		.loc 1 208 0
 482 0226 1599     		ldr	r1, [sp, #84]
 483              	.LBB35:
 484              	.LBB32:
 232:..\..\..\lvgl\version_6.1.2\lvgl\src\lv_draw/lv_draw_arc.c **** 
ARM GAS  C:\Users\pearlstl\AppData\Local\Temp\ccSsDheA.s 			page 15


 485              		.loc 1 232 0
 486 0228 002B     		cmp	r3, #0
 487              	.LBE32:
 488              	.LBE35:
 208:..\..\..\lvgl\version_6.1.2\lvgl\src\lv_draw/lv_draw_arc.c ****         }
 489              		.loc 1 208 0
 490 022a A1EB0201 		sub	r1, r1, r2
 491              	.LBB36:
 492              	.LBB33:
 232:..\..\..\lvgl\version_6.1.2\lvgl\src\lv_draw/lv_draw_arc.c **** 
 493              		.loc 1 232 0
 494 022e B8BF     		it	lt
 495 0230 5B42     		rsblt	r3, r3, #0
 496              	.LBE33:
 497              	.LBE36:
 208:..\..\..\lvgl\version_6.1.2\lvgl\src\lv_draw/lv_draw_arc.c ****         }
 498              		.loc 1 208 0
 499 0232 89B2     		uxth	r1, r1
 500 0234 BDF94820 		ldrsh	r2, [sp, #72]
 501              	.LVL54:
 502              	.LBB37:
 503              	.LBB34:
 232:..\..\..\lvgl\version_6.1.2\lvgl\src\lv_draw/lv_draw_arc.c **** 
 504              		.loc 1 232 0
 505 0238 0092     		str	r2, [sp]
 506 023a 0B44     		add	r3, r3, r1
 507 023c 1BB2     		sxth	r3, r3
 508 023e 09B2     		sxth	r1, r1
 509 0240 18A8     		add	r0, sp, #96
 510 0242 FFF7FEFF 		bl	lv_area_set
 511              	.LVL55:
 234:..\..\..\lvgl\version_6.1.2\lvgl\src\lv_draw/lv_draw_arc.c **** }
 512              		.loc 1 234 0
 513 0246 139B     		ldr	r3, [sp, #76]
 514 0248 149A     		ldr	r2, [sp, #80]
 515 024a 1699     		ldr	r1, [sp, #88]
 516 024c 18A8     		add	r0, sp, #96
 517 024e FFF7FEFF 		bl	lv_draw_fill
 518              	.LVL56:
 519              	.L35:
 520              	.LBE34:
 521              	.LBE37:
 211:..\..\..\lvgl\version_6.1.2\lvgl\src\lv_draw/lv_draw_arc.c ****             if(x_end[3] == LV_COORD_MIN) x_end[3] = xe - 1;
 522              		.loc 1 211 0
 523 0252 079B     		ldr	r3, [sp, #28]
 524 0254 4345     		cmp	r3, r8
 525 0256 1BD0     		beq	.L37
 212:..\..\..\lvgl\version_6.1.2\lvgl\src\lv_draw/lv_draw_arc.c ****             hor_line(center_x - x_end[3], center_y - yi, mask, LV_MATH_ABS(x_end[3] - x_start[3]), 
 526              		.loc 1 212 0
 527 0258 109B     		ldr	r3, [sp, #64]
 528 025a 4345     		cmp	r3, r8
 529 025c 65D0     		beq	.L70
 530              	.L38:
 531              	.LBB38:
 532              	.LBB39:
 232:..\..\..\lvgl\version_6.1.2\lvgl\src\lv_draw/lv_draw_arc.c **** 
 533              		.loc 1 232 0
ARM GAS  C:\Users\pearlstl\AppData\Local\Temp\ccSsDheA.s 			page 16


 534 025e 109A     		ldr	r2, [sp, #64]
 535 0260 0799     		ldr	r1, [sp, #28]
 536 0262 531A     		subs	r3, r2, r1
 537              	.LBE39:
 538              	.LBE38:
 213:..\..\..\lvgl\version_6.1.2\lvgl\src\lv_draw/lv_draw_arc.c ****         }
 539              		.loc 1 213 0
 540 0264 1599     		ldr	r1, [sp, #84]
 541              	.LBB43:
 542              	.LBB40:
 232:..\..\..\lvgl\version_6.1.2\lvgl\src\lv_draw/lv_draw_arc.c **** 
 543              		.loc 1 232 0
 544 0266 002B     		cmp	r3, #0
 545              	.LBE40:
 546              	.LBE43:
 213:..\..\..\lvgl\version_6.1.2\lvgl\src\lv_draw/lv_draw_arc.c ****         }
 547              		.loc 1 213 0
 548 0268 A1EB0201 		sub	r1, r1, r2
 549              	.LBB44:
 550              	.LBB41:
 232:..\..\..\lvgl\version_6.1.2\lvgl\src\lv_draw/lv_draw_arc.c **** 
 551              		.loc 1 232 0
 552 026c B8BF     		it	lt
 553 026e 5B42     		rsblt	r3, r3, #0
 554              	.LBE41:
 555              	.LBE44:
 213:..\..\..\lvgl\version_6.1.2\lvgl\src\lv_draw/lv_draw_arc.c ****         }
 556              		.loc 1 213 0
 557 0270 89B2     		uxth	r1, r1
 558 0272 BDF94420 		ldrsh	r2, [sp, #68]
 559              	.LVL57:
 560              	.LBB45:
 561              	.LBB42:
 232:..\..\..\lvgl\version_6.1.2\lvgl\src\lv_draw/lv_draw_arc.c **** 
 562              		.loc 1 232 0
 563 0276 0092     		str	r2, [sp]
 564 0278 0B44     		add	r3, r3, r1
 565 027a 1BB2     		sxth	r3, r3
 566 027c 09B2     		sxth	r1, r1
 567 027e 18A8     		add	r0, sp, #96
 568 0280 FFF7FEFF 		bl	lv_area_set
 569              	.LVL58:
 234:..\..\..\lvgl\version_6.1.2\lvgl\src\lv_draw/lv_draw_arc.c **** }
 570              		.loc 1 234 0
 571 0284 139B     		ldr	r3, [sp, #76]
 572 0286 149A     		ldr	r2, [sp, #80]
 573 0288 1699     		ldr	r1, [sp, #88]
 574 028a 18A8     		add	r0, sp, #96
 575 028c FFF7FEFF 		bl	lv_draw_fill
 576              	.LVL59:
 577              	.L37:
 578 0290 0B9B     		ldr	r3, [sp, #44]
 579 0292 0133     		adds	r3, r3, #1
 580 0294 1BB2     		sxth	r3, r3
 581 0296 1946     		mov	r1, r3
 582 0298 0B93     		str	r3, [sp, #44]
 583              	.LVL60:
ARM GAS  C:\Users\pearlstl\AppData\Local\Temp\ccSsDheA.s 			page 17


 584 029a 119B     		ldr	r3, [sp, #68]
 585 029c 5A1E     		subs	r2, r3, #1
 586 029e 129B     		ldr	r3, [sp, #72]
 587 02a0 0133     		adds	r3, r3, #1
 588 02a2 92B2     		uxth	r2, r2
 589 02a4 9BB2     		uxth	r3, r3
 590 02a6 1192     		str	r2, [sp, #68]
 591 02a8 1293     		str	r3, [sp, #72]
 592              	.LBE42:
 593              	.LBE45:
 594              	.LBE20:
 102:..\..\..\lvgl\version_6.1.2\lvgl\src\lv_draw/lv_draw_arc.c ****         x_start[0] = LV_COORD_MIN;
 595              		.loc 1 102 0 discriminator 2
 596 02aa 0029     		cmp	r1, #0
 597 02ac 7FF418AF 		bne	.L39
 598              	.LVL61:
 599              	.L8:
 216:..\..\..\lvgl\version_6.1.2\lvgl\src\lv_draw/lv_draw_arc.c **** 
 600              		.loc 1 216 0
 601 02b0 1BB0     		add	sp, sp, #108
 602              		.cfi_remember_state
 603              		.cfi_def_cfa_offset 36
 604              		@ sp needed
 605 02b2 BDE8F08F 		pop	{r4, r5, r6, r7, r8, r9, r10, fp, pc}
 606              	.LVL62:
 607              	.L23:
 608              		.cfi_restore_state
 609              	.LBB47:
 610              	.LBB46:
 171:..\..\..\lvgl\version_6.1.2\lvgl\src\lv_draw/lv_draw_arc.c ****                 x_end[1] = xi - 1;
 611              		.loc 1 171 0
 612 02b6 099B     		ldr	r3, [sp, #36]
 613 02b8 4345     		cmp	r3, r8
 614 02ba 3FF456AF 		beq	.L24
 171:..\..\..\lvgl\version_6.1.2\lvgl\src\lv_draw/lv_draw_arc.c ****                 x_end[1] = xi - 1;
 615              		.loc 1 171 0 is_stmt 0 discriminator 1
 616 02be 0E9B     		ldr	r3, [sp, #56]
 617 02c0 4345     		cmp	r3, r8
 172:..\..\..\lvgl\version_6.1.2\lvgl\src\lv_draw/lv_draw_arc.c ****             }
 618              		.loc 1 172 0 is_stmt 1 discriminator 1
 619 02c2 04BF     		itt	eq
 620 02c4 0FFA89F3 		sxtheq	r3, r9
 621 02c8 0E93     		streq	r3, [sp, #56]
 622              	.LVL63:
 623 02ca 4EE7     		b	.L24
 624              	.LVL64:
 625              	.L21:
 164:..\..\..\lvgl\version_6.1.2\lvgl\src\lv_draw/lv_draw_arc.c ****                 x_end[0] = xi - 1;
 626              		.loc 1 164 0
 627 02cc 0A9B     		ldr	r3, [sp, #40]
 628 02ce 4345     		cmp	r3, r8
 629 02d0 3FF43BAF 		beq	.L22
 164:..\..\..\lvgl\version_6.1.2\lvgl\src\lv_draw/lv_draw_arc.c ****                 x_end[0] = xi - 1;
 630              		.loc 1 164 0 is_stmt 0 discriminator 1
 631 02d4 0D9B     		ldr	r3, [sp, #52]
 632 02d6 4345     		cmp	r3, r8
 165:..\..\..\lvgl\version_6.1.2\lvgl\src\lv_draw/lv_draw_arc.c ****             }
ARM GAS  C:\Users\pearlstl\AppData\Local\Temp\ccSsDheA.s 			page 18


 633              		.loc 1 165 0 is_stmt 1 discriminator 1
 634 02d8 04BF     		itt	eq
 635 02da 0FFA89F3 		sxtheq	r3, r9
 636 02de 0D93     		streq	r3, [sp, #52]
 637              	.LVL65:
 638 02e0 33E7     		b	.L22
 639              	.LVL66:
 640              	.L27:
 185:..\..\..\lvgl\version_6.1.2\lvgl\src\lv_draw/lv_draw_arc.c ****                 x_end[3] = xi - 1;
 641              		.loc 1 185 0
 642 02e2 079B     		ldr	r3, [sp, #28]
 643 02e4 4345     		cmp	r3, r8
 644 02e6 3FF45EAF 		beq	.L28
 185:..\..\..\lvgl\version_6.1.2\lvgl\src\lv_draw/lv_draw_arc.c ****                 x_end[3] = xi - 1;
 645              		.loc 1 185 0 is_stmt 0 discriminator 1
 646 02ea 109B     		ldr	r3, [sp, #64]
 647 02ec 4345     		cmp	r3, r8
 186:..\..\..\lvgl\version_6.1.2\lvgl\src\lv_draw/lv_draw_arc.c ****             }
 648              		.loc 1 186 0 is_stmt 1 discriminator 1
 649 02ee 04BF     		itt	eq
 650 02f0 0FFA89F3 		sxtheq	r3, r9
 651 02f4 1093     		streq	r3, [sp, #64]
 652              	.LVL67:
 653 02f6 56E7     		b	.L28
 654              	.L72:
 655              		.align	2
 656              	.L71:
 657 02f8 00000000 		.word	deg_test_inv
 658 02fc 00000000 		.word	deg_test_norm
 659 0300 E883FFFF 		.word	-31768
 660              	.LVL68:
 661              	.L25:
 178:..\..\..\lvgl\version_6.1.2\lvgl\src\lv_draw/lv_draw_arc.c ****                 x_end[2] = xi - 1;
 662              		.loc 1 178 0
 663 0304 089B     		ldr	r3, [sp, #32]
 664 0306 4345     		cmp	r3, r8
 665 0308 3FF43FAF 		beq	.L26
 178:..\..\..\lvgl\version_6.1.2\lvgl\src\lv_draw/lv_draw_arc.c ****                 x_end[2] = xi - 1;
 666              		.loc 1 178 0 is_stmt 0 discriminator 1
 667 030c 0F9B     		ldr	r3, [sp, #60]
 668 030e 4345     		cmp	r3, r8
 179:..\..\..\lvgl\version_6.1.2\lvgl\src\lv_draw/lv_draw_arc.c ****             }
 669              		.loc 1 179 0 is_stmt 1 discriminator 1
 670 0310 04BF     		itt	eq
 671 0312 0FFA89F3 		sxtheq	r3, r9
 672 0316 0F93     		streq	r3, [sp, #60]
 673              	.LVL69:
 674 0318 37E7     		b	.L26
 675              	.LVL70:
 676              	.L66:
 677              	.LBE46:
 111:..\..\..\lvgl\version_6.1.2\lvgl\src\lv_draw/lv_draw_arc.c ****         for(xi = -r_out; xi < 0; xi++) {
 678              		.loc 1 111 0
 679 031a 0023     		movs	r3, #0
 680 031c 0493     		str	r3, [sp, #16]
 681 031e 45E7     		b	.L29
 682              	.LVL71:
ARM GAS  C:\Users\pearlstl\AppData\Local\Temp\ccSsDheA.s 			page 19


 683              	.L69:
 207:..\..\..\lvgl\version_6.1.2\lvgl\src\lv_draw/lv_draw_arc.c ****             hor_line(center_x - x_end[2], center_y + yi, mask, LV_MATH_ABS(x_end[2] - x_start[2]), 
 684              		.loc 1 207 0 discriminator 1
 685 0320 049B     		ldr	r3, [sp, #16]
 686 0322 013B     		subs	r3, r3, #1
 687 0324 1BB2     		sxth	r3, r3
 688 0326 0F93     		str	r3, [sp, #60]
 689              	.LVL72:
 690 0328 7AE7     		b	.L36
 691              	.L70:
 212:..\..\..\lvgl\version_6.1.2\lvgl\src\lv_draw/lv_draw_arc.c ****             hor_line(center_x - x_end[3], center_y - yi, mask, LV_MATH_ABS(x_end[3] - x_start[3]), 
 692              		.loc 1 212 0 discriminator 1
 693 032a 049B     		ldr	r3, [sp, #16]
 694 032c 013B     		subs	r3, r3, #1
 695 032e 1BB2     		sxth	r3, r3
 696 0330 1093     		str	r3, [sp, #64]
 697              	.LVL73:
 698 0332 94E7     		b	.L38
 699              	.L67:
 197:..\..\..\lvgl\version_6.1.2\lvgl\src\lv_draw/lv_draw_arc.c ****             hor_line(center_x + x_start[0], center_y + yi, mask, x_end[0] - x_start[0], color, opa)
 700              		.loc 1 197 0 discriminator 1
 701 0334 049B     		ldr	r3, [sp, #16]
 702 0336 013B     		subs	r3, r3, #1
 703 0338 1BB2     		sxth	r3, r3
 704 033a 0D93     		str	r3, [sp, #52]
 705              	.LVL74:
 706 033c 3DE7     		b	.L32
 707              	.L68:
 202:..\..\..\lvgl\version_6.1.2\lvgl\src\lv_draw/lv_draw_arc.c ****             hor_line(center_x + x_start[1], center_y - yi, mask, x_end[1] - x_start[1], color, opa)
 708              		.loc 1 202 0 discriminator 1
 709 033e 049B     		ldr	r3, [sp, #16]
 710 0340 013B     		subs	r3, r3, #1
 711 0342 1BB2     		sxth	r3, r3
 712 0344 0E93     		str	r3, [sp, #56]
 713              	.LVL75:
 714 0346 52E7     		b	.L34
 715              	.LVL76:
 716              	.L62:
 717              	.LBE47:
  86:..\..\..\lvgl\version_6.1.2\lvgl\src\lv_draw/lv_draw_arc.c ****     if(deg_test(90, start_angle, end_angle))
 718              		.loc 1 86 0
 719 0348 159B     		ldr	r3, [sp, #84]
 720              	.LBB48:
 721              	.LBB49:
 232:..\..\..\lvgl\version_6.1.2\lvgl\src\lv_draw/lv_draw_arc.c **** 
 722              		.loc 1 232 0
 723 034a 0095     		str	r5, [sp]
 724              	.LBE49:
 725              	.LBE48:
  86:..\..\..\lvgl\version_6.1.2\lvgl\src\lv_draw/lv_draw_arc.c ****     if(deg_test(90, start_angle, end_angle))
 726              		.loc 1 86 0
 727 034c D91B     		subs	r1, r3, r7
 728 034e 89B2     		uxth	r1, r1
 729              	.LVL77:
 730              	.LBB51:
 731              	.LBB50:
 232:..\..\..\lvgl\version_6.1.2\lvgl\src\lv_draw/lv_draw_arc.c **** 
ARM GAS  C:\Users\pearlstl\AppData\Local\Temp\ccSsDheA.s 			page 20


 732              		.loc 1 232 0
 733 0350 09EB0103 		add	r3, r9, r1
 734 0354 18A8     		add	r0, sp, #96
 735 0356 2A46     		mov	r2, r5
 736 0358 1BB2     		sxth	r3, r3
 737 035a 09B2     		sxth	r1, r1
 738 035c FFF7FEFF 		bl	lv_area_set
 739              	.LVL78:
 234:..\..\..\lvgl\version_6.1.2\lvgl\src\lv_draw/lv_draw_arc.c **** }
 740              		.loc 1 234 0
 741 0360 139B     		ldr	r3, [sp, #76]
 742 0362 149A     		ldr	r2, [sp, #80]
 743 0364 1699     		ldr	r1, [sp, #88]
 744 0366 18A8     		add	r0, sp, #96
 745 0368 FFF7FEFF 		bl	lv_draw_fill
 746              	.LVL79:
 747 036c 89E6     		b	.L14
 748              	.LVL80:
 749              	.L65:
 750              	.LBE50:
 751              	.LBE51:
  92:..\..\..\lvgl\version_6.1.2\lvgl\src\lv_draw/lv_draw_arc.c **** 
 752              		.loc 1 92 0
 753 036e 049B     		ldr	r3, [sp, #16]
 754              	.LBB52:
 755              	.LBB53:
 224:..\..\..\lvgl\version_6.1.2\lvgl\src\lv_draw/lv_draw_arc.c **** 
 756              		.loc 1 224 0
 757 0370 1599     		ldr	r1, [sp, #84]
 758              	.LBE53:
 759              	.LBE52:
  92:..\..\..\lvgl\version_6.1.2\lvgl\src\lv_draw/lv_draw_arc.c **** 
 760              		.loc 1 92 0
 761 0372 2B44     		add	r3, r3, r5
 762 0374 9AB2     		uxth	r2, r3
 763              	.LVL81:
 764              	.LBB55:
 765              	.LBB54:
 224:..\..\..\lvgl\version_6.1.2\lvgl\src\lv_draw/lv_draw_arc.c **** 
 766              		.loc 1 224 0
 767 0376 09EB0203 		add	r3, r9, r2
 768 037a 1BB2     		sxth	r3, r3
 769 037c 0093     		str	r3, [sp]
 770 037e 18A8     		add	r0, sp, #96
 771 0380 0B46     		mov	r3, r1
 772 0382 12B2     		sxth	r2, r2
 773 0384 FFF7FEFF 		bl	lv_area_set
 774              	.LVL82:
 226:..\..\..\lvgl\version_6.1.2\lvgl\src\lv_draw/lv_draw_arc.c **** }
 775              		.loc 1 226 0
 776 0388 139B     		ldr	r3, [sp, #76]
 777 038a 149A     		ldr	r2, [sp, #80]
 778 038c 1699     		ldr	r1, [sp, #88]
 779 038e 18A8     		add	r0, sp, #96
 780 0390 FFF7FEFF 		bl	lv_draw_fill
 781              	.LVL83:
 782 0394 8DE6     		b	.L17
ARM GAS  C:\Users\pearlstl\AppData\Local\Temp\ccSsDheA.s 			page 21


 783              	.LVL84:
 784              	.L64:
 785              	.LBE54:
 786              	.LBE55:
  90:..\..\..\lvgl\version_6.1.2\lvgl\src\lv_draw/lv_draw_arc.c ****     if(deg_test(0, start_angle, end_angle))
 787              		.loc 1 90 0
 788 0396 EA1B     		subs	r2, r5, r7
 789 0398 92B2     		uxth	r2, r2
 790              	.LVL85:
 791              	.LBB56:
 792              	.LBB57:
 224:..\..\..\lvgl\version_6.1.2\lvgl\src\lv_draw/lv_draw_arc.c **** 
 793              		.loc 1 224 0
 794 039a 1599     		ldr	r1, [sp, #84]
 795 039c 09EB0203 		add	r3, r9, r2
 796 03a0 1BB2     		sxth	r3, r3
 797 03a2 0093     		str	r3, [sp]
 798 03a4 18A8     		add	r0, sp, #96
 799 03a6 0B46     		mov	r3, r1
 800 03a8 12B2     		sxth	r2, r2
 801 03aa FFF7FEFF 		bl	lv_area_set
 802              	.LVL86:
 226:..\..\..\lvgl\version_6.1.2\lvgl\src\lv_draw/lv_draw_arc.c **** }
 803              		.loc 1 226 0
 804 03ae 139B     		ldr	r3, [sp, #76]
 805 03b0 149A     		ldr	r2, [sp, #80]
 806 03b2 1699     		ldr	r1, [sp, #88]
 807 03b4 18A8     		add	r0, sp, #96
 808 03b6 FFF7FEFF 		bl	lv_draw_fill
 809              	.LVL87:
 810 03ba 72E6     		b	.L16
 811              	.LVL88:
 812              	.L63:
 813              	.LBE57:
 814              	.LBE56:
  88:..\..\..\lvgl\version_6.1.2\lvgl\src\lv_draw/lv_draw_arc.c ****     if(deg_test(180, start_angle, end_angle))
 815              		.loc 1 88 0
 816 03bc 049B     		ldr	r3, [sp, #16]
 817 03be 159A     		ldr	r2, [sp, #84]
 818              	.LBB58:
 819              	.LBB59:
 232:..\..\..\lvgl\version_6.1.2\lvgl\src\lv_draw/lv_draw_arc.c **** 
 820              		.loc 1 232 0
 821 03c0 0095     		str	r5, [sp]
 822              	.LBE59:
 823              	.LBE58:
  88:..\..\..\lvgl\version_6.1.2\lvgl\src\lv_draw/lv_draw_arc.c ****     if(deg_test(180, start_angle, end_angle))
 824              		.loc 1 88 0
 825 03c2 9918     		adds	r1, r3, r2
 826 03c4 89B2     		uxth	r1, r1
 827              	.LVL89:
 828              	.LBB61:
 829              	.LBB60:
 232:..\..\..\lvgl\version_6.1.2\lvgl\src\lv_draw/lv_draw_arc.c **** 
 830              		.loc 1 232 0
 831 03c6 09EB0103 		add	r3, r9, r1
 832 03ca 18A8     		add	r0, sp, #96
ARM GAS  C:\Users\pearlstl\AppData\Local\Temp\ccSsDheA.s 			page 22


 833 03cc 2A46     		mov	r2, r5
 834 03ce 1BB2     		sxth	r3, r3
 835 03d0 09B2     		sxth	r1, r1
 836 03d2 FFF7FEFF 		bl	lv_area_set
 837              	.LVL90:
 234:..\..\..\lvgl\version_6.1.2\lvgl\src\lv_draw/lv_draw_arc.c **** }
 838              		.loc 1 234 0
 839 03d6 139B     		ldr	r3, [sp, #76]
 840 03d8 149A     		ldr	r2, [sp, #80]
 841 03da 1699     		ldr	r1, [sp, #88]
 842 03dc 18A8     		add	r0, sp, #96
 843 03de FFF7FEFF 		bl	lv_draw_fill
 844              	.LVL91:
 845 03e2 56E6     		b	.L15
 846              	.LBE60:
 847              	.LBE61:
 848              		.cfi_endproc
 849              	.LFE31:
 850              		.size	lv_draw_arc, .-lv_draw_arc
 851              		.text
 852              	.Letext0:
 853              		.file 2 "c:\\program files (x86)\\cypress\\psoc creator\\4.2\\psoc creator\\import\\gnu\\arm\\5.4.
 854              		.file 3 "c:\\program files (x86)\\cypress\\psoc creator\\4.2\\psoc creator\\import\\gnu\\arm\\5.4.
 855              		.file 4 "..\\..\\..\\lvgl\\version_6.1.2\\lvgl\\src\\lv_draw\\../../../lv_conf.h"
 856              		.file 5 "..\\..\\..\\lvgl\\version_6.1.2\\lvgl\\src\\lv_draw\\../lv_core/../lv_font/lv_font.h"
 857              		.file 6 "..\\..\\..\\lvgl\\version_6.1.2\\lvgl\\src\\lv_draw\\../lv_core/../lv_misc/lv_color.h"
 858              		.file 7 "..\\..\\..\\lvgl\\version_6.1.2\\lvgl\\src\\lv_draw\\../lv_core/../lv_misc/lv_area.h"
 859              		.file 8 "..\\..\\..\\lvgl\\version_6.1.2\\lvgl\\src\\lv_draw\\../lv_core/lv_style.h"
 860              		.file 9 "..\\..\\..\\lvgl\\version_6.1.2\\lvgl\\src\\lv_draw\\../lv_misc/lv_math.h"
 861              		.file 10 "..\\..\\..\\lvgl\\version_6.1.2\\lvgl\\src\\lv_draw\\lv_draw_basic.h"