ARM GAS  C:\Users\pearlstl\AppData\Local\Temp\ccuP9Sbb.s 			page 1


   1              		.syntax unified
   2              		.cpu cortex-m4
   3              		.eabi_attribute 27, 1
   4              		.fpu fpv4-sp-d16
   5              		.eabi_attribute 20, 1
   6              		.eabi_attribute 21, 1
   7              		.eabi_attribute 23, 3
   8              		.eabi_attribute 24, 1
   9              		.eabi_attribute 25, 1
  10              		.eabi_attribute 26, 1
  11              		.eabi_attribute 30, 2
  12              		.eabi_attribute 34, 1
  13              		.eabi_attribute 18, 4
  14              		.thumb
  15              		.syntax unified
  16              		.file	"lv_draw_line.c"
  17              		.text
  18              	.Ltext0:
  19              		.cfi_sections	.debug_frame
  20              		.section	.text.lv_draw_line,"ax",%progbits
  21              		.align	2
  22              		.global	lv_draw_line
  23              		.thumb
  24              		.thumb_func
  25              		.type	lv_draw_line, %function
  26              	lv_draw_line:
  27              	.LFB32:
  28              		.file 1 "..\\..\\..\\lvgl\\version_6.1.2\\lvgl\\src\\lv_draw\\lv_draw_line.c"
   1:..\..\..\lvgl\version_6.1.2\lvgl\src\lv_draw/lv_draw_line.c **** /**
   2:..\..\..\lvgl\version_6.1.2\lvgl\src\lv_draw/lv_draw_line.c ****  * @file lv_draw_line.c
   3:..\..\..\lvgl\version_6.1.2\lvgl\src\lv_draw/lv_draw_line.c ****  *
   4:..\..\..\lvgl\version_6.1.2\lvgl\src\lv_draw/lv_draw_line.c ****  */
   5:..\..\..\lvgl\version_6.1.2\lvgl\src\lv_draw/lv_draw_line.c **** 
   6:..\..\..\lvgl\version_6.1.2\lvgl\src\lv_draw/lv_draw_line.c **** /*********************
   7:..\..\..\lvgl\version_6.1.2\lvgl\src\lv_draw/lv_draw_line.c ****  *      INCLUDES
   8:..\..\..\lvgl\version_6.1.2\lvgl\src\lv_draw/lv_draw_line.c ****  *********************/
   9:..\..\..\lvgl\version_6.1.2\lvgl\src\lv_draw/lv_draw_line.c **** #include <stdio.h>
  10:..\..\..\lvgl\version_6.1.2\lvgl\src\lv_draw/lv_draw_line.c **** #include <stdbool.h>
  11:..\..\..\lvgl\version_6.1.2\lvgl\src\lv_draw/lv_draw_line.c **** #include "lv_draw.h"
  12:..\..\..\lvgl\version_6.1.2\lvgl\src\lv_draw/lv_draw_line.c **** #include "../lv_core/lv_refr.h"
  13:..\..\..\lvgl\version_6.1.2\lvgl\src\lv_draw/lv_draw_line.c **** #include "../lv_misc/lv_math.h"
  14:..\..\..\lvgl\version_6.1.2\lvgl\src\lv_draw/lv_draw_line.c **** 
  15:..\..\..\lvgl\version_6.1.2\lvgl\src\lv_draw/lv_draw_line.c **** /*********************
  16:..\..\..\lvgl\version_6.1.2\lvgl\src\lv_draw/lv_draw_line.c ****  *      DEFINES
  17:..\..\..\lvgl\version_6.1.2\lvgl\src\lv_draw/lv_draw_line.c ****  *********************/
  18:..\..\..\lvgl\version_6.1.2\lvgl\src\lv_draw/lv_draw_line.c **** 
  19:..\..\..\lvgl\version_6.1.2\lvgl\src\lv_draw/lv_draw_line.c **** /**********************
  20:..\..\..\lvgl\version_6.1.2\lvgl\src\lv_draw/lv_draw_line.c ****  *      TYPEDEFS
  21:..\..\..\lvgl\version_6.1.2\lvgl\src\lv_draw/lv_draw_line.c ****  **********************/
  22:..\..\..\lvgl\version_6.1.2\lvgl\src\lv_draw/lv_draw_line.c **** 
  23:..\..\..\lvgl\version_6.1.2\lvgl\src\lv_draw/lv_draw_line.c **** typedef struct
  24:..\..\..\lvgl\version_6.1.2\lvgl\src\lv_draw/lv_draw_line.c **** {
  25:..\..\..\lvgl\version_6.1.2\lvgl\src\lv_draw/lv_draw_line.c ****     lv_point_t p1;
  26:..\..\..\lvgl\version_6.1.2\lvgl\src\lv_draw/lv_draw_line.c ****     lv_point_t p2;
  27:..\..\..\lvgl\version_6.1.2\lvgl\src\lv_draw/lv_draw_line.c ****     lv_point_t p_act;
  28:..\..\..\lvgl\version_6.1.2\lvgl\src\lv_draw/lv_draw_line.c ****     lv_coord_t dx;
  29:..\..\..\lvgl\version_6.1.2\lvgl\src\lv_draw/lv_draw_line.c ****     lv_coord_t sx; /*-1: x1 < x2; 1: x2 >= x1*/
ARM GAS  C:\Users\pearlstl\AppData\Local\Temp\ccuP9Sbb.s 			page 2


  30:..\..\..\lvgl\version_6.1.2\lvgl\src\lv_draw/lv_draw_line.c ****     lv_coord_t dy;
  31:..\..\..\lvgl\version_6.1.2\lvgl\src\lv_draw/lv_draw_line.c ****     lv_coord_t sy; /*-1: y1 < y2; 1: y2 >= y1*/
  32:..\..\..\lvgl\version_6.1.2\lvgl\src\lv_draw/lv_draw_line.c ****     lv_coord_t err;
  33:..\..\..\lvgl\version_6.1.2\lvgl\src\lv_draw/lv_draw_line.c ****     lv_coord_t e2;
  34:..\..\..\lvgl\version_6.1.2\lvgl\src\lv_draw/lv_draw_line.c ****     bool hor; /*Rather horizontal or vertical*/
  35:..\..\..\lvgl\version_6.1.2\lvgl\src\lv_draw/lv_draw_line.c **** } line_draw_t;
  36:..\..\..\lvgl\version_6.1.2\lvgl\src\lv_draw/lv_draw_line.c **** 
  37:..\..\..\lvgl\version_6.1.2\lvgl\src\lv_draw/lv_draw_line.c **** typedef struct
  38:..\..\..\lvgl\version_6.1.2\lvgl\src\lv_draw/lv_draw_line.c **** {
  39:..\..\..\lvgl\version_6.1.2\lvgl\src\lv_draw/lv_draw_line.c ****     lv_coord_t width;
  40:..\..\..\lvgl\version_6.1.2\lvgl\src\lv_draw/lv_draw_line.c ****     lv_coord_t width_1;
  41:..\..\..\lvgl\version_6.1.2\lvgl\src\lv_draw/lv_draw_line.c ****     lv_coord_t width_half;
  42:..\..\..\lvgl\version_6.1.2\lvgl\src\lv_draw/lv_draw_line.c **** } line_width_t;
  43:..\..\..\lvgl\version_6.1.2\lvgl\src\lv_draw/lv_draw_line.c **** 
  44:..\..\..\lvgl\version_6.1.2\lvgl\src\lv_draw/lv_draw_line.c **** /**********************
  45:..\..\..\lvgl\version_6.1.2\lvgl\src\lv_draw/lv_draw_line.c ****  *  STATIC PROTOTYPES
  46:..\..\..\lvgl\version_6.1.2\lvgl\src\lv_draw/lv_draw_line.c ****  **********************/
  47:..\..\..\lvgl\version_6.1.2\lvgl\src\lv_draw/lv_draw_line.c **** static void line_draw_hor(line_draw_t * main_line, const lv_area_t * mask, const lv_style_t * style
  48:..\..\..\lvgl\version_6.1.2\lvgl\src\lv_draw/lv_draw_line.c ****                           lv_opa_t opa_scale);
  49:..\..\..\lvgl\version_6.1.2\lvgl\src\lv_draw/lv_draw_line.c **** static void line_draw_ver(line_draw_t * main_line, const lv_area_t * mask, const lv_style_t * style
  50:..\..\..\lvgl\version_6.1.2\lvgl\src\lv_draw/lv_draw_line.c ****                           lv_opa_t opa_scale);
  51:..\..\..\lvgl\version_6.1.2\lvgl\src\lv_draw/lv_draw_line.c **** static void line_draw_skew(line_draw_t * main_line, bool dir_ori, const lv_area_t * mask, const lv_
  52:..\..\..\lvgl\version_6.1.2\lvgl\src\lv_draw/lv_draw_line.c ****                            lv_opa_t opa_scale);
  53:..\..\..\lvgl\version_6.1.2\lvgl\src\lv_draw/lv_draw_line.c **** static void line_init(line_draw_t * line, const lv_point_t * p1, const lv_point_t * p2);
  54:..\..\..\lvgl\version_6.1.2\lvgl\src\lv_draw/lv_draw_line.c **** static bool line_next(line_draw_t * line);
  55:..\..\..\lvgl\version_6.1.2\lvgl\src\lv_draw/lv_draw_line.c **** static bool line_next_y(line_draw_t * line);
  56:..\..\..\lvgl\version_6.1.2\lvgl\src\lv_draw/lv_draw_line.c **** static bool line_next_x(line_draw_t * line);
  57:..\..\..\lvgl\version_6.1.2\lvgl\src\lv_draw/lv_draw_line.c **** 
  58:..\..\..\lvgl\version_6.1.2\lvgl\src\lv_draw/lv_draw_line.c **** /**********************
  59:..\..\..\lvgl\version_6.1.2\lvgl\src\lv_draw/lv_draw_line.c ****  *  STATIC VARIABLES
  60:..\..\..\lvgl\version_6.1.2\lvgl\src\lv_draw/lv_draw_line.c ****  **********************/
  61:..\..\..\lvgl\version_6.1.2\lvgl\src\lv_draw/lv_draw_line.c **** 
  62:..\..\..\lvgl\version_6.1.2\lvgl\src\lv_draw/lv_draw_line.c **** /**********************
  63:..\..\..\lvgl\version_6.1.2\lvgl\src\lv_draw/lv_draw_line.c ****  *      MACROS
  64:..\..\..\lvgl\version_6.1.2\lvgl\src\lv_draw/lv_draw_line.c ****  **********************/
  65:..\..\..\lvgl\version_6.1.2\lvgl\src\lv_draw/lv_draw_line.c **** 
  66:..\..\..\lvgl\version_6.1.2\lvgl\src\lv_draw/lv_draw_line.c **** /**********************
  67:..\..\..\lvgl\version_6.1.2\lvgl\src\lv_draw/lv_draw_line.c ****  *   GLOBAL FUNCTIONS
  68:..\..\..\lvgl\version_6.1.2\lvgl\src\lv_draw/lv_draw_line.c ****  **********************/
  69:..\..\..\lvgl\version_6.1.2\lvgl\src\lv_draw/lv_draw_line.c **** 
  70:..\..\..\lvgl\version_6.1.2\lvgl\src\lv_draw/lv_draw_line.c **** /**
  71:..\..\..\lvgl\version_6.1.2\lvgl\src\lv_draw/lv_draw_line.c ****  * Draw a line
  72:..\..\..\lvgl\version_6.1.2\lvgl\src\lv_draw/lv_draw_line.c ****  * @param point1 first point of the line
  73:..\..\..\lvgl\version_6.1.2\lvgl\src\lv_draw/lv_draw_line.c ****  * @param point2 second point of the line
  74:..\..\..\lvgl\version_6.1.2\lvgl\src\lv_draw/lv_draw_line.c ****  * @param mask the line will be drawn only on this area
  75:..\..\..\lvgl\version_6.1.2\lvgl\src\lv_draw/lv_draw_line.c ****  * @param style pointer to a line's style
  76:..\..\..\lvgl\version_6.1.2\lvgl\src\lv_draw/lv_draw_line.c ****  * @param opa_scale scale down all opacities by the factor
  77:..\..\..\lvgl\version_6.1.2\lvgl\src\lv_draw/lv_draw_line.c ****  */
  78:..\..\..\lvgl\version_6.1.2\lvgl\src\lv_draw/lv_draw_line.c **** void lv_draw_line(const lv_point_t * point1, const lv_point_t * point2, const lv_area_t * mask,
  79:..\..\..\lvgl\version_6.1.2\lvgl\src\lv_draw/lv_draw_line.c ****                   const lv_style_t * style, lv_opa_t opa_scale)
  80:..\..\..\lvgl\version_6.1.2\lvgl\src\lv_draw/lv_draw_line.c **** {
  29              		.loc 1 80 0
  30              		.cfi_startproc
  31              		@ args = 4, pretend = 0, frame = 104
  32              		@ frame_needed = 0, uses_anonymous_args = 0
  33              	.LVL0:
  34 0000 2DE9F04F 		push	{r4, r5, r6, r7, r8, r9, r10, fp, lr}
ARM GAS  C:\Users\pearlstl\AppData\Local\Temp\ccuP9Sbb.s 			page 3


  35              		.cfi_def_cfa_offset 36
  36              		.cfi_offset 4, -36
  37              		.cfi_offset 5, -32
  38              		.cfi_offset 6, -28
  39              		.cfi_offset 7, -24
  40              		.cfi_offset 8, -20
  41              		.cfi_offset 9, -16
  42              		.cfi_offset 10, -12
  43              		.cfi_offset 11, -8
  44              		.cfi_offset 14, -4
  81:..\..\..\lvgl\version_6.1.2\lvgl\src\lv_draw/lv_draw_line.c **** 
  82:..\..\..\lvgl\version_6.1.2\lvgl\src\lv_draw/lv_draw_line.c ****     if(style->line.width == 0) return;
  45              		.loc 1 82 0
  46 0004 B3F94C70 		ldrsh	r7, [r3, #76]
  80:..\..\..\lvgl\version_6.1.2\lvgl\src\lv_draw/lv_draw_line.c **** 
  47              		.loc 1 80 0
  48 0008 9DB0     		sub	sp, sp, #116
  49              		.cfi_def_cfa_offset 152
  80:..\..\..\lvgl\version_6.1.2\lvgl\src\lv_draw/lv_draw_line.c **** 
  50              		.loc 1 80 0
  51 000a 9DF898E0 		ldrb	lr, [sp, #152]	@ zero_extendqisi2
  52              		.loc 1 82 0
  53 000e 7FB1     		cbz	r7, .L1
  83:..\..\..\lvgl\version_6.1.2\lvgl\src\lv_draw/lv_draw_line.c ****     if(point1->x == point2->x && point1->y == point2->y) return;
  54              		.loc 1 83 0
  55 0010 B0F90040 		ldrsh	r4, [r0]
  56 0014 B1F90060 		ldrsh	r6, [r1]
  57 0018 0794     		str	r4, [sp, #28]
  58 001a B442     		cmp	r4, r6
  59 001c 00F00781 		beq	.L161
  60              	.L3:
  84:..\..\..\lvgl\version_6.1.2\lvgl\src\lv_draw/lv_draw_line.c **** 
  85:..\..\..\lvgl\version_6.1.2\lvgl\src\lv_draw/lv_draw_line.c ****     /*Return if the points are out of the mask*/
  86:..\..\..\lvgl\version_6.1.2\lvgl\src\lv_draw/lv_draw_line.c ****     if(point1->x < mask->x1 - style->line.width && point2->x < mask->x1 - style->line.width) return
  61              		.loc 1 86 0
  62 0020 B2F90040 		ldrsh	r4, [r2]
  63 0024 079D     		ldr	r5, [sp, #28]
  64 0026 E41B     		subs	r4, r4, r7
  65 0028 A542     		cmp	r5, r4
  66 002a 04DA     		bge	.L4
  67              		.loc 1 86 0 is_stmt 0 discriminator 1
  68 002c B442     		cmp	r4, r6
  69 002e 02DD     		ble	.L4
  70              	.LVL1:
  71              	.L1:
  87:..\..\..\lvgl\version_6.1.2\lvgl\src\lv_draw/lv_draw_line.c ****     if(point1->x > mask->x2 + style->line.width && point2->x > mask->x2 + style->line.width) return
  88:..\..\..\lvgl\version_6.1.2\lvgl\src\lv_draw/lv_draw_line.c ****     if(point1->y < mask->y1 - style->line.width && point2->y < mask->y1 - style->line.width) return
  89:..\..\..\lvgl\version_6.1.2\lvgl\src\lv_draw/lv_draw_line.c ****     if(point1->y > mask->y2 + style->line.width && point2->y > mask->y2 + style->line.width) return
  90:..\..\..\lvgl\version_6.1.2\lvgl\src\lv_draw/lv_draw_line.c **** 
  91:..\..\..\lvgl\version_6.1.2\lvgl\src\lv_draw/lv_draw_line.c ****     line_draw_t main_line;
  92:..\..\..\lvgl\version_6.1.2\lvgl\src\lv_draw/lv_draw_line.c ****     lv_point_t p1;
  93:..\..\..\lvgl\version_6.1.2\lvgl\src\lv_draw/lv_draw_line.c ****     lv_point_t p2;
  94:..\..\..\lvgl\version_6.1.2\lvgl\src\lv_draw/lv_draw_line.c **** 
  95:..\..\..\lvgl\version_6.1.2\lvgl\src\lv_draw/lv_draw_line.c ****     /*If the line if rather vertical then be sure y1 < y2 else x1 < x2*/
  96:..\..\..\lvgl\version_6.1.2\lvgl\src\lv_draw/lv_draw_line.c **** 
  97:..\..\..\lvgl\version_6.1.2\lvgl\src\lv_draw/lv_draw_line.c ****     if(LV_MATH_ABS(point1->x - point2->x) > LV_MATH_ABS(point1->y - point2->y)) {
  98:..\..\..\lvgl\version_6.1.2\lvgl\src\lv_draw/lv_draw_line.c **** 
ARM GAS  C:\Users\pearlstl\AppData\Local\Temp\ccuP9Sbb.s 			page 4


  99:..\..\..\lvgl\version_6.1.2\lvgl\src\lv_draw/lv_draw_line.c ****         /*Steps less in y then x -> rather horizontal*/
 100:..\..\..\lvgl\version_6.1.2\lvgl\src\lv_draw/lv_draw_line.c ****         if(point1->x < point2->x) {
 101:..\..\..\lvgl\version_6.1.2\lvgl\src\lv_draw/lv_draw_line.c ****             p1.x = point1->x;
 102:..\..\..\lvgl\version_6.1.2\lvgl\src\lv_draw/lv_draw_line.c ****             p1.y = point1->y;
 103:..\..\..\lvgl\version_6.1.2\lvgl\src\lv_draw/lv_draw_line.c ****             p2.x = point2->x;
 104:..\..\..\lvgl\version_6.1.2\lvgl\src\lv_draw/lv_draw_line.c ****             p2.y = point2->y;
 105:..\..\..\lvgl\version_6.1.2\lvgl\src\lv_draw/lv_draw_line.c ****         } else {
 106:..\..\..\lvgl\version_6.1.2\lvgl\src\lv_draw/lv_draw_line.c ****             p1.x = point2->x;
 107:..\..\..\lvgl\version_6.1.2\lvgl\src\lv_draw/lv_draw_line.c ****             p1.y = point2->y;
 108:..\..\..\lvgl\version_6.1.2\lvgl\src\lv_draw/lv_draw_line.c ****             p2.x = point1->x;
 109:..\..\..\lvgl\version_6.1.2\lvgl\src\lv_draw/lv_draw_line.c ****             p2.y = point1->y;
 110:..\..\..\lvgl\version_6.1.2\lvgl\src\lv_draw/lv_draw_line.c ****         }
 111:..\..\..\lvgl\version_6.1.2\lvgl\src\lv_draw/lv_draw_line.c ****     } else {
 112:..\..\..\lvgl\version_6.1.2\lvgl\src\lv_draw/lv_draw_line.c ****         /*Steps less in x then y -> rather vertical*/
 113:..\..\..\lvgl\version_6.1.2\lvgl\src\lv_draw/lv_draw_line.c ****         if(point1->y < point2->y) {
 114:..\..\..\lvgl\version_6.1.2\lvgl\src\lv_draw/lv_draw_line.c ****             p1.x = point1->x;
 115:..\..\..\lvgl\version_6.1.2\lvgl\src\lv_draw/lv_draw_line.c ****             p1.y = point1->y;
 116:..\..\..\lvgl\version_6.1.2\lvgl\src\lv_draw/lv_draw_line.c ****             p2.x = point2->x;
 117:..\..\..\lvgl\version_6.1.2\lvgl\src\lv_draw/lv_draw_line.c ****             p2.y = point2->y;
 118:..\..\..\lvgl\version_6.1.2\lvgl\src\lv_draw/lv_draw_line.c ****         } else {
 119:..\..\..\lvgl\version_6.1.2\lvgl\src\lv_draw/lv_draw_line.c ****             p1.x = point2->x;
 120:..\..\..\lvgl\version_6.1.2\lvgl\src\lv_draw/lv_draw_line.c ****             p1.y = point2->y;
 121:..\..\..\lvgl\version_6.1.2\lvgl\src\lv_draw/lv_draw_line.c ****             p2.x = point1->x;
 122:..\..\..\lvgl\version_6.1.2\lvgl\src\lv_draw/lv_draw_line.c ****             p2.y = point1->y;
 123:..\..\..\lvgl\version_6.1.2\lvgl\src\lv_draw/lv_draw_line.c ****         }
 124:..\..\..\lvgl\version_6.1.2\lvgl\src\lv_draw/lv_draw_line.c ****     }
 125:..\..\..\lvgl\version_6.1.2\lvgl\src\lv_draw/lv_draw_line.c **** 
 126:..\..\..\lvgl\version_6.1.2\lvgl\src\lv_draw/lv_draw_line.c ****     line_init(&main_line, &p1, &p2);
 127:..\..\..\lvgl\version_6.1.2\lvgl\src\lv_draw/lv_draw_line.c **** 
 128:..\..\..\lvgl\version_6.1.2\lvgl\src\lv_draw/lv_draw_line.c ****     /*Special case draw a horizontal line*/
 129:..\..\..\lvgl\version_6.1.2\lvgl\src\lv_draw/lv_draw_line.c ****     if(main_line.p1.y == main_line.p2.y) {
 130:..\..\..\lvgl\version_6.1.2\lvgl\src\lv_draw/lv_draw_line.c ****         line_draw_hor(&main_line, mask, style, opa_scale);
 131:..\..\..\lvgl\version_6.1.2\lvgl\src\lv_draw/lv_draw_line.c ****     }
 132:..\..\..\lvgl\version_6.1.2\lvgl\src\lv_draw/lv_draw_line.c ****     /*Special case draw a vertical line*/
 133:..\..\..\lvgl\version_6.1.2\lvgl\src\lv_draw/lv_draw_line.c ****     else if(main_line.p1.x == main_line.p2.x) {
 134:..\..\..\lvgl\version_6.1.2\lvgl\src\lv_draw/lv_draw_line.c ****         line_draw_ver(&main_line, mask, style, opa_scale);
 135:..\..\..\lvgl\version_6.1.2\lvgl\src\lv_draw/lv_draw_line.c ****     }
 136:..\..\..\lvgl\version_6.1.2\lvgl\src\lv_draw/lv_draw_line.c ****     /*Arbitrary skew line*/
 137:..\..\..\lvgl\version_6.1.2\lvgl\src\lv_draw/lv_draw_line.c ****     else {
 138:..\..\..\lvgl\version_6.1.2\lvgl\src\lv_draw/lv_draw_line.c ****         bool dir_ori = false;
 139:..\..\..\lvgl\version_6.1.2\lvgl\src\lv_draw/lv_draw_line.c **** #if LV_ANTIALIAS
 140:..\..\..\lvgl\version_6.1.2\lvgl\src\lv_draw/lv_draw_line.c ****         bool aa = lv_disp_get_antialiasing(lv_refr_get_disp_refreshing());
 141:..\..\..\lvgl\version_6.1.2\lvgl\src\lv_draw/lv_draw_line.c ****         if(aa) {
 142:..\..\..\lvgl\version_6.1.2\lvgl\src\lv_draw/lv_draw_line.c ****             lv_point_t p_tmp;
 143:..\..\..\lvgl\version_6.1.2\lvgl\src\lv_draw/lv_draw_line.c **** 
 144:..\..\..\lvgl\version_6.1.2\lvgl\src\lv_draw/lv_draw_line.c ****             if(main_line.hor) {
 145:..\..\..\lvgl\version_6.1.2\lvgl\src\lv_draw/lv_draw_line.c ****                 if(main_line.p1.y < main_line.p2.y) {
 146:..\..\..\lvgl\version_6.1.2\lvgl\src\lv_draw/lv_draw_line.c ****                     dir_ori = true;
 147:..\..\..\lvgl\version_6.1.2\lvgl\src\lv_draw/lv_draw_line.c ****                     p_tmp.x = main_line.p2.x;
 148:..\..\..\lvgl\version_6.1.2\lvgl\src\lv_draw/lv_draw_line.c ****                     p_tmp.y = main_line.p2.y - 1;
 149:..\..\..\lvgl\version_6.1.2\lvgl\src\lv_draw/lv_draw_line.c ****                     line_init(&main_line, &p1, &p_tmp);
 150:..\..\..\lvgl\version_6.1.2\lvgl\src\lv_draw/lv_draw_line.c ****                     main_line.sy = LV_MATH_ABS(main_line.sy); /*The sign can change if the line bec
 151:..\..\..\lvgl\version_6.1.2\lvgl\src\lv_draw/lv_draw_line.c ****                 } else if(main_line.p1.y > main_line.p2.y) {
 152:..\..\..\lvgl\version_6.1.2\lvgl\src\lv_draw/lv_draw_line.c ****                     dir_ori = false;
 153:..\..\..\lvgl\version_6.1.2\lvgl\src\lv_draw/lv_draw_line.c ****                     p_tmp.x = main_line.p2.x;
 154:..\..\..\lvgl\version_6.1.2\lvgl\src\lv_draw/lv_draw_line.c ****                     p_tmp.y = main_line.p2.y + 1;
 155:..\..\..\lvgl\version_6.1.2\lvgl\src\lv_draw/lv_draw_line.c ****                     line_init(&main_line, &p1, &p_tmp);
ARM GAS  C:\Users\pearlstl\AppData\Local\Temp\ccuP9Sbb.s 			page 5


 156:..\..\..\lvgl\version_6.1.2\lvgl\src\lv_draw/lv_draw_line.c ****                     main_line.sy = -LV_MATH_ABS(main_line.sy); /*The sign can change if the line be
 157:..\..\..\lvgl\version_6.1.2\lvgl\src\lv_draw/lv_draw_line.c ****                 }
 158:..\..\..\lvgl\version_6.1.2\lvgl\src\lv_draw/lv_draw_line.c ****             } else {
 159:..\..\..\lvgl\version_6.1.2\lvgl\src\lv_draw/lv_draw_line.c ****                 if(main_line.p1.x < main_line.p2.x) {
 160:..\..\..\lvgl\version_6.1.2\lvgl\src\lv_draw/lv_draw_line.c ****                     dir_ori = true;
 161:..\..\..\lvgl\version_6.1.2\lvgl\src\lv_draw/lv_draw_line.c ****                     p_tmp.x = main_line.p2.x - 1;
 162:..\..\..\lvgl\version_6.1.2\lvgl\src\lv_draw/lv_draw_line.c ****                     p_tmp.y = main_line.p2.y;
 163:..\..\..\lvgl\version_6.1.2\lvgl\src\lv_draw/lv_draw_line.c ****                     line_init(&main_line, &p1, &p_tmp);
 164:..\..\..\lvgl\version_6.1.2\lvgl\src\lv_draw/lv_draw_line.c ****                     main_line.sx = LV_MATH_ABS(main_line.sx); /*The sign can change if the line bec
 165:..\..\..\lvgl\version_6.1.2\lvgl\src\lv_draw/lv_draw_line.c ****                 } else if(main_line.p1.x > main_line.p2.x) {
 166:..\..\..\lvgl\version_6.1.2\lvgl\src\lv_draw/lv_draw_line.c ****                     dir_ori = false;
 167:..\..\..\lvgl\version_6.1.2\lvgl\src\lv_draw/lv_draw_line.c ****                     p_tmp.x = main_line.p2.x + 1;
 168:..\..\..\lvgl\version_6.1.2\lvgl\src\lv_draw/lv_draw_line.c ****                     p_tmp.y = main_line.p2.y;
 169:..\..\..\lvgl\version_6.1.2\lvgl\src\lv_draw/lv_draw_line.c ****                     line_init(&main_line, &p1, &p_tmp);
 170:..\..\..\lvgl\version_6.1.2\lvgl\src\lv_draw/lv_draw_line.c ****                     main_line.sx = -LV_MATH_ABS(main_line.sx); /*The sign can change if the line be
 171:..\..\..\lvgl\version_6.1.2\lvgl\src\lv_draw/lv_draw_line.c ****                 }
 172:..\..\..\lvgl\version_6.1.2\lvgl\src\lv_draw/lv_draw_line.c ****             }
 173:..\..\..\lvgl\version_6.1.2\lvgl\src\lv_draw/lv_draw_line.c ****         }
 174:..\..\..\lvgl\version_6.1.2\lvgl\src\lv_draw/lv_draw_line.c **** #endif
 175:..\..\..\lvgl\version_6.1.2\lvgl\src\lv_draw/lv_draw_line.c ****         line_draw_skew(&main_line, dir_ori, mask, style, opa_scale);
 176:..\..\..\lvgl\version_6.1.2\lvgl\src\lv_draw/lv_draw_line.c ****     }
 177:..\..\..\lvgl\version_6.1.2\lvgl\src\lv_draw/lv_draw_line.c **** }
  72              		.loc 1 177 0 is_stmt 1
  73 0030 1DB0     		add	sp, sp, #116
  74              		.cfi_remember_state
  75              		.cfi_def_cfa_offset 36
  76              		@ sp needed
  77 0032 BDE8F08F 		pop	{r4, r5, r6, r7, r8, r9, r10, fp, pc}
  78              	.LVL2:
  79              	.L4:
  80              		.cfi_restore_state
  87:..\..\..\lvgl\version_6.1.2\lvgl\src\lv_draw/lv_draw_line.c ****     if(point1->x > mask->x2 + style->line.width && point2->x > mask->x2 + style->line.width) return
  81              		.loc 1 87 0
  82 0036 B2F90440 		ldrsh	r4, [r2, #4]
  83 003a 3C44     		add	r4, r4, r7
  84 003c A542     		cmp	r5, r4
  85 003e 01DD     		ble	.L5
  87:..\..\..\lvgl\version_6.1.2\lvgl\src\lv_draw/lv_draw_line.c ****     if(point1->x > mask->x2 + style->line.width && point2->x > mask->x2 + style->line.width) return
  86              		.loc 1 87 0 is_stmt 0 discriminator 1
  87 0040 B442     		cmp	r4, r6
  88 0042 F5DB     		blt	.L1
  89              	.L5:
  88:..\..\..\lvgl\version_6.1.2\lvgl\src\lv_draw/lv_draw_line.c ****     if(point1->y > mask->y2 + style->line.width && point2->y > mask->y2 + style->line.width) return
  90              		.loc 1 88 0 is_stmt 1
  91 0044 B0F90200 		ldrsh	r0, [r0, #2]
  92              	.LVL3:
  93 0048 B2F90240 		ldrsh	r4, [r2, #2]
  94 004c 0890     		str	r0, [sp, #32]
  95 004e 0546     		mov	r5, r0
  96 0050 E01B     		subs	r0, r4, r7
  97 0052 8542     		cmp	r5, r0
  98 0054 B1F90210 		ldrsh	r1, [r1, #2]
  99              	.LVL4:
 100 0058 C0F2F180 		blt	.L162
 101              	.L153:
  89:..\..\..\lvgl\version_6.1.2\lvgl\src\lv_draw/lv_draw_line.c **** 
 102              		.loc 1 89 0
ARM GAS  C:\Users\pearlstl\AppData\Local\Temp\ccuP9Sbb.s 			page 6


 103 005c B2F90600 		ldrsh	r0, [r2, #6]
 104 0060 089C     		ldr	r4, [sp, #32]
 105 0062 3844     		add	r0, r0, r7
 106 0064 8442     		cmp	r4, r0
 107 0066 0D46     		mov	r5, r1
 108 0068 01DD     		ble	.L8
  89:..\..\..\lvgl\version_6.1.2\lvgl\src\lv_draw/lv_draw_line.c **** 
 109              		.loc 1 89 0 is_stmt 0 discriminator 1
 110 006a 8842     		cmp	r0, r1
 111 006c E0DB     		blt	.L1
 112              	.L8:
  97:..\..\..\lvgl\version_6.1.2\lvgl\src\lv_draw/lv_draw_line.c **** 
 113              		.loc 1 97 0 is_stmt 1
 114 006e 0798     		ldr	r0, [sp, #28]
 115 0070 841B     		subs	r4, r0, r6
 116 0072 0898     		ldr	r0, [sp, #32]
 117 0074 401A     		subs	r0, r0, r1
 118 0076 002C     		cmp	r4, #0
 119 0078 80EAE07A 		eor	r10, r0, r0, asr #31
 120 007c B8BF     		it	lt
 121 007e 6442     		rsblt	r4, r4, #0
 122 0080 AAEBE07A 		sub	r10, r10, r0, asr #31
 123 0084 5445     		cmp	r4, r10
 124 0086 0394     		str	r4, [sp, #12]
 125 0088 40F3DD80 		ble	.L9
 100:..\..\..\lvgl\version_6.1.2\lvgl\src\lv_draw/lv_draw_line.c ****             p1.x = point1->x;
 126              		.loc 1 100 0
 127 008c 0798     		ldr	r0, [sp, #28]
 128 008e B042     		cmp	r0, r6
 129 0090 0446     		mov	r4, r0
 130 0092 C0F20681 		blt	.L163
 131              	.L10:
 132              	.LVL5:
 133              	.LBB43:
 134              	.LBB44:
 178:..\..\..\lvgl\version_6.1.2\lvgl\src\lv_draw/lv_draw_line.c **** 
 179:..\..\..\lvgl\version_6.1.2\lvgl\src\lv_draw/lv_draw_line.c **** /**********************
 180:..\..\..\lvgl\version_6.1.2\lvgl\src\lv_draw/lv_draw_line.c ****  *   STATIC FUNCTIONS
 181:..\..\..\lvgl\version_6.1.2\lvgl\src\lv_draw/lv_draw_line.c ****  **********************/
 182:..\..\..\lvgl\version_6.1.2\lvgl\src\lv_draw/lv_draw_line.c **** 
 183:..\..\..\lvgl\version_6.1.2\lvgl\src\lv_draw/lv_draw_line.c **** static void line_draw_hor(line_draw_t * main_line, const lv_area_t * mask, const lv_style_t * style
 184:..\..\..\lvgl\version_6.1.2\lvgl\src\lv_draw/lv_draw_line.c **** {
 185:..\..\..\lvgl\version_6.1.2\lvgl\src\lv_draw/lv_draw_line.c ****     lv_coord_t width      = style->line.width - 1;
 186:..\..\..\lvgl\version_6.1.2\lvgl\src\lv_draw/lv_draw_line.c ****     lv_coord_t width_half = width >> 1;
 187:..\..\..\lvgl\version_6.1.2\lvgl\src\lv_draw/lv_draw_line.c ****     lv_coord_t width_1    = width & 0x1;
 188:..\..\..\lvgl\version_6.1.2\lvgl\src\lv_draw/lv_draw_line.c ****     lv_opa_t opa = opa_scale == LV_OPA_COVER ? style->line.opa : (uint16_t)((uint16_t)style->line.o
 189:..\..\..\lvgl\version_6.1.2\lvgl\src\lv_draw/lv_draw_line.c **** 
 190:..\..\..\lvgl\version_6.1.2\lvgl\src\lv_draw/lv_draw_line.c ****     lv_area_t act_area;
 191:..\..\..\lvgl\version_6.1.2\lvgl\src\lv_draw/lv_draw_line.c ****     act_area.x1 = main_line->p1.x;
 192:..\..\..\lvgl\version_6.1.2\lvgl\src\lv_draw/lv_draw_line.c ****     act_area.x2 = main_line->p2.x;
 193:..\..\..\lvgl\version_6.1.2\lvgl\src\lv_draw/lv_draw_line.c ****     act_area.y1 = main_line->p1.y - width_half - width_1;
 194:..\..\..\lvgl\version_6.1.2\lvgl\src\lv_draw/lv_draw_line.c ****     act_area.y2 = main_line->p2.y + width_half;
 195:..\..\..\lvgl\version_6.1.2\lvgl\src\lv_draw/lv_draw_line.c **** 
 196:..\..\..\lvgl\version_6.1.2\lvgl\src\lv_draw/lv_draw_line.c ****     lv_area_t draw_area;
 197:..\..\..\lvgl\version_6.1.2\lvgl\src\lv_draw/lv_draw_line.c ****     draw_area.x1 = LV_MATH_MIN(act_area.x1, act_area.x2);
 198:..\..\..\lvgl\version_6.1.2\lvgl\src\lv_draw/lv_draw_line.c ****     draw_area.x2 = LV_MATH_MAX(act_area.x1, act_area.x2);
 199:..\..\..\lvgl\version_6.1.2\lvgl\src\lv_draw/lv_draw_line.c ****     draw_area.y1 = LV_MATH_MIN(act_area.y1, act_area.y2);
ARM GAS  C:\Users\pearlstl\AppData\Local\Temp\ccuP9Sbb.s 			page 7


 200:..\..\..\lvgl\version_6.1.2\lvgl\src\lv_draw/lv_draw_line.c ****     draw_area.y2 = LV_MATH_MAX(act_area.y1, act_area.y2);
 201:..\..\..\lvgl\version_6.1.2\lvgl\src\lv_draw/lv_draw_line.c ****     lv_draw_fill(&draw_area, mask, style->line.color, opa);
 202:..\..\..\lvgl\version_6.1.2\lvgl\src\lv_draw/lv_draw_line.c **** }
 203:..\..\..\lvgl\version_6.1.2\lvgl\src\lv_draw/lv_draw_line.c **** 
 204:..\..\..\lvgl\version_6.1.2\lvgl\src\lv_draw/lv_draw_line.c **** static void line_draw_ver(line_draw_t * main_line, const lv_area_t * mask, const lv_style_t * style
 205:..\..\..\lvgl\version_6.1.2\lvgl\src\lv_draw/lv_draw_line.c **** {
 206:..\..\..\lvgl\version_6.1.2\lvgl\src\lv_draw/lv_draw_line.c ****     lv_coord_t width      = style->line.width - 1;
 207:..\..\..\lvgl\version_6.1.2\lvgl\src\lv_draw/lv_draw_line.c ****     lv_coord_t width_half = width >> 1;
 208:..\..\..\lvgl\version_6.1.2\lvgl\src\lv_draw/lv_draw_line.c ****     lv_coord_t width_1    = width & 0x1;
 209:..\..\..\lvgl\version_6.1.2\lvgl\src\lv_draw/lv_draw_line.c ****     lv_opa_t opa = opa_scale == LV_OPA_COVER ? style->line.opa : (uint16_t)((uint16_t)style->line.o
 210:..\..\..\lvgl\version_6.1.2\lvgl\src\lv_draw/lv_draw_line.c **** 
 211:..\..\..\lvgl\version_6.1.2\lvgl\src\lv_draw/lv_draw_line.c ****     lv_area_t act_area;
 212:..\..\..\lvgl\version_6.1.2\lvgl\src\lv_draw/lv_draw_line.c ****     act_area.x1 = main_line->p1.x - width_half;
 213:..\..\..\lvgl\version_6.1.2\lvgl\src\lv_draw/lv_draw_line.c ****     act_area.x2 = main_line->p2.x + width_half + width_1;
 214:..\..\..\lvgl\version_6.1.2\lvgl\src\lv_draw/lv_draw_line.c ****     act_area.y1 = main_line->p1.y;
 215:..\..\..\lvgl\version_6.1.2\lvgl\src\lv_draw/lv_draw_line.c ****     act_area.y2 = main_line->p2.y;
 216:..\..\..\lvgl\version_6.1.2\lvgl\src\lv_draw/lv_draw_line.c **** 
 217:..\..\..\lvgl\version_6.1.2\lvgl\src\lv_draw/lv_draw_line.c ****     lv_area_t draw_area;
 218:..\..\..\lvgl\version_6.1.2\lvgl\src\lv_draw/lv_draw_line.c ****     draw_area.x1 = LV_MATH_MIN(act_area.x1, act_area.x2);
 219:..\..\..\lvgl\version_6.1.2\lvgl\src\lv_draw/lv_draw_line.c ****     draw_area.x2 = LV_MATH_MAX(act_area.x1, act_area.x2);
 220:..\..\..\lvgl\version_6.1.2\lvgl\src\lv_draw/lv_draw_line.c ****     draw_area.y1 = LV_MATH_MIN(act_area.y1, act_area.y2);
 221:..\..\..\lvgl\version_6.1.2\lvgl\src\lv_draw/lv_draw_line.c ****     draw_area.y2 = LV_MATH_MAX(act_area.y1, act_area.y2);
 222:..\..\..\lvgl\version_6.1.2\lvgl\src\lv_draw/lv_draw_line.c ****     lv_draw_fill(&draw_area, mask, style->line.color, opa);
 223:..\..\..\lvgl\version_6.1.2\lvgl\src\lv_draw/lv_draw_line.c **** }
 224:..\..\..\lvgl\version_6.1.2\lvgl\src\lv_draw/lv_draw_line.c **** 
 225:..\..\..\lvgl\version_6.1.2\lvgl\src\lv_draw/lv_draw_line.c **** static void line_draw_skew(line_draw_t * main_line, bool dir_ori, const lv_area_t * mask, const lv_
 226:..\..\..\lvgl\version_6.1.2\lvgl\src\lv_draw/lv_draw_line.c ****                            lv_opa_t opa_scale)
 227:..\..\..\lvgl\version_6.1.2\lvgl\src\lv_draw/lv_draw_line.c **** {
 228:..\..\..\lvgl\version_6.1.2\lvgl\src\lv_draw/lv_draw_line.c **** 
 229:..\..\..\lvgl\version_6.1.2\lvgl\src\lv_draw/lv_draw_line.c ****     lv_opa_t opa = opa_scale == LV_OPA_COVER ? style->line.opa : (uint16_t)((uint16_t)style->line.o
 230:..\..\..\lvgl\version_6.1.2\lvgl\src\lv_draw/lv_draw_line.c **** #if LV_ANTIALIAS
 231:..\..\..\lvgl\version_6.1.2\lvgl\src\lv_draw/lv_draw_line.c ****     bool aa = lv_disp_get_antialiasing(lv_refr_get_disp_refreshing());
 232:..\..\..\lvgl\version_6.1.2\lvgl\src\lv_draw/lv_draw_line.c **** #endif
 233:..\..\..\lvgl\version_6.1.2\lvgl\src\lv_draw/lv_draw_line.c ****     lv_point_t vect_main, vect_norm;
 234:..\..\..\lvgl\version_6.1.2\lvgl\src\lv_draw/lv_draw_line.c ****     vect_main.x = main_line->p2.x - main_line->p1.x;
 235:..\..\..\lvgl\version_6.1.2\lvgl\src\lv_draw/lv_draw_line.c ****     vect_main.y = main_line->p2.y - main_line->p1.y;
 236:..\..\..\lvgl\version_6.1.2\lvgl\src\lv_draw/lv_draw_line.c **** 
 237:..\..\..\lvgl\version_6.1.2\lvgl\src\lv_draw/lv_draw_line.c ****     if(main_line->hor) {
 238:..\..\..\lvgl\version_6.1.2\lvgl\src\lv_draw/lv_draw_line.c ****         if(main_line->p1.y < main_line->p2.y + dir_ori) {
 239:..\..\..\lvgl\version_6.1.2\lvgl\src\lv_draw/lv_draw_line.c ****             vect_norm.x = -vect_main.y;
 240:..\..\..\lvgl\version_6.1.2\lvgl\src\lv_draw/lv_draw_line.c ****             vect_norm.y = vect_main.x;
 241:..\..\..\lvgl\version_6.1.2\lvgl\src\lv_draw/lv_draw_line.c ****         } else {
 242:..\..\..\lvgl\version_6.1.2\lvgl\src\lv_draw/lv_draw_line.c ****             vect_norm.x = vect_main.y;
 243:..\..\..\lvgl\version_6.1.2\lvgl\src\lv_draw/lv_draw_line.c ****             vect_norm.y = -vect_main.x;
 244:..\..\..\lvgl\version_6.1.2\lvgl\src\lv_draw/lv_draw_line.c ****         }
 245:..\..\..\lvgl\version_6.1.2\lvgl\src\lv_draw/lv_draw_line.c ****     } else {
 246:..\..\..\lvgl\version_6.1.2\lvgl\src\lv_draw/lv_draw_line.c ****         if(main_line->p1.x < main_line->p2.x + dir_ori) {
 247:..\..\..\lvgl\version_6.1.2\lvgl\src\lv_draw/lv_draw_line.c ****             vect_norm.x = vect_main.y;
 248:..\..\..\lvgl\version_6.1.2\lvgl\src\lv_draw/lv_draw_line.c ****             vect_norm.y = -vect_main.x;
 249:..\..\..\lvgl\version_6.1.2\lvgl\src\lv_draw/lv_draw_line.c ****         } else {
 250:..\..\..\lvgl\version_6.1.2\lvgl\src\lv_draw/lv_draw_line.c ****             vect_norm.x = -vect_main.y;
 251:..\..\..\lvgl\version_6.1.2\lvgl\src\lv_draw/lv_draw_line.c ****             vect_norm.y = vect_main.x;
 252:..\..\..\lvgl\version_6.1.2\lvgl\src\lv_draw/lv_draw_line.c ****         }
 253:..\..\..\lvgl\version_6.1.2\lvgl\src\lv_draw/lv_draw_line.c ****     }
 254:..\..\..\lvgl\version_6.1.2\lvgl\src\lv_draw/lv_draw_line.c **** 
 255:..\..\..\lvgl\version_6.1.2\lvgl\src\lv_draw/lv_draw_line.c ****     /* In case of a short but tick line the perpendicular ending is longer then the real line.
 256:..\..\..\lvgl\version_6.1.2\lvgl\src\lv_draw/lv_draw_line.c ****      * it would break the calculations so make the normal vector larger*/
ARM GAS  C:\Users\pearlstl\AppData\Local\Temp\ccuP9Sbb.s 			page 8


 257:..\..\..\lvgl\version_6.1.2\lvgl\src\lv_draw/lv_draw_line.c ****     vect_norm.x = vect_norm.x << 4;
 258:..\..\..\lvgl\version_6.1.2\lvgl\src\lv_draw/lv_draw_line.c ****     vect_norm.y = vect_norm.y << 4;
 259:..\..\..\lvgl\version_6.1.2\lvgl\src\lv_draw/lv_draw_line.c **** 
 260:..\..\..\lvgl\version_6.1.2\lvgl\src\lv_draw/lv_draw_line.c ****     lv_coord_t width;
 261:..\..\..\lvgl\version_6.1.2\lvgl\src\lv_draw/lv_draw_line.c ****     width = style->line.width;
 262:..\..\..\lvgl\version_6.1.2\lvgl\src\lv_draw/lv_draw_line.c **** 
 263:..\..\..\lvgl\version_6.1.2\lvgl\src\lv_draw/lv_draw_line.c ****     /* The pattern stores the points of the line ending. It has the good direction and length.
 264:..\..\..\lvgl\version_6.1.2\lvgl\src\lv_draw/lv_draw_line.c ****      * The worth case is the 45° line where pattern can have 1.41 x `width` points*/
 265:..\..\..\lvgl\version_6.1.2\lvgl\src\lv_draw/lv_draw_line.c **** 
 266:..\..\..\lvgl\version_6.1.2\lvgl\src\lv_draw/lv_draw_line.c ****     lv_coord_t pattern_size = width * 2;
 267:..\..\..\lvgl\version_6.1.2\lvgl\src\lv_draw/lv_draw_line.c ****     lv_point_t * pattern = lv_draw_get_buf(pattern_size * sizeof(lv_point_t));
 268:..\..\..\lvgl\version_6.1.2\lvgl\src\lv_draw/lv_draw_line.c ****     lv_coord_t i = 0;
 269:..\..\..\lvgl\version_6.1.2\lvgl\src\lv_draw/lv_draw_line.c **** 
 270:..\..\..\lvgl\version_6.1.2\lvgl\src\lv_draw/lv_draw_line.c ****     /*Create a perpendicular pattern (a small line)*/
 271:..\..\..\lvgl\version_6.1.2\lvgl\src\lv_draw/lv_draw_line.c ****     if(width != 0) {
 272:..\..\..\lvgl\version_6.1.2\lvgl\src\lv_draw/lv_draw_line.c ****         line_draw_t pattern_line;
 273:..\..\..\lvgl\version_6.1.2\lvgl\src\lv_draw/lv_draw_line.c ****         lv_point_t p0 = {0, 0};
 274:..\..\..\lvgl\version_6.1.2\lvgl\src\lv_draw/lv_draw_line.c ****         line_init(&pattern_line, &p0, &vect_norm);
 275:..\..\..\lvgl\version_6.1.2\lvgl\src\lv_draw/lv_draw_line.c **** 
 276:..\..\..\lvgl\version_6.1.2\lvgl\src\lv_draw/lv_draw_line.c ****         uint32_t width_sqr = width * width;
 277:..\..\..\lvgl\version_6.1.2\lvgl\src\lv_draw/lv_draw_line.c ****         /* Run for a lot of times. Meanwhile the real width will be determined as well */
 278:..\..\..\lvgl\version_6.1.2\lvgl\src\lv_draw/lv_draw_line.c ****         for(i = 0; i < (lv_coord_t)pattern_size - 1; i++) {
 279:..\..\..\lvgl\version_6.1.2\lvgl\src\lv_draw/lv_draw_line.c ****             pattern[i].x = pattern_line.p_act.x;
 280:..\..\..\lvgl\version_6.1.2\lvgl\src\lv_draw/lv_draw_line.c ****             pattern[i].y = pattern_line.p_act.y;
 281:..\..\..\lvgl\version_6.1.2\lvgl\src\lv_draw/lv_draw_line.c **** 
 282:..\..\..\lvgl\version_6.1.2\lvgl\src\lv_draw/lv_draw_line.c ****             /*Finish the pattern line if it's length equal to the desired width (Use Pythagoras
 283:..\..\..\lvgl\version_6.1.2\lvgl\src\lv_draw/lv_draw_line.c ****              * theorem)*/
 284:..\..\..\lvgl\version_6.1.2\lvgl\src\lv_draw/lv_draw_line.c ****             uint32_t sqr = pattern_line.p_act.x * pattern_line.p_act.x + pattern_line.p_act.y * pat
 285:..\..\..\lvgl\version_6.1.2\lvgl\src\lv_draw/lv_draw_line.c ****             if(sqr >= width_sqr) {
 286:..\..\..\lvgl\version_6.1.2\lvgl\src\lv_draw/lv_draw_line.c ****                 width = i;
 287:..\..\..\lvgl\version_6.1.2\lvgl\src\lv_draw/lv_draw_line.c **** #if LV_ANTIALIAS
 288:..\..\..\lvgl\version_6.1.2\lvgl\src\lv_draw/lv_draw_line.c ****                 if(aa) width--;
 289:..\..\..\lvgl\version_6.1.2\lvgl\src\lv_draw/lv_draw_line.c **** #endif
 290:..\..\..\lvgl\version_6.1.2\lvgl\src\lv_draw/lv_draw_line.c ****                 break;
 291:..\..\..\lvgl\version_6.1.2\lvgl\src\lv_draw/lv_draw_line.c ****             }
 292:..\..\..\lvgl\version_6.1.2\lvgl\src\lv_draw/lv_draw_line.c **** 
 293:..\..\..\lvgl\version_6.1.2\lvgl\src\lv_draw/lv_draw_line.c ****             line_next(&pattern_line);
 294:..\..\..\lvgl\version_6.1.2\lvgl\src\lv_draw/lv_draw_line.c ****         }
 295:..\..\..\lvgl\version_6.1.2\lvgl\src\lv_draw/lv_draw_line.c ****     }
 296:..\..\..\lvgl\version_6.1.2\lvgl\src\lv_draw/lv_draw_line.c **** 
 297:..\..\..\lvgl\version_6.1.2\lvgl\src\lv_draw/lv_draw_line.c **** #if LV_ANTIALIAS
 298:..\..\..\lvgl\version_6.1.2\lvgl\src\lv_draw/lv_draw_line.c ****     lv_coord_t aa_last_corner;
 299:..\..\..\lvgl\version_6.1.2\lvgl\src\lv_draw/lv_draw_line.c ****     lv_coord_t width_safe = width;
 300:..\..\..\lvgl\version_6.1.2\lvgl\src\lv_draw/lv_draw_line.c ****     if(aa) {
 301:..\..\..\lvgl\version_6.1.2\lvgl\src\lv_draw/lv_draw_line.c ****         if(width == 0) width_safe = 1;
 302:..\..\..\lvgl\version_6.1.2\lvgl\src\lv_draw/lv_draw_line.c **** 
 303:..\..\..\lvgl\version_6.1.2\lvgl\src\lv_draw/lv_draw_line.c ****         aa_last_corner = 0;
 304:..\..\..\lvgl\version_6.1.2\lvgl\src\lv_draw/lv_draw_line.c ****     }
 305:..\..\..\lvgl\version_6.1.2\lvgl\src\lv_draw/lv_draw_line.c **** #endif
 306:..\..\..\lvgl\version_6.1.2\lvgl\src\lv_draw/lv_draw_line.c **** 
 307:..\..\..\lvgl\version_6.1.2\lvgl\src\lv_draw/lv_draw_line.c ****     lv_coord_t x_center_ofs = 0;
 308:..\..\..\lvgl\version_6.1.2\lvgl\src\lv_draw/lv_draw_line.c ****     lv_coord_t y_center_ofs = 0;
 309:..\..\..\lvgl\version_6.1.2\lvgl\src\lv_draw/lv_draw_line.c **** 
 310:..\..\..\lvgl\version_6.1.2\lvgl\src\lv_draw/lv_draw_line.c ****     if(width != 0) {
 311:..\..\..\lvgl\version_6.1.2\lvgl\src\lv_draw/lv_draw_line.c ****         x_center_ofs = pattern[width - 1].x / 2;
 312:..\..\..\lvgl\version_6.1.2\lvgl\src\lv_draw/lv_draw_line.c ****         y_center_ofs = pattern[width - 1].y / 2;
 313:..\..\..\lvgl\version_6.1.2\lvgl\src\lv_draw/lv_draw_line.c ****     } else {
ARM GAS  C:\Users\pearlstl\AppData\Local\Temp\ccuP9Sbb.s 			page 9


 314:..\..\..\lvgl\version_6.1.2\lvgl\src\lv_draw/lv_draw_line.c ****         if(main_line->hor && main_line->p1.y >= main_line->p2.y + dir_ori) pattern[0].y--;
 315:..\..\..\lvgl\version_6.1.2\lvgl\src\lv_draw/lv_draw_line.c ****         if(!main_line->hor && main_line->p1.x >= main_line->p2.x + dir_ori) pattern[0].x--;
 316:..\..\..\lvgl\version_6.1.2\lvgl\src\lv_draw/lv_draw_line.c ****     }
 317:..\..\..\lvgl\version_6.1.2\lvgl\src\lv_draw/lv_draw_line.c **** 
 318:..\..\..\lvgl\version_6.1.2\lvgl\src\lv_draw/lv_draw_line.c ****     /* Make the coordinates relative to the center */
 319:..\..\..\lvgl\version_6.1.2\lvgl\src\lv_draw/lv_draw_line.c ****     for(i = 0; i < width; i++) {
 320:..\..\..\lvgl\version_6.1.2\lvgl\src\lv_draw/lv_draw_line.c ****         pattern[i].x -= x_center_ofs;
 321:..\..\..\lvgl\version_6.1.2\lvgl\src\lv_draw/lv_draw_line.c ****         pattern[i].y -= y_center_ofs;
 322:..\..\..\lvgl\version_6.1.2\lvgl\src\lv_draw/lv_draw_line.c **** #if LV_ANTIALIAS
 323:..\..\..\lvgl\version_6.1.2\lvgl\src\lv_draw/lv_draw_line.c ****         if(aa) {
 324:..\..\..\lvgl\version_6.1.2\lvgl\src\lv_draw/lv_draw_line.c ****             if(i != 0) {
 325:..\..\..\lvgl\version_6.1.2\lvgl\src\lv_draw/lv_draw_line.c ****                 if(main_line->hor) {
 326:..\..\..\lvgl\version_6.1.2\lvgl\src\lv_draw/lv_draw_line.c ****                     if(pattern[i - 1].x != pattern[i].x) {
 327:..\..\..\lvgl\version_6.1.2\lvgl\src\lv_draw/lv_draw_line.c ****                         lv_coord_t seg_w = pattern[i].y - pattern[aa_last_corner].y;
 328:..\..\..\lvgl\version_6.1.2\lvgl\src\lv_draw/lv_draw_line.c ****                         if(main_line->sy < 0) {
 329:..\..\..\lvgl\version_6.1.2\lvgl\src\lv_draw/lv_draw_line.c ****                             lv_draw_aa_ver_seg(main_line->p1.x + pattern[aa_last_corner].x - 1,
 330:..\..\..\lvgl\version_6.1.2\lvgl\src\lv_draw/lv_draw_line.c ****                                                main_line->p1.y + pattern[aa_last_corner].y + seg_w 
 331:..\..\..\lvgl\version_6.1.2\lvgl\src\lv_draw/lv_draw_line.c ****                                                style->line.color, opa);
 332:..\..\..\lvgl\version_6.1.2\lvgl\src\lv_draw/lv_draw_line.c **** 
 333:..\..\..\lvgl\version_6.1.2\lvgl\src\lv_draw/lv_draw_line.c ****                             lv_draw_aa_ver_seg(main_line->p2.x + pattern[aa_last_corner].x + 1,
 334:..\..\..\lvgl\version_6.1.2\lvgl\src\lv_draw/lv_draw_line.c ****                                                main_line->p2.y + pattern[aa_last_corner].y + seg_w 
 335:..\..\..\lvgl\version_6.1.2\lvgl\src\lv_draw/lv_draw_line.c ****                                                style->line.color, opa);
 336:..\..\..\lvgl\version_6.1.2\lvgl\src\lv_draw/lv_draw_line.c ****                         } else {
 337:..\..\..\lvgl\version_6.1.2\lvgl\src\lv_draw/lv_draw_line.c ****                             lv_draw_aa_ver_seg(main_line->p1.x + pattern[aa_last_corner].x - 1,
 338:..\..\..\lvgl\version_6.1.2\lvgl\src\lv_draw/lv_draw_line.c ****                                                main_line->p1.y + pattern[aa_last_corner].y, seg_w, 
 339:..\..\..\lvgl\version_6.1.2\lvgl\src\lv_draw/lv_draw_line.c ****                                                style->line.color, opa);
 340:..\..\..\lvgl\version_6.1.2\lvgl\src\lv_draw/lv_draw_line.c **** 
 341:..\..\..\lvgl\version_6.1.2\lvgl\src\lv_draw/lv_draw_line.c ****                             lv_draw_aa_ver_seg(main_line->p2.x + pattern[aa_last_corner].x + 1,
 342:..\..\..\lvgl\version_6.1.2\lvgl\src\lv_draw/lv_draw_line.c ****                                                main_line->p2.y + pattern[aa_last_corner].y, -seg_w,
 343:..\..\..\lvgl\version_6.1.2\lvgl\src\lv_draw/lv_draw_line.c ****                                                style->line.color, opa);
 344:..\..\..\lvgl\version_6.1.2\lvgl\src\lv_draw/lv_draw_line.c ****                         }
 345:..\..\..\lvgl\version_6.1.2\lvgl\src\lv_draw/lv_draw_line.c ****                         aa_last_corner = i;
 346:..\..\..\lvgl\version_6.1.2\lvgl\src\lv_draw/lv_draw_line.c ****                     }
 347:..\..\..\lvgl\version_6.1.2\lvgl\src\lv_draw/lv_draw_line.c ****                 } else {
 348:..\..\..\lvgl\version_6.1.2\lvgl\src\lv_draw/lv_draw_line.c ****                     if(pattern[i - 1].y != pattern[i].y) {
 349:..\..\..\lvgl\version_6.1.2\lvgl\src\lv_draw/lv_draw_line.c ****                         lv_coord_t seg_w = pattern[i].x - pattern[aa_last_corner].x;
 350:..\..\..\lvgl\version_6.1.2\lvgl\src\lv_draw/lv_draw_line.c ****                         if(main_line->sx < 0) {
 351:..\..\..\lvgl\version_6.1.2\lvgl\src\lv_draw/lv_draw_line.c ****                             lv_draw_aa_hor_seg(main_line->p1.x + pattern[aa_last_corner].x + seg_w 
 352:..\..\..\lvgl\version_6.1.2\lvgl\src\lv_draw/lv_draw_line.c ****                                                main_line->p1.y + pattern[aa_last_corner].y - 1, seg
 353:..\..\..\lvgl\version_6.1.2\lvgl\src\lv_draw/lv_draw_line.c ****                                                style->line.color, opa);
 354:..\..\..\lvgl\version_6.1.2\lvgl\src\lv_draw/lv_draw_line.c **** 
 355:..\..\..\lvgl\version_6.1.2\lvgl\src\lv_draw/lv_draw_line.c ****                             lv_draw_aa_hor_seg(main_line->p2.x + pattern[aa_last_corner].x + seg_w 
 356:..\..\..\lvgl\version_6.1.2\lvgl\src\lv_draw/lv_draw_line.c ****                                                main_line->p2.y + pattern[aa_last_corner].y + 1, -se
 357:..\..\..\lvgl\version_6.1.2\lvgl\src\lv_draw/lv_draw_line.c ****                                                style->line.color, opa);
 358:..\..\..\lvgl\version_6.1.2\lvgl\src\lv_draw/lv_draw_line.c ****                         } else {
 359:..\..\..\lvgl\version_6.1.2\lvgl\src\lv_draw/lv_draw_line.c ****                             lv_draw_aa_hor_seg(main_line->p1.x + pattern[aa_last_corner].x,
 360:..\..\..\lvgl\version_6.1.2\lvgl\src\lv_draw/lv_draw_line.c ****                                                main_line->p1.y + pattern[aa_last_corner].y - 1, seg
 361:..\..\..\lvgl\version_6.1.2\lvgl\src\lv_draw/lv_draw_line.c ****                                                style->line.color, opa);
 362:..\..\..\lvgl\version_6.1.2\lvgl\src\lv_draw/lv_draw_line.c **** 
 363:..\..\..\lvgl\version_6.1.2\lvgl\src\lv_draw/lv_draw_line.c ****                             lv_draw_aa_hor_seg(main_line->p2.x + pattern[aa_last_corner].x,
 364:..\..\..\lvgl\version_6.1.2\lvgl\src\lv_draw/lv_draw_line.c ****                                                main_line->p2.y + pattern[aa_last_corner].y + 1, -se
 365:..\..\..\lvgl\version_6.1.2\lvgl\src\lv_draw/lv_draw_line.c ****                                                style->line.color, opa);
 366:..\..\..\lvgl\version_6.1.2\lvgl\src\lv_draw/lv_draw_line.c ****                         }
 367:..\..\..\lvgl\version_6.1.2\lvgl\src\lv_draw/lv_draw_line.c ****                         aa_last_corner = i;
 368:..\..\..\lvgl\version_6.1.2\lvgl\src\lv_draw/lv_draw_line.c ****                     }
 369:..\..\..\lvgl\version_6.1.2\lvgl\src\lv_draw/lv_draw_line.c ****                 }
 370:..\..\..\lvgl\version_6.1.2\lvgl\src\lv_draw/lv_draw_line.c ****             }
ARM GAS  C:\Users\pearlstl\AppData\Local\Temp\ccuP9Sbb.s 			page 10


 371:..\..\..\lvgl\version_6.1.2\lvgl\src\lv_draw/lv_draw_line.c ****         }
 372:..\..\..\lvgl\version_6.1.2\lvgl\src\lv_draw/lv_draw_line.c **** #endif
 373:..\..\..\lvgl\version_6.1.2\lvgl\src\lv_draw/lv_draw_line.c ****     }
 374:..\..\..\lvgl\version_6.1.2\lvgl\src\lv_draw/lv_draw_line.c **** 
 375:..\..\..\lvgl\version_6.1.2\lvgl\src\lv_draw/lv_draw_line.c **** #if LV_ANTIALIAS
 376:..\..\..\lvgl\version_6.1.2\lvgl\src\lv_draw/lv_draw_line.c ****     /*Add the last part of anti-aliasing for the perpendicular ending*/
 377:..\..\..\lvgl\version_6.1.2\lvgl\src\lv_draw/lv_draw_line.c ****     if(width != 0 && aa) { /*Due to rounding error with very thin lines it looks ugly*/
 378:..\..\..\lvgl\version_6.1.2\lvgl\src\lv_draw/lv_draw_line.c ****         if(main_line->hor) {
 379:..\..\..\lvgl\version_6.1.2\lvgl\src\lv_draw/lv_draw_line.c ****             lv_coord_t seg_w = pattern[width_safe - 1].y - pattern[aa_last_corner].y;
 380:..\..\..\lvgl\version_6.1.2\lvgl\src\lv_draw/lv_draw_line.c ****             if(main_line->sy < 0) {
 381:..\..\..\lvgl\version_6.1.2\lvgl\src\lv_draw/lv_draw_line.c ****                 lv_draw_aa_ver_seg(main_line->p1.x + pattern[aa_last_corner].x - 1,
 382:..\..\..\lvgl\version_6.1.2\lvgl\src\lv_draw/lv_draw_line.c ****                                    main_line->p1.y + pattern[aa_last_corner].y + seg_w, seg_w + mai
 383:..\..\..\lvgl\version_6.1.2\lvgl\src\lv_draw/lv_draw_line.c ****                                    style->line.color, opa);
 384:..\..\..\lvgl\version_6.1.2\lvgl\src\lv_draw/lv_draw_line.c **** 
 385:..\..\..\lvgl\version_6.1.2\lvgl\src\lv_draw/lv_draw_line.c ****                 lv_draw_aa_ver_seg(main_line->p2.x + pattern[aa_last_corner].x + 1,
 386:..\..\..\lvgl\version_6.1.2\lvgl\src\lv_draw/lv_draw_line.c ****                                    main_line->p2.y + pattern[aa_last_corner].y + seg_w, -(seg_w + m
 387:..\..\..\lvgl\version_6.1.2\lvgl\src\lv_draw/lv_draw_line.c ****                                    style->line.color, opa);
 388:..\..\..\lvgl\version_6.1.2\lvgl\src\lv_draw/lv_draw_line.c **** 
 389:..\..\..\lvgl\version_6.1.2\lvgl\src\lv_draw/lv_draw_line.c ****             } else {
 390:..\..\..\lvgl\version_6.1.2\lvgl\src\lv_draw/lv_draw_line.c ****                 lv_draw_aa_ver_seg(main_line->p1.x + pattern[aa_last_corner].x - 1,
 391:..\..\..\lvgl\version_6.1.2\lvgl\src\lv_draw/lv_draw_line.c ****                                    main_line->p1.y + pattern[aa_last_corner].y, seg_w + main_line->
 392:..\..\..\lvgl\version_6.1.2\lvgl\src\lv_draw/lv_draw_line.c ****                                    style->line.color, opa);
 393:..\..\..\lvgl\version_6.1.2\lvgl\src\lv_draw/lv_draw_line.c **** 
 394:..\..\..\lvgl\version_6.1.2\lvgl\src\lv_draw/lv_draw_line.c ****                 lv_draw_aa_ver_seg(main_line->p2.x + pattern[aa_last_corner].x + 1,
 395:..\..\..\lvgl\version_6.1.2\lvgl\src\lv_draw/lv_draw_line.c ****                                    main_line->p2.y + pattern[aa_last_corner].y, -(seg_w + main_line
 396:..\..\..\lvgl\version_6.1.2\lvgl\src\lv_draw/lv_draw_line.c ****                                    style->line.color, opa);
 397:..\..\..\lvgl\version_6.1.2\lvgl\src\lv_draw/lv_draw_line.c ****             }
 398:..\..\..\lvgl\version_6.1.2\lvgl\src\lv_draw/lv_draw_line.c ****         } else {
 399:..\..\..\lvgl\version_6.1.2\lvgl\src\lv_draw/lv_draw_line.c ****             lv_coord_t seg_w = pattern[width_safe - 1].x - pattern[aa_last_corner].x;
 400:..\..\..\lvgl\version_6.1.2\lvgl\src\lv_draw/lv_draw_line.c ****             if(main_line->sx < 0) {
 401:..\..\..\lvgl\version_6.1.2\lvgl\src\lv_draw/lv_draw_line.c ****                 lv_draw_aa_hor_seg(main_line->p1.x + pattern[aa_last_corner].x + seg_w,
 402:..\..\..\lvgl\version_6.1.2\lvgl\src\lv_draw/lv_draw_line.c ****                                    main_line->p1.y + pattern[aa_last_corner].y - 1, seg_w + main_li
 403:..\..\..\lvgl\version_6.1.2\lvgl\src\lv_draw/lv_draw_line.c ****                                    style->line.color, opa);
 404:..\..\..\lvgl\version_6.1.2\lvgl\src\lv_draw/lv_draw_line.c **** 
 405:..\..\..\lvgl\version_6.1.2\lvgl\src\lv_draw/lv_draw_line.c ****                 lv_draw_aa_hor_seg(main_line->p2.x + pattern[aa_last_corner].x + seg_w,
 406:..\..\..\lvgl\version_6.1.2\lvgl\src\lv_draw/lv_draw_line.c ****                                    main_line->p2.y + pattern[aa_last_corner].y + 1, -(seg_w + main_
 407:..\..\..\lvgl\version_6.1.2\lvgl\src\lv_draw/lv_draw_line.c ****                                    style->line.color, opa);
 408:..\..\..\lvgl\version_6.1.2\lvgl\src\lv_draw/lv_draw_line.c **** 
 409:..\..\..\lvgl\version_6.1.2\lvgl\src\lv_draw/lv_draw_line.c ****             } else {
 410:..\..\..\lvgl\version_6.1.2\lvgl\src\lv_draw/lv_draw_line.c ****                 lv_draw_aa_hor_seg(main_line->p1.x + pattern[aa_last_corner].x,
 411:..\..\..\lvgl\version_6.1.2\lvgl\src\lv_draw/lv_draw_line.c ****                                    main_line->p1.y + pattern[aa_last_corner].y - 1, seg_w + main_li
 412:..\..\..\lvgl\version_6.1.2\lvgl\src\lv_draw/lv_draw_line.c ****                                    style->line.color, opa);
 413:..\..\..\lvgl\version_6.1.2\lvgl\src\lv_draw/lv_draw_line.c **** 
 414:..\..\..\lvgl\version_6.1.2\lvgl\src\lv_draw/lv_draw_line.c ****                 lv_draw_aa_hor_seg(main_line->p2.x + pattern[aa_last_corner].x,
 415:..\..\..\lvgl\version_6.1.2\lvgl\src\lv_draw/lv_draw_line.c ****                                    main_line->p2.y + pattern[aa_last_corner].y + 1, -(seg_w + main_
 416:..\..\..\lvgl\version_6.1.2\lvgl\src\lv_draw/lv_draw_line.c ****                                    style->line.color, opa);
 417:..\..\..\lvgl\version_6.1.2\lvgl\src\lv_draw/lv_draw_line.c ****             }
 418:..\..\..\lvgl\version_6.1.2\lvgl\src\lv_draw/lv_draw_line.c ****         }
 419:..\..\..\lvgl\version_6.1.2\lvgl\src\lv_draw/lv_draw_line.c ****     }
 420:..\..\..\lvgl\version_6.1.2\lvgl\src\lv_draw/lv_draw_line.c **** #endif
 421:..\..\..\lvgl\version_6.1.2\lvgl\src\lv_draw/lv_draw_line.c **** 
 422:..\..\..\lvgl\version_6.1.2\lvgl\src\lv_draw/lv_draw_line.c **** #if LV_ANTIALIAS
 423:..\..\..\lvgl\version_6.1.2\lvgl\src\lv_draw/lv_draw_line.c **** 
 424:..\..\..\lvgl\version_6.1.2\lvgl\src\lv_draw/lv_draw_line.c ****     /*Shift the anti aliasing on the edges (-1, 1 or 0 (zero only in case width == 0))*/
 425:..\..\..\lvgl\version_6.1.2\lvgl\src\lv_draw/lv_draw_line.c ****     lv_coord_t aa_shift1 = 0;
 426:..\..\..\lvgl\version_6.1.2\lvgl\src\lv_draw/lv_draw_line.c ****     lv_coord_t aa_shift2 = 0;
 427:..\..\..\lvgl\version_6.1.2\lvgl\src\lv_draw/lv_draw_line.c ****     if(aa) {
ARM GAS  C:\Users\pearlstl\AppData\Local\Temp\ccuP9Sbb.s 			page 11


 428:..\..\..\lvgl\version_6.1.2\lvgl\src\lv_draw/lv_draw_line.c ****         if(main_line->hor == false) {
 429:..\..\..\lvgl\version_6.1.2\lvgl\src\lv_draw/lv_draw_line.c ****             if(main_line->sx < 0) {
 430:..\..\..\lvgl\version_6.1.2\lvgl\src\lv_draw/lv_draw_line.c ****                 aa_shift1 = -1;
 431:..\..\..\lvgl\version_6.1.2\lvgl\src\lv_draw/lv_draw_line.c ****                 aa_shift2 = width == 0 ? 0 : aa_shift1;
 432:..\..\..\lvgl\version_6.1.2\lvgl\src\lv_draw/lv_draw_line.c ****             } else {
 433:..\..\..\lvgl\version_6.1.2\lvgl\src\lv_draw/lv_draw_line.c ****                 aa_shift2 = 1;
 434:..\..\..\lvgl\version_6.1.2\lvgl\src\lv_draw/lv_draw_line.c ****                 aa_shift1 = width == 0 ? 0 : aa_shift2;
 435:..\..\..\lvgl\version_6.1.2\lvgl\src\lv_draw/lv_draw_line.c ****             }
 436:..\..\..\lvgl\version_6.1.2\lvgl\src\lv_draw/lv_draw_line.c ****         } else {
 437:..\..\..\lvgl\version_6.1.2\lvgl\src\lv_draw/lv_draw_line.c ****             if(main_line->sy < 0) {
 438:..\..\..\lvgl\version_6.1.2\lvgl\src\lv_draw/lv_draw_line.c ****                 aa_shift1 = -1;
 439:..\..\..\lvgl\version_6.1.2\lvgl\src\lv_draw/lv_draw_line.c ****                 aa_shift2 = width == 0 ? 0 : aa_shift1;
 440:..\..\..\lvgl\version_6.1.2\lvgl\src\lv_draw/lv_draw_line.c ****             } else {
 441:..\..\..\lvgl\version_6.1.2\lvgl\src\lv_draw/lv_draw_line.c ****                 aa_shift2 = 1;
 442:..\..\..\lvgl\version_6.1.2\lvgl\src\lv_draw/lv_draw_line.c ****                 aa_shift1 = width == 0 ? 0 : aa_shift2;
 443:..\..\..\lvgl\version_6.1.2\lvgl\src\lv_draw/lv_draw_line.c ****             }
 444:..\..\..\lvgl\version_6.1.2\lvgl\src\lv_draw/lv_draw_line.c ****         }
 445:..\..\..\lvgl\version_6.1.2\lvgl\src\lv_draw/lv_draw_line.c ****     }
 446:..\..\..\lvgl\version_6.1.2\lvgl\src\lv_draw/lv_draw_line.c **** #endif
 447:..\..\..\lvgl\version_6.1.2\lvgl\src\lv_draw/lv_draw_line.c **** 
 448:..\..\..\lvgl\version_6.1.2\lvgl\src\lv_draw/lv_draw_line.c ****     volatile lv_point_t prev_p;
 449:..\..\..\lvgl\version_6.1.2\lvgl\src\lv_draw/lv_draw_line.c ****     prev_p.x = main_line->p1.x;
 450:..\..\..\lvgl\version_6.1.2\lvgl\src\lv_draw/lv_draw_line.c ****     prev_p.y = main_line->p1.y;
 451:..\..\..\lvgl\version_6.1.2\lvgl\src\lv_draw/lv_draw_line.c ****     lv_area_t draw_area;
 452:..\..\..\lvgl\version_6.1.2\lvgl\src\lv_draw/lv_draw_line.c ****     bool first_run = true;
 453:..\..\..\lvgl\version_6.1.2\lvgl\src\lv_draw/lv_draw_line.c **** 
 454:..\..\..\lvgl\version_6.1.2\lvgl\src\lv_draw/lv_draw_line.c ****     if(main_line->hor) {
 455:..\..\..\lvgl\version_6.1.2\lvgl\src\lv_draw/lv_draw_line.c ****         while(line_next_y(main_line)) {
 456:..\..\..\lvgl\version_6.1.2\lvgl\src\lv_draw/lv_draw_line.c ****             for(i = 0; i < width; i++) {
 457:..\..\..\lvgl\version_6.1.2\lvgl\src\lv_draw/lv_draw_line.c ****                 draw_area.x1 = prev_p.x + pattern[i].x;
 458:..\..\..\lvgl\version_6.1.2\lvgl\src\lv_draw/lv_draw_line.c ****                 draw_area.y1 = prev_p.y + pattern[i].y;
 459:..\..\..\lvgl\version_6.1.2\lvgl\src\lv_draw/lv_draw_line.c ****                 draw_area.x2 = draw_area.x1 + main_line->p_act.x - prev_p.x - 1;
 460:..\..\..\lvgl\version_6.1.2\lvgl\src\lv_draw/lv_draw_line.c ****                 draw_area.y2 = draw_area.y1;
 461:..\..\..\lvgl\version_6.1.2\lvgl\src\lv_draw/lv_draw_line.c ****                 lv_draw_fill(&draw_area, mask, style->line.color, opa);
 462:..\..\..\lvgl\version_6.1.2\lvgl\src\lv_draw/lv_draw_line.c **** 
 463:..\..\..\lvgl\version_6.1.2\lvgl\src\lv_draw/lv_draw_line.c ****                 /* Fill the gaps
 464:..\..\..\lvgl\version_6.1.2\lvgl\src\lv_draw/lv_draw_line.c ****                  * When stepping in y one pixel remains empty on every corner (don't do this on the
 465:..\..\..\lvgl\version_6.1.2\lvgl\src\lv_draw/lv_draw_line.c ****                  * first segment ) */
 466:..\..\..\lvgl\version_6.1.2\lvgl\src\lv_draw/lv_draw_line.c ****                 if(i != 0 && pattern[i].x != pattern[i - 1].x && !first_run) {
 467:..\..\..\lvgl\version_6.1.2\lvgl\src\lv_draw/lv_draw_line.c ****                     lv_draw_px(draw_area.x1, draw_area.y1 - main_line->sy, mask, style->line.color,
 468:..\..\..\lvgl\version_6.1.2\lvgl\src\lv_draw/lv_draw_line.c ****                 }
 469:..\..\..\lvgl\version_6.1.2\lvgl\src\lv_draw/lv_draw_line.c ****             }
 470:..\..\..\lvgl\version_6.1.2\lvgl\src\lv_draw/lv_draw_line.c **** 
 471:..\..\..\lvgl\version_6.1.2\lvgl\src\lv_draw/lv_draw_line.c **** #if LV_ANTIALIAS
 472:..\..\..\lvgl\version_6.1.2\lvgl\src\lv_draw/lv_draw_line.c ****             if(aa) {
 473:..\..\..\lvgl\version_6.1.2\lvgl\src\lv_draw/lv_draw_line.c ****                 lv_draw_aa_hor_seg(prev_p.x + pattern[0].x, prev_p.y + pattern[0].y - aa_shift1,
 474:..\..\..\lvgl\version_6.1.2\lvgl\src\lv_draw/lv_draw_line.c ****                                    -(main_line->p_act.x - prev_p.x), mask, style->line.color, opa);
 475:..\..\..\lvgl\version_6.1.2\lvgl\src\lv_draw/lv_draw_line.c ****                 lv_draw_aa_hor_seg(prev_p.x + pattern[width_safe - 1].x,
 476:..\..\..\lvgl\version_6.1.2\lvgl\src\lv_draw/lv_draw_line.c ****                                    prev_p.y + pattern[width_safe - 1].y + aa_shift2, main_line->p_a
 477:..\..\..\lvgl\version_6.1.2\lvgl\src\lv_draw/lv_draw_line.c ****                                    mask, style->line.color, opa);
 478:..\..\..\lvgl\version_6.1.2\lvgl\src\lv_draw/lv_draw_line.c ****             }
 479:..\..\..\lvgl\version_6.1.2\lvgl\src\lv_draw/lv_draw_line.c **** #endif
 480:..\..\..\lvgl\version_6.1.2\lvgl\src\lv_draw/lv_draw_line.c **** 
 481:..\..\..\lvgl\version_6.1.2\lvgl\src\lv_draw/lv_draw_line.c ****             first_run = false;
 482:..\..\..\lvgl\version_6.1.2\lvgl\src\lv_draw/lv_draw_line.c **** 
 483:..\..\..\lvgl\version_6.1.2\lvgl\src\lv_draw/lv_draw_line.c ****             prev_p.x = main_line->p_act.x;
 484:..\..\..\lvgl\version_6.1.2\lvgl\src\lv_draw/lv_draw_line.c ****             prev_p.y = main_line->p_act.y;
ARM GAS  C:\Users\pearlstl\AppData\Local\Temp\ccuP9Sbb.s 			page 12


 485:..\..\..\lvgl\version_6.1.2\lvgl\src\lv_draw/lv_draw_line.c ****         }
 486:..\..\..\lvgl\version_6.1.2\lvgl\src\lv_draw/lv_draw_line.c **** 
 487:..\..\..\lvgl\version_6.1.2\lvgl\src\lv_draw/lv_draw_line.c ****         for(i = 0; i < width; i++) {
 488:..\..\..\lvgl\version_6.1.2\lvgl\src\lv_draw/lv_draw_line.c ****             draw_area.x1 = prev_p.x + pattern[i].x;
 489:..\..\..\lvgl\version_6.1.2\lvgl\src\lv_draw/lv_draw_line.c ****             draw_area.y1 = prev_p.y + pattern[i].y;
 490:..\..\..\lvgl\version_6.1.2\lvgl\src\lv_draw/lv_draw_line.c ****             draw_area.x2 = draw_area.x1 + main_line->p_act.x - prev_p.x;
 491:..\..\..\lvgl\version_6.1.2\lvgl\src\lv_draw/lv_draw_line.c ****             draw_area.y2 = draw_area.y1;
 492:..\..\..\lvgl\version_6.1.2\lvgl\src\lv_draw/lv_draw_line.c ****             lv_draw_fill(&draw_area, mask, style->line.color, opa);
 493:..\..\..\lvgl\version_6.1.2\lvgl\src\lv_draw/lv_draw_line.c **** 
 494:..\..\..\lvgl\version_6.1.2\lvgl\src\lv_draw/lv_draw_line.c ****             /* Fill the gaps
 495:..\..\..\lvgl\version_6.1.2\lvgl\src\lv_draw/lv_draw_line.c ****              * When stepping in y one pixel remains empty on every corner */
 496:..\..\..\lvgl\version_6.1.2\lvgl\src\lv_draw/lv_draw_line.c ****             if(i != 0 && pattern[i].x != pattern[i - 1].x && !first_run) {
 497:..\..\..\lvgl\version_6.1.2\lvgl\src\lv_draw/lv_draw_line.c ****                 lv_draw_px(draw_area.x1, draw_area.y1 - main_line->sy, mask, style->line.color, opa
 498:..\..\..\lvgl\version_6.1.2\lvgl\src\lv_draw/lv_draw_line.c ****             }
 499:..\..\..\lvgl\version_6.1.2\lvgl\src\lv_draw/lv_draw_line.c ****         }
 500:..\..\..\lvgl\version_6.1.2\lvgl\src\lv_draw/lv_draw_line.c **** 
 501:..\..\..\lvgl\version_6.1.2\lvgl\src\lv_draw/lv_draw_line.c **** #if LV_ANTIALIAS
 502:..\..\..\lvgl\version_6.1.2\lvgl\src\lv_draw/lv_draw_line.c ****         if(aa) {
 503:..\..\..\lvgl\version_6.1.2\lvgl\src\lv_draw/lv_draw_line.c ****             lv_draw_aa_hor_seg(prev_p.x + pattern[0].x, prev_p.y + pattern[0].y - aa_shift1,
 504:..\..\..\lvgl\version_6.1.2\lvgl\src\lv_draw/lv_draw_line.c ****                                -(main_line->p_act.x - prev_p.x + 1), mask, style->line.color, opa);
 505:..\..\..\lvgl\version_6.1.2\lvgl\src\lv_draw/lv_draw_line.c ****             lv_draw_aa_hor_seg(prev_p.x + pattern[width_safe - 1].x, prev_p.y + pattern[width_safe 
 506:..\..\..\lvgl\version_6.1.2\lvgl\src\lv_draw/lv_draw_line.c ****                                main_line->p_act.x - prev_p.x + 1, mask, style->line.color, opa);
 507:..\..\..\lvgl\version_6.1.2\lvgl\src\lv_draw/lv_draw_line.c ****         }
 508:..\..\..\lvgl\version_6.1.2\lvgl\src\lv_draw/lv_draw_line.c **** #endif
 509:..\..\..\lvgl\version_6.1.2\lvgl\src\lv_draw/lv_draw_line.c ****     }
 510:..\..\..\lvgl\version_6.1.2\lvgl\src\lv_draw/lv_draw_line.c ****     /*Rather a vertical line*/
 511:..\..\..\lvgl\version_6.1.2\lvgl\src\lv_draw/lv_draw_line.c ****     else {
 512:..\..\..\lvgl\version_6.1.2\lvgl\src\lv_draw/lv_draw_line.c **** 
 513:..\..\..\lvgl\version_6.1.2\lvgl\src\lv_draw/lv_draw_line.c ****         while(line_next_x(main_line)) {
 514:..\..\..\lvgl\version_6.1.2\lvgl\src\lv_draw/lv_draw_line.c ****             for(i = 0; i < width; i++) {
 515:..\..\..\lvgl\version_6.1.2\lvgl\src\lv_draw/lv_draw_line.c ****                 draw_area.x1 = prev_p.x + pattern[i].x;
 516:..\..\..\lvgl\version_6.1.2\lvgl\src\lv_draw/lv_draw_line.c ****                 draw_area.y1 = prev_p.y + pattern[i].y;
 517:..\..\..\lvgl\version_6.1.2\lvgl\src\lv_draw/lv_draw_line.c ****                 draw_area.x2 = draw_area.x1;
 518:..\..\..\lvgl\version_6.1.2\lvgl\src\lv_draw/lv_draw_line.c ****                 draw_area.y2 = draw_area.y1 + main_line->p_act.y - prev_p.y - 1;
 519:..\..\..\lvgl\version_6.1.2\lvgl\src\lv_draw/lv_draw_line.c **** 
 520:..\..\..\lvgl\version_6.1.2\lvgl\src\lv_draw/lv_draw_line.c ****                 lv_draw_fill(&draw_area, mask, style->line.color, opa);
 521:..\..\..\lvgl\version_6.1.2\lvgl\src\lv_draw/lv_draw_line.c **** 
 522:..\..\..\lvgl\version_6.1.2\lvgl\src\lv_draw/lv_draw_line.c ****                 /* Fill the gaps
 523:..\..\..\lvgl\version_6.1.2\lvgl\src\lv_draw/lv_draw_line.c ****                  * When stepping in x one pixel remains empty on every corner (don't do this on the
 524:..\..\..\lvgl\version_6.1.2\lvgl\src\lv_draw/lv_draw_line.c ****                  * first segment ) */
 525:..\..\..\lvgl\version_6.1.2\lvgl\src\lv_draw/lv_draw_line.c ****                 if(i != 0 && pattern[i].y != pattern[i - 1].y && !first_run) {
 526:..\..\..\lvgl\version_6.1.2\lvgl\src\lv_draw/lv_draw_line.c ****                     lv_draw_px(draw_area.x1 - main_line->sx, draw_area.y1, mask, style->line.color,
 527:..\..\..\lvgl\version_6.1.2\lvgl\src\lv_draw/lv_draw_line.c ****                 }
 528:..\..\..\lvgl\version_6.1.2\lvgl\src\lv_draw/lv_draw_line.c ****             }
 529:..\..\..\lvgl\version_6.1.2\lvgl\src\lv_draw/lv_draw_line.c **** 
 530:..\..\..\lvgl\version_6.1.2\lvgl\src\lv_draw/lv_draw_line.c **** #if LV_ANTIALIAS
 531:..\..\..\lvgl\version_6.1.2\lvgl\src\lv_draw/lv_draw_line.c ****             if(aa) {
 532:..\..\..\lvgl\version_6.1.2\lvgl\src\lv_draw/lv_draw_line.c ****                 lv_draw_aa_ver_seg(prev_p.x + pattern[0].x - aa_shift1, prev_p.y + pattern[0].y,
 533:..\..\..\lvgl\version_6.1.2\lvgl\src\lv_draw/lv_draw_line.c ****                                    -(main_line->p_act.y - prev_p.y), mask, style->line.color, opa);
 534:..\..\..\lvgl\version_6.1.2\lvgl\src\lv_draw/lv_draw_line.c ****                 lv_draw_aa_ver_seg(prev_p.x + pattern[width_safe - 1].x + aa_shift2,
 535:..\..\..\lvgl\version_6.1.2\lvgl\src\lv_draw/lv_draw_line.c ****                                    prev_p.y + pattern[width_safe - 1].y, main_line->p_act.y - prev_
 536:..\..\..\lvgl\version_6.1.2\lvgl\src\lv_draw/lv_draw_line.c ****                                    style->line.color, opa);
 537:..\..\..\lvgl\version_6.1.2\lvgl\src\lv_draw/lv_draw_line.c ****             }
 538:..\..\..\lvgl\version_6.1.2\lvgl\src\lv_draw/lv_draw_line.c **** #endif
 539:..\..\..\lvgl\version_6.1.2\lvgl\src\lv_draw/lv_draw_line.c **** 
 540:..\..\..\lvgl\version_6.1.2\lvgl\src\lv_draw/lv_draw_line.c ****             first_run = false;
 541:..\..\..\lvgl\version_6.1.2\lvgl\src\lv_draw/lv_draw_line.c **** 
ARM GAS  C:\Users\pearlstl\AppData\Local\Temp\ccuP9Sbb.s 			page 13


 542:..\..\..\lvgl\version_6.1.2\lvgl\src\lv_draw/lv_draw_line.c ****             prev_p.x = main_line->p_act.x;
 543:..\..\..\lvgl\version_6.1.2\lvgl\src\lv_draw/lv_draw_line.c ****             prev_p.y = main_line->p_act.y;
 544:..\..\..\lvgl\version_6.1.2\lvgl\src\lv_draw/lv_draw_line.c ****         }
 545:..\..\..\lvgl\version_6.1.2\lvgl\src\lv_draw/lv_draw_line.c **** 
 546:..\..\..\lvgl\version_6.1.2\lvgl\src\lv_draw/lv_draw_line.c ****         /*Draw the last part*/
 547:..\..\..\lvgl\version_6.1.2\lvgl\src\lv_draw/lv_draw_line.c ****         for(i = 0; i < width; i++) {
 548:..\..\..\lvgl\version_6.1.2\lvgl\src\lv_draw/lv_draw_line.c ****             draw_area.x1 = prev_p.x + pattern[i].x;
 549:..\..\..\lvgl\version_6.1.2\lvgl\src\lv_draw/lv_draw_line.c ****             draw_area.y1 = prev_p.y + pattern[i].y;
 550:..\..\..\lvgl\version_6.1.2\lvgl\src\lv_draw/lv_draw_line.c ****             draw_area.x2 = draw_area.x1;
 551:..\..\..\lvgl\version_6.1.2\lvgl\src\lv_draw/lv_draw_line.c ****             draw_area.y2 = draw_area.y1 + main_line->p_act.y - prev_p.y;
 552:..\..\..\lvgl\version_6.1.2\lvgl\src\lv_draw/lv_draw_line.c **** 
 553:..\..\..\lvgl\version_6.1.2\lvgl\src\lv_draw/lv_draw_line.c ****             lv_draw_fill(&draw_area, mask, style->line.color, opa);
 554:..\..\..\lvgl\version_6.1.2\lvgl\src\lv_draw/lv_draw_line.c **** 
 555:..\..\..\lvgl\version_6.1.2\lvgl\src\lv_draw/lv_draw_line.c ****             /* Fill the gaps
 556:..\..\..\lvgl\version_6.1.2\lvgl\src\lv_draw/lv_draw_line.c ****              * When stepping in x one pixel remains empty on every corner */
 557:..\..\..\lvgl\version_6.1.2\lvgl\src\lv_draw/lv_draw_line.c ****             if(i != 0 && pattern[i].y != pattern[i - 1].y && !first_run) {
 558:..\..\..\lvgl\version_6.1.2\lvgl\src\lv_draw/lv_draw_line.c ****                 lv_draw_px(draw_area.x1 - main_line->sx, draw_area.y1, mask, style->line.color, opa
 559:..\..\..\lvgl\version_6.1.2\lvgl\src\lv_draw/lv_draw_line.c ****             }
 560:..\..\..\lvgl\version_6.1.2\lvgl\src\lv_draw/lv_draw_line.c ****         }
 561:..\..\..\lvgl\version_6.1.2\lvgl\src\lv_draw/lv_draw_line.c **** 
 562:..\..\..\lvgl\version_6.1.2\lvgl\src\lv_draw/lv_draw_line.c **** #if LV_ANTIALIAS
 563:..\..\..\lvgl\version_6.1.2\lvgl\src\lv_draw/lv_draw_line.c ****         if(aa) {
 564:..\..\..\lvgl\version_6.1.2\lvgl\src\lv_draw/lv_draw_line.c ****             lv_draw_aa_ver_seg(prev_p.x + pattern[0].x - aa_shift1, prev_p.y + pattern[0].y,
 565:..\..\..\lvgl\version_6.1.2\lvgl\src\lv_draw/lv_draw_line.c ****                                -(main_line->p_act.y - prev_p.y + 1), mask, style->line.color, opa);
 566:..\..\..\lvgl\version_6.1.2\lvgl\src\lv_draw/lv_draw_line.c ****             lv_draw_aa_ver_seg(prev_p.x + pattern[width_safe - 1].x + aa_shift2, prev_p.y + pattern
 567:..\..\..\lvgl\version_6.1.2\lvgl\src\lv_draw/lv_draw_line.c ****                                main_line->p_act.y - prev_p.y + 1, mask, style->line.color, opa);
 568:..\..\..\lvgl\version_6.1.2\lvgl\src\lv_draw/lv_draw_line.c ****         }
 569:..\..\..\lvgl\version_6.1.2\lvgl\src\lv_draw/lv_draw_line.c **** #endif
 570:..\..\..\lvgl\version_6.1.2\lvgl\src\lv_draw/lv_draw_line.c ****     }
 571:..\..\..\lvgl\version_6.1.2\lvgl\src\lv_draw/lv_draw_line.c **** }
 572:..\..\..\lvgl\version_6.1.2\lvgl\src\lv_draw/lv_draw_line.c **** 
 573:..\..\..\lvgl\version_6.1.2\lvgl\src\lv_draw/lv_draw_line.c **** static void line_init(line_draw_t * line, const lv_point_t * p1, const lv_point_t * p2)
 574:..\..\..\lvgl\version_6.1.2\lvgl\src\lv_draw/lv_draw_line.c **** {
 575:..\..\..\lvgl\version_6.1.2\lvgl\src\lv_draw/lv_draw_line.c ****     line->p1.x = p1->x;
 576:..\..\..\lvgl\version_6.1.2\lvgl\src\lv_draw/lv_draw_line.c ****     line->p1.y = p1->y;
 577:..\..\..\lvgl\version_6.1.2\lvgl\src\lv_draw/lv_draw_line.c ****     line->p2.x = p2->x;
 578:..\..\..\lvgl\version_6.1.2\lvgl\src\lv_draw/lv_draw_line.c ****     line->p2.y = p2->y;
 579:..\..\..\lvgl\version_6.1.2\lvgl\src\lv_draw/lv_draw_line.c **** 
 580:..\..\..\lvgl\version_6.1.2\lvgl\src\lv_draw/lv_draw_line.c ****     line->dx  = LV_MATH_ABS(line->p2.x - line->p1.x);
 581:..\..\..\lvgl\version_6.1.2\lvgl\src\lv_draw/lv_draw_line.c ****     line->sx  = line->p1.x < line->p2.x ? 1 : -1;
 135              		.loc 1 581 0
 136 0096 0798     		ldr	r0, [sp, #28]
 580:..\..\..\lvgl\version_6.1.2\lvgl\src\lv_draw/lv_draw_line.c ****     line->sx  = line->p1.x < line->p2.x ? 1 : -1;
 137              		.loc 1 580 0
 138 0098 BDF90C90 		ldrsh	r9, [sp, #12]
 139              	.LVL6:
 140              		.loc 1 581 0
 141 009c 4FF6FF71 		movw	r1, #65535
 142 00a0 B042     		cmp	r0, r6
 143 00a2 C8BF     		it	gt
 144 00a4 0121     		movgt	r1, #1
 145 00a6 0D91     		str	r1, [sp, #52]
 146              	.LVL7:
 147              	.L11:
 582:..\..\..\lvgl\version_6.1.2\lvgl\src\lv_draw/lv_draw_line.c ****     line->dy  = LV_MATH_ABS(line->p2.y - line->p1.y);
 583:..\..\..\lvgl\version_6.1.2\lvgl\src\lv_draw/lv_draw_line.c ****     line->sy  = line->p1.y < line->p2.y ? 1 : -1;
 148              		.loc 1 583 0
ARM GAS  C:\Users\pearlstl\AppData\Local\Temp\ccuP9Sbb.s 			page 14


 149 00a8 0898     		ldr	r0, [sp, #32]
 150 00aa 4FF6FF71 		movw	r1, #65535
 151 00ae 8542     		cmp	r5, r0
 152 00b0 B8BF     		it	lt
 153 00b2 0121     		movlt	r1, #1
 154 00b4 0691     		str	r1, [sp, #24]
 582:..\..\..\lvgl\version_6.1.2\lvgl\src\lv_draw/lv_draw_line.c ****     line->dy  = LV_MATH_ABS(line->p2.y - line->p1.y);
 155              		.loc 1 582 0
 156 00b6 0FFA8AFB 		sxth	fp, r10
 157              	.LVL8:
 158              	.L14:
 584:..\..\..\lvgl\version_6.1.2\lvgl\src\lv_draw/lv_draw_line.c ****     line->err = (line->dx > line->dy ? line->dx : -line->dy) / 2;
 159              		.loc 1 584 0
 160 00ba D945     		cmp	r9, fp
 161 00bc 00F3E580 		bgt	.L164
 162 00c0 0BEBDB74 		add	r4, fp, fp, lsr #31
 163 00c4 6410     		asrs	r4, r4, #1
 164 00c6 6442     		negs	r4, r4
 165 00c8 21B2     		sxth	r1, r4
 166 00ca 0E91     		str	r1, [sp, #56]
 167              	.L16:
 168 00cc 9046     		mov	r8, r2
 169              	.LVL9:
 170              	.LBE44:
 171              	.LBE43:
 129:..\..\..\lvgl\version_6.1.2\lvgl\src\lv_draw/lv_draw_line.c ****         line_draw_hor(&main_line, mask, style, opa_scale);
 172              		.loc 1 129 0
 173 00ce 089A     		ldr	r2, [sp, #32]
 174              	.LVL10:
 175 00d0 9542     		cmp	r5, r2
 176 00d2 00F00C84 		beq	.L165
 133:..\..\..\lvgl\version_6.1.2\lvgl\src\lv_draw/lv_draw_line.c ****         line_draw_ver(&main_line, mask, style, opa_scale);
 177              		.loc 1 133 0
 178 00d6 079A     		ldr	r2, [sp, #28]
 179 00d8 B242     		cmp	r2, r6
 180 00da 00F0D183 		beq	.L166
 181              	.LVL11:
 182 00de 03F14802 		add	r2, r3, #72
 183              	.LBB51:
 184              	.LBB52:
 185              	.LBB53:
 229:..\..\..\lvgl\version_6.1.2\lvgl\src\lv_draw/lv_draw_line.c **** #if LV_ANTIALIAS
 186              		.loc 1 229 0
 187 00e2 BEF1FF0F 		cmp	lr, #255
 188 00e6 93F84E30 		ldrb	r3, [r3, #78]	@ zero_extendqisi2
 189              	.LVL12:
 190 00ea 0C92     		str	r2, [sp, #48]
 191 00ec 0B93     		str	r3, [sp, #44]
 192              	.LVL13:
 193 00ee 04D0     		beq	.L22
 194 00f0 03FB0EFE 		mul	lr, r3, lr
 195              	.LVL14:
 196 00f4 CEF30723 		ubfx	r3, lr, #8, #8
 197 00f8 0B93     		str	r3, [sp, #44]
 198              	.L22:
 199              	.LVL15:
 234:..\..\..\lvgl\version_6.1.2\lvgl\src\lv_draw/lv_draw_line.c ****     vect_main.y = main_line->p2.y - main_line->p1.y;
ARM GAS  C:\Users\pearlstl\AppData\Local\Temp\ccuP9Sbb.s 			page 15


 200              		.loc 1 234 0
 201 00fa 079B     		ldr	r3, [sp, #28]
 235:..\..\..\lvgl\version_6.1.2\lvgl\src\lv_draw/lv_draw_line.c **** 
 202              		.loc 1 235 0
 203 00fc 0898     		ldr	r0, [sp, #32]
 234:..\..\..\lvgl\version_6.1.2\lvgl\src\lv_draw/lv_draw_line.c ****     vect_main.y = main_line->p2.y - main_line->p1.y;
 204              		.loc 1 234 0
 205 00fe 9A1B     		subs	r2, r3, r6
 206              	.LVL16:
 235:..\..\..\lvgl\version_6.1.2\lvgl\src\lv_draw/lv_draw_line.c **** 
 207              		.loc 1 235 0
 208 0100 431B     		subs	r3, r0, r5
 234:..\..\..\lvgl\version_6.1.2\lvgl\src\lv_draw/lv_draw_line.c ****     vect_main.y = main_line->p2.y - main_line->p1.y;
 209              		.loc 1 234 0
 210 0102 92B2     		uxth	r2, r2
 235:..\..\..\lvgl\version_6.1.2\lvgl\src\lv_draw/lv_draw_line.c **** 
 211              		.loc 1 235 0
 212 0104 9BB2     		uxth	r3, r3
 237:..\..\..\lvgl\version_6.1.2\lvgl\src\lv_draw/lv_draw_line.c ****         if(main_line->p1.y < main_line->p2.y + dir_ori) {
 213              		.loc 1 237 0
 214 0106 D945     		cmp	r9, fp
 234:..\..\..\lvgl\version_6.1.2\lvgl\src\lv_draw/lv_draw_line.c ****     vect_main.y = main_line->p2.y - main_line->p1.y;
 215              		.loc 1 234 0
 216 0108 11B2     		sxth	r1, r2
 217              	.LVL17:
 235:..\..\..\lvgl\version_6.1.2\lvgl\src\lv_draw/lv_draw_line.c **** 
 218              		.loc 1 235 0
 219 010a 1CB2     		sxth	r4, r3
 220              	.LVL18:
 237:..\..\..\lvgl\version_6.1.2\lvgl\src\lv_draw/lv_draw_line.c ****         if(main_line->p1.y < main_line->p2.y + dir_ori) {
 221              		.loc 1 237 0
 222 010c 00F3C280 		bgt	.L167
 246:..\..\..\lvgl\version_6.1.2\lvgl\src\lv_draw/lv_draw_line.c ****             vect_norm.x = vect_main.y;
 223              		.loc 1 246 0
 224 0110 0798     		ldr	r0, [sp, #28]
 225 0112 B042     		cmp	r0, r6
 226 0114 40F3C180 		ble	.L26
 227              	.L155:
 228              	.LVL19:
 248:..\..\..\lvgl\version_6.1.2\lvgl\src\lv_draw/lv_draw_line.c ****         } else {
 229              		.loc 1 248 0
 230 0118 5242     		negs	r2, r2
 231 011a 11B2     		sxth	r1, r2
 232              	.LVL20:
 233              	.L25:
 266:..\..\..\lvgl\version_6.1.2\lvgl\src\lv_draw/lv_draw_line.c ****     lv_point_t * pattern = lv_draw_get_buf(pattern_size * sizeof(lv_point_t));
 234              		.loc 1 266 0
 235 011c 7B00     		lsls	r3, r7, #1
 236 011e 1BB2     		sxth	r3, r3
 267:..\..\..\lvgl\version_6.1.2\lvgl\src\lv_draw/lv_draw_line.c ****     lv_coord_t i = 0;
 237              		.loc 1 267 0
 238 0120 9800     		lsls	r0, r3, #2
 239 0122 0491     		str	r1, [sp, #16]
 240              	.LVL21:
 266:..\..\..\lvgl\version_6.1.2\lvgl\src\lv_draw/lv_draw_line.c ****     lv_point_t * pattern = lv_draw_get_buf(pattern_size * sizeof(lv_point_t));
 241              		.loc 1 266 0
 242 0124 1193     		str	r3, [sp, #68]
ARM GAS  C:\Users\pearlstl\AppData\Local\Temp\ccuP9Sbb.s 			page 16


 243              	.LVL22:
 267:..\..\..\lvgl\version_6.1.2\lvgl\src\lv_draw/lv_draw_line.c ****     lv_coord_t i = 0;
 244              		.loc 1 267 0
 245 0126 FFF7FEFF 		bl	lv_draw_get_buf
 246              	.LVL23:
 258:..\..\..\lvgl\version_6.1.2\lvgl\src\lv_draw/lv_draw_line.c **** 
 247              		.loc 1 258 0
 248 012a 0499     		ldr	r1, [sp, #16]
 267:..\..\..\lvgl\version_6.1.2\lvgl\src\lv_draw/lv_draw_line.c ****     lv_coord_t i = 0;
 249              		.loc 1 267 0
 250 012c 0A90     		str	r0, [sp, #40]
 251              	.LVL24:
 257:..\..\..\lvgl\version_6.1.2\lvgl\src\lv_draw/lv_draw_line.c ****     vect_norm.y = vect_norm.y << 4;
 252              		.loc 1 257 0
 253 012e 4FEA041C 		lsl	ip, r4, #4
 258:..\..\..\lvgl\version_6.1.2\lvgl\src\lv_draw/lv_draw_line.c **** 
 254              		.loc 1 258 0
 255 0132 0B01     		lsls	r3, r1, #4
 257:..\..\..\lvgl\version_6.1.2\lvgl\src\lv_draw/lv_draw_line.c ****     vect_norm.y = vect_norm.y << 4;
 256              		.loc 1 257 0
 257 0134 0FFA8CFC 		sxth	ip, ip
 258              	.LVL25:
 258:..\..\..\lvgl\version_6.1.2\lvgl\src\lv_draw/lv_draw_line.c **** 
 259              		.loc 1 258 0
 260 0138 1BB2     		sxth	r3, r3
 261 013a 1946     		mov	r1, r3
 262 013c 0993     		str	r3, [sp, #36]
 263              	.LBB54:
 264              	.LBB55:
 265              	.LBB56:
 580:..\..\..\lvgl\version_6.1.2\lvgl\src\lv_draw/lv_draw_line.c ****     line->sx  = line->p1.x < line->p2.x ? 1 : -1;
 266              		.loc 1 580 0
 267 013e 8CEAEC73 		eor	r3, ip, ip, asr #31
 268 0142 A3EBEC73 		sub	r3, r3, ip, asr #31
 581:..\..\..\lvgl\version_6.1.2\lvgl\src\lv_draw/lv_draw_line.c ****     line->dy  = LV_MATH_ABS(line->p2.y - line->p1.y);
 269              		.loc 1 581 0
 270 0146 BCF1000F 		cmp	ip, #0
 580:..\..\..\lvgl\version_6.1.2\lvgl\src\lv_draw/lv_draw_line.c ****     line->sx  = line->p1.x < line->p2.x ? 1 : -1;
 271              		.loc 1 580 0
 272 014a 1C46     		mov	r4, r3
 273              	.LVL26:
 274 014c 1093     		str	r3, [sp, #64]
 581:..\..\..\lvgl\version_6.1.2\lvgl\src\lv_draw/lv_draw_line.c ****     line->dy  = LV_MATH_ABS(line->p2.y - line->p1.y);
 275              		.loc 1 581 0
 276 014e 4FF6FF73 		movw	r3, #65535
 277 0152 CCBF     		ite	gt
 278 0154 0122     		movgt	r2, #1
 279 0156 1A46     		movle	r2, r3
 582:..\..\..\lvgl\version_6.1.2\lvgl\src\lv_draw/lv_draw_line.c ****     line->sy  = line->p1.y < line->p2.y ? 1 : -1;
 280              		.loc 1 582 0
 281 0158 0029     		cmp	r1, #0
 581:..\..\..\lvgl\version_6.1.2\lvgl\src\lv_draw/lv_draw_line.c ****     line->dy  = LV_MATH_ABS(line->p2.y - line->p1.y);
 282              		.loc 1 581 0
 283 015a 0592     		str	r2, [sp, #20]
 582:..\..\..\lvgl\version_6.1.2\lvgl\src\lv_draw/lv_draw_line.c ****     line->sy  = line->p1.y < line->p2.y ? 1 : -1;
 284              		.loc 1 582 0
 285 015c 0A46     		mov	r2, r1
ARM GAS  C:\Users\pearlstl\AppData\Local\Temp\ccuP9Sbb.s 			page 17


 286 015e B8BF     		it	lt
 287 0160 4A42     		rsblt	r2, r1, #0
 288 0162 1046     		mov	r0, r2
 289              	.LVL27:
 583:..\..\..\lvgl\version_6.1.2\lvgl\src\lv_draw/lv_draw_line.c ****     line->err = (line->dx > line->dy ? line->dx : -line->dy) / 2;
 290              		.loc 1 583 0
 291 0164 0029     		cmp	r1, #0
 582:..\..\..\lvgl\version_6.1.2\lvgl\src\lv_draw/lv_draw_line.c ****     line->sy  = line->p1.y < line->p2.y ? 1 : -1;
 292              		.loc 1 582 0
 293 0166 0492     		str	r2, [sp, #16]
 294              	.LVL28:
 295 0168 01B2     		sxth	r1, r0
 580:..\..\..\lvgl\version_6.1.2\lvgl\src\lv_draw/lv_draw_line.c ****     line->sx  = line->p1.x < line->p2.x ? 1 : -1;
 296              		.loc 1 580 0
 297 016a 22B2     		sxth	r2, r4
 583:..\..\..\lvgl\version_6.1.2\lvgl\src\lv_draw/lv_draw_line.c ****     line->err = (line->dx > line->dy ? line->dx : -line->dy) / 2;
 298              		.loc 1 583 0
 299 016c C8BF     		it	gt
 300 016e 0123     		movgt	r3, #1
 301              		.loc 1 584 0
 302 0170 8A42     		cmp	r2, r1
 582:..\..\..\lvgl\version_6.1.2\lvgl\src\lv_draw/lv_draw_line.c ****     line->sy  = line->p1.y < line->p2.y ? 1 : -1;
 303              		.loc 1 582 0
 304 0172 0F91     		str	r1, [sp, #60]
 583:..\..\..\lvgl\version_6.1.2\lvgl\src\lv_draw/lv_draw_line.c ****     line->err = (line->dx > line->dy ? line->dx : -line->dy) / 2;
 305              		.loc 1 583 0
 306 0174 1293     		str	r3, [sp, #72]
 307              		.loc 1 584 0
 308 0176 00F34384 		bgt	.L168
 309 017a 01EBD173 		add	r3, r1, r1, lsr #31
 310 017e 5B10     		asrs	r3, r3, #1
 311 0180 5B42     		negs	r3, r3
 312 0182 1BB2     		sxth	r3, r3
 313              	.L29:
 314              	.LVL29:
 315              	.LBE56:
 316              	.LBE55:
 278:..\..\..\lvgl\version_6.1.2\lvgl\src\lv_draw/lv_draw_line.c ****             pattern[i].x = pattern_line.p_act.x;
 317              		.loc 1 278 0
 318 0184 1199     		ldr	r1, [sp, #68]
 319 0186 0139     		subs	r1, r1, #1
 276:..\..\..\lvgl\version_6.1.2\lvgl\src\lv_draw/lv_draw_line.c ****         /* Run for a lot of times. Meanwhile the real width will be determined as well */
 320              		.loc 1 276 0
 321 0188 07FB07F0 		mul	r0, r7, r7
 278:..\..\..\lvgl\version_6.1.2\lvgl\src\lv_draw/lv_draw_line.c ****             pattern[i].x = pattern_line.p_act.x;
 322              		.loc 1 278 0
 323 018c 0029     		cmp	r1, #0
 276:..\..\..\lvgl\version_6.1.2\lvgl\src\lv_draw/lv_draw_line.c ****         /* Run for a lot of times. Meanwhile the real width will be determined as well */
 324              		.loc 1 276 0
 325 018e 1390     		str	r0, [sp, #76]
 326              	.LVL30:
 278:..\..\..\lvgl\version_6.1.2\lvgl\src\lv_draw/lv_draw_line.c ****             pattern[i].x = pattern_line.p_act.x;
 327              		.loc 1 278 0
 328 0190 1191     		str	r1, [sp, #68]
 329              	.LVL31:
 330 0192 40F3EE83 		ble	.L30
 331              	.LBB58:
ARM GAS  C:\Users\pearlstl\AppData\Local\Temp\ccuP9Sbb.s 			page 18


 279:..\..\..\lvgl\version_6.1.2\lvgl\src\lv_draw/lv_draw_line.c ****             pattern[i].y = pattern_line.p_act.y;
 332              		.loc 1 279 0
 333 0196 0A9C     		ldr	r4, [sp, #40]
 334 0198 0021     		movs	r1, #0
 335 019a A646     		mov	lr, r4
 336 019c 2180     		strh	r1, [r4]	@ movhi
 280:..\..\..\lvgl\version_6.1.2\lvgl\src\lv_draw/lv_draw_line.c **** 
 337              		.loc 1 280 0
 338 019e 6180     		strh	r1, [r4, #2]	@ movhi
 339              	.LVL32:
 285:..\..\..\lvgl\version_6.1.2\lvgl\src\lv_draw/lv_draw_line.c ****                 width = i;
 340              		.loc 1 285 0
 341 01a0 139C     		ldr	r4, [sp, #76]
 342 01a2 002C     		cmp	r4, #0
 343 01a4 00F09680 		beq	.L39
 344              	.LBB59:
 345              	.LBB60:
 585:..\..\..\lvgl\version_6.1.2\lvgl\src\lv_draw/lv_draw_line.c ****     line->e2  = 0;
 586:..\..\..\lvgl\version_6.1.2\lvgl\src\lv_draw/lv_draw_line.c ****     line->hor = line->dx > line->dy ? true : false; /*Rather horizontal or vertical*/
 587:..\..\..\lvgl\version_6.1.2\lvgl\src\lv_draw/lv_draw_line.c **** 
 588:..\..\..\lvgl\version_6.1.2\lvgl\src\lv_draw/lv_draw_line.c ****     line->p_act.x = line->p1.x;
 589:..\..\..\lvgl\version_6.1.2\lvgl\src\lv_draw/lv_draw_line.c ****     line->p_act.y = line->p1.y;
 590:..\..\..\lvgl\version_6.1.2\lvgl\src\lv_draw/lv_draw_line.c **** }
 591:..\..\..\lvgl\version_6.1.2\lvgl\src\lv_draw/lv_draw_line.c **** 
 592:..\..\..\lvgl\version_6.1.2\lvgl\src\lv_draw/lv_draw_line.c **** static bool line_next(line_draw_t * line)
 593:..\..\..\lvgl\version_6.1.2\lvgl\src\lv_draw/lv_draw_line.c **** {
 594:..\..\..\lvgl\version_6.1.2\lvgl\src\lv_draw/lv_draw_line.c ****     if(line->p_act.x == line->p2.x && line->p_act.y == line->p2.y) return false;
 595:..\..\..\lvgl\version_6.1.2\lvgl\src\lv_draw/lv_draw_line.c ****     line->e2 = line->err;
 596:..\..\..\lvgl\version_6.1.2\lvgl\src\lv_draw/lv_draw_line.c ****     if(line->e2 > -line->dx) {
 346              		.loc 1 596 0
 347 01a8 5242     		negs	r2, r2
 348 01aa 1392     		str	r2, [sp, #76]
 349 01ac 1797     		str	r7, [sp, #92]
 350 01ae CDF854B0 		str	fp, [sp, #84]
 351 01b2 119F     		ldr	r7, [sp, #68]
 352              	.LVL33:
 353 01b4 CDF858A0 		str	r10, [sp, #88]
 354 01b8 CDF84490 		str	r9, [sp, #68]
 355 01bc DDF840A0 		ldr	r10, [sp, #64]
 356 01c0 DDF848B0 		ldr	fp, [sp, #72]
 357              	.LVL34:
 358 01c4 1096     		str	r6, [sp, #64]
 359 01c6 CDF84880 		str	r8, [sp, #72]
 360              	.LBE60:
 361              	.LBE59:
 285:..\..\..\lvgl\version_6.1.2\lvgl\src\lv_draw/lv_draw_line.c ****                 width = i;
 362              		.loc 1 285 0
 363 01ca 0846     		mov	r0, r1
 364 01cc 0A46     		mov	r2, r1
 365 01ce 1495     		str	r5, [sp, #80]
 366 01d0 A646     		mov	lr, r4
 367 01d2 0A9E     		ldr	r6, [sp, #40]
 368              	.LVL35:
 369 01d4 DDF84C90 		ldr	r9, [sp, #76]
 370              	.LVL36:
 371 01d8 DDF83C80 		ldr	r8, [sp, #60]
 372              	.LVL37:
ARM GAS  C:\Users\pearlstl\AppData\Local\Temp\ccuP9Sbb.s 			page 19


 373 01dc 1EE0     		b	.L34
 374              	.LVL38:
 375              	.L171:
 376              	.LBB64:
 377              	.LBB61:
 597:..\..\..\lvgl\version_6.1.2\lvgl\src\lv_draw/lv_draw_line.c ****         line->err -= line->dy;
 598:..\..\..\lvgl\version_6.1.2\lvgl\src\lv_draw/lv_draw_line.c ****         line->p_act.x += line->sx;
 378              		.loc 1 598 0
 379 01de 059C     		ldr	r4, [sp, #20]
 380 01e0 2244     		add	r2, r2, r4
 381              	.LVL39:
 597:..\..\..\lvgl\version_6.1.2\lvgl\src\lv_draw/lv_draw_line.c ****         line->err -= line->dy;
 382              		.loc 1 597 0
 383 01e2 049C     		ldr	r4, [sp, #16]
 599:..\..\..\lvgl\version_6.1.2\lvgl\src\lv_draw/lv_draw_line.c ****     }
 600:..\..\..\lvgl\version_6.1.2\lvgl\src\lv_draw/lv_draw_line.c ****     if(line->e2 < line->dy) {
 384              		.loc 1 600 0
 385 01e4 9845     		cmp	r8, r3
 597:..\..\..\lvgl\version_6.1.2\lvgl\src\lv_draw/lv_draw_line.c ****         line->err -= line->dy;
 386              		.loc 1 597 0
 387 01e6 A3EB0404 		sub	r4, r3, r4
 598:..\..\..\lvgl\version_6.1.2\lvgl\src\lv_draw/lv_draw_line.c ****     }
 388              		.loc 1 598 0
 389 01ea 12B2     		sxth	r2, r2
 597:..\..\..\lvgl\version_6.1.2\lvgl\src\lv_draw/lv_draw_line.c ****         line->err -= line->dy;
 390              		.loc 1 597 0
 391 01ec 24B2     		sxth	r4, r4
 392              	.LVL40:
 393              		.loc 1 600 0
 394 01ee 1CDD     		ble	.L102
 395              	.L172:
 601:..\..\..\lvgl\version_6.1.2\lvgl\src\lv_draw/lv_draw_line.c ****         line->err += line->dx;
 396              		.loc 1 601 0
 397 01f0 04EB0A03 		add	r3, r4, r10
 602:..\..\..\lvgl\version_6.1.2\lvgl\src\lv_draw/lv_draw_line.c ****         line->p_act.y += line->sy;
 398              		.loc 1 602 0
 399 01f4 5944     		add	r1, r1, fp
 400              	.LVL41:
 601:..\..\..\lvgl\version_6.1.2\lvgl\src\lv_draw/lv_draw_line.c ****         line->err += line->dx;
 401              		.loc 1 601 0
 402 01f6 1BB2     		sxth	r3, r3
 403              	.LVL42:
 404              		.loc 1 602 0
 405 01f8 09B2     		sxth	r1, r1
 406              	.LVL43:
 407              	.L36:
 408 01fa 0130     		adds	r0, r0, #1
 409              	.LVL44:
 410 01fc 00B2     		sxth	r0, r0
 411              	.LVL45:
 412              	.LBE61:
 413              	.LBE64:
 414              	.LBE58:
 278:..\..\..\lvgl\version_6.1.2\lvgl\src\lv_draw/lv_draw_line.c ****             pattern[i].x = pattern_line.p_act.x;
 415              		.loc 1 278 0
 416 01fe 8742     		cmp	r7, r0
 417 0200 40F3AC83 		ble	.L169
ARM GAS  C:\Users\pearlstl\AppData\Local\Temp\ccuP9Sbb.s 			page 20


 418              	.LBB67:
 285:..\..\..\lvgl\version_6.1.2\lvgl\src\lv_draw/lv_draw_line.c ****                 width = i;
 419              		.loc 1 285 0
 420 0204 01FB01F4 		mul	r4, r1, r1
 279:..\..\..\lvgl\version_6.1.2\lvgl\src\lv_draw/lv_draw_line.c ****             pattern[i].y = pattern_line.p_act.y;
 421              		.loc 1 279 0
 422 0208 06EB8005 		add	r5, r6, r0, lsl #2
 285:..\..\..\lvgl\version_6.1.2\lvgl\src\lv_draw/lv_draw_line.c ****                 width = i;
 423              		.loc 1 285 0
 424 020c 02FB0244 		mla	r4, r2, r2, r4
 425 0210 A645     		cmp	lr, r4
 279:..\..\..\lvgl\version_6.1.2\lvgl\src\lv_draw/lv_draw_line.c ****             pattern[i].y = pattern_line.p_act.y;
 426              		.loc 1 279 0
 427 0212 26F82020 		strh	r2, [r6, r0, lsl #2]	@ movhi
 280:..\..\..\lvgl\version_6.1.2\lvgl\src\lv_draw/lv_draw_line.c **** 
 428              		.loc 1 280 0
 429 0216 6980     		strh	r1, [r5, #2]	@ movhi
 430              	.LVL46:
 285:..\..\..\lvgl\version_6.1.2\lvgl\src\lv_draw/lv_draw_line.c ****                 width = i;
 431              		.loc 1 285 0
 432 0218 40F2D783 		bls	.L33
 433              	.LVL47:
 434              	.L34:
 435              	.LBB65:
 436              	.LBB62:
 594:..\..\..\lvgl\version_6.1.2\lvgl\src\lv_draw/lv_draw_line.c ****     line->e2 = line->err;
 437              		.loc 1 594 0
 438 021c 9445     		cmp	ip, r2
 439 021e 54D0     		beq	.L170
 440              	.L35:
 596:..\..\..\lvgl\version_6.1.2\lvgl\src\lv_draw/lv_draw_line.c ****         line->err -= line->dy;
 441              		.loc 1 596 0
 442 0220 4B45     		cmp	r3, r9
 443 0222 DCDC     		bgt	.L171
 600:..\..\..\lvgl\version_6.1.2\lvgl\src\lv_draw/lv_draw_line.c ****         line->err += line->dx;
 444              		.loc 1 600 0
 445 0224 9845     		cmp	r8, r3
 596:..\..\..\lvgl\version_6.1.2\lvgl\src\lv_draw/lv_draw_line.c ****         line->err -= line->dy;
 446              		.loc 1 596 0
 447 0226 1C46     		mov	r4, r3
 448              	.LVL48:
 600:..\..\..\lvgl\version_6.1.2\lvgl\src\lv_draw/lv_draw_line.c ****         line->err += line->dx;
 449              		.loc 1 600 0
 450 0228 E2DC     		bgt	.L172
 451              	.L102:
 452 022a 2346     		mov	r3, r4
 453 022c E5E7     		b	.L36
 454              	.LVL49:
 455              	.L161:
 456              	.LBE62:
 457              	.LBE65:
 458              	.LBE67:
 459              	.LBE54:
 460              	.LBE53:
 461              	.LBE52:
 462              	.LBE51:
  83:..\..\..\lvgl\version_6.1.2\lvgl\src\lv_draw/lv_draw_line.c **** 
ARM GAS  C:\Users\pearlstl\AppData\Local\Temp\ccuP9Sbb.s 			page 21


 463              		.loc 1 83 0 discriminator 1
 464 022e B0F90250 		ldrsh	r5, [r0, #2]
 465 0232 B1F90240 		ldrsh	r4, [r1, #2]
 466 0236 A542     		cmp	r5, r4
 467 0238 7FF4F2AE 		bne	.L3
 468 023c F8E6     		b	.L1
 469              	.LVL50:
 470              	.L162:
  88:..\..\..\lvgl\version_6.1.2\lvgl\src\lv_draw/lv_draw_line.c ****     if(point1->y > mask->y2 + style->line.width && point2->y > mask->y2 + style->line.width) return
 471              		.loc 1 88 0 discriminator 1
 472 023e 8842     		cmp	r0, r1
 473 0240 3FF7F6AE 		bgt	.L1
 474 0244 0AE7     		b	.L153
 475              	.L9:
 113:..\..\..\lvgl\version_6.1.2\lvgl\src\lv_draw/lv_draw_line.c ****             p1.x = point1->x;
 476              		.loc 1 113 0
 477 0246 089C     		ldr	r4, [sp, #32]
 478 0248 8C42     		cmp	r4, r1
 479 024a BFF624AF 		bge	.L10
 480 024e 0798     		ldr	r0, [sp, #28]
 481 0250 301A     		subs	r0, r6, r0
 482 0252 0028     		cmp	r0, #0
 483 0254 B8BF     		it	lt
 484 0256 4042     		rsblt	r0, r0, #0
 485 0258 0546     		mov	r5, r0
 486 025a 0390     		str	r0, [sp, #12]
 487 025c 081B     		subs	r0, r1, r4
 488 025e 80EAE07A 		eor	r10, r0, r0, asr #31
 489 0262 AAEBE07A 		sub	r10, r10, r0, asr #31
 490              	.LVL51:
 491              	.LBB118:
 492              	.LBB45:
 581:..\..\..\lvgl\version_6.1.2\lvgl\src\lv_draw/lv_draw_line.c ****     line->dy  = LV_MATH_ABS(line->p2.y - line->p1.y);
 493              		.loc 1 581 0
 494 0266 0798     		ldr	r0, [sp, #28]
 495 0268 B042     		cmp	r0, r6
 580:..\..\..\lvgl\version_6.1.2\lvgl\src\lv_draw/lv_draw_line.c ****     line->sx  = line->p1.x < line->p2.x ? 1 : -1;
 496              		.loc 1 580 0
 497 026a 0FFA85F9 		sxth	r9, r5
 498              	.LVL52:
 581:..\..\..\lvgl\version_6.1.2\lvgl\src\lv_draw/lv_draw_line.c ****     line->dy  = LV_MATH_ABS(line->p2.y - line->p1.y);
 499              		.loc 1 581 0
 500 026e C0F2BC83 		blt	.L173
 501              	.LBE45:
 502              	.LBE118:
 117:..\..\..\lvgl\version_6.1.2\lvgl\src\lv_draw/lv_draw_line.c ****         } else {
 503              		.loc 1 117 0
 504 0272 0891     		str	r1, [sp, #32]
 505              	.LVL53:
 506              	.LBB119:
 507              	.LBB46:
 582:..\..\..\lvgl\version_6.1.2\lvgl\src\lv_draw/lv_draw_line.c ****     line->sy  = line->p1.y < line->p2.y ? 1 : -1;
 508              		.loc 1 582 0
 509 0274 4FF6FF71 		movw	r1, #65535
 510 0278 0D91     		str	r1, [sp, #52]
 511 027a 0121     		movs	r1, #1
 512 027c 0796     		str	r6, [sp, #28]
ARM GAS  C:\Users\pearlstl\AppData\Local\Temp\ccuP9Sbb.s 			page 22


 513              	.LVL54:
 514 027e 2546     		mov	r5, r4
 515 0280 0646     		mov	r6, r0
 516              	.LVL55:
 517 0282 0FFA8AFB 		sxth	fp, r10
 518              	.LVL56:
 519 0286 0691     		str	r1, [sp, #24]
 520 0288 17E7     		b	.L14
 521              	.L164:
 584:..\..\..\lvgl\version_6.1.2\lvgl\src\lv_draw/lv_draw_line.c ****     line->e2  = 0;
 522              		.loc 1 584 0
 523 028a 09EBD974 		add	r4, r9, r9, lsr #31
 524 028e 6110     		asrs	r1, r4, #1
 525 0290 0E91     		str	r1, [sp, #56]
 526 0292 1BE7     		b	.L16
 527              	.LVL57:
 528              	.L167:
 529              	.LBE46:
 530              	.LBE119:
 531              	.LBB120:
 532              	.LBB114:
 533              	.LBB110:
 238:..\..\..\lvgl\version_6.1.2\lvgl\src\lv_draw/lv_draw_line.c ****             vect_norm.x = -vect_main.y;
 534              		.loc 1 238 0
 535 0294 8542     		cmp	r5, r0
 536 0296 BFF63FAF 		bge	.L155
 537              	.L26:
 250:..\..\..\lvgl\version_6.1.2\lvgl\src\lv_draw/lv_draw_line.c ****             vect_norm.y = vect_main.x;
 538              		.loc 1 250 0
 539 029a 5B42     		negs	r3, r3
 540 029c 1BB2     		sxth	r3, r3
 541 029e 1C46     		mov	r4, r3
 542              	.LVL58:
 543 02a0 3CE7     		b	.L25
 544              	.LVL59:
 545              	.L163:
 546 02a2 301A     		subs	r0, r6, r0
 547 02a4 0028     		cmp	r0, #0
 548 02a6 0546     		mov	r5, r0
 549 02a8 B8BF     		it	lt
 550 02aa 4542     		rsblt	r5, r0, #0
 551 02ac 0395     		str	r5, [sp, #12]
 552 02ae 089D     		ldr	r5, [sp, #32]
 553              	.LBE110:
 554              	.LBE114:
 555              	.LBE120:
 104:..\..\..\lvgl\version_6.1.2\lvgl\src\lv_draw/lv_draw_line.c ****         } else {
 556              		.loc 1 104 0
 557 02b0 0891     		str	r1, [sp, #32]
 558 02b2 481B     		subs	r0, r1, r5
 559 02b4 80EAE07A 		eor	r10, r0, r0, asr #31
 560              	.LBB121:
 561              	.LBB47:
 580:..\..\..\lvgl\version_6.1.2\lvgl\src\lv_draw/lv_draw_line.c ****     line->sx  = line->p1.x < line->p2.x ? 1 : -1;
 562              		.loc 1 580 0
 563 02b8 0121     		movs	r1, #1
 564              	.LBE47:
ARM GAS  C:\Users\pearlstl\AppData\Local\Temp\ccuP9Sbb.s 			page 23


 565              	.LBE121:
 103:..\..\..\lvgl\version_6.1.2\lvgl\src\lv_draw/lv_draw_line.c ****             p2.y = point2->y;
 566              		.loc 1 103 0
 567 02ba 0796     		str	r6, [sp, #28]
 568              	.LBB122:
 569              	.LBB48:
 580:..\..\..\lvgl\version_6.1.2\lvgl\src\lv_draw/lv_draw_line.c ****     line->sx  = line->p1.x < line->p2.x ? 1 : -1;
 570              		.loc 1 580 0
 571 02bc BDF90C90 		ldrsh	r9, [sp, #12]
 572 02c0 0D91     		str	r1, [sp, #52]
 573              	.LBE48:
 574              	.LBE122:
 101:..\..\..\lvgl\version_6.1.2\lvgl\src\lv_draw/lv_draw_line.c ****             p1.y = point1->y;
 575              		.loc 1 101 0
 576 02c2 2646     		mov	r6, r4
 577 02c4 AAEBE07A 		sub	r10, r10, r0, asr #31
 578              	.LVL60:
 579 02c8 EEE6     		b	.L11
 580              	.LVL61:
 581              	.L170:
 582              	.LBB123:
 583              	.LBB115:
 584              	.LBB111:
 585              	.LBB72:
 586              	.LBB68:
 587              	.LBB66:
 588              	.LBB63:
 594:..\..\..\lvgl\version_6.1.2\lvgl\src\lv_draw/lv_draw_line.c ****     line->e2 = line->err;
 589              		.loc 1 594 0
 590 02ca 099C     		ldr	r4, [sp, #36]
 591 02cc 8C42     		cmp	r4, r1
 592 02ce A7D1     		bne	.L35
 593 02d0 6246     		mov	r2, ip
 594              	.LVL62:
 595 02d2 92E7     		b	.L36
 596              	.LVL63:
 597              	.L39:
 598              	.LBE63:
 599              	.LBE66:
 600              	.LBE68:
 601              	.LBE72:
 314:..\..\..\lvgl\version_6.1.2\lvgl\src\lv_draw/lv_draw_line.c ****         if(!main_line->hor && main_line->p1.x >= main_line->p2.x + dir_ori) pattern[0].x--;
 602              		.loc 1 314 0
 603 02d4 D945     		cmp	r9, fp
 604 02d6 40F36A81 		ble	.L42
 605 02da 089B     		ldr	r3, [sp, #32]
 606              	.LVL64:
 607 02dc 9D42     		cmp	r5, r3
 608 02de 03DB     		blt	.L43
 609 02e0 0A9A     		ldr	r2, [sp, #40]
 610 02e2 5388     		ldrh	r3, [r2, #2]
 611 02e4 013B     		subs	r3, r3, #1
 612 02e6 5380     		strh	r3, [r2, #2]	@ movhi
 613              	.L43:
 614              	.LVL65:
 319:..\..\..\lvgl\version_6.1.2\lvgl\src\lv_draw/lv_draw_line.c ****         pattern[i].x -= x_center_ofs;
 615              		.loc 1 319 0
ARM GAS  C:\Users\pearlstl\AppData\Local\Temp\ccuP9Sbb.s 			page 24


 616 02e8 0023     		movs	r3, #0
 617 02ea 0993     		str	r3, [sp, #36]
 618              	.LVL66:
 619              	.L41:
 454:..\..\..\lvgl\version_6.1.2\lvgl\src\lv_draw/lv_draw_line.c ****         while(line_next_y(main_line)) {
 620              		.loc 1 454 0
 621 02ec D945     		cmp	r9, fp
 449:..\..\..\lvgl\version_6.1.2\lvgl\src\lv_draw/lv_draw_line.c ****     prev_p.y = main_line->p1.y;
 622              		.loc 1 449 0
 623 02ee ADF86460 		strh	r6, [sp, #100]	@ movhi
 450:..\..\..\lvgl\version_6.1.2\lvgl\src\lv_draw/lv_draw_line.c ****     lv_area_t draw_area;
 624              		.loc 1 450 0
 625 02f2 ADF86650 		strh	r5, [sp, #102]	@ movhi
 626              	.LVL67:
 454:..\..\..\lvgl\version_6.1.2\lvgl\src\lv_draw/lv_draw_line.c ****         while(line_next_y(main_line)) {
 627              		.loc 1 454 0
 628 02f6 40F36881 		ble	.L44
 629 02fa 099B     		ldr	r3, [sp, #36]
 630 02fc 0A9A     		ldr	r2, [sp, #40]
 631 02fe CDF810B0 		str	fp, [sp, #16]
 632 0302 013B     		subs	r3, r3, #1
 633 0304 9BB2     		uxth	r3, r3
 634 0306 0133     		adds	r3, r3, #1
 635 0308 02EB8303 		add	r3, r2, r3, lsl #2
 636 030c 1093     		str	r3, [sp, #64]
 637 030e 089B     		ldr	r3, [sp, #32]
 638 0310 0E9C     		ldr	r4, [sp, #56]
 639 0312 0595     		str	r5, [sp, #20]
 640 0314 2A46     		mov	r2, r5
 641              	.LVL68:
 642 0316 9342     		cmp	r3, r2
 643 0318 C9F10009 		rsb	r9, r9, #0
 644 031c 4FF00100 		mov	r0, #1
 645              	.LVL69:
 646 0320 DDF834B0 		ldr	fp, [sp, #52]
 647 0324 5CD0     		beq	.L174
 648              	.L50:
 649 0326 069B     		ldr	r3, [sp, #24]
 650 0328 9918     		adds	r1, r3, r2
 651              	.LBB73:
 652              	.LBB74:
 653              	.LBB75:
 654              	.LBB76:
 655              		.loc 1 602 0
 656 032a 09B2     		sxth	r1, r1
 657              	.LVL70:
 658              	.L52:
 596:..\..\..\lvgl\version_6.1.2\lvgl\src\lv_draw/lv_draw_line.c ****         line->err -= line->dy;
 659              		.loc 1 596 0
 660 032c A145     		cmp	r9, r4
 598:..\..\..\lvgl\version_6.1.2\lvgl\src\lv_draw/lv_draw_line.c ****     }
 661              		.loc 1 598 0
 662 032e 0BEB0603 		add	r3, fp, r6
 597:..\..\..\lvgl\version_6.1.2\lvgl\src\lv_draw/lv_draw_line.c ****         line->p_act.x += line->sx;
 663              		.loc 1 597 0
 664 0332 CAEB0402 		rsb	r2, r10, r4
 598:..\..\..\lvgl\version_6.1.2\lvgl\src\lv_draw/lv_draw_line.c ****     }
ARM GAS  C:\Users\pearlstl\AppData\Local\Temp\ccuP9Sbb.s 			page 25


 665              		.loc 1 598 0
 666 0336 B8BF     		it	lt
 667 0338 1EB2     		sxthlt	r6, r3
 668              	.LVL71:
 600:..\..\..\lvgl\version_6.1.2\lvgl\src\lv_draw/lv_draw_line.c ****         line->err += line->dx;
 669              		.loc 1 600 0
 670 033a 049D     		ldr	r5, [sp, #16]
 601:..\..\..\lvgl\version_6.1.2\lvgl\src\lv_draw/lv_draw_line.c ****         line->p_act.y += line->sy;
 671              		.loc 1 601 0
 672 033c 039B     		ldr	r3, [sp, #12]
 596:..\..\..\lvgl\version_6.1.2\lvgl\src\lv_draw/lv_draw_line.c ****         line->err -= line->dy;
 673              		.loc 1 596 0
 674 033e ACBF     		ite	ge
 675 0340 2246     		movge	r2, r4
 597:..\..\..\lvgl\version_6.1.2\lvgl\src\lv_draw/lv_draw_line.c ****         line->p_act.x += line->sx;
 676              		.loc 1 597 0
 677 0342 12B2     		sxthlt	r2, r2
 678              	.LVL72:
 601:..\..\..\lvgl\version_6.1.2\lvgl\src\lv_draw/lv_draw_line.c ****         line->p_act.y += line->sy;
 679              		.loc 1 601 0
 680 0344 1344     		add	r3, r3, r2
 600:..\..\..\lvgl\version_6.1.2\lvgl\src\lv_draw/lv_draw_line.c ****         line->err += line->dx;
 681              		.loc 1 600 0
 682 0346 A542     		cmp	r5, r4
 601:..\..\..\lvgl\version_6.1.2\lvgl\src\lv_draw/lv_draw_line.c ****         line->p_act.y += line->sy;
 683              		.loc 1 601 0
 684 0348 1CB2     		sxth	r4, r3
 685              	.LVL73:
 600:..\..\..\lvgl\version_6.1.2\lvgl\src\lv_draw/lv_draw_line.c ****         line->err += line->dx;
 686              		.loc 1 600 0
 687 034a 40F39880 		ble	.L104
 688              	.LBE76:
 689              	.LBE75:
 603:..\..\..\lvgl\version_6.1.2\lvgl\src\lv_draw/lv_draw_line.c ****     }
 604:..\..\..\lvgl\version_6.1.2\lvgl\src\lv_draw/lv_draw_line.c ****     return true;
 605:..\..\..\lvgl\version_6.1.2\lvgl\src\lv_draw/lv_draw_line.c **** }
 606:..\..\..\lvgl\version_6.1.2\lvgl\src\lv_draw/lv_draw_line.c **** 
 607:..\..\..\lvgl\version_6.1.2\lvgl\src\lv_draw/lv_draw_line.c **** /**
 608:..\..\..\lvgl\version_6.1.2\lvgl\src\lv_draw/lv_draw_line.c ****  * Iterate until step one in y direction.
 609:..\..\..\lvgl\version_6.1.2\lvgl\src\lv_draw/lv_draw_line.c ****  * @param line
 610:..\..\..\lvgl\version_6.1.2\lvgl\src\lv_draw/lv_draw_line.c ****  * @return
 611:..\..\..\lvgl\version_6.1.2\lvgl\src\lv_draw/lv_draw_line.c ****  */
 612:..\..\..\lvgl\version_6.1.2\lvgl\src\lv_draw/lv_draw_line.c **** static bool line_next_y(line_draw_t * line)
 613:..\..\..\lvgl\version_6.1.2\lvgl\src\lv_draw/lv_draw_line.c **** {
 614:..\..\..\lvgl\version_6.1.2\lvgl\src\lv_draw/lv_draw_line.c ****     lv_coord_t last_y = line->p_act.y;
 615:..\..\..\lvgl\version_6.1.2\lvgl\src\lv_draw/lv_draw_line.c **** 
 616:..\..\..\lvgl\version_6.1.2\lvgl\src\lv_draw/lv_draw_line.c ****     do {
 617:..\..\..\lvgl\version_6.1.2\lvgl\src\lv_draw/lv_draw_line.c ****         if(!line_next(line)) return false;
 618:..\..\..\lvgl\version_6.1.2\lvgl\src\lv_draw/lv_draw_line.c ****     } while(last_y == line->p_act.y);
 690              		.loc 1 618 0
 691 034e 059B     		ldr	r3, [sp, #20]
 692 0350 9942     		cmp	r1, r3
 693 0352 EBD0     		beq	.L52
 694              	.LVL74:
 695              	.L154:
 696              	.LBE74:
 697              	.LBE73:
ARM GAS  C:\Users\pearlstl\AppData\Local\Temp\ccuP9Sbb.s 			page 26


 456:..\..\..\lvgl\version_6.1.2\lvgl\src\lv_draw/lv_draw_line.c ****                 draw_area.x1 = prev_p.x + pattern[i].x;
 698              		.loc 1 456 0
 699 0354 099B     		ldr	r3, [sp, #36]
 700              	.LBB89:
 701              	.LBB85:
 702              		.loc 1 618 0
 703 0356 0591     		str	r1, [sp, #20]
 704              	.LVL75:
 705              	.LBE85:
 706              	.LBE89:
 456:..\..\..\lvgl\version_6.1.2\lvgl\src\lv_draw/lv_draw_line.c ****                 draw_area.x1 = prev_p.x + pattern[i].x;
 707              		.loc 1 456 0
 708 0358 002B     		cmp	r3, #0
 709 035a 35DD     		ble	.L60
 710 035c B3B2     		uxth	r3, r6
 711 035e 1A46     		mov	r2, r3
 712 0360 0028     		cmp	r0, #0
 713 0362 00F08E80 		beq	.L61
 714 0366 0D94     		str	r4, [sp, #52]
 715 0368 CDF838A0 		str	r10, [sp, #56]
 716 036c 0A9D     		ldr	r5, [sp, #40]
 717 036e 0C9C     		ldr	r4, [sp, #48]
 718              	.LVL76:
 719 0370 0B9F     		ldr	r7, [sp, #44]
 720 0372 DDF840A0 		ldr	r10, [sp, #64]
 721 0376 CDF83CB0 		str	fp, [sp, #60]
 722 037a 9B46     		mov	fp, r3
 723              	.LVL77:
 724              	.L49:
 457:..\..\..\lvgl\version_6.1.2\lvgl\src\lv_draw/lv_draw_line.c ****                 draw_area.y1 = prev_p.y + pattern[i].y;
 725              		.loc 1 457 0
 726 037c B5F800E0 		ldrh	lr, [r5]
 727 0380 BDF86400 		ldrh	r0, [sp, #100]
 458:..\..\..\lvgl\version_6.1.2\lvgl\src\lv_draw/lv_draw_line.c ****                 draw_area.x2 = draw_area.x1 + main_line->p_act.x - prev_p.x - 1;
 728              		.loc 1 458 0
 729 0384 BDF86610 		ldrh	r1, [sp, #102]
 459:..\..\..\lvgl\version_6.1.2\lvgl\src\lv_draw/lv_draw_line.c ****                 draw_area.y2 = draw_area.y1;
 730              		.loc 1 459 0
 731 0388 BDF86430 		ldrh	r3, [sp, #100]
 461:..\..\..\lvgl\version_6.1.2\lvgl\src\lv_draw/lv_draw_line.c **** 
 732              		.loc 1 461 0
 733 038c 2268     		ldr	r2, [r4]
 457:..\..\..\lvgl\version_6.1.2\lvgl\src\lv_draw/lv_draw_line.c ****                 draw_area.y1 = prev_p.y + pattern[i].y;
 734              		.loc 1 457 0
 735 038e 7044     		add	r0, r0, lr
 736 0390 80B2     		uxth	r0, r0
 737 0392 ADF86800 		strh	r0, [sp, #104]	@ movhi
 458:..\..\..\lvgl\version_6.1.2\lvgl\src\lv_draw/lv_draw_line.c ****                 draw_area.x2 = draw_area.x1 + main_line->p_act.x - prev_p.x - 1;
 738              		.loc 1 458 0
 739 0396 B5F802E0 		ldrh	lr, [r5, #2]
 459:..\..\..\lvgl\version_6.1.2\lvgl\src\lv_draw/lv_draw_line.c ****                 draw_area.y2 = draw_area.y1;
 740              		.loc 1 459 0
 741 039a DB43     		mvns	r3, r3
 742 039c 5B44     		add	r3, r3, fp
 743 039e 1844     		add	r0, r0, r3
 458:..\..\..\lvgl\version_6.1.2\lvgl\src\lv_draw/lv_draw_line.c ****                 draw_area.x2 = draw_area.x1 + main_line->p_act.x - prev_p.x - 1;
 744              		.loc 1 458 0
ARM GAS  C:\Users\pearlstl\AppData\Local\Temp\ccuP9Sbb.s 			page 27


 745 03a0 8E44     		add	lr, lr, r1
 746 03a2 0FFA8EFE 		sxth	lr, lr
 459:..\..\..\lvgl\version_6.1.2\lvgl\src\lv_draw/lv_draw_line.c ****                 draw_area.y2 = draw_area.y1;
 747              		.loc 1 459 0
 748 03a6 ADF86C00 		strh	r0, [sp, #108]	@ movhi
 749 03aa 0435     		adds	r5, r5, #4
 461:..\..\..\lvgl\version_6.1.2\lvgl\src\lv_draw/lv_draw_line.c **** 
 750              		.loc 1 461 0
 751 03ac 3B46     		mov	r3, r7
 752 03ae 4146     		mov	r1, r8
 753 03b0 1AA8     		add	r0, sp, #104
 458:..\..\..\lvgl\version_6.1.2\lvgl\src\lv_draw/lv_draw_line.c ****                 draw_area.x2 = draw_area.x1 + main_line->p_act.x - prev_p.x - 1;
 754              		.loc 1 458 0
 755 03b2 ADF86AE0 		strh	lr, [sp, #106]	@ movhi
 460:..\..\..\lvgl\version_6.1.2\lvgl\src\lv_draw/lv_draw_line.c ****                 lv_draw_fill(&draw_area, mask, style->line.color, opa);
 756              		.loc 1 460 0
 757 03b6 ADF86EE0 		strh	lr, [sp, #110]	@ movhi
 461:..\..\..\lvgl\version_6.1.2\lvgl\src\lv_draw/lv_draw_line.c **** 
 758              		.loc 1 461 0
 759 03ba FFF7FEFF 		bl	lv_draw_fill
 760              	.LVL78:
 456:..\..\..\lvgl\version_6.1.2\lvgl\src\lv_draw/lv_draw_line.c ****                 draw_area.x1 = prev_p.x + pattern[i].x;
 761              		.loc 1 456 0
 762 03be AA45     		cmp	r10, r5
 763 03c0 DCD1     		bne	.L49
 764 03c2 0DAC     		add	r4, sp, #52
 765 03c4 94E8100C 		ldmia	r4, {r4, r10, fp}
 766              	.LVL79:
 767              	.L60:
 484:..\..\..\lvgl\version_6.1.2\lvgl\src\lv_draw/lv_draw_line.c ****         }
 768              		.loc 1 484 0
 769 03c8 BDF81430 		ldrh	r3, [sp, #20]
 483:..\..\..\lvgl\version_6.1.2\lvgl\src\lv_draw/lv_draw_line.c ****             prev_p.y = main_line->p_act.y;
 770              		.loc 1 483 0
 771 03cc ADF86460 		strh	r6, [sp, #100]	@ movhi
 772 03d0 059A     		ldr	r2, [sp, #20]
 773              	.LVL80:
 484:..\..\..\lvgl\version_6.1.2\lvgl\src\lv_draw/lv_draw_line.c ****         }
 774              		.loc 1 484 0
 775 03d2 ADF86630 		strh	r3, [sp, #102]	@ movhi
 776 03d6 089B     		ldr	r3, [sp, #32]
 777 03d8 9342     		cmp	r3, r2
 481:..\..\..\lvgl\version_6.1.2\lvgl\src\lv_draw/lv_draw_line.c **** 
 778              		.loc 1 481 0
 779 03da 4FF00000 		mov	r0, #0
 780              	.LVL81:
 781 03de A2D1     		bne	.L50
 782              	.L174:
 783 03e0 1A46     		mov	r2, r3
 784              	.LBB90:
 785              	.LBB86:
 786              	.LBB81:
 787              	.LBB77:
 602:..\..\..\lvgl\version_6.1.2\lvgl\src\lv_draw/lv_draw_line.c ****     }
 788              		.loc 1 602 0
 789 03e2 069B     		ldr	r3, [sp, #24]
 790 03e4 9918     		adds	r1, r3, r2
ARM GAS  C:\Users\pearlstl\AppData\Local\Temp\ccuP9Sbb.s 			page 28


 791 03e6 09B2     		sxth	r1, r1
 792              	.LVL82:
 793              	.L51:
 594:..\..\..\lvgl\version_6.1.2\lvgl\src\lv_draw/lv_draw_line.c ****     line->e2 = line->err;
 794              		.loc 1 594 0
 795 03e8 079B     		ldr	r3, [sp, #28]
 796 03ea B342     		cmp	r3, r6
 797 03ec 16D0     		beq	.L175
 798              	.L56:
 596:..\..\..\lvgl\version_6.1.2\lvgl\src\lv_draw/lv_draw_line.c ****         line->err -= line->dy;
 799              		.loc 1 596 0
 800 03ee 4C45     		cmp	r4, r9
 598:..\..\..\lvgl\version_6.1.2\lvgl\src\lv_draw/lv_draw_line.c ****     }
 801              		.loc 1 598 0
 802 03f0 0BEB0603 		add	r3, fp, r6
 597:..\..\..\lvgl\version_6.1.2\lvgl\src\lv_draw/lv_draw_line.c ****         line->p_act.x += line->sx;
 803              		.loc 1 597 0
 804 03f4 CAEB0402 		rsb	r2, r10, r4
 598:..\..\..\lvgl\version_6.1.2\lvgl\src\lv_draw/lv_draw_line.c ****     }
 805              		.loc 1 598 0
 806 03f8 C8BF     		it	gt
 807 03fa 1EB2     		sxthgt	r6, r3
 808              	.LVL83:
 600:..\..\..\lvgl\version_6.1.2\lvgl\src\lv_draw/lv_draw_line.c ****         line->err += line->dx;
 809              		.loc 1 600 0
 810 03fc 049D     		ldr	r5, [sp, #16]
 601:..\..\..\lvgl\version_6.1.2\lvgl\src\lv_draw/lv_draw_line.c ****         line->p_act.y += line->sy;
 811              		.loc 1 601 0
 812 03fe 039B     		ldr	r3, [sp, #12]
 596:..\..\..\lvgl\version_6.1.2\lvgl\src\lv_draw/lv_draw_line.c ****         line->err -= line->dy;
 813              		.loc 1 596 0
 814 0400 D4BF     		ite	le
 815 0402 2246     		movle	r2, r4
 597:..\..\..\lvgl\version_6.1.2\lvgl\src\lv_draw/lv_draw_line.c ****         line->p_act.x += line->sx;
 816              		.loc 1 597 0
 817 0404 12B2     		sxthgt	r2, r2
 818              	.LVL84:
 601:..\..\..\lvgl\version_6.1.2\lvgl\src\lv_draw/lv_draw_line.c ****         line->p_act.y += line->sy;
 819              		.loc 1 601 0
 820 0406 D318     		adds	r3, r2, r3
 600:..\..\..\lvgl\version_6.1.2\lvgl\src\lv_draw/lv_draw_line.c ****         line->err += line->dx;
 821              		.loc 1 600 0
 822 0408 A542     		cmp	r5, r4
 601:..\..\..\lvgl\version_6.1.2\lvgl\src\lv_draw/lv_draw_line.c ****         line->p_act.y += line->sy;
 823              		.loc 1 601 0
 824 040a 1CB2     		sxth	r4, r3
 825              	.LVL85:
 600:..\..\..\lvgl\version_6.1.2\lvgl\src\lv_draw/lv_draw_line.c ****         line->err += line->dx;
 826              		.loc 1 600 0
 827 040c 40F38780 		ble	.L106
 828              	.LBE77:
 829              	.LBE81:
 830              		.loc 1 618 0
 831 0410 059B     		ldr	r3, [sp, #20]
 832 0412 9942     		cmp	r1, r3
 833 0414 9ED1     		bne	.L154
 834              	.LVL86:
ARM GAS  C:\Users\pearlstl\AppData\Local\Temp\ccuP9Sbb.s 			page 29


 835              	.LBB82:
 836              	.LBB78:
 594:..\..\..\lvgl\version_6.1.2\lvgl\src\lv_draw/lv_draw_line.c ****     line->e2 = line->err;
 837              		.loc 1 594 0
 838 0416 079B     		ldr	r3, [sp, #28]
 839 0418 B342     		cmp	r3, r6
 840 041a E8D1     		bne	.L56
 841              	.L175:
 842              	.LVL87:
 843              	.LBE78:
 844              	.LBE82:
 845              	.LBE86:
 846              	.LBE90:
 487:..\..\..\lvgl\version_6.1.2\lvgl\src\lv_draw/lv_draw_line.c ****             draw_area.x1 = prev_p.x + pattern[i].x;
 847              		.loc 1 487 0
 848 041c 099B     		ldr	r3, [sp, #36]
 849 041e 002B     		cmp	r3, #0
 850 0420 7FF706AE 		ble	.L1
 851 0424 BDF81C60 		ldrh	r6, [sp, #28]
 852              	.LVL88:
 853 0428 0028     		cmp	r0, #0
 854 042a 7AD0     		beq	.L176
 855 042c 0A9F     		ldr	r7, [sp, #40]
 856 042e DDF83090 		ldr	r9, [sp, #48]
 857 0432 DDF82CA0 		ldr	r10, [sp, #44]
 858 0436 DDF840B0 		ldr	fp, [sp, #64]
 859 043a 1AAD     		add	r5, sp, #104
 860              	.LVL89:
 861              	.L68:
 488:..\..\..\lvgl\version_6.1.2\lvgl\src\lv_draw/lv_draw_line.c ****             draw_area.y1 = prev_p.y + pattern[i].y;
 862              		.loc 1 488 0
 863 043c 3C88     		ldrh	r4, [r7]
 864 043e BDF86410 		ldrh	r1, [sp, #100]
 489:..\..\..\lvgl\version_6.1.2\lvgl\src\lv_draw/lv_draw_line.c ****             draw_area.x2 = draw_area.x1 + main_line->p_act.x - prev_p.x;
 865              		.loc 1 489 0
 866 0442 BDF86630 		ldrh	r3, [sp, #102]
 490:..\..\..\lvgl\version_6.1.2\lvgl\src\lv_draw/lv_draw_line.c ****             draw_area.y2 = draw_area.y1;
 867              		.loc 1 490 0
 868 0446 BDF86400 		ldrh	r0, [sp, #100]
 492:..\..\..\lvgl\version_6.1.2\lvgl\src\lv_draw/lv_draw_line.c **** 
 869              		.loc 1 492 0
 870 044a D9F80020 		ldr	r2, [r9]
 488:..\..\..\lvgl\version_6.1.2\lvgl\src\lv_draw/lv_draw_line.c ****             draw_area.y1 = prev_p.y + pattern[i].y;
 871              		.loc 1 488 0
 872 044e 2144     		add	r1, r1, r4
 873 0450 89B2     		uxth	r1, r1
 874 0452 ADF86810 		strh	r1, [sp, #104]	@ movhi
 489:..\..\..\lvgl\version_6.1.2\lvgl\src\lv_draw/lv_draw_line.c ****             draw_area.x2 = draw_area.x1 + main_line->p_act.x - prev_p.x;
 875              		.loc 1 489 0
 876 0456 7C88     		ldrh	r4, [r7, #2]
 490:..\..\..\lvgl\version_6.1.2\lvgl\src\lv_draw/lv_draw_line.c ****             draw_area.y2 = draw_area.y1;
 877              		.loc 1 490 0
 878 0458 301A     		subs	r0, r6, r0
 879 045a 0844     		add	r0, r0, r1
 489:..\..\..\lvgl\version_6.1.2\lvgl\src\lv_draw/lv_draw_line.c ****             draw_area.x2 = draw_area.x1 + main_line->p_act.x - prev_p.x;
 880              		.loc 1 489 0
 881 045c 1C44     		add	r4, r4, r3
ARM GAS  C:\Users\pearlstl\AppData\Local\Temp\ccuP9Sbb.s 			page 30


 882 045e 24B2     		sxth	r4, r4
 490:..\..\..\lvgl\version_6.1.2\lvgl\src\lv_draw/lv_draw_line.c ****             draw_area.y2 = draw_area.y1;
 883              		.loc 1 490 0
 884 0460 ADF86C00 		strh	r0, [sp, #108]	@ movhi
 885 0464 0437     		adds	r7, r7, #4
 492:..\..\..\lvgl\version_6.1.2\lvgl\src\lv_draw/lv_draw_line.c **** 
 886              		.loc 1 492 0
 887 0466 5346     		mov	r3, r10
 888 0468 4146     		mov	r1, r8
 889 046a 2846     		mov	r0, r5
 489:..\..\..\lvgl\version_6.1.2\lvgl\src\lv_draw/lv_draw_line.c ****             draw_area.x2 = draw_area.x1 + main_line->p_act.x - prev_p.x;
 890              		.loc 1 489 0
 891 046c ADF86A40 		strh	r4, [sp, #106]	@ movhi
 491:..\..\..\lvgl\version_6.1.2\lvgl\src\lv_draw/lv_draw_line.c ****             lv_draw_fill(&draw_area, mask, style->line.color, opa);
 892              		.loc 1 491 0
 893 0470 ADF86E40 		strh	r4, [sp, #110]	@ movhi
 492:..\..\..\lvgl\version_6.1.2\lvgl\src\lv_draw/lv_draw_line.c **** 
 894              		.loc 1 492 0
 895 0474 FFF7FEFF 		bl	lv_draw_fill
 896              	.LVL90:
 487:..\..\..\lvgl\version_6.1.2\lvgl\src\lv_draw/lv_draw_line.c ****             draw_area.x1 = prev_p.x + pattern[i].x;
 897              		.loc 1 487 0
 898 0478 BB45     		cmp	fp, r7
 899 047a DFD1     		bne	.L68
 900 047c D8E5     		b	.L1
 901              	.LVL91:
 902              	.L104:
 903              	.LBB91:
 904              	.LBB87:
 905              	.LBB83:
 906              	.LBB79:
 600:..\..\..\lvgl\version_6.1.2\lvgl\src\lv_draw/lv_draw_line.c ****         line->err += line->dx;
 907              		.loc 1 600 0
 908 047e 1446     		mov	r4, r2
 909              	.LVL92:
 910 0480 54E7     		b	.L52
 911              	.LVL93:
 912              	.L61:
 913 0482 0A9B     		ldr	r3, [sp, #40]
 914 0484 0D94     		str	r4, [sp, #52]
 915 0486 CDF838A0 		str	r10, [sp, #56]
 916 048a 1196     		str	r6, [sp, #68]
 917 048c 0C9C     		ldr	r4, [sp, #48]
 918              	.LVL94:
 919 048e DDF824A0 		ldr	r10, [sp, #36]
 920 0492 0B9E     		ldr	r6, [sp, #44]
 921              	.LVL95:
 922 0494 CDF83CB0 		str	fp, [sp, #60]
 923              	.LBE79:
 924              	.LBE83:
 925              	.LBE87:
 926              	.LBE91:
 456:..\..\..\lvgl\version_6.1.2\lvgl\src\lv_draw/lv_draw_line.c ****                 draw_area.x1 = prev_p.x + pattern[i].x;
 927              		.loc 1 456 0
 928 0498 0746     		mov	r7, r0
 929 049a 9D1C     		adds	r5, r3, #2
 930 049c 9346     		mov	fp, r2
ARM GAS  C:\Users\pearlstl\AppData\Local\Temp\ccuP9Sbb.s 			page 31


 931              	.LVL96:
 932              	.L63:
 457:..\..\..\lvgl\version_6.1.2\lvgl\src\lv_draw/lv_draw_line.c ****                 draw_area.y1 = prev_p.y + pattern[i].y;
 933              		.loc 1 457 0
 934 049e 35F802EC 		ldrh	lr, [r5, #-2]
 935 04a2 BDF86400 		ldrh	r0, [sp, #100]
 458:..\..\..\lvgl\version_6.1.2\lvgl\src\lv_draw/lv_draw_line.c ****                 draw_area.x2 = draw_area.x1 + main_line->p_act.x - prev_p.x - 1;
 936              		.loc 1 458 0
 937 04a6 BDF86610 		ldrh	r1, [sp, #102]
 459:..\..\..\lvgl\version_6.1.2\lvgl\src\lv_draw/lv_draw_line.c ****                 draw_area.y2 = draw_area.y1;
 938              		.loc 1 459 0
 939 04aa BDF86430 		ldrh	r3, [sp, #100]
 461:..\..\..\lvgl\version_6.1.2\lvgl\src\lv_draw/lv_draw_line.c **** 
 940              		.loc 1 461 0
 941 04ae 2268     		ldr	r2, [r4]
 457:..\..\..\lvgl\version_6.1.2\lvgl\src\lv_draw/lv_draw_line.c ****                 draw_area.y1 = prev_p.y + pattern[i].y;
 942              		.loc 1 457 0
 943 04b0 7044     		add	r0, r0, lr
 944 04b2 80B2     		uxth	r0, r0
 945 04b4 ADF86800 		strh	r0, [sp, #104]	@ movhi
 458:..\..\..\lvgl\version_6.1.2\lvgl\src\lv_draw/lv_draw_line.c ****                 draw_area.x2 = draw_area.x1 + main_line->p_act.x - prev_p.x - 1;
 946              		.loc 1 458 0
 947 04b8 B5F800E0 		ldrh	lr, [r5]
 459:..\..\..\lvgl\version_6.1.2\lvgl\src\lv_draw/lv_draw_line.c ****                 draw_area.y2 = draw_area.y1;
 948              		.loc 1 459 0
 949 04bc DB43     		mvns	r3, r3
 950 04be 5B44     		add	r3, r3, fp
 951 04c0 1844     		add	r0, r0, r3
 458:..\..\..\lvgl\version_6.1.2\lvgl\src\lv_draw/lv_draw_line.c ****                 draw_area.x2 = draw_area.x1 + main_line->p_act.x - prev_p.x - 1;
 952              		.loc 1 458 0
 953 04c2 8E44     		add	lr, lr, r1
 954 04c4 0FFA8EFE 		sxth	lr, lr
 459:..\..\..\lvgl\version_6.1.2\lvgl\src\lv_draw/lv_draw_line.c ****                 draw_area.y2 = draw_area.y1;
 955              		.loc 1 459 0
 956 04c8 ADF86C00 		strh	r0, [sp, #108]	@ movhi
 461:..\..\..\lvgl\version_6.1.2\lvgl\src\lv_draw/lv_draw_line.c **** 
 957              		.loc 1 461 0
 958 04cc 3346     		mov	r3, r6
 959 04ce 4146     		mov	r1, r8
 960 04d0 1AA8     		add	r0, sp, #104
 458:..\..\..\lvgl\version_6.1.2\lvgl\src\lv_draw/lv_draw_line.c ****                 draw_area.x2 = draw_area.x1 + main_line->p_act.x - prev_p.x - 1;
 961              		.loc 1 458 0
 962 04d2 ADF86AE0 		strh	lr, [sp, #106]	@ movhi
 460:..\..\..\lvgl\version_6.1.2\lvgl\src\lv_draw/lv_draw_line.c ****                 lv_draw_fill(&draw_area, mask, style->line.color, opa);
 963              		.loc 1 460 0
 964 04d6 ADF86EE0 		strh	lr, [sp, #110]	@ movhi
 461:..\..\..\lvgl\version_6.1.2\lvgl\src\lv_draw/lv_draw_line.c **** 
 965              		.loc 1 461 0
 966 04da FFF7FEFF 		bl	lv_draw_fill
 967              	.LVL97:
 467:..\..\..\lvgl\version_6.1.2\lvgl\src\lv_draw/lv_draw_line.c ****                 }
 968              		.loc 1 467 0
 969 04de 4246     		mov	r2, r8
 466:..\..\..\lvgl\version_6.1.2\lvgl\src\lv_draw/lv_draw_line.c ****                     lv_draw_px(draw_area.x1, draw_area.y1 - main_line->sy, mask, style->line.color,
 970              		.loc 1 466 0
 971 04e0 97B1     		cbz	r7, .L62
 972 04e2 35F9061C 		ldrsh	r1, [r5, #-6]
ARM GAS  C:\Users\pearlstl\AppData\Local\Temp\ccuP9Sbb.s 			page 32


 973 04e6 35F9023C 		ldrsh	r3, [r5, #-2]
 974 04ea 9942     		cmp	r1, r3
 975 04ec 0CD0     		beq	.L62
 467:..\..\..\lvgl\version_6.1.2\lvgl\src\lv_draw/lv_draw_line.c ****                 }
 976              		.loc 1 467 0
 977 04ee 069B     		ldr	r3, [sp, #24]
 978 04f0 BDF86A10 		ldrh	r1, [sp, #106]
 979 04f4 D4F800E0 		ldr	lr, [r4]
 980 04f8 BDF96800 		ldrsh	r0, [sp, #104]
 981 04fc 0096     		str	r6, [sp]
 982 04fe C91A     		subs	r1, r1, r3
 983 0500 09B2     		sxth	r1, r1
 984 0502 7346     		mov	r3, lr
 985 0504 FFF7FEFF 		bl	lv_draw_px
 986              	.LVL98:
 987              	.L62:
 988 0508 0137     		adds	r7, r7, #1
 989              	.LVL99:
 456:..\..\..\lvgl\version_6.1.2\lvgl\src\lv_draw/lv_draw_line.c ****                 draw_area.x1 = prev_p.x + pattern[i].x;
 990              		.loc 1 456 0
 991 050a 3BB2     		sxth	r3, r7
 992 050c 9A45     		cmp	r10, r3
 993 050e 05F10405 		add	r5, r5, #4
 994 0512 C4DC     		bgt	.L63
 995 0514 0DAC     		add	r4, sp, #52
 996 0516 94E8100C 		ldmia	r4, {r4, r10, fp}
 997              	.LVL100:
 998 051a 119E     		ldr	r6, [sp, #68]
 999 051c 54E7     		b	.L60
 1000              	.LVL101:
 1001              	.L106:
 1002              	.LBB92:
 1003              	.LBB88:
 1004              	.LBB84:
 1005              	.LBB80:
 600:..\..\..\lvgl\version_6.1.2\lvgl\src\lv_draw/lv_draw_line.c ****         line->err += line->dx;
 1006              		.loc 1 600 0
 1007 051e 1446     		mov	r4, r2
 1008              	.LVL102:
 1009 0520 62E7     		b	.L51
 1010              	.LVL103:
 1011              	.L176:
 1012 0522 0A9F     		ldr	r7, [sp, #40]
 1013 0524 DDF83090 		ldr	r9, [sp, #48]
 1014 0528 DDF82CA0 		ldr	r10, [sp, #44]
 1015 052c 9B46     		mov	fp, r3
 1016 052e 0237     		adds	r7, r7, #2
 1017              	.LBE80:
 1018              	.LBE84:
 1019              	.LBE88:
 1020              	.LBE92:
 487:..\..\..\lvgl\version_6.1.2\lvgl\src\lv_draw/lv_draw_line.c ****             draw_area.x1 = prev_p.x + pattern[i].x;
 1021              		.loc 1 487 0
 1022 0530 0446     		mov	r4, r0
 1023              	.LVL104:
 1024 0532 1AAD     		add	r5, sp, #104
 1025              	.LVL105:
ARM GAS  C:\Users\pearlstl\AppData\Local\Temp\ccuP9Sbb.s 			page 33


 1026              	.L66:
 488:..\..\..\lvgl\version_6.1.2\lvgl\src\lv_draw/lv_draw_line.c ****             draw_area.y1 = prev_p.y + pattern[i].y;
 1027              		.loc 1 488 0
 1028 0534 37F8021C 		ldrh	r1, [r7, #-2]
 1029 0538 BDF864E0 		ldrh	lr, [sp, #100]
 489:..\..\..\lvgl\version_6.1.2\lvgl\src\lv_draw/lv_draw_line.c ****             draw_area.x2 = draw_area.x1 + main_line->p_act.x - prev_p.x;
 1030              		.loc 1 489 0
 1031 053c BDF86630 		ldrh	r3, [sp, #102]
 490:..\..\..\lvgl\version_6.1.2\lvgl\src\lv_draw/lv_draw_line.c ****             draw_area.y2 = draw_area.y1;
 1032              		.loc 1 490 0
 1033 0540 BDF86400 		ldrh	r0, [sp, #100]
 492:..\..\..\lvgl\version_6.1.2\lvgl\src\lv_draw/lv_draw_line.c **** 
 1034              		.loc 1 492 0
 1035 0544 D9F80020 		ldr	r2, [r9]
 488:..\..\..\lvgl\version_6.1.2\lvgl\src\lv_draw/lv_draw_line.c ****             draw_area.y1 = prev_p.y + pattern[i].y;
 1036              		.loc 1 488 0
 1037 0548 7144     		add	r1, r1, lr
 1038 054a 89B2     		uxth	r1, r1
 1039 054c ADF86810 		strh	r1, [sp, #104]	@ movhi
 489:..\..\..\lvgl\version_6.1.2\lvgl\src\lv_draw/lv_draw_line.c ****             draw_area.x2 = draw_area.x1 + main_line->p_act.x - prev_p.x;
 1040              		.loc 1 489 0
 1041 0550 B7F800E0 		ldrh	lr, [r7]
 490:..\..\..\lvgl\version_6.1.2\lvgl\src\lv_draw/lv_draw_line.c ****             draw_area.y2 = draw_area.y1;
 1042              		.loc 1 490 0
 1043 0554 301A     		subs	r0, r6, r0
 1044 0556 0844     		add	r0, r0, r1
 489:..\..\..\lvgl\version_6.1.2\lvgl\src\lv_draw/lv_draw_line.c ****             draw_area.x2 = draw_area.x1 + main_line->p_act.x - prev_p.x;
 1045              		.loc 1 489 0
 1046 0558 9E44     		add	lr, lr, r3
 1047 055a 0FFA8EFE 		sxth	lr, lr
 490:..\..\..\lvgl\version_6.1.2\lvgl\src\lv_draw/lv_draw_line.c ****             draw_area.y2 = draw_area.y1;
 1048              		.loc 1 490 0
 1049 055e ADF86C00 		strh	r0, [sp, #108]	@ movhi
 492:..\..\..\lvgl\version_6.1.2\lvgl\src\lv_draw/lv_draw_line.c **** 
 1050              		.loc 1 492 0
 1051 0562 5346     		mov	r3, r10
 1052 0564 4146     		mov	r1, r8
 1053 0566 2846     		mov	r0, r5
 489:..\..\..\lvgl\version_6.1.2\lvgl\src\lv_draw/lv_draw_line.c ****             draw_area.x2 = draw_area.x1 + main_line->p_act.x - prev_p.x;
 1054              		.loc 1 489 0
 1055 0568 ADF86AE0 		strh	lr, [sp, #106]	@ movhi
 491:..\..\..\lvgl\version_6.1.2\lvgl\src\lv_draw/lv_draw_line.c ****             lv_draw_fill(&draw_area, mask, style->line.color, opa);
 1056              		.loc 1 491 0
 1057 056c ADF86EE0 		strh	lr, [sp, #110]	@ movhi
 492:..\..\..\lvgl\version_6.1.2\lvgl\src\lv_draw/lv_draw_line.c **** 
 1058              		.loc 1 492 0
 1059 0570 FFF7FEFF 		bl	lv_draw_fill
 1060              	.LVL106:
 497:..\..\..\lvgl\version_6.1.2\lvgl\src\lv_draw/lv_draw_line.c ****             }
 1061              		.loc 1 497 0
 1062 0574 4246     		mov	r2, r8
 496:..\..\..\lvgl\version_6.1.2\lvgl\src\lv_draw/lv_draw_line.c ****                 lv_draw_px(draw_area.x1, draw_area.y1 - main_line->sy, mask, style->line.color, opa
 1063              		.loc 1 496 0
 1064 0576 9CB1     		cbz	r4, .L65
 1065 0578 37F9061C 		ldrsh	r1, [r7, #-6]
 1066 057c 37F9023C 		ldrsh	r3, [r7, #-2]
 1067 0580 9942     		cmp	r1, r3
ARM GAS  C:\Users\pearlstl\AppData\Local\Temp\ccuP9Sbb.s 			page 34


 1068 0582 0DD0     		beq	.L65
 497:..\..\..\lvgl\version_6.1.2\lvgl\src\lv_draw/lv_draw_line.c ****             }
 1069              		.loc 1 497 0
 1070 0584 069B     		ldr	r3, [sp, #24]
 1071 0586 BDF86A10 		ldrh	r1, [sp, #106]
 1072 058a D9F800E0 		ldr	lr, [r9]
 1073 058e BDF96800 		ldrsh	r0, [sp, #104]
 1074 0592 CDF800A0 		str	r10, [sp]
 1075 0596 C91A     		subs	r1, r1, r3
 1076 0598 09B2     		sxth	r1, r1
 1077 059a 7346     		mov	r3, lr
 1078 059c FFF7FEFF 		bl	lv_draw_px
 1079              	.LVL107:
 1080              	.L65:
 1081 05a0 0134     		adds	r4, r4, #1
 1082              	.LVL108:
 487:..\..\..\lvgl\version_6.1.2\lvgl\src\lv_draw/lv_draw_line.c ****             draw_area.x1 = prev_p.x + pattern[i].x;
 1083              		.loc 1 487 0
 1084 05a2 23B2     		sxth	r3, r4
 1085 05a4 9B45     		cmp	fp, r3
 1086 05a6 07F10407 		add	r7, r7, #4
 1087 05aa C3DC     		bgt	.L66
 1088 05ac 40E5     		b	.L1
 1089              	.LVL109:
 1090              	.L42:
 315:..\..\..\lvgl\version_6.1.2\lvgl\src\lv_draw/lv_draw_line.c ****     }
 1091              		.loc 1 315 0
 1092 05ae 079B     		ldr	r3, [sp, #28]
 1093              	.LVL110:
 1094 05b0 B342     		cmp	r3, r6
 1095 05b2 3FF799AE 		bgt	.L43
 1096 05b6 0A9A     		ldr	r2, [sp, #40]
 449:..\..\..\lvgl\version_6.1.2\lvgl\src\lv_draw/lv_draw_line.c ****     prev_p.y = main_line->p1.y;
 1097              		.loc 1 449 0
 1098 05b8 ADF86460 		strh	r6, [sp, #100]	@ movhi
 315:..\..\..\lvgl\version_6.1.2\lvgl\src\lv_draw/lv_draw_line.c ****     }
 1099              		.loc 1 315 0
 1100 05bc 1388     		ldrh	r3, [r2]
 450:..\..\..\lvgl\version_6.1.2\lvgl\src\lv_draw/lv_draw_line.c ****     lv_area_t draw_area;
 1101              		.loc 1 450 0
 1102 05be ADF86650 		strh	r5, [sp, #102]	@ movhi
 315:..\..\..\lvgl\version_6.1.2\lvgl\src\lv_draw/lv_draw_line.c ****     }
 1103              		.loc 1 315 0
 1104 05c2 013B     		subs	r3, r3, #1
 1105 05c4 1380     		strh	r3, [r2]	@ movhi
 1106              	.LVL111:
 450:..\..\..\lvgl\version_6.1.2\lvgl\src\lv_draw/lv_draw_line.c ****     lv_area_t draw_area;
 1107              		.loc 1 450 0
 1108 05c6 0023     		movs	r3, #0
 1109 05c8 0993     		str	r3, [sp, #36]
 1110              	.LVL112:
 1111              	.L44:
 1112 05ca 099B     		ldr	r3, [sp, #36]
 1113 05cc 0A9A     		ldr	r2, [sp, #40]
 1114 05ce 0E9C     		ldr	r4, [sp, #56]
 1115              	.LVL113:
 1116 05d0 013B     		subs	r3, r3, #1
ARM GAS  C:\Users\pearlstl\AppData\Local\Temp\ccuP9Sbb.s 			page 35


 1117 05d2 9BB2     		uxth	r3, r3
 1118 05d4 0133     		adds	r3, r3, #1
 1119 05d6 02EB8303 		add	r3, r2, r3, lsl #2
 1120 05da 1193     		str	r3, [sp, #68]
 1121 05dc 079B     		ldr	r3, [sp, #28]
 1122 05de B342     		cmp	r3, r6
 1123 05e0 C9F10009 		rsb	r9, r9, #0
 487:..\..\..\lvgl\version_6.1.2\lvgl\src\lv_draw/lv_draw_line.c ****             draw_area.x1 = prev_p.x + pattern[i].x;
 1124              		.loc 1 487 0
 1125 05e4 4FF00102 		mov	r2, #1
 1126              	.LVL114:
 1127 05e8 5BD0     		beq	.L177
 1128              	.L70:
 1129              	.LBB93:
 1130              	.LBB94:
 1131              	.LBB95:
 1132              	.LBB96:
 598:..\..\..\lvgl\version_6.1.2\lvgl\src\lv_draw/lv_draw_line.c ****     }
 1133              		.loc 1 598 0
 1134 05ea 0D9B     		ldr	r3, [sp, #52]
 1135 05ec 9819     		adds	r0, r3, r6
 1136 05ee 00B2     		sxth	r0, r0
 1137              	.LVL115:
 1138              	.L72:
 597:..\..\..\lvgl\version_6.1.2\lvgl\src\lv_draw/lv_draw_line.c ****         line->p_act.x += line->sx;
 1139              		.loc 1 597 0
 1140 05f0 CAEB0403 		rsb	r3, r10, r4
 596:..\..\..\lvgl\version_6.1.2\lvgl\src\lv_draw/lv_draw_line.c ****         line->err -= line->dy;
 1141              		.loc 1 596 0
 1142 05f4 A145     		cmp	r9, r4
 597:..\..\..\lvgl\version_6.1.2\lvgl\src\lv_draw/lv_draw_line.c ****         line->p_act.x += line->sx;
 1143              		.loc 1 597 0
 1144 05f6 1BB2     		sxth	r3, r3
 1145              	.LVL116:
 598:..\..\..\lvgl\version_6.1.2\lvgl\src\lv_draw/lv_draw_line.c ****     }
 1146              		.loc 1 598 0
 1147 05f8 0146     		mov	r1, r0
 1148              	.LVL117:
 596:..\..\..\lvgl\version_6.1.2\lvgl\src\lv_draw/lv_draw_line.c ****         line->err -= line->dy;
 1149              		.loc 1 596 0
 1150 05fa 6BDA     		bge	.L73
 600:..\..\..\lvgl\version_6.1.2\lvgl\src\lv_draw/lv_draw_line.c ****         line->err += line->dx;
 1151              		.loc 1 600 0
 1152 05fc 5C45     		cmp	r4, fp
 597:..\..\..\lvgl\version_6.1.2\lvgl\src\lv_draw/lv_draw_line.c ****         line->p_act.x += line->sx;
 1153              		.loc 1 597 0
 1154 05fe 1C46     		mov	r4, r3
 600:..\..\..\lvgl\version_6.1.2\lvgl\src\lv_draw/lv_draw_line.c ****         line->err += line->dx;
 1155              		.loc 1 600 0
 1156 0600 05DA     		bge	.L74
 1157              	.L95:
 601:..\..\..\lvgl\version_6.1.2\lvgl\src\lv_draw/lv_draw_line.c ****         line->p_act.y += line->sy;
 1158              		.loc 1 601 0
 1159 0602 039B     		ldr	r3, [sp, #12]
 1160              	.LVL118:
 1161 0604 1C44     		add	r4, r4, r3
 602:..\..\..\lvgl\version_6.1.2\lvgl\src\lv_draw/lv_draw_line.c ****     }
ARM GAS  C:\Users\pearlstl\AppData\Local\Temp\ccuP9Sbb.s 			page 36


 1162              		.loc 1 602 0
 1163 0606 069B     		ldr	r3, [sp, #24]
 1164 0608 1D44     		add	r5, r5, r3
 1165              	.LVL119:
 601:..\..\..\lvgl\version_6.1.2\lvgl\src\lv_draw/lv_draw_line.c ****         line->p_act.y += line->sy;
 1166              		.loc 1 601 0
 1167 060a 24B2     		sxth	r4, r4
 1168              	.LVL120:
 602:..\..\..\lvgl\version_6.1.2\lvgl\src\lv_draw/lv_draw_line.c ****     }
 1169              		.loc 1 602 0
 1170 060c 2DB2     		sxth	r5, r5
 1171              	.LVL121:
 1172              	.L74:
 1173              	.LBE96:
 1174              	.LBE95:
 619:..\..\..\lvgl\version_6.1.2\lvgl\src\lv_draw/lv_draw_line.c **** 
 620:..\..\..\lvgl\version_6.1.2\lvgl\src\lv_draw/lv_draw_line.c ****     return true;
 621:..\..\..\lvgl\version_6.1.2\lvgl\src\lv_draw/lv_draw_line.c **** }
 622:..\..\..\lvgl\version_6.1.2\lvgl\src\lv_draw/lv_draw_line.c **** 
 623:..\..\..\lvgl\version_6.1.2\lvgl\src\lv_draw/lv_draw_line.c **** /**
 624:..\..\..\lvgl\version_6.1.2\lvgl\src\lv_draw/lv_draw_line.c ****  * Iterate until step one in x direction.
 625:..\..\..\lvgl\version_6.1.2\lvgl\src\lv_draw/lv_draw_line.c ****  * @param line
 626:..\..\..\lvgl\version_6.1.2\lvgl\src\lv_draw/lv_draw_line.c ****  * @return
 627:..\..\..\lvgl\version_6.1.2\lvgl\src\lv_draw/lv_draw_line.c ****  */
 628:..\..\..\lvgl\version_6.1.2\lvgl\src\lv_draw/lv_draw_line.c **** static bool line_next_x(line_draw_t * line)
 629:..\..\..\lvgl\version_6.1.2\lvgl\src\lv_draw/lv_draw_line.c **** {
 630:..\..\..\lvgl\version_6.1.2\lvgl\src\lv_draw/lv_draw_line.c ****     lv_coord_t last_x = line->p_act.x;
 631:..\..\..\lvgl\version_6.1.2\lvgl\src\lv_draw/lv_draw_line.c **** 
 632:..\..\..\lvgl\version_6.1.2\lvgl\src\lv_draw/lv_draw_line.c ****     do {
 633:..\..\..\lvgl\version_6.1.2\lvgl\src\lv_draw/lv_draw_line.c ****         if(!line_next(line)) return false;
 634:..\..\..\lvgl\version_6.1.2\lvgl\src\lv_draw/lv_draw_line.c ****     } while(last_x == line->p_act.x);
 1175              		.loc 1 634 0
 1176 060e B142     		cmp	r1, r6
 1177 0610 EED0     		beq	.L72
 1178 0612 0E46     		mov	r6, r1
 1179              	.LVL122:
 1180              	.L76:
 1181              	.LBE94:
 1182              	.LBE93:
 514:..\..\..\lvgl\version_6.1.2\lvgl\src\lv_draw/lv_draw_line.c ****                 draw_area.x1 = prev_p.x + pattern[i].x;
 1183              		.loc 1 514 0
 1184 0614 099B     		ldr	r3, [sp, #36]
 1185 0616 002B     		cmp	r3, #0
 1186 0618 3ADD     		ble	.L81
 1187 061a ABB2     		uxth	r3, r5
 1188 061c 1946     		mov	r1, r3
 1189 061e 002A     		cmp	r2, #0
 1190 0620 00F09380 		beq	.L82
 1191 0624 1AAA     		add	r2, sp, #104
 1192              	.LVL123:
 1193 0626 0494     		str	r4, [sp, #16]
 1194 0628 0595     		str	r5, [sp, #20]
 1195 062a 1096     		str	r6, [sp, #64]
 1196 062c 0A9F     		ldr	r7, [sp, #40]
 1197 062e 0C9C     		ldr	r4, [sp, #48]
 1198              	.LVL124:
 1199 0630 0B9D     		ldr	r5, [sp, #44]
ARM GAS  C:\Users\pearlstl\AppData\Local\Temp\ccuP9Sbb.s 			page 37


 1200              	.LVL125:
 1201 0632 119E     		ldr	r6, [sp, #68]
 1202 0634 CDF838B0 		str	fp, [sp, #56]
 1203 0638 CDF83CA0 		str	r10, [sp, #60]
 1204 063c 9346     		mov	fp, r2
 1205 063e 9A46     		mov	r10, r3
 1206              	.LVL126:
 1207              	.L69:
 515:..\..\..\lvgl\version_6.1.2\lvgl\src\lv_draw/lv_draw_line.c ****                 draw_area.y1 = prev_p.y + pattern[i].y;
 1208              		.loc 1 515 0
 1209 0640 3888     		ldrh	r0, [r7]
 1210 0642 BDF86430 		ldrh	r3, [sp, #100]
 516:..\..\..\lvgl\version_6.1.2\lvgl\src\lv_draw/lv_draw_line.c ****                 draw_area.x2 = draw_area.x1;
 1211              		.loc 1 516 0
 1212 0646 BDF86610 		ldrh	r1, [sp, #102]
 518:..\..\..\lvgl\version_6.1.2\lvgl\src\lv_draw/lv_draw_line.c **** 
 1213              		.loc 1 518 0
 1214 064a BDF866E0 		ldrh	lr, [sp, #102]
 520:..\..\..\lvgl\version_6.1.2\lvgl\src\lv_draw/lv_draw_line.c **** 
 1215              		.loc 1 520 0
 1216 064e 2268     		ldr	r2, [r4]
 515:..\..\..\lvgl\version_6.1.2\lvgl\src\lv_draw/lv_draw_line.c ****                 draw_area.y1 = prev_p.y + pattern[i].y;
 1217              		.loc 1 515 0
 1218 0650 0344     		add	r3, r3, r0
 1219 0652 1BB2     		sxth	r3, r3
 1220 0654 ADF86830 		strh	r3, [sp, #104]	@ movhi
 516:..\..\..\lvgl\version_6.1.2\lvgl\src\lv_draw/lv_draw_line.c ****                 draw_area.x2 = draw_area.x1;
 1221              		.loc 1 516 0
 1222 0658 7888     		ldrh	r0, [r7, #2]
 517:..\..\..\lvgl\version_6.1.2\lvgl\src\lv_draw/lv_draw_line.c ****                 draw_area.y2 = draw_area.y1 + main_line->p_act.y - prev_p.y - 1;
 1223              		.loc 1 517 0
 1224 065a ADF86C30 		strh	r3, [sp, #108]	@ movhi
 516:..\..\..\lvgl\version_6.1.2\lvgl\src\lv_draw/lv_draw_line.c ****                 draw_area.x2 = draw_area.x1;
 1225              		.loc 1 516 0
 1226 065e 0844     		add	r0, r0, r1
 518:..\..\..\lvgl\version_6.1.2\lvgl\src\lv_draw/lv_draw_line.c **** 
 1227              		.loc 1 518 0
 1228 0660 6FEA0E0E 		mvn	lr, lr
 516:..\..\..\lvgl\version_6.1.2\lvgl\src\lv_draw/lv_draw_line.c ****                 draw_area.x2 = draw_area.x1;
 1229              		.loc 1 516 0
 1230 0664 80B2     		uxth	r0, r0
 518:..\..\..\lvgl\version_6.1.2\lvgl\src\lv_draw/lv_draw_line.c **** 
 1231              		.loc 1 518 0
 1232 0666 D644     		add	lr, lr, r10
 1233 0668 8644     		add	lr, lr, r0
 516:..\..\..\lvgl\version_6.1.2\lvgl\src\lv_draw/lv_draw_line.c ****                 draw_area.x2 = draw_area.x1;
 1234              		.loc 1 516 0
 1235 066a ADF86A00 		strh	r0, [sp, #106]	@ movhi
 1236 066e 0437     		adds	r7, r7, #4
 520:..\..\..\lvgl\version_6.1.2\lvgl\src\lv_draw/lv_draw_line.c **** 
 1237              		.loc 1 520 0
 1238 0670 2B46     		mov	r3, r5
 1239 0672 4146     		mov	r1, r8
 1240 0674 5846     		mov	r0, fp
 518:..\..\..\lvgl\version_6.1.2\lvgl\src\lv_draw/lv_draw_line.c **** 
 1241              		.loc 1 518 0
 1242 0676 ADF86EE0 		strh	lr, [sp, #110]	@ movhi
ARM GAS  C:\Users\pearlstl\AppData\Local\Temp\ccuP9Sbb.s 			page 38


 520:..\..\..\lvgl\version_6.1.2\lvgl\src\lv_draw/lv_draw_line.c **** 
 1243              		.loc 1 520 0
 1244 067a FFF7FEFF 		bl	lv_draw_fill
 1245              	.LVL127:
 514:..\..\..\lvgl\version_6.1.2\lvgl\src\lv_draw/lv_draw_line.c ****                 draw_area.x1 = prev_p.x + pattern[i].x;
 1246              		.loc 1 514 0
 1247 067e B742     		cmp	r7, r6
 1248 0680 DED1     		bne	.L69
 1249 0682 049C     		ldr	r4, [sp, #16]
 1250 0684 059D     		ldr	r5, [sp, #20]
 1251 0686 DDF838B0 		ldr	fp, [sp, #56]
 1252 068a DDF83CA0 		ldr	r10, [sp, #60]
 1253              	.LVL128:
 1254 068e 109E     		ldr	r6, [sp, #64]
 1255              	.L81:
 1256              	.LVL129:
 1257 0690 079B     		ldr	r3, [sp, #28]
 542:..\..\..\lvgl\version_6.1.2\lvgl\src\lv_draw/lv_draw_line.c ****             prev_p.y = main_line->p_act.y;
 1258              		.loc 1 542 0
 1259 0692 ADF86460 		strh	r6, [sp, #100]	@ movhi
 1260 0696 B342     		cmp	r3, r6
 540:..\..\..\lvgl\version_6.1.2\lvgl\src\lv_draw/lv_draw_line.c **** 
 1261              		.loc 1 540 0
 1262 0698 4FF00002 		mov	r2, #0
 543:..\..\..\lvgl\version_6.1.2\lvgl\src\lv_draw/lv_draw_line.c ****         }
 1263              		.loc 1 543 0
 1264 069c ADF86650 		strh	r5, [sp, #102]	@ movhi
 1265              	.LVL130:
 1266 06a0 A3D1     		bne	.L70
 1267              	.L177:
 1268 06a2 1946     		mov	r1, r3
 1269              	.LBB105:
 1270              	.LBB103:
 1271              	.LBB100:
 1272              	.LBB97:
 598:..\..\..\lvgl\version_6.1.2\lvgl\src\lv_draw/lv_draw_line.c ****     }
 1273              		.loc 1 598 0
 1274 06a4 0D9B     		ldr	r3, [sp, #52]
 1275 06a6 5818     		adds	r0, r3, r1
 1276 06a8 00B2     		sxth	r0, r0
 1277              	.LVL131:
 1278              	.L71:
 594:..\..\..\lvgl\version_6.1.2\lvgl\src\lv_draw/lv_draw_line.c ****     line->e2 = line->err;
 1279              		.loc 1 594 0
 1280 06aa 0899     		ldr	r1, [sp, #32]
 1281 06ac A942     		cmp	r1, r5
 602:..\..\..\lvgl\version_6.1.2\lvgl\src\lv_draw/lv_draw_line.c ****     }
 1282              		.loc 1 602 0
 1283 06ae 0699     		ldr	r1, [sp, #24]
 597:..\..\..\lvgl\version_6.1.2\lvgl\src\lv_draw/lv_draw_line.c ****         line->p_act.x += line->sx;
 1284              		.loc 1 597 0
 1285 06b0 CAEB0403 		rsb	r3, r10, r4
 602:..\..\..\lvgl\version_6.1.2\lvgl\src\lv_draw/lv_draw_line.c ****     }
 1286              		.loc 1 602 0
 1287 06b4 2944     		add	r1, r1, r5
 597:..\..\..\lvgl\version_6.1.2\lvgl\src\lv_draw/lv_draw_line.c ****         line->p_act.x += line->sx;
 1288              		.loc 1 597 0
ARM GAS  C:\Users\pearlstl\AppData\Local\Temp\ccuP9Sbb.s 			page 39


 1289 06b6 1BB2     		sxth	r3, r3
 1290              	.LVL132:
 598:..\..\..\lvgl\version_6.1.2\lvgl\src\lv_draw/lv_draw_line.c ****     }
 1291              		.loc 1 598 0
 1292 06b8 0746     		mov	r7, r0
 1293              	.LVL133:
 594:..\..\..\lvgl\version_6.1.2\lvgl\src\lv_draw/lv_draw_line.c ****     line->e2 = line->err;
 1294              		.loc 1 594 0
 1295 06ba 14D0     		beq	.L178
 596:..\..\..\lvgl\version_6.1.2\lvgl\src\lv_draw/lv_draw_line.c ****         line->err -= line->dy;
 1296              		.loc 1 596 0
 1297 06bc 4C45     		cmp	r4, r9
 1298 06be 0DDD     		ble	.L79
 600:..\..\..\lvgl\version_6.1.2\lvgl\src\lv_draw/lv_draw_line.c ****         line->err += line->dx;
 1299              		.loc 1 600 0
 1300 06c0 A345     		cmp	fp, r4
 1301 06c2 40DD     		ble	.L179
 1302              	.LVL134:
 1303              	.L96:
 601:..\..\..\lvgl\version_6.1.2\lvgl\src\lv_draw/lv_draw_line.c ****         line->p_act.y += line->sy;
 1304              		.loc 1 601 0
 1305 06c4 039C     		ldr	r4, [sp, #12]
 1306              	.LVL135:
 1307 06c6 2344     		add	r3, r3, r4
 1308 06c8 1CB2     		sxth	r4, r3
 1309              	.LVL136:
 602:..\..\..\lvgl\version_6.1.2\lvgl\src\lv_draw/lv_draw_line.c ****     }
 1310              		.loc 1 602 0
 1311 06ca 0DB2     		sxth	r5, r1
 1312              	.LVL137:
 1313              	.L80:
 1314              	.LBE97:
 1315              	.LBE100:
 1316              		.loc 1 634 0
 1317 06cc BE42     		cmp	r6, r7
 1318 06ce ECD0     		beq	.L71
 1319 06d0 3E46     		mov	r6, r7
 1320              	.LVL138:
 1321 06d2 9FE7     		b	.L76
 1322              	.LVL139:
 1323              	.L73:
 1324              	.LBB101:
 1325              	.LBB98:
 600:..\..\..\lvgl\version_6.1.2\lvgl\src\lv_draw/lv_draw_line.c ****         line->err += line->dx;
 1326              		.loc 1 600 0
 1327 06d4 5C45     		cmp	r4, fp
 1328 06d6 8BDA     		bge	.L72
 1329 06d8 3146     		mov	r1, r6
 1330 06da 92E7     		b	.L95
 1331              	.L79:
 1332 06dc A345     		cmp	fp, r4
 1333 06de E4DD     		ble	.L71
 1334 06e0 2346     		mov	r3, r4
 1335              	.LVL140:
 1336 06e2 079F     		ldr	r7, [sp, #28]
 1337 06e4 EEE7     		b	.L96
 1338              	.LVL141:
ARM GAS  C:\Users\pearlstl\AppData\Local\Temp\ccuP9Sbb.s 			page 40


 1339              	.L178:
 1340              	.LBE98:
 1341              	.LBE101:
 1342              	.LBE103:
 1343              	.LBE105:
 547:..\..\..\lvgl\version_6.1.2\lvgl\src\lv_draw/lv_draw_line.c ****             draw_area.x1 = prev_p.x + pattern[i].x;
 1344              		.loc 1 547 0
 1345 06e6 099B     		ldr	r3, [sp, #36]
 1346              	.LVL142:
 1347 06e8 002B     		cmp	r3, #0
 1348 06ea 7FF7A1AC 		ble	.L1
 1349 06ee BDF82060 		ldrh	r6, [sp, #32]
 1350              	.LVL143:
 1351 06f2 002A     		cmp	r2, #0
 1352 06f4 7FD0     		beq	.L180
 1353 06f6 0A9F     		ldr	r7, [sp, #40]
 1354 06f8 0C9C     		ldr	r4, [sp, #48]
 1355              	.LVL144:
 1356 06fa DDF82C90 		ldr	r9, [sp, #44]
 1357 06fe DDF844A0 		ldr	r10, [sp, #68]
 1358 0702 1AAD     		add	r5, sp, #104
 1359              	.LVL145:
 1360              	.L88:
 548:..\..\..\lvgl\version_6.1.2\lvgl\src\lv_draw/lv_draw_line.c ****             draw_area.y1 = prev_p.y + pattern[i].y;
 1361              		.loc 1 548 0
 1362 0704 3888     		ldrh	r0, [r7]
 1363 0706 BDF86410 		ldrh	r1, [sp, #100]
 549:..\..\..\lvgl\version_6.1.2\lvgl\src\lv_draw/lv_draw_line.c ****             draw_area.x2 = draw_area.x1;
 1364              		.loc 1 549 0
 1365 070a BDF86630 		ldrh	r3, [sp, #102]
 551:..\..\..\lvgl\version_6.1.2\lvgl\src\lv_draw/lv_draw_line.c **** 
 1366              		.loc 1 551 0
 1367 070e BDF866E0 		ldrh	lr, [sp, #102]
 553:..\..\..\lvgl\version_6.1.2\lvgl\src\lv_draw/lv_draw_line.c **** 
 1368              		.loc 1 553 0
 1369 0712 2268     		ldr	r2, [r4]
 548:..\..\..\lvgl\version_6.1.2\lvgl\src\lv_draw/lv_draw_line.c ****             draw_area.y1 = prev_p.y + pattern[i].y;
 1370              		.loc 1 548 0
 1371 0714 0144     		add	r1, r1, r0
 1372 0716 09B2     		sxth	r1, r1
 1373 0718 ADF86810 		strh	r1, [sp, #104]	@ movhi
 549:..\..\..\lvgl\version_6.1.2\lvgl\src\lv_draw/lv_draw_line.c ****             draw_area.x2 = draw_area.x1;
 1374              		.loc 1 549 0
 1375 071c 7888     		ldrh	r0, [r7, #2]
 550:..\..\..\lvgl\version_6.1.2\lvgl\src\lv_draw/lv_draw_line.c ****             draw_area.y2 = draw_area.y1 + main_line->p_act.y - prev_p.y;
 1376              		.loc 1 550 0
 1377 071e ADF86C10 		strh	r1, [sp, #108]	@ movhi
 549:..\..\..\lvgl\version_6.1.2\lvgl\src\lv_draw/lv_draw_line.c ****             draw_area.x2 = draw_area.x1;
 1378              		.loc 1 549 0
 1379 0722 1844     		add	r0, r0, r3
 1380 0724 80B2     		uxth	r0, r0
 551:..\..\..\lvgl\version_6.1.2\lvgl\src\lv_draw/lv_draw_line.c **** 
 1381              		.loc 1 551 0
 1382 0726 CEEB060E 		rsb	lr, lr, r6
 1383 072a 8644     		add	lr, lr, r0
 549:..\..\..\lvgl\version_6.1.2\lvgl\src\lv_draw/lv_draw_line.c ****             draw_area.x2 = draw_area.x1;
 1384              		.loc 1 549 0
ARM GAS  C:\Users\pearlstl\AppData\Local\Temp\ccuP9Sbb.s 			page 41


 1385 072c ADF86A00 		strh	r0, [sp, #106]	@ movhi
 1386 0730 0437     		adds	r7, r7, #4
 553:..\..\..\lvgl\version_6.1.2\lvgl\src\lv_draw/lv_draw_line.c **** 
 1387              		.loc 1 553 0
 1388 0732 4B46     		mov	r3, r9
 1389 0734 4146     		mov	r1, r8
 1390 0736 2846     		mov	r0, r5
 551:..\..\..\lvgl\version_6.1.2\lvgl\src\lv_draw/lv_draw_line.c **** 
 1391              		.loc 1 551 0
 1392 0738 ADF86EE0 		strh	lr, [sp, #110]	@ movhi
 553:..\..\..\lvgl\version_6.1.2\lvgl\src\lv_draw/lv_draw_line.c **** 
 1393              		.loc 1 553 0
 1394 073c FFF7FEFF 		bl	lv_draw_fill
 1395              	.LVL146:
 547:..\..\..\lvgl\version_6.1.2\lvgl\src\lv_draw/lv_draw_line.c ****             draw_area.x1 = prev_p.x + pattern[i].x;
 1396              		.loc 1 547 0
 1397 0740 BA45     		cmp	r10, r7
 1398 0742 DFD1     		bne	.L88
 1399 0744 74E4     		b	.L1
 1400              	.LVL147:
 1401              	.L179:
 1402              	.LBB106:
 1403              	.LBB104:
 1404              	.LBB102:
 1405              	.LBB99:
 597:..\..\..\lvgl\version_6.1.2\lvgl\src\lv_draw/lv_draw_line.c ****         line->p_act.x += line->sx;
 1406              		.loc 1 597 0
 1407 0746 1C46     		mov	r4, r3
 1408 0748 C0E7     		b	.L80
 1409              	.LVL148:
 1410              	.L82:
 1411 074a 0A9B     		ldr	r3, [sp, #40]
 1412 074c 0595     		str	r5, [sp, #20]
 1413 074e 9F1E     		subs	r7, r3, #2
 1414 0750 1096     		str	r6, [sp, #64]
 1415 0752 1AAB     		add	r3, sp, #104
 1416 0754 CDF84890 		str	r9, [sp, #72]
 1417 0758 0C9D     		ldr	r5, [sp, #48]
 1418              	.LVL149:
 1419 075a 0B9E     		ldr	r6, [sp, #44]
 1420 075c DDF82490 		ldr	r9, [sp, #36]
 1421 0760 0494     		str	r4, [sp, #16]
 1422 0762 CDF838B0 		str	fp, [sp, #56]
 1423 0766 CDF83CA0 		str	r10, [sp, #60]
 1424 076a 1446     		mov	r4, r2
 1425              	.LVL150:
 1426 076c 8A46     		mov	r10, r1
 1427 076e 9B46     		mov	fp, r3
 1428              	.LVL151:
 1429              	.L84:
 1430              	.LBE99:
 1431              	.LBE102:
 1432              	.LBE104:
 1433              	.LBE106:
 515:..\..\..\lvgl\version_6.1.2\lvgl\src\lv_draw/lv_draw_line.c ****                 draw_area.y1 = prev_p.y + pattern[i].y;
 1434              		.loc 1 515 0
 1435 0770 7888     		ldrh	r0, [r7, #2]
ARM GAS  C:\Users\pearlstl\AppData\Local\Temp\ccuP9Sbb.s 			page 42


 1436 0772 BDF86430 		ldrh	r3, [sp, #100]
 516:..\..\..\lvgl\version_6.1.2\lvgl\src\lv_draw/lv_draw_line.c ****                 draw_area.x2 = draw_area.x1;
 1437              		.loc 1 516 0
 1438 0776 BDF86610 		ldrh	r1, [sp, #102]
 518:..\..\..\lvgl\version_6.1.2\lvgl\src\lv_draw/lv_draw_line.c **** 
 1439              		.loc 1 518 0
 1440 077a BDF866E0 		ldrh	lr, [sp, #102]
 520:..\..\..\lvgl\version_6.1.2\lvgl\src\lv_draw/lv_draw_line.c **** 
 1441              		.loc 1 520 0
 1442 077e 2A68     		ldr	r2, [r5]
 515:..\..\..\lvgl\version_6.1.2\lvgl\src\lv_draw/lv_draw_line.c ****                 draw_area.y1 = prev_p.y + pattern[i].y;
 1443              		.loc 1 515 0
 1444 0780 0344     		add	r3, r3, r0
 1445 0782 1BB2     		sxth	r3, r3
 1446 0784 ADF86830 		strh	r3, [sp, #104]	@ movhi
 516:..\..\..\lvgl\version_6.1.2\lvgl\src\lv_draw/lv_draw_line.c ****                 draw_area.x2 = draw_area.x1;
 1447              		.loc 1 516 0
 1448 0788 B888     		ldrh	r0, [r7, #4]
 517:..\..\..\lvgl\version_6.1.2\lvgl\src\lv_draw/lv_draw_line.c ****                 draw_area.y2 = draw_area.y1 + main_line->p_act.y - prev_p.y - 1;
 1449              		.loc 1 517 0
 1450 078a ADF86C30 		strh	r3, [sp, #108]	@ movhi
 516:..\..\..\lvgl\version_6.1.2\lvgl\src\lv_draw/lv_draw_line.c ****                 draw_area.x2 = draw_area.x1;
 1451              		.loc 1 516 0
 1452 078e 0844     		add	r0, r0, r1
 518:..\..\..\lvgl\version_6.1.2\lvgl\src\lv_draw/lv_draw_line.c **** 
 1453              		.loc 1 518 0
 1454 0790 6FEA0E0E 		mvn	lr, lr
 516:..\..\..\lvgl\version_6.1.2\lvgl\src\lv_draw/lv_draw_line.c ****                 draw_area.x2 = draw_area.x1;
 1455              		.loc 1 516 0
 1456 0794 80B2     		uxth	r0, r0
 518:..\..\..\lvgl\version_6.1.2\lvgl\src\lv_draw/lv_draw_line.c **** 
 1457              		.loc 1 518 0
 1458 0796 D644     		add	lr, lr, r10
 1459 0798 8644     		add	lr, lr, r0
 516:..\..\..\lvgl\version_6.1.2\lvgl\src\lv_draw/lv_draw_line.c ****                 draw_area.x2 = draw_area.x1;
 1460              		.loc 1 516 0
 1461 079a ADF86A00 		strh	r0, [sp, #106]	@ movhi
 520:..\..\..\lvgl\version_6.1.2\lvgl\src\lv_draw/lv_draw_line.c **** 
 1462              		.loc 1 520 0
 1463 079e 3346     		mov	r3, r6
 1464 07a0 4146     		mov	r1, r8
 1465 07a2 5846     		mov	r0, fp
 518:..\..\..\lvgl\version_6.1.2\lvgl\src\lv_draw/lv_draw_line.c **** 
 1466              		.loc 1 518 0
 1467 07a4 ADF86EE0 		strh	lr, [sp, #110]	@ movhi
 520:..\..\..\lvgl\version_6.1.2\lvgl\src\lv_draw/lv_draw_line.c **** 
 1468              		.loc 1 520 0
 1469 07a8 FFF7FEFF 		bl	lv_draw_fill
 1470              	.LVL152:
 526:..\..\..\lvgl\version_6.1.2\lvgl\src\lv_draw/lv_draw_line.c ****                 }
 1471              		.loc 1 526 0
 1472 07ac 4246     		mov	r2, r8
 525:..\..\..\lvgl\version_6.1.2\lvgl\src\lv_draw/lv_draw_line.c ****                     lv_draw_px(draw_area.x1 - main_line->sx, draw_area.y1, mask, style->line.color,
 1473              		.loc 1 525 0
 1474 07ae 94B1     		cbz	r4, .L83
 1475 07b0 B7F90010 		ldrsh	r1, [r7]
 1476 07b4 B7F90430 		ldrsh	r3, [r7, #4]
ARM GAS  C:\Users\pearlstl\AppData\Local\Temp\ccuP9Sbb.s 			page 43


 1477 07b8 9942     		cmp	r1, r3
 1478 07ba 0CD0     		beq	.L83
 526:..\..\..\lvgl\version_6.1.2\lvgl\src\lv_draw/lv_draw_line.c ****                 }
 1479              		.loc 1 526 0
 1480 07bc 0D9B     		ldr	r3, [sp, #52]
 1481 07be BDF86800 		ldrh	r0, [sp, #104]
 1482 07c2 D5F800E0 		ldr	lr, [r5]
 1483 07c6 BDF96A10 		ldrsh	r1, [sp, #106]
 1484 07ca 0096     		str	r6, [sp]
 1485 07cc C01A     		subs	r0, r0, r3
 1486 07ce 00B2     		sxth	r0, r0
 1487 07d0 7346     		mov	r3, lr
 1488 07d2 FFF7FEFF 		bl	lv_draw_px
 1489              	.LVL153:
 1490              	.L83:
 1491 07d6 0134     		adds	r4, r4, #1
 1492              	.LVL154:
 514:..\..\..\lvgl\version_6.1.2\lvgl\src\lv_draw/lv_draw_line.c ****                 draw_area.x1 = prev_p.x + pattern[i].x;
 1493              		.loc 1 514 0
 1494 07d8 23B2     		sxth	r3, r4
 1495 07da 4B45     		cmp	r3, r9
 1496 07dc 07F10407 		add	r7, r7, #4
 1497 07e0 C6DB     		blt	.L84
 1498 07e2 049C     		ldr	r4, [sp, #16]
 1499 07e4 059D     		ldr	r5, [sp, #20]
 1500 07e6 DDF838B0 		ldr	fp, [sp, #56]
 1501 07ea DDF83CA0 		ldr	r10, [sp, #60]
 1502              	.LVL155:
 1503 07ee 109E     		ldr	r6, [sp, #64]
 1504 07f0 DDF84890 		ldr	r9, [sp, #72]
 1505 07f4 4CE7     		b	.L81
 1506              	.LVL156:
 1507              	.L180:
 1508 07f6 9B46     		mov	fp, r3
 1509 07f8 0A9B     		ldr	r3, [sp, #40]
 1510 07fa DDF83090 		ldr	r9, [sp, #48]
 1511 07fe DDF82CA0 		ldr	r10, [sp, #44]
 1512              	.LVL157:
 1513 0802 9F1E     		subs	r7, r3, #2
 547:..\..\..\lvgl\version_6.1.2\lvgl\src\lv_draw/lv_draw_line.c ****             draw_area.x1 = prev_p.x + pattern[i].x;
 1514              		.loc 1 547 0
 1515 0804 1446     		mov	r4, r2
 1516 0806 1AAD     		add	r5, sp, #104
 1517              	.LVL158:
 1518              	.L87:
 548:..\..\..\lvgl\version_6.1.2\lvgl\src\lv_draw/lv_draw_line.c ****             draw_area.y1 = prev_p.y + pattern[i].y;
 1519              		.loc 1 548 0
 1520 0808 7888     		ldrh	r0, [r7, #2]
 1521 080a BDF86430 		ldrh	r3, [sp, #100]
 549:..\..\..\lvgl\version_6.1.2\lvgl\src\lv_draw/lv_draw_line.c ****             draw_area.x2 = draw_area.x1;
 1522              		.loc 1 549 0
 1523 080e BDF86610 		ldrh	r1, [sp, #102]
 551:..\..\..\lvgl\version_6.1.2\lvgl\src\lv_draw/lv_draw_line.c **** 
 1524              		.loc 1 551 0
 1525 0812 BDF866E0 		ldrh	lr, [sp, #102]
 553:..\..\..\lvgl\version_6.1.2\lvgl\src\lv_draw/lv_draw_line.c **** 
 1526              		.loc 1 553 0
ARM GAS  C:\Users\pearlstl\AppData\Local\Temp\ccuP9Sbb.s 			page 44


 1527 0816 D9F80020 		ldr	r2, [r9]
 548:..\..\..\lvgl\version_6.1.2\lvgl\src\lv_draw/lv_draw_line.c ****             draw_area.y1 = prev_p.y + pattern[i].y;
 1528              		.loc 1 548 0
 1529 081a 0344     		add	r3, r3, r0
 1530 081c 1BB2     		sxth	r3, r3
 1531 081e ADF86830 		strh	r3, [sp, #104]	@ movhi
 549:..\..\..\lvgl\version_6.1.2\lvgl\src\lv_draw/lv_draw_line.c ****             draw_area.x2 = draw_area.x1;
 1532              		.loc 1 549 0
 1533 0822 B888     		ldrh	r0, [r7, #4]
 550:..\..\..\lvgl\version_6.1.2\lvgl\src\lv_draw/lv_draw_line.c ****             draw_area.y2 = draw_area.y1 + main_line->p_act.y - prev_p.y;
 1534              		.loc 1 550 0
 1535 0824 ADF86C30 		strh	r3, [sp, #108]	@ movhi
 549:..\..\..\lvgl\version_6.1.2\lvgl\src\lv_draw/lv_draw_line.c ****             draw_area.x2 = draw_area.x1;
 1536              		.loc 1 549 0
 1537 0828 0844     		add	r0, r0, r1
 1538 082a 80B2     		uxth	r0, r0
 551:..\..\..\lvgl\version_6.1.2\lvgl\src\lv_draw/lv_draw_line.c **** 
 1539              		.loc 1 551 0
 1540 082c CEEB060E 		rsb	lr, lr, r6
 1541 0830 8644     		add	lr, lr, r0
 549:..\..\..\lvgl\version_6.1.2\lvgl\src\lv_draw/lv_draw_line.c ****             draw_area.x2 = draw_area.x1;
 1542              		.loc 1 549 0
 1543 0832 ADF86A00 		strh	r0, [sp, #106]	@ movhi
 553:..\..\..\lvgl\version_6.1.2\lvgl\src\lv_draw/lv_draw_line.c **** 
 1544              		.loc 1 553 0
 1545 0836 5346     		mov	r3, r10
 1546 0838 4146     		mov	r1, r8
 1547 083a 2846     		mov	r0, r5
 551:..\..\..\lvgl\version_6.1.2\lvgl\src\lv_draw/lv_draw_line.c **** 
 1548              		.loc 1 551 0
 1549 083c ADF86EE0 		strh	lr, [sp, #110]	@ movhi
 553:..\..\..\lvgl\version_6.1.2\lvgl\src\lv_draw/lv_draw_line.c **** 
 1550              		.loc 1 553 0
 1551 0840 FFF7FEFF 		bl	lv_draw_fill
 1552              	.LVL159:
 558:..\..\..\lvgl\version_6.1.2\lvgl\src\lv_draw/lv_draw_line.c ****             }
 1553              		.loc 1 558 0
 1554 0844 4246     		mov	r2, r8
 557:..\..\..\lvgl\version_6.1.2\lvgl\src\lv_draw/lv_draw_line.c ****                 lv_draw_px(draw_area.x1 - main_line->sx, draw_area.y1, mask, style->line.color, opa
 1555              		.loc 1 557 0
 1556 0846 9CB1     		cbz	r4, .L86
 1557 0848 B7F90010 		ldrsh	r1, [r7]
 1558 084c B7F90430 		ldrsh	r3, [r7, #4]
 1559 0850 9942     		cmp	r1, r3
 1560 0852 0DD0     		beq	.L86
 558:..\..\..\lvgl\version_6.1.2\lvgl\src\lv_draw/lv_draw_line.c ****             }
 1561              		.loc 1 558 0
 1562 0854 0D9B     		ldr	r3, [sp, #52]
 1563 0856 BDF86800 		ldrh	r0, [sp, #104]
 1564 085a D9F800E0 		ldr	lr, [r9]
 1565 085e BDF96A10 		ldrsh	r1, [sp, #106]
 1566 0862 CDF800A0 		str	r10, [sp]
 1567 0866 C01A     		subs	r0, r0, r3
 1568 0868 00B2     		sxth	r0, r0
 1569 086a 7346     		mov	r3, lr
 1570 086c FFF7FEFF 		bl	lv_draw_px
 1571              	.LVL160:
ARM GAS  C:\Users\pearlstl\AppData\Local\Temp\ccuP9Sbb.s 			page 45


 1572              	.L86:
 1573 0870 0134     		adds	r4, r4, #1
 1574              	.LVL161:
 547:..\..\..\lvgl\version_6.1.2\lvgl\src\lv_draw/lv_draw_line.c ****             draw_area.x1 = prev_p.x + pattern[i].x;
 1575              		.loc 1 547 0
 1576 0872 23B2     		sxth	r3, r4
 1577 0874 5B45     		cmp	r3, fp
 1578 0876 07F10407 		add	r7, r7, #4
 1579 087a C5DB     		blt	.L87
 1580 087c FFF7D8BB 		b	.L1
 1581              	.LVL162:
 1582              	.L166:
 1583              	.LBE111:
 1584              	.LBE115:
 1585              	.LBE123:
 1586              	.LBB124:
 1587              	.LBB125:
 206:..\..\..\lvgl\version_6.1.2\lvgl\src\lv_draw/lv_draw_line.c ****     lv_coord_t width_half = width >> 1;
 1588              		.loc 1 206 0
 1589 0880 7A1E     		subs	r2, r7, #1
 1590 0882 12B2     		sxth	r2, r2
 207:..\..\..\lvgl\version_6.1.2\lvgl\src\lv_draw/lv_draw_line.c ****     lv_coord_t width_1    = width & 0x1;
 1591              		.loc 1 207 0
 1592 0884 5410     		asrs	r4, r2, #1
 212:..\..\..\lvgl\version_6.1.2\lvgl\src\lv_draw/lv_draw_line.c ****     act_area.x2 = main_line->p2.x + width_half + width_1;
 1593              		.loc 1 212 0
 1594 0886 BDF81C10 		ldrh	r1, [sp, #28]
 1595 088a 93F84E60 		ldrb	r6, [r3, #78]	@ zero_extendqisi2
 1596              	.LVL163:
 208:..\..\..\lvgl\version_6.1.2\lvgl\src\lv_draw/lv_draw_line.c ****     lv_opa_t opa = opa_scale == LV_OPA_COVER ? style->line.opa : (uint16_t)((uint16_t)style->line.o
 1597              		.loc 1 208 0
 1598 088e 02F00100 		and	r0, r2, #1
 212:..\..\..\lvgl\version_6.1.2\lvgl\src\lv_draw/lv_draw_line.c ****     act_area.x2 = main_line->p2.x + width_half + width_1;
 1599              		.loc 1 212 0
 1600 0892 A4B2     		uxth	r4, r4
 213:..\..\..\lvgl\version_6.1.2\lvgl\src\lv_draw/lv_draw_line.c ****     act_area.y1 = main_line->p1.y;
 1601              		.loc 1 213 0
 1602 0894 2044     		add	r0, r0, r4
 209:..\..\..\lvgl\version_6.1.2\lvgl\src\lv_draw/lv_draw_line.c **** 
 1603              		.loc 1 209 0
 1604 0896 BEF1FF0F 		cmp	lr, #255
 213:..\..\..\lvgl\version_6.1.2\lvgl\src\lv_draw/lv_draw_line.c ****     act_area.y1 = main_line->p1.y;
 1605              		.loc 1 213 0
 1606 089a 0844     		add	r0, r0, r1
 212:..\..\..\lvgl\version_6.1.2\lvgl\src\lv_draw/lv_draw_line.c ****     act_area.x2 = main_line->p2.x + width_half + width_1;
 1607              		.loc 1 212 0
 1608 089c A1EB0404 		sub	r4, r1, r4
 1609 08a0 24B2     		sxth	r4, r4
 209:..\..\..\lvgl\version_6.1.2\lvgl\src\lv_draw/lv_draw_line.c **** 
 1610              		.loc 1 209 0
 1611 08a2 18BF     		it	ne
 1612 08a4 06FB0EF6 		mulne	r6, r6, lr
 213:..\..\..\lvgl\version_6.1.2\lvgl\src\lv_draw/lv_draw_line.c ****     act_area.y1 = main_line->p1.y;
 1613              		.loc 1 213 0
 1614 08a8 00B2     		sxth	r0, r0
 209:..\..\..\lvgl\version_6.1.2\lvgl\src\lv_draw/lv_draw_line.c **** 
 1615              		.loc 1 209 0
ARM GAS  C:\Users\pearlstl\AppData\Local\Temp\ccuP9Sbb.s 			page 46


 1616 08aa 18BF     		it	ne
 1617 08ac C6F30726 		ubfxne	r6, r6, #8, #8
 218:..\..\..\lvgl\version_6.1.2\lvgl\src\lv_draw/lv_draw_line.c ****     draw_area.x2 = LV_MATH_MAX(act_area.x1, act_area.x2);
 1618              		.loc 1 218 0
 1619 08b0 8442     		cmp	r4, r0
 1620 08b2 2746     		mov	r7, r4
 1621 08b4 A8BF     		it	ge
 1622 08b6 0746     		movge	r7, r0
 219:..\..\..\lvgl\version_6.1.2\lvgl\src\lv_draw/lv_draw_line.c ****     draw_area.y1 = LV_MATH_MIN(act_area.y1, act_area.y2);
 1623              		.loc 1 219 0
 1624 08b8 8442     		cmp	r4, r0
 1625 08ba B8BF     		it	lt
 1626 08bc 0446     		movlt	r4, r0
 220:..\..\..\lvgl\version_6.1.2\lvgl\src\lv_draw/lv_draw_line.c ****     draw_area.y2 = LV_MATH_MAX(act_area.y1, act_area.y2);
 1627              		.loc 1 220 0
 1628 08be 0898     		ldr	r0, [sp, #32]
 1629 08c0 9A6C     		ldr	r2, [r3, #72]
 1630              	.LVL164:
 218:..\..\..\lvgl\version_6.1.2\lvgl\src\lv_draw/lv_draw_line.c ****     draw_area.x2 = LV_MATH_MAX(act_area.x1, act_area.x2);
 1631              		.loc 1 218 0
 1632 08c2 ADF86870 		strh	r7, [sp, #104]	@ movhi
 220:..\..\..\lvgl\version_6.1.2\lvgl\src\lv_draw/lv_draw_line.c ****     draw_area.y2 = LV_MATH_MAX(act_area.y1, act_area.y2);
 1633              		.loc 1 220 0
 1634 08c6 A842     		cmp	r0, r5
 222:..\..\..\lvgl\version_6.1.2\lvgl\src\lv_draw/lv_draw_line.c **** }
 1635              		.loc 1 222 0
 1636 08c8 3346     		mov	r3, r6
 1637              	.LVL165:
 220:..\..\..\lvgl\version_6.1.2\lvgl\src\lv_draw/lv_draw_line.c ****     draw_area.y2 = LV_MATH_MAX(act_area.y1, act_area.y2);
 1638              		.loc 1 220 0
 1639 08ca 0646     		mov	r6, r0
 1640              	.LVL166:
 1641 08cc A8BF     		it	ge
 1642 08ce 2E46     		movge	r6, r5
 221:..\..\..\lvgl\version_6.1.2\lvgl\src\lv_draw/lv_draw_line.c ****     lv_draw_fill(&draw_area, mask, style->line.color, opa);
 1643              		.loc 1 221 0
 1644 08d0 8542     		cmp	r5, r0
 1645 08d2 B8BF     		it	lt
 1646 08d4 0546     		movlt	r5, r0
 1647              	.LVL167:
 222:..\..\..\lvgl\version_6.1.2\lvgl\src\lv_draw/lv_draw_line.c **** }
 1648              		.loc 1 222 0
 1649 08d6 4146     		mov	r1, r8
 1650 08d8 1AA8     		add	r0, sp, #104
 219:..\..\..\lvgl\version_6.1.2\lvgl\src\lv_draw/lv_draw_line.c ****     draw_area.y1 = LV_MATH_MIN(act_area.y1, act_area.y2);
 1651              		.loc 1 219 0
 1652 08da ADF86C40 		strh	r4, [sp, #108]	@ movhi
 220:..\..\..\lvgl\version_6.1.2\lvgl\src\lv_draw/lv_draw_line.c ****     draw_area.y2 = LV_MATH_MAX(act_area.y1, act_area.y2);
 1653              		.loc 1 220 0
 1654 08de ADF86A60 		strh	r6, [sp, #106]	@ movhi
 221:..\..\..\lvgl\version_6.1.2\lvgl\src\lv_draw/lv_draw_line.c ****     lv_draw_fill(&draw_area, mask, style->line.color, opa);
 1655              		.loc 1 221 0
 1656 08e2 ADF86E50 		strh	r5, [sp, #110]	@ movhi
 222:..\..\..\lvgl\version_6.1.2\lvgl\src\lv_draw/lv_draw_line.c **** }
 1657              		.loc 1 222 0
 1658 08e6 FFF7FEFF 		bl	lv_draw_fill
 1659              	.LVL168:
ARM GAS  C:\Users\pearlstl\AppData\Local\Temp\ccuP9Sbb.s 			page 47


 1660 08ea FFF7A1BB 		b	.L1
 1661              	.LVL169:
 1662              	.L165:
 1663              	.LBE125:
 1664              	.LBE124:
 1665              	.LBB126:
 1666              	.LBB127:
 185:..\..\..\lvgl\version_6.1.2\lvgl\src\lv_draw/lv_draw_line.c ****     lv_coord_t width_half = width >> 1;
 1667              		.loc 1 185 0
 1668 08ee 7A1E     		subs	r2, r7, #1
 1669 08f0 12B2     		sxth	r2, r2
 193:..\..\..\lvgl\version_6.1.2\lvgl\src\lv_draw/lv_draw_line.c ****     act_area.y2 = main_line->p2.y + width_half;
 1670              		.loc 1 193 0
 1671 08f2 BDF82000 		ldrh	r0, [sp, #32]
 1672 08f6 93F84E50 		ldrb	r5, [r3, #78]	@ zero_extendqisi2
 1673              	.LVL170:
 186:..\..\..\lvgl\version_6.1.2\lvgl\src\lv_draw/lv_draw_line.c ****     lv_coord_t width_1    = width & 0x1;
 1674              		.loc 1 186 0
 1675 08fa 5410     		asrs	r4, r2, #1
 1676              	.LVL171:
 193:..\..\..\lvgl\version_6.1.2\lvgl\src\lv_draw/lv_draw_line.c ****     act_area.y2 = main_line->p2.y + width_half;
 1677              		.loc 1 193 0
 1678 08fc A1B2     		uxth	r1, r4
 187:..\..\..\lvgl\version_6.1.2\lvgl\src\lv_draw/lv_draw_line.c ****     lv_opa_t opa = opa_scale == LV_OPA_COVER ? style->line.opa : (uint16_t)((uint16_t)style->line.o
 1679              		.loc 1 187 0
 1680 08fe 02F00107 		and	r7, r2, #1
 1681 0902 9A6C     		ldr	r2, [r3, #72]
 1682              	.LVL172:
 193:..\..\..\lvgl\version_6.1.2\lvgl\src\lv_draw/lv_draw_line.c ****     act_area.y2 = main_line->p2.y + width_half;
 1683              		.loc 1 193 0
 1684 0904 431A     		subs	r3, r0, r1
 1685              	.LVL173:
 188:..\..\..\lvgl\version_6.1.2\lvgl\src\lv_draw/lv_draw_line.c **** 
 1686              		.loc 1 188 0
 1687 0906 BEF1FF0F 		cmp	lr, #255
 193:..\..\..\lvgl\version_6.1.2\lvgl\src\lv_draw/lv_draw_line.c ****     act_area.y2 = main_line->p2.y + width_half;
 1688              		.loc 1 193 0
 1689 090a A3EB0704 		sub	r4, r3, r7
 1690              	.LVL174:
 194:..\..\..\lvgl\version_6.1.2\lvgl\src\lv_draw/lv_draw_line.c **** 
 1691              		.loc 1 194 0
 1692 090e 0144     		add	r1, r1, r0
 1693              	.LVL175:
 193:..\..\..\lvgl\version_6.1.2\lvgl\src\lv_draw/lv_draw_line.c ****     act_area.y2 = main_line->p2.y + width_half;
 1694              		.loc 1 193 0
 1695 0910 24B2     		sxth	r4, r4
 194:..\..\..\lvgl\version_6.1.2\lvgl\src\lv_draw/lv_draw_line.c **** 
 1696              		.loc 1 194 0
 1697 0912 08B2     		sxth	r0, r1
 188:..\..\..\lvgl\version_6.1.2\lvgl\src\lv_draw/lv_draw_line.c **** 
 1698              		.loc 1 188 0
 1699 0914 1CBF     		itt	ne
 1700 0916 05FB0EF5 		mulne	r5, r5, lr
 1701 091a C5F30725 		ubfxne	r5, r5, #8, #8
 1702              	.LVL176:
 199:..\..\..\lvgl\version_6.1.2\lvgl\src\lv_draw/lv_draw_line.c ****     draw_area.y2 = LV_MATH_MAX(act_area.y1, act_area.y2);
 1703              		.loc 1 199 0
ARM GAS  C:\Users\pearlstl\AppData\Local\Temp\ccuP9Sbb.s 			page 48


 1704 091e 8442     		cmp	r4, r0
 1705 0920 2746     		mov	r7, r4
 1706              	.LVL177:
 1707 0922 A8BF     		it	ge
 1708 0924 0746     		movge	r7, r0
 200:..\..\..\lvgl\version_6.1.2\lvgl\src\lv_draw/lv_draw_line.c ****     lv_draw_fill(&draw_area, mask, style->line.color, opa);
 1709              		.loc 1 200 0
 1710 0926 8442     		cmp	r4, r0
 1711 0928 B8BF     		it	lt
 1712 092a 0446     		movlt	r4, r0
 1713              	.LVL178:
 197:..\..\..\lvgl\version_6.1.2\lvgl\src\lv_draw/lv_draw_line.c ****     draw_area.x2 = LV_MATH_MAX(act_area.x1, act_area.x2);
 1714              		.loc 1 197 0
 1715 092c 0798     		ldr	r0, [sp, #28]
 1716              	.LVL179:
 199:..\..\..\lvgl\version_6.1.2\lvgl\src\lv_draw/lv_draw_line.c ****     draw_area.y2 = LV_MATH_MAX(act_area.y1, act_area.y2);
 1717              		.loc 1 199 0
 1718 092e ADF86A70 		strh	r7, [sp, #106]	@ movhi
 197:..\..\..\lvgl\version_6.1.2\lvgl\src\lv_draw/lv_draw_line.c ****     draw_area.x2 = LV_MATH_MAX(act_area.x1, act_area.x2);
 1719              		.loc 1 197 0
 1720 0932 B042     		cmp	r0, r6
 201:..\..\..\lvgl\version_6.1.2\lvgl\src\lv_draw/lv_draw_line.c **** }
 1721              		.loc 1 201 0
 1722 0934 2B46     		mov	r3, r5
 1723              	.LVL180:
 197:..\..\..\lvgl\version_6.1.2\lvgl\src\lv_draw/lv_draw_line.c ****     draw_area.x2 = LV_MATH_MAX(act_area.x1, act_area.x2);
 1724              		.loc 1 197 0
 1725 0936 0546     		mov	r5, r0
 1726              	.LVL181:
 1727 0938 A8BF     		it	ge
 1728 093a 3546     		movge	r5, r6
 198:..\..\..\lvgl\version_6.1.2\lvgl\src\lv_draw/lv_draw_line.c ****     draw_area.y1 = LV_MATH_MIN(act_area.y1, act_area.y2);
 1729              		.loc 1 198 0
 1730 093c B042     		cmp	r0, r6
 1731 093e B8BF     		it	lt
 1732 0940 3046     		movlt	r0, r6
 1733 0942 0646     		mov	r6, r0
 1734              	.LVL182:
 201:..\..\..\lvgl\version_6.1.2\lvgl\src\lv_draw/lv_draw_line.c **** }
 1735              		.loc 1 201 0
 1736 0944 4146     		mov	r1, r8
 1737              	.LVL183:
 1738 0946 1AA8     		add	r0, sp, #104
 200:..\..\..\lvgl\version_6.1.2\lvgl\src\lv_draw/lv_draw_line.c ****     lv_draw_fill(&draw_area, mask, style->line.color, opa);
 1739              		.loc 1 200 0
 1740 0948 ADF86E40 		strh	r4, [sp, #110]	@ movhi
 197:..\..\..\lvgl\version_6.1.2\lvgl\src\lv_draw/lv_draw_line.c ****     draw_area.x2 = LV_MATH_MAX(act_area.x1, act_area.x2);
 1741              		.loc 1 197 0
 1742 094c ADF86850 		strh	r5, [sp, #104]	@ movhi
 198:..\..\..\lvgl\version_6.1.2\lvgl\src\lv_draw/lv_draw_line.c ****     draw_area.y1 = LV_MATH_MIN(act_area.y1, act_area.y2);
 1743              		.loc 1 198 0
 1744 0950 ADF86C60 		strh	r6, [sp, #108]	@ movhi
 201:..\..\..\lvgl\version_6.1.2\lvgl\src\lv_draw/lv_draw_line.c **** }
 1745              		.loc 1 201 0
 1746 0954 FFF7FEFF 		bl	lv_draw_fill
 1747              	.LVL184:
 1748 0958 FFF76ABB 		b	.L1
ARM GAS  C:\Users\pearlstl\AppData\Local\Temp\ccuP9Sbb.s 			page 49


 1749              	.LVL185:
 1750              	.L169:
 1751 095c 179F     		ldr	r7, [sp, #92]
 1752 095e 149D     		ldr	r5, [sp, #80]
 1753 0960 DDF854B0 		ldr	fp, [sp, #84]
 1754 0964 DDF84490 		ldr	r9, [sp, #68]
 1755 0968 DDF858A0 		ldr	r10, [sp, #88]
 1756 096c 109E     		ldr	r6, [sp, #64]
 1757 096e DDF84880 		ldr	r8, [sp, #72]
 1758              	.LVL186:
 1759              	.L30:
 1760              	.LBE127:
 1761              	.LBE126:
 1762              	.LBB128:
 1763              	.LBB116:
 1764              	.LBB112:
 1765              	.LBB107:
 1766              	.LBB69:
 279:..\..\..\lvgl\version_6.1.2\lvgl\src\lv_draw/lv_draw_line.c ****             pattern[i].y = pattern_line.p_act.y;
 1767              		.loc 1 279 0
 1768 0972 0997     		str	r7, [sp, #36]
 1769              	.LVL187:
 1770              	.L92:
 1771              	.LBE69:
 1772              	.LBE107:
 311:..\..\..\lvgl\version_6.1.2\lvgl\src\lv_draw/lv_draw_line.c ****         y_center_ofs = pattern[width - 1].y / 2;
 1773              		.loc 1 311 0
 1774 0974 07F18043 		add	r3, r7, #1073741824
 1775              	.LVL188:
 1776 0978 0A98     		ldr	r0, [sp, #40]
 1777 097a 013B     		subs	r3, r3, #1
 1778 097c 00EB8301 		add	r1, r0, r3, lsl #2
 1779 0980 30F92320 		ldrsh	r2, [r0, r3, lsl #2]
 312:..\..\..\lvgl\version_6.1.2\lvgl\src\lv_draw/lv_draw_line.c ****     } else {
 1780              		.loc 1 312 0
 1781 0984 B1F90230 		ldrsh	r3, [r1, #2]
 1782 0988 03EBD373 		add	r3, r3, r3, lsr #31
 1783 098c 5F10     		asrs	r7, r3, #1
 319:..\..\..\lvgl\version_6.1.2\lvgl\src\lv_draw/lv_draw_line.c ****         pattern[i].x -= x_center_ofs;
 1784              		.loc 1 319 0
 1785 098e 099B     		ldr	r3, [sp, #36]
 311:..\..\..\lvgl\version_6.1.2\lvgl\src\lv_draw/lv_draw_line.c ****         y_center_ofs = pattern[width - 1].y / 2;
 1786              		.loc 1 311 0
 1787 0990 02EBD272 		add	r2, r2, r2, lsr #31
 319:..\..\..\lvgl\version_6.1.2\lvgl\src\lv_draw/lv_draw_line.c ****         pattern[i].x -= x_center_ofs;
 1788              		.loc 1 319 0
 1789 0994 002B     		cmp	r3, #0
 311:..\..\..\lvgl\version_6.1.2\lvgl\src\lv_draw/lv_draw_line.c ****         y_center_ofs = pattern[width - 1].y / 2;
 1790              		.loc 1 311 0
 1791 0996 4FEA620E 		asr	lr, r2, #1
 1792              	.LVL189:
 319:..\..\..\lvgl\version_6.1.2\lvgl\src\lv_draw/lv_draw_line.c ****         pattern[i].x -= x_center_ofs;
 1793              		.loc 1 319 0
 1794 099a 7FF7A7AC 		ble	.L41
 1795 099e 9C46     		mov	ip, r3
 1796 09a0 1FFA8EFE 		uxth	lr, lr
 1797 09a4 BFB2     		uxth	r7, r7
ARM GAS  C:\Users\pearlstl\AppData\Local\Temp\ccuP9Sbb.s 			page 50


 1798 09a6 0246     		mov	r2, r0
 1799 09a8 0023     		movs	r3, #0
 1800              	.LVL190:
 1801              	.L45:
 320:..\..\..\lvgl\version_6.1.2\lvgl\src\lv_draw/lv_draw_line.c ****         pattern[i].y -= y_center_ofs;
 1802              		.loc 1 320 0
 1803 09aa 30F82310 		ldrh	r1, [r0, r3, lsl #2]
 1804 09ae CEEB0101 		rsb	r1, lr, r1
 1805 09b2 20F82310 		strh	r1, [r0, r3, lsl #2]	@ movhi
 1806 09b6 0133     		adds	r3, r3, #1
 1807              	.LVL191:
 321:..\..\..\lvgl\version_6.1.2\lvgl\src\lv_draw/lv_draw_line.c **** #if LV_ANTIALIAS
 1808              		.loc 1 321 0
 1809 09b8 5188     		ldrh	r1, [r2, #2]
 319:..\..\..\lvgl\version_6.1.2\lvgl\src\lv_draw/lv_draw_line.c ****         pattern[i].x -= x_center_ofs;
 1810              		.loc 1 319 0
 1811 09ba 1CB2     		sxth	r4, r3
 321:..\..\..\lvgl\version_6.1.2\lvgl\src\lv_draw/lv_draw_line.c **** #if LV_ANTIALIAS
 1812              		.loc 1 321 0
 1813 09bc C91B     		subs	r1, r1, r7
 319:..\..\..\lvgl\version_6.1.2\lvgl\src\lv_draw/lv_draw_line.c ****         pattern[i].x -= x_center_ofs;
 1814              		.loc 1 319 0
 1815 09be 6445     		cmp	r4, ip
 321:..\..\..\lvgl\version_6.1.2\lvgl\src\lv_draw/lv_draw_line.c **** #if LV_ANTIALIAS
 1816              		.loc 1 321 0
 1817 09c0 5180     		strh	r1, [r2, #2]	@ movhi
 1818 09c2 02F10402 		add	r2, r2, #4
 319:..\..\..\lvgl\version_6.1.2\lvgl\src\lv_draw/lv_draw_line.c ****         pattern[i].x -= x_center_ofs;
 1819              		.loc 1 319 0
 1820 09c6 F0DB     		blt	.L45
 1821 09c8 90E4     		b	.L41
 1822              	.LVL192:
 1823              	.L33:
 1824 09ca 149D     		ldr	r5, [sp, #80]
 1825 09cc DDF854B0 		ldr	fp, [sp, #84]
 1826 09d0 0990     		str	r0, [sp, #36]
 1827 09d2 DDF84490 		ldr	r9, [sp, #68]
 1828 09d6 DDF858A0 		ldr	r10, [sp, #88]
 1829 09da 109E     		ldr	r6, [sp, #64]
 1830 09dc DDF84880 		ldr	r8, [sp, #72]
 310:..\..\..\lvgl\version_6.1.2\lvgl\src\lv_draw/lv_draw_line.c ****         x_center_ofs = pattern[width - 1].x / 2;
 1831              		.loc 1 310 0
 1832 09e0 0028     		cmp	r0, #0
 1833 09e2 3FF477AC 		beq	.L39
 1834              	.LBB108:
 1835              	.LBB70:
 279:..\..\..\lvgl\version_6.1.2\lvgl\src\lv_draw/lv_draw_line.c ****             pattern[i].y = pattern_line.p_act.y;
 1836              		.loc 1 279 0
 1837 09e6 0746     		mov	r7, r0
 1838 09e8 C4E7     		b	.L92
 1839              	.LVL193:
 1840              	.L173:
 1841 09ea 2546     		mov	r5, r4
 1842              	.LBE70:
 1843              	.LBE108:
 1844              	.LBE112:
 1845              	.LBE116:
ARM GAS  C:\Users\pearlstl\AppData\Local\Temp\ccuP9Sbb.s 			page 51


 1846              	.LBE128:
 1847              	.LBB129:
 1848              	.LBB49:
 582:..\..\..\lvgl\version_6.1.2\lvgl\src\lv_draw/lv_draw_line.c ****     line->sy  = line->p1.y < line->p2.y ? 1 : -1;
 1849              		.loc 1 582 0
 1850 09ec 0124     		movs	r4, #1
 1851 09ee 0796     		str	r6, [sp, #28]
 1852              	.LVL194:
 1853 09f0 0D94     		str	r4, [sp, #52]
 1854              	.LBE49:
 1855              	.LBE129:
 117:..\..\..\lvgl\version_6.1.2\lvgl\src\lv_draw/lv_draw_line.c ****         } else {
 1856              		.loc 1 117 0
 1857 09f2 0891     		str	r1, [sp, #32]
 1858              	.LVL195:
 1859              	.LBB130:
 1860              	.LBB50:
 582:..\..\..\lvgl\version_6.1.2\lvgl\src\lv_draw/lv_draw_line.c ****     line->sy  = line->p1.y < line->p2.y ? 1 : -1;
 1861              		.loc 1 582 0
 1862 09f4 0646     		mov	r6, r0
 1863              	.LVL196:
 1864 09f6 0694     		str	r4, [sp, #24]
 1865 09f8 0FFA8AFB 		sxth	fp, r10
 1866              	.LVL197:
 1867 09fc FFF75DBB 		b	.L14
 1868              	.LVL198:
 1869              	.L168:
 1870              	.LBE50:
 1871              	.LBE130:
 1872              	.LBB131:
 1873              	.LBB117:
 1874              	.LBB113:
 1875              	.LBB109:
 1876              	.LBB71:
 1877              	.LBB57:
 584:..\..\..\lvgl\version_6.1.2\lvgl\src\lv_draw/lv_draw_line.c ****     line->e2  = 0;
 1878              		.loc 1 584 0
 1879 0a00 02EBD273 		add	r3, r2, r2, lsr #31
 1880 0a04 5B10     		asrs	r3, r3, #1
 1881 0a06 FFF7BDBB 		b	.L29
 1882              	.LBE57:
 1883              	.LBE71:
 1884              	.LBE109:
 1885              	.LBE113:
 1886              	.LBE117:
 1887              	.LBE131:
 1888              		.cfi_endproc
 1889              	.LFE32:
 1890              		.size	lv_draw_line, .-lv_draw_line
 1891 0a0a 00BF     		.text
 1892              	.Letext0:
 1893              		.file 2 "c:\\program files (x86)\\cypress\\psoc creator\\4.2\\psoc creator\\import\\gnu\\arm\\5.4.
 1894              		.file 3 "c:\\program files (x86)\\cypress\\psoc creator\\4.2\\psoc creator\\import\\gnu\\arm\\5.4.
 1895              		.file 4 "..\\..\\..\\lvgl\\version_6.1.2\\lvgl\\src\\lv_draw\\../../../lv_conf.h"
 1896              		.file 5 "..\\..\\..\\lvgl\\version_6.1.2\\lvgl\\src\\lv_draw\\../lv_core/../lv_font/lv_font.h"
 1897              		.file 6 "..\\..\\..\\lvgl\\version_6.1.2\\lvgl\\src\\lv_draw\\../lv_core/../lv_misc/lv_color.h"
 1898              		.file 7 "..\\..\\..\\lvgl\\version_6.1.2\\lvgl\\src\\lv_draw\\../lv_core/../lv_misc/lv_area.h"
ARM GAS  C:\Users\pearlstl\AppData\Local\Temp\ccuP9Sbb.s 			page 52


 1899              		.file 8 "..\\..\\..\\lvgl\\version_6.1.2\\lvgl\\src\\lv_draw\\../lv_core/lv_style.h"
 1900              		.file 9 "..\\..\\..\\lvgl\\version_6.1.2\\lvgl\\src\\lv_draw\\lv_draw.h"
 1901              		.file 10 "..\\..\\..\\lvgl\\version_6.1.2\\lvgl\\src\\lv_draw\\lv_draw_basic.h"