ARM GAS  C:\Users\pearlstl\AppData\Local\Temp\ccVE6Vs6.s 			page 1


   1              		.syntax unified
   2              		.cpu cortex-m4
   3              		.eabi_attribute 27, 1
   4              		.fpu fpv4-sp-d16
   5              		.eabi_attribute 20, 1
   6              		.eabi_attribute 21, 1
   7              		.eabi_attribute 23, 3
   8              		.eabi_attribute 24, 1
   9              		.eabi_attribute 25, 1
  10              		.eabi_attribute 26, 1
  11              		.eabi_attribute 30, 2
  12              		.eabi_attribute 34, 1
  13              		.eabi_attribute 18, 4
  14              		.thumb
  15              		.syntax unified
  16              		.file	"lv_draw_triangle.c"
  17              		.text
  18              	.Ltext0:
  19              		.cfi_sections	.debug_frame
  20              		.section	.text.tri_draw_flat,"ax",%progbits
  21              		.align	2
  22              		.global	tri_draw_flat
  23              		.thumb
  24              		.thumb_func
  25              		.type	tri_draw_flat, %function
  26              	tri_draw_flat:
  27              	.LFB33:
  28              		.file 1 "..\\..\\..\\lvgl\\version_6.1.2\\lvgl\\src\\lv_draw\\lv_draw_triangle.c"
   1:..\..\..\lvgl\version_6.1.2\lvgl\src\lv_draw/lv_draw_triangle.c **** /**
   2:..\..\..\lvgl\version_6.1.2\lvgl\src\lv_draw/lv_draw_triangle.c ****  * @file lv_draw_triangle.c
   3:..\..\..\lvgl\version_6.1.2\lvgl\src\lv_draw/lv_draw_triangle.c ****  *
   4:..\..\..\lvgl\version_6.1.2\lvgl\src\lv_draw/lv_draw_triangle.c ****  */
   5:..\..\..\lvgl\version_6.1.2\lvgl\src\lv_draw/lv_draw_triangle.c **** 
   6:..\..\..\lvgl\version_6.1.2\lvgl\src\lv_draw/lv_draw_triangle.c **** /*********************
   7:..\..\..\lvgl\version_6.1.2\lvgl\src\lv_draw/lv_draw_triangle.c ****  *      INCLUDES
   8:..\..\..\lvgl\version_6.1.2\lvgl\src\lv_draw/lv_draw_triangle.c ****  *********************/
   9:..\..\..\lvgl\version_6.1.2\lvgl\src\lv_draw/lv_draw_triangle.c **** #include "lv_draw_triangle.h"
  10:..\..\..\lvgl\version_6.1.2\lvgl\src\lv_draw/lv_draw_triangle.c **** #include "../lv_misc/lv_math.h"
  11:..\..\..\lvgl\version_6.1.2\lvgl\src\lv_draw/lv_draw_triangle.c **** 
  12:..\..\..\lvgl\version_6.1.2\lvgl\src\lv_draw/lv_draw_triangle.c **** /*********************
  13:..\..\..\lvgl\version_6.1.2\lvgl\src\lv_draw/lv_draw_triangle.c ****  *      DEFINES
  14:..\..\..\lvgl\version_6.1.2\lvgl\src\lv_draw/lv_draw_triangle.c ****  *********************/
  15:..\..\..\lvgl\version_6.1.2\lvgl\src\lv_draw/lv_draw_triangle.c **** 
  16:..\..\..\lvgl\version_6.1.2\lvgl\src\lv_draw/lv_draw_triangle.c **** /**********************
  17:..\..\..\lvgl\version_6.1.2\lvgl\src\lv_draw/lv_draw_triangle.c ****  *      TYPEDEFS
  18:..\..\..\lvgl\version_6.1.2\lvgl\src\lv_draw/lv_draw_triangle.c ****  **********************/
  19:..\..\..\lvgl\version_6.1.2\lvgl\src\lv_draw/lv_draw_triangle.c **** 
  20:..\..\..\lvgl\version_6.1.2\lvgl\src\lv_draw/lv_draw_triangle.c **** /**********************
  21:..\..\..\lvgl\version_6.1.2\lvgl\src\lv_draw/lv_draw_triangle.c ****  *  STATIC PROTOTYPES
  22:..\..\..\lvgl\version_6.1.2\lvgl\src\lv_draw/lv_draw_triangle.c ****  **********************/
  23:..\..\..\lvgl\version_6.1.2\lvgl\src\lv_draw/lv_draw_triangle.c **** void tri_draw_flat(const lv_point_t * points, const lv_area_t * mask, const lv_style_t * style, lv_
  24:..\..\..\lvgl\version_6.1.2\lvgl\src\lv_draw/lv_draw_triangle.c **** void tri_draw_tall(const lv_point_t * points, const lv_area_t * mask, const lv_style_t * style, lv_
  25:..\..\..\lvgl\version_6.1.2\lvgl\src\lv_draw/lv_draw_triangle.c **** static void point_swap(lv_point_t * p1, lv_point_t * p2);
  26:..\..\..\lvgl\version_6.1.2\lvgl\src\lv_draw/lv_draw_triangle.c **** 
  27:..\..\..\lvgl\version_6.1.2\lvgl\src\lv_draw/lv_draw_triangle.c **** /**********************
  28:..\..\..\lvgl\version_6.1.2\lvgl\src\lv_draw/lv_draw_triangle.c ****  *  STATIC VARIABLES
  29:..\..\..\lvgl\version_6.1.2\lvgl\src\lv_draw/lv_draw_triangle.c ****  **********************/
ARM GAS  C:\Users\pearlstl\AppData\Local\Temp\ccVE6Vs6.s 			page 2


  30:..\..\..\lvgl\version_6.1.2\lvgl\src\lv_draw/lv_draw_triangle.c **** 
  31:..\..\..\lvgl\version_6.1.2\lvgl\src\lv_draw/lv_draw_triangle.c **** /**********************
  32:..\..\..\lvgl\version_6.1.2\lvgl\src\lv_draw/lv_draw_triangle.c ****  *      MACROS
  33:..\..\..\lvgl\version_6.1.2\lvgl\src\lv_draw/lv_draw_triangle.c ****  **********************/
  34:..\..\..\lvgl\version_6.1.2\lvgl\src\lv_draw/lv_draw_triangle.c **** 
  35:..\..\..\lvgl\version_6.1.2\lvgl\src\lv_draw/lv_draw_triangle.c **** /**********************
  36:..\..\..\lvgl\version_6.1.2\lvgl\src\lv_draw/lv_draw_triangle.c ****  *   GLOBAL FUNCTIONS
  37:..\..\..\lvgl\version_6.1.2\lvgl\src\lv_draw/lv_draw_triangle.c ****  **********************/
  38:..\..\..\lvgl\version_6.1.2\lvgl\src\lv_draw/lv_draw_triangle.c **** 
  39:..\..\..\lvgl\version_6.1.2\lvgl\src\lv_draw/lv_draw_triangle.c **** /**
  40:..\..\..\lvgl\version_6.1.2\lvgl\src\lv_draw/lv_draw_triangle.c ****  *
  41:..\..\..\lvgl\version_6.1.2\lvgl\src\lv_draw/lv_draw_triangle.c ****  * @param points pointer to an array with 3 points
  42:..\..\..\lvgl\version_6.1.2\lvgl\src\lv_draw/lv_draw_triangle.c ****  * @param mask the triangle will be drawn only in this mask
  43:..\..\..\lvgl\version_6.1.2\lvgl\src\lv_draw/lv_draw_triangle.c ****  * @param style style for of the triangle
  44:..\..\..\lvgl\version_6.1.2\lvgl\src\lv_draw/lv_draw_triangle.c ****  * @param opa_scale scale down all opacities by the factor (0..255)
  45:..\..\..\lvgl\version_6.1.2\lvgl\src\lv_draw/lv_draw_triangle.c ****  */
  46:..\..\..\lvgl\version_6.1.2\lvgl\src\lv_draw/lv_draw_triangle.c **** void lv_draw_triangle(const lv_point_t * points, const lv_area_t * mask, const lv_style_t * style, 
  47:..\..\..\lvgl\version_6.1.2\lvgl\src\lv_draw/lv_draw_triangle.c **** {
  48:..\..\..\lvgl\version_6.1.2\lvgl\src\lv_draw/lv_draw_triangle.c ****     /*Return if the triangle is degenerated*/
  49:..\..\..\lvgl\version_6.1.2\lvgl\src\lv_draw/lv_draw_triangle.c ****     if(points[0].x == points[1].x && points[0].y == points[1].y) return;
  50:..\..\..\lvgl\version_6.1.2\lvgl\src\lv_draw/lv_draw_triangle.c ****     if(points[1].x == points[2].x && points[1].y == points[2].y) return;
  51:..\..\..\lvgl\version_6.1.2\lvgl\src\lv_draw/lv_draw_triangle.c ****     if(points[0].x == points[2].x && points[0].y == points[2].y) return;
  52:..\..\..\lvgl\version_6.1.2\lvgl\src\lv_draw/lv_draw_triangle.c **** 
  53:..\..\..\lvgl\version_6.1.2\lvgl\src\lv_draw/lv_draw_triangle.c ****     if(points[0].x == points[1].x && points[1].x == points[2].x) return;
  54:..\..\..\lvgl\version_6.1.2\lvgl\src\lv_draw/lv_draw_triangle.c ****     if(points[0].y == points[1].y && points[1].y == points[2].y) return;
  55:..\..\..\lvgl\version_6.1.2\lvgl\src\lv_draw/lv_draw_triangle.c **** 
  56:..\..\..\lvgl\version_6.1.2\lvgl\src\lv_draw/lv_draw_triangle.c ****     lv_opa_t opa = opa_scale == LV_OPA_COVER ? style->body.opa : (uint16_t)((uint16_t)style->body.o
  57:..\..\..\lvgl\version_6.1.2\lvgl\src\lv_draw/lv_draw_triangle.c **** 
  58:..\..\..\lvgl\version_6.1.2\lvgl\src\lv_draw/lv_draw_triangle.c ****     /*Is the triangle flat or tall?*/
  59:..\..\..\lvgl\version_6.1.2\lvgl\src\lv_draw/lv_draw_triangle.c ****     lv_coord_t x_min = LV_MATH_MIN(LV_MATH_MIN(points[0].x, points[1].x), points[2].x);
  60:..\..\..\lvgl\version_6.1.2\lvgl\src\lv_draw/lv_draw_triangle.c ****     lv_coord_t x_max = LV_MATH_MAX(LV_MATH_MAX(points[0].x, points[1].x), points[2].x);
  61:..\..\..\lvgl\version_6.1.2\lvgl\src\lv_draw/lv_draw_triangle.c ****     lv_coord_t y_min = LV_MATH_MIN(LV_MATH_MIN(points[0].y, points[1].y), points[2].y);
  62:..\..\..\lvgl\version_6.1.2\lvgl\src\lv_draw/lv_draw_triangle.c ****     lv_coord_t y_max = LV_MATH_MAX(LV_MATH_MAX(points[0].y, points[1].y), points[2].y);
  63:..\..\..\lvgl\version_6.1.2\lvgl\src\lv_draw/lv_draw_triangle.c **** 
  64:..\..\..\lvgl\version_6.1.2\lvgl\src\lv_draw/lv_draw_triangle.c ****     /* Draw the tall rectangles from vertical lines
  65:..\..\..\lvgl\version_6.1.2\lvgl\src\lv_draw/lv_draw_triangle.c ****      * and from the flat triangles from horizontal lines
  66:..\..\..\lvgl\version_6.1.2\lvgl\src\lv_draw/lv_draw_triangle.c ****      * to minimize the number of lines.
  67:..\..\..\lvgl\version_6.1.2\lvgl\src\lv_draw/lv_draw_triangle.c ****      * Some pixels are overdrawn on the common edges of the triangles
  68:..\..\..\lvgl\version_6.1.2\lvgl\src\lv_draw/lv_draw_triangle.c ****      * so use it only if the triangle has no opacity*/
  69:..\..\..\lvgl\version_6.1.2\lvgl\src\lv_draw/lv_draw_triangle.c **** 
  70:..\..\..\lvgl\version_6.1.2\lvgl\src\lv_draw/lv_draw_triangle.c ****     /* Draw from horizontal lines*/
  71:..\..\..\lvgl\version_6.1.2\lvgl\src\lv_draw/lv_draw_triangle.c ****     if(x_max - x_min < y_max - y_min) {
  72:..\..\..\lvgl\version_6.1.2\lvgl\src\lv_draw/lv_draw_triangle.c ****         tri_draw_tall(points, mask, style, opa);
  73:..\..\..\lvgl\version_6.1.2\lvgl\src\lv_draw/lv_draw_triangle.c ****     }
  74:..\..\..\lvgl\version_6.1.2\lvgl\src\lv_draw/lv_draw_triangle.c ****     /*Else flat so draw from vertical lines*/
  75:..\..\..\lvgl\version_6.1.2\lvgl\src\lv_draw/lv_draw_triangle.c ****     else {
  76:..\..\..\lvgl\version_6.1.2\lvgl\src\lv_draw/lv_draw_triangle.c ****         tri_draw_flat(points, mask, style, opa);
  77:..\..\..\lvgl\version_6.1.2\lvgl\src\lv_draw/lv_draw_triangle.c ****     }
  78:..\..\..\lvgl\version_6.1.2\lvgl\src\lv_draw/lv_draw_triangle.c **** }
  79:..\..\..\lvgl\version_6.1.2\lvgl\src\lv_draw/lv_draw_triangle.c **** 
  80:..\..\..\lvgl\version_6.1.2\lvgl\src\lv_draw/lv_draw_triangle.c **** /**
  81:..\..\..\lvgl\version_6.1.2\lvgl\src\lv_draw/lv_draw_triangle.c ****  * Draw a polygon from triangles. Only convex polygons are supported
  82:..\..\..\lvgl\version_6.1.2\lvgl\src\lv_draw/lv_draw_triangle.c ****  * @param points an array of points
  83:..\..\..\lvgl\version_6.1.2\lvgl\src\lv_draw/lv_draw_triangle.c ****  * @param point_cnt number of points
  84:..\..\..\lvgl\version_6.1.2\lvgl\src\lv_draw/lv_draw_triangle.c ****  * @param mask polygon will be drawn only in this mask
  85:..\..\..\lvgl\version_6.1.2\lvgl\src\lv_draw/lv_draw_triangle.c ****  * @param style style of the polygon
  86:..\..\..\lvgl\version_6.1.2\lvgl\src\lv_draw/lv_draw_triangle.c ****  * @param opa_scale scale down all opacities by the factor (0..255)
ARM GAS  C:\Users\pearlstl\AppData\Local\Temp\ccVE6Vs6.s 			page 3


  87:..\..\..\lvgl\version_6.1.2\lvgl\src\lv_draw/lv_draw_triangle.c ****  */
  88:..\..\..\lvgl\version_6.1.2\lvgl\src\lv_draw/lv_draw_triangle.c **** void lv_draw_polygon(const lv_point_t * points, uint32_t point_cnt, const lv_area_t * mask, const l
  89:..\..\..\lvgl\version_6.1.2\lvgl\src\lv_draw/lv_draw_triangle.c ****                      lv_opa_t opa_scale)
  90:..\..\..\lvgl\version_6.1.2\lvgl\src\lv_draw/lv_draw_triangle.c **** {
  91:..\..\..\lvgl\version_6.1.2\lvgl\src\lv_draw/lv_draw_triangle.c ****     if(point_cnt < 3) return;
  92:..\..\..\lvgl\version_6.1.2\lvgl\src\lv_draw/lv_draw_triangle.c ****     if(points == NULL) return;
  93:..\..\..\lvgl\version_6.1.2\lvgl\src\lv_draw/lv_draw_triangle.c **** 
  94:..\..\..\lvgl\version_6.1.2\lvgl\src\lv_draw/lv_draw_triangle.c ****     uint32_t i;
  95:..\..\..\lvgl\version_6.1.2\lvgl\src\lv_draw/lv_draw_triangle.c ****     lv_point_t tri[3];
  96:..\..\..\lvgl\version_6.1.2\lvgl\src\lv_draw/lv_draw_triangle.c ****     tri[0].x = points[0].x;
  97:..\..\..\lvgl\version_6.1.2\lvgl\src\lv_draw/lv_draw_triangle.c ****     tri[0].y = points[0].y;
  98:..\..\..\lvgl\version_6.1.2\lvgl\src\lv_draw/lv_draw_triangle.c ****     for(i = 0; i < point_cnt - 1; i++) {
  99:..\..\..\lvgl\version_6.1.2\lvgl\src\lv_draw/lv_draw_triangle.c ****         tri[1].x = points[i].x;
 100:..\..\..\lvgl\version_6.1.2\lvgl\src\lv_draw/lv_draw_triangle.c ****         tri[1].y = points[i].y;
 101:..\..\..\lvgl\version_6.1.2\lvgl\src\lv_draw/lv_draw_triangle.c ****         tri[2].x = points[i + 1].x;
 102:..\..\..\lvgl\version_6.1.2\lvgl\src\lv_draw/lv_draw_triangle.c ****         tri[2].y = points[i + 1].y;
 103:..\..\..\lvgl\version_6.1.2\lvgl\src\lv_draw/lv_draw_triangle.c ****         lv_draw_triangle(tri, mask, style, opa_scale);
 104:..\..\..\lvgl\version_6.1.2\lvgl\src\lv_draw/lv_draw_triangle.c ****     }
 105:..\..\..\lvgl\version_6.1.2\lvgl\src\lv_draw/lv_draw_triangle.c **** }
 106:..\..\..\lvgl\version_6.1.2\lvgl\src\lv_draw/lv_draw_triangle.c **** 
 107:..\..\..\lvgl\version_6.1.2\lvgl\src\lv_draw/lv_draw_triangle.c **** /**********************
 108:..\..\..\lvgl\version_6.1.2\lvgl\src\lv_draw/lv_draw_triangle.c ****  *   STATIC FUNCTIONS
 109:..\..\..\lvgl\version_6.1.2\lvgl\src\lv_draw/lv_draw_triangle.c ****  **********************/
 110:..\..\..\lvgl\version_6.1.2\lvgl\src\lv_draw/lv_draw_triangle.c **** 
 111:..\..\..\lvgl\version_6.1.2\lvgl\src\lv_draw/lv_draw_triangle.c **** void tri_draw_flat(const lv_point_t * points, const lv_area_t * mask, const lv_style_t * style, lv_
 112:..\..\..\lvgl\version_6.1.2\lvgl\src\lv_draw/lv_draw_triangle.c **** {
  29              		.loc 1 112 0
  30              		.cfi_startproc
  31              		@ args = 0, pretend = 0, frame = 120
  32              		@ frame_needed = 0, uses_anonymous_args = 0
  33              	.LVL0:
  34 0000 2DE9F04F 		push	{r4, r5, r6, r7, r8, r9, r10, fp, lr}
  35              		.cfi_def_cfa_offset 36
  36              		.cfi_offset 4, -36
  37              		.cfi_offset 5, -32
  38              		.cfi_offset 6, -28
  39              		.cfi_offset 7, -24
  40              		.cfi_offset 8, -20
  41              		.cfi_offset 9, -16
  42              		.cfi_offset 10, -12
  43              		.cfi_offset 11, -8
  44              		.cfi_offset 14, -4
  45 0004 0D46     		mov	r5, r1
  46 0006 9FB0     		sub	sp, sp, #124
  47              		.cfi_def_cfa_offset 160
 113:..\..\..\lvgl\version_6.1.2\lvgl\src\lv_draw/lv_draw_triangle.c ****     /*Return if the points are out of the mask*/
 114:..\..\..\lvgl\version_6.1.2\lvgl\src\lv_draw/lv_draw_triangle.c ****     if(points[0].x < mask->x1 && points[1].x < mask->x1 && points[2].x < mask->x1) {
  48              		.loc 1 114 0
  49 0008 B0F90010 		ldrsh	r1, [r0]
  50              	.LVL1:
  51 000c 0491     		str	r1, [sp, #16]
 112:..\..\..\lvgl\version_6.1.2\lvgl\src\lv_draw/lv_draw_triangle.c ****     /*Return if the points are out of the mask*/
  52              		.loc 1 112 0
  53 000e 0446     		mov	r4, r0
  54              		.loc 1 114 0
  55 0010 0846     		mov	r0, r1
  56              	.LVL2:
ARM GAS  C:\Users\pearlstl\AppData\Local\Temp\ccVE6Vs6.s 			page 4


  57 0012 B5F90010 		ldrsh	r1, [r5]
  58 0016 8842     		cmp	r0, r1
 112:..\..\..\lvgl\version_6.1.2\lvgl\src\lv_draw/lv_draw_triangle.c ****     /*Return if the points are out of the mask*/
  59              		.loc 1 112 0
  60 0018 9646     		mov	lr, r2
  61              		.loc 1 114 0
  62 001a 08DA     		bge	.L2
  63              		.loc 1 114 0 is_stmt 0 discriminator 1
  64 001c B4F90420 		ldrsh	r2, [r4, #4]
  65              	.LVL3:
  66 0020 8A42     		cmp	r2, r1
  67 0022 04DA     		bge	.L2
  68              		.loc 1 114 0 discriminator 2
  69 0024 B4F90820 		ldrsh	r2, [r4, #8]
  70 0028 8A42     		cmp	r2, r1
  71 002a C0F27581 		blt	.L1
  72              	.L2:
 115:..\..\..\lvgl\version_6.1.2\lvgl\src\lv_draw/lv_draw_triangle.c ****         return;
 116:..\..\..\lvgl\version_6.1.2\lvgl\src\lv_draw/lv_draw_triangle.c ****     }
 117:..\..\..\lvgl\version_6.1.2\lvgl\src\lv_draw/lv_draw_triangle.c **** 
 118:..\..\..\lvgl\version_6.1.2\lvgl\src\lv_draw/lv_draw_triangle.c ****     if(points[0].x > mask->x2 && points[1].x > mask->x2 && points[2].x > mask->x2) {
  73              		.loc 1 118 0 is_stmt 1
  74 002e B5F90420 		ldrsh	r2, [r5, #4]
  75 0032 0499     		ldr	r1, [sp, #16]
  76 0034 9142     		cmp	r1, r2
  77 0036 08DD     		ble	.L4
  78              		.loc 1 118 0 is_stmt 0 discriminator 1
  79 0038 B4F90410 		ldrsh	r1, [r4, #4]
  80 003c 9142     		cmp	r1, r2
  81 003e 04DD     		ble	.L4
  82              		.loc 1 118 0 discriminator 2
  83 0040 B4F90810 		ldrsh	r1, [r4, #8]
  84 0044 9142     		cmp	r1, r2
  85 0046 00F36781 		bgt	.L1
  86              	.L4:
 119:..\..\..\lvgl\version_6.1.2\lvgl\src\lv_draw/lv_draw_triangle.c ****         return;
 120:..\..\..\lvgl\version_6.1.2\lvgl\src\lv_draw/lv_draw_triangle.c ****     }
 121:..\..\..\lvgl\version_6.1.2\lvgl\src\lv_draw/lv_draw_triangle.c **** 
 122:..\..\..\lvgl\version_6.1.2\lvgl\src\lv_draw/lv_draw_triangle.c ****     if(points[0].y < mask->y1 && points[1].y < mask->y1 && points[2].y < mask->y1) {
  87              		.loc 1 122 0 is_stmt 1
  88 004a B4F90220 		ldrsh	r2, [r4, #2]
  89 004e 0292     		str	r2, [sp, #8]
  90 0050 1146     		mov	r1, r2
  91 0052 B5F90220 		ldrsh	r2, [r5, #2]
  92 0056 9142     		cmp	r1, r2
  93 0058 08DA     		bge	.L5
  94              		.loc 1 122 0 is_stmt 0 discriminator 1
  95 005a B4F90610 		ldrsh	r1, [r4, #6]
  96 005e 9142     		cmp	r1, r2
  97 0060 04DA     		bge	.L5
  98              		.loc 1 122 0 discriminator 2
  99 0062 B4F90A10 		ldrsh	r1, [r4, #10]
 100 0066 9142     		cmp	r1, r2
 101 0068 C0F25681 		blt	.L1
 102              	.L5:
 123:..\..\..\lvgl\version_6.1.2\lvgl\src\lv_draw/lv_draw_triangle.c ****         return;
 124:..\..\..\lvgl\version_6.1.2\lvgl\src\lv_draw/lv_draw_triangle.c ****     }
ARM GAS  C:\Users\pearlstl\AppData\Local\Temp\ccVE6Vs6.s 			page 5


 125:..\..\..\lvgl\version_6.1.2\lvgl\src\lv_draw/lv_draw_triangle.c **** 
 126:..\..\..\lvgl\version_6.1.2\lvgl\src\lv_draw/lv_draw_triangle.c ****     if(points[0].y > mask->y2 && points[1].y > mask->y2 && points[2].y > mask->y2) {
 103              		.loc 1 126 0 is_stmt 1
 104 006c B5F90620 		ldrsh	r2, [r5, #6]
 105 0070 0299     		ldr	r1, [sp, #8]
 106 0072 9142     		cmp	r1, r2
 107 0074 08DD     		ble	.L6
 108              		.loc 1 126 0 is_stmt 0 discriminator 1
 109 0076 B4F90610 		ldrsh	r1, [r4, #6]
 110 007a 9142     		cmp	r1, r2
 111 007c 04DD     		ble	.L6
 112              		.loc 1 126 0 discriminator 2
 113 007e B4F90A10 		ldrsh	r1, [r4, #10]
 114 0082 9142     		cmp	r1, r2
 115 0084 00F34881 		bgt	.L1
 116              	.L6:
 127:..\..\..\lvgl\version_6.1.2\lvgl\src\lv_draw/lv_draw_triangle.c ****         return;
 128:..\..\..\lvgl\version_6.1.2\lvgl\src\lv_draw/lv_draw_triangle.c ****     }
 129:..\..\..\lvgl\version_6.1.2\lvgl\src\lv_draw/lv_draw_triangle.c **** 
 130:..\..\..\lvgl\version_6.1.2\lvgl\src\lv_draw/lv_draw_triangle.c ****     lv_point_t tri[3];
 131:..\..\..\lvgl\version_6.1.2\lvgl\src\lv_draw/lv_draw_triangle.c **** 
 132:..\..\..\lvgl\version_6.1.2\lvgl\src\lv_draw/lv_draw_triangle.c ****     memcpy(tri, points, sizeof(tri));
 117              		.loc 1 132 0 is_stmt 1
 118 0088 6168     		ldr	r1, [r4, #4]	@ unaligned
 119 008a A268     		ldr	r2, [r4, #8]	@ unaligned
 120 008c 2068     		ldr	r0, [r4]	@ unaligned
 121 008e 1BAC     		add	r4, sp, #108
 122              	.LVL4:
 123 0090 07C4     		stmia	r4!, {r0, r1, r2}
 133:..\..\..\lvgl\version_6.1.2\lvgl\src\lv_draw/lv_draw_triangle.c **** 
 134:..\..\..\lvgl\version_6.1.2\lvgl\src\lv_draw/lv_draw_triangle.c ****     /*Sort the vertices according to their y coordinate (0: y max, 1: y mid, 2:y min)*/
 135:..\..\..\lvgl\version_6.1.2\lvgl\src\lv_draw/lv_draw_triangle.c ****     if(tri[1].y < tri[0].y) point_swap(&tri[1], &tri[0]);
 124              		.loc 1 135 0
 125 0092 0299     		ldr	r1, [sp, #8]
 126 0094 BDF97220 		ldrsh	r2, [sp, #114]
 127 0098 9142     		cmp	r1, r2
 128 009a 00F32E81 		bgt	.L7
 129 009e 0292     		str	r2, [sp, #8]
 130 00a0 BDF97020 		ldrsh	r2, [sp, #112]
 131 00a4 0492     		str	r2, [sp, #16]
 132 00a6 BDF96C10 		ldrsh	r1, [sp, #108]
 133 00aa BDF96E20 		ldrsh	r2, [sp, #110]
 134              	.L8:
 136:..\..\..\lvgl\version_6.1.2\lvgl\src\lv_draw/lv_draw_triangle.c ****     if(tri[2].y < tri[1].y) point_swap(&tri[2], &tri[1]);
 135              		.loc 1 136 0
 136 00ae BDF97600 		ldrsh	r0, [sp, #118]
 137 00b2 029F     		ldr	r7, [sp, #8]
 138 00b4 0390     		str	r0, [sp, #12]
 139 00b6 B842     		cmp	r0, r7
 140 00b8 3E46     		mov	r6, r7
 141 00ba C0F26081 		blt	.L9
 142 00be 049C     		ldr	r4, [sp, #16]
 143 00c0 0594     		str	r4, [sp, #20]
 144 00c2 BDF97440 		ldrsh	r4, [sp, #116]
 145 00c6 0397     		str	r7, [sp, #12]
 146 00c8 0494     		str	r4, [sp, #16]
 147 00ca 0290     		str	r0, [sp, #8]
ARM GAS  C:\Users\pearlstl\AppData\Local\Temp\ccVE6Vs6.s 			page 6


 148              	.L10:
 137:..\..\..\lvgl\version_6.1.2\lvgl\src\lv_draw/lv_draw_triangle.c ****     if(tri[1].y < tri[0].y) point_swap(&tri[1], &tri[0]);
 149              		.loc 1 137 0
 150 00cc B242     		cmp	r2, r6
 151 00ce 40F35181 		ble	.L53
 152              	.LVL5:
 153 00d2 0024     		movs	r4, #0
 154 00d4 059F     		ldr	r7, [sp, #20]
 155              	.LBB14:
 156              	.LBB15:
 138:..\..\..\lvgl\version_6.1.2\lvgl\src\lv_draw/lv_draw_triangle.c **** 
 139:..\..\..\lvgl\version_6.1.2\lvgl\src\lv_draw/lv_draw_triangle.c ****     /*Draw the triangle*/
 140:..\..\..\lvgl\version_6.1.2\lvgl\src\lv_draw/lv_draw_triangle.c ****     lv_point_t edge1;
 141:..\..\..\lvgl\version_6.1.2\lvgl\src\lv_draw/lv_draw_triangle.c ****     lv_coord_t dx1  = LV_MATH_ABS(tri[0].x - tri[1].x);
 142:..\..\..\lvgl\version_6.1.2\lvgl\src\lv_draw/lv_draw_triangle.c ****     lv_coord_t sx1  = tri[0].x < tri[1].x ? 1 : -1;
 143:..\..\..\lvgl\version_6.1.2\lvgl\src\lv_draw/lv_draw_triangle.c ****     lv_coord_t dy1  = LV_MATH_ABS(tri[0].y - tri[1].y);
 144:..\..\..\lvgl\version_6.1.2\lvgl\src\lv_draw/lv_draw_triangle.c ****     lv_coord_t sy1  = tri[0].y < tri[1].y ? 1 : -1;
 145:..\..\..\lvgl\version_6.1.2\lvgl\src\lv_draw/lv_draw_triangle.c ****     lv_coord_t err1 = (dx1 > dy1 ? dx1 : -dy1) / 2;
 146:..\..\..\lvgl\version_6.1.2\lvgl\src\lv_draw/lv_draw_triangle.c ****     lv_coord_t err_tmp1;
 147:..\..\..\lvgl\version_6.1.2\lvgl\src\lv_draw/lv_draw_triangle.c **** 
 148:..\..\..\lvgl\version_6.1.2\lvgl\src\lv_draw/lv_draw_triangle.c ****     lv_point_t edge2;
 149:..\..\..\lvgl\version_6.1.2\lvgl\src\lv_draw/lv_draw_triangle.c ****     lv_coord_t dx2  = LV_MATH_ABS(tri[0].x - tri[2].x);
 150:..\..\..\lvgl\version_6.1.2\lvgl\src\lv_draw/lv_draw_triangle.c ****     lv_coord_t sx2  = tri[0].x < tri[2].x ? 1 : -1;
 151:..\..\..\lvgl\version_6.1.2\lvgl\src\lv_draw/lv_draw_triangle.c ****     lv_coord_t dy2  = LV_MATH_ABS(tri[0].y - tri[2].y);
 152:..\..\..\lvgl\version_6.1.2\lvgl\src\lv_draw/lv_draw_triangle.c ****     lv_coord_t sy2  = tri[0].y < tri[2].y ? 1 : -1;
 153:..\..\..\lvgl\version_6.1.2\lvgl\src\lv_draw/lv_draw_triangle.c ****     lv_coord_t err2 = (dx1 > dy2 ? dx2 : -dy2) / 2;
 154:..\..\..\lvgl\version_6.1.2\lvgl\src\lv_draw/lv_draw_triangle.c ****     lv_coord_t err_tmp2;
 155:..\..\..\lvgl\version_6.1.2\lvgl\src\lv_draw/lv_draw_triangle.c **** 
 156:..\..\..\lvgl\version_6.1.2\lvgl\src\lv_draw/lv_draw_triangle.c ****     lv_coord_t y1_tmp;
 157:..\..\..\lvgl\version_6.1.2\lvgl\src\lv_draw/lv_draw_triangle.c ****     lv_coord_t y2_tmp;
 158:..\..\..\lvgl\version_6.1.2\lvgl\src\lv_draw/lv_draw_triangle.c **** 
 159:..\..\..\lvgl\version_6.1.2\lvgl\src\lv_draw/lv_draw_triangle.c ****     edge1.x = tri[0].x;
 160:..\..\..\lvgl\version_6.1.2\lvgl\src\lv_draw/lv_draw_triangle.c ****     edge1.y = tri[0].y;
 161:..\..\..\lvgl\version_6.1.2\lvgl\src\lv_draw/lv_draw_triangle.c ****     edge2.x = tri[0].x;
 162:..\..\..\lvgl\version_6.1.2\lvgl\src\lv_draw/lv_draw_triangle.c ****     edge2.y = tri[0].y;
 163:..\..\..\lvgl\version_6.1.2\lvgl\src\lv_draw/lv_draw_triangle.c ****     lv_area_t act_area;
 164:..\..\..\lvgl\version_6.1.2\lvgl\src\lv_draw/lv_draw_triangle.c ****     lv_area_t draw_area;
 165:..\..\..\lvgl\version_6.1.2\lvgl\src\lv_draw/lv_draw_triangle.c **** 
 166:..\..\..\lvgl\version_6.1.2\lvgl\src\lv_draw/lv_draw_triangle.c ****     while(1) {
 167:..\..\..\lvgl\version_6.1.2\lvgl\src\lv_draw/lv_draw_triangle.c ****         act_area.x1 = edge1.x;
 168:..\..\..\lvgl\version_6.1.2\lvgl\src\lv_draw/lv_draw_triangle.c ****         act_area.x2 = edge2.x;
 169:..\..\..\lvgl\version_6.1.2\lvgl\src\lv_draw/lv_draw_triangle.c ****         act_area.y1 = edge1.y;
 170:..\..\..\lvgl\version_6.1.2\lvgl\src\lv_draw/lv_draw_triangle.c ****         act_area.y2 = edge2.y;
 171:..\..\..\lvgl\version_6.1.2\lvgl\src\lv_draw/lv_draw_triangle.c **** 
 172:..\..\..\lvgl\version_6.1.2\lvgl\src\lv_draw/lv_draw_triangle.c ****         /* Get the area of a line.
 173:..\..\..\lvgl\version_6.1.2\lvgl\src\lv_draw/lv_draw_triangle.c ****          * Adjust it a little bit to perfectly match (no redrawn pixels) with the adjacent triangle
 174:..\..\..\lvgl\version_6.1.2\lvgl\src\lv_draw/lv_draw_triangle.c ****         draw_area.x1 = LV_MATH_MIN(act_area.x1, act_area.x2) + 1;
 175:..\..\..\lvgl\version_6.1.2\lvgl\src\lv_draw/lv_draw_triangle.c ****         draw_area.x2 = LV_MATH_MAX(act_area.x1, act_area.x2);
 176:..\..\..\lvgl\version_6.1.2\lvgl\src\lv_draw/lv_draw_triangle.c ****         draw_area.y1 = LV_MATH_MIN(act_area.y1, act_area.y2) - 1;
 177:..\..\..\lvgl\version_6.1.2\lvgl\src\lv_draw/lv_draw_triangle.c ****         draw_area.y2 = LV_MATH_MAX(act_area.y1, act_area.y2) - 1;
 178:..\..\..\lvgl\version_6.1.2\lvgl\src\lv_draw/lv_draw_triangle.c **** 
 179:..\..\..\lvgl\version_6.1.2\lvgl\src\lv_draw/lv_draw_triangle.c ****         lv_draw_fill(&draw_area, mask, style->body.main_color, opa);
 180:..\..\..\lvgl\version_6.1.2\lvgl\src\lv_draw/lv_draw_triangle.c **** 
 181:..\..\..\lvgl\version_6.1.2\lvgl\src\lv_draw/lv_draw_triangle.c ****         /*Calc. the next point of edge1*/
 182:..\..\..\lvgl\version_6.1.2\lvgl\src\lv_draw/lv_draw_triangle.c ****         y1_tmp = edge1.y;
 183:..\..\..\lvgl\version_6.1.2\lvgl\src\lv_draw/lv_draw_triangle.c ****         do {
 184:..\..\..\lvgl\version_6.1.2\lvgl\src\lv_draw/lv_draw_triangle.c ****             if(edge1.x == tri[1].x && edge1.y == tri[1].y) {
ARM GAS  C:\Users\pearlstl\AppData\Local\Temp\ccVE6Vs6.s 			page 7


 185:..\..\..\lvgl\version_6.1.2\lvgl\src\lv_draw/lv_draw_triangle.c **** 
 186:..\..\..\lvgl\version_6.1.2\lvgl\src\lv_draw/lv_draw_triangle.c ****                 dx1  = LV_MATH_ABS(tri[1].x - tri[2].x);
 187:..\..\..\lvgl\version_6.1.2\lvgl\src\lv_draw/lv_draw_triangle.c ****                 sx1  = tri[1].x < tri[2].x ? 1 : -1;
 188:..\..\..\lvgl\version_6.1.2\lvgl\src\lv_draw/lv_draw_triangle.c ****                 dy1  = LV_MATH_ABS(tri[1].y - tri[2].y);
 189:..\..\..\lvgl\version_6.1.2\lvgl\src\lv_draw/lv_draw_triangle.c ****                 sy1  = tri[1].y < tri[2].y ? 1 : -1;
 190:..\..\..\lvgl\version_6.1.2\lvgl\src\lv_draw/lv_draw_triangle.c ****                 err1 = (dx1 > dy1 ? dx1 : -dy1) / 2;
 191:..\..\..\lvgl\version_6.1.2\lvgl\src\lv_draw/lv_draw_triangle.c ****             } else if(edge1.x == tri[2].x && edge1.y == tri[2].y) {
 192:..\..\..\lvgl\version_6.1.2\lvgl\src\lv_draw/lv_draw_triangle.c ****                 return;
 193:..\..\..\lvgl\version_6.1.2\lvgl\src\lv_draw/lv_draw_triangle.c ****             }
 194:..\..\..\lvgl\version_6.1.2\lvgl\src\lv_draw/lv_draw_triangle.c ****             err_tmp1 = err1;
 195:..\..\..\lvgl\version_6.1.2\lvgl\src\lv_draw/lv_draw_triangle.c ****             if(err_tmp1 > -dx1) {
 196:..\..\..\lvgl\version_6.1.2\lvgl\src\lv_draw/lv_draw_triangle.c ****                 err1 -= dy1;
 197:..\..\..\lvgl\version_6.1.2\lvgl\src\lv_draw/lv_draw_triangle.c ****                 edge1.x += sx1;
 198:..\..\..\lvgl\version_6.1.2\lvgl\src\lv_draw/lv_draw_triangle.c ****             }
 199:..\..\..\lvgl\version_6.1.2\lvgl\src\lv_draw/lv_draw_triangle.c ****             if(err_tmp1 < dy1) {
 200:..\..\..\lvgl\version_6.1.2\lvgl\src\lv_draw/lv_draw_triangle.c ****                 err1 += dx1;
 201:..\..\..\lvgl\version_6.1.2\lvgl\src\lv_draw/lv_draw_triangle.c ****                 edge1.y += sy1;
 202:..\..\..\lvgl\version_6.1.2\lvgl\src\lv_draw/lv_draw_triangle.c ****             }
 203:..\..\..\lvgl\version_6.1.2\lvgl\src\lv_draw/lv_draw_triangle.c ****         } while(edge1.y == y1_tmp);
 204:..\..\..\lvgl\version_6.1.2\lvgl\src\lv_draw/lv_draw_triangle.c **** 
 205:..\..\..\lvgl\version_6.1.2\lvgl\src\lv_draw/lv_draw_triangle.c ****         /*Calc. the next point of edge2*/
 206:..\..\..\lvgl\version_6.1.2\lvgl\src\lv_draw/lv_draw_triangle.c ****         y2_tmp = edge2.y;
 207:..\..\..\lvgl\version_6.1.2\lvgl\src\lv_draw/lv_draw_triangle.c ****         do {
 208:..\..\..\lvgl\version_6.1.2\lvgl\src\lv_draw/lv_draw_triangle.c ****             if(edge2.x == tri[2].x && edge2.y == tri[2].y) return;
 209:..\..\..\lvgl\version_6.1.2\lvgl\src\lv_draw/lv_draw_triangle.c ****             err_tmp2 = err2;
 210:..\..\..\lvgl\version_6.1.2\lvgl\src\lv_draw/lv_draw_triangle.c ****             if(err_tmp2 > -dx2) {
 211:..\..\..\lvgl\version_6.1.2\lvgl\src\lv_draw/lv_draw_triangle.c ****                 err2 -= dy2;
 212:..\..\..\lvgl\version_6.1.2\lvgl\src\lv_draw/lv_draw_triangle.c ****                 edge2.x += sx2;
 213:..\..\..\lvgl\version_6.1.2\lvgl\src\lv_draw/lv_draw_triangle.c ****             }
 214:..\..\..\lvgl\version_6.1.2\lvgl\src\lv_draw/lv_draw_triangle.c ****             if(err_tmp2 < dy2) {
 215:..\..\..\lvgl\version_6.1.2\lvgl\src\lv_draw/lv_draw_triangle.c ****                 err2 += dx2;
 216:..\..\..\lvgl\version_6.1.2\lvgl\src\lv_draw/lv_draw_triangle.c ****                 edge2.y += sy2;
 217:..\..\..\lvgl\version_6.1.2\lvgl\src\lv_draw/lv_draw_triangle.c ****             }
 218:..\..\..\lvgl\version_6.1.2\lvgl\src\lv_draw/lv_draw_triangle.c ****         } while(edge2.y == y2_tmp);
 219:..\..\..\lvgl\version_6.1.2\lvgl\src\lv_draw/lv_draw_triangle.c ****     }
 220:..\..\..\lvgl\version_6.1.2\lvgl\src\lv_draw/lv_draw_triangle.c **** }
 221:..\..\..\lvgl\version_6.1.2\lvgl\src\lv_draw/lv_draw_triangle.c **** 
 222:..\..\..\lvgl\version_6.1.2\lvgl\src\lv_draw/lv_draw_triangle.c **** void tri_draw_tall(const lv_point_t * points, const lv_area_t * mask, const lv_style_t * style, lv_
 223:..\..\..\lvgl\version_6.1.2\lvgl\src\lv_draw/lv_draw_triangle.c **** {
 224:..\..\..\lvgl\version_6.1.2\lvgl\src\lv_draw/lv_draw_triangle.c ****     /*
 225:..\..\..\lvgl\version_6.1.2\lvgl\src\lv_draw/lv_draw_triangle.c ****      * Better to draw from vertical lines
 226:..\..\..\lvgl\version_6.1.2\lvgl\src\lv_draw/lv_draw_triangle.c ****      * |\
 227:..\..\..\lvgl\version_6.1.2\lvgl\src\lv_draw/lv_draw_triangle.c ****      * | |
 228:..\..\..\lvgl\version_6.1.2\lvgl\src\lv_draw/lv_draw_triangle.c ****      * | |
 229:..\..\..\lvgl\version_6.1.2\lvgl\src\lv_draw/lv_draw_triangle.c ****      * |  \
 230:..\..\..\lvgl\version_6.1.2\lvgl\src\lv_draw/lv_draw_triangle.c ****      * |   |
 231:..\..\..\lvgl\version_6.1.2\lvgl\src\lv_draw/lv_draw_triangle.c ****      * |___|
 232:..\..\..\lvgl\version_6.1.2\lvgl\src\lv_draw/lv_draw_triangle.c ****      */
 233:..\..\..\lvgl\version_6.1.2\lvgl\src\lv_draw/lv_draw_triangle.c **** 
 234:..\..\..\lvgl\version_6.1.2\lvgl\src\lv_draw/lv_draw_triangle.c ****     lv_point_t tri[3];
 235:..\..\..\lvgl\version_6.1.2\lvgl\src\lv_draw/lv_draw_triangle.c **** 
 236:..\..\..\lvgl\version_6.1.2\lvgl\src\lv_draw/lv_draw_triangle.c ****     memcpy(tri, points, sizeof(tri));
 237:..\..\..\lvgl\version_6.1.2\lvgl\src\lv_draw/lv_draw_triangle.c **** 
 238:..\..\..\lvgl\version_6.1.2\lvgl\src\lv_draw/lv_draw_triangle.c ****     /*Sort the vertices according to their x coordinate (0: x max, 1: x mid, 2:x min)*/
 239:..\..\..\lvgl\version_6.1.2\lvgl\src\lv_draw/lv_draw_triangle.c ****     if(tri[1].x < tri[0].x) point_swap(&tri[1], &tri[0]);
 240:..\..\..\lvgl\version_6.1.2\lvgl\src\lv_draw/lv_draw_triangle.c ****     if(tri[2].x < tri[1].x) point_swap(&tri[2], &tri[1]);
 241:..\..\..\lvgl\version_6.1.2\lvgl\src\lv_draw/lv_draw_triangle.c ****     if(tri[1].x < tri[0].x) point_swap(&tri[1], &tri[0]);
ARM GAS  C:\Users\pearlstl\AppData\Local\Temp\ccVE6Vs6.s 			page 8


 242:..\..\..\lvgl\version_6.1.2\lvgl\src\lv_draw/lv_draw_triangle.c **** 
 243:..\..\..\lvgl\version_6.1.2\lvgl\src\lv_draw/lv_draw_triangle.c ****     /*Draw the triangle*/
 244:..\..\..\lvgl\version_6.1.2\lvgl\src\lv_draw/lv_draw_triangle.c ****     lv_point_t edge1;
 245:..\..\..\lvgl\version_6.1.2\lvgl\src\lv_draw/lv_draw_triangle.c ****     lv_coord_t dx1  = LV_MATH_ABS(tri[0].x - tri[1].x);
 246:..\..\..\lvgl\version_6.1.2\lvgl\src\lv_draw/lv_draw_triangle.c ****     lv_coord_t sx1  = tri[0].x < tri[1].x ? 1 : -1;
 247:..\..\..\lvgl\version_6.1.2\lvgl\src\lv_draw/lv_draw_triangle.c ****     lv_coord_t dy1  = LV_MATH_ABS(tri[0].y - tri[1].y);
 248:..\..\..\lvgl\version_6.1.2\lvgl\src\lv_draw/lv_draw_triangle.c ****     lv_coord_t sy1  = tri[0].y < tri[1].y ? 1 : -1;
 249:..\..\..\lvgl\version_6.1.2\lvgl\src\lv_draw/lv_draw_triangle.c ****     lv_coord_t err1 = (dx1 > dy1 ? dx1 : -dy1) / 2;
 250:..\..\..\lvgl\version_6.1.2\lvgl\src\lv_draw/lv_draw_triangle.c ****     lv_coord_t err_tmp1;
 251:..\..\..\lvgl\version_6.1.2\lvgl\src\lv_draw/lv_draw_triangle.c **** 
 252:..\..\..\lvgl\version_6.1.2\lvgl\src\lv_draw/lv_draw_triangle.c ****     lv_point_t edge2;
 253:..\..\..\lvgl\version_6.1.2\lvgl\src\lv_draw/lv_draw_triangle.c ****     lv_coord_t dx2  = LV_MATH_ABS(tri[0].x - tri[2].x);
 254:..\..\..\lvgl\version_6.1.2\lvgl\src\lv_draw/lv_draw_triangle.c ****     lv_coord_t sx2  = tri[0].x < tri[2].x ? 1 : -1;
 255:..\..\..\lvgl\version_6.1.2\lvgl\src\lv_draw/lv_draw_triangle.c ****     lv_coord_t dy2  = LV_MATH_ABS(tri[0].y - tri[2].y);
 256:..\..\..\lvgl\version_6.1.2\lvgl\src\lv_draw/lv_draw_triangle.c ****     lv_coord_t sy2  = tri[0].y < tri[2].y ? 1 : -1;
 257:..\..\..\lvgl\version_6.1.2\lvgl\src\lv_draw/lv_draw_triangle.c ****     lv_coord_t err2 = (dx1 > dy2 ? dx2 : -dy2) / 2;
 258:..\..\..\lvgl\version_6.1.2\lvgl\src\lv_draw/lv_draw_triangle.c ****     lv_coord_t err_tmp2;
 259:..\..\..\lvgl\version_6.1.2\lvgl\src\lv_draw/lv_draw_triangle.c **** 
 260:..\..\..\lvgl\version_6.1.2\lvgl\src\lv_draw/lv_draw_triangle.c ****     lv_coord_t x1_tmp;
 261:..\..\..\lvgl\version_6.1.2\lvgl\src\lv_draw/lv_draw_triangle.c ****     lv_coord_t x2_tmp;
 262:..\..\..\lvgl\version_6.1.2\lvgl\src\lv_draw/lv_draw_triangle.c **** 
 263:..\..\..\lvgl\version_6.1.2\lvgl\src\lv_draw/lv_draw_triangle.c ****     edge1.x = tri[0].x;
 264:..\..\..\lvgl\version_6.1.2\lvgl\src\lv_draw/lv_draw_triangle.c ****     edge1.y = tri[0].y;
 265:..\..\..\lvgl\version_6.1.2\lvgl\src\lv_draw/lv_draw_triangle.c ****     edge2.x = tri[0].x;
 266:..\..\..\lvgl\version_6.1.2\lvgl\src\lv_draw/lv_draw_triangle.c ****     edge2.y = tri[0].y;
 267:..\..\..\lvgl\version_6.1.2\lvgl\src\lv_draw/lv_draw_triangle.c ****     lv_area_t act_area;
 268:..\..\..\lvgl\version_6.1.2\lvgl\src\lv_draw/lv_draw_triangle.c ****     lv_area_t draw_area;
 269:..\..\..\lvgl\version_6.1.2\lvgl\src\lv_draw/lv_draw_triangle.c **** 
 270:..\..\..\lvgl\version_6.1.2\lvgl\src\lv_draw/lv_draw_triangle.c ****     while(1) {
 271:..\..\..\lvgl\version_6.1.2\lvgl\src\lv_draw/lv_draw_triangle.c ****         act_area.x1 = edge1.x;
 272:..\..\..\lvgl\version_6.1.2\lvgl\src\lv_draw/lv_draw_triangle.c ****         act_area.x2 = edge2.x;
 273:..\..\..\lvgl\version_6.1.2\lvgl\src\lv_draw/lv_draw_triangle.c ****         act_area.y1 = edge1.y;
 274:..\..\..\lvgl\version_6.1.2\lvgl\src\lv_draw/lv_draw_triangle.c ****         act_area.y2 = edge2.y;
 275:..\..\..\lvgl\version_6.1.2\lvgl\src\lv_draw/lv_draw_triangle.c **** 
 276:..\..\..\lvgl\version_6.1.2\lvgl\src\lv_draw/lv_draw_triangle.c ****         draw_area.x1 = LV_MATH_MIN(act_area.x1, act_area.x2);
 277:..\..\..\lvgl\version_6.1.2\lvgl\src\lv_draw/lv_draw_triangle.c ****         draw_area.x2 = LV_MATH_MAX(act_area.x1, act_area.x2);
 278:..\..\..\lvgl\version_6.1.2\lvgl\src\lv_draw/lv_draw_triangle.c ****         draw_area.y1 = LV_MATH_MIN(act_area.y1, act_area.y2);
 279:..\..\..\lvgl\version_6.1.2\lvgl\src\lv_draw/lv_draw_triangle.c ****         draw_area.y2 = LV_MATH_MAX(act_area.y1, act_area.y2) - 1;
 280:..\..\..\lvgl\version_6.1.2\lvgl\src\lv_draw/lv_draw_triangle.c **** 
 281:..\..\..\lvgl\version_6.1.2\lvgl\src\lv_draw/lv_draw_triangle.c ****         lv_draw_fill(&draw_area, mask, style->body.main_color, opa);
 282:..\..\..\lvgl\version_6.1.2\lvgl\src\lv_draw/lv_draw_triangle.c **** 
 283:..\..\..\lvgl\version_6.1.2\lvgl\src\lv_draw/lv_draw_triangle.c ****         /*Calc. the next point of edge1*/
 284:..\..\..\lvgl\version_6.1.2\lvgl\src\lv_draw/lv_draw_triangle.c ****         x1_tmp = edge1.x;
 285:..\..\..\lvgl\version_6.1.2\lvgl\src\lv_draw/lv_draw_triangle.c ****         do {
 286:..\..\..\lvgl\version_6.1.2\lvgl\src\lv_draw/lv_draw_triangle.c ****             if(edge1.y == tri[1].y && edge1.x == tri[1].x) {
 287:..\..\..\lvgl\version_6.1.2\lvgl\src\lv_draw/lv_draw_triangle.c **** 
 288:..\..\..\lvgl\version_6.1.2\lvgl\src\lv_draw/lv_draw_triangle.c ****                 dx1  = LV_MATH_ABS(tri[1].x - tri[2].x);
 289:..\..\..\lvgl\version_6.1.2\lvgl\src\lv_draw/lv_draw_triangle.c ****                 sx1  = tri[1].x < tri[2].x ? 1 : -1;
 290:..\..\..\lvgl\version_6.1.2\lvgl\src\lv_draw/lv_draw_triangle.c ****                 dy1  = LV_MATH_ABS(tri[1].y - tri[2].y);
 291:..\..\..\lvgl\version_6.1.2\lvgl\src\lv_draw/lv_draw_triangle.c ****                 sy1  = tri[1].y < tri[2].y ? 1 : -1;
 292:..\..\..\lvgl\version_6.1.2\lvgl\src\lv_draw/lv_draw_triangle.c ****                 err1 = (dx1 > dy1 ? dx1 : -dy1) / 2;
 293:..\..\..\lvgl\version_6.1.2\lvgl\src\lv_draw/lv_draw_triangle.c ****             } else if(edge1.y == tri[2].y && edge1.x == tri[2].x) {
 294:..\..\..\lvgl\version_6.1.2\lvgl\src\lv_draw/lv_draw_triangle.c ****                 return;
 295:..\..\..\lvgl\version_6.1.2\lvgl\src\lv_draw/lv_draw_triangle.c ****             }
 296:..\..\..\lvgl\version_6.1.2\lvgl\src\lv_draw/lv_draw_triangle.c ****             err_tmp1 = err1;
 297:..\..\..\lvgl\version_6.1.2\lvgl\src\lv_draw/lv_draw_triangle.c ****             if(err_tmp1 > -dx1) {
 298:..\..\..\lvgl\version_6.1.2\lvgl\src\lv_draw/lv_draw_triangle.c ****                 err1 -= dy1;
ARM GAS  C:\Users\pearlstl\AppData\Local\Temp\ccVE6Vs6.s 			page 9


 299:..\..\..\lvgl\version_6.1.2\lvgl\src\lv_draw/lv_draw_triangle.c ****                 edge1.x += sx1;
 300:..\..\..\lvgl\version_6.1.2\lvgl\src\lv_draw/lv_draw_triangle.c ****             }
 301:..\..\..\lvgl\version_6.1.2\lvgl\src\lv_draw/lv_draw_triangle.c ****             if(err_tmp1 < dy1) {
 302:..\..\..\lvgl\version_6.1.2\lvgl\src\lv_draw/lv_draw_triangle.c ****                 err1 += dx1;
 303:..\..\..\lvgl\version_6.1.2\lvgl\src\lv_draw/lv_draw_triangle.c ****                 edge1.y += sy1;
 304:..\..\..\lvgl\version_6.1.2\lvgl\src\lv_draw/lv_draw_triangle.c ****             }
 305:..\..\..\lvgl\version_6.1.2\lvgl\src\lv_draw/lv_draw_triangle.c ****         } while(edge1.x == x1_tmp);
 306:..\..\..\lvgl\version_6.1.2\lvgl\src\lv_draw/lv_draw_triangle.c **** 
 307:..\..\..\lvgl\version_6.1.2\lvgl\src\lv_draw/lv_draw_triangle.c ****         /*Calc. the next point of edge2*/
 308:..\..\..\lvgl\version_6.1.2\lvgl\src\lv_draw/lv_draw_triangle.c ****         x2_tmp = edge2.x;
 309:..\..\..\lvgl\version_6.1.2\lvgl\src\lv_draw/lv_draw_triangle.c ****         do {
 310:..\..\..\lvgl\version_6.1.2\lvgl\src\lv_draw/lv_draw_triangle.c ****             if(edge2.y == tri[2].y && edge2.x == tri[2].x) {
 311:..\..\..\lvgl\version_6.1.2\lvgl\src\lv_draw/lv_draw_triangle.c ****                 return;
 312:..\..\..\lvgl\version_6.1.2\lvgl\src\lv_draw/lv_draw_triangle.c ****             }
 313:..\..\..\lvgl\version_6.1.2\lvgl\src\lv_draw/lv_draw_triangle.c **** 
 314:..\..\..\lvgl\version_6.1.2\lvgl\src\lv_draw/lv_draw_triangle.c ****             err_tmp2 = err2;
 315:..\..\..\lvgl\version_6.1.2\lvgl\src\lv_draw/lv_draw_triangle.c ****             if(err_tmp2 > -dx2) {
 316:..\..\..\lvgl\version_6.1.2\lvgl\src\lv_draw/lv_draw_triangle.c ****                 err2 -= dy2;
 317:..\..\..\lvgl\version_6.1.2\lvgl\src\lv_draw/lv_draw_triangle.c ****                 edge2.x += sx2;
 318:..\..\..\lvgl\version_6.1.2\lvgl\src\lv_draw/lv_draw_triangle.c ****             }
 319:..\..\..\lvgl\version_6.1.2\lvgl\src\lv_draw/lv_draw_triangle.c ****             if(err_tmp2 < dy2) {
 320:..\..\..\lvgl\version_6.1.2\lvgl\src\lv_draw/lv_draw_triangle.c ****                 err2 += dx2;
 321:..\..\..\lvgl\version_6.1.2\lvgl\src\lv_draw/lv_draw_triangle.c ****                 edge2.y += sy2;
 322:..\..\..\lvgl\version_6.1.2\lvgl\src\lv_draw/lv_draw_triangle.c ****             }
 323:..\..\..\lvgl\version_6.1.2\lvgl\src\lv_draw/lv_draw_triangle.c ****         } while(edge2.x == x2_tmp);
 324:..\..\..\lvgl\version_6.1.2\lvgl\src\lv_draw/lv_draw_triangle.c ****     }
 325:..\..\..\lvgl\version_6.1.2\lvgl\src\lv_draw/lv_draw_triangle.c **** }
 326:..\..\..\lvgl\version_6.1.2\lvgl\src\lv_draw/lv_draw_triangle.c **** 
 327:..\..\..\lvgl\version_6.1.2\lvgl\src\lv_draw/lv_draw_triangle.c **** /**
 328:..\..\..\lvgl\version_6.1.2\lvgl\src\lv_draw/lv_draw_triangle.c ****  * Swap two points
 329:..\..\..\lvgl\version_6.1.2\lvgl\src\lv_draw/lv_draw_triangle.c ****  * p1 pointer to the first point
 330:..\..\..\lvgl\version_6.1.2\lvgl\src\lv_draw/lv_draw_triangle.c ****  * p2 pointer to the second point
 331:..\..\..\lvgl\version_6.1.2\lvgl\src\lv_draw/lv_draw_triangle.c ****  */
 332:..\..\..\lvgl\version_6.1.2\lvgl\src\lv_draw/lv_draw_triangle.c **** static void point_swap(lv_point_t * p1, lv_point_t * p2)
 333:..\..\..\lvgl\version_6.1.2\lvgl\src\lv_draw/lv_draw_triangle.c **** {
 334:..\..\..\lvgl\version_6.1.2\lvgl\src\lv_draw/lv_draw_triangle.c ****     lv_point_t tmp;
 335:..\..\..\lvgl\version_6.1.2\lvgl\src\lv_draw/lv_draw_triangle.c ****     tmp.x = p1->x;
 336:..\..\..\lvgl\version_6.1.2\lvgl\src\lv_draw/lv_draw_triangle.c ****     tmp.y = p1->y;
 337:..\..\..\lvgl\version_6.1.2\lvgl\src\lv_draw/lv_draw_triangle.c **** 
 338:..\..\..\lvgl\version_6.1.2\lvgl\src\lv_draw/lv_draw_triangle.c ****     p1->x = p2->x;
 339:..\..\..\lvgl\version_6.1.2\lvgl\src\lv_draw/lv_draw_triangle.c ****     p1->y = p2->y;
 340:..\..\..\lvgl\version_6.1.2\lvgl\src\lv_draw/lv_draw_triangle.c **** 
 341:..\..\..\lvgl\version_6.1.2\lvgl\src\lv_draw/lv_draw_triangle.c ****     p2->x = tmp.x;
 157              		.loc 1 341 0
 158 00d6 0392     		str	r2, [sp, #12]
 159 00d8 2046     		mov	r0, r4
 160 00da 61F30F00 		bfi	r0, r1, #0, #16
 161 00de 67F30F04 		bfi	r4, r7, #0, #16
 162 00e2 66F31F44 		bfi	r4, r6, #16, #16
 163 00e6 62F31F40 		bfi	r0, r2, #16, #16
 164 00ea B346     		mov	fp, r6
 165 00ec 1C90     		str	r0, [sp, #112]
 166              	.LVL6:
 167 00ee 059E     		ldr	r6, [sp, #20]
 168 00f0 1B94     		str	r4, [sp, #108]
 169 00f2 0591     		str	r1, [sp, #20]
 170 00f4 1046     		mov	r0, r2
ARM GAS  C:\Users\pearlstl\AppData\Local\Temp\ccVE6Vs6.s 			page 10


 171              	.LVL7:
 172              	.L11:
 173              	.LBE15:
 174              	.LBE14:
 141:..\..\..\lvgl\version_6.1.2\lvgl\src\lv_draw/lv_draw_triangle.c ****     lv_coord_t sx1  = tri[0].x < tri[1].x ? 1 : -1;
 175              		.loc 1 141 0
 176 00f6 C1EB060A 		rsb	r10, r1, r6
 143:..\..\..\lvgl\version_6.1.2\lvgl\src\lv_draw/lv_draw_triangle.c ****     lv_coord_t sy1  = tri[0].y < tri[1].y ? 1 : -1;
 177              		.loc 1 143 0
 178 00fa C0EB0B08 		rsb	r8, r0, fp
 141:..\..\..\lvgl\version_6.1.2\lvgl\src\lv_draw/lv_draw_triangle.c ****     lv_coord_t sx1  = tri[0].x < tri[1].x ? 1 : -1;
 179              		.loc 1 141 0
 180 00fe BAF1000F 		cmp	r10, #0
 181 0102 B8BF     		it	lt
 182 0104 CAF1000A 		rsblt	r10, r10, #0
 143:..\..\..\lvgl\version_6.1.2\lvgl\src\lv_draw/lv_draw_triangle.c ****     lv_coord_t sy1  = tri[0].y < tri[1].y ? 1 : -1;
 183              		.loc 1 143 0
 184 0108 B8F1000F 		cmp	r8, #0
 185 010c B8BF     		it	lt
 186 010e C8F10008 		rsblt	r8, r8, #0
 141:..\..\..\lvgl\version_6.1.2\lvgl\src\lv_draw/lv_draw_triangle.c ****     lv_coord_t sx1  = tri[0].x < tri[1].x ? 1 : -1;
 187              		.loc 1 141 0
 188 0112 0FFA8AFA 		sxth	r10, r10
 189              	.LVL8:
 142:..\..\..\lvgl\version_6.1.2\lvgl\src\lv_draw/lv_draw_triangle.c ****     lv_coord_t dy1  = LV_MATH_ABS(tri[0].y - tri[1].y);
 190              		.loc 1 142 0
 191 0116 8E42     		cmp	r6, r1
 192 0118 ACBF     		ite	ge
 193 011a 4FF0FF32 		movge	r2, #-1
 194 011e 0122     		movlt	r2, #1
 143:..\..\..\lvgl\version_6.1.2\lvgl\src\lv_draw/lv_draw_triangle.c ****     lv_coord_t sy1  = tri[0].y < tri[1].y ? 1 : -1;
 195              		.loc 1 143 0
 196 0120 0FFA88F8 		sxth	r8, r8
 142:..\..\..\lvgl\version_6.1.2\lvgl\src\lv_draw/lv_draw_triangle.c ****     lv_coord_t dy1  = LV_MATH_ABS(tri[0].y - tri[1].y);
 197              		.loc 1 142 0
 198 0124 0992     		str	r2, [sp, #36]
 199              	.LVL9:
 144:..\..\..\lvgl\version_6.1.2\lvgl\src\lv_draw/lv_draw_triangle.c ****     lv_coord_t err1 = (dx1 > dy1 ? dx1 : -dy1) / 2;
 200              		.loc 1 144 0
 201 0126 8345     		cmp	fp, r0
 202 0128 ACBF     		ite	ge
 203 012a 4FF0FF32 		movge	r2, #-1
 204 012e 0122     		movlt	r2, #1
 145:..\..\..\lvgl\version_6.1.2\lvgl\src\lv_draw/lv_draw_triangle.c ****     lv_coord_t err_tmp1;
 205              		.loc 1 145 0
 206 0130 C245     		cmp	r10, r8
 144:..\..\..\lvgl\version_6.1.2\lvgl\src\lv_draw/lv_draw_triangle.c ****     lv_coord_t err1 = (dx1 > dy1 ? dx1 : -dy1) / 2;
 207              		.loc 1 144 0
 208 0132 0A92     		str	r2, [sp, #40]
 209              	.LVL10:
 145:..\..\..\lvgl\version_6.1.2\lvgl\src\lv_draw/lv_draw_triangle.c ****     lv_coord_t err_tmp1;
 210              		.loc 1 145 0
 211 0134 40F33681 		ble	.L14
 145:..\..\..\lvgl\version_6.1.2\lvgl\src\lv_draw/lv_draw_triangle.c ****     lv_coord_t err_tmp1;
 212              		.loc 1 145 0 is_stmt 0 discriminator 1
 213 0138 0AEBDA74 		add	r4, r10, r10, lsr #31
 214 013c 4FEA640C 		asr	ip, r4, #1
ARM GAS  C:\Users\pearlstl\AppData\Local\Temp\ccVE6Vs6.s 			page 11


 215              	.L15:
 216              	.LVL11:
 151:..\..\..\lvgl\version_6.1.2\lvgl\src\lv_draw/lv_draw_triangle.c ****     lv_coord_t sy2  = tri[0].y < tri[2].y ? 1 : -1;
 217              		.loc 1 151 0 is_stmt 1 discriminator 4
 218 0140 0298     		ldr	r0, [sp, #8]
 149:..\..\..\lvgl\version_6.1.2\lvgl\src\lv_draw/lv_draw_triangle.c ****     lv_coord_t sx2  = tri[0].x < tri[2].x ? 1 : -1;
 219              		.loc 1 149 0 discriminator 4
 220 0142 049F     		ldr	r7, [sp, #16]
 151:..\..\..\lvgl\version_6.1.2\lvgl\src\lv_draw/lv_draw_triangle.c ****     lv_coord_t sy2  = tri[0].y < tri[2].y ? 1 : -1;
 221              		.loc 1 151 0 discriminator 4
 222 0144 C0EB0B02 		rsb	r2, r0, fp
 223 0148 002A     		cmp	r2, #0
 224 014a B8BF     		it	lt
 225 014c 5242     		rsblt	r2, r2, #0
 226 014e 1146     		mov	r1, r2
 227 0150 1392     		str	r2, [sp, #76]
 149:..\..\..\lvgl\version_6.1.2\lvgl\src\lv_draw/lv_draw_triangle.c ****     lv_coord_t sx2  = tri[0].x < tri[2].x ? 1 : -1;
 228              		.loc 1 149 0 discriminator 4
 229 0152 F21B     		subs	r2, r6, r7
 230 0154 002A     		cmp	r2, #0
 231 0156 B8BF     		it	lt
 232 0158 5242     		rsblt	r2, r2, #0
 151:..\..\..\lvgl\version_6.1.2\lvgl\src\lv_draw/lv_draw_triangle.c ****     lv_coord_t sy2  = tri[0].y < tri[2].y ? 1 : -1;
 233              		.loc 1 151 0 discriminator 4
 234 015a 09B2     		sxth	r1, r1
 235 015c 0691     		str	r1, [sp, #24]
 149:..\..\..\lvgl\version_6.1.2\lvgl\src\lv_draw/lv_draw_triangle.c ****     lv_coord_t sx2  = tri[0].x < tri[2].x ? 1 : -1;
 236              		.loc 1 149 0 discriminator 4
 237 015e 1146     		mov	r1, r2
 238 0160 0CB2     		sxth	r4, r1
 153:..\..\..\lvgl\version_6.1.2\lvgl\src\lv_draw/lv_draw_triangle.c ****     lv_coord_t err_tmp2;
 239              		.loc 1 153 0 discriminator 4
 240 0162 0699     		ldr	r1, [sp, #24]
 149:..\..\..\lvgl\version_6.1.2\lvgl\src\lv_draw/lv_draw_triangle.c ****     lv_coord_t sx2  = tri[0].x < tri[2].x ? 1 : -1;
 241              		.loc 1 149 0 discriminator 4
 242 0164 1192     		str	r2, [sp, #68]
 150:..\..\..\lvgl\version_6.1.2\lvgl\src\lv_draw/lv_draw_triangle.c ****     lv_coord_t dy2  = LV_MATH_ABS(tri[0].y - tri[2].y);
 243              		.loc 1 150 0 discriminator 4
 244 0166 4FF6FF72 		movw	r2, #65535
 245 016a B742     		cmp	r7, r6
 246 016c D4BF     		ite	le
 247 016e 1746     		movle	r7, r2
 248 0170 0127     		movgt	r7, #1
 152:..\..\..\lvgl\version_6.1.2\lvgl\src\lv_draw/lv_draw_triangle.c ****     lv_coord_t err2 = (dx1 > dy2 ? dx2 : -dy2) / 2;
 249              		.loc 1 152 0 discriminator 4
 250 0172 5845     		cmp	r0, fp
 251 0174 C8BF     		it	gt
 252 0176 0122     		movgt	r2, #1
 153:..\..\..\lvgl\version_6.1.2\lvgl\src\lv_draw/lv_draw_triangle.c ****     lv_coord_t err_tmp2;
 253              		.loc 1 153 0 discriminator 4
 254 0178 8A45     		cmp	r10, r1
 149:..\..\..\lvgl\version_6.1.2\lvgl\src\lv_draw/lv_draw_triangle.c ****     lv_coord_t sx2  = tri[0].x < tri[2].x ? 1 : -1;
 255              		.loc 1 149 0 discriminator 4
 256 017a 1294     		str	r4, [sp, #72]
 257              	.LVL12:
 150:..\..\..\lvgl\version_6.1.2\lvgl\src\lv_draw/lv_draw_triangle.c ****     lv_coord_t dy2  = LV_MATH_ABS(tri[0].y - tri[2].y);
 258              		.loc 1 150 0 discriminator 4
ARM GAS  C:\Users\pearlstl\AppData\Local\Temp\ccVE6Vs6.s 			page 12


 259 017c 1497     		str	r7, [sp, #80]
 260              	.LVL13:
 152:..\..\..\lvgl\version_6.1.2\lvgl\src\lv_draw/lv_draw_triangle.c ****     lv_coord_t err2 = (dx1 > dy2 ? dx2 : -dy2) / 2;
 261              		.loc 1 152 0 discriminator 4
 262 017e 1592     		str	r2, [sp, #84]
 153:..\..\..\lvgl\version_6.1.2\lvgl\src\lv_draw/lv_draw_triangle.c ****     lv_coord_t err_tmp2;
 263              		.loc 1 153 0 discriminator 4
 264 0180 40F3F280 		ble	.L18
 153:..\..\..\lvgl\version_6.1.2\lvgl\src\lv_draw/lv_draw_triangle.c ****     lv_coord_t err_tmp2;
 265              		.loc 1 153 0 is_stmt 0 discriminator 1
 266 0184 04EBD477 		add	r7, r4, r4, lsr #31
 267 0188 7F10     		asrs	r7, r7, #1
 268              	.L19:
 188:..\..\..\lvgl\version_6.1.2\lvgl\src\lv_draw/lv_draw_triangle.c ****                 sy1  = tri[1].y < tri[2].y ? 1 : -1;
 269              		.loc 1 188 0 is_stmt 1
 270 018a 0399     		ldr	r1, [sp, #12]
 271 018c 0D93     		str	r3, [sp, #52]
 272 018e 0B1A     		subs	r3, r1, r0
 273              	.LVL14:
 274 0190 002B     		cmp	r3, #0
 186:..\..\..\lvgl\version_6.1.2\lvgl\src\lv_draw/lv_draw_triangle.c ****                 sx1  = tri[1].x < tri[2].x ? 1 : -1;
 275              		.loc 1 186 0
 276 0192 049C     		ldr	r4, [sp, #16]
 277              	.LVL15:
 278 0194 0B95     		str	r5, [sp, #44]
 279 0196 059D     		ldr	r5, [sp, #20]
 280              	.LVL16:
 281 0198 CDF830E0 		str	lr, [sp, #48]
 188:..\..\..\lvgl\version_6.1.2\lvgl\src\lv_draw/lv_draw_triangle.c ****                 sy1  = tri[1].y < tri[2].y ? 1 : -1;
 282              		.loc 1 188 0
 283 019c B8BF     		it	lt
 284 019e 5B42     		rsblt	r3, r3, #0
 186:..\..\..\lvgl\version_6.1.2\lvgl\src\lv_draw/lv_draw_triangle.c ****                 sx1  = tri[1].x < tri[2].x ? 1 : -1;
 285              		.loc 1 186 0
 286 01a0 2A1B     		subs	r2, r5, r4
 188:..\..\..\lvgl\version_6.1.2\lvgl\src\lv_draw/lv_draw_triangle.c ****                 sy1  = tri[1].y < tri[2].y ? 1 : -1;
 287              		.loc 1 188 0
 288 01a2 1BB2     		sxth	r3, r3
 186:..\..\..\lvgl\version_6.1.2\lvgl\src\lv_draw/lv_draw_triangle.c ****                 sx1  = tri[1].x < tri[2].x ? 1 : -1;
 289              		.loc 1 186 0
 290 01a4 002A     		cmp	r2, #0
 188:..\..\..\lvgl\version_6.1.2\lvgl\src\lv_draw/lv_draw_triangle.c ****                 sy1  = tri[1].y < tri[2].y ? 1 : -1;
 291              		.loc 1 188 0
 292 01a6 0893     		str	r3, [sp, #32]
 190:..\..\..\lvgl\version_6.1.2\lvgl\src\lv_draw/lv_draw_triangle.c ****             } else if(edge1.x == tri[2].x && edge1.y == tri[2].y) {
 293              		.loc 1 190 0
 294 01a8 03EBD373 		add	r3, r3, r3, lsr #31
 186:..\..\..\lvgl\version_6.1.2\lvgl\src\lv_draw/lv_draw_triangle.c ****                 sx1  = tri[1].x < tri[2].x ? 1 : -1;
 295              		.loc 1 186 0
 296 01ac B8BF     		it	lt
 297 01ae 5242     		rsblt	r2, r2, #0
 190:..\..\..\lvgl\version_6.1.2\lvgl\src\lv_draw/lv_draw_triangle.c ****             } else if(edge1.x == tri[2].x && edge1.y == tri[2].y) {
 298              		.loc 1 190 0
 299 01b0 5B10     		asrs	r3, r3, #1
 186:..\..\..\lvgl\version_6.1.2\lvgl\src\lv_draw/lv_draw_triangle.c ****                 sx1  = tri[1].x < tri[2].x ? 1 : -1;
 300              		.loc 1 186 0
 301 01b2 12B2     		sxth	r2, r2
ARM GAS  C:\Users\pearlstl\AppData\Local\Temp\ccVE6Vs6.s 			page 13


 190:..\..\..\lvgl\version_6.1.2\lvgl\src\lv_draw/lv_draw_triangle.c ****             } else if(edge1.x == tri[2].x && edge1.y == tri[2].y) {
 302              		.loc 1 190 0
 303 01b4 5B42     		negs	r3, r3
 304 01b6 1BB2     		sxth	r3, r3
 186:..\..\..\lvgl\version_6.1.2\lvgl\src\lv_draw/lv_draw_triangle.c ****                 sx1  = tri[1].x < tri[2].x ? 1 : -1;
 305              		.loc 1 186 0
 306 01b8 0792     		str	r2, [sp, #28]
 190:..\..\..\lvgl\version_6.1.2\lvgl\src\lv_draw/lv_draw_triangle.c ****             } else if(edge1.x == tri[2].x && edge1.y == tri[2].y) {
 307              		.loc 1 190 0
 308 01ba 02EBD272 		add	r2, r2, r2, lsr #31
 309 01be 1793     		str	r3, [sp, #92]
 310 01c0 5310     		asrs	r3, r2, #1
 311 01c2 1693     		str	r3, [sp, #88]
 312 01c4 AC42     		cmp	r4, r5
 313 01c6 CCBF     		ite	gt
 314 01c8 0123     		movgt	r3, #1
 315 01ca 4FF0FF33 		movle	r3, #-1
 316 01ce 0093     		str	r3, [sp]
 317 01d0 8842     		cmp	r0, r1
 318 01d2 CCBF     		ite	gt
 319 01d4 0123     		movgt	r3, #1
 320 01d6 4FF0FF33 		movle	r3, #-1
 321 01da 0193     		str	r3, [sp, #4]
 322 01dc D946     		mov	r9, fp
 323 01de 3546     		mov	r5, r6
 324 01e0 6446     		mov	r4, ip
 325              	.LVL17:
 326              	.L52:
 174:..\..\..\lvgl\version_6.1.2\lvgl\src\lv_draw/lv_draw_triangle.c ****         draw_area.x2 = LV_MATH_MAX(act_area.x1, act_area.x2);
 327              		.loc 1 174 0
 328 01e2 AE42     		cmp	r6, r5
 329 01e4 3246     		mov	r2, r6
 330 01e6 A8BF     		it	ge
 331 01e8 2A46     		movge	r2, r5
 176:..\..\..\lvgl\version_6.1.2\lvgl\src\lv_draw/lv_draw_triangle.c ****         draw_area.y2 = LV_MATH_MAX(act_area.y1, act_area.y2) - 1;
 332              		.loc 1 176 0
 333 01ea CB45     		cmp	fp, r9
 334 01ec 5946     		mov	r1, fp
 174:..\..\..\lvgl\version_6.1.2\lvgl\src\lv_draw/lv_draw_triangle.c ****         draw_area.x2 = LV_MATH_MAX(act_area.x1, act_area.x2);
 335              		.loc 1 174 0
 336 01ee 02F10102 		add	r2, r2, #1
 176:..\..\..\lvgl\version_6.1.2\lvgl\src\lv_draw/lv_draw_triangle.c ****         draw_area.y2 = LV_MATH_MAX(act_area.y1, act_area.y2) - 1;
 337              		.loc 1 176 0
 338 01f2 A8BF     		it	ge
 339 01f4 4946     		movge	r1, r9
 177:..\..\..\lvgl\version_6.1.2\lvgl\src\lv_draw/lv_draw_triangle.c **** 
 340              		.loc 1 177 0
 341 01f6 CB45     		cmp	fp, r9
 342 01f8 5846     		mov	r0, fp
 174:..\..\..\lvgl\version_6.1.2\lvgl\src\lv_draw/lv_draw_triangle.c ****         draw_area.x2 = LV_MATH_MAX(act_area.x1, act_area.x2);
 343              		.loc 1 174 0
 344 01fa ADF86420 		strh	r2, [sp, #100]	@ movhi
 177:..\..\..\lvgl\version_6.1.2\lvgl\src\lv_draw/lv_draw_triangle.c **** 
 345              		.loc 1 177 0
 346 01fe B8BF     		it	lt
 347 0200 4846     		movlt	r0, r9
 179:..\..\..\lvgl\version_6.1.2\lvgl\src\lv_draw/lv_draw_triangle.c **** 
ARM GAS  C:\Users\pearlstl\AppData\Local\Temp\ccVE6Vs6.s 			page 14


 348              		.loc 1 179 0
 349 0202 0C9A     		ldr	r2, [sp, #48]
 350 0204 0D9B     		ldr	r3, [sp, #52]
 351 0206 5268     		ldr	r2, [r2, #4]
 175:..\..\..\lvgl\version_6.1.2\lvgl\src\lv_draw/lv_draw_triangle.c ****         draw_area.y1 = LV_MATH_MIN(act_area.y1, act_area.y2) - 1;
 352              		.loc 1 175 0
 353 0208 AE42     		cmp	r6, r5
 176:..\..\..\lvgl\version_6.1.2\lvgl\src\lv_draw/lv_draw_triangle.c ****         draw_area.y2 = LV_MATH_MAX(act_area.y1, act_area.y2) - 1;
 354              		.loc 1 176 0
 355 020a 01F1FF31 		add	r1, r1, #-1
 177:..\..\..\lvgl\version_6.1.2\lvgl\src\lv_draw/lv_draw_triangle.c **** 
 356              		.loc 1 177 0
 357 020e 00F1FF30 		add	r0, r0, #-1
 175:..\..\..\lvgl\version_6.1.2\lvgl\src\lv_draw/lv_draw_triangle.c ****         draw_area.y1 = LV_MATH_MIN(act_area.y1, act_area.y2) - 1;
 358              		.loc 1 175 0
 359 0212 B646     		mov	lr, r6
 176:..\..\..\lvgl\version_6.1.2\lvgl\src\lv_draw/lv_draw_triangle.c ****         draw_area.y2 = LV_MATH_MAX(act_area.y1, act_area.y2) - 1;
 360              		.loc 1 176 0
 361 0214 ADF86610 		strh	r1, [sp, #102]	@ movhi
 175:..\..\..\lvgl\version_6.1.2\lvgl\src\lv_draw/lv_draw_triangle.c ****         draw_area.y1 = LV_MATH_MIN(act_area.y1, act_area.y2) - 1;
 362              		.loc 1 175 0
 363 0218 B8BF     		it	lt
 364 021a AE46     		movlt	lr, r5
 177:..\..\..\lvgl\version_6.1.2\lvgl\src\lv_draw/lv_draw_triangle.c **** 
 365              		.loc 1 177 0
 366 021c ADF86A00 		strh	r0, [sp, #106]	@ movhi
 179:..\..\..\lvgl\version_6.1.2\lvgl\src\lv_draw/lv_draw_triangle.c **** 
 367              		.loc 1 179 0
 368 0220 0B99     		ldr	r1, [sp, #44]
 175:..\..\..\lvgl\version_6.1.2\lvgl\src\lv_draw/lv_draw_triangle.c ****         draw_area.y1 = LV_MATH_MIN(act_area.y1, act_area.y2) - 1;
 369              		.loc 1 175 0
 370 0222 ADF868E0 		strh	lr, [sp, #104]	@ movhi
 179:..\..\..\lvgl\version_6.1.2\lvgl\src\lv_draw/lv_draw_triangle.c **** 
 371              		.loc 1 179 0
 372 0226 19A8     		add	r0, sp, #100
 373 0228 FFF7FEFF 		bl	lv_draw_fill
 374              	.LVL18:
 375 022c 029B     		ldr	r3, [sp, #8]
 376 022e 089A     		ldr	r2, [sp, #32]
 377 0230 9945     		cmp	r9, r3
 378 0232 079B     		ldr	r3, [sp, #28]
 379 0234 00F03281 		beq	.L20
 380 0238 9342     		cmp	r3, r2
 381 023a 039B     		ldr	r3, [sp, #12]
 382 023c 6FDC     		bgt	.L21
 383 023e 9945     		cmp	r9, r3
 384 0240 00F0B780 		beq	.L70
 385 0244 0A9B     		ldr	r3, [sp, #40]
 386 0246 DDF824E0 		ldr	lr, [sp, #36]
 387 024a 03EB0901 		add	r1, r3, r9
 201:..\..\..\lvgl\version_6.1.2\lvgl\src\lv_draw/lv_draw_triangle.c ****             }
 388              		.loc 1 201 0
 389 024e 09B2     		sxth	r1, r1
 390 0250 CAF10002 		rsb	r2, r10, #0
 391              	.LVL19:
 392              	.L23:
 197:..\..\..\lvgl\version_6.1.2\lvgl\src\lv_draw/lv_draw_triangle.c ****             }
ARM GAS  C:\Users\pearlstl\AppData\Local\Temp\ccVE6Vs6.s 			page 15


 393              		.loc 1 197 0
 394 0254 0EEB0500 		add	r0, lr, r5
 395 0258 A242     		cmp	r2, r4
 396 025a 00B2     		sxth	r0, r0
 196:..\..\..\lvgl\version_6.1.2\lvgl\src\lv_draw/lv_draw_triangle.c ****                 edge1.x += sx1;
 397              		.loc 1 196 0
 398 025c C8EB0403 		rsb	r3, r8, r4
 399 0260 B8BF     		it	lt
 400 0262 0546     		movlt	r5, r0
 401 0264 1BB2     		sxth	r3, r3
 402 0266 A8BF     		it	ge
 403 0268 2346     		movge	r3, r4
 404 026a A045     		cmp	r8, r4
 405 026c 1BB2     		sxth	r3, r3
 406 026e D4BF     		ite	le
 407 0270 4846     		movle	r0, r9
 408 0272 0846     		movgt	r0, r1
 200:..\..\..\lvgl\version_6.1.2\lvgl\src\lv_draw/lv_draw_triangle.c ****                 edge1.y += sy1;
 409              		.loc 1 200 0
 410 0274 0AEB0304 		add	r4, r10, r3
 411 0278 00B2     		sxth	r0, r0
 412 027a 24B2     		sxth	r4, r4
 413 027c D8BF     		it	le
 414 027e 1C46     		movle	r4, r3
 203:..\..\..\lvgl\version_6.1.2\lvgl\src\lv_draw/lv_draw_triangle.c **** 
 415              		.loc 1 203 0
 416 0280 8145     		cmp	r9, r0
 417 0282 2DB2     		sxth	r5, r5
 418              	.LVL20:
 419 0284 E6D0     		beq	.L23
 420              	.LVL21:
 421              	.L75:
 422 0286 8146     		mov	r9, r0
 423              	.LVL22:
 424              	.L24:
 425 0288 029B     		ldr	r3, [sp, #8]
 426 028a 9B45     		cmp	fp, r3
 427 028c 159B     		ldr	r3, [sp, #84]
 428 028e 03EB0B02 		add	r2, r3, fp
 216:..\..\..\lvgl\version_6.1.2\lvgl\src\lv_draw/lv_draw_triangle.c ****             }
 429              		.loc 1 216 0
 430 0292 12B2     		sxth	r2, r2
 431 0294 129B     		ldr	r3, [sp, #72]
 432 0296 00F02581 		beq	.L77
 433 029a CDF83C80 		str	r8, [sp, #60]
 434 029e 1094     		str	r4, [sp, #64]
 435 02a0 DDF84CE0 		ldr	lr, [sp, #76]
 436 02a4 119C     		ldr	r4, [sp, #68]
 437 02a6 DDF818C0 		ldr	ip, [sp, #24]
 438 02aa DDF85080 		ldr	r8, [sp, #80]
 439 02ae CDF838A0 		str	r10, [sp, #56]
 440 02b2 5942     		negs	r1, r3
 441              	.L48:
 442 02b4 8F42     		cmp	r7, r1
 211:..\..\..\lvgl\version_6.1.2\lvgl\src\lv_draw/lv_draw_triangle.c ****                 edge2.x += sx2;
 443              		.loc 1 211 0
 444 02b6 CEEB0703 		rsb	r3, lr, r7
ARM GAS  C:\Users\pearlstl\AppData\Local\Temp\ccVE6Vs6.s 			page 16


 212:..\..\..\lvgl\version_6.1.2\lvgl\src\lv_draw/lv_draw_triangle.c ****             }
 445              		.loc 1 212 0
 446 02ba 08EB060A 		add	r10, r8, r6
 211:..\..\..\lvgl\version_6.1.2\lvgl\src\lv_draw/lv_draw_triangle.c ****                 edge2.x += sx2;
 447              		.loc 1 211 0
 448 02be 1BB2     		sxth	r3, r3
 449 02c0 D8BF     		it	le
 450 02c2 3B46     		movle	r3, r7
 451 02c4 1BB2     		sxth	r3, r3
 212:..\..\..\lvgl\version_6.1.2\lvgl\src\lv_draw/lv_draw_triangle.c ****             }
 452              		.loc 1 212 0
 453 02c6 0FFA8AFA 		sxth	r10, r10
 215:..\..\..\lvgl\version_6.1.2\lvgl\src\lv_draw/lv_draw_triangle.c ****                 edge2.y += sy2;
 454              		.loc 1 215 0
 455 02ca 03EB0400 		add	r0, r3, r4
 456 02ce C8BF     		it	gt
 457 02d0 5646     		movgt	r6, r10
 458 02d2 BC45     		cmp	ip, r7
 459 02d4 07B2     		sxth	r7, r0
 460 02d6 D4BF     		ite	le
 461 02d8 5846     		movle	r0, fp
 462 02da 1046     		movgt	r0, r2
 463 02dc 00B2     		sxth	r0, r0
 464 02de C8BF     		it	gt
 465 02e0 3B46     		movgt	r3, r7
 218:..\..\..\lvgl\version_6.1.2\lvgl\src\lv_draw/lv_draw_triangle.c ****     }
 466              		.loc 1 218 0
 467 02e2 8345     		cmp	fp, r0
 468 02e4 36B2     		sxth	r6, r6
 469              	.LVL23:
 470 02e6 1F46     		mov	r7, r3
 471 02e8 E4D0     		beq	.L48
 472 02ea DDF838A0 		ldr	r10, [sp, #56]
 473 02ee DDF83C80 		ldr	r8, [sp, #60]
 474 02f2 109C     		ldr	r4, [sp, #64]
 475              	.LVL24:
 476              	.L49:
 190:..\..\..\lvgl\version_6.1.2\lvgl\src\lv_draw/lv_draw_triangle.c ****             } else if(edge1.x == tri[2].x && edge1.y == tri[2].y) {
 477              		.loc 1 190 0
 478 02f4 8346     		mov	fp, r0
 479 02f6 1F46     		mov	r7, r3
 480 02f8 73E7     		b	.L52
 481              	.LVL25:
 482              	.L7:
 483              	.LBB16:
 484              	.LBB17:
 339:..\..\..\lvgl\version_6.1.2\lvgl\src\lv_draw/lv_draw_triangle.c **** 
 485              		.loc 1 339 0
 486 02fa BDF80800 		ldrh	r0, [sp, #8]
 335:..\..\..\lvgl\version_6.1.2\lvgl\src\lv_draw/lv_draw_triangle.c ****     tmp.y = p1->y;
 487              		.loc 1 335 0
 488 02fe BDF97010 		ldrsh	r1, [sp, #112]
 489              	.LVL26:
 339:..\..\..\lvgl\version_6.1.2\lvgl\src\lv_draw/lv_draw_triangle.c **** 
 490              		.loc 1 339 0
 491 0302 ADF87200 		strh	r0, [sp, #114]	@ movhi
 338:..\..\..\lvgl\version_6.1.2\lvgl\src\lv_draw/lv_draw_triangle.c ****     p1->y = p2->y;
ARM GAS  C:\Users\pearlstl\AppData\Local\Temp\ccVE6Vs6.s 			page 17


 492              		.loc 1 338 0
 493 0306 BDF81000 		ldrh	r0, [sp, #16]
 342:..\..\..\lvgl\version_6.1.2\lvgl\src\lv_draw/lv_draw_triangle.c ****     p2->y = tmp.y;
 494              		.loc 1 342 0
 495 030a ADF86E20 		strh	r2, [sp, #110]	@ movhi
 341:..\..\..\lvgl\version_6.1.2\lvgl\src\lv_draw/lv_draw_triangle.c ****     p2->y = tmp.y;
 496              		.loc 1 341 0
 497 030e ADF86C10 		strh	r1, [sp, #108]	@ movhi
 338:..\..\..\lvgl\version_6.1.2\lvgl\src\lv_draw/lv_draw_triangle.c ****     p1->y = p2->y;
 498              		.loc 1 338 0
 499 0312 ADF87000 		strh	r0, [sp, #112]	@ movhi
 500 0316 CAE6     		b	.L8
 501              	.LVL27:
 502              	.L1:
 503              	.LBE17:
 504              	.LBE16:
 220:..\..\..\lvgl\version_6.1.2\lvgl\src\lv_draw/lv_draw_triangle.c **** 
 505              		.loc 1 220 0
 506 0318 1FB0     		add	sp, sp, #124
 507              		.cfi_remember_state
 508              		.cfi_def_cfa_offset 36
 509              		@ sp needed
 510 031a BDE8F08F 		pop	{r4, r5, r6, r7, r8, r9, r10, fp, pc}
 511              	.LVL28:
 512              	.L21:
 513              		.cfi_restore_state
 514 031e 9945     		cmp	r9, r3
 515 0320 00F08680 		beq	.L71
 516 0324 0A9B     		ldr	r3, [sp, #40]
 517 0326 DDF824E0 		ldr	lr, [sp, #36]
 518 032a 03EB0901 		add	r1, r3, r9
 201:..\..\..\lvgl\version_6.1.2\lvgl\src\lv_draw/lv_draw_triangle.c ****             }
 519              		.loc 1 201 0
 520 032e 09B2     		sxth	r1, r1
 521 0330 CAF10002 		rsb	r2, r10, #0
 522              	.LVL29:
 523              	.L27:
 197:..\..\..\lvgl\version_6.1.2\lvgl\src\lv_draw/lv_draw_triangle.c ****             }
 524              		.loc 1 197 0
 525 0334 0EEB0500 		add	r0, lr, r5
 526 0338 A242     		cmp	r2, r4
 527 033a 00B2     		sxth	r0, r0
 196:..\..\..\lvgl\version_6.1.2\lvgl\src\lv_draw/lv_draw_triangle.c ****                 edge1.x += sx1;
 528              		.loc 1 196 0
 529 033c C8EB0403 		rsb	r3, r8, r4
 530 0340 B8BF     		it	lt
 531 0342 0546     		movlt	r5, r0
 532 0344 1BB2     		sxth	r3, r3
 533 0346 A8BF     		it	ge
 534 0348 2346     		movge	r3, r4
 535 034a A045     		cmp	r8, r4
 536 034c 1BB2     		sxth	r3, r3
 537 034e D4BF     		ite	le
 538 0350 4846     		movle	r0, r9
 539 0352 0846     		movgt	r0, r1
 200:..\..\..\lvgl\version_6.1.2\lvgl\src\lv_draw/lv_draw_triangle.c ****                 edge1.y += sy1;
 540              		.loc 1 200 0
ARM GAS  C:\Users\pearlstl\AppData\Local\Temp\ccVE6Vs6.s 			page 18


 541 0354 0AEB0304 		add	r4, r10, r3
 542 0358 00B2     		sxth	r0, r0
 543 035a 24B2     		sxth	r4, r4
 544 035c D8BF     		it	le
 545 035e 1C46     		movle	r4, r3
 203:..\..\..\lvgl\version_6.1.2\lvgl\src\lv_draw/lv_draw_triangle.c **** 
 546              		.loc 1 203 0
 547 0360 8145     		cmp	r9, r0
 548 0362 2DB2     		sxth	r5, r5
 549              	.LVL30:
 550 0364 E6D0     		beq	.L27
 551 0366 8EE7     		b	.L75
 552              	.LVL31:
 553              	.L18:
 153:..\..\..\lvgl\version_6.1.2\lvgl\src\lv_draw/lv_draw_triangle.c ****     lv_coord_t err_tmp2;
 554              		.loc 1 153 0 discriminator 2
 555 0368 01EBD177 		add	r7, r1, r1, lsr #31
 556 036c 7F10     		asrs	r7, r7, #1
 557 036e 7F42     		negs	r7, r7
 558 0370 3FB2     		sxth	r7, r7
 559 0372 0AE7     		b	.L19
 560              	.LVL32:
 561              	.L53:
 562 0374 0E46     		mov	r6, r1
 563 0376 9346     		mov	fp, r2
 564 0378 0599     		ldr	r1, [sp, #20]
 565 037a 0398     		ldr	r0, [sp, #12]
 566 037c BBE6     		b	.L11
 567              	.L9:
 568              	.LVL33:
 569              	.LBB18:
 570              	.LBB19:
 335:..\..\..\lvgl\version_6.1.2\lvgl\src\lv_draw/lv_draw_triangle.c ****     tmp.y = p1->y;
 571              		.loc 1 335 0
 572 037e BDF97400 		ldrsh	r0, [sp, #116]
 339:..\..\..\lvgl\version_6.1.2\lvgl\src\lv_draw/lv_draw_triangle.c **** 
 573              		.loc 1 339 0
 574 0382 BDF80840 		ldrh	r4, [sp, #8]
 335:..\..\..\lvgl\version_6.1.2\lvgl\src\lv_draw/lv_draw_triangle.c ****     tmp.y = p1->y;
 575              		.loc 1 335 0
 576 0386 0590     		str	r0, [sp, #20]
 577              	.LVL34:
 339:..\..\..\lvgl\version_6.1.2\lvgl\src\lv_draw/lv_draw_triangle.c **** 
 578              		.loc 1 339 0
 579 0388 ADF87640 		strh	r4, [sp, #118]	@ movhi
 341:..\..\..\lvgl\version_6.1.2\lvgl\src\lv_draw/lv_draw_triangle.c ****     p2->y = tmp.y;
 580              		.loc 1 341 0
 581 038c ADF87000 		strh	r0, [sp, #112]	@ movhi
 582              		.loc 1 342 0
 583 0390 BDF80C40 		ldrh	r4, [sp, #12]
 338:..\..\..\lvgl\version_6.1.2\lvgl\src\lv_draw/lv_draw_triangle.c ****     p1->y = p2->y;
 584              		.loc 1 338 0
 585 0394 BDF81000 		ldrh	r0, [sp, #16]
 586              	.LVL35:
 587              		.loc 1 342 0
 588 0398 ADF87240 		strh	r4, [sp, #114]	@ movhi
 338:..\..\..\lvgl\version_6.1.2\lvgl\src\lv_draw/lv_draw_triangle.c ****     p1->y = p2->y;
ARM GAS  C:\Users\pearlstl\AppData\Local\Temp\ccVE6Vs6.s 			page 19


 589              		.loc 1 338 0
 590 039c ADF87400 		strh	r0, [sp, #116]	@ movhi
 591 03a0 039E     		ldr	r6, [sp, #12]
 592 03a2 93E6     		b	.L10
 593              	.LVL36:
 594              	.L14:
 595              	.LBE19:
 596              	.LBE18:
 145:..\..\..\lvgl\version_6.1.2\lvgl\src\lv_draw/lv_draw_triangle.c ****     lv_coord_t err_tmp1;
 597              		.loc 1 145 0 discriminator 2
 598 03a4 08EBD874 		add	r4, r8, r8, lsr #31
 599 03a8 6410     		asrs	r4, r4, #1
 600 03aa 6442     		negs	r4, r4
 601 03ac 0FFA84FC 		sxth	ip, r4
 602 03b0 C6E6     		b	.L15
 603              	.LVL37:
 604              	.L70:
 605 03b2 9446     		mov	ip, r2
 606 03b4 0E97     		str	r7, [sp, #56]
 607 03b6 2246     		mov	r2, r4
 608 03b8 CDF83CB0 		str	fp, [sp, #60]
 609 03bc 1096     		str	r6, [sp, #64]
 610 03be 0A9F     		ldr	r7, [sp, #40]
 611              	.LVL38:
 612 03c0 DDF81CE0 		ldr	lr, [sp, #28]
 613 03c4 DDF85CB0 		ldr	fp, [sp, #92]
 614              	.LVL39:
 615 03c8 059C     		ldr	r4, [sp, #20]
 616 03ca 099E     		ldr	r6, [sp, #36]
 617              	.LVL40:
 618 03cc 2846     		mov	r0, r5
 619              	.LVL41:
 620              	.L25:
 621 03ce A042     		cmp	r0, r4
 622 03d0 08BF     		it	eq
 623 03d2 5A46     		moveq	r2, fp
 624 03d4 13B2     		sxth	r3, r2
 625 03d6 009A     		ldr	r2, [sp]
 626 03d8 08BF     		it	eq
 627 03da 1646     		moveq	r6, r2
 628 03dc 019A     		ldr	r2, [sp, #4]
 629 03de 02BF     		ittt	eq
 630 03e0 F246     		moveq	r10, lr
 631 03e2 E046     		moveq	r8, ip
 632 03e4 1746     		moveq	r7, r2
 195:..\..\..\lvgl\version_6.1.2\lvgl\src\lv_draw/lv_draw_triangle.c ****                 err1 -= dy1;
 633              		.loc 1 195 0
 634 03e6 CAF10005 		rsb	r5, r10, #0
 197:..\..\..\lvgl\version_6.1.2\lvgl\src\lv_draw/lv_draw_triangle.c ****             }
 635              		.loc 1 197 0
 636 03ea 3218     		adds	r2, r6, r0
 637 03ec 9D42     		cmp	r5, r3
 196:..\..\..\lvgl\version_6.1.2\lvgl\src\lv_draw/lv_draw_triangle.c ****                 edge1.x += sx1;
 638              		.loc 1 196 0
 639 03ee C8EB0301 		rsb	r1, r8, r3
 197:..\..\..\lvgl\version_6.1.2\lvgl\src\lv_draw/lv_draw_triangle.c ****             }
 640              		.loc 1 197 0
ARM GAS  C:\Users\pearlstl\AppData\Local\Temp\ccVE6Vs6.s 			page 20


 641 03f2 12B2     		sxth	r2, r2
 201:..\..\..\lvgl\version_6.1.2\lvgl\src\lv_draw/lv_draw_triangle.c ****             }
 642              		.loc 1 201 0
 643 03f4 07EB0905 		add	r5, r7, r9
 196:..\..\..\lvgl\version_6.1.2\lvgl\src\lv_draw/lv_draw_triangle.c ****                 edge1.x += sx1;
 644              		.loc 1 196 0
 645 03f8 09B2     		sxth	r1, r1
 646 03fa B4BF     		ite	lt
 647 03fc 1046     		movlt	r0, r2
 648 03fe 1946     		movge	r1, r3
 201:..\..\..\lvgl\version_6.1.2\lvgl\src\lv_draw/lv_draw_triangle.c ****             }
 649              		.loc 1 201 0
 650 0400 2DB2     		sxth	r5, r5
 651 0402 4345     		cmp	r3, r8
 652 0404 ACBF     		ite	ge
 653 0406 4B46     		movge	r3, r9
 654 0408 2B46     		movlt	r3, r5
 200:..\..\..\lvgl\version_6.1.2\lvgl\src\lv_draw/lv_draw_triangle.c ****                 edge1.y += sy1;
 655              		.loc 1 200 0
 656 040a 0AEB0102 		add	r2, r10, r1
 657 040e 1BB2     		sxth	r3, r3
 658 0410 12B2     		sxth	r2, r2
 659 0412 A8BF     		it	ge
 660 0414 0A46     		movge	r2, r1
 203:..\..\..\lvgl\version_6.1.2\lvgl\src\lv_draw/lv_draw_triangle.c **** 
 661              		.loc 1 203 0
 662 0416 9945     		cmp	r9, r3
 663 0418 00B2     		sxth	r0, r0
 664              	.LVL42:
 665 041a D8D0     		beq	.L25
 666              	.L73:
 667 041c 0996     		str	r6, [sp, #36]
 668 041e 0A97     		str	r7, [sp, #40]
 669 0420 1446     		mov	r4, r2
 670 0422 0E9F     		ldr	r7, [sp, #56]
 671 0424 DDF83CB0 		ldr	fp, [sp, #60]
 672 0428 109E     		ldr	r6, [sp, #64]
 673 042a 0546     		mov	r5, r0
 674 042c 9946     		mov	r9, r3
 675              	.LVL43:
 676 042e 2BE7     		b	.L24
 677              	.LVL44:
 678              	.L71:
 679 0430 9446     		mov	ip, r2
 680 0432 0E97     		str	r7, [sp, #56]
 681 0434 2246     		mov	r2, r4
 682 0436 CDF83CB0 		str	fp, [sp, #60]
 683 043a 1096     		str	r6, [sp, #64]
 684 043c 0A9F     		ldr	r7, [sp, #40]
 685              	.LVL45:
 686 043e DDF81CE0 		ldr	lr, [sp, #28]
 687 0442 DDF858B0 		ldr	fp, [sp, #88]
 688              	.LVL46:
 689 0446 059C     		ldr	r4, [sp, #20]
 690 0448 099E     		ldr	r6, [sp, #36]
 691              	.LVL47:
 692 044a 2846     		mov	r0, r5
ARM GAS  C:\Users\pearlstl\AppData\Local\Temp\ccVE6Vs6.s 			page 21


 693              	.LVL48:
 694              	.L28:
 695 044c 8442     		cmp	r4, r0
 696 044e 08BF     		it	eq
 697 0450 5A46     		moveq	r2, fp
 698 0452 13B2     		sxth	r3, r2
 699 0454 009A     		ldr	r2, [sp]
 700 0456 08BF     		it	eq
 701 0458 1646     		moveq	r6, r2
 702 045a 019A     		ldr	r2, [sp, #4]
 703 045c 02BF     		ittt	eq
 704 045e F246     		moveq	r10, lr
 705 0460 E046     		moveq	r8, ip
 706 0462 1746     		moveq	r7, r2
 195:..\..\..\lvgl\version_6.1.2\lvgl\src\lv_draw/lv_draw_triangle.c ****                 err1 -= dy1;
 707              		.loc 1 195 0
 708 0464 CAF10005 		rsb	r5, r10, #0
 197:..\..\..\lvgl\version_6.1.2\lvgl\src\lv_draw/lv_draw_triangle.c ****             }
 709              		.loc 1 197 0
 710 0468 3218     		adds	r2, r6, r0
 711 046a 9D42     		cmp	r5, r3
 196:..\..\..\lvgl\version_6.1.2\lvgl\src\lv_draw/lv_draw_triangle.c ****                 edge1.x += sx1;
 712              		.loc 1 196 0
 713 046c C8EB0301 		rsb	r1, r8, r3
 197:..\..\..\lvgl\version_6.1.2\lvgl\src\lv_draw/lv_draw_triangle.c ****             }
 714              		.loc 1 197 0
 715 0470 12B2     		sxth	r2, r2
 201:..\..\..\lvgl\version_6.1.2\lvgl\src\lv_draw/lv_draw_triangle.c ****             }
 716              		.loc 1 201 0
 717 0472 07EB0905 		add	r5, r7, r9
 196:..\..\..\lvgl\version_6.1.2\lvgl\src\lv_draw/lv_draw_triangle.c ****                 edge1.x += sx1;
 718              		.loc 1 196 0
 719 0476 09B2     		sxth	r1, r1
 720 0478 B4BF     		ite	lt
 721 047a 1046     		movlt	r0, r2
 722 047c 1946     		movge	r1, r3
 201:..\..\..\lvgl\version_6.1.2\lvgl\src\lv_draw/lv_draw_triangle.c ****             }
 723              		.loc 1 201 0
 724 047e 2DB2     		sxth	r5, r5
 725 0480 4345     		cmp	r3, r8
 726 0482 ACBF     		ite	ge
 727 0484 4B46     		movge	r3, r9
 728 0486 2B46     		movlt	r3, r5
 200:..\..\..\lvgl\version_6.1.2\lvgl\src\lv_draw/lv_draw_triangle.c ****                 edge1.y += sy1;
 729              		.loc 1 200 0
 730 0488 0AEB0102 		add	r2, r10, r1
 731 048c 1BB2     		sxth	r3, r3
 732 048e 12B2     		sxth	r2, r2
 733 0490 A8BF     		it	ge
 734 0492 0A46     		movge	r2, r1
 203:..\..\..\lvgl\version_6.1.2\lvgl\src\lv_draw/lv_draw_triangle.c **** 
 735              		.loc 1 203 0
 736 0494 9945     		cmp	r9, r3
 737 0496 00B2     		sxth	r0, r0
 738              	.LVL49:
 739 0498 D8D0     		beq	.L28
 740 049a BFE7     		b	.L73
ARM GAS  C:\Users\pearlstl\AppData\Local\Temp\ccVE6Vs6.s 			page 22


 741              	.LVL50:
 742              	.L20:
 743 049c 9342     		cmp	r3, r2
 744 049e 039B     		ldr	r3, [sp, #12]
 745 04a0 4BDC     		bgt	.L29
 746 04a2 9945     		cmp	r9, r3
 747 04a4 6AD0     		beq	.L78
 201:..\..\..\lvgl\version_6.1.2\lvgl\src\lv_draw/lv_draw_triangle.c ****             }
 748              		.loc 1 201 0
 749 04a6 0A9B     		ldr	r3, [sp, #40]
 750 04a8 DDF824C0 		ldr	ip, [sp, #36]
 751 04ac DDF810E0 		ldr	lr, [sp, #16]
 752 04b0 09EB0300 		add	r0, r9, r3
 753 04b4 00B2     		sxth	r0, r0
 179:..\..\..\lvgl\version_6.1.2\lvgl\src\lv_draw/lv_draw_triangle.c **** 
 754              		.loc 1 179 0
 755 04b6 2346     		mov	r3, r4
 195:..\..\..\lvgl\version_6.1.2\lvgl\src\lv_draw/lv_draw_triangle.c ****                 err1 -= dy1;
 756              		.loc 1 195 0
 757 04b8 CAF10001 		rsb	r1, r10, #0
 758              	.LVL51:
 759              	.L32:
 191:..\..\..\lvgl\version_6.1.2\lvgl\src\lv_draw/lv_draw_triangle.c ****                 return;
 760              		.loc 1 191 0
 761 04bc AE45     		cmp	lr, r5
 762 04be 3FF42BAF 		beq	.L1
 195:..\..\..\lvgl\version_6.1.2\lvgl\src\lv_draw/lv_draw_triangle.c ****                 err1 -= dy1;
 763              		.loc 1 195 0
 764 04c2 8C42     		cmp	r4, r1
 765 04c4 04DD     		ble	.L33
 196:..\..\..\lvgl\version_6.1.2\lvgl\src\lv_draw/lv_draw_triangle.c ****                 edge1.x += sx1;
 766              		.loc 1 196 0
 767 04c6 C8EB0404 		rsb	r4, r8, r4
 768              	.LVL52:
 197:..\..\..\lvgl\version_6.1.2\lvgl\src\lv_draw/lv_draw_triangle.c ****             }
 769              		.loc 1 197 0
 770 04ca 6544     		add	r5, r5, ip
 771              	.LVL53:
 196:..\..\..\lvgl\version_6.1.2\lvgl\src\lv_draw/lv_draw_triangle.c ****                 edge1.x += sx1;
 772              		.loc 1 196 0
 773 04cc 24B2     		sxth	r4, r4
 197:..\..\..\lvgl\version_6.1.2\lvgl\src\lv_draw/lv_draw_triangle.c ****             }
 774              		.loc 1 197 0
 775 04ce 2DB2     		sxth	r5, r5
 776              	.LVL54:
 777              	.L33:
 199:..\..\..\lvgl\version_6.1.2\lvgl\src\lv_draw/lv_draw_triangle.c ****                 err1 += dx1;
 778              		.loc 1 199 0
 779 04d0 9845     		cmp	r8, r3
 200:..\..\..\lvgl\version_6.1.2\lvgl\src\lv_draw/lv_draw_triangle.c ****                 edge1.y += sy1;
 780              		.loc 1 200 0
 781 04d2 04EB0A02 		add	r2, r4, r10
 782              	.LVL55:
 199:..\..\..\lvgl\version_6.1.2\lvgl\src\lv_draw/lv_draw_triangle.c ****                 err1 += dx1;
 783              		.loc 1 199 0
 784 04d6 03DD     		ble	.L34
 203:..\..\..\lvgl\version_6.1.2\lvgl\src\lv_draw/lv_draw_triangle.c **** 
ARM GAS  C:\Users\pearlstl\AppData\Local\Temp\ccVE6Vs6.s 			page 23


 785              		.loc 1 203 0
 786 04d8 8145     		cmp	r9, r0
 200:..\..\..\lvgl\version_6.1.2\lvgl\src\lv_draw/lv_draw_triangle.c ****                 edge1.y += sy1;
 787              		.loc 1 200 0
 788 04da 14B2     		sxth	r4, r2
 789              	.LVL56:
 203:..\..\..\lvgl\version_6.1.2\lvgl\src\lv_draw/lv_draw_triangle.c **** 
 790              		.loc 1 203 0
 791 04dc 7FF4D3AE 		bne	.L75
 792              	.LVL57:
 793              	.L34:
 179:..\..\..\lvgl\version_6.1.2\lvgl\src\lv_draw/lv_draw_triangle.c **** 
 794              		.loc 1 179 0
 795 04e0 2346     		mov	r3, r4
 796 04e2 EBE7     		b	.L32
 797              	.LVL58:
 798              	.L77:
 799 04e4 CDF838A0 		str	r10, [sp, #56]
 800 04e8 CDF83C80 		str	r8, [sp, #60]
 801 04ec 1094     		str	r4, [sp, #64]
 802 04ee DDF844C0 		ldr	ip, [sp, #68]
 803 04f2 049C     		ldr	r4, [sp, #16]
 804 04f4 DDF84C80 		ldr	r8, [sp, #76]
 805 04f8 DDF818A0 		ldr	r10, [sp, #24]
 806 04fc 1498     		ldr	r0, [sp, #80]
 210:..\..\..\lvgl\version_6.1.2\lvgl\src\lv_draw/lv_draw_triangle.c ****                 err2 -= dy2;
 807              		.loc 1 210 0
 808 04fe C3F1000E 		rsb	lr, r3, #0
 809              	.L47:
 810              	.LVL59:
 208:..\..\..\lvgl\version_6.1.2\lvgl\src\lv_draw/lv_draw_triangle.c ****             err_tmp2 = err2;
 811              		.loc 1 208 0
 812 0502 A642     		cmp	r6, r4
 813 0504 3FF408AF 		beq	.L1
 210:..\..\..\lvgl\version_6.1.2\lvgl\src\lv_draw/lv_draw_triangle.c ****                 err2 -= dy2;
 814              		.loc 1 210 0
 815 0508 7745     		cmp	r7, lr
 211:..\..\..\lvgl\version_6.1.2\lvgl\src\lv_draw/lv_draw_triangle.c ****                 edge2.x += sx2;
 816              		.loc 1 211 0
 817 050a C8EB0703 		rsb	r3, r8, r7
 212:..\..\..\lvgl\version_6.1.2\lvgl\src\lv_draw/lv_draw_triangle.c ****             }
 818              		.loc 1 212 0
 819 050e 00EB0601 		add	r1, r0, r6
 211:..\..\..\lvgl\version_6.1.2\lvgl\src\lv_draw/lv_draw_triangle.c ****                 edge2.x += sx2;
 820              		.loc 1 211 0
 821 0512 C6BF     		itte	gt
 822 0514 1BB2     		sxthgt	r3, r3
 823              	.LVL60:
 212:..\..\..\lvgl\version_6.1.2\lvgl\src\lv_draw/lv_draw_triangle.c ****             }
 824              		.loc 1 212 0
 825 0516 0EB2     		sxthgt	r6, r1
 826              	.LVL61:
 827 0518 3B46     		movle	r3, r7
 828              	.LVL62:
 214:..\..\..\lvgl\version_6.1.2\lvgl\src\lv_draw/lv_draw_triangle.c ****                 err2 += dx2;
 829              		.loc 1 214 0
 830 051a 5745     		cmp	r7, r10
ARM GAS  C:\Users\pearlstl\AppData\Local\Temp\ccVE6Vs6.s 			page 24


 215:..\..\..\lvgl\version_6.1.2\lvgl\src\lv_draw/lv_draw_triangle.c ****                 edge2.y += sy2;
 831              		.loc 1 215 0
 832 051c 03EB0C01 		add	r1, r3, ip
 214:..\..\..\lvgl\version_6.1.2\lvgl\src\lv_draw/lv_draw_triangle.c ****                 err2 += dx2;
 833              		.loc 1 214 0
 834 0520 02DA     		bge	.L51
 218:..\..\..\lvgl\version_6.1.2\lvgl\src\lv_draw/lv_draw_triangle.c ****     }
 835              		.loc 1 218 0
 836 0522 9345     		cmp	fp, r2
 215:..\..\..\lvgl\version_6.1.2\lvgl\src\lv_draw/lv_draw_triangle.c ****                 edge2.y += sy2;
 837              		.loc 1 215 0
 838 0524 0BB2     		sxth	r3, r1
 839              	.LVL63:
 218:..\..\..\lvgl\version_6.1.2\lvgl\src\lv_draw/lv_draw_triangle.c ****     }
 840              		.loc 1 218 0
 841 0526 01D1     		bne	.L79
 842              	.LVL64:
 843              	.L51:
 203:..\..\..\lvgl\version_6.1.2\lvgl\src\lv_draw/lv_draw_triangle.c **** 
 844              		.loc 1 203 0
 845 0528 1F46     		mov	r7, r3
 846              	.LVL65:
 847 052a EAE7     		b	.L47
 848              	.LVL66:
 849              	.L79:
 850 052c DDF838A0 		ldr	r10, [sp, #56]
 851 0530 DDF83C80 		ldr	r8, [sp, #60]
 852 0534 109C     		ldr	r4, [sp, #64]
 853 0536 1046     		mov	r0, r2
 854 0538 DCE6     		b	.L49
 855              	.LVL67:
 856              	.L29:
 857 053a 9945     		cmp	r9, r3
 858 053c 42D0     		beq	.L80
 201:..\..\..\lvgl\version_6.1.2\lvgl\src\lv_draw/lv_draw_triangle.c ****             }
 859              		.loc 1 201 0
 860 053e 0A9B     		ldr	r3, [sp, #40]
 861 0540 DDF824C0 		ldr	ip, [sp, #36]
 862 0544 DDF810E0 		ldr	lr, [sp, #16]
 863 0548 09EB0300 		add	r0, r9, r3
 864 054c 00B2     		sxth	r0, r0
 179:..\..\..\lvgl\version_6.1.2\lvgl\src\lv_draw/lv_draw_triangle.c **** 
 865              		.loc 1 179 0
 866 054e 2346     		mov	r3, r4
 195:..\..\..\lvgl\version_6.1.2\lvgl\src\lv_draw/lv_draw_triangle.c ****                 err1 -= dy1;
 867              		.loc 1 195 0
 868 0550 CAF10001 		rsb	r1, r10, #0
 869              	.LVL68:
 870              	.L40:
 191:..\..\..\lvgl\version_6.1.2\lvgl\src\lv_draw/lv_draw_triangle.c ****                 return;
 871              		.loc 1 191 0
 872 0554 AE45     		cmp	lr, r5
 873 0556 3FF4DFAE 		beq	.L1
 195:..\..\..\lvgl\version_6.1.2\lvgl\src\lv_draw/lv_draw_triangle.c ****                 err1 -= dy1;
 874              		.loc 1 195 0
 875 055a 8C42     		cmp	r4, r1
 876 055c 04DD     		ble	.L41
ARM GAS  C:\Users\pearlstl\AppData\Local\Temp\ccVE6Vs6.s 			page 25


 196:..\..\..\lvgl\version_6.1.2\lvgl\src\lv_draw/lv_draw_triangle.c ****                 edge1.x += sx1;
 877              		.loc 1 196 0
 878 055e C8EB0404 		rsb	r4, r8, r4
 879              	.LVL69:
 197:..\..\..\lvgl\version_6.1.2\lvgl\src\lv_draw/lv_draw_triangle.c ****             }
 880              		.loc 1 197 0
 881 0562 6544     		add	r5, r5, ip
 882              	.LVL70:
 196:..\..\..\lvgl\version_6.1.2\lvgl\src\lv_draw/lv_draw_triangle.c ****                 edge1.x += sx1;
 883              		.loc 1 196 0
 884 0564 24B2     		sxth	r4, r4
 197:..\..\..\lvgl\version_6.1.2\lvgl\src\lv_draw/lv_draw_triangle.c ****             }
 885              		.loc 1 197 0
 886 0566 2DB2     		sxth	r5, r5
 887              	.LVL71:
 888              	.L41:
 199:..\..\..\lvgl\version_6.1.2\lvgl\src\lv_draw/lv_draw_triangle.c ****                 err1 += dx1;
 889              		.loc 1 199 0
 890 0568 9845     		cmp	r8, r3
 200:..\..\..\lvgl\version_6.1.2\lvgl\src\lv_draw/lv_draw_triangle.c ****                 edge1.y += sy1;
 891              		.loc 1 200 0
 892 056a 04EB0A02 		add	r2, r4, r10
 893              	.LVL72:
 199:..\..\..\lvgl\version_6.1.2\lvgl\src\lv_draw/lv_draw_triangle.c ****                 err1 += dx1;
 894              		.loc 1 199 0
 895 056e 03DD     		ble	.L42
 203:..\..\..\lvgl\version_6.1.2\lvgl\src\lv_draw/lv_draw_triangle.c **** 
 896              		.loc 1 203 0
 897 0570 8145     		cmp	r9, r0
 200:..\..\..\lvgl\version_6.1.2\lvgl\src\lv_draw/lv_draw_triangle.c ****                 edge1.y += sy1;
 898              		.loc 1 200 0
 899 0572 14B2     		sxth	r4, r2
 900              	.LVL73:
 203:..\..\..\lvgl\version_6.1.2\lvgl\src\lv_draw/lv_draw_triangle.c **** 
 901              		.loc 1 203 0
 902 0574 7FF487AE 		bne	.L75
 903              	.LVL74:
 904              	.L42:
 179:..\..\..\lvgl\version_6.1.2\lvgl\src\lv_draw/lv_draw_triangle.c **** 
 905              		.loc 1 179 0
 906 0578 2346     		mov	r3, r4
 907 057a EBE7     		b	.L40
 908              	.LVL75:
 909              	.L78:
 910 057c 0E96     		str	r6, [sp, #56]
 911 057e 0998     		ldr	r0, [sp, #36]
 912 0580 DDF828E0 		ldr	lr, [sp, #40]
 913 0584 DDF814C0 		ldr	ip, [sp, #20]
 914 0588 049E     		ldr	r6, [sp, #16]
 915              	.LVL76:
 916 058a 2246     		mov	r2, r4
 917              	.LVL77:
 918              	.L31:
 184:..\..\..\lvgl\version_6.1.2\lvgl\src\lv_draw/lv_draw_triangle.c **** 
 919              		.loc 1 184 0
 920 058c 6545     		cmp	r5, ip
 921 058e 41D0     		beq	.L59
ARM GAS  C:\Users\pearlstl\AppData\Local\Temp\ccVE6Vs6.s 			page 26


 191:..\..\..\lvgl\version_6.1.2\lvgl\src\lv_draw/lv_draw_triangle.c ****                 return;
 922              		.loc 1 191 0
 923 0590 B542     		cmp	r5, r6
 924 0592 3FF4C1AE 		beq	.L1
 925              	.LVL78:
 926              	.L35:
 195:..\..\..\lvgl\version_6.1.2\lvgl\src\lv_draw/lv_draw_triangle.c ****                 err1 -= dy1;
 927              		.loc 1 195 0
 928 0596 CAF10003 		rsb	r3, r10, #0
 929 059a 9342     		cmp	r3, r2
 196:..\..\..\lvgl\version_6.1.2\lvgl\src\lv_draw/lv_draw_triangle.c ****                 edge1.x += sx1;
 930              		.loc 1 196 0
 931 059c C8EB0204 		rsb	r4, r8, r2
 197:..\..\..\lvgl\version_6.1.2\lvgl\src\lv_draw/lv_draw_triangle.c ****             }
 932              		.loc 1 197 0
 933 05a0 00EB0503 		add	r3, r0, r5
 196:..\..\..\lvgl\version_6.1.2\lvgl\src\lv_draw/lv_draw_triangle.c ****                 edge1.x += sx1;
 934              		.loc 1 196 0
 935 05a4 BABF     		itte	lt
 936 05a6 24B2     		sxthlt	r4, r4
 937              	.LVL79:
 197:..\..\..\lvgl\version_6.1.2\lvgl\src\lv_draw/lv_draw_triangle.c ****             }
 938              		.loc 1 197 0
 939 05a8 1DB2     		sxthlt	r5, r3
 940              	.LVL80:
 195:..\..\..\lvgl\version_6.1.2\lvgl\src\lv_draw/lv_draw_triangle.c ****                 err1 -= dy1;
 941              		.loc 1 195 0
 942 05aa 1446     		movge	r4, r2
 201:..\..\..\lvgl\version_6.1.2\lvgl\src\lv_draw/lv_draw_triangle.c ****             }
 943              		.loc 1 201 0
 944 05ac 09EB0E03 		add	r3, r9, lr
 199:..\..\..\lvgl\version_6.1.2\lvgl\src\lv_draw/lv_draw_triangle.c ****                 err1 += dx1;
 945              		.loc 1 199 0
 946 05b0 4245     		cmp	r2, r8
 200:..\..\..\lvgl\version_6.1.2\lvgl\src\lv_draw/lv_draw_triangle.c ****                 edge1.y += sy1;
 947              		.loc 1 200 0
 948 05b2 04EB0A01 		add	r1, r4, r10
 949              	.LVL81:
 201:..\..\..\lvgl\version_6.1.2\lvgl\src\lv_draw/lv_draw_triangle.c ****             }
 950              		.loc 1 201 0
 951 05b6 1BB2     		sxth	r3, r3
 199:..\..\..\lvgl\version_6.1.2\lvgl\src\lv_draw/lv_draw_triangle.c ****                 err1 += dx1;
 952              		.loc 1 199 0
 953 05b8 02DA     		bge	.L37
 203:..\..\..\lvgl\version_6.1.2\lvgl\src\lv_draw/lv_draw_triangle.c **** 
 954              		.loc 1 203 0
 955 05ba 4B45     		cmp	r3, r9
 200:..\..\..\lvgl\version_6.1.2\lvgl\src\lv_draw/lv_draw_triangle.c ****                 edge1.y += sy1;
 956              		.loc 1 200 0
 957 05bc 0CB2     		sxth	r4, r1
 958              	.LVL82:
 203:..\..\..\lvgl\version_6.1.2\lvgl\src\lv_draw/lv_draw_triangle.c **** 
 959              		.loc 1 203 0
 960 05be 23D1     		bne	.L74
 961              	.LVL83:
 962              	.L37:
 179:..\..\..\lvgl\version_6.1.2\lvgl\src\lv_draw/lv_draw_triangle.c **** 
ARM GAS  C:\Users\pearlstl\AppData\Local\Temp\ccVE6Vs6.s 			page 27


 963              		.loc 1 179 0
 964 05c0 2246     		mov	r2, r4
 965              	.LVL84:
 966 05c2 E3E7     		b	.L31
 967              	.LVL85:
 968              	.L80:
 969 05c4 0E96     		str	r6, [sp, #56]
 970 05c6 0998     		ldr	r0, [sp, #36]
 971 05c8 DDF828E0 		ldr	lr, [sp, #40]
 972 05cc DDF814C0 		ldr	ip, [sp, #20]
 973 05d0 049E     		ldr	r6, [sp, #16]
 974              	.LVL86:
 975 05d2 2246     		mov	r2, r4
 976              	.LVL87:
 977              	.L39:
 184:..\..\..\lvgl\version_6.1.2\lvgl\src\lv_draw/lv_draw_triangle.c **** 
 978              		.loc 1 184 0
 979 05d4 6545     		cmp	r5, ip
 980 05d6 28D0     		beq	.L62
 191:..\..\..\lvgl\version_6.1.2\lvgl\src\lv_draw/lv_draw_triangle.c ****                 return;
 981              		.loc 1 191 0
 982 05d8 B542     		cmp	r5, r6
 983 05da 3FF49DAE 		beq	.L1
 984              	.LVL88:
 985              	.L43:
 195:..\..\..\lvgl\version_6.1.2\lvgl\src\lv_draw/lv_draw_triangle.c ****                 err1 -= dy1;
 986              		.loc 1 195 0
 987 05de CAF10003 		rsb	r3, r10, #0
 988 05e2 9A42     		cmp	r2, r3
 196:..\..\..\lvgl\version_6.1.2\lvgl\src\lv_draw/lv_draw_triangle.c ****                 edge1.x += sx1;
 989              		.loc 1 196 0
 990 05e4 C8EB0204 		rsb	r4, r8, r2
 197:..\..\..\lvgl\version_6.1.2\lvgl\src\lv_draw/lv_draw_triangle.c ****             }
 991              		.loc 1 197 0
 992 05e8 05EB0003 		add	r3, r5, r0
 196:..\..\..\lvgl\version_6.1.2\lvgl\src\lv_draw/lv_draw_triangle.c ****                 edge1.x += sx1;
 993              		.loc 1 196 0
 994 05ec C6BF     		itte	gt
 995 05ee 24B2     		sxthgt	r4, r4
 996              	.LVL89:
 197:..\..\..\lvgl\version_6.1.2\lvgl\src\lv_draw/lv_draw_triangle.c ****             }
 997              		.loc 1 197 0
 998 05f0 1DB2     		sxthgt	r5, r3
 999              	.LVL90:
 1000 05f2 1446     		movle	r4, r2
 201:..\..\..\lvgl\version_6.1.2\lvgl\src\lv_draw/lv_draw_triangle.c ****             }
 1001              		.loc 1 201 0
 1002 05f4 09EB0E03 		add	r3, r9, lr
 199:..\..\..\lvgl\version_6.1.2\lvgl\src\lv_draw/lv_draw_triangle.c ****                 err1 += dx1;
 1003              		.loc 1 199 0
 1004 05f8 9045     		cmp	r8, r2
 200:..\..\..\lvgl\version_6.1.2\lvgl\src\lv_draw/lv_draw_triangle.c ****                 edge1.y += sy1;
 1005              		.loc 1 200 0
 1006 05fa 04EB0A01 		add	r1, r4, r10
 1007              	.LVL91:
 201:..\..\..\lvgl\version_6.1.2\lvgl\src\lv_draw/lv_draw_triangle.c ****             }
 1008              		.loc 1 201 0
ARM GAS  C:\Users\pearlstl\AppData\Local\Temp\ccVE6Vs6.s 			page 28


 1009 05fe 1BB2     		sxth	r3, r3
 199:..\..\..\lvgl\version_6.1.2\lvgl\src\lv_draw/lv_draw_triangle.c ****                 err1 += dx1;
 1010              		.loc 1 199 0
 1011 0600 11DD     		ble	.L45
 203:..\..\..\lvgl\version_6.1.2\lvgl\src\lv_draw/lv_draw_triangle.c **** 
 1012              		.loc 1 203 0
 1013 0602 9945     		cmp	r9, r3
 200:..\..\..\lvgl\version_6.1.2\lvgl\src\lv_draw/lv_draw_triangle.c ****                 edge1.y += sy1;
 1014              		.loc 1 200 0
 1015 0604 0CB2     		sxth	r4, r1
 1016              	.LVL92:
 203:..\..\..\lvgl\version_6.1.2\lvgl\src\lv_draw/lv_draw_triangle.c **** 
 1017              		.loc 1 203 0
 1018 0606 0ED0     		beq	.L45
 1019              	.LVL93:
 1020              	.L74:
 1021 0608 0990     		str	r0, [sp, #36]
 1022 060a CDF828E0 		str	lr, [sp, #40]
 1023 060e 0E9E     		ldr	r6, [sp, #56]
 1024 0610 9946     		mov	r9, r3
 1025              	.LVL94:
 1026 0612 39E6     		b	.L24
 1027              	.LVL95:
 1028              	.L59:
 190:..\..\..\lvgl\version_6.1.2\lvgl\src\lv_draw/lv_draw_triangle.c ****             } else if(edge1.x == tri[2].x && edge1.y == tri[2].y) {
 1029              		.loc 1 190 0
 1030 0614 179A     		ldr	r2, [sp, #92]
 189:..\..\..\lvgl\version_6.1.2\lvgl\src\lv_draw/lv_draw_triangle.c ****                 err1 = (dx1 > dy1 ? dx1 : -dy1) / 2;
 1031              		.loc 1 189 0
 1032 0616 DDF804E0 		ldr	lr, [sp, #4]
 1033              	.LVL96:
 184:..\..\..\lvgl\version_6.1.2\lvgl\src\lv_draw/lv_draw_triangle.c **** 
 1034              		.loc 1 184 0
 1035 061a DDF82080 		ldr	r8, [sp, #32]
 1036              	.LVL97:
 187:..\..\..\lvgl\version_6.1.2\lvgl\src\lv_draw/lv_draw_triangle.c ****                 dy1  = LV_MATH_ABS(tri[1].y - tri[2].y);
 1037              		.loc 1 187 0
 1038 061e 0098     		ldr	r0, [sp]
 1039              	.LVL98:
 184:..\..\..\lvgl\version_6.1.2\lvgl\src\lv_draw/lv_draw_triangle.c **** 
 1040              		.loc 1 184 0
 1041 0620 DDF81CA0 		ldr	r10, [sp, #28]
 1042              	.LVL99:
 1043 0624 B7E7     		b	.L35
 1044              	.LVL100:
 1045              	.L45:
 179:..\..\..\lvgl\version_6.1.2\lvgl\src\lv_draw/lv_draw_triangle.c **** 
 1046              		.loc 1 179 0
 1047 0626 2246     		mov	r2, r4
 1048              	.LVL101:
 1049 0628 D4E7     		b	.L39
 1050              	.LVL102:
 1051              	.L62:
 190:..\..\..\lvgl\version_6.1.2\lvgl\src\lv_draw/lv_draw_triangle.c ****             } else if(edge1.x == tri[2].x && edge1.y == tri[2].y) {
 1052              		.loc 1 190 0
 1053 062a 169A     		ldr	r2, [sp, #88]
 189:..\..\..\lvgl\version_6.1.2\lvgl\src\lv_draw/lv_draw_triangle.c ****                 err1 = (dx1 > dy1 ? dx1 : -dy1) / 2;
ARM GAS  C:\Users\pearlstl\AppData\Local\Temp\ccVE6Vs6.s 			page 29


 1054              		.loc 1 189 0
 1055 062c DDF804E0 		ldr	lr, [sp, #4]
 1056              	.LVL103:
 1057 0630 DDF82080 		ldr	r8, [sp, #32]
 1058              	.LVL104:
 187:..\..\..\lvgl\version_6.1.2\lvgl\src\lv_draw/lv_draw_triangle.c ****                 dy1  = LV_MATH_ABS(tri[1].y - tri[2].y);
 1059              		.loc 1 187 0
 1060 0634 0098     		ldr	r0, [sp]
 1061              	.LVL105:
 1062 0636 DDF81CA0 		ldr	r10, [sp, #28]
 1063              	.LVL106:
 1064 063a D0E7     		b	.L43
 1065              		.cfi_endproc
 1066              	.LFE33:
 1067              		.size	tri_draw_flat, .-tri_draw_flat
 1068              		.section	.text.tri_draw_tall,"ax",%progbits
 1069              		.align	2
 1070              		.global	tri_draw_tall
 1071              		.thumb
 1072              		.thumb_func
 1073              		.type	tri_draw_tall, %function
 1074              	tri_draw_tall:
 1075              	.LFB34:
 223:..\..\..\lvgl\version_6.1.2\lvgl\src\lv_draw/lv_draw_triangle.c ****     /*
 1076              		.loc 1 223 0
 1077              		.cfi_startproc
 1078              		@ args = 0, pretend = 0, frame = 128
 1079              		@ frame_needed = 0, uses_anonymous_args = 0
 1080              	.LVL107:
 1081 0000 2DE9F04F 		push	{r4, r5, r6, r7, r8, r9, r10, fp, lr}
 1082              		.cfi_def_cfa_offset 36
 1083              		.cfi_offset 4, -36
 1084              		.cfi_offset 5, -32
 1085              		.cfi_offset 6, -28
 1086              		.cfi_offset 7, -24
 1087              		.cfi_offset 8, -20
 1088              		.cfi_offset 9, -16
 1089              		.cfi_offset 10, -12
 1090              		.cfi_offset 11, -8
 1091              		.cfi_offset 14, -4
 1092 0004 0446     		mov	r4, r0
 1093 0006 A1B0     		sub	sp, sp, #132
 1094              		.cfi_def_cfa_offset 168
 236:..\..\..\lvgl\version_6.1.2\lvgl\src\lv_draw/lv_draw_triangle.c **** 
 1095              		.loc 1 236 0
 1096 0008 0068     		ldr	r0, [r0]	@ unaligned
 1097              	.LVL108:
 223:..\..\..\lvgl\version_6.1.2\lvgl\src\lv_draw/lv_draw_triangle.c ****     /*
 1098              		.loc 1 223 0
 1099 000a 0F91     		str	r1, [sp, #60]
 1100 000c 1092     		str	r2, [sp, #64]
 236:..\..\..\lvgl\version_6.1.2\lvgl\src\lv_draw/lv_draw_triangle.c **** 
 1101              		.loc 1 236 0
 1102 000e 6168     		ldr	r1, [r4, #4]	@ unaligned
 1103              	.LVL109:
 1104 0010 A268     		ldr	r2, [r4, #8]	@ unaligned
 1105              	.LVL110:
ARM GAS  C:\Users\pearlstl\AppData\Local\Temp\ccVE6Vs6.s 			page 30


 223:..\..\..\lvgl\version_6.1.2\lvgl\src\lv_draw/lv_draw_triangle.c ****     /*
 1106              		.loc 1 223 0
 1107 0012 1193     		str	r3, [sp, #68]
 236:..\..\..\lvgl\version_6.1.2\lvgl\src\lv_draw/lv_draw_triangle.c **** 
 1108              		.loc 1 236 0
 1109 0014 1DAC     		add	r4, sp, #116
 1110              	.LVL111:
 1111 0016 07C4     		stmia	r4!, {r0, r1, r2}
 239:..\..\..\lvgl\version_6.1.2\lvgl\src\lv_draw/lv_draw_triangle.c ****     if(tri[2].x < tri[1].x) point_swap(&tri[2], &tri[1]);
 1112              		.loc 1 239 0
 1113 0018 BDF97810 		ldrsh	r1, [sp, #120]
 1114 001c BDF97420 		ldrsh	r2, [sp, #116]
 240:..\..\..\lvgl\version_6.1.2\lvgl\src\lv_draw/lv_draw_triangle.c ****     if(tri[1].x < tri[0].x) point_swap(&tri[1], &tri[0]);
 1115              		.loc 1 240 0
 1116 0020 BDF97C00 		ldrsh	r0, [sp, #124]
 239:..\..\..\lvgl\version_6.1.2\lvgl\src\lv_draw/lv_draw_triangle.c ****     if(tri[2].x < tri[1].x) point_swap(&tri[2], &tri[1]);
 1117              		.loc 1 239 0
 1118 0024 9142     		cmp	r1, r2
 1119 0026 80F21481 		bge	.L82
 1120              	.LVL112:
 1121              	.LBB20:
 1122              	.LBB21:
 339:..\..\..\lvgl\version_6.1.2\lvgl\src\lv_draw/lv_draw_triangle.c **** 
 1123              		.loc 1 339 0
 1124 002a BDF97630 		ldrsh	r3, [sp, #118]
 1125              	.LVL113:
 336:..\..\..\lvgl\version_6.1.2\lvgl\src\lv_draw/lv_draw_triangle.c **** 
 1126              		.loc 1 336 0
 1127 002e BDF97A40 		ldrsh	r4, [sp, #122]
 1128              	.LVL114:
 339:..\..\..\lvgl\version_6.1.2\lvgl\src\lv_draw/lv_draw_triangle.c **** 
 1129              		.loc 1 339 0
 1130 0032 0793     		str	r3, [sp, #28]
 1131              	.LBE21:
 1132              	.LBE20:
 240:..\..\..\lvgl\version_6.1.2\lvgl\src\lv_draw/lv_draw_triangle.c ****     if(tri[1].x < tri[0].x) point_swap(&tri[1], &tri[0]);
 1133              		.loc 1 240 0
 1134 0034 8242     		cmp	r2, r0
 1135              	.LBB23:
 1136              	.LBB22:
 338:..\..\..\lvgl\version_6.1.2\lvgl\src\lv_draw/lv_draw_triangle.c ****     p1->y = p2->y;
 1137              		.loc 1 338 0
 1138 0036 ADF87820 		strh	r2, [sp, #120]	@ movhi
 341:..\..\..\lvgl\version_6.1.2\lvgl\src\lv_draw/lv_draw_triangle.c ****     p2->y = tmp.y;
 1139              		.loc 1 341 0
 1140 003a ADF87410 		strh	r1, [sp, #116]	@ movhi
 1141              		.loc 1 342 0
 1142 003e ADF87640 		strh	r4, [sp, #118]	@ movhi
 339:..\..\..\lvgl\version_6.1.2\lvgl\src\lv_draw/lv_draw_triangle.c **** 
 1143              		.loc 1 339 0
 1144 0042 ADF87A30 		strh	r3, [sp, #122]	@ movhi
 1145              	.LBE22:
 1146              	.LBE23:
 240:..\..\..\lvgl\version_6.1.2\lvgl\src\lv_draw/lv_draw_triangle.c ****     if(tri[1].x < tri[0].x) point_swap(&tri[1], &tri[0]);
 1147              		.loc 1 240 0
 1148 0046 00F30E81 		bgt	.L132
 1149              	.LVL115:
ARM GAS  C:\Users\pearlstl\AppData\Local\Temp\ccVE6Vs6.s 			page 31


 1150              	.L83:
 245:..\..\..\lvgl\version_6.1.2\lvgl\src\lv_draw/lv_draw_triangle.c ****     lv_coord_t sx1  = tri[0].x < tri[1].x ? 1 : -1;
 1151              		.loc 1 245 0
 1152 004a C2EB010A 		rsb	r10, r2, r1
 1153 004e BAF1000F 		cmp	r10, #0
 1154 0052 B8BF     		it	lt
 1155 0054 CAF1000A 		rsblt	r10, r10, #0
 1156 0058 0B46     		mov	r3, r1
 246:..\..\..\lvgl\version_6.1.2\lvgl\src\lv_draw/lv_draw_triangle.c ****     lv_coord_t dy1  = LV_MATH_ABS(tri[0].y - tri[1].y);
 1157              		.loc 1 246 0
 1158 005a 0390     		str	r0, [sp, #12]
 1159 005c 8B46     		mov	fp, r1
 1160 005e 0798     		ldr	r0, [sp, #28]
 1161 0060 0992     		str	r2, [sp, #36]
 1162 0062 9142     		cmp	r1, r2
 1163 0064 ACBF     		ite	ge
 1164 0066 4FF0FF31 		movge	r1, #-1
 1165 006a 0121     		movlt	r1, #1
 1166 006c 2646     		mov	r6, r4
 245:..\..\..\lvgl\version_6.1.2\lvgl\src\lv_draw/lv_draw_triangle.c ****     lv_coord_t sx1  = tri[0].x < tri[1].x ? 1 : -1;
 1167              		.loc 1 245 0
 1168 006e 0FFA8AFA 		sxth	r10, r10
 1169              	.LVL116:
 246:..\..\..\lvgl\version_6.1.2\lvgl\src\lv_draw/lv_draw_triangle.c ****     lv_coord_t dy1  = LV_MATH_ABS(tri[0].y - tri[1].y);
 1170              		.loc 1 246 0
 1171 0072 0A91     		str	r1, [sp, #40]
 1172              	.L84:
 1173              	.LVL117:
 247:..\..\..\lvgl\version_6.1.2\lvgl\src\lv_draw/lv_draw_triangle.c ****     lv_coord_t sy1  = tri[0].y < tri[1].y ? 1 : -1;
 1174              		.loc 1 247 0 discriminator 4
 1175 0074 C0EB0608 		rsb	r8, r0, r6
 1176 0078 B8F1000F 		cmp	r8, #0
 1177 007c B8BF     		it	lt
 1178 007e C8F10008 		rsblt	r8, r8, #0
 1179 0082 0FFA88F8 		sxth	r8, r8
 1180              	.LVL118:
 248:..\..\..\lvgl\version_6.1.2\lvgl\src\lv_draw/lv_draw_triangle.c ****     lv_coord_t err1 = (dx1 > dy1 ? dx1 : -dy1) / 2;
 1181              		.loc 1 248 0 discriminator 4
 1182 0086 8642     		cmp	r6, r0
 1183 0088 ACBF     		ite	ge
 1184 008a 4FF0FF31 		movge	r1, #-1
 1185 008e 0121     		movlt	r1, #1
 249:..\..\..\lvgl\version_6.1.2\lvgl\src\lv_draw/lv_draw_triangle.c ****     lv_coord_t err_tmp1;
 1186              		.loc 1 249 0 discriminator 4
 1187 0090 D045     		cmp	r8, r10
 248:..\..\..\lvgl\version_6.1.2\lvgl\src\lv_draw/lv_draw_triangle.c ****     lv_coord_t err1 = (dx1 > dy1 ? dx1 : -dy1) / 2;
 1188              		.loc 1 248 0 discriminator 4
 1189 0092 0691     		str	r1, [sp, #24]
 1190              	.LVL119:
 249:..\..\..\lvgl\version_6.1.2\lvgl\src\lv_draw/lv_draw_triangle.c ****     lv_coord_t err_tmp1;
 1191              		.loc 1 249 0 discriminator 4
 1192 0094 80F23A81 		bge	.L86
 249:..\..\..\lvgl\version_6.1.2\lvgl\src\lv_draw/lv_draw_triangle.c ****     lv_coord_t err_tmp1;
 1193              		.loc 1 249 0 is_stmt 0 discriminator 1
 1194 0098 0AEBDA74 		add	r4, r10, r10, lsr #31
 1195 009c 6410     		asrs	r4, r4, #1
 1196              	.L87:
ARM GAS  C:\Users\pearlstl\AppData\Local\Temp\ccVE6Vs6.s 			page 32


 1197              	.LVL120:
 255:..\..\..\lvgl\version_6.1.2\lvgl\src\lv_draw/lv_draw_triangle.c ****     lv_coord_t sy2  = tri[0].y < tri[2].y ? 1 : -1;
 1198              		.loc 1 255 0 is_stmt 1 discriminator 4
 1199 009e BDF97E10 		ldrsh	r1, [sp, #126]
 253:..\..\..\lvgl\version_6.1.2\lvgl\src\lv_draw/lv_draw_triangle.c ****     lv_coord_t sx2  = tri[0].x < tri[2].x ? 1 : -1;
 1200              		.loc 1 253 0 discriminator 4
 1201 00a2 039F     		ldr	r7, [sp, #12]
 255:..\..\..\lvgl\version_6.1.2\lvgl\src\lv_draw/lv_draw_triangle.c ****     lv_coord_t sy2  = tri[0].y < tri[2].y ? 1 : -1;
 1202              		.loc 1 255 0 discriminator 4
 1203 00a4 0591     		str	r1, [sp, #20]
 1204 00a6 0846     		mov	r0, r1
 1205 00a8 711A     		subs	r1, r6, r1
 253:..\..\..\lvgl\version_6.1.2\lvgl\src\lv_draw/lv_draw_triangle.c ****     lv_coord_t sx2  = tri[0].x < tri[2].x ? 1 : -1;
 1206              		.loc 1 253 0 discriminator 4
 1207 00aa DB1B     		subs	r3, r3, r7
 255:..\..\..\lvgl\version_6.1.2\lvgl\src\lv_draw/lv_draw_triangle.c ****     lv_coord_t sy2  = tri[0].y < tri[2].y ? 1 : -1;
 1208              		.loc 1 255 0 discriminator 4
 1209 00ac 0029     		cmp	r1, #0
 1210 00ae B8BF     		it	lt
 1211 00b0 4942     		rsblt	r1, r1, #0
 253:..\..\..\lvgl\version_6.1.2\lvgl\src\lv_draw/lv_draw_triangle.c ****     lv_coord_t sx2  = tri[0].x < tri[2].x ? 1 : -1;
 1212              		.loc 1 253 0 discriminator 4
 1213 00b2 002B     		cmp	r3, #0
 1214 00b4 B8BF     		it	lt
 1215 00b6 5B42     		rsblt	r3, r3, #0
 1216 00b8 1D46     		mov	r5, r3
 1217 00ba 0D93     		str	r3, [sp, #52]
 255:..\..\..\lvgl\version_6.1.2\lvgl\src\lv_draw/lv_draw_triangle.c ****     lv_coord_t sy2  = tri[0].y < tri[2].y ? 1 : -1;
 1218              		.loc 1 255 0 discriminator 4
 1219 00bc 0BB2     		sxth	r3, r1
 1220 00be 0493     		str	r3, [sp, #16]
 254:..\..\..\lvgl\version_6.1.2\lvgl\src\lv_draw/lv_draw_triangle.c ****     lv_coord_t dy2  = LV_MATH_ABS(tri[0].y - tri[2].y);
 1221              		.loc 1 254 0 discriminator 4
 1222 00c0 4FF6FF73 		movw	r3, #65535
 256:..\..\..\lvgl\version_6.1.2\lvgl\src\lv_draw/lv_draw_triangle.c ****     lv_coord_t err2 = (dx1 > dy2 ? dx2 : -dy2) / 2;
 1223              		.loc 1 256 0 discriminator 4
 1224 00c4 B042     		cmp	r0, r6
 1225 00c6 D4BF     		ite	le
 1226 00c8 1846     		movle	r0, r3
 1227 00ca 0120     		movgt	r0, #1
 1228 00cc 0E90     		str	r0, [sp, #56]
 254:..\..\..\lvgl\version_6.1.2\lvgl\src\lv_draw/lv_draw_triangle.c ****     lv_coord_t dy2  = LV_MATH_ABS(tri[0].y - tri[2].y);
 1229              		.loc 1 254 0 discriminator 4
 1230 00ce 1846     		mov	r0, r3
 257:..\..\..\lvgl\version_6.1.2\lvgl\src\lv_draw/lv_draw_triangle.c ****     lv_coord_t err_tmp2;
 1231              		.loc 1 257 0 discriminator 4
 1232 00d0 049B     		ldr	r3, [sp, #16]
 255:..\..\..\lvgl\version_6.1.2\lvgl\src\lv_draw/lv_draw_triangle.c ****     lv_coord_t sy2  = tri[0].y < tri[2].y ? 1 : -1;
 1233              		.loc 1 255 0 discriminator 4
 1234 00d2 0891     		str	r1, [sp, #32]
 254:..\..\..\lvgl\version_6.1.2\lvgl\src\lv_draw/lv_draw_triangle.c ****     lv_coord_t dy2  = LV_MATH_ABS(tri[0].y - tri[2].y);
 1235              		.loc 1 254 0 discriminator 4
 1236 00d4 BB45     		cmp	fp, r7
 1237 00d6 B8BF     		it	lt
 1238 00d8 0120     		movlt	r0, #1
 253:..\..\..\lvgl\version_6.1.2\lvgl\src\lv_draw/lv_draw_triangle.c ****     lv_coord_t sx2  = tri[0].x < tri[2].x ? 1 : -1;
 1239              		.loc 1 253 0 discriminator 4
ARM GAS  C:\Users\pearlstl\AppData\Local\Temp\ccVE6Vs6.s 			page 33


 1240 00da 29B2     		sxth	r1, r5
 257:..\..\..\lvgl\version_6.1.2\lvgl\src\lv_draw/lv_draw_triangle.c ****     lv_coord_t err_tmp2;
 1241              		.loc 1 257 0 discriminator 4
 1242 00dc 5345     		cmp	r3, r10
 253:..\..\..\lvgl\version_6.1.2\lvgl\src\lv_draw/lv_draw_triangle.c ****     lv_coord_t sx2  = tri[0].x < tri[2].x ? 1 : -1;
 1243              		.loc 1 253 0 discriminator 4
 1244 00de 1291     		str	r1, [sp, #72]
 1245              	.LVL121:
 254:..\..\..\lvgl\version_6.1.2\lvgl\src\lv_draw/lv_draw_triangle.c ****     lv_coord_t dy2  = LV_MATH_ABS(tri[0].y - tri[2].y);
 1246              		.loc 1 254 0 discriminator 4
 1247 00e0 1790     		str	r0, [sp, #92]
 1248              	.LVL122:
 257:..\..\..\lvgl\version_6.1.2\lvgl\src\lv_draw/lv_draw_triangle.c ****     lv_coord_t err_tmp2;
 1249              		.loc 1 257 0 discriminator 4
 1250 00e2 80F20D81 		bge	.L90
 257:..\..\..\lvgl\version_6.1.2\lvgl\src\lv_draw/lv_draw_triangle.c ****     lv_coord_t err_tmp2;
 1251              		.loc 1 257 0 is_stmt 0 discriminator 1
 1252 00e6 1299     		ldr	r1, [sp, #72]
 1253 00e8 01EBD177 		add	r7, r1, r1, lsr #31
 1254 00ec 7F10     		asrs	r7, r7, #1
 1255              	.L91:
 290:..\..\..\lvgl\version_6.1.2\lvgl\src\lv_draw/lv_draw_triangle.c ****                 sy1  = tri[1].y < tri[2].y ? 1 : -1;
 1256              		.loc 1 290 0 is_stmt 1
 1257 00ee 0799     		ldr	r1, [sp, #28]
 1258 00f0 0598     		ldr	r0, [sp, #20]
 288:..\..\..\lvgl\version_6.1.2\lvgl\src\lv_draw/lv_draw_triangle.c ****                 sx1  = tri[1].x < tri[2].x ? 1 : -1;
 1259              		.loc 1 288 0
 1260 00f2 039D     		ldr	r5, [sp, #12]
 290:..\..\..\lvgl\version_6.1.2\lvgl\src\lv_draw/lv_draw_triangle.c ****                 sy1  = tri[1].y < tri[2].y ? 1 : -1;
 1261              		.loc 1 290 0
 1262 00f4 0B1A     		subs	r3, r1, r0
 1263 00f6 002B     		cmp	r3, #0
 1264 00f8 B8BF     		it	lt
 1265 00fa 5B42     		rsblt	r3, r3, #0
 288:..\..\..\lvgl\version_6.1.2\lvgl\src\lv_draw/lv_draw_triangle.c ****                 sx1  = tri[1].x < tri[2].x ? 1 : -1;
 1266              		.loc 1 288 0
 1267 00fc 521B     		subs	r2, r2, r5
 290:..\..\..\lvgl\version_6.1.2\lvgl\src\lv_draw/lv_draw_triangle.c ****                 sy1  = tri[1].y < tri[2].y ? 1 : -1;
 1268              		.loc 1 290 0
 1269 00fe 1BB2     		sxth	r3, r3
 288:..\..\..\lvgl\version_6.1.2\lvgl\src\lv_draw/lv_draw_triangle.c ****                 sx1  = tri[1].x < tri[2].x ? 1 : -1;
 1270              		.loc 1 288 0
 1271 0100 002A     		cmp	r2, #0
 290:..\..\..\lvgl\version_6.1.2\lvgl\src\lv_draw/lv_draw_triangle.c ****                 sy1  = tri[1].y < tri[2].y ? 1 : -1;
 1272              		.loc 1 290 0
 1273 0102 0C93     		str	r3, [sp, #48]
 292:..\..\..\lvgl\version_6.1.2\lvgl\src\lv_draw/lv_draw_triangle.c ****             } else if(edge1.y == tri[2].y && edge1.x == tri[2].x) {
 1274              		.loc 1 292 0
 1275 0104 03EBD373 		add	r3, r3, r3, lsr #31
 288:..\..\..\lvgl\version_6.1.2\lvgl\src\lv_draw/lv_draw_triangle.c ****                 sx1  = tri[1].x < tri[2].x ? 1 : -1;
 1276              		.loc 1 288 0
 1277 0108 B8BF     		it	lt
 1278 010a 5242     		rsblt	r2, r2, #0
 292:..\..\..\lvgl\version_6.1.2\lvgl\src\lv_draw/lv_draw_triangle.c ****             } else if(edge1.y == tri[2].y && edge1.x == tri[2].x) {
 1279              		.loc 1 292 0
 1280 010c 5B10     		asrs	r3, r3, #1
 288:..\..\..\lvgl\version_6.1.2\lvgl\src\lv_draw/lv_draw_triangle.c ****                 sx1  = tri[1].x < tri[2].x ? 1 : -1;
ARM GAS  C:\Users\pearlstl\AppData\Local\Temp\ccVE6Vs6.s 			page 34


 1281              		.loc 1 288 0
 1282 010e 12B2     		sxth	r2, r2
 292:..\..\..\lvgl\version_6.1.2\lvgl\src\lv_draw/lv_draw_triangle.c ****             } else if(edge1.y == tri[2].y && edge1.x == tri[2].x) {
 1283              		.loc 1 292 0
 1284 0110 5B42     		negs	r3, r3
 1285 0112 1BB2     		sxth	r3, r3
 288:..\..\..\lvgl\version_6.1.2\lvgl\src\lv_draw/lv_draw_triangle.c ****                 sx1  = tri[1].x < tri[2].x ? 1 : -1;
 1286              		.loc 1 288 0
 1287 0114 0B92     		str	r2, [sp, #44]
 292:..\..\..\lvgl\version_6.1.2\lvgl\src\lv_draw/lv_draw_triangle.c ****             } else if(edge1.y == tri[2].y && edge1.x == tri[2].x) {
 1288              		.loc 1 292 0
 1289 0116 02EBD272 		add	r2, r2, r2, lsr #31
 1290 011a 1993     		str	r3, [sp, #100]
 1291 011c 5310     		asrs	r3, r2, #1
 1292 011e 1893     		str	r3, [sp, #96]
 1293 0120 099B     		ldr	r3, [sp, #36]
 1294 0122 AB42     		cmp	r3, r5
 1295 0124 B4BF     		ite	lt
 1296 0126 0123     		movlt	r3, #1
 1297 0128 4FF0FF33 		movge	r3, #-1
 1298 012c 0193     		str	r3, [sp, #4]
 1299 012e 8842     		cmp	r0, r1
 1300 0130 CCBF     		ite	gt
 1301 0132 0123     		movgt	r3, #1
 1302 0134 4FF0FF33 		movle	r3, #-1
 1303 0138 0293     		str	r3, [sp, #8]
 1304 013a 3546     		mov	r5, r6
 1305 013c D946     		mov	r9, fp
 1306              	.LVL123:
 1307              	.L130:
 279:..\..\..\lvgl\version_6.1.2\lvgl\src\lv_draw/lv_draw_triangle.c **** 
 1308              		.loc 1 279 0
 1309 013e AE42     		cmp	r6, r5
 1310 0140 3246     		mov	r2, r6
 1311 0142 B8BF     		it	lt
 1312 0144 2A46     		movlt	r2, r5
 1313 0146 013A     		subs	r2, r2, #1
 276:..\..\..\lvgl\version_6.1.2\lvgl\src\lv_draw/lv_draw_triangle.c ****         draw_area.x2 = LV_MATH_MAX(act_area.x1, act_area.x2);
 1314              		.loc 1 276 0
 1315 0148 CB45     		cmp	fp, r9
 1316 014a 5946     		mov	r1, fp
 279:..\..\..\lvgl\version_6.1.2\lvgl\src\lv_draw/lv_draw_triangle.c **** 
 1317              		.loc 1 279 0
 1318 014c ADF87220 		strh	r2, [sp, #114]	@ movhi
 276:..\..\..\lvgl\version_6.1.2\lvgl\src\lv_draw/lv_draw_triangle.c ****         draw_area.x2 = LV_MATH_MAX(act_area.x1, act_area.x2);
 1319              		.loc 1 276 0
 1320 0150 A8BF     		it	ge
 1321 0152 4946     		movge	r1, r9
 281:..\..\..\lvgl\version_6.1.2\lvgl\src\lv_draw/lv_draw_triangle.c **** 
 1322              		.loc 1 281 0
 1323 0154 109A     		ldr	r2, [sp, #64]
 1324 0156 119B     		ldr	r3, [sp, #68]
 1325 0158 5268     		ldr	r2, [r2, #4]
 276:..\..\..\lvgl\version_6.1.2\lvgl\src\lv_draw/lv_draw_triangle.c ****         draw_area.x2 = LV_MATH_MAX(act_area.x1, act_area.x2);
 1326              		.loc 1 276 0
 1327 015a ADF86C10 		strh	r1, [sp, #108]	@ movhi
 277:..\..\..\lvgl\version_6.1.2\lvgl\src\lv_draw/lv_draw_triangle.c ****         draw_area.y1 = LV_MATH_MIN(act_area.y1, act_area.y2);
ARM GAS  C:\Users\pearlstl\AppData\Local\Temp\ccVE6Vs6.s 			page 35


 1328              		.loc 1 277 0
 1329 015e CB45     		cmp	fp, r9
 1330 0160 5846     		mov	r0, fp
 1331 0162 B8BF     		it	lt
 1332 0164 4846     		movlt	r0, r9
 278:..\..\..\lvgl\version_6.1.2\lvgl\src\lv_draw/lv_draw_triangle.c ****         draw_area.y2 = LV_MATH_MAX(act_area.y1, act_area.y2) - 1;
 1333              		.loc 1 278 0
 1334 0166 AE42     		cmp	r6, r5
 1335 0168 B646     		mov	lr, r6
 277:..\..\..\lvgl\version_6.1.2\lvgl\src\lv_draw/lv_draw_triangle.c ****         draw_area.y1 = LV_MATH_MIN(act_area.y1, act_area.y2);
 1336              		.loc 1 277 0
 1337 016a ADF87000 		strh	r0, [sp, #112]	@ movhi
 278:..\..\..\lvgl\version_6.1.2\lvgl\src\lv_draw/lv_draw_triangle.c ****         draw_area.y2 = LV_MATH_MAX(act_area.y1, act_area.y2) - 1;
 1338              		.loc 1 278 0
 1339 016e A8BF     		it	ge
 1340 0170 AE46     		movge	lr, r5
 281:..\..\..\lvgl\version_6.1.2\lvgl\src\lv_draw/lv_draw_triangle.c **** 
 1341              		.loc 1 281 0
 1342 0172 0F99     		ldr	r1, [sp, #60]
 278:..\..\..\lvgl\version_6.1.2\lvgl\src\lv_draw/lv_draw_triangle.c ****         draw_area.y2 = LV_MATH_MAX(act_area.y1, act_area.y2) - 1;
 1343              		.loc 1 278 0
 1344 0174 ADF86EE0 		strh	lr, [sp, #110]	@ movhi
 281:..\..\..\lvgl\version_6.1.2\lvgl\src\lv_draw/lv_draw_triangle.c **** 
 1345              		.loc 1 281 0
 1346 0178 1BA8     		add	r0, sp, #108
 1347 017a FFF7FEFF 		bl	lv_draw_fill
 1348              	.LVL124:
 1349 017e 039B     		ldr	r3, [sp, #12]
 1350 0180 0C9A     		ldr	r2, [sp, #48]
 1351 0182 9945     		cmp	r9, r3
 1352 0184 0B9B     		ldr	r3, [sp, #44]
 1353 0186 00F04481 		beq	.L92
 1354 018a 9342     		cmp	r3, r2
 1355 018c 099B     		ldr	r3, [sp, #36]
 1356 018e 00F38E80 		bgt	.L93
 1357 0192 9945     		cmp	r9, r3
 1358 0194 00F00781 		beq	.L160
 1359 0198 0A9B     		ldr	r3, [sp, #40]
 1360 019a DDF818E0 		ldr	lr, [sp, #24]
 1361 019e 1397     		str	r7, [sp, #76]
 1362 01a0 03EB0902 		add	r2, r3, r9
 299:..\..\..\lvgl\version_6.1.2\lvgl\src\lv_draw/lv_draw_triangle.c ****             }
 1363              		.loc 1 299 0
 1364 01a4 12B2     		sxth	r2, r2
 1365 01a6 CAF10001 		rsb	r1, r10, #0
 1366              	.LVL125:
 1367              	.L95:
 1368 01aa A142     		cmp	r1, r4
 298:..\..\..\lvgl\version_6.1.2\lvgl\src\lv_draw/lv_draw_triangle.c ****                 edge1.x += sx1;
 1369              		.loc 1 298 0
 1370 01ac C8EB0403 		rsb	r3, r8, r4
 1371 01b0 1BB2     		sxth	r3, r3
 303:..\..\..\lvgl\version_6.1.2\lvgl\src\lv_draw/lv_draw_triangle.c ****             }
 1372              		.loc 1 303 0
 1373 01b2 0EEB0507 		add	r7, lr, r5
 1374 01b6 A6BF     		itte	ge
 1375 01b8 2346     		movge	r3, r4
ARM GAS  C:\Users\pearlstl\AppData\Local\Temp\ccVE6Vs6.s 			page 36


 1376 01ba 4846     		movge	r0, r9
 1377 01bc 1046     		movlt	r0, r2
 302:..\..\..\lvgl\version_6.1.2\lvgl\src\lv_draw/lv_draw_triangle.c ****                 edge1.y += sy1;
 1378              		.loc 1 302 0
 1379 01be 0AEB030C 		add	ip, r10, r3
 1380 01c2 A045     		cmp	r8, r4
 303:..\..\..\lvgl\version_6.1.2\lvgl\src\lv_draw/lv_draw_triangle.c ****             }
 1381              		.loc 1 303 0
 1382 01c4 3FB2     		sxth	r7, r7
 1383 01c6 00B2     		sxth	r0, r0
 1384 01c8 C8BF     		it	gt
 1385 01ca 3D46     		movgt	r5, r7
 302:..\..\..\lvgl\version_6.1.2\lvgl\src\lv_draw/lv_draw_triangle.c ****                 edge1.y += sy1;
 1386              		.loc 1 302 0
 1387 01cc 0FFA8CF4 		sxth	r4, ip
 1388 01d0 D8BF     		it	le
 1389 01d2 1C46     		movle	r4, r3
 305:..\..\..\lvgl\version_6.1.2\lvgl\src\lv_draw/lv_draw_triangle.c **** 
 1390              		.loc 1 305 0
 1391 01d4 8145     		cmp	r9, r0
 1392 01d6 2DB2     		sxth	r5, r5
 1393              	.LVL126:
 1394 01d8 E7D0     		beq	.L95
 1395 01da 139F     		ldr	r7, [sp, #76]
 1396 01dc 8146     		mov	r9, r0
 1397              	.LVL127:
 1398              	.L96:
 1399 01de 039B     		ldr	r3, [sp, #12]
 1400 01e0 9B45     		cmp	fp, r3
 1401 01e2 179B     		ldr	r3, [sp, #92]
 1402 01e4 00F05981 		beq	.L168
 1403 01e8 03EB0B02 		add	r2, r3, fp
 1404 01ec 129B     		ldr	r3, [sp, #72]
 1405 01ee CDF84CA0 		str	r10, [sp, #76]
 1406 01f2 CDF85080 		str	r8, [sp, #80]
 1407 01f6 1695     		str	r5, [sp, #88]
 1408 01f8 DDF820C0 		ldr	ip, [sp, #32]
 1409 01fc 0D9D     		ldr	r5, [sp, #52]
 1410              	.LVL128:
 1411 01fe DDF81080 		ldr	r8, [sp, #16]
 1412 0202 DDF838A0 		ldr	r10, [sp, #56]
 1413 0206 1594     		str	r4, [sp, #84]
 317:..\..\..\lvgl\version_6.1.2\lvgl\src\lv_draw/lv_draw_triangle.c ****             }
 1414              		.loc 1 317 0
 1415 0208 12B2     		sxth	r2, r2
 1416 020a 5942     		negs	r1, r3
 1417              	.L125:
 1418 020c 8F42     		cmp	r7, r1
 316:..\..\..\lvgl\version_6.1.2\lvgl\src\lv_draw/lv_draw_triangle.c ****                 edge2.x += sx2;
 1419              		.loc 1 316 0
 1420 020e CCEB0703 		rsb	r3, ip, r7
 1421 0212 1BB2     		sxth	r3, r3
 1422 0214 D8BF     		it	le
 1423 0216 3B46     		movle	r3, r7
 1424 0218 1BB2     		sxth	r3, r3
 321:..\..\..\lvgl\version_6.1.2\lvgl\src\lv_draw/lv_draw_triangle.c ****             }
 1425              		.loc 1 321 0
ARM GAS  C:\Users\pearlstl\AppData\Local\Temp\ccVE6Vs6.s 			page 37


 1426 021a 0AEB0604 		add	r4, r10, r6
 320:..\..\..\lvgl\version_6.1.2\lvgl\src\lv_draw/lv_draw_triangle.c ****                 edge2.y += sy2;
 1427              		.loc 1 320 0
 1428 021e 03EB0500 		add	r0, r3, r5
 1429 0222 D4BF     		ite	le
 1430 0224 DE46     		movle	lr, fp
 1431 0226 9646     		movgt	lr, r2
 1432 0228 00B2     		sxth	r0, r0
 1433 022a B845     		cmp	r8, r7
 321:..\..\..\lvgl\version_6.1.2\lvgl\src\lv_draw/lv_draw_triangle.c ****             }
 1434              		.loc 1 321 0
 1435 022c 24B2     		sxth	r4, r4
 1436 022e 0FFA8EFE 		sxth	lr, lr
 1437 0232 C4BF     		itt	gt
 1438 0234 0346     		movgt	r3, r0
 1439 0236 2646     		movgt	r6, r4
 323:..\..\..\lvgl\version_6.1.2\lvgl\src\lv_draw/lv_draw_triangle.c ****     }
 1440              		.loc 1 323 0
 1441 0238 F345     		cmp	fp, lr
 1442 023a 1F46     		mov	r7, r3
 1443 023c 36B2     		sxth	r6, r6
 1444              	.LVL129:
 1445 023e E5D0     		beq	.L125
 1446 0240 DDF84CA0 		ldr	r10, [sp, #76]
 1447 0244 DDF85080 		ldr	r8, [sp, #80]
 1448 0248 159C     		ldr	r4, [sp, #84]
 1449 024a 169D     		ldr	r5, [sp, #88]
 1450              	.L126:
 292:..\..\..\lvgl\version_6.1.2\lvgl\src\lv_draw/lv_draw_triangle.c ****             } else if(edge1.y == tri[2].y && edge1.x == tri[2].x) {
 1451              		.loc 1 292 0
 1452 024c F346     		mov	fp, lr
 1453 024e 1F46     		mov	r7, r3
 1454 0250 75E7     		b	.L130
 1455              	.LVL130:
 1456              	.L82:
 240:..\..\..\lvgl\version_6.1.2\lvgl\src\lv_draw/lv_draw_triangle.c ****     if(tri[1].x < tri[0].x) point_swap(&tri[1], &tri[0]);
 1457              		.loc 1 240 0
 1458 0252 8142     		cmp	r1, r0
 1459 0254 60DD     		ble	.L169
 1460 0256 1346     		mov	r3, r2
 1461              	.LVL131:
 1462 0258 BDF97640 		ldrsh	r4, [sp, #118]
 1463 025c BDF97A20 		ldrsh	r2, [sp, #122]
 1464 0260 0792     		str	r2, [sp, #28]
 1465 0262 0A46     		mov	r2, r1
 1466 0264 1946     		mov	r1, r3
 1467              	.L132:
 1468              	.LVL132:
 1469              	.LBB24:
 1470              	.LBB25:
 336:..\..\..\lvgl\version_6.1.2\lvgl\src\lv_draw/lv_draw_triangle.c **** 
 1471              		.loc 1 336 0
 1472 0266 BDF97E60 		ldrsh	r6, [sp, #126]
 1473              	.LVL133:
 339:..\..\..\lvgl\version_6.1.2\lvgl\src\lv_draw/lv_draw_triangle.c **** 
 1474              		.loc 1 339 0
 1475 026a BDF81C30 		ldrh	r3, [sp, #28]
ARM GAS  C:\Users\pearlstl\AppData\Local\Temp\ccVE6Vs6.s 			page 38


 338:..\..\..\lvgl\version_6.1.2\lvgl\src\lv_draw/lv_draw_triangle.c ****     p1->y = p2->y;
 1476              		.loc 1 338 0
 1477 026e ADF87C20 		strh	r2, [sp, #124]	@ movhi
 1478              	.LBE25:
 1479              	.LBE24:
 241:..\..\..\lvgl\version_6.1.2\lvgl\src\lv_draw/lv_draw_triangle.c **** 
 1480              		.loc 1 241 0
 1481 0272 8842     		cmp	r0, r1
 1482              	.LBB27:
 1483              	.LBB26:
 341:..\..\..\lvgl\version_6.1.2\lvgl\src\lv_draw/lv_draw_triangle.c ****     p2->y = tmp.y;
 1484              		.loc 1 341 0
 1485 0274 ADF87800 		strh	r0, [sp, #120]	@ movhi
 1486              		.loc 1 342 0
 1487 0278 ADF87A60 		strh	r6, [sp, #122]	@ movhi
 339:..\..\..\lvgl\version_6.1.2\lvgl\src\lv_draw/lv_draw_triangle.c **** 
 1488              		.loc 1 339 0
 1489 027c ADF87E30 		strh	r3, [sp, #126]	@ movhi
 1490              	.LBE26:
 1491              	.LBE27:
 241:..\..\..\lvgl\version_6.1.2\lvgl\src\lv_draw/lv_draw_triangle.c **** 
 1492              		.loc 1 241 0
 1493 0280 80F28881 		bge	.L138
 1494              	.LVL134:
 245:..\..\..\lvgl\version_6.1.2\lvgl\src\lv_draw/lv_draw_triangle.c ****     lv_coord_t sx1  = tri[0].x < tri[1].x ? 1 : -1;
 1495              		.loc 1 245 0
 1496 0284 C1EB000A 		rsb	r10, r1, r0
 1497 0288 BAF1000F 		cmp	r10, #0
 1498 028c 0A46     		mov	r2, r1
 1499 028e 0991     		str	r1, [sp, #36]
 1500 0290 BDF97C10 		ldrsh	r1, [sp, #124]
 1501 0294 0391     		str	r1, [sp, #12]
 1502 0296 B8BF     		it	lt
 1503 0298 CAF1000A 		rsblt	r10, r10, #0
 246:..\..\..\lvgl\version_6.1.2\lvgl\src\lv_draw/lv_draw_triangle.c ****     lv_coord_t dy1  = LV_MATH_ABS(tri[0].y - tri[1].y);
 1504              		.loc 1 246 0
 1505 029c 0121     		movs	r1, #1
 245:..\..\..\lvgl\version_6.1.2\lvgl\src\lv_draw/lv_draw_triangle.c ****     lv_coord_t sx1  = tri[0].x < tri[1].x ? 1 : -1;
 1506              		.loc 1 245 0
 1507 029e 0346     		mov	r3, r0
 1508 02a0 8346     		mov	fp, r0
 1509 02a2 0794     		str	r4, [sp, #28]
 1510 02a4 0FFA8AFA 		sxth	r10, r10
 1511              	.LVL135:
 246:..\..\..\lvgl\version_6.1.2\lvgl\src\lv_draw/lv_draw_triangle.c ****     lv_coord_t dy1  = LV_MATH_ABS(tri[0].y - tri[1].y);
 1512              		.loc 1 246 0
 1513 02a8 0A91     		str	r1, [sp, #40]
 1514 02aa 2046     		mov	r0, r4
 1515              	.LVL136:
 1516 02ac E2E6     		b	.L84
 1517              	.LVL137:
 1518              	.L93:
 1519 02ae 9945     		cmp	r9, r3
 1520 02b0 3BD0     		beq	.L161
 1521 02b2 0A9B     		ldr	r3, [sp, #40]
 1522 02b4 DDF818C0 		ldr	ip, [sp, #24]
 1523 02b8 1397     		str	r7, [sp, #76]
ARM GAS  C:\Users\pearlstl\AppData\Local\Temp\ccVE6Vs6.s 			page 39


 1524 02ba 03EB0902 		add	r2, r3, r9
 299:..\..\..\lvgl\version_6.1.2\lvgl\src\lv_draw/lv_draw_triangle.c ****             }
 1525              		.loc 1 299 0
 1526 02be 12B2     		sxth	r2, r2
 1527 02c0 CAF10001 		rsb	r1, r10, #0
 1528              	.LVL138:
 1529              	.L99:
 1530 02c4 A142     		cmp	r1, r4
 298:..\..\..\lvgl\version_6.1.2\lvgl\src\lv_draw/lv_draw_triangle.c ****                 edge1.x += sx1;
 1531              		.loc 1 298 0
 1532 02c6 C8EB0403 		rsb	r3, r8, r4
 1533 02ca 1BB2     		sxth	r3, r3
 1534 02cc A8BF     		it	ge
 1535 02ce 2346     		movge	r3, r4
 303:..\..\..\lvgl\version_6.1.2\lvgl\src\lv_draw/lv_draw_triangle.c ****             }
 1536              		.loc 1 303 0
 1537 02d0 0CEB0500 		add	r0, ip, r5
 1538 02d4 ACBF     		ite	ge
 1539 02d6 4F46     		movge	r7, r9
 1540 02d8 1746     		movlt	r7, r2
 302:..\..\..\lvgl\version_6.1.2\lvgl\src\lv_draw/lv_draw_triangle.c ****                 edge1.y += sy1;
 1541              		.loc 1 302 0
 1542 02da 03EB0A0E 		add	lr, r3, r10
 1543 02de A045     		cmp	r8, r4
 1544 02e0 0FFA8EFE 		sxth	lr, lr
 303:..\..\..\lvgl\version_6.1.2\lvgl\src\lv_draw/lv_draw_triangle.c ****             }
 1545              		.loc 1 303 0
 1546 02e4 00B2     		sxth	r0, r0
 1547 02e6 3FB2     		sxth	r7, r7
 1548 02e8 CABF     		itet	gt
 1549 02ea 7446     		movgt	r4, lr
 1550 02ec 1C46     		movle	r4, r3
 1551 02ee 0546     		movgt	r5, r0
 305:..\..\..\lvgl\version_6.1.2\lvgl\src\lv_draw/lv_draw_triangle.c **** 
 1552              		.loc 1 305 0
 1553 02f0 B945     		cmp	r9, r7
 1554 02f2 24B2     		sxth	r4, r4
 1555 02f4 2DB2     		sxth	r5, r5
 1556              	.LVL139:
 1557 02f6 E5D0     		beq	.L99
 1558 02f8 3B46     		mov	r3, r7
 1559 02fa 9946     		mov	r9, r3
 1560              	.LVL140:
 1561 02fc 139F     		ldr	r7, [sp, #76]
 1562 02fe 6EE7     		b	.L96
 1563              	.LVL141:
 1564              	.L90:
 257:..\..\..\lvgl\version_6.1.2\lvgl\src\lv_draw/lv_draw_triangle.c ****     lv_coord_t err_tmp2;
 1565              		.loc 1 257 0 discriminator 2
 1566 0300 03EBD377 		add	r7, r3, r3, lsr #31
 1567 0304 7F10     		asrs	r7, r7, #1
 1568 0306 7F42     		negs	r7, r7
 1569 0308 3FB2     		sxth	r7, r7
 1570 030a F0E6     		b	.L91
 1571              	.LVL142:
 1572              	.L86:
 249:..\..\..\lvgl\version_6.1.2\lvgl\src\lv_draw/lv_draw_triangle.c ****     lv_coord_t err_tmp1;
ARM GAS  C:\Users\pearlstl\AppData\Local\Temp\ccVE6Vs6.s 			page 40


 1573              		.loc 1 249 0 discriminator 2
 1574 030c 08EBD874 		add	r4, r8, r8, lsr #31
 1575 0310 6410     		asrs	r4, r4, #1
 1576 0312 6442     		negs	r4, r4
 1577 0314 24B2     		sxth	r4, r4
 1578 0316 C2E6     		b	.L87
 1579              	.LVL143:
 1580              	.L169:
 240:..\..\..\lvgl\version_6.1.2\lvgl\src\lv_draw/lv_draw_triangle.c ****     if(tri[1].x < tri[0].x) point_swap(&tri[1], &tri[0]);
 1581              		.loc 1 240 0
 1582 0318 0B46     		mov	r3, r1
 1583              	.LVL144:
 1584 031a BDF97A10 		ldrsh	r1, [sp, #122]
 1585 031e 0791     		str	r1, [sp, #28]
 1586 0320 BDF97640 		ldrsh	r4, [sp, #118]
 1587 0324 1146     		mov	r1, r2
 1588 0326 1A46     		mov	r2, r3
 1589 0328 8FE6     		b	.L83
 1590              	.LVL145:
 1591              	.L161:
 1592 032a 2346     		mov	r3, r4
 1593 032c 1397     		str	r7, [sp, #76]
 1594 032e CDF850B0 		str	fp, [sp, #80]
 1595 0332 1596     		str	r6, [sp, #84]
 1596 0334 069F     		ldr	r7, [sp, #24]
 1597              	.LVL146:
 1598 0336 DDF82CE0 		ldr	lr, [sp, #44]
 1599 033a DDF860B0 		ldr	fp, [sp, #96]
 1600              	.LVL147:
 1601 033e 079C     		ldr	r4, [sp, #28]
 1602              	.LVL148:
 1603 0340 0A9E     		ldr	r6, [sp, #40]
 1604              	.LVL149:
 1605 0342 9446     		mov	ip, r2
 1606              	.LVL150:
 1607              	.L100:
 1608 0344 0198     		ldr	r0, [sp, #4]
 1609 0346 A542     		cmp	r5, r4
 1610 0348 04BF     		itt	eq
 1611 034a F246     		moveq	r10, lr
 1612 034c 0646     		moveq	r6, r0
 1613 034e 0298     		ldr	r0, [sp, #8]
 1614 0350 04BF     		itt	eq
 1615 0352 5B46     		moveq	r3, fp
 1616 0354 E046     		moveq	r8, ip
 297:..\..\..\lvgl\version_6.1.2\lvgl\src\lv_draw/lv_draw_triangle.c ****                 err1 -= dy1;
 1617              		.loc 1 297 0
 1618 0356 CAF10002 		rsb	r2, r10, #0
 298:..\..\..\lvgl\version_6.1.2\lvgl\src\lv_draw/lv_draw_triangle.c ****                 edge1.x += sx1;
 1619              		.loc 1 298 0
 1620 035a C8EB0301 		rsb	r1, r8, r3
 1621 035e 08BF     		it	eq
 1622 0360 0746     		moveq	r7, r0
 1623 0362 9A42     		cmp	r2, r3
 1624 0364 09B2     		sxth	r1, r1
 299:..\..\..\lvgl\version_6.1.2\lvgl\src\lv_draw/lv_draw_triangle.c ****             }
 1625              		.loc 1 299 0
ARM GAS  C:\Users\pearlstl\AppData\Local\Temp\ccVE6Vs6.s 			page 41


 1626 0366 06EB0902 		add	r2, r6, r9
 1627 036a A8BF     		it	ge
 1628 036c 1946     		movge	r1, r3
 303:..\..\..\lvgl\version_6.1.2\lvgl\src\lv_draw/lv_draw_triangle.c ****             }
 1629              		.loc 1 303 0
 1630 036e 07EB0500 		add	r0, r7, r5
 1631 0372 09B2     		sxth	r1, r1
 299:..\..\..\lvgl\version_6.1.2\lvgl\src\lv_draw/lv_draw_triangle.c ****             }
 1632              		.loc 1 299 0
 1633 0374 12B2     		sxth	r2, r2
 1634 0376 A8BF     		it	ge
 1635 0378 4A46     		movge	r2, r9
 303:..\..\..\lvgl\version_6.1.2\lvgl\src\lv_draw/lv_draw_triangle.c ****             }
 1636              		.loc 1 303 0
 1637 037a 00B2     		sxth	r0, r0
 1638 037c 4345     		cmp	r3, r8
 1639 037e 12B2     		sxth	r2, r2
 302:..\..\..\lvgl\version_6.1.2\lvgl\src\lv_draw/lv_draw_triangle.c ****                 edge1.y += sy1;
 1640              		.loc 1 302 0
 1641 0380 0AEB0103 		add	r3, r10, r1
 1642 0384 B8BF     		it	lt
 1643 0386 0546     		movlt	r5, r0
 1644 0388 1BB2     		sxth	r3, r3
 1645 038a A8BF     		it	ge
 1646 038c 0B46     		movge	r3, r1
 305:..\..\..\lvgl\version_6.1.2\lvgl\src\lv_draw/lv_draw_triangle.c **** 
 1647              		.loc 1 305 0
 1648 038e 9145     		cmp	r9, r2
 1649 0390 2DB2     		sxth	r5, r5
 1650              	.LVL151:
 1651 0392 D7D0     		beq	.L100
 1652              	.L165:
 1653 0394 0A96     		str	r6, [sp, #40]
 1654 0396 0697     		str	r7, [sp, #24]
 1655 0398 1C46     		mov	r4, r3
 1656 039a 139F     		ldr	r7, [sp, #76]
 1657 039c DDF850B0 		ldr	fp, [sp, #80]
 1658 03a0 159E     		ldr	r6, [sp, #84]
 1659 03a2 9146     		mov	r9, r2
 1660              	.LVL152:
 1661 03a4 1BE7     		b	.L96
 1662              	.LVL153:
 1663              	.L160:
 1664 03a6 2346     		mov	r3, r4
 1665 03a8 1397     		str	r7, [sp, #76]
 1666 03aa CDF850B0 		str	fp, [sp, #80]
 1667 03ae 1596     		str	r6, [sp, #84]
 1668 03b0 069F     		ldr	r7, [sp, #24]
 1669              	.LVL154:
 1670 03b2 DDF82CE0 		ldr	lr, [sp, #44]
 1671 03b6 DDF864B0 		ldr	fp, [sp, #100]
 1672              	.LVL155:
 1673 03ba 079C     		ldr	r4, [sp, #28]
 1674              	.LVL156:
 1675 03bc 0A9E     		ldr	r6, [sp, #40]
 1676              	.LVL157:
 1677 03be 9446     		mov	ip, r2
ARM GAS  C:\Users\pearlstl\AppData\Local\Temp\ccVE6Vs6.s 			page 42


 1678              	.LVL158:
 1679              	.L97:
 1680 03c0 0198     		ldr	r0, [sp, #4]
 1681 03c2 A542     		cmp	r5, r4
 1682 03c4 04BF     		itt	eq
 1683 03c6 F246     		moveq	r10, lr
 1684 03c8 0646     		moveq	r6, r0
 1685 03ca 0298     		ldr	r0, [sp, #8]
 1686 03cc 04BF     		itt	eq
 1687 03ce 5B46     		moveq	r3, fp
 1688 03d0 E046     		moveq	r8, ip
 297:..\..\..\lvgl\version_6.1.2\lvgl\src\lv_draw/lv_draw_triangle.c ****                 err1 -= dy1;
 1689              		.loc 1 297 0
 1690 03d2 CAF10002 		rsb	r2, r10, #0
 298:..\..\..\lvgl\version_6.1.2\lvgl\src\lv_draw/lv_draw_triangle.c ****                 edge1.x += sx1;
 1691              		.loc 1 298 0
 1692 03d6 C8EB0301 		rsb	r1, r8, r3
 1693 03da 08BF     		it	eq
 1694 03dc 0746     		moveq	r7, r0
 1695 03de 9A42     		cmp	r2, r3
 1696 03e0 09B2     		sxth	r1, r1
 299:..\..\..\lvgl\version_6.1.2\lvgl\src\lv_draw/lv_draw_triangle.c ****             }
 1697              		.loc 1 299 0
 1698 03e2 06EB0902 		add	r2, r6, r9
 1699 03e6 A8BF     		it	ge
 1700 03e8 1946     		movge	r1, r3
 303:..\..\..\lvgl\version_6.1.2\lvgl\src\lv_draw/lv_draw_triangle.c ****             }
 1701              		.loc 1 303 0
 1702 03ea 07EB0500 		add	r0, r7, r5
 1703 03ee 09B2     		sxth	r1, r1
 299:..\..\..\lvgl\version_6.1.2\lvgl\src\lv_draw/lv_draw_triangle.c ****             }
 1704              		.loc 1 299 0
 1705 03f0 12B2     		sxth	r2, r2
 1706 03f2 A8BF     		it	ge
 1707 03f4 4A46     		movge	r2, r9
 303:..\..\..\lvgl\version_6.1.2\lvgl\src\lv_draw/lv_draw_triangle.c ****             }
 1708              		.loc 1 303 0
 1709 03f6 00B2     		sxth	r0, r0
 1710 03f8 4345     		cmp	r3, r8
 1711 03fa 12B2     		sxth	r2, r2
 302:..\..\..\lvgl\version_6.1.2\lvgl\src\lv_draw/lv_draw_triangle.c ****                 edge1.y += sy1;
 1712              		.loc 1 302 0
 1713 03fc 0AEB0103 		add	r3, r10, r1
 1714 0400 B8BF     		it	lt
 1715 0402 0546     		movlt	r5, r0
 1716 0404 1BB2     		sxth	r3, r3
 1717 0406 A8BF     		it	ge
 1718 0408 0B46     		movge	r3, r1
 305:..\..\..\lvgl\version_6.1.2\lvgl\src\lv_draw/lv_draw_triangle.c **** 
 1719              		.loc 1 305 0
 1720 040a 9145     		cmp	r9, r2
 1721 040c 2DB2     		sxth	r5, r5
 1722              	.LVL159:
 1723 040e D7D0     		beq	.L97
 1724 0410 C0E7     		b	.L165
 1725              	.LVL160:
 1726              	.L92:
ARM GAS  C:\Users\pearlstl\AppData\Local\Temp\ccVE6Vs6.s 			page 43


 1727 0412 9342     		cmp	r3, r2
 1728 0414 099B     		ldr	r3, [sp, #36]
 1729 0416 6DDC     		bgt	.L101
 1730 0418 9945     		cmp	r9, r3
 1731 041a 1BD0     		beq	.L103
 299:..\..\..\lvgl\version_6.1.2\lvgl\src\lv_draw/lv_draw_triangle.c ****             }
 1732              		.loc 1 299 0
 1733 041c 0A9B     		ldr	r3, [sp, #40]
 1734 041e 09EB0301 		add	r1, r9, r3
 1735 0422 09B2     		sxth	r1, r1
 297:..\..\..\lvgl\version_6.1.2\lvgl\src\lv_draw/lv_draw_triangle.c ****                 err1 -= dy1;
 1736              		.loc 1 297 0
 1737 0424 CAF10000 		rsb	r0, r10, #0
 1738              	.LVL161:
 1739              	.L104:
 293:..\..\..\lvgl\version_6.1.2\lvgl\src\lv_draw/lv_draw_triangle.c ****                 return;
 1740              		.loc 1 293 0
 1741 0428 059B     		ldr	r3, [sp, #20]
 1742 042a AB42     		cmp	r3, r5
 1743 042c 2ED0     		beq	.L81
 298:..\..\..\lvgl\version_6.1.2\lvgl\src\lv_draw/lv_draw_triangle.c ****                 edge1.x += sx1;
 1744              		.loc 1 298 0
 1745 042e C8EB0403 		rsb	r3, r8, r4
 297:..\..\..\lvgl\version_6.1.2\lvgl\src\lv_draw/lv_draw_triangle.c ****                 err1 -= dy1;
 1746              		.loc 1 297 0
 1747 0432 8442     		cmp	r4, r0
 298:..\..\..\lvgl\version_6.1.2\lvgl\src\lv_draw/lv_draw_triangle.c ****                 edge1.x += sx1;
 1748              		.loc 1 298 0
 1749 0434 1BB2     		sxth	r3, r3
 1750              	.LVL162:
 299:..\..\..\lvgl\version_6.1.2\lvgl\src\lv_draw/lv_draw_triangle.c ****             }
 1751              		.loc 1 299 0
 1752 0436 0A46     		mov	r2, r1
 1753              	.LVL163:
 297:..\..\..\lvgl\version_6.1.2\lvgl\src\lv_draw/lv_draw_triangle.c ****                 err1 -= dy1;
 1754              		.loc 1 297 0
 1755 0438 40F3A780 		ble	.L106
 301:..\..\..\lvgl\version_6.1.2\lvgl\src\lv_draw/lv_draw_triangle.c ****                 err1 += dx1;
 1756              		.loc 1 301 0
 1757 043c A045     		cmp	r8, r4
 298:..\..\..\lvgl\version_6.1.2\lvgl\src\lv_draw/lv_draw_triangle.c ****                 edge1.x += sx1;
 1758              		.loc 1 298 0
 1759 043e 1C46     		mov	r4, r3
 1760              	.LVL164:
 301:..\..\..\lvgl\version_6.1.2\lvgl\src\lv_draw/lv_draw_triangle.c ****                 err1 += dx1;
 1761              		.loc 1 301 0
 1762 0440 04DD     		ble	.L107
 1763              	.L133:
 303:..\..\..\lvgl\version_6.1.2\lvgl\src\lv_draw/lv_draw_triangle.c ****             }
 1764              		.loc 1 303 0
 1765 0442 069B     		ldr	r3, [sp, #24]
 1766              	.LVL165:
 302:..\..\..\lvgl\version_6.1.2\lvgl\src\lv_draw/lv_draw_triangle.c ****                 edge1.y += sy1;
 1767              		.loc 1 302 0
 1768 0444 5444     		add	r4, r4, r10
 303:..\..\..\lvgl\version_6.1.2\lvgl\src\lv_draw/lv_draw_triangle.c ****             }
 1769              		.loc 1 303 0
ARM GAS  C:\Users\pearlstl\AppData\Local\Temp\ccVE6Vs6.s 			page 44


 1770 0446 1D44     		add	r5, r5, r3
 1771              	.LVL166:
 302:..\..\..\lvgl\version_6.1.2\lvgl\src\lv_draw/lv_draw_triangle.c ****                 edge1.y += sy1;
 1772              		.loc 1 302 0
 1773 0448 24B2     		sxth	r4, r4
 1774              	.LVL167:
 303:..\..\..\lvgl\version_6.1.2\lvgl\src\lv_draw/lv_draw_triangle.c ****             }
 1775              		.loc 1 303 0
 1776 044a 2DB2     		sxth	r5, r5
 1777              	.LVL168:
 1778              	.L107:
 305:..\..\..\lvgl\version_6.1.2\lvgl\src\lv_draw/lv_draw_triangle.c **** 
 1779              		.loc 1 305 0
 1780 044c 9145     		cmp	r9, r2
 1781 044e EBD0     		beq	.L104
 1782 0450 9146     		mov	r9, r2
 1783              	.LVL169:
 1784 0452 C4E6     		b	.L96
 1785              	.LVL170:
 1786              	.L103:
 286:..\..\..\lvgl\version_6.1.2\lvgl\src\lv_draw/lv_draw_triangle.c **** 
 1787              		.loc 1 286 0
 1788 0454 079B     		ldr	r3, [sp, #28]
 1789 0456 9D42     		cmp	r5, r3
 1790 0458 42D0     		beq	.L144
 293:..\..\..\lvgl\version_6.1.2\lvgl\src\lv_draw/lv_draw_triangle.c ****                 return;
 1791              		.loc 1 293 0
 1792 045a 059B     		ldr	r3, [sp, #20]
 1793 045c AB42     		cmp	r3, r5
 1794 045e 15D0     		beq	.L81
 1795              	.LVL171:
 1796              	.L109:
 297:..\..\..\lvgl\version_6.1.2\lvgl\src\lv_draw/lv_draw_triangle.c ****                 err1 -= dy1;
 1797              		.loc 1 297 0
 1798 0460 CAF10003 		rsb	r3, r10, #0
 1799 0464 9C42     		cmp	r4, r3
 1800 0466 14DD     		ble	.L110
 299:..\..\..\lvgl\version_6.1.2\lvgl\src\lv_draw/lv_draw_triangle.c ****             }
 1801              		.loc 1 299 0
 1802 0468 0A9B     		ldr	r3, [sp, #40]
 298:..\..\..\lvgl\version_6.1.2\lvgl\src\lv_draw/lv_draw_triangle.c ****                 edge1.x += sx1;
 1803              		.loc 1 298 0
 1804 046a C8EB0402 		rsb	r2, r8, r4
 299:..\..\..\lvgl\version_6.1.2\lvgl\src\lv_draw/lv_draw_triangle.c ****             }
 1805              		.loc 1 299 0
 1806 046e 4B44     		add	r3, r9, r3
 298:..\..\..\lvgl\version_6.1.2\lvgl\src\lv_draw/lv_draw_triangle.c ****                 edge1.x += sx1;
 1807              		.loc 1 298 0
 1808 0470 12B2     		sxth	r2, r2
 1809              	.LVL172:
 301:..\..\..\lvgl\version_6.1.2\lvgl\src\lv_draw/lv_draw_triangle.c ****                 err1 += dx1;
 1810              		.loc 1 301 0
 1811 0472 A045     		cmp	r8, r4
 299:..\..\..\lvgl\version_6.1.2\lvgl\src\lv_draw/lv_draw_triangle.c ****             }
 1812              		.loc 1 299 0
 1813 0474 1BB2     		sxth	r3, r3
 1814              	.LVL173:
ARM GAS  C:\Users\pearlstl\AppData\Local\Temp\ccVE6Vs6.s 			page 45


 298:..\..\..\lvgl\version_6.1.2\lvgl\src\lv_draw/lv_draw_triangle.c ****                 edge1.x += sx1;
 1815              		.loc 1 298 0
 1816 0476 1446     		mov	r4, r2
 1817              	.LVL174:
 301:..\..\..\lvgl\version_6.1.2\lvgl\src\lv_draw/lv_draw_triangle.c ****                 err1 += dx1;
 1818              		.loc 1 301 0
 1819 0478 04DD     		ble	.L111
 1820              	.LVL175:
 1821              	.L134:
 303:..\..\..\lvgl\version_6.1.2\lvgl\src\lv_draw/lv_draw_triangle.c ****             }
 1822              		.loc 1 303 0
 1823 047a 069A     		ldr	r2, [sp, #24]
 302:..\..\..\lvgl\version_6.1.2\lvgl\src\lv_draw/lv_draw_triangle.c ****                 edge1.y += sy1;
 1824              		.loc 1 302 0
 1825 047c 5444     		add	r4, r4, r10
 303:..\..\..\lvgl\version_6.1.2\lvgl\src\lv_draw/lv_draw_triangle.c ****             }
 1826              		.loc 1 303 0
 1827 047e 1544     		add	r5, r5, r2
 1828              	.LVL176:
 302:..\..\..\lvgl\version_6.1.2\lvgl\src\lv_draw/lv_draw_triangle.c ****                 edge1.y += sy1;
 1829              		.loc 1 302 0
 1830 0480 24B2     		sxth	r4, r4
 1831              	.LVL177:
 303:..\..\..\lvgl\version_6.1.2\lvgl\src\lv_draw/lv_draw_triangle.c ****             }
 1832              		.loc 1 303 0
 1833 0482 2DB2     		sxth	r5, r5
 1834              	.LVL178:
 1835              	.L111:
 305:..\..\..\lvgl\version_6.1.2\lvgl\src\lv_draw/lv_draw_triangle.c **** 
 1836              		.loc 1 305 0
 1837 0484 9945     		cmp	r9, r3
 1838 0486 E5D0     		beq	.L103
 1839 0488 9946     		mov	r9, r3
 1840              	.LVL179:
 1841 048a A8E6     		b	.L96
 1842              	.LVL180:
 1843              	.L81:
 325:..\..\..\lvgl\version_6.1.2\lvgl\src\lv_draw/lv_draw_triangle.c **** 
 1844              		.loc 1 325 0
 1845 048c 21B0     		add	sp, sp, #132
 1846              		.cfi_remember_state
 1847              		.cfi_def_cfa_offset 36
 1848              		@ sp needed
 1849 048e BDE8F08F 		pop	{r4, r5, r6, r7, r8, r9, r10, fp, pc}
 1850              	.LVL181:
 1851              	.L110:
 1852              		.cfi_restore_state
 301:..\..\..\lvgl\version_6.1.2\lvgl\src\lv_draw/lv_draw_triangle.c ****                 err1 += dx1;
 1853              		.loc 1 301 0
 1854 0492 A045     		cmp	r8, r4
 1855 0494 DEDD     		ble	.L103
 1856 0496 099B     		ldr	r3, [sp, #36]
 1857 0498 EFE7     		b	.L134
 1858              	.LVL182:
 1859              	.L168:
 315:..\..\..\lvgl\version_6.1.2\lvgl\src\lv_draw/lv_draw_triangle.c ****                 err2 -= dy2;
 1860              		.loc 1 315 0
ARM GAS  C:\Users\pearlstl\AppData\Local\Temp\ccVE6Vs6.s 			page 46


 1861 049a 129A     		ldr	r2, [sp, #72]
 317:..\..\..\lvgl\version_6.1.2\lvgl\src\lv_draw/lv_draw_triangle.c ****             }
 1862              		.loc 1 317 0
 1863 049c 03EB0B01 		add	r1, r3, fp
 1864 04a0 09B2     		sxth	r1, r1
 305:..\..\..\lvgl\version_6.1.2\lvgl\src\lv_draw/lv_draw_triangle.c **** 
 1865              		.loc 1 305 0
 1866 04a2 3B46     		mov	r3, r7
 315:..\..\..\lvgl\version_6.1.2\lvgl\src\lv_draw/lv_draw_triangle.c ****                 err2 -= dy2;
 1867              		.loc 1 315 0
 1868 04a4 5042     		negs	r0, r2
 1869              	.L124:
 1870              	.LVL183:
 310:..\..\..\lvgl\version_6.1.2\lvgl\src\lv_draw/lv_draw_triangle.c ****                 return;
 1871              		.loc 1 310 0
 1872 04a6 059A     		ldr	r2, [sp, #20]
 1873 04a8 B242     		cmp	r2, r6
 1874 04aa EFD0     		beq	.L81
 316:..\..\..\lvgl\version_6.1.2\lvgl\src\lv_draw/lv_draw_triangle.c ****                 edge2.x += sx2;
 1875              		.loc 1 316 0
 1876 04ac 089A     		ldr	r2, [sp, #32]
 315:..\..\..\lvgl\version_6.1.2\lvgl\src\lv_draw/lv_draw_triangle.c ****                 err2 -= dy2;
 1877              		.loc 1 315 0
 1878 04ae 8342     		cmp	r3, r0
 316:..\..\..\lvgl\version_6.1.2\lvgl\src\lv_draw/lv_draw_triangle.c ****                 edge2.x += sx2;
 1879              		.loc 1 316 0
 1880 04b0 A3EB0202 		sub	r2, r3, r2
 1881 04b4 12B2     		sxth	r2, r2
 1882              	.LVL184:
 317:..\..\..\lvgl\version_6.1.2\lvgl\src\lv_draw/lv_draw_triangle.c ****             }
 1883              		.loc 1 317 0
 1884 04b6 8E46     		mov	lr, r1
 1885              	.LVL185:
 315:..\..\..\lvgl\version_6.1.2\lvgl\src\lv_draw/lv_draw_triangle.c ****                 err2 -= dy2;
 1886              		.loc 1 315 0
 1887 04b8 0CDD     		ble	.L127
 319:..\..\..\lvgl\version_6.1.2\lvgl\src\lv_draw/lv_draw_triangle.c ****                 err2 += dx2;
 1888              		.loc 1 319 0
 1889 04ba 049F     		ldr	r7, [sp, #16]
 1890 04bc BB42     		cmp	r3, r7
 316:..\..\..\lvgl\version_6.1.2\lvgl\src\lv_draw/lv_draw_triangle.c ****                 edge2.x += sx2;
 1891              		.loc 1 316 0
 1892 04be 1346     		mov	r3, r2
 1893              	.LVL186:
 319:..\..\..\lvgl\version_6.1.2\lvgl\src\lv_draw/lv_draw_triangle.c ****                 err2 += dx2;
 1894              		.loc 1 319 0
 1895 04c0 05DA     		bge	.L128
 1896              	.LVL187:
 1897              	.L137:
 320:..\..\..\lvgl\version_6.1.2\lvgl\src\lv_draw/lv_draw_triangle.c ****                 edge2.y += sy2;
 1898              		.loc 1 320 0
 1899 04c2 0D9A     		ldr	r2, [sp, #52]
 1900 04c4 1344     		add	r3, r3, r2
 321:..\..\..\lvgl\version_6.1.2\lvgl\src\lv_draw/lv_draw_triangle.c ****             }
 1901              		.loc 1 321 0
 1902 04c6 0E9A     		ldr	r2, [sp, #56]
 1903 04c8 1644     		add	r6, r6, r2
ARM GAS  C:\Users\pearlstl\AppData\Local\Temp\ccVE6Vs6.s 			page 47


 1904              	.LVL188:
 320:..\..\..\lvgl\version_6.1.2\lvgl\src\lv_draw/lv_draw_triangle.c ****                 edge2.y += sy2;
 1905              		.loc 1 320 0
 1906 04ca 1BB2     		sxth	r3, r3
 1907              	.LVL189:
 321:..\..\..\lvgl\version_6.1.2\lvgl\src\lv_draw/lv_draw_triangle.c ****             }
 1908              		.loc 1 321 0
 1909 04cc 36B2     		sxth	r6, r6
 1910              	.LVL190:
 1911              	.L128:
 323:..\..\..\lvgl\version_6.1.2\lvgl\src\lv_draw/lv_draw_triangle.c ****     }
 1912              		.loc 1 323 0
 1913 04ce F345     		cmp	fp, lr
 1914 04d0 E9D0     		beq	.L124
 1915 04d2 BBE6     		b	.L126
 1916              	.LVL191:
 1917              	.L127:
 319:..\..\..\lvgl\version_6.1.2\lvgl\src\lv_draw/lv_draw_triangle.c ****                 err2 += dx2;
 1918              		.loc 1 319 0
 1919 04d4 049A     		ldr	r2, [sp, #16]
 1920              	.LVL192:
 1921 04d6 9342     		cmp	r3, r2
 1922 04d8 E5DA     		bge	.L124
 1923 04da DDF80CE0 		ldr	lr, [sp, #12]
 1924 04de F0E7     		b	.L137
 1925              	.LVL193:
 1926              	.L144:
 291:..\..\..\lvgl\version_6.1.2\lvgl\src\lv_draw/lv_draw_triangle.c ****                 err1 = (dx1 > dy1 ? dx1 : -dy1) / 2;
 1927              		.loc 1 291 0
 1928 04e0 029B     		ldr	r3, [sp, #8]
 1929 04e2 0693     		str	r3, [sp, #24]
 1930              	.LVL194:
 289:..\..\..\lvgl\version_6.1.2\lvgl\src\lv_draw/lv_draw_triangle.c ****                 dy1  = LV_MATH_ABS(tri[1].y - tri[2].y);
 1931              		.loc 1 289 0
 1932 04e4 019B     		ldr	r3, [sp, #4]
 292:..\..\..\lvgl\version_6.1.2\lvgl\src\lv_draw/lv_draw_triangle.c ****             } else if(edge1.y == tri[2].y && edge1.x == tri[2].x) {
 1933              		.loc 1 292 0
 1934 04e6 199C     		ldr	r4, [sp, #100]
 1935              	.LVL195:
 286:..\..\..\lvgl\version_6.1.2\lvgl\src\lv_draw/lv_draw_triangle.c **** 
 1936              		.loc 1 286 0
 1937 04e8 DDF83080 		ldr	r8, [sp, #48]
 1938              	.LVL196:
 289:..\..\..\lvgl\version_6.1.2\lvgl\src\lv_draw/lv_draw_triangle.c ****                 dy1  = LV_MATH_ABS(tri[1].y - tri[2].y);
 1939              		.loc 1 289 0
 1940 04ec 0A93     		str	r3, [sp, #40]
 1941              	.LVL197:
 286:..\..\..\lvgl\version_6.1.2\lvgl\src\lv_draw/lv_draw_triangle.c **** 
 1942              		.loc 1 286 0
 1943 04ee DDF82CA0 		ldr	r10, [sp, #44]
 1944              	.LVL198:
 1945 04f2 B5E7     		b	.L109
 1946              	.LVL199:
 1947              	.L101:
 1948 04f4 9945     		cmp	r9, r3
 1949 04f6 1AD0     		beq	.L114
 299:..\..\..\lvgl\version_6.1.2\lvgl\src\lv_draw/lv_draw_triangle.c ****             }
ARM GAS  C:\Users\pearlstl\AppData\Local\Temp\ccVE6Vs6.s 			page 48


 1950              		.loc 1 299 0
 1951 04f8 0A9B     		ldr	r3, [sp, #40]
 1952 04fa 09EB0301 		add	r1, r9, r3
 1953 04fe 09B2     		sxth	r1, r1
 297:..\..\..\lvgl\version_6.1.2\lvgl\src\lv_draw/lv_draw_triangle.c ****                 err1 -= dy1;
 1954              		.loc 1 297 0
 1955 0500 CAF10000 		rsb	r0, r10, #0
 1956              	.LVL200:
 1957              	.L115:
 293:..\..\..\lvgl\version_6.1.2\lvgl\src\lv_draw/lv_draw_triangle.c ****                 return;
 1958              		.loc 1 293 0
 1959 0504 059B     		ldr	r3, [sp, #20]
 1960 0506 AB42     		cmp	r3, r5
 1961 0508 C0D0     		beq	.L81
 298:..\..\..\lvgl\version_6.1.2\lvgl\src\lv_draw/lv_draw_triangle.c ****                 edge1.x += sx1;
 1962              		.loc 1 298 0
 1963 050a C8EB0403 		rsb	r3, r8, r4
 297:..\..\..\lvgl\version_6.1.2\lvgl\src\lv_draw/lv_draw_triangle.c ****                 err1 -= dy1;
 1964              		.loc 1 297 0
 1965 050e 8442     		cmp	r4, r0
 298:..\..\..\lvgl\version_6.1.2\lvgl\src\lv_draw/lv_draw_triangle.c ****                 edge1.x += sx1;
 1966              		.loc 1 298 0
 1967 0510 1BB2     		sxth	r3, r3
 1968              	.LVL201:
 299:..\..\..\lvgl\version_6.1.2\lvgl\src\lv_draw/lv_draw_triangle.c ****             }
 1969              		.loc 1 299 0
 1970 0512 0A46     		mov	r2, r1
 1971              	.LVL202:
 297:..\..\..\lvgl\version_6.1.2\lvgl\src\lv_draw/lv_draw_triangle.c ****                 err1 -= dy1;
 1972              		.loc 1 297 0
 1973 0514 35DD     		ble	.L116
 301:..\..\..\lvgl\version_6.1.2\lvgl\src\lv_draw/lv_draw_triangle.c ****                 err1 += dx1;
 1974              		.loc 1 301 0
 1975 0516 A045     		cmp	r8, r4
 298:..\..\..\lvgl\version_6.1.2\lvgl\src\lv_draw/lv_draw_triangle.c ****                 edge1.x += sx1;
 1976              		.loc 1 298 0
 1977 0518 1C46     		mov	r4, r3
 1978              	.LVL203:
 301:..\..\..\lvgl\version_6.1.2\lvgl\src\lv_draw/lv_draw_triangle.c ****                 err1 += dx1;
 1979              		.loc 1 301 0
 1980 051a 04DD     		ble	.L117
 1981              	.L135:
 303:..\..\..\lvgl\version_6.1.2\lvgl\src\lv_draw/lv_draw_triangle.c ****             }
 1982              		.loc 1 303 0
 1983 051c 069B     		ldr	r3, [sp, #24]
 1984              	.LVL204:
 302:..\..\..\lvgl\version_6.1.2\lvgl\src\lv_draw/lv_draw_triangle.c ****                 edge1.y += sy1;
 1985              		.loc 1 302 0
 1986 051e 5444     		add	r4, r4, r10
 303:..\..\..\lvgl\version_6.1.2\lvgl\src\lv_draw/lv_draw_triangle.c ****             }
 1987              		.loc 1 303 0
 1988 0520 1D44     		add	r5, r5, r3
 1989              	.LVL205:
 302:..\..\..\lvgl\version_6.1.2\lvgl\src\lv_draw/lv_draw_triangle.c ****                 edge1.y += sy1;
 1990              		.loc 1 302 0
 1991 0522 24B2     		sxth	r4, r4
 1992              	.LVL206:
ARM GAS  C:\Users\pearlstl\AppData\Local\Temp\ccVE6Vs6.s 			page 49


 303:..\..\..\lvgl\version_6.1.2\lvgl\src\lv_draw/lv_draw_triangle.c ****             }
 1993              		.loc 1 303 0
 1994 0524 2DB2     		sxth	r5, r5
 1995              	.LVL207:
 1996              	.L117:
 305:..\..\..\lvgl\version_6.1.2\lvgl\src\lv_draw/lv_draw_triangle.c **** 
 1997              		.loc 1 305 0
 1998 0526 9145     		cmp	r9, r2
 1999 0528 ECD0     		beq	.L115
 2000 052a 9146     		mov	r9, r2
 2001              	.LVL208:
 2002 052c 57E6     		b	.L96
 2003              	.LVL209:
 2004              	.L114:
 286:..\..\..\lvgl\version_6.1.2\lvgl\src\lv_draw/lv_draw_triangle.c **** 
 2005              		.loc 1 286 0
 2006 052e 079B     		ldr	r3, [sp, #28]
 2007 0530 9D42     		cmp	r5, r3
 2008 0532 1CD0     		beq	.L147
 293:..\..\..\lvgl\version_6.1.2\lvgl\src\lv_draw/lv_draw_triangle.c ****                 return;
 2009              		.loc 1 293 0
 2010 0534 059B     		ldr	r3, [sp, #20]
 2011 0536 AB42     		cmp	r3, r5
 2012 0538 A8D0     		beq	.L81
 2013              	.LVL210:
 2014              	.L119:
 297:..\..\..\lvgl\version_6.1.2\lvgl\src\lv_draw/lv_draw_triangle.c ****                 err1 -= dy1;
 2015              		.loc 1 297 0
 2016 053a CAF10003 		rsb	r3, r10, #0
 2017 053e 9C42     		cmp	r4, r3
 2018 0540 11DD     		ble	.L120
 299:..\..\..\lvgl\version_6.1.2\lvgl\src\lv_draw/lv_draw_triangle.c ****             }
 2019              		.loc 1 299 0
 2020 0542 0A9B     		ldr	r3, [sp, #40]
 298:..\..\..\lvgl\version_6.1.2\lvgl\src\lv_draw/lv_draw_triangle.c ****                 edge1.x += sx1;
 2021              		.loc 1 298 0
 2022 0544 C8EB0402 		rsb	r2, r8, r4
 299:..\..\..\lvgl\version_6.1.2\lvgl\src\lv_draw/lv_draw_triangle.c ****             }
 2023              		.loc 1 299 0
 2024 0548 4B44     		add	r3, r9, r3
 298:..\..\..\lvgl\version_6.1.2\lvgl\src\lv_draw/lv_draw_triangle.c ****                 edge1.x += sx1;
 2025              		.loc 1 298 0
 2026 054a 12B2     		sxth	r2, r2
 2027              	.LVL211:
 301:..\..\..\lvgl\version_6.1.2\lvgl\src\lv_draw/lv_draw_triangle.c ****                 err1 += dx1;
 2028              		.loc 1 301 0
 2029 054c A045     		cmp	r8, r4
 299:..\..\..\lvgl\version_6.1.2\lvgl\src\lv_draw/lv_draw_triangle.c ****             }
 2030              		.loc 1 299 0
 2031 054e 1BB2     		sxth	r3, r3
 2032              	.LVL212:
 298:..\..\..\lvgl\version_6.1.2\lvgl\src\lv_draw/lv_draw_triangle.c ****                 edge1.x += sx1;
 2033              		.loc 1 298 0
 2034 0550 1446     		mov	r4, r2
 2035              	.LVL213:
 301:..\..\..\lvgl\version_6.1.2\lvgl\src\lv_draw/lv_draw_triangle.c ****                 err1 += dx1;
 2036              		.loc 1 301 0
ARM GAS  C:\Users\pearlstl\AppData\Local\Temp\ccVE6Vs6.s 			page 50


 2037 0552 04DD     		ble	.L121
 2038              	.LVL214:
 2039              	.L136:
 303:..\..\..\lvgl\version_6.1.2\lvgl\src\lv_draw/lv_draw_triangle.c ****             }
 2040              		.loc 1 303 0
 2041 0554 069A     		ldr	r2, [sp, #24]
 302:..\..\..\lvgl\version_6.1.2\lvgl\src\lv_draw/lv_draw_triangle.c ****                 edge1.y += sy1;
 2042              		.loc 1 302 0
 2043 0556 5444     		add	r4, r4, r10
 303:..\..\..\lvgl\version_6.1.2\lvgl\src\lv_draw/lv_draw_triangle.c ****             }
 2044              		.loc 1 303 0
 2045 0558 1544     		add	r5, r5, r2
 2046              	.LVL215:
 302:..\..\..\lvgl\version_6.1.2\lvgl\src\lv_draw/lv_draw_triangle.c ****                 edge1.y += sy1;
 2047              		.loc 1 302 0
 2048 055a 24B2     		sxth	r4, r4
 2049              	.LVL216:
 303:..\..\..\lvgl\version_6.1.2\lvgl\src\lv_draw/lv_draw_triangle.c ****             }
 2050              		.loc 1 303 0
 2051 055c 2DB2     		sxth	r5, r5
 2052              	.LVL217:
 2053              	.L121:
 305:..\..\..\lvgl\version_6.1.2\lvgl\src\lv_draw/lv_draw_triangle.c **** 
 2054              		.loc 1 305 0
 2055 055e 9945     		cmp	r9, r3
 2056 0560 E5D0     		beq	.L114
 2057 0562 9946     		mov	r9, r3
 2058              	.LVL218:
 2059 0564 3BE6     		b	.L96
 2060              	.LVL219:
 2061              	.L120:
 301:..\..\..\lvgl\version_6.1.2\lvgl\src\lv_draw/lv_draw_triangle.c ****                 err1 += dx1;
 2062              		.loc 1 301 0
 2063 0566 A045     		cmp	r8, r4
 2064 0568 E1DD     		ble	.L114
 2065 056a 099B     		ldr	r3, [sp, #36]
 2066 056c F2E7     		b	.L136
 2067              	.LVL220:
 2068              	.L147:
 291:..\..\..\lvgl\version_6.1.2\lvgl\src\lv_draw/lv_draw_triangle.c ****                 err1 = (dx1 > dy1 ? dx1 : -dy1) / 2;
 2069              		.loc 1 291 0
 2070 056e 029B     		ldr	r3, [sp, #8]
 2071 0570 0693     		str	r3, [sp, #24]
 2072              	.LVL221:
 289:..\..\..\lvgl\version_6.1.2\lvgl\src\lv_draw/lv_draw_triangle.c ****                 dy1  = LV_MATH_ABS(tri[1].y - tri[2].y);
 2073              		.loc 1 289 0
 2074 0572 019B     		ldr	r3, [sp, #4]
 292:..\..\..\lvgl\version_6.1.2\lvgl\src\lv_draw/lv_draw_triangle.c ****             } else if(edge1.y == tri[2].y && edge1.x == tri[2].x) {
 2075              		.loc 1 292 0
 2076 0574 189C     		ldr	r4, [sp, #96]
 2077              	.LVL222:
 2078 0576 DDF83080 		ldr	r8, [sp, #48]
 2079              	.LVL223:
 289:..\..\..\lvgl\version_6.1.2\lvgl\src\lv_draw/lv_draw_triangle.c ****                 dy1  = LV_MATH_ABS(tri[1].y - tri[2].y);
 2080              		.loc 1 289 0
 2081 057a 0A93     		str	r3, [sp, #40]
 2082              	.LVL224:
ARM GAS  C:\Users\pearlstl\AppData\Local\Temp\ccVE6Vs6.s 			page 51


 2083 057c DDF82CA0 		ldr	r10, [sp, #44]
 2084              	.LVL225:
 2085 0580 DBE7     		b	.L119
 2086              	.LVL226:
 2087              	.L116:
 301:..\..\..\lvgl\version_6.1.2\lvgl\src\lv_draw/lv_draw_triangle.c ****                 err1 += dx1;
 2088              		.loc 1 301 0
 2089 0582 A045     		cmp	r8, r4
 2090 0584 BEDD     		ble	.L115
 2091 0586 039A     		ldr	r2, [sp, #12]
 2092 0588 C8E7     		b	.L135
 2093              	.L106:
 2094 058a A045     		cmp	r8, r4
 2095 058c 7FF74CAF 		ble	.L104
 2096 0590 039A     		ldr	r2, [sp, #12]
 2097 0592 56E7     		b	.L133
 2098              	.LVL227:
 2099              	.L138:
 2100 0594 1346     		mov	r3, r2
 2101 0596 0796     		str	r6, [sp, #28]
 2102 0598 0246     		mov	r2, r0
 2103 059a 1846     		mov	r0, r3
 2104              	.LVL228:
 2105 059c 55E5     		b	.L83
 2106              		.cfi_endproc
 2107              	.LFE34:
 2108              		.size	tri_draw_tall, .-tri_draw_tall
 2109 059e 00BF     		.section	.text.lv_draw_triangle,"ax",%progbits
 2110              		.align	2
 2111              		.global	lv_draw_triangle
 2112              		.thumb
 2113              		.thumb_func
 2114              		.type	lv_draw_triangle, %function
 2115              	lv_draw_triangle:
 2116              	.LFB31:
  47:..\..\..\lvgl\version_6.1.2\lvgl\src\lv_draw/lv_draw_triangle.c ****     /*Return if the triangle is degenerated*/
 2117              		.loc 1 47 0
 2118              		.cfi_startproc
 2119              		@ args = 0, pretend = 0, frame = 0
 2120              		@ frame_needed = 0, uses_anonymous_args = 0
 2121              	.LVL229:
 2122 0000 2DE9F043 		push	{r4, r5, r6, r7, r8, r9, lr}
 2123              		.cfi_def_cfa_offset 28
 2124              		.cfi_offset 4, -28
 2125              		.cfi_offset 5, -24
 2126              		.cfi_offset 6, -20
 2127              		.cfi_offset 7, -16
 2128              		.cfi_offset 8, -12
 2129              		.cfi_offset 9, -8
 2130              		.cfi_offset 14, -4
  49:..\..\..\lvgl\version_6.1.2\lvgl\src\lv_draw/lv_draw_triangle.c ****     if(points[1].x == points[2].x && points[1].y == points[2].y) return;
 2131              		.loc 1 49 0
 2132 0004 B0F90040 		ldrsh	r4, [r0]
 2133 0008 B0F90450 		ldrsh	r5, [r0, #4]
 2134 000c AC42     		cmp	r4, r5
 2135 000e 3ED0     		beq	.L185
 2136              	.L171:
ARM GAS  C:\Users\pearlstl\AppData\Local\Temp\ccVE6Vs6.s 			page 52


  50:..\..\..\lvgl\version_6.1.2\lvgl\src\lv_draw/lv_draw_triangle.c ****     if(points[0].x == points[2].x && points[0].y == points[2].y) return;
 2137              		.loc 1 50 0
 2138 0010 B0F908C0 		ldrsh	ip, [r0, #8]
 2139 0014 B0F90A90 		ldrsh	r9, [r0, #10]
 2140 0018 6545     		cmp	r5, ip
 2141 001a 40D0     		beq	.L186
  51:..\..\..\lvgl\version_6.1.2\lvgl\src\lv_draw/lv_draw_triangle.c **** 
 2142              		.loc 1 51 0
 2143 001c 6445     		cmp	r4, ip
 2144 001e 44D0     		beq	.L175
 2145              	.L189:
 2146 0020 B0F90280 		ldrsh	r8, [r0, #2]
  54:..\..\..\lvgl\version_6.1.2\lvgl\src\lv_draw/lv_draw_triangle.c **** 
 2147              		.loc 1 54 0
 2148 0024 B0F90660 		ldrsh	r6, [r0, #6]
 2149 0028 4645     		cmp	r6, r8
 2150 002a 48D0     		beq	.L187
 2151              	.L177:
  56:..\..\..\lvgl\version_6.1.2\lvgl\src\lv_draw/lv_draw_triangle.c **** 
 2152              		.loc 1 56 0
 2153 002c FF2B     		cmp	r3, #255
 2154 002e 17BF     		itett	ne
 2155 0030 977B     		ldrbne	r7, [r2, #14]	@ zero_extendqisi2
 2156 0032 937B     		ldrbeq	r3, [r2, #14]	@ zero_extendqisi2
 2157              	.LVL230:
 2158 0034 7B43     		mulne	r3, r7, r3
 2159 0036 C3F30723 		ubfxne	r3, r3, #8, #8
 2160              	.LVL231:
  71:..\..\..\lvgl\version_6.1.2\lvgl\src\lv_draw/lv_draw_triangle.c ****         tri_draw_tall(points, mask, style, opa);
 2161              		.loc 1 71 0
 2162 003a AC42     		cmp	r4, r5
 2163 003c A646     		mov	lr, r4
 2164 003e A8BF     		it	ge
 2165 0040 AE46     		movge	lr, r5
 2166 0042 4E45     		cmp	r6, r9
 2167 0044 3746     		mov	r7, r6
 2168 0046 A8BF     		it	ge
 2169 0048 4F46     		movge	r7, r9
 2170 004a E645     		cmp	lr, ip
 2171 004c A8BF     		it	ge
 2172 004e E646     		movge	lr, ip
 2173 0050 AC42     		cmp	r4, r5
 2174 0052 B8BF     		it	lt
 2175 0054 2C46     		movlt	r4, r5
 2176              	.LVL232:
 2177 0056 4745     		cmp	r7, r8
 2178 0058 A8BF     		it	ge
 2179 005a 4746     		movge	r7, r8
 2180 005c 4E45     		cmp	r6, r9
 2181 005e B8BF     		it	lt
 2182 0060 4E46     		movlt	r6, r9
 2183              	.LVL233:
 2184 0062 4645     		cmp	r6, r8
 2185 0064 ACBF     		ite	ge
 2186 0066 C7EB0606 		rsbge	r6, r7, r6
 2187 006a C7EB0806 		rsblt	r6, r7, r8
 2188 006e 6445     		cmp	r4, ip
ARM GAS  C:\Users\pearlstl\AppData\Local\Temp\ccVE6Vs6.s 			page 53


 2189 0070 ACBF     		ite	ge
 2190 0072 CEEB0404 		rsbge	r4, lr, r4
 2191 0076 CEEB0C04 		rsblt	r4, lr, ip
 2192 007a B442     		cmp	r4, r6
 2193 007c 03DB     		blt	.L188
  78:..\..\..\lvgl\version_6.1.2\lvgl\src\lv_draw/lv_draw_triangle.c **** 
 2194              		.loc 1 78 0
 2195 007e BDE8F043 		pop	{r4, r5, r6, r7, r8, r9, lr}
 2196              		.cfi_remember_state
 2197              		.cfi_restore 14
 2198              		.cfi_restore 9
 2199              		.cfi_restore 8
 2200              		.cfi_restore 7
 2201              		.cfi_restore 6
 2202              		.cfi_restore 5
 2203              		.cfi_restore 4
 2204              		.cfi_def_cfa_offset 0
  76:..\..\..\lvgl\version_6.1.2\lvgl\src\lv_draw/lv_draw_triangle.c ****     }
 2205              		.loc 1 76 0
 2206 0082 FFF7FEBF 		b	tri_draw_flat
 2207              	.LVL234:
 2208              	.L188:
 2209              		.cfi_restore_state
  78:..\..\..\lvgl\version_6.1.2\lvgl\src\lv_draw/lv_draw_triangle.c **** 
 2210              		.loc 1 78 0
 2211 0086 BDE8F043 		pop	{r4, r5, r6, r7, r8, r9, lr}
 2212              		.cfi_remember_state
 2213              		.cfi_restore 14
 2214              		.cfi_restore 9
 2215              		.cfi_restore 8
 2216              		.cfi_restore 7
 2217              		.cfi_restore 6
 2218              		.cfi_restore 5
 2219              		.cfi_restore 4
 2220              		.cfi_def_cfa_offset 0
  72:..\..\..\lvgl\version_6.1.2\lvgl\src\lv_draw/lv_draw_triangle.c ****     }
 2221              		.loc 1 72 0
 2222 008a FFF7FEBF 		b	tri_draw_tall
 2223              	.LVL235:
 2224              	.L185:
 2225              		.cfi_restore_state
  49:..\..\..\lvgl\version_6.1.2\lvgl\src\lv_draw/lv_draw_triangle.c ****     if(points[1].x == points[2].x && points[1].y == points[2].y) return;
 2226              		.loc 1 49 0 discriminator 1
 2227 008e B0F90270 		ldrsh	r7, [r0, #2]
 2228 0092 B0F90660 		ldrsh	r6, [r0, #6]
 2229 0096 B742     		cmp	r7, r6
 2230 0098 BAD1     		bne	.L171
 2231              	.L170:
 2232 009a BDE8F083 		pop	{r4, r5, r6, r7, r8, r9, pc}
 2233              	.L186:
  50:..\..\..\lvgl\version_6.1.2\lvgl\src\lv_draw/lv_draw_triangle.c ****     if(points[0].x == points[2].x && points[0].y == points[2].y) return;
 2234              		.loc 1 50 0 discriminator 1
 2235 009e B0F90660 		ldrsh	r6, [r0, #6]
 2236 00a2 4E45     		cmp	r6, r9
 2237 00a4 F9D0     		beq	.L170
  51:..\..\..\lvgl\version_6.1.2\lvgl\src\lv_draw/lv_draw_triangle.c **** 
 2238              		.loc 1 51 0
ARM GAS  C:\Users\pearlstl\AppData\Local\Temp\ccVE6Vs6.s 			page 54


 2239 00a6 6445     		cmp	r4, ip
 2240 00a8 BAD1     		bne	.L189
 2241              	.L175:
  51:..\..\..\lvgl\version_6.1.2\lvgl\src\lv_draw/lv_draw_triangle.c **** 
 2242              		.loc 1 51 0 is_stmt 0 discriminator 1
 2243 00aa B0F90260 		ldrsh	r6, [r0, #2]
 2244 00ae 4E45     		cmp	r6, r9
 2245 00b0 F3D0     		beq	.L170
  53:..\..\..\lvgl\version_6.1.2\lvgl\src\lv_draw/lv_draw_triangle.c ****     if(points[0].y == points[1].y && points[1].y == points[2].y) return;
 2246              		.loc 1 53 0 is_stmt 1
 2247 00b2 AC42     		cmp	r4, r5
 2248 00b4 06D0     		beq	.L190
  54:..\..\..\lvgl\version_6.1.2\lvgl\src\lv_draw/lv_draw_triangle.c **** 
 2249              		.loc 1 54 0
 2250 00b6 B046     		mov	r8, r6
 2251 00b8 B0F90660 		ldrsh	r6, [r0, #6]
 2252 00bc B6E7     		b	.L177
 2253              	.L187:
  54:..\..\..\lvgl\version_6.1.2\lvgl\src\lv_draw/lv_draw_triangle.c **** 
 2254              		.loc 1 54 0 is_stmt 0 discriminator 1
 2255 00be 4E45     		cmp	r6, r9
 2256 00c0 B4D1     		bne	.L177
 2257 00c2 EAE7     		b	.L170
 2258              	.L190:
 2259 00c4 BDE8F083 		pop	{r4, r5, r6, r7, r8, r9, pc}
 2260              		.cfi_endproc
 2261              	.LFE31:
 2262              		.size	lv_draw_triangle, .-lv_draw_triangle
 2263              		.section	.text.lv_draw_polygon,"ax",%progbits
 2264              		.align	2
 2265              		.global	lv_draw_polygon
 2266              		.thumb
 2267              		.thumb_func
 2268              		.type	lv_draw_polygon, %function
 2269              	lv_draw_polygon:
 2270              	.LFB32:
  90:..\..\..\lvgl\version_6.1.2\lvgl\src\lv_draw/lv_draw_triangle.c ****     if(point_cnt < 3) return;
 2271              		.loc 1 90 0 is_stmt 1
 2272              		.cfi_startproc
 2273              		@ args = 4, pretend = 0, frame = 24
 2274              		@ frame_needed = 0, uses_anonymous_args = 0
 2275              	.LVL236:
 2276 0000 2DE9F04F 		push	{r4, r5, r6, r7, r8, r9, r10, fp, lr}
 2277              		.cfi_def_cfa_offset 36
 2278              		.cfi_offset 4, -36
 2279              		.cfi_offset 5, -32
 2280              		.cfi_offset 6, -28
 2281              		.cfi_offset 7, -24
 2282              		.cfi_offset 8, -20
 2283              		.cfi_offset 9, -16
 2284              		.cfi_offset 10, -12
 2285              		.cfi_offset 11, -8
 2286              		.cfi_offset 14, -4
 2287 0004 87B0     		sub	sp, sp, #28
 2288              		.cfi_def_cfa_offset 64
  91:..\..\..\lvgl\version_6.1.2\lvgl\src\lv_draw/lv_draw_triangle.c ****     if(points == NULL) return;
 2289              		.loc 1 91 0
ARM GAS  C:\Users\pearlstl\AppData\Local\Temp\ccVE6Vs6.s 			page 55


 2290 0006 0229     		cmp	r1, #2
  90:..\..\..\lvgl\version_6.1.2\lvgl\src\lv_draw/lv_draw_triangle.c ****     if(point_cnt < 3) return;
 2291              		.loc 1 90 0
 2292 0008 9DF84080 		ldrb	r8, [sp, #64]	@ zero_extendqisi2
  91:..\..\..\lvgl\version_6.1.2\lvgl\src\lv_draw/lv_draw_triangle.c ****     if(points == NULL) return;
 2293              		.loc 1 91 0
 2294 000c 67D9     		bls	.L191
  92:..\..\..\lvgl\version_6.1.2\lvgl\src\lv_draw/lv_draw_triangle.c **** 
 2295              		.loc 1 92 0
 2296 000e 0028     		cmp	r0, #0
 2297 0010 65D0     		beq	.L191
  97:..\..\..\lvgl\version_6.1.2\lvgl\src\lv_draw/lv_draw_triangle.c ****     for(i = 0; i < point_cnt - 1; i++) {
 2298              		.loc 1 97 0
 2299 0012 0446     		mov	r4, r0
 2300 0014 1E46     		mov	r6, r3
 2301 0016 0192     		str	r2, [sp, #4]
 2302 0018 34F8023F 		ldrh	r3, [r4, #2]!
 2303              	.LVL237:
  96:..\..\..\lvgl\version_6.1.2\lvgl\src\lv_draw/lv_draw_triangle.c ****     tri[0].y = points[0].y;
 2304              		.loc 1 96 0
 2305 001c 0288     		ldrh	r2, [r0]
 2306              	.LVL238:
 2307 001e ADF80C20 		strh	r2, [sp, #12]	@ movhi
 2308 0022 4F1E     		subs	r7, r1, #1
  97:..\..\..\lvgl\version_6.1.2\lvgl\src\lv_draw/lv_draw_triangle.c ****     for(i = 0; i < point_cnt - 1; i++) {
 2309              		.loc 1 97 0
 2310 0024 ADF80E30 		strh	r3, [sp, #14]	@ movhi
 2311              	.LVL239:
  98:..\..\..\lvgl\version_6.1.2\lvgl\src\lv_draw/lv_draw_triangle.c ****         tri[1].x = points[i].x;
 2312              		.loc 1 98 0
 2313 0028 0025     		movs	r5, #0
 2314 002a 05E0     		b	.L202
 2315              	.LVL240:
 2316              	.L201:
 2317              	.LBB30:
 2318              	.LBB31:
  76:..\..\..\lvgl\version_6.1.2\lvgl\src\lv_draw/lv_draw_triangle.c ****     }
 2319              		.loc 1 76 0
 2320 002c FFF7FEFF 		bl	tri_draw_flat
 2321              	.LVL241:
 2322              	.L194:
 2323              	.LBE31:
 2324              	.LBE30:
  98:..\..\..\lvgl\version_6.1.2\lvgl\src\lv_draw/lv_draw_triangle.c ****         tri[1].x = points[i].x;
 2325              		.loc 1 98 0 discriminator 1
 2326 0030 BD42     		cmp	r5, r7
 2327 0032 04F10404 		add	r4, r4, #4
 2328              	.LVL242:
 2329 0036 52D0     		beq	.L191
 2330              	.LVL243:
 2331              	.L202:
  99:..\..\..\lvgl\version_6.1.2\lvgl\src\lv_draw/lv_draw_triangle.c ****         tri[1].y = points[i].y;
 2332              		.loc 1 99 0 discriminator 3
 2333 0038 34F9021C 		ldrsh	r1, [r4, #-2]
 2334              	.LBB36:
 2335              	.LBB32:
  49:..\..\..\lvgl\version_6.1.2\lvgl\src\lv_draw/lv_draw_triangle.c ****     if(points[1].x == points[2].x && points[1].y == points[2].y) return;
ARM GAS  C:\Users\pearlstl\AppData\Local\Temp\ccVE6Vs6.s 			page 56


 2336              		.loc 1 49 0 discriminator 3
 2337 003c BDF90CE0 		ldrsh	lr, [sp, #12]
 2338              	.LBE32:
 2339              	.LBE36:
 100:..\..\..\lvgl\version_6.1.2\lvgl\src\lv_draw/lv_draw_triangle.c ****         tri[2].x = points[i + 1].x;
 2340              		.loc 1 100 0 discriminator 3
 2341 0040 B4F900C0 		ldrsh	ip, [r4]
 101:..\..\..\lvgl\version_6.1.2\lvgl\src\lv_draw/lv_draw_triangle.c ****         tri[2].y = points[i + 1].y;
 2342              		.loc 1 101 0 discriminator 3
 2343 0044 B4F90220 		ldrsh	r2, [r4, #2]
 102:..\..\..\lvgl\version_6.1.2\lvgl\src\lv_draw/lv_draw_triangle.c ****         lv_draw_triangle(tri, mask, style, opa_scale);
 2344              		.loc 1 102 0 discriminator 3
 2345 0048 B4F90400 		ldrsh	r0, [r4, #4]
  99:..\..\..\lvgl\version_6.1.2\lvgl\src\lv_draw/lv_draw_triangle.c ****         tri[1].y = points[i].y;
 2346              		.loc 1 99 0 discriminator 3
 2347 004c ADF81010 		strh	r1, [sp, #16]	@ movhi
 2348              	.LBB37:
 2349              	.LBB33:
  49:..\..\..\lvgl\version_6.1.2\lvgl\src\lv_draw/lv_draw_triangle.c ****     if(points[1].x == points[2].x && points[1].y == points[2].y) return;
 2350              		.loc 1 49 0 discriminator 3
 2351 0050 7145     		cmp	r1, lr
 2352              	.LBE33:
 2353              	.LBE37:
 101:..\..\..\lvgl\version_6.1.2\lvgl\src\lv_draw/lv_draw_triangle.c ****         tri[2].y = points[i + 1].y;
 2354              		.loc 1 101 0 discriminator 3
 2355 0052 05F10105 		add	r5, r5, #1
 2356              	.LVL244:
 100:..\..\..\lvgl\version_6.1.2\lvgl\src\lv_draw/lv_draw_triangle.c ****         tri[2].x = points[i + 1].x;
 2357              		.loc 1 100 0 discriminator 3
 2358 0056 ADF812C0 		strh	ip, [sp, #18]	@ movhi
 101:..\..\..\lvgl\version_6.1.2\lvgl\src\lv_draw/lv_draw_triangle.c ****         tri[2].y = points[i + 1].y;
 2359              		.loc 1 101 0 discriminator 3
 2360 005a ADF81420 		strh	r2, [sp, #20]	@ movhi
 102:..\..\..\lvgl\version_6.1.2\lvgl\src\lv_draw/lv_draw_triangle.c ****         lv_draw_triangle(tri, mask, style, opa_scale);
 2361              		.loc 1 102 0 discriminator 3
 2362 005e ADF81600 		strh	r0, [sp, #22]	@ movhi
 2363              	.LVL245:
 2364              	.LBB38:
 2365              	.LBB34:
  49:..\..\..\lvgl\version_6.1.2\lvgl\src\lv_draw/lv_draw_triangle.c ****     if(points[1].x == points[2].x && points[1].y == points[2].y) return;
 2366              		.loc 1 49 0 discriminator 3
 2367 0062 3FD0     		beq	.L209
  50:..\..\..\lvgl\version_6.1.2\lvgl\src\lv_draw/lv_draw_triangle.c ****     if(points[0].x == points[2].x && points[0].y == points[2].y) return;
 2368              		.loc 1 50 0
 2369 0064 9142     		cmp	r1, r2
 2370 0066 43D0     		beq	.L210
 2371              	.L195:
  51:..\..\..\lvgl\version_6.1.2\lvgl\src\lv_draw/lv_draw_triangle.c **** 
 2372              		.loc 1 51 0
 2373 0068 7245     		cmp	r2, lr
 2374 006a 45D0     		beq	.L211
 2375              	.L196:
  53:..\..\..\lvgl\version_6.1.2\lvgl\src\lv_draw/lv_draw_triangle.c ****     if(points[0].y == points[1].y && points[1].y == points[2].y) return;
 2376              		.loc 1 53 0
 2377 006c 7145     		cmp	r1, lr
 2378 006e 49D0     		beq	.L212
 2379              	.L197:
ARM GAS  C:\Users\pearlstl\AppData\Local\Temp\ccVE6Vs6.s 			page 57


  54:..\..\..\lvgl\version_6.1.2\lvgl\src\lv_draw/lv_draw_triangle.c **** 
 2380              		.loc 1 54 0
 2381 0070 BDF90EB0 		ldrsh	fp, [sp, #14]
 2382 0074 DC45     		cmp	ip, fp
 2383 0076 4BD0     		beq	.L213
 2384              	.L198:
  56:..\..\..\lvgl\version_6.1.2\lvgl\src\lv_draw/lv_draw_triangle.c **** 
 2385              		.loc 1 56 0
 2386 0078 B37B     		ldrb	r3, [r6, #14]	@ zero_extendqisi2
 2387 007a B8F1FF0F 		cmp	r8, #255
 2388 007e 1CBF     		itt	ne
 2389 0080 03FB08F3 		mulne	r3, r3, r8
 2390 0084 C3F30723 		ubfxne	r3, r3, #8, #8
 2391              	.LVL246:
  71:..\..\..\lvgl\version_6.1.2\lvgl\src\lv_draw/lv_draw_triangle.c ****         tri_draw_tall(points, mask, style, opa);
 2392              		.loc 1 71 0
 2393 0088 9142     		cmp	r1, r2
 2394 008a 8A46     		mov	r10, r1
 2395 008c A8BF     		it	ge
 2396 008e 9246     		movge	r10, r2
 2397 0090 8445     		cmp	ip, r0
 2398 0092 E146     		mov	r9, ip
 2399 0094 A8BF     		it	ge
 2400 0096 8146     		movge	r9, r0
 2401 0098 F245     		cmp	r10, lr
 2402 009a A8BF     		it	ge
 2403 009c F246     		movge	r10, lr
 2404 009e 8A42     		cmp	r2, r1
 2405 00a0 B8BF     		it	lt
 2406 00a2 0A46     		movlt	r2, r1
 2407              	.LVL247:
 2408 00a4 D945     		cmp	r9, fp
 2409 00a6 A8BF     		it	ge
 2410 00a8 D946     		movge	r9, fp
 2411 00aa 6045     		cmp	r0, ip
 2412 00ac B8BF     		it	lt
 2413 00ae 6046     		movlt	r0, ip
 2414              	.LVL248:
 2415 00b0 5845     		cmp	r0, fp
 2416 00b2 ACBF     		ite	ge
 2417 00b4 C9EB0009 		rsbge	r9, r9, r0
 2418 00b8 C9EB0B09 		rsblt	r9, r9, fp
 2419 00bc 7245     		cmp	r2, lr
 2420 00be ACBF     		ite	ge
 2421 00c0 CAEB0202 		rsbge	r2, r10, r2
 2422 00c4 CAEB0E02 		rsblt	r2, r10, lr
 2423 00c8 4A45     		cmp	r2, r9
  72:..\..\..\lvgl\version_6.1.2\lvgl\src\lv_draw/lv_draw_triangle.c ****     }
 2424              		.loc 1 72 0
 2425 00ca 0199     		ldr	r1, [sp, #4]
 2426              	.LVL249:
 2427 00cc 3246     		mov	r2, r6
 2428 00ce 03A8     		add	r0, sp, #12
 2429              	.LVL250:
  71:..\..\..\lvgl\version_6.1.2\lvgl\src\lv_draw/lv_draw_triangle.c ****         tri_draw_tall(points, mask, style, opa);
 2430              		.loc 1 71 0
 2431 00d0 ACDA     		bge	.L201
ARM GAS  C:\Users\pearlstl\AppData\Local\Temp\ccVE6Vs6.s 			page 58


 2432              	.LVL251:
  72:..\..\..\lvgl\version_6.1.2\lvgl\src\lv_draw/lv_draw_triangle.c ****     }
 2433              		.loc 1 72 0
 2434 00d2 FFF7FEFF 		bl	tri_draw_tall
 2435              	.LVL252:
 2436              	.LBE34:
 2437              	.LBE38:
  98:..\..\..\lvgl\version_6.1.2\lvgl\src\lv_draw/lv_draw_triangle.c ****         tri[1].x = points[i].x;
 2438              		.loc 1 98 0
 2439 00d6 BD42     		cmp	r5, r7
 2440 00d8 04F10404 		add	r4, r4, #4
 2441              	.LVL253:
 2442 00dc ACD1     		bne	.L202
 2443              	.LVL254:
 2444              	.L191:
 105:..\..\..\lvgl\version_6.1.2\lvgl\src\lv_draw/lv_draw_triangle.c **** 
 2445              		.loc 1 105 0
 2446 00de 07B0     		add	sp, sp, #28
 2447              		.cfi_remember_state
 2448              		.cfi_def_cfa_offset 36
 2449              		@ sp needed
 2450 00e0 BDE8F08F 		pop	{r4, r5, r6, r7, r8, r9, r10, fp, pc}
 2451              	.LVL255:
 2452              	.L209:
 2453              		.cfi_restore_state
 2454              	.LBB39:
 2455              	.LBB35:
  49:..\..\..\lvgl\version_6.1.2\lvgl\src\lv_draw/lv_draw_triangle.c ****     if(points[1].x == points[2].x && points[1].y == points[2].y) return;
 2456              		.loc 1 49 0
 2457 00e4 BDF90E30 		ldrsh	r3, [sp, #14]
 2458 00e8 6345     		cmp	r3, ip
 2459 00ea A1D0     		beq	.L194
  50:..\..\..\lvgl\version_6.1.2\lvgl\src\lv_draw/lv_draw_triangle.c ****     if(points[0].x == points[2].x && points[0].y == points[2].y) return;
 2460              		.loc 1 50 0
 2461 00ec 9142     		cmp	r1, r2
 2462 00ee BBD1     		bne	.L195
 2463              	.L210:
 2464 00f0 8445     		cmp	ip, r0
 2465 00f2 9DD0     		beq	.L194
  51:..\..\..\lvgl\version_6.1.2\lvgl\src\lv_draw/lv_draw_triangle.c **** 
 2466              		.loc 1 51 0
 2467 00f4 7245     		cmp	r2, lr
 2468 00f6 B9D1     		bne	.L196
 2469              	.L211:
 2470 00f8 BDF90E30 		ldrsh	r3, [sp, #14]
 2471 00fc 8342     		cmp	r3, r0
 2472 00fe 97D0     		beq	.L194
  53:..\..\..\lvgl\version_6.1.2\lvgl\src\lv_draw/lv_draw_triangle.c ****     if(points[0].y == points[1].y && points[1].y == points[2].y) return;
 2473              		.loc 1 53 0
 2474 0100 7145     		cmp	r1, lr
 2475 0102 B5D1     		bne	.L197
 2476              	.L212:
 2477 0104 9142     		cmp	r1, r2
 2478 0106 93D0     		beq	.L194
  54:..\..\..\lvgl\version_6.1.2\lvgl\src\lv_draw/lv_draw_triangle.c **** 
 2479              		.loc 1 54 0
 2480 0108 BDF90EB0 		ldrsh	fp, [sp, #14]
ARM GAS  C:\Users\pearlstl\AppData\Local\Temp\ccVE6Vs6.s 			page 59


 2481 010c DC45     		cmp	ip, fp
 2482 010e B3D1     		bne	.L198
 2483              	.L213:
 2484 0110 8445     		cmp	ip, r0
 2485 0112 B1D1     		bne	.L198
 2486 0114 8CE7     		b	.L194
 2487              	.LBE35:
 2488              	.LBE39:
 2489              		.cfi_endproc
 2490              	.LFE32:
 2491              		.size	lv_draw_polygon, .-lv_draw_polygon
 2492 0116 00BF     		.text
 2493              	.Letext0:
 2494              		.file 2 "c:\\program files (x86)\\cypress\\psoc creator\\4.2\\psoc creator\\import\\gnu\\arm\\5.4.
 2495              		.file 3 "c:\\program files (x86)\\cypress\\psoc creator\\4.2\\psoc creator\\import\\gnu\\arm\\5.4.
 2496              		.file 4 "..\\..\\..\\lvgl\\version_6.1.2\\lvgl\\src\\lv_draw\\../../../lv_conf.h"
 2497              		.file 5 "..\\..\\..\\lvgl\\version_6.1.2\\lvgl\\src\\lv_draw\\../lv_core/../lv_font/lv_font.h"
 2498              		.file 6 "..\\..\\..\\lvgl\\version_6.1.2\\lvgl\\src\\lv_draw\\../lv_core/../lv_misc/lv_color.h"
 2499              		.file 7 "..\\..\\..\\lvgl\\version_6.1.2\\lvgl\\src\\lv_draw\\../lv_core/../lv_misc/lv_area.h"
 2500              		.file 8 "..\\..\\..\\lvgl\\version_6.1.2\\lvgl\\src\\lv_draw\\../lv_core/lv_style.h"
 2501              		.file 9 "..\\..\\..\\lvgl\\version_6.1.2\\lvgl\\src\\lv_draw\\lv_draw_basic.h"
 2502              		.section	.debug_info,"",%progbits
 2503              	.Ldebug_info0:
 2504 0000 F90B0000 		.4byte	0xbf9
 2505 0004 0400     		.2byte	0x4
 2506 0006 00000000 		.4byte	.Ldebug_abbrev0
 2507 000a 04       		.byte	0x4
 2508 000b 01       		.uleb128 0x1
 2509 000c 84000000 		.4byte	.LASF110
 2510 0010 0C       		.byte	0xc
 2511 0011 1C000000 		.4byte	.LASF111
 2512 0015 01050000 		.4byte	.LASF112
 2513 0019 60000000 		.4byte	.Ldebug_ranges0+0x60
 2514 001d 00000000 		.4byte	0
 2515 0021 00000000 		.4byte	.Ldebug_line0
 2516 0025 02       		.uleb128 0x2
 2517 0026 39030000 		.4byte	.LASF0
 2518 002a 02       		.byte	0x2
 2519 002b 1B       		.byte	0x1b
 2520 002c 30000000 		.4byte	0x30
 2521 0030 03       		.uleb128 0x3
 2522 0031 01       		.byte	0x1
 2523 0032 06       		.byte	0x6
 2524 0033 D8040000 		.4byte	.LASF2
 2525 0037 02       		.uleb128 0x2
 2526 0038 F3030000 		.4byte	.LASF1
 2527 003c 02       		.byte	0x2
 2528 003d 1D       		.byte	0x1d
 2529 003e 42000000 		.4byte	0x42
 2530 0042 03       		.uleb128 0x3
 2531 0043 01       		.byte	0x1
 2532 0044 08       		.byte	0x8
 2533 0045 6E040000 		.4byte	.LASF3
 2534 0049 02       		.uleb128 0x2
 2535 004a E8020000 		.4byte	.LASF4
 2536 004e 02       		.byte	0x2
 2537 004f 29       		.byte	0x29
ARM GAS  C:\Users\pearlstl\AppData\Local\Temp\ccVE6Vs6.s 			page 60


 2538 0050 54000000 		.4byte	0x54
 2539 0054 03       		.uleb128 0x3
 2540 0055 02       		.byte	0x2
 2541 0056 05       		.byte	0x5
 2542 0057 9D030000 		.4byte	.LASF5
 2543 005b 02       		.uleb128 0x2
 2544 005c E4010000 		.4byte	.LASF6
 2545 0060 02       		.byte	0x2
 2546 0061 2B       		.byte	0x2b
 2547 0062 66000000 		.4byte	0x66
 2548 0066 03       		.uleb128 0x3
 2549 0067 02       		.byte	0x2
 2550 0068 07       		.byte	0x7
 2551 0069 E4040000 		.4byte	.LASF7
 2552 006d 03       		.uleb128 0x3
 2553 006e 04       		.byte	0x4
 2554 006f 05       		.byte	0x5
 2555 0070 B0030000 		.4byte	.LASF8
 2556 0074 02       		.uleb128 0x2
 2557 0075 7C040000 		.4byte	.LASF9
 2558 0079 02       		.byte	0x2
 2559 007a 41       		.byte	0x41
 2560 007b 7F000000 		.4byte	0x7f
 2561 007f 03       		.uleb128 0x3
 2562 0080 04       		.byte	0x4
 2563 0081 07       		.byte	0x7
 2564 0082 1F040000 		.4byte	.LASF10
 2565 0086 03       		.uleb128 0x3
 2566 0087 08       		.byte	0x8
 2567 0088 05       		.byte	0x5
 2568 0089 C7020000 		.4byte	.LASF11
 2569 008d 03       		.uleb128 0x3
 2570 008e 08       		.byte	0x8
 2571 008f 07       		.byte	0x7
 2572 0090 BA010000 		.4byte	.LASF12
 2573 0094 04       		.uleb128 0x4
 2574 0095 04       		.byte	0x4
 2575 0096 05       		.byte	0x5
 2576 0097 696E7400 		.ascii	"int\000"
 2577 009b 03       		.uleb128 0x3
 2578 009c 04       		.byte	0x4
 2579 009d 07       		.byte	0x7
 2580 009e 6B000000 		.4byte	.LASF13
 2581 00a2 02       		.uleb128 0x2
 2582 00a3 6A010000 		.4byte	.LASF14
 2583 00a7 03       		.byte	0x3
 2584 00a8 14       		.byte	0x14
 2585 00a9 25000000 		.4byte	0x25
 2586 00ad 02       		.uleb128 0x2
 2587 00ae 95020000 		.4byte	.LASF15
 2588 00b2 03       		.byte	0x3
 2589 00b3 18       		.byte	0x18
 2590 00b4 37000000 		.4byte	0x37
 2591 00b8 02       		.uleb128 0x2
 2592 00b9 B2010000 		.4byte	.LASF16
 2593 00bd 03       		.byte	0x3
 2594 00be 20       		.byte	0x20
ARM GAS  C:\Users\pearlstl\AppData\Local\Temp\ccVE6Vs6.s 			page 61


 2595 00bf 49000000 		.4byte	0x49
 2596 00c3 02       		.uleb128 0x2
 2597 00c4 5E030000 		.4byte	.LASF17
 2598 00c8 03       		.byte	0x3
 2599 00c9 24       		.byte	0x24
 2600 00ca 5B000000 		.4byte	0x5b
 2601 00ce 02       		.uleb128 0x2
 2602 00cf 61010000 		.4byte	.LASF18
 2603 00d3 03       		.byte	0x3
 2604 00d4 30       		.byte	0x30
 2605 00d5 74000000 		.4byte	0x74
 2606 00d9 02       		.uleb128 0x2
 2607 00da D8030000 		.4byte	.LASF19
 2608 00de 04       		.byte	0x4
 2609 00df 3A       		.byte	0x3a
 2610 00e0 B8000000 		.4byte	0xb8
 2611 00e4 05       		.uleb128 0x5
 2612 00e5 04       		.byte	0x4
 2613 00e6 03       		.uleb128 0x3
 2614 00e7 08       		.byte	0x8
 2615 00e8 04       		.byte	0x4
 2616 00e9 52030000 		.4byte	.LASF20
 2617 00ed 06       		.uleb128 0x6
 2618 00ee 08       		.byte	0x8
 2619 00ef 05       		.byte	0x5
 2620 00f0 2E       		.byte	0x2e
 2621 00f1 3E010000 		.4byte	0x13e
 2622 00f5 07       		.uleb128 0x7
 2623 00f6 A1050000 		.4byte	.LASF21
 2624 00fa 05       		.byte	0x5
 2625 00fb 30       		.byte	0x30
 2626 00fc C3000000 		.4byte	0xc3
 2627 0100 00       		.byte	0
 2628 0101 07       		.uleb128 0x7
 2629 0102 19040000 		.4byte	.LASF22
 2630 0106 05       		.byte	0x5
 2631 0107 31       		.byte	0x31
 2632 0108 AD000000 		.4byte	0xad
 2633 010c 02       		.byte	0x2
 2634 010d 07       		.uleb128 0x7
 2635 010e 0E040000 		.4byte	.LASF23
 2636 0112 05       		.byte	0x5
 2637 0113 32       		.byte	0x32
 2638 0114 AD000000 		.4byte	0xad
 2639 0118 03       		.byte	0x3
 2640 0119 07       		.uleb128 0x7
 2641 011a 78000000 		.4byte	.LASF24
 2642 011e 05       		.byte	0x5
 2643 011f 33       		.byte	0x33
 2644 0120 A2000000 		.4byte	0xa2
 2645 0124 04       		.byte	0x4
 2646 0125 07       		.uleb128 0x7
 2647 0126 7E000000 		.4byte	.LASF25
 2648 012a 05       		.byte	0x5
 2649 012b 34       		.byte	0x34
 2650 012c A2000000 		.4byte	0xa2
 2651 0130 05       		.byte	0x5
ARM GAS  C:\Users\pearlstl\AppData\Local\Temp\ccVE6Vs6.s 			page 62


 2652 0131 08       		.uleb128 0x8
 2653 0132 62707000 		.ascii	"bpp\000"
 2654 0136 05       		.byte	0x5
 2655 0137 35       		.byte	0x35
 2656 0138 AD000000 		.4byte	0xad
 2657 013c 06       		.byte	0x6
 2658 013d 00       		.byte	0
 2659 013e 02       		.uleb128 0x2
 2660 013f 71020000 		.4byte	.LASF26
 2661 0143 05       		.byte	0x5
 2662 0144 36       		.byte	0x36
 2663 0145 ED000000 		.4byte	0xed
 2664 0149 09       		.uleb128 0x9
 2665 014a 29020000 		.4byte	.LASF113
 2666 014e 10       		.byte	0x10
 2667 014f 05       		.byte	0x5
 2668 0150 44       		.byte	0x44
 2669 0151 A1010000 		.4byte	0x1a1
 2670 0155 07       		.uleb128 0x7
 2671 0156 37010000 		.4byte	.LASF27
 2672 015a 05       		.byte	0x5
 2673 015b 47       		.byte	0x47
 2674 015c D7010000 		.4byte	0x1d7
 2675 0160 00       		.byte	0
 2676 0161 07       		.uleb128 0x7
 2677 0162 92040000 		.4byte	.LASF28
 2678 0166 05       		.byte	0x5
 2679 0167 4A       		.byte	0x4a
 2680 0168 FC010000 		.4byte	0x1fc
 2681 016c 04       		.byte	0x4
 2682 016d 07       		.uleb128 0x7
 2683 016e 44020000 		.4byte	.LASF29
 2684 0172 05       		.byte	0x5
 2685 0173 4D       		.byte	0x4d
 2686 0174 AD000000 		.4byte	0xad
 2687 0178 08       		.byte	0x8
 2688 0179 07       		.uleb128 0x7
 2689 017a 3F040000 		.4byte	.LASF30
 2690 017e 05       		.byte	0x5
 2691 017f 4E       		.byte	0x4e
 2692 0180 A2000000 		.4byte	0xa2
 2693 0184 09       		.byte	0x9
 2694 0185 0A       		.uleb128 0xa
 2695 0186 28030000 		.4byte	.LASF78
 2696 018a 05       		.byte	0x5
 2697 018b 4F       		.byte	0x4f
 2698 018c AD000000 		.4byte	0xad
 2699 0190 01       		.byte	0x1
 2700 0191 02       		.byte	0x2
 2701 0192 06       		.byte	0x6
 2702 0193 0A       		.byte	0xa
 2703 0194 08       		.uleb128 0x8
 2704 0195 64736300 		.ascii	"dsc\000"
 2705 0199 05       		.byte	0x5
 2706 019a 50       		.byte	0x50
 2707 019b E4000000 		.4byte	0xe4
 2708 019f 0C       		.byte	0xc
ARM GAS  C:\Users\pearlstl\AppData\Local\Temp\ccVE6Vs6.s 			page 63


 2709 01a0 00       		.byte	0
 2710 01a1 0B       		.uleb128 0xb
 2711 01a2 BF010000 		.4byte	0x1bf
 2712 01a6 BF010000 		.4byte	0x1bf
 2713 01aa 0C       		.uleb128 0xc
 2714 01ab C6010000 		.4byte	0x1c6
 2715 01af 0C       		.uleb128 0xc
 2716 01b0 D1010000 		.4byte	0x1d1
 2717 01b4 0C       		.uleb128 0xc
 2718 01b5 CE000000 		.4byte	0xce
 2719 01b9 0C       		.uleb128 0xc
 2720 01ba CE000000 		.4byte	0xce
 2721 01be 00       		.byte	0
 2722 01bf 03       		.uleb128 0x3
 2723 01c0 01       		.byte	0x1
 2724 01c1 02       		.byte	0x2
 2725 01c2 23020000 		.4byte	.LASF31
 2726 01c6 0D       		.uleb128 0xd
 2727 01c7 04       		.byte	0x4
 2728 01c8 CC010000 		.4byte	0x1cc
 2729 01cc 0E       		.uleb128 0xe
 2730 01cd 49010000 		.4byte	0x149
 2731 01d1 0D       		.uleb128 0xd
 2732 01d2 04       		.byte	0x4
 2733 01d3 3E010000 		.4byte	0x13e
 2734 01d7 0D       		.uleb128 0xd
 2735 01d8 04       		.byte	0x4
 2736 01d9 A1010000 		.4byte	0x1a1
 2737 01dd 0B       		.uleb128 0xb
 2738 01de F1010000 		.4byte	0x1f1
 2739 01e2 F1010000 		.4byte	0x1f1
 2740 01e6 0C       		.uleb128 0xc
 2741 01e7 C6010000 		.4byte	0x1c6
 2742 01eb 0C       		.uleb128 0xc
 2743 01ec CE000000 		.4byte	0xce
 2744 01f0 00       		.byte	0
 2745 01f1 0D       		.uleb128 0xd
 2746 01f2 04       		.byte	0x4
 2747 01f3 F7010000 		.4byte	0x1f7
 2748 01f7 0E       		.uleb128 0xe
 2749 01f8 AD000000 		.4byte	0xad
 2750 01fc 0D       		.uleb128 0xd
 2751 01fd 04       		.byte	0x4
 2752 01fe DD010000 		.4byte	0x1dd
 2753 0202 02       		.uleb128 0x2
 2754 0203 7B030000 		.4byte	.LASF32
 2755 0207 05       		.byte	0x5
 2756 0208 56       		.byte	0x56
 2757 0209 49010000 		.4byte	0x149
 2758 020d 0F       		.uleb128 0xf
 2759 020e 01       		.byte	0x1
 2760 020f 42000000 		.4byte	0x42
 2761 0213 06       		.byte	0x6
 2762 0214 3E       		.byte	0x3e
 2763 0215 68020000 		.4byte	0x268
 2764 0219 10       		.uleb128 0x10
 2765 021a D6010000 		.4byte	.LASF33
ARM GAS  C:\Users\pearlstl\AppData\Local\Temp\ccVE6Vs6.s 			page 64


 2766 021e 00       		.byte	0
 2767 021f 10       		.uleb128 0x10
 2768 0220 62000000 		.4byte	.LASF34
 2769 0224 00       		.byte	0
 2770 0225 10       		.uleb128 0x10
 2771 0226 BD020000 		.4byte	.LASF35
 2772 022a 19       		.byte	0x19
 2773 022b 10       		.uleb128 0x10
 2774 022c F8020000 		.4byte	.LASF36
 2775 0230 33       		.byte	0x33
 2776 0231 10       		.uleb128 0x10
 2777 0232 48030000 		.4byte	.LASF37
 2778 0236 4C       		.byte	0x4c
 2779 0237 10       		.uleb128 0x10
 2780 0238 B9030000 		.4byte	.LASF38
 2781 023c 66       		.byte	0x66
 2782 023d 10       		.uleb128 0x10
 2783 023e FD030000 		.4byte	.LASF39
 2784 0242 7F       		.byte	0x7f
 2785 0243 10       		.uleb128 0x10
 2786 0244 5F040000 		.4byte	.LASF40
 2787 0248 99       		.byte	0x99
 2788 0249 10       		.uleb128 0x10
 2789 024a B0040000 		.4byte	.LASF41
 2790 024e B2       		.byte	0xb2
 2791 024f 10       		.uleb128 0x10
 2792 0250 F7040000 		.4byte	.LASF42
 2793 0254 CC       		.byte	0xcc
 2794 0255 10       		.uleb128 0x10
 2795 0256 12000000 		.4byte	.LASF43
 2796 025a E5       		.byte	0xe5
 2797 025b 10       		.uleb128 0x10
 2798 025c E8030000 		.4byte	.LASF44
 2799 0260 FF       		.byte	0xff
 2800 0261 10       		.uleb128 0x10
 2801 0262 00000000 		.4byte	.LASF45
 2802 0266 FF       		.byte	0xff
 2803 0267 00       		.byte	0
 2804 0268 06       		.uleb128 0x6
 2805 0269 04       		.byte	0x4
 2806 026a 06       		.byte	0x6
 2807 026b F3       		.byte	0xf3
 2808 026c A1020000 		.4byte	0x2a1
 2809 0270 07       		.uleb128 0x7
 2810 0271 D3030000 		.4byte	.LASF46
 2811 0275 06       		.byte	0x6
 2812 0276 F5       		.byte	0xf5
 2813 0277 AD000000 		.4byte	0xad
 2814 027b 00       		.byte	0
 2815 027c 07       		.uleb128 0x7
 2816 027d 42030000 		.4byte	.LASF47
 2817 0281 06       		.byte	0x6
 2818 0282 F6       		.byte	0xf6
 2819 0283 AD000000 		.4byte	0xad
 2820 0287 01       		.byte	0x1
 2821 0288 08       		.uleb128 0x8
 2822 0289 72656400 		.ascii	"red\000"
ARM GAS  C:\Users\pearlstl\AppData\Local\Temp\ccVE6Vs6.s 			page 65


 2823 028d 06       		.byte	0x6
 2824 028e F7       		.byte	0xf7
 2825 028f AD000000 		.4byte	0xad
 2826 0293 02       		.byte	0x2
 2827 0294 07       		.uleb128 0x7
 2828 0295 39040000 		.4byte	.LASF48
 2829 0299 06       		.byte	0x6
 2830 029a F8       		.byte	0xf8
 2831 029b AD000000 		.4byte	0xad
 2832 029f 03       		.byte	0x3
 2833 02a0 00       		.byte	0
 2834 02a1 11       		.uleb128 0x11
 2835 02a2 04       		.byte	0x4
 2836 02a3 06       		.byte	0x6
 2837 02a4 F1       		.byte	0xf1
 2838 02a5 BF020000 		.4byte	0x2bf
 2839 02a9 12       		.uleb128 0x12
 2840 02aa 636800   		.ascii	"ch\000"
 2841 02ad 06       		.byte	0x6
 2842 02ae F9       		.byte	0xf9
 2843 02af 68020000 		.4byte	0x268
 2844 02b3 13       		.uleb128 0x13
 2845 02b4 0D000000 		.4byte	.LASF49
 2846 02b8 06       		.byte	0x6
 2847 02b9 FA       		.byte	0xfa
 2848 02ba CE000000 		.4byte	0xce
 2849 02be 00       		.byte	0
 2850 02bf 02       		.uleb128 0x2
 2851 02c0 71010000 		.4byte	.LASF50
 2852 02c4 06       		.byte	0x6
 2853 02c5 FB       		.byte	0xfb
 2854 02c6 A1020000 		.4byte	0x2a1
 2855 02ca 14       		.uleb128 0x14
 2856 02cb 2E030000 		.4byte	.LASF51
 2857 02cf 06       		.byte	0x6
 2858 02d0 0801     		.2byte	0x108
 2859 02d2 BF020000 		.4byte	0x2bf
 2860 02d6 14       		.uleb128 0x14
 2861 02d7 A7030000 		.4byte	.LASF52
 2862 02db 06       		.byte	0x6
 2863 02dc 0D01     		.2byte	0x10d
 2864 02de AD000000 		.4byte	0xad
 2865 02e2 03       		.uleb128 0x3
 2866 02e3 04       		.byte	0x4
 2867 02e4 07       		.byte	0x7
 2868 02e5 72030000 		.4byte	.LASF53
 2869 02e9 03       		.uleb128 0x3
 2870 02ea 01       		.byte	0x1
 2871 02eb 08       		.byte	0x8
 2872 02ec 57020000 		.4byte	.LASF54
 2873 02f0 06       		.uleb128 0x6
 2874 02f1 04       		.byte	0x4
 2875 02f2 07       		.byte	0x7
 2876 02f3 2A       		.byte	0x2a
 2877 02f4 0D030000 		.4byte	0x30d
 2878 02f8 08       		.uleb128 0x8
 2879 02f9 7800     		.ascii	"x\000"
ARM GAS  C:\Users\pearlstl\AppData\Local\Temp\ccVE6Vs6.s 			page 66


 2880 02fb 07       		.byte	0x7
 2881 02fc 2C       		.byte	0x2c
 2882 02fd D9000000 		.4byte	0xd9
 2883 0301 00       		.byte	0
 2884 0302 08       		.uleb128 0x8
 2885 0303 7900     		.ascii	"y\000"
 2886 0305 07       		.byte	0x7
 2887 0306 2D       		.byte	0x2d
 2888 0307 D9000000 		.4byte	0xd9
 2889 030b 02       		.byte	0x2
 2890 030c 00       		.byte	0
 2891 030d 02       		.uleb128 0x2
 2892 030e 50010000 		.4byte	.LASF55
 2893 0312 07       		.byte	0x7
 2894 0313 2E       		.byte	0x2e
 2895 0314 F0020000 		.4byte	0x2f0
 2896 0318 06       		.uleb128 0x6
 2897 0319 08       		.byte	0x8
 2898 031a 07       		.byte	0x7
 2899 031b 31       		.byte	0x31
 2900 031c 4D030000 		.4byte	0x34d
 2901 0320 08       		.uleb128 0x8
 2902 0321 783100   		.ascii	"x1\000"
 2903 0324 07       		.byte	0x7
 2904 0325 33       		.byte	0x33
 2905 0326 D9000000 		.4byte	0xd9
 2906 032a 00       		.byte	0
 2907 032b 08       		.uleb128 0x8
 2908 032c 793100   		.ascii	"y1\000"
 2909 032f 07       		.byte	0x7
 2910 0330 34       		.byte	0x34
 2911 0331 D9000000 		.4byte	0xd9
 2912 0335 02       		.byte	0x2
 2913 0336 08       		.uleb128 0x8
 2914 0337 783200   		.ascii	"x2\000"
 2915 033a 07       		.byte	0x7
 2916 033b 35       		.byte	0x35
 2917 033c D9000000 		.4byte	0xd9
 2918 0340 04       		.byte	0x4
 2919 0341 08       		.uleb128 0x8
 2920 0342 793200   		.ascii	"y2\000"
 2921 0345 07       		.byte	0x7
 2922 0346 36       		.byte	0x36
 2923 0347 D9000000 		.4byte	0xd9
 2924 034b 06       		.byte	0x6
 2925 034c 00       		.byte	0
 2926 034d 02       		.uleb128 0x2
 2927 034e CE040000 		.4byte	.LASF56
 2928 0352 07       		.byte	0x7
 2929 0353 37       		.byte	0x37
 2930 0354 18030000 		.4byte	0x318
 2931 0358 02       		.uleb128 0x2
 2932 0359 84050000 		.4byte	.LASF57
 2933 035d 08       		.byte	0x8
 2934 035e 2C       		.byte	0x2c
 2935 035f AD000000 		.4byte	0xad
 2936 0363 02       		.uleb128 0x2
ARM GAS  C:\Users\pearlstl\AppData\Local\Temp\ccVE6Vs6.s 			page 67


 2937 0364 A6020000 		.4byte	.LASF58
 2938 0368 08       		.byte	0x8
 2939 0369 33       		.byte	0x33
 2940 036a AD000000 		.4byte	0xad
 2941 036e 06       		.uleb128 0x6
 2942 036f 08       		.byte	0x8
 2943 0370 08       		.byte	0x8
 2944 0371 48       		.byte	0x48
 2945 0372 A7030000 		.4byte	0x3a7
 2946 0376 07       		.uleb128 0x7
 2947 0377 01020000 		.4byte	.LASF59
 2948 037b 08       		.byte	0x8
 2949 037c 4A       		.byte	0x4a
 2950 037d CA020000 		.4byte	0x2ca
 2951 0381 00       		.byte	0
 2952 0382 07       		.uleb128 0x7
 2953 0383 1D020000 		.4byte	.LASF60
 2954 0387 08       		.byte	0x8
 2955 0388 4B       		.byte	0x4b
 2956 0389 D9000000 		.4byte	0xd9
 2957 038d 04       		.byte	0x4
 2958 038e 07       		.uleb128 0x7
 2959 038f D1010000 		.4byte	.LASF61
 2960 0393 08       		.byte	0x8
 2961 0394 4C       		.byte	0x4c
 2962 0395 58030000 		.4byte	0x358
 2963 0399 06       		.byte	0x6
 2964 039a 08       		.uleb128 0x8
 2965 039b 6F706100 		.ascii	"opa\000"
 2966 039f 08       		.byte	0x8
 2967 03a0 4D       		.byte	0x4d
 2968 03a1 D6020000 		.4byte	0x2d6
 2969 03a5 07       		.byte	0x7
 2970 03a6 00       		.byte	0
 2971 03a7 06       		.uleb128 0x6
 2972 03a8 08       		.byte	0x8
 2973 03a9 08       		.byte	0x8
 2974 03aa 51       		.byte	0x51
 2975 03ab D4030000 		.4byte	0x3d4
 2976 03af 07       		.uleb128 0x7
 2977 03b0 01020000 		.4byte	.LASF59
 2978 03b4 08       		.byte	0x8
 2979 03b5 53       		.byte	0x53
 2980 03b6 CA020000 		.4byte	0x2ca
 2981 03ba 00       		.byte	0
 2982 03bb 07       		.uleb128 0x7
 2983 03bc 1D020000 		.4byte	.LASF60
 2984 03c0 08       		.byte	0x8
 2985 03c1 54       		.byte	0x54
 2986 03c2 D9000000 		.4byte	0xd9
 2987 03c6 04       		.byte	0x4
 2988 03c7 07       		.uleb128 0x7
 2989 03c8 69040000 		.4byte	.LASF62
 2990 03cc 08       		.byte	0x8
 2991 03cd 55       		.byte	0x55
 2992 03ce 63030000 		.4byte	0x363
 2993 03d2 06       		.byte	0x6
ARM GAS  C:\Users\pearlstl\AppData\Local\Temp\ccVE6Vs6.s 			page 68


 2994 03d3 00       		.byte	0
 2995 03d4 06       		.uleb128 0x6
 2996 03d5 0A       		.byte	0xa
 2997 03d6 08       		.byte	0x8
 2998 03d7 58       		.byte	0x58
 2999 03d8 19040000 		.4byte	0x419
 3000 03dc 08       		.uleb128 0x8
 3001 03dd 746F7000 		.ascii	"top\000"
 3002 03e1 08       		.byte	0x8
 3003 03e2 5A       		.byte	0x5a
 3004 03e3 D9000000 		.4byte	0xd9
 3005 03e7 00       		.byte	0
 3006 03e8 07       		.uleb128 0x7
 3007 03e9 6A020000 		.4byte	.LASF63
 3008 03ed 08       		.byte	0x8
 3009 03ee 5B       		.byte	0x5b
 3010 03ef D9000000 		.4byte	0xd9
 3011 03f3 02       		.byte	0x2
 3012 03f4 07       		.uleb128 0x7
 3013 03f5 E3030000 		.4byte	.LASF64
 3014 03f9 08       		.byte	0x8
 3015 03fa 5C       		.byte	0x5c
 3016 03fb D9000000 		.4byte	0xd9
 3017 03ff 04       		.byte	0x4
 3018 0400 07       		.uleb128 0x7
 3019 0401 B7020000 		.4byte	.LASF65
 3020 0405 08       		.byte	0x8
 3021 0406 5D       		.byte	0x5d
 3022 0407 D9000000 		.4byte	0xd9
 3023 040b 06       		.byte	0x6
 3024 040c 07       		.uleb128 0x7
 3025 040d 5B010000 		.4byte	.LASF66
 3026 0411 08       		.byte	0x8
 3027 0412 5E       		.byte	0x5e
 3028 0413 D9000000 		.4byte	0xd9
 3029 0417 08       		.byte	0x8
 3030 0418 00       		.byte	0
 3031 0419 06       		.uleb128 0x6
 3032 041a 28       		.byte	0x28
 3033 041b 08       		.byte	0x8
 3034 041c 41       		.byte	0x41
 3035 041d 76040000 		.4byte	0x476
 3036 0421 07       		.uleb128 0x7
 3037 0422 92030000 		.4byte	.LASF67
 3038 0426 08       		.byte	0x8
 3039 0427 43       		.byte	0x43
 3040 0428 CA020000 		.4byte	0x2ca
 3041 042c 00       		.byte	0
 3042 042d 07       		.uleb128 0x7
 3043 042e 67030000 		.4byte	.LASF68
 3044 0432 08       		.byte	0x8
 3045 0433 44       		.byte	0x44
 3046 0434 CA020000 		.4byte	0x2ca
 3047 0438 04       		.byte	0x4
 3048 0439 07       		.uleb128 0x7
 3049 043a 49040000 		.4byte	.LASF69
 3050 043e 08       		.byte	0x8
ARM GAS  C:\Users\pearlstl\AppData\Local\Temp\ccVE6Vs6.s 			page 69


 3051 043f 45       		.byte	0x45
 3052 0440 D9000000 		.4byte	0xd9
 3053 0444 08       		.byte	0x8
 3054 0445 08       		.uleb128 0x8
 3055 0446 6F706100 		.ascii	"opa\000"
 3056 044a 08       		.byte	0x8
 3057 044b 46       		.byte	0x46
 3058 044c D6020000 		.4byte	0x2d6
 3059 0450 0A       		.byte	0xa
 3060 0451 07       		.uleb128 0x7
 3061 0452 EF010000 		.4byte	.LASF70
 3062 0456 08       		.byte	0x8
 3063 0457 4E       		.byte	0x4e
 3064 0458 6E030000 		.4byte	0x36e
 3065 045c 0C       		.byte	0xc
 3066 045d 07       		.uleb128 0x7
 3067 045e BA040000 		.4byte	.LASF71
 3068 0462 08       		.byte	0x8
 3069 0463 56       		.byte	0x56
 3070 0464 A7030000 		.4byte	0x3a7
 3071 0468 14       		.byte	0x14
 3072 0469 07       		.uleb128 0x7
 3073 046a E0020000 		.4byte	.LASF72
 3074 046e 08       		.byte	0x8
 3075 046f 5F       		.byte	0x5f
 3076 0470 D4030000 		.4byte	0x3d4
 3077 0474 1C       		.byte	0x1c
 3078 0475 00       		.byte	0
 3079 0476 06       		.uleb128 0x6
 3080 0477 14       		.byte	0x14
 3081 0478 08       		.byte	0x8
 3082 0479 63       		.byte	0x63
 3083 047a C7040000 		.4byte	0x4c7
 3084 047e 07       		.uleb128 0x7
 3085 047f 01020000 		.4byte	.LASF59
 3086 0483 08       		.byte	0x8
 3087 0484 65       		.byte	0x65
 3088 0485 CA020000 		.4byte	0x2ca
 3089 0489 00       		.byte	0
 3090 048a 07       		.uleb128 0x7
 3091 048b 90010000 		.4byte	.LASF73
 3092 048f 08       		.byte	0x8
 3093 0490 66       		.byte	0x66
 3094 0491 CA020000 		.4byte	0x2ca
 3095 0495 04       		.byte	0x4
 3096 0496 07       		.uleb128 0x7
 3097 0497 14040000 		.4byte	.LASF74
 3098 049b 08       		.byte	0x8
 3099 049c 67       		.byte	0x67
 3100 049d C7040000 		.4byte	0x4c7
 3101 04a1 08       		.byte	0x8
 3102 04a2 07       		.uleb128 0x7
 3103 04a3 85030000 		.4byte	.LASF75
 3104 04a7 08       		.byte	0x8
 3105 04a8 68       		.byte	0x68
 3106 04a9 D9000000 		.4byte	0xd9
 3107 04ad 0C       		.byte	0xc
ARM GAS  C:\Users\pearlstl\AppData\Local\Temp\ccVE6Vs6.s 			page 70


 3108 04ae 07       		.uleb128 0x7
 3109 04af 39020000 		.4byte	.LASF76
 3110 04b3 08       		.byte	0x8
 3111 04b4 69       		.byte	0x69
 3112 04b5 D9000000 		.4byte	0xd9
 3113 04b9 0E       		.byte	0xe
 3114 04ba 08       		.uleb128 0x8
 3115 04bb 6F706100 		.ascii	"opa\000"
 3116 04bf 08       		.byte	0x8
 3117 04c0 6A       		.byte	0x6a
 3118 04c1 D6020000 		.4byte	0x2d6
 3119 04c5 10       		.byte	0x10
 3120 04c6 00       		.byte	0
 3121 04c7 0D       		.uleb128 0xd
 3122 04c8 04       		.byte	0x4
 3123 04c9 CD040000 		.4byte	0x4cd
 3124 04cd 0E       		.uleb128 0xe
 3125 04ce 02020000 		.4byte	0x202
 3126 04d2 06       		.uleb128 0x6
 3127 04d3 08       		.byte	0x8
 3128 04d4 08       		.byte	0x8
 3129 04d5 6E       		.byte	0x6e
 3130 04d6 FF040000 		.4byte	0x4ff
 3131 04da 07       		.uleb128 0x7
 3132 04db 01020000 		.4byte	.LASF59
 3133 04df 08       		.byte	0x8
 3134 04e0 70       		.byte	0x70
 3135 04e1 CA020000 		.4byte	0x2ca
 3136 04e5 00       		.byte	0
 3137 04e6 07       		.uleb128 0x7
 3138 04e7 31040000 		.4byte	.LASF77
 3139 04eb 08       		.byte	0x8
 3140 04ec 71       		.byte	0x71
 3141 04ed D6020000 		.4byte	0x2d6
 3142 04f1 04       		.byte	0x4
 3143 04f2 08       		.uleb128 0x8
 3144 04f3 6F706100 		.ascii	"opa\000"
 3145 04f7 08       		.byte	0x8
 3146 04f8 72       		.byte	0x72
 3147 04f9 D6020000 		.4byte	0x2d6
 3148 04fd 05       		.byte	0x5
 3149 04fe 00       		.byte	0
 3150 04ff 06       		.uleb128 0x6
 3151 0500 08       		.byte	0x8
 3152 0501 08       		.byte	0x8
 3153 0502 76       		.byte	0x76
 3154 0503 3B050000 		.4byte	0x53b
 3155 0507 07       		.uleb128 0x7
 3156 0508 01020000 		.4byte	.LASF59
 3157 050c 08       		.byte	0x8
 3158 050d 78       		.byte	0x78
 3159 050e CA020000 		.4byte	0x2ca
 3160 0512 00       		.byte	0
 3161 0513 07       		.uleb128 0x7
 3162 0514 1D020000 		.4byte	.LASF60
 3163 0518 08       		.byte	0x8
 3164 0519 79       		.byte	0x79
ARM GAS  C:\Users\pearlstl\AppData\Local\Temp\ccVE6Vs6.s 			page 71


 3165 051a D9000000 		.4byte	0xd9
 3166 051e 04       		.byte	0x4
 3167 051f 08       		.uleb128 0x8
 3168 0520 6F706100 		.ascii	"opa\000"
 3169 0524 08       		.byte	0x8
 3170 0525 7A       		.byte	0x7a
 3171 0526 D6020000 		.4byte	0x2d6
 3172 052a 06       		.byte	0x6
 3173 052b 0A       		.uleb128 0xa
 3174 052c 15020000 		.4byte	.LASF79
 3175 0530 08       		.byte	0x8
 3176 0531 7B       		.byte	0x7b
 3177 0532 AD000000 		.4byte	0xad
 3178 0536 01       		.byte	0x1
 3179 0537 01       		.byte	0x1
 3180 0538 07       		.byte	0x7
 3181 0539 07       		.byte	0x7
 3182 053a 00       		.byte	0
 3183 053b 06       		.uleb128 0x6
 3184 053c 50       		.byte	0x50
 3185 053d 08       		.byte	0x8
 3186 053e 3C       		.byte	0x3c
 3187 053f 83050000 		.4byte	0x583
 3188 0543 0A       		.uleb128 0xa
 3189 0544 D5020000 		.4byte	.LASF80
 3190 0548 08       		.byte	0x8
 3191 0549 3E       		.byte	0x3e
 3192 054a AD000000 		.4byte	0xad
 3193 054e 01       		.byte	0x1
 3194 054f 01       		.byte	0x1
 3195 0550 07       		.byte	0x7
 3196 0551 00       		.byte	0
 3197 0552 07       		.uleb128 0x7
 3198 0553 5A040000 		.4byte	.LASF81
 3199 0557 08       		.byte	0x8
 3200 0558 60       		.byte	0x60
 3201 0559 19040000 		.4byte	0x419
 3202 055d 04       		.byte	0x4
 3203 055e 07       		.uleb128 0x7
 3204 055f DB020000 		.4byte	.LASF82
 3205 0563 08       		.byte	0x8
 3206 0564 6B       		.byte	0x6b
 3207 0565 76040000 		.4byte	0x476
 3208 0569 2C       		.byte	0x2c
 3209 056a 07       		.uleb128 0x7
 3210 056b 13030000 		.4byte	.LASF83
 3211 056f 08       		.byte	0x8
 3212 0570 73       		.byte	0x73
 3213 0571 D2040000 		.4byte	0x4d2
 3214 0575 40       		.byte	0x40
 3215 0576 07       		.uleb128 0x7
 3216 0577 87040000 		.4byte	.LASF84
 3217 057b 08       		.byte	0x8
 3218 057c 7C       		.byte	0x7c
 3219 057d FF040000 		.4byte	0x4ff
 3220 0581 48       		.byte	0x48
 3221 0582 00       		.byte	0
ARM GAS  C:\Users\pearlstl\AppData\Local\Temp\ccVE6Vs6.s 			page 72


 3222 0583 02       		.uleb128 0x2
 3223 0584 45010000 		.4byte	.LASF85
 3224 0588 08       		.byte	0x8
 3225 0589 84       		.byte	0x84
 3226 058a 3B050000 		.4byte	0x53b
 3227 058e 0D       		.uleb128 0xd
 3228 058f 04       		.byte	0x4
 3229 0590 94050000 		.4byte	0x594
 3230 0594 0E       		.uleb128 0xe
 3231 0595 83050000 		.4byte	0x583
 3232 0599 15       		.uleb128 0x15
 3233 059a F6010000 		.4byte	.LASF114
 3234 059e 01       		.byte	0x1
 3235 059f 4C01     		.2byte	0x14c
 3236 05a1 01       		.byte	0x1
 3237 05a2 C9050000 		.4byte	0x5c9
 3238 05a6 16       		.uleb128 0x16
 3239 05a7 703100   		.ascii	"p1\000"
 3240 05aa 01       		.byte	0x1
 3241 05ab 4C01     		.2byte	0x14c
 3242 05ad C9050000 		.4byte	0x5c9
 3243 05b1 16       		.uleb128 0x16
 3244 05b2 703200   		.ascii	"p2\000"
 3245 05b5 01       		.byte	0x1
 3246 05b6 4C01     		.2byte	0x14c
 3247 05b8 C9050000 		.4byte	0x5c9
 3248 05bc 17       		.uleb128 0x17
 3249 05bd 746D7000 		.ascii	"tmp\000"
 3250 05c1 01       		.byte	0x1
 3251 05c2 4E01     		.2byte	0x14e
 3252 05c4 0D030000 		.4byte	0x30d
 3253 05c8 00       		.byte	0
 3254 05c9 0D       		.uleb128 0xd
 3255 05ca 04       		.byte	0x4
 3256 05cb 0D030000 		.4byte	0x30d
 3257 05cf 18       		.uleb128 0x18
 3258 05d0 07020000 		.4byte	.LASF99
 3259 05d4 01       		.byte	0x1
 3260 05d5 6F       		.byte	0x6f
 3261 05d6 00000000 		.4byte	.LFB33
 3262 05da 3C060000 		.4byte	.LFE33-.LFB33
 3263 05de 01       		.uleb128 0x1
 3264 05df 9C       		.byte	0x9c
 3265 05e0 F0070000 		.4byte	0x7f0
 3266 05e4 19       		.uleb128 0x19
 3267 05e5 02030000 		.4byte	.LASF86
 3268 05e9 01       		.byte	0x1
 3269 05ea 6F       		.byte	0x6f
 3270 05eb F0070000 		.4byte	0x7f0
 3271 05ef 00000000 		.4byte	.LLST0
 3272 05f3 19       		.uleb128 0x19
 3273 05f4 19030000 		.4byte	.LASF87
 3274 05f8 01       		.byte	0x1
 3275 05f9 6F       		.byte	0x6f
 3276 05fa FB070000 		.4byte	0x7fb
 3277 05fe 2C000000 		.4byte	.LLST1
 3278 0602 19       		.uleb128 0x19
ARM GAS  C:\Users\pearlstl\AppData\Local\Temp\ccVE6Vs6.s 			page 73


 3279 0603 A3040000 		.4byte	.LASF88
 3280 0607 01       		.byte	0x1
 3281 0608 6F       		.byte	0x6f
 3282 0609 8E050000 		.4byte	0x58e
 3283 060d 95000000 		.4byte	.LLST2
 3284 0611 1A       		.uleb128 0x1a
 3285 0612 6F706100 		.ascii	"opa\000"
 3286 0616 01       		.byte	0x1
 3287 0617 6F       		.byte	0x6f
 3288 0618 D6020000 		.4byte	0x2d6
 3289 061c FE000000 		.4byte	.LLST3
 3290 0620 1B       		.uleb128 0x1b
 3291 0621 74726900 		.ascii	"tri\000"
 3292 0625 01       		.byte	0x1
 3293 0626 82       		.byte	0x82
 3294 0627 06080000 		.4byte	0x806
 3295 062b 02       		.uleb128 0x2
 3296 062c 91       		.byte	0x91
 3297 062d 4C       		.sleb128 -52
 3298 062e 1C       		.uleb128 0x1c
 3299 062f 95050000 		.4byte	.LASF89
 3300 0633 01       		.byte	0x1
 3301 0634 8C       		.byte	0x8c
 3302 0635 0D030000 		.4byte	0x30d
 3303 0639 51010000 		.4byte	.LLST4
 3304 063d 1D       		.uleb128 0x1d
 3305 063e 64783100 		.ascii	"dx1\000"
 3306 0642 01       		.byte	0x1
 3307 0643 8D       		.byte	0x8d
 3308 0644 D9000000 		.4byte	0xd9
 3309 0648 09030000 		.4byte	.LLST5
 3310 064c 1D       		.uleb128 0x1d
 3311 064d 73783100 		.ascii	"sx1\000"
 3312 0651 01       		.byte	0x1
 3313 0652 8E       		.byte	0x8e
 3314 0653 D9000000 		.4byte	0xd9
 3315 0657 74030000 		.4byte	.LLST6
 3316 065b 1D       		.uleb128 0x1d
 3317 065c 64793100 		.ascii	"dy1\000"
 3318 0660 01       		.byte	0x1
 3319 0661 8F       		.byte	0x8f
 3320 0662 D9000000 		.4byte	0xd9
 3321 0666 12040000 		.4byte	.LLST7
 3322 066a 1D       		.uleb128 0x1d
 3323 066b 73793100 		.ascii	"sy1\000"
 3324 066f 01       		.byte	0x1
 3325 0670 90       		.byte	0x90
 3326 0671 D9000000 		.4byte	0xd9
 3327 0675 7D040000 		.4byte	.LLST8
 3328 0679 1C       		.uleb128 0x1c
 3329 067a 1E030000 		.4byte	.LASF90
 3330 067e 01       		.byte	0x1
 3331 067f 91       		.byte	0x91
 3332 0680 D9000000 		.4byte	0xd9
 3333 0684 1B050000 		.4byte	.LLST9
 3334 0688 1C       		.uleb128 0x1c
 3335 0689 7E010000 		.4byte	.LASF91
ARM GAS  C:\Users\pearlstl\AppData\Local\Temp\ccVE6Vs6.s 			page 74


 3336 068d 01       		.byte	0x1
 3337 068e 92       		.byte	0x92
 3338 068f D9000000 		.4byte	0xd9
 3339 0693 F3050000 		.4byte	.LLST10
 3340 0697 1C       		.uleb128 0x1c
 3341 0698 9B050000 		.4byte	.LASF92
 3342 069c 01       		.byte	0x1
 3343 069d 94       		.byte	0x94
 3344 069e 0D030000 		.4byte	0x30d
 3345 06a2 74060000 		.4byte	.LLST11
 3346 06a6 1D       		.uleb128 0x1d
 3347 06a7 64783200 		.ascii	"dx2\000"
 3348 06ab 01       		.byte	0x1
 3349 06ac 95       		.byte	0x95
 3350 06ad D9000000 		.4byte	0xd9
 3351 06b1 84070000 		.4byte	.LLST12
 3352 06b5 1E       		.uleb128 0x1e
 3353 06b6 73783200 		.ascii	"sx2\000"
 3354 06ba 01       		.byte	0x1
 3355 06bb 96       		.byte	0x96
 3356 06bc D9000000 		.4byte	0xd9
 3357 06c0 1D       		.uleb128 0x1d
 3358 06c1 64793200 		.ascii	"dy2\000"
 3359 06c5 01       		.byte	0x1
 3360 06c6 97       		.byte	0x97
 3361 06c7 D9000000 		.4byte	0xd9
 3362 06cb C9070000 		.4byte	.LLST13
 3363 06cf 1E       		.uleb128 0x1e
 3364 06d0 73793200 		.ascii	"sy2\000"
 3365 06d4 01       		.byte	0x1
 3366 06d5 98       		.byte	0x98
 3367 06d6 D9000000 		.4byte	0xd9
 3368 06da 1C       		.uleb128 0x1c
 3369 06db 23030000 		.4byte	.LASF93
 3370 06df 01       		.byte	0x1
 3371 06e0 99       		.byte	0x99
 3372 06e1 D9000000 		.4byte	0xd9
 3373 06e5 F8070000 		.4byte	.LLST14
 3374 06e9 1C       		.uleb128 0x1c
 3375 06ea 87010000 		.4byte	.LASF94
 3376 06ee 01       		.byte	0x1
 3377 06ef 9A       		.byte	0x9a
 3378 06f0 D9000000 		.4byte	0xd9
 3379 06f4 63080000 		.4byte	.LLST15
 3380 06f8 1C       		.uleb128 0x1c
 3381 06f9 07040000 		.4byte	.LASF95
 3382 06fd 01       		.byte	0x1
 3383 06fe 9C       		.byte	0x9c
 3384 06ff D9000000 		.4byte	0xd9
 3385 0703 81080000 		.4byte	.LLST16
 3386 0707 1F       		.uleb128 0x1f
 3387 0708 50020000 		.4byte	.LASF96
 3388 070c 01       		.byte	0x1
 3389 070d 9D       		.byte	0x9d
 3390 070e D9000000 		.4byte	0xd9
 3391 0712 1C       		.uleb128 0x1c
 3392 0713 9D020000 		.4byte	.LASF97
ARM GAS  C:\Users\pearlstl\AppData\Local\Temp\ccVE6Vs6.s 			page 75


 3393 0717 01       		.byte	0x1
 3394 0718 A3       		.byte	0xa3
 3395 0719 4D030000 		.4byte	0x34d
 3396 071d CB080000 		.4byte	.LLST17
 3397 0721 20       		.uleb128 0x20
 3398 0722 C3030000 		.4byte	.LASF98
 3399 0726 01       		.byte	0x1
 3400 0727 A4       		.byte	0xa4
 3401 0728 4D030000 		.4byte	0x34d
 3402 072c 02       		.uleb128 0x2
 3403 072d 91       		.byte	0x91
 3404 072e 44       		.sleb128 -60
 3405 072f 21       		.uleb128 0x21
 3406 0730 99050000 		.4byte	0x599
 3407 0734 D6000000 		.4byte	.LBB14
 3408 0738 20000000 		.4byte	.LBE14-.LBB14
 3409 073c 01       		.byte	0x1
 3410 073d 89       		.byte	0x89
 3411 073e 64070000 		.4byte	0x764
 3412 0742 22       		.uleb128 0x22
 3413 0743 B1050000 		.4byte	0x5b1
 3414 0747 BC0A0000 		.4byte	.LLST18
 3415 074b 22       		.uleb128 0x22
 3416 074c A6050000 		.4byte	0x5a6
 3417 0750 D10A0000 		.4byte	.LLST19
 3418 0754 23       		.uleb128 0x23
 3419 0755 D6000000 		.4byte	.LBB15
 3420 0759 20000000 		.4byte	.LBE15-.LBB15
 3421 075d 24       		.uleb128 0x24
 3422 075e BC050000 		.4byte	0x5bc
 3423 0762 00       		.byte	0
 3424 0763 00       		.byte	0
 3425 0764 21       		.uleb128 0x21
 3426 0765 99050000 		.4byte	0x599
 3427 0769 FA020000 		.4byte	.LBB16
 3428 076d 1E000000 		.4byte	.LBE16-.LBB16
 3429 0771 01       		.byte	0x1
 3430 0772 87       		.byte	0x87
 3431 0773 99070000 		.4byte	0x799
 3432 0777 22       		.uleb128 0x22
 3433 0778 B1050000 		.4byte	0x5b1
 3434 077c E60A0000 		.4byte	.LLST20
 3435 0780 22       		.uleb128 0x22
 3436 0781 A6050000 		.4byte	0x5a6
 3437 0785 FB0A0000 		.4byte	.LLST21
 3438 0789 23       		.uleb128 0x23
 3439 078a FA020000 		.4byte	.LBB17
 3440 078e 1E000000 		.4byte	.LBE17-.LBB17
 3441 0792 24       		.uleb128 0x24
 3442 0793 BC050000 		.4byte	0x5bc
 3443 0797 00       		.byte	0
 3444 0798 00       		.byte	0
 3445 0799 21       		.uleb128 0x21
 3446 079a 99050000 		.4byte	0x599
 3447 079e 7E030000 		.4byte	.LBB18
 3448 07a2 26000000 		.4byte	.LBE18-.LBB18
 3449 07a6 01       		.byte	0x1
ARM GAS  C:\Users\pearlstl\AppData\Local\Temp\ccVE6Vs6.s 			page 76


 3450 07a7 88       		.byte	0x88
 3451 07a8 CE070000 		.4byte	0x7ce
 3452 07ac 22       		.uleb128 0x22
 3453 07ad B1050000 		.4byte	0x5b1
 3454 07b1 100B0000 		.4byte	.LLST22
 3455 07b5 22       		.uleb128 0x22
 3456 07b6 A6050000 		.4byte	0x5a6
 3457 07ba 250B0000 		.4byte	.LLST23
 3458 07be 23       		.uleb128 0x23
 3459 07bf 7E030000 		.4byte	.LBB19
 3460 07c3 26000000 		.4byte	.LBE19-.LBB19
 3461 07c7 24       		.uleb128 0x24
 3462 07c8 BC050000 		.4byte	0x5bc
 3463 07cc 00       		.byte	0
 3464 07cd 00       		.byte	0
 3465 07ce 25       		.uleb128 0x25
 3466 07cf 2C020000 		.4byte	.LVL18
 3467 07d3 F10B0000 		.4byte	0xbf1
 3468 07d7 26       		.uleb128 0x26
 3469 07d8 01       		.uleb128 0x1
 3470 07d9 50       		.byte	0x50
 3471 07da 02       		.uleb128 0x2
 3472 07db 91       		.byte	0x91
 3473 07dc 44       		.sleb128 -60
 3474 07dd 26       		.uleb128 0x26
 3475 07de 01       		.uleb128 0x1
 3476 07df 51       		.byte	0x51
 3477 07e0 04       		.uleb128 0x4
 3478 07e1 91       		.byte	0x91
 3479 07e2 8C7F     		.sleb128 -116
 3480 07e4 06       		.byte	0x6
 3481 07e5 26       		.uleb128 0x26
 3482 07e6 01       		.uleb128 0x1
 3483 07e7 53       		.byte	0x53
 3484 07e8 05       		.uleb128 0x5
 3485 07e9 91       		.byte	0x91
 3486 07ea 947F     		.sleb128 -108
 3487 07ec 94       		.byte	0x94
 3488 07ed 01       		.byte	0x1
 3489 07ee 00       		.byte	0
 3490 07ef 00       		.byte	0
 3491 07f0 0D       		.uleb128 0xd
 3492 07f1 04       		.byte	0x4
 3493 07f2 F6070000 		.4byte	0x7f6
 3494 07f6 0E       		.uleb128 0xe
 3495 07f7 0D030000 		.4byte	0x30d
 3496 07fb 0D       		.uleb128 0xd
 3497 07fc 04       		.byte	0x4
 3498 07fd 01080000 		.4byte	0x801
 3499 0801 0E       		.uleb128 0xe
 3500 0802 4D030000 		.4byte	0x34d
 3501 0806 27       		.uleb128 0x27
 3502 0807 0D030000 		.4byte	0x30d
 3503 080b 16080000 		.4byte	0x816
 3504 080f 28       		.uleb128 0x28
 3505 0810 E2020000 		.4byte	0x2e2
 3506 0814 02       		.byte	0x2
ARM GAS  C:\Users\pearlstl\AppData\Local\Temp\ccVE6Vs6.s 			page 77


 3507 0815 00       		.byte	0
 3508 0816 18       		.uleb128 0x18
 3509 0817 5C020000 		.4byte	.LASF100
 3510 081b 01       		.byte	0x1
 3511 081c DE       		.byte	0xde
 3512 081d 00000000 		.4byte	.LFB34
 3513 0821 9E050000 		.4byte	.LFE34-.LFB34
 3514 0825 01       		.uleb128 0x1
 3515 0826 9C       		.byte	0x9c
 3516 0827 010A0000 		.4byte	0xa01
 3517 082b 19       		.uleb128 0x19
 3518 082c 02030000 		.4byte	.LASF86
 3519 0830 01       		.byte	0x1
 3520 0831 DE       		.byte	0xde
 3521 0832 F0070000 		.4byte	0x7f0
 3522 0836 3A0B0000 		.4byte	.LLST24
 3523 083a 19       		.uleb128 0x19
 3524 083b 19030000 		.4byte	.LASF87
 3525 083f 01       		.byte	0x1
 3526 0840 DE       		.byte	0xde
 3527 0841 FB070000 		.4byte	0x7fb
 3528 0845 660B0000 		.4byte	.LLST25
 3529 0849 19       		.uleb128 0x19
 3530 084a A3040000 		.4byte	.LASF88
 3531 084e 01       		.byte	0x1
 3532 084f DE       		.byte	0xde
 3533 0850 8E050000 		.4byte	0x58e
 3534 0854 860B0000 		.4byte	.LLST26
 3535 0858 1A       		.uleb128 0x1a
 3536 0859 6F706100 		.ascii	"opa\000"
 3537 085d 01       		.byte	0x1
 3538 085e DE       		.byte	0xde
 3539 085f D6020000 		.4byte	0x2d6
 3540 0863 A60B0000 		.4byte	.LLST27
 3541 0867 1B       		.uleb128 0x1b
 3542 0868 74726900 		.ascii	"tri\000"
 3543 086c 01       		.byte	0x1
 3544 086d EA       		.byte	0xea
 3545 086e 06080000 		.4byte	0x806
 3546 0872 02       		.uleb128 0x2
 3547 0873 91       		.byte	0x91
 3548 0874 4C       		.sleb128 -52
 3549 0875 1C       		.uleb128 0x1c
 3550 0876 95050000 		.4byte	.LASF89
 3551 087a 01       		.byte	0x1
 3552 087b F4       		.byte	0xf4
 3553 087c 0D030000 		.4byte	0x30d
 3554 0880 F90B0000 		.4byte	.LLST28
 3555 0884 1D       		.uleb128 0x1d
 3556 0885 64783100 		.ascii	"dx1\000"
 3557 0889 01       		.byte	0x1
 3558 088a F5       		.byte	0xf5
 3559 088b D9000000 		.4byte	0xd9
 3560 088f B20D0000 		.4byte	.LLST29
 3561 0893 1D       		.uleb128 0x1d
 3562 0894 73783100 		.ascii	"sx1\000"
 3563 0898 01       		.byte	0x1
ARM GAS  C:\Users\pearlstl\AppData\Local\Temp\ccVE6Vs6.s 			page 78


 3564 0899 F6       		.byte	0xf6
 3565 089a D9000000 		.4byte	0xd9
 3566 089e 330E0000 		.4byte	.LLST30
 3567 08a2 1D       		.uleb128 0x1d
 3568 08a3 64793100 		.ascii	"dy1\000"
 3569 08a7 01       		.byte	0x1
 3570 08a8 F7       		.byte	0xf7
 3571 08a9 D9000000 		.4byte	0xd9
 3572 08ad CA0E0000 		.4byte	.LLST31
 3573 08b1 1D       		.uleb128 0x1d
 3574 08b2 73793100 		.ascii	"sy1\000"
 3575 08b6 01       		.byte	0x1
 3576 08b7 F8       		.byte	0xf8
 3577 08b8 D9000000 		.4byte	0xd9
 3578 08bc 4B0F0000 		.4byte	.LLST32
 3579 08c0 1C       		.uleb128 0x1c
 3580 08c1 1E030000 		.4byte	.LASF90
 3581 08c5 01       		.byte	0x1
 3582 08c6 F9       		.byte	0xf9
 3583 08c7 D9000000 		.4byte	0xd9
 3584 08cb E20F0000 		.4byte	.LLST33
 3585 08cf 1C       		.uleb128 0x1c
 3586 08d0 7E010000 		.4byte	.LASF91
 3587 08d4 01       		.byte	0x1
 3588 08d5 FA       		.byte	0xfa
 3589 08d6 D9000000 		.4byte	0xd9
 3590 08da D1100000 		.4byte	.LLST34
 3591 08de 1C       		.uleb128 0x1c
 3592 08df 9B050000 		.4byte	.LASF92
 3593 08e3 01       		.byte	0x1
 3594 08e4 FC       		.byte	0xfc
 3595 08e5 0D030000 		.4byte	0x30d
 3596 08e9 26110000 		.4byte	.LLST35
 3597 08ed 1D       		.uleb128 0x1d
 3598 08ee 64783200 		.ascii	"dx2\000"
 3599 08f2 01       		.byte	0x1
 3600 08f3 FD       		.byte	0xfd
 3601 08f4 D9000000 		.4byte	0xd9
 3602 08f8 18120000 		.4byte	.LLST36
 3603 08fc 1E       		.uleb128 0x1e
 3604 08fd 73783200 		.ascii	"sx2\000"
 3605 0901 01       		.byte	0x1
 3606 0902 FE       		.byte	0xfe
 3607 0903 D9000000 		.4byte	0xd9
 3608 0907 1D       		.uleb128 0x1d
 3609 0908 64793200 		.ascii	"dy2\000"
 3610 090c 01       		.byte	0x1
 3611 090d FF       		.byte	0xff
 3612 090e D9000000 		.4byte	0xd9
 3613 0912 2D120000 		.4byte	.LLST37
 3614 0916 17       		.uleb128 0x17
 3615 0917 73793200 		.ascii	"sy2\000"
 3616 091b 01       		.byte	0x1
 3617 091c 0001     		.2byte	0x100
 3618 091e D9000000 		.4byte	0xd9
 3619 0922 29       		.uleb128 0x29
 3620 0923 23030000 		.4byte	.LASF93
ARM GAS  C:\Users\pearlstl\AppData\Local\Temp\ccVE6Vs6.s 			page 79


 3621 0927 01       		.byte	0x1
 3622 0928 0101     		.2byte	0x101
 3623 092a D9000000 		.4byte	0xd9
 3624 092e 5C120000 		.4byte	.LLST38
 3625 0932 29       		.uleb128 0x29
 3626 0933 87010000 		.4byte	.LASF94
 3627 0937 01       		.byte	0x1
 3628 0938 0201     		.2byte	0x102
 3629 093a D9000000 		.4byte	0xd9
 3630 093e FA120000 		.4byte	.LLST39
 3631 0942 29       		.uleb128 0x29
 3632 0943 9A010000 		.4byte	.LASF101
 3633 0947 01       		.byte	0x1
 3634 0948 0401     		.2byte	0x104
 3635 094a D9000000 		.4byte	0xd9
 3636 094e 18130000 		.4byte	.LLST40
 3637 0952 2A       		.uleb128 0x2a
 3638 0953 A9040000 		.4byte	.LASF102
 3639 0957 01       		.byte	0x1
 3640 0958 0501     		.2byte	0x105
 3641 095a D9000000 		.4byte	0xd9
 3642 095e 29       		.uleb128 0x29
 3643 095f 9D020000 		.4byte	.LASF97
 3644 0963 01       		.byte	0x1
 3645 0964 0B01     		.2byte	0x10b
 3646 0966 4D030000 		.4byte	0x34d
 3647 096a 83130000 		.4byte	.LLST41
 3648 096e 2B       		.uleb128 0x2b
 3649 096f C3030000 		.4byte	.LASF98
 3650 0973 01       		.byte	0x1
 3651 0974 0C01     		.2byte	0x10c
 3652 0976 4D030000 		.4byte	0x34d
 3653 097a 02       		.uleb128 0x2
 3654 097b 91       		.byte	0x91
 3655 097c 44       		.sleb128 -60
 3656 097d 2C       		.uleb128 0x2c
 3657 097e 99050000 		.4byte	0x599
 3658 0982 2A000000 		.4byte	.LBB20
 3659 0986 00000000 		.4byte	.Ldebug_ranges0+0
 3660 098a 01       		.byte	0x1
 3661 098b EF       		.byte	0xef
 3662 098c AE090000 		.4byte	0x9ae
 3663 0990 22       		.uleb128 0x22
 3664 0991 B1050000 		.4byte	0x5b1
 3665 0995 92150000 		.4byte	.LLST42
 3666 0999 22       		.uleb128 0x22
 3667 099a A6050000 		.4byte	0x5a6
 3668 099e B4150000 		.4byte	.LLST43
 3669 09a2 2D       		.uleb128 0x2d
 3670 09a3 00000000 		.4byte	.Ldebug_ranges0+0
 3671 09a7 24       		.uleb128 0x24
 3672 09a8 BC050000 		.4byte	0x5bc
 3673 09ac 00       		.byte	0
 3674 09ad 00       		.byte	0
 3675 09ae 2C       		.uleb128 0x2c
 3676 09af 99050000 		.4byte	0x599
 3677 09b3 66020000 		.4byte	.LBB24
ARM GAS  C:\Users\pearlstl\AppData\Local\Temp\ccVE6Vs6.s 			page 80


 3678 09b7 18000000 		.4byte	.Ldebug_ranges0+0x18
 3679 09bb 01       		.byte	0x1
 3680 09bc F0       		.byte	0xf0
 3681 09bd DF090000 		.4byte	0x9df
 3682 09c1 22       		.uleb128 0x22
 3683 09c2 B1050000 		.4byte	0x5b1
 3684 09c6 C9150000 		.4byte	.LLST44
 3685 09ca 22       		.uleb128 0x22
 3686 09cb A6050000 		.4byte	0x5a6
 3687 09cf EB150000 		.4byte	.LLST45
 3688 09d3 2D       		.uleb128 0x2d
 3689 09d4 18000000 		.4byte	.Ldebug_ranges0+0x18
 3690 09d8 24       		.uleb128 0x24
 3691 09d9 BC050000 		.4byte	0x5bc
 3692 09dd 00       		.byte	0
 3693 09de 00       		.byte	0
 3694 09df 25       		.uleb128 0x25
 3695 09e0 7E010000 		.4byte	.LVL124
 3696 09e4 F10B0000 		.4byte	0xbf1
 3697 09e8 26       		.uleb128 0x26
 3698 09e9 01       		.uleb128 0x1
 3699 09ea 50       		.byte	0x50
 3700 09eb 02       		.uleb128 0x2
 3701 09ec 91       		.byte	0x91
 3702 09ed 44       		.sleb128 -60
 3703 09ee 26       		.uleb128 0x26
 3704 09ef 01       		.uleb128 0x1
 3705 09f0 51       		.byte	0x51
 3706 09f1 04       		.uleb128 0x4
 3707 09f2 91       		.byte	0x91
 3708 09f3 947F     		.sleb128 -108
 3709 09f5 06       		.byte	0x6
 3710 09f6 26       		.uleb128 0x26
 3711 09f7 01       		.uleb128 0x1
 3712 09f8 53       		.byte	0x53
 3713 09f9 05       		.uleb128 0x5
 3714 09fa 91       		.byte	0x91
 3715 09fb 9C7F     		.sleb128 -100
 3716 09fd 94       		.byte	0x94
 3717 09fe 01       		.byte	0x1
 3718 09ff 00       		.byte	0
 3719 0a00 00       		.byte	0
 3720 0a01 2E       		.uleb128 0x2e
 3721 0a02 A1010000 		.4byte	.LASF115
 3722 0a06 01       		.byte	0x1
 3723 0a07 2E       		.byte	0x2e
 3724 0a08 01       		.byte	0x1
 3725 0a09 710A0000 		.4byte	0xa71
 3726 0a0d 2F       		.uleb128 0x2f
 3727 0a0e 02030000 		.4byte	.LASF86
 3728 0a12 01       		.byte	0x1
 3729 0a13 2E       		.byte	0x2e
 3730 0a14 F0070000 		.4byte	0x7f0
 3731 0a18 2F       		.uleb128 0x2f
 3732 0a19 19030000 		.4byte	.LASF87
 3733 0a1d 01       		.byte	0x1
 3734 0a1e 2E       		.byte	0x2e
ARM GAS  C:\Users\pearlstl\AppData\Local\Temp\ccVE6Vs6.s 			page 81


 3735 0a1f FB070000 		.4byte	0x7fb
 3736 0a23 2F       		.uleb128 0x2f
 3737 0a24 A3040000 		.4byte	.LASF88
 3738 0a28 01       		.byte	0x1
 3739 0a29 2E       		.byte	0x2e
 3740 0a2a 8E050000 		.4byte	0x58e
 3741 0a2e 2F       		.uleb128 0x2f
 3742 0a2f 50040000 		.4byte	.LASF103
 3743 0a33 01       		.byte	0x1
 3744 0a34 2E       		.byte	0x2e
 3745 0a35 D6020000 		.4byte	0x2d6
 3746 0a39 1E       		.uleb128 0x1e
 3747 0a3a 6F706100 		.ascii	"opa\000"
 3748 0a3e 01       		.byte	0x1
 3749 0a3f 38       		.byte	0x38
 3750 0a40 D6020000 		.4byte	0x2d6
 3751 0a44 1F       		.uleb128 0x1f
 3752 0a45 5C000000 		.4byte	.LASF104
 3753 0a49 01       		.byte	0x1
 3754 0a4a 3B       		.byte	0x3b
 3755 0a4b D9000000 		.4byte	0xd9
 3756 0a4f 1F       		.uleb128 0x1f
 3757 0a50 F2020000 		.4byte	.LASF105
 3758 0a54 01       		.byte	0x1
 3759 0a55 3C       		.byte	0x3c
 3760 0a56 D9000000 		.4byte	0xd9
 3761 0a5a 1F       		.uleb128 0x1f
 3762 0a5b CD030000 		.4byte	.LASF106
 3763 0a5f 01       		.byte	0x1
 3764 0a60 3D       		.byte	0x3d
 3765 0a61 D9000000 		.4byte	0xd9
 3766 0a65 1F       		.uleb128 0x1f
 3767 0a66 8C040000 		.4byte	.LASF107
 3768 0a6a 01       		.byte	0x1
 3769 0a6b 3E       		.byte	0x3e
 3770 0a6c D9000000 		.4byte	0xd9
 3771 0a70 00       		.byte	0
 3772 0a71 30       		.uleb128 0x30
 3773 0a72 010A0000 		.4byte	0xa01
 3774 0a76 00000000 		.4byte	.LFB31
 3775 0a7a C8000000 		.4byte	.LFE31-.LFB31
 3776 0a7e 01       		.uleb128 0x1
 3777 0a7f 9C       		.byte	0x9c
 3778 0a80 F40A0000 		.4byte	0xaf4
 3779 0a84 22       		.uleb128 0x22
 3780 0a85 0D0A0000 		.4byte	0xa0d
 3781 0a89 0D160000 		.4byte	.LLST46
 3782 0a8d 22       		.uleb128 0x22
 3783 0a8e 180A0000 		.4byte	0xa18
 3784 0a92 52160000 		.4byte	.LLST47
 3785 0a96 22       		.uleb128 0x22
 3786 0a97 230A0000 		.4byte	0xa23
 3787 0a9b 97160000 		.4byte	.LLST48
 3788 0a9f 22       		.uleb128 0x22
 3789 0aa0 2E0A0000 		.4byte	0xa2e
 3790 0aa4 DC160000 		.4byte	.LLST49
 3791 0aa8 31       		.uleb128 0x31
ARM GAS  C:\Users\pearlstl\AppData\Local\Temp\ccVE6Vs6.s 			page 82


 3792 0aa9 390A0000 		.4byte	0xa39
 3793 0aad 08170000 		.4byte	.LLST50
 3794 0ab1 31       		.uleb128 0x31
 3795 0ab2 440A0000 		.4byte	0xa44
 3796 0ab6 26170000 		.4byte	.LLST51
 3797 0aba 31       		.uleb128 0x31
 3798 0abb 4F0A0000 		.4byte	0xa4f
 3799 0abf 59170000 		.4byte	.LLST52
 3800 0ac3 31       		.uleb128 0x31
 3801 0ac4 5A0A0000 		.4byte	0xa5a
 3802 0ac8 8C170000 		.4byte	.LLST53
 3803 0acc 31       		.uleb128 0x31
 3804 0acd 650A0000 		.4byte	0xa65
 3805 0ad1 BF170000 		.4byte	.LLST54
 3806 0ad5 32       		.uleb128 0x32
 3807 0ad6 86000000 		.4byte	.LVL234
 3808 0ada CF050000 		.4byte	0x5cf
 3809 0ade EA0A0000 		.4byte	0xaea
 3810 0ae2 26       		.uleb128 0x26
 3811 0ae3 01       		.uleb128 0x1
 3812 0ae4 52       		.byte	0x52
 3813 0ae5 03       		.uleb128 0x3
 3814 0ae6 F3       		.byte	0xf3
 3815 0ae7 01       		.uleb128 0x1
 3816 0ae8 52       		.byte	0x52
 3817 0ae9 00       		.byte	0
 3818 0aea 33       		.uleb128 0x33
 3819 0aeb 8E000000 		.4byte	.LVL235
 3820 0aef 16080000 		.4byte	0x816
 3821 0af3 00       		.byte	0
 3822 0af4 18       		.uleb128 0x18
 3823 0af5 85020000 		.4byte	.LASF108
 3824 0af9 01       		.byte	0x1
 3825 0afa 58       		.byte	0x58
 3826 0afb 00000000 		.4byte	.LFB32
 3827 0aff 16010000 		.4byte	.LFE32-.LFB32
 3828 0b03 01       		.uleb128 0x1
 3829 0b04 9C       		.byte	0x9c
 3830 0b05 F10B0000 		.4byte	0xbf1
 3831 0b09 19       		.uleb128 0x19
 3832 0b0a 02030000 		.4byte	.LASF86
 3833 0b0e 01       		.byte	0x1
 3834 0b0f 58       		.byte	0x58
 3835 0b10 F0070000 		.4byte	0x7f0
 3836 0b14 F2170000 		.4byte	.LLST55
 3837 0b18 19       		.uleb128 0x19
 3838 0b19 09030000 		.4byte	.LASF109
 3839 0b1d 01       		.byte	0x1
 3840 0b1e 58       		.byte	0x58
 3841 0b1f CE000000 		.4byte	0xce
 3842 0b23 13180000 		.4byte	.LLST56
 3843 0b27 19       		.uleb128 0x19
 3844 0b28 19030000 		.4byte	.LASF87
 3845 0b2c 01       		.byte	0x1
 3846 0b2d 58       		.byte	0x58
 3847 0b2e FB070000 		.4byte	0x7fb
 3848 0b32 41180000 		.4byte	.LLST57
ARM GAS  C:\Users\pearlstl\AppData\Local\Temp\ccVE6Vs6.s 			page 83


 3849 0b36 19       		.uleb128 0x19
 3850 0b37 A3040000 		.4byte	.LASF88
 3851 0b3b 01       		.byte	0x1
 3852 0b3c 58       		.byte	0x58
 3853 0b3d 8E050000 		.4byte	0x58e
 3854 0b41 7A180000 		.4byte	.LLST58
 3855 0b45 19       		.uleb128 0x19
 3856 0b46 50040000 		.4byte	.LASF103
 3857 0b4a 01       		.byte	0x1
 3858 0b4b 59       		.byte	0x59
 3859 0b4c D6020000 		.4byte	0x2d6
 3860 0b50 DD180000 		.4byte	.LLST59
 3861 0b54 1D       		.uleb128 0x1d
 3862 0b55 6900     		.ascii	"i\000"
 3863 0b57 01       		.byte	0x1
 3864 0b58 5E       		.byte	0x5e
 3865 0b59 CE000000 		.4byte	0xce
 3866 0b5d FD180000 		.4byte	.LLST60
 3867 0b61 1B       		.uleb128 0x1b
 3868 0b62 74726900 		.ascii	"tri\000"
 3869 0b66 01       		.byte	0x1
 3870 0b67 5F       		.byte	0x5f
 3871 0b68 06080000 		.4byte	0x806
 3872 0b6c 02       		.uleb128 0x2
 3873 0b6d 91       		.byte	0x91
 3874 0b6e 4C       		.sleb128 -52
 3875 0b6f 34       		.uleb128 0x34
 3876 0b70 010A0000 		.4byte	0xa01
 3877 0b74 2C000000 		.4byte	.LBB30
 3878 0b78 30000000 		.4byte	.Ldebug_ranges0+0x30
 3879 0b7c 01       		.byte	0x1
 3880 0b7d 67       		.byte	0x67
 3881 0b7e 35       		.uleb128 0x35
 3882 0b7f 2E0A0000 		.4byte	0xa2e
 3883 0b83 35       		.uleb128 0x35
 3884 0b84 230A0000 		.4byte	0xa23
 3885 0b88 35       		.uleb128 0x35
 3886 0b89 180A0000 		.4byte	0xa18
 3887 0b8d 22       		.uleb128 0x22
 3888 0b8e 0D0A0000 		.4byte	0xa0d
 3889 0b92 4E190000 		.4byte	.LLST61
 3890 0b96 2D       		.uleb128 0x2d
 3891 0b97 30000000 		.4byte	.Ldebug_ranges0+0x30
 3892 0b9b 31       		.uleb128 0x31
 3893 0b9c 390A0000 		.4byte	0xa39
 3894 0ba0 A0190000 		.4byte	.LLST62
 3895 0ba4 31       		.uleb128 0x31
 3896 0ba5 440A0000 		.4byte	0xa44
 3897 0ba9 BE190000 		.4byte	.LLST63
 3898 0bad 31       		.uleb128 0x31
 3899 0bae 4F0A0000 		.4byte	0xa4f
 3900 0bb2 7C1A0000 		.4byte	.LLST64
 3901 0bb6 31       		.uleb128 0x31
 3902 0bb7 5A0A0000 		.4byte	0xa5a
 3903 0bbb 3A1B0000 		.4byte	.LLST65
 3904 0bbf 31       		.uleb128 0x31
 3905 0bc0 650A0000 		.4byte	0xa65
ARM GAS  C:\Users\pearlstl\AppData\Local\Temp\ccVE6Vs6.s 			page 84


 3906 0bc4 C71B0000 		.4byte	.LLST66
 3907 0bc8 36       		.uleb128 0x36
 3908 0bc9 30000000 		.4byte	.LVL241
 3909 0bcd CF050000 		.4byte	0x5cf
 3910 0bd1 25       		.uleb128 0x25
 3911 0bd2 D6000000 		.4byte	.LVL252
 3912 0bd6 16080000 		.4byte	0x816
 3913 0bda 26       		.uleb128 0x26
 3914 0bdb 01       		.uleb128 0x1
 3915 0bdc 50       		.byte	0x50
 3916 0bdd 02       		.uleb128 0x2
 3917 0bde 91       		.byte	0x91
 3918 0bdf 4C       		.sleb128 -52
 3919 0be0 26       		.uleb128 0x26
 3920 0be1 01       		.uleb128 0x1
 3921 0be2 51       		.byte	0x51
 3922 0be3 03       		.uleb128 0x3
 3923 0be4 91       		.byte	0x91
 3924 0be5 44       		.sleb128 -60
 3925 0be6 06       		.byte	0x6
 3926 0be7 26       		.uleb128 0x26
 3927 0be8 01       		.uleb128 0x1
 3928 0be9 52       		.byte	0x52
 3929 0bea 02       		.uleb128 0x2
 3930 0beb 76       		.byte	0x76
 3931 0bec 00       		.sleb128 0
 3932 0bed 00       		.byte	0
 3933 0bee 00       		.byte	0
 3934 0bef 00       		.byte	0
 3935 0bf0 00       		.byte	0
 3936 0bf1 37       		.uleb128 0x37
 3937 0bf2 C1040000 		.4byte	.LASF116
 3938 0bf6 C1040000 		.4byte	.LASF116
 3939 0bfa 09       		.byte	0x9
 3940 0bfb 2E       		.byte	0x2e
 3941 0bfc 00       		.byte	0
 3942              		.section	.debug_abbrev,"",%progbits
 3943              	.Ldebug_abbrev0:
 3944 0000 01       		.uleb128 0x1
 3945 0001 11       		.uleb128 0x11
 3946 0002 01       		.byte	0x1
 3947 0003 25       		.uleb128 0x25
 3948 0004 0E       		.uleb128 0xe
 3949 0005 13       		.uleb128 0x13
 3950 0006 0B       		.uleb128 0xb
 3951 0007 03       		.uleb128 0x3
 3952 0008 0E       		.uleb128 0xe
 3953 0009 1B       		.uleb128 0x1b
 3954 000a 0E       		.uleb128 0xe
 3955 000b 55       		.uleb128 0x55
 3956 000c 17       		.uleb128 0x17
 3957 000d 11       		.uleb128 0x11
 3958 000e 01       		.uleb128 0x1
 3959 000f 10       		.uleb128 0x10
 3960 0010 17       		.uleb128 0x17
 3961 0011 00       		.byte	0
 3962 0012 00       		.byte	0
ARM GAS  C:\Users\pearlstl\AppData\Local\Temp\ccVE6Vs6.s 			page 85


 3963 0013 02       		.uleb128 0x2
 3964 0014 16       		.uleb128 0x16
 3965 0015 00       		.byte	0
 3966 0016 03       		.uleb128 0x3
 3967 0017 0E       		.uleb128 0xe
 3968 0018 3A       		.uleb128 0x3a
 3969 0019 0B       		.uleb128 0xb
 3970 001a 3B       		.uleb128 0x3b
 3971 001b 0B       		.uleb128 0xb
 3972 001c 49       		.uleb128 0x49
 3973 001d 13       		.uleb128 0x13
 3974 001e 00       		.byte	0
 3975 001f 00       		.byte	0
 3976 0020 03       		.uleb128 0x3
 3977 0021 24       		.uleb128 0x24
 3978 0022 00       		.byte	0
 3979 0023 0B       		.uleb128 0xb
 3980 0024 0B       		.uleb128 0xb
 3981 0025 3E       		.uleb128 0x3e
 3982 0026 0B       		.uleb128 0xb
 3983 0027 03       		.uleb128 0x3
 3984 0028 0E       		.uleb128 0xe
 3985 0029 00       		.byte	0
 3986 002a 00       		.byte	0
 3987 002b 04       		.uleb128 0x4
 3988 002c 24       		.uleb128 0x24
 3989 002d 00       		.byte	0
 3990 002e 0B       		.uleb128 0xb
 3991 002f 0B       		.uleb128 0xb
 3992 0030 3E       		.uleb128 0x3e
 3993 0031 0B       		.uleb128 0xb
 3994 0032 03       		.uleb128 0x3
 3995 0033 08       		.uleb128 0x8
 3996 0034 00       		.byte	0
 3997 0035 00       		.byte	0
 3998 0036 05       		.uleb128 0x5
 3999 0037 0F       		.uleb128 0xf
 4000 0038 00       		.byte	0
 4001 0039 0B       		.uleb128 0xb
 4002 003a 0B       		.uleb128 0xb
 4003 003b 00       		.byte	0
 4004 003c 00       		.byte	0
 4005 003d 06       		.uleb128 0x6
 4006 003e 13       		.uleb128 0x13
 4007 003f 01       		.byte	0x1
 4008 0040 0B       		.uleb128 0xb
 4009 0041 0B       		.uleb128 0xb
 4010 0042 3A       		.uleb128 0x3a
 4011 0043 0B       		.uleb128 0xb
 4012 0044 3B       		.uleb128 0x3b
 4013 0045 0B       		.uleb128 0xb
 4014 0046 01       		.uleb128 0x1
 4015 0047 13       		.uleb128 0x13
 4016 0048 00       		.byte	0
 4017 0049 00       		.byte	0
 4018 004a 07       		.uleb128 0x7
 4019 004b 0D       		.uleb128 0xd
ARM GAS  C:\Users\pearlstl\AppData\Local\Temp\ccVE6Vs6.s 			page 86


 4020 004c 00       		.byte	0
 4021 004d 03       		.uleb128 0x3
 4022 004e 0E       		.uleb128 0xe
 4023 004f 3A       		.uleb128 0x3a
 4024 0050 0B       		.uleb128 0xb
 4025 0051 3B       		.uleb128 0x3b
 4026 0052 0B       		.uleb128 0xb
 4027 0053 49       		.uleb128 0x49
 4028 0054 13       		.uleb128 0x13
 4029 0055 38       		.uleb128 0x38
 4030 0056 0B       		.uleb128 0xb
 4031 0057 00       		.byte	0
 4032 0058 00       		.byte	0
 4033 0059 08       		.uleb128 0x8
 4034 005a 0D       		.uleb128 0xd
 4035 005b 00       		.byte	0
 4036 005c 03       		.uleb128 0x3
 4037 005d 08       		.uleb128 0x8
 4038 005e 3A       		.uleb128 0x3a
 4039 005f 0B       		.uleb128 0xb
 4040 0060 3B       		.uleb128 0x3b
 4041 0061 0B       		.uleb128 0xb
 4042 0062 49       		.uleb128 0x49
 4043 0063 13       		.uleb128 0x13
 4044 0064 38       		.uleb128 0x38
 4045 0065 0B       		.uleb128 0xb
 4046 0066 00       		.byte	0
 4047 0067 00       		.byte	0
 4048 0068 09       		.uleb128 0x9
 4049 0069 13       		.uleb128 0x13
 4050 006a 01       		.byte	0x1
 4051 006b 03       		.uleb128 0x3
 4052 006c 0E       		.uleb128 0xe
 4053 006d 0B       		.uleb128 0xb
 4054 006e 0B       		.uleb128 0xb
 4055 006f 3A       		.uleb128 0x3a
 4056 0070 0B       		.uleb128 0xb
 4057 0071 3B       		.uleb128 0x3b
 4058 0072 0B       		.uleb128 0xb
 4059 0073 01       		.uleb128 0x1
 4060 0074 13       		.uleb128 0x13
 4061 0075 00       		.byte	0
 4062 0076 00       		.byte	0
 4063 0077 0A       		.uleb128 0xa
 4064 0078 0D       		.uleb128 0xd
 4065 0079 00       		.byte	0
 4066 007a 03       		.uleb128 0x3
 4067 007b 0E       		.uleb128 0xe
 4068 007c 3A       		.uleb128 0x3a
 4069 007d 0B       		.uleb128 0xb
 4070 007e 3B       		.uleb128 0x3b
 4071 007f 0B       		.uleb128 0xb
 4072 0080 49       		.uleb128 0x49
 4073 0081 13       		.uleb128 0x13
 4074 0082 0B       		.uleb128 0xb
 4075 0083 0B       		.uleb128 0xb
 4076 0084 0D       		.uleb128 0xd
ARM GAS  C:\Users\pearlstl\AppData\Local\Temp\ccVE6Vs6.s 			page 87


 4077 0085 0B       		.uleb128 0xb
 4078 0086 0C       		.uleb128 0xc
 4079 0087 0B       		.uleb128 0xb
 4080 0088 38       		.uleb128 0x38
 4081 0089 0B       		.uleb128 0xb
 4082 008a 00       		.byte	0
 4083 008b 00       		.byte	0
 4084 008c 0B       		.uleb128 0xb
 4085 008d 15       		.uleb128 0x15
 4086 008e 01       		.byte	0x1
 4087 008f 27       		.uleb128 0x27
 4088 0090 19       		.uleb128 0x19
 4089 0091 49       		.uleb128 0x49
 4090 0092 13       		.uleb128 0x13
 4091 0093 01       		.uleb128 0x1
 4092 0094 13       		.uleb128 0x13
 4093 0095 00       		.byte	0
 4094 0096 00       		.byte	0
 4095 0097 0C       		.uleb128 0xc
 4096 0098 05       		.uleb128 0x5
 4097 0099 00       		.byte	0
 4098 009a 49       		.uleb128 0x49
 4099 009b 13       		.uleb128 0x13
 4100 009c 00       		.byte	0
 4101 009d 00       		.byte	0
 4102 009e 0D       		.uleb128 0xd
 4103 009f 0F       		.uleb128 0xf
 4104 00a0 00       		.byte	0
 4105 00a1 0B       		.uleb128 0xb
 4106 00a2 0B       		.uleb128 0xb
 4107 00a3 49       		.uleb128 0x49
 4108 00a4 13       		.uleb128 0x13
 4109 00a5 00       		.byte	0
 4110 00a6 00       		.byte	0
 4111 00a7 0E       		.uleb128 0xe
 4112 00a8 26       		.uleb128 0x26
 4113 00a9 00       		.byte	0
 4114 00aa 49       		.uleb128 0x49
 4115 00ab 13       		.uleb128 0x13
 4116 00ac 00       		.byte	0
 4117 00ad 00       		.byte	0
 4118 00ae 0F       		.uleb128 0xf
 4119 00af 04       		.uleb128 0x4
 4120 00b0 01       		.byte	0x1
 4121 00b1 0B       		.uleb128 0xb
 4122 00b2 0B       		.uleb128 0xb
 4123 00b3 49       		.uleb128 0x49
 4124 00b4 13       		.uleb128 0x13
 4125 00b5 3A       		.uleb128 0x3a
 4126 00b6 0B       		.uleb128 0xb
 4127 00b7 3B       		.uleb128 0x3b
 4128 00b8 0B       		.uleb128 0xb
 4129 00b9 01       		.uleb128 0x1
 4130 00ba 13       		.uleb128 0x13
 4131 00bb 00       		.byte	0
 4132 00bc 00       		.byte	0
 4133 00bd 10       		.uleb128 0x10
ARM GAS  C:\Users\pearlstl\AppData\Local\Temp\ccVE6Vs6.s 			page 88


 4134 00be 28       		.uleb128 0x28
 4135 00bf 00       		.byte	0
 4136 00c0 03       		.uleb128 0x3
 4137 00c1 0E       		.uleb128 0xe
 4138 00c2 1C       		.uleb128 0x1c
 4139 00c3 0B       		.uleb128 0xb
 4140 00c4 00       		.byte	0
 4141 00c5 00       		.byte	0
 4142 00c6 11       		.uleb128 0x11
 4143 00c7 17       		.uleb128 0x17
 4144 00c8 01       		.byte	0x1
 4145 00c9 0B       		.uleb128 0xb
 4146 00ca 0B       		.uleb128 0xb
 4147 00cb 3A       		.uleb128 0x3a
 4148 00cc 0B       		.uleb128 0xb
 4149 00cd 3B       		.uleb128 0x3b
 4150 00ce 0B       		.uleb128 0xb
 4151 00cf 01       		.uleb128 0x1
 4152 00d0 13       		.uleb128 0x13
 4153 00d1 00       		.byte	0
 4154 00d2 00       		.byte	0
 4155 00d3 12       		.uleb128 0x12
 4156 00d4 0D       		.uleb128 0xd
 4157 00d5 00       		.byte	0
 4158 00d6 03       		.uleb128 0x3
 4159 00d7 08       		.uleb128 0x8
 4160 00d8 3A       		.uleb128 0x3a
 4161 00d9 0B       		.uleb128 0xb
 4162 00da 3B       		.uleb128 0x3b
 4163 00db 0B       		.uleb128 0xb
 4164 00dc 49       		.uleb128 0x49
 4165 00dd 13       		.uleb128 0x13
 4166 00de 00       		.byte	0
 4167 00df 00       		.byte	0
 4168 00e0 13       		.uleb128 0x13
 4169 00e1 0D       		.uleb128 0xd
 4170 00e2 00       		.byte	0
 4171 00e3 03       		.uleb128 0x3
 4172 00e4 0E       		.uleb128 0xe
 4173 00e5 3A       		.uleb128 0x3a
 4174 00e6 0B       		.uleb128 0xb
 4175 00e7 3B       		.uleb128 0x3b
 4176 00e8 0B       		.uleb128 0xb
 4177 00e9 49       		.uleb128 0x49
 4178 00ea 13       		.uleb128 0x13
 4179 00eb 00       		.byte	0
 4180 00ec 00       		.byte	0
 4181 00ed 14       		.uleb128 0x14
 4182 00ee 16       		.uleb128 0x16
 4183 00ef 00       		.byte	0
 4184 00f0 03       		.uleb128 0x3
 4185 00f1 0E       		.uleb128 0xe
 4186 00f2 3A       		.uleb128 0x3a
 4187 00f3 0B       		.uleb128 0xb
 4188 00f4 3B       		.uleb128 0x3b
 4189 00f5 05       		.uleb128 0x5
 4190 00f6 49       		.uleb128 0x49
ARM GAS  C:\Users\pearlstl\AppData\Local\Temp\ccVE6Vs6.s 			page 89


 4191 00f7 13       		.uleb128 0x13
 4192 00f8 00       		.byte	0
 4193 00f9 00       		.byte	0
 4194 00fa 15       		.uleb128 0x15
 4195 00fb 2E       		.uleb128 0x2e
 4196 00fc 01       		.byte	0x1
 4197 00fd 03       		.uleb128 0x3
 4198 00fe 0E       		.uleb128 0xe
 4199 00ff 3A       		.uleb128 0x3a
 4200 0100 0B       		.uleb128 0xb
 4201 0101 3B       		.uleb128 0x3b
 4202 0102 05       		.uleb128 0x5
 4203 0103 27       		.uleb128 0x27
 4204 0104 19       		.uleb128 0x19
 4205 0105 20       		.uleb128 0x20
 4206 0106 0B       		.uleb128 0xb
 4207 0107 01       		.uleb128 0x1
 4208 0108 13       		.uleb128 0x13
 4209 0109 00       		.byte	0
 4210 010a 00       		.byte	0
 4211 010b 16       		.uleb128 0x16
 4212 010c 05       		.uleb128 0x5
 4213 010d 00       		.byte	0
 4214 010e 03       		.uleb128 0x3
 4215 010f 08       		.uleb128 0x8
 4216 0110 3A       		.uleb128 0x3a
 4217 0111 0B       		.uleb128 0xb
 4218 0112 3B       		.uleb128 0x3b
 4219 0113 05       		.uleb128 0x5
 4220 0114 49       		.uleb128 0x49
 4221 0115 13       		.uleb128 0x13
 4222 0116 00       		.byte	0
 4223 0117 00       		.byte	0
 4224 0118 17       		.uleb128 0x17
 4225 0119 34       		.uleb128 0x34
 4226 011a 00       		.byte	0
 4227 011b 03       		.uleb128 0x3
 4228 011c 08       		.uleb128 0x8
 4229 011d 3A       		.uleb128 0x3a
 4230 011e 0B       		.uleb128 0xb
 4231 011f 3B       		.uleb128 0x3b
 4232 0120 05       		.uleb128 0x5
 4233 0121 49       		.uleb128 0x49
 4234 0122 13       		.uleb128 0x13
 4235 0123 00       		.byte	0
 4236 0124 00       		.byte	0
 4237 0125 18       		.uleb128 0x18
 4238 0126 2E       		.uleb128 0x2e
 4239 0127 01       		.byte	0x1
 4240 0128 3F       		.uleb128 0x3f
 4241 0129 19       		.uleb128 0x19
 4242 012a 03       		.uleb128 0x3
 4243 012b 0E       		.uleb128 0xe
 4244 012c 3A       		.uleb128 0x3a
 4245 012d 0B       		.uleb128 0xb
 4246 012e 3B       		.uleb128 0x3b
 4247 012f 0B       		.uleb128 0xb
ARM GAS  C:\Users\pearlstl\AppData\Local\Temp\ccVE6Vs6.s 			page 90


 4248 0130 27       		.uleb128 0x27
 4249 0131 19       		.uleb128 0x19
 4250 0132 11       		.uleb128 0x11
 4251 0133 01       		.uleb128 0x1
 4252 0134 12       		.uleb128 0x12
 4253 0135 06       		.uleb128 0x6
 4254 0136 40       		.uleb128 0x40
 4255 0137 18       		.uleb128 0x18
 4256 0138 9742     		.uleb128 0x2117
 4257 013a 19       		.uleb128 0x19
 4258 013b 01       		.uleb128 0x1
 4259 013c 13       		.uleb128 0x13
 4260 013d 00       		.byte	0
 4261 013e 00       		.byte	0
 4262 013f 19       		.uleb128 0x19
 4263 0140 05       		.uleb128 0x5
 4264 0141 00       		.byte	0
 4265 0142 03       		.uleb128 0x3
 4266 0143 0E       		.uleb128 0xe
 4267 0144 3A       		.uleb128 0x3a
 4268 0145 0B       		.uleb128 0xb
 4269 0146 3B       		.uleb128 0x3b
 4270 0147 0B       		.uleb128 0xb
 4271 0148 49       		.uleb128 0x49
 4272 0149 13       		.uleb128 0x13
 4273 014a 02       		.uleb128 0x2
 4274 014b 17       		.uleb128 0x17
 4275 014c 00       		.byte	0
 4276 014d 00       		.byte	0
 4277 014e 1A       		.uleb128 0x1a
 4278 014f 05       		.uleb128 0x5
 4279 0150 00       		.byte	0
 4280 0151 03       		.uleb128 0x3
 4281 0152 08       		.uleb128 0x8
 4282 0153 3A       		.uleb128 0x3a
 4283 0154 0B       		.uleb128 0xb
 4284 0155 3B       		.uleb128 0x3b
 4285 0156 0B       		.uleb128 0xb
 4286 0157 49       		.uleb128 0x49
 4287 0158 13       		.uleb128 0x13
 4288 0159 02       		.uleb128 0x2
 4289 015a 17       		.uleb128 0x17
 4290 015b 00       		.byte	0
 4291 015c 00       		.byte	0
 4292 015d 1B       		.uleb128 0x1b
 4293 015e 34       		.uleb128 0x34
 4294 015f 00       		.byte	0
 4295 0160 03       		.uleb128 0x3
 4296 0161 08       		.uleb128 0x8
 4297 0162 3A       		.uleb128 0x3a
 4298 0163 0B       		.uleb128 0xb
 4299 0164 3B       		.uleb128 0x3b
 4300 0165 0B       		.uleb128 0xb
 4301 0166 49       		.uleb128 0x49
 4302 0167 13       		.uleb128 0x13
 4303 0168 02       		.uleb128 0x2
 4304 0169 18       		.uleb128 0x18
ARM GAS  C:\Users\pearlstl\AppData\Local\Temp\ccVE6Vs6.s 			page 91


 4305 016a 00       		.byte	0
 4306 016b 00       		.byte	0
 4307 016c 1C       		.uleb128 0x1c
 4308 016d 34       		.uleb128 0x34
 4309 016e 00       		.byte	0
 4310 016f 03       		.uleb128 0x3
 4311 0170 0E       		.uleb128 0xe
 4312 0171 3A       		.uleb128 0x3a
 4313 0172 0B       		.uleb128 0xb
 4314 0173 3B       		.uleb128 0x3b
 4315 0174 0B       		.uleb128 0xb
 4316 0175 49       		.uleb128 0x49
 4317 0176 13       		.uleb128 0x13
 4318 0177 02       		.uleb128 0x2
 4319 0178 17       		.uleb128 0x17
 4320 0179 00       		.byte	0
 4321 017a 00       		.byte	0
 4322 017b 1D       		.uleb128 0x1d
 4323 017c 34       		.uleb128 0x34
 4324 017d 00       		.byte	0
 4325 017e 03       		.uleb128 0x3
 4326 017f 08       		.uleb128 0x8
 4327 0180 3A       		.uleb128 0x3a
 4328 0181 0B       		.uleb128 0xb
 4329 0182 3B       		.uleb128 0x3b
 4330 0183 0B       		.uleb128 0xb
 4331 0184 49       		.uleb128 0x49
 4332 0185 13       		.uleb128 0x13
 4333 0186 02       		.uleb128 0x2
 4334 0187 17       		.uleb128 0x17
 4335 0188 00       		.byte	0
 4336 0189 00       		.byte	0
 4337 018a 1E       		.uleb128 0x1e
 4338 018b 34       		.uleb128 0x34
 4339 018c 00       		.byte	0
 4340 018d 03       		.uleb128 0x3
 4341 018e 08       		.uleb128 0x8
 4342 018f 3A       		.uleb128 0x3a
 4343 0190 0B       		.uleb128 0xb
 4344 0191 3B       		.uleb128 0x3b
 4345 0192 0B       		.uleb128 0xb
 4346 0193 49       		.uleb128 0x49
 4347 0194 13       		.uleb128 0x13
 4348 0195 00       		.byte	0
 4349 0196 00       		.byte	0
 4350 0197 1F       		.uleb128 0x1f
 4351 0198 34       		.uleb128 0x34
 4352 0199 00       		.byte	0
 4353 019a 03       		.uleb128 0x3
 4354 019b 0E       		.uleb128 0xe
 4355 019c 3A       		.uleb128 0x3a
 4356 019d 0B       		.uleb128 0xb
 4357 019e 3B       		.uleb128 0x3b
 4358 019f 0B       		.uleb128 0xb
 4359 01a0 49       		.uleb128 0x49
 4360 01a1 13       		.uleb128 0x13
 4361 01a2 00       		.byte	0
ARM GAS  C:\Users\pearlstl\AppData\Local\Temp\ccVE6Vs6.s 			page 92


 4362 01a3 00       		.byte	0
 4363 01a4 20       		.uleb128 0x20
 4364 01a5 34       		.uleb128 0x34
 4365 01a6 00       		.byte	0
 4366 01a7 03       		.uleb128 0x3
 4367 01a8 0E       		.uleb128 0xe
 4368 01a9 3A       		.uleb128 0x3a
 4369 01aa 0B       		.uleb128 0xb
 4370 01ab 3B       		.uleb128 0x3b
 4371 01ac 0B       		.uleb128 0xb
 4372 01ad 49       		.uleb128 0x49
 4373 01ae 13       		.uleb128 0x13
 4374 01af 02       		.uleb128 0x2
 4375 01b0 18       		.uleb128 0x18
 4376 01b1 00       		.byte	0
 4377 01b2 00       		.byte	0
 4378 01b3 21       		.uleb128 0x21
 4379 01b4 1D       		.uleb128 0x1d
 4380 01b5 01       		.byte	0x1
 4381 01b6 31       		.uleb128 0x31
 4382 01b7 13       		.uleb128 0x13
 4383 01b8 11       		.uleb128 0x11
 4384 01b9 01       		.uleb128 0x1
 4385 01ba 12       		.uleb128 0x12
 4386 01bb 06       		.uleb128 0x6
 4387 01bc 58       		.uleb128 0x58
 4388 01bd 0B       		.uleb128 0xb
 4389 01be 59       		.uleb128 0x59
 4390 01bf 0B       		.uleb128 0xb
 4391 01c0 01       		.uleb128 0x1
 4392 01c1 13       		.uleb128 0x13
 4393 01c2 00       		.byte	0
 4394 01c3 00       		.byte	0
 4395 01c4 22       		.uleb128 0x22
 4396 01c5 05       		.uleb128 0x5
 4397 01c6 00       		.byte	0
 4398 01c7 31       		.uleb128 0x31
 4399 01c8 13       		.uleb128 0x13
 4400 01c9 02       		.uleb128 0x2
 4401 01ca 17       		.uleb128 0x17
 4402 01cb 00       		.byte	0
 4403 01cc 00       		.byte	0
 4404 01cd 23       		.uleb128 0x23
 4405 01ce 0B       		.uleb128 0xb
 4406 01cf 01       		.byte	0x1
 4407 01d0 11       		.uleb128 0x11
 4408 01d1 01       		.uleb128 0x1
 4409 01d2 12       		.uleb128 0x12
 4410 01d3 06       		.uleb128 0x6
 4411 01d4 00       		.byte	0
 4412 01d5 00       		.byte	0
 4413 01d6 24       		.uleb128 0x24
 4414 01d7 34       		.uleb128 0x34
 4415 01d8 00       		.byte	0
 4416 01d9 31       		.uleb128 0x31
 4417 01da 13       		.uleb128 0x13
 4418 01db 00       		.byte	0
ARM GAS  C:\Users\pearlstl\AppData\Local\Temp\ccVE6Vs6.s 			page 93


 4419 01dc 00       		.byte	0
 4420 01dd 25       		.uleb128 0x25
 4421 01de 898201   		.uleb128 0x4109
 4422 01e1 01       		.byte	0x1
 4423 01e2 11       		.uleb128 0x11
 4424 01e3 01       		.uleb128 0x1
 4425 01e4 31       		.uleb128 0x31
 4426 01e5 13       		.uleb128 0x13
 4427 01e6 00       		.byte	0
 4428 01e7 00       		.byte	0
 4429 01e8 26       		.uleb128 0x26
 4430 01e9 8A8201   		.uleb128 0x410a
 4431 01ec 00       		.byte	0
 4432 01ed 02       		.uleb128 0x2
 4433 01ee 18       		.uleb128 0x18
 4434 01ef 9142     		.uleb128 0x2111
 4435 01f1 18       		.uleb128 0x18
 4436 01f2 00       		.byte	0
 4437 01f3 00       		.byte	0
 4438 01f4 27       		.uleb128 0x27
 4439 01f5 01       		.uleb128 0x1
 4440 01f6 01       		.byte	0x1
 4441 01f7 49       		.uleb128 0x49
 4442 01f8 13       		.uleb128 0x13
 4443 01f9 01       		.uleb128 0x1
 4444 01fa 13       		.uleb128 0x13
 4445 01fb 00       		.byte	0
 4446 01fc 00       		.byte	0
 4447 01fd 28       		.uleb128 0x28
 4448 01fe 21       		.uleb128 0x21
 4449 01ff 00       		.byte	0
 4450 0200 49       		.uleb128 0x49
 4451 0201 13       		.uleb128 0x13
 4452 0202 2F       		.uleb128 0x2f
 4453 0203 0B       		.uleb128 0xb
 4454 0204 00       		.byte	0
 4455 0205 00       		.byte	0
 4456 0206 29       		.uleb128 0x29
 4457 0207 34       		.uleb128 0x34
 4458 0208 00       		.byte	0
 4459 0209 03       		.uleb128 0x3
 4460 020a 0E       		.uleb128 0xe
 4461 020b 3A       		.uleb128 0x3a
 4462 020c 0B       		.uleb128 0xb
 4463 020d 3B       		.uleb128 0x3b
 4464 020e 05       		.uleb128 0x5
 4465 020f 49       		.uleb128 0x49
 4466 0210 13       		.uleb128 0x13
 4467 0211 02       		.uleb128 0x2
 4468 0212 17       		.uleb128 0x17
 4469 0213 00       		.byte	0
 4470 0214 00       		.byte	0
 4471 0215 2A       		.uleb128 0x2a
 4472 0216 34       		.uleb128 0x34
 4473 0217 00       		.byte	0
 4474 0218 03       		.uleb128 0x3
 4475 0219 0E       		.uleb128 0xe
ARM GAS  C:\Users\pearlstl\AppData\Local\Temp\ccVE6Vs6.s 			page 94


 4476 021a 3A       		.uleb128 0x3a
 4477 021b 0B       		.uleb128 0xb
 4478 021c 3B       		.uleb128 0x3b
 4479 021d 05       		.uleb128 0x5
 4480 021e 49       		.uleb128 0x49
 4481 021f 13       		.uleb128 0x13
 4482 0220 00       		.byte	0
 4483 0221 00       		.byte	0
 4484 0222 2B       		.uleb128 0x2b
 4485 0223 34       		.uleb128 0x34
 4486 0224 00       		.byte	0
 4487 0225 03       		.uleb128 0x3
 4488 0226 0E       		.uleb128 0xe
 4489 0227 3A       		.uleb128 0x3a
 4490 0228 0B       		.uleb128 0xb
 4491 0229 3B       		.uleb128 0x3b
 4492 022a 05       		.uleb128 0x5
 4493 022b 49       		.uleb128 0x49
 4494 022c 13       		.uleb128 0x13
 4495 022d 02       		.uleb128 0x2
 4496 022e 18       		.uleb128 0x18
 4497 022f 00       		.byte	0
 4498 0230 00       		.byte	0
 4499 0231 2C       		.uleb128 0x2c
 4500 0232 1D       		.uleb128 0x1d
 4501 0233 01       		.byte	0x1
 4502 0234 31       		.uleb128 0x31
 4503 0235 13       		.uleb128 0x13
 4504 0236 52       		.uleb128 0x52
 4505 0237 01       		.uleb128 0x1
 4506 0238 55       		.uleb128 0x55
 4507 0239 17       		.uleb128 0x17
 4508 023a 58       		.uleb128 0x58
 4509 023b 0B       		.uleb128 0xb
 4510 023c 59       		.uleb128 0x59
 4511 023d 0B       		.uleb128 0xb
 4512 023e 01       		.uleb128 0x1
 4513 023f 13       		.uleb128 0x13
 4514 0240 00       		.byte	0
 4515 0241 00       		.byte	0
 4516 0242 2D       		.uleb128 0x2d
 4517 0243 0B       		.uleb128 0xb
 4518 0244 01       		.byte	0x1
 4519 0245 55       		.uleb128 0x55
 4520 0246 17       		.uleb128 0x17
 4521 0247 00       		.byte	0
 4522 0248 00       		.byte	0
 4523 0249 2E       		.uleb128 0x2e
 4524 024a 2E       		.uleb128 0x2e
 4525 024b 01       		.byte	0x1
 4526 024c 3F       		.uleb128 0x3f
 4527 024d 19       		.uleb128 0x19
 4528 024e 03       		.uleb128 0x3
 4529 024f 0E       		.uleb128 0xe
 4530 0250 3A       		.uleb128 0x3a
 4531 0251 0B       		.uleb128 0xb
 4532 0252 3B       		.uleb128 0x3b
ARM GAS  C:\Users\pearlstl\AppData\Local\Temp\ccVE6Vs6.s 			page 95


 4533 0253 0B       		.uleb128 0xb
 4534 0254 27       		.uleb128 0x27
 4535 0255 19       		.uleb128 0x19
 4536 0256 20       		.uleb128 0x20
 4537 0257 0B       		.uleb128 0xb
 4538 0258 01       		.uleb128 0x1
 4539 0259 13       		.uleb128 0x13
 4540 025a 00       		.byte	0
 4541 025b 00       		.byte	0
 4542 025c 2F       		.uleb128 0x2f
 4543 025d 05       		.uleb128 0x5
 4544 025e 00       		.byte	0
 4545 025f 03       		.uleb128 0x3
 4546 0260 0E       		.uleb128 0xe
 4547 0261 3A       		.uleb128 0x3a
 4548 0262 0B       		.uleb128 0xb
 4549 0263 3B       		.uleb128 0x3b
 4550 0264 0B       		.uleb128 0xb
 4551 0265 49       		.uleb128 0x49
 4552 0266 13       		.uleb128 0x13
 4553 0267 00       		.byte	0
 4554 0268 00       		.byte	0
 4555 0269 30       		.uleb128 0x30
 4556 026a 2E       		.uleb128 0x2e
 4557 026b 01       		.byte	0x1
 4558 026c 31       		.uleb128 0x31
 4559 026d 13       		.uleb128 0x13
 4560 026e 11       		.uleb128 0x11
 4561 026f 01       		.uleb128 0x1
 4562 0270 12       		.uleb128 0x12
 4563 0271 06       		.uleb128 0x6
 4564 0272 40       		.uleb128 0x40
 4565 0273 18       		.uleb128 0x18
 4566 0274 9742     		.uleb128 0x2117
 4567 0276 19       		.uleb128 0x19
 4568 0277 01       		.uleb128 0x1
 4569 0278 13       		.uleb128 0x13
 4570 0279 00       		.byte	0
 4571 027a 00       		.byte	0
 4572 027b 31       		.uleb128 0x31
 4573 027c 34       		.uleb128 0x34
 4574 027d 00       		.byte	0
 4575 027e 31       		.uleb128 0x31
 4576 027f 13       		.uleb128 0x13
 4577 0280 02       		.uleb128 0x2
 4578 0281 17       		.uleb128 0x17
 4579 0282 00       		.byte	0
 4580 0283 00       		.byte	0
 4581 0284 32       		.uleb128 0x32
 4582 0285 898201   		.uleb128 0x4109
 4583 0288 01       		.byte	0x1
 4584 0289 11       		.uleb128 0x11
 4585 028a 01       		.uleb128 0x1
 4586 028b 9542     		.uleb128 0x2115
 4587 028d 19       		.uleb128 0x19
 4588 028e 31       		.uleb128 0x31
 4589 028f 13       		.uleb128 0x13
ARM GAS  C:\Users\pearlstl\AppData\Local\Temp\ccVE6Vs6.s 			page 96


 4590 0290 01       		.uleb128 0x1
 4591 0291 13       		.uleb128 0x13
 4592 0292 00       		.byte	0
 4593 0293 00       		.byte	0
 4594 0294 33       		.uleb128 0x33
 4595 0295 898201   		.uleb128 0x4109
 4596 0298 00       		.byte	0
 4597 0299 11       		.uleb128 0x11
 4598 029a 01       		.uleb128 0x1
 4599 029b 9542     		.uleb128 0x2115
 4600 029d 19       		.uleb128 0x19
 4601 029e 31       		.uleb128 0x31
 4602 029f 13       		.uleb128 0x13
 4603 02a0 00       		.byte	0
 4604 02a1 00       		.byte	0
 4605 02a2 34       		.uleb128 0x34
 4606 02a3 1D       		.uleb128 0x1d
 4607 02a4 01       		.byte	0x1
 4608 02a5 31       		.uleb128 0x31
 4609 02a6 13       		.uleb128 0x13
 4610 02a7 52       		.uleb128 0x52
 4611 02a8 01       		.uleb128 0x1
 4612 02a9 55       		.uleb128 0x55
 4613 02aa 17       		.uleb128 0x17
 4614 02ab 58       		.uleb128 0x58
 4615 02ac 0B       		.uleb128 0xb
 4616 02ad 59       		.uleb128 0x59
 4617 02ae 0B       		.uleb128 0xb
 4618 02af 00       		.byte	0
 4619 02b0 00       		.byte	0
 4620 02b1 35       		.uleb128 0x35
 4621 02b2 05       		.uleb128 0x5
 4622 02b3 00       		.byte	0
 4623 02b4 31       		.uleb128 0x31
 4624 02b5 13       		.uleb128 0x13
 4625 02b6 00       		.byte	0
 4626 02b7 00       		.byte	0
 4627 02b8 36       		.uleb128 0x36
 4628 02b9 898201   		.uleb128 0x4109
 4629 02bc 00       		.byte	0
 4630 02bd 11       		.uleb128 0x11
 4631 02be 01       		.uleb128 0x1
 4632 02bf 31       		.uleb128 0x31
 4633 02c0 13       		.uleb128 0x13
 4634 02c1 00       		.byte	0
 4635 02c2 00       		.byte	0
 4636 02c3 37       		.uleb128 0x37
 4637 02c4 2E       		.uleb128 0x2e
 4638 02c5 00       		.byte	0
 4639 02c6 3F       		.uleb128 0x3f
 4640 02c7 19       		.uleb128 0x19
 4641 02c8 3C       		.uleb128 0x3c
 4642 02c9 19       		.uleb128 0x19
 4643 02ca 6E       		.uleb128 0x6e
 4644 02cb 0E       		.uleb128 0xe
 4645 02cc 03       		.uleb128 0x3
 4646 02cd 0E       		.uleb128 0xe
ARM GAS  C:\Users\pearlstl\AppData\Local\Temp\ccVE6Vs6.s 			page 97


 4647 02ce 3A       		.uleb128 0x3a
 4648 02cf 0B       		.uleb128 0xb
 4649 02d0 3B       		.uleb128 0x3b
 4650 02d1 0B       		.uleb128 0xb
 4651 02d2 00       		.byte	0
 4652 02d3 00       		.byte	0
 4653 02d4 00       		.byte	0
 4654              		.section	.debug_loc,"",%progbits
 4655              	.Ldebug_loc0:
 4656              	.LLST0:
 4657 0000 00000000 		.4byte	.LVL0
 4658 0004 12000000 		.4byte	.LVL2
 4659 0008 0100     		.2byte	0x1
 4660 000a 50       		.byte	0x50
 4661 000b 12000000 		.4byte	.LVL2
 4662 000f 90000000 		.4byte	.LVL4
 4663 0013 0100     		.2byte	0x1
 4664 0015 54       		.byte	0x54
 4665 0016 90000000 		.4byte	.LVL4
 4666 001a 3C060000 		.4byte	.LFE33
 4667 001e 0400     		.2byte	0x4
 4668 0020 F3       		.byte	0xf3
 4669 0021 01       		.uleb128 0x1
 4670 0022 50       		.byte	0x50
 4671 0023 9F       		.byte	0x9f
 4672 0024 00000000 		.4byte	0
 4673 0028 00000000 		.4byte	0
 4674              	.LLST1:
 4675 002c 00000000 		.4byte	.LVL0
 4676 0030 0C000000 		.4byte	.LVL1
 4677 0034 0100     		.2byte	0x1
 4678 0036 51       		.byte	0x51
 4679 0037 0C000000 		.4byte	.LVL1
 4680 003b 98010000 		.4byte	.LVL16
 4681 003f 0100     		.2byte	0x1
 4682 0041 55       		.byte	0x55
 4683 0042 98010000 		.4byte	.LVL16
 4684 0046 FA020000 		.4byte	.LVL25
 4685 004a 0300     		.2byte	0x3
 4686 004c 91       		.byte	0x91
 4687 004d 8C7F     		.sleb128 -116
 4688 004f FA020000 		.4byte	.LVL25
 4689 0053 18030000 		.4byte	.LVL27
 4690 0057 0100     		.2byte	0x1
 4691 0059 55       		.byte	0x55
 4692 005a 18030000 		.4byte	.LVL27
 4693 005e 1E030000 		.4byte	.LVL28
 4694 0062 0400     		.2byte	0x4
 4695 0064 F3       		.byte	0xf3
 4696 0065 01       		.uleb128 0x1
 4697 0066 51       		.byte	0x51
 4698 0067 9F       		.byte	0x9f
 4699 0068 1E030000 		.4byte	.LVL28
 4700 006c 68030000 		.4byte	.LVL31
 4701 0070 0300     		.2byte	0x3
 4702 0072 91       		.byte	0x91
 4703 0073 8C7F     		.sleb128 -116
ARM GAS  C:\Users\pearlstl\AppData\Local\Temp\ccVE6Vs6.s 			page 98


 4704 0075 68030000 		.4byte	.LVL31
 4705 0079 B2030000 		.4byte	.LVL37
 4706 007d 0100     		.2byte	0x1
 4707 007f 55       		.byte	0x55
 4708 0080 B2030000 		.4byte	.LVL37
 4709 0084 3C060000 		.4byte	.LFE33
 4710 0088 0300     		.2byte	0x3
 4711 008a 91       		.byte	0x91
 4712 008b 8C7F     		.sleb128 -116
 4713 008d 00000000 		.4byte	0
 4714 0091 00000000 		.4byte	0
 4715              	.LLST2:
 4716 0095 00000000 		.4byte	.LVL0
 4717 0099 20000000 		.4byte	.LVL3
 4718 009d 0100     		.2byte	0x1
 4719 009f 52       		.byte	0x52
 4720 00a0 20000000 		.4byte	.LVL3
 4721 00a4 E2010000 		.4byte	.LVL17
 4722 00a8 0100     		.2byte	0x1
 4723 00aa 5E       		.byte	0x5e
 4724 00ab E2010000 		.4byte	.LVL17
 4725 00af FA020000 		.4byte	.LVL25
 4726 00b3 0300     		.2byte	0x3
 4727 00b5 91       		.byte	0x91
 4728 00b6 907F     		.sleb128 -112
 4729 00b8 FA020000 		.4byte	.LVL25
 4730 00bc 18030000 		.4byte	.LVL27
 4731 00c0 0100     		.2byte	0x1
 4732 00c2 5E       		.byte	0x5e
 4733 00c3 18030000 		.4byte	.LVL27
 4734 00c7 1E030000 		.4byte	.LVL28
 4735 00cb 0400     		.2byte	0x4
 4736 00cd F3       		.byte	0xf3
 4737 00ce 01       		.uleb128 0x1
 4738 00cf 52       		.byte	0x52
 4739 00d0 9F       		.byte	0x9f
 4740 00d1 1E030000 		.4byte	.LVL28
 4741 00d5 68030000 		.4byte	.LVL31
 4742 00d9 0300     		.2byte	0x3
 4743 00db 91       		.byte	0x91
 4744 00dc 907F     		.sleb128 -112
 4745 00de 68030000 		.4byte	.LVL31
 4746 00e2 B2030000 		.4byte	.LVL37
 4747 00e6 0100     		.2byte	0x1
 4748 00e8 5E       		.byte	0x5e
 4749 00e9 B2030000 		.4byte	.LVL37
 4750 00ed 3C060000 		.4byte	.LFE33
 4751 00f1 0300     		.2byte	0x3
 4752 00f3 91       		.byte	0x91
 4753 00f4 907F     		.sleb128 -112
 4754 00f6 00000000 		.4byte	0
 4755 00fa 00000000 		.4byte	0
 4756              	.LLST3:
 4757 00fe 00000000 		.4byte	.LVL0
 4758 0102 90010000 		.4byte	.LVL14
 4759 0106 0100     		.2byte	0x1
 4760 0108 53       		.byte	0x53
ARM GAS  C:\Users\pearlstl\AppData\Local\Temp\ccVE6Vs6.s 			page 99


 4761 0109 90010000 		.4byte	.LVL14
 4762 010d FA020000 		.4byte	.LVL25
 4763 0111 0400     		.2byte	0x4
 4764 0113 F3       		.byte	0xf3
 4765 0114 01       		.uleb128 0x1
 4766 0115 53       		.byte	0x53
 4767 0116 9F       		.byte	0x9f
 4768 0117 FA020000 		.4byte	.LVL25
 4769 011b 18030000 		.4byte	.LVL27
 4770 011f 0100     		.2byte	0x1
 4771 0121 53       		.byte	0x53
 4772 0122 18030000 		.4byte	.LVL27
 4773 0126 68030000 		.4byte	.LVL31
 4774 012a 0400     		.2byte	0x4
 4775 012c F3       		.byte	0xf3
 4776 012d 01       		.uleb128 0x1
 4777 012e 53       		.byte	0x53
 4778 012f 9F       		.byte	0x9f
 4779 0130 68030000 		.4byte	.LVL31
 4780 0134 B2030000 		.4byte	.LVL37
 4781 0138 0100     		.2byte	0x1
 4782 013a 53       		.byte	0x53
 4783 013b B2030000 		.4byte	.LVL37
 4784 013f 3C060000 		.4byte	.LFE33
 4785 0143 0400     		.2byte	0x4
 4786 0145 F3       		.byte	0xf3
 4787 0146 01       		.uleb128 0x1
 4788 0147 53       		.byte	0x53
 4789 0148 9F       		.byte	0x9f
 4790 0149 00000000 		.4byte	0
 4791 014d 00000000 		.4byte	0
 4792              	.LLST4:
 4793 0151 E2010000 		.4byte	.LVL17
 4794 0155 54020000 		.4byte	.LVL19
 4795 0159 0600     		.2byte	0x6
 4796 015b 55       		.byte	0x55
 4797 015c 93       		.byte	0x93
 4798 015d 02       		.uleb128 0x2
 4799 015e 59       		.byte	0x59
 4800 015f 93       		.byte	0x93
 4801 0160 02       		.uleb128 0x2
 4802 0161 84020000 		.4byte	.LVL20
 4803 0165 86020000 		.4byte	.LVL21
 4804 0169 0500     		.2byte	0x5
 4805 016b 93       		.byte	0x93
 4806 016c 02       		.uleb128 0x2
 4807 016d 50       		.byte	0x50
 4808 016e 93       		.byte	0x93
 4809 016f 02       		.uleb128 0x2
 4810 0170 1E030000 		.4byte	.LVL28
 4811 0174 34030000 		.4byte	.LVL29
 4812 0178 0600     		.2byte	0x6
 4813 017a 55       		.byte	0x55
 4814 017b 93       		.byte	0x93
 4815 017c 02       		.uleb128 0x2
 4816 017d 59       		.byte	0x59
 4817 017e 93       		.byte	0x93
ARM GAS  C:\Users\pearlstl\AppData\Local\Temp\ccVE6Vs6.s 			page 100


 4818 017f 02       		.uleb128 0x2
 4819 0180 64030000 		.4byte	.LVL30
 4820 0184 68030000 		.4byte	.LVL31
 4821 0188 0500     		.2byte	0x5
 4822 018a 93       		.byte	0x93
 4823 018b 02       		.uleb128 0x2
 4824 018c 50       		.byte	0x50
 4825 018d 93       		.byte	0x93
 4826 018e 02       		.uleb128 0x2
 4827 018f B2030000 		.4byte	.LVL37
 4828 0193 CE030000 		.4byte	.LVL41
 4829 0197 0600     		.2byte	0x6
 4830 0199 55       		.byte	0x55
 4831 019a 93       		.byte	0x93
 4832 019b 02       		.uleb128 0x2
 4833 019c 59       		.byte	0x59
 4834 019d 93       		.byte	0x93
 4835 019e 02       		.uleb128 0x2
 4836 019f 1A040000 		.4byte	.LVL42
 4837 01a3 30040000 		.4byte	.LVL44
 4838 01a7 0500     		.2byte	0x5
 4839 01a9 93       		.byte	0x93
 4840 01aa 02       		.uleb128 0x2
 4841 01ab 53       		.byte	0x53
 4842 01ac 93       		.byte	0x93
 4843 01ad 02       		.uleb128 0x2
 4844 01ae 30040000 		.4byte	.LVL44
 4845 01b2 4C040000 		.4byte	.LVL48
 4846 01b6 0600     		.2byte	0x6
 4847 01b8 55       		.byte	0x55
 4848 01b9 93       		.byte	0x93
 4849 01ba 02       		.uleb128 0x2
 4850 01bb 59       		.byte	0x59
 4851 01bc 93       		.byte	0x93
 4852 01bd 02       		.uleb128 0x2
 4853 01be 98040000 		.4byte	.LVL49
 4854 01c2 9C040000 		.4byte	.LVL50
 4855 01c6 0500     		.2byte	0x5
 4856 01c8 93       		.byte	0x93
 4857 01c9 02       		.uleb128 0x2
 4858 01ca 53       		.byte	0x53
 4859 01cb 93       		.byte	0x93
 4860 01cc 02       		.uleb128 0x2
 4861 01cd 9C040000 		.4byte	.LVL50
 4862 01d1 BC040000 		.4byte	.LVL51
 4863 01d5 0600     		.2byte	0x6
 4864 01d7 55       		.byte	0x55
 4865 01d8 93       		.byte	0x93
 4866 01d9 02       		.uleb128 0x2
 4867 01da 59       		.byte	0x59
 4868 01db 93       		.byte	0x93
 4869 01dc 02       		.uleb128 0x2
 4870 01dd BC040000 		.4byte	.LVL51
 4871 01e1 CC040000 		.4byte	.LVL53
 4872 01e5 0500     		.2byte	0x5
 4873 01e7 55       		.byte	0x55
 4874 01e8 93       		.byte	0x93
ARM GAS  C:\Users\pearlstl\AppData\Local\Temp\ccVE6Vs6.s 			page 101


 4875 01e9 02       		.uleb128 0x2
 4876 01ea 93       		.byte	0x93
 4877 01eb 02       		.uleb128 0x2
 4878 01ec D0040000 		.4byte	.LVL54
 4879 01f0 DC040000 		.4byte	.LVL56
 4880 01f4 0500     		.2byte	0x5
 4881 01f6 55       		.byte	0x55
 4882 01f7 93       		.byte	0x93
 4883 01f8 02       		.uleb128 0x2
 4884 01f9 93       		.byte	0x93
 4885 01fa 02       		.uleb128 0x2
 4886 01fb DC040000 		.4byte	.LVL56
 4887 01ff E0040000 		.4byte	.LVL57
 4888 0203 0600     		.2byte	0x6
 4889 0205 55       		.byte	0x55
 4890 0206 93       		.byte	0x93
 4891 0207 02       		.uleb128 0x2
 4892 0208 50       		.byte	0x50
 4893 0209 93       		.byte	0x93
 4894 020a 02       		.uleb128 0x2
 4895 020b E0040000 		.4byte	.LVL57
 4896 020f E4040000 		.4byte	.LVL58
 4897 0213 0500     		.2byte	0x5
 4898 0215 55       		.byte	0x55
 4899 0216 93       		.byte	0x93
 4900 0217 02       		.uleb128 0x2
 4901 0218 93       		.byte	0x93
 4902 0219 02       		.uleb128 0x2
 4903 021a 3A050000 		.4byte	.LVL67
 4904 021e 54050000 		.4byte	.LVL68
 4905 0222 0600     		.2byte	0x6
 4906 0224 55       		.byte	0x55
 4907 0225 93       		.byte	0x93
 4908 0226 02       		.uleb128 0x2
 4909 0227 59       		.byte	0x59
 4910 0228 93       		.byte	0x93
 4911 0229 02       		.uleb128 0x2
 4912 022a 54050000 		.4byte	.LVL68
 4913 022e 64050000 		.4byte	.LVL70
 4914 0232 0500     		.2byte	0x5
 4915 0234 55       		.byte	0x55
 4916 0235 93       		.byte	0x93
 4917 0236 02       		.uleb128 0x2
 4918 0237 93       		.byte	0x93
 4919 0238 02       		.uleb128 0x2
 4920 0239 68050000 		.4byte	.LVL71
 4921 023d 74050000 		.4byte	.LVL73
 4922 0241 0500     		.2byte	0x5
 4923 0243 55       		.byte	0x55
 4924 0244 93       		.byte	0x93
 4925 0245 02       		.uleb128 0x2
 4926 0246 93       		.byte	0x93
 4927 0247 02       		.uleb128 0x2
 4928 0248 74050000 		.4byte	.LVL73
 4929 024c 78050000 		.4byte	.LVL74
 4930 0250 0600     		.2byte	0x6
 4931 0252 55       		.byte	0x55
ARM GAS  C:\Users\pearlstl\AppData\Local\Temp\ccVE6Vs6.s 			page 102


 4932 0253 93       		.byte	0x93
 4933 0254 02       		.uleb128 0x2
 4934 0255 50       		.byte	0x50
 4935 0256 93       		.byte	0x93
 4936 0257 02       		.uleb128 0x2
 4937 0258 78050000 		.4byte	.LVL74
 4938 025c 7C050000 		.4byte	.LVL75
 4939 0260 0500     		.2byte	0x5
 4940 0262 55       		.byte	0x55
 4941 0263 93       		.byte	0x93
 4942 0264 02       		.uleb128 0x2
 4943 0265 93       		.byte	0x93
 4944 0266 02       		.uleb128 0x2
 4945 0267 7C050000 		.4byte	.LVL75
 4946 026b 8C050000 		.4byte	.LVL77
 4947 026f 0600     		.2byte	0x6
 4948 0271 55       		.byte	0x55
 4949 0272 93       		.byte	0x93
 4950 0273 02       		.uleb128 0x2
 4951 0274 59       		.byte	0x59
 4952 0275 93       		.byte	0x93
 4953 0276 02       		.uleb128 0x2
 4954 0277 8C050000 		.4byte	.LVL77
 4955 027b AA050000 		.4byte	.LVL80
 4956 027f 0500     		.2byte	0x5
 4957 0281 55       		.byte	0x55
 4958 0282 93       		.byte	0x93
 4959 0283 02       		.uleb128 0x2
 4960 0284 93       		.byte	0x93
 4961 0285 02       		.uleb128 0x2
 4962 0286 AA050000 		.4byte	.LVL80
 4963 028a BE050000 		.4byte	.LVL82
 4964 028e 0500     		.2byte	0x5
 4965 0290 55       		.byte	0x55
 4966 0291 93       		.byte	0x93
 4967 0292 02       		.uleb128 0x2
 4968 0293 93       		.byte	0x93
 4969 0294 02       		.uleb128 0x2
 4970 0295 BE050000 		.4byte	.LVL82
 4971 0299 C0050000 		.4byte	.LVL83
 4972 029d 0600     		.2byte	0x6
 4973 029f 55       		.byte	0x55
 4974 02a0 93       		.byte	0x93
 4975 02a1 02       		.uleb128 0x2
 4976 02a2 53       		.byte	0x53
 4977 02a3 93       		.byte	0x93
 4978 02a4 02       		.uleb128 0x2
 4979 02a5 C0050000 		.4byte	.LVL83
 4980 02a9 C4050000 		.4byte	.LVL85
 4981 02ad 0500     		.2byte	0x5
 4982 02af 55       		.byte	0x55
 4983 02b0 93       		.byte	0x93
 4984 02b1 02       		.uleb128 0x2
 4985 02b2 93       		.byte	0x93
 4986 02b3 02       		.uleb128 0x2
 4987 02b4 C4050000 		.4byte	.LVL85
 4988 02b8 D4050000 		.4byte	.LVL87
ARM GAS  C:\Users\pearlstl\AppData\Local\Temp\ccVE6Vs6.s 			page 103


 4989 02bc 0600     		.2byte	0x6
 4990 02be 55       		.byte	0x55
 4991 02bf 93       		.byte	0x93
 4992 02c0 02       		.uleb128 0x2
 4993 02c1 59       		.byte	0x59
 4994 02c2 93       		.byte	0x93
 4995 02c3 02       		.uleb128 0x2
 4996 02c4 D4050000 		.4byte	.LVL87
 4997 02c8 F2050000 		.4byte	.LVL90
 4998 02cc 0500     		.2byte	0x5
 4999 02ce 55       		.byte	0x55
 5000 02cf 93       		.byte	0x93
 5001 02d0 02       		.uleb128 0x2
 5002 02d1 93       		.byte	0x93
 5003 02d2 02       		.uleb128 0x2
 5004 02d3 F2050000 		.4byte	.LVL90
 5005 02d7 06060000 		.4byte	.LVL92
 5006 02db 0500     		.2byte	0x5
 5007 02dd 55       		.byte	0x55
 5008 02de 93       		.byte	0x93
 5009 02df 02       		.uleb128 0x2
 5010 02e0 93       		.byte	0x93
 5011 02e1 02       		.uleb128 0x2
 5012 02e2 06060000 		.4byte	.LVL92
 5013 02e6 14060000 		.4byte	.LVL95
 5014 02ea 0600     		.2byte	0x6
 5015 02ec 55       		.byte	0x55
 5016 02ed 93       		.byte	0x93
 5017 02ee 02       		.uleb128 0x2
 5018 02ef 53       		.byte	0x53
 5019 02f0 93       		.byte	0x93
 5020 02f1 02       		.uleb128 0x2
 5021 02f2 14060000 		.4byte	.LVL95
 5022 02f6 3C060000 		.4byte	.LFE33
 5023 02fa 0500     		.2byte	0x5
 5024 02fc 55       		.byte	0x55
 5025 02fd 93       		.byte	0x93
 5026 02fe 02       		.uleb128 0x2
 5027 02ff 93       		.byte	0x93
 5028 0300 02       		.uleb128 0x2
 5029 0301 00000000 		.4byte	0
 5030 0305 00000000 		.4byte	0
 5031              	.LLST5:
 5032 0309 16010000 		.4byte	.LVL8
 5033 030d 54020000 		.4byte	.LVL19
 5034 0311 0100     		.2byte	0x1
 5035 0313 5A       		.byte	0x5a
 5036 0314 1E030000 		.4byte	.LVL28
 5037 0318 34030000 		.4byte	.LVL29
 5038 031c 0100     		.2byte	0x1
 5039 031e 5A       		.byte	0x5a
 5040 031f 68030000 		.4byte	.LVL31
 5041 0323 74030000 		.4byte	.LVL32
 5042 0327 0100     		.2byte	0x1
 5043 0329 5A       		.byte	0x5a
 5044 032a A4030000 		.4byte	.LVL36
 5045 032e CE030000 		.4byte	.LVL41
ARM GAS  C:\Users\pearlstl\AppData\Local\Temp\ccVE6Vs6.s 			page 104


 5046 0332 0100     		.2byte	0x1
 5047 0334 5A       		.byte	0x5a
 5048 0335 30040000 		.4byte	.LVL44
 5049 0339 4C040000 		.4byte	.LVL48
 5050 033d 0100     		.2byte	0x1
 5051 033f 5A       		.byte	0x5a
 5052 0340 9C040000 		.4byte	.LVL50
 5053 0344 BC040000 		.4byte	.LVL51
 5054 0348 0100     		.2byte	0x1
 5055 034a 5A       		.byte	0x5a
 5056 034b 3A050000 		.4byte	.LVL67
 5057 034f 54050000 		.4byte	.LVL68
 5058 0353 0100     		.2byte	0x1
 5059 0355 5A       		.byte	0x5a
 5060 0356 7C050000 		.4byte	.LVL75
 5061 035a 24060000 		.4byte	.LVL99
 5062 035e 0100     		.2byte	0x1
 5063 0360 5A       		.byte	0x5a
 5064 0361 26060000 		.4byte	.LVL100
 5065 0365 3A060000 		.4byte	.LVL106
 5066 0369 0100     		.2byte	0x1
 5067 036b 5A       		.byte	0x5a
 5068 036c 00000000 		.4byte	0
 5069 0370 00000000 		.4byte	0
 5070              	.LLST6:
 5071 0374 26010000 		.4byte	.LVL9
 5072 0378 54020000 		.4byte	.LVL19
 5073 037c 0300     		.2byte	0x3
 5074 037e 91       		.byte	0x91
 5075 037f 847F     		.sleb128 -124
 5076 0381 1E030000 		.4byte	.LVL28
 5077 0385 34030000 		.4byte	.LVL29
 5078 0389 0300     		.2byte	0x3
 5079 038b 91       		.byte	0x91
 5080 038c 847F     		.sleb128 -124
 5081 038e 68030000 		.4byte	.LVL31
 5082 0392 74030000 		.4byte	.LVL32
 5083 0396 0300     		.2byte	0x3
 5084 0398 91       		.byte	0x91
 5085 0399 847F     		.sleb128 -124
 5086 039b A4030000 		.4byte	.LVL36
 5087 039f CE030000 		.4byte	.LVL41
 5088 03a3 0300     		.2byte	0x3
 5089 03a5 91       		.byte	0x91
 5090 03a6 847F     		.sleb128 -124
 5091 03a8 30040000 		.4byte	.LVL44
 5092 03ac 4C040000 		.4byte	.LVL48
 5093 03b0 0300     		.2byte	0x3
 5094 03b2 91       		.byte	0x91
 5095 03b3 847F     		.sleb128 -124
 5096 03b5 9C040000 		.4byte	.LVL50
 5097 03b9 BC040000 		.4byte	.LVL51
 5098 03bd 0300     		.2byte	0x3
 5099 03bf 91       		.byte	0x91
 5100 03c0 847F     		.sleb128 -124
 5101 03c2 3A050000 		.4byte	.LVL67
 5102 03c6 54050000 		.4byte	.LVL68
ARM GAS  C:\Users\pearlstl\AppData\Local\Temp\ccVE6Vs6.s 			page 105


 5103 03ca 0300     		.2byte	0x3
 5104 03cc 91       		.byte	0x91
 5105 03cd 847F     		.sleb128 -124
 5106 03cf 7C050000 		.4byte	.LVL75
 5107 03d3 8C050000 		.4byte	.LVL77
 5108 03d7 0300     		.2byte	0x3
 5109 03d9 91       		.byte	0x91
 5110 03da 847F     		.sleb128 -124
 5111 03dc 8C050000 		.4byte	.LVL77
 5112 03e0 C4050000 		.4byte	.LVL85
 5113 03e4 0100     		.2byte	0x1
 5114 03e6 50       		.byte	0x50
 5115 03e7 C4050000 		.4byte	.LVL85
 5116 03eb D4050000 		.4byte	.LVL87
 5117 03ef 0300     		.2byte	0x3
 5118 03f1 91       		.byte	0x91
 5119 03f2 847F     		.sleb128 -124
 5120 03f4 D4050000 		.4byte	.LVL87
 5121 03f8 20060000 		.4byte	.LVL98
 5122 03fc 0100     		.2byte	0x1
 5123 03fe 50       		.byte	0x50
 5124 03ff 26060000 		.4byte	.LVL100
 5125 0403 36060000 		.4byte	.LVL105
 5126 0407 0100     		.2byte	0x1
 5127 0409 50       		.byte	0x50
 5128 040a 00000000 		.4byte	0
 5129 040e 00000000 		.4byte	0
 5130              	.LLST7:
 5131 0412 26010000 		.4byte	.LVL9
 5132 0416 54020000 		.4byte	.LVL19
 5133 041a 0100     		.2byte	0x1
 5134 041c 58       		.byte	0x58
 5135 041d 1E030000 		.4byte	.LVL28
 5136 0421 34030000 		.4byte	.LVL29
 5137 0425 0100     		.2byte	0x1
 5138 0427 58       		.byte	0x58
 5139 0428 68030000 		.4byte	.LVL31
 5140 042c 74030000 		.4byte	.LVL32
 5141 0430 0100     		.2byte	0x1
 5142 0432 58       		.byte	0x58
 5143 0433 A4030000 		.4byte	.LVL36
 5144 0437 CE030000 		.4byte	.LVL41
 5145 043b 0100     		.2byte	0x1
 5146 043d 58       		.byte	0x58
 5147 043e 30040000 		.4byte	.LVL44
 5148 0442 4C040000 		.4byte	.LVL48
 5149 0446 0100     		.2byte	0x1
 5150 0448 58       		.byte	0x58
 5151 0449 9C040000 		.4byte	.LVL50
 5152 044d BC040000 		.4byte	.LVL51
 5153 0451 0100     		.2byte	0x1
 5154 0453 58       		.byte	0x58
 5155 0454 3A050000 		.4byte	.LVL67
 5156 0458 54050000 		.4byte	.LVL68
 5157 045c 0100     		.2byte	0x1
 5158 045e 58       		.byte	0x58
 5159 045f 7C050000 		.4byte	.LVL75
ARM GAS  C:\Users\pearlstl\AppData\Local\Temp\ccVE6Vs6.s 			page 106


 5160 0463 1E060000 		.4byte	.LVL97
 5161 0467 0100     		.2byte	0x1
 5162 0469 58       		.byte	0x58
 5163 046a 26060000 		.4byte	.LVL100
 5164 046e 34060000 		.4byte	.LVL104
 5165 0472 0100     		.2byte	0x1
 5166 0474 58       		.byte	0x58
 5167 0475 00000000 		.4byte	0
 5168 0479 00000000 		.4byte	0
 5169              	.LLST8:
 5170 047d 34010000 		.4byte	.LVL10
 5171 0481 54020000 		.4byte	.LVL19
 5172 0485 0300     		.2byte	0x3
 5173 0487 91       		.byte	0x91
 5174 0488 887F     		.sleb128 -120
 5175 048a 1E030000 		.4byte	.LVL28
 5176 048e 34030000 		.4byte	.LVL29
 5177 0492 0300     		.2byte	0x3
 5178 0494 91       		.byte	0x91
 5179 0495 887F     		.sleb128 -120
 5180 0497 68030000 		.4byte	.LVL31
 5181 049b 74030000 		.4byte	.LVL32
 5182 049f 0300     		.2byte	0x3
 5183 04a1 91       		.byte	0x91
 5184 04a2 887F     		.sleb128 -120
 5185 04a4 A4030000 		.4byte	.LVL36
 5186 04a8 CE030000 		.4byte	.LVL41
 5187 04ac 0300     		.2byte	0x3
 5188 04ae 91       		.byte	0x91
 5189 04af 887F     		.sleb128 -120
 5190 04b1 30040000 		.4byte	.LVL44
 5191 04b5 4C040000 		.4byte	.LVL48
 5192 04b9 0300     		.2byte	0x3
 5193 04bb 91       		.byte	0x91
 5194 04bc 887F     		.sleb128 -120
 5195 04be 9C040000 		.4byte	.LVL50
 5196 04c2 BC040000 		.4byte	.LVL51
 5197 04c6 0300     		.2byte	0x3
 5198 04c8 91       		.byte	0x91
 5199 04c9 887F     		.sleb128 -120
 5200 04cb 3A050000 		.4byte	.LVL67
 5201 04cf 54050000 		.4byte	.LVL68
 5202 04d3 0300     		.2byte	0x3
 5203 04d5 91       		.byte	0x91
 5204 04d6 887F     		.sleb128 -120
 5205 04d8 7C050000 		.4byte	.LVL75
 5206 04dc 8C050000 		.4byte	.LVL77
 5207 04e0 0300     		.2byte	0x3
 5208 04e2 91       		.byte	0x91
 5209 04e3 887F     		.sleb128 -120
 5210 04e5 8C050000 		.4byte	.LVL77
 5211 04e9 C4050000 		.4byte	.LVL85
 5212 04ed 0100     		.2byte	0x1
 5213 04ef 5E       		.byte	0x5e
 5214 04f0 C4050000 		.4byte	.LVL85
 5215 04f4 D4050000 		.4byte	.LVL87
 5216 04f8 0300     		.2byte	0x3
ARM GAS  C:\Users\pearlstl\AppData\Local\Temp\ccVE6Vs6.s 			page 107


 5217 04fa 91       		.byte	0x91
 5218 04fb 887F     		.sleb128 -120
 5219 04fd D4050000 		.4byte	.LVL87
 5220 0501 1A060000 		.4byte	.LVL96
 5221 0505 0100     		.2byte	0x1
 5222 0507 5E       		.byte	0x5e
 5223 0508 26060000 		.4byte	.LVL100
 5224 050c 30060000 		.4byte	.LVL103
 5225 0510 0100     		.2byte	0x1
 5226 0512 5E       		.byte	0x5e
 5227 0513 00000000 		.4byte	0
 5228 0517 00000000 		.4byte	0
 5229              	.LLST9:
 5230 051b CA040000 		.4byte	.LVL52
 5231 051f D0040000 		.4byte	.LVL54
 5232 0523 0100     		.2byte	0x1
 5233 0525 54       		.byte	0x54
 5234 0526 D6040000 		.4byte	.LVL55
 5235 052a DC040000 		.4byte	.LVL56
 5236 052e 0100     		.2byte	0x1
 5237 0530 52       		.byte	0x52
 5238 0531 DC040000 		.4byte	.LVL56
 5239 0535 E0040000 		.4byte	.LVL57
 5240 0539 0100     		.2byte	0x1
 5241 053b 54       		.byte	0x54
 5242 053c E0040000 		.4byte	.LVL57
 5243 0540 E4040000 		.4byte	.LVL58
 5244 0544 0100     		.2byte	0x1
 5245 0546 52       		.byte	0x52
 5246 0547 62050000 		.4byte	.LVL69
 5247 054b 68050000 		.4byte	.LVL71
 5248 054f 0100     		.2byte	0x1
 5249 0551 54       		.byte	0x54
 5250 0552 6E050000 		.4byte	.LVL72
 5251 0556 74050000 		.4byte	.LVL73
 5252 055a 0100     		.2byte	0x1
 5253 055c 52       		.byte	0x52
 5254 055d 74050000 		.4byte	.LVL73
 5255 0561 78050000 		.4byte	.LVL74
 5256 0565 0100     		.2byte	0x1
 5257 0567 54       		.byte	0x54
 5258 0568 78050000 		.4byte	.LVL74
 5259 056c 7C050000 		.4byte	.LVL75
 5260 0570 0100     		.2byte	0x1
 5261 0572 52       		.byte	0x52
 5262 0573 96050000 		.4byte	.LVL78
 5263 0577 A8050000 		.4byte	.LVL79
 5264 057b 0100     		.2byte	0x1
 5265 057d 52       		.byte	0x52
 5266 057e A8050000 		.4byte	.LVL79
 5267 0582 B6050000 		.4byte	.LVL81
 5268 0586 0600     		.2byte	0x6
 5269 0588 72       		.byte	0x72
 5270 0589 00       		.sleb128 0
 5271 058a 78       		.byte	0x78
 5272 058b 00       		.sleb128 0
 5273 058c 1C       		.byte	0x1c
ARM GAS  C:\Users\pearlstl\AppData\Local\Temp\ccVE6Vs6.s 			page 108


 5274 058d 9F       		.byte	0x9f
 5275 058e B6050000 		.4byte	.LVL81
 5276 0592 BE050000 		.4byte	.LVL82
 5277 0596 0100     		.2byte	0x1
 5278 0598 51       		.byte	0x51
 5279 0599 BE050000 		.4byte	.LVL82
 5280 059d C0050000 		.4byte	.LVL83
 5281 05a1 0100     		.2byte	0x1
 5282 05a3 54       		.byte	0x54
 5283 05a4 C0050000 		.4byte	.LVL83
 5284 05a8 C4050000 		.4byte	.LVL85
 5285 05ac 0100     		.2byte	0x1
 5286 05ae 51       		.byte	0x51
 5287 05af DE050000 		.4byte	.LVL88
 5288 05b3 F0050000 		.4byte	.LVL89
 5289 05b7 0100     		.2byte	0x1
 5290 05b9 52       		.byte	0x52
 5291 05ba F0050000 		.4byte	.LVL89
 5292 05be FE050000 		.4byte	.LVL91
 5293 05c2 0600     		.2byte	0x6
 5294 05c4 72       		.byte	0x72
 5295 05c5 00       		.sleb128 0
 5296 05c6 78       		.byte	0x78
 5297 05c7 00       		.sleb128 0
 5298 05c8 1C       		.byte	0x1c
 5299 05c9 9F       		.byte	0x9f
 5300 05ca FE050000 		.4byte	.LVL91
 5301 05ce 06060000 		.4byte	.LVL92
 5302 05d2 0100     		.2byte	0x1
 5303 05d4 51       		.byte	0x51
 5304 05d5 06060000 		.4byte	.LVL92
 5305 05d9 08060000 		.4byte	.LVL93
 5306 05dd 0100     		.2byte	0x1
 5307 05df 54       		.byte	0x54
 5308 05e0 26060000 		.4byte	.LVL100
 5309 05e4 2A060000 		.4byte	.LVL102
 5310 05e8 0100     		.2byte	0x1
 5311 05ea 51       		.byte	0x51
 5312 05eb 00000000 		.4byte	0
 5313 05ef 00000000 		.4byte	0
 5314              	.LLST10:
 5315 05f3 CA040000 		.4byte	.LVL52
 5316 05f7 D0040000 		.4byte	.LVL54
 5317 05fb 0100     		.2byte	0x1
 5318 05fd 54       		.byte	0x54
 5319 05fe D6040000 		.4byte	.LVL55
 5320 0602 DC040000 		.4byte	.LVL56
 5321 0606 0100     		.2byte	0x1
 5322 0608 52       		.byte	0x52
 5323 0609 DC040000 		.4byte	.LVL56
 5324 060d E0040000 		.4byte	.LVL57
 5325 0611 0100     		.2byte	0x1
 5326 0613 54       		.byte	0x54
 5327 0614 E0040000 		.4byte	.LVL57
 5328 0618 E4040000 		.4byte	.LVL58
 5329 061c 0100     		.2byte	0x1
 5330 061e 52       		.byte	0x52
ARM GAS  C:\Users\pearlstl\AppData\Local\Temp\ccVE6Vs6.s 			page 109


 5331 061f 62050000 		.4byte	.LVL69
 5332 0623 68050000 		.4byte	.LVL71
 5333 0627 0100     		.2byte	0x1
 5334 0629 54       		.byte	0x54
 5335 062a 6E050000 		.4byte	.LVL72
 5336 062e 74050000 		.4byte	.LVL73
 5337 0632 0100     		.2byte	0x1
 5338 0634 52       		.byte	0x52
 5339 0635 74050000 		.4byte	.LVL73
 5340 0639 78050000 		.4byte	.LVL74
 5341 063d 0100     		.2byte	0x1
 5342 063f 54       		.byte	0x54
 5343 0640 78050000 		.4byte	.LVL74
 5344 0644 7C050000 		.4byte	.LVL75
 5345 0648 0100     		.2byte	0x1
 5346 064a 52       		.byte	0x52
 5347 064b 96050000 		.4byte	.LVL78
 5348 064f C2050000 		.4byte	.LVL84
 5349 0653 0100     		.2byte	0x1
 5350 0655 52       		.byte	0x52
 5351 0656 DE050000 		.4byte	.LVL88
 5352 065a 14060000 		.4byte	.LVL95
 5353 065e 0100     		.2byte	0x1
 5354 0660 52       		.byte	0x52
 5355 0661 26060000 		.4byte	.LVL100
 5356 0665 28060000 		.4byte	.LVL101
 5357 0669 0100     		.2byte	0x1
 5358 066b 52       		.byte	0x52
 5359 066c 00000000 		.4byte	0
 5360 0670 00000000 		.4byte	0
 5361              	.LLST11:
 5362 0674 E2010000 		.4byte	.LVL17
 5363 0678 88020000 		.4byte	.LVL22
 5364 067c 0600     		.2byte	0x6
 5365 067e 56       		.byte	0x56
 5366 067f 93       		.byte	0x93
 5367 0680 02       		.uleb128 0x2
 5368 0681 5B       		.byte	0x5b
 5369 0682 93       		.byte	0x93
 5370 0683 02       		.uleb128 0x2
 5371 0684 E6020000 		.4byte	.LVL23
 5372 0688 F4020000 		.4byte	.LVL24
 5373 068c 0500     		.2byte	0x5
 5374 068e 93       		.byte	0x93
 5375 068f 02       		.uleb128 0x2
 5376 0690 50       		.byte	0x50
 5377 0691 93       		.byte	0x93
 5378 0692 02       		.uleb128 0x2
 5379 0693 1E030000 		.4byte	.LVL28
 5380 0697 68030000 		.4byte	.LVL31
 5381 069b 0600     		.2byte	0x6
 5382 069d 56       		.byte	0x56
 5383 069e 93       		.byte	0x93
 5384 069f 02       		.uleb128 0x2
 5385 06a0 5B       		.byte	0x5b
 5386 06a1 93       		.byte	0x93
 5387 06a2 02       		.uleb128 0x2
ARM GAS  C:\Users\pearlstl\AppData\Local\Temp\ccVE6Vs6.s 			page 110


 5388 06a3 B2030000 		.4byte	.LVL37
 5389 06a7 C8030000 		.4byte	.LVL39
 5390 06ab 0600     		.2byte	0x6
 5391 06ad 56       		.byte	0x56
 5392 06ae 93       		.byte	0x93
 5393 06af 02       		.uleb128 0x2
 5394 06b0 5B       		.byte	0x5b
 5395 06b1 93       		.byte	0x93
 5396 06b2 02       		.uleb128 0x2
 5397 06b3 C8030000 		.4byte	.LVL39
 5398 06b7 CC030000 		.4byte	.LVL40
 5399 06bb 0500     		.2byte	0x5
 5400 06bd 56       		.byte	0x56
 5401 06be 93       		.byte	0x93
 5402 06bf 02       		.uleb128 0x2
 5403 06c0 93       		.byte	0x93
 5404 06c1 02       		.uleb128 0x2
 5405 06c2 30040000 		.4byte	.LVL44
 5406 06c6 46040000 		.4byte	.LVL46
 5407 06ca 0600     		.2byte	0x6
 5408 06cc 56       		.byte	0x56
 5409 06cd 93       		.byte	0x93
 5410 06ce 02       		.uleb128 0x2
 5411 06cf 5B       		.byte	0x5b
 5412 06d0 93       		.byte	0x93
 5413 06d1 02       		.uleb128 0x2
 5414 06d2 46040000 		.4byte	.LVL46
 5415 06d6 4A040000 		.4byte	.LVL47
 5416 06da 0500     		.2byte	0x5
 5417 06dc 56       		.byte	0x56
 5418 06dd 93       		.byte	0x93
 5419 06de 02       		.uleb128 0x2
 5420 06df 93       		.byte	0x93
 5421 06e0 02       		.uleb128 0x2
 5422 06e1 9C040000 		.4byte	.LVL50
 5423 06e5 E4040000 		.4byte	.LVL58
 5424 06e9 0600     		.2byte	0x6
 5425 06eb 56       		.byte	0x56
 5426 06ec 93       		.byte	0x93
 5427 06ed 02       		.uleb128 0x2
 5428 06ee 5B       		.byte	0x5b
 5429 06ef 93       		.byte	0x93
 5430 06f0 02       		.uleb128 0x2
 5431 06f1 02050000 		.4byte	.LVL59
 5432 06f5 18050000 		.4byte	.LVL61
 5433 06f9 0500     		.2byte	0x5
 5434 06fb 56       		.byte	0x56
 5435 06fc 93       		.byte	0x93
 5436 06fd 02       		.uleb128 0x2
 5437 06fe 93       		.byte	0x93
 5438 06ff 02       		.uleb128 0x2
 5439 0700 18050000 		.4byte	.LVL61
 5440 0704 26050000 		.4byte	.LVL63
 5441 0708 0500     		.2byte	0x5
 5442 070a 56       		.byte	0x56
 5443 070b 93       		.byte	0x93
 5444 070c 02       		.uleb128 0x2
ARM GAS  C:\Users\pearlstl\AppData\Local\Temp\ccVE6Vs6.s 			page 111


 5445 070d 93       		.byte	0x93
 5446 070e 02       		.uleb128 0x2
 5447 070f 26050000 		.4byte	.LVL63
 5448 0713 28050000 		.4byte	.LVL64
 5449 0717 0600     		.2byte	0x6
 5450 0719 56       		.byte	0x56
 5451 071a 93       		.byte	0x93
 5452 071b 02       		.uleb128 0x2
 5453 071c 52       		.byte	0x52
 5454 071d 93       		.byte	0x93
 5455 071e 02       		.uleb128 0x2
 5456 071f 28050000 		.4byte	.LVL64
 5457 0723 2C050000 		.4byte	.LVL66
 5458 0727 0500     		.2byte	0x5
 5459 0729 56       		.byte	0x56
 5460 072a 93       		.byte	0x93
 5461 072b 02       		.uleb128 0x2
 5462 072c 93       		.byte	0x93
 5463 072d 02       		.uleb128 0x2
 5464 072e 2C050000 		.4byte	.LVL66
 5465 0732 3A050000 		.4byte	.LVL67
 5466 0736 0600     		.2byte	0x6
 5467 0738 56       		.byte	0x56
 5468 0739 93       		.byte	0x93
 5469 073a 02       		.uleb128 0x2
 5470 073b 52       		.byte	0x52
 5471 073c 93       		.byte	0x93
 5472 073d 02       		.uleb128 0x2
 5473 073e 3A050000 		.4byte	.LVL67
 5474 0742 8A050000 		.4byte	.LVL76
 5475 0746 0600     		.2byte	0x6
 5476 0748 56       		.byte	0x56
 5477 0749 93       		.byte	0x93
 5478 074a 02       		.uleb128 0x2
 5479 074b 5B       		.byte	0x5b
 5480 074c 93       		.byte	0x93
 5481 074d 02       		.uleb128 0x2
 5482 074e 8A050000 		.4byte	.LVL76
 5483 0752 C4050000 		.4byte	.LVL85
 5484 0756 0500     		.2byte	0x5
 5485 0758 93       		.byte	0x93
 5486 0759 02       		.uleb128 0x2
 5487 075a 5B       		.byte	0x5b
 5488 075b 93       		.byte	0x93
 5489 075c 02       		.uleb128 0x2
 5490 075d C4050000 		.4byte	.LVL85
 5491 0761 D2050000 		.4byte	.LVL86
 5492 0765 0600     		.2byte	0x6
 5493 0767 56       		.byte	0x56
 5494 0768 93       		.byte	0x93
 5495 0769 02       		.uleb128 0x2
 5496 076a 5B       		.byte	0x5b
 5497 076b 93       		.byte	0x93
 5498 076c 02       		.uleb128 0x2
 5499 076d D2050000 		.4byte	.LVL86
 5500 0771 3C060000 		.4byte	.LFE33
 5501 0775 0500     		.2byte	0x5
ARM GAS  C:\Users\pearlstl\AppData\Local\Temp\ccVE6Vs6.s 			page 112


 5502 0777 93       		.byte	0x93
 5503 0778 02       		.uleb128 0x2
 5504 0779 5B       		.byte	0x5b
 5505 077a 93       		.byte	0x93
 5506 077b 02       		.uleb128 0x2
 5507 077c 00000000 		.4byte	0
 5508 0780 00000000 		.4byte	0
 5509              	.LLST12:
 5510 0784 7C010000 		.4byte	.LVL12
 5511 0788 94010000 		.4byte	.LVL15
 5512 078c 0100     		.2byte	0x1
 5513 078e 54       		.byte	0x54
 5514 078f 94010000 		.4byte	.LVL15
 5515 0793 FA020000 		.4byte	.LVL25
 5516 0797 0300     		.2byte	0x3
 5517 0799 91       		.byte	0x91
 5518 079a A87F     		.sleb128 -88
 5519 079c 1E030000 		.4byte	.LVL28
 5520 07a0 68030000 		.4byte	.LVL31
 5521 07a4 0300     		.2byte	0x3
 5522 07a6 91       		.byte	0x91
 5523 07a7 A87F     		.sleb128 -88
 5524 07a9 68030000 		.4byte	.LVL31
 5525 07ad 74030000 		.4byte	.LVL32
 5526 07b1 0100     		.2byte	0x1
 5527 07b3 54       		.byte	0x54
 5528 07b4 B2030000 		.4byte	.LVL37
 5529 07b8 3C060000 		.4byte	.LFE33
 5530 07bc 0300     		.2byte	0x3
 5531 07be 91       		.byte	0x91
 5532 07bf A87F     		.sleb128 -88
 5533 07c1 00000000 		.4byte	0
 5534 07c5 00000000 		.4byte	0
 5535              	.LLST13:
 5536 07c9 7E010000 		.4byte	.LVL13
 5537 07cd FA020000 		.4byte	.LVL25
 5538 07d1 0300     		.2byte	0x3
 5539 07d3 91       		.byte	0x91
 5540 07d4 F87E     		.sleb128 -136
 5541 07d6 1E030000 		.4byte	.LVL28
 5542 07da 74030000 		.4byte	.LVL32
 5543 07de 0300     		.2byte	0x3
 5544 07e0 91       		.byte	0x91
 5545 07e1 F87E     		.sleb128 -136
 5546 07e3 B2030000 		.4byte	.LVL37
 5547 07e7 3C060000 		.4byte	.LFE33
 5548 07eb 0300     		.2byte	0x3
 5549 07ed 91       		.byte	0x91
 5550 07ee F87E     		.sleb128 -136
 5551 07f0 00000000 		.4byte	0
 5552 07f4 00000000 		.4byte	0
 5553              	.LLST14:
 5554 07f8 E2010000 		.4byte	.LVL17
 5555 07fc 88020000 		.4byte	.LVL22
 5556 0800 0100     		.2byte	0x1
 5557 0802 57       		.byte	0x57
 5558 0803 E6020000 		.4byte	.LVL23
ARM GAS  C:\Users\pearlstl\AppData\Local\Temp\ccVE6Vs6.s 			page 113


 5559 0807 FA020000 		.4byte	.LVL25
 5560 080b 0100     		.2byte	0x1
 5561 080d 53       		.byte	0x53
 5562 080e 1E030000 		.4byte	.LVL28
 5563 0812 68030000 		.4byte	.LVL31
 5564 0816 0100     		.2byte	0x1
 5565 0818 57       		.byte	0x57
 5566 0819 B2030000 		.4byte	.LVL37
 5567 081d C0030000 		.4byte	.LVL38
 5568 0821 0100     		.2byte	0x1
 5569 0823 57       		.byte	0x57
 5570 0824 30040000 		.4byte	.LVL44
 5571 0828 3E040000 		.4byte	.LVL45
 5572 082c 0100     		.2byte	0x1
 5573 082e 57       		.byte	0x57
 5574 082f 9C040000 		.4byte	.LVL50
 5575 0833 E4040000 		.4byte	.LVL58
 5576 0837 0100     		.2byte	0x1
 5577 0839 57       		.byte	0x57
 5578 083a 02050000 		.4byte	.LVL59
 5579 083e 16050000 		.4byte	.LVL60
 5580 0842 0100     		.2byte	0x1
 5581 0844 57       		.byte	0x57
 5582 0845 16050000 		.4byte	.LVL60
 5583 0849 3A050000 		.4byte	.LVL67
 5584 084d 0100     		.2byte	0x1
 5585 084f 53       		.byte	0x53
 5586 0850 3A050000 		.4byte	.LVL67
 5587 0854 3C060000 		.4byte	.LFE33
 5588 0858 0100     		.2byte	0x1
 5589 085a 57       		.byte	0x57
 5590 085b 00000000 		.4byte	0
 5591 085f 00000000 		.4byte	0
 5592              	.LLST15:
 5593 0863 02050000 		.4byte	.LVL59
 5594 0867 2A050000 		.4byte	.LVL65
 5595 086b 0100     		.2byte	0x1
 5596 086d 57       		.byte	0x57
 5597 086e 2C050000 		.4byte	.LVL66
 5598 0872 3A050000 		.4byte	.LVL67
 5599 0876 0100     		.2byte	0x1
 5600 0878 57       		.byte	0x57
 5601 0879 00000000 		.4byte	0
 5602 087d 00000000 		.4byte	0
 5603              	.LLST16:
 5604 0881 2C020000 		.4byte	.LVL18
 5605 0885 88020000 		.4byte	.LVL22
 5606 0889 0100     		.2byte	0x1
 5607 088b 59       		.byte	0x59
 5608 088c 1E030000 		.4byte	.LVL28
 5609 0890 68030000 		.4byte	.LVL31
 5610 0894 0100     		.2byte	0x1
 5611 0896 59       		.byte	0x59
 5612 0897 B2030000 		.4byte	.LVL37
 5613 089b 2E040000 		.4byte	.LVL43
 5614 089f 0100     		.2byte	0x1
 5615 08a1 59       		.byte	0x59
ARM GAS  C:\Users\pearlstl\AppData\Local\Temp\ccVE6Vs6.s 			page 114


 5616 08a2 30040000 		.4byte	.LVL44
 5617 08a6 E4040000 		.4byte	.LVL58
 5618 08aa 0100     		.2byte	0x1
 5619 08ac 59       		.byte	0x59
 5620 08ad 3A050000 		.4byte	.LVL67
 5621 08b1 12060000 		.4byte	.LVL94
 5622 08b5 0100     		.2byte	0x1
 5623 08b7 59       		.byte	0x59
 5624 08b8 14060000 		.4byte	.LVL95
 5625 08bc 3C060000 		.4byte	.LFE33
 5626 08c0 0100     		.2byte	0x1
 5627 08c2 59       		.byte	0x59
 5628 08c3 00000000 		.4byte	0
 5629 08c7 00000000 		.4byte	0
 5630              	.LLST17:
 5631 08cb E2010000 		.4byte	.LVL17
 5632 08cf 54020000 		.4byte	.LVL19
 5633 08d3 0C00     		.2byte	0xc
 5634 08d5 55       		.byte	0x55
 5635 08d6 93       		.byte	0x93
 5636 08d7 02       		.uleb128 0x2
 5637 08d8 59       		.byte	0x59
 5638 08d9 93       		.byte	0x93
 5639 08da 02       		.uleb128 0x2
 5640 08db 56       		.byte	0x56
 5641 08dc 93       		.byte	0x93
 5642 08dd 02       		.uleb128 0x2
 5643 08de 5B       		.byte	0x5b
 5644 08df 93       		.byte	0x93
 5645 08e0 02       		.uleb128 0x2
 5646 08e1 54020000 		.4byte	.LVL19
 5647 08e5 88020000 		.4byte	.LVL22
 5648 08e9 0B00     		.2byte	0xb
 5649 08eb 93       		.byte	0x93
 5650 08ec 02       		.uleb128 0x2
 5651 08ed 59       		.byte	0x59
 5652 08ee 93       		.byte	0x93
 5653 08ef 02       		.uleb128 0x2
 5654 08f0 56       		.byte	0x56
 5655 08f1 93       		.byte	0x93
 5656 08f2 02       		.uleb128 0x2
 5657 08f3 5B       		.byte	0x5b
 5658 08f4 93       		.byte	0x93
 5659 08f5 02       		.uleb128 0x2
 5660 08f6 1E030000 		.4byte	.LVL28
 5661 08fa 34030000 		.4byte	.LVL29
 5662 08fe 0C00     		.2byte	0xc
 5663 0900 55       		.byte	0x55
 5664 0901 93       		.byte	0x93
 5665 0902 02       		.uleb128 0x2
 5666 0903 59       		.byte	0x59
 5667 0904 93       		.byte	0x93
 5668 0905 02       		.uleb128 0x2
 5669 0906 56       		.byte	0x56
 5670 0907 93       		.byte	0x93
 5671 0908 02       		.uleb128 0x2
 5672 0909 5B       		.byte	0x5b
ARM GAS  C:\Users\pearlstl\AppData\Local\Temp\ccVE6Vs6.s 			page 115


 5673 090a 93       		.byte	0x93
 5674 090b 02       		.uleb128 0x2
 5675 090c 34030000 		.4byte	.LVL29
 5676 0910 68030000 		.4byte	.LVL31
 5677 0914 0B00     		.2byte	0xb
 5678 0916 93       		.byte	0x93
 5679 0917 02       		.uleb128 0x2
 5680 0918 59       		.byte	0x59
 5681 0919 93       		.byte	0x93
 5682 091a 02       		.uleb128 0x2
 5683 091b 56       		.byte	0x56
 5684 091c 93       		.byte	0x93
 5685 091d 02       		.uleb128 0x2
 5686 091e 5B       		.byte	0x5b
 5687 091f 93       		.byte	0x93
 5688 0920 02       		.uleb128 0x2
 5689 0921 B2030000 		.4byte	.LVL37
 5690 0925 C8030000 		.4byte	.LVL39
 5691 0929 0C00     		.2byte	0xc
 5692 092b 55       		.byte	0x55
 5693 092c 93       		.byte	0x93
 5694 092d 02       		.uleb128 0x2
 5695 092e 59       		.byte	0x59
 5696 092f 93       		.byte	0x93
 5697 0930 02       		.uleb128 0x2
 5698 0931 56       		.byte	0x56
 5699 0932 93       		.byte	0x93
 5700 0933 02       		.uleb128 0x2
 5701 0934 5B       		.byte	0x5b
 5702 0935 93       		.byte	0x93
 5703 0936 02       		.uleb128 0x2
 5704 0937 C8030000 		.4byte	.LVL39
 5705 093b CC030000 		.4byte	.LVL40
 5706 093f 0B00     		.2byte	0xb
 5707 0941 55       		.byte	0x55
 5708 0942 93       		.byte	0x93
 5709 0943 02       		.uleb128 0x2
 5710 0944 59       		.byte	0x59
 5711 0945 93       		.byte	0x93
 5712 0946 02       		.uleb128 0x2
 5713 0947 56       		.byte	0x56
 5714 0948 93       		.byte	0x93
 5715 0949 02       		.uleb128 0x2
 5716 094a 93       		.byte	0x93
 5717 094b 02       		.uleb128 0x2
 5718 094c CC030000 		.4byte	.LVL40
 5719 0950 CE030000 		.4byte	.LVL41
 5720 0954 0800     		.2byte	0x8
 5721 0956 55       		.byte	0x55
 5722 0957 93       		.byte	0x93
 5723 0958 02       		.uleb128 0x2
 5724 0959 59       		.byte	0x59
 5725 095a 93       		.byte	0x93
 5726 095b 02       		.uleb128 0x2
 5727 095c 93       		.byte	0x93
 5728 095d 04       		.uleb128 0x4
 5729 095e CE030000 		.4byte	.LVL41
ARM GAS  C:\Users\pearlstl\AppData\Local\Temp\ccVE6Vs6.s 			page 116


 5730 0962 2E040000 		.4byte	.LVL43
 5731 0966 0700     		.2byte	0x7
 5732 0968 93       		.byte	0x93
 5733 0969 02       		.uleb128 0x2
 5734 096a 59       		.byte	0x59
 5735 096b 93       		.byte	0x93
 5736 096c 02       		.uleb128 0x2
 5737 096d 93       		.byte	0x93
 5738 096e 04       		.uleb128 0x4
 5739 096f 30040000 		.4byte	.LVL44
 5740 0973 46040000 		.4byte	.LVL46
 5741 0977 0C00     		.2byte	0xc
 5742 0979 55       		.byte	0x55
 5743 097a 93       		.byte	0x93
 5744 097b 02       		.uleb128 0x2
 5745 097c 59       		.byte	0x59
 5746 097d 93       		.byte	0x93
 5747 097e 02       		.uleb128 0x2
 5748 097f 56       		.byte	0x56
 5749 0980 93       		.byte	0x93
 5750 0981 02       		.uleb128 0x2
 5751 0982 5B       		.byte	0x5b
 5752 0983 93       		.byte	0x93
 5753 0984 02       		.uleb128 0x2
 5754 0985 46040000 		.4byte	.LVL46
 5755 0989 4A040000 		.4byte	.LVL47
 5756 098d 0B00     		.2byte	0xb
 5757 098f 55       		.byte	0x55
 5758 0990 93       		.byte	0x93
 5759 0991 02       		.uleb128 0x2
 5760 0992 59       		.byte	0x59
 5761 0993 93       		.byte	0x93
 5762 0994 02       		.uleb128 0x2
 5763 0995 56       		.byte	0x56
 5764 0996 93       		.byte	0x93
 5765 0997 02       		.uleb128 0x2
 5766 0998 93       		.byte	0x93
 5767 0999 02       		.uleb128 0x2
 5768 099a 4A040000 		.4byte	.LVL47
 5769 099e 4C040000 		.4byte	.LVL48
 5770 09a2 0800     		.2byte	0x8
 5771 09a4 55       		.byte	0x55
 5772 09a5 93       		.byte	0x93
 5773 09a6 02       		.uleb128 0x2
 5774 09a7 59       		.byte	0x59
 5775 09a8 93       		.byte	0x93
 5776 09a9 02       		.uleb128 0x2
 5777 09aa 93       		.byte	0x93
 5778 09ab 04       		.uleb128 0x4
 5779 09ac 4C040000 		.4byte	.LVL48
 5780 09b0 9C040000 		.4byte	.LVL50
 5781 09b4 0700     		.2byte	0x7
 5782 09b6 93       		.byte	0x93
 5783 09b7 02       		.uleb128 0x2
 5784 09b8 59       		.byte	0x59
 5785 09b9 93       		.byte	0x93
 5786 09ba 02       		.uleb128 0x2
ARM GAS  C:\Users\pearlstl\AppData\Local\Temp\ccVE6Vs6.s 			page 117


 5787 09bb 93       		.byte	0x93
 5788 09bc 04       		.uleb128 0x4
 5789 09bd 9C040000 		.4byte	.LVL50
 5790 09c1 BC040000 		.4byte	.LVL51
 5791 09c5 0C00     		.2byte	0xc
 5792 09c7 55       		.byte	0x55
 5793 09c8 93       		.byte	0x93
 5794 09c9 02       		.uleb128 0x2
 5795 09ca 59       		.byte	0x59
 5796 09cb 93       		.byte	0x93
 5797 09cc 02       		.uleb128 0x2
 5798 09cd 56       		.byte	0x56
 5799 09ce 93       		.byte	0x93
 5800 09cf 02       		.uleb128 0x2
 5801 09d0 5B       		.byte	0x5b
 5802 09d1 93       		.byte	0x93
 5803 09d2 02       		.uleb128 0x2
 5804 09d3 BC040000 		.4byte	.LVL51
 5805 09d7 E4040000 		.4byte	.LVL58
 5806 09db 0B00     		.2byte	0xb
 5807 09dd 93       		.byte	0x93
 5808 09de 02       		.uleb128 0x2
 5809 09df 59       		.byte	0x59
 5810 09e0 93       		.byte	0x93
 5811 09e1 02       		.uleb128 0x2
 5812 09e2 56       		.byte	0x56
 5813 09e3 93       		.byte	0x93
 5814 09e4 02       		.uleb128 0x2
 5815 09e5 5B       		.byte	0x5b
 5816 09e6 93       		.byte	0x93
 5817 09e7 02       		.uleb128 0x2
 5818 09e8 3A050000 		.4byte	.LVL67
 5819 09ec 54050000 		.4byte	.LVL68
 5820 09f0 0C00     		.2byte	0xc
 5821 09f2 55       		.byte	0x55
 5822 09f3 93       		.byte	0x93
 5823 09f4 02       		.uleb128 0x2
 5824 09f5 59       		.byte	0x59
 5825 09f6 93       		.byte	0x93
 5826 09f7 02       		.uleb128 0x2
 5827 09f8 56       		.byte	0x56
 5828 09f9 93       		.byte	0x93
 5829 09fa 02       		.uleb128 0x2
 5830 09fb 5B       		.byte	0x5b
 5831 09fc 93       		.byte	0x93
 5832 09fd 02       		.uleb128 0x2
 5833 09fe 54050000 		.4byte	.LVL68
 5834 0a02 7C050000 		.4byte	.LVL75
 5835 0a06 0B00     		.2byte	0xb
 5836 0a08 93       		.byte	0x93
 5837 0a09 02       		.uleb128 0x2
 5838 0a0a 59       		.byte	0x59
 5839 0a0b 93       		.byte	0x93
 5840 0a0c 02       		.uleb128 0x2
 5841 0a0d 56       		.byte	0x56
 5842 0a0e 93       		.byte	0x93
 5843 0a0f 02       		.uleb128 0x2
ARM GAS  C:\Users\pearlstl\AppData\Local\Temp\ccVE6Vs6.s 			page 118


 5844 0a10 5B       		.byte	0x5b
 5845 0a11 93       		.byte	0x93
 5846 0a12 02       		.uleb128 0x2
 5847 0a13 7C050000 		.4byte	.LVL75
 5848 0a17 8A050000 		.4byte	.LVL76
 5849 0a1b 0C00     		.2byte	0xc
 5850 0a1d 55       		.byte	0x55
 5851 0a1e 93       		.byte	0x93
 5852 0a1f 02       		.uleb128 0x2
 5853 0a20 59       		.byte	0x59
 5854 0a21 93       		.byte	0x93
 5855 0a22 02       		.uleb128 0x2
 5856 0a23 56       		.byte	0x56
 5857 0a24 93       		.byte	0x93
 5858 0a25 02       		.uleb128 0x2
 5859 0a26 5B       		.byte	0x5b
 5860 0a27 93       		.byte	0x93
 5861 0a28 02       		.uleb128 0x2
 5862 0a29 8A050000 		.4byte	.LVL76
 5863 0a2d 8C050000 		.4byte	.LVL77
 5864 0a31 0B00     		.2byte	0xb
 5865 0a33 55       		.byte	0x55
 5866 0a34 93       		.byte	0x93
 5867 0a35 02       		.uleb128 0x2
 5868 0a36 59       		.byte	0x59
 5869 0a37 93       		.byte	0x93
 5870 0a38 02       		.uleb128 0x2
 5871 0a39 93       		.byte	0x93
 5872 0a3a 02       		.uleb128 0x2
 5873 0a3b 5B       		.byte	0x5b
 5874 0a3c 93       		.byte	0x93
 5875 0a3d 02       		.uleb128 0x2
 5876 0a3e 8C050000 		.4byte	.LVL77
 5877 0a42 C4050000 		.4byte	.LVL85
 5878 0a46 0A00     		.2byte	0xa
 5879 0a48 93       		.byte	0x93
 5880 0a49 02       		.uleb128 0x2
 5881 0a4a 59       		.byte	0x59
 5882 0a4b 93       		.byte	0x93
 5883 0a4c 02       		.uleb128 0x2
 5884 0a4d 93       		.byte	0x93
 5885 0a4e 02       		.uleb128 0x2
 5886 0a4f 5B       		.byte	0x5b
 5887 0a50 93       		.byte	0x93
 5888 0a51 02       		.uleb128 0x2
 5889 0a52 C4050000 		.4byte	.LVL85
 5890 0a56 D2050000 		.4byte	.LVL86
 5891 0a5a 0C00     		.2byte	0xc
 5892 0a5c 55       		.byte	0x55
 5893 0a5d 93       		.byte	0x93
 5894 0a5e 02       		.uleb128 0x2
 5895 0a5f 59       		.byte	0x59
 5896 0a60 93       		.byte	0x93
 5897 0a61 02       		.uleb128 0x2
 5898 0a62 56       		.byte	0x56
 5899 0a63 93       		.byte	0x93
 5900 0a64 02       		.uleb128 0x2
ARM GAS  C:\Users\pearlstl\AppData\Local\Temp\ccVE6Vs6.s 			page 119


 5901 0a65 5B       		.byte	0x5b
 5902 0a66 93       		.byte	0x93
 5903 0a67 02       		.uleb128 0x2
 5904 0a68 D2050000 		.4byte	.LVL86
 5905 0a6c D4050000 		.4byte	.LVL87
 5906 0a70 0B00     		.2byte	0xb
 5907 0a72 55       		.byte	0x55
 5908 0a73 93       		.byte	0x93
 5909 0a74 02       		.uleb128 0x2
 5910 0a75 59       		.byte	0x59
 5911 0a76 93       		.byte	0x93
 5912 0a77 02       		.uleb128 0x2
 5913 0a78 93       		.byte	0x93
 5914 0a79 02       		.uleb128 0x2
 5915 0a7a 5B       		.byte	0x5b
 5916 0a7b 93       		.byte	0x93
 5917 0a7c 02       		.uleb128 0x2
 5918 0a7d D4050000 		.4byte	.LVL87
 5919 0a81 12060000 		.4byte	.LVL94
 5920 0a85 0A00     		.2byte	0xa
 5921 0a87 93       		.byte	0x93
 5922 0a88 02       		.uleb128 0x2
 5923 0a89 59       		.byte	0x59
 5924 0a8a 93       		.byte	0x93
 5925 0a8b 02       		.uleb128 0x2
 5926 0a8c 93       		.byte	0x93
 5927 0a8d 02       		.uleb128 0x2
 5928 0a8e 5B       		.byte	0x5b
 5929 0a8f 93       		.byte	0x93
 5930 0a90 02       		.uleb128 0x2
 5931 0a91 12060000 		.4byte	.LVL94
 5932 0a95 14060000 		.4byte	.LVL95
 5933 0a99 0500     		.2byte	0x5
 5934 0a9b 93       		.byte	0x93
 5935 0a9c 06       		.uleb128 0x6
 5936 0a9d 5B       		.byte	0x5b
 5937 0a9e 93       		.byte	0x93
 5938 0a9f 02       		.uleb128 0x2
 5939 0aa0 14060000 		.4byte	.LVL95
 5940 0aa4 3C060000 		.4byte	.LFE33
 5941 0aa8 0A00     		.2byte	0xa
 5942 0aaa 93       		.byte	0x93
 5943 0aab 02       		.uleb128 0x2
 5944 0aac 59       		.byte	0x59
 5945 0aad 93       		.byte	0x93
 5946 0aae 02       		.uleb128 0x2
 5947 0aaf 93       		.byte	0x93
 5948 0ab0 02       		.uleb128 0x2
 5949 0ab1 5B       		.byte	0x5b
 5950 0ab2 93       		.byte	0x93
 5951 0ab3 02       		.uleb128 0x2
 5952 0ab4 00000000 		.4byte	0
 5953 0ab8 00000000 		.4byte	0
 5954              	.LLST18:
 5955 0abc D2000000 		.4byte	.LVL5
 5956 0ac0 F6000000 		.4byte	.LVL7
 5957 0ac4 0300     		.2byte	0x3
ARM GAS  C:\Users\pearlstl\AppData\Local\Temp\ccVE6Vs6.s 			page 120


 5958 0ac6 91       		.byte	0x91
 5959 0ac7 4C       		.sleb128 -52
 5960 0ac8 9F       		.byte	0x9f
 5961 0ac9 00000000 		.4byte	0
 5962 0acd 00000000 		.4byte	0
 5963              	.LLST19:
 5964 0ad1 D2000000 		.4byte	.LVL5
 5965 0ad5 F6000000 		.4byte	.LVL7
 5966 0ad9 0300     		.2byte	0x3
 5967 0adb 91       		.byte	0x91
 5968 0adc 50       		.sleb128 -48
 5969 0add 9F       		.byte	0x9f
 5970 0ade 00000000 		.4byte	0
 5971 0ae2 00000000 		.4byte	0
 5972              	.LLST20:
 5973 0ae6 FA020000 		.4byte	.LVL25
 5974 0aea 18030000 		.4byte	.LVL27
 5975 0aee 0300     		.2byte	0x3
 5976 0af0 91       		.byte	0x91
 5977 0af1 4C       		.sleb128 -52
 5978 0af2 9F       		.byte	0x9f
 5979 0af3 00000000 		.4byte	0
 5980 0af7 00000000 		.4byte	0
 5981              	.LLST21:
 5982 0afb FA020000 		.4byte	.LVL25
 5983 0aff 18030000 		.4byte	.LVL27
 5984 0b03 0300     		.2byte	0x3
 5985 0b05 91       		.byte	0x91
 5986 0b06 50       		.sleb128 -48
 5987 0b07 9F       		.byte	0x9f
 5988 0b08 00000000 		.4byte	0
 5989 0b0c 00000000 		.4byte	0
 5990              	.LLST22:
 5991 0b10 7E030000 		.4byte	.LVL33
 5992 0b14 A4030000 		.4byte	.LVL36
 5993 0b18 0300     		.2byte	0x3
 5994 0b1a 91       		.byte	0x91
 5995 0b1b 50       		.sleb128 -48
 5996 0b1c 9F       		.byte	0x9f
 5997 0b1d 00000000 		.4byte	0
 5998 0b21 00000000 		.4byte	0
 5999              	.LLST23:
 6000 0b25 7E030000 		.4byte	.LVL33
 6001 0b29 A4030000 		.4byte	.LVL36
 6002 0b2d 0300     		.2byte	0x3
 6003 0b2f 91       		.byte	0x91
 6004 0b30 54       		.sleb128 -44
 6005 0b31 9F       		.byte	0x9f
 6006 0b32 00000000 		.4byte	0
 6007 0b36 00000000 		.4byte	0
 6008              	.LLST24:
 6009 0b3a 00000000 		.4byte	.LVL107
 6010 0b3e 0A000000 		.4byte	.LVL108
 6011 0b42 0100     		.2byte	0x1
 6012 0b44 50       		.byte	0x50
 6013 0b45 0A000000 		.4byte	.LVL108
 6014 0b49 16000000 		.4byte	.LVL111
ARM GAS  C:\Users\pearlstl\AppData\Local\Temp\ccVE6Vs6.s 			page 121


 6015 0b4d 0100     		.2byte	0x1
 6016 0b4f 54       		.byte	0x54
 6017 0b50 16000000 		.4byte	.LVL111
 6018 0b54 9E050000 		.4byte	.LFE34
 6019 0b58 0400     		.2byte	0x4
 6020 0b5a F3       		.byte	0xf3
 6021 0b5b 01       		.uleb128 0x1
 6022 0b5c 50       		.byte	0x50
 6023 0b5d 9F       		.byte	0x9f
 6024 0b5e 00000000 		.4byte	0
 6025 0b62 00000000 		.4byte	0
 6026              	.LLST25:
 6027 0b66 00000000 		.4byte	.LVL107
 6028 0b6a 10000000 		.4byte	.LVL109
 6029 0b6e 0100     		.2byte	0x1
 6030 0b70 51       		.byte	0x51
 6031 0b71 10000000 		.4byte	.LVL109
 6032 0b75 9E050000 		.4byte	.LFE34
 6033 0b79 0300     		.2byte	0x3
 6034 0b7b 91       		.byte	0x91
 6035 0b7c 947F     		.sleb128 -108
 6036 0b7e 00000000 		.4byte	0
 6037 0b82 00000000 		.4byte	0
 6038              	.LLST26:
 6039 0b86 00000000 		.4byte	.LVL107
 6040 0b8a 12000000 		.4byte	.LVL110
 6041 0b8e 0100     		.2byte	0x1
 6042 0b90 52       		.byte	0x52
 6043 0b91 12000000 		.4byte	.LVL110
 6044 0b95 9E050000 		.4byte	.LFE34
 6045 0b99 0300     		.2byte	0x3
 6046 0b9b 91       		.byte	0x91
 6047 0b9c 987F     		.sleb128 -104
 6048 0b9e 00000000 		.4byte	0
 6049 0ba2 00000000 		.4byte	0
 6050              	.LLST27:
 6051 0ba6 00000000 		.4byte	.LVL107
 6052 0baa 2E000000 		.4byte	.LVL113
 6053 0bae 0100     		.2byte	0x1
 6054 0bb0 53       		.byte	0x53
 6055 0bb1 2E000000 		.4byte	.LVL113
 6056 0bb5 52020000 		.4byte	.LVL130
 6057 0bb9 0400     		.2byte	0x4
 6058 0bbb F3       		.byte	0xf3
 6059 0bbc 01       		.uleb128 0x1
 6060 0bbd 53       		.byte	0x53
 6061 0bbe 9F       		.byte	0x9f
 6062 0bbf 52020000 		.4byte	.LVL130
 6063 0bc3 58020000 		.4byte	.LVL131
 6064 0bc7 0100     		.2byte	0x1
 6065 0bc9 53       		.byte	0x53
 6066 0bca 58020000 		.4byte	.LVL131
 6067 0bce 18030000 		.4byte	.LVL143
 6068 0bd2 0400     		.2byte	0x4
 6069 0bd4 F3       		.byte	0xf3
 6070 0bd5 01       		.uleb128 0x1
 6071 0bd6 53       		.byte	0x53
ARM GAS  C:\Users\pearlstl\AppData\Local\Temp\ccVE6Vs6.s 			page 122


 6072 0bd7 9F       		.byte	0x9f
 6073 0bd8 18030000 		.4byte	.LVL143
 6074 0bdc 1A030000 		.4byte	.LVL144
 6075 0be0 0100     		.2byte	0x1
 6076 0be2 53       		.byte	0x53
 6077 0be3 1A030000 		.4byte	.LVL144
 6078 0be7 9E050000 		.4byte	.LFE34
 6079 0beb 0400     		.2byte	0x4
 6080 0bed F3       		.byte	0xf3
 6081 0bee 01       		.uleb128 0x1
 6082 0bef 53       		.byte	0x53
 6083 0bf0 9F       		.byte	0x9f
 6084 0bf1 00000000 		.4byte	0
 6085 0bf5 00000000 		.4byte	0
 6086              	.LLST28:
 6087 0bf9 3E010000 		.4byte	.LVL123
 6088 0bfd AA010000 		.4byte	.LVL125
 6089 0c01 0600     		.2byte	0x6
 6090 0c03 59       		.byte	0x59
 6091 0c04 93       		.byte	0x93
 6092 0c05 02       		.uleb128 0x2
 6093 0c06 55       		.byte	0x55
 6094 0c07 93       		.byte	0x93
 6095 0c08 02       		.uleb128 0x2
 6096 0c09 D8010000 		.4byte	.LVL126
 6097 0c0d FE010000 		.4byte	.LVL128
 6098 0c11 0500     		.2byte	0x5
 6099 0c13 93       		.byte	0x93
 6100 0c14 02       		.uleb128 0x2
 6101 0c15 55       		.byte	0x55
 6102 0c16 93       		.byte	0x93
 6103 0c17 02       		.uleb128 0x2
 6104 0c18 AE020000 		.4byte	.LVL137
 6105 0c1c C4020000 		.4byte	.LVL138
 6106 0c20 0600     		.2byte	0x6
 6107 0c22 59       		.byte	0x59
 6108 0c23 93       		.byte	0x93
 6109 0c24 02       		.uleb128 0x2
 6110 0c25 55       		.byte	0x55
 6111 0c26 93       		.byte	0x93
 6112 0c27 02       		.uleb128 0x2
 6113 0c28 F6020000 		.4byte	.LVL139
 6114 0c2c 00030000 		.4byte	.LVL141
 6115 0c30 0500     		.2byte	0x5
 6116 0c32 93       		.byte	0x93
 6117 0c33 02       		.uleb128 0x2
 6118 0c34 55       		.byte	0x55
 6119 0c35 93       		.byte	0x93
 6120 0c36 02       		.uleb128 0x2
 6121 0c37 2A030000 		.4byte	.LVL145
 6122 0c3b 44030000 		.4byte	.LVL150
 6123 0c3f 0600     		.2byte	0x6
 6124 0c41 59       		.byte	0x59
 6125 0c42 93       		.byte	0x93
 6126 0c43 02       		.uleb128 0x2
 6127 0c44 55       		.byte	0x55
 6128 0c45 93       		.byte	0x93
ARM GAS  C:\Users\pearlstl\AppData\Local\Temp\ccVE6Vs6.s 			page 123


 6129 0c46 02       		.uleb128 0x2
 6130 0c47 92030000 		.4byte	.LVL151
 6131 0c4b A6030000 		.4byte	.LVL153
 6132 0c4f 0500     		.2byte	0x5
 6133 0c51 93       		.byte	0x93
 6134 0c52 02       		.uleb128 0x2
 6135 0c53 55       		.byte	0x55
 6136 0c54 93       		.byte	0x93
 6137 0c55 02       		.uleb128 0x2
 6138 0c56 A6030000 		.4byte	.LVL153
 6139 0c5a C0030000 		.4byte	.LVL158
 6140 0c5e 0600     		.2byte	0x6
 6141 0c60 59       		.byte	0x59
 6142 0c61 93       		.byte	0x93
 6143 0c62 02       		.uleb128 0x2
 6144 0c63 55       		.byte	0x55
 6145 0c64 93       		.byte	0x93
 6146 0c65 02       		.uleb128 0x2
 6147 0c66 0E040000 		.4byte	.LVL159
 6148 0c6a 12040000 		.4byte	.LVL160
 6149 0c6e 0500     		.2byte	0x5
 6150 0c70 93       		.byte	0x93
 6151 0c71 02       		.uleb128 0x2
 6152 0c72 55       		.byte	0x55
 6153 0c73 93       		.byte	0x93
 6154 0c74 02       		.uleb128 0x2
 6155 0c75 12040000 		.4byte	.LVL160
 6156 0c79 28040000 		.4byte	.LVL161
 6157 0c7d 0600     		.2byte	0x6
 6158 0c7f 59       		.byte	0x59
 6159 0c80 93       		.byte	0x93
 6160 0c81 02       		.uleb128 0x2
 6161 0c82 55       		.byte	0x55
 6162 0c83 93       		.byte	0x93
 6163 0c84 02       		.uleb128 0x2
 6164 0c85 28040000 		.4byte	.LVL161
 6165 0c89 38040000 		.4byte	.LVL163
 6166 0c8d 0500     		.2byte	0x5
 6167 0c8f 93       		.byte	0x93
 6168 0c90 02       		.uleb128 0x2
 6169 0c91 55       		.byte	0x55
 6170 0c92 93       		.byte	0x93
 6171 0c93 02       		.uleb128 0x2
 6172 0c94 38040000 		.4byte	.LVL163
 6173 0c98 48040000 		.4byte	.LVL166
 6174 0c9c 0600     		.2byte	0x6
 6175 0c9e 51       		.byte	0x51
 6176 0c9f 93       		.byte	0x93
 6177 0ca0 02       		.uleb128 0x2
 6178 0ca1 55       		.byte	0x55
 6179 0ca2 93       		.byte	0x93
 6180 0ca3 02       		.uleb128 0x2
 6181 0ca4 48040000 		.4byte	.LVL166
 6182 0ca8 4C040000 		.4byte	.LVL168
 6183 0cac 0500     		.2byte	0x5
 6184 0cae 51       		.byte	0x51
 6185 0caf 93       		.byte	0x93
ARM GAS  C:\Users\pearlstl\AppData\Local\Temp\ccVE6Vs6.s 			page 124


 6186 0cb0 02       		.uleb128 0x2
 6187 0cb1 93       		.byte	0x93
 6188 0cb2 02       		.uleb128 0x2
 6189 0cb3 4C040000 		.4byte	.LVL168
 6190 0cb7 54040000 		.4byte	.LVL170
 6191 0cbb 0600     		.2byte	0x6
 6192 0cbd 51       		.byte	0x51
 6193 0cbe 93       		.byte	0x93
 6194 0cbf 02       		.uleb128 0x2
 6195 0cc0 55       		.byte	0x55
 6196 0cc1 93       		.byte	0x93
 6197 0cc2 02       		.uleb128 0x2
 6198 0cc3 54040000 		.4byte	.LVL170
 6199 0cc7 76040000 		.4byte	.LVL173
 6200 0ccb 0500     		.2byte	0x5
 6201 0ccd 93       		.byte	0x93
 6202 0cce 02       		.uleb128 0x2
 6203 0ccf 55       		.byte	0x55
 6204 0cd0 93       		.byte	0x93
 6205 0cd1 02       		.uleb128 0x2
 6206 0cd2 76040000 		.4byte	.LVL173
 6207 0cd6 7A040000 		.4byte	.LVL175
 6208 0cda 0600     		.2byte	0x6
 6209 0cdc 53       		.byte	0x53
 6210 0cdd 93       		.byte	0x93
 6211 0cde 02       		.uleb128 0x2
 6212 0cdf 55       		.byte	0x55
 6213 0ce0 93       		.byte	0x93
 6214 0ce1 02       		.uleb128 0x2
 6215 0ce2 7A040000 		.4byte	.LVL175
 6216 0ce6 80040000 		.4byte	.LVL176
 6217 0cea 0500     		.2byte	0x5
 6218 0cec 93       		.byte	0x93
 6219 0ced 02       		.uleb128 0x2
 6220 0cee 55       		.byte	0x55
 6221 0cef 93       		.byte	0x93
 6222 0cf0 02       		.uleb128 0x2
 6223 0cf1 84040000 		.4byte	.LVL178
 6224 0cf5 92040000 		.4byte	.LVL181
 6225 0cf9 0500     		.2byte	0x5
 6226 0cfb 93       		.byte	0x93
 6227 0cfc 02       		.uleb128 0x2
 6228 0cfd 55       		.byte	0x55
 6229 0cfe 93       		.byte	0x93
 6230 0cff 02       		.uleb128 0x2
 6231 0d00 92040000 		.4byte	.LVL181
 6232 0d04 F4040000 		.4byte	.LVL199
 6233 0d08 0500     		.2byte	0x5
 6234 0d0a 93       		.byte	0x93
 6235 0d0b 02       		.uleb128 0x2
 6236 0d0c 55       		.byte	0x55
 6237 0d0d 93       		.byte	0x93
 6238 0d0e 02       		.uleb128 0x2
 6239 0d0f F4040000 		.4byte	.LVL199
 6240 0d13 04050000 		.4byte	.LVL200
 6241 0d17 0600     		.2byte	0x6
 6242 0d19 59       		.byte	0x59
ARM GAS  C:\Users\pearlstl\AppData\Local\Temp\ccVE6Vs6.s 			page 125


 6243 0d1a 93       		.byte	0x93
 6244 0d1b 02       		.uleb128 0x2
 6245 0d1c 55       		.byte	0x55
 6246 0d1d 93       		.byte	0x93
 6247 0d1e 02       		.uleb128 0x2
 6248 0d1f 04050000 		.4byte	.LVL200
 6249 0d23 14050000 		.4byte	.LVL202
 6250 0d27 0500     		.2byte	0x5
 6251 0d29 93       		.byte	0x93
 6252 0d2a 02       		.uleb128 0x2
 6253 0d2b 55       		.byte	0x55
 6254 0d2c 93       		.byte	0x93
 6255 0d2d 02       		.uleb128 0x2
 6256 0d2e 14050000 		.4byte	.LVL202
 6257 0d32 22050000 		.4byte	.LVL205
 6258 0d36 0600     		.2byte	0x6
 6259 0d38 51       		.byte	0x51
 6260 0d39 93       		.byte	0x93
 6261 0d3a 02       		.uleb128 0x2
 6262 0d3b 55       		.byte	0x55
 6263 0d3c 93       		.byte	0x93
 6264 0d3d 02       		.uleb128 0x2
 6265 0d3e 22050000 		.4byte	.LVL205
 6266 0d42 26050000 		.4byte	.LVL207
 6267 0d46 0500     		.2byte	0x5
 6268 0d48 51       		.byte	0x51
 6269 0d49 93       		.byte	0x93
 6270 0d4a 02       		.uleb128 0x2
 6271 0d4b 93       		.byte	0x93
 6272 0d4c 02       		.uleb128 0x2
 6273 0d4d 26050000 		.4byte	.LVL207
 6274 0d51 2E050000 		.4byte	.LVL209
 6275 0d55 0600     		.2byte	0x6
 6276 0d57 51       		.byte	0x51
 6277 0d58 93       		.byte	0x93
 6278 0d59 02       		.uleb128 0x2
 6279 0d5a 55       		.byte	0x55
 6280 0d5b 93       		.byte	0x93
 6281 0d5c 02       		.uleb128 0x2
 6282 0d5d 2E050000 		.4byte	.LVL209
 6283 0d61 50050000 		.4byte	.LVL212
 6284 0d65 0500     		.2byte	0x5
 6285 0d67 93       		.byte	0x93
 6286 0d68 02       		.uleb128 0x2
 6287 0d69 55       		.byte	0x55
 6288 0d6a 93       		.byte	0x93
 6289 0d6b 02       		.uleb128 0x2
 6290 0d6c 50050000 		.4byte	.LVL212
 6291 0d70 54050000 		.4byte	.LVL214
 6292 0d74 0600     		.2byte	0x6
 6293 0d76 53       		.byte	0x53
 6294 0d77 93       		.byte	0x93
 6295 0d78 02       		.uleb128 0x2
 6296 0d79 55       		.byte	0x55
 6297 0d7a 93       		.byte	0x93
 6298 0d7b 02       		.uleb128 0x2
 6299 0d7c 54050000 		.4byte	.LVL214
ARM GAS  C:\Users\pearlstl\AppData\Local\Temp\ccVE6Vs6.s 			page 126


 6300 0d80 5A050000 		.4byte	.LVL215
 6301 0d84 0500     		.2byte	0x5
 6302 0d86 93       		.byte	0x93
 6303 0d87 02       		.uleb128 0x2
 6304 0d88 55       		.byte	0x55
 6305 0d89 93       		.byte	0x93
 6306 0d8a 02       		.uleb128 0x2
 6307 0d8b 5E050000 		.4byte	.LVL217
 6308 0d8f 82050000 		.4byte	.LVL226
 6309 0d93 0500     		.2byte	0x5
 6310 0d95 93       		.byte	0x93
 6311 0d96 02       		.uleb128 0x2
 6312 0d97 55       		.byte	0x55
 6313 0d98 93       		.byte	0x93
 6314 0d99 02       		.uleb128 0x2
 6315 0d9a 82050000 		.4byte	.LVL226
 6316 0d9e 94050000 		.4byte	.LVL227
 6317 0da2 0600     		.2byte	0x6
 6318 0da4 51       		.byte	0x51
 6319 0da5 93       		.byte	0x93
 6320 0da6 02       		.uleb128 0x2
 6321 0da7 55       		.byte	0x55
 6322 0da8 93       		.byte	0x93
 6323 0da9 02       		.uleb128 0x2
 6324 0daa 00000000 		.4byte	0
 6325 0dae 00000000 		.4byte	0
 6326              	.LLST29:
 6327 0db2 72000000 		.4byte	.LVL116
 6328 0db6 AA010000 		.4byte	.LVL125
 6329 0dba 0100     		.2byte	0x1
 6330 0dbc 5A       		.byte	0x5a
 6331 0dbd A8020000 		.4byte	.LVL135
 6332 0dc1 C4020000 		.4byte	.LVL138
 6333 0dc5 0100     		.2byte	0x1
 6334 0dc7 5A       		.byte	0x5a
 6335 0dc8 00030000 		.4byte	.LVL141
 6336 0dcc 18030000 		.4byte	.LVL143
 6337 0dd0 0100     		.2byte	0x1
 6338 0dd2 5A       		.byte	0x5a
 6339 0dd3 2A030000 		.4byte	.LVL145
 6340 0dd7 44030000 		.4byte	.LVL150
 6341 0ddb 0100     		.2byte	0x1
 6342 0ddd 5A       		.byte	0x5a
 6343 0dde A6030000 		.4byte	.LVL153
 6344 0de2 C0030000 		.4byte	.LVL158
 6345 0de6 0100     		.2byte	0x1
 6346 0de8 5A       		.byte	0x5a
 6347 0de9 12040000 		.4byte	.LVL160
 6348 0ded 28040000 		.4byte	.LVL161
 6349 0df1 0100     		.2byte	0x1
 6350 0df3 5A       		.byte	0x5a
 6351 0df4 54040000 		.4byte	.LVL170
 6352 0df8 8C040000 		.4byte	.LVL180
 6353 0dfc 0100     		.2byte	0x1
 6354 0dfe 5A       		.byte	0x5a
 6355 0dff 92040000 		.4byte	.LVL181
 6356 0e03 9A040000 		.4byte	.LVL182
ARM GAS  C:\Users\pearlstl\AppData\Local\Temp\ccVE6Vs6.s 			page 127


 6357 0e07 0100     		.2byte	0x1
 6358 0e09 5A       		.byte	0x5a
 6359 0e0a E0040000 		.4byte	.LVL193
 6360 0e0e F2040000 		.4byte	.LVL198
 6361 0e12 0100     		.2byte	0x1
 6362 0e14 5A       		.byte	0x5a
 6363 0e15 F4040000 		.4byte	.LVL199
 6364 0e19 04050000 		.4byte	.LVL200
 6365 0e1d 0100     		.2byte	0x1
 6366 0e1f 5A       		.byte	0x5a
 6367 0e20 2E050000 		.4byte	.LVL209
 6368 0e24 80050000 		.4byte	.LVL225
 6369 0e28 0100     		.2byte	0x1
 6370 0e2a 5A       		.byte	0x5a
 6371 0e2b 00000000 		.4byte	0
 6372 0e2f 00000000 		.4byte	0
 6373              	.LLST30:
 6374 0e33 74000000 		.4byte	.LVL117
 6375 0e37 AA010000 		.4byte	.LVL125
 6376 0e3b 0300     		.2byte	0x3
 6377 0e3d 91       		.byte	0x91
 6378 0e3e 807F     		.sleb128 -128
 6379 0e40 AE020000 		.4byte	.LVL137
 6380 0e44 C4020000 		.4byte	.LVL138
 6381 0e48 0300     		.2byte	0x3
 6382 0e4a 91       		.byte	0x91
 6383 0e4b 807F     		.sleb128 -128
 6384 0e4d 00030000 		.4byte	.LVL141
 6385 0e51 18030000 		.4byte	.LVL143
 6386 0e55 0300     		.2byte	0x3
 6387 0e57 91       		.byte	0x91
 6388 0e58 807F     		.sleb128 -128
 6389 0e5a 2A030000 		.4byte	.LVL145
 6390 0e5e 44030000 		.4byte	.LVL150
 6391 0e62 0300     		.2byte	0x3
 6392 0e64 91       		.byte	0x91
 6393 0e65 807F     		.sleb128 -128
 6394 0e67 A6030000 		.4byte	.LVL153
 6395 0e6b C0030000 		.4byte	.LVL158
 6396 0e6f 0300     		.2byte	0x3
 6397 0e71 91       		.byte	0x91
 6398 0e72 807F     		.sleb128 -128
 6399 0e74 12040000 		.4byte	.LVL160
 6400 0e78 28040000 		.4byte	.LVL161
 6401 0e7c 0300     		.2byte	0x3
 6402 0e7e 91       		.byte	0x91
 6403 0e7f 807F     		.sleb128 -128
 6404 0e81 54040000 		.4byte	.LVL170
 6405 0e85 8C040000 		.4byte	.LVL180
 6406 0e89 0300     		.2byte	0x3
 6407 0e8b 91       		.byte	0x91
 6408 0e8c 807F     		.sleb128 -128
 6409 0e8e 92040000 		.4byte	.LVL181
 6410 0e92 9A040000 		.4byte	.LVL182
 6411 0e96 0300     		.2byte	0x3
 6412 0e98 91       		.byte	0x91
 6413 0e99 807F     		.sleb128 -128
ARM GAS  C:\Users\pearlstl\AppData\Local\Temp\ccVE6Vs6.s 			page 128


 6414 0e9b E0040000 		.4byte	.LVL193
 6415 0e9f EE040000 		.4byte	.LVL197
 6416 0ea3 0300     		.2byte	0x3
 6417 0ea5 91       		.byte	0x91
 6418 0ea6 807F     		.sleb128 -128
 6419 0ea8 F4040000 		.4byte	.LVL199
 6420 0eac 04050000 		.4byte	.LVL200
 6421 0eb0 0300     		.2byte	0x3
 6422 0eb2 91       		.byte	0x91
 6423 0eb3 807F     		.sleb128 -128
 6424 0eb5 2E050000 		.4byte	.LVL209
 6425 0eb9 7C050000 		.4byte	.LVL224
 6426 0ebd 0300     		.2byte	0x3
 6427 0ebf 91       		.byte	0x91
 6428 0ec0 807F     		.sleb128 -128
 6429 0ec2 00000000 		.4byte	0
 6430 0ec6 00000000 		.4byte	0
 6431              	.LLST31:
 6432 0eca 86000000 		.4byte	.LVL118
 6433 0ece AA010000 		.4byte	.LVL125
 6434 0ed2 0100     		.2byte	0x1
 6435 0ed4 58       		.byte	0x58
 6436 0ed5 AE020000 		.4byte	.LVL137
 6437 0ed9 C4020000 		.4byte	.LVL138
 6438 0edd 0100     		.2byte	0x1
 6439 0edf 58       		.byte	0x58
 6440 0ee0 00030000 		.4byte	.LVL141
 6441 0ee4 18030000 		.4byte	.LVL143
 6442 0ee8 0100     		.2byte	0x1
 6443 0eea 58       		.byte	0x58
 6444 0eeb 2A030000 		.4byte	.LVL145
 6445 0eef 44030000 		.4byte	.LVL150
 6446 0ef3 0100     		.2byte	0x1
 6447 0ef5 58       		.byte	0x58
 6448 0ef6 A6030000 		.4byte	.LVL153
 6449 0efa C0030000 		.4byte	.LVL158
 6450 0efe 0100     		.2byte	0x1
 6451 0f00 58       		.byte	0x58
 6452 0f01 12040000 		.4byte	.LVL160
 6453 0f05 28040000 		.4byte	.LVL161
 6454 0f09 0100     		.2byte	0x1
 6455 0f0b 58       		.byte	0x58
 6456 0f0c 54040000 		.4byte	.LVL170
 6457 0f10 8C040000 		.4byte	.LVL180
 6458 0f14 0100     		.2byte	0x1
 6459 0f16 58       		.byte	0x58
 6460 0f17 92040000 		.4byte	.LVL181
 6461 0f1b 9A040000 		.4byte	.LVL182
 6462 0f1f 0100     		.2byte	0x1
 6463 0f21 58       		.byte	0x58
 6464 0f22 E0040000 		.4byte	.LVL193
 6465 0f26 EC040000 		.4byte	.LVL196
 6466 0f2a 0100     		.2byte	0x1
 6467 0f2c 58       		.byte	0x58
 6468 0f2d F4040000 		.4byte	.LVL199
 6469 0f31 04050000 		.4byte	.LVL200
 6470 0f35 0100     		.2byte	0x1
ARM GAS  C:\Users\pearlstl\AppData\Local\Temp\ccVE6Vs6.s 			page 129


 6471 0f37 58       		.byte	0x58
 6472 0f38 2E050000 		.4byte	.LVL209
 6473 0f3c 7A050000 		.4byte	.LVL223
 6474 0f40 0100     		.2byte	0x1
 6475 0f42 58       		.byte	0x58
 6476 0f43 00000000 		.4byte	0
 6477 0f47 00000000 		.4byte	0
 6478              	.LLST32:
 6479 0f4b 94000000 		.4byte	.LVL119
 6480 0f4f AA010000 		.4byte	.LVL125
 6481 0f53 0300     		.2byte	0x3
 6482 0f55 91       		.byte	0x91
 6483 0f56 F07E     		.sleb128 -144
 6484 0f58 AE020000 		.4byte	.LVL137
 6485 0f5c C4020000 		.4byte	.LVL138
 6486 0f60 0300     		.2byte	0x3
 6487 0f62 91       		.byte	0x91
 6488 0f63 F07E     		.sleb128 -144
 6489 0f65 00030000 		.4byte	.LVL141
 6490 0f69 18030000 		.4byte	.LVL143
 6491 0f6d 0300     		.2byte	0x3
 6492 0f6f 91       		.byte	0x91
 6493 0f70 F07E     		.sleb128 -144
 6494 0f72 2A030000 		.4byte	.LVL145
 6495 0f76 44030000 		.4byte	.LVL150
 6496 0f7a 0300     		.2byte	0x3
 6497 0f7c 91       		.byte	0x91
 6498 0f7d F07E     		.sleb128 -144
 6499 0f7f A6030000 		.4byte	.LVL153
 6500 0f83 C0030000 		.4byte	.LVL158
 6501 0f87 0300     		.2byte	0x3
 6502 0f89 91       		.byte	0x91
 6503 0f8a F07E     		.sleb128 -144
 6504 0f8c 12040000 		.4byte	.LVL160
 6505 0f90 28040000 		.4byte	.LVL161
 6506 0f94 0300     		.2byte	0x3
 6507 0f96 91       		.byte	0x91
 6508 0f97 F07E     		.sleb128 -144
 6509 0f99 54040000 		.4byte	.LVL170
 6510 0f9d 8C040000 		.4byte	.LVL180
 6511 0fa1 0300     		.2byte	0x3
 6512 0fa3 91       		.byte	0x91
 6513 0fa4 F07E     		.sleb128 -144
 6514 0fa6 92040000 		.4byte	.LVL181
 6515 0faa 9A040000 		.4byte	.LVL182
 6516 0fae 0300     		.2byte	0x3
 6517 0fb0 91       		.byte	0x91
 6518 0fb1 F07E     		.sleb128 -144
 6519 0fb3 E0040000 		.4byte	.LVL193
 6520 0fb7 E4040000 		.4byte	.LVL194
 6521 0fbb 0300     		.2byte	0x3
 6522 0fbd 91       		.byte	0x91
 6523 0fbe F07E     		.sleb128 -144
 6524 0fc0 F4040000 		.4byte	.LVL199
 6525 0fc4 04050000 		.4byte	.LVL200
 6526 0fc8 0300     		.2byte	0x3
 6527 0fca 91       		.byte	0x91
ARM GAS  C:\Users\pearlstl\AppData\Local\Temp\ccVE6Vs6.s 			page 130


 6528 0fcb F07E     		.sleb128 -144
 6529 0fcd 2E050000 		.4byte	.LVL209
 6530 0fd1 72050000 		.4byte	.LVL221
 6531 0fd5 0300     		.2byte	0x3
 6532 0fd7 91       		.byte	0x91
 6533 0fd8 F07E     		.sleb128 -144
 6534 0fda 00000000 		.4byte	0
 6535 0fde 00000000 		.4byte	0
 6536              	.LLST33:
 6537 0fe2 9E000000 		.4byte	.LVL120
 6538 0fe6 AA010000 		.4byte	.LVL125
 6539 0fea 0100     		.2byte	0x1
 6540 0fec 54       		.byte	0x54
 6541 0fed D8010000 		.4byte	.LVL126
 6542 0ff1 DE010000 		.4byte	.LVL127
 6543 0ff5 0100     		.2byte	0x1
 6544 0ff7 54       		.byte	0x54
 6545 0ff8 AE020000 		.4byte	.LVL137
 6546 0ffc C4020000 		.4byte	.LVL138
 6547 1000 0100     		.2byte	0x1
 6548 1002 54       		.byte	0x54
 6549 1003 F6020000 		.4byte	.LVL139
 6550 1007 0C030000 		.4byte	.LVL142
 6551 100b 0100     		.2byte	0x1
 6552 100d 54       		.byte	0x54
 6553 100e 2A030000 		.4byte	.LVL145
 6554 1012 40030000 		.4byte	.LVL148
 6555 1016 0100     		.2byte	0x1
 6556 1018 54       		.byte	0x54
 6557 1019 92030000 		.4byte	.LVL151
 6558 101d A6030000 		.4byte	.LVL153
 6559 1021 0100     		.2byte	0x1
 6560 1023 53       		.byte	0x53
 6561 1024 A6030000 		.4byte	.LVL153
 6562 1028 BC030000 		.4byte	.LVL156
 6563 102c 0100     		.2byte	0x1
 6564 102e 54       		.byte	0x54
 6565 102f 0E040000 		.4byte	.LVL159
 6566 1033 12040000 		.4byte	.LVL160
 6567 1037 0100     		.2byte	0x1
 6568 1039 53       		.byte	0x53
 6569 103a 12040000 		.4byte	.LVL160
 6570 103e 36040000 		.4byte	.LVL162
 6571 1042 0100     		.2byte	0x1
 6572 1044 54       		.byte	0x54
 6573 1045 36040000 		.4byte	.LVL162
 6574 1049 44040000 		.4byte	.LVL165
 6575 104d 0100     		.2byte	0x1
 6576 104f 53       		.byte	0x53
 6577 1050 4A040000 		.4byte	.LVL167
 6578 1054 72040000 		.4byte	.LVL172
 6579 1058 0100     		.2byte	0x1
 6580 105a 54       		.byte	0x54
 6581 105b 72040000 		.4byte	.LVL172
 6582 105f 7A040000 		.4byte	.LVL175
 6583 1063 0100     		.2byte	0x1
 6584 1065 52       		.byte	0x52
ARM GAS  C:\Users\pearlstl\AppData\Local\Temp\ccVE6Vs6.s 			page 131


 6585 1066 82040000 		.4byte	.LVL177
 6586 106a 8C040000 		.4byte	.LVL180
 6587 106e 0100     		.2byte	0x1
 6588 1070 54       		.byte	0x54
 6589 1071 92040000 		.4byte	.LVL181
 6590 1075 9A040000 		.4byte	.LVL182
 6591 1079 0100     		.2byte	0x1
 6592 107b 54       		.byte	0x54
 6593 107c E0040000 		.4byte	.LVL193
 6594 1080 E8040000 		.4byte	.LVL195
 6595 1084 0100     		.2byte	0x1
 6596 1086 54       		.byte	0x54
 6597 1087 F4040000 		.4byte	.LVL199
 6598 108b 12050000 		.4byte	.LVL201
 6599 108f 0100     		.2byte	0x1
 6600 1091 54       		.byte	0x54
 6601 1092 12050000 		.4byte	.LVL201
 6602 1096 1E050000 		.4byte	.LVL204
 6603 109a 0100     		.2byte	0x1
 6604 109c 53       		.byte	0x53
 6605 109d 24050000 		.4byte	.LVL206
 6606 10a1 4C050000 		.4byte	.LVL211
 6607 10a5 0100     		.2byte	0x1
 6608 10a7 54       		.byte	0x54
 6609 10a8 4C050000 		.4byte	.LVL211
 6610 10ac 54050000 		.4byte	.LVL214
 6611 10b0 0100     		.2byte	0x1
 6612 10b2 52       		.byte	0x52
 6613 10b3 5C050000 		.4byte	.LVL216
 6614 10b7 76050000 		.4byte	.LVL222
 6615 10bb 0100     		.2byte	0x1
 6616 10bd 54       		.byte	0x54
 6617 10be 82050000 		.4byte	.LVL226
 6618 10c2 94050000 		.4byte	.LVL227
 6619 10c6 0100     		.2byte	0x1
 6620 10c8 53       		.byte	0x53
 6621 10c9 00000000 		.4byte	0
 6622 10cd 00000000 		.4byte	0
 6623              	.LLST34:
 6624 10d1 28040000 		.4byte	.LVL161
 6625 10d5 40040000 		.4byte	.LVL164
 6626 10d9 0100     		.2byte	0x1
 6627 10db 54       		.byte	0x54
 6628 10dc 60040000 		.4byte	.LVL171
 6629 10e0 78040000 		.4byte	.LVL174
 6630 10e4 0100     		.2byte	0x1
 6631 10e6 54       		.byte	0x54
 6632 10e7 92040000 		.4byte	.LVL181
 6633 10eb 9A040000 		.4byte	.LVL182
 6634 10ef 0100     		.2byte	0x1
 6635 10f1 54       		.byte	0x54
 6636 10f2 04050000 		.4byte	.LVL200
 6637 10f6 1A050000 		.4byte	.LVL203
 6638 10fa 0100     		.2byte	0x1
 6639 10fc 54       		.byte	0x54
 6640 10fd 3A050000 		.4byte	.LVL210
 6641 1101 52050000 		.4byte	.LVL213
ARM GAS  C:\Users\pearlstl\AppData\Local\Temp\ccVE6Vs6.s 			page 132


 6642 1105 0100     		.2byte	0x1
 6643 1107 54       		.byte	0x54
 6644 1108 66050000 		.4byte	.LVL219
 6645 110c 6E050000 		.4byte	.LVL220
 6646 1110 0100     		.2byte	0x1
 6647 1112 54       		.byte	0x54
 6648 1113 82050000 		.4byte	.LVL226
 6649 1117 94050000 		.4byte	.LVL227
 6650 111b 0100     		.2byte	0x1
 6651 111d 54       		.byte	0x54
 6652 111e 00000000 		.4byte	0
 6653 1122 00000000 		.4byte	0
 6654              	.LLST35:
 6655 1126 3E010000 		.4byte	.LVL123
 6656 112a DE010000 		.4byte	.LVL127
 6657 112e 0600     		.2byte	0x6
 6658 1130 5B       		.byte	0x5b
 6659 1131 93       		.byte	0x93
 6660 1132 02       		.uleb128 0x2
 6661 1133 56       		.byte	0x56
 6662 1134 93       		.byte	0x93
 6663 1135 02       		.uleb128 0x2
 6664 1136 3E020000 		.4byte	.LVL129
 6665 113a 52020000 		.4byte	.LVL130
 6666 113e 0500     		.2byte	0x5
 6667 1140 93       		.byte	0x93
 6668 1141 02       		.uleb128 0x2
 6669 1142 56       		.byte	0x56
 6670 1143 93       		.byte	0x93
 6671 1144 02       		.uleb128 0x2
 6672 1145 AE020000 		.4byte	.LVL137
 6673 1149 00030000 		.4byte	.LVL141
 6674 114d 0600     		.2byte	0x6
 6675 114f 5B       		.byte	0x5b
 6676 1150 93       		.byte	0x93
 6677 1151 02       		.uleb128 0x2
 6678 1152 56       		.byte	0x56
 6679 1153 93       		.byte	0x93
 6680 1154 02       		.uleb128 0x2
 6681 1155 2A030000 		.4byte	.LVL145
 6682 1159 3E030000 		.4byte	.LVL147
 6683 115d 0600     		.2byte	0x6
 6684 115f 5B       		.byte	0x5b
 6685 1160 93       		.byte	0x93
 6686 1161 02       		.uleb128 0x2
 6687 1162 56       		.byte	0x56
 6688 1163 93       		.byte	0x93
 6689 1164 02       		.uleb128 0x2
 6690 1165 3E030000 		.4byte	.LVL147
 6691 1169 42030000 		.4byte	.LVL149
 6692 116d 0500     		.2byte	0x5
 6693 116f 93       		.byte	0x93
 6694 1170 02       		.uleb128 0x2
 6695 1171 56       		.byte	0x56
 6696 1172 93       		.byte	0x93
 6697 1173 02       		.uleb128 0x2
 6698 1174 A6030000 		.4byte	.LVL153
ARM GAS  C:\Users\pearlstl\AppData\Local\Temp\ccVE6Vs6.s 			page 133


 6699 1178 BA030000 		.4byte	.LVL155
 6700 117c 0600     		.2byte	0x6
 6701 117e 5B       		.byte	0x5b
 6702 117f 93       		.byte	0x93
 6703 1180 02       		.uleb128 0x2
 6704 1181 56       		.byte	0x56
 6705 1182 93       		.byte	0x93
 6706 1183 02       		.uleb128 0x2
 6707 1184 BA030000 		.4byte	.LVL155
 6708 1188 BE030000 		.4byte	.LVL157
 6709 118c 0500     		.2byte	0x5
 6710 118e 93       		.byte	0x93
 6711 118f 02       		.uleb128 0x2
 6712 1190 56       		.byte	0x56
 6713 1191 93       		.byte	0x93
 6714 1192 02       		.uleb128 0x2
 6715 1193 12040000 		.4byte	.LVL160
 6716 1197 8C040000 		.4byte	.LVL180
 6717 119b 0600     		.2byte	0x6
 6718 119d 5B       		.byte	0x5b
 6719 119e 93       		.byte	0x93
 6720 119f 02       		.uleb128 0x2
 6721 11a0 56       		.byte	0x56
 6722 11a1 93       		.byte	0x93
 6723 11a2 02       		.uleb128 0x2
 6724 11a3 8C040000 		.4byte	.LVL180
 6725 11a7 92040000 		.4byte	.LVL181
 6726 11ab 0500     		.2byte	0x5
 6727 11ad 93       		.byte	0x93
 6728 11ae 02       		.uleb128 0x2
 6729 11af 56       		.byte	0x56
 6730 11b0 93       		.byte	0x93
 6731 11b1 02       		.uleb128 0x2
 6732 11b2 92040000 		.4byte	.LVL181
 6733 11b6 9A040000 		.4byte	.LVL182
 6734 11ba 0600     		.2byte	0x6
 6735 11bc 5B       		.byte	0x5b
 6736 11bd 93       		.byte	0x93
 6737 11be 02       		.uleb128 0x2
 6738 11bf 56       		.byte	0x56
 6739 11c0 93       		.byte	0x93
 6740 11c1 02       		.uleb128 0x2
 6741 11c2 A6040000 		.4byte	.LVL183
 6742 11c6 B8040000 		.4byte	.LVL185
 6743 11ca 0500     		.2byte	0x5
 6744 11cc 93       		.byte	0x93
 6745 11cd 02       		.uleb128 0x2
 6746 11ce 56       		.byte	0x56
 6747 11cf 93       		.byte	0x93
 6748 11d0 02       		.uleb128 0x2
 6749 11d1 B8040000 		.4byte	.LVL185
 6750 11d5 CA040000 		.4byte	.LVL188
 6751 11d9 0600     		.2byte	0x6
 6752 11db 51       		.byte	0x51
 6753 11dc 93       		.byte	0x93
 6754 11dd 02       		.uleb128 0x2
 6755 11de 56       		.byte	0x56
ARM GAS  C:\Users\pearlstl\AppData\Local\Temp\ccVE6Vs6.s 			page 134


 6756 11df 93       		.byte	0x93
 6757 11e0 02       		.uleb128 0x2
 6758 11e1 CA040000 		.4byte	.LVL188
 6759 11e5 CE040000 		.4byte	.LVL190
 6760 11e9 0500     		.2byte	0x5
 6761 11eb 51       		.byte	0x51
 6762 11ec 93       		.byte	0x93
 6763 11ed 02       		.uleb128 0x2
 6764 11ee 93       		.byte	0x93
 6765 11ef 02       		.uleb128 0x2
 6766 11f0 CE040000 		.4byte	.LVL190
 6767 11f4 E0040000 		.4byte	.LVL193
 6768 11f8 0600     		.2byte	0x6
 6769 11fa 51       		.byte	0x51
 6770 11fb 93       		.byte	0x93
 6771 11fc 02       		.uleb128 0x2
 6772 11fd 56       		.byte	0x56
 6773 11fe 93       		.byte	0x93
 6774 11ff 02       		.uleb128 0x2
 6775 1200 E0040000 		.4byte	.LVL193
 6776 1204 94050000 		.4byte	.LVL227
 6777 1208 0600     		.2byte	0x6
 6778 120a 5B       		.byte	0x5b
 6779 120b 93       		.byte	0x93
 6780 120c 02       		.uleb128 0x2
 6781 120d 56       		.byte	0x56
 6782 120e 93       		.byte	0x93
 6783 120f 02       		.uleb128 0x2
 6784 1210 00000000 		.4byte	0
 6785 1214 00000000 		.4byte	0
 6786              	.LLST36:
 6787 1218 9E000000 		.4byte	.LVL120
 6788 121c E0000000 		.4byte	.LVL121
 6789 1220 0300     		.2byte	0x3
 6790 1222 91       		.byte	0x91
 6791 1223 A07F     		.sleb128 -96
 6792 1225 00000000 		.4byte	0
 6793 1229 00000000 		.4byte	0
 6794              	.LLST37:
 6795 122d E2000000 		.4byte	.LVL122
 6796 1231 52020000 		.4byte	.LVL130
 6797 1235 0300     		.2byte	0x3
 6798 1237 91       		.byte	0x91
 6799 1238 E87E     		.sleb128 -152
 6800 123a AE020000 		.4byte	.LVL137
 6801 123e 0C030000 		.4byte	.LVL142
 6802 1242 0300     		.2byte	0x3
 6803 1244 91       		.byte	0x91
 6804 1245 E87E     		.sleb128 -152
 6805 1247 2A030000 		.4byte	.LVL145
 6806 124b 94050000 		.4byte	.LVL227
 6807 124f 0300     		.2byte	0x3
 6808 1251 91       		.byte	0x91
 6809 1252 E87E     		.sleb128 -152
 6810 1254 00000000 		.4byte	0
 6811 1258 00000000 		.4byte	0
 6812              	.LLST38:
ARM GAS  C:\Users\pearlstl\AppData\Local\Temp\ccVE6Vs6.s 			page 135


 6813 125c 3E010000 		.4byte	.LVL123
 6814 1260 AA010000 		.4byte	.LVL125
 6815 1264 0100     		.2byte	0x1
 6816 1266 57       		.byte	0x57
 6817 1267 3E020000 		.4byte	.LVL129
 6818 126b 52020000 		.4byte	.LVL130
 6819 126f 0100     		.2byte	0x1
 6820 1271 53       		.byte	0x53
 6821 1272 AE020000 		.4byte	.LVL137
 6822 1276 C4020000 		.4byte	.LVL138
 6823 127a 0100     		.2byte	0x1
 6824 127c 57       		.byte	0x57
 6825 127d 2A030000 		.4byte	.LVL145
 6826 1281 36030000 		.4byte	.LVL146
 6827 1285 0100     		.2byte	0x1
 6828 1287 57       		.byte	0x57
 6829 1288 A6030000 		.4byte	.LVL153
 6830 128c B2030000 		.4byte	.LVL154
 6831 1290 0100     		.2byte	0x1
 6832 1292 57       		.byte	0x57
 6833 1293 12040000 		.4byte	.LVL160
 6834 1297 8C040000 		.4byte	.LVL180
 6835 129b 0100     		.2byte	0x1
 6836 129d 57       		.byte	0x57
 6837 129e 92040000 		.4byte	.LVL181
 6838 12a2 9A040000 		.4byte	.LVL182
 6839 12a6 0100     		.2byte	0x1
 6840 12a8 57       		.byte	0x57
 6841 12a9 A6040000 		.4byte	.LVL183
 6842 12ad B6040000 		.4byte	.LVL184
 6843 12b1 0100     		.2byte	0x1
 6844 12b3 53       		.byte	0x53
 6845 12b4 B6040000 		.4byte	.LVL184
 6846 12b8 C2040000 		.4byte	.LVL187
 6847 12bc 0100     		.2byte	0x1
 6848 12be 52       		.byte	0x52
 6849 12bf CC040000 		.4byte	.LVL189
 6850 12c3 D4040000 		.4byte	.LVL191
 6851 12c7 0100     		.2byte	0x1
 6852 12c9 53       		.byte	0x53
 6853 12ca D4040000 		.4byte	.LVL191
 6854 12ce D6040000 		.4byte	.LVL192
 6855 12d2 0100     		.2byte	0x1
 6856 12d4 52       		.byte	0x52
 6857 12d5 D6040000 		.4byte	.LVL192
 6858 12d9 E0040000 		.4byte	.LVL193
 6859 12dd 0800     		.2byte	0x8
 6860 12df 73       		.byte	0x73
 6861 12e0 00       		.sleb128 0
 6862 12e1 91       		.byte	0x91
 6863 12e2 F87E     		.sleb128 -136
 6864 12e4 06       		.byte	0x6
 6865 12e5 1C       		.byte	0x1c
 6866 12e6 9F       		.byte	0x9f
 6867 12e7 E0040000 		.4byte	.LVL193
 6868 12eb 94050000 		.4byte	.LVL227
 6869 12ef 0100     		.2byte	0x1
ARM GAS  C:\Users\pearlstl\AppData\Local\Temp\ccVE6Vs6.s 			page 136


 6870 12f1 57       		.byte	0x57
 6871 12f2 00000000 		.4byte	0
 6872 12f6 00000000 		.4byte	0
 6873              	.LLST39:
 6874 12fa A6040000 		.4byte	.LVL183
 6875 12fe C0040000 		.4byte	.LVL186
 6876 1302 0100     		.2byte	0x1
 6877 1304 53       		.byte	0x53
 6878 1305 D4040000 		.4byte	.LVL191
 6879 1309 E0040000 		.4byte	.LVL193
 6880 130d 0100     		.2byte	0x1
 6881 130f 53       		.byte	0x53
 6882 1310 00000000 		.4byte	0
 6883 1314 00000000 		.4byte	0
 6884              	.LLST40:
 6885 1318 7E010000 		.4byte	.LVL124
 6886 131c DE010000 		.4byte	.LVL127
 6887 1320 0100     		.2byte	0x1
 6888 1322 59       		.byte	0x59
 6889 1323 AE020000 		.4byte	.LVL137
 6890 1327 FC020000 		.4byte	.LVL140
 6891 132b 0100     		.2byte	0x1
 6892 132d 59       		.byte	0x59
 6893 132e 2A030000 		.4byte	.LVL145
 6894 1332 A4030000 		.4byte	.LVL152
 6895 1336 0100     		.2byte	0x1
 6896 1338 59       		.byte	0x59
 6897 1339 A6030000 		.4byte	.LVL153
 6898 133d 52040000 		.4byte	.LVL169
 6899 1341 0100     		.2byte	0x1
 6900 1343 59       		.byte	0x59
 6901 1344 54040000 		.4byte	.LVL170
 6902 1348 8A040000 		.4byte	.LVL179
 6903 134c 0100     		.2byte	0x1
 6904 134e 59       		.byte	0x59
 6905 134f 92040000 		.4byte	.LVL181
 6906 1353 9A040000 		.4byte	.LVL182
 6907 1357 0100     		.2byte	0x1
 6908 1359 59       		.byte	0x59
 6909 135a E0040000 		.4byte	.LVL193
 6910 135e 2C050000 		.4byte	.LVL208
 6911 1362 0100     		.2byte	0x1
 6912 1364 59       		.byte	0x59
 6913 1365 2E050000 		.4byte	.LVL209
 6914 1369 64050000 		.4byte	.LVL218
 6915 136d 0100     		.2byte	0x1
 6916 136f 59       		.byte	0x59
 6917 1370 66050000 		.4byte	.LVL219
 6918 1374 94050000 		.4byte	.LVL227
 6919 1378 0100     		.2byte	0x1
 6920 137a 59       		.byte	0x59
 6921 137b 00000000 		.4byte	0
 6922 137f 00000000 		.4byte	0
 6923              	.LLST41:
 6924 1383 3E010000 		.4byte	.LVL123
 6925 1387 AA010000 		.4byte	.LVL125
 6926 138b 0C00     		.2byte	0xc
ARM GAS  C:\Users\pearlstl\AppData\Local\Temp\ccVE6Vs6.s 			page 137


 6927 138d 59       		.byte	0x59
 6928 138e 93       		.byte	0x93
 6929 138f 02       		.uleb128 0x2
 6930 1390 55       		.byte	0x55
 6931 1391 93       		.byte	0x93
 6932 1392 02       		.uleb128 0x2
 6933 1393 5B       		.byte	0x5b
 6934 1394 93       		.byte	0x93
 6935 1395 02       		.uleb128 0x2
 6936 1396 56       		.byte	0x56
 6937 1397 93       		.byte	0x93
 6938 1398 02       		.uleb128 0x2
 6939 1399 AA010000 		.4byte	.LVL125
 6940 139d DE010000 		.4byte	.LVL127
 6941 13a1 0B00     		.2byte	0xb
 6942 13a3 59       		.byte	0x59
 6943 13a4 93       		.byte	0x93
 6944 13a5 02       		.uleb128 0x2
 6945 13a6 93       		.byte	0x93
 6946 13a7 02       		.uleb128 0x2
 6947 13a8 5B       		.byte	0x5b
 6948 13a9 93       		.byte	0x93
 6949 13aa 02       		.uleb128 0x2
 6950 13ab 56       		.byte	0x56
 6951 13ac 93       		.byte	0x93
 6952 13ad 02       		.uleb128 0x2
 6953 13ae AE020000 		.4byte	.LVL137
 6954 13b2 C4020000 		.4byte	.LVL138
 6955 13b6 0C00     		.2byte	0xc
 6956 13b8 59       		.byte	0x59
 6957 13b9 93       		.byte	0x93
 6958 13ba 02       		.uleb128 0x2
 6959 13bb 55       		.byte	0x55
 6960 13bc 93       		.byte	0x93
 6961 13bd 02       		.uleb128 0x2
 6962 13be 5B       		.byte	0x5b
 6963 13bf 93       		.byte	0x93
 6964 13c0 02       		.uleb128 0x2
 6965 13c1 56       		.byte	0x56
 6966 13c2 93       		.byte	0x93
 6967 13c3 02       		.uleb128 0x2
 6968 13c4 C4020000 		.4byte	.LVL138
 6969 13c8 FC020000 		.4byte	.LVL140
 6970 13cc 0B00     		.2byte	0xb
 6971 13ce 59       		.byte	0x59
 6972 13cf 93       		.byte	0x93
 6973 13d0 02       		.uleb128 0x2
 6974 13d1 93       		.byte	0x93
 6975 13d2 02       		.uleb128 0x2
 6976 13d3 5B       		.byte	0x5b
 6977 13d4 93       		.byte	0x93
 6978 13d5 02       		.uleb128 0x2
 6979 13d6 56       		.byte	0x56
 6980 13d7 93       		.byte	0x93
 6981 13d8 02       		.uleb128 0x2
 6982 13d9 FC020000 		.4byte	.LVL140
 6983 13dd 00030000 		.4byte	.LVL141
ARM GAS  C:\Users\pearlstl\AppData\Local\Temp\ccVE6Vs6.s 			page 138


 6984 13e1 0800     		.2byte	0x8
 6985 13e3 93       		.byte	0x93
 6986 13e4 04       		.uleb128 0x4
 6987 13e5 5B       		.byte	0x5b
 6988 13e6 93       		.byte	0x93
 6989 13e7 02       		.uleb128 0x2
 6990 13e8 56       		.byte	0x56
 6991 13e9 93       		.byte	0x93
 6992 13ea 02       		.uleb128 0x2
 6993 13eb 2A030000 		.4byte	.LVL145
 6994 13ef 3E030000 		.4byte	.LVL147
 6995 13f3 0C00     		.2byte	0xc
 6996 13f5 59       		.byte	0x59
 6997 13f6 93       		.byte	0x93
 6998 13f7 02       		.uleb128 0x2
 6999 13f8 55       		.byte	0x55
 7000 13f9 93       		.byte	0x93
 7001 13fa 02       		.uleb128 0x2
 7002 13fb 5B       		.byte	0x5b
 7003 13fc 93       		.byte	0x93
 7004 13fd 02       		.uleb128 0x2
 7005 13fe 56       		.byte	0x56
 7006 13ff 93       		.byte	0x93
 7007 1400 02       		.uleb128 0x2
 7008 1401 3E030000 		.4byte	.LVL147
 7009 1405 42030000 		.4byte	.LVL149
 7010 1409 0B00     		.2byte	0xb
 7011 140b 59       		.byte	0x59
 7012 140c 93       		.byte	0x93
 7013 140d 02       		.uleb128 0x2
 7014 140e 55       		.byte	0x55
 7015 140f 93       		.byte	0x93
 7016 1410 02       		.uleb128 0x2
 7017 1411 93       		.byte	0x93
 7018 1412 02       		.uleb128 0x2
 7019 1413 56       		.byte	0x56
 7020 1414 93       		.byte	0x93
 7021 1415 02       		.uleb128 0x2
 7022 1416 42030000 		.4byte	.LVL149
 7023 141a 44030000 		.4byte	.LVL150
 7024 141e 0800     		.2byte	0x8
 7025 1420 59       		.byte	0x59
 7026 1421 93       		.byte	0x93
 7027 1422 02       		.uleb128 0x2
 7028 1423 55       		.byte	0x55
 7029 1424 93       		.byte	0x93
 7030 1425 02       		.uleb128 0x2
 7031 1426 93       		.byte	0x93
 7032 1427 04       		.uleb128 0x4
 7033 1428 44030000 		.4byte	.LVL150
 7034 142c A4030000 		.4byte	.LVL152
 7035 1430 0500     		.2byte	0x5
 7036 1432 59       		.byte	0x59
 7037 1433 93       		.byte	0x93
 7038 1434 02       		.uleb128 0x2
 7039 1435 93       		.byte	0x93
 7040 1436 06       		.uleb128 0x6
ARM GAS  C:\Users\pearlstl\AppData\Local\Temp\ccVE6Vs6.s 			page 139


 7041 1437 A6030000 		.4byte	.LVL153
 7042 143b BA030000 		.4byte	.LVL155
 7043 143f 0C00     		.2byte	0xc
 7044 1441 59       		.byte	0x59
 7045 1442 93       		.byte	0x93
 7046 1443 02       		.uleb128 0x2
 7047 1444 55       		.byte	0x55
 7048 1445 93       		.byte	0x93
 7049 1446 02       		.uleb128 0x2
 7050 1447 5B       		.byte	0x5b
 7051 1448 93       		.byte	0x93
 7052 1449 02       		.uleb128 0x2
 7053 144a 56       		.byte	0x56
 7054 144b 93       		.byte	0x93
 7055 144c 02       		.uleb128 0x2
 7056 144d BA030000 		.4byte	.LVL155
 7057 1451 BE030000 		.4byte	.LVL157
 7058 1455 0B00     		.2byte	0xb
 7059 1457 59       		.byte	0x59
 7060 1458 93       		.byte	0x93
 7061 1459 02       		.uleb128 0x2
 7062 145a 55       		.byte	0x55
 7063 145b 93       		.byte	0x93
 7064 145c 02       		.uleb128 0x2
 7065 145d 93       		.byte	0x93
 7066 145e 02       		.uleb128 0x2
 7067 145f 56       		.byte	0x56
 7068 1460 93       		.byte	0x93
 7069 1461 02       		.uleb128 0x2
 7070 1462 BE030000 		.4byte	.LVL157
 7071 1466 C0030000 		.4byte	.LVL158
 7072 146a 0800     		.2byte	0x8
 7073 146c 59       		.byte	0x59
 7074 146d 93       		.byte	0x93
 7075 146e 02       		.uleb128 0x2
 7076 146f 55       		.byte	0x55
 7077 1470 93       		.byte	0x93
 7078 1471 02       		.uleb128 0x2
 7079 1472 93       		.byte	0x93
 7080 1473 04       		.uleb128 0x4
 7081 1474 C0030000 		.4byte	.LVL158
 7082 1478 12040000 		.4byte	.LVL160
 7083 147c 0500     		.2byte	0x5
 7084 147e 59       		.byte	0x59
 7085 147f 93       		.byte	0x93
 7086 1480 02       		.uleb128 0x2
 7087 1481 93       		.byte	0x93
 7088 1482 06       		.uleb128 0x6
 7089 1483 12040000 		.4byte	.LVL160
 7090 1487 28040000 		.4byte	.LVL161
 7091 148b 0C00     		.2byte	0xc
 7092 148d 59       		.byte	0x59
 7093 148e 93       		.byte	0x93
 7094 148f 02       		.uleb128 0x2
 7095 1490 55       		.byte	0x55
 7096 1491 93       		.byte	0x93
 7097 1492 02       		.uleb128 0x2
ARM GAS  C:\Users\pearlstl\AppData\Local\Temp\ccVE6Vs6.s 			page 140


 7098 1493 5B       		.byte	0x5b
 7099 1494 93       		.byte	0x93
 7100 1495 02       		.uleb128 0x2
 7101 1496 56       		.byte	0x56
 7102 1497 93       		.byte	0x93
 7103 1498 02       		.uleb128 0x2
 7104 1499 28040000 		.4byte	.LVL161
 7105 149d 52040000 		.4byte	.LVL169
 7106 14a1 0B00     		.2byte	0xb
 7107 14a3 59       		.byte	0x59
 7108 14a4 93       		.byte	0x93
 7109 14a5 02       		.uleb128 0x2
 7110 14a6 93       		.byte	0x93
 7111 14a7 02       		.uleb128 0x2
 7112 14a8 5B       		.byte	0x5b
 7113 14a9 93       		.byte	0x93
 7114 14aa 02       		.uleb128 0x2
 7115 14ab 56       		.byte	0x56
 7116 14ac 93       		.byte	0x93
 7117 14ad 02       		.uleb128 0x2
 7118 14ae 52040000 		.4byte	.LVL169
 7119 14b2 54040000 		.4byte	.LVL170
 7120 14b6 0800     		.2byte	0x8
 7121 14b8 93       		.byte	0x93
 7122 14b9 04       		.uleb128 0x4
 7123 14ba 5B       		.byte	0x5b
 7124 14bb 93       		.byte	0x93
 7125 14bc 02       		.uleb128 0x2
 7126 14bd 56       		.byte	0x56
 7127 14be 93       		.byte	0x93
 7128 14bf 02       		.uleb128 0x2
 7129 14c0 54040000 		.4byte	.LVL170
 7130 14c4 8A040000 		.4byte	.LVL179
 7131 14c8 0B00     		.2byte	0xb
 7132 14ca 59       		.byte	0x59
 7133 14cb 93       		.byte	0x93
 7134 14cc 02       		.uleb128 0x2
 7135 14cd 93       		.byte	0x93
 7136 14ce 02       		.uleb128 0x2
 7137 14cf 5B       		.byte	0x5b
 7138 14d0 93       		.byte	0x93
 7139 14d1 02       		.uleb128 0x2
 7140 14d2 56       		.byte	0x56
 7141 14d3 93       		.byte	0x93
 7142 14d4 02       		.uleb128 0x2
 7143 14d5 8A040000 		.4byte	.LVL179
 7144 14d9 8C040000 		.4byte	.LVL180
 7145 14dd 0800     		.2byte	0x8
 7146 14df 93       		.byte	0x93
 7147 14e0 04       		.uleb128 0x4
 7148 14e1 5B       		.byte	0x5b
 7149 14e2 93       		.byte	0x93
 7150 14e3 02       		.uleb128 0x2
 7151 14e4 56       		.byte	0x56
 7152 14e5 93       		.byte	0x93
 7153 14e6 02       		.uleb128 0x2
 7154 14e7 92040000 		.4byte	.LVL181
ARM GAS  C:\Users\pearlstl\AppData\Local\Temp\ccVE6Vs6.s 			page 141


 7155 14eb 9A040000 		.4byte	.LVL182
 7156 14ef 0B00     		.2byte	0xb
 7157 14f1 59       		.byte	0x59
 7158 14f2 93       		.byte	0x93
 7159 14f3 02       		.uleb128 0x2
 7160 14f4 93       		.byte	0x93
 7161 14f5 02       		.uleb128 0x2
 7162 14f6 5B       		.byte	0x5b
 7163 14f7 93       		.byte	0x93
 7164 14f8 02       		.uleb128 0x2
 7165 14f9 56       		.byte	0x56
 7166 14fa 93       		.byte	0x93
 7167 14fb 02       		.uleb128 0x2
 7168 14fc E0040000 		.4byte	.LVL193
 7169 1500 F4040000 		.4byte	.LVL199
 7170 1504 0B00     		.2byte	0xb
 7171 1506 59       		.byte	0x59
 7172 1507 93       		.byte	0x93
 7173 1508 02       		.uleb128 0x2
 7174 1509 93       		.byte	0x93
 7175 150a 02       		.uleb128 0x2
 7176 150b 5B       		.byte	0x5b
 7177 150c 93       		.byte	0x93
 7178 150d 02       		.uleb128 0x2
 7179 150e 56       		.byte	0x56
 7180 150f 93       		.byte	0x93
 7181 1510 02       		.uleb128 0x2
 7182 1511 F4040000 		.4byte	.LVL199
 7183 1515 04050000 		.4byte	.LVL200
 7184 1519 0C00     		.2byte	0xc
 7185 151b 59       		.byte	0x59
 7186 151c 93       		.byte	0x93
 7187 151d 02       		.uleb128 0x2
 7188 151e 55       		.byte	0x55
 7189 151f 93       		.byte	0x93
 7190 1520 02       		.uleb128 0x2
 7191 1521 5B       		.byte	0x5b
 7192 1522 93       		.byte	0x93
 7193 1523 02       		.uleb128 0x2
 7194 1524 56       		.byte	0x56
 7195 1525 93       		.byte	0x93
 7196 1526 02       		.uleb128 0x2
 7197 1527 04050000 		.4byte	.LVL200
 7198 152b 2C050000 		.4byte	.LVL208
 7199 152f 0B00     		.2byte	0xb
 7200 1531 59       		.byte	0x59
 7201 1532 93       		.byte	0x93
 7202 1533 02       		.uleb128 0x2
 7203 1534 93       		.byte	0x93
 7204 1535 02       		.uleb128 0x2
 7205 1536 5B       		.byte	0x5b
 7206 1537 93       		.byte	0x93
 7207 1538 02       		.uleb128 0x2
 7208 1539 56       		.byte	0x56
 7209 153a 93       		.byte	0x93
 7210 153b 02       		.uleb128 0x2
 7211 153c 2C050000 		.4byte	.LVL208
ARM GAS  C:\Users\pearlstl\AppData\Local\Temp\ccVE6Vs6.s 			page 142


 7212 1540 2E050000 		.4byte	.LVL209
 7213 1544 0800     		.2byte	0x8
 7214 1546 93       		.byte	0x93
 7215 1547 04       		.uleb128 0x4
 7216 1548 5B       		.byte	0x5b
 7217 1549 93       		.byte	0x93
 7218 154a 02       		.uleb128 0x2
 7219 154b 56       		.byte	0x56
 7220 154c 93       		.byte	0x93
 7221 154d 02       		.uleb128 0x2
 7222 154e 2E050000 		.4byte	.LVL209
 7223 1552 64050000 		.4byte	.LVL218
 7224 1556 0B00     		.2byte	0xb
 7225 1558 59       		.byte	0x59
 7226 1559 93       		.byte	0x93
 7227 155a 02       		.uleb128 0x2
 7228 155b 93       		.byte	0x93
 7229 155c 02       		.uleb128 0x2
 7230 155d 5B       		.byte	0x5b
 7231 155e 93       		.byte	0x93
 7232 155f 02       		.uleb128 0x2
 7233 1560 56       		.byte	0x56
 7234 1561 93       		.byte	0x93
 7235 1562 02       		.uleb128 0x2
 7236 1563 64050000 		.4byte	.LVL218
 7237 1567 66050000 		.4byte	.LVL219
 7238 156b 0800     		.2byte	0x8
 7239 156d 93       		.byte	0x93
 7240 156e 04       		.uleb128 0x4
 7241 156f 5B       		.byte	0x5b
 7242 1570 93       		.byte	0x93
 7243 1571 02       		.uleb128 0x2
 7244 1572 56       		.byte	0x56
 7245 1573 93       		.byte	0x93
 7246 1574 02       		.uleb128 0x2
 7247 1575 66050000 		.4byte	.LVL219
 7248 1579 94050000 		.4byte	.LVL227
 7249 157d 0B00     		.2byte	0xb
 7250 157f 59       		.byte	0x59
 7251 1580 93       		.byte	0x93
 7252 1581 02       		.uleb128 0x2
 7253 1582 93       		.byte	0x93
 7254 1583 02       		.uleb128 0x2
 7255 1584 5B       		.byte	0x5b
 7256 1585 93       		.byte	0x93
 7257 1586 02       		.uleb128 0x2
 7258 1587 56       		.byte	0x56
 7259 1588 93       		.byte	0x93
 7260 1589 02       		.uleb128 0x2
 7261 158a 00000000 		.4byte	0
 7262 158e 00000000 		.4byte	0
 7263              	.LLST42:
 7264 1592 2A000000 		.4byte	.LVL112
 7265 1596 32000000 		.4byte	.LVL114
 7266 159a 0300     		.2byte	0x3
 7267 159c 74       		.byte	0x74
 7268 159d 74       		.sleb128 -12
ARM GAS  C:\Users\pearlstl\AppData\Local\Temp\ccVE6Vs6.s 			page 143


 7269 159e 9F       		.byte	0x9f
 7270 159f 32000000 		.4byte	.LVL114
 7271 15a3 4A000000 		.4byte	.LVL115
 7272 15a7 0300     		.2byte	0x3
 7273 15a9 91       		.byte	0x91
 7274 15aa 4C       		.sleb128 -52
 7275 15ab 9F       		.byte	0x9f
 7276 15ac 00000000 		.4byte	0
 7277 15b0 00000000 		.4byte	0
 7278              	.LLST43:
 7279 15b4 2A000000 		.4byte	.LVL112
 7280 15b8 4A000000 		.4byte	.LVL115
 7281 15bc 0300     		.2byte	0x3
 7282 15be 91       		.byte	0x91
 7283 15bf 50       		.sleb128 -48
 7284 15c0 9F       		.byte	0x9f
 7285 15c1 00000000 		.4byte	0
 7286 15c5 00000000 		.4byte	0
 7287              	.LLST44:
 7288 15c9 66020000 		.4byte	.LVL132
 7289 15cd AE020000 		.4byte	.LVL137
 7290 15d1 0300     		.2byte	0x3
 7291 15d3 91       		.byte	0x91
 7292 15d4 50       		.sleb128 -48
 7293 15d5 9F       		.byte	0x9f
 7294 15d6 94050000 		.4byte	.LVL227
 7295 15da 9E050000 		.4byte	.LFE34
 7296 15de 0300     		.2byte	0x3
 7297 15e0 91       		.byte	0x91
 7298 15e1 50       		.sleb128 -48
 7299 15e2 9F       		.byte	0x9f
 7300 15e3 00000000 		.4byte	0
 7301 15e7 00000000 		.4byte	0
 7302              	.LLST45:
 7303 15eb 66020000 		.4byte	.LVL132
 7304 15ef AE020000 		.4byte	.LVL137
 7305 15f3 0300     		.2byte	0x3
 7306 15f5 91       		.byte	0x91
 7307 15f6 54       		.sleb128 -44
 7308 15f7 9F       		.byte	0x9f
 7309 15f8 94050000 		.4byte	.LVL227
 7310 15fc 9E050000 		.4byte	.LFE34
 7311 1600 0300     		.2byte	0x3
 7312 1602 91       		.byte	0x91
 7313 1603 54       		.sleb128 -44
 7314 1604 9F       		.byte	0x9f
 7315 1605 00000000 		.4byte	0
 7316 1609 00000000 		.4byte	0
 7317              	.LLST46:
 7318 160d 00000000 		.4byte	.LVL229
 7319 1611 85000000 		.4byte	.LVL234-1
 7320 1615 0100     		.2byte	0x1
 7321 1617 50       		.byte	0x50
 7322 1618 85000000 		.4byte	.LVL234-1
 7323 161c 86000000 		.4byte	.LVL234
 7324 1620 0400     		.2byte	0x4
 7325 1622 F3       		.byte	0xf3
ARM GAS  C:\Users\pearlstl\AppData\Local\Temp\ccVE6Vs6.s 			page 144


 7326 1623 01       		.uleb128 0x1
 7327 1624 50       		.byte	0x50
 7328 1625 9F       		.byte	0x9f
 7329 1626 86000000 		.4byte	.LVL234
 7330 162a 8D000000 		.4byte	.LVL235-1
 7331 162e 0100     		.2byte	0x1
 7332 1630 50       		.byte	0x50
 7333 1631 8D000000 		.4byte	.LVL235-1
 7334 1635 8E000000 		.4byte	.LVL235
 7335 1639 0400     		.2byte	0x4
 7336 163b F3       		.byte	0xf3
 7337 163c 01       		.uleb128 0x1
 7338 163d 50       		.byte	0x50
 7339 163e 9F       		.byte	0x9f
 7340 163f 8E000000 		.4byte	.LVL235
 7341 1643 C8000000 		.4byte	.LFE31
 7342 1647 0100     		.2byte	0x1
 7343 1649 50       		.byte	0x50
 7344 164a 00000000 		.4byte	0
 7345 164e 00000000 		.4byte	0
 7346              	.LLST47:
 7347 1652 00000000 		.4byte	.LVL229
 7348 1656 85000000 		.4byte	.LVL234-1
 7349 165a 0100     		.2byte	0x1
 7350 165c 51       		.byte	0x51
 7351 165d 85000000 		.4byte	.LVL234-1
 7352 1661 86000000 		.4byte	.LVL234
 7353 1665 0400     		.2byte	0x4
 7354 1667 F3       		.byte	0xf3
 7355 1668 01       		.uleb128 0x1
 7356 1669 51       		.byte	0x51
 7357 166a 9F       		.byte	0x9f
 7358 166b 86000000 		.4byte	.LVL234
 7359 166f 8D000000 		.4byte	.LVL235-1
 7360 1673 0100     		.2byte	0x1
 7361 1675 51       		.byte	0x51
 7362 1676 8D000000 		.4byte	.LVL235-1
 7363 167a 8E000000 		.4byte	.LVL235
 7364 167e 0400     		.2byte	0x4
 7365 1680 F3       		.byte	0xf3
 7366 1681 01       		.uleb128 0x1
 7367 1682 51       		.byte	0x51
 7368 1683 9F       		.byte	0x9f
 7369 1684 8E000000 		.4byte	.LVL235
 7370 1688 C8000000 		.4byte	.LFE31
 7371 168c 0100     		.2byte	0x1
 7372 168e 51       		.byte	0x51
 7373 168f 00000000 		.4byte	0
 7374 1693 00000000 		.4byte	0
 7375              	.LLST48:
 7376 1697 00000000 		.4byte	.LVL229
 7377 169b 85000000 		.4byte	.LVL234-1
 7378 169f 0100     		.2byte	0x1
 7379 16a1 52       		.byte	0x52
 7380 16a2 85000000 		.4byte	.LVL234-1
 7381 16a6 86000000 		.4byte	.LVL234
 7382 16aa 0400     		.2byte	0x4
ARM GAS  C:\Users\pearlstl\AppData\Local\Temp\ccVE6Vs6.s 			page 145


 7383 16ac F3       		.byte	0xf3
 7384 16ad 01       		.uleb128 0x1
 7385 16ae 52       		.byte	0x52
 7386 16af 9F       		.byte	0x9f
 7387 16b0 86000000 		.4byte	.LVL234
 7388 16b4 8D000000 		.4byte	.LVL235-1
 7389 16b8 0100     		.2byte	0x1
 7390 16ba 52       		.byte	0x52
 7391 16bb 8D000000 		.4byte	.LVL235-1
 7392 16bf 8E000000 		.4byte	.LVL235
 7393 16c3 0400     		.2byte	0x4
 7394 16c5 F3       		.byte	0xf3
 7395 16c6 01       		.uleb128 0x1
 7396 16c7 52       		.byte	0x52
 7397 16c8 9F       		.byte	0x9f
 7398 16c9 8E000000 		.4byte	.LVL235
 7399 16cd C8000000 		.4byte	.LFE31
 7400 16d1 0100     		.2byte	0x1
 7401 16d3 52       		.byte	0x52
 7402 16d4 00000000 		.4byte	0
 7403 16d8 00000000 		.4byte	0
 7404              	.LLST49:
 7405 16dc 00000000 		.4byte	.LVL229
 7406 16e0 34000000 		.4byte	.LVL230
 7407 16e4 0100     		.2byte	0x1
 7408 16e6 53       		.byte	0x53
 7409 16e7 34000000 		.4byte	.LVL230
 7410 16eb 8E000000 		.4byte	.LVL235
 7411 16ef 0400     		.2byte	0x4
 7412 16f1 F3       		.byte	0xf3
 7413 16f2 01       		.uleb128 0x1
 7414 16f3 53       		.byte	0x53
 7415 16f4 9F       		.byte	0x9f
 7416 16f5 8E000000 		.4byte	.LVL235
 7417 16f9 C8000000 		.4byte	.LFE31
 7418 16fd 0100     		.2byte	0x1
 7419 16ff 53       		.byte	0x53
 7420 1700 00000000 		.4byte	0
 7421 1704 00000000 		.4byte	0
 7422              	.LLST50:
 7423 1708 3A000000 		.4byte	.LVL231
 7424 170c 85000000 		.4byte	.LVL234-1
 7425 1710 0100     		.2byte	0x1
 7426 1712 53       		.byte	0x53
 7427 1713 86000000 		.4byte	.LVL234
 7428 1717 8D000000 		.4byte	.LVL235-1
 7429 171b 0100     		.2byte	0x1
 7430 171d 53       		.byte	0x53
 7431 171e 00000000 		.4byte	0
 7432 1722 00000000 		.4byte	0
 7433              	.LLST51:
 7434 1726 3A000000 		.4byte	.LVL231
 7435 172a 56000000 		.4byte	.LVL232
 7436 172e 2100     		.2byte	0x21
 7437 1730 74       		.byte	0x74
 7438 1731 00       		.sleb128 0
 7439 1732 12       		.byte	0x12
ARM GAS  C:\Users\pearlstl\AppData\Local\Temp\ccVE6Vs6.s 			page 146


 7440 1733 40       		.byte	0x40
 7441 1734 24       		.byte	0x24
 7442 1735 75       		.byte	0x75
 7443 1736 00       		.sleb128 0
 7444 1737 16       		.byte	0x16
 7445 1738 14       		.byte	0x14
 7446 1739 40       		.byte	0x40
 7447 173a 24       		.byte	0x24
 7448 173b 2D       		.byte	0x2d
 7449 173c 28       		.byte	0x28
 7450 173d 0100     		.2byte	0x1
 7451 173f 16       		.byte	0x16
 7452 1740 13       		.byte	0x13
 7453 1741 12       		.byte	0x12
 7454 1742 40       		.byte	0x40
 7455 1743 24       		.byte	0x24
 7456 1744 7C       		.byte	0x7c
 7457 1745 00       		.sleb128 0
 7458 1746 16       		.byte	0x16
 7459 1747 14       		.byte	0x14
 7460 1748 40       		.byte	0x40
 7461 1749 24       		.byte	0x24
 7462 174a 2D       		.byte	0x2d
 7463 174b 28       		.byte	0x28
 7464 174c 0100     		.2byte	0x1
 7465 174e 16       		.byte	0x16
 7466 174f 13       		.byte	0x13
 7467 1750 9F       		.byte	0x9f
 7468 1751 00000000 		.4byte	0
 7469 1755 00000000 		.4byte	0
 7470              	.LLST52:
 7471 1759 3A000000 		.4byte	.LVL231
 7472 175d 56000000 		.4byte	.LVL232
 7473 1761 2100     		.2byte	0x21
 7474 1763 74       		.byte	0x74
 7475 1764 00       		.sleb128 0
 7476 1765 12       		.byte	0x12
 7477 1766 40       		.byte	0x40
 7478 1767 24       		.byte	0x24
 7479 1768 75       		.byte	0x75
 7480 1769 00       		.sleb128 0
 7481 176a 16       		.byte	0x16
 7482 176b 14       		.byte	0x14
 7483 176c 40       		.byte	0x40
 7484 176d 24       		.byte	0x24
 7485 176e 2B       		.byte	0x2b
 7486 176f 28       		.byte	0x28
 7487 1770 0100     		.2byte	0x1
 7488 1772 16       		.byte	0x16
 7489 1773 13       		.byte	0x13
 7490 1774 12       		.byte	0x12
 7491 1775 40       		.byte	0x40
 7492 1776 24       		.byte	0x24
 7493 1777 7C       		.byte	0x7c
 7494 1778 00       		.sleb128 0
 7495 1779 16       		.byte	0x16
 7496 177a 14       		.byte	0x14
ARM GAS  C:\Users\pearlstl\AppData\Local\Temp\ccVE6Vs6.s 			page 147


 7497 177b 40       		.byte	0x40
 7498 177c 24       		.byte	0x24
 7499 177d 2B       		.byte	0x2b
 7500 177e 28       		.byte	0x28
 7501 177f 0100     		.2byte	0x1
 7502 1781 16       		.byte	0x16
 7503 1782 13       		.byte	0x13
 7504 1783 9F       		.byte	0x9f
 7505 1784 00000000 		.4byte	0
 7506 1788 00000000 		.4byte	0
 7507              	.LLST53:
 7508 178c 3A000000 		.4byte	.LVL231
 7509 1790 62000000 		.4byte	.LVL233
 7510 1794 2100     		.2byte	0x21
 7511 1796 76       		.byte	0x76
 7512 1797 00       		.sleb128 0
 7513 1798 12       		.byte	0x12
 7514 1799 40       		.byte	0x40
 7515 179a 24       		.byte	0x24
 7516 179b 79       		.byte	0x79
 7517 179c 00       		.sleb128 0
 7518 179d 16       		.byte	0x16
 7519 179e 14       		.byte	0x14
 7520 179f 40       		.byte	0x40
 7521 17a0 24       		.byte	0x24
 7522 17a1 2D       		.byte	0x2d
 7523 17a2 28       		.byte	0x28
 7524 17a3 0100     		.2byte	0x1
 7525 17a5 16       		.byte	0x16
 7526 17a6 13       		.byte	0x13
 7527 17a7 12       		.byte	0x12
 7528 17a8 40       		.byte	0x40
 7529 17a9 24       		.byte	0x24
 7530 17aa 78       		.byte	0x78
 7531 17ab 00       		.sleb128 0
 7532 17ac 16       		.byte	0x16
 7533 17ad 14       		.byte	0x14
 7534 17ae 40       		.byte	0x40
 7535 17af 24       		.byte	0x24
 7536 17b0 2D       		.byte	0x2d
 7537 17b1 28       		.byte	0x28
 7538 17b2 0100     		.2byte	0x1
 7539 17b4 16       		.byte	0x16
 7540 17b5 13       		.byte	0x13
 7541 17b6 9F       		.byte	0x9f
 7542 17b7 00000000 		.4byte	0
 7543 17bb 00000000 		.4byte	0
 7544              	.LLST54:
 7545 17bf 3A000000 		.4byte	.LVL231
 7546 17c3 62000000 		.4byte	.LVL233
 7547 17c7 2100     		.2byte	0x21
 7548 17c9 76       		.byte	0x76
 7549 17ca 00       		.sleb128 0
 7550 17cb 12       		.byte	0x12
 7551 17cc 40       		.byte	0x40
 7552 17cd 24       		.byte	0x24
 7553 17ce 79       		.byte	0x79
ARM GAS  C:\Users\pearlstl\AppData\Local\Temp\ccVE6Vs6.s 			page 148


 7554 17cf 00       		.sleb128 0
 7555 17d0 16       		.byte	0x16
 7556 17d1 14       		.byte	0x14
 7557 17d2 40       		.byte	0x40
 7558 17d3 24       		.byte	0x24
 7559 17d4 2B       		.byte	0x2b
 7560 17d5 28       		.byte	0x28
 7561 17d6 0100     		.2byte	0x1
 7562 17d8 16       		.byte	0x16
 7563 17d9 13       		.byte	0x13
 7564 17da 12       		.byte	0x12
 7565 17db 40       		.byte	0x40
 7566 17dc 24       		.byte	0x24
 7567 17dd 78       		.byte	0x78
 7568 17de 00       		.sleb128 0
 7569 17df 16       		.byte	0x16
 7570 17e0 14       		.byte	0x14
 7571 17e1 40       		.byte	0x40
 7572 17e2 24       		.byte	0x24
 7573 17e3 2B       		.byte	0x2b
 7574 17e4 28       		.byte	0x28
 7575 17e5 0100     		.2byte	0x1
 7576 17e7 16       		.byte	0x16
 7577 17e8 13       		.byte	0x13
 7578 17e9 9F       		.byte	0x9f
 7579 17ea 00000000 		.4byte	0
 7580 17ee 00000000 		.4byte	0
 7581              	.LLST55:
 7582 17f2 00000000 		.4byte	.LVL236
 7583 17f6 2C000000 		.4byte	.LVL240
 7584 17fa 0100     		.2byte	0x1
 7585 17fc 50       		.byte	0x50
 7586 17fd 2C000000 		.4byte	.LVL240
 7587 1801 16010000 		.4byte	.LFE32
 7588 1805 0400     		.2byte	0x4
 7589 1807 F3       		.byte	0xf3
 7590 1808 01       		.uleb128 0x1
 7591 1809 50       		.byte	0x50
 7592 180a 9F       		.byte	0x9f
 7593 180b 00000000 		.4byte	0
 7594 180f 00000000 		.4byte	0
 7595              	.LLST56:
 7596 1813 00000000 		.4byte	.LVL236
 7597 1817 2C000000 		.4byte	.LVL240
 7598 181b 0100     		.2byte	0x1
 7599 181d 51       		.byte	0x51
 7600 181e 2C000000 		.4byte	.LVL240
 7601 1822 DE000000 		.4byte	.LVL254
 7602 1826 0300     		.2byte	0x3
 7603 1828 77       		.byte	0x77
 7604 1829 01       		.sleb128 1
 7605 182a 9F       		.byte	0x9f
 7606 182b DE000000 		.4byte	.LVL254
 7607 182f 16010000 		.4byte	.LFE32
 7608 1833 0400     		.2byte	0x4
 7609 1835 F3       		.byte	0xf3
 7610 1836 01       		.uleb128 0x1
ARM GAS  C:\Users\pearlstl\AppData\Local\Temp\ccVE6Vs6.s 			page 149


 7611 1837 51       		.byte	0x51
 7612 1838 9F       		.byte	0x9f
 7613 1839 00000000 		.4byte	0
 7614 183d 00000000 		.4byte	0
 7615              	.LLST57:
 7616 1841 00000000 		.4byte	.LVL236
 7617 1845 1E000000 		.4byte	.LVL238
 7618 1849 0100     		.2byte	0x1
 7619 184b 52       		.byte	0x52
 7620 184c 1E000000 		.4byte	.LVL238
 7621 1850 DE000000 		.4byte	.LVL254
 7622 1854 0200     		.2byte	0x2
 7623 1856 91       		.byte	0x91
 7624 1857 44       		.sleb128 -60
 7625 1858 DE000000 		.4byte	.LVL254
 7626 185c E4000000 		.4byte	.LVL255
 7627 1860 0400     		.2byte	0x4
 7628 1862 F3       		.byte	0xf3
 7629 1863 01       		.uleb128 0x1
 7630 1864 52       		.byte	0x52
 7631 1865 9F       		.byte	0x9f
 7632 1866 E4000000 		.4byte	.LVL255
 7633 186a 16010000 		.4byte	.LFE32
 7634 186e 0200     		.2byte	0x2
 7635 1870 91       		.byte	0x91
 7636 1871 44       		.sleb128 -60
 7637 1872 00000000 		.4byte	0
 7638 1876 00000000 		.4byte	0
 7639              	.LLST58:
 7640 187a 00000000 		.4byte	.LVL236
 7641 187e 1C000000 		.4byte	.LVL237
 7642 1882 0100     		.2byte	0x1
 7643 1884 53       		.byte	0x53
 7644 1885 1C000000 		.4byte	.LVL237
 7645 1889 2C000000 		.4byte	.LVL240
 7646 188d 0100     		.2byte	0x1
 7647 188f 56       		.byte	0x56
 7648 1890 2C000000 		.4byte	.LVL240
 7649 1894 2F000000 		.4byte	.LVL241-1
 7650 1898 0100     		.2byte	0x1
 7651 189a 52       		.byte	0x52
 7652 189b 2F000000 		.4byte	.LVL241-1
 7653 189f D2000000 		.4byte	.LVL251
 7654 18a3 0100     		.2byte	0x1
 7655 18a5 56       		.byte	0x56
 7656 18a6 D2000000 		.4byte	.LVL251
 7657 18aa D5000000 		.4byte	.LVL252-1
 7658 18ae 0100     		.2byte	0x1
 7659 18b0 52       		.byte	0x52
 7660 18b1 D5000000 		.4byte	.LVL252-1
 7661 18b5 DE000000 		.4byte	.LVL254
 7662 18b9 0100     		.2byte	0x1
 7663 18bb 56       		.byte	0x56
 7664 18bc DE000000 		.4byte	.LVL254
 7665 18c0 E4000000 		.4byte	.LVL255
 7666 18c4 0400     		.2byte	0x4
 7667 18c6 F3       		.byte	0xf3
ARM GAS  C:\Users\pearlstl\AppData\Local\Temp\ccVE6Vs6.s 			page 150


 7668 18c7 01       		.uleb128 0x1
 7669 18c8 53       		.byte	0x53
 7670 18c9 9F       		.byte	0x9f
 7671 18ca E4000000 		.4byte	.LVL255
 7672 18ce 16010000 		.4byte	.LFE32
 7673 18d2 0100     		.2byte	0x1
 7674 18d4 56       		.byte	0x56
 7675 18d5 00000000 		.4byte	0
 7676 18d9 00000000 		.4byte	0
 7677              	.LLST59:
 7678 18dd 00000000 		.4byte	.LVL236
 7679 18e1 E4000000 		.4byte	.LVL255
 7680 18e5 0200     		.2byte	0x2
 7681 18e7 91       		.byte	0x91
 7682 18e8 00       		.sleb128 0
 7683 18e9 E4000000 		.4byte	.LVL255
 7684 18ed 16010000 		.4byte	.LFE32
 7685 18f1 0200     		.2byte	0x2
 7686 18f3 91       		.byte	0x91
 7687 18f4 00       		.sleb128 0
 7688 18f5 00000000 		.4byte	0
 7689 18f9 00000000 		.4byte	0
 7690              	.LLST60:
 7691 18fd 28000000 		.4byte	.LVL239
 7692 1901 2C000000 		.4byte	.LVL240
 7693 1905 0200     		.2byte	0x2
 7694 1907 30       		.byte	0x30
 7695 1908 9F       		.byte	0x9f
 7696 1909 2C000000 		.4byte	.LVL240
 7697 190d 36000000 		.4byte	.LVL242
 7698 1911 0300     		.2byte	0x3
 7699 1913 75       		.byte	0x75
 7700 1914 7F       		.sleb128 -1
 7701 1915 9F       		.byte	0x9f
 7702 1916 36000000 		.4byte	.LVL242
 7703 191a 56000000 		.4byte	.LVL244
 7704 191e 0100     		.2byte	0x1
 7705 1920 55       		.byte	0x55
 7706 1921 56000000 		.4byte	.LVL244
 7707 1925 DC000000 		.4byte	.LVL253
 7708 1929 0300     		.2byte	0x3
 7709 192b 75       		.byte	0x75
 7710 192c 7F       		.sleb128 -1
 7711 192d 9F       		.byte	0x9f
 7712 192e DC000000 		.4byte	.LVL253
 7713 1932 DE000000 		.4byte	.LVL254
 7714 1936 0100     		.2byte	0x1
 7715 1938 55       		.byte	0x55
 7716 1939 E4000000 		.4byte	.LVL255
 7717 193d 16010000 		.4byte	.LFE32
 7718 1941 0300     		.2byte	0x3
 7719 1943 75       		.byte	0x75
 7720 1944 7F       		.sleb128 -1
 7721 1945 9F       		.byte	0x9f
 7722 1946 00000000 		.4byte	0
 7723 194a 00000000 		.4byte	0
 7724              	.LLST61:
ARM GAS  C:\Users\pearlstl\AppData\Local\Temp\ccVE6Vs6.s 			page 151


 7725 194e 2C000000 		.4byte	.LVL240
 7726 1952 2F000000 		.4byte	.LVL241-1
 7727 1956 0100     		.2byte	0x1
 7728 1958 50       		.byte	0x50
 7729 1959 2F000000 		.4byte	.LVL241-1
 7730 195d 38000000 		.4byte	.LVL243
 7731 1961 0300     		.2byte	0x3
 7732 1963 91       		.byte	0x91
 7733 1964 4C       		.sleb128 -52
 7734 1965 9F       		.byte	0x9f
 7735 1966 62000000 		.4byte	.LVL245
 7736 196a D0000000 		.4byte	.LVL250
 7737 196e 0300     		.2byte	0x3
 7738 1970 91       		.byte	0x91
 7739 1971 4C       		.sleb128 -52
 7740 1972 9F       		.byte	0x9f
 7741 1973 D0000000 		.4byte	.LVL250
 7742 1977 D5000000 		.4byte	.LVL252-1
 7743 197b 0100     		.2byte	0x1
 7744 197d 50       		.byte	0x50
 7745 197e D5000000 		.4byte	.LVL252-1
 7746 1982 DE000000 		.4byte	.LVL254
 7747 1986 0300     		.2byte	0x3
 7748 1988 91       		.byte	0x91
 7749 1989 4C       		.sleb128 -52
 7750 198a 9F       		.byte	0x9f
 7751 198b E4000000 		.4byte	.LVL255
 7752 198f 16010000 		.4byte	.LFE32
 7753 1993 0300     		.2byte	0x3
 7754 1995 91       		.byte	0x91
 7755 1996 4C       		.sleb128 -52
 7756 1997 9F       		.byte	0x9f
 7757 1998 00000000 		.4byte	0
 7758 199c 00000000 		.4byte	0
 7759              	.LLST62:
 7760 19a0 2C000000 		.4byte	.LVL240
 7761 19a4 2F000000 		.4byte	.LVL241-1
 7762 19a8 0100     		.2byte	0x1
 7763 19aa 53       		.byte	0x53
 7764 19ab 88000000 		.4byte	.LVL246
 7765 19af D5000000 		.4byte	.LVL252-1
 7766 19b3 0100     		.2byte	0x1
 7767 19b5 53       		.byte	0x53
 7768 19b6 00000000 		.4byte	0
 7769 19ba 00000000 		.4byte	0
 7770              	.LLST63:
 7771 19be 2C000000 		.4byte	.LVL240
 7772 19c2 2F000000 		.4byte	.LVL241-1
 7773 19c6 2500     		.2byte	0x25
 7774 19c8 91       		.byte	0x91
 7775 19c9 50       		.sleb128 -48
 7776 19ca 94       		.byte	0x94
 7777 19cb 02       		.byte	0x2
 7778 19cc 12       		.byte	0x12
 7779 19cd 40       		.byte	0x40
 7780 19ce 24       		.byte	0x24
 7781 19cf 91       		.byte	0x91
ARM GAS  C:\Users\pearlstl\AppData\Local\Temp\ccVE6Vs6.s 			page 152


 7782 19d0 54       		.sleb128 -44
 7783 19d1 94       		.byte	0x94
 7784 19d2 02       		.byte	0x2
 7785 19d3 16       		.byte	0x16
 7786 19d4 14       		.byte	0x14
 7787 19d5 40       		.byte	0x40
 7788 19d6 24       		.byte	0x24
 7789 19d7 2D       		.byte	0x2d
 7790 19d8 28       		.byte	0x28
 7791 19d9 0100     		.2byte	0x1
 7792 19db 16       		.byte	0x16
 7793 19dc 13       		.byte	0x13
 7794 19dd 12       		.byte	0x12
 7795 19de 40       		.byte	0x40
 7796 19df 24       		.byte	0x24
 7797 19e0 7E       		.byte	0x7e
 7798 19e1 00       		.sleb128 0
 7799 19e2 16       		.byte	0x16
 7800 19e3 14       		.byte	0x14
 7801 19e4 40       		.byte	0x40
 7802 19e5 24       		.byte	0x24
 7803 19e6 2D       		.byte	0x2d
 7804 19e7 28       		.byte	0x28
 7805 19e8 0100     		.2byte	0x1
 7806 19ea 16       		.byte	0x16
 7807 19eb 13       		.byte	0x13
 7808 19ec 9F       		.byte	0x9f
 7809 19ed 88000000 		.4byte	.LVL246
 7810 19f1 A4000000 		.4byte	.LVL247
 7811 19f5 2100     		.2byte	0x21
 7812 19f7 71       		.byte	0x71
 7813 19f8 00       		.sleb128 0
 7814 19f9 12       		.byte	0x12
 7815 19fa 40       		.byte	0x40
 7816 19fb 24       		.byte	0x24
 7817 19fc 72       		.byte	0x72
 7818 19fd 00       		.sleb128 0
 7819 19fe 16       		.byte	0x16
 7820 19ff 14       		.byte	0x14
 7821 1a00 40       		.byte	0x40
 7822 1a01 24       		.byte	0x24
 7823 1a02 2D       		.byte	0x2d
 7824 1a03 28       		.byte	0x28
 7825 1a04 0100     		.2byte	0x1
 7826 1a06 16       		.byte	0x16
 7827 1a07 13       		.byte	0x13
 7828 1a08 12       		.byte	0x12
 7829 1a09 40       		.byte	0x40
 7830 1a0a 24       		.byte	0x24
 7831 1a0b 7E       		.byte	0x7e
 7832 1a0c 00       		.sleb128 0
 7833 1a0d 16       		.byte	0x16
 7834 1a0e 14       		.byte	0x14
 7835 1a0f 40       		.byte	0x40
 7836 1a10 24       		.byte	0x24
 7837 1a11 2D       		.byte	0x2d
 7838 1a12 28       		.byte	0x28
ARM GAS  C:\Users\pearlstl\AppData\Local\Temp\ccVE6Vs6.s 			page 153


 7839 1a13 0100     		.2byte	0x1
 7840 1a15 16       		.byte	0x16
 7841 1a16 13       		.byte	0x13
 7842 1a17 9F       		.byte	0x9f
 7843 1a18 A4000000 		.4byte	.LVL247
 7844 1a1c CC000000 		.4byte	.LVL249
 7845 1a20 2300     		.2byte	0x23
 7846 1a22 71       		.byte	0x71
 7847 1a23 00       		.sleb128 0
 7848 1a24 12       		.byte	0x12
 7849 1a25 40       		.byte	0x40
 7850 1a26 24       		.byte	0x24
 7851 1a27 91       		.byte	0x91
 7852 1a28 54       		.sleb128 -44
 7853 1a29 94       		.byte	0x94
 7854 1a2a 02       		.byte	0x2
 7855 1a2b 16       		.byte	0x16
 7856 1a2c 14       		.byte	0x14
 7857 1a2d 40       		.byte	0x40
 7858 1a2e 24       		.byte	0x24
 7859 1a2f 2D       		.byte	0x2d
 7860 1a30 28       		.byte	0x28
 7861 1a31 0100     		.2byte	0x1
 7862 1a33 16       		.byte	0x16
 7863 1a34 13       		.byte	0x13
 7864 1a35 12       		.byte	0x12
 7865 1a36 40       		.byte	0x40
 7866 1a37 24       		.byte	0x24
 7867 1a38 7E       		.byte	0x7e
 7868 1a39 00       		.sleb128 0
 7869 1a3a 16       		.byte	0x16
 7870 1a3b 14       		.byte	0x14
 7871 1a3c 40       		.byte	0x40
 7872 1a3d 24       		.byte	0x24
 7873 1a3e 2D       		.byte	0x2d
 7874 1a3f 28       		.byte	0x28
 7875 1a40 0100     		.2byte	0x1
 7876 1a42 16       		.byte	0x16
 7877 1a43 13       		.byte	0x13
 7878 1a44 9F       		.byte	0x9f
 7879 1a45 CC000000 		.4byte	.LVL249
 7880 1a49 D5000000 		.4byte	.LVL252-1
 7881 1a4d 2500     		.2byte	0x25
 7882 1a4f 91       		.byte	0x91
 7883 1a50 50       		.sleb128 -48
 7884 1a51 94       		.byte	0x94
 7885 1a52 02       		.byte	0x2
 7886 1a53 12       		.byte	0x12
 7887 1a54 40       		.byte	0x40
 7888 1a55 24       		.byte	0x24
 7889 1a56 91       		.byte	0x91
 7890 1a57 54       		.sleb128 -44
 7891 1a58 94       		.byte	0x94
 7892 1a59 02       		.byte	0x2
 7893 1a5a 16       		.byte	0x16
 7894 1a5b 14       		.byte	0x14
 7895 1a5c 40       		.byte	0x40
ARM GAS  C:\Users\pearlstl\AppData\Local\Temp\ccVE6Vs6.s 			page 154


 7896 1a5d 24       		.byte	0x24
 7897 1a5e 2D       		.byte	0x2d
 7898 1a5f 28       		.byte	0x28
 7899 1a60 0100     		.2byte	0x1
 7900 1a62 16       		.byte	0x16
 7901 1a63 13       		.byte	0x13
 7902 1a64 12       		.byte	0x12
 7903 1a65 40       		.byte	0x40
 7904 1a66 24       		.byte	0x24
 7905 1a67 7E       		.byte	0x7e
 7906 1a68 00       		.sleb128 0
 7907 1a69 16       		.byte	0x16
 7908 1a6a 14       		.byte	0x14
 7909 1a6b 40       		.byte	0x40
 7910 1a6c 24       		.byte	0x24
 7911 1a6d 2D       		.byte	0x2d
 7912 1a6e 28       		.byte	0x28
 7913 1a6f 0100     		.2byte	0x1
 7914 1a71 16       		.byte	0x16
 7915 1a72 13       		.byte	0x13
 7916 1a73 9F       		.byte	0x9f
 7917 1a74 00000000 		.4byte	0
 7918 1a78 00000000 		.4byte	0
 7919              	.LLST64:
 7920 1a7c 2C000000 		.4byte	.LVL240
 7921 1a80 2F000000 		.4byte	.LVL241-1
 7922 1a84 2500     		.2byte	0x25
 7923 1a86 91       		.byte	0x91
 7924 1a87 50       		.sleb128 -48
 7925 1a88 94       		.byte	0x94
 7926 1a89 02       		.byte	0x2
 7927 1a8a 12       		.byte	0x12
 7928 1a8b 40       		.byte	0x40
 7929 1a8c 24       		.byte	0x24
 7930 1a8d 91       		.byte	0x91
 7931 1a8e 54       		.sleb128 -44
 7932 1a8f 94       		.byte	0x94
 7933 1a90 02       		.byte	0x2
 7934 1a91 16       		.byte	0x16
 7935 1a92 14       		.byte	0x14
 7936 1a93 40       		.byte	0x40
 7937 1a94 24       		.byte	0x24
 7938 1a95 2B       		.byte	0x2b
 7939 1a96 28       		.byte	0x28
 7940 1a97 0100     		.2byte	0x1
 7941 1a99 16       		.byte	0x16
 7942 1a9a 13       		.byte	0x13
 7943 1a9b 12       		.byte	0x12
 7944 1a9c 40       		.byte	0x40
 7945 1a9d 24       		.byte	0x24
 7946 1a9e 7E       		.byte	0x7e
 7947 1a9f 00       		.sleb128 0
 7948 1aa0 16       		.byte	0x16
 7949 1aa1 14       		.byte	0x14
 7950 1aa2 40       		.byte	0x40
 7951 1aa3 24       		.byte	0x24
 7952 1aa4 2B       		.byte	0x2b
ARM GAS  C:\Users\pearlstl\AppData\Local\Temp\ccVE6Vs6.s 			page 155


 7953 1aa5 28       		.byte	0x28
 7954 1aa6 0100     		.2byte	0x1
 7955 1aa8 16       		.byte	0x16
 7956 1aa9 13       		.byte	0x13
 7957 1aaa 9F       		.byte	0x9f
 7958 1aab 88000000 		.4byte	.LVL246
 7959 1aaf A4000000 		.4byte	.LVL247
 7960 1ab3 2100     		.2byte	0x21
 7961 1ab5 71       		.byte	0x71
 7962 1ab6 00       		.sleb128 0
 7963 1ab7 12       		.byte	0x12
 7964 1ab8 40       		.byte	0x40
 7965 1ab9 24       		.byte	0x24
 7966 1aba 72       		.byte	0x72
 7967 1abb 00       		.sleb128 0
 7968 1abc 16       		.byte	0x16
 7969 1abd 14       		.byte	0x14
 7970 1abe 40       		.byte	0x40
 7971 1abf 24       		.byte	0x24
 7972 1ac0 2B       		.byte	0x2b
 7973 1ac1 28       		.byte	0x28
 7974 1ac2 0100     		.2byte	0x1
 7975 1ac4 16       		.byte	0x16
 7976 1ac5 13       		.byte	0x13
 7977 1ac6 12       		.byte	0x12
 7978 1ac7 40       		.byte	0x40
 7979 1ac8 24       		.byte	0x24
 7980 1ac9 7E       		.byte	0x7e
 7981 1aca 00       		.sleb128 0
 7982 1acb 16       		.byte	0x16
 7983 1acc 14       		.byte	0x14
 7984 1acd 40       		.byte	0x40
 7985 1ace 24       		.byte	0x24
 7986 1acf 2B       		.byte	0x2b
 7987 1ad0 28       		.byte	0x28
 7988 1ad1 0100     		.2byte	0x1
 7989 1ad3 16       		.byte	0x16
 7990 1ad4 13       		.byte	0x13
 7991 1ad5 9F       		.byte	0x9f
 7992 1ad6 A4000000 		.4byte	.LVL247
 7993 1ada CC000000 		.4byte	.LVL249
 7994 1ade 2300     		.2byte	0x23
 7995 1ae0 71       		.byte	0x71
 7996 1ae1 00       		.sleb128 0
 7997 1ae2 12       		.byte	0x12
 7998 1ae3 40       		.byte	0x40
 7999 1ae4 24       		.byte	0x24
 8000 1ae5 91       		.byte	0x91
 8001 1ae6 54       		.sleb128 -44
 8002 1ae7 94       		.byte	0x94
 8003 1ae8 02       		.byte	0x2
 8004 1ae9 16       		.byte	0x16
 8005 1aea 14       		.byte	0x14
 8006 1aeb 40       		.byte	0x40
 8007 1aec 24       		.byte	0x24
 8008 1aed 2B       		.byte	0x2b
 8009 1aee 28       		.byte	0x28
ARM GAS  C:\Users\pearlstl\AppData\Local\Temp\ccVE6Vs6.s 			page 156


 8010 1aef 0100     		.2byte	0x1
 8011 1af1 16       		.byte	0x16
 8012 1af2 13       		.byte	0x13
 8013 1af3 12       		.byte	0x12
 8014 1af4 40       		.byte	0x40
 8015 1af5 24       		.byte	0x24
 8016 1af6 7E       		.byte	0x7e
 8017 1af7 00       		.sleb128 0
 8018 1af8 16       		.byte	0x16
 8019 1af9 14       		.byte	0x14
 8020 1afa 40       		.byte	0x40
 8021 1afb 24       		.byte	0x24
 8022 1afc 2B       		.byte	0x2b
 8023 1afd 28       		.byte	0x28
 8024 1afe 0100     		.2byte	0x1
 8025 1b00 16       		.byte	0x16
 8026 1b01 13       		.byte	0x13
 8027 1b02 9F       		.byte	0x9f
 8028 1b03 CC000000 		.4byte	.LVL249
 8029 1b07 D5000000 		.4byte	.LVL252-1
 8030 1b0b 2500     		.2byte	0x25
 8031 1b0d 91       		.byte	0x91
 8032 1b0e 50       		.sleb128 -48
 8033 1b0f 94       		.byte	0x94
 8034 1b10 02       		.byte	0x2
 8035 1b11 12       		.byte	0x12
 8036 1b12 40       		.byte	0x40
 8037 1b13 24       		.byte	0x24
 8038 1b14 91       		.byte	0x91
 8039 1b15 54       		.sleb128 -44
 8040 1b16 94       		.byte	0x94
 8041 1b17 02       		.byte	0x2
 8042 1b18 16       		.byte	0x16
 8043 1b19 14       		.byte	0x14
 8044 1b1a 40       		.byte	0x40
 8045 1b1b 24       		.byte	0x24
 8046 1b1c 2B       		.byte	0x2b
 8047 1b1d 28       		.byte	0x28
 8048 1b1e 0100     		.2byte	0x1
 8049 1b20 16       		.byte	0x16
 8050 1b21 13       		.byte	0x13
 8051 1b22 12       		.byte	0x12
 8052 1b23 40       		.byte	0x40
 8053 1b24 24       		.byte	0x24
 8054 1b25 7E       		.byte	0x7e
 8055 1b26 00       		.sleb128 0
 8056 1b27 16       		.byte	0x16
 8057 1b28 14       		.byte	0x14
 8058 1b29 40       		.byte	0x40
 8059 1b2a 24       		.byte	0x24
 8060 1b2b 2B       		.byte	0x2b
 8061 1b2c 28       		.byte	0x28
 8062 1b2d 0100     		.2byte	0x1
 8063 1b2f 16       		.byte	0x16
 8064 1b30 13       		.byte	0x13
 8065 1b31 9F       		.byte	0x9f
 8066 1b32 00000000 		.4byte	0
ARM GAS  C:\Users\pearlstl\AppData\Local\Temp\ccVE6Vs6.s 			page 157


 8067 1b36 00000000 		.4byte	0
 8068              	.LLST65:
 8069 1b3a 2C000000 		.4byte	.LVL240
 8070 1b3e 2F000000 		.4byte	.LVL241-1
 8071 1b42 2300     		.2byte	0x23
 8072 1b44 7C       		.byte	0x7c
 8073 1b45 00       		.sleb128 0
 8074 1b46 12       		.byte	0x12
 8075 1b47 40       		.byte	0x40
 8076 1b48 24       		.byte	0x24
 8077 1b49 91       		.byte	0x91
 8078 1b4a 56       		.sleb128 -42
 8079 1b4b 94       		.byte	0x94
 8080 1b4c 02       		.byte	0x2
 8081 1b4d 16       		.byte	0x16
 8082 1b4e 14       		.byte	0x14
 8083 1b4f 40       		.byte	0x40
 8084 1b50 24       		.byte	0x24
 8085 1b51 2D       		.byte	0x2d
 8086 1b52 28       		.byte	0x28
 8087 1b53 0100     		.2byte	0x1
 8088 1b55 16       		.byte	0x16
 8089 1b56 13       		.byte	0x13
 8090 1b57 12       		.byte	0x12
 8091 1b58 40       		.byte	0x40
 8092 1b59 24       		.byte	0x24
 8093 1b5a 7B       		.byte	0x7b
 8094 1b5b 00       		.sleb128 0
 8095 1b5c 16       		.byte	0x16
 8096 1b5d 14       		.byte	0x14
 8097 1b5e 40       		.byte	0x40
 8098 1b5f 24       		.byte	0x24
 8099 1b60 2D       		.byte	0x2d
 8100 1b61 28       		.byte	0x28
 8101 1b62 0100     		.2byte	0x1
 8102 1b64 16       		.byte	0x16
 8103 1b65 13       		.byte	0x13
 8104 1b66 9F       		.byte	0x9f
 8105 1b67 88000000 		.4byte	.LVL246
 8106 1b6b B0000000 		.4byte	.LVL248
 8107 1b6f 2100     		.2byte	0x21
 8108 1b71 7C       		.byte	0x7c
 8109 1b72 00       		.sleb128 0
 8110 1b73 12       		.byte	0x12
 8111 1b74 40       		.byte	0x40
 8112 1b75 24       		.byte	0x24
 8113 1b76 70       		.byte	0x70
 8114 1b77 00       		.sleb128 0
 8115 1b78 16       		.byte	0x16
 8116 1b79 14       		.byte	0x14
 8117 1b7a 40       		.byte	0x40
 8118 1b7b 24       		.byte	0x24
 8119 1b7c 2D       		.byte	0x2d
 8120 1b7d 28       		.byte	0x28
 8121 1b7e 0100     		.2byte	0x1
 8122 1b80 16       		.byte	0x16
 8123 1b81 13       		.byte	0x13
ARM GAS  C:\Users\pearlstl\AppData\Local\Temp\ccVE6Vs6.s 			page 158


 8124 1b82 12       		.byte	0x12
 8125 1b83 40       		.byte	0x40
 8126 1b84 24       		.byte	0x24
 8127 1b85 7B       		.byte	0x7b
 8128 1b86 00       		.sleb128 0
 8129 1b87 16       		.byte	0x16
 8130 1b88 14       		.byte	0x14
 8131 1b89 40       		.byte	0x40
 8132 1b8a 24       		.byte	0x24
 8133 1b8b 2D       		.byte	0x2d
 8134 1b8c 28       		.byte	0x28
 8135 1b8d 0100     		.2byte	0x1
 8136 1b8f 16       		.byte	0x16
 8137 1b90 13       		.byte	0x13
 8138 1b91 9F       		.byte	0x9f
 8139 1b92 B0000000 		.4byte	.LVL248
 8140 1b96 D5000000 		.4byte	.LVL252-1
 8141 1b9a 2300     		.2byte	0x23
 8142 1b9c 7C       		.byte	0x7c
 8143 1b9d 00       		.sleb128 0
 8144 1b9e 12       		.byte	0x12
 8145 1b9f 40       		.byte	0x40
 8146 1ba0 24       		.byte	0x24
 8147 1ba1 91       		.byte	0x91
 8148 1ba2 56       		.sleb128 -42
 8149 1ba3 94       		.byte	0x94
 8150 1ba4 02       		.byte	0x2
 8151 1ba5 16       		.byte	0x16
 8152 1ba6 14       		.byte	0x14
 8153 1ba7 40       		.byte	0x40
 8154 1ba8 24       		.byte	0x24
 8155 1ba9 2D       		.byte	0x2d
 8156 1baa 28       		.byte	0x28
 8157 1bab 0100     		.2byte	0x1
 8158 1bad 16       		.byte	0x16
 8159 1bae 13       		.byte	0x13
 8160 1baf 12       		.byte	0x12
 8161 1bb0 40       		.byte	0x40
 8162 1bb1 24       		.byte	0x24
 8163 1bb2 7B       		.byte	0x7b
 8164 1bb3 00       		.sleb128 0
 8165 1bb4 16       		.byte	0x16
 8166 1bb5 14       		.byte	0x14
 8167 1bb6 40       		.byte	0x40
 8168 1bb7 24       		.byte	0x24
 8169 1bb8 2D       		.byte	0x2d
 8170 1bb9 28       		.byte	0x28
 8171 1bba 0100     		.2byte	0x1
 8172 1bbc 16       		.byte	0x16
 8173 1bbd 13       		.byte	0x13
 8174 1bbe 9F       		.byte	0x9f
 8175 1bbf 00000000 		.4byte	0
 8176 1bc3 00000000 		.4byte	0
 8177              	.LLST66:
 8178 1bc7 2C000000 		.4byte	.LVL240
 8179 1bcb 2F000000 		.4byte	.LVL241-1
 8180 1bcf 2300     		.2byte	0x23
ARM GAS  C:\Users\pearlstl\AppData\Local\Temp\ccVE6Vs6.s 			page 159


 8181 1bd1 7C       		.byte	0x7c
 8182 1bd2 00       		.sleb128 0
 8183 1bd3 12       		.byte	0x12
 8184 1bd4 40       		.byte	0x40
 8185 1bd5 24       		.byte	0x24
 8186 1bd6 91       		.byte	0x91
 8187 1bd7 56       		.sleb128 -42
 8188 1bd8 94       		.byte	0x94
 8189 1bd9 02       		.byte	0x2
 8190 1bda 16       		.byte	0x16
 8191 1bdb 14       		.byte	0x14
 8192 1bdc 40       		.byte	0x40
 8193 1bdd 24       		.byte	0x24
 8194 1bde 2B       		.byte	0x2b
 8195 1bdf 28       		.byte	0x28
 8196 1be0 0100     		.2byte	0x1
 8197 1be2 16       		.byte	0x16
 8198 1be3 13       		.byte	0x13
 8199 1be4 12       		.byte	0x12
 8200 1be5 40       		.byte	0x40
 8201 1be6 24       		.byte	0x24
 8202 1be7 7B       		.byte	0x7b
 8203 1be8 00       		.sleb128 0
 8204 1be9 16       		.byte	0x16
 8205 1bea 14       		.byte	0x14
 8206 1beb 40       		.byte	0x40
 8207 1bec 24       		.byte	0x24
 8208 1bed 2B       		.byte	0x2b
 8209 1bee 28       		.byte	0x28
 8210 1bef 0100     		.2byte	0x1
 8211 1bf1 16       		.byte	0x16
 8212 1bf2 13       		.byte	0x13
 8213 1bf3 9F       		.byte	0x9f
 8214 1bf4 88000000 		.4byte	.LVL246
 8215 1bf8 B0000000 		.4byte	.LVL248
 8216 1bfc 2100     		.2byte	0x21
 8217 1bfe 7C       		.byte	0x7c
 8218 1bff 00       		.sleb128 0
 8219 1c00 12       		.byte	0x12
 8220 1c01 40       		.byte	0x40
 8221 1c02 24       		.byte	0x24
 8222 1c03 70       		.byte	0x70
 8223 1c04 00       		.sleb128 0
 8224 1c05 16       		.byte	0x16
 8225 1c06 14       		.byte	0x14
 8226 1c07 40       		.byte	0x40
 8227 1c08 24       		.byte	0x24
 8228 1c09 2B       		.byte	0x2b
 8229 1c0a 28       		.byte	0x28
 8230 1c0b 0100     		.2byte	0x1
 8231 1c0d 16       		.byte	0x16
 8232 1c0e 13       		.byte	0x13
 8233 1c0f 12       		.byte	0x12
 8234 1c10 40       		.byte	0x40
 8235 1c11 24       		.byte	0x24
 8236 1c12 7B       		.byte	0x7b
 8237 1c13 00       		.sleb128 0
ARM GAS  C:\Users\pearlstl\AppData\Local\Temp\ccVE6Vs6.s 			page 160


 8238 1c14 16       		.byte	0x16
 8239 1c15 14       		.byte	0x14
 8240 1c16 40       		.byte	0x40
 8241 1c17 24       		.byte	0x24
 8242 1c18 2B       		.byte	0x2b
 8243 1c19 28       		.byte	0x28
 8244 1c1a 0100     		.2byte	0x1
 8245 1c1c 16       		.byte	0x16
 8246 1c1d 13       		.byte	0x13
 8247 1c1e 9F       		.byte	0x9f
 8248 1c1f B0000000 		.4byte	.LVL248
 8249 1c23 D5000000 		.4byte	.LVL252-1
 8250 1c27 2300     		.2byte	0x23
 8251 1c29 7C       		.byte	0x7c
 8252 1c2a 00       		.sleb128 0
 8253 1c2b 12       		.byte	0x12
 8254 1c2c 40       		.byte	0x40
 8255 1c2d 24       		.byte	0x24
 8256 1c2e 91       		.byte	0x91
 8257 1c2f 56       		.sleb128 -42
 8258 1c30 94       		.byte	0x94
 8259 1c31 02       		.byte	0x2
 8260 1c32 16       		.byte	0x16
 8261 1c33 14       		.byte	0x14
 8262 1c34 40       		.byte	0x40
 8263 1c35 24       		.byte	0x24
 8264 1c36 2B       		.byte	0x2b
 8265 1c37 28       		.byte	0x28
 8266 1c38 0100     		.2byte	0x1
 8267 1c3a 16       		.byte	0x16
 8268 1c3b 13       		.byte	0x13
 8269 1c3c 12       		.byte	0x12
 8270 1c3d 40       		.byte	0x40
 8271 1c3e 24       		.byte	0x24
 8272 1c3f 7B       		.byte	0x7b
 8273 1c40 00       		.sleb128 0
 8274 1c41 16       		.byte	0x16
 8275 1c42 14       		.byte	0x14
 8276 1c43 40       		.byte	0x40
 8277 1c44 24       		.byte	0x24
 8278 1c45 2B       		.byte	0x2b
 8279 1c46 28       		.byte	0x28
 8280 1c47 0100     		.2byte	0x1
 8281 1c49 16       		.byte	0x16
 8282 1c4a 13       		.byte	0x13
 8283 1c4b 9F       		.byte	0x9f
 8284 1c4c 00000000 		.4byte	0
 8285 1c50 00000000 		.4byte	0
 8286              		.section	.debug_aranges,"",%progbits
 8287 0000 34000000 		.4byte	0x34
 8288 0004 0200     		.2byte	0x2
 8289 0006 00000000 		.4byte	.Ldebug_info0
 8290 000a 04       		.byte	0x4
 8291 000b 00       		.byte	0
 8292 000c 0000     		.2byte	0
 8293 000e 0000     		.2byte	0
 8294 0010 00000000 		.4byte	.LFB33
ARM GAS  C:\Users\pearlstl\AppData\Local\Temp\ccVE6Vs6.s 			page 161


 8295 0014 3C060000 		.4byte	.LFE33-.LFB33
 8296 0018 00000000 		.4byte	.LFB34
 8297 001c 9E050000 		.4byte	.LFE34-.LFB34
 8298 0020 00000000 		.4byte	.LFB31
 8299 0024 C8000000 		.4byte	.LFE31-.LFB31
 8300 0028 00000000 		.4byte	.LFB32
 8301 002c 16010000 		.4byte	.LFE32-.LFB32
 8302 0030 00000000 		.4byte	0
 8303 0034 00000000 		.4byte	0
 8304              		.section	.debug_ranges,"",%progbits
 8305              	.Ldebug_ranges0:
 8306 0000 2A000000 		.4byte	.LBB20
 8307 0004 34000000 		.4byte	.LBE20
 8308 0008 36000000 		.4byte	.LBB23
 8309 000c 46000000 		.4byte	.LBE23
 8310 0010 00000000 		.4byte	0
 8311 0014 00000000 		.4byte	0
 8312 0018 66020000 		.4byte	.LBB24
 8313 001c 72020000 		.4byte	.LBE24
 8314 0020 74020000 		.4byte	.LBB27
 8315 0024 80020000 		.4byte	.LBE27
 8316 0028 00000000 		.4byte	0
 8317 002c 00000000 		.4byte	0
 8318 0030 2C000000 		.4byte	.LBB30
 8319 0034 30000000 		.4byte	.LBE30
 8320 0038 3C000000 		.4byte	.LBB36
 8321 003c 40000000 		.4byte	.LBE36
 8322 0040 50000000 		.4byte	.LBB37
 8323 0044 52000000 		.4byte	.LBE37
 8324 0048 62000000 		.4byte	.LBB38
 8325 004c D6000000 		.4byte	.LBE38
 8326 0050 E4000000 		.4byte	.LBB39
 8327 0054 16010000 		.4byte	.LBE39
 8328 0058 00000000 		.4byte	0
 8329 005c 00000000 		.4byte	0
 8330 0060 00000000 		.4byte	.LFB33
 8331 0064 3C060000 		.4byte	.LFE33
 8332 0068 00000000 		.4byte	.LFB34
 8333 006c 9E050000 		.4byte	.LFE34
 8334 0070 00000000 		.4byte	.LFB31
 8335 0074 C8000000 		.4byte	.LFE31
 8336 0078 00000000 		.4byte	.LFB32
 8337 007c 16010000 		.4byte	.LFE32
 8338 0080 00000000 		.4byte	0
 8339 0084 00000000 		.4byte	0
 8340              		.section	.debug_line,"",%progbits
 8341              	.Ldebug_line0:
 8342 0000 C1060000 		.section	.debug_str,"MS",%progbits,1
 8342      02009D02 
 8342      00000201 
 8342      FB0E0D00 
 8342      01010101 
 8343              	.LASF45:
 8344 0000 4C565F4F 		.ascii	"LV_OPA_COVER\000"
 8344      50415F43 
 8344      4F564552 
 8344      00
ARM GAS  C:\Users\pearlstl\AppData\Local\Temp\ccVE6Vs6.s 			page 162


 8345              	.LASF49:
 8346 000d 66756C6C 		.ascii	"full\000"
 8346      00
 8347              	.LASF43:
 8348 0012 4C565F4F 		.ascii	"LV_OPA_90\000"
 8348      50415F39 
 8348      3000
 8349              	.LASF111:
 8350 001c 2E2E5C2E 		.ascii	"..\\..\\..\\lvgl\\version_6.1.2\\lvgl\\src\\lv_draw"
 8350      2E5C2E2E 
 8350      5C6C7667 
 8350      6C5C7665 
 8350      7273696F 
 8351 0048 5C6C765F 		.ascii	"\\lv_draw_triangle.c\000"
 8351      64726177 
 8351      5F747269 
 8351      616E676C 
 8351      652E6300 
 8352              	.LASF104:
 8353 005c 785F6D69 		.ascii	"x_min\000"
 8353      6E00
 8354              	.LASF34:
 8355 0062 4C565F4F 		.ascii	"LV_OPA_0\000"
 8355      50415F30 
 8355      00
 8356              	.LASF13:
 8357 006b 756E7369 		.ascii	"unsigned int\000"
 8357      676E6564 
 8357      20696E74 
 8357      00
 8358              	.LASF24:
 8359 0078 6F66735F 		.ascii	"ofs_x\000"
 8359      7800
 8360              	.LASF25:
 8361 007e 6F66735F 		.ascii	"ofs_y\000"
 8361      7900
 8362              	.LASF110:
 8363 0084 474E5520 		.ascii	"GNU C11 5.4.1 20160609 (release) [ARM/embedded-5-br"
 8363      43313120 
 8363      352E342E 
 8363      31203230 
 8363      31363036 
 8364 00b7 616E6368 		.ascii	"anch revision 237715] -mcpu=cortex-m4 -mfloat-abi=s"
 8364      20726576 
 8364      6973696F 
 8364      6E203233 
 8364      37373135 
 8365 00ea 6F667466 		.ascii	"oftfp -mfpu=fpv4-sp-d16 -mthumb -g -O3 -ffunction-s"
 8365      70202D6D 
 8365      6670753D 
 8365      66707634 
 8365      2D73702D 
 8366 011d 65637469 		.ascii	"ections -ffat-lto-objects\000"
 8366      6F6E7320 
 8366      2D666661 
 8366      742D6C74 
 8366      6F2D6F62 
ARM GAS  C:\Users\pearlstl\AppData\Local\Temp\ccVE6Vs6.s 			page 163


 8367              	.LASF27:
 8368 0137 6765745F 		.ascii	"get_glyph_dsc\000"
 8368      676C7970 
 8368      685F6473 
 8368      6300
 8369              	.LASF85:
 8370 0145 6C765F73 		.ascii	"lv_style_t\000"
 8370      74796C65 
 8370      5F7400
 8371              	.LASF55:
 8372 0150 6C765F70 		.ascii	"lv_point_t\000"
 8372      6F696E74 
 8372      5F7400
 8373              	.LASF66:
 8374 015b 696E6E65 		.ascii	"inner\000"
 8374      7200
 8375              	.LASF18:
 8376 0161 75696E74 		.ascii	"uint32_t\000"
 8376      33325F74 
 8376      00
 8377              	.LASF14:
 8378 016a 696E7438 		.ascii	"int8_t\000"
 8378      5F7400
 8379              	.LASF50:
 8380 0171 6C765F63 		.ascii	"lv_color32_t\000"
 8380      6F6C6F72 
 8380      33325F74 
 8380      00
 8381              	.LASF91:
 8382 017e 6572725F 		.ascii	"err_tmp1\000"
 8382      746D7031 
 8382      00
 8383              	.LASF94:
 8384 0187 6572725F 		.ascii	"err_tmp2\000"
 8384      746D7032 
 8384      00
 8385              	.LASF73:
 8386 0190 73656C5F 		.ascii	"sel_color\000"
 8386      636F6C6F 
 8386      7200
 8387              	.LASF101:
 8388 019a 78315F74 		.ascii	"x1_tmp\000"
 8388      6D7000
 8389              	.LASF115:
 8390 01a1 6C765F64 		.ascii	"lv_draw_triangle\000"
 8390      7261775F 
 8390      74726961 
 8390      6E676C65 
 8390      00
 8391              	.LASF16:
 8392 01b2 696E7431 		.ascii	"int16_t\000"
 8392      365F7400 
 8393              	.LASF12:
 8394 01ba 6C6F6E67 		.ascii	"long long unsigned int\000"
 8394      206C6F6E 
 8394      6720756E 
 8394      7369676E 
ARM GAS  C:\Users\pearlstl\AppData\Local\Temp\ccVE6Vs6.s 			page 164


 8394      65642069 
 8395              	.LASF61:
 8396 01d1 70617274 		.ascii	"part\000"
 8396      00
 8397              	.LASF33:
 8398 01d6 4C565F4F 		.ascii	"LV_OPA_TRANSP\000"
 8398      50415F54 
 8398      52414E53 
 8398      5000
 8399              	.LASF6:
 8400 01e4 5F5F7569 		.ascii	"__uint16_t\000"
 8400      6E743136 
 8400      5F7400
 8401              	.LASF70:
 8402 01ef 626F7264 		.ascii	"border\000"
 8402      657200
 8403              	.LASF114:
 8404 01f6 706F696E 		.ascii	"point_swap\000"
 8404      745F7377 
 8404      617000
 8405              	.LASF59:
 8406 0201 636F6C6F 		.ascii	"color\000"
 8406      7200
 8407              	.LASF99:
 8408 0207 7472695F 		.ascii	"tri_draw_flat\000"
 8408      64726177 
 8408      5F666C61 
 8408      7400
 8409              	.LASF79:
 8410 0215 726F756E 		.ascii	"rounded\000"
 8410      64656400 
 8411              	.LASF60:
 8412 021d 77696474 		.ascii	"width\000"
 8412      6800
 8413              	.LASF31:
 8414 0223 5F426F6F 		.ascii	"_Bool\000"
 8414      6C00
 8415              	.LASF113:
 8416 0229 5F6C765F 		.ascii	"_lv_font_struct\000"
 8416      666F6E74 
 8416      5F737472 
 8416      75637400 
 8417              	.LASF76:
 8418 0239 6C696E65 		.ascii	"line_space\000"
 8418      5F737061 
 8418      636500
 8419              	.LASF29:
 8420 0244 6C696E65 		.ascii	"line_height\000"
 8420      5F686569 
 8420      67687400 
 8421              	.LASF96:
 8422 0250 79325F74 		.ascii	"y2_tmp\000"
 8422      6D7000
 8423              	.LASF54:
 8424 0257 63686172 		.ascii	"char\000"
 8424      00
 8425              	.LASF100:
ARM GAS  C:\Users\pearlstl\AppData\Local\Temp\ccVE6Vs6.s 			page 165


 8426 025c 7472695F 		.ascii	"tri_draw_tall\000"
 8426      64726177 
 8426      5F74616C 
 8426      6C00
 8427              	.LASF63:
 8428 026a 626F7474 		.ascii	"bottom\000"
 8428      6F6D00
 8429              	.LASF26:
 8430 0271 6C765F66 		.ascii	"lv_font_glyph_dsc_t\000"
 8430      6F6E745F 
 8430      676C7970 
 8430      685F6473 
 8430      635F7400 
 8431              	.LASF108:
 8432 0285 6C765F64 		.ascii	"lv_draw_polygon\000"
 8432      7261775F 
 8432      706F6C79 
 8432      676F6E00 
 8433              	.LASF15:
 8434 0295 75696E74 		.ascii	"uint8_t\000"
 8434      385F7400 
 8435              	.LASF97:
 8436 029d 6163745F 		.ascii	"act_area\000"
 8436      61726561 
 8436      00
 8437              	.LASF58:
 8438 02a6 6C765F73 		.ascii	"lv_shadow_type_t\000"
 8438      6861646F 
 8438      775F7479 
 8438      70655F74 
 8438      00
 8439              	.LASF65:
 8440 02b7 72696768 		.ascii	"right\000"
 8440      7400
 8441              	.LASF35:
 8442 02bd 4C565F4F 		.ascii	"LV_OPA_10\000"
 8442      50415F31 
 8442      3000
 8443              	.LASF11:
 8444 02c7 6C6F6E67 		.ascii	"long long int\000"
 8444      206C6F6E 
 8444      6720696E 
 8444      7400
 8445              	.LASF80:
 8446 02d5 676C6173 		.ascii	"glass\000"
 8446      7300
 8447              	.LASF82:
 8448 02db 74657874 		.ascii	"text\000"
 8448      00
 8449              	.LASF72:
 8450 02e0 70616464 		.ascii	"padding\000"
 8450      696E6700 
 8451              	.LASF4:
 8452 02e8 5F5F696E 		.ascii	"__int16_t\000"
 8452      7431365F 
 8452      7400
 8453              	.LASF105:
ARM GAS  C:\Users\pearlstl\AppData\Local\Temp\ccVE6Vs6.s 			page 166


 8454 02f2 785F6D61 		.ascii	"x_max\000"
 8454      7800
 8455              	.LASF36:
 8456 02f8 4C565F4F 		.ascii	"LV_OPA_20\000"
 8456      50415F32 
 8456      3000
 8457              	.LASF86:
 8458 0302 706F696E 		.ascii	"points\000"
 8458      747300
 8459              	.LASF109:
 8460 0309 706F696E 		.ascii	"point_cnt\000"
 8460      745F636E 
 8460      7400
 8461              	.LASF83:
 8462 0313 696D6167 		.ascii	"image\000"
 8462      6500
 8463              	.LASF87:
 8464 0319 6D61736B 		.ascii	"mask\000"
 8464      00
 8465              	.LASF90:
 8466 031e 65727231 		.ascii	"err1\000"
 8466      00
 8467              	.LASF93:
 8468 0323 65727232 		.ascii	"err2\000"
 8468      00
 8469              	.LASF78:
 8470 0328 73756270 		.ascii	"subpx\000"
 8470      7800
 8471              	.LASF51:
 8472 032e 6C765F63 		.ascii	"lv_color_t\000"
 8472      6F6C6F72 
 8472      5F7400
 8473              	.LASF0:
 8474 0339 5F5F696E 		.ascii	"__int8_t\000"
 8474      74385F74 
 8474      00
 8475              	.LASF47:
 8476 0342 67726565 		.ascii	"green\000"
 8476      6E00
 8477              	.LASF37:
 8478 0348 4C565F4F 		.ascii	"LV_OPA_30\000"
 8478      50415F33 
 8478      3000
 8479              	.LASF20:
 8480 0352 6C6F6E67 		.ascii	"long double\000"
 8480      20646F75 
 8480      626C6500 
 8481              	.LASF17:
 8482 035e 75696E74 		.ascii	"uint16_t\000"
 8482      31365F74 
 8482      00
 8483              	.LASF68:
 8484 0367 67726164 		.ascii	"grad_color\000"
 8484      5F636F6C 
 8484      6F7200
 8485              	.LASF53:
 8486 0372 73697A65 		.ascii	"sizetype\000"
ARM GAS  C:\Users\pearlstl\AppData\Local\Temp\ccVE6Vs6.s 			page 167


 8486      74797065 
 8486      00
 8487              	.LASF32:
 8488 037b 6C765F66 		.ascii	"lv_font_t\000"
 8488      6F6E745F 
 8488      7400
 8489              	.LASF75:
 8490 0385 6C657474 		.ascii	"letter_space\000"
 8490      65725F73 
 8490      70616365 
 8490      00
 8491              	.LASF67:
 8492 0392 6D61696E 		.ascii	"main_color\000"
 8492      5F636F6C 
 8492      6F7200
 8493              	.LASF5:
 8494 039d 73686F72 		.ascii	"short int\000"
 8494      7420696E 
 8494      7400
 8495              	.LASF52:
 8496 03a7 6C765F6F 		.ascii	"lv_opa_t\000"
 8496      70615F74 
 8496      00
 8497              	.LASF8:
 8498 03b0 6C6F6E67 		.ascii	"long int\000"
 8498      20696E74 
 8498      00
 8499              	.LASF38:
 8500 03b9 4C565F4F 		.ascii	"LV_OPA_40\000"
 8500      50415F34 
 8500      3000
 8501              	.LASF98:
 8502 03c3 64726177 		.ascii	"draw_area\000"
 8502      5F617265 
 8502      6100
 8503              	.LASF106:
 8504 03cd 795F6D69 		.ascii	"y_min\000"
 8504      6E00
 8505              	.LASF46:
 8506 03d3 626C7565 		.ascii	"blue\000"
 8506      00
 8507              	.LASF19:
 8508 03d8 6C765F63 		.ascii	"lv_coord_t\000"
 8508      6F6F7264 
 8508      5F7400
 8509              	.LASF64:
 8510 03e3 6C656674 		.ascii	"left\000"
 8510      00
 8511              	.LASF44:
 8512 03e8 4C565F4F 		.ascii	"LV_OPA_100\000"
 8512      50415F31 
 8512      303000
 8513              	.LASF1:
 8514 03f3 5F5F7569 		.ascii	"__uint8_t\000"
 8514      6E74385F 
 8514      7400
 8515              	.LASF39:
ARM GAS  C:\Users\pearlstl\AppData\Local\Temp\ccVE6Vs6.s 			page 168


 8516 03fd 4C565F4F 		.ascii	"LV_OPA_50\000"
 8516      50415F35 
 8516      3000
 8517              	.LASF95:
 8518 0407 79315F74 		.ascii	"y1_tmp\000"
 8518      6D7000
 8519              	.LASF23:
 8520 040e 626F785F 		.ascii	"box_h\000"
 8520      6800
 8521              	.LASF74:
 8522 0414 666F6E74 		.ascii	"font\000"
 8522      00
 8523              	.LASF22:
 8524 0419 626F785F 		.ascii	"box_w\000"
 8524      7700
 8525              	.LASF10:
 8526 041f 6C6F6E67 		.ascii	"long unsigned int\000"
 8526      20756E73 
 8526      69676E65 
 8526      6420696E 
 8526      7400
 8527              	.LASF77:
 8528 0431 696E7465 		.ascii	"intense\000"
 8528      6E736500 
 8529              	.LASF48:
 8530 0439 616C7068 		.ascii	"alpha\000"
 8530      6100
 8531              	.LASF30:
 8532 043f 62617365 		.ascii	"base_line\000"
 8532      5F6C696E 
 8532      6500
 8533              	.LASF69:
 8534 0449 72616469 		.ascii	"radius\000"
 8534      757300
 8535              	.LASF103:
 8536 0450 6F70615F 		.ascii	"opa_scale\000"
 8536      7363616C 
 8536      6500
 8537              	.LASF81:
 8538 045a 626F6479 		.ascii	"body\000"
 8538      00
 8539              	.LASF40:
 8540 045f 4C565F4F 		.ascii	"LV_OPA_60\000"
 8540      50415F36 
 8540      3000
 8541              	.LASF62:
 8542 0469 74797065 		.ascii	"type\000"
 8542      00
 8543              	.LASF3:
 8544 046e 756E7369 		.ascii	"unsigned char\000"
 8544      676E6564 
 8544      20636861 
 8544      7200
 8545              	.LASF9:
 8546 047c 5F5F7569 		.ascii	"__uint32_t\000"
 8546      6E743332 
 8546      5F7400
ARM GAS  C:\Users\pearlstl\AppData\Local\Temp\ccVE6Vs6.s 			page 169


 8547              	.LASF84:
 8548 0487 6C696E65 		.ascii	"line\000"
 8548      00
 8549              	.LASF107:
 8550 048c 795F6D61 		.ascii	"y_max\000"
 8550      7800
 8551              	.LASF28:
 8552 0492 6765745F 		.ascii	"get_glyph_bitmap\000"
 8552      676C7970 
 8552      685F6269 
 8552      746D6170 
 8552      00
 8553              	.LASF88:
 8554 04a3 7374796C 		.ascii	"style\000"
 8554      6500
 8555              	.LASF102:
 8556 04a9 78325F74 		.ascii	"x2_tmp\000"
 8556      6D7000
 8557              	.LASF41:
 8558 04b0 4C565F4F 		.ascii	"LV_OPA_70\000"
 8558      50415F37 
 8558      3000
 8559              	.LASF71:
 8560 04ba 73686164 		.ascii	"shadow\000"
 8560      6F7700
 8561              	.LASF116:
 8562 04c1 6C765F64 		.ascii	"lv_draw_fill\000"
 8562      7261775F 
 8562      66696C6C 
 8562      00
 8563              	.LASF56:
 8564 04ce 6C765F61 		.ascii	"lv_area_t\000"
 8564      7265615F 
 8564      7400
 8565              	.LASF2:
 8566 04d8 7369676E 		.ascii	"signed char\000"
 8566      65642063 
 8566      68617200 
 8567              	.LASF7:
 8568 04e4 73686F72 		.ascii	"short unsigned int\000"
 8568      7420756E 
 8568      7369676E 
 8568      65642069 
 8568      6E7400
 8569              	.LASF42:
 8570 04f7 4C565F4F 		.ascii	"LV_OPA_80\000"
 8570      50415F38 
 8570      3000
 8571              	.LASF112:
 8572 0501 433A5C55 		.ascii	"C:\\Users\\pearlstl\\Documents\\_Research\\projects"
 8572      73657273 
 8572      5C706561 
 8572      726C7374 
 8572      6C5C446F 
 8573 052f 5C74636F 		.ascii	"\\tcom_engineering\\embed_sw\\tcom_app\\tcom_app_ps"
 8573      6D5F656E 
 8573      67696E65 
ARM GAS  C:\Users\pearlstl\AppData\Local\Temp\ccVE6Vs6.s 			page 170


 8573      6572696E 
 8573      675C656D 
 8574 055e 6F63365F 		.ascii	"oc6_lvgl6\\tcom_displ_test_psoc6.cydsn\000"
 8574      6C76676C 
 8574      365C7463 
 8574      6F6D5F64 
 8574      6973706C 
 8575              	.LASF57:
 8576 0584 6C765F62 		.ascii	"lv_border_part_t\000"
 8576      6F726465 
 8576      725F7061 
 8576      72745F74 
 8576      00
 8577              	.LASF89:
 8578 0595 65646765 		.ascii	"edge1\000"
 8578      3100
 8579              	.LASF92:
 8580 059b 65646765 		.ascii	"edge2\000"
 8580      3200
 8581              	.LASF21:
 8582 05a1 6164765F 		.ascii	"adv_w\000"
 8582      7700
 8583              		.ident	"GCC: (GNU Tools for ARM Embedded Processors) 5.4.1 20160609 (release) [ARM/embedded-5-bran
