ARM GAS  C:\Users\pearlstl\AppData\Local\Temp\ccllHTLf.s 			page 1


   1              		.syntax unified
   2              		.cpu cortex-m4
   3              		.eabi_attribute 27, 1
   4              		.fpu fpv4-sp-d16
   5              		.eabi_attribute 20, 1
   6              		.eabi_attribute 21, 1
   7              		.eabi_attribute 23, 3
   8              		.eabi_attribute 24, 1
   9              		.eabi_attribute 25, 1
  10              		.eabi_attribute 26, 1
  11              		.eabi_attribute 30, 2
  12              		.eabi_attribute 34, 1
  13              		.eabi_attribute 18, 4
  14              		.thumb
  15              		.syntax unified
  16              		.file	"lv_font_fmt_txt.c"
  17              		.text
  18              	.Ltext0:
  19              		.cfi_sections	.debug_frame
  20              		.section	.text.kern_pair_8_compare,"ax",%progbits
  21              		.align	2
  22              		.thumb
  23              		.thumb_func
  24              		.type	kern_pair_8_compare, %function
  25              	kern_pair_8_compare:
  26              	.LFB35:
  27              		.file 1 "..\\..\\..\\lvgl\\version_6.1.2\\lvgl\\src\\lv_font\\lv_font_fmt_txt.c"
   1:..\..\..\lvgl\version_6.1.2\lvgl\src\lv_font/lv_font_fmt_txt.c **** /**
   2:..\..\..\lvgl\version_6.1.2\lvgl\src\lv_font/lv_font_fmt_txt.c ****  * @file lv_font.c
   3:..\..\..\lvgl\version_6.1.2\lvgl\src\lv_font/lv_font_fmt_txt.c ****  *
   4:..\..\..\lvgl\version_6.1.2\lvgl\src\lv_font/lv_font_fmt_txt.c ****  */
   5:..\..\..\lvgl\version_6.1.2\lvgl\src\lv_font/lv_font_fmt_txt.c **** 
   6:..\..\..\lvgl\version_6.1.2\lvgl\src\lv_font/lv_font_fmt_txt.c **** /*********************
   7:..\..\..\lvgl\version_6.1.2\lvgl\src\lv_font/lv_font_fmt_txt.c ****  *      INCLUDES
   8:..\..\..\lvgl\version_6.1.2\lvgl\src\lv_font/lv_font_fmt_txt.c ****  *********************/
   9:..\..\..\lvgl\version_6.1.2\lvgl\src\lv_font/lv_font_fmt_txt.c **** #include "lv_font.h"
  10:..\..\..\lvgl\version_6.1.2\lvgl\src\lv_font/lv_font_fmt_txt.c **** #include "lv_font_fmt_txt.h"
  11:..\..\..\lvgl\version_6.1.2\lvgl\src\lv_font/lv_font_fmt_txt.c **** #include "../lv_core/lv_debug.h"
  12:..\..\..\lvgl\version_6.1.2\lvgl\src\lv_font/lv_font_fmt_txt.c **** #include "../lv_draw/lv_draw.h"
  13:..\..\..\lvgl\version_6.1.2\lvgl\src\lv_font/lv_font_fmt_txt.c **** #include "../lv_misc/lv_types.h"
  14:..\..\..\lvgl\version_6.1.2\lvgl\src\lv_font/lv_font_fmt_txt.c **** #include "../lv_misc/lv_log.h"
  15:..\..\..\lvgl\version_6.1.2\lvgl\src\lv_font/lv_font_fmt_txt.c **** #include "../lv_misc/lv_utils.h"
  16:..\..\..\lvgl\version_6.1.2\lvgl\src\lv_font/lv_font_fmt_txt.c **** #include "../lv_misc/lv_mem.h"
  17:..\..\..\lvgl\version_6.1.2\lvgl\src\lv_font/lv_font_fmt_txt.c **** 
  18:..\..\..\lvgl\version_6.1.2\lvgl\src\lv_font/lv_font_fmt_txt.c **** /*********************
  19:..\..\..\lvgl\version_6.1.2\lvgl\src\lv_font/lv_font_fmt_txt.c ****  *      DEFINES
  20:..\..\..\lvgl\version_6.1.2\lvgl\src\lv_font/lv_font_fmt_txt.c ****  *********************/
  21:..\..\..\lvgl\version_6.1.2\lvgl\src\lv_font/lv_font_fmt_txt.c **** 
  22:..\..\..\lvgl\version_6.1.2\lvgl\src\lv_font/lv_font_fmt_txt.c **** /**********************
  23:..\..\..\lvgl\version_6.1.2\lvgl\src\lv_font/lv_font_fmt_txt.c ****  *      TYPEDEFS
  24:..\..\..\lvgl\version_6.1.2\lvgl\src\lv_font/lv_font_fmt_txt.c ****  **********************/
  25:..\..\..\lvgl\version_6.1.2\lvgl\src\lv_font/lv_font_fmt_txt.c **** typedef enum {
  26:..\..\..\lvgl\version_6.1.2\lvgl\src\lv_font/lv_font_fmt_txt.c ****     RLE_STATE_SINGLE = 0,
  27:..\..\..\lvgl\version_6.1.2\lvgl\src\lv_font/lv_font_fmt_txt.c ****     RLE_STATE_REPEATE,
  28:..\..\..\lvgl\version_6.1.2\lvgl\src\lv_font/lv_font_fmt_txt.c ****     RLE_STATE_COUNTER,
  29:..\..\..\lvgl\version_6.1.2\lvgl\src\lv_font/lv_font_fmt_txt.c **** }rle_state_t;
  30:..\..\..\lvgl\version_6.1.2\lvgl\src\lv_font/lv_font_fmt_txt.c **** 
ARM GAS  C:\Users\pearlstl\AppData\Local\Temp\ccllHTLf.s 			page 2


  31:..\..\..\lvgl\version_6.1.2\lvgl\src\lv_font/lv_font_fmt_txt.c **** /**********************
  32:..\..\..\lvgl\version_6.1.2\lvgl\src\lv_font/lv_font_fmt_txt.c ****  *  STATIC PROTOTYPES
  33:..\..\..\lvgl\version_6.1.2\lvgl\src\lv_font/lv_font_fmt_txt.c ****  **********************/
  34:..\..\..\lvgl\version_6.1.2\lvgl\src\lv_font/lv_font_fmt_txt.c **** static uint32_t get_glyph_dsc_id(const lv_font_t * font, uint32_t letter);
  35:..\..\..\lvgl\version_6.1.2\lvgl\src\lv_font/lv_font_fmt_txt.c **** static int8_t get_kern_value(const lv_font_t * font, uint32_t gid_left, uint32_t gid_right);
  36:..\..\..\lvgl\version_6.1.2\lvgl\src\lv_font/lv_font_fmt_txt.c **** static int32_t unicode_list_compare(const void * ref, const void * element);
  37:..\..\..\lvgl\version_6.1.2\lvgl\src\lv_font/lv_font_fmt_txt.c **** static int32_t kern_pair_8_compare(const void * ref, const void * element);
  38:..\..\..\lvgl\version_6.1.2\lvgl\src\lv_font/lv_font_fmt_txt.c **** static int32_t kern_pair_16_compare(const void * ref, const void * element);
  39:..\..\..\lvgl\version_6.1.2\lvgl\src\lv_font/lv_font_fmt_txt.c **** 
  40:..\..\..\lvgl\version_6.1.2\lvgl\src\lv_font/lv_font_fmt_txt.c **** static void decompress(const uint8_t * in, uint8_t * out, lv_coord_t w, lv_coord_t h, uint8_t bpp);
  41:..\..\..\lvgl\version_6.1.2\lvgl\src\lv_font/lv_font_fmt_txt.c **** static void decompress_line(uint8_t * out, lv_coord_t w);
  42:..\..\..\lvgl\version_6.1.2\lvgl\src\lv_font/lv_font_fmt_txt.c **** static uint8_t get_bits(const uint8_t * in, uint32_t bit_pos, uint8_t len);
  43:..\..\..\lvgl\version_6.1.2\lvgl\src\lv_font/lv_font_fmt_txt.c **** static void bits_write(uint8_t * out, uint32_t bit_pos, uint8_t val, uint8_t len);
  44:..\..\..\lvgl\version_6.1.2\lvgl\src\lv_font/lv_font_fmt_txt.c **** static void rle_init(const uint8_t * in,  uint8_t bpp);
  45:..\..\..\lvgl\version_6.1.2\lvgl\src\lv_font/lv_font_fmt_txt.c **** static uint8_t rle_next(void);
  46:..\..\..\lvgl\version_6.1.2\lvgl\src\lv_font/lv_font_fmt_txt.c **** 
  47:..\..\..\lvgl\version_6.1.2\lvgl\src\lv_font/lv_font_fmt_txt.c **** 
  48:..\..\..\lvgl\version_6.1.2\lvgl\src\lv_font/lv_font_fmt_txt.c **** /**********************
  49:..\..\..\lvgl\version_6.1.2\lvgl\src\lv_font/lv_font_fmt_txt.c ****  *  STATIC VARIABLES
  50:..\..\..\lvgl\version_6.1.2\lvgl\src\lv_font/lv_font_fmt_txt.c ****  **********************/
  51:..\..\..\lvgl\version_6.1.2\lvgl\src\lv_font/lv_font_fmt_txt.c **** 
  52:..\..\..\lvgl\version_6.1.2\lvgl\src\lv_font/lv_font_fmt_txt.c **** static uint32_t rle_rdp;
  53:..\..\..\lvgl\version_6.1.2\lvgl\src\lv_font/lv_font_fmt_txt.c **** static const uint8_t * rle_in;
  54:..\..\..\lvgl\version_6.1.2\lvgl\src\lv_font/lv_font_fmt_txt.c **** static uint8_t rle_bpp;
  55:..\..\..\lvgl\version_6.1.2\lvgl\src\lv_font/lv_font_fmt_txt.c **** static uint8_t rle_prev_v;
  56:..\..\..\lvgl\version_6.1.2\lvgl\src\lv_font/lv_font_fmt_txt.c **** static uint8_t rle_cnt;
  57:..\..\..\lvgl\version_6.1.2\lvgl\src\lv_font/lv_font_fmt_txt.c **** static rle_state_t rle_state;
  58:..\..\..\lvgl\version_6.1.2\lvgl\src\lv_font/lv_font_fmt_txt.c **** 
  59:..\..\..\lvgl\version_6.1.2\lvgl\src\lv_font/lv_font_fmt_txt.c **** /**********************
  60:..\..\..\lvgl\version_6.1.2\lvgl\src\lv_font/lv_font_fmt_txt.c ****  * GLOBAL PROTOTYPES
  61:..\..\..\lvgl\version_6.1.2\lvgl\src\lv_font/lv_font_fmt_txt.c ****  **********************/
  62:..\..\..\lvgl\version_6.1.2\lvgl\src\lv_font/lv_font_fmt_txt.c **** 
  63:..\..\..\lvgl\version_6.1.2\lvgl\src\lv_font/lv_font_fmt_txt.c **** /**********************
  64:..\..\..\lvgl\version_6.1.2\lvgl\src\lv_font/lv_font_fmt_txt.c ****  *      MACROS
  65:..\..\..\lvgl\version_6.1.2\lvgl\src\lv_font/lv_font_fmt_txt.c ****  **********************/
  66:..\..\..\lvgl\version_6.1.2\lvgl\src\lv_font/lv_font_fmt_txt.c **** 
  67:..\..\..\lvgl\version_6.1.2\lvgl\src\lv_font/lv_font_fmt_txt.c **** /**********************
  68:..\..\..\lvgl\version_6.1.2\lvgl\src\lv_font/lv_font_fmt_txt.c ****  *   GLOBAL FUNCTIONS
  69:..\..\..\lvgl\version_6.1.2\lvgl\src\lv_font/lv_font_fmt_txt.c ****  **********************/
  70:..\..\..\lvgl\version_6.1.2\lvgl\src\lv_font/lv_font_fmt_txt.c **** 
  71:..\..\..\lvgl\version_6.1.2\lvgl\src\lv_font/lv_font_fmt_txt.c **** /**
  72:..\..\..\lvgl\version_6.1.2\lvgl\src\lv_font/lv_font_fmt_txt.c ****  * Used as `get_glyph_bitmap` callback in LittelvGL's native font format if the font is uncompresse
  73:..\..\..\lvgl\version_6.1.2\lvgl\src\lv_font/lv_font_fmt_txt.c ****  * @param font pointer to font
  74:..\..\..\lvgl\version_6.1.2\lvgl\src\lv_font/lv_font_fmt_txt.c ****  * @param unicode_letter an unicode letter which bitmap should be get
  75:..\..\..\lvgl\version_6.1.2\lvgl\src\lv_font/lv_font_fmt_txt.c ****  * @return pointer to the bitmap or NULL if not found
  76:..\..\..\lvgl\version_6.1.2\lvgl\src\lv_font/lv_font_fmt_txt.c ****  */
  77:..\..\..\lvgl\version_6.1.2\lvgl\src\lv_font/lv_font_fmt_txt.c **** const uint8_t * lv_font_get_bitmap_fmt_txt(const lv_font_t * font, uint32_t unicode_letter)
  78:..\..\..\lvgl\version_6.1.2\lvgl\src\lv_font/lv_font_fmt_txt.c **** {
  79:..\..\..\lvgl\version_6.1.2\lvgl\src\lv_font/lv_font_fmt_txt.c ****     lv_font_fmt_txt_dsc_t * fdsc = (lv_font_fmt_txt_dsc_t *) font->dsc;
  80:..\..\..\lvgl\version_6.1.2\lvgl\src\lv_font/lv_font_fmt_txt.c ****     uint32_t gid = get_glyph_dsc_id(font, unicode_letter);
  81:..\..\..\lvgl\version_6.1.2\lvgl\src\lv_font/lv_font_fmt_txt.c ****     if(!gid) return NULL;
  82:..\..\..\lvgl\version_6.1.2\lvgl\src\lv_font/lv_font_fmt_txt.c **** 
  83:..\..\..\lvgl\version_6.1.2\lvgl\src\lv_font/lv_font_fmt_txt.c ****     const lv_font_fmt_txt_glyph_dsc_t * gdsc = &fdsc->glyph_dsc[gid];
  84:..\..\..\lvgl\version_6.1.2\lvgl\src\lv_font/lv_font_fmt_txt.c **** 
  85:..\..\..\lvgl\version_6.1.2\lvgl\src\lv_font/lv_font_fmt_txt.c ****     if(fdsc->bitmap_format == LV_FONT_FMT_TXT_PLAIN) {
  86:..\..\..\lvgl\version_6.1.2\lvgl\src\lv_font/lv_font_fmt_txt.c ****         if(gdsc) return &fdsc->glyph_bitmap[gdsc->bitmap_index];
  87:..\..\..\lvgl\version_6.1.2\lvgl\src\lv_font/lv_font_fmt_txt.c ****     }
ARM GAS  C:\Users\pearlstl\AppData\Local\Temp\ccllHTLf.s 			page 3


  88:..\..\..\lvgl\version_6.1.2\lvgl\src\lv_font/lv_font_fmt_txt.c ****     /*Handle compressed bitmap*/
  89:..\..\..\lvgl\version_6.1.2\lvgl\src\lv_font/lv_font_fmt_txt.c ****     else
  90:..\..\..\lvgl\version_6.1.2\lvgl\src\lv_font/lv_font_fmt_txt.c ****     {
  91:..\..\..\lvgl\version_6.1.2\lvgl\src\lv_font/lv_font_fmt_txt.c ****         static uint8_t * buf = NULL;
  92:..\..\..\lvgl\version_6.1.2\lvgl\src\lv_font/lv_font_fmt_txt.c **** 
  93:..\..\..\lvgl\version_6.1.2\lvgl\src\lv_font/lv_font_fmt_txt.c ****         uint32_t gsize = gdsc->box_w * gdsc->box_h;
  94:..\..\..\lvgl\version_6.1.2\lvgl\src\lv_font/lv_font_fmt_txt.c ****         if(gsize == 0) return NULL;
  95:..\..\..\lvgl\version_6.1.2\lvgl\src\lv_font/lv_font_fmt_txt.c **** 
  96:..\..\..\lvgl\version_6.1.2\lvgl\src\lv_font/lv_font_fmt_txt.c ****         uint32_t buf_size = gsize;
  97:..\..\..\lvgl\version_6.1.2\lvgl\src\lv_font/lv_font_fmt_txt.c ****         switch(fdsc->bpp) {
  98:..\..\..\lvgl\version_6.1.2\lvgl\src\lv_font/lv_font_fmt_txt.c ****         case 1: buf_size = gsize >> 3;  break;
  99:..\..\..\lvgl\version_6.1.2\lvgl\src\lv_font/lv_font_fmt_txt.c ****         case 2: buf_size = gsize >> 2;  break;
 100:..\..\..\lvgl\version_6.1.2\lvgl\src\lv_font/lv_font_fmt_txt.c ****         case 3: buf_size = gsize >> 1;  break;
 101:..\..\..\lvgl\version_6.1.2\lvgl\src\lv_font/lv_font_fmt_txt.c ****         case 4: buf_size = gsize >> 1;  break;
 102:..\..\..\lvgl\version_6.1.2\lvgl\src\lv_font/lv_font_fmt_txt.c ****         }
 103:..\..\..\lvgl\version_6.1.2\lvgl\src\lv_font/lv_font_fmt_txt.c **** 
 104:..\..\..\lvgl\version_6.1.2\lvgl\src\lv_font/lv_font_fmt_txt.c ****         if(lv_mem_get_size(buf) < buf_size) {
 105:..\..\..\lvgl\version_6.1.2\lvgl\src\lv_font/lv_font_fmt_txt.c ****             buf = lv_mem_realloc(buf, buf_size);
 106:..\..\..\lvgl\version_6.1.2\lvgl\src\lv_font/lv_font_fmt_txt.c ****             LV_ASSERT_MEM(buf);
 107:..\..\..\lvgl\version_6.1.2\lvgl\src\lv_font/lv_font_fmt_txt.c ****             if(buf == NULL) return NULL;
 108:..\..\..\lvgl\version_6.1.2\lvgl\src\lv_font/lv_font_fmt_txt.c ****         }
 109:..\..\..\lvgl\version_6.1.2\lvgl\src\lv_font/lv_font_fmt_txt.c **** 
 110:..\..\..\lvgl\version_6.1.2\lvgl\src\lv_font/lv_font_fmt_txt.c ****         decompress(&fdsc->glyph_bitmap[gdsc->bitmap_index], buf, gdsc->box_w , gdsc->box_h, (uint8_
 111:..\..\..\lvgl\version_6.1.2\lvgl\src\lv_font/lv_font_fmt_txt.c ****         return buf;
 112:..\..\..\lvgl\version_6.1.2\lvgl\src\lv_font/lv_font_fmt_txt.c ****     }
 113:..\..\..\lvgl\version_6.1.2\lvgl\src\lv_font/lv_font_fmt_txt.c **** 
 114:..\..\..\lvgl\version_6.1.2\lvgl\src\lv_font/lv_font_fmt_txt.c ****     /*If not returned earlier then the letter is not found in this font*/
 115:..\..\..\lvgl\version_6.1.2\lvgl\src\lv_font/lv_font_fmt_txt.c ****     return NULL;
 116:..\..\..\lvgl\version_6.1.2\lvgl\src\lv_font/lv_font_fmt_txt.c **** }
 117:..\..\..\lvgl\version_6.1.2\lvgl\src\lv_font/lv_font_fmt_txt.c **** 
 118:..\..\..\lvgl\version_6.1.2\lvgl\src\lv_font/lv_font_fmt_txt.c **** /**
 119:..\..\..\lvgl\version_6.1.2\lvgl\src\lv_font/lv_font_fmt_txt.c ****  * Used as `get_glyph_dsc` callback in LittelvGL's native font format if the font is uncompressed.
 120:..\..\..\lvgl\version_6.1.2\lvgl\src\lv_font/lv_font_fmt_txt.c ****  * @param font_p pointer to font
 121:..\..\..\lvgl\version_6.1.2\lvgl\src\lv_font/lv_font_fmt_txt.c ****  * @param dsc_out store the result descriptor here
 122:..\..\..\lvgl\version_6.1.2\lvgl\src\lv_font/lv_font_fmt_txt.c ****  * @param letter an UNICODE letter code
 123:..\..\..\lvgl\version_6.1.2\lvgl\src\lv_font/lv_font_fmt_txt.c ****  * @return true: descriptor is successfully loaded into `dsc_out`.
 124:..\..\..\lvgl\version_6.1.2\lvgl\src\lv_font/lv_font_fmt_txt.c ****  *         false: the letter was not found, no data is loaded to `dsc_out`
 125:..\..\..\lvgl\version_6.1.2\lvgl\src\lv_font/lv_font_fmt_txt.c ****  */
 126:..\..\..\lvgl\version_6.1.2\lvgl\src\lv_font/lv_font_fmt_txt.c **** bool lv_font_get_glyph_dsc_fmt_txt(const lv_font_t * font, lv_font_glyph_dsc_t * dsc_out, uint32_t 
 127:..\..\..\lvgl\version_6.1.2\lvgl\src\lv_font/lv_font_fmt_txt.c **** {
 128:..\..\..\lvgl\version_6.1.2\lvgl\src\lv_font/lv_font_fmt_txt.c ****     lv_font_fmt_txt_dsc_t * fdsc = (lv_font_fmt_txt_dsc_t *) font->dsc;
 129:..\..\..\lvgl\version_6.1.2\lvgl\src\lv_font/lv_font_fmt_txt.c ****     uint32_t gid = get_glyph_dsc_id(font, unicode_letter);
 130:..\..\..\lvgl\version_6.1.2\lvgl\src\lv_font/lv_font_fmt_txt.c ****     if(!gid) return false;
 131:..\..\..\lvgl\version_6.1.2\lvgl\src\lv_font/lv_font_fmt_txt.c **** 
 132:..\..\..\lvgl\version_6.1.2\lvgl\src\lv_font/lv_font_fmt_txt.c ****     int8_t kvalue = 0;
 133:..\..\..\lvgl\version_6.1.2\lvgl\src\lv_font/lv_font_fmt_txt.c ****     if(fdsc->kern_dsc) {
 134:..\..\..\lvgl\version_6.1.2\lvgl\src\lv_font/lv_font_fmt_txt.c ****         uint32_t gid_next = get_glyph_dsc_id(font, unicode_letter_next);
 135:..\..\..\lvgl\version_6.1.2\lvgl\src\lv_font/lv_font_fmt_txt.c ****         if(gid_next) {
 136:..\..\..\lvgl\version_6.1.2\lvgl\src\lv_font/lv_font_fmt_txt.c ****             kvalue = get_kern_value(font, gid, gid_next);
 137:..\..\..\lvgl\version_6.1.2\lvgl\src\lv_font/lv_font_fmt_txt.c ****         }
 138:..\..\..\lvgl\version_6.1.2\lvgl\src\lv_font/lv_font_fmt_txt.c ****     }
 139:..\..\..\lvgl\version_6.1.2\lvgl\src\lv_font/lv_font_fmt_txt.c **** 
 140:..\..\..\lvgl\version_6.1.2\lvgl\src\lv_font/lv_font_fmt_txt.c ****     /*Put together a glyph dsc*/
 141:..\..\..\lvgl\version_6.1.2\lvgl\src\lv_font/lv_font_fmt_txt.c ****     const lv_font_fmt_txt_glyph_dsc_t * gdsc = &fdsc->glyph_dsc[gid];
 142:..\..\..\lvgl\version_6.1.2\lvgl\src\lv_font/lv_font_fmt_txt.c **** 
 143:..\..\..\lvgl\version_6.1.2\lvgl\src\lv_font/lv_font_fmt_txt.c ****     int32_t kv = ((int32_t)((int32_t)kvalue * fdsc->kern_scale) >> 4);
 144:..\..\..\lvgl\version_6.1.2\lvgl\src\lv_font/lv_font_fmt_txt.c **** 
ARM GAS  C:\Users\pearlstl\AppData\Local\Temp\ccllHTLf.s 			page 4


 145:..\..\..\lvgl\version_6.1.2\lvgl\src\lv_font/lv_font_fmt_txt.c ****     uint32_t adv_w = gdsc->adv_w + kv;
 146:..\..\..\lvgl\version_6.1.2\lvgl\src\lv_font/lv_font_fmt_txt.c ****     adv_w  = (adv_w + (1 << 3)) >> 4;
 147:..\..\..\lvgl\version_6.1.2\lvgl\src\lv_font/lv_font_fmt_txt.c **** 
 148:..\..\..\lvgl\version_6.1.2\lvgl\src\lv_font/lv_font_fmt_txt.c ****     dsc_out->adv_w = adv_w;
 149:..\..\..\lvgl\version_6.1.2\lvgl\src\lv_font/lv_font_fmt_txt.c ****     dsc_out->box_h = gdsc->box_h;
 150:..\..\..\lvgl\version_6.1.2\lvgl\src\lv_font/lv_font_fmt_txt.c ****     dsc_out->box_w = gdsc->box_w;
 151:..\..\..\lvgl\version_6.1.2\lvgl\src\lv_font/lv_font_fmt_txt.c ****     dsc_out->ofs_x = gdsc->ofs_x;
 152:..\..\..\lvgl\version_6.1.2\lvgl\src\lv_font/lv_font_fmt_txt.c ****     dsc_out->ofs_y = gdsc->ofs_y;
 153:..\..\..\lvgl\version_6.1.2\lvgl\src\lv_font/lv_font_fmt_txt.c ****     dsc_out->bpp   = (uint8_t)fdsc->bpp;
 154:..\..\..\lvgl\version_6.1.2\lvgl\src\lv_font/lv_font_fmt_txt.c **** 
 155:..\..\..\lvgl\version_6.1.2\lvgl\src\lv_font/lv_font_fmt_txt.c ****     return true;
 156:..\..\..\lvgl\version_6.1.2\lvgl\src\lv_font/lv_font_fmt_txt.c **** }
 157:..\..\..\lvgl\version_6.1.2\lvgl\src\lv_font/lv_font_fmt_txt.c **** 
 158:..\..\..\lvgl\version_6.1.2\lvgl\src\lv_font/lv_font_fmt_txt.c **** /**********************
 159:..\..\..\lvgl\version_6.1.2\lvgl\src\lv_font/lv_font_fmt_txt.c ****  *   STATIC FUNCTIONS
 160:..\..\..\lvgl\version_6.1.2\lvgl\src\lv_font/lv_font_fmt_txt.c ****  **********************/
 161:..\..\..\lvgl\version_6.1.2\lvgl\src\lv_font/lv_font_fmt_txt.c **** 
 162:..\..\..\lvgl\version_6.1.2\lvgl\src\lv_font/lv_font_fmt_txt.c **** static uint32_t get_glyph_dsc_id(const lv_font_t * font, uint32_t letter)
 163:..\..\..\lvgl\version_6.1.2\lvgl\src\lv_font/lv_font_fmt_txt.c **** {
 164:..\..\..\lvgl\version_6.1.2\lvgl\src\lv_font/lv_font_fmt_txt.c ****     if(letter == '\0') return 0;
 165:..\..\..\lvgl\version_6.1.2\lvgl\src\lv_font/lv_font_fmt_txt.c **** 
 166:..\..\..\lvgl\version_6.1.2\lvgl\src\lv_font/lv_font_fmt_txt.c ****     lv_font_fmt_txt_dsc_t * fdsc = (lv_font_fmt_txt_dsc_t *) font->dsc;
 167:..\..\..\lvgl\version_6.1.2\lvgl\src\lv_font/lv_font_fmt_txt.c **** 
 168:..\..\..\lvgl\version_6.1.2\lvgl\src\lv_font/lv_font_fmt_txt.c ****     /*Check the cache first*/
 169:..\..\..\lvgl\version_6.1.2\lvgl\src\lv_font/lv_font_fmt_txt.c ****     if(letter == fdsc->last_letter) return fdsc->last_glyph_id;
 170:..\..\..\lvgl\version_6.1.2\lvgl\src\lv_font/lv_font_fmt_txt.c **** 
 171:..\..\..\lvgl\version_6.1.2\lvgl\src\lv_font/lv_font_fmt_txt.c ****     uint16_t i;
 172:..\..\..\lvgl\version_6.1.2\lvgl\src\lv_font/lv_font_fmt_txt.c ****     for(i = 0; i < fdsc->cmap_num; i++) {
 173:..\..\..\lvgl\version_6.1.2\lvgl\src\lv_font/lv_font_fmt_txt.c **** 
 174:..\..\..\lvgl\version_6.1.2\lvgl\src\lv_font/lv_font_fmt_txt.c ****         /*Relative code point*/
 175:..\..\..\lvgl\version_6.1.2\lvgl\src\lv_font/lv_font_fmt_txt.c ****         uint32_t rcp = letter - fdsc->cmaps[i].range_start;
 176:..\..\..\lvgl\version_6.1.2\lvgl\src\lv_font/lv_font_fmt_txt.c ****         if(rcp > fdsc->cmaps[i].range_length) continue;
 177:..\..\..\lvgl\version_6.1.2\lvgl\src\lv_font/lv_font_fmt_txt.c ****         uint32_t glyph_id = 0;
 178:..\..\..\lvgl\version_6.1.2\lvgl\src\lv_font/lv_font_fmt_txt.c ****         if(fdsc->cmaps[i].type == LV_FONT_FMT_TXT_CMAP_FORMAT0_TINY) {
 179:..\..\..\lvgl\version_6.1.2\lvgl\src\lv_font/lv_font_fmt_txt.c ****             glyph_id = fdsc->cmaps[i].glyph_id_start + rcp;
 180:..\..\..\lvgl\version_6.1.2\lvgl\src\lv_font/lv_font_fmt_txt.c ****         }
 181:..\..\..\lvgl\version_6.1.2\lvgl\src\lv_font/lv_font_fmt_txt.c ****         else if(fdsc->cmaps[i].type == LV_FONT_FMT_TXT_CMAP_FORMAT0_FULL) {
 182:..\..\..\lvgl\version_6.1.2\lvgl\src\lv_font/lv_font_fmt_txt.c ****             const uint8_t * gid_ofs_8 = fdsc->cmaps[i].glyph_id_ofs_list;
 183:..\..\..\lvgl\version_6.1.2\lvgl\src\lv_font/lv_font_fmt_txt.c ****             glyph_id = fdsc->cmaps[i].glyph_id_start + gid_ofs_8[rcp];
 184:..\..\..\lvgl\version_6.1.2\lvgl\src\lv_font/lv_font_fmt_txt.c ****         }
 185:..\..\..\lvgl\version_6.1.2\lvgl\src\lv_font/lv_font_fmt_txt.c ****         else if(fdsc->cmaps[i].type == LV_FONT_FMT_TXT_CMAP_SPARSE_TINY) {
 186:..\..\..\lvgl\version_6.1.2\lvgl\src\lv_font/lv_font_fmt_txt.c ****             uint8_t * p = lv_utils_bsearch(&rcp, fdsc->cmaps[i].unicode_list, fdsc->cmaps[i].list_l
 187:..\..\..\lvgl\version_6.1.2\lvgl\src\lv_font/lv_font_fmt_txt.c **** 
 188:..\..\..\lvgl\version_6.1.2\lvgl\src\lv_font/lv_font_fmt_txt.c ****             if(p) {
 189:..\..\..\lvgl\version_6.1.2\lvgl\src\lv_font/lv_font_fmt_txt.c ****                 lv_uintptr_t ofs = (lv_uintptr_t)(p - (uint8_t *) fdsc->cmaps[i].unicode_list);
 190:..\..\..\lvgl\version_6.1.2\lvgl\src\lv_font/lv_font_fmt_txt.c ****                 ofs = ofs >> 1;     /*The list stores `uint16_t` so the get the index divide by 2*/
 191:..\..\..\lvgl\version_6.1.2\lvgl\src\lv_font/lv_font_fmt_txt.c ****                 glyph_id = fdsc->cmaps[i].glyph_id_start + ofs;
 192:..\..\..\lvgl\version_6.1.2\lvgl\src\lv_font/lv_font_fmt_txt.c ****             }
 193:..\..\..\lvgl\version_6.1.2\lvgl\src\lv_font/lv_font_fmt_txt.c ****         }
 194:..\..\..\lvgl\version_6.1.2\lvgl\src\lv_font/lv_font_fmt_txt.c ****         else if(fdsc->cmaps[i].type == LV_FONT_FMT_TXT_CMAP_SPARSE_FULL) {
 195:..\..\..\lvgl\version_6.1.2\lvgl\src\lv_font/lv_font_fmt_txt.c ****             uint8_t * p = lv_utils_bsearch(&rcp, fdsc->cmaps[i].unicode_list, fdsc->cmaps[i].list_l
 196:..\..\..\lvgl\version_6.1.2\lvgl\src\lv_font/lv_font_fmt_txt.c **** 
 197:..\..\..\lvgl\version_6.1.2\lvgl\src\lv_font/lv_font_fmt_txt.c ****             if(p) {
 198:..\..\..\lvgl\version_6.1.2\lvgl\src\lv_font/lv_font_fmt_txt.c ****                 lv_uintptr_t ofs = (lv_uintptr_t)(p - (uint8_t*) fdsc->cmaps[i].unicode_list);
 199:..\..\..\lvgl\version_6.1.2\lvgl\src\lv_font/lv_font_fmt_txt.c ****                 ofs = ofs >> 1;     /*The list stores `uint16_t` so the get the index divide by 2*/
 200:..\..\..\lvgl\version_6.1.2\lvgl\src\lv_font/lv_font_fmt_txt.c ****                 const uint8_t * gid_ofs_16 = fdsc->cmaps[i].glyph_id_ofs_list;
 201:..\..\..\lvgl\version_6.1.2\lvgl\src\lv_font/lv_font_fmt_txt.c ****                 glyph_id = fdsc->cmaps[i].glyph_id_start + gid_ofs_16[ofs];
ARM GAS  C:\Users\pearlstl\AppData\Local\Temp\ccllHTLf.s 			page 5


 202:..\..\..\lvgl\version_6.1.2\lvgl\src\lv_font/lv_font_fmt_txt.c ****             }
 203:..\..\..\lvgl\version_6.1.2\lvgl\src\lv_font/lv_font_fmt_txt.c ****         }
 204:..\..\..\lvgl\version_6.1.2\lvgl\src\lv_font/lv_font_fmt_txt.c **** 
 205:..\..\..\lvgl\version_6.1.2\lvgl\src\lv_font/lv_font_fmt_txt.c ****         /*Update the cache*/
 206:..\..\..\lvgl\version_6.1.2\lvgl\src\lv_font/lv_font_fmt_txt.c ****         fdsc->last_letter = letter;
 207:..\..\..\lvgl\version_6.1.2\lvgl\src\lv_font/lv_font_fmt_txt.c ****         fdsc->last_glyph_id = glyph_id;
 208:..\..\..\lvgl\version_6.1.2\lvgl\src\lv_font/lv_font_fmt_txt.c ****         return glyph_id;
 209:..\..\..\lvgl\version_6.1.2\lvgl\src\lv_font/lv_font_fmt_txt.c ****     }
 210:..\..\..\lvgl\version_6.1.2\lvgl\src\lv_font/lv_font_fmt_txt.c **** 
 211:..\..\..\lvgl\version_6.1.2\lvgl\src\lv_font/lv_font_fmt_txt.c ****     fdsc->last_letter = letter;
 212:..\..\..\lvgl\version_6.1.2\lvgl\src\lv_font/lv_font_fmt_txt.c ****     fdsc->last_glyph_id = 0;
 213:..\..\..\lvgl\version_6.1.2\lvgl\src\lv_font/lv_font_fmt_txt.c ****     return 0;
 214:..\..\..\lvgl\version_6.1.2\lvgl\src\lv_font/lv_font_fmt_txt.c **** 
 215:..\..\..\lvgl\version_6.1.2\lvgl\src\lv_font/lv_font_fmt_txt.c **** }
 216:..\..\..\lvgl\version_6.1.2\lvgl\src\lv_font/lv_font_fmt_txt.c **** 
 217:..\..\..\lvgl\version_6.1.2\lvgl\src\lv_font/lv_font_fmt_txt.c **** static int8_t get_kern_value(const lv_font_t * font, uint32_t gid_left, uint32_t gid_right)
 218:..\..\..\lvgl\version_6.1.2\lvgl\src\lv_font/lv_font_fmt_txt.c **** {
 219:..\..\..\lvgl\version_6.1.2\lvgl\src\lv_font/lv_font_fmt_txt.c ****     lv_font_fmt_txt_dsc_t * fdsc = (lv_font_fmt_txt_dsc_t *) font->dsc;
 220:..\..\..\lvgl\version_6.1.2\lvgl\src\lv_font/lv_font_fmt_txt.c **** 
 221:..\..\..\lvgl\version_6.1.2\lvgl\src\lv_font/lv_font_fmt_txt.c ****     int8_t value = 0;
 222:..\..\..\lvgl\version_6.1.2\lvgl\src\lv_font/lv_font_fmt_txt.c **** 
 223:..\..\..\lvgl\version_6.1.2\lvgl\src\lv_font/lv_font_fmt_txt.c ****     if(fdsc->kern_classes == 0) {
 224:..\..\..\lvgl\version_6.1.2\lvgl\src\lv_font/lv_font_fmt_txt.c ****         /*Kern pairs*/
 225:..\..\..\lvgl\version_6.1.2\lvgl\src\lv_font/lv_font_fmt_txt.c ****         const lv_font_fmt_txt_kern_pair_t * kdsc = fdsc->kern_dsc;
 226:..\..\..\lvgl\version_6.1.2\lvgl\src\lv_font/lv_font_fmt_txt.c ****         if(kdsc->glyph_ids_size == 0) {
 227:..\..\..\lvgl\version_6.1.2\lvgl\src\lv_font/lv_font_fmt_txt.c ****             /* Use binary search to find the kern value.
 228:..\..\..\lvgl\version_6.1.2\lvgl\src\lv_font/lv_font_fmt_txt.c ****              * The pairs are ordered left_id first, then right_id secondly. */
 229:..\..\..\lvgl\version_6.1.2\lvgl\src\lv_font/lv_font_fmt_txt.c ****             const uint8_t * g_ids = kdsc->glyph_ids;
 230:..\..\..\lvgl\version_6.1.2\lvgl\src\lv_font/lv_font_fmt_txt.c ****             uint16_t g_id_both = (gid_right << 8) + gid_left; /*Create one number from the ids*/
 231:..\..\..\lvgl\version_6.1.2\lvgl\src\lv_font/lv_font_fmt_txt.c ****             uint8_t * kid_p = lv_utils_bsearch(&g_id_both, g_ids, kdsc->pair_cnt, 2, kern_pair_8_co
 232:..\..\..\lvgl\version_6.1.2\lvgl\src\lv_font/lv_font_fmt_txt.c **** 
 233:..\..\..\lvgl\version_6.1.2\lvgl\src\lv_font/lv_font_fmt_txt.c ****             /*If the `g_id_both` were found get its index from the pointer*/
 234:..\..\..\lvgl\version_6.1.2\lvgl\src\lv_font/lv_font_fmt_txt.c ****             if(kid_p) {
 235:..\..\..\lvgl\version_6.1.2\lvgl\src\lv_font/lv_font_fmt_txt.c ****                 lv_uintptr_t ofs = (lv_uintptr_t)(kid_p - g_ids);
 236:..\..\..\lvgl\version_6.1.2\lvgl\src\lv_font/lv_font_fmt_txt.c ****                 ofs = ofs >> 1;     /*ofs is for pair, divide by 2 to refer as a single value*/
 237:..\..\..\lvgl\version_6.1.2\lvgl\src\lv_font/lv_font_fmt_txt.c ****                 value = kdsc->values[ofs];
 238:..\..\..\lvgl\version_6.1.2\lvgl\src\lv_font/lv_font_fmt_txt.c ****             }
 239:..\..\..\lvgl\version_6.1.2\lvgl\src\lv_font/lv_font_fmt_txt.c ****         } else if(kdsc->glyph_ids_size == 1) {
 240:..\..\..\lvgl\version_6.1.2\lvgl\src\lv_font/lv_font_fmt_txt.c ****             /* Use binary search to find the kern value.
 241:..\..\..\lvgl\version_6.1.2\lvgl\src\lv_font/lv_font_fmt_txt.c ****              * The pairs are ordered left_id first, then right_id secondly. */
 242:..\..\..\lvgl\version_6.1.2\lvgl\src\lv_font/lv_font_fmt_txt.c ****             const uint16_t * g_ids = kdsc->glyph_ids;
 243:..\..\..\lvgl\version_6.1.2\lvgl\src\lv_font/lv_font_fmt_txt.c ****             lv_uintptr_t g_id_both = (uint32_t)((uint32_t)gid_right << 8) + gid_left; /*Create one 
 244:..\..\..\lvgl\version_6.1.2\lvgl\src\lv_font/lv_font_fmt_txt.c ****             uint8_t * kid_p = lv_utils_bsearch(&g_id_both, g_ids, kdsc->pair_cnt, 4, kern_pair_16_c
 245:..\..\..\lvgl\version_6.1.2\lvgl\src\lv_font/lv_font_fmt_txt.c **** 
 246:..\..\..\lvgl\version_6.1.2\lvgl\src\lv_font/lv_font_fmt_txt.c ****             /*If the `g_id_both` were found get its index from the pointer*/
 247:..\..\..\lvgl\version_6.1.2\lvgl\src\lv_font/lv_font_fmt_txt.c ****             if(kid_p) {
 248:..\..\..\lvgl\version_6.1.2\lvgl\src\lv_font/lv_font_fmt_txt.c ****                 lv_uintptr_t ofs = (lv_uintptr_t) (kid_p - (const uint8_t *)g_ids);
 249:..\..\..\lvgl\version_6.1.2\lvgl\src\lv_font/lv_font_fmt_txt.c ****                 ofs = ofs >> 4;     /*ofs is 4 byte pairs, divide by 4 to refer as a single value*/
 250:..\..\..\lvgl\version_6.1.2\lvgl\src\lv_font/lv_font_fmt_txt.c ****                 value = kdsc->values[ofs];
 251:..\..\..\lvgl\version_6.1.2\lvgl\src\lv_font/lv_font_fmt_txt.c ****             }
 252:..\..\..\lvgl\version_6.1.2\lvgl\src\lv_font/lv_font_fmt_txt.c **** 
 253:..\..\..\lvgl\version_6.1.2\lvgl\src\lv_font/lv_font_fmt_txt.c ****         } else {
 254:..\..\..\lvgl\version_6.1.2\lvgl\src\lv_font/lv_font_fmt_txt.c ****             /*Invalid value*/
 255:..\..\..\lvgl\version_6.1.2\lvgl\src\lv_font/lv_font_fmt_txt.c ****         }
 256:..\..\..\lvgl\version_6.1.2\lvgl\src\lv_font/lv_font_fmt_txt.c ****     } else {
 257:..\..\..\lvgl\version_6.1.2\lvgl\src\lv_font/lv_font_fmt_txt.c ****         /*Kern classes*/
 258:..\..\..\lvgl\version_6.1.2\lvgl\src\lv_font/lv_font_fmt_txt.c ****         const lv_font_fmt_txt_kern_classes_t * kdsc = fdsc->kern_dsc;
ARM GAS  C:\Users\pearlstl\AppData\Local\Temp\ccllHTLf.s 			page 6


 259:..\..\..\lvgl\version_6.1.2\lvgl\src\lv_font/lv_font_fmt_txt.c ****         uint8_t left_class = kdsc->left_class_mapping[gid_left];
 260:..\..\..\lvgl\version_6.1.2\lvgl\src\lv_font/lv_font_fmt_txt.c ****         uint8_t right_class = kdsc->right_class_mapping[gid_right];
 261:..\..\..\lvgl\version_6.1.2\lvgl\src\lv_font/lv_font_fmt_txt.c **** 
 262:..\..\..\lvgl\version_6.1.2\lvgl\src\lv_font/lv_font_fmt_txt.c ****         /* If class = 0, kerning not exist for that glyph
 263:..\..\..\lvgl\version_6.1.2\lvgl\src\lv_font/lv_font_fmt_txt.c ****          * else got the value form `class_pair_values` 2D array*/
 264:..\..\..\lvgl\version_6.1.2\lvgl\src\lv_font/lv_font_fmt_txt.c ****         if(left_class > 0 && right_class > 0) {
 265:..\..\..\lvgl\version_6.1.2\lvgl\src\lv_font/lv_font_fmt_txt.c ****             value = kdsc->class_pair_values[(left_class-1)* kdsc->right_class_cnt + (right_class-1)
 266:..\..\..\lvgl\version_6.1.2\lvgl\src\lv_font/lv_font_fmt_txt.c ****         }
 267:..\..\..\lvgl\version_6.1.2\lvgl\src\lv_font/lv_font_fmt_txt.c **** 
 268:..\..\..\lvgl\version_6.1.2\lvgl\src\lv_font/lv_font_fmt_txt.c ****     }
 269:..\..\..\lvgl\version_6.1.2\lvgl\src\lv_font/lv_font_fmt_txt.c ****     return value;
 270:..\..\..\lvgl\version_6.1.2\lvgl\src\lv_font/lv_font_fmt_txt.c **** }
 271:..\..\..\lvgl\version_6.1.2\lvgl\src\lv_font/lv_font_fmt_txt.c **** 
 272:..\..\..\lvgl\version_6.1.2\lvgl\src\lv_font/lv_font_fmt_txt.c **** static int32_t kern_pair_8_compare(const void * ref, const void * element)
 273:..\..\..\lvgl\version_6.1.2\lvgl\src\lv_font/lv_font_fmt_txt.c **** {
  28              		.loc 1 273 0
  29              		.cfi_startproc
  30              		@ args = 0, pretend = 0, frame = 0
  31              		@ frame_needed = 0, uses_anonymous_args = 0
  32              		@ link register save eliminated.
  33              	.LVL0:
 274:..\..\..\lvgl\version_6.1.2\lvgl\src\lv_font/lv_font_fmt_txt.c ****     const uint8_t * ref8_p = ref;
 275:..\..\..\lvgl\version_6.1.2\lvgl\src\lv_font/lv_font_fmt_txt.c ****     const uint8_t * element8_p = element;
 276:..\..\..\lvgl\version_6.1.2\lvgl\src\lv_font/lv_font_fmt_txt.c **** 
 277:..\..\..\lvgl\version_6.1.2\lvgl\src\lv_font/lv_font_fmt_txt.c ****     /*If the MSB is different it will matter. If not return the diff. of the LSB*/
 278:..\..\..\lvgl\version_6.1.2\lvgl\src\lv_font/lv_font_fmt_txt.c ****     if(ref8_p[0] != element8_p[0]) return (int32_t)ref8_p[0] - element8_p[0];
  34              		.loc 1 278 0
  35 0000 0378     		ldrb	r3, [r0]	@ zero_extendqisi2
  36 0002 0A78     		ldrb	r2, [r1]	@ zero_extendqisi2
  37 0004 9342     		cmp	r3, r2
 279:..\..\..\lvgl\version_6.1.2\lvgl\src\lv_font/lv_font_fmt_txt.c ****     else return (int32_t) ref8_p[1] - element8_p[1];
  38              		.loc 1 279 0
  39 0006 09BF     		itett	eq
  40 0008 4378     		ldrbeq	r3, [r0, #1]	@ zero_extendqisi2
 278:..\..\..\lvgl\version_6.1.2\lvgl\src\lv_font/lv_font_fmt_txt.c ****     else return (int32_t) ref8_p[1] - element8_p[1];
  41              		.loc 1 278 0
  42 000a 981A     		subne	r0, r3, r2
  43              	.LVL1:
  44              		.loc 1 279 0
  45 000c 4878     		ldrbeq	r0, [r1, #1]	@ zero_extendqisi2
  46 000e 181A     		subeq	r0, r3, r0
 280:..\..\..\lvgl\version_6.1.2\lvgl\src\lv_font/lv_font_fmt_txt.c **** 
 281:..\..\..\lvgl\version_6.1.2\lvgl\src\lv_font/lv_font_fmt_txt.c **** }
  47              		.loc 1 281 0
  48 0010 7047     		bx	lr
  49              		.cfi_endproc
  50              	.LFE35:
  51              		.size	kern_pair_8_compare, .-kern_pair_8_compare
  52 0012 00BF     		.section	.text.kern_pair_16_compare,"ax",%progbits
  53              		.align	2
  54              		.thumb
  55              		.thumb_func
  56              		.type	kern_pair_16_compare, %function
  57              	kern_pair_16_compare:
  58              	.LFB36:
 282:..\..\..\lvgl\version_6.1.2\lvgl\src\lv_font/lv_font_fmt_txt.c **** 
 283:..\..\..\lvgl\version_6.1.2\lvgl\src\lv_font/lv_font_fmt_txt.c **** static int32_t kern_pair_16_compare(const void * ref, const void * element)
ARM GAS  C:\Users\pearlstl\AppData\Local\Temp\ccllHTLf.s 			page 7


 284:..\..\..\lvgl\version_6.1.2\lvgl\src\lv_font/lv_font_fmt_txt.c **** {
  59              		.loc 1 284 0
  60              		.cfi_startproc
  61              		@ args = 0, pretend = 0, frame = 0
  62              		@ frame_needed = 0, uses_anonymous_args = 0
  63              		@ link register save eliminated.
  64              	.LVL2:
 285:..\..\..\lvgl\version_6.1.2\lvgl\src\lv_font/lv_font_fmt_txt.c ****     const uint16_t * ref16_p = ref;
 286:..\..\..\lvgl\version_6.1.2\lvgl\src\lv_font/lv_font_fmt_txt.c ****     const uint16_t * element16_p = element;
 287:..\..\..\lvgl\version_6.1.2\lvgl\src\lv_font/lv_font_fmt_txt.c **** 
 288:..\..\..\lvgl\version_6.1.2\lvgl\src\lv_font/lv_font_fmt_txt.c ****     /*If the MSB is different it will matter. If not return the diff. of the LSB*/
 289:..\..\..\lvgl\version_6.1.2\lvgl\src\lv_font/lv_font_fmt_txt.c ****     if(ref16_p[0] != element16_p[0]) return (int32_t)ref16_p[0] - element16_p[0];
  65              		.loc 1 289 0
  66 0000 0388     		ldrh	r3, [r0]
  67 0002 0A88     		ldrh	r2, [r1]
  68 0004 9342     		cmp	r3, r2
 290:..\..\..\lvgl\version_6.1.2\lvgl\src\lv_font/lv_font_fmt_txt.c ****     else return (int32_t) ref16_p[1] - element16_p[1];
  69              		.loc 1 290 0
  70 0006 09BF     		itett	eq
  71 0008 4388     		ldrheq	r3, [r0, #2]
 289:..\..\..\lvgl\version_6.1.2\lvgl\src\lv_font/lv_font_fmt_txt.c ****     else return (int32_t) ref16_p[1] - element16_p[1];
  72              		.loc 1 289 0
  73 000a 981A     		subne	r0, r3, r2
  74              	.LVL3:
  75              		.loc 1 290 0
  76 000c 4888     		ldrheq	r0, [r1, #2]
  77 000e 181A     		subeq	r0, r3, r0
 291:..\..\..\lvgl\version_6.1.2\lvgl\src\lv_font/lv_font_fmt_txt.c **** }
  78              		.loc 1 291 0
  79 0010 7047     		bx	lr
  80              		.cfi_endproc
  81              	.LFE36:
  82              		.size	kern_pair_16_compare, .-kern_pair_16_compare
  83 0012 00BF     		.section	.text.unicode_list_compare,"ax",%progbits
  84              		.align	2
  85              		.thumb
  86              		.thumb_func
  87              		.type	unicode_list_compare, %function
  88              	unicode_list_compare:
  89              	.LFB43:
 292:..\..\..\lvgl\version_6.1.2\lvgl\src\lv_font/lv_font_fmt_txt.c **** 
 293:..\..\..\lvgl\version_6.1.2\lvgl\src\lv_font/lv_font_fmt_txt.c **** /**
 294:..\..\..\lvgl\version_6.1.2\lvgl\src\lv_font/lv_font_fmt_txt.c ****  * The compress a glyph's bitmap
 295:..\..\..\lvgl\version_6.1.2\lvgl\src\lv_font/lv_font_fmt_txt.c ****  * @param in the compressed bitmap
 296:..\..\..\lvgl\version_6.1.2\lvgl\src\lv_font/lv_font_fmt_txt.c ****  * @param out buffer to store the result
 297:..\..\..\lvgl\version_6.1.2\lvgl\src\lv_font/lv_font_fmt_txt.c ****  * @param px_num number of pixels in the glyph (width * height)
 298:..\..\..\lvgl\version_6.1.2\lvgl\src\lv_font/lv_font_fmt_txt.c ****  * @param bpp bit per pixel (bpp = 3 will be converted to bpp = 4)
 299:..\..\..\lvgl\version_6.1.2\lvgl\src\lv_font/lv_font_fmt_txt.c ****  */
 300:..\..\..\lvgl\version_6.1.2\lvgl\src\lv_font/lv_font_fmt_txt.c **** static void decompress(const uint8_t * in, uint8_t * out, lv_coord_t w, lv_coord_t h, uint8_t bpp)
 301:..\..\..\lvgl\version_6.1.2\lvgl\src\lv_font/lv_font_fmt_txt.c **** {
 302:..\..\..\lvgl\version_6.1.2\lvgl\src\lv_font/lv_font_fmt_txt.c ****     uint32_t wrp = 0;
 303:..\..\..\lvgl\version_6.1.2\lvgl\src\lv_font/lv_font_fmt_txt.c ****     uint8_t wr_size = bpp;
 304:..\..\..\lvgl\version_6.1.2\lvgl\src\lv_font/lv_font_fmt_txt.c ****     if(bpp == 3) wr_size = 4;
 305:..\..\..\lvgl\version_6.1.2\lvgl\src\lv_font/lv_font_fmt_txt.c **** 
 306:..\..\..\lvgl\version_6.1.2\lvgl\src\lv_font/lv_font_fmt_txt.c ****     rle_init(in, bpp);
 307:..\..\..\lvgl\version_6.1.2\lvgl\src\lv_font/lv_font_fmt_txt.c **** 
 308:..\..\..\lvgl\version_6.1.2\lvgl\src\lv_font/lv_font_fmt_txt.c ****     uint8_t * line_buf = lv_draw_get_buf(w * 2);
ARM GAS  C:\Users\pearlstl\AppData\Local\Temp\ccllHTLf.s 			page 8


 309:..\..\..\lvgl\version_6.1.2\lvgl\src\lv_font/lv_font_fmt_txt.c ****     uint8_t * line_buf1 = line_buf;
 310:..\..\..\lvgl\version_6.1.2\lvgl\src\lv_font/lv_font_fmt_txt.c ****     uint8_t * line_buf2 = line_buf + w;
 311:..\..\..\lvgl\version_6.1.2\lvgl\src\lv_font/lv_font_fmt_txt.c **** 
 312:..\..\..\lvgl\version_6.1.2\lvgl\src\lv_font/lv_font_fmt_txt.c ****     decompress_line(line_buf1, w);
 313:..\..\..\lvgl\version_6.1.2\lvgl\src\lv_font/lv_font_fmt_txt.c **** 
 314:..\..\..\lvgl\version_6.1.2\lvgl\src\lv_font/lv_font_fmt_txt.c ****     lv_coord_t y;
 315:..\..\..\lvgl\version_6.1.2\lvgl\src\lv_font/lv_font_fmt_txt.c ****     lv_coord_t x;
 316:..\..\..\lvgl\version_6.1.2\lvgl\src\lv_font/lv_font_fmt_txt.c ****     for(x = 0; x < w; x++) {
 317:..\..\..\lvgl\version_6.1.2\lvgl\src\lv_font/lv_font_fmt_txt.c ****         bits_write(out,wrp, line_buf1[x], bpp);
 318:..\..\..\lvgl\version_6.1.2\lvgl\src\lv_font/lv_font_fmt_txt.c ****         wrp += wr_size;
 319:..\..\..\lvgl\version_6.1.2\lvgl\src\lv_font/lv_font_fmt_txt.c ****     }
 320:..\..\..\lvgl\version_6.1.2\lvgl\src\lv_font/lv_font_fmt_txt.c **** 
 321:..\..\..\lvgl\version_6.1.2\lvgl\src\lv_font/lv_font_fmt_txt.c ****     for(y = 1; y < h; y++) {
 322:..\..\..\lvgl\version_6.1.2\lvgl\src\lv_font/lv_font_fmt_txt.c ****         decompress_line(line_buf2, w);
 323:..\..\..\lvgl\version_6.1.2\lvgl\src\lv_font/lv_font_fmt_txt.c **** 
 324:..\..\..\lvgl\version_6.1.2\lvgl\src\lv_font/lv_font_fmt_txt.c ****         for(x = 0; x < w; x++) {
 325:..\..\..\lvgl\version_6.1.2\lvgl\src\lv_font/lv_font_fmt_txt.c ****             line_buf1[x] = line_buf2[x] ^ line_buf1[x];
 326:..\..\..\lvgl\version_6.1.2\lvgl\src\lv_font/lv_font_fmt_txt.c ****             bits_write(out,wrp, line_buf1[x], bpp);
 327:..\..\..\lvgl\version_6.1.2\lvgl\src\lv_font/lv_font_fmt_txt.c ****             wrp += wr_size;
 328:..\..\..\lvgl\version_6.1.2\lvgl\src\lv_font/lv_font_fmt_txt.c ****         }
 329:..\..\..\lvgl\version_6.1.2\lvgl\src\lv_font/lv_font_fmt_txt.c ****     }
 330:..\..\..\lvgl\version_6.1.2\lvgl\src\lv_font/lv_font_fmt_txt.c **** }
 331:..\..\..\lvgl\version_6.1.2\lvgl\src\lv_font/lv_font_fmt_txt.c **** 
 332:..\..\..\lvgl\version_6.1.2\lvgl\src\lv_font/lv_font_fmt_txt.c **** /**
 333:..\..\..\lvgl\version_6.1.2\lvgl\src\lv_font/lv_font_fmt_txt.c ****  * Decompress one line. Store one pixel per byte
 334:..\..\..\lvgl\version_6.1.2\lvgl\src\lv_font/lv_font_fmt_txt.c ****  * @param out output buffer
 335:..\..\..\lvgl\version_6.1.2\lvgl\src\lv_font/lv_font_fmt_txt.c ****  * @param w width of the line in pixel count
 336:..\..\..\lvgl\version_6.1.2\lvgl\src\lv_font/lv_font_fmt_txt.c ****  */
 337:..\..\..\lvgl\version_6.1.2\lvgl\src\lv_font/lv_font_fmt_txt.c **** static void decompress_line(uint8_t * out, lv_coord_t w)
 338:..\..\..\lvgl\version_6.1.2\lvgl\src\lv_font/lv_font_fmt_txt.c **** {
 339:..\..\..\lvgl\version_6.1.2\lvgl\src\lv_font/lv_font_fmt_txt.c ****     lv_coord_t i;
 340:..\..\..\lvgl\version_6.1.2\lvgl\src\lv_font/lv_font_fmt_txt.c ****     for(i = 0; i < w; i++) {
 341:..\..\..\lvgl\version_6.1.2\lvgl\src\lv_font/lv_font_fmt_txt.c ****         out[i] = rle_next();
 342:..\..\..\lvgl\version_6.1.2\lvgl\src\lv_font/lv_font_fmt_txt.c ****     }
 343:..\..\..\lvgl\version_6.1.2\lvgl\src\lv_font/lv_font_fmt_txt.c **** }
 344:..\..\..\lvgl\version_6.1.2\lvgl\src\lv_font/lv_font_fmt_txt.c **** 
 345:..\..\..\lvgl\version_6.1.2\lvgl\src\lv_font/lv_font_fmt_txt.c **** /**
 346:..\..\..\lvgl\version_6.1.2\lvgl\src\lv_font/lv_font_fmt_txt.c ****  * Read bits from an input buffer. The read can cross byte boundary.
 347:..\..\..\lvgl\version_6.1.2\lvgl\src\lv_font/lv_font_fmt_txt.c ****  * @param in the input buffer to read from.
 348:..\..\..\lvgl\version_6.1.2\lvgl\src\lv_font/lv_font_fmt_txt.c ****  * @param bit_pos index of teh first bit to read.
 349:..\..\..\lvgl\version_6.1.2\lvgl\src\lv_font/lv_font_fmt_txt.c ****  * @param len number of bits to read (must be <= 8).
 350:..\..\..\lvgl\version_6.1.2\lvgl\src\lv_font/lv_font_fmt_txt.c ****  * @return the read bits
 351:..\..\..\lvgl\version_6.1.2\lvgl\src\lv_font/lv_font_fmt_txt.c ****  */
 352:..\..\..\lvgl\version_6.1.2\lvgl\src\lv_font/lv_font_fmt_txt.c **** static uint8_t get_bits(const uint8_t * in, uint32_t bit_pos, uint8_t len)
 353:..\..\..\lvgl\version_6.1.2\lvgl\src\lv_font/lv_font_fmt_txt.c **** {
 354:..\..\..\lvgl\version_6.1.2\lvgl\src\lv_font/lv_font_fmt_txt.c ****     uint8_t res = 0;
 355:..\..\..\lvgl\version_6.1.2\lvgl\src\lv_font/lv_font_fmt_txt.c ****     uint32_t byte_pos = bit_pos >> 3;
 356:..\..\..\lvgl\version_6.1.2\lvgl\src\lv_font/lv_font_fmt_txt.c ****     bit_pos = bit_pos & 0x7;
 357:..\..\..\lvgl\version_6.1.2\lvgl\src\lv_font/lv_font_fmt_txt.c ****     uint8_t bit_mask = (uint16_t)((uint16_t) 1 << len) - 1;
 358:..\..\..\lvgl\version_6.1.2\lvgl\src\lv_font/lv_font_fmt_txt.c ****     uint16_t in16 = (in[byte_pos] << 8) + in[byte_pos + 1];
 359:..\..\..\lvgl\version_6.1.2\lvgl\src\lv_font/lv_font_fmt_txt.c **** 
 360:..\..\..\lvgl\version_6.1.2\lvgl\src\lv_font/lv_font_fmt_txt.c ****     res = (in16 >> (16 - bit_pos - len)) & bit_mask;
 361:..\..\..\lvgl\version_6.1.2\lvgl\src\lv_font/lv_font_fmt_txt.c ****     return res;
 362:..\..\..\lvgl\version_6.1.2\lvgl\src\lv_font/lv_font_fmt_txt.c **** }
 363:..\..\..\lvgl\version_6.1.2\lvgl\src\lv_font/lv_font_fmt_txt.c **** 
 364:..\..\..\lvgl\version_6.1.2\lvgl\src\lv_font/lv_font_fmt_txt.c **** /**
 365:..\..\..\lvgl\version_6.1.2\lvgl\src\lv_font/lv_font_fmt_txt.c ****  * Write `val` data to `bit_pos` position of `out`. The write can NOT cross byte boundary.
ARM GAS  C:\Users\pearlstl\AppData\Local\Temp\ccllHTLf.s 			page 9


 366:..\..\..\lvgl\version_6.1.2\lvgl\src\lv_font/lv_font_fmt_txt.c ****  * @param out buffer where to write
 367:..\..\..\lvgl\version_6.1.2\lvgl\src\lv_font/lv_font_fmt_txt.c ****  * @param bit_pos bit index to write
 368:..\..\..\lvgl\version_6.1.2\lvgl\src\lv_font/lv_font_fmt_txt.c ****  * @param val value to write
 369:..\..\..\lvgl\version_6.1.2\lvgl\src\lv_font/lv_font_fmt_txt.c ****  * @param len length of bits to write from `val`. (Counted from the LSB).
 370:..\..\..\lvgl\version_6.1.2\lvgl\src\lv_font/lv_font_fmt_txt.c ****  * @note `len == 3` will be converted to `len = 4` and `val` will be upscaled too
 371:..\..\..\lvgl\version_6.1.2\lvgl\src\lv_font/lv_font_fmt_txt.c ****  */
 372:..\..\..\lvgl\version_6.1.2\lvgl\src\lv_font/lv_font_fmt_txt.c **** static void bits_write(uint8_t * out, uint32_t bit_pos, uint8_t val, uint8_t len)
 373:..\..\..\lvgl\version_6.1.2\lvgl\src\lv_font/lv_font_fmt_txt.c **** {
 374:..\..\..\lvgl\version_6.1.2\lvgl\src\lv_font/lv_font_fmt_txt.c ****     if(len == 3) {
 375:..\..\..\lvgl\version_6.1.2\lvgl\src\lv_font/lv_font_fmt_txt.c ****         len = 4;
 376:..\..\..\lvgl\version_6.1.2\lvgl\src\lv_font/lv_font_fmt_txt.c ****         switch(val) {
 377:..\..\..\lvgl\version_6.1.2\lvgl\src\lv_font/lv_font_fmt_txt.c ****         case 0: val = 0; break;
 378:..\..\..\lvgl\version_6.1.2\lvgl\src\lv_font/lv_font_fmt_txt.c ****         case 1: val = 2; break;
 379:..\..\..\lvgl\version_6.1.2\lvgl\src\lv_font/lv_font_fmt_txt.c ****         case 2: val = 4; break;
 380:..\..\..\lvgl\version_6.1.2\lvgl\src\lv_font/lv_font_fmt_txt.c ****         case 3: val = 6; break;
 381:..\..\..\lvgl\version_6.1.2\lvgl\src\lv_font/lv_font_fmt_txt.c ****         case 4: val = 9; break;
 382:..\..\..\lvgl\version_6.1.2\lvgl\src\lv_font/lv_font_fmt_txt.c ****         case 5: val = 11; break;
 383:..\..\..\lvgl\version_6.1.2\lvgl\src\lv_font/lv_font_fmt_txt.c ****         case 6: val = 13; break;
 384:..\..\..\lvgl\version_6.1.2\lvgl\src\lv_font/lv_font_fmt_txt.c ****         case 7: val = 15; break;
 385:..\..\..\lvgl\version_6.1.2\lvgl\src\lv_font/lv_font_fmt_txt.c ****         }
 386:..\..\..\lvgl\version_6.1.2\lvgl\src\lv_font/lv_font_fmt_txt.c ****     }
 387:..\..\..\lvgl\version_6.1.2\lvgl\src\lv_font/lv_font_fmt_txt.c **** 
 388:..\..\..\lvgl\version_6.1.2\lvgl\src\lv_font/lv_font_fmt_txt.c ****     uint16_t byte_pos = bit_pos >> 3;
 389:..\..\..\lvgl\version_6.1.2\lvgl\src\lv_font/lv_font_fmt_txt.c ****     bit_pos = bit_pos & 0x7;
 390:..\..\..\lvgl\version_6.1.2\lvgl\src\lv_font/lv_font_fmt_txt.c ****     bit_pos = 8 - bit_pos - len;
 391:..\..\..\lvgl\version_6.1.2\lvgl\src\lv_font/lv_font_fmt_txt.c **** 
 392:..\..\..\lvgl\version_6.1.2\lvgl\src\lv_font/lv_font_fmt_txt.c ****     uint8_t bit_mask = (uint16_t)((uint16_t) 1 << len) - 1;
 393:..\..\..\lvgl\version_6.1.2\lvgl\src\lv_font/lv_font_fmt_txt.c ****     out[byte_pos] &= ((~bit_mask) << bit_pos);
 394:..\..\..\lvgl\version_6.1.2\lvgl\src\lv_font/lv_font_fmt_txt.c ****     out[byte_pos] |= (val << bit_pos);
 395:..\..\..\lvgl\version_6.1.2\lvgl\src\lv_font/lv_font_fmt_txt.c **** }
 396:..\..\..\lvgl\version_6.1.2\lvgl\src\lv_font/lv_font_fmt_txt.c **** 
 397:..\..\..\lvgl\version_6.1.2\lvgl\src\lv_font/lv_font_fmt_txt.c **** static void rle_init(const uint8_t * in,  uint8_t bpp)
 398:..\..\..\lvgl\version_6.1.2\lvgl\src\lv_font/lv_font_fmt_txt.c **** {
 399:..\..\..\lvgl\version_6.1.2\lvgl\src\lv_font/lv_font_fmt_txt.c ****     rle_in = in;
 400:..\..\..\lvgl\version_6.1.2\lvgl\src\lv_font/lv_font_fmt_txt.c ****     rle_bpp = bpp;
 401:..\..\..\lvgl\version_6.1.2\lvgl\src\lv_font/lv_font_fmt_txt.c ****     rle_state = RLE_STATE_SINGLE;
 402:..\..\..\lvgl\version_6.1.2\lvgl\src\lv_font/lv_font_fmt_txt.c ****     rle_rdp = 0;
 403:..\..\..\lvgl\version_6.1.2\lvgl\src\lv_font/lv_font_fmt_txt.c ****     rle_prev_v = 0;
 404:..\..\..\lvgl\version_6.1.2\lvgl\src\lv_font/lv_font_fmt_txt.c ****     rle_cnt = 0;
 405:..\..\..\lvgl\version_6.1.2\lvgl\src\lv_font/lv_font_fmt_txt.c **** }
 406:..\..\..\lvgl\version_6.1.2\lvgl\src\lv_font/lv_font_fmt_txt.c **** 
 407:..\..\..\lvgl\version_6.1.2\lvgl\src\lv_font/lv_font_fmt_txt.c **** static uint8_t rle_next(void)
 408:..\..\..\lvgl\version_6.1.2\lvgl\src\lv_font/lv_font_fmt_txt.c **** {
 409:..\..\..\lvgl\version_6.1.2\lvgl\src\lv_font/lv_font_fmt_txt.c ****     uint8_t v = 0;
 410:..\..\..\lvgl\version_6.1.2\lvgl\src\lv_font/lv_font_fmt_txt.c ****     uint8_t ret = 0;
 411:..\..\..\lvgl\version_6.1.2\lvgl\src\lv_font/lv_font_fmt_txt.c **** 
 412:..\..\..\lvgl\version_6.1.2\lvgl\src\lv_font/lv_font_fmt_txt.c ****     if(rle_state == RLE_STATE_SINGLE) {
 413:..\..\..\lvgl\version_6.1.2\lvgl\src\lv_font/lv_font_fmt_txt.c ****         ret = get_bits(rle_in, rle_rdp, rle_bpp);
 414:..\..\..\lvgl\version_6.1.2\lvgl\src\lv_font/lv_font_fmt_txt.c ****         if(rle_rdp != 0 && rle_prev_v == ret) {
 415:..\..\..\lvgl\version_6.1.2\lvgl\src\lv_font/lv_font_fmt_txt.c ****             rle_cnt = 0;
 416:..\..\..\lvgl\version_6.1.2\lvgl\src\lv_font/lv_font_fmt_txt.c ****             rle_state = RLE_STATE_REPEATE;
 417:..\..\..\lvgl\version_6.1.2\lvgl\src\lv_font/lv_font_fmt_txt.c ****         }
 418:..\..\..\lvgl\version_6.1.2\lvgl\src\lv_font/lv_font_fmt_txt.c **** 
 419:..\..\..\lvgl\version_6.1.2\lvgl\src\lv_font/lv_font_fmt_txt.c ****         rle_prev_v = ret;
 420:..\..\..\lvgl\version_6.1.2\lvgl\src\lv_font/lv_font_fmt_txt.c ****         rle_rdp += rle_bpp;
 421:..\..\..\lvgl\version_6.1.2\lvgl\src\lv_font/lv_font_fmt_txt.c ****     }
 422:..\..\..\lvgl\version_6.1.2\lvgl\src\lv_font/lv_font_fmt_txt.c ****     else if(rle_state == RLE_STATE_REPEATE) {
ARM GAS  C:\Users\pearlstl\AppData\Local\Temp\ccllHTLf.s 			page 10


 423:..\..\..\lvgl\version_6.1.2\lvgl\src\lv_font/lv_font_fmt_txt.c ****         v = get_bits(rle_in, rle_rdp, 1);
 424:..\..\..\lvgl\version_6.1.2\lvgl\src\lv_font/lv_font_fmt_txt.c ****         rle_cnt++;
 425:..\..\..\lvgl\version_6.1.2\lvgl\src\lv_font/lv_font_fmt_txt.c ****         rle_rdp += 1;
 426:..\..\..\lvgl\version_6.1.2\lvgl\src\lv_font/lv_font_fmt_txt.c ****         if(v == 1) {
 427:..\..\..\lvgl\version_6.1.2\lvgl\src\lv_font/lv_font_fmt_txt.c ****             ret = rle_prev_v;
 428:..\..\..\lvgl\version_6.1.2\lvgl\src\lv_font/lv_font_fmt_txt.c ****             if(rle_cnt == 11) {
 429:..\..\..\lvgl\version_6.1.2\lvgl\src\lv_font/lv_font_fmt_txt.c ****                 rle_cnt = get_bits(rle_in, rle_rdp, 6);
 430:..\..\..\lvgl\version_6.1.2\lvgl\src\lv_font/lv_font_fmt_txt.c ****                 rle_rdp += 6;
 431:..\..\..\lvgl\version_6.1.2\lvgl\src\lv_font/lv_font_fmt_txt.c ****                 if(rle_cnt != 0) {
 432:..\..\..\lvgl\version_6.1.2\lvgl\src\lv_font/lv_font_fmt_txt.c ****                     rle_state = RLE_STATE_COUNTER;
 433:..\..\..\lvgl\version_6.1.2\lvgl\src\lv_font/lv_font_fmt_txt.c ****                 } else {
 434:..\..\..\lvgl\version_6.1.2\lvgl\src\lv_font/lv_font_fmt_txt.c ****                     ret = get_bits(rle_in, rle_rdp, rle_bpp);
 435:..\..\..\lvgl\version_6.1.2\lvgl\src\lv_font/lv_font_fmt_txt.c ****                     rle_prev_v = ret;
 436:..\..\..\lvgl\version_6.1.2\lvgl\src\lv_font/lv_font_fmt_txt.c ****                     rle_rdp += rle_bpp;
 437:..\..\..\lvgl\version_6.1.2\lvgl\src\lv_font/lv_font_fmt_txt.c ****                     rle_state = RLE_STATE_SINGLE;
 438:..\..\..\lvgl\version_6.1.2\lvgl\src\lv_font/lv_font_fmt_txt.c ****                 }
 439:..\..\..\lvgl\version_6.1.2\lvgl\src\lv_font/lv_font_fmt_txt.c ****             }
 440:..\..\..\lvgl\version_6.1.2\lvgl\src\lv_font/lv_font_fmt_txt.c ****         } else {
 441:..\..\..\lvgl\version_6.1.2\lvgl\src\lv_font/lv_font_fmt_txt.c ****             ret = get_bits(rle_in, rle_rdp, rle_bpp);
 442:..\..\..\lvgl\version_6.1.2\lvgl\src\lv_font/lv_font_fmt_txt.c ****             rle_prev_v = ret;
 443:..\..\..\lvgl\version_6.1.2\lvgl\src\lv_font/lv_font_fmt_txt.c ****             rle_rdp += rle_bpp;
 444:..\..\..\lvgl\version_6.1.2\lvgl\src\lv_font/lv_font_fmt_txt.c ****             rle_state = RLE_STATE_SINGLE;
 445:..\..\..\lvgl\version_6.1.2\lvgl\src\lv_font/lv_font_fmt_txt.c ****         }
 446:..\..\..\lvgl\version_6.1.2\lvgl\src\lv_font/lv_font_fmt_txt.c **** 
 447:..\..\..\lvgl\version_6.1.2\lvgl\src\lv_font/lv_font_fmt_txt.c **** 
 448:..\..\..\lvgl\version_6.1.2\lvgl\src\lv_font/lv_font_fmt_txt.c ****     }
 449:..\..\..\lvgl\version_6.1.2\lvgl\src\lv_font/lv_font_fmt_txt.c ****     else if(rle_state == RLE_STATE_COUNTER) {
 450:..\..\..\lvgl\version_6.1.2\lvgl\src\lv_font/lv_font_fmt_txt.c ****         ret = rle_prev_v;
 451:..\..\..\lvgl\version_6.1.2\lvgl\src\lv_font/lv_font_fmt_txt.c ****         rle_cnt--;
 452:..\..\..\lvgl\version_6.1.2\lvgl\src\lv_font/lv_font_fmt_txt.c ****         if(rle_cnt == 0) {
 453:..\..\..\lvgl\version_6.1.2\lvgl\src\lv_font/lv_font_fmt_txt.c ****             ret = get_bits(rle_in, rle_rdp, rle_bpp);
 454:..\..\..\lvgl\version_6.1.2\lvgl\src\lv_font/lv_font_fmt_txt.c ****             rle_prev_v = ret;
 455:..\..\..\lvgl\version_6.1.2\lvgl\src\lv_font/lv_font_fmt_txt.c ****             rle_rdp += rle_bpp;
 456:..\..\..\lvgl\version_6.1.2\lvgl\src\lv_font/lv_font_fmt_txt.c ****             rle_state = RLE_STATE_SINGLE;
 457:..\..\..\lvgl\version_6.1.2\lvgl\src\lv_font/lv_font_fmt_txt.c ****         }
 458:..\..\..\lvgl\version_6.1.2\lvgl\src\lv_font/lv_font_fmt_txt.c ****     }
 459:..\..\..\lvgl\version_6.1.2\lvgl\src\lv_font/lv_font_fmt_txt.c **** 
 460:..\..\..\lvgl\version_6.1.2\lvgl\src\lv_font/lv_font_fmt_txt.c ****     return ret;
 461:..\..\..\lvgl\version_6.1.2\lvgl\src\lv_font/lv_font_fmt_txt.c **** }
 462:..\..\..\lvgl\version_6.1.2\lvgl\src\lv_font/lv_font_fmt_txt.c **** 
 463:..\..\..\lvgl\version_6.1.2\lvgl\src\lv_font/lv_font_fmt_txt.c **** /** Code Comparator.
 464:..\..\..\lvgl\version_6.1.2\lvgl\src\lv_font/lv_font_fmt_txt.c ****  *
 465:..\..\..\lvgl\version_6.1.2\lvgl\src\lv_font/lv_font_fmt_txt.c ****  *  Compares the value of both input arguments.
 466:..\..\..\lvgl\version_6.1.2\lvgl\src\lv_font/lv_font_fmt_txt.c ****  *
 467:..\..\..\lvgl\version_6.1.2\lvgl\src\lv_font/lv_font_fmt_txt.c ****  *  @param[in]  pRef        Pointer to the reference.
 468:..\..\..\lvgl\version_6.1.2\lvgl\src\lv_font/lv_font_fmt_txt.c ****  *  @param[in]  pElement    Pointer to the element to compare.
 469:..\..\..\lvgl\version_6.1.2\lvgl\src\lv_font/lv_font_fmt_txt.c ****  *
 470:..\..\..\lvgl\version_6.1.2\lvgl\src\lv_font/lv_font_fmt_txt.c ****  *  @return Result of comparison.
 471:..\..\..\lvgl\version_6.1.2\lvgl\src\lv_font/lv_font_fmt_txt.c ****  *  @retval < 0   Reference is greater than element.
 472:..\..\..\lvgl\version_6.1.2\lvgl\src\lv_font/lv_font_fmt_txt.c ****  *  @retval = 0   Reference is equal to element.
 473:..\..\..\lvgl\version_6.1.2\lvgl\src\lv_font/lv_font_fmt_txt.c ****  *  @retval > 0   Reference is less than element.
 474:..\..\..\lvgl\version_6.1.2\lvgl\src\lv_font/lv_font_fmt_txt.c ****  *
 475:..\..\..\lvgl\version_6.1.2\lvgl\src\lv_font/lv_font_fmt_txt.c ****  */
 476:..\..\..\lvgl\version_6.1.2\lvgl\src\lv_font/lv_font_fmt_txt.c **** static int32_t unicode_list_compare(const void * ref, const void * element)
 477:..\..\..\lvgl\version_6.1.2\lvgl\src\lv_font/lv_font_fmt_txt.c **** {
  90              		.loc 1 477 0
  91              		.cfi_startproc
ARM GAS  C:\Users\pearlstl\AppData\Local\Temp\ccllHTLf.s 			page 11


  92              		@ args = 0, pretend = 0, frame = 0
  93              		@ frame_needed = 0, uses_anonymous_args = 0
  94              		@ link register save eliminated.
  95              	.LVL4:
 478:..\..\..\lvgl\version_6.1.2\lvgl\src\lv_font/lv_font_fmt_txt.c ****     return ((int32_t)(*(uint16_t *)ref)) - ((int32_t)(*(uint16_t *)element));
  96              		.loc 1 478 0
  97 0000 0088     		ldrh	r0, [r0]
  98              	.LVL5:
  99 0002 0B88     		ldrh	r3, [r1]
 479:..\..\..\lvgl\version_6.1.2\lvgl\src\lv_font/lv_font_fmt_txt.c **** }
 100              		.loc 1 479 0
 101 0004 C01A     		subs	r0, r0, r3
 102 0006 7047     		bx	lr
 103              		.cfi_endproc
 104              	.LFE43:
 105              		.size	unicode_list_compare, .-unicode_list_compare
 106              		.section	.text.get_glyph_dsc_id.isra.0.part.1,"ax",%progbits
 107              		.align	2
 108              		.thumb
 109              		.thumb_func
 110              		.type	get_glyph_dsc_id.isra.0.part.1, %function
 111              	get_glyph_dsc_id.isra.0.part.1:
 112              	.LFB45:
 162:..\..\..\lvgl\version_6.1.2\lvgl\src\lv_font/lv_font_fmt_txt.c **** {
 113              		.loc 1 162 0
 114              		.cfi_startproc
 115              		@ args = 0, pretend = 0, frame = 8
 116              		@ frame_needed = 0, uses_anonymous_args = 0
 117              	.LVL6:
 118 0000 F0B5     		push	{r4, r5, r6, r7, lr}
 119              		.cfi_def_cfa_offset 20
 120              		.cfi_offset 4, -20
 121              		.cfi_offset 5, -16
 122              		.cfi_offset 6, -12
 123              		.cfi_offset 7, -8
 124              		.cfi_offset 14, -4
 166:..\..\..\lvgl\version_6.1.2\lvgl\src\lv_font/lv_font_fmt_txt.c **** 
 125              		.loc 1 166 0
 126 0002 0568     		ldr	r5, [r0]
 127              	.LVL7:
 169:..\..\..\lvgl\version_6.1.2\lvgl\src\lv_font/lv_font_fmt_txt.c **** 
 128              		.loc 1 169 0
 129 0004 6B69     		ldr	r3, [r5, #20]
 130 0006 8B42     		cmp	r3, r1
 162:..\..\..\lvgl\version_6.1.2\lvgl\src\lv_font/lv_font_fmt_txt.c **** {
 131              		.loc 1 162 0
 132 0008 85B0     		sub	sp, sp, #20
 133              		.cfi_def_cfa_offset 40
 169:..\..\..\lvgl\version_6.1.2\lvgl\src\lv_font/lv_font_fmt_txt.c **** 
 134              		.loc 1 169 0
 135 000a 34D0     		beq	.L10
 136              	.LVL8:
 172:..\..\..\lvgl\version_6.1.2\lvgl\src\lv_font/lv_font_fmt_txt.c **** 
 137              		.loc 1 172 0
 138 000c 6E8A     		ldrh	r6, [r5, #18]
 139 000e C6F30906 		ubfx	r6, r6, #0, #10
 140 0012 002E     		cmp	r6, #0
ARM GAS  C:\Users\pearlstl\AppData\Local\Temp\ccllHTLf.s 			page 12


 141 0014 37D0     		beq	.L12
 142              	.LBB52:
 175:..\..\..\lvgl\version_6.1.2\lvgl\src\lv_font/lv_font_fmt_txt.c ****         if(rcp > fdsc->cmaps[i].range_length) continue;
 143              		.loc 1 175 0
 144 0016 A868     		ldr	r0, [r5, #8]
 145 0018 0268     		ldr	r2, [r0]
 176:..\..\..\lvgl\version_6.1.2\lvgl\src\lv_font/lv_font_fmt_txt.c ****         uint32_t glyph_id = 0;
 146              		.loc 1 176 0
 147 001a 8388     		ldrh	r3, [r0, #4]
 175:..\..\..\lvgl\version_6.1.2\lvgl\src\lv_font/lv_font_fmt_txt.c ****         if(rcp > fdsc->cmaps[i].range_length) continue;
 148              		.loc 1 175 0
 149 001c 8A1A     		subs	r2, r1, r2
 176:..\..\..\lvgl\version_6.1.2\lvgl\src\lv_font/lv_font_fmt_txt.c ****         uint32_t glyph_id = 0;
 150              		.loc 1 176 0
 151 001e 9A42     		cmp	r2, r3
 175:..\..\..\lvgl\version_6.1.2\lvgl\src\lv_font/lv_font_fmt_txt.c ****         if(rcp > fdsc->cmaps[i].range_length) continue;
 152              		.loc 1 175 0
 153 0020 0392     		str	r2, [sp, #12]
 176:..\..\..\lvgl\version_6.1.2\lvgl\src\lv_font/lv_font_fmt_txt.c ****         uint32_t glyph_id = 0;
 154              		.loc 1 176 0
 155 0022 09D8     		bhi	.L23
 156              	.LVL9:
 178:..\..\..\lvgl\version_6.1.2\lvgl\src\lv_font/lv_font_fmt_txt.c ****             glyph_id = fdsc->cmaps[i].glyph_id_start + rcp;
 157              		.loc 1 178 0
 158 0024 837C     		ldrb	r3, [r0, #18]	@ zero_extendqisi2
 175:..\..\..\lvgl\version_6.1.2\lvgl\src\lv_font/lv_font_fmt_txt.c ****         if(rcp > fdsc->cmaps[i].range_length) continue;
 159              		.loc 1 175 0
 160 0026 0027     		movs	r7, #0
 161 0028 0C46     		mov	r4, r1
 178:..\..\..\lvgl\version_6.1.2\lvgl\src\lv_font/lv_font_fmt_txt.c ****             glyph_id = fdsc->cmaps[i].glyph_id_start + rcp;
 162              		.loc 1 178 0
 163 002a E3B9     		cbnz	r3, .L17
 164              	.LVL10:
 165              	.L29:
 179:..\..\..\lvgl\version_6.1.2\lvgl\src\lv_font/lv_font_fmt_txt.c ****         }
 166              		.loc 1 179 0
 167 002c C088     		ldrh	r0, [r0, #6]
 168 002e 1044     		add	r0, r0, r2
 169              	.LVL11:
 170              	.L18:
 206:..\..\..\lvgl\version_6.1.2\lvgl\src\lv_font/lv_font_fmt_txt.c ****         fdsc->last_glyph_id = glyph_id;
 171              		.loc 1 206 0
 172 0030 6C61     		str	r4, [r5, #20]
 207:..\..\..\lvgl\version_6.1.2\lvgl\src\lv_font/lv_font_fmt_txt.c ****         return glyph_id;
 173              		.loc 1 207 0
 174 0032 A861     		str	r0, [r5, #24]
 175              	.LVL12:
 176              	.L13:
 177              	.LBE52:
 215:..\..\..\lvgl\version_6.1.2\lvgl\src\lv_font/lv_font_fmt_txt.c **** 
 178              		.loc 1 215 0
 179 0034 05B0     		add	sp, sp, #20
 180              		.cfi_remember_state
 181              		.cfi_def_cfa_offset 20
 182              		@ sp needed
 183 0036 F0BD     		pop	{r4, r5, r6, r7, pc}
 184              	.LVL13:
ARM GAS  C:\Users\pearlstl\AppData\Local\Temp\ccllHTLf.s 			page 13


 185              	.L23:
 186              		.cfi_restore_state
 187              	.LBB58:
 176:..\..\..\lvgl\version_6.1.2\lvgl\src\lv_font/lv_font_fmt_txt.c ****         uint32_t glyph_id = 0;
 188              		.loc 1 176 0
 189 0038 0023     		movs	r3, #0
 190              	.LVL14:
 191              	.L14:
 192              	.LBE58:
 172:..\..\..\lvgl\version_6.1.2\lvgl\src\lv_font/lv_font_fmt_txt.c **** 
 193              		.loc 1 172 0
 194 003a 0133     		adds	r3, r3, #1
 195              	.LVL15:
 196 003c 9BB2     		uxth	r3, r3
 197              	.LVL16:
 198              	.LBB59:
 175:..\..\..\lvgl\version_6.1.2\lvgl\src\lv_font/lv_font_fmt_txt.c ****         if(rcp > fdsc->cmaps[i].range_length) continue;
 199              		.loc 1 175 0
 200 003e 03EB8302 		add	r2, r3, r3, lsl #2
 201 0042 9700     		lsls	r7, r2, #2
 202              	.LBE59:
 172:..\..\..\lvgl\version_6.1.2\lvgl\src\lv_font/lv_font_fmt_txt.c **** 
 203              		.loc 1 172 0
 204 0044 B342     		cmp	r3, r6
 205              	.LBB60:
 175:..\..\..\lvgl\version_6.1.2\lvgl\src\lv_font/lv_font_fmt_txt.c ****         if(rcp > fdsc->cmaps[i].range_length) continue;
 206              		.loc 1 175 0
 207 0046 00EB070E 		add	lr, r0, r7
 208              	.LBE60:
 172:..\..\..\lvgl\version_6.1.2\lvgl\src\lv_font/lv_font_fmt_txt.c **** 
 209              		.loc 1 172 0
 210 004a 1CDA     		bge	.L12
 211              	.LBB61:
 175:..\..\..\lvgl\version_6.1.2\lvgl\src\lv_font/lv_font_fmt_txt.c ****         if(rcp > fdsc->cmaps[i].range_length) continue;
 212              		.loc 1 175 0
 213 004c 50F82220 		ldr	r2, [r0, r2, lsl #2]
 176:..\..\..\lvgl\version_6.1.2\lvgl\src\lv_font/lv_font_fmt_txt.c ****         uint32_t glyph_id = 0;
 214              		.loc 1 176 0
 215 0050 BEF80440 		ldrh	r4, [lr, #4]
 175:..\..\..\lvgl\version_6.1.2\lvgl\src\lv_font/lv_font_fmt_txt.c ****         if(rcp > fdsc->cmaps[i].range_length) continue;
 216              		.loc 1 175 0
 217 0054 8A1A     		subs	r2, r1, r2
 176:..\..\..\lvgl\version_6.1.2\lvgl\src\lv_font/lv_font_fmt_txt.c ****         uint32_t glyph_id = 0;
 218              		.loc 1 176 0
 219 0056 A242     		cmp	r2, r4
 175:..\..\..\lvgl\version_6.1.2\lvgl\src\lv_font/lv_font_fmt_txt.c ****         if(rcp > fdsc->cmaps[i].range_length) continue;
 220              		.loc 1 175 0
 221 0058 0392     		str	r2, [sp, #12]
 176:..\..\..\lvgl\version_6.1.2\lvgl\src\lv_font/lv_font_fmt_txt.c ****         uint32_t glyph_id = 0;
 222              		.loc 1 176 0
 223 005a EED8     		bhi	.L14
 175:..\..\..\lvgl\version_6.1.2\lvgl\src\lv_font/lv_font_fmt_txt.c ****         if(rcp > fdsc->cmaps[i].range_length) continue;
 224              		.loc 1 175 0
 225 005c 7046     		mov	r0, lr
 226 005e 0C46     		mov	r4, r1
 227              	.LVL17:
 178:..\..\..\lvgl\version_6.1.2\lvgl\src\lv_font/lv_font_fmt_txt.c ****             glyph_id = fdsc->cmaps[i].glyph_id_start + rcp;
ARM GAS  C:\Users\pearlstl\AppData\Local\Temp\ccllHTLf.s 			page 14


 228              		.loc 1 178 0
 229 0060 837C     		ldrb	r3, [r0, #18]	@ zero_extendqisi2
 230              	.LVL18:
 231 0062 002B     		cmp	r3, #0
 232 0064 E2D0     		beq	.L29
 233              	.L17:
 181:..\..\..\lvgl\version_6.1.2\lvgl\src\lv_font/lv_font_fmt_txt.c ****             const uint8_t * gid_ofs_8 = fdsc->cmaps[i].glyph_id_ofs_list;
 234              		.loc 1 181 0
 235 0066 012B     		cmp	r3, #1
 236 0068 08D0     		beq	.L30
 185:..\..\..\lvgl\version_6.1.2\lvgl\src\lv_font/lv_font_fmt_txt.c ****             uint8_t * p = lv_utils_bsearch(&rcp, fdsc->cmaps[i].unicode_list, fdsc->cmaps[i].list_l
 237              		.loc 1 185 0
 238 006a 022B     		cmp	r3, #2
 239 006c 23D0     		beq	.L31
 194:..\..\..\lvgl\version_6.1.2\lvgl\src\lv_font/lv_font_fmt_txt.c ****             uint8_t * p = lv_utils_bsearch(&rcp, fdsc->cmaps[i].unicode_list, fdsc->cmaps[i].list_l
 240              		.loc 1 194 0
 241 006e 032B     		cmp	r3, #3
 242 0070 0DD0     		beq	.L32
 243              	.LVL19:
 244              	.L22:
 177:..\..\..\lvgl\version_6.1.2\lvgl\src\lv_font/lv_font_fmt_txt.c ****         if(fdsc->cmaps[i].type == LV_FONT_FMT_TXT_CMAP_FORMAT0_TINY) {
 245              		.loc 1 177 0
 246 0072 0020     		movs	r0, #0
 247 0074 DCE7     		b	.L18
 248              	.LVL20:
 249              	.L10:
 250              	.LBE61:
 169:..\..\..\lvgl\version_6.1.2\lvgl\src\lv_font/lv_font_fmt_txt.c **** 
 251              		.loc 1 169 0
 252 0076 A869     		ldr	r0, [r5, #24]
 215:..\..\..\lvgl\version_6.1.2\lvgl\src\lv_font/lv_font_fmt_txt.c **** 
 253              		.loc 1 215 0
 254 0078 05B0     		add	sp, sp, #20
 255              		.cfi_remember_state
 256              		.cfi_def_cfa_offset 20
 257              		@ sp needed
 258 007a F0BD     		pop	{r4, r5, r6, r7, pc}
 259              	.LVL21:
 260              	.L30:
 261              		.cfi_restore_state
 262              	.LBB62:
 263              	.LBB53:
 183:..\..\..\lvgl\version_6.1.2\lvgl\src\lv_font/lv_font_fmt_txt.c ****         }
 264              		.loc 1 183 0
 265 007c C168     		ldr	r1, [r0, #12]
 266              	.LVL22:
 267 007e C388     		ldrh	r3, [r0, #6]
 268 0080 885C     		ldrb	r0, [r1, r2]	@ zero_extendqisi2
 269              	.LVL23:
 270 0082 1844     		add	r0, r0, r3
 271              	.LVL24:
 272 0084 D4E7     		b	.L18
 273              	.LVL25:
 274              	.L12:
 275              	.LBE53:
 276              	.LBE62:
 212:..\..\..\lvgl\version_6.1.2\lvgl\src\lv_font/lv_font_fmt_txt.c ****     return 0;
ARM GAS  C:\Users\pearlstl\AppData\Local\Temp\ccllHTLf.s 			page 15


 277              		.loc 1 212 0
 278 0086 0020     		movs	r0, #0
 211:..\..\..\lvgl\version_6.1.2\lvgl\src\lv_font/lv_font_fmt_txt.c ****     fdsc->last_glyph_id = 0;
 279              		.loc 1 211 0
 280 0088 6961     		str	r1, [r5, #20]
 212:..\..\..\lvgl\version_6.1.2\lvgl\src\lv_font/lv_font_fmt_txt.c ****     return 0;
 281              		.loc 1 212 0
 282 008a A861     		str	r0, [r5, #24]
 283 008c D2E7     		b	.L13
 284              	.LVL26:
 285              	.L32:
 286              	.LBB63:
 287              	.LBB54:
 195:..\..\..\lvgl\version_6.1.2\lvgl\src\lv_font/lv_font_fmt_txt.c **** 
 288              		.loc 1 195 0
 289 008e 124B     		ldr	r3, .L33
 290 0090 028A     		ldrh	r2, [r0, #16]
 291 0092 8168     		ldr	r1, [r0, #8]
 292              	.LVL27:
 293 0094 0093     		str	r3, [sp]
 294 0096 03A8     		add	r0, sp, #12
 295 0098 0223     		movs	r3, #2
 296 009a FFF7FEFF 		bl	lv_utils_bsearch
 297              	.LVL28:
 197:..\..\..\lvgl\version_6.1.2\lvgl\src\lv_font/lv_font_fmt_txt.c ****                 lv_uintptr_t ofs = (lv_uintptr_t)(p - (uint8_t*) fdsc->cmaps[i].unicode_list);
 298              		.loc 1 197 0
 299 009e 0028     		cmp	r0, #0
 300 00a0 E7D0     		beq	.L22
 301              	.LBB55:
 198:..\..\..\lvgl\version_6.1.2\lvgl\src\lv_font/lv_font_fmt_txt.c ****                 ofs = ofs >> 1;     /*The list stores `uint16_t` so the get the index divide by 2*/
 302              		.loc 1 198 0
 303 00a2 AB68     		ldr	r3, [r5, #8]
 304 00a4 1F44     		add	r7, r7, r3
 305 00a6 B968     		ldr	r1, [r7, #8]
 201:..\..\..\lvgl\version_6.1.2\lvgl\src\lv_font/lv_font_fmt_txt.c ****             }
 306              		.loc 1 201 0
 307 00a8 FA68     		ldr	r2, [r7, #12]
 308 00aa FB88     		ldrh	r3, [r7, #6]
 198:..\..\..\lvgl\version_6.1.2\lvgl\src\lv_font/lv_font_fmt_txt.c ****                 ofs = ofs >> 1;     /*The list stores `uint16_t` so the get the index divide by 2*/
 309              		.loc 1 198 0
 310 00ac 401A     		subs	r0, r0, r1
 311              	.LVL29:
 201:..\..\..\lvgl\version_6.1.2\lvgl\src\lv_font/lv_font_fmt_txt.c ****             }
 312              		.loc 1 201 0
 313 00ae 4008     		lsrs	r0, r0, #1
 314              	.LVL30:
 315 00b0 125C     		ldrb	r2, [r2, r0]	@ zero_extendqisi2
 316 00b2 D018     		adds	r0, r2, r3
 317              	.LVL31:
 318 00b4 BCE7     		b	.L18
 319              	.LVL32:
 320              	.L31:
 321              	.LBE55:
 322              	.LBE54:
 323              	.LBB56:
 186:..\..\..\lvgl\version_6.1.2\lvgl\src\lv_font/lv_font_fmt_txt.c **** 
 324              		.loc 1 186 0
ARM GAS  C:\Users\pearlstl\AppData\Local\Temp\ccllHTLf.s 			page 16


 325 00b6 028A     		ldrh	r2, [r0, #16]
 326 00b8 8168     		ldr	r1, [r0, #8]
 327              	.LVL33:
 328 00ba 0748     		ldr	r0, .L33
 329 00bc 0090     		str	r0, [sp]
 330 00be 03A8     		add	r0, sp, #12
 331 00c0 FFF7FEFF 		bl	lv_utils_bsearch
 332              	.LVL34:
 188:..\..\..\lvgl\version_6.1.2\lvgl\src\lv_font/lv_font_fmt_txt.c ****                 lv_uintptr_t ofs = (lv_uintptr_t)(p - (uint8_t *) fdsc->cmaps[i].unicode_list);
 333              		.loc 1 188 0
 334 00c4 0028     		cmp	r0, #0
 335 00c6 D4D0     		beq	.L22
 336              	.LBB57:
 189:..\..\..\lvgl\version_6.1.2\lvgl\src\lv_font/lv_font_fmt_txt.c ****                 ofs = ofs >> 1;     /*The list stores `uint16_t` so the get the index divide by 2*/
 337              		.loc 1 189 0
 338 00c8 AB68     		ldr	r3, [r5, #8]
 339 00ca 1F44     		add	r7, r7, r3
 340 00cc BA68     		ldr	r2, [r7, #8]
 191:..\..\..\lvgl\version_6.1.2\lvgl\src\lv_font/lv_font_fmt_txt.c ****             }
 341              		.loc 1 191 0
 342 00ce FB88     		ldrh	r3, [r7, #6]
 189:..\..\..\lvgl\version_6.1.2\lvgl\src\lv_font/lv_font_fmt_txt.c ****                 ofs = ofs >> 1;     /*The list stores `uint16_t` so the get the index divide by 2*/
 343              		.loc 1 189 0
 344 00d0 801A     		subs	r0, r0, r2
 345              	.LVL35:
 191:..\..\..\lvgl\version_6.1.2\lvgl\src\lv_font/lv_font_fmt_txt.c ****             }
 346              		.loc 1 191 0
 347 00d2 03EB5000 		add	r0, r3, r0, lsr #1
 348              	.LVL36:
 349 00d6 ABE7     		b	.L18
 350              	.L34:
 351              		.align	2
 352              	.L33:
 353 00d8 00000000 		.word	unicode_list_compare
 354              	.LBE57:
 355              	.LBE56:
 356              	.LBE63:
 357              		.cfi_endproc
 358              	.LFE45:
 359              		.size	get_glyph_dsc_id.isra.0.part.1, .-get_glyph_dsc_id.isra.0.part.1
 360              		.section	.text.lv_font_get_bitmap_fmt_txt,"ax",%progbits
 361              		.align	2
 362              		.global	lv_font_get_bitmap_fmt_txt
 363              		.thumb
 364              		.thumb_func
 365              		.type	lv_font_get_bitmap_fmt_txt, %function
 366              	lv_font_get_bitmap_fmt_txt:
 367              	.LFB31:
  78:..\..\..\lvgl\version_6.1.2\lvgl\src\lv_font/lv_font_fmt_txt.c ****     lv_font_fmt_txt_dsc_t * fdsc = (lv_font_fmt_txt_dsc_t *) font->dsc;
 368              		.loc 1 78 0
 369              		.cfi_startproc
 370              		@ args = 0, pretend = 0, frame = 80
 371              		@ frame_needed = 0, uses_anonymous_args = 0
 372              	.LVL37:
 373              	.LBB107:
 374              	.LBB108:
 164:..\..\..\lvgl\version_6.1.2\lvgl\src\lv_font/lv_font_fmt_txt.c **** 
ARM GAS  C:\Users\pearlstl\AppData\Local\Temp\ccllHTLf.s 			page 17


 375              		.loc 1 164 0
 376 0000 09B9     		cbnz	r1, .L164
 377              	.LBE108:
 378              	.LBE107:
  81:..\..\..\lvgl\version_6.1.2\lvgl\src\lv_font/lv_font_fmt_txt.c **** 
 379              		.loc 1 81 0
 380 0002 0020     		movs	r0, #0
 381              	.LVL38:
 116:..\..\..\lvgl\version_6.1.2\lvgl\src\lv_font/lv_font_fmt_txt.c **** 
 382              		.loc 1 116 0
 383 0004 7047     		bx	lr
 384              	.LVL39:
 385              	.L164:
  78:..\..\..\lvgl\version_6.1.2\lvgl\src\lv_font/lv_font_fmt_txt.c ****     lv_font_fmt_txt_dsc_t * fdsc = (lv_font_fmt_txt_dsc_t *) font->dsc;
 386              		.loc 1 78 0
 387 0006 2DE9F04F 		push	{r4, r5, r6, r7, r8, r9, r10, fp, lr}
 388              		.cfi_def_cfa_offset 36
 389              		.cfi_offset 4, -36
 390              		.cfi_offset 5, -32
 391              		.cfi_offset 6, -28
 392              		.cfi_offset 7, -24
 393              		.cfi_offset 8, -20
 394              		.cfi_offset 9, -16
 395              		.cfi_offset 10, -12
 396              		.cfi_offset 11, -8
 397              		.cfi_offset 14, -4
  79:..\..\..\lvgl\version_6.1.2\lvgl\src\lv_font/lv_font_fmt_txt.c ****     uint32_t gid = get_glyph_dsc_id(font, unicode_letter);
 398              		.loc 1 79 0
 399 000a 50F80C4F 		ldr	r4, [r0, #12]!
 400              	.LVL40:
  78:..\..\..\lvgl\version_6.1.2\lvgl\src\lv_font/lv_font_fmt_txt.c ****     lv_font_fmt_txt_dsc_t * fdsc = (lv_font_fmt_txt_dsc_t *) font->dsc;
 401              		.loc 1 78 0
 402 000e 95B0     		sub	sp, sp, #84
 403              		.cfi_def_cfa_offset 120
 404              	.LBB110:
 405              	.LBB109:
 406 0010 FFF7FEFF 		bl	get_glyph_dsc_id.isra.0.part.1
 407              	.LVL41:
 408              	.LBE109:
 409              	.LBE110:
  81:..\..\..\lvgl\version_6.1.2\lvgl\src\lv_font/lv_font_fmt_txt.c **** 
 410              		.loc 1 81 0
 411 0014 8046     		mov	r8, r0
 412 0016 0028     		cmp	r0, #0
 413 0018 00F08181 		beq	.L38
  85:..\..\..\lvgl\version_6.1.2\lvgl\src\lv_font/lv_font_fmt_txt.c ****         if(gdsc) return &fdsc->glyph_bitmap[gdsc->bitmap_index];
 414              		.loc 1 85 0
 415 001c E37C     		ldrb	r3, [r4, #19]	@ zero_extendqisi2
  83:..\..\..\lvgl\version_6.1.2\lvgl\src\lv_font/lv_font_fmt_txt.c **** 
 416              		.loc 1 83 0
 417 001e 6768     		ldr	r7, [r4, #4]
  85:..\..\..\lvgl\version_6.1.2\lvgl\src\lv_font/lv_font_fmt_txt.c ****         if(gdsc) return &fdsc->glyph_bitmap[gdsc->bitmap_index];
 418              		.loc 1 85 0
 419 0020 13F0C00F 		tst	r3, #192
  83:..\..\..\lvgl\version_6.1.2\lvgl\src\lv_font/lv_font_fmt_txt.c **** 
 420              		.loc 1 83 0
 421 0024 07EBC005 		add	r5, r7, r0, lsl #3
ARM GAS  C:\Users\pearlstl\AppData\Local\Temp\ccllHTLf.s 			page 18


 422              	.LVL42:
  85:..\..\..\lvgl\version_6.1.2\lvgl\src\lv_font/lv_font_fmt_txt.c ****         if(gdsc) return &fdsc->glyph_bitmap[gdsc->bitmap_index];
 423              		.loc 1 85 0
 424 0028 0BD1     		bne	.L39
  86:..\..\..\lvgl\version_6.1.2\lvgl\src\lv_font/lv_font_fmt_txt.c ****     }
 425              		.loc 1 86 0
 426 002a 002D     		cmp	r5, #0
 427 002c 00F07781 		beq	.L38
  86:..\..\..\lvgl\version_6.1.2\lvgl\src\lv_font/lv_font_fmt_txt.c ****     }
 428              		.loc 1 86 0 is_stmt 0 discriminator 1
 429 0030 57F83030 		ldr	r3, [r7, r0, lsl #3]
 430 0034 2068     		ldr	r0, [r4]
 431 0036 C3F31303 		ubfx	r3, r3, #0, #20
 432 003a 1844     		add	r0, r0, r3
 433              	.LVL43:
 434              	.L37:
 116:..\..\..\lvgl\version_6.1.2\lvgl\src\lv_font/lv_font_fmt_txt.c **** 
 435              		.loc 1 116 0 is_stmt 1
 436 003c 15B0     		add	sp, sp, #84
 437              		.cfi_remember_state
 438              		.cfi_def_cfa_offset 36
 439              		@ sp needed
 440 003e BDE8F08F 		pop	{r4, r5, r6, r7, r8, r9, r10, fp, pc}
 441              	.LVL44:
 442              	.L39:
 443              		.cfi_restore_state
 444              	.LBB111:
  93:..\..\..\lvgl\version_6.1.2\lvgl\src\lv_font/lv_font_fmt_txt.c ****         if(gsize == 0) return NULL;
 445              		.loc 1 93 0
 446 0042 2E79     		ldrb	r6, [r5, #4]	@ zero_extendqisi2
 447 0044 6A79     		ldrb	r2, [r5, #5]	@ zero_extendqisi2
 448 0046 16FB02F6 		smulbb	r6, r6, r2
 449              	.LVL45:
  94:..\..\..\lvgl\version_6.1.2\lvgl\src\lv_font/lv_font_fmt_txt.c **** 
 450              		.loc 1 94 0
 451 004a 002E     		cmp	r6, #0
 452 004c 00F06781 		beq	.L38
 453              	.LVL46:
  97:..\..\..\lvgl\version_6.1.2\lvgl\src\lv_font/lv_font_fmt_txt.c ****         case 1: buf_size = gsize >> 3;  break;
 454              		.loc 1 97 0
 455 0050 C3F38203 		ubfx	r3, r3, #2, #3
 456 0054 013B     		subs	r3, r3, #1
 457 0056 032B     		cmp	r3, #3
 458 0058 06D8     		bhi	.L40
 459 005a DFE813F0 		tbh	[pc, r3, lsl #1]
 460              	.L42:
 461 005e 4001     		.2byte	(.L41-.L42)/2
 462 0060 3E01     		.2byte	(.L43-.L42)/2
 463 0062 0400     		.2byte	(.L45-.L42)/2
 464 0064 0400     		.2byte	(.L45-.L42)/2
 465              		.p2align 1
 466              	.L45:
 101:..\..\..\lvgl\version_6.1.2\lvgl\src\lv_font/lv_font_fmt_txt.c ****         }
 467              		.loc 1 101 0
 468 0066 7608     		lsrs	r6, r6, #1
 469              	.LVL47:
 470              	.L40:
ARM GAS  C:\Users\pearlstl\AppData\Local\Temp\ccllHTLf.s 			page 19


 104:..\..\..\lvgl\version_6.1.2\lvgl\src\lv_font/lv_font_fmt_txt.c ****             buf = lv_mem_realloc(buf, buf_size);
 471              		.loc 1 104 0
 472 0068 BA4B     		ldr	r3, .L181
 473 006a 1868     		ldr	r0, [r3]
 474 006c FFF7FEFF 		bl	lv_mem_get_size
 475              	.LVL48:
 476 0070 8642     		cmp	r6, r0
 477 0072 00F22881 		bhi	.L46
 478 0076 B74B     		ldr	r3, .L181
 479 0078 D3F800A0 		ldr	r10, [r3]
 480              	.L47:
 110:..\..\..\lvgl\version_6.1.2\lvgl\src\lv_font/lv_font_fmt_txt.c ****         return buf;
 481              		.loc 1 110 0
 482 007c 2979     		ldrb	r1, [r5, #4]	@ zero_extendqisi2
 483 007e E27C     		ldrb	r2, [r4, #19]	@ zero_extendqisi2
 484 0080 57F83830 		ldr	r3, [r7, r8, lsl #3]
 485 0084 0291     		str	r1, [sp, #8]
 486 0086 0E46     		mov	r6, r1
 487              	.LVL49:
 488 0088 C2F38202 		ubfx	r2, r2, #2, #3
 489 008c 2168     		ldr	r1, [r4]
 490              	.LBB112:
 491              	.LBB113:
 492              	.LBB114:
 493              	.LBB115:
 399:..\..\..\lvgl\version_6.1.2\lvgl\src\lv_font/lv_font_fmt_txt.c ****     rle_bpp = bpp;
 494              		.loc 1 399 0
 495 008e B14F     		ldr	r7, .L181
 496              	.LBE115:
 497              	.LBE114:
 498              	.LBE113:
 499              	.LBE112:
 110:..\..\..\lvgl\version_6.1.2\lvgl\src\lv_font/lv_font_fmt_txt.c ****         return buf;
 500              		.loc 1 110 0
 501 0090 6C79     		ldrb	r4, [r5, #5]	@ zero_extendqisi2
 502 0092 0C94     		str	r4, [sp, #48]
 503 0094 5FFA82F9 		uxtb	r9, r2
 504 0098 C3F31303 		ubfx	r3, r3, #0, #20
 505 009c 0B44     		add	r3, r3, r1
 506              	.LVL50:
 507 009e 30B2     		sxth	r0, r6
 508              	.LVL51:
 509              	.LBB236:
 510              	.LBB230:
 304:..\..\..\lvgl\version_6.1.2\lvgl\src\lv_font/lv_font_fmt_txt.c **** 
 511              		.loc 1 304 0
 512 00a0 B9F1030F 		cmp	r9, #3
 513              	.LBB121:
 514              	.LBB116:
 401:..\..\..\lvgl\version_6.1.2\lvgl\src\lv_font/lv_font_fmt_txt.c ****     rle_rdp = 0;
 515              		.loc 1 401 0
 516 00a4 4FF00004 		mov	r4, #0
 517              	.LBE116:
 518              	.LBE121:
 519              	.LBE230:
 520              	.LBE236:
 110:..\..\..\lvgl\version_6.1.2\lvgl\src\lv_font/lv_font_fmt_txt.c ****         return buf;
ARM GAS  C:\Users\pearlstl\AppData\Local\Temp\ccllHTLf.s 			page 20


 521              		.loc 1 110 0
 522 00a8 0D90     		str	r0, [sp, #52]
 523              	.LBB237:
 524              	.LBB231:
 525              	.LBB122:
 526              	.LBB117:
 399:..\..\..\lvgl\version_6.1.2\lvgl\src\lv_font/lv_font_fmt_txt.c ****     rle_bpp = bpp;
 527              		.loc 1 399 0
 528 00aa 7B60     		str	r3, [r7, #4]
 529              	.LBE117:
 530              	.LBE122:
 531              	.LBE231:
 532              	.LBE237:
 110:..\..\..\lvgl\version_6.1.2\lvgl\src\lv_font/lv_font_fmt_txt.c ****         return buf;
 533              		.loc 1 110 0
 534 00ac 0546     		mov	r5, r0
 535              	.LVL52:
 536              	.LBB238:
 537              	.LBB232:
 538              	.LBB123:
 539              	.LBB118:
 400:..\..\..\lvgl\version_6.1.2\lvgl\src\lv_font/lv_font_fmt_txt.c ****     rle_state = RLE_STATE_SINGLE;
 540              		.loc 1 400 0
 541 00ae 3B46     		mov	r3, r7
 542              	.LVL53:
 543              	.LBE118:
 544              	.LBE123:
 308:..\..\..\lvgl\version_6.1.2\lvgl\src\lv_font/lv_font_fmt_txt.c ****     uint8_t * line_buf1 = line_buf;
 545              		.loc 1 308 0
 546 00b0 4FEA4000 		lsl	r0, r0, #1
 547              	.LVL54:
 304:..\..\..\lvgl\version_6.1.2\lvgl\src\lv_font/lv_font_fmt_txt.c **** 
 548              		.loc 1 304 0
 549 00b4 14BF     		ite	ne
 550 00b6 4B46     		movne	r3, r9
 551 00b8 0423     		moveq	r3, #4
 552              	.LBB124:
 553              	.LBB119:
 400:..\..\..\lvgl\version_6.1.2\lvgl\src\lv_font/lv_font_fmt_txt.c ****     rle_state = RLE_STATE_SINGLE;
 554              		.loc 1 400 0
 555 00ba 3A72     		strb	r2, [r7, #8]
 556              	.LBE119:
 557              	.LBE124:
 304:..\..\..\lvgl\version_6.1.2\lvgl\src\lv_font/lv_font_fmt_txt.c **** 
 558              		.loc 1 304 0
 559 00bc 0493     		str	r3, [sp, #16]
 560              	.LVL55:
 561              	.LBB125:
 562              	.LBB120:
 401:..\..\..\lvgl\version_6.1.2\lvgl\src\lv_font/lv_font_fmt_txt.c ****     rle_rdp = 0;
 563              		.loc 1 401 0
 564 00be 7C72     		strb	r4, [r7, #9]
 402:..\..\..\lvgl\version_6.1.2\lvgl\src\lv_font/lv_font_fmt_txt.c ****     rle_prev_v = 0;
 565              		.loc 1 402 0
 566 00c0 FC60     		str	r4, [r7, #12]
 403:..\..\..\lvgl\version_6.1.2\lvgl\src\lv_font/lv_font_fmt_txt.c ****     rle_cnt = 0;
 567              		.loc 1 403 0
ARM GAS  C:\Users\pearlstl\AppData\Local\Temp\ccllHTLf.s 			page 21


 568 00c2 3C74     		strb	r4, [r7, #16]
 404:..\..\..\lvgl\version_6.1.2\lvgl\src\lv_font/lv_font_fmt_txt.c **** }
 569              		.loc 1 404 0
 570 00c4 7C74     		strb	r4, [r7, #17]
 571              	.LVL56:
 572              	.LBE120:
 573              	.LBE125:
 308:..\..\..\lvgl\version_6.1.2\lvgl\src\lv_font/lv_font_fmt_txt.c ****     uint8_t * line_buf1 = line_buf;
 574              		.loc 1 308 0
 575 00c6 FFF7FEFF 		bl	lv_draw_get_buf
 576              	.LVL57:
 310:..\..\..\lvgl\version_6.1.2\lvgl\src\lv_font/lv_font_fmt_txt.c **** 
 577              		.loc 1 310 0
 578 00ca 0346     		mov	r3, r0
 579 00cc 9919     		adds	r1, r3, r6
 308:..\..\..\lvgl\version_6.1.2\lvgl\src\lv_font/lv_font_fmt_txt.c ****     uint8_t * line_buf1 = line_buf;
 580              		.loc 1 308 0
 581 00ce 8446     		mov	ip, r0
 310:..\..\..\lvgl\version_6.1.2\lvgl\src\lv_font/lv_font_fmt_txt.c **** 
 582              		.loc 1 310 0
 583 00d0 0E90     		str	r0, [sp, #56]
 584 00d2 3246     		mov	r2, r6
 585 00d4 0F91     		str	r1, [sp, #60]
 586              	.LVL58:
 587              	.LBB126:
 588              	.LBB127:
 340:..\..\..\lvgl\version_6.1.2\lvgl\src\lv_font/lv_font_fmt_txt.c ****         out[i] = rle_next();
 589              		.loc 1 340 0
 590 00d6 002D     		cmp	r5, #0
 591 00d8 00F03E81 		beq	.L102
 592              	.LBB128:
 593              	.LBB129:
 413:..\..\..\lvgl\version_6.1.2\lvgl\src\lv_font/lv_font_fmt_txt.c ****         if(rle_rdp != 0 && rle_prev_v == ret) {
 594              		.loc 1 413 0
 595 00dc 97F808B0 		ldrb	fp, [r7, #8]	@ zero_extendqisi2
 596 00e0 797C     		ldrb	r1, [r7, #17]	@ zero_extendqisi2
 597              	.LVL59:
 598 00e2 0191     		str	r1, [sp, #4]
 599 00e4 013A     		subs	r2, r2, #1
 600              	.LBB130:
 601              	.LBB131:
 360:..\..\..\lvgl\version_6.1.2\lvgl\src\lv_font/lv_font_fmt_txt.c ****     return res;
 602              		.loc 1 360 0
 603 00e6 0123     		movs	r3, #1
 604 00e8 A046     		mov	r8, r4
 605 00ea 03FA0BF3 		lsl	r3, r3, fp
 606 00ee 94B2     		uxth	r4, r2
 607 00f0 CBF11002 		rsb	r2, fp, #16
 608 00f4 0CF1FF30 		add	r0, ip, #-1
 609              	.LVL60:
 610 00f8 0392     		str	r2, [sp, #12]
 611 00fa 013B     		subs	r3, r3, #1
 612              	.LBE131:
 613              	.LBE130:
 413:..\..\..\lvgl\version_6.1.2\lvgl\src\lv_font/lv_font_fmt_txt.c ****         if(rle_rdp != 0 && rle_prev_v == ret) {
 614              		.loc 1 413 0
 615 00fc 7E68     		ldr	r6, [r7, #4]
ARM GAS  C:\Users\pearlstl\AppData\Local\Temp\ccllHTLf.s 			page 22


 616 00fe F968     		ldr	r1, [r7, #12]
 617 0100 7D7A     		ldrb	r5, [r7, #9]	@ zero_extendqisi2
 618              	.LVL61:
 619              	.LBB135:
 620              	.LBB132:
 360:..\..\..\lvgl\version_6.1.2\lvgl\src\lv_font/lv_font_fmt_txt.c ****     return res;
 621              		.loc 1 360 0
 622 0102 97F810E0 		ldrb	lr, [r7, #16]	@ zero_extendqisi2
 623 0106 0594     		str	r4, [sp, #20]
 624 0108 2746     		mov	r7, r4
 625 010a 5BB2     		sxtb	r3, r3
 626 010c 0446     		mov	r4, r0
 627 010e 0790     		str	r0, [sp, #28]
 628 0110 CDF820A0 		str	r10, [sp, #32]
 629 0114 0198     		ldr	r0, [sp, #4]
 630 0116 DDF80CA0 		ldr	r10, [sp, #12]
 631 011a CDF81890 		str	r9, [sp, #24]
 632 011e BC44     		add	ip, ip, r7
 633              	.LVL62:
 634 0120 CDF80080 		str	r8, [sp]
 635 0124 4746     		mov	r7, r8
 636 0126 4246     		mov	r2, r8
 637 0128 9946     		mov	r9, r3
 638              	.LVL63:
 639              	.L55:
 640              	.LBE132:
 641              	.LBE135:
 412:..\..\..\lvgl\version_6.1.2\lvgl\src\lv_font/lv_font_fmt_txt.c ****         ret = get_bits(rle_in, rle_rdp, rle_bpp);
 642              		.loc 1 412 0
 643 012a 002D     		cmp	r5, #0
 644 012c 70D1     		bne	.L50
 645              	.LVL64:
 646              	.LBB136:
 647              	.LBB133:
 355:..\..\..\lvgl\version_6.1.2\lvgl\src\lv_font/lv_font_fmt_txt.c ****     bit_pos = bit_pos & 0x7;
 648              		.loc 1 355 0
 649 012e CA08     		lsrs	r2, r1, #3
 650              	.LVL65:
 358:..\..\..\lvgl\version_6.1.2\lvgl\src\lv_font/lv_font_fmt_txt.c **** 
 651              		.loc 1 358 0
 652 0130 B318     		adds	r3, r6, r2
 653              	.LVL66:
 360:..\..\..\lvgl\version_6.1.2\lvgl\src\lv_font/lv_font_fmt_txt.c ****     return res;
 654              		.loc 1 360 0
 655 0132 B25C     		ldrb	r2, [r6, r2]	@ zero_extendqisi2
 656              	.LVL67:
 657 0134 5B78     		ldrb	r3, [r3, #1]	@ zero_extendqisi2
 658              	.LVL68:
 659 0136 03EB0223 		add	r3, r3, r2, lsl #8
 660 013a 01F00702 		and	r2, r1, #7
 661              	.LVL69:
 662 013e 9BB2     		uxth	r3, r3
 663 0140 C2EB0A02 		rsb	r2, r2, r10
 664              	.LVL70:
 665 0144 1341     		asrs	r3, r3, r2
 666 0146 09EA0303 		and	r3, r9, r3
 667 014a DBB2     		uxtb	r3, r3
ARM GAS  C:\Users\pearlstl\AppData\Local\Temp\ccllHTLf.s 			page 23


 668              	.LVL71:
 669              	.LBE133:
 670              	.LBE136:
 414:..\..\..\lvgl\version_6.1.2\lvgl\src\lv_font/lv_font_fmt_txt.c ****             rle_cnt = 0;
 671              		.loc 1 414 0
 672 014c 39B1     		cbz	r1, .L51
 673 014e 7345     		cmp	r3, lr
 674 0150 05D1     		bne	.L51
 675 0152 4FF00108 		mov	r8, #1
 415:..\..\..\lvgl\version_6.1.2\lvgl\src\lv_font/lv_font_fmt_txt.c ****             rle_state = RLE_STATE_REPEATE;
 676              		.loc 1 415 0
 677 0156 2846     		mov	r0, r5
 414:..\..\..\lvgl\version_6.1.2\lvgl\src\lv_font/lv_font_fmt_txt.c ****             rle_cnt = 0;
 678              		.loc 1 414 0
 679 0158 CDF80080 		str	r8, [sp]
 416:..\..\..\lvgl\version_6.1.2\lvgl\src\lv_font/lv_font_fmt_txt.c ****         }
 680              		.loc 1 416 0
 681 015c 4546     		mov	r5, r8
 682              	.L51:
 420:..\..\..\lvgl\version_6.1.2\lvgl\src\lv_font/lv_font_fmt_txt.c ****     }
 683              		.loc 1 420 0
 684 015e 0127     		movs	r7, #1
 685 0160 5944     		add	r1, r1, fp
 686 0162 3A46     		mov	r2, r7
 687              	.LBB137:
 688              	.LBB134:
 360:..\..\..\lvgl\version_6.1.2\lvgl\src\lv_font/lv_font_fmt_txt.c ****     return res;
 689              		.loc 1 360 0
 690 0164 9E46     		mov	lr, r3
 691              	.LVL72:
 692              	.L52:
 693              	.LBE134:
 694              	.LBE137:
 695              	.LBE129:
 696              	.LBE128:
 341:..\..\..\lvgl\version_6.1.2\lvgl\src\lv_font/lv_font_fmt_txt.c ****     }
 697              		.loc 1 341 0
 698 0166 04F8013F 		strb	r3, [r4, #1]!
 340:..\..\..\lvgl\version_6.1.2\lvgl\src\lv_font/lv_font_fmt_txt.c ****         out[i] = rle_next();
 699              		.loc 1 340 0
 700 016a 6445     		cmp	r4, ip
 701 016c DDD1     		bne	.L55
 702 016e 0190     		str	r0, [sp, #4]
 703 0170 DDF81890 		ldr	r9, [sp, #24]
 704 0174 DDF820A0 		ldr	r10, [sp, #32]
 705 0178 0798     		ldr	r0, [sp, #28]
 706 017a 002A     		cmp	r2, #0
 707 017c 40F0A382 		bne	.L165
 708              	.L56:
 709 0180 002F     		cmp	r7, #0
 710 0182 40F00683 		bne	.L166
 711              	.L57:
 712 0186 009B     		ldr	r3, [sp]
 713 0188 0BB1     		cbz	r3, .L58
 714 018a 724B     		ldr	r3, .L181
 715 018c 5D72     		strb	r5, [r3, #9]
 716              	.L58:
ARM GAS  C:\Users\pearlstl\AppData\Local\Temp\ccllHTLf.s 			page 24


 717 018e B8F1000F 		cmp	r8, #0
 718 0192 03D0     		beq	.L59
 719 0194 6F4B     		ldr	r3, .L181
 720 0196 9DF80420 		ldrb	r2, [sp, #4]	@ zero_extendqisi2
 721 019a 5A74     		strb	r2, [r3, #17]
 722              	.L59:
 723 019c 4FF0FF35 		mov	r5, #-1
 724 01a0 05FA09F5 		lsl	r5, r5, r9
 725 01a4 65F0FF05 		orn	r5, r5, #255
 726 01a8 0095     		str	r5, [sp]
 727              	.LBB162:
 728              	.LBB158:
 455:..\..\..\lvgl\version_6.1.2\lvgl\src\lv_font/lv_font_fmt_txt.c ****             rle_state = RLE_STATE_SINGLE;
 729              		.loc 1 455 0
 730 01aa 0021     		movs	r1, #0
 731 01ac 0F27     		movs	r7, #15
 732 01ae 4FF00D0E 		mov	lr, #13
 733 01b2 4FF00908 		mov	r8, #9
 734 01b6 4FF0040B 		mov	fp, #4
 735 01ba 049D     		ldr	r5, [sp, #16]
 736 01bc 16E0     		b	.L72
 737              	.LVL73:
 738              	.L168:
 739 01be 01F00703 		and	r3, r1, #7
 740 01c2 C3F10803 		rsb	r3, r3, #8
 741 01c6 C9EB0303 		rsb	r3, r9, r3
 742 01ca 9C40     		lsls	r4, r4, r3
 743              	.LVL74:
 744              	.LBE158:
 745              	.LBE162:
 746              	.LBE127:
 747              	.LBE126:
 748              	.LBB169:
 749              	.LBB170:
 374:..\..\..\lvgl\version_6.1.2\lvgl\src\lv_font/lv_font_fmt_txt.c ****         len = 4;
 750              		.loc 1 374 0
 751 01cc 009A     		ldr	r2, [sp]
 752 01ce 64B2     		sxtb	r4, r4
 753              	.LVL75:
 754              	.L61:
 393:..\..\..\lvgl\version_6.1.2\lvgl\src\lv_font/lv_font_fmt_txt.c ****     out[byte_pos] |= (val << bit_pos);
 755              		.loc 1 393 0
 756 01d0 C1F3CF06 		ubfx	r6, r1, #3, #16
 394:..\..\..\lvgl\version_6.1.2\lvgl\src\lv_font/lv_font_fmt_txt.c **** }
 757              		.loc 1 394 0
 758 01d4 02FA03F3 		lsl	r3, r2, r3
 759 01d8 1AF80620 		ldrb	r2, [r10, r6]	@ zero_extendqisi2
 760 01dc 1340     		ands	r3, r3, r2
 761 01de 1C43     		orrs	r4, r4, r3
 762              	.LBE170:
 763              	.LBE169:
 316:..\..\..\lvgl\version_6.1.2\lvgl\src\lv_font/lv_font_fmt_txt.c ****         bits_write(out,wrp, line_buf1[x], bpp);
 764              		.loc 1 316 0
 765 01e0 6045     		cmp	r0, ip
 318:..\..\..\lvgl\version_6.1.2\lvgl\src\lv_font/lv_font_fmt_txt.c ****     }
 766              		.loc 1 318 0
 767 01e2 2944     		add	r1, r1, r5
ARM GAS  C:\Users\pearlstl\AppData\Local\Temp\ccllHTLf.s 			page 25


 768              	.LVL76:
 769              	.LBB175:
 770              	.LBB171:
 394:..\..\..\lvgl\version_6.1.2\lvgl\src\lv_font/lv_font_fmt_txt.c **** }
 771              		.loc 1 394 0
 772 01e4 0AF80640 		strb	r4, [r10, r6]
 773              	.LVL77:
 774              	.LBE171:
 775              	.LBE175:
 316:..\..\..\lvgl\version_6.1.2\lvgl\src\lv_font/lv_font_fmt_txt.c ****         bits_write(out,wrp, line_buf1[x], bpp);
 776              		.loc 1 316 0
 777 01e8 00F0C482 		beq	.L167
 778              	.LVL78:
 779              	.L72:
 780              	.LBB176:
 781              	.LBB172:
 374:..\..\..\lvgl\version_6.1.2\lvgl\src\lv_font/lv_font_fmt_txt.c ****         len = 4;
 782              		.loc 1 374 0
 783 01ec B9F1030F 		cmp	r9, #3
 784              	.LBE172:
 785              	.LBE176:
 317:..\..\..\lvgl\version_6.1.2\lvgl\src\lv_font/lv_font_fmt_txt.c ****         wrp += wr_size;
 786              		.loc 1 317 0
 787 01f0 10F8014F 		ldrb	r4, [r0, #1]!	@ zero_extendqisi2
 788              	.LVL79:
 789              	.LBB177:
 790              	.LBB173:
 374:..\..\..\lvgl\version_6.1.2\lvgl\src\lv_font/lv_font_fmt_txt.c ****         len = 4;
 791              		.loc 1 374 0
 792 01f4 E3D1     		bne	.L168
 793              	.LVL80:
 376:..\..\..\lvgl\version_6.1.2\lvgl\src\lv_font/lv_font_fmt_txt.c ****         case 0: val = 0; break;
 794              		.loc 1 376 0
 795 01f6 072C     		cmp	r4, #7
 796 01f8 00F2C282 		bhi	.L62
 797 01fc DFE814F0 		tbh	[pc, r4, lsl #1]
 798              	.L64:
 799 0200 B202     		.2byte	(.L63-.L64)/2
 800 0202 A702     		.2byte	(.L65-.L64)/2
 801 0204 9D02     		.2byte	(.L66-.L64)/2
 802 0206 9202     		.2byte	(.L67-.L64)/2
 803 0208 8802     		.2byte	(.L68-.L64)/2
 804 020a 7D02     		.2byte	(.L69-.L64)/2
 805 020c 7302     		.2byte	(.L70-.L64)/2
 806 020e 6902     		.2byte	(.L71-.L64)/2
 807              	.LVL81:
 808              		.p2align 1
 809              	.L50:
 810              	.LBE173:
 811              	.LBE177:
 812              	.LBB178:
 813              	.LBB166:
 814              	.LBB163:
 815              	.LBB159:
 422:..\..\..\lvgl\version_6.1.2\lvgl\src\lv_font/lv_font_fmt_txt.c ****         v = get_bits(rle_in, rle_rdp, 1);
 816              		.loc 1 422 0
 817 0210 012D     		cmp	r5, #1
ARM GAS  C:\Users\pearlstl\AppData\Local\Temp\ccllHTLf.s 			page 26


 818 0212 03D0     		beq	.L169
 449:..\..\..\lvgl\version_6.1.2\lvgl\src\lv_font/lv_font_fmt_txt.c ****         ret = rle_prev_v;
 819              		.loc 1 449 0
 820 0214 022D     		cmp	r5, #2
 821 0216 2ED0     		beq	.L170
 410:..\..\..\lvgl\version_6.1.2\lvgl\src\lv_font/lv_font_fmt_txt.c **** 
 822              		.loc 1 410 0
 823 0218 0023     		movs	r3, #0
 824 021a A4E7     		b	.L52
 825              	.L169:
 826              	.LVL82:
 827              	.LBB138:
 828              	.LBB139:
 355:..\..\..\lvgl\version_6.1.2\lvgl\src\lv_font/lv_font_fmt_txt.c ****     bit_pos = bit_pos & 0x7;
 829              		.loc 1 355 0
 830 021c CA08     		lsrs	r2, r1, #3
 831              	.LVL83:
 358:..\..\..\lvgl\version_6.1.2\lvgl\src\lv_font/lv_font_fmt_txt.c **** 
 832              		.loc 1 358 0
 833 021e B318     		adds	r3, r6, r2
 834              	.LBE139:
 835              	.LBE138:
 426:..\..\..\lvgl\version_6.1.2\lvgl\src\lv_font/lv_font_fmt_txt.c ****             ret = rle_prev_v;
 836              		.loc 1 426 0
 837 0220 16F80280 		ldrb	r8, [r6, r2]	@ zero_extendqisi2
 838 0224 5A78     		ldrb	r2, [r3, #1]	@ zero_extendqisi2
 839 0226 01F00703 		and	r3, r1, #7
 840 022a 02EB0822 		add	r2, r2, r8, lsl #8
 841 022e DB43     		mvns	r3, r3
 842 0230 92B2     		uxth	r2, r2
 843 0232 1033     		adds	r3, r3, #16
 844 0234 42FA03F3 		asr	r3, r2, r3
 424:..\..\..\lvgl\version_6.1.2\lvgl\src\lv_font/lv_font_fmt_txt.c ****         rle_rdp += 1;
 845              		.loc 1 424 0
 846 0238 0130     		adds	r0, r0, #1
 426:..\..\..\lvgl\version_6.1.2\lvgl\src\lv_font/lv_font_fmt_txt.c ****             ret = rle_prev_v;
 847              		.loc 1 426 0
 848 023a 13F00103 		ands	r3, r3, #1
 424:..\..\..\lvgl\version_6.1.2\lvgl\src\lv_font/lv_font_fmt_txt.c ****         rle_rdp += 1;
 849              		.loc 1 424 0
 850 023e C0B2     		uxtb	r0, r0
 425:..\..\..\lvgl\version_6.1.2\lvgl\src\lv_font/lv_font_fmt_txt.c ****         if(v == 1) {
 851              		.loc 1 425 0
 852 0240 01F10102 		add	r2, r1, #1
 426:..\..\..\lvgl\version_6.1.2\lvgl\src\lv_font/lv_font_fmt_txt.c ****             ret = rle_prev_v;
 853              		.loc 1 426 0
 854 0244 34D1     		bne	.L171
 855              	.LVL84:
 856              	.LBB140:
 857              	.LBB141:
 355:..\..\..\lvgl\version_6.1.2\lvgl\src\lv_font/lv_font_fmt_txt.c ****     bit_pos = bit_pos & 0x7;
 858              		.loc 1 355 0
 859 0246 D108     		lsrs	r1, r2, #3
 860              	.LVL85:
 358:..\..\..\lvgl\version_6.1.2\lvgl\src\lv_font/lv_font_fmt_txt.c **** 
 861              		.loc 1 358 0
 862 0248 7318     		adds	r3, r6, r1
ARM GAS  C:\Users\pearlstl\AppData\Local\Temp\ccllHTLf.s 			page 27


 863              	.LVL86:
 360:..\..\..\lvgl\version_6.1.2\lvgl\src\lv_font/lv_font_fmt_txt.c ****     return res;
 864              		.loc 1 360 0
 865 024a 775C     		ldrb	r7, [r6, r1]	@ zero_extendqisi2
 866 024c 5B78     		ldrb	r3, [r3, #1]	@ zero_extendqisi2
 867              	.LVL87:
 868              	.LBE141:
 869              	.LBE140:
 443:..\..\..\lvgl\version_6.1.2\lvgl\src\lv_font/lv_font_fmt_txt.c ****             rle_state = RLE_STATE_SINGLE;
 870              		.loc 1 443 0
 871 024e 0095     		str	r5, [sp]
 872              	.LBB143:
 873              	.LBB142:
 360:..\..\..\lvgl\version_6.1.2\lvgl\src\lv_font/lv_font_fmt_txt.c ****     return res;
 874              		.loc 1 360 0
 875 0250 02F00701 		and	r1, r2, #7
 876              	.LVL88:
 877 0254 03EB0723 		add	r3, r3, r7, lsl #8
 878 0258 C1EB0A01 		rsb	r1, r1, r10
 879              	.LVL89:
 880 025c 9BB2     		uxth	r3, r3
 881 025e 0B41     		asrs	r3, r3, r1
 882 0260 09EA0303 		and	r3, r9, r3
 883 0264 DBB2     		uxtb	r3, r3
 884              	.LVL90:
 885              	.LBE142:
 886              	.LBE143:
 443:..\..\..\lvgl\version_6.1.2\lvgl\src\lv_font/lv_font_fmt_txt.c ****             rle_state = RLE_STATE_SINGLE;
 887              		.loc 1 443 0
 888 0266 A846     		mov	r8, r5
 889 0268 0BEB0201 		add	r1, fp, r2
 890 026c 2F46     		mov	r7, r5
 891 026e 2A46     		mov	r2, r5
 442:..\..\..\lvgl\version_6.1.2\lvgl\src\lv_font/lv_font_fmt_txt.c ****             rle_rdp += rle_bpp;
 892              		.loc 1 442 0
 893 0270 9E46     		mov	lr, r3
 444:..\..\..\lvgl\version_6.1.2\lvgl\src\lv_font/lv_font_fmt_txt.c ****         }
 894              		.loc 1 444 0
 895 0272 0025     		movs	r5, #0
 896 0274 77E7     		b	.L52
 897              	.LVL91:
 898              	.L170:
 451:..\..\..\lvgl\version_6.1.2\lvgl\src\lv_font/lv_font_fmt_txt.c ****         if(rle_cnt == 0) {
 899              		.loc 1 451 0
 900 0276 0138     		subs	r0, r0, #1
 452:..\..\..\lvgl\version_6.1.2\lvgl\src\lv_font/lv_font_fmt_txt.c ****             ret = get_bits(rle_in, rle_rdp, rle_bpp);
 901              		.loc 1 452 0
 902 0278 10F0FF00 		ands	r0, r0, #255
 903 027c 1FD1     		bne	.L107
 904              	.LVL92:
 905              	.LBB144:
 906              	.LBB145:
 355:..\..\..\lvgl\version_6.1.2\lvgl\src\lv_font/lv_font_fmt_txt.c ****     bit_pos = bit_pos & 0x7;
 907              		.loc 1 355 0
 908 027e CB08     		lsrs	r3, r1, #3
 909              	.LVL93:
 358:..\..\..\lvgl\version_6.1.2\lvgl\src\lv_font/lv_font_fmt_txt.c **** 
ARM GAS  C:\Users\pearlstl\AppData\Local\Temp\ccllHTLf.s 			page 28


 910              		.loc 1 358 0
 911 0280 F218     		adds	r2, r6, r3
 912              	.LVL94:
 360:..\..\..\lvgl\version_6.1.2\lvgl\src\lv_font/lv_font_fmt_txt.c ****     return res;
 913              		.loc 1 360 0
 914 0282 F55C     		ldrb	r5, [r6, r3]	@ zero_extendqisi2
 915 0284 5378     		ldrb	r3, [r2, #1]	@ zero_extendqisi2
 916              	.LVL95:
 917 0286 01F00702 		and	r2, r1, #7
 918              	.LVL96:
 919 028a 03EB0523 		add	r3, r3, r5, lsl #8
 920 028e C2EB0A02 		rsb	r2, r2, r10
 921              	.LVL97:
 922 0292 9BB2     		uxth	r3, r3
 923 0294 1341     		asrs	r3, r3, r2
 924 0296 09EA0303 		and	r3, r9, r3
 925              	.LBE145:
 926              	.LBE144:
 455:..\..\..\lvgl\version_6.1.2\lvgl\src\lv_font/lv_font_fmt_txt.c ****             rle_state = RLE_STATE_SINGLE;
 927              		.loc 1 455 0
 928 029a 4FF00108 		mov	r8, #1
 929              	.LBB147:
 930              	.LBB146:
 360:..\..\..\lvgl\version_6.1.2\lvgl\src\lv_font/lv_font_fmt_txt.c ****     return res;
 931              		.loc 1 360 0
 932 029e DBB2     		uxtb	r3, r3
 933              	.LVL98:
 934              	.LBE146:
 935              	.LBE147:
 455:..\..\..\lvgl\version_6.1.2\lvgl\src\lv_font/lv_font_fmt_txt.c ****             rle_state = RLE_STATE_SINGLE;
 936              		.loc 1 455 0
 937 02a0 5944     		add	r1, r1, fp
 454:..\..\..\lvgl\version_6.1.2\lvgl\src\lv_font/lv_font_fmt_txt.c ****             rle_rdp += rle_bpp;
 938              		.loc 1 454 0
 939 02a2 9E46     		mov	lr, r3
 455:..\..\..\lvgl\version_6.1.2\lvgl\src\lv_font/lv_font_fmt_txt.c ****             rle_state = RLE_STATE_SINGLE;
 940              		.loc 1 455 0
 941 02a4 CDF80080 		str	r8, [sp]
 942 02a8 4746     		mov	r7, r8
 943 02aa 4246     		mov	r2, r8
 456:..\..\..\lvgl\version_6.1.2\lvgl\src\lv_font/lv_font_fmt_txt.c ****         }
 944              		.loc 1 456 0
 945 02ac 0546     		mov	r5, r0
 946 02ae 5AE7     		b	.L52
 947              	.LVL99:
 948              	.L171:
 428:..\..\..\lvgl\version_6.1.2\lvgl\src\lv_font/lv_font_fmt_txt.c ****                 rle_cnt = get_bits(rle_in, rle_rdp, 6);
 949              		.loc 1 428 0
 950 02b0 0B28     		cmp	r0, #11
 951 02b2 16D0     		beq	.L172
 425:..\..\..\lvgl\version_6.1.2\lvgl\src\lv_font/lv_font_fmt_txt.c ****         if(v == 1) {
 952              		.loc 1 425 0
 953 02b4 1146     		mov	r1, r2
 428:..\..\..\lvgl\version_6.1.2\lvgl\src\lv_font/lv_font_fmt_txt.c ****                 rle_cnt = get_bits(rle_in, rle_rdp, 6);
 954              		.loc 1 428 0
 955 02b6 7346     		mov	r3, lr
 956 02b8 A846     		mov	r8, r5
ARM GAS  C:\Users\pearlstl\AppData\Local\Temp\ccllHTLf.s 			page 29


 957 02ba 2A46     		mov	r2, r5
 958 02bc 53E7     		b	.L52
 959              	.LVL100:
 960              	.L107:
 452:..\..\..\lvgl\version_6.1.2\lvgl\src\lv_font/lv_font_fmt_txt.c ****             ret = get_bits(rle_in, rle_rdp, rle_bpp);
 961              		.loc 1 452 0
 962 02be 7346     		mov	r3, lr
 963 02c0 4FF00108 		mov	r8, #1
 964 02c4 4FE7     		b	.L52
 965              	.LVL101:
 966              	.L46:
 967              	.LBE159:
 968              	.LBE163:
 969              	.LBE166:
 970              	.LBE178:
 971              	.LBE232:
 972              	.LBE238:
 105:..\..\..\lvgl\version_6.1.2\lvgl\src\lv_font/lv_font_fmt_txt.c ****             LV_ASSERT_MEM(buf);
 973              		.loc 1 105 0
 974 02c6 234B     		ldr	r3, .L181
 975 02c8 3146     		mov	r1, r6
 976 02ca 1868     		ldr	r0, [r3]
 977 02cc FFF7FEFF 		bl	lv_mem_realloc
 978              	.LVL102:
 979 02d0 204B     		ldr	r3, .L181
 980 02d2 1860     		str	r0, [r3]
 107:..\..\..\lvgl\version_6.1.2\lvgl\src\lv_font/lv_font_fmt_txt.c ****         }
 981              		.loc 1 107 0
 982 02d4 18B3     		cbz	r0, .L38
 983 02d6 8246     		mov	r10, r0
 984 02d8 D0E6     		b	.L47
 985              	.LVL103:
 986              	.L43:
  99:..\..\..\lvgl\version_6.1.2\lvgl\src\lv_font/lv_font_fmt_txt.c ****         case 3: buf_size = gsize >> 1;  break;
 987              		.loc 1 99 0
 988 02da B608     		lsrs	r6, r6, #2
 989              	.LVL104:
 990 02dc C4E6     		b	.L40
 991              	.LVL105:
 992              	.L41:
  98:..\..\..\lvgl\version_6.1.2\lvgl\src\lv_font/lv_font_fmt_txt.c ****         case 2: buf_size = gsize >> 2;  break;
 993              		.loc 1 98 0
 994 02de F608     		lsrs	r6, r6, #3
 995              	.LVL106:
 996 02e0 C2E6     		b	.L40
 997              	.LVL107:
 998              	.L172:
 999              	.LBB239:
 1000              	.LBB233:
 1001              	.LBB179:
 1002              	.LBB167:
 1003              	.LBB164:
 1004              	.LBB160:
 1005              	.LBB148:
 1006              	.LBB149:
 355:..\..\..\lvgl\version_6.1.2\lvgl\src\lv_font/lv_font_fmt_txt.c ****     bit_pos = bit_pos & 0x7;
 1007              		.loc 1 355 0
ARM GAS  C:\Users\pearlstl\AppData\Local\Temp\ccllHTLf.s 			page 30


 1008 02e2 4FEAD208 		lsr	r8, r2, #3
 1009              	.LVL108:
 358:..\..\..\lvgl\version_6.1.2\lvgl\src\lv_font/lv_font_fmt_txt.c **** 
 1010              		.loc 1 358 0
 1011 02e6 06EB0800 		add	r0, r6, r8
 1012              	.LVL109:
 360:..\..\..\lvgl\version_6.1.2\lvgl\src\lv_font/lv_font_fmt_txt.c ****     return res;
 1013              		.loc 1 360 0
 1014 02ea 16F80880 		ldrb	r8, [r6, r8]	@ zero_extendqisi2
 1015              	.LVL110:
 1016 02ee 4078     		ldrb	r0, [r0, #1]	@ zero_extendqisi2
 1017              	.LVL111:
 1018 02f0 02F00702 		and	r2, r2, #7
 1019              	.LVL112:
 1020 02f4 00EB0820 		add	r0, r0, r8, lsl #8
 1021 02f8 C2F10A02 		rsb	r2, r2, #10
 1022              	.LVL113:
 1023 02fc 80B2     		uxth	r0, r0
 1024 02fe 40FA02F2 		asr	r2, r0, r2
 1025 0302 02F03F02 		and	r2, r2, #63
 1026              	.LBE149:
 1027              	.LBE148:
 430:..\..\..\lvgl\version_6.1.2\lvgl\src\lv_font/lv_font_fmt_txt.c ****                 if(rle_cnt != 0) {
 1028              		.loc 1 430 0
 1029 0306 0731     		adds	r1, r1, #7
 1030              	.LVL114:
 1031              	.LBB151:
 1032              	.LBB150:
 360:..\..\..\lvgl\version_6.1.2\lvgl\src\lv_font/lv_font_fmt_txt.c ****     return res;
 1033              		.loc 1 360 0
 1034 0308 5FFA82F8 		uxtb	r8, r2
 1035              	.LVL115:
 1036              	.LBE150:
 1037              	.LBE151:
 431:..\..\..\lvgl\version_6.1.2\lvgl\src\lv_font/lv_font_fmt_txt.c ****                     rle_state = RLE_STATE_COUNTER;
 1038              		.loc 1 431 0
 1039 030c 0192     		str	r2, [sp, #4]
 1040 030e 42B1     		cbz	r2, .L173
 429:..\..\..\lvgl\version_6.1.2\lvgl\src\lv_font/lv_font_fmt_txt.c ****                 rle_rdp += 6;
 1041              		.loc 1 429 0
 1042 0310 4046     		mov	r0, r8
 431:..\..\..\lvgl\version_6.1.2\lvgl\src\lv_font/lv_font_fmt_txt.c ****                     rle_state = RLE_STATE_COUNTER;
 1043              		.loc 1 431 0
 1044 0312 1A46     		mov	r2, r3
 1045 0314 A846     		mov	r8, r5
 1046 0316 0095     		str	r5, [sp]
 1047 0318 7346     		mov	r3, lr
 432:..\..\..\lvgl\version_6.1.2\lvgl\src\lv_font/lv_font_fmt_txt.c ****                 } else {
 1048              		.loc 1 432 0
 1049 031a 0225     		movs	r5, #2
 1050 031c 23E7     		b	.L52
 1051              	.LVL116:
 1052              	.L38:
 1053              	.LBE160:
 1054              	.LBE164:
 1055              	.LBE167:
 1056              	.LBE179:
ARM GAS  C:\Users\pearlstl\AppData\Local\Temp\ccllHTLf.s 			page 31


 1057              	.LBE233:
 1058              	.LBE239:
 1059              	.LBE111:
  81:..\..\..\lvgl\version_6.1.2\lvgl\src\lv_font/lv_font_fmt_txt.c **** 
 1060              		.loc 1 81 0
 1061 031e 0020     		movs	r0, #0
 1062 0320 8CE6     		b	.L37
 1063              	.LVL117:
 1064              	.L173:
 1065              	.LBB242:
 1066              	.LBB240:
 1067              	.LBB234:
 1068              	.LBB180:
 1069              	.LBB168:
 1070              	.LBB165:
 1071              	.LBB161:
 1072              	.LBB152:
 1073              	.LBB153:
 355:..\..\..\lvgl\version_6.1.2\lvgl\src\lv_font/lv_font_fmt_txt.c ****     bit_pos = bit_pos & 0x7;
 1074              		.loc 1 355 0
 1075 0322 C808     		lsrs	r0, r1, #3
 1076              	.LVL118:
 358:..\..\..\lvgl\version_6.1.2\lvgl\src\lv_font/lv_font_fmt_txt.c **** 
 1077              		.loc 1 358 0
 1078 0324 3218     		adds	r2, r6, r0
 1079              	.LVL119:
 360:..\..\..\lvgl\version_6.1.2\lvgl\src\lv_font/lv_font_fmt_txt.c ****     return res;
 1080              		.loc 1 360 0
 1081 0326 375C     		ldrb	r7, [r6, r0]	@ zero_extendqisi2
 1082 0328 5278     		ldrb	r2, [r2, #1]	@ zero_extendqisi2
 1083              	.LVL120:
 1084              	.LBE153:
 1085              	.LBE152:
 436:..\..\..\lvgl\version_6.1.2\lvgl\src\lv_font/lv_font_fmt_txt.c ****                     rle_state = RLE_STATE_SINGLE;
 1086              		.loc 1 436 0
 1087 032a 0095     		str	r5, [sp]
 1088              	.LBB156:
 1089              	.LBB154:
 360:..\..\..\lvgl\version_6.1.2\lvgl\src\lv_font/lv_font_fmt_txt.c ****     return res;
 1090              		.loc 1 360 0
 1091 032c 01F00700 		and	r0, r1, #7
 1092              	.LVL121:
 1093 0330 02EB0722 		add	r2, r2, r7, lsl #8
 1094 0334 C0EB0A00 		rsb	r0, r0, r10
 1095              	.LVL122:
 1096 0338 92B2     		uxth	r2, r2
 1097 033a 0241     		asrs	r2, r2, r0
 1098 033c 09EA0202 		and	r2, r9, r2
 1099              	.LBE154:
 1100              	.LBE156:
 436:..\..\..\lvgl\version_6.1.2\lvgl\src\lv_font/lv_font_fmt_txt.c ****                     rle_state = RLE_STATE_SINGLE;
 1101              		.loc 1 436 0
 1102 0340 1F46     		mov	r7, r3
 1103              	.LBB157:
 1104              	.LBB155:
 360:..\..\..\lvgl\version_6.1.2\lvgl\src\lv_font/lv_font_fmt_txt.c ****     return res;
 1105              		.loc 1 360 0
ARM GAS  C:\Users\pearlstl\AppData\Local\Temp\ccllHTLf.s 			page 32


 1106 0342 D3B2     		uxtb	r3, r2
 1107              	.LVL123:
 1108              	.LBE155:
 1109              	.LBE157:
 429:..\..\..\lvgl\version_6.1.2\lvgl\src\lv_font/lv_font_fmt_txt.c ****                 rle_rdp += 6;
 1110              		.loc 1 429 0
 1111 0344 4046     		mov	r0, r8
 436:..\..\..\lvgl\version_6.1.2\lvgl\src\lv_font/lv_font_fmt_txt.c ****                     rle_state = RLE_STATE_SINGLE;
 1112              		.loc 1 436 0
 1113 0346 5944     		add	r1, r1, fp
 1114 0348 A846     		mov	r8, r5
 435:..\..\..\lvgl\version_6.1.2\lvgl\src\lv_font/lv_font_fmt_txt.c ****                     rle_rdp += rle_bpp;
 1115              		.loc 1 435 0
 1116 034a 9E46     		mov	lr, r3
 436:..\..\..\lvgl\version_6.1.2\lvgl\src\lv_font/lv_font_fmt_txt.c ****                     rle_state = RLE_STATE_SINGLE;
 1117              		.loc 1 436 0
 1118 034c 3A46     		mov	r2, r7
 437:..\..\..\lvgl\version_6.1.2\lvgl\src\lv_font/lv_font_fmt_txt.c ****                 }
 1119              		.loc 1 437 0
 1120 034e 019D     		ldr	r5, [sp, #4]
 1121 0350 09E7     		b	.L52
 1122              	.L182:
 1123 0352 00BF     		.align	2
 1124              	.L181:
 1125 0354 00000000 		.word	.LANCHOR0
 1126              	.LVL124:
 1127              	.L102:
 1128              	.LBE161:
 1129              	.LBE165:
 340:..\..\..\lvgl\version_6.1.2\lvgl\src\lv_font/lv_font_fmt_txt.c ****         out[i] = rle_next();
 1130              		.loc 1 340 0
 1131 0358 0D9B     		ldr	r3, [sp, #52]
 1132 035a 0393     		str	r3, [sp, #12]
 1133              	.LVL125:
 1134              	.L49:
 1135              	.LBE168:
 1136              	.LBE180:
 321:..\..\..\lvgl\version_6.1.2\lvgl\src\lv_font/lv_font_fmt_txt.c ****         decompress_line(line_buf2, w);
 1137              		.loc 1 321 0
 1138 035c 0C9B     		ldr	r3, [sp, #48]
 1139 035e 012B     		cmp	r3, #1
 1140 0360 40F36681 		ble	.L74
 1141              	.LBB181:
 1142              	.LBB182:
 1143              	.LBB183:
 1144              	.LBB184:
 413:..\..\..\lvgl\version_6.1.2\lvgl\src\lv_font/lv_font_fmt_txt.c ****         if(rle_rdp != 0 && rle_prev_v == ret) {
 1145              		.loc 1 413 0
 1146 0364 BA4B     		ldr	r3, .L183
 1147 0366 0299     		ldr	r1, [sp, #8]
 1148 0368 1B7A     		ldrb	r3, [r3, #8]	@ zero_extendqisi2
 1149 036a 1093     		str	r3, [sp, #64]
 1150 036c 1C46     		mov	r4, r3
 1151 036e B84B     		ldr	r3, .L183
 1152 0370 D3F804C0 		ldr	ip, [r3, #4]
 1153 0374 5B7C     		ldrb	r3, [r3, #17]	@ zero_extendqisi2
 1154 0376 0093     		str	r3, [sp]
ARM GAS  C:\Users\pearlstl\AppData\Local\Temp\ccllHTLf.s 			page 33


 1155 0378 B54B     		ldr	r3, .L183
 1156 037a D3F80CE0 		ldr	lr, [r3, #12]
 1157 037e 5F7A     		ldrb	r7, [r3, #9]	@ zero_extendqisi2
 1158 0380 1E7C     		ldrb	r6, [r3, #16]	@ zero_extendqisi2
 1159              	.LBB185:
 1160              	.LBB186:
 360:..\..\..\lvgl\version_6.1.2\lvgl\src\lv_font/lv_font_fmt_txt.c ****     return res;
 1161              		.loc 1 360 0
 1162 0382 0123     		movs	r3, #1
 1163 0384 481E     		subs	r0, r1, #1
 1164 0386 03FA09F2 		lsl	r2, r3, r9
 1165 038a 03FA04F1 		lsl	r1, r3, r4
 1166 038e 0593     		str	r3, [sp, #20]
 1167 0390 049B     		ldr	r3, [sp, #16]
 1168 0392 80B2     		uxth	r0, r0
 1169 0394 03FB00F3 		mul	r3, r3, r0
 1170 0398 0139     		subs	r1, r1, #1
 1171 039a 5242     		negs	r2, r2
 1172 039c 0025     		movs	r5, #0
 1173 039e 49B2     		sxtb	r1, r1
 1174 03a0 62F0FF02 		orn	r2, r2, #255
 1175 03a4 1293     		str	r3, [sp, #72]
 1176 03a6 C4F11003 		rsb	r3, r4, #16
 1177 03aa 0890     		str	r0, [sp, #32]
 1178 03ac 1191     		str	r1, [sp, #68]
 1179 03ae 1392     		str	r2, [sp, #76]
 1180 03b0 0193     		str	r3, [sp, #4]
 1181 03b2 0295     		str	r5, [sp, #8]
 1182 03b4 A846     		mov	r8, r5
 1183 03b6 0695     		str	r5, [sp, #24]
 1184 03b8 7446     		mov	r4, lr
 1185 03ba 0795     		str	r5, [sp, #28]
 1186              	.LVL126:
 1187              	.L94:
 1188              	.LBE186:
 1189              	.LBE185:
 1190              	.LBE184:
 1191              	.LBE183:
 340:..\..\..\lvgl\version_6.1.2\lvgl\src\lv_font/lv_font_fmt_txt.c ****         out[i] = rle_next();
 1192              		.loc 1 340 0
 1193 03bc 0D9B     		ldr	r3, [sp, #52]
 1194 03be 002B     		cmp	r3, #0
 1195 03c0 00F01981 		beq	.L100
 1196 03c4 0F99     		ldr	r1, [sp, #60]
 1197 03c6 CDF82490 		str	r9, [sp, #36]
 1198 03ca 01F1FF3E 		add	lr, r1, #-1
 1199 03ce 0B46     		mov	r3, r1
 1200 03d0 0899     		ldr	r1, [sp, #32]
 1201 03d2 CDF828E0 		str	lr, [sp, #40]
 1202 03d6 7246     		mov	r2, lr
 1203 03d8 CDF82CA0 		str	r10, [sp, #44]
 1204 03dc DDF840E0 		ldr	lr, [sp, #64]
 1205 03e0 0698     		ldr	r0, [sp, #24]
 1206 03e2 DDF81C90 		ldr	r9, [sp, #28]
 1207 03e6 DDF844A0 		ldr	r10, [sp, #68]
 1208 03ea 5918     		adds	r1, r3, r1
 1209              	.LVL127:
ARM GAS  C:\Users\pearlstl\AppData\Local\Temp\ccllHTLf.s 			page 34


 1210              	.L80:
 1211              	.LBB214:
 1212              	.LBB211:
 412:..\..\..\lvgl\version_6.1.2\lvgl\src\lv_font/lv_font_fmt_txt.c ****         ret = get_bits(rle_in, rle_rdp, rle_bpp);
 1213              		.loc 1 412 0
 1214 03ec 002F     		cmp	r7, #0
 1215 03ee 40F09D80 		bne	.L75
 1216              	.LVL128:
 1217              	.LBB189:
 1218              	.LBB187:
 355:..\..\..\lvgl\version_6.1.2\lvgl\src\lv_font/lv_font_fmt_txt.c ****     bit_pos = bit_pos & 0x7;
 1219              		.loc 1 355 0
 1220 03f2 E008     		lsrs	r0, r4, #3
 1221              	.LVL129:
 358:..\..\..\lvgl\version_6.1.2\lvgl\src\lv_font/lv_font_fmt_txt.c **** 
 1222              		.loc 1 358 0
 1223 03f4 0CEB0003 		add	r3, ip, r0
 1224              	.LVL130:
 360:..\..\..\lvgl\version_6.1.2\lvgl\src\lv_font/lv_font_fmt_txt.c ****     return res;
 1225              		.loc 1 360 0
 1226 03f8 1CF80000 		ldrb	r0, [ip, r0]	@ zero_extendqisi2
 1227              	.LVL131:
 1228 03fc 5B78     		ldrb	r3, [r3, #1]	@ zero_extendqisi2
 1229              	.LVL132:
 1230 03fe 019D     		ldr	r5, [sp, #4]
 1231 0400 03EB0020 		add	r0, r3, r0, lsl #8
 1232 0404 04F00703 		and	r3, r4, #7
 1233              	.LVL133:
 1234 0408 80B2     		uxth	r0, r0
 1235 040a EB1A     		subs	r3, r5, r3
 1236              	.LVL134:
 1237 040c 40FA03F3 		asr	r3, r0, r3
 1238 0410 0AEA0303 		and	r3, r10, r3
 1239 0414 DBB2     		uxtb	r3, r3
 1240              	.LVL135:
 1241              	.LBE187:
 1242              	.LBE189:
 414:..\..\..\lvgl\version_6.1.2\lvgl\src\lv_font/lv_font_fmt_txt.c ****             rle_cnt = 0;
 1243              		.loc 1 414 0
 1244 0416 3CB1     		cbz	r4, .L76
 1245 0418 B342     		cmp	r3, r6
 1246 041a 05D1     		bne	.L76
 1247 041c 4FF00108 		mov	r8, #1
 415:..\..\..\lvgl\version_6.1.2\lvgl\src\lv_font/lv_font_fmt_txt.c ****             rle_state = RLE_STATE_REPEATE;
 1248              		.loc 1 415 0
 1249 0420 0097     		str	r7, [sp]
 414:..\..\..\lvgl\version_6.1.2\lvgl\src\lv_font/lv_font_fmt_txt.c ****             rle_cnt = 0;
 1250              		.loc 1 414 0
 1251 0422 CDF80880 		str	r8, [sp, #8]
 416:..\..\..\lvgl\version_6.1.2\lvgl\src\lv_font/lv_font_fmt_txt.c ****         }
 1252              		.loc 1 416 0
 1253 0426 4746     		mov	r7, r8
 1254              	.L76:
 420:..\..\..\lvgl\version_6.1.2\lvgl\src\lv_font/lv_font_fmt_txt.c ****     }
 1255              		.loc 1 420 0
 1256 0428 4FF00109 		mov	r9, #1
 1257 042c 7444     		add	r4, r4, lr
ARM GAS  C:\Users\pearlstl\AppData\Local\Temp\ccllHTLf.s 			page 35


 1258 042e 4846     		mov	r0, r9
 1259              	.LBB190:
 1260              	.LBB188:
 360:..\..\..\lvgl\version_6.1.2\lvgl\src\lv_font/lv_font_fmt_txt.c ****     return res;
 1261              		.loc 1 360 0
 1262 0430 1E46     		mov	r6, r3
 1263              	.LVL136:
 1264              	.L77:
 1265              	.LBE188:
 1266              	.LBE190:
 1267              	.LBE211:
 1268              	.LBE214:
 341:..\..\..\lvgl\version_6.1.2\lvgl\src\lv_font/lv_font_fmt_txt.c ****     }
 1269              		.loc 1 341 0
 1270 0432 02F8013F 		strb	r3, [r2, #1]!
 340:..\..\..\lvgl\version_6.1.2\lvgl\src\lv_font/lv_font_fmt_txt.c ****         out[i] = rle_next();
 1271              		.loc 1 340 0
 1272 0436 8A42     		cmp	r2, r1
 1273 0438 D8D1     		bne	.L80
 1274 043a 0E9A     		ldr	r2, [sp, #56]
 1275 043c DDF828E0 		ldr	lr, [sp, #40]
 1276 0440 0690     		str	r0, [sp, #24]
 1277 0442 1346     		mov	r3, r2
 1278 0444 511E     		subs	r1, r2, #1
 1279 0446 089A     		ldr	r2, [sp, #32]
 1280 0448 CDF81C90 		str	r9, [sp, #28]
 1281 044c 1344     		add	r3, r3, r2
 1282 044e DDF82490 		ldr	r9, [sp, #36]
 1283 0452 DDF82CA0 		ldr	r10, [sp, #44]
 1284 0456 CDF824C0 		str	ip, [sp, #36]
 1285 045a 0A96     		str	r6, [sp, #40]
 1286 045c 0B94     		str	r4, [sp, #44]
 1287 045e 0398     		ldr	r0, [sp, #12]
 1288 0460 049E     		ldr	r6, [sp, #16]
 1289 0462 139C     		ldr	r4, [sp, #76]
 1290 0464 9C46     		mov	ip, r3
 1291 0466 16E0     		b	.L93
 1292              	.LVL137:
 1293              	.L175:
 1294 0468 C2F10802 		rsb	r2, r2, #8
 1295 046c C9EB020B 		rsb	fp, r9, r2
 1296 0470 03FA0BF3 		lsl	r3, r3, fp
 1297              	.LVL138:
 1298 0474 5BB2     		sxtb	r3, r3
 1299              	.LBE182:
 1300              	.LBE181:
 1301              	.LBB219:
 1302              	.LBB220:
 374:..\..\..\lvgl\version_6.1.2\lvgl\src\lv_font/lv_font_fmt_txt.c ****         len = 4;
 1303              		.loc 1 374 0
 1304 0476 2246     		mov	r2, r4
 1305              	.LVL139:
 1306              	.L82:
 393:..\..\..\lvgl\version_6.1.2\lvgl\src\lv_font/lv_font_fmt_txt.c ****     out[byte_pos] |= (val << bit_pos);
 1307              		.loc 1 393 0
 1308 0478 C0F3CF05 		ubfx	r5, r0, #3, #16
 394:..\..\..\lvgl\version_6.1.2\lvgl\src\lv_font/lv_font_fmt_txt.c **** }
ARM GAS  C:\Users\pearlstl\AppData\Local\Temp\ccllHTLf.s 			page 36


 1309              		.loc 1 394 0
 1310 047c 02FA0BF2 		lsl	r2, r2, fp
 1311 0480 1AF805B0 		ldrb	fp, [r10, r5]	@ zero_extendqisi2
 1312 0484 0BEA0202 		and	r2, fp, r2
 1313 0488 1A43     		orrs	r2, r2, r3
 1314              	.LBE220:
 1315              	.LBE219:
 324:..\..\..\lvgl\version_6.1.2\lvgl\src\lv_font/lv_font_fmt_txt.c ****             line_buf1[x] = line_buf2[x] ^ line_buf1[x];
 1316              		.loc 1 324 0
 1317 048a 8C45     		cmp	ip, r1
 327:..\..\..\lvgl\version_6.1.2\lvgl\src\lv_font/lv_font_fmt_txt.c ****         }
 1318              		.loc 1 327 0
 1319 048c 3044     		add	r0, r0, r6
 1320              	.LVL140:
 1321              	.LBB224:
 1322              	.LBB221:
 394:..\..\..\lvgl\version_6.1.2\lvgl\src\lv_font/lv_font_fmt_txt.c **** }
 1323              		.loc 1 394 0
 1324 048e 0AF80520 		strb	r2, [r10, r5]
 1325              	.LVL141:
 1326              	.LBE221:
 1327              	.LBE224:
 324:..\..\..\lvgl\version_6.1.2\lvgl\src\lv_font/lv_font_fmt_txt.c ****             line_buf1[x] = line_buf2[x] ^ line_buf1[x];
 1328              		.loc 1 324 0
 1329 0492 00F0A680 		beq	.L174
 1330              	.LVL142:
 1331              	.L93:
 325:..\..\..\lvgl\version_6.1.2\lvgl\src\lv_font/lv_font_fmt_txt.c ****             bits_write(out,wrp, line_buf1[x], bpp);
 1332              		.loc 1 325 0
 1333 0496 1EF8012F 		ldrb	r2, [lr, #1]!	@ zero_extendqisi2
 1334 049a 11F8013F 		ldrb	r3, [r1, #1]!	@ zero_extendqisi2
 1335              	.LBB225:
 1336              	.LBB222:
 374:..\..\..\lvgl\version_6.1.2\lvgl\src\lv_font/lv_font_fmt_txt.c ****         len = 4;
 1337              		.loc 1 374 0
 1338 049e B9F1030F 		cmp	r9, #3
 1339              	.LBE222:
 1340              	.LBE225:
 325:..\..\..\lvgl\version_6.1.2\lvgl\src\lv_font/lv_font_fmt_txt.c ****             bits_write(out,wrp, line_buf1[x], bpp);
 1341              		.loc 1 325 0
 1342 04a2 83EA0203 		eor	r3, r3, r2
 1343 04a6 0B70     		strb	r3, [r1]
 1344              	.LVL143:
 1345 04a8 00F00702 		and	r2, r0, #7
 1346              	.LBB226:
 1347              	.LBB223:
 374:..\..\..\lvgl\version_6.1.2\lvgl\src\lv_font/lv_font_fmt_txt.c ****         len = 4;
 1348              		.loc 1 374 0
 1349 04ac DCD1     		bne	.L175
 1350              	.LVL144:
 1351 04ae C2F1040B 		rsb	fp, r2, #4
 376:..\..\..\lvgl\version_6.1.2\lvgl\src\lv_font/lv_font_fmt_txt.c ****         case 0: val = 0; break;
 1352              		.loc 1 376 0
 1353 04b2 072B     		cmp	r3, #7
 1354 04b4 06D8     		bhi	.L162
 1355 04b6 DFE803F0 		tbb	[pc, r3]
 1356              	.L85:
ARM GAS  C:\Users\pearlstl\AppData\Local\Temp\ccllHTLf.s 			page 37


 1357 04ba 35       		.byte	(.L84-.L85)/2
 1358 04bb 2E       		.byte	(.L86-.L85)/2
 1359 04bc 27       		.byte	(.L87-.L85)/2
 1360 04bd 20       		.byte	(.L88-.L85)/2
 1361 04be 19       		.byte	(.L89-.L85)/2
 1362 04bf 12       		.byte	(.L90-.L85)/2
 1363 04c0 0B       		.byte	(.L91-.L85)/2
 1364 04c1 04       		.byte	(.L92-.L85)/2
 1365              		.p2align 1
 1366              	.L92:
 1367              	.LVL145:
 1368 04c2 0F23     		movs	r3, #15
 1369              	.LVL146:
 1370              	.L162:
 1371 04c4 03FA0BF3 		lsl	r3, r3, fp
 1372 04c8 5BB2     		sxtb	r3, r3
 1373 04ca 6FF00F02 		mvn	r2, #15
 1374 04ce D3E7     		b	.L82
 1375              	.LVL147:
 1376              	.L91:
 1377 04d0 0D23     		movs	r3, #13
 1378 04d2 03FA0BF3 		lsl	r3, r3, fp
 1379 04d6 5BB2     		sxtb	r3, r3
 1380 04d8 6FF00F02 		mvn	r2, #15
 1381 04dc CCE7     		b	.L82
 1382              	.LVL148:
 1383              	.L90:
 1384 04de 0B23     		movs	r3, #11
 1385 04e0 03FA0BF3 		lsl	r3, r3, fp
 1386 04e4 5BB2     		sxtb	r3, r3
 1387 04e6 6FF00F02 		mvn	r2, #15
 1388 04ea C5E7     		b	.L82
 1389              	.LVL149:
 1390              	.L89:
 1391 04ec 0923     		movs	r3, #9
 1392 04ee 03FA0BF3 		lsl	r3, r3, fp
 1393 04f2 5BB2     		sxtb	r3, r3
 1394 04f4 6FF00F02 		mvn	r2, #15
 1395 04f8 BEE7     		b	.L82
 1396              	.LVL150:
 1397              	.L88:
 1398 04fa 0623     		movs	r3, #6
 1399 04fc 03FA0BF3 		lsl	r3, r3, fp
 1400 0500 5BB2     		sxtb	r3, r3
 1401 0502 6FF00F02 		mvn	r2, #15
 1402 0506 B7E7     		b	.L82
 1403              	.LVL151:
 1404              	.L87:
 1405 0508 0423     		movs	r3, #4
 1406 050a 03FA0BF3 		lsl	r3, r3, fp
 1407 050e 5BB2     		sxtb	r3, r3
 1408 0510 6FF00F02 		mvn	r2, #15
 1409 0514 B0E7     		b	.L82
 1410              	.LVL152:
 1411              	.L86:
 1412 0516 0223     		movs	r3, #2
 1413 0518 03FA0BF3 		lsl	r3, r3, fp
ARM GAS  C:\Users\pearlstl\AppData\Local\Temp\ccllHTLf.s 			page 38


 1414 051c 5BB2     		sxtb	r3, r3
 1415 051e 6FF00F02 		mvn	r2, #15
 1416 0522 A9E7     		b	.L82
 1417              	.LVL153:
 1418              	.L84:
 1419 0524 0023     		movs	r3, #0
 1420 0526 6FF00F02 		mvn	r2, #15
 1421 052a A5E7     		b	.L82
 1422              	.LVL154:
 1423              	.L75:
 1424              	.LBE223:
 1425              	.LBE226:
 1426              	.LBB227:
 1427              	.LBB217:
 1428              	.LBB215:
 1429              	.LBB212:
 422:..\..\..\lvgl\version_6.1.2\lvgl\src\lv_font/lv_font_fmt_txt.c ****         v = get_bits(rle_in, rle_rdp, 1);
 1430              		.loc 1 422 0
 1431 052c 012F     		cmp	r7, #1
 1432 052e 03D0     		beq	.L176
 449:..\..\..\lvgl\version_6.1.2\lvgl\src\lv_font/lv_font_fmt_txt.c ****         ret = rle_prev_v;
 1433              		.loc 1 449 0
 1434 0530 022F     		cmp	r7, #2
 1435 0532 33D0     		beq	.L177
 410:..\..\..\lvgl\version_6.1.2\lvgl\src\lv_font/lv_font_fmt_txt.c **** 
 1436              		.loc 1 410 0
 1437 0534 0023     		movs	r3, #0
 1438 0536 7CE7     		b	.L77
 1439              	.L176:
 1440              	.LVL155:
 1441              	.LBB191:
 1442              	.LBB192:
 355:..\..\..\lvgl\version_6.1.2\lvgl\src\lv_font/lv_font_fmt_txt.c ****     bit_pos = bit_pos & 0x7;
 1443              		.loc 1 355 0
 1444 0538 E008     		lsrs	r0, r4, #3
 1445              	.LVL156:
 358:..\..\..\lvgl\version_6.1.2\lvgl\src\lv_font/lv_font_fmt_txt.c **** 
 1446              		.loc 1 358 0
 1447 053a 0CEB0003 		add	r3, ip, r0
 1448              	.LBE192:
 1449              	.LBE191:
 426:..\..\..\lvgl\version_6.1.2\lvgl\src\lv_font/lv_font_fmt_txt.c ****             ret = rle_prev_v;
 1450              		.loc 1 426 0
 1451 053e 1CF80080 		ldrb	r8, [ip, r0]	@ zero_extendqisi2
 1452 0542 5878     		ldrb	r0, [r3, #1]	@ zero_extendqisi2
 424:..\..\..\lvgl\version_6.1.2\lvgl\src\lv_font/lv_font_fmt_txt.c ****         rle_rdp += 1;
 1453              		.loc 1 424 0
 1454 0544 009D     		ldr	r5, [sp]
 426:..\..\..\lvgl\version_6.1.2\lvgl\src\lv_font/lv_font_fmt_txt.c ****             ret = rle_prev_v;
 1455              		.loc 1 426 0
 1456 0546 04F00703 		and	r3, r4, #7
 1457 054a 00EB0820 		add	r0, r0, r8, lsl #8
 1458 054e DB43     		mvns	r3, r3
 1459 0550 1033     		adds	r3, r3, #16
 1460 0552 80B2     		uxth	r0, r0
 1461 0554 1841     		asrs	r0, r0, r3
 424:..\..\..\lvgl\version_6.1.2\lvgl\src\lv_font/lv_font_fmt_txt.c ****         rle_rdp += 1;
ARM GAS  C:\Users\pearlstl\AppData\Local\Temp\ccllHTLf.s 			page 39


 1462              		.loc 1 424 0
 1463 0556 0135     		adds	r5, r5, #1
 1464 0558 EBB2     		uxtb	r3, r5
 426:..\..\..\lvgl\version_6.1.2\lvgl\src\lv_font/lv_font_fmt_txt.c ****             ret = rle_prev_v;
 1465              		.loc 1 426 0
 1466 055a 10F00100 		ands	r0, r0, #1
 424:..\..\..\lvgl\version_6.1.2\lvgl\src\lv_font/lv_font_fmt_txt.c ****         rle_rdp += 1;
 1467              		.loc 1 424 0
 1468 055e 0093     		str	r3, [sp]
 425:..\..\..\lvgl\version_6.1.2\lvgl\src\lv_font/lv_font_fmt_txt.c ****         if(v == 1) {
 1469              		.loc 1 425 0
 1470 0560 04F1010B 		add	fp, r4, #1
 426:..\..\..\lvgl\version_6.1.2\lvgl\src\lv_font/lv_font_fmt_txt.c ****             ret = rle_prev_v;
 1471              		.loc 1 426 0
 1472 0564 6DD1     		bne	.L178
 1473              	.LVL157:
 1474              	.LBB193:
 1475              	.LBB194:
 355:..\..\..\lvgl\version_6.1.2\lvgl\src\lv_font/lv_font_fmt_txt.c ****     bit_pos = bit_pos & 0x7;
 1476              		.loc 1 355 0
 1477 0566 4FEADB00 		lsr	r0, fp, #3
 1478              	.LVL158:
 358:..\..\..\lvgl\version_6.1.2\lvgl\src\lv_font/lv_font_fmt_txt.c **** 
 1479              		.loc 1 358 0
 1480 056a 0CEB0003 		add	r3, ip, r0
 1481              	.LVL159:
 360:..\..\..\lvgl\version_6.1.2\lvgl\src\lv_font/lv_font_fmt_txt.c ****     return res;
 1482              		.loc 1 360 0
 1483 056e 1CF80040 		ldrb	r4, [ip, r0]	@ zero_extendqisi2
 1484 0572 5B78     		ldrb	r3, [r3, #1]	@ zero_extendqisi2
 1485              	.LVL160:
 1486              	.LBE194:
 1487              	.LBE193:
 443:..\..\..\lvgl\version_6.1.2\lvgl\src\lv_font/lv_font_fmt_txt.c ****             rle_state = RLE_STATE_SINGLE;
 1488              		.loc 1 443 0
 1489 0574 0297     		str	r7, [sp, #8]
 1490              	.LBB196:
 1491              	.LBB195:
 360:..\..\..\lvgl\version_6.1.2\lvgl\src\lv_font/lv_font_fmt_txt.c ****     return res;
 1492              		.loc 1 360 0
 1493 0576 03EB0423 		add	r3, r3, r4, lsl #8
 1494 057a 019C     		ldr	r4, [sp, #4]
 1495 057c 0BF00700 		and	r0, fp, #7
 1496              	.LVL161:
 1497 0580 201A     		subs	r0, r4, r0
 1498              	.LVL162:
 1499 0582 9BB2     		uxth	r3, r3
 1500 0584 0341     		asrs	r3, r3, r0
 1501 0586 0AEA0303 		and	r3, r10, r3
 1502 058a DBB2     		uxtb	r3, r3
 1503              	.LVL163:
 1504              	.LBE195:
 1505              	.LBE196:
 443:..\..\..\lvgl\version_6.1.2\lvgl\src\lv_font/lv_font_fmt_txt.c ****             rle_state = RLE_STATE_SINGLE;
 1506              		.loc 1 443 0
 1507 058c B846     		mov	r8, r7
 1508 058e B946     		mov	r9, r7
ARM GAS  C:\Users\pearlstl\AppData\Local\Temp\ccllHTLf.s 			page 40


 1509 0590 3846     		mov	r0, r7
 1510 0592 0EEB0B04 		add	r4, lr, fp
 442:..\..\..\lvgl\version_6.1.2\lvgl\src\lv_font/lv_font_fmt_txt.c ****             rle_rdp += rle_bpp;
 1511              		.loc 1 442 0
 1512 0596 1E46     		mov	r6, r3
 444:..\..\..\lvgl\version_6.1.2\lvgl\src\lv_font/lv_font_fmt_txt.c ****         }
 1513              		.loc 1 444 0
 1514 0598 0027     		movs	r7, #0
 1515 059a 4AE7     		b	.L77
 1516              	.LVL164:
 1517              	.L177:
 451:..\..\..\lvgl\version_6.1.2\lvgl\src\lv_font/lv_font_fmt_txt.c ****         if(rle_cnt == 0) {
 1518              		.loc 1 451 0
 1519 059c 009B     		ldr	r3, [sp]
 1520 059e 5D1E     		subs	r5, r3, #1
 452:..\..\..\lvgl\version_6.1.2\lvgl\src\lv_font/lv_font_fmt_txt.c ****             ret = get_bits(rle_in, rle_rdp, rle_bpp);
 1521              		.loc 1 452 0
 1522 05a0 15F0FF03 		ands	r3, r5, #255
 1523 05a4 1D46     		mov	r5, r3
 1524 05a6 0093     		str	r3, [sp]
 1525 05a8 47D1     		bne	.L112
 1526              	.LVL165:
 1527              	.LBB197:
 1528              	.LBB198:
 355:..\..\..\lvgl\version_6.1.2\lvgl\src\lv_font/lv_font_fmt_txt.c ****     bit_pos = bit_pos & 0x7;
 1529              		.loc 1 355 0
 1530 05aa E308     		lsrs	r3, r4, #3
 1531              	.LVL166:
 358:..\..\..\lvgl\version_6.1.2\lvgl\src\lv_font/lv_font_fmt_txt.c **** 
 1532              		.loc 1 358 0
 1533 05ac 0CEB0306 		add	r6, ip, r3
 1534              	.LVL167:
 360:..\..\..\lvgl\version_6.1.2\lvgl\src\lv_font/lv_font_fmt_txt.c ****     return res;
 1535              		.loc 1 360 0
 1536 05b0 1CF80300 		ldrb	r0, [ip, r3]	@ zero_extendqisi2
 1537 05b4 7378     		ldrb	r3, [r6, #1]	@ zero_extendqisi2
 1538              	.LVL168:
 1539 05b6 03EB0023 		add	r3, r3, r0, lsl #8
 1540 05ba 98B2     		uxth	r0, r3
 1541 05bc 019B     		ldr	r3, [sp, #4]
 1542 05be 04F00706 		and	r6, r4, #7
 1543              	.LVL169:
 1544 05c2 9B1B     		subs	r3, r3, r6
 1545 05c4 40FA03F3 		asr	r3, r0, r3
 1546 05c8 0AEA0303 		and	r3, r10, r3
 1547              	.LBE198:
 1548              	.LBE197:
 455:..\..\..\lvgl\version_6.1.2\lvgl\src\lv_font/lv_font_fmt_txt.c ****             rle_state = RLE_STATE_SINGLE;
 1549              		.loc 1 455 0
 1550 05cc 4FF00108 		mov	r8, #1
 1551              	.LBB200:
 1552              	.LBB199:
 360:..\..\..\lvgl\version_6.1.2\lvgl\src\lv_font/lv_font_fmt_txt.c ****     return res;
 1553              		.loc 1 360 0
 1554 05d0 DBB2     		uxtb	r3, r3
 1555              	.LVL170:
 1556              	.LBE199:
ARM GAS  C:\Users\pearlstl\AppData\Local\Temp\ccllHTLf.s 			page 41


 1557              	.LBE200:
 455:..\..\..\lvgl\version_6.1.2\lvgl\src\lv_font/lv_font_fmt_txt.c ****             rle_state = RLE_STATE_SINGLE;
 1558              		.loc 1 455 0
 1559 05d2 7444     		add	r4, r4, lr
 454:..\..\..\lvgl\version_6.1.2\lvgl\src\lv_font/lv_font_fmt_txt.c ****             rle_rdp += rle_bpp;
 1560              		.loc 1 454 0
 1561 05d4 1E46     		mov	r6, r3
 455:..\..\..\lvgl\version_6.1.2\lvgl\src\lv_font/lv_font_fmt_txt.c ****             rle_state = RLE_STATE_SINGLE;
 1562              		.loc 1 455 0
 1563 05d6 CDF80880 		str	r8, [sp, #8]
 1564 05da C146     		mov	r9, r8
 1565 05dc 4046     		mov	r0, r8
 456:..\..\..\lvgl\version_6.1.2\lvgl\src\lv_font/lv_font_fmt_txt.c ****         }
 1566              		.loc 1 456 0
 1567 05de 2F46     		mov	r7, r5
 1568 05e0 27E7     		b	.L77
 1569              	.LVL171:
 1570              	.L174:
 1571 05e2 049A     		ldr	r2, [sp, #16]
 1572 05e4 129B     		ldr	r3, [sp, #72]
 1573 05e6 DDF824C0 		ldr	ip, [sp, #36]
 1574 05ea 0A9E     		ldr	r6, [sp, #40]
 1575 05ec 0B9C     		ldr	r4, [sp, #44]
 1576 05ee 1344     		add	r3, r3, r2
 1577 05f0 039A     		ldr	r2, [sp, #12]
 1578 05f2 1A44     		add	r2, r2, r3
 1579 05f4 0392     		str	r2, [sp, #12]
 1580              	.LVL172:
 1581              	.L100:
 1582 05f6 059B     		ldr	r3, [sp, #20]
 1583              	.LBE212:
 1584              	.LBE215:
 1585              	.LBE217:
 1586              	.LBE227:
 321:..\..\..\lvgl\version_6.1.2\lvgl\src\lv_font/lv_font_fmt_txt.c ****         decompress_line(line_buf2, w);
 1587              		.loc 1 321 0
 1588 05f8 0C9A     		ldr	r2, [sp, #48]
 1589 05fa 0133     		adds	r3, r3, #1
 1590 05fc 1BB2     		sxth	r3, r3
 1591 05fe 9A42     		cmp	r2, r3
 1592 0600 0593     		str	r3, [sp, #20]
 1593              	.LVL173:
 1594 0602 7FF4DBAE 		bne	.L94
 1595 0606 069B     		ldr	r3, [sp, #24]
 1596              	.LVL174:
 1597 0608 4246     		mov	r2, r8
 1598 060a A646     		mov	lr, r4
 1599 060c DDF81C80 		ldr	r8, [sp, #28]
 1600 0610 002B     		cmp	r3, #0
 1601 0612 5BD1     		bne	.L179
 1602              	.L95:
 1603 0614 B8F1000F 		cmp	r8, #0
 1604 0618 01D0     		beq	.L96
 1605 061a 0D4B     		ldr	r3, .L183
 1606 061c 1E74     		strb	r6, [r3, #16]
 1607              	.L96:
 1608 061e 029B     		ldr	r3, [sp, #8]
ARM GAS  C:\Users\pearlstl\AppData\Local\Temp\ccllHTLf.s 			page 42


 1609 0620 0BB1     		cbz	r3, .L97
 1610 0622 0B4B     		ldr	r3, .L183
 1611 0624 5F72     		strb	r7, [r3, #9]
 1612              	.L97:
 1613 0626 1AB1     		cbz	r2, .L74
 1614 0628 094B     		ldr	r3, .L183
 1615 062a 9DF80020 		ldrb	r2, [sp]	@ zero_extendqisi2
 1616 062e 5A74     		strb	r2, [r3, #17]
 1617              	.LVL175:
 1618              	.L74:
 1619              	.LBE234:
 1620              	.LBE240:
 111:..\..\..\lvgl\version_6.1.2\lvgl\src\lv_font/lv_font_fmt_txt.c ****     }
 1621              		.loc 1 111 0
 1622 0630 074B     		ldr	r3, .L183
 1623 0632 1868     		ldr	r0, [r3]
 1624              	.LBE242:
 116:..\..\..\lvgl\version_6.1.2\lvgl\src\lv_font/lv_font_fmt_txt.c **** 
 1625              		.loc 1 116 0
 1626 0634 15B0     		add	sp, sp, #84
 1627              		.cfi_remember_state
 1628              		.cfi_def_cfa_offset 36
 1629              		@ sp needed
 1630 0636 BDE8F08F 		pop	{r4, r5, r6, r7, r8, r9, r10, fp, pc}
 1631              	.LVL176:
 1632              	.L112:
 1633              		.cfi_restore_state
 1634              	.LBB243:
 1635              	.LBB241:
 1636              	.LBB235:
 1637              	.LBB228:
 1638              	.LBB218:
 1639              	.LBB216:
 1640              	.LBB213:
 452:..\..\..\lvgl\version_6.1.2\lvgl\src\lv_font/lv_font_fmt_txt.c ****             ret = get_bits(rle_in, rle_rdp, rle_bpp);
 1641              		.loc 1 452 0
 1642 063a 3346     		mov	r3, r6
 1643 063c 4FF00108 		mov	r8, #1
 1644 0640 F7E6     		b	.L77
 1645              	.LVL177:
 1646              	.L178:
 428:..\..\..\lvgl\version_6.1.2\lvgl\src\lv_font/lv_font_fmt_txt.c ****                 rle_cnt = get_bits(rle_in, rle_rdp, 6);
 1647              		.loc 1 428 0
 1648 0642 0B2B     		cmp	r3, #11
 1649 0644 06D0     		beq	.L180
 425:..\..\..\lvgl\version_6.1.2\lvgl\src\lv_font/lv_font_fmt_txt.c ****         if(v == 1) {
 1650              		.loc 1 425 0
 1651 0646 5C46     		mov	r4, fp
 428:..\..\..\lvgl\version_6.1.2\lvgl\src\lv_font/lv_font_fmt_txt.c ****                 rle_cnt = get_bits(rle_in, rle_rdp, 6);
 1652              		.loc 1 428 0
 1653 0648 3346     		mov	r3, r6
 1654 064a B846     		mov	r8, r7
 1655 064c 3846     		mov	r0, r7
 1656 064e F0E6     		b	.L77
 1657              	.L184:
 1658              		.align	2
 1659              	.L183:
ARM GAS  C:\Users\pearlstl\AppData\Local\Temp\ccllHTLf.s 			page 43


 1660 0650 00000000 		.word	.LANCHOR0
 1661              	.L180:
 1662              	.LVL178:
 1663              	.LBB201:
 1664              	.LBB202:
 355:..\..\..\lvgl\version_6.1.2\lvgl\src\lv_font/lv_font_fmt_txt.c ****     bit_pos = bit_pos & 0x7;
 1665              		.loc 1 355 0
 1666 0654 4FEADB05 		lsr	r5, fp, #3
 1667              	.LVL179:
 358:..\..\..\lvgl\version_6.1.2\lvgl\src\lv_font/lv_font_fmt_txt.c **** 
 1668              		.loc 1 358 0
 1669 0658 0CEB0503 		add	r3, ip, r5
 1670              	.LVL180:
 360:..\..\..\lvgl\version_6.1.2\lvgl\src\lv_font/lv_font_fmt_txt.c ****     return res;
 1671              		.loc 1 360 0
 1672 065c 1CF80550 		ldrb	r5, [ip, r5]	@ zero_extendqisi2
 1673              	.LVL181:
 1674 0660 5B78     		ldrb	r3, [r3, #1]	@ zero_extendqisi2
 1675              	.LVL182:
 1676 0662 0BF0070B 		and	fp, fp, #7
 1677              	.LVL183:
 1678 0666 03EB0523 		add	r3, r3, r5, lsl #8
 1679 066a CBF10A0B 		rsb	fp, fp, #10
 1680              	.LVL184:
 1681 066e 9BB2     		uxth	r3, r3
 1682 0670 43FA0BFB 		asr	fp, r3, fp
 1683 0674 0BF03F0B 		and	fp, fp, #63
 1684              	.LBE202:
 1685              	.LBE201:
 430:..\..\..\lvgl\version_6.1.2\lvgl\src\lv_font/lv_font_fmt_txt.c ****                 if(rle_cnt != 0) {
 1686              		.loc 1 430 0
 1687 0678 0734     		adds	r4, r4, #7
 1688              	.LVL185:
 1689              	.LBB204:
 1690              	.LBB203:
 360:..\..\..\lvgl\version_6.1.2\lvgl\src\lv_font/lv_font_fmt_txt.c ****     return res;
 1691              		.loc 1 360 0
 1692 067a 5FFA8BF5 		uxtb	r5, fp
 1693              	.LVL186:
 1694              	.LBE203:
 1695              	.LBE204:
 431:..\..\..\lvgl\version_6.1.2\lvgl\src\lv_font/lv_font_fmt_txt.c ****                     rle_state = RLE_STATE_COUNTER;
 1696              		.loc 1 431 0
 1697 067e BBF1000F 		cmp	fp, #0
 1698 0682 1AD1     		bne	.L110
 1699              	.LVL187:
 1700              	.LBB205:
 1701              	.LBB206:
 355:..\..\..\lvgl\version_6.1.2\lvgl\src\lv_font/lv_font_fmt_txt.c ****     bit_pos = bit_pos & 0x7;
 1702              		.loc 1 355 0
 1703 0684 E608     		lsrs	r6, r4, #3
 1704              	.LVL188:
 358:..\..\..\lvgl\version_6.1.2\lvgl\src\lv_font/lv_font_fmt_txt.c **** 
 1705              		.loc 1 358 0
 1706 0686 0CEB0603 		add	r3, ip, r6
 1707              	.LVL189:
 360:..\..\..\lvgl\version_6.1.2\lvgl\src\lv_font/lv_font_fmt_txt.c ****     return res;
ARM GAS  C:\Users\pearlstl\AppData\Local\Temp\ccllHTLf.s 			page 44


 1708              		.loc 1 360 0
 1709 068a 1CF80680 		ldrb	r8, [ip, r6]	@ zero_extendqisi2
 1710 068e 5B78     		ldrb	r3, [r3, #1]	@ zero_extendqisi2
 1711              	.LVL190:
 1712              	.LBE206:
 1713              	.LBE205:
 436:..\..\..\lvgl\version_6.1.2\lvgl\src\lv_font/lv_font_fmt_txt.c ****                     rle_state = RLE_STATE_SINGLE;
 1714              		.loc 1 436 0
 1715 0690 0297     		str	r7, [sp, #8]
 1716              	.LBB209:
 1717              	.LBB207:
 360:..\..\..\lvgl\version_6.1.2\lvgl\src\lv_font/lv_font_fmt_txt.c ****     return res;
 1718              		.loc 1 360 0
 1719 0692 03EB0823 		add	r3, r3, r8, lsl #8
 1720 0696 1FFA83F8 		uxth	r8, r3
 1721 069a 019B     		ldr	r3, [sp, #4]
 1722              	.LBE207:
 1723              	.LBE209:
 429:..\..\..\lvgl\version_6.1.2\lvgl\src\lv_font/lv_font_fmt_txt.c ****                 rle_rdp += 6;
 1724              		.loc 1 429 0
 1725 069c 0095     		str	r5, [sp]
 1726              	.LBB210:
 1727              	.LBB208:
 360:..\..\..\lvgl\version_6.1.2\lvgl\src\lv_font/lv_font_fmt_txt.c ****     return res;
 1728              		.loc 1 360 0
 1729 069e 04F00706 		and	r6, r4, #7
 1730              	.LVL191:
 1731 06a2 9E1B     		subs	r6, r3, r6
 1732              	.LVL192:
 1733 06a4 48FA06F3 		asr	r3, r8, r6
 1734 06a8 0AEA0303 		and	r3, r10, r3
 1735 06ac DBB2     		uxtb	r3, r3
 1736              	.LVL193:
 1737              	.LBE208:
 1738              	.LBE210:
 436:..\..\..\lvgl\version_6.1.2\lvgl\src\lv_font/lv_font_fmt_txt.c ****                     rle_state = RLE_STATE_SINGLE;
 1739              		.loc 1 436 0
 1740 06ae B846     		mov	r8, r7
 1741 06b0 8146     		mov	r9, r0
 1742 06b2 7444     		add	r4, r4, lr
 435:..\..\..\lvgl\version_6.1.2\lvgl\src\lv_font/lv_font_fmt_txt.c ****                     rle_rdp += rle_bpp;
 1743              		.loc 1 435 0
 1744 06b4 1E46     		mov	r6, r3
 437:..\..\..\lvgl\version_6.1.2\lvgl\src\lv_font/lv_font_fmt_txt.c ****                 }
 1745              		.loc 1 437 0
 1746 06b6 5F46     		mov	r7, fp
 1747 06b8 BBE6     		b	.L77
 1748              	.LVL194:
 1749              	.L110:
 431:..\..\..\lvgl\version_6.1.2\lvgl\src\lv_font/lv_font_fmt_txt.c ****                     rle_state = RLE_STATE_COUNTER;
 1750              		.loc 1 431 0
 1751 06ba B846     		mov	r8, r7
 1752 06bc 0297     		str	r7, [sp, #8]
 429:..\..\..\lvgl\version_6.1.2\lvgl\src\lv_font/lv_font_fmt_txt.c ****                 rle_rdp += 6;
 1753              		.loc 1 429 0
 1754 06be 0095     		str	r5, [sp]
 431:..\..\..\lvgl\version_6.1.2\lvgl\src\lv_font/lv_font_fmt_txt.c ****                     rle_state = RLE_STATE_COUNTER;
ARM GAS  C:\Users\pearlstl\AppData\Local\Temp\ccllHTLf.s 			page 45


 1755              		.loc 1 431 0
 1756 06c0 3346     		mov	r3, r6
 432:..\..\..\lvgl\version_6.1.2\lvgl\src\lv_font/lv_font_fmt_txt.c ****                 } else {
 1757              		.loc 1 432 0
 1758 06c2 0227     		movs	r7, #2
 1759 06c4 B5E6     		b	.L77
 1760              	.LVL195:
 1761              	.L165:
 1762 06c6 354B     		ldr	r3, .L185
 1763 06c8 D960     		str	r1, [r3, #12]
 1764 06ca 59E5     		b	.L56
 1765              	.LVL196:
 1766              	.L179:
 1767 06cc 334B     		ldr	r3, .L185
 1768 06ce DC60     		str	r4, [r3, #12]
 1769 06d0 A0E7     		b	.L95
 1770              	.LVL197:
 1771              	.L71:
 1772 06d2 01F00703 		and	r3, r1, #7
 1773 06d6 C3F10403 		rsb	r3, r3, #4
 1774 06da 07FA03F4 		lsl	r4, r7, r3
 1775 06de 64B2     		sxtb	r4, r4
 1776              	.LBE213:
 1777              	.LBE216:
 1778              	.LBE218:
 1779              	.LBE228:
 1780              	.LBB229:
 1781              	.LBB174:
 1782 06e0 6FF00F02 		mvn	r2, #15
 1783 06e4 74E5     		b	.L61
 1784              	.LVL198:
 1785              	.L70:
 1786 06e6 01F00703 		and	r3, r1, #7
 1787 06ea C3F10403 		rsb	r3, r3, #4
 1788 06ee 0EFA03F4 		lsl	r4, lr, r3
 1789 06f2 64B2     		sxtb	r4, r4
 1790 06f4 6FF00F02 		mvn	r2, #15
 1791 06f8 6AE5     		b	.L61
 1792              	.LVL199:
 1793              	.L69:
 1794 06fa 01F00703 		and	r3, r1, #7
 1795 06fe 0B22     		movs	r2, #11
 1796 0700 C3F10403 		rsb	r3, r3, #4
 1797 0704 02FA03F4 		lsl	r4, r2, r3
 1798 0708 64B2     		sxtb	r4, r4
 1799 070a 6FF00F02 		mvn	r2, #15
 1800 070e 5FE5     		b	.L61
 1801              	.LVL200:
 1802              	.L68:
 1803 0710 01F00703 		and	r3, r1, #7
 1804 0714 C3F10403 		rsb	r3, r3, #4
 1805 0718 08FA03F4 		lsl	r4, r8, r3
 1806 071c 64B2     		sxtb	r4, r4
 1807 071e 6FF00F02 		mvn	r2, #15
 1808 0722 55E5     		b	.L61
 1809              	.LVL201:
 1810              	.L67:
ARM GAS  C:\Users\pearlstl\AppData\Local\Temp\ccllHTLf.s 			page 46


 1811 0724 01F00703 		and	r3, r1, #7
 1812 0728 0622     		movs	r2, #6
 1813 072a C3F10403 		rsb	r3, r3, #4
 1814 072e 02FA03F4 		lsl	r4, r2, r3
 1815 0732 64B2     		sxtb	r4, r4
 1816 0734 6FF00F02 		mvn	r2, #15
 1817 0738 4AE5     		b	.L61
 1818              	.LVL202:
 1819              	.L66:
 1820 073a 01F00703 		and	r3, r1, #7
 1821 073e C3F10403 		rsb	r3, r3, #4
 1822 0742 0BFA03F4 		lsl	r4, fp, r3
 1823 0746 64B2     		sxtb	r4, r4
 1824 0748 6FF00F02 		mvn	r2, #15
 1825 074c 40E5     		b	.L61
 1826              	.LVL203:
 1827              	.L65:
 1828 074e 01F00703 		and	r3, r1, #7
 1829 0752 0222     		movs	r2, #2
 1830 0754 C3F10403 		rsb	r3, r3, #4
 1831 0758 02FA03F4 		lsl	r4, r2, r3
 1832 075c 64B2     		sxtb	r4, r4
 1833 075e 6FF00F02 		mvn	r2, #15
 1834 0762 35E5     		b	.L61
 1835              	.LVL204:
 1836              	.L63:
 1837 0764 01F00703 		and	r3, r1, #7
 1838 0768 C3F10403 		rsb	r3, r3, #4
 1839 076c 0024     		movs	r4, #0
 1840 076e 6FF00F02 		mvn	r2, #15
 1841 0772 2DE5     		b	.L61
 1842              	.LVL205:
 1843              	.L167:
 1844 0774 049B     		ldr	r3, [sp, #16]
 1845 0776 059A     		ldr	r2, [sp, #20]
 1846 0778 02FB0333 		mla	r3, r2, r3, r3
 1847 077c 0393     		str	r3, [sp, #12]
 1848 077e EDE5     		b	.L49
 1849              	.LVL206:
 1850              	.L62:
 1851 0780 01F00703 		and	r3, r1, #7
 1852 0784 C3F10403 		rsb	r3, r3, #4
 1853 0788 9C40     		lsls	r4, r4, r3
 1854              	.LVL207:
 1855 078a 64B2     		sxtb	r4, r4
 376:..\..\..\lvgl\version_6.1.2\lvgl\src\lv_font/lv_font_fmt_txt.c ****         case 0: val = 0; break;
 1856              		.loc 1 376 0
 1857 078c 6FF00F02 		mvn	r2, #15
 1858 0790 1EE5     		b	.L61
 1859              	.LVL208:
 1860              	.L166:
 1861 0792 024B     		ldr	r3, .L185
 1862 0794 83F810E0 		strb	lr, [r3, #16]
 1863 0798 F5E4     		b	.L57
 1864              	.L186:
 1865 079a 00BF     		.align	2
 1866              	.L185:
ARM GAS  C:\Users\pearlstl\AppData\Local\Temp\ccllHTLf.s 			page 47


 1867 079c 00000000 		.word	.LANCHOR0
 1868              	.LBE174:
 1869              	.LBE229:
 1870              	.LBE235:
 1871              	.LBE241:
 1872              	.LBE243:
 1873              		.cfi_endproc
 1874              	.LFE31:
 1875              		.size	lv_font_get_bitmap_fmt_txt, .-lv_font_get_bitmap_fmt_txt
 1876              		.section	.text.lv_font_get_glyph_dsc_fmt_txt,"ax",%progbits
 1877              		.align	2
 1878              		.global	lv_font_get_glyph_dsc_fmt_txt
 1879              		.thumb
 1880              		.thumb_func
 1881              		.type	lv_font_get_glyph_dsc_fmt_txt, %function
 1882              	lv_font_get_glyph_dsc_fmt_txt:
 1883              	.LFB32:
 127:..\..\..\lvgl\version_6.1.2\lvgl\src\lv_font/lv_font_fmt_txt.c ****     lv_font_fmt_txt_dsc_t * fdsc = (lv_font_fmt_txt_dsc_t *) font->dsc;
 1884              		.loc 1 127 0
 1885              		.cfi_startproc
 1886              		@ args = 0, pretend = 0, frame = 8
 1887              		@ frame_needed = 0, uses_anonymous_args = 0
 1888              	.LVL209:
 1889              	.LBB265:
 1890              	.LBB266:
 164:..\..\..\lvgl\version_6.1.2\lvgl\src\lv_font/lv_font_fmt_txt.c **** 
 1891              		.loc 1 164 0
 1892 0000 0AB9     		cbnz	r2, .L238
 1893              	.LVL210:
 1894              	.LBE266:
 1895              	.LBE265:
 130:..\..\..\lvgl\version_6.1.2\lvgl\src\lv_font/lv_font_fmt_txt.c **** 
 1896              		.loc 1 130 0
 1897 0002 0020     		movs	r0, #0
 1898              	.LVL211:
 156:..\..\..\lvgl\version_6.1.2\lvgl\src\lv_font/lv_font_fmt_txt.c **** 
 1899              		.loc 1 156 0
 1900 0004 7047     		bx	lr
 1901              	.LVL212:
 1902              	.L238:
 127:..\..\..\lvgl\version_6.1.2\lvgl\src\lv_font/lv_font_fmt_txt.c ****     lv_font_fmt_txt_dsc_t * fdsc = (lv_font_fmt_txt_dsc_t *) font->dsc;
 1903              		.loc 1 127 0
 1904 0006 2DE9F047 		push	{r4, r5, r6, r7, r8, r9, r10, lr}
 1905              		.cfi_def_cfa_offset 32
 1906              		.cfi_offset 4, -32
 1907              		.cfi_offset 5, -28
 1908              		.cfi_offset 6, -24
 1909              		.cfi_offset 7, -20
 1910              		.cfi_offset 8, -16
 1911              		.cfi_offset 9, -12
 1912              		.cfi_offset 10, -8
 1913              		.cfi_offset 14, -4
 128:..\..\..\lvgl\version_6.1.2\lvgl\src\lv_font/lv_font_fmt_txt.c ****     uint32_t gid = get_glyph_dsc_id(font, unicode_letter);
 1914              		.loc 1 128 0
 1915 000a C568     		ldr	r5, [r0, #12]
 1916              	.LVL213:
 1917 000c 9846     		mov	r8, r3
ARM GAS  C:\Users\pearlstl\AppData\Local\Temp\ccllHTLf.s 			page 48


 1918              	.LBB293:
 1919              	.LBB288:
 1920              	.LBB267:
 1921              	.LBB268:
 169:..\..\..\lvgl\version_6.1.2\lvgl\src\lv_font/lv_font_fmt_txt.c **** 
 1922              		.loc 1 169 0
 1923 000e 6B69     		ldr	r3, [r5, #20]
 1924              	.LVL214:
 1925 0010 9A42     		cmp	r2, r3
 1926              	.LBE268:
 1927              	.LBE267:
 1928              	.LBE288:
 1929              	.LBE293:
 127:..\..\..\lvgl\version_6.1.2\lvgl\src\lv_font/lv_font_fmt_txt.c ****     lv_font_fmt_txt_dsc_t * fdsc = (lv_font_fmt_txt_dsc_t *) font->dsc;
 1930              		.loc 1 127 0
 1931 0012 84B0     		sub	sp, sp, #16
 1932              		.cfi_def_cfa_offset 48
 1933 0014 1746     		mov	r7, r2
 1934 0016 0C46     		mov	r4, r1
 1935 0018 8146     		mov	r9, r0
 1936              	.LBB294:
 1937              	.LBB289:
 1938              	.LBB284:
 1939              	.LBB280:
 169:..\..\..\lvgl\version_6.1.2\lvgl\src\lv_font/lv_font_fmt_txt.c **** 
 1940              		.loc 1 169 0
 1941 001a 00F09F80 		beq	.L189
 1942              	.LVL215:
 172:..\..\..\lvgl\version_6.1.2\lvgl\src\lv_font/lv_font_fmt_txt.c **** 
 1943              		.loc 1 172 0
 1944 001e 698A     		ldrh	r1, [r5, #18]
 1945              	.LVL216:
 1946 0020 C1F30901 		ubfx	r1, r1, #0, #10
 1947 0024 0029     		cmp	r1, #0
 1948 0026 00F0B980 		beq	.L191
 1949              	.LBB269:
 175:..\..\..\lvgl\version_6.1.2\lvgl\src\lv_font/lv_font_fmt_txt.c ****         if(rcp > fdsc->cmaps[i].range_length) continue;
 1950              		.loc 1 175 0
 1951 002a A868     		ldr	r0, [r5, #8]
 1952              	.LVL217:
 1953 002c 0268     		ldr	r2, [r0]
 1954              	.LVL218:
 176:..\..\..\lvgl\version_6.1.2\lvgl\src\lv_font/lv_font_fmt_txt.c ****         uint32_t glyph_id = 0;
 1955              		.loc 1 176 0
 1956 002e 8388     		ldrh	r3, [r0, #4]
 175:..\..\..\lvgl\version_6.1.2\lvgl\src\lv_font/lv_font_fmt_txt.c ****         if(rcp > fdsc->cmaps[i].range_length) continue;
 1957              		.loc 1 175 0
 1958 0030 BA1A     		subs	r2, r7, r2
 176:..\..\..\lvgl\version_6.1.2\lvgl\src\lv_font/lv_font_fmt_txt.c ****         uint32_t glyph_id = 0;
 1959              		.loc 1 176 0
 1960 0032 9342     		cmp	r3, r2
 175:..\..\..\lvgl\version_6.1.2\lvgl\src\lv_font/lv_font_fmt_txt.c ****         if(rcp > fdsc->cmaps[i].range_length) continue;
 1961              		.loc 1 175 0
 1962 0034 0392     		str	r2, [sp, #12]
 176:..\..\..\lvgl\version_6.1.2\lvgl\src\lv_font/lv_font_fmt_txt.c ****         uint32_t glyph_id = 0;
 1963              		.loc 1 176 0
 1964 0036 20D2     		bcs	.L239
ARM GAS  C:\Users\pearlstl\AppData\Local\Temp\ccllHTLf.s 			page 49


 1965 0038 0023     		movs	r3, #0
 1966              	.LVL219:
 1967              	.L193:
 1968              	.LBE269:
 172:..\..\..\lvgl\version_6.1.2\lvgl\src\lv_font/lv_font_fmt_txt.c **** 
 1969              		.loc 1 172 0
 1970 003a 0133     		adds	r3, r3, #1
 1971              	.LVL220:
 1972 003c 9BB2     		uxth	r3, r3
 1973              	.LVL221:
 1974              	.LBB275:
 175:..\..\..\lvgl\version_6.1.2\lvgl\src\lv_font/lv_font_fmt_txt.c ****         if(rcp > fdsc->cmaps[i].range_length) continue;
 1975              		.loc 1 175 0
 1976 003e 03EB8302 		add	r2, r3, r3, lsl #2
 1977 0042 4FEA820A 		lsl	r10, r2, #2
 1978              	.LBE275:
 172:..\..\..\lvgl\version_6.1.2\lvgl\src\lv_font/lv_font_fmt_txt.c **** 
 1979              		.loc 1 172 0
 1980 0046 8B42     		cmp	r3, r1
 1981              	.LBB276:
 175:..\..\..\lvgl\version_6.1.2\lvgl\src\lv_font/lv_font_fmt_txt.c ****         if(rcp > fdsc->cmaps[i].range_length) continue;
 1982              		.loc 1 175 0
 1983 0048 00EB0A0E 		add	lr, r0, r10
 1984              	.LBE276:
 172:..\..\..\lvgl\version_6.1.2\lvgl\src\lv_font/lv_font_fmt_txt.c **** 
 1985              		.loc 1 172 0
 1986 004c 80F2A680 		bge	.L191
 1987              	.LBB277:
 175:..\..\..\lvgl\version_6.1.2\lvgl\src\lv_font/lv_font_fmt_txt.c ****         if(rcp > fdsc->cmaps[i].range_length) continue;
 1988              		.loc 1 175 0
 1989 0050 50F82220 		ldr	r2, [r0, r2, lsl #2]
 176:..\..\..\lvgl\version_6.1.2\lvgl\src\lv_font/lv_font_fmt_txt.c ****         uint32_t glyph_id = 0;
 1990              		.loc 1 176 0
 1991 0054 BEF804C0 		ldrh	ip, [lr, #4]
 175:..\..\..\lvgl\version_6.1.2\lvgl\src\lv_font/lv_font_fmt_txt.c ****         if(rcp > fdsc->cmaps[i].range_length) continue;
 1992              		.loc 1 175 0
 1993 0058 BA1A     		subs	r2, r7, r2
 176:..\..\..\lvgl\version_6.1.2\lvgl\src\lv_font/lv_font_fmt_txt.c ****         uint32_t glyph_id = 0;
 1994              		.loc 1 176 0
 1995 005a 6245     		cmp	r2, ip
 175:..\..\..\lvgl\version_6.1.2\lvgl\src\lv_font/lv_font_fmt_txt.c ****         if(rcp > fdsc->cmaps[i].range_length) continue;
 1996              		.loc 1 175 0
 1997 005c 0392     		str	r2, [sp, #12]
 176:..\..\..\lvgl\version_6.1.2\lvgl\src\lv_font/lv_font_fmt_txt.c ****         uint32_t glyph_id = 0;
 1998              		.loc 1 176 0
 1999 005e ECD8     		bhi	.L193
 175:..\..\..\lvgl\version_6.1.2\lvgl\src\lv_font/lv_font_fmt_txt.c ****         if(rcp > fdsc->cmaps[i].range_length) continue;
 2000              		.loc 1 175 0
 2001 0060 7046     		mov	r0, lr
 2002              	.LVL222:
 178:..\..\..\lvgl\version_6.1.2\lvgl\src\lv_font/lv_font_fmt_txt.c ****             glyph_id = fdsc->cmaps[i].glyph_id_start + rcp;
 2003              		.loc 1 178 0
 2004 0062 837C     		ldrb	r3, [r0, #18]	@ zero_extendqisi2
 2005              	.LVL223:
 2006 0064 73B1     		cbz	r3, .L240
 2007              	.L196:
 181:..\..\..\lvgl\version_6.1.2\lvgl\src\lv_font/lv_font_fmt_txt.c ****             const uint8_t * gid_ofs_8 = fdsc->cmaps[i].glyph_id_ofs_list;
ARM GAS  C:\Users\pearlstl\AppData\Local\Temp\ccllHTLf.s 			page 50


 2008              		.loc 1 181 0
 2009 0066 012B     		cmp	r3, #1
 2010 0068 7AD0     		beq	.L241
 185:..\..\..\lvgl\version_6.1.2\lvgl\src\lv_font/lv_font_fmt_txt.c ****             uint8_t * p = lv_utils_bsearch(&rcp, fdsc->cmaps[i].unicode_list, fdsc->cmaps[i].list_l
 2011              		.loc 1 185 0
 2012 006a 022B     		cmp	r3, #2
 2013 006c 00F0B380 		beq	.L242
 194:..\..\..\lvgl\version_6.1.2\lvgl\src\lv_font/lv_font_fmt_txt.c ****             uint8_t * p = lv_utils_bsearch(&rcp, fdsc->cmaps[i].unicode_list, fdsc->cmaps[i].list_l
 2014              		.loc 1 194 0
 2015 0070 032B     		cmp	r3, #3
 2016 0072 00F09880 		beq	.L243
 2017              	.LVL224:
 2018              	.L201:
 177:..\..\..\lvgl\version_6.1.2\lvgl\src\lv_font/lv_font_fmt_txt.c ****         if(fdsc->cmaps[i].type == LV_FONT_FMT_TXT_CMAP_FORMAT0_TINY) {
 2019              		.loc 1 177 0
 2020 0076 0021     		movs	r1, #0
 2021 0078 06E0     		b	.L197
 2022              	.LVL225:
 2023              	.L239:
 178:..\..\..\lvgl\version_6.1.2\lvgl\src\lv_font/lv_font_fmt_txt.c ****             glyph_id = fdsc->cmaps[i].glyph_id_start + rcp;
 2024              		.loc 1 178 0
 2025 007a 837C     		ldrb	r3, [r0, #18]	@ zero_extendqisi2
 175:..\..\..\lvgl\version_6.1.2\lvgl\src\lv_font/lv_font_fmt_txt.c ****         if(rcp > fdsc->cmaps[i].range_length) continue;
 2026              		.loc 1 175 0
 2027 007c 4FF0000A 		mov	r10, #0
 178:..\..\..\lvgl\version_6.1.2\lvgl\src\lv_font/lv_font_fmt_txt.c ****             glyph_id = fdsc->cmaps[i].glyph_id_start + rcp;
 2028              		.loc 1 178 0
 2029 0080 002B     		cmp	r3, #0
 2030 0082 F0D1     		bne	.L196
 2031              	.LVL226:
 2032              	.L240:
 179:..\..\..\lvgl\version_6.1.2\lvgl\src\lv_font/lv_font_fmt_txt.c ****         }
 2033              		.loc 1 179 0
 2034 0084 C188     		ldrh	r1, [r0, #6]
 2035 0086 1144     		add	r1, r1, r2
 2036              	.LVL227:
 2037              	.L197:
 206:..\..\..\lvgl\version_6.1.2\lvgl\src\lv_font/lv_font_fmt_txt.c ****         fdsc->last_glyph_id = glyph_id;
 2038              		.loc 1 206 0
 2039 0088 6F61     		str	r7, [r5, #20]
 207:..\..\..\lvgl\version_6.1.2\lvgl\src\lv_font/lv_font_fmt_txt.c ****         return glyph_id;
 2040              		.loc 1 207 0
 2041 008a A961     		str	r1, [r5, #24]
 208:..\..\..\lvgl\version_6.1.2\lvgl\src\lv_font/lv_font_fmt_txt.c ****     }
 2042              		.loc 1 208 0
 2043 008c 0E46     		mov	r6, r1
 2044              	.LVL228:
 2045              	.L192:
 2046              	.LBE277:
 2047              	.LBE280:
 2048              	.LBE284:
 2049              	.LBE289:
 2050              	.LBE294:
 130:..\..\..\lvgl\version_6.1.2\lvgl\src\lv_font/lv_font_fmt_txt.c **** 
 2051              		.loc 1 130 0
 2052 008e 002E     		cmp	r6, #0
 2053 0090 00F08780 		beq	.L188
ARM GAS  C:\Users\pearlstl\AppData\Local\Temp\ccllHTLf.s 			page 51


 2054              	.LVL229:
 133:..\..\..\lvgl\version_6.1.2\lvgl\src\lv_font/lv_font_fmt_txt.c ****         uint32_t gid_next = get_glyph_dsc_id(font, unicode_letter_next);
 2055              		.loc 1 133 0
 2056 0094 EB68     		ldr	r3, [r5, #12]
 2057 0096 13B1     		cbz	r3, .L205
 2058              	.LVL230:
 2059              	.LBB295:
 2060              	.LBB296:
 2061              	.LBB297:
 164:..\..\..\lvgl\version_6.1.2\lvgl\src\lv_font/lv_font_fmt_txt.c **** 
 2062              		.loc 1 164 0
 2063 0098 B8F1000F 		cmp	r8, #0
 2064 009c 20D1     		bne	.L244
 2065              	.LVL231:
 2066              	.L205:
 2067              	.LBE297:
 2068              	.LBE296:
 2069              	.LBB299:
 2070              	.LBB300:
 2071              	.LBB301:
 2072              	.LBB302:
 247:..\..\..\lvgl\version_6.1.2\lvgl\src\lv_font/lv_font_fmt_txt.c ****                 lv_uintptr_t ofs = (lv_uintptr_t) (kid_p - (const uint8_t *)g_ids);
 2073              		.loc 1 247 0
 2074 009e 0023     		movs	r3, #0
 2075              	.L204:
 2076              	.LVL232:
 2077              	.LBE302:
 2078              	.LBE301:
 2079              	.LBE300:
 2080              	.LBE299:
 2081              	.LBE295:
 141:..\..\..\lvgl\version_6.1.2\lvgl\src\lv_font/lv_font_fmt_txt.c **** 
 2082              		.loc 1 141 0
 2083 00a0 6968     		ldr	r1, [r5, #4]
 146:..\..\..\lvgl\version_6.1.2\lvgl\src\lv_font/lv_font_fmt_txt.c **** 
 2084              		.loc 1 146 0
 2085 00a2 288A     		ldrh	r0, [r5, #16]
 141:..\..\..\lvgl\version_6.1.2\lvgl\src\lv_font/lv_font_fmt_txt.c **** 
 2086              		.loc 1 141 0
 2087 00a4 01EBC601 		add	r1, r1, r6, lsl #3
 2088              	.LVL233:
 146:..\..\..\lvgl\version_6.1.2\lvgl\src\lv_font/lv_font_fmt_txt.c **** 
 2089              		.loc 1 146 0
 2090 00a8 03FB00F3 		mul	r3, r3, r0
 2091              	.LVL234:
 145:..\..\..\lvgl\version_6.1.2\lvgl\src\lv_font/lv_font_fmt_txt.c ****     adv_w  = (adv_w + (1 << 3)) >> 4;
 2092              		.loc 1 145 0
 2093 00ac 4A88     		ldrh	r2, [r1, #2]
 146:..\..\..\lvgl\version_6.1.2\lvgl\src\lv_font/lv_font_fmt_txt.c **** 
 2094              		.loc 1 146 0
 2095 00ae C2F30B12 		ubfx	r2, r2, #4, #12
 2096 00b2 02EB2313 		add	r3, r2, r3, asr #4
 2097 00b6 0833     		adds	r3, r3, #8
 2098              	.LVL235:
 148:..\..\..\lvgl\version_6.1.2\lvgl\src\lv_font/lv_font_fmt_txt.c ****     dsc_out->box_h = gdsc->box_h;
 2099              		.loc 1 148 0
 2100 00b8 1B09     		lsrs	r3, r3, #4
ARM GAS  C:\Users\pearlstl\AppData\Local\Temp\ccllHTLf.s 			page 52


 2101              	.LVL236:
 2102 00ba 2380     		strh	r3, [r4]	@ movhi
 149:..\..\..\lvgl\version_6.1.2\lvgl\src\lv_font/lv_font_fmt_txt.c ****     dsc_out->box_w = gdsc->box_w;
 2103              		.loc 1 149 0
 2104 00bc 4B79     		ldrb	r3, [r1, #5]	@ zero_extendqisi2
 2105              	.LVL237:
 2106 00be E370     		strb	r3, [r4, #3]
 150:..\..\..\lvgl\version_6.1.2\lvgl\src\lv_font/lv_font_fmt_txt.c ****     dsc_out->ofs_x = gdsc->ofs_x;
 2107              		.loc 1 150 0
 2108 00c0 0B79     		ldrb	r3, [r1, #4]	@ zero_extendqisi2
 2109 00c2 A370     		strb	r3, [r4, #2]
 151:..\..\..\lvgl\version_6.1.2\lvgl\src\lv_font/lv_font_fmt_txt.c ****     dsc_out->ofs_y = gdsc->ofs_y;
 2110              		.loc 1 151 0
 2111 00c4 91F90630 		ldrsb	r3, [r1, #6]
 2112 00c8 2371     		strb	r3, [r4, #4]
 152:..\..\..\lvgl\version_6.1.2\lvgl\src\lv_font/lv_font_fmt_txt.c ****     dsc_out->bpp   = (uint8_t)fdsc->bpp;
 2113              		.loc 1 152 0
 2114 00ca 91F90730 		ldrsb	r3, [r1, #7]
 2115 00ce 6371     		strb	r3, [r4, #5]
 153:..\..\..\lvgl\version_6.1.2\lvgl\src\lv_font/lv_font_fmt_txt.c **** 
 2116              		.loc 1 153 0
 2117 00d0 EB7C     		ldrb	r3, [r5, #19]	@ zero_extendqisi2
 2118 00d2 C3F38203 		ubfx	r3, r3, #2, #3
 2119 00d6 A371     		strb	r3, [r4, #6]
 155:..\..\..\lvgl\version_6.1.2\lvgl\src\lv_font/lv_font_fmt_txt.c **** }
 2120              		.loc 1 155 0
 2121 00d8 0120     		movs	r0, #1
 2122              	.LVL238:
 2123              	.L235:
 156:..\..\..\lvgl\version_6.1.2\lvgl\src\lv_font/lv_font_fmt_txt.c **** 
 2124              		.loc 1 156 0
 2125 00da 04B0     		add	sp, sp, #16
 2126              		.cfi_remember_state
 2127              		.cfi_def_cfa_offset 32
 2128              		@ sp needed
 2129 00dc BDE8F087 		pop	{r4, r5, r6, r7, r8, r9, r10, pc}
 2130              	.LVL239:
 2131              	.L244:
 2132              		.cfi_restore_state
 2133              	.LBB315:
 2134              	.LBB312:
 2135              	.LBB298:
 2136 00e0 4146     		mov	r1, r8
 2137 00e2 09F10C00 		add	r0, r9, #12
 2138 00e6 FFF7FEFF 		bl	get_glyph_dsc_id.isra.0.part.1
 2139              	.LVL240:
 2140              	.LBE298:
 2141              	.LBE312:
 135:..\..\..\lvgl\version_6.1.2\lvgl\src\lv_font/lv_font_fmt_txt.c ****             kvalue = get_kern_value(font, gid, gid_next);
 2142              		.loc 1 135 0
 2143 00ea 0028     		cmp	r0, #0
 2144 00ec D7D0     		beq	.L205
 2145 00ee D9F80C30 		ldr	r3, [r9, #12]
 2146              	.LVL241:
 2147              	.LBB313:
 2148              	.LBB310:
 223:..\..\..\lvgl\version_6.1.2\lvgl\src\lv_font/lv_font_fmt_txt.c ****         /*Kern pairs*/
ARM GAS  C:\Users\pearlstl\AppData\Local\Temp\ccllHTLf.s 			page 53


 2149              		.loc 1 223 0
 2150 00f2 DA7C     		ldrb	r2, [r3, #19]	@ zero_extendqisi2
 2151 00f4 9206     		lsls	r2, r2, #26
 2152 00f6 1FD4     		bmi	.L206
 2153              	.LBB307:
 225:..\..\..\lvgl\version_6.1.2\lvgl\src\lv_font/lv_font_fmt_txt.c ****         if(kdsc->glyph_ids_size == 0) {
 2154              		.loc 1 225 0
 2155 00f8 DF68     		ldr	r7, [r3, #12]
 2156              	.LVL242:
 226:..\..\..\lvgl\version_6.1.2\lvgl\src\lv_font/lv_font_fmt_txt.c ****             /* Use binary search to find the kern value.
 2157              		.loc 1 226 0
 2158 00fa FB7A     		ldrb	r3, [r7, #11]	@ zero_extendqisi2
 2159              	.LVL243:
 2160 00fc 13F00303 		ands	r3, r3, #3
 2161 0100 33D0     		beq	.L245
 239:..\..\..\lvgl\version_6.1.2\lvgl\src\lv_font/lv_font_fmt_txt.c ****             /* Use binary search to find the kern value.
 2162              		.loc 1 239 0
 2163 0102 012B     		cmp	r3, #1
 2164 0104 CBD1     		bne	.L205
 2165              	.LBB304:
 243:..\..\..\lvgl\version_6.1.2\lvgl\src\lv_font/lv_font_fmt_txt.c ****             uint8_t * kid_p = lv_utils_bsearch(&g_id_both, g_ids, kdsc->pair_cnt, 4, kern_pair_16_c
 2166              		.loc 1 243 0
 2167 0106 04AB     		add	r3, sp, #16
 2168 0108 06EB0020 		add	r0, r6, r0, lsl #8
 2169              	.LVL244:
 242:..\..\..\lvgl\version_6.1.2\lvgl\src\lv_font/lv_font_fmt_txt.c ****             lv_uintptr_t g_id_both = (uint32_t)((uint32_t)gid_right << 8) + gid_left; /*Create one 
 2170              		.loc 1 242 0
 2171 010c D7F80080 		ldr	r8, [r7]
 2172              	.LVL245:
 244:..\..\..\lvgl\version_6.1.2\lvgl\src\lv_font/lv_font_fmt_txt.c **** 
 2173              		.loc 1 244 0
 2174 0110 BA68     		ldr	r2, [r7, #8]
 243:..\..\..\lvgl\version_6.1.2\lvgl\src\lv_font/lv_font_fmt_txt.c ****             uint8_t * kid_p = lv_utils_bsearch(&g_id_both, g_ids, kdsc->pair_cnt, 4, kern_pair_16_c
 2175              		.loc 1 243 0
 2176 0112 43F8040D 		str	r0, [r3, #-4]!
 244:..\..\..\lvgl\version_6.1.2\lvgl\src\lv_font/lv_font_fmt_txt.c **** 
 2177              		.loc 1 244 0
 2178 0116 3A49     		ldr	r1, .L246
 2179 0118 0091     		str	r1, [sp]
 2180              	.LVL246:
 2181 011a 1846     		mov	r0, r3
 2182 011c 4146     		mov	r1, r8
 2183 011e 22F07F42 		bic	r2, r2, #-16777216
 2184 0122 0423     		movs	r3, #4
 2185 0124 FFF7FEFF 		bl	lv_utils_bsearch
 2186              	.LVL247:
 247:..\..\..\lvgl\version_6.1.2\lvgl\src\lv_font/lv_font_fmt_txt.c ****                 lv_uintptr_t ofs = (lv_uintptr_t) (kid_p - (const uint8_t *)g_ids);
 2187              		.loc 1 247 0
 2188 0128 0028     		cmp	r0, #0
 2189 012a B8D0     		beq	.L205
 2190              	.LBB303:
 248:..\..\..\lvgl\version_6.1.2\lvgl\src\lv_font/lv_font_fmt_txt.c ****                 ofs = ofs >> 4;     /*ofs is 4 byte pairs, divide by 4 to refer as a single value*/
 2191              		.loc 1 248 0
 2192 012c C8EB0003 		rsb	r3, r8, r0
 2193              	.LVL248:
 250:..\..\..\lvgl\version_6.1.2\lvgl\src\lv_font/lv_font_fmt_txt.c ****             }
 2194              		.loc 1 250 0
ARM GAS  C:\Users\pearlstl\AppData\Local\Temp\ccllHTLf.s 			page 54


 2195 0130 1B09     		lsrs	r3, r3, #4
 2196              	.LVL249:
 2197 0132 7A68     		ldr	r2, [r7, #4]
 2198 0134 D356     		ldrsb	r3, [r2, r3]
 2199              	.LVL250:
 2200 0136 B3E7     		b	.L204
 2201              	.LVL251:
 2202              	.L206:
 2203              	.LBE303:
 2204              	.LBE304:
 2205              	.LBE307:
 2206              	.LBB308:
 258:..\..\..\lvgl\version_6.1.2\lvgl\src\lv_font/lv_font_fmt_txt.c ****         uint8_t left_class = kdsc->left_class_mapping[gid_left];
 2207              		.loc 1 258 0
 2208 0138 DA68     		ldr	r2, [r3, #12]
 2209              	.LVL252:
 259:..\..\..\lvgl\version_6.1.2\lvgl\src\lv_font/lv_font_fmt_txt.c ****         uint8_t right_class = kdsc->right_class_mapping[gid_right];
 2210              		.loc 1 259 0
 2211 013a 5368     		ldr	r3, [r2, #4]
 2212              	.LVL253:
 2213 013c 9B5D     		ldrb	r3, [r3, r6]	@ zero_extendqisi2
 2214              	.LVL254:
 264:..\..\..\lvgl\version_6.1.2\lvgl\src\lv_font/lv_font_fmt_txt.c ****             value = kdsc->class_pair_values[(left_class-1)* kdsc->right_class_cnt + (right_class-1)
 2215              		.loc 1 264 0
 2216 013e 002B     		cmp	r3, #0
 2217 0140 ADD0     		beq	.L205
 260:..\..\..\lvgl\version_6.1.2\lvgl\src\lv_font/lv_font_fmt_txt.c **** 
 2218              		.loc 1 260 0
 2219 0142 9168     		ldr	r1, [r2, #8]
 2220 0144 095C     		ldrb	r1, [r1, r0]	@ zero_extendqisi2
 264:..\..\..\lvgl\version_6.1.2\lvgl\src\lv_font/lv_font_fmt_txt.c ****             value = kdsc->class_pair_values[(left_class-1)* kdsc->right_class_cnt + (right_class-1)
 2221              		.loc 1 264 0
 2222 0146 0029     		cmp	r1, #0
 2223 0148 A9D0     		beq	.L205
 2224              	.LVL255:
 265:..\..\..\lvgl\version_6.1.2\lvgl\src\lv_font/lv_font_fmt_txt.c ****         }
 2225              		.loc 1 265 0
 2226 014a 1768     		ldr	r7, [r2]
 2227              	.LVL256:
 2228 014c 507B     		ldrb	r0, [r2, #13]	@ zero_extendqisi2
 2229              	.LVL257:
 2230 014e 3944     		add	r1, r1, r7
 2231              	.LVL258:
 2232 0150 5A1E     		subs	r2, r3, #1
 2233              	.LVL259:
 2234 0152 00FB0213 		mla	r3, r0, r2, r1
 2235              	.LVL260:
 2236 0156 13F9013C 		ldrsb	r3, [r3, #-1]
 2237 015a A1E7     		b	.L204
 2238              	.LVL261:
 2239              	.L189:
 2240              	.LBE308:
 2241              	.LBE310:
 2242              	.LBE313:
 2243              	.LBE315:
 2244              	.LBB316:
 2245              	.LBB290:
ARM GAS  C:\Users\pearlstl\AppData\Local\Temp\ccllHTLf.s 			page 55


 2246              	.LBB285:
 2247              	.LBB281:
 169:..\..\..\lvgl\version_6.1.2\lvgl\src\lv_font/lv_font_fmt_txt.c **** 
 2248              		.loc 1 169 0
 2249 015c AE69     		ldr	r6, [r5, #24]
 2250 015e 96E7     		b	.L192
 2251              	.LVL262:
 2252              	.L241:
 2253              	.LBB278:
 2254              	.LBB270:
 183:..\..\..\lvgl\version_6.1.2\lvgl\src\lv_font/lv_font_fmt_txt.c ****         }
 2255              		.loc 1 183 0
 2256 0160 C168     		ldr	r1, [r0, #12]
 2257 0162 C388     		ldrh	r3, [r0, #6]
 2258 0164 895C     		ldrb	r1, [r1, r2]	@ zero_extendqisi2
 2259 0166 1944     		add	r1, r1, r3
 2260              	.LVL263:
 2261 0168 8EE7     		b	.L197
 2262              	.LVL264:
 2263              	.L245:
 2264              	.LBE270:
 2265              	.LBE278:
 2266              	.LBE281:
 2267              	.LBE285:
 2268              	.LBE290:
 2269              	.LBE316:
 2270              	.LBB317:
 2271              	.LBB314:
 2272              	.LBB311:
 2273              	.LBB309:
 2274              	.LBB305:
 230:..\..\..\lvgl\version_6.1.2\lvgl\src\lv_font/lv_font_fmt_txt.c ****             uint8_t * kid_p = lv_utils_bsearch(&g_id_both, g_ids, kdsc->pair_cnt, 2, kern_pair_8_co
 2275              		.loc 1 230 0
 2276 016a 04AB     		add	r3, sp, #16
 2277 016c 06EB0020 		add	r0, r6, r0, lsl #8
 2278              	.LVL265:
 229:..\..\..\lvgl\version_6.1.2\lvgl\src\lv_font/lv_font_fmt_txt.c ****             uint16_t g_id_both = (gid_right << 8) + gid_left; /*Create one number from the ids*/
 2279              		.loc 1 229 0
 2280 0170 D7F80080 		ldr	r8, [r7]
 2281              	.LVL266:
 231:..\..\..\lvgl\version_6.1.2\lvgl\src\lv_font/lv_font_fmt_txt.c **** 
 2282              		.loc 1 231 0
 2283 0174 BA68     		ldr	r2, [r7, #8]
 230:..\..\..\lvgl\version_6.1.2\lvgl\src\lv_font/lv_font_fmt_txt.c ****             uint8_t * kid_p = lv_utils_bsearch(&g_id_both, g_ids, kdsc->pair_cnt, 2, kern_pair_8_co
 2284              		.loc 1 230 0
 2285 0176 23F8040D 		strh	r0, [r3, #-4]!	@ movhi
 231:..\..\..\lvgl\version_6.1.2\lvgl\src\lv_font/lv_font_fmt_txt.c **** 
 2286              		.loc 1 231 0
 2287 017a 2249     		ldr	r1, .L246+4
 2288 017c 0091     		str	r1, [sp]
 2289              	.LVL267:
 2290 017e 1846     		mov	r0, r3
 2291 0180 4146     		mov	r1, r8
 2292 0182 22F07F42 		bic	r2, r2, #-16777216
 2293 0186 0223     		movs	r3, #2
 2294 0188 FFF7FEFF 		bl	lv_utils_bsearch
 2295              	.LVL268:
ARM GAS  C:\Users\pearlstl\AppData\Local\Temp\ccllHTLf.s 			page 56


 234:..\..\..\lvgl\version_6.1.2\lvgl\src\lv_font/lv_font_fmt_txt.c ****                 lv_uintptr_t ofs = (lv_uintptr_t)(kid_p - g_ids);
 2296              		.loc 1 234 0
 2297 018c 0028     		cmp	r0, #0
 2298 018e 86D0     		beq	.L205
 2299              	.LBB306:
 235:..\..\..\lvgl\version_6.1.2\lvgl\src\lv_font/lv_font_fmt_txt.c ****                 ofs = ofs >> 1;     /*ofs is for pair, divide by 2 to refer as a single value*/
 2300              		.loc 1 235 0
 2301 0190 C8EB0003 		rsb	r3, r8, r0
 2302              	.LVL269:
 237:..\..\..\lvgl\version_6.1.2\lvgl\src\lv_font/lv_font_fmt_txt.c ****             }
 2303              		.loc 1 237 0
 2304 0194 5B08     		lsrs	r3, r3, #1
 2305              	.LVL270:
 2306 0196 7A68     		ldr	r2, [r7, #4]
 2307 0198 D356     		ldrsb	r3, [r2, r3]
 2308              	.LVL271:
 2309 019a 81E7     		b	.L204
 2310              	.LVL272:
 2311              	.L191:
 2312              	.LBE306:
 2313              	.LBE305:
 2314              	.LBE309:
 2315              	.LBE311:
 2316              	.LBE314:
 2317              	.LBE317:
 2318              	.LBB318:
 2319              	.LBB291:
 2320              	.LBB286:
 2321              	.LBB282:
 212:..\..\..\lvgl\version_6.1.2\lvgl\src\lv_font/lv_font_fmt_txt.c ****     return 0;
 2322              		.loc 1 212 0
 2323 019c 0023     		movs	r3, #0
 211:..\..\..\lvgl\version_6.1.2\lvgl\src\lv_font/lv_font_fmt_txt.c ****     fdsc->last_glyph_id = 0;
 2324              		.loc 1 211 0
 2325 019e 6F61     		str	r7, [r5, #20]
 2326              	.LVL273:
 212:..\..\..\lvgl\version_6.1.2\lvgl\src\lv_font/lv_font_fmt_txt.c ****     return 0;
 2327              		.loc 1 212 0
 2328 01a0 AB61     		str	r3, [r5, #24]
 2329              	.LVL274:
 2330              	.L188:
 2331              	.LBE282:
 2332              	.LBE286:
 2333              	.LBE291:
 2334              	.LBE318:
 130:..\..\..\lvgl\version_6.1.2\lvgl\src\lv_font/lv_font_fmt_txt.c **** 
 2335              		.loc 1 130 0
 2336 01a2 0020     		movs	r0, #0
 2337 01a4 99E7     		b	.L235
 2338              	.LVL275:
 2339              	.L243:
 2340              	.LBB319:
 2341              	.LBB292:
 2342              	.LBB287:
 2343              	.LBB283:
 2344              	.LBB279:
 2345              	.LBB271:
ARM GAS  C:\Users\pearlstl\AppData\Local\Temp\ccllHTLf.s 			page 57


 195:..\..\..\lvgl\version_6.1.2\lvgl\src\lv_font/lv_font_fmt_txt.c **** 
 2346              		.loc 1 195 0
 2347 01a6 184B     		ldr	r3, .L246+8
 2348 01a8 028A     		ldrh	r2, [r0, #16]
 2349 01aa 8168     		ldr	r1, [r0, #8]
 2350 01ac 0093     		str	r3, [sp]
 2351              	.LVL276:
 2352 01ae 03A8     		add	r0, sp, #12
 2353 01b0 0223     		movs	r3, #2
 2354 01b2 FFF7FEFF 		bl	lv_utils_bsearch
 2355              	.LVL277:
 197:..\..\..\lvgl\version_6.1.2\lvgl\src\lv_font/lv_font_fmt_txt.c ****                 lv_uintptr_t ofs = (lv_uintptr_t)(p - (uint8_t*) fdsc->cmaps[i].unicode_list);
 2356              		.loc 1 197 0
 2357 01b6 0028     		cmp	r0, #0
 2358 01b8 3FF45DAF 		beq	.L201
 2359              	.LBB272:
 198:..\..\..\lvgl\version_6.1.2\lvgl\src\lv_font/lv_font_fmt_txt.c ****                 ofs = ofs >> 1;     /*The list stores `uint16_t` so the get the index divide by 2*/
 2360              		.loc 1 198 0
 2361 01bc AB68     		ldr	r3, [r5, #8]
 2362 01be 9A44     		add	r10, r10, r3
 2363 01c0 DAF80820 		ldr	r2, [r10, #8]
 201:..\..\..\lvgl\version_6.1.2\lvgl\src\lv_font/lv_font_fmt_txt.c ****             }
 2364              		.loc 1 201 0
 2365 01c4 DAF80C10 		ldr	r1, [r10, #12]
 2366 01c8 BAF80630 		ldrh	r3, [r10, #6]
 198:..\..\..\lvgl\version_6.1.2\lvgl\src\lv_font/lv_font_fmt_txt.c ****                 ofs = ofs >> 1;     /*The list stores `uint16_t` so the get the index divide by 2*/
 2367              		.loc 1 198 0
 2368 01cc 821A     		subs	r2, r0, r2
 2369              	.LVL278:
 201:..\..\..\lvgl\version_6.1.2\lvgl\src\lv_font/lv_font_fmt_txt.c ****             }
 2370              		.loc 1 201 0
 2371 01ce 5208     		lsrs	r2, r2, #1
 2372              	.LVL279:
 2373 01d0 8A5C     		ldrb	r2, [r1, r2]	@ zero_extendqisi2
 2374              	.LVL280:
 2375 01d2 D118     		adds	r1, r2, r3
 2376              	.LVL281:
 2377 01d4 58E7     		b	.L197
 2378              	.LVL282:
 2379              	.L242:
 2380              	.LBE272:
 2381              	.LBE271:
 2382              	.LBB273:
 186:..\..\..\lvgl\version_6.1.2\lvgl\src\lv_font/lv_font_fmt_txt.c **** 
 2383              		.loc 1 186 0
 2384 01d6 028A     		ldrh	r2, [r0, #16]
 2385 01d8 8168     		ldr	r1, [r0, #8]
 2386 01da 0B48     		ldr	r0, .L246+8
 2387 01dc 0090     		str	r0, [sp]
 2388              	.LVL283:
 2389 01de 03A8     		add	r0, sp, #12
 2390 01e0 FFF7FEFF 		bl	lv_utils_bsearch
 2391              	.LVL284:
 188:..\..\..\lvgl\version_6.1.2\lvgl\src\lv_font/lv_font_fmt_txt.c ****                 lv_uintptr_t ofs = (lv_uintptr_t)(p - (uint8_t *) fdsc->cmaps[i].unicode_list);
 2392              		.loc 1 188 0
 2393 01e4 0028     		cmp	r0, #0
 2394 01e6 3FF446AF 		beq	.L201
ARM GAS  C:\Users\pearlstl\AppData\Local\Temp\ccllHTLf.s 			page 58


 2395              	.LBB274:
 189:..\..\..\lvgl\version_6.1.2\lvgl\src\lv_font/lv_font_fmt_txt.c ****                 ofs = ofs >> 1;     /*The list stores `uint16_t` so the get the index divide by 2*/
 2396              		.loc 1 189 0
 2397 01ea AB68     		ldr	r3, [r5, #8]
 2398 01ec 9A44     		add	r10, r10, r3
 2399 01ee DAF80820 		ldr	r2, [r10, #8]
 191:..\..\..\lvgl\version_6.1.2\lvgl\src\lv_font/lv_font_fmt_txt.c ****             }
 2400              		.loc 1 191 0
 2401 01f2 BAF80630 		ldrh	r3, [r10, #6]
 189:..\..\..\lvgl\version_6.1.2\lvgl\src\lv_font/lv_font_fmt_txt.c ****                 ofs = ofs >> 1;     /*The list stores `uint16_t` so the get the index divide by 2*/
 2402              		.loc 1 189 0
 2403 01f6 821A     		subs	r2, r0, r2
 2404              	.LVL285:
 191:..\..\..\lvgl\version_6.1.2\lvgl\src\lv_font/lv_font_fmt_txt.c ****             }
 2405              		.loc 1 191 0
 2406 01f8 03EB5201 		add	r1, r3, r2, lsr #1
 2407              	.LVL286:
 2408 01fc 44E7     		b	.L197
 2409              	.L247:
 2410 01fe 00BF     		.align	2
 2411              	.L246:
 2412 0200 00000000 		.word	kern_pair_16_compare
 2413 0204 00000000 		.word	kern_pair_8_compare
 2414 0208 00000000 		.word	unicode_list_compare
 2415              	.LBE274:
 2416              	.LBE273:
 2417              	.LBE279:
 2418              	.LBE283:
 2419              	.LBE287:
 2420              	.LBE292:
 2421              	.LBE319:
 2422              		.cfi_endproc
 2423              	.LFE32:
 2424              		.size	lv_font_get_glyph_dsc_fmt_txt, .-lv_font_get_glyph_dsc_fmt_txt
 2425              		.bss
 2426              		.align	2
 2427              		.set	.LANCHOR0,. + 0
 2428              		.type	buf.6209, %object
 2429              		.size	buf.6209, 4
 2430              	buf.6209:
 2431 0000 00000000 		.space	4
 2432              		.type	rle_in, %object
 2433              		.size	rle_in, 4
 2434              	rle_in:
 2435 0004 00000000 		.space	4
 2436              		.type	rle_bpp, %object
 2437              		.size	rle_bpp, 1
 2438              	rle_bpp:
 2439 0008 00       		.space	1
 2440              		.type	rle_state, %object
 2441              		.size	rle_state, 1
 2442              	rle_state:
 2443 0009 00       		.space	1
 2444 000a 0000     		.space	2
 2445              		.type	rle_rdp, %object
 2446              		.size	rle_rdp, 4
 2447              	rle_rdp:
ARM GAS  C:\Users\pearlstl\AppData\Local\Temp\ccllHTLf.s 			page 59


 2448 000c 00000000 		.space	4
 2449              		.type	rle_prev_v, %object
 2450              		.size	rle_prev_v, 1
 2451              	rle_prev_v:
 2452 0010 00       		.space	1
 2453              		.type	rle_cnt, %object
 2454              		.size	rle_cnt, 1
 2455              	rle_cnt:
 2456 0011 00       		.space	1
 2457              		.text
 2458              	.Letext0:
 2459              		.file 2 "c:\\program files (x86)\\cypress\\psoc creator\\4.2\\psoc creator\\import\\gnu\\arm\\5.4.
 2460              		.file 3 "c:\\program files (x86)\\cypress\\psoc creator\\4.2\\psoc creator\\import\\gnu\\arm\\5.4.
 2461              		.file 4 "..\\..\\..\\lvgl\\version_6.1.2\\lvgl\\src\\lv_font\\../../../lv_conf.h"
 2462              		.file 5 "..\\..\\..\\lvgl\\version_6.1.2\\lvgl\\src\\lv_font\\lv_font.h"
 2463              		.file 6 "..\\..\\..\\lvgl\\version_6.1.2\\lvgl\\src\\lv_font\\lv_font_fmt_txt.h"
 2464              		.file 7 "..\\..\\..\\lvgl\\version_6.1.2\\lvgl\\src\\lv_font\\../lv_core/../lv_misc/lv_types.h"
 2465              		.file 8 "..\\..\\..\\lvgl\\version_6.1.2\\lvgl\\src\\lv_font\\../lv_misc/lv_utils.h"
 2466              		.file 9 "..\\..\\..\\lvgl\\version_6.1.2\\lvgl\\src\\lv_font\\../lv_draw/lv_draw.h"
 2467              		.file 10 "..\\..\\..\\lvgl\\version_6.1.2\\lvgl\\src\\lv_font\\../lv_core/../lv_misc/lv_mem.h"