ARM GAS  C:\Users\pearlstl\AppData\Local\Temp\ccllHTLf.s 			page 1


   1              		.syntax unified
   2              		.cpu cortex-m4
   3              		.eabi_attribute 27, 1
   4              		.fpu fpv4-sp-d16
   5              		.eabi_attribute 20, 1
   6              		.eabi_attribute 21, 1
   7              		.eabi_attribute 23, 3
   8              		.eabi_attribute 24, 1
   9              		.eabi_attribute 25, 1
  10              		.eabi_attribute 26, 1
  11              		.eabi_attribute 30, 2
  12              		.eabi_attribute 34, 1
  13              		.eabi_attribute 18, 4
  14              		.thumb
  15              		.syntax unified
  16              		.file	"lv_font_fmt_txt.c"
  17              		.text
  18              	.Ltext0:
  19              		.cfi_sections	.debug_frame
  20              		.section	.text.kern_pair_8_compare,"ax",%progbits
  21              		.align	2
  22              		.thumb
  23              		.thumb_func
  24              		.type	kern_pair_8_compare, %function
  25              	kern_pair_8_compare:
  26              	.LFB35:
  27              		.file 1 "..\\..\\..\\lvgl\\version_6.1.2\\lvgl\\src\\lv_font\\lv_font_fmt_txt.c"
   1:..\..\..\lvgl\version_6.1.2\lvgl\src\lv_font/lv_font_fmt_txt.c **** /**
   2:..\..\..\lvgl\version_6.1.2\lvgl\src\lv_font/lv_font_fmt_txt.c ****  * @file lv_font.c
   3:..\..\..\lvgl\version_6.1.2\lvgl\src\lv_font/lv_font_fmt_txt.c ****  *
   4:..\..\..\lvgl\version_6.1.2\lvgl\src\lv_font/lv_font_fmt_txt.c ****  */
   5:..\..\..\lvgl\version_6.1.2\lvgl\src\lv_font/lv_font_fmt_txt.c **** 
   6:..\..\..\lvgl\version_6.1.2\lvgl\src\lv_font/lv_font_fmt_txt.c **** /*********************
   7:..\..\..\lvgl\version_6.1.2\lvgl\src\lv_font/lv_font_fmt_txt.c ****  *      INCLUDES
   8:..\..\..\lvgl\version_6.1.2\lvgl\src\lv_font/lv_font_fmt_txt.c ****  *********************/
   9:..\..\..\lvgl\version_6.1.2\lvgl\src\lv_font/lv_font_fmt_txt.c **** #include "lv_font.h"
  10:..\..\..\lvgl\version_6.1.2\lvgl\src\lv_font/lv_font_fmt_txt.c **** #include "lv_font_fmt_txt.h"
  11:..\..\..\lvgl\version_6.1.2\lvgl\src\lv_font/lv_font_fmt_txt.c **** #include "../lv_core/lv_debug.h"
  12:..\..\..\lvgl\version_6.1.2\lvgl\src\lv_font/lv_font_fmt_txt.c **** #include "../lv_draw/lv_draw.h"
  13:..\..\..\lvgl\version_6.1.2\lvgl\src\lv_font/lv_font_fmt_txt.c **** #include "../lv_misc/lv_types.h"
  14:..\..\..\lvgl\version_6.1.2\lvgl\src\lv_font/lv_font_fmt_txt.c **** #include "../lv_misc/lv_log.h"
  15:..\..\..\lvgl\version_6.1.2\lvgl\src\lv_font/lv_font_fmt_txt.c **** #include "../lv_misc/lv_utils.h"
  16:..\..\..\lvgl\version_6.1.2\lvgl\src\lv_font/lv_font_fmt_txt.c **** #include "../lv_misc/lv_mem.h"
  17:..\..\..\lvgl\version_6.1.2\lvgl\src\lv_font/lv_font_fmt_txt.c **** 
  18:..\..\..\lvgl\version_6.1.2\lvgl\src\lv_font/lv_font_fmt_txt.c **** /*********************
  19:..\..\..\lvgl\version_6.1.2\lvgl\src\lv_font/lv_font_fmt_txt.c ****  *      DEFINES
  20:..\..\..\lvgl\version_6.1.2\lvgl\src\lv_font/lv_font_fmt_txt.c ****  *********************/
  21:..\..\..\lvgl\version_6.1.2\lvgl\src\lv_font/lv_font_fmt_txt.c **** 
  22:..\..\..\lvgl\version_6.1.2\lvgl\src\lv_font/lv_font_fmt_txt.c **** /**********************
  23:..\..\..\lvgl\version_6.1.2\lvgl\src\lv_font/lv_font_fmt_txt.c ****  *      TYPEDEFS
  24:..\..\..\lvgl\version_6.1.2\lvgl\src\lv_font/lv_font_fmt_txt.c ****  **********************/
  25:..\..\..\lvgl\version_6.1.2\lvgl\src\lv_font/lv_font_fmt_txt.c **** typedef enum {
  26:..\..\..\lvgl\version_6.1.2\lvgl\src\lv_font/lv_font_fmt_txt.c ****     RLE_STATE_SINGLE = 0,
  27:..\..\..\lvgl\version_6.1.2\lvgl\src\lv_font/lv_font_fmt_txt.c ****     RLE_STATE_REPEATE,
  28:..\..\..\lvgl\version_6.1.2\lvgl\src\lv_font/lv_font_fmt_txt.c ****     RLE_STATE_COUNTER,
  29:..\..\..\lvgl\version_6.1.2\lvgl\src\lv_font/lv_font_fmt_txt.c **** }rle_state_t;
  30:..\..\..\lvgl\version_6.1.2\lvgl\src\lv_font/lv_font_fmt_txt.c **** 
ARM GAS  C:\Users\pearlstl\AppData\Local\Temp\ccllHTLf.s 			page 2


  31:..\..\..\lvgl\version_6.1.2\lvgl\src\lv_font/lv_font_fmt_txt.c **** /**********************
  32:..\..\..\lvgl\version_6.1.2\lvgl\src\lv_font/lv_font_fmt_txt.c ****  *  STATIC PROTOTYPES
  33:..\..\..\lvgl\version_6.1.2\lvgl\src\lv_font/lv_font_fmt_txt.c ****  **********************/
  34:..\..\..\lvgl\version_6.1.2\lvgl\src\lv_font/lv_font_fmt_txt.c **** static uint32_t get_glyph_dsc_id(const lv_font_t * font, uint32_t letter);
  35:..\..\..\lvgl\version_6.1.2\lvgl\src\lv_font/lv_font_fmt_txt.c **** static int8_t get_kern_value(const lv_font_t * font, uint32_t gid_left, uint32_t gid_right);
  36:..\..\..\lvgl\version_6.1.2\lvgl\src\lv_font/lv_font_fmt_txt.c **** static int32_t unicode_list_compare(const void * ref, const void * element);
  37:..\..\..\lvgl\version_6.1.2\lvgl\src\lv_font/lv_font_fmt_txt.c **** static int32_t kern_pair_8_compare(const void * ref, const void * element);
  38:..\..\..\lvgl\version_6.1.2\lvgl\src\lv_font/lv_font_fmt_txt.c **** static int32_t kern_pair_16_compare(const void * ref, const void * element);
  39:..\..\..\lvgl\version_6.1.2\lvgl\src\lv_font/lv_font_fmt_txt.c **** 
  40:..\..\..\lvgl\version_6.1.2\lvgl\src\lv_font/lv_font_fmt_txt.c **** static void decompress(const uint8_t * in, uint8_t * out, lv_coord_t w, lv_coord_t h, uint8_t bpp);
  41:..\..\..\lvgl\version_6.1.2\lvgl\src\lv_font/lv_font_fmt_txt.c **** static void decompress_line(uint8_t * out, lv_coord_t w);
  42:..\..\..\lvgl\version_6.1.2\lvgl\src\lv_font/lv_font_fmt_txt.c **** static uint8_t get_bits(const uint8_t * in, uint32_t bit_pos, uint8_t len);
  43:..\..\..\lvgl\version_6.1.2\lvgl\src\lv_font/lv_font_fmt_txt.c **** static void bits_write(uint8_t * out, uint32_t bit_pos, uint8_t val, uint8_t len);
  44:..\..\..\lvgl\version_6.1.2\lvgl\src\lv_font/lv_font_fmt_txt.c **** static void rle_init(const uint8_t * in,  uint8_t bpp);
  45:..\..\..\lvgl\version_6.1.2\lvgl\src\lv_font/lv_font_fmt_txt.c **** static uint8_t rle_next(void);
  46:..\..\..\lvgl\version_6.1.2\lvgl\src\lv_font/lv_font_fmt_txt.c **** 
  47:..\..\..\lvgl\version_6.1.2\lvgl\src\lv_font/lv_font_fmt_txt.c **** 
  48:..\..\..\lvgl\version_6.1.2\lvgl\src\lv_font/lv_font_fmt_txt.c **** /**********************
  49:..\..\..\lvgl\version_6.1.2\lvgl\src\lv_font/lv_font_fmt_txt.c ****  *  STATIC VARIABLES
  50:..\..\..\lvgl\version_6.1.2\lvgl\src\lv_font/lv_font_fmt_txt.c ****  **********************/
  51:..\..\..\lvgl\version_6.1.2\lvgl\src\lv_font/lv_font_fmt_txt.c **** 
  52:..\..\..\lvgl\version_6.1.2\lvgl\src\lv_font/lv_font_fmt_txt.c **** static uint32_t rle_rdp;
  53:..\..\..\lvgl\version_6.1.2\lvgl\src\lv_font/lv_font_fmt_txt.c **** static const uint8_t * rle_in;
  54:..\..\..\lvgl\version_6.1.2\lvgl\src\lv_font/lv_font_fmt_txt.c **** static uint8_t rle_bpp;
  55:..\..\..\lvgl\version_6.1.2\lvgl\src\lv_font/lv_font_fmt_txt.c **** static uint8_t rle_prev_v;
  56:..\..\..\lvgl\version_6.1.2\lvgl\src\lv_font/lv_font_fmt_txt.c **** static uint8_t rle_cnt;
  57:..\..\..\lvgl\version_6.1.2\lvgl\src\lv_font/lv_font_fmt_txt.c **** static rle_state_t rle_state;
  58:..\..\..\lvgl\version_6.1.2\lvgl\src\lv_font/lv_font_fmt_txt.c **** 
  59:..\..\..\lvgl\version_6.1.2\lvgl\src\lv_font/lv_font_fmt_txt.c **** /**********************
  60:..\..\..\lvgl\version_6.1.2\lvgl\src\lv_font/lv_font_fmt_txt.c ****  * GLOBAL PROTOTYPES
  61:..\..\..\lvgl\version_6.1.2\lvgl\src\lv_font/lv_font_fmt_txt.c ****  **********************/
  62:..\..\..\lvgl\version_6.1.2\lvgl\src\lv_font/lv_font_fmt_txt.c **** 
  63:..\..\..\lvgl\version_6.1.2\lvgl\src\lv_font/lv_font_fmt_txt.c **** /**********************
  64:..\..\..\lvgl\version_6.1.2\lvgl\src\lv_font/lv_font_fmt_txt.c ****  *      MACROS
  65:..\..\..\lvgl\version_6.1.2\lvgl\src\lv_font/lv_font_fmt_txt.c ****  **********************/
  66:..\..\..\lvgl\version_6.1.2\lvgl\src\lv_font/lv_font_fmt_txt.c **** 
  67:..\..\..\lvgl\version_6.1.2\lvgl\src\lv_font/lv_font_fmt_txt.c **** /**********************
  68:..\..\..\lvgl\version_6.1.2\lvgl\src\lv_font/lv_font_fmt_txt.c ****  *   GLOBAL FUNCTIONS
  69:..\..\..\lvgl\version_6.1.2\lvgl\src\lv_font/lv_font_fmt_txt.c ****  **********************/
  70:..\..\..\lvgl\version_6.1.2\lvgl\src\lv_font/lv_font_fmt_txt.c **** 
  71:..\..\..\lvgl\version_6.1.2\lvgl\src\lv_font/lv_font_fmt_txt.c **** /**
  72:..\..\..\lvgl\version_6.1.2\lvgl\src\lv_font/lv_font_fmt_txt.c ****  * Used as `get_glyph_bitmap` callback in LittelvGL's native font format if the font is uncompresse
  73:..\..\..\lvgl\version_6.1.2\lvgl\src\lv_font/lv_font_fmt_txt.c ****  * @param font pointer to font
  74:..\..\..\lvgl\version_6.1.2\lvgl\src\lv_font/lv_font_fmt_txt.c ****  * @param unicode_letter an unicode letter which bitmap should be get
  75:..\..\..\lvgl\version_6.1.2\lvgl\src\lv_font/lv_font_fmt_txt.c ****  * @return pointer to the bitmap or NULL if not found
  76:..\..\..\lvgl\version_6.1.2\lvgl\src\lv_font/lv_font_fmt_txt.c ****  */
  77:..\..\..\lvgl\version_6.1.2\lvgl\src\lv_font/lv_font_fmt_txt.c **** const uint8_t * lv_font_get_bitmap_fmt_txt(const lv_font_t * font, uint32_t unicode_letter)
  78:..\..\..\lvgl\version_6.1.2\lvgl\src\lv_font/lv_font_fmt_txt.c **** {
  79:..\..\..\lvgl\version_6.1.2\lvgl\src\lv_font/lv_font_fmt_txt.c ****     lv_font_fmt_txt_dsc_t * fdsc = (lv_font_fmt_txt_dsc_t *) font->dsc;
  80:..\..\..\lvgl\version_6.1.2\lvgl\src\lv_font/lv_font_fmt_txt.c ****     uint32_t gid = get_glyph_dsc_id(font, unicode_letter);
  81:..\..\..\lvgl\version_6.1.2\lvgl\src\lv_font/lv_font_fmt_txt.c ****     if(!gid) return NULL;
  82:..\..\..\lvgl\version_6.1.2\lvgl\src\lv_font/lv_font_fmt_txt.c **** 
  83:..\..\..\lvgl\version_6.1.2\lvgl\src\lv_font/lv_font_fmt_txt.c ****     const lv_font_fmt_txt_glyph_dsc_t * gdsc = &fdsc->glyph_dsc[gid];
  84:..\..\..\lvgl\version_6.1.2\lvgl\src\lv_font/lv_font_fmt_txt.c **** 
  85:..\..\..\lvgl\version_6.1.2\lvgl\src\lv_font/lv_font_fmt_txt.c ****     if(fdsc->bitmap_format == LV_FONT_FMT_TXT_PLAIN) {
  86:..\..\..\lvgl\version_6.1.2\lvgl\src\lv_font/lv_font_fmt_txt.c ****         if(gdsc) return &fdsc->glyph_bitmap[gdsc->bitmap_index];
  87:..\..\..\lvgl\version_6.1.2\lvgl\src\lv_font/lv_font_fmt_txt.c ****     }
ARM GAS  C:\Users\pearlstl\AppData\Local\Temp\ccllHTLf.s 			page 3


  88:..\..\..\lvgl\version_6.1.2\lvgl\src\lv_font/lv_font_fmt_txt.c ****     /*Handle compressed bitmap*/
  89:..\..\..\lvgl\version_6.1.2\lvgl\src\lv_font/lv_font_fmt_txt.c ****     else
  90:..\..\..\lvgl\version_6.1.2\lvgl\src\lv_font/lv_font_fmt_txt.c ****     {
  91:..\..\..\lvgl\version_6.1.2\lvgl\src\lv_font/lv_font_fmt_txt.c ****         static uint8_t * buf = NULL;
  92:..\..\..\lvgl\version_6.1.2\lvgl\src\lv_font/lv_font_fmt_txt.c **** 
  93:..\..\..\lvgl\version_6.1.2\lvgl\src\lv_font/lv_font_fmt_txt.c ****         uint32_t gsize = gdsc->box_w * gdsc->box_h;
  94:..\..\..\lvgl\version_6.1.2\lvgl\src\lv_font/lv_font_fmt_txt.c ****         if(gsize == 0) return NULL;
  95:..\..\..\lvgl\version_6.1.2\lvgl\src\lv_font/lv_font_fmt_txt.c **** 
  96:..\..\..\lvgl\version_6.1.2\lvgl\src\lv_font/lv_font_fmt_txt.c ****         uint32_t buf_size = gsize;
  97:..\..\..\lvgl\version_6.1.2\lvgl\src\lv_font/lv_font_fmt_txt.c ****         switch(fdsc->bpp) {
  98:..\..\..\lvgl\version_6.1.2\lvgl\src\lv_font/lv_font_fmt_txt.c ****         case 1: buf_size = gsize >> 3;  break;
  99:..\..\..\lvgl\version_6.1.2\lvgl\src\lv_font/lv_font_fmt_txt.c ****         case 2: buf_size = gsize >> 2;  break;
 100:..\..\..\lvgl\version_6.1.2\lvgl\src\lv_font/lv_font_fmt_txt.c ****         case 3: buf_size = gsize >> 1;  break;
 101:..\..\..\lvgl\version_6.1.2\lvgl\src\lv_font/lv_font_fmt_txt.c ****         case 4: buf_size = gsize >> 1;  break;
 102:..\..\..\lvgl\version_6.1.2\lvgl\src\lv_font/lv_font_fmt_txt.c ****         }
 103:..\..\..\lvgl\version_6.1.2\lvgl\src\lv_font/lv_font_fmt_txt.c **** 
 104:..\..\..\lvgl\version_6.1.2\lvgl\src\lv_font/lv_font_fmt_txt.c ****         if(lv_mem_get_size(buf) < buf_size) {
 105:..\..\..\lvgl\version_6.1.2\lvgl\src\lv_font/lv_font_fmt_txt.c ****             buf = lv_mem_realloc(buf, buf_size);
 106:..\..\..\lvgl\version_6.1.2\lvgl\src\lv_font/lv_font_fmt_txt.c ****             LV_ASSERT_MEM(buf);
 107:..\..\..\lvgl\version_6.1.2\lvgl\src\lv_font/lv_font_fmt_txt.c ****             if(buf == NULL) return NULL;
 108:..\..\..\lvgl\version_6.1.2\lvgl\src\lv_font/lv_font_fmt_txt.c ****         }
 109:..\..\..\lvgl\version_6.1.2\lvgl\src\lv_font/lv_font_fmt_txt.c **** 
 110:..\..\..\lvgl\version_6.1.2\lvgl\src\lv_font/lv_font_fmt_txt.c ****         decompress(&fdsc->glyph_bitmap[gdsc->bitmap_index], buf, gdsc->box_w , gdsc->box_h, (uint8_
 111:..\..\..\lvgl\version_6.1.2\lvgl\src\lv_font/lv_font_fmt_txt.c ****         return buf;
 112:..\..\..\lvgl\version_6.1.2\lvgl\src\lv_font/lv_font_fmt_txt.c ****     }
 113:..\..\..\lvgl\version_6.1.2\lvgl\src\lv_font/lv_font_fmt_txt.c **** 
 114:..\..\..\lvgl\version_6.1.2\lvgl\src\lv_font/lv_font_fmt_txt.c ****     /*If not returned earlier then the letter is not found in this font*/
 115:..\..\..\lvgl\version_6.1.2\lvgl\src\lv_font/lv_font_fmt_txt.c ****     return NULL;
 116:..\..\..\lvgl\version_6.1.2\lvgl\src\lv_font/lv_font_fmt_txt.c **** }
 117:..\..\..\lvgl\version_6.1.2\lvgl\src\lv_font/lv_font_fmt_txt.c **** 
 118:..\..\..\lvgl\version_6.1.2\lvgl\src\lv_font/lv_font_fmt_txt.c **** /**
 119:..\..\..\lvgl\version_6.1.2\lvgl\src\lv_font/lv_font_fmt_txt.c ****  * Used as `get_glyph_dsc` callback in LittelvGL's native font format if the font is uncompressed.
 120:..\..\..\lvgl\version_6.1.2\lvgl\src\lv_font/lv_font_fmt_txt.c ****  * @param font_p pointer to font
 121:..\..\..\lvgl\version_6.1.2\lvgl\src\lv_font/lv_font_fmt_txt.c ****  * @param dsc_out store the result descriptor here
 122:..\..\..\lvgl\version_6.1.2\lvgl\src\lv_font/lv_font_fmt_txt.c ****  * @param letter an UNICODE letter code
 123:..\..\..\lvgl\version_6.1.2\lvgl\src\lv_font/lv_font_fmt_txt.c ****  * @return true: descriptor is successfully loaded into `dsc_out`.
 124:..\..\..\lvgl\version_6.1.2\lvgl\src\lv_font/lv_font_fmt_txt.c ****  *         false: the letter was not found, no data is loaded to `dsc_out`
 125:..\..\..\lvgl\version_6.1.2\lvgl\src\lv_font/lv_font_fmt_txt.c ****  */
 126:..\..\..\lvgl\version_6.1.2\lvgl\src\lv_font/lv_font_fmt_txt.c **** bool lv_font_get_glyph_dsc_fmt_txt(const lv_font_t * font, lv_font_glyph_dsc_t * dsc_out, uint32_t 
 127:..\..\..\lvgl\version_6.1.2\lvgl\src\lv_font/lv_font_fmt_txt.c **** {
 128:..\..\..\lvgl\version_6.1.2\lvgl\src\lv_font/lv_font_fmt_txt.c ****     lv_font_fmt_txt_dsc_t * fdsc = (lv_font_fmt_txt_dsc_t *) font->dsc;
 129:..\..\..\lvgl\version_6.1.2\lvgl\src\lv_font/lv_font_fmt_txt.c ****     uint32_t gid = get_glyph_dsc_id(font, unicode_letter);
 130:..\..\..\lvgl\version_6.1.2\lvgl\src\lv_font/lv_font_fmt_txt.c ****     if(!gid) return false;
 131:..\..\..\lvgl\version_6.1.2\lvgl\src\lv_font/lv_font_fmt_txt.c **** 
 132:..\..\..\lvgl\version_6.1.2\lvgl\src\lv_font/lv_font_fmt_txt.c ****     int8_t kvalue = 0;
 133:..\..\..\lvgl\version_6.1.2\lvgl\src\lv_font/lv_font_fmt_txt.c ****     if(fdsc->kern_dsc) {
 134:..\..\..\lvgl\version_6.1.2\lvgl\src\lv_font/lv_font_fmt_txt.c ****         uint32_t gid_next = get_glyph_dsc_id(font, unicode_letter_next);
 135:..\..\..\lvgl\version_6.1.2\lvgl\src\lv_font/lv_font_fmt_txt.c ****         if(gid_next) {
 136:..\..\..\lvgl\version_6.1.2\lvgl\src\lv_font/lv_font_fmt_txt.c ****             kvalue = get_kern_value(font, gid, gid_next);
 137:..\..\..\lvgl\version_6.1.2\lvgl\src\lv_font/lv_font_fmt_txt.c ****         }
 138:..\..\..\lvgl\version_6.1.2\lvgl\src\lv_font/lv_font_fmt_txt.c ****     }
 139:..\..\..\lvgl\version_6.1.2\lvgl\src\lv_font/lv_font_fmt_txt.c **** 
 140:..\..\..\lvgl\version_6.1.2\lvgl\src\lv_font/lv_font_fmt_txt.c ****     /*Put together a glyph dsc*/
 141:..\..\..\lvgl\version_6.1.2\lvgl\src\lv_font/lv_font_fmt_txt.c ****     const lv_font_fmt_txt_glyph_dsc_t * gdsc = &fdsc->glyph_dsc[gid];
 142:..\..\..\lvgl\version_6.1.2\lvgl\src\lv_font/lv_font_fmt_txt.c **** 
 143:..\..\..\lvgl\version_6.1.2\lvgl\src\lv_font/lv_font_fmt_txt.c ****     int32_t kv = ((int32_t)((int32_t)kvalue * fdsc->kern_scale) >> 4);
 144:..\..\..\lvgl\version_6.1.2\lvgl\src\lv_font/lv_font_fmt_txt.c **** 
ARM GAS  C:\Users\pearlstl\AppData\Local\Temp\ccllHTLf.s 			page 4


 145:..\..\..\lvgl\version_6.1.2\lvgl\src\lv_font/lv_font_fmt_txt.c ****     uint32_t adv_w = gdsc->adv_w + kv;
 146:..\..\..\lvgl\version_6.1.2\lvgl\src\lv_font/lv_font_fmt_txt.c ****     adv_w  = (adv_w + (1 << 3)) >> 4;
 147:..\..\..\lvgl\version_6.1.2\lvgl\src\lv_font/lv_font_fmt_txt.c **** 
 148:..\..\..\lvgl\version_6.1.2\lvgl\src\lv_font/lv_font_fmt_txt.c ****     dsc_out->adv_w = adv_w;
 149:..\..\..\lvgl\version_6.1.2\lvgl\src\lv_font/lv_font_fmt_txt.c ****     dsc_out->box_h = gdsc->box_h;
 150:..\..\..\lvgl\version_6.1.2\lvgl\src\lv_font/lv_font_fmt_txt.c ****     dsc_out->box_w = gdsc->box_w;
 151:..\..\..\lvgl\version_6.1.2\lvgl\src\lv_font/lv_font_fmt_txt.c ****     dsc_out->ofs_x = gdsc->ofs_x;
 152:..\..\..\lvgl\version_6.1.2\lvgl\src\lv_font/lv_font_fmt_txt.c ****     dsc_out->ofs_y = gdsc->ofs_y;
 153:..\..\..\lvgl\version_6.1.2\lvgl\src\lv_font/lv_font_fmt_txt.c ****     dsc_out->bpp   = (uint8_t)fdsc->bpp;
 154:..\..\..\lvgl\version_6.1.2\lvgl\src\lv_font/lv_font_fmt_txt.c **** 
 155:..\..\..\lvgl\version_6.1.2\lvgl\src\lv_font/lv_font_fmt_txt.c ****     return true;
 156:..\..\..\lvgl\version_6.1.2\lvgl\src\lv_font/lv_font_fmt_txt.c **** }
 157:..\..\..\lvgl\version_6.1.2\lvgl\src\lv_font/lv_font_fmt_txt.c **** 
 158:..\..\..\lvgl\version_6.1.2\lvgl\src\lv_font/lv_font_fmt_txt.c **** /**********************
 159:..\..\..\lvgl\version_6.1.2\lvgl\src\lv_font/lv_font_fmt_txt.c ****  *   STATIC FUNCTIONS
 160:..\..\..\lvgl\version_6.1.2\lvgl\src\lv_font/lv_font_fmt_txt.c ****  **********************/
 161:..\..\..\lvgl\version_6.1.2\lvgl\src\lv_font/lv_font_fmt_txt.c **** 
 162:..\..\..\lvgl\version_6.1.2\lvgl\src\lv_font/lv_font_fmt_txt.c **** static uint32_t get_glyph_dsc_id(const lv_font_t * font, uint32_t letter)
 163:..\..\..\lvgl\version_6.1.2\lvgl\src\lv_font/lv_font_fmt_txt.c **** {
 164:..\..\..\lvgl\version_6.1.2\lvgl\src\lv_font/lv_font_fmt_txt.c ****     if(letter == '\0') return 0;
 165:..\..\..\lvgl\version_6.1.2\lvgl\src\lv_font/lv_font_fmt_txt.c **** 
 166:..\..\..\lvgl\version_6.1.2\lvgl\src\lv_font/lv_font_fmt_txt.c ****     lv_font_fmt_txt_dsc_t * fdsc = (lv_font_fmt_txt_dsc_t *) font->dsc;
 167:..\..\..\lvgl\version_6.1.2\lvgl\src\lv_font/lv_font_fmt_txt.c **** 
 168:..\..\..\lvgl\version_6.1.2\lvgl\src\lv_font/lv_font_fmt_txt.c ****     /*Check the cache first*/
 169:..\..\..\lvgl\version_6.1.2\lvgl\src\lv_font/lv_font_fmt_txt.c ****     if(letter == fdsc->last_letter) return fdsc->last_glyph_id;
 170:..\..\..\lvgl\version_6.1.2\lvgl\src\lv_font/lv_font_fmt_txt.c **** 
 171:..\..\..\lvgl\version_6.1.2\lvgl\src\lv_font/lv_font_fmt_txt.c ****     uint16_t i;
 172:..\..\..\lvgl\version_6.1.2\lvgl\src\lv_font/lv_font_fmt_txt.c ****     for(i = 0; i < fdsc->cmap_num; i++) {
 173:..\..\..\lvgl\version_6.1.2\lvgl\src\lv_font/lv_font_fmt_txt.c **** 
 174:..\..\..\lvgl\version_6.1.2\lvgl\src\lv_font/lv_font_fmt_txt.c ****         /*Relative code point*/
 175:..\..\..\lvgl\version_6.1.2\lvgl\src\lv_font/lv_font_fmt_txt.c ****         uint32_t rcp = letter - fdsc->cmaps[i].range_start;
 176:..\..\..\lvgl\version_6.1.2\lvgl\src\lv_font/lv_font_fmt_txt.c ****         if(rcp > fdsc->cmaps[i].range_length) continue;
 177:..\..\..\lvgl\version_6.1.2\lvgl\src\lv_font/lv_font_fmt_txt.c ****         uint32_t glyph_id = 0;
 178:..\..\..\lvgl\version_6.1.2\lvgl\src\lv_font/lv_font_fmt_txt.c ****         if(fdsc->cmaps[i].type == LV_FONT_FMT_TXT_CMAP_FORMAT0_TINY) {
 179:..\..\..\lvgl\version_6.1.2\lvgl\src\lv_font/lv_font_fmt_txt.c ****             glyph_id = fdsc->cmaps[i].glyph_id_start + rcp;
 180:..\..\..\lvgl\version_6.1.2\lvgl\src\lv_font/lv_font_fmt_txt.c ****         }
 181:..\..\..\lvgl\version_6.1.2\lvgl\src\lv_font/lv_font_fmt_txt.c ****         else if(fdsc->cmaps[i].type == LV_FONT_FMT_TXT_CMAP_FORMAT0_FULL) {
 182:..\..\..\lvgl\version_6.1.2\lvgl\src\lv_font/lv_font_fmt_txt.c ****             const uint8_t * gid_ofs_8 = fdsc->cmaps[i].glyph_id_ofs_list;
 183:..\..\..\lvgl\version_6.1.2\lvgl\src\lv_font/lv_font_fmt_txt.c ****             glyph_id = fdsc->cmaps[i].glyph_id_start + gid_ofs_8[rcp];
 184:..\..\..\lvgl\version_6.1.2\lvgl\src\lv_font/lv_font_fmt_txt.c ****         }
 185:..\..\..\lvgl\version_6.1.2\lvgl\src\lv_font/lv_font_fmt_txt.c ****         else if(fdsc->cmaps[i].type == LV_FONT_FMT_TXT_CMAP_SPARSE_TINY) {
 186:..\..\..\lvgl\version_6.1.2\lvgl\src\lv_font/lv_font_fmt_txt.c ****             uint8_t * p = lv_utils_bsearch(&rcp, fdsc->cmaps[i].unicode_list, fdsc->cmaps[i].list_l
 187:..\..\..\lvgl\version_6.1.2\lvgl\src\lv_font/lv_font_fmt_txt.c **** 
 188:..\..\..\lvgl\version_6.1.2\lvgl\src\lv_font/lv_font_fmt_txt.c ****             if(p) {
 189:..\..\..\lvgl\version_6.1.2\lvgl\src\lv_font/lv_font_fmt_txt.c ****                 lv_uintptr_t ofs = (lv_uintptr_t)(p - (uint8_t *) fdsc->cmaps[i].unicode_list);
 190:..\..\..\lvgl\version_6.1.2\lvgl\src\lv_font/lv_font_fmt_txt.c ****                 ofs = ofs >> 1;     /*The list stores `uint16_t` so the get the index divide by 2*/
 191:..\..\..\lvgl\version_6.1.2\lvgl\src\lv_font/lv_font_fmt_txt.c ****                 glyph_id = fdsc->cmaps[i].glyph_id_start + ofs;
 192:..\..\..\lvgl\version_6.1.2\lvgl\src\lv_font/lv_font_fmt_txt.c ****             }
 193:..\..\..\lvgl\version_6.1.2\lvgl\src\lv_font/lv_font_fmt_txt.c ****         }
 194:..\..\..\lvgl\version_6.1.2\lvgl\src\lv_font/lv_font_fmt_txt.c ****         else if(fdsc->cmaps[i].type == LV_FONT_FMT_TXT_CMAP_SPARSE_FULL) {
 195:..\..\..\lvgl\version_6.1.2\lvgl\src\lv_font/lv_font_fmt_txt.c ****             uint8_t * p = lv_utils_bsearch(&rcp, fdsc->cmaps[i].unicode_list, fdsc->cmaps[i].list_l
 196:..\..\..\lvgl\version_6.1.2\lvgl\src\lv_font/lv_font_fmt_txt.c **** 
 197:..\..\..\lvgl\version_6.1.2\lvgl\src\lv_font/lv_font_fmt_txt.c ****             if(p) {
 198:..\..\..\lvgl\version_6.1.2\lvgl\src\lv_font/lv_font_fmt_txt.c ****                 lv_uintptr_t ofs = (lv_uintptr_t)(p - (uint8_t*) fdsc->cmaps[i].unicode_list);
 199:..\..\..\lvgl\version_6.1.2\lvgl\src\lv_font/lv_font_fmt_txt.c ****                 ofs = ofs >> 1;     /*The list stores `uint16_t` so the get the index divide by 2*/
 200:..\..\..\lvgl\version_6.1.2\lvgl\src\lv_font/lv_font_fmt_txt.c ****                 const uint8_t * gid_ofs_16 = fdsc->cmaps[i].glyph_id_ofs_list;
 201:..\..\..\lvgl\version_6.1.2\lvgl\src\lv_font/lv_font_fmt_txt.c ****                 glyph_id = fdsc->cmaps[i].glyph_id_start + gid_ofs_16[ofs];
ARM GAS  C:\Users\pearlstl\AppData\Local\Temp\ccllHTLf.s 			page 5


 202:..\..\..\lvgl\version_6.1.2\lvgl\src\lv_font/lv_font_fmt_txt.c ****             }
 203:..\..\..\lvgl\version_6.1.2\lvgl\src\lv_font/lv_font_fmt_txt.c ****         }
 204:..\..\..\lvgl\version_6.1.2\lvgl\src\lv_font/lv_font_fmt_txt.c **** 
 205:..\..\..\lvgl\version_6.1.2\lvgl\src\lv_font/lv_font_fmt_txt.c ****         /*Update the cache*/
 206:..\..\..\lvgl\version_6.1.2\lvgl\src\lv_font/lv_font_fmt_txt.c ****         fdsc->last_letter = letter;
 207:..\..\..\lvgl\version_6.1.2\lvgl\src\lv_font/lv_font_fmt_txt.c ****         fdsc->last_glyph_id = glyph_id;
 208:..\..\..\lvgl\version_6.1.2\lvgl\src\lv_font/lv_font_fmt_txt.c ****         return glyph_id;
 209:..\..\..\lvgl\version_6.1.2\lvgl\src\lv_font/lv_font_fmt_txt.c ****     }
 210:..\..\..\lvgl\version_6.1.2\lvgl\src\lv_font/lv_font_fmt_txt.c **** 
 211:..\..\..\lvgl\version_6.1.2\lvgl\src\lv_font/lv_font_fmt_txt.c ****     fdsc->last_letter = letter;
 212:..\..\..\lvgl\version_6.1.2\lvgl\src\lv_font/lv_font_fmt_txt.c ****     fdsc->last_glyph_id = 0;
 213:..\..\..\lvgl\version_6.1.2\lvgl\src\lv_font/lv_font_fmt_txt.c ****     return 0;
 214:..\..\..\lvgl\version_6.1.2\lvgl\src\lv_font/lv_font_fmt_txt.c **** 
 215:..\..\..\lvgl\version_6.1.2\lvgl\src\lv_font/lv_font_fmt_txt.c **** }
 216:..\..\..\lvgl\version_6.1.2\lvgl\src\lv_font/lv_font_fmt_txt.c **** 
 217:..\..\..\lvgl\version_6.1.2\lvgl\src\lv_font/lv_font_fmt_txt.c **** static int8_t get_kern_value(const lv_font_t * font, uint32_t gid_left, uint32_t gid_right)
 218:..\..\..\lvgl\version_6.1.2\lvgl\src\lv_font/lv_font_fmt_txt.c **** {
 219:..\..\..\lvgl\version_6.1.2\lvgl\src\lv_font/lv_font_fmt_txt.c ****     lv_font_fmt_txt_dsc_t * fdsc = (lv_font_fmt_txt_dsc_t *) font->dsc;
 220:..\..\..\lvgl\version_6.1.2\lvgl\src\lv_font/lv_font_fmt_txt.c **** 
 221:..\..\..\lvgl\version_6.1.2\lvgl\src\lv_font/lv_font_fmt_txt.c ****     int8_t value = 0;
 222:..\..\..\lvgl\version_6.1.2\lvgl\src\lv_font/lv_font_fmt_txt.c **** 
 223:..\..\..\lvgl\version_6.1.2\lvgl\src\lv_font/lv_font_fmt_txt.c ****     if(fdsc->kern_classes == 0) {
 224:..\..\..\lvgl\version_6.1.2\lvgl\src\lv_font/lv_font_fmt_txt.c ****         /*Kern pairs*/
 225:..\..\..\lvgl\version_6.1.2\lvgl\src\lv_font/lv_font_fmt_txt.c ****         const lv_font_fmt_txt_kern_pair_t * kdsc = fdsc->kern_dsc;
 226:..\..\..\lvgl\version_6.1.2\lvgl\src\lv_font/lv_font_fmt_txt.c ****         if(kdsc->glyph_ids_size == 0) {
 227:..\..\..\lvgl\version_6.1.2\lvgl\src\lv_font/lv_font_fmt_txt.c ****             /* Use binary search to find the kern value.
 228:..\..\..\lvgl\version_6.1.2\lvgl\src\lv_font/lv_font_fmt_txt.c ****              * The pairs are ordered left_id first, then right_id secondly. */
 229:..\..\..\lvgl\version_6.1.2\lvgl\src\lv_font/lv_font_fmt_txt.c ****             const uint8_t * g_ids = kdsc->glyph_ids;
 230:..\..\..\lvgl\version_6.1.2\lvgl\src\lv_font/lv_font_fmt_txt.c ****             uint16_t g_id_both = (gid_right << 8) + gid_left; /*Create one number from the ids*/
 231:..\..\..\lvgl\version_6.1.2\lvgl\src\lv_font/lv_font_fmt_txt.c ****             uint8_t * kid_p = lv_utils_bsearch(&g_id_both, g_ids, kdsc->pair_cnt, 2, kern_pair_8_co
 232:..\..\..\lvgl\version_6.1.2\lvgl\src\lv_font/lv_font_fmt_txt.c **** 
 233:..\..\..\lvgl\version_6.1.2\lvgl\src\lv_font/lv_font_fmt_txt.c ****             /*If the `g_id_both` were found get its index from the pointer*/
 234:..\..\..\lvgl\version_6.1.2\lvgl\src\lv_font/lv_font_fmt_txt.c ****             if(kid_p) {
 235:..\..\..\lvgl\version_6.1.2\lvgl\src\lv_font/lv_font_fmt_txt.c ****                 lv_uintptr_t ofs = (lv_uintptr_t)(kid_p - g_ids);
 236:..\..\..\lvgl\version_6.1.2\lvgl\src\lv_font/lv_font_fmt_txt.c ****                 ofs = ofs >> 1;     /*ofs is for pair, divide by 2 to refer as a single value*/
 237:..\..\..\lvgl\version_6.1.2\lvgl\src\lv_font/lv_font_fmt_txt.c ****                 value = kdsc->values[ofs];
 238:..\..\..\lvgl\version_6.1.2\lvgl\src\lv_font/lv_font_fmt_txt.c ****             }
 239:..\..\..\lvgl\version_6.1.2\lvgl\src\lv_font/lv_font_fmt_txt.c ****         } else if(kdsc->glyph_ids_size == 1) {
 240:..\..\..\lvgl\version_6.1.2\lvgl\src\lv_font/lv_font_fmt_txt.c ****             /* Use binary search to find the kern value.
 241:..\..\..\lvgl\version_6.1.2\lvgl\src\lv_font/lv_font_fmt_txt.c ****              * The pairs are ordered left_id first, then right_id secondly. */
 242:..\..\..\lvgl\version_6.1.2\lvgl\src\lv_font/lv_font_fmt_txt.c ****             const uint16_t * g_ids = kdsc->glyph_ids;
 243:..\..\..\lvgl\version_6.1.2\lvgl\src\lv_font/lv_font_fmt_txt.c ****             lv_uintptr_t g_id_both = (uint32_t)((uint32_t)gid_right << 8) + gid_left; /*Create one 
 244:..\..\..\lvgl\version_6.1.2\lvgl\src\lv_font/lv_font_fmt_txt.c ****             uint8_t * kid_p = lv_utils_bsearch(&g_id_both, g_ids, kdsc->pair_cnt, 4, kern_pair_16_c
 245:..\..\..\lvgl\version_6.1.2\lvgl\src\lv_font/lv_font_fmt_txt.c **** 
 246:..\..\..\lvgl\version_6.1.2\lvgl\src\lv_font/lv_font_fmt_txt.c ****             /*If the `g_id_both` were found get its index from the pointer*/
 247:..\..\..\lvgl\version_6.1.2\lvgl\src\lv_font/lv_font_fmt_txt.c ****             if(kid_p) {
 248:..\..\..\lvgl\version_6.1.2\lvgl\src\lv_font/lv_font_fmt_txt.c ****                 lv_uintptr_t ofs = (lv_uintptr_t) (kid_p - (const uint8_t *)g_ids);
 249:..\..\..\lvgl\version_6.1.2\lvgl\src\lv_font/lv_font_fmt_txt.c ****                 ofs = ofs >> 4;     /*ofs is 4 byte pairs, divide by 4 to refer as a single value*/
 250:..\..\..\lvgl\version_6.1.2\lvgl\src\lv_font/lv_font_fmt_txt.c ****                 value = kdsc->values[ofs];
 251:..\..\..\lvgl\version_6.1.2\lvgl\src\lv_font/lv_font_fmt_txt.c ****             }
 252:..\..\..\lvgl\version_6.1.2\lvgl\src\lv_font/lv_font_fmt_txt.c **** 
 253:..\..\..\lvgl\version_6.1.2\lvgl\src\lv_font/lv_font_fmt_txt.c ****         } else {
 254:..\..\..\lvgl\version_6.1.2\lvgl\src\lv_font/lv_font_fmt_txt.c ****             /*Invalid value*/
 255:..\..\..\lvgl\version_6.1.2\lvgl\src\lv_font/lv_font_fmt_txt.c ****         }
 256:..\..\..\lvgl\version_6.1.2\lvgl\src\lv_font/lv_font_fmt_txt.c ****     } else {
 257:..\..\..\lvgl\version_6.1.2\lvgl\src\lv_font/lv_font_fmt_txt.c ****         /*Kern classes*/
 258:..\..\..\lvgl\version_6.1.2\lvgl\src\lv_font/lv_font_fmt_txt.c ****         const lv_font_fmt_txt_kern_classes_t * kdsc = fdsc->kern_dsc;
ARM GAS  C:\Users\pearlstl\AppData\Local\Temp\ccllHTLf.s 			page 6


 259:..\..\..\lvgl\version_6.1.2\lvgl\src\lv_font/lv_font_fmt_txt.c ****         uint8_t left_class = kdsc->left_class_mapping[gid_left];
 260:..\..\..\lvgl\version_6.1.2\lvgl\src\lv_font/lv_font_fmt_txt.c ****         uint8_t right_class = kdsc->right_class_mapping[gid_right];
 261:..\..\..\lvgl\version_6.1.2\lvgl\src\lv_font/lv_font_fmt_txt.c **** 
 262:..\..\..\lvgl\version_6.1.2\lvgl\src\lv_font/lv_font_fmt_txt.c ****         /* If class = 0, kerning not exist for that glyph
 263:..\..\..\lvgl\version_6.1.2\lvgl\src\lv_font/lv_font_fmt_txt.c ****          * else got the value form `class_pair_values` 2D array*/
 264:..\..\..\lvgl\version_6.1.2\lvgl\src\lv_font/lv_font_fmt_txt.c ****         if(left_class > 0 && right_class > 0) {
 265:..\..\..\lvgl\version_6.1.2\lvgl\src\lv_font/lv_font_fmt_txt.c ****             value = kdsc->class_pair_values[(left_class-1)* kdsc->right_class_cnt + (right_class-1)
 266:..\..\..\lvgl\version_6.1.2\lvgl\src\lv_font/lv_font_fmt_txt.c ****         }
 267:..\..\..\lvgl\version_6.1.2\lvgl\src\lv_font/lv_font_fmt_txt.c **** 
 268:..\..\..\lvgl\version_6.1.2\lvgl\src\lv_font/lv_font_fmt_txt.c ****     }
 269:..\..\..\lvgl\version_6.1.2\lvgl\src\lv_font/lv_font_fmt_txt.c ****     return value;
 270:..\..\..\lvgl\version_6.1.2\lvgl\src\lv_font/lv_font_fmt_txt.c **** }
 271:..\..\..\lvgl\version_6.1.2\lvgl\src\lv_font/lv_font_fmt_txt.c **** 
 272:..\..\..\lvgl\version_6.1.2\lvgl\src\lv_font/lv_font_fmt_txt.c **** static int32_t kern_pair_8_compare(const void * ref, const void * element)
 273:..\..\..\lvgl\version_6.1.2\lvgl\src\lv_font/lv_font_fmt_txt.c **** {
  28              		.loc 1 273 0
  29              		.cfi_startproc
  30              		@ args = 0, pretend = 0, frame = 0
  31              		@ frame_needed = 0, uses_anonymous_args = 0
  32              		@ link register save eliminated.
  33              	.LVL0:
 274:..\..\..\lvgl\version_6.1.2\lvgl\src\lv_font/lv_font_fmt_txt.c ****     const uint8_t * ref8_p = ref;
 275:..\..\..\lvgl\version_6.1.2\lvgl\src\lv_font/lv_font_fmt_txt.c ****     const uint8_t * element8_p = element;
 276:..\..\..\lvgl\version_6.1.2\lvgl\src\lv_font/lv_font_fmt_txt.c **** 
 277:..\..\..\lvgl\version_6.1.2\lvgl\src\lv_font/lv_font_fmt_txt.c ****     /*If the MSB is different it will matter. If not return the diff. of the LSB*/
 278:..\..\..\lvgl\version_6.1.2\lvgl\src\lv_font/lv_font_fmt_txt.c ****     if(ref8_p[0] != element8_p[0]) return (int32_t)ref8_p[0] - element8_p[0];
  34              		.loc 1 278 0
  35 0000 0378     		ldrb	r3, [r0]	@ zero_extendqisi2
  36 0002 0A78     		ldrb	r2, [r1]	@ zero_extendqisi2
  37 0004 9342     		cmp	r3, r2
 279:..\..\..\lvgl\version_6.1.2\lvgl\src\lv_font/lv_font_fmt_txt.c ****     else return (int32_t) ref8_p[1] - element8_p[1];
  38              		.loc 1 279 0
  39 0006 09BF     		itett	eq
  40 0008 4378     		ldrbeq	r3, [r0, #1]	@ zero_extendqisi2
 278:..\..\..\lvgl\version_6.1.2\lvgl\src\lv_font/lv_font_fmt_txt.c ****     else return (int32_t) ref8_p[1] - element8_p[1];
  41              		.loc 1 278 0
  42 000a 981A     		subne	r0, r3, r2
  43              	.LVL1:
  44              		.loc 1 279 0
  45 000c 4878     		ldrbeq	r0, [r1, #1]	@ zero_extendqisi2
  46 000e 181A     		subeq	r0, r3, r0
 280:..\..\..\lvgl\version_6.1.2\lvgl\src\lv_font/lv_font_fmt_txt.c **** 
 281:..\..\..\lvgl\version_6.1.2\lvgl\src\lv_font/lv_font_fmt_txt.c **** }
  47              		.loc 1 281 0
  48 0010 7047     		bx	lr
  49              		.cfi_endproc
  50              	.LFE35:
  51              		.size	kern_pair_8_compare, .-kern_pair_8_compare
  52 0012 00BF     		.section	.text.kern_pair_16_compare,"ax",%progbits
  53              		.align	2
  54              		.thumb
  55              		.thumb_func
  56              		.type	kern_pair_16_compare, %function
  57              	kern_pair_16_compare:
  58              	.LFB36:
 282:..\..\..\lvgl\version_6.1.2\lvgl\src\lv_font/lv_font_fmt_txt.c **** 
 283:..\..\..\lvgl\version_6.1.2\lvgl\src\lv_font/lv_font_fmt_txt.c **** static int32_t kern_pair_16_compare(const void * ref, const void * element)
ARM GAS  C:\Users\pearlstl\AppData\Local\Temp\ccllHTLf.s 			page 7


 284:..\..\..\lvgl\version_6.1.2\lvgl\src\lv_font/lv_font_fmt_txt.c **** {
  59              		.loc 1 284 0
  60              		.cfi_startproc
  61              		@ args = 0, pretend = 0, frame = 0
  62              		@ frame_needed = 0, uses_anonymous_args = 0
  63              		@ link register save eliminated.
  64              	.LVL2:
 285:..\..\..\lvgl\version_6.1.2\lvgl\src\lv_font/lv_font_fmt_txt.c ****     const uint16_t * ref16_p = ref;
 286:..\..\..\lvgl\version_6.1.2\lvgl\src\lv_font/lv_font_fmt_txt.c ****     const uint16_t * element16_p = element;
 287:..\..\..\lvgl\version_6.1.2\lvgl\src\lv_font/lv_font_fmt_txt.c **** 
 288:..\..\..\lvgl\version_6.1.2\lvgl\src\lv_font/lv_font_fmt_txt.c ****     /*If the MSB is different it will matter. If not return the diff. of the LSB*/
 289:..\..\..\lvgl\version_6.1.2\lvgl\src\lv_font/lv_font_fmt_txt.c ****     if(ref16_p[0] != element16_p[0]) return (int32_t)ref16_p[0] - element16_p[0];
  65              		.loc 1 289 0
  66 0000 0388     		ldrh	r3, [r0]
  67 0002 0A88     		ldrh	r2, [r1]
  68 0004 9342     		cmp	r3, r2
 290:..\..\..\lvgl\version_6.1.2\lvgl\src\lv_font/lv_font_fmt_txt.c ****     else return (int32_t) ref16_p[1] - element16_p[1];
  69              		.loc 1 290 0
  70 0006 09BF     		itett	eq
  71 0008 4388     		ldrheq	r3, [r0, #2]
 289:..\..\..\lvgl\version_6.1.2\lvgl\src\lv_font/lv_font_fmt_txt.c ****     else return (int32_t) ref16_p[1] - element16_p[1];
  72              		.loc 1 289 0
  73 000a 981A     		subne	r0, r3, r2
  74              	.LVL3:
  75              		.loc 1 290 0
  76 000c 4888     		ldrheq	r0, [r1, #2]
  77 000e 181A     		subeq	r0, r3, r0
 291:..\..\..\lvgl\version_6.1.2\lvgl\src\lv_font/lv_font_fmt_txt.c **** }
  78              		.loc 1 291 0
  79 0010 7047     		bx	lr
  80              		.cfi_endproc
  81              	.LFE36:
  82              		.size	kern_pair_16_compare, .-kern_pair_16_compare
  83 0012 00BF     		.section	.text.unicode_list_compare,"ax",%progbits
  84              		.align	2
  85              		.thumb
  86              		.thumb_func
  87              		.type	unicode_list_compare, %function
  88              	unicode_list_compare:
  89              	.LFB43:
 292:..\..\..\lvgl\version_6.1.2\lvgl\src\lv_font/lv_font_fmt_txt.c **** 
 293:..\..\..\lvgl\version_6.1.2\lvgl\src\lv_font/lv_font_fmt_txt.c **** /**
 294:..\..\..\lvgl\version_6.1.2\lvgl\src\lv_font/lv_font_fmt_txt.c ****  * The compress a glyph's bitmap
 295:..\..\..\lvgl\version_6.1.2\lvgl\src\lv_font/lv_font_fmt_txt.c ****  * @param in the compressed bitmap
 296:..\..\..\lvgl\version_6.1.2\lvgl\src\lv_font/lv_font_fmt_txt.c ****  * @param out buffer to store the result
 297:..\..\..\lvgl\version_6.1.2\lvgl\src\lv_font/lv_font_fmt_txt.c ****  * @param px_num number of pixels in the glyph (width * height)
 298:..\..\..\lvgl\version_6.1.2\lvgl\src\lv_font/lv_font_fmt_txt.c ****  * @param bpp bit per pixel (bpp = 3 will be converted to bpp = 4)
 299:..\..\..\lvgl\version_6.1.2\lvgl\src\lv_font/lv_font_fmt_txt.c ****  */
 300:..\..\..\lvgl\version_6.1.2\lvgl\src\lv_font/lv_font_fmt_txt.c **** static void decompress(const uint8_t * in, uint8_t * out, lv_coord_t w, lv_coord_t h, uint8_t bpp)
 301:..\..\..\lvgl\version_6.1.2\lvgl\src\lv_font/lv_font_fmt_txt.c **** {
 302:..\..\..\lvgl\version_6.1.2\lvgl\src\lv_font/lv_font_fmt_txt.c ****     uint32_t wrp = 0;
 303:..\..\..\lvgl\version_6.1.2\lvgl\src\lv_font/lv_font_fmt_txt.c ****     uint8_t wr_size = bpp;
 304:..\..\..\lvgl\version_6.1.2\lvgl\src\lv_font/lv_font_fmt_txt.c ****     if(bpp == 3) wr_size = 4;
 305:..\..\..\lvgl\version_6.1.2\lvgl\src\lv_font/lv_font_fmt_txt.c **** 
 306:..\..\..\lvgl\version_6.1.2\lvgl\src\lv_font/lv_font_fmt_txt.c ****     rle_init(in, bpp);
 307:..\..\..\lvgl\version_6.1.2\lvgl\src\lv_font/lv_font_fmt_txt.c **** 
 308:..\..\..\lvgl\version_6.1.2\lvgl\src\lv_font/lv_font_fmt_txt.c ****     uint8_t * line_buf = lv_draw_get_buf(w * 2);
ARM GAS  C:\Users\pearlstl\AppData\Local\Temp\ccllHTLf.s 			page 8


 309:..\..\..\lvgl\version_6.1.2\lvgl\src\lv_font/lv_font_fmt_txt.c ****     uint8_t * line_buf1 = line_buf;
 310:..\..\..\lvgl\version_6.1.2\lvgl\src\lv_font/lv_font_fmt_txt.c ****     uint8_t * line_buf2 = line_buf + w;
 311:..\..\..\lvgl\version_6.1.2\lvgl\src\lv_font/lv_font_fmt_txt.c **** 
 312:..\..\..\lvgl\version_6.1.2\lvgl\src\lv_font/lv_font_fmt_txt.c ****     decompress_line(line_buf1, w);
 313:..\..\..\lvgl\version_6.1.2\lvgl\src\lv_font/lv_font_fmt_txt.c **** 
 314:..\..\..\lvgl\version_6.1.2\lvgl\src\lv_font/lv_font_fmt_txt.c ****     lv_coord_t y;
 315:..\..\..\lvgl\version_6.1.2\lvgl\src\lv_font/lv_font_fmt_txt.c ****     lv_coord_t x;
 316:..\..\..\lvgl\version_6.1.2\lvgl\src\lv_font/lv_font_fmt_txt.c ****     for(x = 0; x < w; x++) {
 317:..\..\..\lvgl\version_6.1.2\lvgl\src\lv_font/lv_font_fmt_txt.c ****         bits_write(out,wrp, line_buf1[x], bpp);
 318:..\..\..\lvgl\version_6.1.2\lvgl\src\lv_font/lv_font_fmt_txt.c ****         wrp += wr_size;
 319:..\..\..\lvgl\version_6.1.2\lvgl\src\lv_font/lv_font_fmt_txt.c ****     }
 320:..\..\..\lvgl\version_6.1.2\lvgl\src\lv_font/lv_font_fmt_txt.c **** 
 321:..\..\..\lvgl\version_6.1.2\lvgl\src\lv_font/lv_font_fmt_txt.c ****     for(y = 1; y < h; y++) {
 322:..\..\..\lvgl\version_6.1.2\lvgl\src\lv_font/lv_font_fmt_txt.c ****         decompress_line(line_buf2, w);
 323:..\..\..\lvgl\version_6.1.2\lvgl\src\lv_font/lv_font_fmt_txt.c **** 
 324:..\..\..\lvgl\version_6.1.2\lvgl\src\lv_font/lv_font_fmt_txt.c ****         for(x = 0; x < w; x++) {
 325:..\..\..\lvgl\version_6.1.2\lvgl\src\lv_font/lv_font_fmt_txt.c ****             line_buf1[x] = line_buf2[x] ^ line_buf1[x];
 326:..\..\..\lvgl\version_6.1.2\lvgl\src\lv_font/lv_font_fmt_txt.c ****             bits_write(out,wrp, line_buf1[x], bpp);
 327:..\..\..\lvgl\version_6.1.2\lvgl\src\lv_font/lv_font_fmt_txt.c ****             wrp += wr_size;
 328:..\..\..\lvgl\version_6.1.2\lvgl\src\lv_font/lv_font_fmt_txt.c ****         }
 329:..\..\..\lvgl\version_6.1.2\lvgl\src\lv_font/lv_font_fmt_txt.c ****     }
 330:..\..\..\lvgl\version_6.1.2\lvgl\src\lv_font/lv_font_fmt_txt.c **** }
 331:..\..\..\lvgl\version_6.1.2\lvgl\src\lv_font/lv_font_fmt_txt.c **** 
 332:..\..\..\lvgl\version_6.1.2\lvgl\src\lv_font/lv_font_fmt_txt.c **** /**
 333:..\..\..\lvgl\version_6.1.2\lvgl\src\lv_font/lv_font_fmt_txt.c ****  * Decompress one line. Store one pixel per byte
 334:..\..\..\lvgl\version_6.1.2\lvgl\src\lv_font/lv_font_fmt_txt.c ****  * @param out output buffer
 335:..\..\..\lvgl\version_6.1.2\lvgl\src\lv_font/lv_font_fmt_txt.c ****  * @param w width of the line in pixel count
 336:..\..\..\lvgl\version_6.1.2\lvgl\src\lv_font/lv_font_fmt_txt.c ****  */
 337:..\..\..\lvgl\version_6.1.2\lvgl\src\lv_font/lv_font_fmt_txt.c **** static void decompress_line(uint8_t * out, lv_coord_t w)
 338:..\..\..\lvgl\version_6.1.2\lvgl\src\lv_font/lv_font_fmt_txt.c **** {
 339:..\..\..\lvgl\version_6.1.2\lvgl\src\lv_font/lv_font_fmt_txt.c ****     lv_coord_t i;
 340:..\..\..\lvgl\version_6.1.2\lvgl\src\lv_font/lv_font_fmt_txt.c ****     for(i = 0; i < w; i++) {
 341:..\..\..\lvgl\version_6.1.2\lvgl\src\lv_font/lv_font_fmt_txt.c ****         out[i] = rle_next();
 342:..\..\..\lvgl\version_6.1.2\lvgl\src\lv_font/lv_font_fmt_txt.c ****     }
 343:..\..\..\lvgl\version_6.1.2\lvgl\src\lv_font/lv_font_fmt_txt.c **** }
 344:..\..\..\lvgl\version_6.1.2\lvgl\src\lv_font/lv_font_fmt_txt.c **** 
 345:..\..\..\lvgl\version_6.1.2\lvgl\src\lv_font/lv_font_fmt_txt.c **** /**
 346:..\..\..\lvgl\version_6.1.2\lvgl\src\lv_font/lv_font_fmt_txt.c ****  * Read bits from an input buffer. The read can cross byte boundary.
 347:..\..\..\lvgl\version_6.1.2\lvgl\src\lv_font/lv_font_fmt_txt.c ****  * @param in the input buffer to read from.
 348:..\..\..\lvgl\version_6.1.2\lvgl\src\lv_font/lv_font_fmt_txt.c ****  * @param bit_pos index of teh first bit to read.
 349:..\..\..\lvgl\version_6.1.2\lvgl\src\lv_font/lv_font_fmt_txt.c ****  * @param len number of bits to read (must be <= 8).
 350:..\..\..\lvgl\version_6.1.2\lvgl\src\lv_font/lv_font_fmt_txt.c ****  * @return the read bits
 351:..\..\..\lvgl\version_6.1.2\lvgl\src\lv_font/lv_font_fmt_txt.c ****  */
 352:..\..\..\lvgl\version_6.1.2\lvgl\src\lv_font/lv_font_fmt_txt.c **** static uint8_t get_bits(const uint8_t * in, uint32_t bit_pos, uint8_t len)
 353:..\..\..\lvgl\version_6.1.2\lvgl\src\lv_font/lv_font_fmt_txt.c **** {
 354:..\..\..\lvgl\version_6.1.2\lvgl\src\lv_font/lv_font_fmt_txt.c ****     uint8_t res = 0;
 355:..\..\..\lvgl\version_6.1.2\lvgl\src\lv_font/lv_font_fmt_txt.c ****     uint32_t byte_pos = bit_pos >> 3;
 356:..\..\..\lvgl\version_6.1.2\lvgl\src\lv_font/lv_font_fmt_txt.c ****     bit_pos = bit_pos & 0x7;
 357:..\..\..\lvgl\version_6.1.2\lvgl\src\lv_font/lv_font_fmt_txt.c ****     uint8_t bit_mask = (uint16_t)((uint16_t) 1 << len) - 1;
 358:..\..\..\lvgl\version_6.1.2\lvgl\src\lv_font/lv_font_fmt_txt.c ****     uint16_t in16 = (in[byte_pos] << 8) + in[byte_pos + 1];
 359:..\..\..\lvgl\version_6.1.2\lvgl\src\lv_font/lv_font_fmt_txt.c **** 
 360:..\..\..\lvgl\version_6.1.2\lvgl\src\lv_font/lv_font_fmt_txt.c ****     res = (in16 >> (16 - bit_pos - len)) & bit_mask;
 361:..\..\..\lvgl\version_6.1.2\lvgl\src\lv_font/lv_font_fmt_txt.c ****     return res;
 362:..\..\..\lvgl\version_6.1.2\lvgl\src\lv_font/lv_font_fmt_txt.c **** }
 363:..\..\..\lvgl\version_6.1.2\lvgl\src\lv_font/lv_font_fmt_txt.c **** 
 364:..\..\..\lvgl\version_6.1.2\lvgl\src\lv_font/lv_font_fmt_txt.c **** /**
 365:..\..\..\lvgl\version_6.1.2\lvgl\src\lv_font/lv_font_fmt_txt.c ****  * Write `val` data to `bit_pos` position of `out`. The write can NOT cross byte boundary.
ARM GAS  C:\Users\pearlstl\AppData\Local\Temp\ccllHTLf.s 			page 9


 366:..\..\..\lvgl\version_6.1.2\lvgl\src\lv_font/lv_font_fmt_txt.c ****  * @param out buffer where to write
 367:..\..\..\lvgl\version_6.1.2\lvgl\src\lv_font/lv_font_fmt_txt.c ****  * @param bit_pos bit index to write
 368:..\..\..\lvgl\version_6.1.2\lvgl\src\lv_font/lv_font_fmt_txt.c ****  * @param val value to write
 369:..\..\..\lvgl\version_6.1.2\lvgl\src\lv_font/lv_font_fmt_txt.c ****  * @param len length of bits to write from `val`. (Counted from the LSB).
 370:..\..\..\lvgl\version_6.1.2\lvgl\src\lv_font/lv_font_fmt_txt.c ****  * @note `len == 3` will be converted to `len = 4` and `val` will be upscaled too
 371:..\..\..\lvgl\version_6.1.2\lvgl\src\lv_font/lv_font_fmt_txt.c ****  */
 372:..\..\..\lvgl\version_6.1.2\lvgl\src\lv_font/lv_font_fmt_txt.c **** static void bits_write(uint8_t * out, uint32_t bit_pos, uint8_t val, uint8_t len)
 373:..\..\..\lvgl\version_6.1.2\lvgl\src\lv_font/lv_font_fmt_txt.c **** {
 374:..\..\..\lvgl\version_6.1.2\lvgl\src\lv_font/lv_font_fmt_txt.c ****     if(len == 3) {
 375:..\..\..\lvgl\version_6.1.2\lvgl\src\lv_font/lv_font_fmt_txt.c ****         len = 4;
 376:..\..\..\lvgl\version_6.1.2\lvgl\src\lv_font/lv_font_fmt_txt.c ****         switch(val) {
 377:..\..\..\lvgl\version_6.1.2\lvgl\src\lv_font/lv_font_fmt_txt.c ****         case 0: val = 0; break;
 378:..\..\..\lvgl\version_6.1.2\lvgl\src\lv_font/lv_font_fmt_txt.c ****         case 1: val = 2; break;
 379:..\..\..\lvgl\version_6.1.2\lvgl\src\lv_font/lv_font_fmt_txt.c ****         case 2: val = 4; break;
 380:..\..\..\lvgl\version_6.1.2\lvgl\src\lv_font/lv_font_fmt_txt.c ****         case 3: val = 6; break;
 381:..\..\..\lvgl\version_6.1.2\lvgl\src\lv_font/lv_font_fmt_txt.c ****         case 4: val = 9; break;
 382:..\..\..\lvgl\version_6.1.2\lvgl\src\lv_font/lv_font_fmt_txt.c ****         case 5: val = 11; break;
 383:..\..\..\lvgl\version_6.1.2\lvgl\src\lv_font/lv_font_fmt_txt.c ****         case 6: val = 13; break;
 384:..\..\..\lvgl\version_6.1.2\lvgl\src\lv_font/lv_font_fmt_txt.c ****         case 7: val = 15; break;
 385:..\..\..\lvgl\version_6.1.2\lvgl\src\lv_font/lv_font_fmt_txt.c ****         }
 386:..\..\..\lvgl\version_6.1.2\lvgl\src\lv_font/lv_font_fmt_txt.c ****     }
 387:..\..\..\lvgl\version_6.1.2\lvgl\src\lv_font/lv_font_fmt_txt.c **** 
 388:..\..\..\lvgl\version_6.1.2\lvgl\src\lv_font/lv_font_fmt_txt.c ****     uint16_t byte_pos = bit_pos >> 3;
 389:..\..\..\lvgl\version_6.1.2\lvgl\src\lv_font/lv_font_fmt_txt.c ****     bit_pos = bit_pos & 0x7;
 390:..\..\..\lvgl\version_6.1.2\lvgl\src\lv_font/lv_font_fmt_txt.c ****     bit_pos = 8 - bit_pos - len;
 391:..\..\..\lvgl\version_6.1.2\lvgl\src\lv_font/lv_font_fmt_txt.c **** 
 392:..\..\..\lvgl\version_6.1.2\lvgl\src\lv_font/lv_font_fmt_txt.c ****     uint8_t bit_mask = (uint16_t)((uint16_t) 1 << len) - 1;
 393:..\..\..\lvgl\version_6.1.2\lvgl\src\lv_font/lv_font_fmt_txt.c ****     out[byte_pos] &= ((~bit_mask) << bit_pos);
 394:..\..\..\lvgl\version_6.1.2\lvgl\src\lv_font/lv_font_fmt_txt.c ****     out[byte_pos] |= (val << bit_pos);
 395:..\..\..\lvgl\version_6.1.2\lvgl\src\lv_font/lv_font_fmt_txt.c **** }
 396:..\..\..\lvgl\version_6.1.2\lvgl\src\lv_font/lv_font_fmt_txt.c **** 
 397:..\..\..\lvgl\version_6.1.2\lvgl\src\lv_font/lv_font_fmt_txt.c **** static void rle_init(const uint8_t * in,  uint8_t bpp)
 398:..\..\..\lvgl\version_6.1.2\lvgl\src\lv_font/lv_font_fmt_txt.c **** {
 399:..\..\..\lvgl\version_6.1.2\lvgl\src\lv_font/lv_font_fmt_txt.c ****     rle_in = in;
 400:..\..\..\lvgl\version_6.1.2\lvgl\src\lv_font/lv_font_fmt_txt.c ****     rle_bpp = bpp;
 401:..\..\..\lvgl\version_6.1.2\lvgl\src\lv_font/lv_font_fmt_txt.c ****     rle_state = RLE_STATE_SINGLE;
 402:..\..\..\lvgl\version_6.1.2\lvgl\src\lv_font/lv_font_fmt_txt.c ****     rle_rdp = 0;
 403:..\..\..\lvgl\version_6.1.2\lvgl\src\lv_font/lv_font_fmt_txt.c ****     rle_prev_v = 0;
 404:..\..\..\lvgl\version_6.1.2\lvgl\src\lv_font/lv_font_fmt_txt.c ****     rle_cnt = 0;
 405:..\..\..\lvgl\version_6.1.2\lvgl\src\lv_font/lv_font_fmt_txt.c **** }
 406:..\..\..\lvgl\version_6.1.2\lvgl\src\lv_font/lv_font_fmt_txt.c **** 
 407:..\..\..\lvgl\version_6.1.2\lvgl\src\lv_font/lv_font_fmt_txt.c **** static uint8_t rle_next(void)
 408:..\..\..\lvgl\version_6.1.2\lvgl\src\lv_font/lv_font_fmt_txt.c **** {
 409:..\..\..\lvgl\version_6.1.2\lvgl\src\lv_font/lv_font_fmt_txt.c ****     uint8_t v = 0;
 410:..\..\..\lvgl\version_6.1.2\lvgl\src\lv_font/lv_font_fmt_txt.c ****     uint8_t ret = 0;
 411:..\..\..\lvgl\version_6.1.2\lvgl\src\lv_font/lv_font_fmt_txt.c **** 
 412:..\..\..\lvgl\version_6.1.2\lvgl\src\lv_font/lv_font_fmt_txt.c ****     if(rle_state == RLE_STATE_SINGLE) {
 413:..\..\..\lvgl\version_6.1.2\lvgl\src\lv_font/lv_font_fmt_txt.c ****         ret = get_bits(rle_in, rle_rdp, rle_bpp);
 414:..\..\..\lvgl\version_6.1.2\lvgl\src\lv_font/lv_font_fmt_txt.c ****         if(rle_rdp != 0 && rle_prev_v == ret) {
 415:..\..\..\lvgl\version_6.1.2\lvgl\src\lv_font/lv_font_fmt_txt.c ****             rle_cnt = 0;
 416:..\..\..\lvgl\version_6.1.2\lvgl\src\lv_font/lv_font_fmt_txt.c ****             rle_state = RLE_STATE_REPEATE;
 417:..\..\..\lvgl\version_6.1.2\lvgl\src\lv_font/lv_font_fmt_txt.c ****         }
 418:..\..\..\lvgl\version_6.1.2\lvgl\src\lv_font/lv_font_fmt_txt.c **** 
 419:..\..\..\lvgl\version_6.1.2\lvgl\src\lv_font/lv_font_fmt_txt.c ****         rle_prev_v = ret;
 420:..\..\..\lvgl\version_6.1.2\lvgl\src\lv_font/lv_font_fmt_txt.c ****         rle_rdp += rle_bpp;
 421:..\..\..\lvgl\version_6.1.2\lvgl\src\lv_font/lv_font_fmt_txt.c ****     }
 422:..\..\..\lvgl\version_6.1.2\lvgl\src\lv_font/lv_font_fmt_txt.c ****     else if(rle_state == RLE_STATE_REPEATE) {
ARM GAS  C:\Users\pearlstl\AppData\Local\Temp\ccllHTLf.s 			page 10


 423:..\..\..\lvgl\version_6.1.2\lvgl\src\lv_font/lv_font_fmt_txt.c ****         v = get_bits(rle_in, rle_rdp, 1);
 424:..\..\..\lvgl\version_6.1.2\lvgl\src\lv_font/lv_font_fmt_txt.c ****         rle_cnt++;
 425:..\..\..\lvgl\version_6.1.2\lvgl\src\lv_font/lv_font_fmt_txt.c ****         rle_rdp += 1;
 426:..\..\..\lvgl\version_6.1.2\lvgl\src\lv_font/lv_font_fmt_txt.c ****         if(v == 1) {
 427:..\..\..\lvgl\version_6.1.2\lvgl\src\lv_font/lv_font_fmt_txt.c ****             ret = rle_prev_v;
 428:..\..\..\lvgl\version_6.1.2\lvgl\src\lv_font/lv_font_fmt_txt.c ****             if(rle_cnt == 11) {
 429:..\..\..\lvgl\version_6.1.2\lvgl\src\lv_font/lv_font_fmt_txt.c ****                 rle_cnt = get_bits(rle_in, rle_rdp, 6);
 430:..\..\..\lvgl\version_6.1.2\lvgl\src\lv_font/lv_font_fmt_txt.c ****                 rle_rdp += 6;
 431:..\..\..\lvgl\version_6.1.2\lvgl\src\lv_font/lv_font_fmt_txt.c ****                 if(rle_cnt != 0) {
 432:..\..\..\lvgl\version_6.1.2\lvgl\src\lv_font/lv_font_fmt_txt.c ****                     rle_state = RLE_STATE_COUNTER;
 433:..\..\..\lvgl\version_6.1.2\lvgl\src\lv_font/lv_font_fmt_txt.c ****                 } else {
 434:..\..\..\lvgl\version_6.1.2\lvgl\src\lv_font/lv_font_fmt_txt.c ****                     ret = get_bits(rle_in, rle_rdp, rle_bpp);
 435:..\..\..\lvgl\version_6.1.2\lvgl\src\lv_font/lv_font_fmt_txt.c ****                     rle_prev_v = ret;
 436:..\..\..\lvgl\version_6.1.2\lvgl\src\lv_font/lv_font_fmt_txt.c ****                     rle_rdp += rle_bpp;
 437:..\..\..\lvgl\version_6.1.2\lvgl\src\lv_font/lv_font_fmt_txt.c ****                     rle_state = RLE_STATE_SINGLE;
 438:..\..\..\lvgl\version_6.1.2\lvgl\src\lv_font/lv_font_fmt_txt.c ****                 }
 439:..\..\..\lvgl\version_6.1.2\lvgl\src\lv_font/lv_font_fmt_txt.c ****             }
 440:..\..\..\lvgl\version_6.1.2\lvgl\src\lv_font/lv_font_fmt_txt.c ****         } else {
 441:..\..\..\lvgl\version_6.1.2\lvgl\src\lv_font/lv_font_fmt_txt.c ****             ret = get_bits(rle_in, rle_rdp, rle_bpp);
 442:..\..\..\lvgl\version_6.1.2\lvgl\src\lv_font/lv_font_fmt_txt.c ****             rle_prev_v = ret;
 443:..\..\..\lvgl\version_6.1.2\lvgl\src\lv_font/lv_font_fmt_txt.c ****             rle_rdp += rle_bpp;
 444:..\..\..\lvgl\version_6.1.2\lvgl\src\lv_font/lv_font_fmt_txt.c ****             rle_state = RLE_STATE_SINGLE;
 445:..\..\..\lvgl\version_6.1.2\lvgl\src\lv_font/lv_font_fmt_txt.c ****         }
 446:..\..\..\lvgl\version_6.1.2\lvgl\src\lv_font/lv_font_fmt_txt.c **** 
 447:..\..\..\lvgl\version_6.1.2\lvgl\src\lv_font/lv_font_fmt_txt.c **** 
 448:..\..\..\lvgl\version_6.1.2\lvgl\src\lv_font/lv_font_fmt_txt.c ****     }
 449:..\..\..\lvgl\version_6.1.2\lvgl\src\lv_font/lv_font_fmt_txt.c ****     else if(rle_state == RLE_STATE_COUNTER) {
 450:..\..\..\lvgl\version_6.1.2\lvgl\src\lv_font/lv_font_fmt_txt.c ****         ret = rle_prev_v;
 451:..\..\..\lvgl\version_6.1.2\lvgl\src\lv_font/lv_font_fmt_txt.c ****         rle_cnt--;
 452:..\..\..\lvgl\version_6.1.2\lvgl\src\lv_font/lv_font_fmt_txt.c ****         if(rle_cnt == 0) {
 453:..\..\..\lvgl\version_6.1.2\lvgl\src\lv_font/lv_font_fmt_txt.c ****             ret = get_bits(rle_in, rle_rdp, rle_bpp);
 454:..\..\..\lvgl\version_6.1.2\lvgl\src\lv_font/lv_font_fmt_txt.c ****             rle_prev_v = ret;
 455:..\..\..\lvgl\version_6.1.2\lvgl\src\lv_font/lv_font_fmt_txt.c ****             rle_rdp += rle_bpp;
 456:..\..\..\lvgl\version_6.1.2\lvgl\src\lv_font/lv_font_fmt_txt.c ****             rle_state = RLE_STATE_SINGLE;
 457:..\..\..\lvgl\version_6.1.2\lvgl\src\lv_font/lv_font_fmt_txt.c ****         }
 458:..\..\..\lvgl\version_6.1.2\lvgl\src\lv_font/lv_font_fmt_txt.c ****     }
 459:..\..\..\lvgl\version_6.1.2\lvgl\src\lv_font/lv_font_fmt_txt.c **** 
 460:..\..\..\lvgl\version_6.1.2\lvgl\src\lv_font/lv_font_fmt_txt.c ****     return ret;
 461:..\..\..\lvgl\version_6.1.2\lvgl\src\lv_font/lv_font_fmt_txt.c **** }
 462:..\..\..\lvgl\version_6.1.2\lvgl\src\lv_font/lv_font_fmt_txt.c **** 
 463:..\..\..\lvgl\version_6.1.2\lvgl\src\lv_font/lv_font_fmt_txt.c **** /** Code Comparator.
 464:..\..\..\lvgl\version_6.1.2\lvgl\src\lv_font/lv_font_fmt_txt.c ****  *
 465:..\..\..\lvgl\version_6.1.2\lvgl\src\lv_font/lv_font_fmt_txt.c ****  *  Compares the value of both input arguments.
 466:..\..\..\lvgl\version_6.1.2\lvgl\src\lv_font/lv_font_fmt_txt.c ****  *
 467:..\..\..\lvgl\version_6.1.2\lvgl\src\lv_font/lv_font_fmt_txt.c ****  *  @param[in]  pRef        Pointer to the reference.
 468:..\..\..\lvgl\version_6.1.2\lvgl\src\lv_font/lv_font_fmt_txt.c ****  *  @param[in]  pElement    Pointer to the element to compare.
 469:..\..\..\lvgl\version_6.1.2\lvgl\src\lv_font/lv_font_fmt_txt.c ****  *
 470:..\..\..\lvgl\version_6.1.2\lvgl\src\lv_font/lv_font_fmt_txt.c ****  *  @return Result of comparison.
 471:..\..\..\lvgl\version_6.1.2\lvgl\src\lv_font/lv_font_fmt_txt.c ****  *  @retval < 0   Reference is greater than element.
 472:..\..\..\lvgl\version_6.1.2\lvgl\src\lv_font/lv_font_fmt_txt.c ****  *  @retval = 0   Reference is equal to element.
 473:..\..\..\lvgl\version_6.1.2\lvgl\src\lv_font/lv_font_fmt_txt.c ****  *  @retval > 0   Reference is less than element.
 474:..\..\..\lvgl\version_6.1.2\lvgl\src\lv_font/lv_font_fmt_txt.c ****  *
 475:..\..\..\lvgl\version_6.1.2\lvgl\src\lv_font/lv_font_fmt_txt.c ****  */
 476:..\..\..\lvgl\version_6.1.2\lvgl\src\lv_font/lv_font_fmt_txt.c **** static int32_t unicode_list_compare(const void * ref, const void * element)
 477:..\..\..\lvgl\version_6.1.2\lvgl\src\lv_font/lv_font_fmt_txt.c **** {
  90              		.loc 1 477 0
  91              		.cfi_startproc
ARM GAS  C:\Users\pearlstl\AppData\Local\Temp\ccllHTLf.s 			page 11


  92              		@ args = 0, pretend = 0, frame = 0
  93              		@ frame_needed = 0, uses_anonymous_args = 0
  94              		@ link register save eliminated.
  95              	.LVL4:
 478:..\..\..\lvgl\version_6.1.2\lvgl\src\lv_font/lv_font_fmt_txt.c ****     return ((int32_t)(*(uint16_t *)ref)) - ((int32_t)(*(uint16_t *)element));
  96              		.loc 1 478 0
  97 0000 0088     		ldrh	r0, [r0]
  98              	.LVL5:
  99 0002 0B88     		ldrh	r3, [r1]
 479:..\..\..\lvgl\version_6.1.2\lvgl\src\lv_font/lv_font_fmt_txt.c **** }
 100              		.loc 1 479 0
 101 0004 C01A     		subs	r0, r0, r3
 102 0006 7047     		bx	lr
 103              		.cfi_endproc
 104              	.LFE43:
 105              		.size	unicode_list_compare, .-unicode_list_compare
 106              		.section	.text.get_glyph_dsc_id.isra.0.part.1,"ax",%progbits
 107              		.align	2
 108              		.thumb
 109              		.thumb_func
 110              		.type	get_glyph_dsc_id.isra.0.part.1, %function
 111              	get_glyph_dsc_id.isra.0.part.1:
 112              	.LFB45:
 162:..\..\..\lvgl\version_6.1.2\lvgl\src\lv_font/lv_font_fmt_txt.c **** {
 113              		.loc 1 162 0
 114              		.cfi_startproc
 115              		@ args = 0, pretend = 0, frame = 8
 116              		@ frame_needed = 0, uses_anonymous_args = 0
 117              	.LVL6:
 118 0000 F0B5     		push	{r4, r5, r6, r7, lr}
 119              		.cfi_def_cfa_offset 20
 120              		.cfi_offset 4, -20
 121              		.cfi_offset 5, -16
 122              		.cfi_offset 6, -12
 123              		.cfi_offset 7, -8
 124              		.cfi_offset 14, -4
 166:..\..\..\lvgl\version_6.1.2\lvgl\src\lv_font/lv_font_fmt_txt.c **** 
 125              		.loc 1 166 0
 126 0002 0568     		ldr	r5, [r0]
 127              	.LVL7:
 169:..\..\..\lvgl\version_6.1.2\lvgl\src\lv_font/lv_font_fmt_txt.c **** 
 128              		.loc 1 169 0
 129 0004 6B69     		ldr	r3, [r5, #20]
 130 0006 8B42     		cmp	r3, r1
 162:..\..\..\lvgl\version_6.1.2\lvgl\src\lv_font/lv_font_fmt_txt.c **** {
 131              		.loc 1 162 0
 132 0008 85B0     		sub	sp, sp, #20
 133              		.cfi_def_cfa_offset 40
 169:..\..\..\lvgl\version_6.1.2\lvgl\src\lv_font/lv_font_fmt_txt.c **** 
 134              		.loc 1 169 0
 135 000a 34D0     		beq	.L10
 136              	.LVL8:
 172:..\..\..\lvgl\version_6.1.2\lvgl\src\lv_font/lv_font_fmt_txt.c **** 
 137              		.loc 1 172 0
 138 000c 6E8A     		ldrh	r6, [r5, #18]
 139 000e C6F30906 		ubfx	r6, r6, #0, #10
 140 0012 002E     		cmp	r6, #0
ARM GAS  C:\Users\pearlstl\AppData\Local\Temp\ccllHTLf.s 			page 12


 141 0014 37D0     		beq	.L12
 142              	.LBB52:
 175:..\..\..\lvgl\version_6.1.2\lvgl\src\lv_font/lv_font_fmt_txt.c ****         if(rcp > fdsc->cmaps[i].range_length) continue;
 143              		.loc 1 175 0
 144 0016 A868     		ldr	r0, [r5, #8]
 145 0018 0268     		ldr	r2, [r0]
 176:..\..\..\lvgl\version_6.1.2\lvgl\src\lv_font/lv_font_fmt_txt.c ****         uint32_t glyph_id = 0;
 146              		.loc 1 176 0
 147 001a 8388     		ldrh	r3, [r0, #4]
 175:..\..\..\lvgl\version_6.1.2\lvgl\src\lv_font/lv_font_fmt_txt.c ****         if(rcp > fdsc->cmaps[i].range_length) continue;
 148              		.loc 1 175 0
 149 001c 8A1A     		subs	r2, r1, r2
 176:..\..\..\lvgl\version_6.1.2\lvgl\src\lv_font/lv_font_fmt_txt.c ****         uint32_t glyph_id = 0;
 150              		.loc 1 176 0
 151 001e 9A42     		cmp	r2, r3
 175:..\..\..\lvgl\version_6.1.2\lvgl\src\lv_font/lv_font_fmt_txt.c ****         if(rcp > fdsc->cmaps[i].range_length) continue;
 152              		.loc 1 175 0
 153 0020 0392     		str	r2, [sp, #12]
 176:..\..\..\lvgl\version_6.1.2\lvgl\src\lv_font/lv_font_fmt_txt.c ****         uint32_t glyph_id = 0;
 154              		.loc 1 176 0
 155 0022 09D8     		bhi	.L23
 156              	.LVL9:
 178:..\..\..\lvgl\version_6.1.2\lvgl\src\lv_font/lv_font_fmt_txt.c ****             glyph_id = fdsc->cmaps[i].glyph_id_start + rcp;
 157              		.loc 1 178 0
 158 0024 837C     		ldrb	r3, [r0, #18]	@ zero_extendqisi2
 175:..\..\..\lvgl\version_6.1.2\lvgl\src\lv_font/lv_font_fmt_txt.c ****         if(rcp > fdsc->cmaps[i].range_length) continue;
 159              		.loc 1 175 0
 160 0026 0027     		movs	r7, #0
 161 0028 0C46     		mov	r4, r1
 178:..\..\..\lvgl\version_6.1.2\lvgl\src\lv_font/lv_font_fmt_txt.c ****             glyph_id = fdsc->cmaps[i].glyph_id_start + rcp;
 162              		.loc 1 178 0
 163 002a E3B9     		cbnz	r3, .L17
 164              	.LVL10:
 165              	.L29:
 179:..\..\..\lvgl\version_6.1.2\lvgl\src\lv_font/lv_font_fmt_txt.c ****         }
 166              		.loc 1 179 0
 167 002c C088     		ldrh	r0, [r0, #6]
 168 002e 1044     		add	r0, r0, r2
 169              	.LVL11:
 170              	.L18:
 206:..\..\..\lvgl\version_6.1.2\lvgl\src\lv_font/lv_font_fmt_txt.c ****         fdsc->last_glyph_id = glyph_id;
 171              		.loc 1 206 0
 172 0030 6C61     		str	r4, [r5, #20]
 207:..\..\..\lvgl\version_6.1.2\lvgl\src\lv_font/lv_font_fmt_txt.c ****         return glyph_id;
 173              		.loc 1 207 0
 174 0032 A861     		str	r0, [r5, #24]
 175              	.LVL12:
 176              	.L13:
 177              	.LBE52:
 215:..\..\..\lvgl\version_6.1.2\lvgl\src\lv_font/lv_font_fmt_txt.c **** 
 178              		.loc 1 215 0
 179 0034 05B0     		add	sp, sp, #20
 180              		.cfi_remember_state
 181              		.cfi_def_cfa_offset 20
 182              		@ sp needed
 183 0036 F0BD     		pop	{r4, r5, r6, r7, pc}
 184              	.LVL13:
ARM GAS  C:\Users\pearlstl\AppData\Local\Temp\ccllHTLf.s 			page 13


 185              	.L23:
 186              		.cfi_restore_state
 187              	.LBB58:
 176:..\..\..\lvgl\version_6.1.2\lvgl\src\lv_font/lv_font_fmt_txt.c ****         uint32_t glyph_id = 0;
 188              		.loc 1 176 0
 189 0038 0023     		movs	r3, #0
 190              	.LVL14:
 191              	.L14:
 192              	.LBE58:
 172:..\..\..\lvgl\version_6.1.2\lvgl\src\lv_font/lv_font_fmt_txt.c **** 
 193              		.loc 1 172 0
 194 003a 0133     		adds	r3, r3, #1
 195              	.LVL15:
 196 003c 9BB2     		uxth	r3, r3
 197              	.LVL16:
 198              	.LBB59:
 175:..\..\..\lvgl\version_6.1.2\lvgl\src\lv_font/lv_font_fmt_txt.c ****         if(rcp > fdsc->cmaps[i].range_length) continue;
 199              		.loc 1 175 0
 200 003e 03EB8302 		add	r2, r3, r3, lsl #2
 201 0042 9700     		lsls	r7, r2, #2
 202              	.LBE59:
 172:..\..\..\lvgl\version_6.1.2\lvgl\src\lv_font/lv_font_fmt_txt.c **** 
 203              		.loc 1 172 0
 204 0044 B342     		cmp	r3, r6
 205              	.LBB60:
 175:..\..\..\lvgl\version_6.1.2\lvgl\src\lv_font/lv_font_fmt_txt.c ****         if(rcp > fdsc->cmaps[i].range_length) continue;
 206              		.loc 1 175 0
 207 0046 00EB070E 		add	lr, r0, r7
 208              	.LBE60:
 172:..\..\..\lvgl\version_6.1.2\lvgl\src\lv_font/lv_font_fmt_txt.c **** 
 209              		.loc 1 172 0
 210 004a 1CDA     		bge	.L12
 211              	.LBB61:
 175:..\..\..\lvgl\version_6.1.2\lvgl\src\lv_font/lv_font_fmt_txt.c ****         if(rcp > fdsc->cmaps[i].range_length) continue;
 212              		.loc 1 175 0
 213 004c 50F82220 		ldr	r2, [r0, r2, lsl #2]
 176:..\..\..\lvgl\version_6.1.2\lvgl\src\lv_font/lv_font_fmt_txt.c ****         uint32_t glyph_id = 0;
 214              		.loc 1 176 0
 215 0050 BEF80440 		ldrh	r4, [lr, #4]
 175:..\..\..\lvgl\version_6.1.2\lvgl\src\lv_font/lv_font_fmt_txt.c ****         if(rcp > fdsc->cmaps[i].range_length) continue;
 216              		.loc 1 175 0
 217 0054 8A1A     		subs	r2, r1, r2
 176:..\..\..\lvgl\version_6.1.2\lvgl\src\lv_font/lv_font_fmt_txt.c ****         uint32_t glyph_id = 0;
 218              		.loc 1 176 0
 219 0056 A242     		cmp	r2, r4
 175:..\..\..\lvgl\version_6.1.2\lvgl\src\lv_font/lv_font_fmt_txt.c ****         if(rcp > fdsc->cmaps[i].range_length) continue;
 220              		.loc 1 175 0
 221 0058 0392     		str	r2, [sp, #12]
 176:..\..\..\lvgl\version_6.1.2\lvgl\src\lv_font/lv_font_fmt_txt.c ****         uint32_t glyph_id = 0;
 222              		.loc 1 176 0
 223 005a EED8     		bhi	.L14
 175:..\..\..\lvgl\version_6.1.2\lvgl\src\lv_font/lv_font_fmt_txt.c ****         if(rcp > fdsc->cmaps[i].range_length) continue;
 224              		.loc 1 175 0
 225 005c 7046     		mov	r0, lr
 226 005e 0C46     		mov	r4, r1
 227              	.LVL17:
 178:..\..\..\lvgl\version_6.1.2\lvgl\src\lv_font/lv_font_fmt_txt.c ****             glyph_id = fdsc->cmaps[i].glyph_id_start + rcp;
ARM GAS  C:\Users\pearlstl\AppData\Local\Temp\ccllHTLf.s 			page 14


 228              		.loc 1 178 0
 229 0060 837C     		ldrb	r3, [r0, #18]	@ zero_extendqisi2
 230              	.LVL18:
 231 0062 002B     		cmp	r3, #0
 232 0064 E2D0     		beq	.L29
 233              	.L17:
 181:..\..\..\lvgl\version_6.1.2\lvgl\src\lv_font/lv_font_fmt_txt.c ****             const uint8_t * gid_ofs_8 = fdsc->cmaps[i].glyph_id_ofs_list;
 234              		.loc 1 181 0
 235 0066 012B     		cmp	r3, #1
 236 0068 08D0     		beq	.L30
 185:..\..\..\lvgl\version_6.1.2\lvgl\src\lv_font/lv_font_fmt_txt.c ****             uint8_t * p = lv_utils_bsearch(&rcp, fdsc->cmaps[i].unicode_list, fdsc->cmaps[i].list_l
 237              		.loc 1 185 0
 238 006a 022B     		cmp	r3, #2
 239 006c 23D0     		beq	.L31
 194:..\..\..\lvgl\version_6.1.2\lvgl\src\lv_font/lv_font_fmt_txt.c ****             uint8_t * p = lv_utils_bsearch(&rcp, fdsc->cmaps[i].unicode_list, fdsc->cmaps[i].list_l
 240              		.loc 1 194 0
 241 006e 032B     		cmp	r3, #3
 242 0070 0DD0     		beq	.L32
 243              	.LVL19:
 244              	.L22:
 177:..\..\..\lvgl\version_6.1.2\lvgl\src\lv_font/lv_font_fmt_txt.c ****         if(fdsc->cmaps[i].type == LV_FONT_FMT_TXT_CMAP_FORMAT0_TINY) {
 245              		.loc 1 177 0
 246 0072 0020     		movs	r0, #0
 247 0074 DCE7     		b	.L18
 248              	.LVL20:
 249              	.L10:
 250              	.LBE61:
 169:..\..\..\lvgl\version_6.1.2\lvgl\src\lv_font/lv_font_fmt_txt.c **** 
 251              		.loc 1 169 0
 252 0076 A869     		ldr	r0, [r5, #24]
 215:..\..\..\lvgl\version_6.1.2\lvgl\src\lv_font/lv_font_fmt_txt.c **** 
 253              		.loc 1 215 0
 254 0078 05B0     		add	sp, sp, #20
 255              		.cfi_remember_state
 256              		.cfi_def_cfa_offset 20
 257              		@ sp needed
 258 007a F0BD     		pop	{r4, r5, r6, r7, pc}
 259              	.LVL21:
 260              	.L30:
 261              		.cfi_restore_state
 262              	.LBB62:
 263              	.LBB53:
 183:..\..\..\lvgl\version_6.1.2\lvgl\src\lv_font/lv_font_fmt_txt.c ****         }
 264              		.loc 1 183 0
 265 007c C168     		ldr	r1, [r0, #12]
 266              	.LVL22:
 267 007e C388     		ldrh	r3, [r0, #6]
 268 0080 885C     		ldrb	r0, [r1, r2]	@ zero_extendqisi2
 269              	.LVL23:
 270 0082 1844     		add	r0, r0, r3
 271              	.LVL24:
 272 0084 D4E7     		b	.L18
 273              	.LVL25:
 274              	.L12:
 275              	.LBE53:
 276              	.LBE62:
 212:..\..\..\lvgl\version_6.1.2\lvgl\src\lv_font/lv_font_fmt_txt.c ****     return 0;
ARM GAS  C:\Users\pearlstl\AppData\Local\Temp\ccllHTLf.s 			page 15


 277              		.loc 1 212 0
 278 0086 0020     		movs	r0, #0
 211:..\..\..\lvgl\version_6.1.2\lvgl\src\lv_font/lv_font_fmt_txt.c ****     fdsc->last_glyph_id = 0;
 279              		.loc 1 211 0
 280 0088 6961     		str	r1, [r5, #20]
 212:..\..\..\lvgl\version_6.1.2\lvgl\src\lv_font/lv_font_fmt_txt.c ****     return 0;
 281              		.loc 1 212 0
 282 008a A861     		str	r0, [r5, #24]
 283 008c D2E7     		b	.L13
 284              	.LVL26:
 285              	.L32:
 286              	.LBB63:
 287              	.LBB54:
 195:..\..\..\lvgl\version_6.1.2\lvgl\src\lv_font/lv_font_fmt_txt.c **** 
 288              		.loc 1 195 0
 289 008e 124B     		ldr	r3, .L33
 290 0090 028A     		ldrh	r2, [r0, #16]
 291 0092 8168     		ldr	r1, [r0, #8]
 292              	.LVL27:
 293 0094 0093     		str	r3, [sp]
 294 0096 03A8     		add	r0, sp, #12
 295 0098 0223     		movs	r3, #2
 296 009a FFF7FEFF 		bl	lv_utils_bsearch
 297              	.LVL28:
 197:..\..\..\lvgl\version_6.1.2\lvgl\src\lv_font/lv_font_fmt_txt.c ****                 lv_uintptr_t ofs = (lv_uintptr_t)(p - (uint8_t*) fdsc->cmaps[i].unicode_list);
 298              		.loc 1 197 0
 299 009e 0028     		cmp	r0, #0
 300 00a0 E7D0     		beq	.L22
 301              	.LBB55:
 198:..\..\..\lvgl\version_6.1.2\lvgl\src\lv_font/lv_font_fmt_txt.c ****                 ofs = ofs >> 1;     /*The list stores `uint16_t` so the get the index divide by 2*/
 302              		.loc 1 198 0
 303 00a2 AB68     		ldr	r3, [r5, #8]
 304 00a4 1F44     		add	r7, r7, r3
 305 00a6 B968     		ldr	r1, [r7, #8]
 201:..\..\..\lvgl\version_6.1.2\lvgl\src\lv_font/lv_font_fmt_txt.c ****             }
 306              		.loc 1 201 0
 307 00a8 FA68     		ldr	r2, [r7, #12]
 308 00aa FB88     		ldrh	r3, [r7, #6]
 198:..\..\..\lvgl\version_6.1.2\lvgl\src\lv_font/lv_font_fmt_txt.c ****                 ofs = ofs >> 1;     /*The list stores `uint16_t` so the get the index divide by 2*/
 309              		.loc 1 198 0
 310 00ac 401A     		subs	r0, r0, r1
 311              	.LVL29:
 201:..\..\..\lvgl\version_6.1.2\lvgl\src\lv_font/lv_font_fmt_txt.c ****             }
 312              		.loc 1 201 0
 313 00ae 4008     		lsrs	r0, r0, #1
 314              	.LVL30:
 315 00b0 125C     		ldrb	r2, [r2, r0]	@ zero_extendqisi2
 316 00b2 D018     		adds	r0, r2, r3
 317              	.LVL31:
 318 00b4 BCE7     		b	.L18
 319              	.LVL32:
 320              	.L31:
 321              	.LBE55:
 322              	.LBE54:
 323              	.LBB56:
 186:..\..\..\lvgl\version_6.1.2\lvgl\src\lv_font/lv_font_fmt_txt.c **** 
 324              		.loc 1 186 0
ARM GAS  C:\Users\pearlstl\AppData\Local\Temp\ccllHTLf.s 			page 16


 325 00b6 028A     		ldrh	r2, [r0, #16]
 326 00b8 8168     		ldr	r1, [r0, #8]
 327              	.LVL33:
 328 00ba 0748     		ldr	r0, .L33
 329 00bc 0090     		str	r0, [sp]
 330 00be 03A8     		add	r0, sp, #12
 331 00c0 FFF7FEFF 		bl	lv_utils_bsearch
 332              	.LVL34:
 188:..\..\..\lvgl\version_6.1.2\lvgl\src\lv_font/lv_font_fmt_txt.c ****                 lv_uintptr_t ofs = (lv_uintptr_t)(p - (uint8_t *) fdsc->cmaps[i].unicode_list);
 333              		.loc 1 188 0
 334 00c4 0028     		cmp	r0, #0
 335 00c6 D4D0     		beq	.L22
 336              	.LBB57:
 189:..\..\..\lvgl\version_6.1.2\lvgl\src\lv_font/lv_font_fmt_txt.c ****                 ofs = ofs >> 1;     /*The list stores `uint16_t` so the get the index divide by 2*/
 337              		.loc 1 189 0
 338 00c8 AB68     		ldr	r3, [r5, #8]
 339 00ca 1F44     		add	r7, r7, r3
 340 00cc BA68     		ldr	r2, [r7, #8]
 191:..\..\..\lvgl\version_6.1.2\lvgl\src\lv_font/lv_font_fmt_txt.c ****             }
 341              		.loc 1 191 0
 342 00ce FB88     		ldrh	r3, [r7, #6]
 189:..\..\..\lvgl\version_6.1.2\lvgl\src\lv_font/lv_font_fmt_txt.c ****                 ofs = ofs >> 1;     /*The list stores `uint16_t` so the get the index divide by 2*/
 343              		.loc 1 189 0
 344 00d0 801A     		subs	r0, r0, r2
 345              	.LVL35:
 191:..\..\..\lvgl\version_6.1.2\lvgl\src\lv_font/lv_font_fmt_txt.c ****             }
 346              		.loc 1 191 0
 347 00d2 03EB5000 		add	r0, r3, r0, lsr #1
 348              	.LVL36:
 349 00d6 ABE7     		b	.L18
 350              	.L34:
 351              		.align	2
 352              	.L33:
 353 00d8 00000000 		.word	unicode_list_compare
 354              	.LBE57:
 355              	.LBE56:
 356              	.LBE63:
 357              		.cfi_endproc
 358              	.LFE45:
 359              		.size	get_glyph_dsc_id.isra.0.part.1, .-get_glyph_dsc_id.isra.0.part.1
 360              		.section	.text.lv_font_get_bitmap_fmt_txt,"ax",%progbits
 361              		.align	2
 362              		.global	lv_font_get_bitmap_fmt_txt
 363              		.thumb
 364              		.thumb_func
 365              		.type	lv_font_get_bitmap_fmt_txt, %function
 366              	lv_font_get_bitmap_fmt_txt:
 367              	.LFB31:
  78:..\..\..\lvgl\version_6.1.2\lvgl\src\lv_font/lv_font_fmt_txt.c ****     lv_font_fmt_txt_dsc_t * fdsc = (lv_font_fmt_txt_dsc_t *) font->dsc;
 368              		.loc 1 78 0
 369              		.cfi_startproc
 370              		@ args = 0, pretend = 0, frame = 80
 371              		@ frame_needed = 0, uses_anonymous_args = 0
 372              	.LVL37:
 373              	.LBB107:
 374              	.LBB108:
 164:..\..\..\lvgl\version_6.1.2\lvgl\src\lv_font/lv_font_fmt_txt.c **** 
ARM GAS  C:\Users\pearlstl\AppData\Local\Temp\ccllHTLf.s 			page 17


 375              		.loc 1 164 0
 376 0000 09B9     		cbnz	r1, .L164
 377              	.LBE108:
 378              	.LBE107:
  81:..\..\..\lvgl\version_6.1.2\lvgl\src\lv_font/lv_font_fmt_txt.c **** 
 379              		.loc 1 81 0
 380 0002 0020     		movs	r0, #0
 381              	.LVL38:
 116:..\..\..\lvgl\version_6.1.2\lvgl\src\lv_font/lv_font_fmt_txt.c **** 
 382              		.loc 1 116 0
 383 0004 7047     		bx	lr
 384              	.LVL39:
 385              	.L164:
  78:..\..\..\lvgl\version_6.1.2\lvgl\src\lv_font/lv_font_fmt_txt.c ****     lv_font_fmt_txt_dsc_t * fdsc = (lv_font_fmt_txt_dsc_t *) font->dsc;
 386              		.loc 1 78 0
 387 0006 2DE9F04F 		push	{r4, r5, r6, r7, r8, r9, r10, fp, lr}
 388              		.cfi_def_cfa_offset 36
 389              		.cfi_offset 4, -36
 390              		.cfi_offset 5, -32
 391              		.cfi_offset 6, -28
 392              		.cfi_offset 7, -24
 393              		.cfi_offset 8, -20
 394              		.cfi_offset 9, -16
 395              		.cfi_offset 10, -12
 396              		.cfi_offset 11, -8
 397              		.cfi_offset 14, -4
  79:..\..\..\lvgl\version_6.1.2\lvgl\src\lv_font/lv_font_fmt_txt.c ****     uint32_t gid = get_glyph_dsc_id(font, unicode_letter);
 398              		.loc 1 79 0
 399 000a 50F80C4F 		ldr	r4, [r0, #12]!
 400              	.LVL40:
  78:..\..\..\lvgl\version_6.1.2\lvgl\src\lv_font/lv_font_fmt_txt.c ****     lv_font_fmt_txt_dsc_t * fdsc = (lv_font_fmt_txt_dsc_t *) font->dsc;
 401              		.loc 1 78 0
 402 000e 95B0     		sub	sp, sp, #84
 403              		.cfi_def_cfa_offset 120
 404              	.LBB110:
 405              	.LBB109:
 406 0010 FFF7FEFF 		bl	get_glyph_dsc_id.isra.0.part.1
 407              	.LVL41:
 408              	.LBE109:
 409              	.LBE110:
  81:..\..\..\lvgl\version_6.1.2\lvgl\src\lv_font/lv_font_fmt_txt.c **** 
 410              		.loc 1 81 0
 411 0014 8046     		mov	r8, r0
 412 0016 0028     		cmp	r0, #0
 413 0018 00F08181 		beq	.L38
  85:..\..\..\lvgl\version_6.1.2\lvgl\src\lv_font/lv_font_fmt_txt.c ****         if(gdsc) return &fdsc->glyph_bitmap[gdsc->bitmap_index];
 414              		.loc 1 85 0
 415 001c E37C     		ldrb	r3, [r4, #19]	@ zero_extendqisi2
  83:..\..\..\lvgl\version_6.1.2\lvgl\src\lv_font/lv_font_fmt_txt.c **** 
 416              		.loc 1 83 0
 417 001e 6768     		ldr	r7, [r4, #4]
  85:..\..\..\lvgl\version_6.1.2\lvgl\src\lv_font/lv_font_fmt_txt.c ****         if(gdsc) return &fdsc->glyph_bitmap[gdsc->bitmap_index];
 418              		.loc 1 85 0
 419 0020 13F0C00F 		tst	r3, #192
  83:..\..\..\lvgl\version_6.1.2\lvgl\src\lv_font/lv_font_fmt_txt.c **** 
 420              		.loc 1 83 0
 421 0024 07EBC005 		add	r5, r7, r0, lsl #3
ARM GAS  C:\Users\pearlstl\AppData\Local\Temp\ccllHTLf.s 			page 18


 422              	.LVL42:
  85:..\..\..\lvgl\version_6.1.2\lvgl\src\lv_font/lv_font_fmt_txt.c ****         if(gdsc) return &fdsc->glyph_bitmap[gdsc->bitmap_index];
 423              		.loc 1 85 0
 424 0028 0BD1     		bne	.L39
  86:..\..\..\lvgl\version_6.1.2\lvgl\src\lv_font/lv_font_fmt_txt.c ****     }
 425              		.loc 1 86 0
 426 002a 002D     		cmp	r5, #0
 427 002c 00F07781 		beq	.L38
  86:..\..\..\lvgl\version_6.1.2\lvgl\src\lv_font/lv_font_fmt_txt.c ****     }
 428              		.loc 1 86 0 is_stmt 0 discriminator 1
 429 0030 57F83030 		ldr	r3, [r7, r0, lsl #3]
 430 0034 2068     		ldr	r0, [r4]
 431 0036 C3F31303 		ubfx	r3, r3, #0, #20
 432 003a 1844     		add	r0, r0, r3
 433              	.LVL43:
 434              	.L37:
 116:..\..\..\lvgl\version_6.1.2\lvgl\src\lv_font/lv_font_fmt_txt.c **** 
 435              		.loc 1 116 0 is_stmt 1
 436 003c 15B0     		add	sp, sp, #84
 437              		.cfi_remember_state
 438              		.cfi_def_cfa_offset 36
 439              		@ sp needed
 440 003e BDE8F08F 		pop	{r4, r5, r6, r7, r8, r9, r10, fp, pc}
 441              	.LVL44:
 442              	.L39:
 443              		.cfi_restore_state
 444              	.LBB111:
  93:..\..\..\lvgl\version_6.1.2\lvgl\src\lv_font/lv_font_fmt_txt.c ****         if(gsize == 0) return NULL;
 445              		.loc 1 93 0
 446 0042 2E79     		ldrb	r6, [r5, #4]	@ zero_extendqisi2
 447 0044 6A79     		ldrb	r2, [r5, #5]	@ zero_extendqisi2
 448 0046 16FB02F6 		smulbb	r6, r6, r2
 449              	.LVL45:
  94:..\..\..\lvgl\version_6.1.2\lvgl\src\lv_font/lv_font_fmt_txt.c **** 
 450              		.loc 1 94 0
 451 004a 002E     		cmp	r6, #0
 452 004c 00F06781 		beq	.L38
 453              	.LVL46:
  97:..\..\..\lvgl\version_6.1.2\lvgl\src\lv_font/lv_font_fmt_txt.c ****         case 1: buf_size = gsize >> 3;  break;
 454              		.loc 1 97 0
 455 0050 C3F38203 		ubfx	r3, r3, #2, #3
 456 0054 013B     		subs	r3, r3, #1
 457 0056 032B     		cmp	r3, #3
 458 0058 06D8     		bhi	.L40
 459 005a DFE813F0 		tbh	[pc, r3, lsl #1]
 460              	.L42:
 461 005e 4001     		.2byte	(.L41-.L42)/2
 462 0060 3E01     		.2byte	(.L43-.L42)/2
 463 0062 0400     		.2byte	(.L45-.L42)/2
 464 0064 0400     		.2byte	(.L45-.L42)/2
 465              		.p2align 1
 466              	.L45:
 101:..\..\..\lvgl\version_6.1.2\lvgl\src\lv_font/lv_font_fmt_txt.c ****         }
 467              		.loc 1 101 0
 468 0066 7608     		lsrs	r6, r6, #1
 469              	.LVL47:
 470              	.L40:
ARM GAS  C:\Users\pearlstl\AppData\Local\Temp\ccllHTLf.s 			page 19


 104:..\..\..\lvgl\version_6.1.2\lvgl\src\lv_font/lv_font_fmt_txt.c ****             buf = lv_mem_realloc(buf, buf_size);
 471              		.loc 1 104 0
 472 0068 BA4B     		ldr	r3, .L181
 473 006a 1868     		ldr	r0, [r3]
 474 006c FFF7FEFF 		bl	lv_mem_get_size
 475              	.LVL48:
 476 0070 8642     		cmp	r6, r0
 477 0072 00F22881 		bhi	.L46
 478 0076 B74B     		ldr	r3, .L181
 479 0078 D3F800A0 		ldr	r10, [r3]
 480              	.L47:
 110:..\..\..\lvgl\version_6.1.2\lvgl\src\lv_font/lv_font_fmt_txt.c ****         return buf;
 481              		.loc 1 110 0
 482 007c 2979     		ldrb	r1, [r5, #4]	@ zero_extendqisi2
 483 007e E27C     		ldrb	r2, [r4, #19]	@ zero_extendqisi2
 484 0080 57F83830 		ldr	r3, [r7, r8, lsl #3]
 485 0084 0291     		str	r1, [sp, #8]
 486 0086 0E46     		mov	r6, r1
 487              	.LVL49:
 488 0088 C2F38202 		ubfx	r2, r2, #2, #3
 489 008c 2168     		ldr	r1, [r4]
 490              	.LBB112:
 491              	.LBB113:
 492              	.LBB114:
 493              	.LBB115:
 399:..\..\..\lvgl\version_6.1.2\lvgl\src\lv_font/lv_font_fmt_txt.c ****     rle_bpp = bpp;
 494              		.loc 1 399 0
 495 008e B14F     		ldr	r7, .L181
 496              	.LBE115:
 497              	.LBE114:
 498              	.LBE113:
 499              	.LBE112:
 110:..\..\..\lvgl\version_6.1.2\lvgl\src\lv_font/lv_font_fmt_txt.c ****         return buf;
 500              		.loc 1 110 0
 501 0090 6C79     		ldrb	r4, [r5, #5]	@ zero_extendqisi2
 502 0092 0C94     		str	r4, [sp, #48]
 503 0094 5FFA82F9 		uxtb	r9, r2
 504 0098 C3F31303 		ubfx	r3, r3, #0, #20
 505 009c 0B44     		add	r3, r3, r1
 506              	.LVL50:
 507 009e 30B2     		sxth	r0, r6
 508              	.LVL51:
 509              	.LBB236:
 510              	.LBB230:
 304:..\..\..\lvgl\version_6.1.2\lvgl\src\lv_font/lv_font_fmt_txt.c **** 
 511              		.loc 1 304 0
 512 00a0 B9F1030F 		cmp	r9, #3
 513              	.LBB121:
 514              	.LBB116:
 401:..\..\..\lvgl\version_6.1.2\lvgl\src\lv_font/lv_font_fmt_txt.c ****     rle_rdp = 0;
 515              		.loc 1 401 0
 516 00a4 4FF00004 		mov	r4, #0
 517              	.LBE116:
 518              	.LBE121:
 519              	.LBE230:
 520              	.LBE236:
 110:..\..\..\lvgl\version_6.1.2\lvgl\src\lv_font/lv_font_fmt_txt.c ****         return buf;
ARM GAS  C:\Users\pearlstl\AppData\Local\Temp\ccllHTLf.s 			page 20


 521              		.loc 1 110 0
 522 00a8 0D90     		str	r0, [sp, #52]
 523              	.LBB237:
 524              	.LBB231:
 525              	.LBB122:
 526              	.LBB117:
 399:..\..\..\lvgl\version_6.1.2\lvgl\src\lv_font/lv_font_fmt_txt.c ****     rle_bpp = bpp;
 527              		.loc 1 399 0
 528 00aa 7B60     		str	r3, [r7, #4]
 529              	.LBE117:
 530              	.LBE122:
 531              	.LBE231:
 532              	.LBE237:
 110:..\..\..\lvgl\version_6.1.2\lvgl\src\lv_font/lv_font_fmt_txt.c ****         return buf;
 533              		.loc 1 110 0
 534 00ac 0546     		mov	r5, r0
 535              	.LVL52:
 536              	.LBB238:
 537              	.LBB232:
 538              	.LBB123:
 539              	.LBB118:
 400:..\..\..\lvgl\version_6.1.2\lvgl\src\lv_font/lv_font_fmt_txt.c ****     rle_state = RLE_STATE_SINGLE;
 540              		.loc 1 400 0
 541 00ae 3B46     		mov	r3, r7
 542              	.LVL53:
 543              	.LBE118:
 544              	.LBE123:
 308:..\..\..\lvgl\version_6.1.2\lvgl\src\lv_font/lv_font_fmt_txt.c ****     uint8_t * line_buf1 = line_buf;
 545              		.loc 1 308 0
 546 00b0 4FEA4000 		lsl	r0, r0, #1
 547              	.LVL54:
 304:..\..\..\lvgl\version_6.1.2\lvgl\src\lv_font/lv_font_fmt_txt.c **** 
 548              		.loc 1 304 0
 549 00b4 14BF     		ite	ne
 550 00b6 4B46     		movne	r3, r9
 551 00b8 0423     		moveq	r3, #4
 552              	.LBB124:
 553              	.LBB119:
 400:..\..\..\lvgl\version_6.1.2\lvgl\src\lv_font/lv_font_fmt_txt.c ****     rle_state = RLE_STATE_SINGLE;
 554              		.loc 1 400 0
 555 00ba 3A72     		strb	r2, [r7, #8]
 556              	.LBE119:
 557              	.LBE124:
 304:..\..\..\lvgl\version_6.1.2\lvgl\src\lv_font/lv_font_fmt_txt.c **** 
 558              		.loc 1 304 0
 559 00bc 0493     		str	r3, [sp, #16]
 560              	.LVL55:
 561              	.LBB125:
 562              	.LBB120:
 401:..\..\..\lvgl\version_6.1.2\lvgl\src\lv_font/lv_font_fmt_txt.c ****     rle_rdp = 0;
 563              		.loc 1 401 0
 564 00be 7C72     		strb	r4, [r7, #9]
 402:..\..\..\lvgl\version_6.1.2\lvgl\src\lv_font/lv_font_fmt_txt.c ****     rle_prev_v = 0;
 565              		.loc 1 402 0
 566 00c0 FC60     		str	r4, [r7, #12]
 403:..\..\..\lvgl\version_6.1.2\lvgl\src\lv_font/lv_font_fmt_txt.c ****     rle_cnt = 0;
 567              		.loc 1 403 0
ARM GAS  C:\Users\pearlstl\AppData\Local\Temp\ccllHTLf.s 			page 21


 568 00c2 3C74     		strb	r4, [r7, #16]
 404:..\..\..\lvgl\version_6.1.2\lvgl\src\lv_font/lv_font_fmt_txt.c **** }
 569              		.loc 1 404 0
 570 00c4 7C74     		strb	r4, [r7, #17]
 571              	.LVL56:
 572              	.LBE120:
 573              	.LBE125:
 308:..\..\..\lvgl\version_6.1.2\lvgl\src\lv_font/lv_font_fmt_txt.c ****     uint8_t * line_buf1 = line_buf;
 574              		.loc 1 308 0
 575 00c6 FFF7FEFF 		bl	lv_draw_get_buf
 576              	.LVL57:
 310:..\..\..\lvgl\version_6.1.2\lvgl\src\lv_font/lv_font_fmt_txt.c **** 
 577              		.loc 1 310 0
 578 00ca 0346     		mov	r3, r0
 579 00cc 9919     		adds	r1, r3, r6
 308:..\..\..\lvgl\version_6.1.2\lvgl\src\lv_font/lv_font_fmt_txt.c ****     uint8_t * line_buf1 = line_buf;
 580              		.loc 1 308 0
 581 00ce 8446     		mov	ip, r0
 310:..\..\..\lvgl\version_6.1.2\lvgl\src\lv_font/lv_font_fmt_txt.c **** 
 582              		.loc 1 310 0
 583 00d0 0E90     		str	r0, [sp, #56]
 584 00d2 3246     		mov	r2, r6
 585 00d4 0F91     		str	r1, [sp, #60]
 586              	.LVL58:
 587              	.LBB126:
 588              	.LBB127:
 340:..\..\..\lvgl\version_6.1.2\lvgl\src\lv_font/lv_font_fmt_txt.c ****         out[i] = rle_next();
 589              		.loc 1 340 0
 590 00d6 002D     		cmp	r5, #0
 591 00d8 00F03E81 		beq	.L102
 592              	.LBB128:
 593              	.LBB129:
 413:..\..\..\lvgl\version_6.1.2\lvgl\src\lv_font/lv_font_fmt_txt.c ****         if(rle_rdp != 0 && rle_prev_v == ret) {
 594              		.loc 1 413 0
 595 00dc 97F808B0 		ldrb	fp, [r7, #8]	@ zero_extendqisi2
 596 00e0 797C     		ldrb	r1, [r7, #17]	@ zero_extendqisi2
 597              	.LVL59:
 598 00e2 0191     		str	r1, [sp, #4]
 599 00e4 013A     		subs	r2, r2, #1
 600              	.LBB130:
 601              	.LBB131:
 360:..\..\..\lvgl\version_6.1.2\lvgl\src\lv_font/lv_font_fmt_txt.c ****     return res;
 602              		.loc 1 360 0
 603 00e6 0123     		movs	r3, #1
 604 00e8 A046     		mov	r8, r4
 605 00ea 03FA0BF3 		lsl	r3, r3, fp
 606 00ee 94B2     		uxth	r4, r2
 607 00f0 CBF11002 		rsb	r2, fp, #16
 608 00f4 0CF1FF30 		add	r0, ip, #-1
 609              	.LVL60:
 610 00f8 0392     		str	r2, [sp, #12]
 611 00fa 013B     		subs	r3, r3, #1
 612              	.LBE131:
 613              	.LBE130:
 413:..\..\..\lvgl\version_6.1.2\lvgl\src\lv_font/lv_font_fmt_txt.c ****         if(rle_rdp != 0 && rle_prev_v == ret) {
 614              		.loc 1 413 0
 615 00fc 7E68     		ldr	r6, [r7, #4]
ARM GAS  C:\Users\pearlstl\AppData\Local\Temp\ccllHTLf.s 			page 22


 616 00fe F968     		ldr	r1, [r7, #12]
 617 0100 7D7A     		ldrb	r5, [r7, #9]	@ zero_extendqisi2
 618              	.LVL61:
 619              	.LBB135:
 620              	.LBB132:
 360:..\..\..\lvgl\version_6.1.2\lvgl\src\lv_font/lv_font_fmt_txt.c ****     return res;
 621              		.loc 1 360 0
 622 0102 97F810E0 		ldrb	lr, [r7, #16]	@ zero_extendqisi2
 623 0106 0594     		str	r4, [sp, #20]
 624 0108 2746     		mov	r7, r4
 625 010a 5BB2     		sxtb	r3, r3
 626 010c 0446     		mov	r4, r0
 627 010e 0790     		str	r0, [sp, #28]
 628 0110 CDF820A0 		str	r10, [sp, #32]
 629 0114 0198     		ldr	r0, [sp, #4]
 630 0116 DDF80CA0 		ldr	r10, [sp, #12]
 631 011a CDF81890 		str	r9, [sp, #24]
 632 011e BC44     		add	ip, ip, r7
 633              	.LVL62:
 634 0120 CDF80080 		str	r8, [sp]
 635 0124 4746     		mov	r7, r8
 636 0126 4246     		mov	r2, r8
 637 0128 9946     		mov	r9, r3
 638              	.LVL63:
 639              	.L55:
 640              	.LBE132:
 641              	.LBE135:
 412:..\..\..\lvgl\version_6.1.2\lvgl\src\lv_font/lv_font_fmt_txt.c ****         ret = get_bits(rle_in, rle_rdp, rle_bpp);
 642              		.loc 1 412 0
 643 012a 002D     		cmp	r5, #0
 644 012c 70D1     		bne	.L50
 645              	.LVL64:
 646              	.LBB136:
 647              	.LBB133:
 355:..\..\..\lvgl\version_6.1.2\lvgl\src\lv_font/lv_font_fmt_txt.c ****     bit_pos = bit_pos & 0x7;
 648              		.loc 1 355 0
 649 012e CA08     		lsrs	r2, r1, #3
 650              	.LVL65:
 358:..\..\..\lvgl\version_6.1.2\lvgl\src\lv_font/lv_font_fmt_txt.c **** 
 651              		.loc 1 358 0
 652 0130 B318     		adds	r3, r6, r2
 653              	.LVL66:
 360:..\..\..\lvgl\version_6.1.2\lvgl\src\lv_font/lv_font_fmt_txt.c ****     return res;
 654              		.loc 1 360 0
 655 0132 B25C     		ldrb	r2, [r6, r2]	@ zero_extendqisi2
 656              	.LVL67:
 657 0134 5B78     		ldrb	r3, [r3, #1]	@ zero_extendqisi2
 658              	.LVL68:
 659 0136 03EB0223 		add	r3, r3, r2, lsl #8
 660 013a 01F00702 		and	r2, r1, #7
 661              	.LVL69:
 662 013e 9BB2     		uxth	r3, r3
 663 0140 C2EB0A02 		rsb	r2, r2, r10
 664              	.LVL70:
 665 0144 1341     		asrs	r3, r3, r2
 666 0146 09EA0303 		and	r3, r9, r3
 667 014a DBB2     		uxtb	r3, r3
ARM GAS  C:\Users\pearlstl\AppData\Local\Temp\ccllHTLf.s 			page 23


 668              	.LVL71:
 669              	.LBE133:
 670              	.LBE136:
 414:..\..\..\lvgl\version_6.1.2\lvgl\src\lv_font/lv_font_fmt_txt.c ****             rle_cnt = 0;
 671              		.loc 1 414 0
 672 014c 39B1     		cbz	r1, .L51
 673 014e 7345     		cmp	r3, lr
 674 0150 05D1     		bne	.L51
 675 0152 4FF00108 		mov	r8, #1
 415:..\..\..\lvgl\version_6.1.2\lvgl\src\lv_font/lv_font_fmt_txt.c ****             rle_state = RLE_STATE_REPEATE;
 676              		.loc 1 415 0
 677 0156 2846     		mov	r0, r5
 414:..\..\..\lvgl\version_6.1.2\lvgl\src\lv_font/lv_font_fmt_txt.c ****             rle_cnt = 0;
 678              		.loc 1 414 0
 679 0158 CDF80080 		str	r8, [sp]
 416:..\..\..\lvgl\version_6.1.2\lvgl\src\lv_font/lv_font_fmt_txt.c ****         }
 680              		.loc 1 416 0
 681 015c 4546     		mov	r5, r8
 682              	.L51:
 420:..\..\..\lvgl\version_6.1.2\lvgl\src\lv_font/lv_font_fmt_txt.c ****     }
 683              		.loc 1 420 0
 684 015e 0127     		movs	r7, #1
 685 0160 5944     		add	r1, r1, fp
 686 0162 3A46     		mov	r2, r7
 687              	.LBB137:
 688              	.LBB134:
 360:..\..\..\lvgl\version_6.1.2\lvgl\src\lv_font/lv_font_fmt_txt.c ****     return res;
 689              		.loc 1 360 0
 690 0164 9E46     		mov	lr, r3
 691              	.LVL72:
 692              	.L52:
 693              	.LBE134:
 694              	.LBE137:
 695              	.LBE129:
 696              	.LBE128:
 341:..\..\..\lvgl\version_6.1.2\lvgl\src\lv_font/lv_font_fmt_txt.c ****     }
 697              		.loc 1 341 0
 698 0166 04F8013F 		strb	r3, [r4, #1]!
 340:..\..\..\lvgl\version_6.1.2\lvgl\src\lv_font/lv_font_fmt_txt.c ****         out[i] = rle_next();
 699              		.loc 1 340 0
 700 016a 6445     		cmp	r4, ip
 701 016c DDD1     		bne	.L55
 702 016e 0190     		str	r0, [sp, #4]
 703 0170 DDF81890 		ldr	r9, [sp, #24]
 704 0174 DDF820A0 		ldr	r10, [sp, #32]
 705 0178 0798     		ldr	r0, [sp, #28]
 706 017a 002A     		cmp	r2, #0
 707 017c 40F0A382 		bne	.L165
 708              	.L56:
 709 0180 002F     		cmp	r7, #0
 710 0182 40F00683 		bne	.L166
 711              	.L57:
 712 0186 009B     		ldr	r3, [sp]
 713 0188 0BB1     		cbz	r3, .L58
 714 018a 724B     		ldr	r3, .L181
 715 018c 5D72     		strb	r5, [r3, #9]
 716              	.L58:
ARM GAS  C:\Users\pearlstl\AppData\Local\Temp\ccllHTLf.s 			page 24


 717 018e B8F1000F 		cmp	r8, #0
 718 0192 03D0     		beq	.L59
 719 0194 6F4B     		ldr	r3, .L181
 720 0196 9DF80420 		ldrb	r2, [sp, #4]	@ zero_extendqisi2
 721 019a 5A74     		strb	r2, [r3, #17]
 722              	.L59:
 723 019c 4FF0FF35 		mov	r5, #-1
 724 01a0 05FA09F5 		lsl	r5, r5, r9
 725 01a4 65F0FF05 		orn	r5, r5, #255
 726 01a8 0095     		str	r5, [sp]
 727              	.LBB162:
 728              	.LBB158:
 455:..\..\..\lvgl\version_6.1.2\lvgl\src\lv_font/lv_font_fmt_txt.c ****             rle_state = RLE_STATE_SINGLE;
 729              		.loc 1 455 0
 730 01aa 0021     		movs	r1, #0
 731 01ac 0F27     		movs	r7, #15
 732 01ae 4FF00D0E 		mov	lr, #13
 733 01b2 4FF00908 		mov	r8, #9
 734 01b6 4FF0040B 		mov	fp, #4
 735 01ba 049D     		ldr	r5, [sp, #16]
 736 01bc 16E0     		b	.L72
 737              	.LVL73:
 738              	.L168:
 739 01be 01F00703 		and	r3, r1, #7
 740 01c2 C3F10803 		rsb	r3, r3, #8
 741 01c6 C9EB0303 		rsb	r3, r9, r3
 742 01ca 9C40     		lsls	r4, r4, r3
 743              	.LVL74:
 744              	.LBE158:
 745              	.LBE162:
 746              	.LBE127:
 747              	.LBE126:
 748              	.LBB169:
 749              	.LBB170:
 374:..\..\..\lvgl\version_6.1.2\lvgl\src\lv_font/lv_font_fmt_txt.c ****         len = 4;
 750              		.loc 1 374 0
 751 01cc 009A     		ldr	r2, [sp]
 752 01ce 64B2     		sxtb	r4, r4
 753              	.LVL75:
 754              	.L61:
 393:..\..\..\lvgl\version_6.1.2\lvgl\src\lv_font/lv_font_fmt_txt.c ****     out[byte_pos] |= (val << bit_pos);
 755              		.loc 1 393 0
 756 01d0 C1F3CF06 		ubfx	r6, r1, #3, #16
 394:..\..\..\lvgl\version_6.1.2\lvgl\src\lv_font/lv_font_fmt_txt.c **** }
 757              		.loc 1 394 0
 758 01d4 02FA03F3 		lsl	r3, r2, r3
 759 01d8 1AF80620 		ldrb	r2, [r10, r6]	@ zero_extendqisi2
 760 01dc 1340     		ands	r3, r3, r2
 761 01de 1C43     		orrs	r4, r4, r3
 762              	.LBE170:
 763              	.LBE169:
 316:..\..\..\lvgl\version_6.1.2\lvgl\src\lv_font/lv_font_fmt_txt.c ****         bits_write(out,wrp, line_buf1[x], bpp);
 764              		.loc 1 316 0
 765 01e0 6045     		cmp	r0, ip
 318:..\..\..\lvgl\version_6.1.2\lvgl\src\lv_font/lv_font_fmt_txt.c ****     }
 766              		.loc 1 318 0
 767 01e2 2944     		add	r1, r1, r5
ARM GAS  C:\Users\pearlstl\AppData\Local\Temp\ccllHTLf.s 			page 25


 768              	.LVL76:
 769              	.LBB175:
 770              	.LBB171:
 394:..\..\..\lvgl\version_6.1.2\lvgl\src\lv_font/lv_font_fmt_txt.c **** }
 771              		.loc 1 394 0
 772 01e4 0AF80640 		strb	r4, [r10, r6]
 773              	.LVL77:
 774              	.LBE171:
 775              	.LBE175:
 316:..\..\..\lvgl\version_6.1.2\lvgl\src\lv_font/lv_font_fmt_txt.c ****         bits_write(out,wrp, line_buf1[x], bpp);
 776              		.loc 1 316 0
 777 01e8 00F0C482 		beq	.L167
 778              	.LVL78:
 779              	.L72:
 780              	.LBB176:
 781              	.LBB172:
 374:..\..\..\lvgl\version_6.1.2\lvgl\src\lv_font/lv_font_fmt_txt.c ****         len = 4;
 782              		.loc 1 374 0
 783 01ec B9F1030F 		cmp	r9, #3
 784              	.LBE172:
 785              	.LBE176:
 317:..\..\..\lvgl\version_6.1.2\lvgl\src\lv_font/lv_font_fmt_txt.c ****         wrp += wr_size;
 786              		.loc 1 317 0
 787 01f0 10F8014F 		ldrb	r4, [r0, #1]!	@ zero_extendqisi2
 788              	.LVL79:
 789              	.LBB177:
 790              	.LBB173:
 374:..\..\..\lvgl\version_6.1.2\lvgl\src\lv_font/lv_font_fmt_txt.c ****         len = 4;
 791              		.loc 1 374 0
 792 01f4 E3D1     		bne	.L168
 793              	.LVL80:
 376:..\..\..\lvgl\version_6.1.2\lvgl\src\lv_font/lv_font_fmt_txt.c ****         case 0: val = 0; break;
 794              		.loc 1 376 0
 795 01f6 072C     		cmp	r4, #7
 796 01f8 00F2C282 		bhi	.L62
 797 01fc DFE814F0 		tbh	[pc, r4, lsl #1]
 798              	.L64:
 799 0200 B202     		.2byte	(.L63-.L64)/2
 800 0202 A702     		.2byte	(.L65-.L64)/2
 801 0204 9D02     		.2byte	(.L66-.L64)/2
 802 0206 9202     		.2byte	(.L67-.L64)/2
 803 0208 8802     		.2byte	(.L68-.L64)/2
 804 020a 7D02     		.2byte	(.L69-.L64)/2
 805 020c 7302     		.2byte	(.L70-.L64)/2
 806 020e 6902     		.2byte	(.L71-.L64)/2
 807              	.LVL81:
 808              		.p2align 1
 809              	.L50:
 810              	.LBE173:
 811              	.LBE177:
 812              	.LBB178:
 813              	.LBB166:
 814              	.LBB163:
 815              	.LBB159:
 422:..\..\..\lvgl\version_6.1.2\lvgl\src\lv_font/lv_font_fmt_txt.c ****         v = get_bits(rle_in, rle_rdp, 1);
 816              		.loc 1 422 0
 817 0210 012D     		cmp	r5, #1
ARM GAS  C:\Users\pearlstl\AppData\Local\Temp\ccllHTLf.s 			page 26


 818 0212 03D0     		beq	.L169
 449:..\..\..\lvgl\version_6.1.2\lvgl\src\lv_font/lv_font_fmt_txt.c ****         ret = rle_prev_v;
 819              		.loc 1 449 0
 820 0214 022D     		cmp	r5, #2
 821 0216 2ED0     		beq	.L170
 410:..\..\..\lvgl\version_6.1.2\lvgl\src\lv_font/lv_font_fmt_txt.c **** 
 822              		.loc 1 410 0
 823 0218 0023     		movs	r3, #0
 824 021a A4E7     		b	.L52
 825              	.L169:
 826              	.LVL82:
 827              	.LBB138:
 828              	.LBB139:
 355:..\..\..\lvgl\version_6.1.2\lvgl\src\lv_font/lv_font_fmt_txt.c ****     bit_pos = bit_pos & 0x7;
 829              		.loc 1 355 0
 830 021c CA08     		lsrs	r2, r1, #3
 831              	.LVL83:
 358:..\..\..\lvgl\version_6.1.2\lvgl\src\lv_font/lv_font_fmt_txt.c **** 
 832              		.loc 1 358 0
 833 021e B318     		adds	r3, r6, r2
 834              	.LBE139:
 835              	.LBE138:
 426:..\..\..\lvgl\version_6.1.2\lvgl\src\lv_font/lv_font_fmt_txt.c ****             ret = rle_prev_v;
 836              		.loc 1 426 0
 837 0220 16F80280 		ldrb	r8, [r6, r2]	@ zero_extendqisi2
 838 0224 5A78     		ldrb	r2, [r3, #1]	@ zero_extendqisi2
 839 0226 01F00703 		and	r3, r1, #7
 840 022a 02EB0822 		add	r2, r2, r8, lsl #8
 841 022e DB43     		mvns	r3, r3
 842 0230 92B2     		uxth	r2, r2
 843 0232 1033     		adds	r3, r3, #16
 844 0234 42FA03F3 		asr	r3, r2, r3
 424:..\..\..\lvgl\version_6.1.2\lvgl\src\lv_font/lv_font_fmt_txt.c ****         rle_rdp += 1;
 845              		.loc 1 424 0
 846 0238 0130     		adds	r0, r0, #1
 426:..\..\..\lvgl\version_6.1.2\lvgl\src\lv_font/lv_font_fmt_txt.c ****             ret = rle_prev_v;
 847              		.loc 1 426 0
 848 023a 13F00103 		ands	r3, r3, #1
 424:..\..\..\lvgl\version_6.1.2\lvgl\src\lv_font/lv_font_fmt_txt.c ****         rle_rdp += 1;
 849              		.loc 1 424 0
 850 023e C0B2     		uxtb	r0, r0
 425:..\..\..\lvgl\version_6.1.2\lvgl\src\lv_font/lv_font_fmt_txt.c ****         if(v == 1) {
 851              		.loc 1 425 0
 852 0240 01F10102 		add	r2, r1, #1
 426:..\..\..\lvgl\version_6.1.2\lvgl\src\lv_font/lv_font_fmt_txt.c ****             ret = rle_prev_v;
 853              		.loc 1 426 0
 854 0244 34D1     		bne	.L171
 855              	.LVL84:
 856              	.LBB140:
 857              	.LBB141:
 355:..\..\..\lvgl\version_6.1.2\lvgl\src\lv_font/lv_font_fmt_txt.c ****     bit_pos = bit_pos & 0x7;
 858              		.loc 1 355 0
 859 0246 D108     		lsrs	r1, r2, #3
 860              	.LVL85:
 358:..\..\..\lvgl\version_6.1.2\lvgl\src\lv_font/lv_font_fmt_txt.c **** 
 861              		.loc 1 358 0
 862 0248 7318     		adds	r3, r6, r1
ARM GAS  C:\Users\pearlstl\AppData\Local\Temp\ccllHTLf.s 			page 27


 863              	.LVL86:
 360:..\..\..\lvgl\version_6.1.2\lvgl\src\lv_font/lv_font_fmt_txt.c ****     return res;
 864              		.loc 1 360 0
 865 024a 775C     		ldrb	r7, [r6, r1]	@ zero_extendqisi2
 866 024c 5B78     		ldrb	r3, [r3, #1]	@ zero_extendqisi2
 867              	.LVL87:
 868              	.LBE141:
 869              	.LBE140:
 443:..\..\..\lvgl\version_6.1.2\lvgl\src\lv_font/lv_font_fmt_txt.c ****             rle_state = RLE_STATE_SINGLE;
 870              		.loc 1 443 0
 871 024e 0095     		str	r5, [sp]
 872              	.LBB143:
 873              	.LBB142:
 360:..\..\..\lvgl\version_6.1.2\lvgl\src\lv_font/lv_font_fmt_txt.c ****     return res;
 874              		.loc 1 360 0
 875 0250 02F00701 		and	r1, r2, #7
 876              	.LVL88:
 877 0254 03EB0723 		add	r3, r3, r7, lsl #8
 878 0258 C1EB0A01 		rsb	r1, r1, r10
 879              	.LVL89:
 880 025c 9BB2     		uxth	r3, r3
 881 025e 0B41     		asrs	r3, r3, r1
 882 0260 09EA0303 		and	r3, r9, r3
 883 0264 DBB2     		uxtb	r3, r3
 884              	.LVL90:
 885              	.LBE142:
 886              	.LBE143:
 443:..\..\..\lvgl\version_6.1.2\lvgl\src\lv_font/lv_font_fmt_txt.c ****             rle_state = RLE_STATE_SINGLE;
 887              		.loc 1 443 0
 888 0266 A846     		mov	r8, r5
 889 0268 0BEB0201 		add	r1, fp, r2
 890 026c 2F46     		mov	r7, r5
 891 026e 2A46     		mov	r2, r5
 442:..\..\..\lvgl\version_6.1.2\lvgl\src\lv_font/lv_font_fmt_txt.c ****             rle_rdp += rle_bpp;
 892              		.loc 1 442 0
 893 0270 9E46     		mov	lr, r3
 444:..\..\..\lvgl\version_6.1.2\lvgl\src\lv_font/lv_font_fmt_txt.c ****         }
 894              		.loc 1 444 0
 895 0272 0025     		movs	r5, #0
 896 0274 77E7     		b	.L52
 897              	.LVL91:
 898              	.L170:
 451:..\..\..\lvgl\version_6.1.2\lvgl\src\lv_font/lv_font_fmt_txt.c ****         if(rle_cnt == 0) {
 899              		.loc 1 451 0
 900 0276 0138     		subs	r0, r0, #1
 452:..\..\..\lvgl\version_6.1.2\lvgl\src\lv_font/lv_font_fmt_txt.c ****             ret = get_bits(rle_in, rle_rdp, rle_bpp);
 901              		.loc 1 452 0
 902 0278 10F0FF00 		ands	r0, r0, #255
 903 027c 1FD1     		bne	.L107
 904              	.LVL92:
 905              	.LBB144:
 906              	.LBB145:
 355:..\..\..\lvgl\version_6.1.2\lvgl\src\lv_font/lv_font_fmt_txt.c ****     bit_pos = bit_pos & 0x7;
 907              		.loc 1 355 0
 908 027e CB08     		lsrs	r3, r1, #3
 909              	.LVL93:
 358:..\..\..\lvgl\version_6.1.2\lvgl\src\lv_font/lv_font_fmt_txt.c **** 
ARM GAS  C:\Users\pearlstl\AppData\Local\Temp\ccllHTLf.s 			page 28


 910              		.loc 1 358 0
 911 0280 F218     		adds	r2, r6, r3
 912              	.LVL94:
 360:..\..\..\lvgl\version_6.1.2\lvgl\src\lv_font/lv_font_fmt_txt.c ****     return res;
 913              		.loc 1 360 0
 914 0282 F55C     		ldrb	r5, [r6, r3]	@ zero_extendqisi2
 915 0284 5378     		ldrb	r3, [r2, #1]	@ zero_extendqisi2
 916              	.LVL95:
 917 0286 01F00702 		and	r2, r1, #7
 918              	.LVL96:
 919 028a 03EB0523 		add	r3, r3, r5, lsl #8
 920 028e C2EB0A02 		rsb	r2, r2, r10
 921              	.LVL97:
 922 0292 9BB2     		uxth	r3, r3
 923 0294 1341     		asrs	r3, r3, r2
 924 0296 09EA0303 		and	r3, r9, r3
 925              	.LBE145:
 926              	.LBE144:
 455:..\..\..\lvgl\version_6.1.2\lvgl\src\lv_font/lv_font_fmt_txt.c ****             rle_state = RLE_STATE_SINGLE;
 927              		.loc 1 455 0
 928 029a 4FF00108 		mov	r8, #1
 929              	.LBB147:
 930              	.LBB146:
 360:..\..\..\lvgl\version_6.1.2\lvgl\src\lv_font/lv_font_fmt_txt.c ****     return res;
 931              		.loc 1 360 0
 932 029e DBB2     		uxtb	r3, r3
 933              	.LVL98:
 934              	.LBE146:
 935              	.LBE147:
 455:..\..\..\lvgl\version_6.1.2\lvgl\src\lv_font/lv_font_fmt_txt.c ****             rle_state = RLE_STATE_SINGLE;
 936              		.loc 1 455 0
 937 02a0 5944     		add	r1, r1, fp
 454:..\..\..\lvgl\version_6.1.2\lvgl\src\lv_font/lv_font_fmt_txt.c ****             rle_rdp += rle_bpp;
 938              		.loc 1 454 0
 939 02a2 9E46     		mov	lr, r3
 455:..\..\..\lvgl\version_6.1.2\lvgl\src\lv_font/lv_font_fmt_txt.c ****             rle_state = RLE_STATE_SINGLE;
 940              		.loc 1 455 0
 941 02a4 CDF80080 		str	r8, [sp]
 942 02a8 4746     		mov	r7, r8
 943 02aa 4246     		mov	r2, r8
 456:..\..\..\lvgl\version_6.1.2\lvgl\src\lv_font/lv_font_fmt_txt.c ****         }
 944              		.loc 1 456 0
 945 02ac 0546     		mov	r5, r0
 946 02ae 5AE7     		b	.L52
 947              	.LVL99:
 948              	.L171:
 428:..\..\..\lvgl\version_6.1.2\lvgl\src\lv_font/lv_font_fmt_txt.c ****                 rle_cnt = get_bits(rle_in, rle_rdp, 6);
 949              		.loc 1 428 0
 950 02b0 0B28     		cmp	r0, #11
 951 02b2 16D0     		beq	.L172
 425:..\..\..\lvgl\version_6.1.2\lvgl\src\lv_font/lv_font_fmt_txt.c ****         if(v == 1) {
 952              		.loc 1 425 0
 953 02b4 1146     		mov	r1, r2
 428:..\..\..\lvgl\version_6.1.2\lvgl\src\lv_font/lv_font_fmt_txt.c ****                 rle_cnt = get_bits(rle_in, rle_rdp, 6);
 954              		.loc 1 428 0
 955 02b6 7346     		mov	r3, lr
 956 02b8 A846     		mov	r8, r5
ARM GAS  C:\Users\pearlstl\AppData\Local\Temp\ccllHTLf.s 			page 29


 957 02ba 2A46     		mov	r2, r5
 958 02bc 53E7     		b	.L52
 959              	.LVL100:
 960              	.L107:
 452:..\..\..\lvgl\version_6.1.2\lvgl\src\lv_font/lv_font_fmt_txt.c ****             ret = get_bits(rle_in, rle_rdp, rle_bpp);
 961              		.loc 1 452 0
 962 02be 7346     		mov	r3, lr
 963 02c0 4FF00108 		mov	r8, #1
 964 02c4 4FE7     		b	.L52
 965              	.LVL101:
 966              	.L46:
 967              	.LBE159:
 968              	.LBE163:
 969              	.LBE166:
 970              	.LBE178:
 971              	.LBE232:
 972              	.LBE238:
 105:..\..\..\lvgl\version_6.1.2\lvgl\src\lv_font/lv_font_fmt_txt.c ****             LV_ASSERT_MEM(buf);
 973              		.loc 1 105 0
 974 02c6 234B     		ldr	r3, .L181
 975 02c8 3146     		mov	r1, r6
 976 02ca 1868     		ldr	r0, [r3]
 977 02cc FFF7FEFF 		bl	lv_mem_realloc
 978              	.LVL102:
 979 02d0 204B     		ldr	r3, .L181
 980 02d2 1860     		str	r0, [r3]
 107:..\..\..\lvgl\version_6.1.2\lvgl\src\lv_font/lv_font_fmt_txt.c ****         }
 981              		.loc 1 107 0
 982 02d4 18B3     		cbz	r0, .L38
 983 02d6 8246     		mov	r10, r0
 984 02d8 D0E6     		b	.L47
 985              	.LVL103:
 986              	.L43:
  99:..\..\..\lvgl\version_6.1.2\lvgl\src\lv_font/lv_font_fmt_txt.c ****         case 3: buf_size = gsize >> 1;  break;
 987              		.loc 1 99 0
 988 02da B608     		lsrs	r6, r6, #2
 989              	.LVL104:
 990 02dc C4E6     		b	.L40
 991              	.LVL105:
 992              	.L41:
  98:..\..\..\lvgl\version_6.1.2\lvgl\src\lv_font/lv_font_fmt_txt.c ****         case 2: buf_size = gsize >> 2;  break;
 993              		.loc 1 98 0
 994 02de F608     		lsrs	r6, r6, #3
 995              	.LVL106:
 996 02e0 C2E6     		b	.L40
 997              	.LVL107:
 998              	.L172:
 999              	.LBB239:
 1000              	.LBB233:
 1001              	.LBB179:
 1002              	.LBB167:
 1003              	.LBB164:
 1004              	.LBB160:
 1005              	.LBB148:
 1006              	.LBB149:
 355:..\..\..\lvgl\version_6.1.2\lvgl\src\lv_font/lv_font_fmt_txt.c ****     bit_pos = bit_pos & 0x7;
 1007              		.loc 1 355 0
ARM GAS  C:\Users\pearlstl\AppData\Local\Temp\ccllHTLf.s 			page 30


 1008 02e2 4FEAD208 		lsr	r8, r2, #3
 1009              	.LVL108:
 358:..\..\..\lvgl\version_6.1.2\lvgl\src\lv_font/lv_font_fmt_txt.c **** 
 1010              		.loc 1 358 0
 1011 02e6 06EB0800 		add	r0, r6, r8
 1012              	.LVL109:
 360:..\..\..\lvgl\version_6.1.2\lvgl\src\lv_font/lv_font_fmt_txt.c ****     return res;
 1013              		.loc 1 360 0
 1014 02ea 16F80880 		ldrb	r8, [r6, r8]	@ zero_extendqisi2
 1015              	.LVL110:
 1016 02ee 4078     		ldrb	r0, [r0, #1]	@ zero_extendqisi2
 1017              	.LVL111:
 1018 02f0 02F00702 		and	r2, r2, #7
 1019              	.LVL112:
 1020 02f4 00EB0820 		add	r0, r0, r8, lsl #8
 1021 02f8 C2F10A02 		rsb	r2, r2, #10
 1022              	.LVL113:
 1023 02fc 80B2     		uxth	r0, r0
 1024 02fe 40FA02F2 		asr	r2, r0, r2
 1025 0302 02F03F02 		and	r2, r2, #63
 1026              	.LBE149:
 1027              	.LBE148:
 430:..\..\..\lvgl\version_6.1.2\lvgl\src\lv_font/lv_font_fmt_txt.c ****                 if(rle_cnt != 0) {
 1028              		.loc 1 430 0
 1029 0306 0731     		adds	r1, r1, #7
 1030              	.LVL114:
 1031              	.LBB151:
 1032              	.LBB150:
 360:..\..\..\lvgl\version_6.1.2\lvgl\src\lv_font/lv_font_fmt_txt.c ****     return res;
 1033              		.loc 1 360 0
 1034 0308 5FFA82F8 		uxtb	r8, r2
 1035              	.LVL115:
 1036              	.LBE150:
 1037              	.LBE151:
 431:..\..\..\lvgl\version_6.1.2\lvgl\src\lv_font/lv_font_fmt_txt.c ****                     rle_state = RLE_STATE_COUNTER;
 1038              		.loc 1 431 0
 1039 030c 0192     		str	r2, [sp, #4]
 1040 030e 42B1     		cbz	r2, .L173
 429:..\..\..\lvgl\version_6.1.2\lvgl\src\lv_font/lv_font_fmt_txt.c ****                 rle_rdp += 6;
 1041              		.loc 1 429 0
 1042 0310 4046     		mov	r0, r8
 431:..\..\..\lvgl\version_6.1.2\lvgl\src\lv_font/lv_font_fmt_txt.c ****                     rle_state = RLE_STATE_COUNTER;
 1043              		.loc 1 431 0
 1044 0312 1A46     		mov	r2, r3
 1045 0314 A846     		mov	r8, r5
 1046 0316 0095     		str	r5, [sp]
 1047 0318 7346     		mov	r3, lr
 432:..\..\..\lvgl\version_6.1.2\lvgl\src\lv_font/lv_font_fmt_txt.c ****                 } else {
 1048              		.loc 1 432 0
 1049 031a 0225     		movs	r5, #2
 1050 031c 23E7     		b	.L52
 1051              	.LVL116:
 1052              	.L38:
 1053              	.LBE160:
 1054              	.LBE164:
 1055              	.LBE167:
 1056              	.LBE179:
ARM GAS  C:\Users\pearlstl\AppData\Local\Temp\ccllHTLf.s 			page 31


 1057              	.LBE233:
 1058              	.LBE239:
 1059              	.LBE111:
  81:..\..\..\lvgl\version_6.1.2\lvgl\src\lv_font/lv_font_fmt_txt.c **** 
 1060              		.loc 1 81 0
 1061 031e 0020     		movs	r0, #0
 1062 0320 8CE6     		b	.L37
 1063              	.LVL117:
 1064              	.L173:
 1065              	.LBB242:
 1066              	.LBB240:
 1067              	.LBB234:
 1068              	.LBB180:
 1069              	.LBB168:
 1070              	.LBB165:
 1071              	.LBB161:
 1072              	.LBB152:
 1073              	.LBB153:
 355:..\..\..\lvgl\version_6.1.2\lvgl\src\lv_font/lv_font_fmt_txt.c ****     bit_pos = bit_pos & 0x7;
 1074              		.loc 1 355 0
 1075 0322 C808     		lsrs	r0, r1, #3
 1076              	.LVL118:
 358:..\..\..\lvgl\version_6.1.2\lvgl\src\lv_font/lv_font_fmt_txt.c **** 
 1077              		.loc 1 358 0
 1078 0324 3218     		adds	r2, r6, r0
 1079              	.LVL119:
 360:..\..\..\lvgl\version_6.1.2\lvgl\src\lv_font/lv_font_fmt_txt.c ****     return res;
 1080              		.loc 1 360 0
 1081 0326 375C     		ldrb	r7, [r6, r0]	@ zero_extendqisi2
 1082 0328 5278     		ldrb	r2, [r2, #1]	@ zero_extendqisi2
 1083              	.LVL120:
 1084              	.LBE153:
 1085              	.LBE152:
 436:..\..\..\lvgl\version_6.1.2\lvgl\src\lv_font/lv_font_fmt_txt.c ****                     rle_state = RLE_STATE_SINGLE;
 1086              		.loc 1 436 0
 1087 032a 0095     		str	r5, [sp]
 1088              	.LBB156:
 1089              	.LBB154:
 360:..\..\..\lvgl\version_6.1.2\lvgl\src\lv_font/lv_font_fmt_txt.c ****     return res;
 1090              		.loc 1 360 0
 1091 032c 01F00700 		and	r0, r1, #7
 1092              	.LVL121:
 1093 0330 02EB0722 		add	r2, r2, r7, lsl #8
 1094 0334 C0EB0A00 		rsb	r0, r0, r10
 1095              	.LVL122:
 1096 0338 92B2     		uxth	r2, r2
 1097 033a 0241     		asrs	r2, r2, r0
 1098 033c 09EA0202 		and	r2, r9, r2
 1099              	.LBE154:
 1100              	.LBE156:
 436:..\..\..\lvgl\version_6.1.2\lvgl\src\lv_font/lv_font_fmt_txt.c ****                     rle_state = RLE_STATE_SINGLE;
 1101              		.loc 1 436 0
 1102 0340 1F46     		mov	r7, r3
 1103              	.LBB157:
 1104              	.LBB155:
 360:..\..\..\lvgl\version_6.1.2\lvgl\src\lv_font/lv_font_fmt_txt.c ****     return res;
 1105              		.loc 1 360 0
ARM GAS  C:\Users\pearlstl\AppData\Local\Temp\ccllHTLf.s 			page 32


 1106 0342 D3B2     		uxtb	r3, r2
 1107              	.LVL123:
 1108              	.LBE155:
 1109              	.LBE157:
 429:..\..\..\lvgl\version_6.1.2\lvgl\src\lv_font/lv_font_fmt_txt.c ****                 rle_rdp += 6;
 1110              		.loc 1 429 0
 1111 0344 4046     		mov	r0, r8
 436:..\..\..\lvgl\version_6.1.2\lvgl\src\lv_font/lv_font_fmt_txt.c ****                     rle_state = RLE_STATE_SINGLE;
 1112              		.loc 1 436 0
 1113 0346 5944     		add	r1, r1, fp
 1114 0348 A846     		mov	r8, r5
 435:..\..\..\lvgl\version_6.1.2\lvgl\src\lv_font/lv_font_fmt_txt.c ****                     rle_rdp += rle_bpp;
 1115              		.loc 1 435 0
 1116 034a 9E46     		mov	lr, r3
 436:..\..\..\lvgl\version_6.1.2\lvgl\src\lv_font/lv_font_fmt_txt.c ****                     rle_state = RLE_STATE_SINGLE;
 1117              		.loc 1 436 0
 1118 034c 3A46     		mov	r2, r7
 437:..\..\..\lvgl\version_6.1.2\lvgl\src\lv_font/lv_font_fmt_txt.c ****                 }
 1119              		.loc 1 437 0
 1120 034e 019D     		ldr	r5, [sp, #4]
 1121 0350 09E7     		b	.L52
 1122              	.L182:
 1123 0352 00BF     		.align	2
 1124              	.L181:
 1125 0354 00000000 		.word	.LANCHOR0
 1126              	.LVL124:
 1127              	.L102:
 1128              	.LBE161:
 1129              	.LBE165:
 340:..\..\..\lvgl\version_6.1.2\lvgl\src\lv_font/lv_font_fmt_txt.c ****         out[i] = rle_next();
 1130              		.loc 1 340 0
 1131 0358 0D9B     		ldr	r3, [sp, #52]
 1132 035a 0393     		str	r3, [sp, #12]
 1133              	.LVL125:
 1134              	.L49:
 1135              	.LBE168:
 1136              	.LBE180:
 321:..\..\..\lvgl\version_6.1.2\lvgl\src\lv_font/lv_font_fmt_txt.c ****         decompress_line(line_buf2, w);
 1137              		.loc 1 321 0
 1138 035c 0C9B     		ldr	r3, [sp, #48]
 1139 035e 012B     		cmp	r3, #1
 1140 0360 40F36681 		ble	.L74
 1141              	.LBB181:
 1142              	.LBB182:
 1143              	.LBB183:
 1144              	.LBB184:
 413:..\..\..\lvgl\version_6.1.2\lvgl\src\lv_font/lv_font_fmt_txt.c ****         if(rle_rdp != 0 && rle_prev_v == ret) {
 1145              		.loc 1 413 0
 1146 0364 BA4B     		ldr	r3, .L183
 1147 0366 0299     		ldr	r1, [sp, #8]
 1148 0368 1B7A     		ldrb	r3, [r3, #8]	@ zero_extendqisi2
 1149 036a 1093     		str	r3, [sp, #64]
 1150 036c 1C46     		mov	r4, r3
 1151 036e B84B     		ldr	r3, .L183
 1152 0370 D3F804C0 		ldr	ip, [r3, #4]
 1153 0374 5B7C     		ldrb	r3, [r3, #17]	@ zero_extendqisi2
 1154 0376 0093     		str	r3, [sp]
ARM GAS  C:\Users\pearlstl\AppData\Local\Temp\ccllHTLf.s 			page 33


 1155 0378 B54B     		ldr	r3, .L183
 1156 037a D3F80CE0 		ldr	lr, [r3, #12]
 1157 037e 5F7A     		ldrb	r7, [r3, #9]	@ zero_extendqisi2
 1158 0380 1E7C     		ldrb	r6, [r3, #16]	@ zero_extendqisi2
 1159              	.LBB185:
 1160              	.LBB186:
 360:..\..\..\lvgl\version_6.1.2\lvgl\src\lv_font/lv_font_fmt_txt.c ****     return res;
 1161              		.loc 1 360 0
 1162 0382 0123     		movs	r3, #1
 1163 0384 481E     		subs	r0, r1, #1
 1164 0386 03FA09F2 		lsl	r2, r3, r9
 1165 038a 03FA04F1 		lsl	r1, r3, r4
 1166 038e 0593     		str	r3, [sp, #20]
 1167 0390 049B     		ldr	r3, [sp, #16]
 1168 0392 80B2     		uxth	r0, r0
 1169 0394 03FB00F3 		mul	r3, r3, r0
 1170 0398 0139     		subs	r1, r1, #1
 1171 039a 5242     		negs	r2, r2
 1172 039c 0025     		movs	r5, #0
 1173 039e 49B2     		sxtb	r1, r1
 1174 03a0 62F0FF02 		orn	r2, r2, #255
 1175 03a4 1293     		str	r3, [sp, #72]
 1176 03a6 C4F11003 		rsb	r3, r4, #16
 1177 03aa 0890     		str	r0, [sp, #32]
 1178 03ac 1191     		str	r1, [sp, #68]
 1179 03ae 1392     		str	r2, [sp, #76]
 1180 03b0 0193     		str	r3, [sp, #4]
 1181 03b2 0295     		str	r5, [sp, #8]
 1182 03b4 A846     		mov	r8, r5
 1183 03b6 0695     		str	r5, [sp, #24]
 1184 03b8 7446     		mov	r4, lr
 1185 03ba 0795     		str	r5, [sp, #28]
 1186              	.LVL126:
 1187              	.L94:
 1188              	.LBE186:
 1189              	.LBE185:
 1190              	.LBE184:
 1191              	.LBE183:
 340:..\..\..\lvgl\version_6.1.2\lvgl\src\lv_font/lv_font_fmt_txt.c ****         out[i] = rle_next();
 1192              		.loc 1 340 0
 1193 03bc 0D9B     		ldr	r3, [sp, #52]
 1194 03be 002B     		cmp	r3, #0
 1195 03c0 00F01981 		beq	.L100
 1196 03c4 0F99     		ldr	r1, [sp, #60]
 1197 03c6 CDF82490 		str	r9, [sp, #36]
 1198 03ca 01F1FF3E 		add	lr, r1, #-1
 1199 03ce 0B46     		mov	r3, r1
 1200 03d0 0899     		ldr	r1, [sp, #32]
 1201 03d2 CDF828E0 		str	lr, [sp, #40]
 1202 03d6 7246     		mov	r2, lr
 1203 03d8 CDF82CA0 		str	r10, [sp, #44]
 1204 03dc DDF840E0 		ldr	lr, [sp, #64]
 1205 03e0 0698     		ldr	r0, [sp, #24]
 1206 03e2 DDF81C90 		ldr	r9, [sp, #28]
 1207 03e6 DDF844A0 		ldr	r10, [sp, #68]
 1208 03ea 5918     		adds	r1, r3, r1
 1209              	.LVL127:
ARM GAS  C:\Users\pearlstl\AppData\Local\Temp\ccllHTLf.s 			page 34


 1210              	.L80:
 1211              	.LBB214:
 1212              	.LBB211:
 412:..\..\..\lvgl\version_6.1.2\lvgl\src\lv_font/lv_font_fmt_txt.c ****         ret = get_bits(rle_in, rle_rdp, rle_bpp);
 1213              		.loc 1 412 0
 1214 03ec 002F     		cmp	r7, #0
 1215 03ee 40F09D80 		bne	.L75
 1216              	.LVL128:
 1217              	.LBB189:
 1218              	.LBB187:
 355:..\..\..\lvgl\version_6.1.2\lvgl\src\lv_font/lv_font_fmt_txt.c ****     bit_pos = bit_pos & 0x7;
 1219              		.loc 1 355 0
 1220 03f2 E008     		lsrs	r0, r4, #3
 1221              	.LVL129:
 358:..\..\..\lvgl\version_6.1.2\lvgl\src\lv_font/lv_font_fmt_txt.c **** 
 1222              		.loc 1 358 0
 1223 03f4 0CEB0003 		add	r3, ip, r0
 1224              	.LVL130:
 360:..\..\..\lvgl\version_6.1.2\lvgl\src\lv_font/lv_font_fmt_txt.c ****     return res;
 1225              		.loc 1 360 0
 1226 03f8 1CF80000 		ldrb	r0, [ip, r0]	@ zero_extendqisi2
 1227              	.LVL131:
 1228 03fc 5B78     		ldrb	r3, [r3, #1]	@ zero_extendqisi2
 1229              	.LVL132:
 1230 03fe 019D     		ldr	r5, [sp, #4]
 1231 0400 03EB0020 		add	r0, r3, r0, lsl #8
 1232 0404 04F00703 		and	r3, r4, #7
 1233              	.LVL133:
 1234 0408 80B2     		uxth	r0, r0
 1235 040a EB1A     		subs	r3, r5, r3
 1236              	.LVL134:
 1237 040c 40FA03F3 		asr	r3, r0, r3
 1238 0410 0AEA0303 		and	r3, r10, r3
 1239 0414 DBB2     		uxtb	r3, r3
 1240              	.LVL135:
 1241              	.LBE187:
 1242              	.LBE189:
 414:..\..\..\lvgl\version_6.1.2\lvgl\src\lv_font/lv_font_fmt_txt.c ****             rle_cnt = 0;
 1243              		.loc 1 414 0
 1244 0416 3CB1     		cbz	r4, .L76
 1245 0418 B342     		cmp	r3, r6
 1246 041a 05D1     		bne	.L76
 1247 041c 4FF00108 		mov	r8, #1
 415:..\..\..\lvgl\version_6.1.2\lvgl\src\lv_font/lv_font_fmt_txt.c ****             rle_state = RLE_STATE_REPEATE;
 1248              		.loc 1 415 0
 1249 0420 0097     		str	r7, [sp]
 414:..\..\..\lvgl\version_6.1.2\lvgl\src\lv_font/lv_font_fmt_txt.c ****             rle_cnt = 0;
 1250              		.loc 1 414 0
 1251 0422 CDF80880 		str	r8, [sp, #8]
 416:..\..\..\lvgl\version_6.1.2\lvgl\src\lv_font/lv_font_fmt_txt.c ****         }
 1252              		.loc 1 416 0
 1253 0426 4746     		mov	r7, r8
 1254              	.L76:
 420:..\..\..\lvgl\version_6.1.2\lvgl\src\lv_font/lv_font_fmt_txt.c ****     }
 1255              		.loc 1 420 0
 1256 0428 4FF00109 		mov	r9, #1
 1257 042c 7444     		add	r4, r4, lr
ARM GAS  C:\Users\pearlstl\AppData\Local\Temp\ccllHTLf.s 			page 35


 1258 042e 4846     		mov	r0, r9
 1259              	.LBB190:
 1260              	.LBB188:
 360:..\..\..\lvgl\version_6.1.2\lvgl\src\lv_font/lv_font_fmt_txt.c ****     return res;
 1261              		.loc 1 360 0
 1262 0430 1E46     		mov	r6, r3
 1263              	.LVL136:
 1264              	.L77:
 1265              	.LBE188:
 1266              	.LBE190:
 1267              	.LBE211:
 1268              	.LBE214:
 341:..\..\..\lvgl\version_6.1.2\lvgl\src\lv_font/lv_font_fmt_txt.c ****     }
 1269              		.loc 1 341 0
 1270 0432 02F8013F 		strb	r3, [r2, #1]!
 340:..\..\..\lvgl\version_6.1.2\lvgl\src\lv_font/lv_font_fmt_txt.c ****         out[i] = rle_next();
 1271              		.loc 1 340 0
 1272 0436 8A42     		cmp	r2, r1
 1273 0438 D8D1     		bne	.L80
 1274 043a 0E9A     		ldr	r2, [sp, #56]
 1275 043c DDF828E0 		ldr	lr, [sp, #40]
 1276 0440 0690     		str	r0, [sp, #24]
 1277 0442 1346     		mov	r3, r2
 1278 0444 511E     		subs	r1, r2, #1
 1279 0446 089A     		ldr	r2, [sp, #32]
 1280 0448 CDF81C90 		str	r9, [sp, #28]
 1281 044c 1344     		add	r3, r3, r2
 1282 044e DDF82490 		ldr	r9, [sp, #36]
 1283 0452 DDF82CA0 		ldr	r10, [sp, #44]
 1284 0456 CDF824C0 		str	ip, [sp, #36]
 1285 045a 0A96     		str	r6, [sp, #40]
 1286 045c 0B94     		str	r4, [sp, #44]
 1287 045e 0398     		ldr	r0, [sp, #12]
 1288 0460 049E     		ldr	r6, [sp, #16]
 1289 0462 139C     		ldr	r4, [sp, #76]
 1290 0464 9C46     		mov	ip, r3
 1291 0466 16E0     		b	.L93
 1292              	.LVL137:
 1293              	.L175:
 1294 0468 C2F10802 		rsb	r2, r2, #8
 1295 046c C9EB020B 		rsb	fp, r9, r2
 1296 0470 03FA0BF3 		lsl	r3, r3, fp
 1297              	.LVL138:
 1298 0474 5BB2     		sxtb	r3, r3
 1299              	.LBE182:
 1300              	.LBE181:
 1301              	.LBB219:
 1302              	.LBB220:
 374:..\..\..\lvgl\version_6.1.2\lvgl\src\lv_font/lv_font_fmt_txt.c ****         len = 4;
 1303              		.loc 1 374 0
 1304 0476 2246     		mov	r2, r4
 1305              	.LVL139:
 1306              	.L82:
 393:..\..\..\lvgl\version_6.1.2\lvgl\src\lv_font/lv_font_fmt_txt.c ****     out[byte_pos] |= (val << bit_pos);
 1307              		.loc 1 393 0
 1308 0478 C0F3CF05 		ubfx	r5, r0, #3, #16
 394:..\..\..\lvgl\version_6.1.2\lvgl\src\lv_font/lv_font_fmt_txt.c **** }
ARM GAS  C:\Users\pearlstl\AppData\Local\Temp\ccllHTLf.s 			page 36


 1309              		.loc 1 394 0
 1310 047c 02FA0BF2 		lsl	r2, r2, fp
 1311 0480 1AF805B0 		ldrb	fp, [r10, r5]	@ zero_extendqisi2
 1312 0484 0BEA0202 		and	r2, fp, r2
 1313 0488 1A43     		orrs	r2, r2, r3
 1314              	.LBE220:
 1315              	.LBE219:
 324:..\..\..\lvgl\version_6.1.2\lvgl\src\lv_font/lv_font_fmt_txt.c ****             line_buf1[x] = line_buf2[x] ^ line_buf1[x];
 1316              		.loc 1 324 0
 1317 048a 8C45     		cmp	ip, r1
 327:..\..\..\lvgl\version_6.1.2\lvgl\src\lv_font/lv_font_fmt_txt.c ****         }
 1318              		.loc 1 327 0
 1319 048c 3044     		add	r0, r0, r6
 1320              	.LVL140:
 1321              	.LBB224:
 1322              	.LBB221:
 394:..\..\..\lvgl\version_6.1.2\lvgl\src\lv_font/lv_font_fmt_txt.c **** }
 1323              		.loc 1 394 0
 1324 048e 0AF80520 		strb	r2, [r10, r5]
 1325              	.LVL141:
 1326              	.LBE221:
 1327              	.LBE224:
 324:..\..\..\lvgl\version_6.1.2\lvgl\src\lv_font/lv_font_fmt_txt.c ****             line_buf1[x] = line_buf2[x] ^ line_buf1[x];
 1328              		.loc 1 324 0
 1329 0492 00F0A680 		beq	.L174
 1330              	.LVL142:
 1331              	.L93:
 325:..\..\..\lvgl\version_6.1.2\lvgl\src\lv_font/lv_font_fmt_txt.c ****             bits_write(out,wrp, line_buf1[x], bpp);
 1332              		.loc 1 325 0
 1333 0496 1EF8012F 		ldrb	r2, [lr, #1]!	@ zero_extendqisi2
 1334 049a 11F8013F 		ldrb	r3, [r1, #1]!	@ zero_extendqisi2
 1335              	.LBB225:
 1336              	.LBB222:
 374:..\..\..\lvgl\version_6.1.2\lvgl\src\lv_font/lv_font_fmt_txt.c ****         len = 4;
 1337              		.loc 1 374 0
 1338 049e B9F1030F 		cmp	r9, #3
 1339              	.LBE222:
 1340              	.LBE225:
 325:..\..\..\lvgl\version_6.1.2\lvgl\src\lv_font/lv_font_fmt_txt.c ****             bits_write(out,wrp, line_buf1[x], bpp);
 1341              		.loc 1 325 0
 1342 04a2 83EA0203 		eor	r3, r3, r2
 1343 04a6 0B70     		strb	r3, [r1]
 1344              	.LVL143:
 1345 04a8 00F00702 		and	r2, r0, #7
 1346              	.LBB226:
 1347              	.LBB223:
 374:..\..\..\lvgl\version_6.1.2\lvgl\src\lv_font/lv_font_fmt_txt.c ****         len = 4;
 1348              		.loc 1 374 0
 1349 04ac DCD1     		bne	.L175
 1350              	.LVL144:
 1351 04ae C2F1040B 		rsb	fp, r2, #4
 376:..\..\..\lvgl\version_6.1.2\lvgl\src\lv_font/lv_font_fmt_txt.c ****         case 0: val = 0; break;
 1352              		.loc 1 376 0
 1353 04b2 072B     		cmp	r3, #7
 1354 04b4 06D8     		bhi	.L162
 1355 04b6 DFE803F0 		tbb	[pc, r3]
 1356              	.L85:
ARM GAS  C:\Users\pearlstl\AppData\Local\Temp\ccllHTLf.s 			page 37


 1357 04ba 35       		.byte	(.L84-.L85)/2
 1358 04bb 2E       		.byte	(.L86-.L85)/2
 1359 04bc 27       		.byte	(.L87-.L85)/2
 1360 04bd 20       		.byte	(.L88-.L85)/2
 1361 04be 19       		.byte	(.L89-.L85)/2
 1362 04bf 12       		.byte	(.L90-.L85)/2
 1363 04c0 0B       		.byte	(.L91-.L85)/2
 1364 04c1 04       		.byte	(.L92-.L85)/2
 1365              		.p2align 1
 1366              	.L92:
 1367              	.LVL145:
 1368 04c2 0F23     		movs	r3, #15
 1369              	.LVL146:
 1370              	.L162:
 1371 04c4 03FA0BF3 		lsl	r3, r3, fp
 1372 04c8 5BB2     		sxtb	r3, r3
 1373 04ca 6FF00F02 		mvn	r2, #15
 1374 04ce D3E7     		b	.L82
 1375              	.LVL147:
 1376              	.L91:
 1377 04d0 0D23     		movs	r3, #13
 1378 04d2 03FA0BF3 		lsl	r3, r3, fp
 1379 04d6 5BB2     		sxtb	r3, r3
 1380 04d8 6FF00F02 		mvn	r2, #15
 1381 04dc CCE7     		b	.L82
 1382              	.LVL148:
 1383              	.L90:
 1384 04de 0B23     		movs	r3, #11
 1385 04e0 03FA0BF3 		lsl	r3, r3, fp
 1386 04e4 5BB2     		sxtb	r3, r3
 1387 04e6 6FF00F02 		mvn	r2, #15
 1388 04ea C5E7     		b	.L82
 1389              	.LVL149:
 1390              	.L89:
 1391 04ec 0923     		movs	r3, #9
 1392 04ee 03FA0BF3 		lsl	r3, r3, fp
 1393 04f2 5BB2     		sxtb	r3, r3
 1394 04f4 6FF00F02 		mvn	r2, #15
 1395 04f8 BEE7     		b	.L82
 1396              	.LVL150:
 1397              	.L88:
 1398 04fa 0623     		movs	r3, #6
 1399 04fc 03FA0BF3 		lsl	r3, r3, fp
 1400 0500 5BB2     		sxtb	r3, r3
 1401 0502 6FF00F02 		mvn	r2, #15
 1402 0506 B7E7     		b	.L82
 1403              	.LVL151:
 1404              	.L87:
 1405 0508 0423     		movs	r3, #4
 1406 050a 03FA0BF3 		lsl	r3, r3, fp
 1407 050e 5BB2     		sxtb	r3, r3
 1408 0510 6FF00F02 		mvn	r2, #15
 1409 0514 B0E7     		b	.L82
 1410              	.LVL152:
 1411              	.L86:
 1412 0516 0223     		movs	r3, #2
 1413 0518 03FA0BF3 		lsl	r3, r3, fp
ARM GAS  C:\Users\pearlstl\AppData\Local\Temp\ccllHTLf.s 			page 38


 1414 051c 5BB2     		sxtb	r3, r3
 1415 051e 6FF00F02 		mvn	r2, #15
 1416 0522 A9E7     		b	.L82
 1417              	.LVL153:
 1418              	.L84:
 1419 0524 0023     		movs	r3, #0
 1420 0526 6FF00F02 		mvn	r2, #15
 1421 052a A5E7     		b	.L82
 1422              	.LVL154:
 1423              	.L75:
 1424              	.LBE223:
 1425              	.LBE226:
 1426              	.LBB227:
 1427              	.LBB217:
 1428              	.LBB215:
 1429              	.LBB212:
 422:..\..\..\lvgl\version_6.1.2\lvgl\src\lv_font/lv_font_fmt_txt.c ****         v = get_bits(rle_in, rle_rdp, 1);
 1430              		.loc 1 422 0
 1431 052c 012F     		cmp	r7, #1
 1432 052e 03D0     		beq	.L176
 449:..\..\..\lvgl\version_6.1.2\lvgl\src\lv_font/lv_font_fmt_txt.c ****         ret = rle_prev_v;
 1433              		.loc 1 449 0
 1434 0530 022F     		cmp	r7, #2
 1435 0532 33D0     		beq	.L177
 410:..\..\..\lvgl\version_6.1.2\lvgl\src\lv_font/lv_font_fmt_txt.c **** 
 1436              		.loc 1 410 0
 1437 0534 0023     		movs	r3, #0
 1438 0536 7CE7     		b	.L77
 1439              	.L176:
 1440              	.LVL155:
 1441              	.LBB191:
 1442              	.LBB192:
 355:..\..\..\lvgl\version_6.1.2\lvgl\src\lv_font/lv_font_fmt_txt.c ****     bit_pos = bit_pos & 0x7;
 1443              		.loc 1 355 0
 1444 0538 E008     		lsrs	r0, r4, #3
 1445              	.LVL156:
 358:..\..\..\lvgl\version_6.1.2\lvgl\src\lv_font/lv_font_fmt_txt.c **** 
 1446              		.loc 1 358 0
 1447 053a 0CEB0003 		add	r3, ip, r0
 1448              	.LBE192:
 1449              	.LBE191:
 426:..\..\..\lvgl\version_6.1.2\lvgl\src\lv_font/lv_font_fmt_txt.c ****             ret = rle_prev_v;
 1450              		.loc 1 426 0
 1451 053e 1CF80080 		ldrb	r8, [ip, r0]	@ zero_extendqisi2
 1452 0542 5878     		ldrb	r0, [r3, #1]	@ zero_extendqisi2
 424:..\..\..\lvgl\version_6.1.2\lvgl\src\lv_font/lv_font_fmt_txt.c ****         rle_rdp += 1;
 1453              		.loc 1 424 0
 1454 0544 009D     		ldr	r5, [sp]
 426:..\..\..\lvgl\version_6.1.2\lvgl\src\lv_font/lv_font_fmt_txt.c ****             ret = rle_prev_v;
 1455              		.loc 1 426 0
 1456 0546 04F00703 		and	r3, r4, #7
 1457 054a 00EB0820 		add	r0, r0, r8, lsl #8
 1458 054e DB43     		mvns	r3, r3
 1459 0550 1033     		adds	r3, r3, #16
 1460 0552 80B2     		uxth	r0, r0
 1461 0554 1841     		asrs	r0, r0, r3
 424:..\..\..\lvgl\version_6.1.2\lvgl\src\lv_font/lv_font_fmt_txt.c ****         rle_rdp += 1;
ARM GAS  C:\Users\pearlstl\AppData\Local\Temp\ccllHTLf.s 			page 39


 1462              		.loc 1 424 0
 1463 0556 0135     		adds	r5, r5, #1
 1464 0558 EBB2     		uxtb	r3, r5
 426:..\..\..\lvgl\version_6.1.2\lvgl\src\lv_font/lv_font_fmt_txt.c ****             ret = rle_prev_v;
 1465              		.loc 1 426 0
 1466 055a 10F00100 		ands	r0, r0, #1
 424:..\..\..\lvgl\version_6.1.2\lvgl\src\lv_font/lv_font_fmt_txt.c ****         rle_rdp += 1;
 1467              		.loc 1 424 0
 1468 055e 0093     		str	r3, [sp]
 425:..\..\..\lvgl\version_6.1.2\lvgl\src\lv_font/lv_font_fmt_txt.c ****         if(v == 1) {
 1469              		.loc 1 425 0
 1470 0560 04F1010B 		add	fp, r4, #1
 426:..\..\..\lvgl\version_6.1.2\lvgl\src\lv_font/lv_font_fmt_txt.c ****             ret = rle_prev_v;
 1471              		.loc 1 426 0
 1472 0564 6DD1     		bne	.L178
 1473              	.LVL157:
 1474              	.LBB193:
 1475              	.LBB194:
 355:..\..\..\lvgl\version_6.1.2\lvgl\src\lv_font/lv_font_fmt_txt.c ****     bit_pos = bit_pos & 0x7;
 1476              		.loc 1 355 0
 1477 0566 4FEADB00 		lsr	r0, fp, #3
 1478              	.LVL158:
 358:..\..\..\lvgl\version_6.1.2\lvgl\src\lv_font/lv_font_fmt_txt.c **** 
 1479              		.loc 1 358 0
 1480 056a 0CEB0003 		add	r3, ip, r0
 1481              	.LVL159:
 360:..\..\..\lvgl\version_6.1.2\lvgl\src\lv_font/lv_font_fmt_txt.c ****     return res;
 1482              		.loc 1 360 0
 1483 056e 1CF80040 		ldrb	r4, [ip, r0]	@ zero_extendqisi2
 1484 0572 5B78     		ldrb	r3, [r3, #1]	@ zero_extendqisi2
 1485              	.LVL160:
 1486              	.LBE194:
 1487              	.LBE193:
 443:..\..\..\lvgl\version_6.1.2\lvgl\src\lv_font/lv_font_fmt_txt.c ****             rle_state = RLE_STATE_SINGLE;
 1488              		.loc 1 443 0
 1489 0574 0297     		str	r7, [sp, #8]
 1490              	.LBB196:
 1491              	.LBB195:
 360:..\..\..\lvgl\version_6.1.2\lvgl\src\lv_font/lv_font_fmt_txt.c ****     return res;
 1492              		.loc 1 360 0
 1493 0576 03EB0423 		add	r3, r3, r4, lsl #8
 1494 057a 019C     		ldr	r4, [sp, #4]
 1495 057c 0BF00700 		and	r0, fp, #7
 1496              	.LVL161:
 1497 0580 201A     		subs	r0, r4, r0
 1498              	.LVL162:
 1499 0582 9BB2     		uxth	r3, r3
 1500 0584 0341     		asrs	r3, r3, r0
 1501 0586 0AEA0303 		and	r3, r10, r3
 1502 058a DBB2     		uxtb	r3, r3
 1503              	.LVL163:
 1504              	.LBE195:
 1505              	.LBE196:
 443:..\..\..\lvgl\version_6.1.2\lvgl\src\lv_font/lv_font_fmt_txt.c ****             rle_state = RLE_STATE_SINGLE;
 1506              		.loc 1 443 0
 1507 058c B846     		mov	r8, r7
 1508 058e B946     		mov	r9, r7
ARM GAS  C:\Users\pearlstl\AppData\Local\Temp\ccllHTLf.s 			page 40


 1509 0590 3846     		mov	r0, r7
 1510 0592 0EEB0B04 		add	r4, lr, fp
 442:..\..\..\lvgl\version_6.1.2\lvgl\src\lv_font/lv_font_fmt_txt.c ****             rle_rdp += rle_bpp;
 1511              		.loc 1 442 0
 1512 0596 1E46     		mov	r6, r3
 444:..\..\..\lvgl\version_6.1.2\lvgl\src\lv_font/lv_font_fmt_txt.c ****         }
 1513              		.loc 1 444 0
 1514 0598 0027     		movs	r7, #0
 1515 059a 4AE7     		b	.L77
 1516              	.LVL164:
 1517              	.L177:
 451:..\..\..\lvgl\version_6.1.2\lvgl\src\lv_font/lv_font_fmt_txt.c ****         if(rle_cnt == 0) {
 1518              		.loc 1 451 0
 1519 059c 009B     		ldr	r3, [sp]
 1520 059e 5D1E     		subs	r5, r3, #1
 452:..\..\..\lvgl\version_6.1.2\lvgl\src\lv_font/lv_font_fmt_txt.c ****             ret = get_bits(rle_in, rle_rdp, rle_bpp);
 1521              		.loc 1 452 0
 1522 05a0 15F0FF03 		ands	r3, r5, #255
 1523 05a4 1D46     		mov	r5, r3
 1524 05a6 0093     		str	r3, [sp]
 1525 05a8 47D1     		bne	.L112
 1526              	.LVL165:
 1527              	.LBB197:
 1528              	.LBB198:
 355:..\..\..\lvgl\version_6.1.2\lvgl\src\lv_font/lv_font_fmt_txt.c ****     bit_pos = bit_pos & 0x7;
 1529              		.loc 1 355 0
 1530 05aa E308     		lsrs	r3, r4, #3
 1531              	.LVL166:
 358:..\..\..\lvgl\version_6.1.2\lvgl\src\lv_font/lv_font_fmt_txt.c **** 
 1532              		.loc 1 358 0
 1533 05ac 0CEB0306 		add	r6, ip, r3
 1534              	.LVL167:
 360:..\..\..\lvgl\version_6.1.2\lvgl\src\lv_font/lv_font_fmt_txt.c ****     return res;
 1535              		.loc 1 360 0
 1536 05b0 1CF80300 		ldrb	r0, [ip, r3]	@ zero_extendqisi2
 1537 05b4 7378     		ldrb	r3, [r6, #1]	@ zero_extendqisi2
 1538              	.LVL168:
 1539 05b6 03EB0023 		add	r3, r3, r0, lsl #8
 1540 05ba 98B2     		uxth	r0, r3
 1541 05bc 019B     		ldr	r3, [sp, #4]
 1542 05be 04F00706 		and	r6, r4, #7
 1543              	.LVL169:
 1544 05c2 9B1B     		subs	r3, r3, r6
 1545 05c4 40FA03F3 		asr	r3, r0, r3
 1546 05c8 0AEA0303 		and	r3, r10, r3
 1547              	.LBE198:
 1548              	.LBE197:
 455:..\..\..\lvgl\version_6.1.2\lvgl\src\lv_font/lv_font_fmt_txt.c ****             rle_state = RLE_STATE_SINGLE;
 1549              		.loc 1 455 0
 1550 05cc 4FF00108 		mov	r8, #1
 1551              	.LBB200:
 1552              	.LBB199:
 360:..\..\..\lvgl\version_6.1.2\lvgl\src\lv_font/lv_font_fmt_txt.c ****     return res;
 1553              		.loc 1 360 0
 1554 05d0 DBB2     		uxtb	r3, r3
 1555              	.LVL170:
 1556              	.LBE199:
ARM GAS  C:\Users\pearlstl\AppData\Local\Temp\ccllHTLf.s 			page 41


 1557              	.LBE200:
 455:..\..\..\lvgl\version_6.1.2\lvgl\src\lv_font/lv_font_fmt_txt.c ****             rle_state = RLE_STATE_SINGLE;
 1558              		.loc 1 455 0
 1559 05d2 7444     		add	r4, r4, lr
 454:..\..\..\lvgl\version_6.1.2\lvgl\src\lv_font/lv_font_fmt_txt.c ****             rle_rdp += rle_bpp;
 1560              		.loc 1 454 0
 1561 05d4 1E46     		mov	r6, r3
 455:..\..\..\lvgl\version_6.1.2\lvgl\src\lv_font/lv_font_fmt_txt.c ****             rle_state = RLE_STATE_SINGLE;
 1562              		.loc 1 455 0
 1563 05d6 CDF80880 		str	r8, [sp, #8]
 1564 05da C146     		mov	r9, r8
 1565 05dc 4046     		mov	r0, r8
 456:..\..\..\lvgl\version_6.1.2\lvgl\src\lv_font/lv_font_fmt_txt.c ****         }
 1566              		.loc 1 456 0
 1567 05de 2F46     		mov	r7, r5
 1568 05e0 27E7     		b	.L77
 1569              	.LVL171:
 1570              	.L174:
 1571 05e2 049A     		ldr	r2, [sp, #16]
 1572 05e4 129B     		ldr	r3, [sp, #72]
 1573 05e6 DDF824C0 		ldr	ip, [sp, #36]
 1574 05ea 0A9E     		ldr	r6, [sp, #40]
 1575 05ec 0B9C     		ldr	r4, [sp, #44]
 1576 05ee 1344     		add	r3, r3, r2
 1577 05f0 039A     		ldr	r2, [sp, #12]
 1578 05f2 1A44     		add	r2, r2, r3
 1579 05f4 0392     		str	r2, [sp, #12]
 1580              	.LVL172:
 1581              	.L100:
 1582 05f6 059B     		ldr	r3, [sp, #20]
 1583              	.LBE212:
 1584              	.LBE215:
 1585              	.LBE217:
 1586              	.LBE227:
 321:..\..\..\lvgl\version_6.1.2\lvgl\src\lv_font/lv_font_fmt_txt.c ****         decompress_line(line_buf2, w);
 1587              		.loc 1 321 0
 1588 05f8 0C9A     		ldr	r2, [sp, #48]
 1589 05fa 0133     		adds	r3, r3, #1
 1590 05fc 1BB2     		sxth	r3, r3
 1591 05fe 9A42     		cmp	r2, r3
 1592 0600 0593     		str	r3, [sp, #20]
 1593              	.LVL173:
 1594 0602 7FF4DBAE 		bne	.L94
 1595 0606 069B     		ldr	r3, [sp, #24]
 1596              	.LVL174:
 1597 0608 4246     		mov	r2, r8
 1598 060a A646     		mov	lr, r4
 1599 060c DDF81C80 		ldr	r8, [sp, #28]
 1600 0610 002B     		cmp	r3, #0
 1601 0612 5BD1     		bne	.L179
 1602              	.L95:
 1603 0614 B8F1000F 		cmp	r8, #0
 1604 0618 01D0     		beq	.L96
 1605 061a 0D4B     		ldr	r3, .L183
 1606 061c 1E74     		strb	r6, [r3, #16]
 1607              	.L96:
 1608 061e 029B     		ldr	r3, [sp, #8]
ARM GAS  C:\Users\pearlstl\AppData\Local\Temp\ccllHTLf.s 			page 42


 1609 0620 0BB1     		cbz	r3, .L97
 1610 0622 0B4B     		ldr	r3, .L183
 1611 0624 5F72     		strb	r7, [r3, #9]
 1612              	.L97:
 1613 0626 1AB1     		cbz	r2, .L74
 1614 0628 094B     		ldr	r3, .L183
 1615 062a 9DF80020 		ldrb	r2, [sp]	@ zero_extendqisi2
 1616 062e 5A74     		strb	r2, [r3, #17]
 1617              	.LVL175:
 1618              	.L74:
 1619              	.LBE234:
 1620              	.LBE240:
 111:..\..\..\lvgl\version_6.1.2\lvgl\src\lv_font/lv_font_fmt_txt.c ****     }
 1621              		.loc 1 111 0
 1622 0630 074B     		ldr	r3, .L183
 1623 0632 1868     		ldr	r0, [r3]
 1624              	.LBE242:
 116:..\..\..\lvgl\version_6.1.2\lvgl\src\lv_font/lv_font_fmt_txt.c **** 
 1625              		.loc 1 116 0
 1626 0634 15B0     		add	sp, sp, #84
 1627              		.cfi_remember_state
 1628              		.cfi_def_cfa_offset 36
 1629              		@ sp needed
 1630 0636 BDE8F08F 		pop	{r4, r5, r6, r7, r8, r9, r10, fp, pc}
 1631              	.LVL176:
 1632              	.L112:
 1633              		.cfi_restore_state
 1634              	.LBB243:
 1635              	.LBB241:
 1636              	.LBB235:
 1637              	.LBB228:
 1638              	.LBB218:
 1639              	.LBB216:
 1640              	.LBB213:
 452:..\..\..\lvgl\version_6.1.2\lvgl\src\lv_font/lv_font_fmt_txt.c ****             ret = get_bits(rle_in, rle_rdp, rle_bpp);
 1641              		.loc 1 452 0
 1642 063a 3346     		mov	r3, r6
 1643 063c 4FF00108 		mov	r8, #1
 1644 0640 F7E6     		b	.L77
 1645              	.LVL177:
 1646              	.L178:
 428:..\..\..\lvgl\version_6.1.2\lvgl\src\lv_font/lv_font_fmt_txt.c ****                 rle_cnt = get_bits(rle_in, rle_rdp, 6);
 1647              		.loc 1 428 0
 1648 0642 0B2B     		cmp	r3, #11
 1649 0644 06D0     		beq	.L180
 425:..\..\..\lvgl\version_6.1.2\lvgl\src\lv_font/lv_font_fmt_txt.c ****         if(v == 1) {
 1650              		.loc 1 425 0
 1651 0646 5C46     		mov	r4, fp
 428:..\..\..\lvgl\version_6.1.2\lvgl\src\lv_font/lv_font_fmt_txt.c ****                 rle_cnt = get_bits(rle_in, rle_rdp, 6);
 1652              		.loc 1 428 0
 1653 0648 3346     		mov	r3, r6
 1654 064a B846     		mov	r8, r7
 1655 064c 3846     		mov	r0, r7
 1656 064e F0E6     		b	.L77
 1657              	.L184:
 1658              		.align	2
 1659              	.L183:
ARM GAS  C:\Users\pearlstl\AppData\Local\Temp\ccllHTLf.s 			page 43


 1660 0650 00000000 		.word	.LANCHOR0
 1661              	.L180:
 1662              	.LVL178:
 1663              	.LBB201:
 1664              	.LBB202:
 355:..\..\..\lvgl\version_6.1.2\lvgl\src\lv_font/lv_font_fmt_txt.c ****     bit_pos = bit_pos & 0x7;
 1665              		.loc 1 355 0
 1666 0654 4FEADB05 		lsr	r5, fp, #3
 1667              	.LVL179:
 358:..\..\..\lvgl\version_6.1.2\lvgl\src\lv_font/lv_font_fmt_txt.c **** 
 1668              		.loc 1 358 0
 1669 0658 0CEB0503 		add	r3, ip, r5
 1670              	.LVL180:
 360:..\..\..\lvgl\version_6.1.2\lvgl\src\lv_font/lv_font_fmt_txt.c ****     return res;
 1671              		.loc 1 360 0
 1672 065c 1CF80550 		ldrb	r5, [ip, r5]	@ zero_extendqisi2
 1673              	.LVL181:
 1674 0660 5B78     		ldrb	r3, [r3, #1]	@ zero_extendqisi2
 1675              	.LVL182:
 1676 0662 0BF0070B 		and	fp, fp, #7
 1677              	.LVL183:
 1678 0666 03EB0523 		add	r3, r3, r5, lsl #8
 1679 066a CBF10A0B 		rsb	fp, fp, #10
 1680              	.LVL184:
 1681 066e 9BB2     		uxth	r3, r3
 1682 0670 43FA0BFB 		asr	fp, r3, fp
 1683 0674 0BF03F0B 		and	fp, fp, #63
 1684              	.LBE202:
 1685              	.LBE201:
 430:..\..\..\lvgl\version_6.1.2\lvgl\src\lv_font/lv_font_fmt_txt.c ****                 if(rle_cnt != 0) {
 1686              		.loc 1 430 0
 1687 0678 0734     		adds	r4, r4, #7
 1688              	.LVL185:
 1689              	.LBB204:
 1690              	.LBB203:
 360:..\..\..\lvgl\version_6.1.2\lvgl\src\lv_font/lv_font_fmt_txt.c ****     return res;
 1691              		.loc 1 360 0
 1692 067a 5FFA8BF5 		uxtb	r5, fp
 1693              	.LVL186:
 1694              	.LBE203:
 1695              	.LBE204:
 431:..\..\..\lvgl\version_6.1.2\lvgl\src\lv_font/lv_font_fmt_txt.c ****                     rle_state = RLE_STATE_COUNTER;
 1696              		.loc 1 431 0
 1697 067e BBF1000F 		cmp	fp, #0
 1698 0682 1AD1     		bne	.L110
 1699              	.LVL187:
 1700              	.LBB205:
 1701              	.LBB206:
 355:..\..\..\lvgl\version_6.1.2\lvgl\src\lv_font/lv_font_fmt_txt.c ****     bit_pos = bit_pos & 0x7;
 1702              		.loc 1 355 0
 1703 0684 E608     		lsrs	r6, r4, #3
 1704              	.LVL188:
 358:..\..\..\lvgl\version_6.1.2\lvgl\src\lv_font/lv_font_fmt_txt.c **** 
 1705              		.loc 1 358 0
 1706 0686 0CEB0603 		add	r3, ip, r6
 1707              	.LVL189:
 360:..\..\..\lvgl\version_6.1.2\lvgl\src\lv_font/lv_font_fmt_txt.c ****     return res;
ARM GAS  C:\Users\pearlstl\AppData\Local\Temp\ccllHTLf.s 			page 44


 1708              		.loc 1 360 0
 1709 068a 1CF80680 		ldrb	r8, [ip, r6]	@ zero_extendqisi2
 1710 068e 5B78     		ldrb	r3, [r3, #1]	@ zero_extendqisi2
 1711              	.LVL190:
 1712              	.LBE206:
 1713              	.LBE205:
 436:..\..\..\lvgl\version_6.1.2\lvgl\src\lv_font/lv_font_fmt_txt.c ****                     rle_state = RLE_STATE_SINGLE;
 1714              		.loc 1 436 0
 1715 0690 0297     		str	r7, [sp, #8]
 1716              	.LBB209:
 1717              	.LBB207:
 360:..\..\..\lvgl\version_6.1.2\lvgl\src\lv_font/lv_font_fmt_txt.c ****     return res;
 1718              		.loc 1 360 0
 1719 0692 03EB0823 		add	r3, r3, r8, lsl #8
 1720 0696 1FFA83F8 		uxth	r8, r3
 1721 069a 019B     		ldr	r3, [sp, #4]
 1722              	.LBE207:
 1723              	.LBE209:
 429:..\..\..\lvgl\version_6.1.2\lvgl\src\lv_font/lv_font_fmt_txt.c ****                 rle_rdp += 6;
 1724              		.loc 1 429 0
 1725 069c 0095     		str	r5, [sp]
 1726              	.LBB210:
 1727              	.LBB208:
 360:..\..\..\lvgl\version_6.1.2\lvgl\src\lv_font/lv_font_fmt_txt.c ****     return res;
 1728              		.loc 1 360 0
 1729 069e 04F00706 		and	r6, r4, #7
 1730              	.LVL191:
 1731 06a2 9E1B     		subs	r6, r3, r6
 1732              	.LVL192:
 1733 06a4 48FA06F3 		asr	r3, r8, r6
 1734 06a8 0AEA0303 		and	r3, r10, r3
 1735 06ac DBB2     		uxtb	r3, r3
 1736              	.LVL193:
 1737              	.LBE208:
 1738              	.LBE210:
 436:..\..\..\lvgl\version_6.1.2\lvgl\src\lv_font/lv_font_fmt_txt.c ****                     rle_state = RLE_STATE_SINGLE;
 1739              		.loc 1 436 0
 1740 06ae B846     		mov	r8, r7
 1741 06b0 8146     		mov	r9, r0
 1742 06b2 7444     		add	r4, r4, lr
 435:..\..\..\lvgl\version_6.1.2\lvgl\src\lv_font/lv_font_fmt_txt.c ****                     rle_rdp += rle_bpp;
 1743              		.loc 1 435 0
 1744 06b4 1E46     		mov	r6, r3
 437:..\..\..\lvgl\version_6.1.2\lvgl\src\lv_font/lv_font_fmt_txt.c ****                 }
 1745              		.loc 1 437 0
 1746 06b6 5F46     		mov	r7, fp
 1747 06b8 BBE6     		b	.L77
 1748              	.LVL194:
 1749              	.L110:
 431:..\..\..\lvgl\version_6.1.2\lvgl\src\lv_font/lv_font_fmt_txt.c ****                     rle_state = RLE_STATE_COUNTER;
 1750              		.loc 1 431 0
 1751 06ba B846     		mov	r8, r7
 1752 06bc 0297     		str	r7, [sp, #8]
 429:..\..\..\lvgl\version_6.1.2\lvgl\src\lv_font/lv_font_fmt_txt.c ****                 rle_rdp += 6;
 1753              		.loc 1 429 0
 1754 06be 0095     		str	r5, [sp]
 431:..\..\..\lvgl\version_6.1.2\lvgl\src\lv_font/lv_font_fmt_txt.c ****                     rle_state = RLE_STATE_COUNTER;
ARM GAS  C:\Users\pearlstl\AppData\Local\Temp\ccllHTLf.s 			page 45


 1755              		.loc 1 431 0
 1756 06c0 3346     		mov	r3, r6
 432:..\..\..\lvgl\version_6.1.2\lvgl\src\lv_font/lv_font_fmt_txt.c ****                 } else {
 1757              		.loc 1 432 0
 1758 06c2 0227     		movs	r7, #2
 1759 06c4 B5E6     		b	.L77
 1760              	.LVL195:
 1761              	.L165:
 1762 06c6 354B     		ldr	r3, .L185
 1763 06c8 D960     		str	r1, [r3, #12]
 1764 06ca 59E5     		b	.L56
 1765              	.LVL196:
 1766              	.L179:
 1767 06cc 334B     		ldr	r3, .L185
 1768 06ce DC60     		str	r4, [r3, #12]
 1769 06d0 A0E7     		b	.L95
 1770              	.LVL197:
 1771              	.L71:
 1772 06d2 01F00703 		and	r3, r1, #7
 1773 06d6 C3F10403 		rsb	r3, r3, #4
 1774 06da 07FA03F4 		lsl	r4, r7, r3
 1775 06de 64B2     		sxtb	r4, r4
 1776              	.LBE213:
 1777              	.LBE216:
 1778              	.LBE218:
 1779              	.LBE228:
 1780              	.LBB229:
 1781              	.LBB174:
 1782 06e0 6FF00F02 		mvn	r2, #15
 1783 06e4 74E5     		b	.L61
 1784              	.LVL198:
 1785              	.L70:
 1786 06e6 01F00703 		and	r3, r1, #7
 1787 06ea C3F10403 		rsb	r3, r3, #4
 1788 06ee 0EFA03F4 		lsl	r4, lr, r3
 1789 06f2 64B2     		sxtb	r4, r4
 1790 06f4 6FF00F02 		mvn	r2, #15
 1791 06f8 6AE5     		b	.L61
 1792              	.LVL199:
 1793              	.L69:
 1794 06fa 01F00703 		and	r3, r1, #7
 1795 06fe 0B22     		movs	r2, #11
 1796 0700 C3F10403 		rsb	r3, r3, #4
 1797 0704 02FA03F4 		lsl	r4, r2, r3
 1798 0708 64B2     		sxtb	r4, r4
 1799 070a 6FF00F02 		mvn	r2, #15
 1800 070e 5FE5     		b	.L61
 1801              	.LVL200:
 1802              	.L68:
 1803 0710 01F00703 		and	r3, r1, #7
 1804 0714 C3F10403 		rsb	r3, r3, #4
 1805 0718 08FA03F4 		lsl	r4, r8, r3
 1806 071c 64B2     		sxtb	r4, r4
 1807 071e 6FF00F02 		mvn	r2, #15
 1808 0722 55E5     		b	.L61
 1809              	.LVL201:
 1810              	.L67:
ARM GAS  C:\Users\pearlstl\AppData\Local\Temp\ccllHTLf.s 			page 46


 1811 0724 01F00703 		and	r3, r1, #7
 1812 0728 0622     		movs	r2, #6
 1813 072a C3F10403 		rsb	r3, r3, #4
 1814 072e 02FA03F4 		lsl	r4, r2, r3
 1815 0732 64B2     		sxtb	r4, r4
 1816 0734 6FF00F02 		mvn	r2, #15
 1817 0738 4AE5     		b	.L61
 1818              	.LVL202:
 1819              	.L66:
 1820 073a 01F00703 		and	r3, r1, #7
 1821 073e C3F10403 		rsb	r3, r3, #4
 1822 0742 0BFA03F4 		lsl	r4, fp, r3
 1823 0746 64B2     		sxtb	r4, r4
 1824 0748 6FF00F02 		mvn	r2, #15
 1825 074c 40E5     		b	.L61
 1826              	.LVL203:
 1827              	.L65:
 1828 074e 01F00703 		and	r3, r1, #7
 1829 0752 0222     		movs	r2, #2
 1830 0754 C3F10403 		rsb	r3, r3, #4
 1831 0758 02FA03F4 		lsl	r4, r2, r3
 1832 075c 64B2     		sxtb	r4, r4
 1833 075e 6FF00F02 		mvn	r2, #15
 1834 0762 35E5     		b	.L61
 1835              	.LVL204:
 1836              	.L63:
 1837 0764 01F00703 		and	r3, r1, #7
 1838 0768 C3F10403 		rsb	r3, r3, #4
 1839 076c 0024     		movs	r4, #0
 1840 076e 6FF00F02 		mvn	r2, #15
 1841 0772 2DE5     		b	.L61
 1842              	.LVL205:
 1843              	.L167:
 1844 0774 049B     		ldr	r3, [sp, #16]
 1845 0776 059A     		ldr	r2, [sp, #20]
 1846 0778 02FB0333 		mla	r3, r2, r3, r3
 1847 077c 0393     		str	r3, [sp, #12]
 1848 077e EDE5     		b	.L49
 1849              	.LVL206:
 1850              	.L62:
 1851 0780 01F00703 		and	r3, r1, #7
 1852 0784 C3F10403 		rsb	r3, r3, #4
 1853 0788 9C40     		lsls	r4, r4, r3
 1854              	.LVL207:
 1855 078a 64B2     		sxtb	r4, r4
 376:..\..\..\lvgl\version_6.1.2\lvgl\src\lv_font/lv_font_fmt_txt.c ****         case 0: val = 0; break;
 1856              		.loc 1 376 0
 1857 078c 6FF00F02 		mvn	r2, #15
 1858 0790 1EE5     		b	.L61
 1859              	.LVL208:
 1860              	.L166:
 1861 0792 024B     		ldr	r3, .L185
 1862 0794 83F810E0 		strb	lr, [r3, #16]
 1863 0798 F5E4     		b	.L57
 1864              	.L186:
 1865 079a 00BF     		.align	2
 1866              	.L185:
ARM GAS  C:\Users\pearlstl\AppData\Local\Temp\ccllHTLf.s 			page 47


 1867 079c 00000000 		.word	.LANCHOR0
 1868              	.LBE174:
 1869              	.LBE229:
 1870              	.LBE235:
 1871              	.LBE241:
 1872              	.LBE243:
 1873              		.cfi_endproc
 1874              	.LFE31:
 1875              		.size	lv_font_get_bitmap_fmt_txt, .-lv_font_get_bitmap_fmt_txt
 1876              		.section	.text.lv_font_get_glyph_dsc_fmt_txt,"ax",%progbits
 1877              		.align	2
 1878              		.global	lv_font_get_glyph_dsc_fmt_txt
 1879              		.thumb
 1880              		.thumb_func
 1881              		.type	lv_font_get_glyph_dsc_fmt_txt, %function
 1882              	lv_font_get_glyph_dsc_fmt_txt:
 1883              	.LFB32:
 127:..\..\..\lvgl\version_6.1.2\lvgl\src\lv_font/lv_font_fmt_txt.c ****     lv_font_fmt_txt_dsc_t * fdsc = (lv_font_fmt_txt_dsc_t *) font->dsc;
 1884              		.loc 1 127 0
 1885              		.cfi_startproc
 1886              		@ args = 0, pretend = 0, frame = 8
 1887              		@ frame_needed = 0, uses_anonymous_args = 0
 1888              	.LVL209:
 1889              	.LBB265:
 1890              	.LBB266:
 164:..\..\..\lvgl\version_6.1.2\lvgl\src\lv_font/lv_font_fmt_txt.c **** 
 1891              		.loc 1 164 0
 1892 0000 0AB9     		cbnz	r2, .L238
 1893              	.LVL210:
 1894              	.LBE266:
 1895              	.LBE265:
 130:..\..\..\lvgl\version_6.1.2\lvgl\src\lv_font/lv_font_fmt_txt.c **** 
 1896              		.loc 1 130 0
 1897 0002 0020     		movs	r0, #0
 1898              	.LVL211:
 156:..\..\..\lvgl\version_6.1.2\lvgl\src\lv_font/lv_font_fmt_txt.c **** 
 1899              		.loc 1 156 0
 1900 0004 7047     		bx	lr
 1901              	.LVL212:
 1902              	.L238:
 127:..\..\..\lvgl\version_6.1.2\lvgl\src\lv_font/lv_font_fmt_txt.c ****     lv_font_fmt_txt_dsc_t * fdsc = (lv_font_fmt_txt_dsc_t *) font->dsc;
 1903              		.loc 1 127 0
 1904 0006 2DE9F047 		push	{r4, r5, r6, r7, r8, r9, r10, lr}
 1905              		.cfi_def_cfa_offset 32
 1906              		.cfi_offset 4, -32
 1907              		.cfi_offset 5, -28
 1908              		.cfi_offset 6, -24
 1909              		.cfi_offset 7, -20
 1910              		.cfi_offset 8, -16
 1911              		.cfi_offset 9, -12
 1912              		.cfi_offset 10, -8
 1913              		.cfi_offset 14, -4
 128:..\..\..\lvgl\version_6.1.2\lvgl\src\lv_font/lv_font_fmt_txt.c ****     uint32_t gid = get_glyph_dsc_id(font, unicode_letter);
 1914              		.loc 1 128 0
 1915 000a C568     		ldr	r5, [r0, #12]
 1916              	.LVL213:
 1917 000c 9846     		mov	r8, r3
ARM GAS  C:\Users\pearlstl\AppData\Local\Temp\ccllHTLf.s 			page 48


 1918              	.LBB293:
 1919              	.LBB288:
 1920              	.LBB267:
 1921              	.LBB268:
 169:..\..\..\lvgl\version_6.1.2\lvgl\src\lv_font/lv_font_fmt_txt.c **** 
 1922              		.loc 1 169 0
 1923 000e 6B69     		ldr	r3, [r5, #20]
 1924              	.LVL214:
 1925 0010 9A42     		cmp	r2, r3
 1926              	.LBE268:
 1927              	.LBE267:
 1928              	.LBE288:
 1929              	.LBE293:
 127:..\..\..\lvgl\version_6.1.2\lvgl\src\lv_font/lv_font_fmt_txt.c ****     lv_font_fmt_txt_dsc_t * fdsc = (lv_font_fmt_txt_dsc_t *) font->dsc;
 1930              		.loc 1 127 0
 1931 0012 84B0     		sub	sp, sp, #16
 1932              		.cfi_def_cfa_offset 48
 1933 0014 1746     		mov	r7, r2
 1934 0016 0C46     		mov	r4, r1
 1935 0018 8146     		mov	r9, r0
 1936              	.LBB294:
 1937              	.LBB289:
 1938              	.LBB284:
 1939              	.LBB280:
 169:..\..\..\lvgl\version_6.1.2\lvgl\src\lv_font/lv_font_fmt_txt.c **** 
 1940              		.loc 1 169 0
 1941 001a 00F09F80 		beq	.L189
 1942              	.LVL215:
 172:..\..\..\lvgl\version_6.1.2\lvgl\src\lv_font/lv_font_fmt_txt.c **** 
 1943              		.loc 1 172 0
 1944 001e 698A     		ldrh	r1, [r5, #18]
 1945              	.LVL216:
 1946 0020 C1F30901 		ubfx	r1, r1, #0, #10
 1947 0024 0029     		cmp	r1, #0
 1948 0026 00F0B980 		beq	.L191
 1949              	.LBB269:
 175:..\..\..\lvgl\version_6.1.2\lvgl\src\lv_font/lv_font_fmt_txt.c ****         if(rcp > fdsc->cmaps[i].range_length) continue;
 1950              		.loc 1 175 0
 1951 002a A868     		ldr	r0, [r5, #8]
 1952              	.LVL217:
 1953 002c 0268     		ldr	r2, [r0]
 1954              	.LVL218:
 176:..\..\..\lvgl\version_6.1.2\lvgl\src\lv_font/lv_font_fmt_txt.c ****         uint32_t glyph_id = 0;
 1955              		.loc 1 176 0
 1956 002e 8388     		ldrh	r3, [r0, #4]
 175:..\..\..\lvgl\version_6.1.2\lvgl\src\lv_font/lv_font_fmt_txt.c ****         if(rcp > fdsc->cmaps[i].range_length) continue;
 1957              		.loc 1 175 0
 1958 0030 BA1A     		subs	r2, r7, r2
 176:..\..\..\lvgl\version_6.1.2\lvgl\src\lv_font/lv_font_fmt_txt.c ****         uint32_t glyph_id = 0;
 1959              		.loc 1 176 0
 1960 0032 9342     		cmp	r3, r2
 175:..\..\..\lvgl\version_6.1.2\lvgl\src\lv_font/lv_font_fmt_txt.c ****         if(rcp > fdsc->cmaps[i].range_length) continue;
 1961              		.loc 1 175 0
 1962 0034 0392     		str	r2, [sp, #12]
 176:..\..\..\lvgl\version_6.1.2\lvgl\src\lv_font/lv_font_fmt_txt.c ****         uint32_t glyph_id = 0;
 1963              		.loc 1 176 0
 1964 0036 20D2     		bcs	.L239
ARM GAS  C:\Users\pearlstl\AppData\Local\Temp\ccllHTLf.s 			page 49


 1965 0038 0023     		movs	r3, #0
 1966              	.LVL219:
 1967              	.L193:
 1968              	.LBE269:
 172:..\..\..\lvgl\version_6.1.2\lvgl\src\lv_font/lv_font_fmt_txt.c **** 
 1969              		.loc 1 172 0
 1970 003a 0133     		adds	r3, r3, #1
 1971              	.LVL220:
 1972 003c 9BB2     		uxth	r3, r3
 1973              	.LVL221:
 1974              	.LBB275:
 175:..\..\..\lvgl\version_6.1.2\lvgl\src\lv_font/lv_font_fmt_txt.c ****         if(rcp > fdsc->cmaps[i].range_length) continue;
 1975              		.loc 1 175 0
 1976 003e 03EB8302 		add	r2, r3, r3, lsl #2
 1977 0042 4FEA820A 		lsl	r10, r2, #2
 1978              	.LBE275:
 172:..\..\..\lvgl\version_6.1.2\lvgl\src\lv_font/lv_font_fmt_txt.c **** 
 1979              		.loc 1 172 0
 1980 0046 8B42     		cmp	r3, r1
 1981              	.LBB276:
 175:..\..\..\lvgl\version_6.1.2\lvgl\src\lv_font/lv_font_fmt_txt.c ****         if(rcp > fdsc->cmaps[i].range_length) continue;
 1982              		.loc 1 175 0
 1983 0048 00EB0A0E 		add	lr, r0, r10
 1984              	.LBE276:
 172:..\..\..\lvgl\version_6.1.2\lvgl\src\lv_font/lv_font_fmt_txt.c **** 
 1985              		.loc 1 172 0
 1986 004c 80F2A680 		bge	.L191
 1987              	.LBB277:
 175:..\..\..\lvgl\version_6.1.2\lvgl\src\lv_font/lv_font_fmt_txt.c ****         if(rcp > fdsc->cmaps[i].range_length) continue;
 1988              		.loc 1 175 0
 1989 0050 50F82220 		ldr	r2, [r0, r2, lsl #2]
 176:..\..\..\lvgl\version_6.1.2\lvgl\src\lv_font/lv_font_fmt_txt.c ****         uint32_t glyph_id = 0;
 1990              		.loc 1 176 0
 1991 0054 BEF804C0 		ldrh	ip, [lr, #4]
 175:..\..\..\lvgl\version_6.1.2\lvgl\src\lv_font/lv_font_fmt_txt.c ****         if(rcp > fdsc->cmaps[i].range_length) continue;
 1992              		.loc 1 175 0
 1993 0058 BA1A     		subs	r2, r7, r2
 176:..\..\..\lvgl\version_6.1.2\lvgl\src\lv_font/lv_font_fmt_txt.c ****         uint32_t glyph_id = 0;
 1994              		.loc 1 176 0
 1995 005a 6245     		cmp	r2, ip
 175:..\..\..\lvgl\version_6.1.2\lvgl\src\lv_font/lv_font_fmt_txt.c ****         if(rcp > fdsc->cmaps[i].range_length) continue;
 1996              		.loc 1 175 0
 1997 005c 0392     		str	r2, [sp, #12]
 176:..\..\..\lvgl\version_6.1.2\lvgl\src\lv_font/lv_font_fmt_txt.c ****         uint32_t glyph_id = 0;
 1998              		.loc 1 176 0
 1999 005e ECD8     		bhi	.L193
 175:..\..\..\lvgl\version_6.1.2\lvgl\src\lv_font/lv_font_fmt_txt.c ****         if(rcp > fdsc->cmaps[i].range_length) continue;
 2000              		.loc 1 175 0
 2001 0060 7046     		mov	r0, lr
 2002              	.LVL222:
 178:..\..\..\lvgl\version_6.1.2\lvgl\src\lv_font/lv_font_fmt_txt.c ****             glyph_id = fdsc->cmaps[i].glyph_id_start + rcp;
 2003              		.loc 1 178 0
 2004 0062 837C     		ldrb	r3, [r0, #18]	@ zero_extendqisi2
 2005              	.LVL223:
 2006 0064 73B1     		cbz	r3, .L240
 2007              	.L196:
 181:..\..\..\lvgl\version_6.1.2\lvgl\src\lv_font/lv_font_fmt_txt.c ****             const uint8_t * gid_ofs_8 = fdsc->cmaps[i].glyph_id_ofs_list;
ARM GAS  C:\Users\pearlstl\AppData\Local\Temp\ccllHTLf.s 			page 50


 2008              		.loc 1 181 0
 2009 0066 012B     		cmp	r3, #1
 2010 0068 7AD0     		beq	.L241
 185:..\..\..\lvgl\version_6.1.2\lvgl\src\lv_font/lv_font_fmt_txt.c ****             uint8_t * p = lv_utils_bsearch(&rcp, fdsc->cmaps[i].unicode_list, fdsc->cmaps[i].list_l
 2011              		.loc 1 185 0
 2012 006a 022B     		cmp	r3, #2
 2013 006c 00F0B380 		beq	.L242
 194:..\..\..\lvgl\version_6.1.2\lvgl\src\lv_font/lv_font_fmt_txt.c ****             uint8_t * p = lv_utils_bsearch(&rcp, fdsc->cmaps[i].unicode_list, fdsc->cmaps[i].list_l
 2014              		.loc 1 194 0
 2015 0070 032B     		cmp	r3, #3
 2016 0072 00F09880 		beq	.L243
 2017              	.LVL224:
 2018              	.L201:
 177:..\..\..\lvgl\version_6.1.2\lvgl\src\lv_font/lv_font_fmt_txt.c ****         if(fdsc->cmaps[i].type == LV_FONT_FMT_TXT_CMAP_FORMAT0_TINY) {
 2019              		.loc 1 177 0
 2020 0076 0021     		movs	r1, #0
 2021 0078 06E0     		b	.L197
 2022              	.LVL225:
 2023              	.L239:
 178:..\..\..\lvgl\version_6.1.2\lvgl\src\lv_font/lv_font_fmt_txt.c ****             glyph_id = fdsc->cmaps[i].glyph_id_start + rcp;
 2024              		.loc 1 178 0
 2025 007a 837C     		ldrb	r3, [r0, #18]	@ zero_extendqisi2
 175:..\..\..\lvgl\version_6.1.2\lvgl\src\lv_font/lv_font_fmt_txt.c ****         if(rcp > fdsc->cmaps[i].range_length) continue;
 2026              		.loc 1 175 0
 2027 007c 4FF0000A 		mov	r10, #0
 178:..\..\..\lvgl\version_6.1.2\lvgl\src\lv_font/lv_font_fmt_txt.c ****             glyph_id = fdsc->cmaps[i].glyph_id_start + rcp;
 2028              		.loc 1 178 0
 2029 0080 002B     		cmp	r3, #0
 2030 0082 F0D1     		bne	.L196
 2031              	.LVL226:
 2032              	.L240:
 179:..\..\..\lvgl\version_6.1.2\lvgl\src\lv_font/lv_font_fmt_txt.c ****         }
 2033              		.loc 1 179 0
 2034 0084 C188     		ldrh	r1, [r0, #6]
 2035 0086 1144     		add	r1, r1, r2
 2036              	.LVL227:
 2037              	.L197:
 206:..\..\..\lvgl\version_6.1.2\lvgl\src\lv_font/lv_font_fmt_txt.c ****         fdsc->last_glyph_id = glyph_id;
 2038              		.loc 1 206 0
 2039 0088 6F61     		str	r7, [r5, #20]
 207:..\..\..\lvgl\version_6.1.2\lvgl\src\lv_font/lv_font_fmt_txt.c ****         return glyph_id;
 2040              		.loc 1 207 0
 2041 008a A961     		str	r1, [r5, #24]
 208:..\..\..\lvgl\version_6.1.2\lvgl\src\lv_font/lv_font_fmt_txt.c ****     }
 2042              		.loc 1 208 0
 2043 008c 0E46     		mov	r6, r1
 2044              	.LVL228:
 2045              	.L192:
 2046              	.LBE277:
 2047              	.LBE280:
 2048              	.LBE284:
 2049              	.LBE289:
 2050              	.LBE294:
 130:..\..\..\lvgl\version_6.1.2\lvgl\src\lv_font/lv_font_fmt_txt.c **** 
 2051              		.loc 1 130 0
 2052 008e 002E     		cmp	r6, #0
 2053 0090 00F08780 		beq	.L188
ARM GAS  C:\Users\pearlstl\AppData\Local\Temp\ccllHTLf.s 			page 51


 2054              	.LVL229:
 133:..\..\..\lvgl\version_6.1.2\lvgl\src\lv_font/lv_font_fmt_txt.c ****         uint32_t gid_next = get_glyph_dsc_id(font, unicode_letter_next);
 2055              		.loc 1 133 0
 2056 0094 EB68     		ldr	r3, [r5, #12]
 2057 0096 13B1     		cbz	r3, .L205
 2058              	.LVL230:
 2059              	.LBB295:
 2060              	.LBB296:
 2061              	.LBB297:
 164:..\..\..\lvgl\version_6.1.2\lvgl\src\lv_font/lv_font_fmt_txt.c **** 
 2062              		.loc 1 164 0
 2063 0098 B8F1000F 		cmp	r8, #0
 2064 009c 20D1     		bne	.L244
 2065              	.LVL231:
 2066              	.L205:
 2067              	.LBE297:
 2068              	.LBE296:
 2069              	.LBB299:
 2070              	.LBB300:
 2071              	.LBB301:
 2072              	.LBB302:
 247:..\..\..\lvgl\version_6.1.2\lvgl\src\lv_font/lv_font_fmt_txt.c ****                 lv_uintptr_t ofs = (lv_uintptr_t) (kid_p - (const uint8_t *)g_ids);
 2073              		.loc 1 247 0
 2074 009e 0023     		movs	r3, #0
 2075              	.L204:
 2076              	.LVL232:
 2077              	.LBE302:
 2078              	.LBE301:
 2079              	.LBE300:
 2080              	.LBE299:
 2081              	.LBE295:
 141:..\..\..\lvgl\version_6.1.2\lvgl\src\lv_font/lv_font_fmt_txt.c **** 
 2082              		.loc 1 141 0
 2083 00a0 6968     		ldr	r1, [r5, #4]
 146:..\..\..\lvgl\version_6.1.2\lvgl\src\lv_font/lv_font_fmt_txt.c **** 
 2084              		.loc 1 146 0
 2085 00a2 288A     		ldrh	r0, [r5, #16]
 141:..\..\..\lvgl\version_6.1.2\lvgl\src\lv_font/lv_font_fmt_txt.c **** 
 2086              		.loc 1 141 0
 2087 00a4 01EBC601 		add	r1, r1, r6, lsl #3
 2088              	.LVL233:
 146:..\..\..\lvgl\version_6.1.2\lvgl\src\lv_font/lv_font_fmt_txt.c **** 
 2089              		.loc 1 146 0
 2090 00a8 03FB00F3 		mul	r3, r3, r0
 2091              	.LVL234:
 145:..\..\..\lvgl\version_6.1.2\lvgl\src\lv_font/lv_font_fmt_txt.c ****     adv_w  = (adv_w + (1 << 3)) >> 4;
 2092              		.loc 1 145 0
 2093 00ac 4A88     		ldrh	r2, [r1, #2]
 146:..\..\..\lvgl\version_6.1.2\lvgl\src\lv_font/lv_font_fmt_txt.c **** 
 2094              		.loc 1 146 0
 2095 00ae C2F30B12 		ubfx	r2, r2, #4, #12
 2096 00b2 02EB2313 		add	r3, r2, r3, asr #4
 2097 00b6 0833     		adds	r3, r3, #8
 2098              	.LVL235:
 148:..\..\..\lvgl\version_6.1.2\lvgl\src\lv_font/lv_font_fmt_txt.c ****     dsc_out->box_h = gdsc->box_h;
 2099              		.loc 1 148 0
 2100 00b8 1B09     		lsrs	r3, r3, #4
ARM GAS  C:\Users\pearlstl\AppData\Local\Temp\ccllHTLf.s 			page 52


 2101              	.LVL236:
 2102 00ba 2380     		strh	r3, [r4]	@ movhi
 149:..\..\..\lvgl\version_6.1.2\lvgl\src\lv_font/lv_font_fmt_txt.c ****     dsc_out->box_w = gdsc->box_w;
 2103              		.loc 1 149 0
 2104 00bc 4B79     		ldrb	r3, [r1, #5]	@ zero_extendqisi2
 2105              	.LVL237:
 2106 00be E370     		strb	r3, [r4, #3]
 150:..\..\..\lvgl\version_6.1.2\lvgl\src\lv_font/lv_font_fmt_txt.c ****     dsc_out->ofs_x = gdsc->ofs_x;
 2107              		.loc 1 150 0
 2108 00c0 0B79     		ldrb	r3, [r1, #4]	@ zero_extendqisi2
 2109 00c2 A370     		strb	r3, [r4, #2]
 151:..\..\..\lvgl\version_6.1.2\lvgl\src\lv_font/lv_font_fmt_txt.c ****     dsc_out->ofs_y = gdsc->ofs_y;
 2110              		.loc 1 151 0
 2111 00c4 91F90630 		ldrsb	r3, [r1, #6]
 2112 00c8 2371     		strb	r3, [r4, #4]
 152:..\..\..\lvgl\version_6.1.2\lvgl\src\lv_font/lv_font_fmt_txt.c ****     dsc_out->bpp   = (uint8_t)fdsc->bpp;
 2113              		.loc 1 152 0
 2114 00ca 91F90730 		ldrsb	r3, [r1, #7]
 2115 00ce 6371     		strb	r3, [r4, #5]
 153:..\..\..\lvgl\version_6.1.2\lvgl\src\lv_font/lv_font_fmt_txt.c **** 
 2116              		.loc 1 153 0
 2117 00d0 EB7C     		ldrb	r3, [r5, #19]	@ zero_extendqisi2
 2118 00d2 C3F38203 		ubfx	r3, r3, #2, #3
 2119 00d6 A371     		strb	r3, [r4, #6]
 155:..\..\..\lvgl\version_6.1.2\lvgl\src\lv_font/lv_font_fmt_txt.c **** }
 2120              		.loc 1 155 0
 2121 00d8 0120     		movs	r0, #1
 2122              	.LVL238:
 2123              	.L235:
 156:..\..\..\lvgl\version_6.1.2\lvgl\src\lv_font/lv_font_fmt_txt.c **** 
 2124              		.loc 1 156 0
 2125 00da 04B0     		add	sp, sp, #16
 2126              		.cfi_remember_state
 2127              		.cfi_def_cfa_offset 32
 2128              		@ sp needed
 2129 00dc BDE8F087 		pop	{r4, r5, r6, r7, r8, r9, r10, pc}
 2130              	.LVL239:
 2131              	.L244:
 2132              		.cfi_restore_state
 2133              	.LBB315:
 2134              	.LBB312:
 2135              	.LBB298:
 2136 00e0 4146     		mov	r1, r8
 2137 00e2 09F10C00 		add	r0, r9, #12
 2138 00e6 FFF7FEFF 		bl	get_glyph_dsc_id.isra.0.part.1
 2139              	.LVL240:
 2140              	.LBE298:
 2141              	.LBE312:
 135:..\..\..\lvgl\version_6.1.2\lvgl\src\lv_font/lv_font_fmt_txt.c ****             kvalue = get_kern_value(font, gid, gid_next);
 2142              		.loc 1 135 0
 2143 00ea 0028     		cmp	r0, #0
 2144 00ec D7D0     		beq	.L205
 2145 00ee D9F80C30 		ldr	r3, [r9, #12]
 2146              	.LVL241:
 2147              	.LBB313:
 2148              	.LBB310:
 223:..\..\..\lvgl\version_6.1.2\lvgl\src\lv_font/lv_font_fmt_txt.c ****         /*Kern pairs*/
ARM GAS  C:\Users\pearlstl\AppData\Local\Temp\ccllHTLf.s 			page 53


 2149              		.loc 1 223 0
 2150 00f2 DA7C     		ldrb	r2, [r3, #19]	@ zero_extendqisi2
 2151 00f4 9206     		lsls	r2, r2, #26
 2152 00f6 1FD4     		bmi	.L206
 2153              	.LBB307:
 225:..\..\..\lvgl\version_6.1.2\lvgl\src\lv_font/lv_font_fmt_txt.c ****         if(kdsc->glyph_ids_size == 0) {
 2154              		.loc 1 225 0
 2155 00f8 DF68     		ldr	r7, [r3, #12]
 2156              	.LVL242:
 226:..\..\..\lvgl\version_6.1.2\lvgl\src\lv_font/lv_font_fmt_txt.c ****             /* Use binary search to find the kern value.
 2157              		.loc 1 226 0
 2158 00fa FB7A     		ldrb	r3, [r7, #11]	@ zero_extendqisi2
 2159              	.LVL243:
 2160 00fc 13F00303 		ands	r3, r3, #3
 2161 0100 33D0     		beq	.L245
 239:..\..\..\lvgl\version_6.1.2\lvgl\src\lv_font/lv_font_fmt_txt.c ****             /* Use binary search to find the kern value.
 2162              		.loc 1 239 0
 2163 0102 012B     		cmp	r3, #1
 2164 0104 CBD1     		bne	.L205
 2165              	.LBB304:
 243:..\..\..\lvgl\version_6.1.2\lvgl\src\lv_font/lv_font_fmt_txt.c ****             uint8_t * kid_p = lv_utils_bsearch(&g_id_both, g_ids, kdsc->pair_cnt, 4, kern_pair_16_c
 2166              		.loc 1 243 0
 2167 0106 04AB     		add	r3, sp, #16
 2168 0108 06EB0020 		add	r0, r6, r0, lsl #8
 2169              	.LVL244:
 242:..\..\..\lvgl\version_6.1.2\lvgl\src\lv_font/lv_font_fmt_txt.c ****             lv_uintptr_t g_id_both = (uint32_t)((uint32_t)gid_right << 8) + gid_left; /*Create one 
 2170              		.loc 1 242 0
 2171 010c D7F80080 		ldr	r8, [r7]
 2172              	.LVL245:
 244:..\..\..\lvgl\version_6.1.2\lvgl\src\lv_font/lv_font_fmt_txt.c **** 
 2173              		.loc 1 244 0
 2174 0110 BA68     		ldr	r2, [r7, #8]
 243:..\..\..\lvgl\version_6.1.2\lvgl\src\lv_font/lv_font_fmt_txt.c ****             uint8_t * kid_p = lv_utils_bsearch(&g_id_both, g_ids, kdsc->pair_cnt, 4, kern_pair_16_c
 2175              		.loc 1 243 0
 2176 0112 43F8040D 		str	r0, [r3, #-4]!
 244:..\..\..\lvgl\version_6.1.2\lvgl\src\lv_font/lv_font_fmt_txt.c **** 
 2177              		.loc 1 244 0
 2178 0116 3A49     		ldr	r1, .L246
 2179 0118 0091     		str	r1, [sp]
 2180              	.LVL246:
 2181 011a 1846     		mov	r0, r3
 2182 011c 4146     		mov	r1, r8
 2183 011e 22F07F42 		bic	r2, r2, #-16777216
 2184 0122 0423     		movs	r3, #4
 2185 0124 FFF7FEFF 		bl	lv_utils_bsearch
 2186              	.LVL247:
 247:..\..\..\lvgl\version_6.1.2\lvgl\src\lv_font/lv_font_fmt_txt.c ****                 lv_uintptr_t ofs = (lv_uintptr_t) (kid_p - (const uint8_t *)g_ids);
 2187              		.loc 1 247 0
 2188 0128 0028     		cmp	r0, #0
 2189 012a B8D0     		beq	.L205
 2190              	.LBB303:
 248:..\..\..\lvgl\version_6.1.2\lvgl\src\lv_font/lv_font_fmt_txt.c ****                 ofs = ofs >> 4;     /*ofs is 4 byte pairs, divide by 4 to refer as a single value*/
 2191              		.loc 1 248 0
 2192 012c C8EB0003 		rsb	r3, r8, r0
 2193              	.LVL248:
 250:..\..\..\lvgl\version_6.1.2\lvgl\src\lv_font/lv_font_fmt_txt.c ****             }
 2194              		.loc 1 250 0
ARM GAS  C:\Users\pearlstl\AppData\Local\Temp\ccllHTLf.s 			page 54


 2195 0130 1B09     		lsrs	r3, r3, #4
 2196              	.LVL249:
 2197 0132 7A68     		ldr	r2, [r7, #4]
 2198 0134 D356     		ldrsb	r3, [r2, r3]
 2199              	.LVL250:
 2200 0136 B3E7     		b	.L204
 2201              	.LVL251:
 2202              	.L206:
 2203              	.LBE303:
 2204              	.LBE304:
 2205              	.LBE307:
 2206              	.LBB308:
 258:..\..\..\lvgl\version_6.1.2\lvgl\src\lv_font/lv_font_fmt_txt.c ****         uint8_t left_class = kdsc->left_class_mapping[gid_left];
 2207              		.loc 1 258 0
 2208 0138 DA68     		ldr	r2, [r3, #12]
 2209              	.LVL252:
 259:..\..\..\lvgl\version_6.1.2\lvgl\src\lv_font/lv_font_fmt_txt.c ****         uint8_t right_class = kdsc->right_class_mapping[gid_right];
 2210              		.loc 1 259 0
 2211 013a 5368     		ldr	r3, [r2, #4]
 2212              	.LVL253:
 2213 013c 9B5D     		ldrb	r3, [r3, r6]	@ zero_extendqisi2
 2214              	.LVL254:
 264:..\..\..\lvgl\version_6.1.2\lvgl\src\lv_font/lv_font_fmt_txt.c ****             value = kdsc->class_pair_values[(left_class-1)* kdsc->right_class_cnt + (right_class-1)
 2215              		.loc 1 264 0
 2216 013e 002B     		cmp	r3, #0
 2217 0140 ADD0     		beq	.L205
 260:..\..\..\lvgl\version_6.1.2\lvgl\src\lv_font/lv_font_fmt_txt.c **** 
 2218              		.loc 1 260 0
 2219 0142 9168     		ldr	r1, [r2, #8]
 2220 0144 095C     		ldrb	r1, [r1, r0]	@ zero_extendqisi2
 264:..\..\..\lvgl\version_6.1.2\lvgl\src\lv_font/lv_font_fmt_txt.c ****             value = kdsc->class_pair_values[(left_class-1)* kdsc->right_class_cnt + (right_class-1)
 2221              		.loc 1 264 0
 2222 0146 0029     		cmp	r1, #0
 2223 0148 A9D0     		beq	.L205
 2224              	.LVL255:
 265:..\..\..\lvgl\version_6.1.2\lvgl\src\lv_font/lv_font_fmt_txt.c ****         }
 2225              		.loc 1 265 0
 2226 014a 1768     		ldr	r7, [r2]
 2227              	.LVL256:
 2228 014c 507B     		ldrb	r0, [r2, #13]	@ zero_extendqisi2
 2229              	.LVL257:
 2230 014e 3944     		add	r1, r1, r7
 2231              	.LVL258:
 2232 0150 5A1E     		subs	r2, r3, #1
 2233              	.LVL259:
 2234 0152 00FB0213 		mla	r3, r0, r2, r1
 2235              	.LVL260:
 2236 0156 13F9013C 		ldrsb	r3, [r3, #-1]
 2237 015a A1E7     		b	.L204
 2238              	.LVL261:
 2239              	.L189:
 2240              	.LBE308:
 2241              	.LBE310:
 2242              	.LBE313:
 2243              	.LBE315:
 2244              	.LBB316:
 2245              	.LBB290:
ARM GAS  C:\Users\pearlstl\AppData\Local\Temp\ccllHTLf.s 			page 55


 2246              	.LBB285:
 2247              	.LBB281:
 169:..\..\..\lvgl\version_6.1.2\lvgl\src\lv_font/lv_font_fmt_txt.c **** 
 2248              		.loc 1 169 0
 2249 015c AE69     		ldr	r6, [r5, #24]
 2250 015e 96E7     		b	.L192
 2251              	.LVL262:
 2252              	.L241:
 2253              	.LBB278:
 2254              	.LBB270:
 183:..\..\..\lvgl\version_6.1.2\lvgl\src\lv_font/lv_font_fmt_txt.c ****         }
 2255              		.loc 1 183 0
 2256 0160 C168     		ldr	r1, [r0, #12]
 2257 0162 C388     		ldrh	r3, [r0, #6]
 2258 0164 895C     		ldrb	r1, [r1, r2]	@ zero_extendqisi2
 2259 0166 1944     		add	r1, r1, r3
 2260              	.LVL263:
 2261 0168 8EE7     		b	.L197
 2262              	.LVL264:
 2263              	.L245:
 2264              	.LBE270:
 2265              	.LBE278:
 2266              	.LBE281:
 2267              	.LBE285:
 2268              	.LBE290:
 2269              	.LBE316:
 2270              	.LBB317:
 2271              	.LBB314:
 2272              	.LBB311:
 2273              	.LBB309:
 2274              	.LBB305:
 230:..\..\..\lvgl\version_6.1.2\lvgl\src\lv_font/lv_font_fmt_txt.c ****             uint8_t * kid_p = lv_utils_bsearch(&g_id_both, g_ids, kdsc->pair_cnt, 2, kern_pair_8_co
 2275              		.loc 1 230 0
 2276 016a 04AB     		add	r3, sp, #16
 2277 016c 06EB0020 		add	r0, r6, r0, lsl #8
 2278              	.LVL265:
 229:..\..\..\lvgl\version_6.1.2\lvgl\src\lv_font/lv_font_fmt_txt.c ****             uint16_t g_id_both = (gid_right << 8) + gid_left; /*Create one number from the ids*/
 2279              		.loc 1 229 0
 2280 0170 D7F80080 		ldr	r8, [r7]
 2281              	.LVL266:
 231:..\..\..\lvgl\version_6.1.2\lvgl\src\lv_font/lv_font_fmt_txt.c **** 
 2282              		.loc 1 231 0
 2283 0174 BA68     		ldr	r2, [r7, #8]
 230:..\..\..\lvgl\version_6.1.2\lvgl\src\lv_font/lv_font_fmt_txt.c ****             uint8_t * kid_p = lv_utils_bsearch(&g_id_both, g_ids, kdsc->pair_cnt, 2, kern_pair_8_co
 2284              		.loc 1 230 0
 2285 0176 23F8040D 		strh	r0, [r3, #-4]!	@ movhi
 231:..\..\..\lvgl\version_6.1.2\lvgl\src\lv_font/lv_font_fmt_txt.c **** 
 2286              		.loc 1 231 0
 2287 017a 2249     		ldr	r1, .L246+4
 2288 017c 0091     		str	r1, [sp]
 2289              	.LVL267:
 2290 017e 1846     		mov	r0, r3
 2291 0180 4146     		mov	r1, r8
 2292 0182 22F07F42 		bic	r2, r2, #-16777216
 2293 0186 0223     		movs	r3, #2
 2294 0188 FFF7FEFF 		bl	lv_utils_bsearch
 2295              	.LVL268:
ARM GAS  C:\Users\pearlstl\AppData\Local\Temp\ccllHTLf.s 			page 56


 234:..\..\..\lvgl\version_6.1.2\lvgl\src\lv_font/lv_font_fmt_txt.c ****                 lv_uintptr_t ofs = (lv_uintptr_t)(kid_p - g_ids);
 2296              		.loc 1 234 0
 2297 018c 0028     		cmp	r0, #0
 2298 018e 86D0     		beq	.L205
 2299              	.LBB306:
 235:..\..\..\lvgl\version_6.1.2\lvgl\src\lv_font/lv_font_fmt_txt.c ****                 ofs = ofs >> 1;     /*ofs is for pair, divide by 2 to refer as a single value*/
 2300              		.loc 1 235 0
 2301 0190 C8EB0003 		rsb	r3, r8, r0
 2302              	.LVL269:
 237:..\..\..\lvgl\version_6.1.2\lvgl\src\lv_font/lv_font_fmt_txt.c ****             }
 2303              		.loc 1 237 0
 2304 0194 5B08     		lsrs	r3, r3, #1
 2305              	.LVL270:
 2306 0196 7A68     		ldr	r2, [r7, #4]
 2307 0198 D356     		ldrsb	r3, [r2, r3]
 2308              	.LVL271:
 2309 019a 81E7     		b	.L204
 2310              	.LVL272:
 2311              	.L191:
 2312              	.LBE306:
 2313              	.LBE305:
 2314              	.LBE309:
 2315              	.LBE311:
 2316              	.LBE314:
 2317              	.LBE317:
 2318              	.LBB318:
 2319              	.LBB291:
 2320              	.LBB286:
 2321              	.LBB282:
 212:..\..\..\lvgl\version_6.1.2\lvgl\src\lv_font/lv_font_fmt_txt.c ****     return 0;
 2322              		.loc 1 212 0
 2323 019c 0023     		movs	r3, #0
 211:..\..\..\lvgl\version_6.1.2\lvgl\src\lv_font/lv_font_fmt_txt.c ****     fdsc->last_glyph_id = 0;
 2324              		.loc 1 211 0
 2325 019e 6F61     		str	r7, [r5, #20]
 2326              	.LVL273:
 212:..\..\..\lvgl\version_6.1.2\lvgl\src\lv_font/lv_font_fmt_txt.c ****     return 0;
 2327              		.loc 1 212 0
 2328 01a0 AB61     		str	r3, [r5, #24]
 2329              	.LVL274:
 2330              	.L188:
 2331              	.LBE282:
 2332              	.LBE286:
 2333              	.LBE291:
 2334              	.LBE318:
 130:..\..\..\lvgl\version_6.1.2\lvgl\src\lv_font/lv_font_fmt_txt.c **** 
 2335              		.loc 1 130 0
 2336 01a2 0020     		movs	r0, #0
 2337 01a4 99E7     		b	.L235
 2338              	.LVL275:
 2339              	.L243:
 2340              	.LBB319:
 2341              	.LBB292:
 2342              	.LBB287:
 2343              	.LBB283:
 2344              	.LBB279:
 2345              	.LBB271:
ARM GAS  C:\Users\pearlstl\AppData\Local\Temp\ccllHTLf.s 			page 57


 195:..\..\..\lvgl\version_6.1.2\lvgl\src\lv_font/lv_font_fmt_txt.c **** 
 2346              		.loc 1 195 0
 2347 01a6 184B     		ldr	r3, .L246+8
 2348 01a8 028A     		ldrh	r2, [r0, #16]
 2349 01aa 8168     		ldr	r1, [r0, #8]
 2350 01ac 0093     		str	r3, [sp]
 2351              	.LVL276:
 2352 01ae 03A8     		add	r0, sp, #12
 2353 01b0 0223     		movs	r3, #2
 2354 01b2 FFF7FEFF 		bl	lv_utils_bsearch
 2355              	.LVL277:
 197:..\..\..\lvgl\version_6.1.2\lvgl\src\lv_font/lv_font_fmt_txt.c ****                 lv_uintptr_t ofs = (lv_uintptr_t)(p - (uint8_t*) fdsc->cmaps[i].unicode_list);
 2356              		.loc 1 197 0
 2357 01b6 0028     		cmp	r0, #0
 2358 01b8 3FF45DAF 		beq	.L201
 2359              	.LBB272:
 198:..\..\..\lvgl\version_6.1.2\lvgl\src\lv_font/lv_font_fmt_txt.c ****                 ofs = ofs >> 1;     /*The list stores `uint16_t` so the get the index divide by 2*/
 2360              		.loc 1 198 0
 2361 01bc AB68     		ldr	r3, [r5, #8]
 2362 01be 9A44     		add	r10, r10, r3
 2363 01c0 DAF80820 		ldr	r2, [r10, #8]
 201:..\..\..\lvgl\version_6.1.2\lvgl\src\lv_font/lv_font_fmt_txt.c ****             }
 2364              		.loc 1 201 0
 2365 01c4 DAF80C10 		ldr	r1, [r10, #12]
 2366 01c8 BAF80630 		ldrh	r3, [r10, #6]
 198:..\..\..\lvgl\version_6.1.2\lvgl\src\lv_font/lv_font_fmt_txt.c ****                 ofs = ofs >> 1;     /*The list stores `uint16_t` so the get the index divide by 2*/
 2367              		.loc 1 198 0
 2368 01cc 821A     		subs	r2, r0, r2
 2369              	.LVL278:
 201:..\..\..\lvgl\version_6.1.2\lvgl\src\lv_font/lv_font_fmt_txt.c ****             }
 2370              		.loc 1 201 0
 2371 01ce 5208     		lsrs	r2, r2, #1
 2372              	.LVL279:
 2373 01d0 8A5C     		ldrb	r2, [r1, r2]	@ zero_extendqisi2
 2374              	.LVL280:
 2375 01d2 D118     		adds	r1, r2, r3
 2376              	.LVL281:
 2377 01d4 58E7     		b	.L197
 2378              	.LVL282:
 2379              	.L242:
 2380              	.LBE272:
 2381              	.LBE271:
 2382              	.LBB273:
 186:..\..\..\lvgl\version_6.1.2\lvgl\src\lv_font/lv_font_fmt_txt.c **** 
 2383              		.loc 1 186 0
 2384 01d6 028A     		ldrh	r2, [r0, #16]
 2385 01d8 8168     		ldr	r1, [r0, #8]
 2386 01da 0B48     		ldr	r0, .L246+8
 2387 01dc 0090     		str	r0, [sp]
 2388              	.LVL283:
 2389 01de 03A8     		add	r0, sp, #12
 2390 01e0 FFF7FEFF 		bl	lv_utils_bsearch
 2391              	.LVL284:
 188:..\..\..\lvgl\version_6.1.2\lvgl\src\lv_font/lv_font_fmt_txt.c ****                 lv_uintptr_t ofs = (lv_uintptr_t)(p - (uint8_t *) fdsc->cmaps[i].unicode_list);
 2392              		.loc 1 188 0
 2393 01e4 0028     		cmp	r0, #0
 2394 01e6 3FF446AF 		beq	.L201
ARM GAS  C:\Users\pearlstl\AppData\Local\Temp\ccllHTLf.s 			page 58


 2395              	.LBB274:
 189:..\..\..\lvgl\version_6.1.2\lvgl\src\lv_font/lv_font_fmt_txt.c ****                 ofs = ofs >> 1;     /*The list stores `uint16_t` so the get the index divide by 2*/
 2396              		.loc 1 189 0
 2397 01ea AB68     		ldr	r3, [r5, #8]
 2398 01ec 9A44     		add	r10, r10, r3
 2399 01ee DAF80820 		ldr	r2, [r10, #8]
 191:..\..\..\lvgl\version_6.1.2\lvgl\src\lv_font/lv_font_fmt_txt.c ****             }
 2400              		.loc 1 191 0
 2401 01f2 BAF80630 		ldrh	r3, [r10, #6]
 189:..\..\..\lvgl\version_6.1.2\lvgl\src\lv_font/lv_font_fmt_txt.c ****                 ofs = ofs >> 1;     /*The list stores `uint16_t` so the get the index divide by 2*/
 2402              		.loc 1 189 0
 2403 01f6 821A     		subs	r2, r0, r2
 2404              	.LVL285:
 191:..\..\..\lvgl\version_6.1.2\lvgl\src\lv_font/lv_font_fmt_txt.c ****             }
 2405              		.loc 1 191 0
 2406 01f8 03EB5201 		add	r1, r3, r2, lsr #1
 2407              	.LVL286:
 2408 01fc 44E7     		b	.L197
 2409              	.L247:
 2410 01fe 00BF     		.align	2
 2411              	.L246:
 2412 0200 00000000 		.word	kern_pair_16_compare
 2413 0204 00000000 		.word	kern_pair_8_compare
 2414 0208 00000000 		.word	unicode_list_compare
 2415              	.LBE274:
 2416              	.LBE273:
 2417              	.LBE279:
 2418              	.LBE283:
 2419              	.LBE287:
 2420              	.LBE292:
 2421              	.LBE319:
 2422              		.cfi_endproc
 2423              	.LFE32:
 2424              		.size	lv_font_get_glyph_dsc_fmt_txt, .-lv_font_get_glyph_dsc_fmt_txt
 2425              		.bss
 2426              		.align	2
 2427              		.set	.LANCHOR0,. + 0
 2428              		.type	buf.6209, %object
 2429              		.size	buf.6209, 4
 2430              	buf.6209:
 2431 0000 00000000 		.space	4
 2432              		.type	rle_in, %object
 2433              		.size	rle_in, 4
 2434              	rle_in:
 2435 0004 00000000 		.space	4
 2436              		.type	rle_bpp, %object
 2437              		.size	rle_bpp, 1
 2438              	rle_bpp:
 2439 0008 00       		.space	1
 2440              		.type	rle_state, %object
 2441              		.size	rle_state, 1
 2442              	rle_state:
 2443 0009 00       		.space	1
 2444 000a 0000     		.space	2
 2445              		.type	rle_rdp, %object
 2446              		.size	rle_rdp, 4
 2447              	rle_rdp:
ARM GAS  C:\Users\pearlstl\AppData\Local\Temp\ccllHTLf.s 			page 59


 2448 000c 00000000 		.space	4
 2449              		.type	rle_prev_v, %object
 2450              		.size	rle_prev_v, 1
 2451              	rle_prev_v:
 2452 0010 00       		.space	1
 2453              		.type	rle_cnt, %object
 2454              		.size	rle_cnt, 1
 2455              	rle_cnt:
 2456 0011 00       		.space	1
 2457              		.text
 2458              	.Letext0:
 2459              		.file 2 "c:\\program files (x86)\\cypress\\psoc creator\\4.2\\psoc creator\\import\\gnu\\arm\\5.4.
 2460              		.file 3 "c:\\program files (x86)\\cypress\\psoc creator\\4.2\\psoc creator\\import\\gnu\\arm\\5.4.
 2461              		.file 4 "..\\..\\..\\lvgl\\version_6.1.2\\lvgl\\src\\lv_font\\../../../lv_conf.h"
 2462              		.file 5 "..\\..\\..\\lvgl\\version_6.1.2\\lvgl\\src\\lv_font\\lv_font.h"
 2463              		.file 6 "..\\..\\..\\lvgl\\version_6.1.2\\lvgl\\src\\lv_font\\lv_font_fmt_txt.h"
 2464              		.file 7 "..\\..\\..\\lvgl\\version_6.1.2\\lvgl\\src\\lv_font\\../lv_core/../lv_misc/lv_types.h"
 2465              		.file 8 "..\\..\\..\\lvgl\\version_6.1.2\\lvgl\\src\\lv_font\\../lv_misc/lv_utils.h"
 2466              		.file 9 "..\\..\\..\\lvgl\\version_6.1.2\\lvgl\\src\\lv_font\\../lv_draw/lv_draw.h"
 2467              		.file 10 "..\\..\\..\\lvgl\\version_6.1.2\\lvgl\\src\\lv_font\\../lv_core/../lv_misc/lv_mem.h"
 2468              		.section	.debug_info,"",%progbits
 2469              	.Ldebug_info0:
 2470 0000 65150000 		.4byte	0x1565
 2471 0004 0400     		.2byte	0x4
 2472 0006 00000000 		.4byte	.Ldebug_abbrev0
 2473 000a 04       		.byte	0x4
 2474 000b 01       		.uleb128 0x1
 2475 000c 62050000 		.4byte	.LASF141
 2476 0010 0C       		.byte	0xc
 2477 0011 35070000 		.4byte	.LASF142
 2478 0015 53030000 		.4byte	.LASF143
 2479 0019 00040000 		.4byte	.Ldebug_ranges0+0x400
 2480 001d 00000000 		.4byte	0
 2481 0021 00000000 		.4byte	.Ldebug_line0
 2482 0025 02       		.uleb128 0x2
 2483 0026 C3000000 		.4byte	.LASF0
 2484 002a 02       		.byte	0x2
 2485 002b 1B       		.byte	0x1b
 2486 002c 30000000 		.4byte	0x30
 2487 0030 03       		.uleb128 0x3
 2488 0031 01       		.byte	0x1
 2489 0032 06       		.byte	0x6
 2490 0033 11010000 		.4byte	.LASF2
 2491 0037 02       		.uleb128 0x2
 2492 0038 57000000 		.4byte	.LASF1
 2493 003c 02       		.byte	0x2
 2494 003d 1D       		.byte	0x1d
 2495 003e 42000000 		.4byte	0x42
 2496 0042 03       		.uleb128 0x3
 2497 0043 01       		.byte	0x1
 2498 0044 08       		.byte	0x8
 2499 0045 1D060000 		.4byte	.LASF3
 2500 0049 02       		.uleb128 0x2
 2501 004a 62020000 		.4byte	.LASF4
 2502 004e 02       		.byte	0x2
 2503 004f 29       		.byte	0x29
 2504 0050 54000000 		.4byte	0x54
ARM GAS  C:\Users\pearlstl\AppData\Local\Temp\ccllHTLf.s 			page 60


 2505 0054 03       		.uleb128 0x3
 2506 0055 02       		.byte	0x2
 2507 0056 05       		.byte	0x5
 2508 0057 5A060000 		.4byte	.LASF5
 2509 005b 02       		.uleb128 0x2
 2510 005c C9060000 		.4byte	.LASF6
 2511 0060 02       		.byte	0x2
 2512 0061 2B       		.byte	0x2b
 2513 0062 66000000 		.4byte	0x66
 2514 0066 03       		.uleb128 0x3
 2515 0067 02       		.byte	0x2
 2516 0068 07       		.byte	0x7
 2517 0069 0D030000 		.4byte	.LASF7
 2518 006d 02       		.uleb128 0x2
 2519 006e F6030000 		.4byte	.LASF8
 2520 0072 02       		.byte	0x2
 2521 0073 3F       		.byte	0x3f
 2522 0074 78000000 		.4byte	0x78
 2523 0078 03       		.uleb128 0x3
 2524 0079 04       		.byte	0x4
 2525 007a 05       		.byte	0x5
 2526 007b 83010000 		.4byte	.LASF9
 2527 007f 02       		.uleb128 0x2
 2528 0080 46020000 		.4byte	.LASF10
 2529 0084 02       		.byte	0x2
 2530 0085 41       		.byte	0x41
 2531 0086 8A000000 		.4byte	0x8a
 2532 008a 03       		.uleb128 0x3
 2533 008b 04       		.byte	0x4
 2534 008c 07       		.byte	0x7
 2535 008d CF020000 		.4byte	.LASF11
 2536 0091 03       		.uleb128 0x3
 2537 0092 08       		.byte	0x8
 2538 0093 05       		.byte	0x5
 2539 0094 03010000 		.4byte	.LASF12
 2540 0098 03       		.uleb128 0x3
 2541 0099 08       		.byte	0x8
 2542 009a 07       		.byte	0x7
 2543 009b A8010000 		.4byte	.LASF13
 2544 009f 04       		.uleb128 0x4
 2545 00a0 04       		.byte	0x4
 2546 00a1 05       		.byte	0x5
 2547 00a2 696E7400 		.ascii	"int\000"
 2548 00a6 03       		.uleb128 0x3
 2549 00a7 04       		.byte	0x4
 2550 00a8 07       		.byte	0x7
 2551 00a9 8E020000 		.4byte	.LASF14
 2552 00ad 02       		.uleb128 0x2
 2553 00ae 7D070000 		.4byte	.LASF15
 2554 00b2 03       		.byte	0x3
 2555 00b3 14       		.byte	0x14
 2556 00b4 25000000 		.4byte	0x25
 2557 00b8 02       		.uleb128 0x2
 2558 00b9 11080000 		.4byte	.LASF16
 2559 00bd 03       		.byte	0x3
 2560 00be 18       		.byte	0x18
 2561 00bf 37000000 		.4byte	0x37
ARM GAS  C:\Users\pearlstl\AppData\Local\Temp\ccllHTLf.s 			page 61


 2562 00c3 02       		.uleb128 0x2
 2563 00c4 FB000000 		.4byte	.LASF17
 2564 00c8 03       		.byte	0x3
 2565 00c9 20       		.byte	0x20
 2566 00ca 49000000 		.4byte	0x49
 2567 00ce 02       		.uleb128 0x2
 2568 00cf 9F010000 		.4byte	.LASF18
 2569 00d3 03       		.byte	0x3
 2570 00d4 24       		.byte	0x24
 2571 00d5 5B000000 		.4byte	0x5b
 2572 00d9 02       		.uleb128 0x2
 2573 00da 15060000 		.4byte	.LASF19
 2574 00de 03       		.byte	0x3
 2575 00df 2C       		.byte	0x2c
 2576 00e0 6D000000 		.4byte	0x6d
 2577 00e4 02       		.uleb128 0x2
 2578 00e5 6F080000 		.4byte	.LASF20
 2579 00e9 03       		.byte	0x3
 2580 00ea 30       		.byte	0x30
 2581 00eb 7F000000 		.4byte	0x7f
 2582 00ef 02       		.uleb128 0x2
 2583 00f0 F0000000 		.4byte	.LASF21
 2584 00f4 04       		.byte	0x4
 2585 00f5 3A       		.byte	0x3a
 2586 00f6 C3000000 		.4byte	0xc3
 2587 00fa 05       		.uleb128 0x5
 2588 00fb 04       		.byte	0x4
 2589 00fc 03       		.uleb128 0x3
 2590 00fd 08       		.byte	0x8
 2591 00fe 04       		.byte	0x4
 2592 00ff AF060000 		.4byte	.LASF22
 2593 0103 06       		.uleb128 0x6
 2594 0104 08       		.byte	0x8
 2595 0105 05       		.byte	0x5
 2596 0106 2E       		.byte	0x2e
 2597 0107 54010000 		.4byte	0x154
 2598 010b 07       		.uleb128 0x7
 2599 010c 00070000 		.4byte	.LASF23
 2600 0110 05       		.byte	0x5
 2601 0111 30       		.byte	0x30
 2602 0112 CE000000 		.4byte	0xce
 2603 0116 00       		.byte	0
 2604 0117 07       		.uleb128 0x7
 2605 0118 BE070000 		.4byte	.LASF24
 2606 011c 05       		.byte	0x5
 2607 011d 31       		.byte	0x31
 2608 011e B8000000 		.4byte	0xb8
 2609 0122 02       		.byte	0x2
 2610 0123 07       		.uleb128 0x7
 2611 0124 9E070000 		.4byte	.LASF25
 2612 0128 05       		.byte	0x5
 2613 0129 32       		.byte	0x32
 2614 012a B8000000 		.4byte	0xb8
 2615 012e 03       		.byte	0x3
 2616 012f 07       		.uleb128 0x7
 2617 0130 3B080000 		.4byte	.LASF26
 2618 0134 05       		.byte	0x5
ARM GAS  C:\Users\pearlstl\AppData\Local\Temp\ccllHTLf.s 			page 62


 2619 0135 33       		.byte	0x33
 2620 0136 AD000000 		.4byte	0xad
 2621 013a 04       		.byte	0x4
 2622 013b 07       		.uleb128 0x7
 2623 013c 41080000 		.4byte	.LASF27
 2624 0140 05       		.byte	0x5
 2625 0141 34       		.byte	0x34
 2626 0142 AD000000 		.4byte	0xad
 2627 0146 05       		.byte	0x5
 2628 0147 08       		.uleb128 0x8
 2629 0148 62707000 		.ascii	"bpp\000"
 2630 014c 05       		.byte	0x5
 2631 014d 35       		.byte	0x35
 2632 014e B8000000 		.4byte	0xb8
 2633 0152 06       		.byte	0x6
 2634 0153 00       		.byte	0
 2635 0154 02       		.uleb128 0x2
 2636 0155 0D040000 		.4byte	.LASF28
 2637 0159 05       		.byte	0x5
 2638 015a 36       		.byte	0x36
 2639 015b 03010000 		.4byte	0x103
 2640 015f 09       		.uleb128 0x9
 2641 0160 C4070000 		.4byte	.LASF144
 2642 0164 10       		.byte	0x10
 2643 0165 05       		.byte	0x5
 2644 0166 44       		.byte	0x44
 2645 0167 B7010000 		.4byte	0x1b7
 2646 016b 07       		.uleb128 0x7
 2647 016c 9B020000 		.4byte	.LASF29
 2648 0170 05       		.byte	0x5
 2649 0171 47       		.byte	0x47
 2650 0172 ED010000 		.4byte	0x1ed
 2651 0176 00       		.byte	0
 2652 0177 07       		.uleb128 0x7
 2653 0178 32000000 		.4byte	.LASF30
 2654 017c 05       		.byte	0x5
 2655 017d 4A       		.byte	0x4a
 2656 017e 12020000 		.4byte	0x212
 2657 0182 04       		.byte	0x4
 2658 0183 07       		.uleb128 0x7
 2659 0184 2D030000 		.4byte	.LASF31
 2660 0188 05       		.byte	0x5
 2661 0189 4D       		.byte	0x4d
 2662 018a B8000000 		.4byte	0xb8
 2663 018e 08       		.byte	0x8
 2664 018f 07       		.uleb128 0x7
 2665 0190 20050000 		.4byte	.LASF32
 2666 0194 05       		.byte	0x5
 2667 0195 4E       		.byte	0x4e
 2668 0196 AD000000 		.4byte	0xad
 2669 019a 09       		.byte	0x9
 2670 019b 0A       		.uleb128 0xa
 2671 019c 4D030000 		.4byte	.LASF35
 2672 01a0 05       		.byte	0x5
 2673 01a1 4F       		.byte	0x4f
 2674 01a2 B8000000 		.4byte	0xb8
 2675 01a6 01       		.byte	0x1
ARM GAS  C:\Users\pearlstl\AppData\Local\Temp\ccllHTLf.s 			page 63


 2676 01a7 02       		.byte	0x2
 2677 01a8 06       		.byte	0x6
 2678 01a9 0A       		.byte	0xa
 2679 01aa 08       		.uleb128 0x8
 2680 01ab 64736300 		.ascii	"dsc\000"
 2681 01af 05       		.byte	0x5
 2682 01b0 50       		.byte	0x50
 2683 01b1 FA000000 		.4byte	0xfa
 2684 01b5 0C       		.byte	0xc
 2685 01b6 00       		.byte	0
 2686 01b7 0B       		.uleb128 0xb
 2687 01b8 D5010000 		.4byte	0x1d5
 2688 01bc D5010000 		.4byte	0x1d5
 2689 01c0 0C       		.uleb128 0xc
 2690 01c1 DC010000 		.4byte	0x1dc
 2691 01c5 0C       		.uleb128 0xc
 2692 01c6 E7010000 		.4byte	0x1e7
 2693 01ca 0C       		.uleb128 0xc
 2694 01cb E4000000 		.4byte	0xe4
 2695 01cf 0C       		.uleb128 0xc
 2696 01d0 E4000000 		.4byte	0xe4
 2697 01d4 00       		.byte	0
 2698 01d5 03       		.uleb128 0x3
 2699 01d6 01       		.byte	0x1
 2700 01d7 02       		.byte	0x2
 2701 01d8 A9060000 		.4byte	.LASF33
 2702 01dc 0D       		.uleb128 0xd
 2703 01dd 04       		.byte	0x4
 2704 01de E2010000 		.4byte	0x1e2
 2705 01e2 0E       		.uleb128 0xe
 2706 01e3 5F010000 		.4byte	0x15f
 2707 01e7 0D       		.uleb128 0xd
 2708 01e8 04       		.byte	0x4
 2709 01e9 54010000 		.4byte	0x154
 2710 01ed 0D       		.uleb128 0xd
 2711 01ee 04       		.byte	0x4
 2712 01ef B7010000 		.4byte	0x1b7
 2713 01f3 0B       		.uleb128 0xb
 2714 01f4 07020000 		.4byte	0x207
 2715 01f8 07020000 		.4byte	0x207
 2716 01fc 0C       		.uleb128 0xc
 2717 01fd DC010000 		.4byte	0x1dc
 2718 0201 0C       		.uleb128 0xc
 2719 0202 E4000000 		.4byte	0xe4
 2720 0206 00       		.byte	0
 2721 0207 0D       		.uleb128 0xd
 2722 0208 04       		.byte	0x4
 2723 0209 0D020000 		.4byte	0x20d
 2724 020d 0E       		.uleb128 0xe
 2725 020e B8000000 		.4byte	0xb8
 2726 0212 0D       		.uleb128 0xd
 2727 0213 04       		.byte	0x4
 2728 0214 F3010000 		.4byte	0x1f3
 2729 0218 02       		.uleb128 0x2
 2730 0219 80000000 		.4byte	.LASF34
 2731 021d 05       		.byte	0x5
 2732 021e 56       		.byte	0x56
ARM GAS  C:\Users\pearlstl\AppData\Local\Temp\ccllHTLf.s 			page 64


 2733 021f 5F010000 		.4byte	0x15f
 2734 0223 06       		.uleb128 0x6
 2735 0224 08       		.byte	0x8
 2736 0225 06       		.byte	0x6
 2737 0226 24       		.byte	0x24
 2738 0227 7A020000 		.4byte	0x27a
 2739 022b 0A       		.uleb128 0xa
 2740 022c 1D010000 		.4byte	.LASF36
 2741 0230 06       		.byte	0x6
 2742 0231 27       		.byte	0x27
 2743 0232 E4000000 		.4byte	0xe4
 2744 0236 04       		.byte	0x4
 2745 0237 14       		.byte	0x14
 2746 0238 0C       		.byte	0xc
 2747 0239 00       		.byte	0
 2748 023a 0A       		.uleb128 0xa
 2749 023b 00070000 		.4byte	.LASF23
 2750 023f 06       		.byte	0x6
 2751 0240 28       		.byte	0x28
 2752 0241 E4000000 		.4byte	0xe4
 2753 0245 04       		.byte	0x4
 2754 0246 0C       		.byte	0xc
 2755 0247 00       		.byte	0
 2756 0248 00       		.byte	0
 2757 0249 07       		.uleb128 0x7
 2758 024a BE070000 		.4byte	.LASF24
 2759 024e 06       		.byte	0x6
 2760 024f 2D       		.byte	0x2d
 2761 0250 B8000000 		.4byte	0xb8
 2762 0254 04       		.byte	0x4
 2763 0255 07       		.uleb128 0x7
 2764 0256 9E070000 		.4byte	.LASF25
 2765 025a 06       		.byte	0x6
 2766 025b 2E       		.byte	0x2e
 2767 025c B8000000 		.4byte	0xb8
 2768 0260 05       		.byte	0x5
 2769 0261 07       		.uleb128 0x7
 2770 0262 3B080000 		.4byte	.LASF26
 2771 0266 06       		.byte	0x6
 2772 0267 2F       		.byte	0x2f
 2773 0268 AD000000 		.4byte	0xad
 2774 026c 06       		.byte	0x6
 2775 026d 07       		.uleb128 0x7
 2776 026e 41080000 		.4byte	.LASF27
 2777 0272 06       		.byte	0x6
 2778 0273 30       		.byte	0x30
 2779 0274 AD000000 		.4byte	0xad
 2780 0278 07       		.byte	0x7
 2781 0279 00       		.byte	0
 2782 027a 02       		.uleb128 0x2
 2783 027b 33050000 		.4byte	.LASF37
 2784 027f 06       		.byte	0x6
 2785 0280 31       		.byte	0x31
 2786 0281 23020000 		.4byte	0x223
 2787 0285 0F       		.uleb128 0xf
 2788 0286 01       		.byte	0x1
 2789 0287 42000000 		.4byte	0x42
ARM GAS  C:\Users\pearlstl\AppData\Local\Temp\ccllHTLf.s 			page 65


 2790 028b 06       		.byte	0x6
 2791 028c 35       		.byte	0x35
 2792 028d AA020000 		.4byte	0x2aa
 2793 0291 10       		.uleb128 0x10
 2794 0292 19080000 		.4byte	.LASF38
 2795 0296 00       		.byte	0
 2796 0297 10       		.uleb128 0x10
 2797 0298 78080000 		.4byte	.LASF39
 2798 029c 01       		.byte	0x1
 2799 029d 10       		.uleb128 0x10
 2800 029e 58010000 		.4byte	.LASF40
 2801 02a2 02       		.byte	0x2
 2802 02a3 10       		.uleb128 0x10
 2803 02a4 25020000 		.4byte	.LASF41
 2804 02a8 03       		.byte	0x3
 2805 02a9 00       		.byte	0
 2806 02aa 02       		.uleb128 0x2
 2807 02ab B6040000 		.4byte	.LASF42
 2808 02af 06       		.byte	0x6
 2809 02b0 3C       		.byte	0x3c
 2810 02b1 B8000000 		.4byte	0xb8
 2811 02b5 06       		.uleb128 0x6
 2812 02b6 14       		.byte	0x14
 2813 02b7 06       		.byte	0x6
 2814 02b8 43       		.byte	0x43
 2815 02b9 12030000 		.4byte	0x312
 2816 02bd 07       		.uleb128 0x7
 2817 02be 9D060000 		.4byte	.LASF43
 2818 02c2 06       		.byte	0x6
 2819 02c3 45       		.byte	0x45
 2820 02c4 E4000000 		.4byte	0xe4
 2821 02c8 00       		.byte	0
 2822 02c9 07       		.uleb128 0x7
 2823 02ca 20030000 		.4byte	.LASF44
 2824 02ce 06       		.byte	0x6
 2825 02cf 49       		.byte	0x49
 2826 02d0 CE000000 		.4byte	0xce
 2827 02d4 04       		.byte	0x4
 2828 02d5 07       		.uleb128 0x7
 2829 02d6 15070000 		.4byte	.LASF45
 2830 02da 06       		.byte	0x6
 2831 02db 4C       		.byte	0x4c
 2832 02dc CE000000 		.4byte	0xce
 2833 02e0 06       		.byte	0x6
 2834 02e1 07       		.uleb128 0x7
 2835 02e2 EB040000 		.4byte	.LASF46
 2836 02e6 06       		.byte	0x6
 2837 02e7 69       		.byte	0x69
 2838 02e8 12030000 		.4byte	0x312
 2839 02ec 08       		.byte	0x8
 2840 02ed 07       		.uleb128 0x7
 2841 02ee 4F040000 		.4byte	.LASF47
 2842 02f2 06       		.byte	0x6
 2843 02f3 6E       		.byte	0x6e
 2844 02f4 1D030000 		.4byte	0x31d
 2845 02f8 0C       		.byte	0xc
 2846 02f9 07       		.uleb128 0x7
ARM GAS  C:\Users\pearlstl\AppData\Local\Temp\ccllHTLf.s 			page 66


 2847 02fa 26000000 		.4byte	.LASF48
 2848 02fe 06       		.byte	0x6
 2849 02ff 71       		.byte	0x71
 2850 0300 CE000000 		.4byte	0xce
 2851 0304 10       		.byte	0x10
 2852 0305 07       		.uleb128 0x7
 2853 0306 61000000 		.4byte	.LASF49
 2854 030a 06       		.byte	0x6
 2855 030b 74       		.byte	0x74
 2856 030c AA020000 		.4byte	0x2aa
 2857 0310 12       		.byte	0x12
 2858 0311 00       		.byte	0
 2859 0312 0D       		.uleb128 0xd
 2860 0313 04       		.byte	0x4
 2861 0314 18030000 		.4byte	0x318
 2862 0318 0E       		.uleb128 0xe
 2863 0319 CE000000 		.4byte	0xce
 2864 031d 0D       		.uleb128 0xd
 2865 031e 04       		.byte	0x4
 2866 031f 23030000 		.4byte	0x323
 2867 0323 11       		.uleb128 0x11
 2868 0324 02       		.uleb128 0x2
 2869 0325 D6030000 		.4byte	.LASF50
 2870 0329 06       		.byte	0x6
 2871 032a 75       		.byte	0x75
 2872 032b B5020000 		.4byte	0x2b5
 2873 032f 06       		.uleb128 0x6
 2874 0330 0C       		.byte	0xc
 2875 0331 06       		.byte	0x6
 2876 0332 78       		.byte	0x78
 2877 0333 6E030000 		.4byte	0x36e
 2878 0337 07       		.uleb128 0x7
 2879 0338 2A040000 		.4byte	.LASF51
 2880 033c 06       		.byte	0x6
 2881 033d 80       		.byte	0x80
 2882 033e 1D030000 		.4byte	0x31d
 2883 0342 00       		.byte	0
 2884 0343 07       		.uleb128 0x7
 2885 0344 90000000 		.4byte	.LASF52
 2886 0348 06       		.byte	0x6
 2887 0349 81       		.byte	0x81
 2888 034a 6E030000 		.4byte	0x36e
 2889 034e 04       		.byte	0x4
 2890 034f 0A       		.uleb128 0xa
 2891 0350 59050000 		.4byte	.LASF53
 2892 0354 06       		.byte	0x6
 2893 0355 82       		.byte	0x82
 2894 0356 E4000000 		.4byte	0xe4
 2895 035a 04       		.byte	0x4
 2896 035b 18       		.byte	0x18
 2897 035c 08       		.byte	0x8
 2898 035d 08       		.byte	0x8
 2899 035e 0A       		.uleb128 0xa
 2900 035f 49010000 		.4byte	.LASF54
 2901 0363 06       		.byte	0x6
 2902 0364 83       		.byte	0x83
 2903 0365 E4000000 		.4byte	0xe4
ARM GAS  C:\Users\pearlstl\AppData\Local\Temp\ccllHTLf.s 			page 67


 2904 0369 04       		.byte	0x4
 2905 036a 02       		.byte	0x2
 2906 036b 06       		.byte	0x6
 2907 036c 08       		.byte	0x8
 2908 036d 00       		.byte	0
 2909 036e 0D       		.uleb128 0xd
 2910 036f 04       		.byte	0x4
 2911 0370 74030000 		.4byte	0x374
 2912 0374 0E       		.uleb128 0xe
 2913 0375 AD000000 		.4byte	0xad
 2914 0379 02       		.uleb128 0x2
 2915 037a 0A000000 		.4byte	.LASF55
 2916 037e 06       		.byte	0x6
 2917 037f 84       		.byte	0x84
 2918 0380 2F030000 		.4byte	0x32f
 2919 0384 06       		.uleb128 0x6
 2920 0385 10       		.byte	0x10
 2921 0386 06       		.byte	0x6
 2922 0387 87       		.byte	0x87
 2923 0388 C9030000 		.4byte	0x3c9
 2924 038c 07       		.uleb128 0x7
 2925 038d 8C070000 		.4byte	.LASF56
 2926 0391 06       		.byte	0x6
 2927 0392 90       		.byte	0x90
 2928 0393 6E030000 		.4byte	0x36e
 2929 0397 00       		.byte	0
 2930 0398 07       		.uleb128 0x7
 2931 0399 DC070000 		.4byte	.LASF57
 2932 039d 06       		.byte	0x6
 2933 039e 91       		.byte	0x91
 2934 039f 07020000 		.4byte	0x207
 2935 03a3 04       		.byte	0x4
 2936 03a4 07       		.uleb128 0x7
 2937 03a5 43000000 		.4byte	.LASF58
 2938 03a9 06       		.byte	0x6
 2939 03aa 92       		.byte	0x92
 2940 03ab 07020000 		.4byte	0x207
 2941 03af 08       		.byte	0x8
 2942 03b0 07       		.uleb128 0x7
 2943 03b1 A4070000 		.4byte	.LASF59
 2944 03b5 06       		.byte	0x6
 2945 03b6 93       		.byte	0x93
 2946 03b7 B8000000 		.4byte	0xb8
 2947 03bb 0C       		.byte	0xc
 2948 03bc 07       		.uleb128 0x7
 2949 03bd BF020000 		.4byte	.LASF60
 2950 03c1 06       		.byte	0x6
 2951 03c2 94       		.byte	0x94
 2952 03c3 B8000000 		.4byte	0xb8
 2953 03c7 0D       		.byte	0xd
 2954 03c8 00       		.byte	0
 2955 03c9 02       		.uleb128 0x2
 2956 03ca 2A010000 		.4byte	.LASF61
 2957 03ce 06       		.byte	0x6
 2958 03cf 95       		.byte	0x95
 2959 03d0 84030000 		.4byte	0x384
 2960 03d4 0F       		.uleb128 0xf
ARM GAS  C:\Users\pearlstl\AppData\Local\Temp\ccllHTLf.s 			page 68


 2961 03d5 01       		.byte	0x1
 2962 03d6 42000000 		.4byte	0x42
 2963 03da 06       		.byte	0x6
 2964 03db 99       		.byte	0x99
 2965 03dc ED030000 		.4byte	0x3ed
 2966 03e0 10       		.uleb128 0x10
 2967 03e1 0F020000 		.4byte	.LASF62
 2968 03e5 00       		.byte	0
 2969 03e6 10       		.uleb128 0x10
 2970 03e7 DA010000 		.4byte	.LASF63
 2971 03eb 01       		.byte	0x1
 2972 03ec 00       		.byte	0
 2973 03ed 06       		.uleb128 0x6
 2974 03ee 1C       		.byte	0x1c
 2975 03ef 06       		.byte	0x6
 2976 03f0 A0       		.byte	0xa0
 2977 03f1 86040000 		.4byte	0x486
 2978 03f5 07       		.uleb128 0x7
 2979 03f6 00040000 		.4byte	.LASF64
 2980 03fa 06       		.byte	0x6
 2981 03fb A2       		.byte	0xa2
 2982 03fc 07020000 		.4byte	0x207
 2983 0400 00       		.byte	0
 2984 0401 07       		.uleb128 0x7
 2985 0402 00000000 		.4byte	.LASF65
 2986 0406 06       		.byte	0x6
 2987 0407 A5       		.byte	0xa5
 2988 0408 86040000 		.4byte	0x486
 2989 040c 04       		.byte	0x4
 2990 040d 07       		.uleb128 0x7
 2991 040e 8A000000 		.4byte	.LASF66
 2992 0412 06       		.byte	0x6
 2993 0413 A9       		.byte	0xa9
 2994 0414 91040000 		.4byte	0x491
 2995 0418 08       		.byte	0x8
 2996 0419 07       		.uleb128 0x7
 2997 041a 74070000 		.4byte	.LASF67
 2998 041e 06       		.byte	0x6
 2999 041f AF       		.byte	0xaf
 3000 0420 1D030000 		.4byte	0x31d
 3001 0424 0C       		.byte	0xc
 3002 0425 07       		.uleb128 0x7
 3003 0426 A9020000 		.4byte	.LASF68
 3004 042a 06       		.byte	0x6
 3005 042b B2       		.byte	0xb2
 3006 042c CE000000 		.4byte	0xce
 3007 0430 10       		.byte	0x10
 3008 0431 0A       		.uleb128 0xa
 3009 0432 9E040000 		.4byte	.LASF69
 3010 0436 06       		.byte	0x6
 3011 0437 B5       		.byte	0xb5
 3012 0438 CE000000 		.4byte	0xce
 3013 043c 02       		.byte	0x2
 3014 043d 0A       		.byte	0xa
 3015 043e 06       		.byte	0x6
 3016 043f 12       		.byte	0x12
 3017 0440 12       		.uleb128 0x12
ARM GAS  C:\Users\pearlstl\AppData\Local\Temp\ccllHTLf.s 			page 69


 3018 0441 62707000 		.ascii	"bpp\000"
 3019 0445 06       		.byte	0x6
 3020 0446 B8       		.byte	0xb8
 3021 0447 CE000000 		.4byte	0xce
 3022 044b 02       		.byte	0x2
 3023 044c 03       		.byte	0x3
 3024 044d 03       		.byte	0x3
 3025 044e 12       		.byte	0x12
 3026 044f 0A       		.uleb128 0xa
 3027 0450 62080000 		.4byte	.LASF70
 3028 0454 06       		.byte	0x6
 3029 0455 BB       		.byte	0xbb
 3030 0456 CE000000 		.4byte	0xce
 3031 045a 02       		.byte	0x2
 3032 045b 01       		.byte	0x1
 3033 045c 02       		.byte	0x2
 3034 045d 12       		.byte	0x12
 3035 045e 0A       		.uleb128 0xa
 3036 045f 03080000 		.4byte	.LASF71
 3037 0463 06       		.byte	0x6
 3038 0464 C1       		.byte	0xc1
 3039 0465 CE000000 		.4byte	0xce
 3040 0469 02       		.byte	0x2
 3041 046a 02       		.byte	0x2
 3042 046b 00       		.byte	0
 3043 046c 12       		.byte	0x12
 3044 046d 07       		.uleb128 0x7
 3045 046e 72020000 		.4byte	.LASF72
 3046 0472 06       		.byte	0x6
 3047 0473 C4       		.byte	0xc4
 3048 0474 E4000000 		.4byte	0xe4
 3049 0478 14       		.byte	0x14
 3050 0479 07       		.uleb128 0x7
 3051 047a 74060000 		.4byte	.LASF73
 3052 047e 06       		.byte	0x6
 3053 047f C5       		.byte	0xc5
 3054 0480 E4000000 		.4byte	0xe4
 3055 0484 18       		.byte	0x18
 3056 0485 00       		.byte	0
 3057 0486 0D       		.uleb128 0xd
 3058 0487 04       		.byte	0x4
 3059 0488 8C040000 		.4byte	0x48c
 3060 048c 0E       		.uleb128 0xe
 3061 048d 7A020000 		.4byte	0x27a
 3062 0491 0D       		.uleb128 0xd
 3063 0492 04       		.byte	0x4
 3064 0493 97040000 		.4byte	0x497
 3065 0497 0E       		.uleb128 0xe
 3066 0498 24030000 		.4byte	0x324
 3067 049c 02       		.uleb128 0x2
 3068 049d C4010000 		.4byte	.LASF74
 3069 04a1 06       		.byte	0x6
 3070 04a2 C7       		.byte	0xc7
 3071 04a3 ED030000 		.4byte	0x3ed
 3072 04a7 03       		.uleb128 0x3
 3073 04a8 04       		.byte	0x4
 3074 04a9 07       		.byte	0x7
ARM GAS  C:\Users\pearlstl\AppData\Local\Temp\ccllHTLf.s 			page 70


 3075 04aa 68040000 		.4byte	.LASF75
 3076 04ae 03       		.uleb128 0x3
 3077 04af 01       		.byte	0x1
 3078 04b0 08       		.byte	0x8
 3079 04b1 BB060000 		.4byte	.LASF76
 3080 04b5 0D       		.uleb128 0xd
 3081 04b6 04       		.byte	0x4
 3082 04b7 BB040000 		.4byte	0x4bb
 3083 04bb 0E       		.uleb128 0xe
 3084 04bc 18020000 		.4byte	0x218
 3085 04c0 02       		.uleb128 0x2
 3086 04c1 F8040000 		.4byte	.LASF77
 3087 04c5 07       		.byte	0x7
 3088 04c6 31       		.byte	0x31
 3089 04c7 E4000000 		.4byte	0xe4
 3090 04cb 0D       		.uleb128 0xd
 3091 04cc 04       		.byte	0x4
 3092 04cd B8000000 		.4byte	0xb8
 3093 04d1 0F       		.uleb128 0xf
 3094 04d2 01       		.byte	0x1
 3095 04d3 42000000 		.4byte	0x42
 3096 04d7 01       		.byte	0x1
 3097 04d8 19       		.byte	0x19
 3098 04d9 F0040000 		.4byte	0x4f0
 3099 04dd 10       		.uleb128 0x10
 3100 04de 24070000 		.4byte	.LASF78
 3101 04e2 00       		.byte	0
 3102 04e3 10       		.uleb128 0x10
 3103 04e4 40060000 		.4byte	.LASF79
 3104 04e8 01       		.byte	0x1
 3105 04e9 10       		.uleb128 0x10
 3106 04ea F6020000 		.4byte	.LASF80
 3107 04ee 02       		.byte	0x2
 3108 04ef 00       		.byte	0
 3109 04f0 02       		.uleb128 0x2
 3110 04f1 05050000 		.4byte	.LASF81
 3111 04f5 01       		.byte	0x1
 3112 04f6 1D       		.byte	0x1d
 3113 04f7 D1040000 		.4byte	0x4d1
 3114 04fb 13       		.uleb128 0x13
 3115 04fc DA060000 		.4byte	.LASF86
 3116 0500 01       		.byte	0x1
 3117 0501 6001     		.2byte	0x160
 3118 0503 B8000000 		.4byte	0xb8
 3119 0507 01       		.byte	0x1
 3120 0508 60050000 		.4byte	0x560
 3121 050c 14       		.uleb128 0x14
 3122 050d 696E00   		.ascii	"in\000"
 3123 0510 01       		.byte	0x1
 3124 0511 6001     		.2byte	0x160
 3125 0513 07020000 		.4byte	0x207
 3126 0517 15       		.uleb128 0x15
 3127 0518 EF070000 		.4byte	.LASF82
 3128 051c 01       		.byte	0x1
 3129 051d 6001     		.2byte	0x160
 3130 051f E4000000 		.4byte	0xe4
 3131 0523 14       		.uleb128 0x14
ARM GAS  C:\Users\pearlstl\AppData\Local\Temp\ccllHTLf.s 			page 71


 3132 0524 6C656E00 		.ascii	"len\000"
 3133 0528 01       		.byte	0x1
 3134 0529 6001     		.2byte	0x160
 3135 052b B8000000 		.4byte	0xb8
 3136 052f 16       		.uleb128 0x16
 3137 0530 72657300 		.ascii	"res\000"
 3138 0534 01       		.byte	0x1
 3139 0535 6201     		.2byte	0x162
 3140 0537 B8000000 		.4byte	0xb8
 3141 053b 17       		.uleb128 0x17
 3142 053c 66000000 		.4byte	.LASF83
 3143 0540 01       		.byte	0x1
 3144 0541 6301     		.2byte	0x163
 3145 0543 E4000000 		.4byte	0xe4
 3146 0547 17       		.uleb128 0x17
 3147 0548 ED030000 		.4byte	.LASF84
 3148 054c 01       		.byte	0x1
 3149 054d 6501     		.2byte	0x165
 3150 054f B8000000 		.4byte	0xb8
 3151 0553 17       		.uleb128 0x17
 3152 0554 E6040000 		.4byte	.LASF85
 3153 0558 01       		.byte	0x1
 3154 0559 6601     		.2byte	0x166
 3155 055b CE000000 		.4byte	0xce
 3156 055f 00       		.byte	0
 3157 0560 18       		.uleb128 0x18
 3158 0561 51020000 		.4byte	.LASF87
 3159 0565 01       		.byte	0x1
 3160 0566 A2       		.byte	0xa2
 3161 0567 E4000000 		.4byte	0xe4
 3162 056b 01       		.byte	0x1
 3163 056c 03060000 		.4byte	0x603
 3164 0570 19       		.uleb128 0x19
 3165 0571 BF010000 		.4byte	.LASF88
 3166 0575 01       		.byte	0x1
 3167 0576 A2       		.byte	0xa2
 3168 0577 B5040000 		.4byte	0x4b5
 3169 057b 19       		.uleb128 0x19
 3170 057c E3060000 		.4byte	.LASF89
 3171 0580 01       		.byte	0x1
 3172 0581 A2       		.byte	0xa2
 3173 0582 E4000000 		.4byte	0xe4
 3174 0586 1A       		.uleb128 0x1a
 3175 0587 6F000000 		.4byte	.LASF90
 3176 058b 01       		.byte	0x1
 3177 058c A6       		.byte	0xa6
 3178 058d 03060000 		.4byte	0x603
 3179 0591 1B       		.uleb128 0x1b
 3180 0592 6900     		.ascii	"i\000"
 3181 0594 01       		.byte	0x1
 3182 0595 AB       		.byte	0xab
 3183 0596 CE000000 		.4byte	0xce
 3184 059a 1C       		.uleb128 0x1c
 3185 059b 1B       		.uleb128 0x1b
 3186 059c 72637000 		.ascii	"rcp\000"
 3187 05a0 01       		.byte	0x1
 3188 05a1 AF       		.byte	0xaf
ARM GAS  C:\Users\pearlstl\AppData\Local\Temp\ccllHTLf.s 			page 72


 3189 05a2 E4000000 		.4byte	0xe4
 3190 05a6 1A       		.uleb128 0x1a
 3191 05a7 06020000 		.4byte	.LASF91
 3192 05ab 01       		.byte	0x1
 3193 05ac B1       		.byte	0xb1
 3194 05ad E4000000 		.4byte	0xe4
 3195 05b1 1D       		.uleb128 0x1d
 3196 05b2 C2050000 		.4byte	0x5c2
 3197 05b6 1A       		.uleb128 0x1a
 3198 05b7 93060000 		.4byte	.LASF92
 3199 05bb 01       		.byte	0x1
 3200 05bc B6       		.byte	0xb6
 3201 05bd 07020000 		.4byte	0x207
 3202 05c1 00       		.byte	0
 3203 05c2 1D       		.uleb128 0x1d
 3204 05c3 DE050000 		.4byte	0x5de
 3205 05c7 1B       		.uleb128 0x1b
 3206 05c8 7000     		.ascii	"p\000"
 3207 05ca 01       		.byte	0x1
 3208 05cb BA       		.byte	0xba
 3209 05cc CB040000 		.4byte	0x4cb
 3210 05d0 1C       		.uleb128 0x1c
 3211 05d1 1B       		.uleb128 0x1b
 3212 05d2 6F667300 		.ascii	"ofs\000"
 3213 05d6 01       		.byte	0x1
 3214 05d7 BD       		.byte	0xbd
 3215 05d8 C0040000 		.4byte	0x4c0
 3216 05dc 00       		.byte	0
 3217 05dd 00       		.byte	0
 3218 05de 1C       		.uleb128 0x1c
 3219 05df 1B       		.uleb128 0x1b
 3220 05e0 7000     		.ascii	"p\000"
 3221 05e2 01       		.byte	0x1
 3222 05e3 C3       		.byte	0xc3
 3223 05e4 CB040000 		.4byte	0x4cb
 3224 05e8 1C       		.uleb128 0x1c
 3225 05e9 1B       		.uleb128 0x1b
 3226 05ea 6F667300 		.ascii	"ofs\000"
 3227 05ee 01       		.byte	0x1
 3228 05ef C6       		.byte	0xc6
 3229 05f0 C0040000 		.4byte	0x4c0
 3230 05f4 1A       		.uleb128 0x1a
 3231 05f5 B3070000 		.4byte	.LASF93
 3232 05f9 01       		.byte	0x1
 3233 05fa C8       		.byte	0xc8
 3234 05fb 07020000 		.4byte	0x207
 3235 05ff 00       		.byte	0
 3236 0600 00       		.byte	0
 3237 0601 00       		.byte	0
 3238 0602 00       		.byte	0
 3239 0603 0D       		.uleb128 0xd
 3240 0604 04       		.byte	0x4
 3241 0605 9C040000 		.4byte	0x49c
 3242 0609 18       		.uleb128 0x18
 3243 060a 06070000 		.4byte	.LASF94
 3244 060e 01       		.byte	0x1
 3245 060f D9       		.byte	0xd9
ARM GAS  C:\Users\pearlstl\AppData\Local\Temp\ccllHTLf.s 			page 73


 3246 0610 AD000000 		.4byte	0xad
 3247 0614 01       		.byte	0x1
 3248 0615 EC060000 		.4byte	0x6ec
 3249 0619 19       		.uleb128 0x19
 3250 061a BF010000 		.4byte	.LASF88
 3251 061e 01       		.byte	0x1
 3252 061f D9       		.byte	0xd9
 3253 0620 B5040000 		.4byte	0x4b5
 3254 0624 19       		.uleb128 0x19
 3255 0625 21040000 		.4byte	.LASF95
 3256 0629 01       		.byte	0x1
 3257 062a D9       		.byte	0xd9
 3258 062b E4000000 		.4byte	0xe4
 3259 062f 19       		.uleb128 0x19
 3260 0630 89060000 		.4byte	.LASF96
 3261 0634 01       		.byte	0x1
 3262 0635 D9       		.byte	0xd9
 3263 0636 E4000000 		.4byte	0xe4
 3264 063a 1A       		.uleb128 0x1a
 3265 063b 6F000000 		.4byte	.LASF90
 3266 063f 01       		.byte	0x1
 3267 0640 DB       		.byte	0xdb
 3268 0641 03060000 		.4byte	0x603
 3269 0645 1A       		.uleb128 0x1a
 3270 0646 6C020000 		.4byte	.LASF97
 3271 064a 01       		.byte	0x1
 3272 064b DD       		.byte	0xdd
 3273 064c AD000000 		.4byte	0xad
 3274 0650 1D       		.uleb128 0x1d
 3275 0651 C5060000 		.4byte	0x6c5
 3276 0655 1A       		.uleb128 0x1a
 3277 0656 47080000 		.4byte	.LASF98
 3278 065a 01       		.byte	0x1
 3279 065b E1       		.byte	0xe1
 3280 065c EC060000 		.4byte	0x6ec
 3281 0660 1D       		.uleb128 0x1d
 3282 0661 94060000 		.4byte	0x694
 3283 0665 1A       		.uleb128 0x1a
 3284 0666 EA000000 		.4byte	.LASF99
 3285 066a 01       		.byte	0x1
 3286 066b E5       		.byte	0xe5
 3287 066c 07020000 		.4byte	0x207
 3288 0670 1A       		.uleb128 0x1a
 3289 0671 8C010000 		.4byte	.LASF100
 3290 0675 01       		.byte	0x1
 3291 0676 E6       		.byte	0xe6
 3292 0677 CE000000 		.4byte	0xce
 3293 067b 1A       		.uleb128 0x1a
 3294 067c D4060000 		.4byte	.LASF101
 3295 0680 01       		.byte	0x1
 3296 0681 E7       		.byte	0xe7
 3297 0682 CB040000 		.4byte	0x4cb
 3298 0686 1C       		.uleb128 0x1c
 3299 0687 1B       		.uleb128 0x1b
 3300 0688 6F667300 		.ascii	"ofs\000"
 3301 068c 01       		.byte	0x1
 3302 068d EB       		.byte	0xeb
ARM GAS  C:\Users\pearlstl\AppData\Local\Temp\ccllHTLf.s 			page 74


 3303 068e C0040000 		.4byte	0x4c0
 3304 0692 00       		.byte	0
 3305 0693 00       		.byte	0
 3306 0694 1C       		.uleb128 0x1c
 3307 0695 1A       		.uleb128 0x1a
 3308 0696 EA000000 		.4byte	.LASF99
 3309 069a 01       		.byte	0x1
 3310 069b F2       		.byte	0xf2
 3311 069c 12030000 		.4byte	0x312
 3312 06a0 1A       		.uleb128 0x1a
 3313 06a1 8C010000 		.4byte	.LASF100
 3314 06a5 01       		.byte	0x1
 3315 06a6 F3       		.byte	0xf3
 3316 06a7 C0040000 		.4byte	0x4c0
 3317 06ab 1A       		.uleb128 0x1a
 3318 06ac D4060000 		.4byte	.LASF101
 3319 06b0 01       		.byte	0x1
 3320 06b1 F4       		.byte	0xf4
 3321 06b2 CB040000 		.4byte	0x4cb
 3322 06b6 1C       		.uleb128 0x1c
 3323 06b7 1B       		.uleb128 0x1b
 3324 06b8 6F667300 		.ascii	"ofs\000"
 3325 06bc 01       		.byte	0x1
 3326 06bd F8       		.byte	0xf8
 3327 06be C0040000 		.4byte	0x4c0
 3328 06c2 00       		.byte	0
 3329 06c3 00       		.byte	0
 3330 06c4 00       		.byte	0
 3331 06c5 1C       		.uleb128 0x1c
 3332 06c6 17       		.uleb128 0x17
 3333 06c7 47080000 		.4byte	.LASF98
 3334 06cb 01       		.byte	0x1
 3335 06cc 0201     		.2byte	0x102
 3336 06ce F7060000 		.4byte	0x6f7
 3337 06d2 17       		.uleb128 0x17
 3338 06d3 EB020000 		.4byte	.LASF102
 3339 06d7 01       		.byte	0x1
 3340 06d8 0301     		.2byte	0x103
 3341 06da B8000000 		.4byte	0xb8
 3342 06de 17       		.uleb128 0x17
 3343 06df 74000000 		.4byte	.LASF103
 3344 06e3 01       		.byte	0x1
 3345 06e4 0401     		.2byte	0x104
 3346 06e6 B8000000 		.4byte	0xb8
 3347 06ea 00       		.byte	0
 3348 06eb 00       		.byte	0
 3349 06ec 0D       		.uleb128 0xd
 3350 06ed 04       		.byte	0x4
 3351 06ee F2060000 		.4byte	0x6f2
 3352 06f2 0E       		.uleb128 0xe
 3353 06f3 79030000 		.4byte	0x379
 3354 06f7 0D       		.uleb128 0xd
 3355 06f8 04       		.byte	0x4
 3356 06f9 FD060000 		.4byte	0x6fd
 3357 06fd 0E       		.uleb128 0xe
 3358 06fe C9030000 		.4byte	0x3c9
 3359 0702 1E       		.uleb128 0x1e
ARM GAS  C:\Users\pearlstl\AppData\Local\Temp\ccllHTLf.s 			page 75


 3360 0703 64060000 		.4byte	.LASF104
 3361 0707 01       		.byte	0x1
 3362 0708 5101     		.2byte	0x151
 3363 070a 01       		.byte	0x1
 3364 070b 30070000 		.4byte	0x730
 3365 070f 14       		.uleb128 0x14
 3366 0710 6F757400 		.ascii	"out\000"
 3367 0714 01       		.byte	0x1
 3368 0715 5101     		.2byte	0x151
 3369 0717 CB040000 		.4byte	0x4cb
 3370 071b 14       		.uleb128 0x14
 3371 071c 7700     		.ascii	"w\000"
 3372 071e 01       		.byte	0x1
 3373 071f 5101     		.2byte	0x151
 3374 0721 EF000000 		.4byte	0xef
 3375 0725 16       		.uleb128 0x16
 3376 0726 6900     		.ascii	"i\000"
 3377 0728 01       		.byte	0x1
 3378 0729 5301     		.2byte	0x153
 3379 072b EF000000 		.4byte	0xef
 3380 072f 00       		.byte	0
 3381 0730 1E       		.uleb128 0x1e
 3382 0731 96010000 		.4byte	.LASF105
 3383 0735 01       		.byte	0x1
 3384 0736 8D01     		.2byte	0x18d
 3385 0738 01       		.byte	0x1
 3386 0739 55070000 		.4byte	0x755
 3387 073d 14       		.uleb128 0x14
 3388 073e 696E00   		.ascii	"in\000"
 3389 0741 01       		.byte	0x1
 3390 0742 8D01     		.2byte	0x18d
 3391 0744 07020000 		.4byte	0x207
 3392 0748 14       		.uleb128 0x14
 3393 0749 62707000 		.ascii	"bpp\000"
 3394 074d 01       		.byte	0x1
 3395 074e 8D01     		.2byte	0x18d
 3396 0750 B8000000 		.4byte	0xb8
 3397 0754 00       		.byte	0
 3398 0755 1F       		.uleb128 0x1f
 3399 0756 D2040000 		.4byte	.LASF109
 3400 075a 01       		.byte	0x1
 3401 075b 1001     		.2byte	0x110
 3402 075d D9000000 		.4byte	0xd9
 3403 0761 00000000 		.4byte	.LFB35
 3404 0765 12000000 		.4byte	.LFE35-.LFB35
 3405 0769 01       		.uleb128 0x1
 3406 076a 9C       		.byte	0x9c
 3407 076b AC070000 		.4byte	0x7ac
 3408 076f 20       		.uleb128 0x20
 3409 0770 72656600 		.ascii	"ref\000"
 3410 0774 01       		.byte	0x1
 3411 0775 1001     		.2byte	0x110
 3412 0777 1D030000 		.4byte	0x31d
 3413 077b 00000000 		.4byte	.LLST0
 3414 077f 21       		.uleb128 0x21
 3415 0780 96040000 		.4byte	.LASF106
 3416 0784 01       		.byte	0x1
ARM GAS  C:\Users\pearlstl\AppData\Local\Temp\ccllHTLf.s 			page 76


 3417 0785 1001     		.2byte	0x110
 3418 0787 1D030000 		.4byte	0x31d
 3419 078b 01       		.uleb128 0x1
 3420 078c 51       		.byte	0x51
 3421 078d 22       		.uleb128 0x22
 3422 078e 82060000 		.4byte	.LASF107
 3423 0792 01       		.byte	0x1
 3424 0793 1201     		.2byte	0x112
 3425 0795 07020000 		.4byte	0x207
 3426 0799 21000000 		.4byte	.LLST1
 3427 079d 23       		.uleb128 0x23
 3428 079e 8B040000 		.4byte	.LASF108
 3429 07a2 01       		.byte	0x1
 3430 07a3 1301     		.2byte	0x113
 3431 07a5 07020000 		.4byte	0x207
 3432 07a9 01       		.uleb128 0x1
 3433 07aa 51       		.byte	0x51
 3434 07ab 00       		.byte	0
 3435 07ac 1F       		.uleb128 0x1f
 3436 07ad 2B060000 		.4byte	.LASF110
 3437 07b1 01       		.byte	0x1
 3438 07b2 1B01     		.2byte	0x11b
 3439 07b4 D9000000 		.4byte	0xd9
 3440 07b8 00000000 		.4byte	.LFB36
 3441 07bc 12000000 		.4byte	.LFE36-.LFB36
 3442 07c0 01       		.uleb128 0x1
 3443 07c1 9C       		.byte	0x9c
 3444 07c2 03080000 		.4byte	0x803
 3445 07c6 20       		.uleb128 0x20
 3446 07c7 72656600 		.ascii	"ref\000"
 3447 07cb 01       		.byte	0x1
 3448 07cc 1B01     		.2byte	0x11b
 3449 07ce 1D030000 		.4byte	0x31d
 3450 07d2 42000000 		.4byte	.LLST2
 3451 07d6 21       		.uleb128 0x21
 3452 07d7 96040000 		.4byte	.LASF106
 3453 07db 01       		.byte	0x1
 3454 07dc 1B01     		.2byte	0x11b
 3455 07de 1D030000 		.4byte	0x31d
 3456 07e2 01       		.uleb128 0x1
 3457 07e3 51       		.byte	0x51
 3458 07e4 22       		.uleb128 0x22
 3459 07e5 FE010000 		.4byte	.LASF111
 3460 07e9 01       		.byte	0x1
 3461 07ea 1D01     		.2byte	0x11d
 3462 07ec 12030000 		.4byte	0x312
 3463 07f0 63000000 		.4byte	.LLST3
 3464 07f4 23       		.uleb128 0x23
 3465 07f5 F7070000 		.4byte	.LASF112
 3466 07f9 01       		.byte	0x1
 3467 07fa 1E01     		.2byte	0x11e
 3468 07fc 12030000 		.4byte	0x312
 3469 0800 01       		.uleb128 0x1
 3470 0801 51       		.byte	0x51
 3471 0802 00       		.byte	0
 3472 0803 1F       		.uleb128 0x1f
 3473 0804 9E000000 		.4byte	.LASF113
ARM GAS  C:\Users\pearlstl\AppData\Local\Temp\ccllHTLf.s 			page 77


 3474 0808 01       		.byte	0x1
 3475 0809 DC01     		.2byte	0x1dc
 3476 080b D9000000 		.4byte	0xd9
 3477 080f 00000000 		.4byte	.LFB43
 3478 0813 08000000 		.4byte	.LFE43-.LFB43
 3479 0817 01       		.uleb128 0x1
 3480 0818 9C       		.byte	0x9c
 3481 0819 3C080000 		.4byte	0x83c
 3482 081d 20       		.uleb128 0x20
 3483 081e 72656600 		.ascii	"ref\000"
 3484 0822 01       		.byte	0x1
 3485 0823 DC01     		.2byte	0x1dc
 3486 0825 1D030000 		.4byte	0x31d
 3487 0829 84000000 		.4byte	.LLST4
 3488 082d 21       		.uleb128 0x21
 3489 082e 96040000 		.4byte	.LASF106
 3490 0832 01       		.byte	0x1
 3491 0833 DC01     		.2byte	0x1dc
 3492 0835 1D030000 		.4byte	0x31d
 3493 0839 01       		.uleb128 0x1
 3494 083a 51       		.byte	0x51
 3495 083b 00       		.byte	0
 3496 083c 24       		.uleb128 0x24
 3497 083d 60050000 		.4byte	0x560
 3498 0841 00000000 		.4byte	.LFB45
 3499 0845 DC000000 		.4byte	.LFE45-.LFB45
 3500 0849 01       		.uleb128 0x1
 3501 084a 9C       		.byte	0x9c
 3502 084b 36090000 		.4byte	0x936
 3503 084f 25       		.uleb128 0x25
 3504 0850 7B050000 		.4byte	0x57b
 3505 0854 A5000000 		.4byte	.LLST5
 3506 0858 26       		.uleb128 0x26
 3507 0859 70050000 		.4byte	0x570
 3508 085d 27       		.uleb128 0x27
 3509 085e 86050000 		.4byte	0x586
 3510 0862 01       		.uleb128 0x1
 3511 0863 55       		.byte	0x55
 3512 0864 28       		.uleb128 0x28
 3513 0865 91050000 		.4byte	0x591
 3514 0869 29010000 		.4byte	.LLST6
 3515 086d 29       		.uleb128 0x29
 3516 086e 00000000 		.4byte	.Ldebug_ranges0+0
 3517 0872 27       		.uleb128 0x27
 3518 0873 9B050000 		.4byte	0x59b
 3519 0877 02       		.uleb128 0x2
 3520 0878 91       		.byte	0x91
 3521 0879 64       		.sleb128 -28
 3522 087a 28       		.uleb128 0x28
 3523 087b A6050000 		.4byte	0x5a6
 3524 087f 5F010000 		.4byte	.LLST7
 3525 0883 2A       		.uleb128 0x2a
 3526 0884 7C000000 		.4byte	.LBB53
 3527 0888 0A000000 		.4byte	.LBE53-.LBB53
 3528 088c 9A080000 		.4byte	0x89a
 3529 0890 28       		.uleb128 0x28
 3530 0891 B6050000 		.4byte	0x5b6
ARM GAS  C:\Users\pearlstl\AppData\Local\Temp\ccllHTLf.s 			page 78


 3531 0895 CF010000 		.4byte	.LLST8
 3532 0899 00       		.byte	0
 3533 089a 2A       		.uleb128 0x2a
 3534 089b 8E000000 		.4byte	.LBB54
 3535 089f 28000000 		.4byte	.LBE54-.LBB54
 3536 08a3 F0080000 		.4byte	0x8f0
 3537 08a7 28       		.uleb128 0x28
 3538 08a8 DF050000 		.4byte	0x5df
 3539 08ac EE010000 		.4byte	.LLST9
 3540 08b0 2A       		.uleb128 0x2a
 3541 08b1 A2000000 		.4byte	.LBB55
 3542 08b5 14000000 		.4byte	.LBE55-.LBB55
 3543 08b9 D0080000 		.4byte	0x8d0
 3544 08bd 28       		.uleb128 0x28
 3545 08be E9050000 		.4byte	0x5e9
 3546 08c2 01020000 		.4byte	.LLST10
 3547 08c6 28       		.uleb128 0x28
 3548 08c7 F4050000 		.4byte	0x5f4
 3549 08cb 23020000 		.4byte	.LLST11
 3550 08cf 00       		.byte	0
 3551 08d0 2B       		.uleb128 0x2b
 3552 08d1 9E000000 		.4byte	.LVL28
 3553 08d5 3C150000 		.4byte	0x153c
 3554 08d9 2C       		.uleb128 0x2c
 3555 08da 01       		.uleb128 0x1
 3556 08db 50       		.byte	0x50
 3557 08dc 02       		.uleb128 0x2
 3558 08dd 91       		.byte	0x91
 3559 08de 64       		.sleb128 -28
 3560 08df 2C       		.uleb128 0x2c
 3561 08e0 01       		.uleb128 0x1
 3562 08e1 53       		.byte	0x53
 3563 08e2 01       		.uleb128 0x1
 3564 08e3 32       		.byte	0x32
 3565 08e4 2C       		.uleb128 0x2c
 3566 08e5 02       		.uleb128 0x2
 3567 08e6 7D       		.byte	0x7d
 3568 08e7 00       		.sleb128 0
 3569 08e8 05       		.uleb128 0x5
 3570 08e9 03       		.byte	0x3
 3571 08ea 00000000 		.4byte	unicode_list_compare
 3572 08ee 00       		.byte	0
 3573 08ef 00       		.byte	0
 3574 08f0 2D       		.uleb128 0x2d
 3575 08f1 B6000000 		.4byte	.LBB56
 3576 08f5 26000000 		.4byte	.LBE56-.LBB56
 3577 08f9 28       		.uleb128 0x28
 3578 08fa C7050000 		.4byte	0x5c7
 3579 08fe 37020000 		.4byte	.LLST12
 3580 0902 2A       		.uleb128 0x2a
 3581 0903 C8000000 		.4byte	.LBB57
 3582 0907 14000000 		.4byte	.LBE57-.LBB57
 3583 090b 19090000 		.4byte	0x919
 3584 090f 28       		.uleb128 0x28
 3585 0910 D1050000 		.4byte	0x5d1
 3586 0914 4A020000 		.4byte	.LLST13
 3587 0918 00       		.byte	0
ARM GAS  C:\Users\pearlstl\AppData\Local\Temp\ccllHTLf.s 			page 79


 3588 0919 2B       		.uleb128 0x2b
 3589 091a C4000000 		.4byte	.LVL34
 3590 091e 3C150000 		.4byte	0x153c
 3591 0922 2C       		.uleb128 0x2c
 3592 0923 01       		.uleb128 0x1
 3593 0924 50       		.byte	0x50
 3594 0925 02       		.uleb128 0x2
 3595 0926 91       		.byte	0x91
 3596 0927 64       		.sleb128 -28
 3597 0928 2C       		.uleb128 0x2c
 3598 0929 02       		.uleb128 0x2
 3599 092a 7D       		.byte	0x7d
 3600 092b 00       		.sleb128 0
 3601 092c 05       		.uleb128 0x5
 3602 092d 03       		.byte	0x3
 3603 092e 00000000 		.4byte	unicode_list_compare
 3604 0932 00       		.byte	0
 3605 0933 00       		.byte	0
 3606 0934 00       		.byte	0
 3607 0935 00       		.byte	0
 3608 0936 1E       		.uleb128 0x1e
 3609 0937 57080000 		.4byte	.LASF114
 3610 093b 01       		.byte	0x1
 3611 093c 2C01     		.2byte	0x12c
 3612 093e 01       		.byte	0x1
 3613 093f CB090000 		.4byte	0x9cb
 3614 0943 14       		.uleb128 0x14
 3615 0944 696E00   		.ascii	"in\000"
 3616 0947 01       		.byte	0x1
 3617 0948 2C01     		.2byte	0x12c
 3618 094a 07020000 		.4byte	0x207
 3619 094e 14       		.uleb128 0x14
 3620 094f 6F757400 		.ascii	"out\000"
 3621 0953 01       		.byte	0x1
 3622 0954 2C01     		.2byte	0x12c
 3623 0956 CB040000 		.4byte	0x4cb
 3624 095a 14       		.uleb128 0x14
 3625 095b 7700     		.ascii	"w\000"
 3626 095d 01       		.byte	0x1
 3627 095e 2C01     		.2byte	0x12c
 3628 0960 EF000000 		.4byte	0xef
 3629 0964 14       		.uleb128 0x14
 3630 0965 6800     		.ascii	"h\000"
 3631 0967 01       		.byte	0x1
 3632 0968 2C01     		.2byte	0x12c
 3633 096a EF000000 		.4byte	0xef
 3634 096e 14       		.uleb128 0x14
 3635 096f 62707000 		.ascii	"bpp\000"
 3636 0973 01       		.byte	0x1
 3637 0974 2C01     		.2byte	0x12c
 3638 0976 B8000000 		.4byte	0xb8
 3639 097a 16       		.uleb128 0x16
 3640 097b 77727000 		.ascii	"wrp\000"
 3641 097f 01       		.byte	0x1
 3642 0980 2E01     		.2byte	0x12e
 3643 0982 E4000000 		.4byte	0xe4
 3644 0986 17       		.uleb128 0x17
ARM GAS  C:\Users\pearlstl\AppData\Local\Temp\ccllHTLf.s 			page 80


 3645 0987 52060000 		.4byte	.LASF115
 3646 098b 01       		.byte	0x1
 3647 098c 2F01     		.2byte	0x12f
 3648 098e B8000000 		.4byte	0xb8
 3649 0992 17       		.uleb128 0x17
 3650 0993 C0060000 		.4byte	.LASF116
 3651 0997 01       		.byte	0x1
 3652 0998 3401     		.2byte	0x134
 3653 099a CB040000 		.4byte	0x4cb
 3654 099e 17       		.uleb128 0x17
 3655 099f 79010000 		.4byte	.LASF117
 3656 09a3 01       		.byte	0x1
 3657 09a4 3501     		.2byte	0x135
 3658 09a6 CB040000 		.4byte	0x4cb
 3659 09aa 17       		.uleb128 0x17
 3660 09ab 4F050000 		.4byte	.LASF118
 3661 09af 01       		.byte	0x1
 3662 09b0 3601     		.2byte	0x136
 3663 09b2 CB040000 		.4byte	0x4cb
 3664 09b6 16       		.uleb128 0x16
 3665 09b7 7900     		.ascii	"y\000"
 3666 09b9 01       		.byte	0x1
 3667 09ba 3A01     		.2byte	0x13a
 3668 09bc EF000000 		.4byte	0xef
 3669 09c0 16       		.uleb128 0x16
 3670 09c1 7800     		.ascii	"x\000"
 3671 09c3 01       		.byte	0x1
 3672 09c4 3B01     		.2byte	0x13b
 3673 09c6 EF000000 		.4byte	0xef
 3674 09ca 00       		.byte	0
 3675 09cb 13       		.uleb128 0x13
 3676 09cc F5010000 		.4byte	.LASF119
 3677 09d0 01       		.byte	0x1
 3678 09d1 9701     		.2byte	0x197
 3679 09d3 B8000000 		.4byte	0xb8
 3680 09d7 01       		.byte	0x1
 3681 09d8 F3090000 		.4byte	0x9f3
 3682 09dc 16       		.uleb128 0x16
 3683 09dd 7600     		.ascii	"v\000"
 3684 09df 01       		.byte	0x1
 3685 09e0 9901     		.2byte	0x199
 3686 09e2 B8000000 		.4byte	0xb8
 3687 09e6 16       		.uleb128 0x16
 3688 09e7 72657400 		.ascii	"ret\000"
 3689 09eb 01       		.byte	0x1
 3690 09ec 9A01     		.2byte	0x19a
 3691 09ee B8000000 		.4byte	0xb8
 3692 09f2 00       		.byte	0
 3693 09f3 1E       		.uleb128 0x1e
 3694 09f4 4C080000 		.4byte	.LASF120
 3695 09f8 01       		.byte	0x1
 3696 09f9 7401     		.2byte	0x174
 3697 09fb 01       		.byte	0x1
 3698 09fc 490A0000 		.4byte	0xa49
 3699 0a00 14       		.uleb128 0x14
 3700 0a01 6F757400 		.ascii	"out\000"
 3701 0a05 01       		.byte	0x1
ARM GAS  C:\Users\pearlstl\AppData\Local\Temp\ccllHTLf.s 			page 81


 3702 0a06 7401     		.2byte	0x174
 3703 0a08 CB040000 		.4byte	0x4cb
 3704 0a0c 15       		.uleb128 0x15
 3705 0a0d EF070000 		.4byte	.LASF82
 3706 0a11 01       		.byte	0x1
 3707 0a12 7401     		.2byte	0x174
 3708 0a14 E4000000 		.4byte	0xe4
 3709 0a18 14       		.uleb128 0x14
 3710 0a19 76616C00 		.ascii	"val\000"
 3711 0a1d 01       		.byte	0x1
 3712 0a1e 7401     		.2byte	0x174
 3713 0a20 B8000000 		.4byte	0xb8
 3714 0a24 14       		.uleb128 0x14
 3715 0a25 6C656E00 		.ascii	"len\000"
 3716 0a29 01       		.byte	0x1
 3717 0a2a 7401     		.2byte	0x174
 3718 0a2c B8000000 		.4byte	0xb8
 3719 0a30 17       		.uleb128 0x17
 3720 0a31 66000000 		.4byte	.LASF83
 3721 0a35 01       		.byte	0x1
 3722 0a36 8401     		.2byte	0x184
 3723 0a38 CE000000 		.4byte	0xce
 3724 0a3c 17       		.uleb128 0x17
 3725 0a3d ED030000 		.4byte	.LASF84
 3726 0a41 01       		.byte	0x1
 3727 0a42 8801     		.2byte	0x188
 3728 0a44 B8000000 		.4byte	0xb8
 3729 0a48 00       		.byte	0
 3730 0a49 2E       		.uleb128 0x2e
 3731 0a4a 34040000 		.4byte	.LASF125
 3732 0a4e 01       		.byte	0x1
 3733 0a4f 4D       		.byte	0x4d
 3734 0a50 07020000 		.4byte	0x207
 3735 0a54 00000000 		.4byte	.LFB31
 3736 0a58 A0070000 		.4byte	.LFE31-.LFB31
 3737 0a5c 01       		.uleb128 0x1
 3738 0a5d 9C       		.byte	0x9c
 3739 0a5e 61110000 		.4byte	0x1161
 3740 0a62 2F       		.uleb128 0x2f
 3741 0a63 BF010000 		.4byte	.LASF88
 3742 0a67 01       		.byte	0x1
 3743 0a68 4D       		.byte	0x4d
 3744 0a69 B5040000 		.4byte	0x4b5
 3745 0a6d 61020000 		.4byte	.LLST14
 3746 0a71 2F       		.uleb128 0x2f
 3747 0a72 A7040000 		.4byte	.LASF121
 3748 0a76 01       		.byte	0x1
 3749 0a77 4D       		.byte	0x4d
 3750 0a78 E4000000 		.4byte	0xe4
 3751 0a7c A8020000 		.4byte	.LLST15
 3752 0a80 30       		.uleb128 0x30
 3753 0a81 6F000000 		.4byte	.LASF90
 3754 0a85 01       		.byte	0x1
 3755 0a86 4F       		.byte	0x4f
 3756 0a87 03060000 		.4byte	0x603
 3757 0a8b C9020000 		.4byte	.LLST16
 3758 0a8f 1B       		.uleb128 0x1b
ARM GAS  C:\Users\pearlstl\AppData\Local\Temp\ccllHTLf.s 			page 82


 3759 0a90 67696400 		.ascii	"gid\000"
 3760 0a94 01       		.byte	0x1
 3761 0a95 50       		.byte	0x50
 3762 0a96 E4000000 		.4byte	0xe4
 3763 0a9a 30       		.uleb128 0x30
 3764 0a9b 08030000 		.4byte	.LASF122
 3765 0a9f 01       		.byte	0x1
 3766 0aa0 53       		.byte	0x53
 3767 0aa1 86040000 		.4byte	0x486
 3768 0aa5 04030000 		.4byte	.LLST17
 3769 0aa9 31       		.uleb128 0x31
 3770 0aaa 60050000 		.4byte	0x560
 3771 0aae 00000000 		.4byte	.LBB107
 3772 0ab2 40000000 		.4byte	.Ldebug_ranges0+0x40
 3773 0ab6 01       		.byte	0x1
 3774 0ab7 50       		.byte	0x50
 3775 0ab8 FB0A0000 		.4byte	0xafb
 3776 0abc 25       		.uleb128 0x25
 3777 0abd 70050000 		.4byte	0x570
 3778 0ac1 2D030000 		.4byte	.LLST18
 3779 0ac5 25       		.uleb128 0x25
 3780 0ac6 7B050000 		.4byte	0x57b
 3781 0aca 74030000 		.4byte	.LLST19
 3782 0ace 29       		.uleb128 0x29
 3783 0acf 40000000 		.4byte	.Ldebug_ranges0+0x40
 3784 0ad3 32       		.uleb128 0x32
 3785 0ad4 86050000 		.4byte	0x586
 3786 0ad8 32       		.uleb128 0x32
 3787 0ad9 91050000 		.4byte	0x591
 3788 0add 2B       		.uleb128 0x2b
 3789 0ade 14000000 		.4byte	.LVL41
 3790 0ae2 3C080000 		.4byte	0x83c
 3791 0ae6 2C       		.uleb128 0x2c
 3792 0ae7 01       		.uleb128 0x1
 3793 0ae8 50       		.byte	0x50
 3794 0ae9 05       		.uleb128 0x5
 3795 0aea F3       		.byte	0xf3
 3796 0aeb 01       		.uleb128 0x1
 3797 0aec 50       		.byte	0x50
 3798 0aed 23       		.byte	0x23
 3799 0aee 0C       		.uleb128 0xc
 3800 0aef 33       		.uleb128 0x33
 3801 0af0 70050000 		.4byte	0x570
 3802 0af4 03       		.uleb128 0x3
 3803 0af5 F3       		.byte	0xf3
 3804 0af6 01       		.uleb128 0x1
 3805 0af7 50       		.byte	0x50
 3806 0af8 00       		.byte	0
 3807 0af9 00       		.byte	0
 3808 0afa 00       		.byte	0
 3809 0afb 29       		.uleb128 0x29
 3810 0afc 58000000 		.4byte	.Ldebug_ranges0+0x58
 3811 0b00 34       		.uleb128 0x34
 3812 0b01 62756600 		.ascii	"buf\000"
 3813 0b05 01       		.byte	0x1
 3814 0b06 5B       		.byte	0x5b
 3815 0b07 CB040000 		.4byte	0x4cb
ARM GAS  C:\Users\pearlstl\AppData\Local\Temp\ccllHTLf.s 			page 83


 3816 0b0b 05       		.uleb128 0x5
 3817 0b0c 03       		.byte	0x3
 3818 0b0d 00000000 		.4byte	buf.6209
 3819 0b11 30       		.uleb128 0x30
 3820 0b12 EA060000 		.4byte	.LASF123
 3821 0b16 01       		.byte	0x1
 3822 0b17 5D       		.byte	0x5d
 3823 0b18 E4000000 		.4byte	0xe4
 3824 0b1c 95030000 		.4byte	.LLST20
 3825 0b20 30       		.uleb128 0x30
 3826 0b21 82040000 		.4byte	.LASF124
 3827 0b25 01       		.byte	0x1
 3828 0b26 60       		.byte	0x60
 3829 0b27 E4000000 		.4byte	0xe4
 3830 0b2b 0C040000 		.4byte	.LLST21
 3831 0b2f 31       		.uleb128 0x31
 3832 0b30 36090000 		.4byte	0x936
 3833 0b34 8E000000 		.4byte	.LBB112
 3834 0b38 78000000 		.4byte	.Ldebug_ranges0+0x78
 3835 0b3c 01       		.byte	0x1
 3836 0b3d 6E       		.byte	0x6e
 3837 0b3e 46110000 		.4byte	0x1146
 3838 0b42 25       		.uleb128 0x25
 3839 0b43 6E090000 		.4byte	0x96e
 3840 0b47 2A040000 		.4byte	.LLST22
 3841 0b4b 25       		.uleb128 0x25
 3842 0b4c 64090000 		.4byte	0x964
 3843 0b50 94040000 		.4byte	.LLST23
 3844 0b54 25       		.uleb128 0x25
 3845 0b55 5A090000 		.4byte	0x95a
 3846 0b59 D0040000 		.4byte	.LLST24
 3847 0b5d 25       		.uleb128 0x25
 3848 0b5e 4E090000 		.4byte	0x94e
 3849 0b62 3A050000 		.4byte	.LLST25
 3850 0b66 25       		.uleb128 0x25
 3851 0b67 43090000 		.4byte	0x943
 3852 0b6b 51050000 		.4byte	.LLST26
 3853 0b6f 29       		.uleb128 0x29
 3854 0b70 78000000 		.4byte	.Ldebug_ranges0+0x78
 3855 0b74 28       		.uleb128 0x28
 3856 0b75 7A090000 		.4byte	0x97a
 3857 0b79 73050000 		.4byte	.LLST27
 3858 0b7d 28       		.uleb128 0x28
 3859 0b7e 86090000 		.4byte	0x986
 3860 0b82 46060000 		.4byte	.LLST28
 3861 0b86 28       		.uleb128 0x28
 3862 0b87 92090000 		.4byte	0x992
 3863 0b8b 80060000 		.4byte	.LLST29
 3864 0b8f 28       		.uleb128 0x28
 3865 0b90 9E090000 		.4byte	0x99e
 3866 0b94 D9060000 		.4byte	.LLST30
 3867 0b98 28       		.uleb128 0x28
 3868 0b99 AA090000 		.4byte	0x9aa
 3869 0b9d 3E070000 		.4byte	.LLST31
 3870 0ba1 28       		.uleb128 0x28
 3871 0ba2 B6090000 		.4byte	0x9b6
 3872 0ba6 98070000 		.4byte	.LLST32
ARM GAS  C:\Users\pearlstl\AppData\Local\Temp\ccllHTLf.s 			page 84


 3873 0baa 32       		.uleb128 0x32
 3874 0bab C0090000 		.4byte	0x9c0
 3875 0baf 35       		.uleb128 0x35
 3876 0bb0 30070000 		.4byte	0x730
 3877 0bb4 8E000000 		.4byte	.LBB114
 3878 0bb8 B8000000 		.4byte	.Ldebug_ranges0+0xb8
 3879 0bbc 01       		.byte	0x1
 3880 0bbd 3201     		.2byte	0x132
 3881 0bbf D60B0000 		.4byte	0xbd6
 3882 0bc3 25       		.uleb128 0x25
 3883 0bc4 48070000 		.4byte	0x748
 3884 0bc8 EB070000 		.4byte	.LLST33
 3885 0bcc 25       		.uleb128 0x25
 3886 0bcd 3D070000 		.4byte	0x73d
 3887 0bd1 FE070000 		.4byte	.LLST34
 3888 0bd5 00       		.byte	0
 3889 0bd6 35       		.uleb128 0x35
 3890 0bd7 02070000 		.4byte	0x702
 3891 0bdb D6000000 		.4byte	.LBB126
 3892 0bdf F0000000 		.4byte	.Ldebug_ranges0+0xf0
 3893 0be3 01       		.byte	0x1
 3894 0be4 3801     		.2byte	0x138
 3895 0be6 370E0000 		.4byte	0xe37
 3896 0bea 25       		.uleb128 0x25
 3897 0beb 1B070000 		.4byte	0x71b
 3898 0bef 15080000 		.4byte	.LLST35
 3899 0bf3 25       		.uleb128 0x25
 3900 0bf4 0F070000 		.4byte	0x70f
 3901 0bf8 67080000 		.4byte	.LLST36
 3902 0bfc 29       		.uleb128 0x29
 3903 0bfd F0000000 		.4byte	.Ldebug_ranges0+0xf0
 3904 0c01 28       		.uleb128 0x28
 3905 0c02 25070000 		.4byte	0x725
 3906 0c06 C0080000 		.4byte	.LLST37
 3907 0c0a 36       		.uleb128 0x36
 3908 0c0b CB090000 		.4byte	0x9cb
 3909 0c0f DC000000 		.4byte	.LBB128
 3910 0c13 18010000 		.4byte	.Ldebug_ranges0+0x118
 3911 0c17 01       		.byte	0x1
 3912 0c18 5501     		.2byte	0x155
 3913 0c1a 29       		.uleb128 0x29
 3914 0c1b 18010000 		.4byte	.Ldebug_ranges0+0x118
 3915 0c1f 28       		.uleb128 0x28
 3916 0c20 DC090000 		.4byte	0x9dc
 3917 0c24 E0080000 		.4byte	.LLST38
 3918 0c28 28       		.uleb128 0x28
 3919 0c29 E6090000 		.4byte	0x9e6
 3920 0c2d 18090000 		.4byte	.LLST39
 3921 0c31 35       		.uleb128 0x35
 3922 0c32 FB040000 		.4byte	0x4fb
 3923 0c36 E6000000 		.4byte	.LBB130
 3924 0c3a 48010000 		.4byte	.Ldebug_ranges0+0x148
 3925 0c3e 01       		.byte	0x1
 3926 0c3f 9D01     		.2byte	0x19d
 3927 0c41 870C0000 		.4byte	0xc87
 3928 0c45 25       		.uleb128 0x25
 3929 0c46 23050000 		.4byte	0x523
ARM GAS  C:\Users\pearlstl\AppData\Local\Temp\ccllHTLf.s 			page 85


 3930 0c4a 64090000 		.4byte	.LLST40
 3931 0c4e 25       		.uleb128 0x25
 3932 0c4f 17050000 		.4byte	0x517
 3933 0c53 7B090000 		.4byte	.LLST41
 3934 0c57 25       		.uleb128 0x25
 3935 0c58 0C050000 		.4byte	0x50c
 3936 0c5c B7090000 		.4byte	.LLST42
 3937 0c60 29       		.uleb128 0x29
 3938 0c61 48010000 		.4byte	.Ldebug_ranges0+0x148
 3939 0c65 28       		.uleb128 0x28
 3940 0c66 2F050000 		.4byte	0x52f
 3941 0c6a CE090000 		.4byte	.LLST43
 3942 0c6e 28       		.uleb128 0x28
 3943 0c6f 3B050000 		.4byte	0x53b
 3944 0c73 E2090000 		.4byte	.LLST44
 3945 0c77 32       		.uleb128 0x32
 3946 0c78 47050000 		.4byte	0x547
 3947 0c7c 28       		.uleb128 0x28
 3948 0c7d 53050000 		.4byte	0x553
 3949 0c81 040A0000 		.4byte	.LLST45
 3950 0c85 00       		.byte	0
 3951 0c86 00       		.byte	0
 3952 0c87 37       		.uleb128 0x37
 3953 0c88 FB040000 		.4byte	0x4fb
 3954 0c8c 1C020000 		.4byte	.LBB138
 3955 0c90 04000000 		.4byte	.LBE138-.LBB138
 3956 0c94 01       		.byte	0x1
 3957 0c95 A701     		.2byte	0x1a7
 3958 0c97 DB0C0000 		.4byte	0xcdb
 3959 0c9b 25       		.uleb128 0x25
 3960 0c9c 23050000 		.4byte	0x523
 3961 0ca0 740A0000 		.4byte	.LLST46
 3962 0ca4 25       		.uleb128 0x25
 3963 0ca5 17050000 		.4byte	0x517
 3964 0ca9 880A0000 		.4byte	.LLST47
 3965 0cad 25       		.uleb128 0x25
 3966 0cae 0C050000 		.4byte	0x50c
 3967 0cb2 9B0A0000 		.4byte	.LLST48
 3968 0cb6 2D       		.uleb128 0x2d
 3969 0cb7 1C020000 		.4byte	.LBB139
 3970 0cbb 04000000 		.4byte	.LBE139-.LBB139
 3971 0cbf 28       		.uleb128 0x28
 3972 0cc0 2F050000 		.4byte	0x52f
 3973 0cc4 B20A0000 		.4byte	.LLST49
 3974 0cc8 27       		.uleb128 0x27
 3975 0cc9 3B050000 		.4byte	0x53b
 3976 0ccd 01       		.uleb128 0x1
 3977 0cce 52       		.byte	0x52
 3978 0ccf 32       		.uleb128 0x32
 3979 0cd0 47050000 		.4byte	0x547
 3980 0cd4 32       		.uleb128 0x32
 3981 0cd5 53050000 		.4byte	0x553
 3982 0cd9 00       		.byte	0
 3983 0cda 00       		.byte	0
 3984 0cdb 35       		.uleb128 0x35
 3985 0cdc FB040000 		.4byte	0x4fb
 3986 0ce0 46020000 		.4byte	.LBB140
ARM GAS  C:\Users\pearlstl\AppData\Local\Temp\ccllHTLf.s 			page 86


 3987 0ce4 70010000 		.4byte	.Ldebug_ranges0+0x170
 3988 0ce8 01       		.byte	0x1
 3989 0ce9 B901     		.2byte	0x1b9
 3990 0ceb 310D0000 		.4byte	0xd31
 3991 0cef 25       		.uleb128 0x25
 3992 0cf0 23050000 		.4byte	0x523
 3993 0cf4 C60A0000 		.4byte	.LLST50
 3994 0cf8 25       		.uleb128 0x25
 3995 0cf9 17050000 		.4byte	0x517
 3996 0cfd DD0A0000 		.4byte	.LLST51
 3997 0d01 25       		.uleb128 0x25
 3998 0d02 0C050000 		.4byte	0x50c
 3999 0d06 190B0000 		.4byte	.LLST52
 4000 0d0a 29       		.uleb128 0x29
 4001 0d0b 70010000 		.4byte	.Ldebug_ranges0+0x170
 4002 0d0f 28       		.uleb128 0x28
 4003 0d10 2F050000 		.4byte	0x52f
 4004 0d14 300B0000 		.4byte	.LLST53
 4005 0d18 28       		.uleb128 0x28
 4006 0d19 3B050000 		.4byte	0x53b
 4007 0d1d 440B0000 		.4byte	.LLST54
 4008 0d21 32       		.uleb128 0x32
 4009 0d22 47050000 		.4byte	0x547
 4010 0d26 28       		.uleb128 0x28
 4011 0d27 53050000 		.4byte	0x553
 4012 0d2b 660B0000 		.4byte	.LLST55
 4013 0d2f 00       		.byte	0
 4014 0d30 00       		.byte	0
 4015 0d31 35       		.uleb128 0x35
 4016 0d32 FB040000 		.4byte	0x4fb
 4017 0d36 7E020000 		.4byte	.LBB144
 4018 0d3a 88010000 		.4byte	.Ldebug_ranges0+0x188
 4019 0d3e 01       		.byte	0x1
 4020 0d3f C501     		.2byte	0x1c5
 4021 0d41 870D0000 		.4byte	0xd87
 4022 0d45 25       		.uleb128 0x25
 4023 0d46 23050000 		.4byte	0x523
 4024 0d4a FA0B0000 		.4byte	.LLST56
 4025 0d4e 25       		.uleb128 0x25
 4026 0d4f 17050000 		.4byte	0x517
 4027 0d53 110C0000 		.4byte	.LLST57
 4028 0d57 25       		.uleb128 0x25
 4029 0d58 0C050000 		.4byte	0x50c
 4030 0d5c 4D0C0000 		.4byte	.LLST58
 4031 0d60 29       		.uleb128 0x29
 4032 0d61 88010000 		.4byte	.Ldebug_ranges0+0x188
 4033 0d65 28       		.uleb128 0x28
 4034 0d66 2F050000 		.4byte	0x52f
 4035 0d6a 640C0000 		.4byte	.LLST59
 4036 0d6e 28       		.uleb128 0x28
 4037 0d6f 3B050000 		.4byte	0x53b
 4038 0d73 780C0000 		.4byte	.LLST60
 4039 0d77 32       		.uleb128 0x32
 4040 0d78 47050000 		.4byte	0x547
 4041 0d7c 28       		.uleb128 0x28
 4042 0d7d 53050000 		.4byte	0x553
 4043 0d81 9A0C0000 		.4byte	.LLST61
ARM GAS  C:\Users\pearlstl\AppData\Local\Temp\ccllHTLf.s 			page 87


 4044 0d85 00       		.byte	0
 4045 0d86 00       		.byte	0
 4046 0d87 35       		.uleb128 0x35
 4047 0d88 FB040000 		.4byte	0x4fb
 4048 0d8c E2020000 		.4byte	.LBB148
 4049 0d90 A0010000 		.4byte	.Ldebug_ranges0+0x1a0
 4050 0d94 01       		.byte	0x1
 4051 0d95 AD01     		.2byte	0x1ad
 4052 0d97 E10D0000 		.4byte	0xde1
 4053 0d9b 25       		.uleb128 0x25
 4054 0d9c 23050000 		.4byte	0x523
 4055 0da0 0A0D0000 		.4byte	.LLST62
 4056 0da4 25       		.uleb128 0x25
 4057 0da5 17050000 		.4byte	0x517
 4058 0da9 1E0D0000 		.4byte	.LLST63
 4059 0dad 25       		.uleb128 0x25
 4060 0dae 0C050000 		.4byte	0x50c
 4061 0db2 690D0000 		.4byte	.LLST64
 4062 0db6 29       		.uleb128 0x29
 4063 0db7 A0010000 		.4byte	.Ldebug_ranges0+0x1a0
 4064 0dbb 28       		.uleb128 0x28
 4065 0dbc 2F050000 		.4byte	0x52f
 4066 0dc0 800D0000 		.4byte	.LLST65
 4067 0dc4 28       		.uleb128 0x28
 4068 0dc5 3B050000 		.4byte	0x53b
 4069 0dc9 940D0000 		.4byte	.LLST66
 4070 0dcd 28       		.uleb128 0x28
 4071 0dce 47050000 		.4byte	0x547
 4072 0dd2 D40D0000 		.4byte	.LLST67
 4073 0dd6 28       		.uleb128 0x28
 4074 0dd7 53050000 		.4byte	0x553
 4075 0ddb E90D0000 		.4byte	.LLST68
 4076 0ddf 00       		.byte	0
 4077 0de0 00       		.byte	0
 4078 0de1 36       		.uleb128 0x36
 4079 0de2 FB040000 		.4byte	0x4fb
 4080 0de6 22030000 		.4byte	.LBB152
 4081 0dea B8010000 		.4byte	.Ldebug_ranges0+0x1b8
 4082 0dee 01       		.byte	0x1
 4083 0def B201     		.2byte	0x1b2
 4084 0df1 25       		.uleb128 0x25
 4085 0df2 23050000 		.4byte	0x523
 4086 0df6 A90E0000 		.4byte	.LLST69
 4087 0dfa 25       		.uleb128 0x25
 4088 0dfb 17050000 		.4byte	0x517
 4089 0dff C00E0000 		.4byte	.LLST70
 4090 0e03 25       		.uleb128 0x25
 4091 0e04 0C050000 		.4byte	0x50c
 4092 0e08 FC0E0000 		.4byte	.LLST71
 4093 0e0c 29       		.uleb128 0x29
 4094 0e0d B8010000 		.4byte	.Ldebug_ranges0+0x1b8
 4095 0e11 28       		.uleb128 0x28
 4096 0e12 2F050000 		.4byte	0x52f
 4097 0e16 130F0000 		.4byte	.LLST72
 4098 0e1a 28       		.uleb128 0x28
 4099 0e1b 3B050000 		.4byte	0x53b
 4100 0e1f 270F0000 		.4byte	.LLST73
ARM GAS  C:\Users\pearlstl\AppData\Local\Temp\ccllHTLf.s 			page 88


 4101 0e23 32       		.uleb128 0x32
 4102 0e24 47050000 		.4byte	0x547
 4103 0e28 28       		.uleb128 0x28
 4104 0e29 53050000 		.4byte	0x553
 4105 0e2d 490F0000 		.4byte	.LLST74
 4106 0e31 00       		.byte	0
 4107 0e32 00       		.byte	0
 4108 0e33 00       		.byte	0
 4109 0e34 00       		.byte	0
 4110 0e35 00       		.byte	0
 4111 0e36 00       		.byte	0
 4112 0e37 35       		.uleb128 0x35
 4113 0e38 F3090000 		.4byte	0x9f3
 4114 0e3c CC010000 		.4byte	.LBB169
 4115 0e40 D8010000 		.4byte	.Ldebug_ranges0+0x1d8
 4116 0e44 01       		.byte	0x1
 4117 0e45 3D01     		.2byte	0x13d
 4118 0e47 800E0000 		.4byte	0xe80
 4119 0e4b 25       		.uleb128 0x25
 4120 0e4c 240A0000 		.4byte	0xa24
 4121 0e50 DD0F0000 		.4byte	.LLST75
 4122 0e54 25       		.uleb128 0x25
 4123 0e55 180A0000 		.4byte	0xa18
 4124 0e59 1F100000 		.4byte	.LLST76
 4125 0e5d 25       		.uleb128 0x25
 4126 0e5e 0C0A0000 		.4byte	0xa0c
 4127 0e62 C0100000 		.4byte	.LLST77
 4128 0e66 26       		.uleb128 0x26
 4129 0e67 000A0000 		.4byte	0xa00
 4130 0e6b 29       		.uleb128 0x29
 4131 0e6c D8010000 		.4byte	.Ldebug_ranges0+0x1d8
 4132 0e70 28       		.uleb128 0x28
 4133 0e71 300A0000 		.4byte	0xa30
 4134 0e75 F4100000 		.4byte	.LLST78
 4135 0e79 32       		.uleb128 0x32
 4136 0e7a 3C0A0000 		.4byte	0xa3c
 4137 0e7e 00       		.byte	0
 4138 0e7f 00       		.byte	0
 4139 0e80 35       		.uleb128 0x35
 4140 0e81 02070000 		.4byte	0x702
 4141 0e85 64030000 		.4byte	.LBB181
 4142 0e89 08020000 		.4byte	.Ldebug_ranges0+0x208
 4143 0e8d 01       		.byte	0x1
 4144 0e8e 4201     		.2byte	0x142
 4145 0e90 E9100000 		.4byte	0x10e9
 4146 0e94 26       		.uleb128 0x26
 4147 0e95 1B070000 		.4byte	0x71b
 4148 0e99 26       		.uleb128 0x26
 4149 0e9a 0F070000 		.4byte	0x70f
 4150 0e9e 29       		.uleb128 0x29
 4151 0e9f 08020000 		.4byte	.Ldebug_ranges0+0x208
 4152 0ea3 28       		.uleb128 0x28
 4153 0ea4 25070000 		.4byte	0x725
 4154 0ea8 0B110000 		.4byte	.LLST79
 4155 0eac 36       		.uleb128 0x36
 4156 0ead CB090000 		.4byte	0x9cb
 4157 0eb1 64030000 		.4byte	.LBB183
ARM GAS  C:\Users\pearlstl\AppData\Local\Temp\ccllHTLf.s 			page 89


 4158 0eb5 28020000 		.4byte	.Ldebug_ranges0+0x228
 4159 0eb9 01       		.byte	0x1
 4160 0eba 5501     		.2byte	0x155
 4161 0ebc 29       		.uleb128 0x29
 4162 0ebd 28020000 		.4byte	.Ldebug_ranges0+0x228
 4163 0ec1 28       		.uleb128 0x28
 4164 0ec2 DC090000 		.4byte	0x9dc
 4165 0ec6 1F110000 		.4byte	.LLST80
 4166 0eca 28       		.uleb128 0x28
 4167 0ecb E6090000 		.4byte	0x9e6
 4168 0ecf 57110000 		.4byte	.LLST81
 4169 0ed3 35       		.uleb128 0x35
 4170 0ed4 FB040000 		.4byte	0x4fb
 4171 0ed8 82030000 		.4byte	.LBB185
 4172 0edc 50020000 		.4byte	.Ldebug_ranges0+0x250
 4173 0ee0 01       		.byte	0x1
 4174 0ee1 9D01     		.2byte	0x19d
 4175 0ee3 2D0F0000 		.4byte	0xf2d
 4176 0ee7 25       		.uleb128 0x25
 4177 0ee8 23050000 		.4byte	0x523
 4178 0eec 98110000 		.4byte	.LLST82
 4179 0ef0 25       		.uleb128 0x25
 4180 0ef1 17050000 		.4byte	0x517
 4181 0ef5 AF110000 		.4byte	.LLST83
 4182 0ef9 25       		.uleb128 0x25
 4183 0efa 0C050000 		.4byte	0x50c
 4184 0efe EB110000 		.4byte	.LLST84
 4185 0f02 29       		.uleb128 0x29
 4186 0f03 50020000 		.4byte	.Ldebug_ranges0+0x250
 4187 0f07 28       		.uleb128 0x28
 4188 0f08 2F050000 		.4byte	0x52f
 4189 0f0c 02120000 		.4byte	.LLST85
 4190 0f10 28       		.uleb128 0x28
 4191 0f11 3B050000 		.4byte	0x53b
 4192 0f15 16120000 		.4byte	.LLST86
 4193 0f19 28       		.uleb128 0x28
 4194 0f1a 47050000 		.4byte	0x547
 4195 0f1e 38120000 		.4byte	.LLST87
 4196 0f22 28       		.uleb128 0x28
 4197 0f23 53050000 		.4byte	0x553
 4198 0f27 53120000 		.4byte	.LLST88
 4199 0f2b 00       		.byte	0
 4200 0f2c 00       		.byte	0
 4201 0f2d 37       		.uleb128 0x37
 4202 0f2e FB040000 		.4byte	0x4fb
 4203 0f32 38050000 		.4byte	.LBB191
 4204 0f36 06000000 		.4byte	.LBE191-.LBB191
 4205 0f3a 01       		.byte	0x1
 4206 0f3b A701     		.2byte	0x1a7
 4207 0f3d 810F0000 		.4byte	0xf81
 4208 0f41 25       		.uleb128 0x25
 4209 0f42 23050000 		.4byte	0x523
 4210 0f46 C3120000 		.4byte	.LLST89
 4211 0f4a 25       		.uleb128 0x25
 4212 0f4b 17050000 		.4byte	0x517
 4213 0f4f D7120000 		.4byte	.LLST90
 4214 0f53 25       		.uleb128 0x25
ARM GAS  C:\Users\pearlstl\AppData\Local\Temp\ccllHTLf.s 			page 90


 4215 0f54 0C050000 		.4byte	0x50c
 4216 0f58 EA120000 		.4byte	.LLST91
 4217 0f5c 2D       		.uleb128 0x2d
 4218 0f5d 38050000 		.4byte	.LBB192
 4219 0f61 06000000 		.4byte	.LBE192-.LBB192
 4220 0f65 28       		.uleb128 0x28
 4221 0f66 2F050000 		.4byte	0x52f
 4222 0f6a 01130000 		.4byte	.LLST92
 4223 0f6e 27       		.uleb128 0x27
 4224 0f6f 3B050000 		.4byte	0x53b
 4225 0f73 01       		.uleb128 0x1
 4226 0f74 50       		.byte	0x50
 4227 0f75 32       		.uleb128 0x32
 4228 0f76 47050000 		.4byte	0x547
 4229 0f7a 32       		.uleb128 0x32
 4230 0f7b 53050000 		.4byte	0x553
 4231 0f7f 00       		.byte	0
 4232 0f80 00       		.byte	0
 4233 0f81 35       		.uleb128 0x35
 4234 0f82 FB040000 		.4byte	0x4fb
 4235 0f86 66050000 		.4byte	.LBB193
 4236 0f8a 70020000 		.4byte	.Ldebug_ranges0+0x270
 4237 0f8e 01       		.byte	0x1
 4238 0f8f B901     		.2byte	0x1b9
 4239 0f91 DB0F0000 		.4byte	0xfdb
 4240 0f95 25       		.uleb128 0x25
 4241 0f96 23050000 		.4byte	0x523
 4242 0f9a 15130000 		.4byte	.LLST93
 4243 0f9e 25       		.uleb128 0x25
 4244 0f9f 17050000 		.4byte	0x517
 4245 0fa3 2C130000 		.4byte	.LLST94
 4246 0fa7 25       		.uleb128 0x25
 4247 0fa8 0C050000 		.4byte	0x50c
 4248 0fac 68130000 		.4byte	.LLST95
 4249 0fb0 29       		.uleb128 0x29
 4250 0fb1 70020000 		.4byte	.Ldebug_ranges0+0x270
 4251 0fb5 28       		.uleb128 0x28
 4252 0fb6 2F050000 		.4byte	0x52f
 4253 0fba 7F130000 		.4byte	.LLST96
 4254 0fbe 28       		.uleb128 0x28
 4255 0fbf 3B050000 		.4byte	0x53b
 4256 0fc3 93130000 		.4byte	.LLST97
 4257 0fc7 28       		.uleb128 0x28
 4258 0fc8 47050000 		.4byte	0x547
 4259 0fcc B5130000 		.4byte	.LLST98
 4260 0fd0 28       		.uleb128 0x28
 4261 0fd1 53050000 		.4byte	0x553
 4262 0fd5 D0130000 		.4byte	.LLST99
 4263 0fd9 00       		.byte	0
 4264 0fda 00       		.byte	0
 4265 0fdb 35       		.uleb128 0x35
 4266 0fdc FB040000 		.4byte	0x4fb
 4267 0fe0 AA050000 		.4byte	.LBB197
 4268 0fe4 88020000 		.4byte	.Ldebug_ranges0+0x288
 4269 0fe8 01       		.byte	0x1
 4270 0fe9 C501     		.2byte	0x1c5
 4271 0feb 35100000 		.4byte	0x1035
ARM GAS  C:\Users\pearlstl\AppData\Local\Temp\ccllHTLf.s 			page 91


 4272 0fef 25       		.uleb128 0x25
 4273 0ff0 23050000 		.4byte	0x523
 4274 0ff4 64140000 		.4byte	.LLST100
 4275 0ff8 25       		.uleb128 0x25
 4276 0ff9 17050000 		.4byte	0x517
 4277 0ffd 7B140000 		.4byte	.LLST101
 4278 1001 25       		.uleb128 0x25
 4279 1002 0C050000 		.4byte	0x50c
 4280 1006 A8140000 		.4byte	.LLST102
 4281 100a 29       		.uleb128 0x29
 4282 100b 88020000 		.4byte	.Ldebug_ranges0+0x288
 4283 100f 28       		.uleb128 0x28
 4284 1010 2F050000 		.4byte	0x52f
 4285 1014 BF140000 		.4byte	.LLST103
 4286 1018 28       		.uleb128 0x28
 4287 1019 3B050000 		.4byte	0x53b
 4288 101d D3140000 		.4byte	.LLST104
 4289 1021 28       		.uleb128 0x28
 4290 1022 47050000 		.4byte	0x547
 4291 1026 F5140000 		.4byte	.LLST105
 4292 102a 28       		.uleb128 0x28
 4293 102b 53050000 		.4byte	0x553
 4294 102f 10150000 		.4byte	.LLST106
 4295 1033 00       		.byte	0
 4296 1034 00       		.byte	0
 4297 1035 35       		.uleb128 0x35
 4298 1036 FB040000 		.4byte	0x4fb
 4299 103a 54060000 		.4byte	.LBB201
 4300 103e A0020000 		.4byte	.Ldebug_ranges0+0x2a0
 4301 1042 01       		.byte	0x1
 4302 1043 AD01     		.2byte	0x1ad
 4303 1045 8F100000 		.4byte	0x108f
 4304 1049 25       		.uleb128 0x25
 4305 104a 23050000 		.4byte	0x523
 4306 104e 80150000 		.4byte	.LLST107
 4307 1052 25       		.uleb128 0x25
 4308 1053 17050000 		.4byte	0x517
 4309 1057 94150000 		.4byte	.LLST108
 4310 105b 25       		.uleb128 0x25
 4311 105c 0C050000 		.4byte	0x50c
 4312 1060 DF150000 		.4byte	.LLST109
 4313 1064 29       		.uleb128 0x29
 4314 1065 A0020000 		.4byte	.Ldebug_ranges0+0x2a0
 4315 1069 28       		.uleb128 0x28
 4316 106a 2F050000 		.4byte	0x52f
 4317 106e F6150000 		.4byte	.LLST110
 4318 1072 28       		.uleb128 0x28
 4319 1073 3B050000 		.4byte	0x53b
 4320 1077 0A160000 		.4byte	.LLST111
 4321 107b 28       		.uleb128 0x28
 4322 107c 47050000 		.4byte	0x547
 4323 1080 4A160000 		.4byte	.LLST112
 4324 1084 28       		.uleb128 0x28
 4325 1085 53050000 		.4byte	0x553
 4326 1089 5F160000 		.4byte	.LLST113
 4327 108d 00       		.byte	0
 4328 108e 00       		.byte	0
ARM GAS  C:\Users\pearlstl\AppData\Local\Temp\ccllHTLf.s 			page 92


 4329 108f 36       		.uleb128 0x36
 4330 1090 FB040000 		.4byte	0x4fb
 4331 1094 84060000 		.4byte	.LBB205
 4332 1098 B8020000 		.4byte	.Ldebug_ranges0+0x2b8
 4333 109c 01       		.byte	0x1
 4334 109d B201     		.2byte	0x1b2
 4335 109f 25       		.uleb128 0x25
 4336 10a0 23050000 		.4byte	0x523
 4337 10a4 1F170000 		.4byte	.LLST114
 4338 10a8 25       		.uleb128 0x25
 4339 10a9 17050000 		.4byte	0x517
 4340 10ad 36170000 		.4byte	.LLST115
 4341 10b1 25       		.uleb128 0x25
 4342 10b2 0C050000 		.4byte	0x50c
 4343 10b6 72170000 		.4byte	.LLST116
 4344 10ba 29       		.uleb128 0x29
 4345 10bb B8020000 		.4byte	.Ldebug_ranges0+0x2b8
 4346 10bf 28       		.uleb128 0x28
 4347 10c0 2F050000 		.4byte	0x52f
 4348 10c4 89170000 		.4byte	.LLST117
 4349 10c8 28       		.uleb128 0x28
 4350 10c9 3B050000 		.4byte	0x53b
 4351 10cd 9D170000 		.4byte	.LLST118
 4352 10d1 28       		.uleb128 0x28
 4353 10d2 47050000 		.4byte	0x547
 4354 10d6 BF170000 		.4byte	.LLST119
 4355 10da 28       		.uleb128 0x28
 4356 10db 53050000 		.4byte	0x553
 4357 10df DA170000 		.4byte	.LLST120
 4358 10e3 00       		.byte	0
 4359 10e4 00       		.byte	0
 4360 10e5 00       		.byte	0
 4361 10e6 00       		.byte	0
 4362 10e7 00       		.byte	0
 4363 10e8 00       		.byte	0
 4364 10e9 35       		.uleb128 0x35
 4365 10ea F3090000 		.4byte	0x9f3
 4366 10ee 76040000 		.4byte	.LBB219
 4367 10f2 D8020000 		.4byte	.Ldebug_ranges0+0x2d8
 4368 10f6 01       		.byte	0x1
 4369 10f7 4601     		.2byte	0x146
 4370 10f9 32110000 		.4byte	0x1132
 4371 10fd 25       		.uleb128 0x25
 4372 10fe 240A0000 		.4byte	0xa24
 4373 1102 6E180000 		.4byte	.LLST121
 4374 1106 25       		.uleb128 0x25
 4375 1107 180A0000 		.4byte	0xa18
 4376 110b 98180000 		.4byte	.LLST122
 4377 110f 25       		.uleb128 0x25
 4378 1110 0C0A0000 		.4byte	0xa0c
 4379 1114 22190000 		.4byte	.LLST123
 4380 1118 26       		.uleb128 0x26
 4381 1119 000A0000 		.4byte	0xa00
 4382 111d 29       		.uleb128 0x29
 4383 111e D8020000 		.4byte	.Ldebug_ranges0+0x2d8
 4384 1122 28       		.uleb128 0x28
 4385 1123 300A0000 		.4byte	0xa30
ARM GAS  C:\Users\pearlstl\AppData\Local\Temp\ccllHTLf.s 			page 93


 4386 1127 40190000 		.4byte	.LLST124
 4387 112b 32       		.uleb128 0x32
 4388 112c 3C0A0000 		.4byte	0xa3c
 4389 1130 00       		.byte	0
 4390 1131 00       		.byte	0
 4391 1132 2B       		.uleb128 0x2b
 4392 1133 CA000000 		.4byte	.LVL57
 4393 1137 47150000 		.4byte	0x1547
 4394 113b 2C       		.uleb128 0x2c
 4395 113c 01       		.uleb128 0x1
 4396 113d 50       		.byte	0x50
 4397 113e 04       		.uleb128 0x4
 4398 113f 75       		.byte	0x75
 4399 1140 00       		.sleb128 0
 4400 1141 31       		.byte	0x31
 4401 1142 24       		.byte	0x24
 4402 1143 00       		.byte	0
 4403 1144 00       		.byte	0
 4404 1145 00       		.byte	0
 4405 1146 38       		.uleb128 0x38
 4406 1147 70000000 		.4byte	.LVL48
 4407 114b 52150000 		.4byte	0x1552
 4408 114f 2B       		.uleb128 0x2b
 4409 1150 D0020000 		.4byte	.LVL102
 4410 1154 5D150000 		.4byte	0x155d
 4411 1158 2C       		.uleb128 0x2c
 4412 1159 01       		.uleb128 0x1
 4413 115a 51       		.byte	0x51
 4414 115b 02       		.uleb128 0x2
 4415 115c 76       		.byte	0x76
 4416 115d 00       		.sleb128 0
 4417 115e 00       		.byte	0
 4418 115f 00       		.byte	0
 4419 1160 00       		.byte	0
 4420 1161 2E       		.uleb128 0x2e
 4421 1162 CC000000 		.4byte	.LASF126
 4422 1166 01       		.byte	0x1
 4423 1167 7E       		.byte	0x7e
 4424 1168 D5010000 		.4byte	0x1d5
 4425 116c 00000000 		.4byte	.LFB32
 4426 1170 0C020000 		.4byte	.LFE32-.LFB32
 4427 1174 01       		.uleb128 0x1
 4428 1175 9C       		.byte	0x9c
 4429 1176 D6140000 		.4byte	0x14d6
 4430 117a 2F       		.uleb128 0x2f
 4431 117b BF010000 		.4byte	.LASF88
 4432 117f 01       		.byte	0x1
 4433 1180 7E       		.byte	0x7e
 4434 1181 B5040000 		.4byte	0x4b5
 4435 1185 57190000 		.4byte	.LLST125
 4436 1189 2F       		.uleb128 0x2f
 4437 118a 86020000 		.4byte	.LASF127
 4438 118e 01       		.byte	0x1
 4439 118f 7E       		.byte	0x7e
 4440 1190 E7010000 		.4byte	0x1e7
 4441 1194 A4190000 		.4byte	.LLST126
 4442 1198 2F       		.uleb128 0x2f
ARM GAS  C:\Users\pearlstl\AppData\Local\Temp\ccllHTLf.s 			page 94


 4443 1199 A7040000 		.4byte	.LASF121
 4444 119d 01       		.byte	0x1
 4445 119e 7E       		.byte	0x7e
 4446 119f E4000000 		.4byte	0xe4
 4447 11a3 D8190000 		.4byte	.LLST127
 4448 11a7 2F       		.uleb128 0x2f
 4449 11a8 39030000 		.4byte	.LASF128
 4450 11ac 01       		.byte	0x1
 4451 11ad 7E       		.byte	0x7e
 4452 11ae E4000000 		.4byte	0xe4
 4453 11b2 651A0000 		.4byte	.LLST128
 4454 11b6 30       		.uleb128 0x30
 4455 11b7 6F000000 		.4byte	.LASF90
 4456 11bb 01       		.byte	0x1
 4457 11bc 80       		.byte	0x80
 4458 11bd 03060000 		.4byte	0x603
 4459 11c1 CE1A0000 		.4byte	.LLST129
 4460 11c5 1B       		.uleb128 0x1b
 4461 11c6 67696400 		.ascii	"gid\000"
 4462 11ca 01       		.byte	0x1
 4463 11cb 81       		.byte	0x81
 4464 11cc E4000000 		.4byte	0xe4
 4465 11d0 30       		.uleb128 0x30
 4466 11d1 97000000 		.4byte	.LASF129
 4467 11d5 01       		.byte	0x1
 4468 11d6 84       		.byte	0x84
 4469 11d7 AD000000 		.4byte	0xad
 4470 11db 511B0000 		.4byte	.LLST130
 4471 11df 30       		.uleb128 0x30
 4472 11e0 08030000 		.4byte	.LASF122
 4473 11e4 01       		.byte	0x1
 4474 11e5 8D       		.byte	0x8d
 4475 11e6 86040000 		.4byte	0x486
 4476 11ea 7D1B0000 		.4byte	.LLST131
 4477 11ee 39       		.uleb128 0x39
 4478 11ef 6B7600   		.ascii	"kv\000"
 4479 11f2 01       		.byte	0x1
 4480 11f3 8F       		.byte	0x8f
 4481 11f4 D9000000 		.4byte	0xd9
 4482 11f8 901B0000 		.4byte	.LLST132
 4483 11fc 30       		.uleb128 0x30
 4484 11fd 00070000 		.4byte	.LASF23
 4485 1201 01       		.byte	0x1
 4486 1202 91       		.byte	0x91
 4487 1203 E4000000 		.4byte	0xe4
 4488 1207 B01B0000 		.4byte	.LLST133
 4489 120b 31       		.uleb128 0x31
 4490 120c 60050000 		.4byte	0x560
 4491 1210 00000000 		.4byte	.LBB265
 4492 1214 00030000 		.4byte	.Ldebug_ranges0+0x300
 4493 1218 01       		.byte	0x1
 4494 1219 81       		.byte	0x81
 4495 121a 35130000 		.4byte	0x1335
 4496 121e 25       		.uleb128 0x25
 4497 121f 70050000 		.4byte	0x570
 4498 1223 F91B0000 		.4byte	.LLST134
 4499 1227 25       		.uleb128 0x25
ARM GAS  C:\Users\pearlstl\AppData\Local\Temp\ccllHTLf.s 			page 95


 4500 1228 7B050000 		.4byte	0x57b
 4501 122c 461C0000 		.4byte	.LLST135
 4502 1230 29       		.uleb128 0x29
 4503 1231 00030000 		.4byte	.Ldebug_ranges0+0x300
 4504 1235 32       		.uleb128 0x32
 4505 1236 86050000 		.4byte	0x586
 4506 123a 32       		.uleb128 0x32
 4507 123b 91050000 		.4byte	0x591
 4508 123f 29       		.uleb128 0x29
 4509 1240 08030000 		.4byte	.Ldebug_ranges0+0x308
 4510 1244 26       		.uleb128 0x26
 4511 1245 70050000 		.4byte	0x570
 4512 1249 25       		.uleb128 0x25
 4513 124a 7B050000 		.4byte	0x57b
 4514 124e 9B1C0000 		.4byte	.LLST136
 4515 1252 29       		.uleb128 0x29
 4516 1253 08030000 		.4byte	.Ldebug_ranges0+0x308
 4517 1257 28       		.uleb128 0x28
 4518 1258 86050000 		.4byte	0x586
 4519 125c 281D0000 		.4byte	.LLST137
 4520 1260 28       		.uleb128 0x28
 4521 1261 91050000 		.4byte	0x591
 4522 1265 901D0000 		.4byte	.LLST138
 4523 1269 29       		.uleb128 0x29
 4524 126a 38030000 		.4byte	.Ldebug_ranges0+0x338
 4525 126e 27       		.uleb128 0x27
 4526 126f 9B050000 		.4byte	0x59b
 4527 1273 02       		.uleb128 0x2
 4528 1274 91       		.byte	0x91
 4529 1275 5C       		.sleb128 -36
 4530 1276 28       		.uleb128 0x28
 4531 1277 A6050000 		.4byte	0x5a6
 4532 127b C61D0000 		.4byte	.LLST139
 4533 127f 2A       		.uleb128 0x2a
 4534 1280 60010000 		.4byte	.LBB270
 4535 1284 0A000000 		.4byte	.LBE270-.LBB270
 4536 1288 96120000 		.4byte	0x1296
 4537 128c 28       		.uleb128 0x28
 4538 128d B6050000 		.4byte	0x5b6
 4539 1291 2A1E0000 		.4byte	.LLST140
 4540 1295 00       		.byte	0
 4541 1296 2A       		.uleb128 0x2a
 4542 1297 A6010000 		.4byte	.LBB271
 4543 129b 30000000 		.4byte	.LBE271-.LBB271
 4544 129f EC120000 		.4byte	0x12ec
 4545 12a3 28       		.uleb128 0x28
 4546 12a4 DF050000 		.4byte	0x5df
 4547 12a8 3E1E0000 		.4byte	.LLST141
 4548 12ac 2A       		.uleb128 0x2a
 4549 12ad BC010000 		.4byte	.LBB272
 4550 12b1 1A000000 		.4byte	.LBE272-.LBB272
 4551 12b5 CC120000 		.4byte	0x12cc
 4552 12b9 28       		.uleb128 0x28
 4553 12ba E9050000 		.4byte	0x5e9
 4554 12be 511E0000 		.4byte	.LLST142
 4555 12c2 28       		.uleb128 0x28
 4556 12c3 F4050000 		.4byte	0x5f4
ARM GAS  C:\Users\pearlstl\AppData\Local\Temp\ccllHTLf.s 			page 96


 4557 12c7 861E0000 		.4byte	.LLST143
 4558 12cb 00       		.byte	0
 4559 12cc 2B       		.uleb128 0x2b
 4560 12cd B6010000 		.4byte	.LVL277
 4561 12d1 3C150000 		.4byte	0x153c
 4562 12d5 2C       		.uleb128 0x2c
 4563 12d6 01       		.uleb128 0x1
 4564 12d7 50       		.byte	0x50
 4565 12d8 02       		.uleb128 0x2
 4566 12d9 91       		.byte	0x91
 4567 12da 5C       		.sleb128 -36
 4568 12db 2C       		.uleb128 0x2c
 4569 12dc 01       		.uleb128 0x1
 4570 12dd 53       		.byte	0x53
 4571 12de 01       		.uleb128 0x1
 4572 12df 32       		.byte	0x32
 4573 12e0 2C       		.uleb128 0x2c
 4574 12e1 02       		.uleb128 0x2
 4575 12e2 7D       		.byte	0x7d
 4576 12e3 00       		.sleb128 0
 4577 12e4 05       		.uleb128 0x5
 4578 12e5 03       		.byte	0x3
 4579 12e6 00000000 		.4byte	unicode_list_compare
 4580 12ea 00       		.byte	0
 4581 12eb 00       		.byte	0
 4582 12ec 2D       		.uleb128 0x2d
 4583 12ed D6010000 		.4byte	.LBB273
 4584 12f1 36000000 		.4byte	.LBE273-.LBB273
 4585 12f5 27       		.uleb128 0x27
 4586 12f6 C7050000 		.4byte	0x5c7
 4587 12fa 01       		.uleb128 0x1
 4588 12fb 50       		.byte	0x50
 4589 12fc 2A       		.uleb128 0x2a
 4590 12fd EA010000 		.4byte	.LBB274
 4591 1301 22000000 		.4byte	.LBE274-.LBB274
 4592 1305 15130000 		.4byte	0x1315
 4593 1309 27       		.uleb128 0x27
 4594 130a D1050000 		.4byte	0x5d1
 4595 130e 05       		.uleb128 0x5
 4596 130f 72       		.byte	0x72
 4597 1310 00       		.sleb128 0
 4598 1311 31       		.byte	0x31
 4599 1312 25       		.byte	0x25
 4600 1313 9F       		.byte	0x9f
 4601 1314 00       		.byte	0
 4602 1315 2B       		.uleb128 0x2b
 4603 1316 E4010000 		.4byte	.LVL284
 4604 131a 3C150000 		.4byte	0x153c
 4605 131e 2C       		.uleb128 0x2c
 4606 131f 01       		.uleb128 0x1
 4607 1320 50       		.byte	0x50
 4608 1321 02       		.uleb128 0x2
 4609 1322 91       		.byte	0x91
 4610 1323 5C       		.sleb128 -36
 4611 1324 2C       		.uleb128 0x2c
 4612 1325 02       		.uleb128 0x2
 4613 1326 7D       		.byte	0x7d
ARM GAS  C:\Users\pearlstl\AppData\Local\Temp\ccllHTLf.s 			page 97


 4614 1327 00       		.sleb128 0
 4615 1328 05       		.uleb128 0x5
 4616 1329 03       		.byte	0x3
 4617 132a 00000000 		.4byte	unicode_list_compare
 4618 132e 00       		.byte	0
 4619 132f 00       		.byte	0
 4620 1330 00       		.byte	0
 4621 1331 00       		.byte	0
 4622 1332 00       		.byte	0
 4623 1333 00       		.byte	0
 4624 1334 00       		.byte	0
 4625 1335 29       		.uleb128 0x29
 4626 1336 70030000 		.4byte	.Ldebug_ranges0+0x370
 4627 133a 1A       		.uleb128 0x1a
 4628 133b 2A050000 		.4byte	.LASF130
 4629 133f 01       		.byte	0x1
 4630 1340 86       		.byte	0x86
 4631 1341 E4000000 		.4byte	0xe4
 4632 1345 31       		.uleb128 0x31
 4633 1346 60050000 		.4byte	0x560
 4634 134a 98000000 		.4byte	.LBB296
 4635 134e 90030000 		.4byte	.Ldebug_ranges0+0x390
 4636 1352 01       		.byte	0x1
 4637 1353 86       		.byte	0x86
 4638 1354 99130000 		.4byte	0x1399
 4639 1358 25       		.uleb128 0x25
 4640 1359 70050000 		.4byte	0x570
 4641 135d 9A1E0000 		.4byte	.LLST144
 4642 1361 25       		.uleb128 0x25
 4643 1362 7B050000 		.4byte	0x57b
 4644 1366 C31E0000 		.4byte	.LLST145
 4645 136a 29       		.uleb128 0x29
 4646 136b 90030000 		.4byte	.Ldebug_ranges0+0x390
 4647 136f 32       		.uleb128 0x32
 4648 1370 86050000 		.4byte	0x586
 4649 1374 32       		.uleb128 0x32
 4650 1375 91050000 		.4byte	0x591
 4651 1379 2B       		.uleb128 0x2b
 4652 137a EA000000 		.4byte	.LVL240
 4653 137e 3C080000 		.4byte	0x83c
 4654 1382 2C       		.uleb128 0x2c
 4655 1383 01       		.uleb128 0x1
 4656 1384 50       		.byte	0x50
 4657 1385 02       		.uleb128 0x2
 4658 1386 79       		.byte	0x79
 4659 1387 0C       		.sleb128 12
 4660 1388 2C       		.uleb128 0x2c
 4661 1389 01       		.uleb128 0x1
 4662 138a 51       		.byte	0x51
 4663 138b 02       		.uleb128 0x2
 4664 138c 78       		.byte	0x78
 4665 138d 00       		.sleb128 0
 4666 138e 33       		.uleb128 0x33
 4667 138f 70050000 		.4byte	0x570
 4668 1393 02       		.uleb128 0x2
 4669 1394 79       		.byte	0x79
 4670 1395 00       		.sleb128 0
ARM GAS  C:\Users\pearlstl\AppData\Local\Temp\ccllHTLf.s 			page 98


 4671 1396 00       		.byte	0
 4672 1397 00       		.byte	0
 4673 1398 00       		.byte	0
 4674 1399 3A       		.uleb128 0x3a
 4675 139a 09060000 		.4byte	0x609
 4676 139e 9E000000 		.4byte	.LBB299
 4677 13a2 A8030000 		.4byte	.Ldebug_ranges0+0x3a8
 4678 13a6 01       		.byte	0x1
 4679 13a7 88       		.byte	0x88
 4680 13a8 25       		.uleb128 0x25
 4681 13a9 19060000 		.4byte	0x619
 4682 13ad E11E0000 		.4byte	.LLST146
 4683 13b1 25       		.uleb128 0x25
 4684 13b2 2F060000 		.4byte	0x62f
 4685 13b6 FF1E0000 		.4byte	.LLST147
 4686 13ba 25       		.uleb128 0x25
 4687 13bb 24060000 		.4byte	0x624
 4688 13bf 281F0000 		.4byte	.LLST148
 4689 13c3 29       		.uleb128 0x29
 4690 13c4 A8030000 		.4byte	.Ldebug_ranges0+0x3a8
 4691 13c8 28       		.uleb128 0x28
 4692 13c9 3A060000 		.4byte	0x63a
 4693 13cd 461F0000 		.4byte	.LLST149
 4694 13d1 28       		.uleb128 0x28
 4695 13d2 45060000 		.4byte	0x645
 4696 13d6 881F0000 		.4byte	.LLST150
 4697 13da 3B       		.uleb128 0x3b
 4698 13db C8030000 		.4byte	.Ldebug_ranges0+0x3c8
 4699 13df AD140000 		.4byte	0x14ad
 4700 13e3 28       		.uleb128 0x28
 4701 13e4 55060000 		.4byte	0x655
 4702 13e8 27200000 		.4byte	.LLST151
 4703 13ec 3B       		.uleb128 0x3b
 4704 13ed E8030000 		.4byte	.Ldebug_ranges0+0x3e8
 4705 13f1 4C140000 		.4byte	0x144c
 4706 13f5 28       		.uleb128 0x28
 4707 13f6 95060000 		.4byte	0x695
 4708 13fa 45200000 		.4byte	.LLST152
 4709 13fe 27       		.uleb128 0x27
 4710 13ff A0060000 		.4byte	0x6a0
 4711 1403 02       		.uleb128 0x2
 4712 1404 91       		.byte	0x91
 4713 1405 5C       		.sleb128 -36
 4714 1406 28       		.uleb128 0x28
 4715 1407 AB060000 		.4byte	0x6ab
 4716 140b 58200000 		.4byte	.LLST153
 4717 140f 2A       		.uleb128 0x2a
 4718 1410 2C010000 		.4byte	.LBB303
 4719 1414 0C000000 		.4byte	.LBE303-.LBB303
 4720 1418 26140000 		.4byte	0x1426
 4721 141c 28       		.uleb128 0x28
 4722 141d B7060000 		.4byte	0x6b7
 4723 1421 6B200000 		.4byte	.LLST154
 4724 1425 00       		.byte	0
 4725 1426 2B       		.uleb128 0x2b
 4726 1427 28010000 		.4byte	.LVL247
 4727 142b 3C150000 		.4byte	0x153c
ARM GAS  C:\Users\pearlstl\AppData\Local\Temp\ccllHTLf.s 			page 99


 4728 142f 2C       		.uleb128 0x2c
 4729 1430 01       		.uleb128 0x1
 4730 1431 50       		.byte	0x50
 4731 1432 02       		.uleb128 0x2
 4732 1433 91       		.byte	0x91
 4733 1434 5C       		.sleb128 -36
 4734 1435 2C       		.uleb128 0x2c
 4735 1436 01       		.uleb128 0x1
 4736 1437 51       		.byte	0x51
 4737 1438 02       		.uleb128 0x2
 4738 1439 78       		.byte	0x78
 4739 143a 00       		.sleb128 0
 4740 143b 2C       		.uleb128 0x2c
 4741 143c 01       		.uleb128 0x1
 4742 143d 53       		.byte	0x53
 4743 143e 01       		.uleb128 0x1
 4744 143f 34       		.byte	0x34
 4745 1440 2C       		.uleb128 0x2c
 4746 1441 02       		.uleb128 0x2
 4747 1442 7D       		.byte	0x7d
 4748 1443 00       		.sleb128 0
 4749 1444 05       		.uleb128 0x5
 4750 1445 03       		.byte	0x3
 4751 1446 00000000 		.4byte	kern_pair_16_compare
 4752 144a 00       		.byte	0
 4753 144b 00       		.byte	0
 4754 144c 2D       		.uleb128 0x2d
 4755 144d 6A010000 		.4byte	.LBB305
 4756 1451 32000000 		.4byte	.LBE305-.LBB305
 4757 1455 28       		.uleb128 0x28
 4758 1456 65060000 		.4byte	0x665
 4759 145a 9F200000 		.4byte	.LLST155
 4760 145e 27       		.uleb128 0x27
 4761 145f 70060000 		.4byte	0x670
 4762 1463 02       		.uleb128 0x2
 4763 1464 91       		.byte	0x91
 4764 1465 5C       		.sleb128 -36
 4765 1466 28       		.uleb128 0x28
 4766 1467 7B060000 		.4byte	0x67b
 4767 146b B2200000 		.4byte	.LLST156
 4768 146f 2A       		.uleb128 0x2a
 4769 1470 90010000 		.4byte	.LBB306
 4770 1474 0C000000 		.4byte	.LBE306-.LBB306
 4771 1478 86140000 		.4byte	0x1486
 4772 147c 28       		.uleb128 0x28
 4773 147d 87060000 		.4byte	0x687
 4774 1481 C5200000 		.4byte	.LLST157
 4775 1485 00       		.byte	0
 4776 1486 2B       		.uleb128 0x2b
 4777 1487 8C010000 		.4byte	.LVL268
 4778 148b 3C150000 		.4byte	0x153c
 4779 148f 2C       		.uleb128 0x2c
 4780 1490 01       		.uleb128 0x1
 4781 1491 50       		.byte	0x50
 4782 1492 02       		.uleb128 0x2
 4783 1493 91       		.byte	0x91
 4784 1494 5C       		.sleb128 -36
ARM GAS  C:\Users\pearlstl\AppData\Local\Temp\ccllHTLf.s 			page 100


 4785 1495 2C       		.uleb128 0x2c
 4786 1496 01       		.uleb128 0x1
 4787 1497 51       		.byte	0x51
 4788 1498 02       		.uleb128 0x2
 4789 1499 78       		.byte	0x78
 4790 149a 00       		.sleb128 0
 4791 149b 2C       		.uleb128 0x2c
 4792 149c 01       		.uleb128 0x1
 4793 149d 53       		.byte	0x53
 4794 149e 01       		.uleb128 0x1
 4795 149f 32       		.byte	0x32
 4796 14a0 2C       		.uleb128 0x2c
 4797 14a1 02       		.uleb128 0x2
 4798 14a2 7D       		.byte	0x7d
 4799 14a3 00       		.sleb128 0
 4800 14a4 05       		.uleb128 0x5
 4801 14a5 03       		.byte	0x3
 4802 14a6 00000000 		.4byte	kern_pair_8_compare
 4803 14aa 00       		.byte	0
 4804 14ab 00       		.byte	0
 4805 14ac 00       		.byte	0
 4806 14ad 2D       		.uleb128 0x2d
 4807 14ae 38010000 		.4byte	.LBB308
 4808 14b2 24000000 		.4byte	.LBE308-.LBB308
 4809 14b6 28       		.uleb128 0x28
 4810 14b7 C6060000 		.4byte	0x6c6
 4811 14bb F9200000 		.4byte	.LLST158
 4812 14bf 28       		.uleb128 0x28
 4813 14c0 D2060000 		.4byte	0x6d2
 4814 14c4 1B210000 		.4byte	.LLST159
 4815 14c8 28       		.uleb128 0x28
 4816 14c9 DE060000 		.4byte	0x6de
 4817 14cd 3B210000 		.4byte	.LLST160
 4818 14d1 00       		.byte	0
 4819 14d2 00       		.byte	0
 4820 14d3 00       		.byte	0
 4821 14d4 00       		.byte	0
 4822 14d5 00       		.byte	0
 4823 14d6 3C       		.uleb128 0x3c
 4824 14d7 84070000 		.4byte	.LASF131
 4825 14db 01       		.byte	0x1
 4826 14dc 34       		.byte	0x34
 4827 14dd E4000000 		.4byte	0xe4
 4828 14e1 05       		.uleb128 0x5
 4829 14e2 03       		.byte	0x3
 4830 14e3 0C000000 		.4byte	rle_rdp
 4831 14e7 3C       		.uleb128 0x3c
 4832 14e8 61040000 		.4byte	.LASF132
 4833 14ec 01       		.byte	0x1
 4834 14ed 35       		.byte	0x35
 4835 14ee 07020000 		.4byte	0x207
 4836 14f2 05       		.uleb128 0x5
 4837 14f3 03       		.byte	0x3
 4838 14f4 04000000 		.4byte	rle_in
 4839 14f8 3C       		.uleb128 0x3c
 4840 14f9 7E020000 		.4byte	.LASF133
 4841 14fd 01       		.byte	0x1
ARM GAS  C:\Users\pearlstl\AppData\Local\Temp\ccllHTLf.s 			page 101


 4842 14fe 36       		.byte	0x36
 4843 14ff B8000000 		.4byte	0xb8
 4844 1503 05       		.uleb128 0x5
 4845 1504 03       		.byte	0x3
 4846 1505 08000000 		.4byte	rle_bpp
 4847 1509 3C       		.uleb128 0x3c
 4848 150a B4020000 		.4byte	.LASF134
 4849 150e 01       		.byte	0x1
 4850 150f 37       		.byte	0x37
 4851 1510 B8000000 		.4byte	0xb8
 4852 1514 05       		.uleb128 0x5
 4853 1515 03       		.byte	0x3
 4854 1516 10000000 		.4byte	rle_prev_v
 4855 151a 3C       		.uleb128 0x3c
 4856 151b D4070000 		.4byte	.LASF135
 4857 151f 01       		.byte	0x1
 4858 1520 38       		.byte	0x38
 4859 1521 B8000000 		.4byte	0xb8
 4860 1525 05       		.uleb128 0x5
 4861 1526 03       		.byte	0x3
 4862 1527 11000000 		.4byte	rle_cnt
 4863 152b 3C       		.uleb128 0x3c
 4864 152c E1020000 		.4byte	.LASF136
 4865 1530 01       		.byte	0x1
 4866 1531 39       		.byte	0x39
 4867 1532 F0040000 		.4byte	0x4f0
 4868 1536 05       		.uleb128 0x5
 4869 1537 03       		.byte	0x3
 4870 1538 09000000 		.4byte	rle_state
 4871 153c 3D       		.uleb128 0x3d
 4872 153d 71040000 		.4byte	.LASF137
 4873 1541 71040000 		.4byte	.LASF137
 4874 1545 08       		.byte	0x8
 4875 1546 37       		.byte	0x37
 4876 1547 3D       		.uleb128 0x3d
 4877 1548 B3000000 		.4byte	.LASF138
 4878 154c B3000000 		.4byte	.LASF138
 4879 1550 09       		.byte	0x9
 4880 1551 2B       		.byte	0x2b
 4881 1552 3D       		.uleb128 0x3d
 4882 1553 F0060000 		.4byte	.LASF139
 4883 1557 F0060000 		.4byte	.LASF139
 4884 155b 0A       		.byte	0xa
 4885 155c 67       		.byte	0x67
 4886 155d 3D       		.uleb128 0x3d
 4887 155e 11050000 		.4byte	.LASF140
 4888 1562 11050000 		.4byte	.LASF140
 4889 1566 0A       		.byte	0xa
 4890 1567 54       		.byte	0x54
 4891 1568 00       		.byte	0
 4892              		.section	.debug_abbrev,"",%progbits
 4893              	.Ldebug_abbrev0:
 4894 0000 01       		.uleb128 0x1
 4895 0001 11       		.uleb128 0x11
 4896 0002 01       		.byte	0x1
 4897 0003 25       		.uleb128 0x25
 4898 0004 0E       		.uleb128 0xe
ARM GAS  C:\Users\pearlstl\AppData\Local\Temp\ccllHTLf.s 			page 102


 4899 0005 13       		.uleb128 0x13
 4900 0006 0B       		.uleb128 0xb
 4901 0007 03       		.uleb128 0x3
 4902 0008 0E       		.uleb128 0xe
 4903 0009 1B       		.uleb128 0x1b
 4904 000a 0E       		.uleb128 0xe
 4905 000b 55       		.uleb128 0x55
 4906 000c 17       		.uleb128 0x17
 4907 000d 11       		.uleb128 0x11
 4908 000e 01       		.uleb128 0x1
 4909 000f 10       		.uleb128 0x10
 4910 0010 17       		.uleb128 0x17
 4911 0011 00       		.byte	0
 4912 0012 00       		.byte	0
 4913 0013 02       		.uleb128 0x2
 4914 0014 16       		.uleb128 0x16
 4915 0015 00       		.byte	0
 4916 0016 03       		.uleb128 0x3
 4917 0017 0E       		.uleb128 0xe
 4918 0018 3A       		.uleb128 0x3a
 4919 0019 0B       		.uleb128 0xb
 4920 001a 3B       		.uleb128 0x3b
 4921 001b 0B       		.uleb128 0xb
 4922 001c 49       		.uleb128 0x49
 4923 001d 13       		.uleb128 0x13
 4924 001e 00       		.byte	0
 4925 001f 00       		.byte	0
 4926 0020 03       		.uleb128 0x3
 4927 0021 24       		.uleb128 0x24
 4928 0022 00       		.byte	0
 4929 0023 0B       		.uleb128 0xb
 4930 0024 0B       		.uleb128 0xb
 4931 0025 3E       		.uleb128 0x3e
 4932 0026 0B       		.uleb128 0xb
 4933 0027 03       		.uleb128 0x3
 4934 0028 0E       		.uleb128 0xe
 4935 0029 00       		.byte	0
 4936 002a 00       		.byte	0
 4937 002b 04       		.uleb128 0x4
 4938 002c 24       		.uleb128 0x24
 4939 002d 00       		.byte	0
 4940 002e 0B       		.uleb128 0xb
 4941 002f 0B       		.uleb128 0xb
 4942 0030 3E       		.uleb128 0x3e
 4943 0031 0B       		.uleb128 0xb
 4944 0032 03       		.uleb128 0x3
 4945 0033 08       		.uleb128 0x8
 4946 0034 00       		.byte	0
 4947 0035 00       		.byte	0
 4948 0036 05       		.uleb128 0x5
 4949 0037 0F       		.uleb128 0xf
 4950 0038 00       		.byte	0
 4951 0039 0B       		.uleb128 0xb
 4952 003a 0B       		.uleb128 0xb
 4953 003b 00       		.byte	0
 4954 003c 00       		.byte	0
 4955 003d 06       		.uleb128 0x6
ARM GAS  C:\Users\pearlstl\AppData\Local\Temp\ccllHTLf.s 			page 103


 4956 003e 13       		.uleb128 0x13
 4957 003f 01       		.byte	0x1
 4958 0040 0B       		.uleb128 0xb
 4959 0041 0B       		.uleb128 0xb
 4960 0042 3A       		.uleb128 0x3a
 4961 0043 0B       		.uleb128 0xb
 4962 0044 3B       		.uleb128 0x3b
 4963 0045 0B       		.uleb128 0xb
 4964 0046 01       		.uleb128 0x1
 4965 0047 13       		.uleb128 0x13
 4966 0048 00       		.byte	0
 4967 0049 00       		.byte	0
 4968 004a 07       		.uleb128 0x7
 4969 004b 0D       		.uleb128 0xd
 4970 004c 00       		.byte	0
 4971 004d 03       		.uleb128 0x3
 4972 004e 0E       		.uleb128 0xe
 4973 004f 3A       		.uleb128 0x3a
 4974 0050 0B       		.uleb128 0xb
 4975 0051 3B       		.uleb128 0x3b
 4976 0052 0B       		.uleb128 0xb
 4977 0053 49       		.uleb128 0x49
 4978 0054 13       		.uleb128 0x13
 4979 0055 38       		.uleb128 0x38
 4980 0056 0B       		.uleb128 0xb
 4981 0057 00       		.byte	0
 4982 0058 00       		.byte	0
 4983 0059 08       		.uleb128 0x8
 4984 005a 0D       		.uleb128 0xd
 4985 005b 00       		.byte	0
 4986 005c 03       		.uleb128 0x3
 4987 005d 08       		.uleb128 0x8
 4988 005e 3A       		.uleb128 0x3a
 4989 005f 0B       		.uleb128 0xb
 4990 0060 3B       		.uleb128 0x3b
 4991 0061 0B       		.uleb128 0xb
 4992 0062 49       		.uleb128 0x49
 4993 0063 13       		.uleb128 0x13
 4994 0064 38       		.uleb128 0x38
 4995 0065 0B       		.uleb128 0xb
 4996 0066 00       		.byte	0
 4997 0067 00       		.byte	0
 4998 0068 09       		.uleb128 0x9
 4999 0069 13       		.uleb128 0x13
 5000 006a 01       		.byte	0x1
 5001 006b 03       		.uleb128 0x3
 5002 006c 0E       		.uleb128 0xe
 5003 006d 0B       		.uleb128 0xb
 5004 006e 0B       		.uleb128 0xb
 5005 006f 3A       		.uleb128 0x3a
 5006 0070 0B       		.uleb128 0xb
 5007 0071 3B       		.uleb128 0x3b
 5008 0072 0B       		.uleb128 0xb
 5009 0073 01       		.uleb128 0x1
 5010 0074 13       		.uleb128 0x13
 5011 0075 00       		.byte	0
 5012 0076 00       		.byte	0
ARM GAS  C:\Users\pearlstl\AppData\Local\Temp\ccllHTLf.s 			page 104


 5013 0077 0A       		.uleb128 0xa
 5014 0078 0D       		.uleb128 0xd
 5015 0079 00       		.byte	0
 5016 007a 03       		.uleb128 0x3
 5017 007b 0E       		.uleb128 0xe
 5018 007c 3A       		.uleb128 0x3a
 5019 007d 0B       		.uleb128 0xb
 5020 007e 3B       		.uleb128 0x3b
 5021 007f 0B       		.uleb128 0xb
 5022 0080 49       		.uleb128 0x49
 5023 0081 13       		.uleb128 0x13
 5024 0082 0B       		.uleb128 0xb
 5025 0083 0B       		.uleb128 0xb
 5026 0084 0D       		.uleb128 0xd
 5027 0085 0B       		.uleb128 0xb
 5028 0086 0C       		.uleb128 0xc
 5029 0087 0B       		.uleb128 0xb
 5030 0088 38       		.uleb128 0x38
 5031 0089 0B       		.uleb128 0xb
 5032 008a 00       		.byte	0
 5033 008b 00       		.byte	0
 5034 008c 0B       		.uleb128 0xb
 5035 008d 15       		.uleb128 0x15
 5036 008e 01       		.byte	0x1
 5037 008f 27       		.uleb128 0x27
 5038 0090 19       		.uleb128 0x19
 5039 0091 49       		.uleb128 0x49
 5040 0092 13       		.uleb128 0x13
 5041 0093 01       		.uleb128 0x1
 5042 0094 13       		.uleb128 0x13
 5043 0095 00       		.byte	0
 5044 0096 00       		.byte	0
 5045 0097 0C       		.uleb128 0xc
 5046 0098 05       		.uleb128 0x5
 5047 0099 00       		.byte	0
 5048 009a 49       		.uleb128 0x49
 5049 009b 13       		.uleb128 0x13
 5050 009c 00       		.byte	0
 5051 009d 00       		.byte	0
 5052 009e 0D       		.uleb128 0xd
 5053 009f 0F       		.uleb128 0xf
 5054 00a0 00       		.byte	0
 5055 00a1 0B       		.uleb128 0xb
 5056 00a2 0B       		.uleb128 0xb
 5057 00a3 49       		.uleb128 0x49
 5058 00a4 13       		.uleb128 0x13
 5059 00a5 00       		.byte	0
 5060 00a6 00       		.byte	0
 5061 00a7 0E       		.uleb128 0xe
 5062 00a8 26       		.uleb128 0x26
 5063 00a9 00       		.byte	0
 5064 00aa 49       		.uleb128 0x49
 5065 00ab 13       		.uleb128 0x13
 5066 00ac 00       		.byte	0
 5067 00ad 00       		.byte	0
 5068 00ae 0F       		.uleb128 0xf
 5069 00af 04       		.uleb128 0x4
ARM GAS  C:\Users\pearlstl\AppData\Local\Temp\ccllHTLf.s 			page 105


 5070 00b0 01       		.byte	0x1
 5071 00b1 0B       		.uleb128 0xb
 5072 00b2 0B       		.uleb128 0xb
 5073 00b3 49       		.uleb128 0x49
 5074 00b4 13       		.uleb128 0x13
 5075 00b5 3A       		.uleb128 0x3a
 5076 00b6 0B       		.uleb128 0xb
 5077 00b7 3B       		.uleb128 0x3b
 5078 00b8 0B       		.uleb128 0xb
 5079 00b9 01       		.uleb128 0x1
 5080 00ba 13       		.uleb128 0x13
 5081 00bb 00       		.byte	0
 5082 00bc 00       		.byte	0
 5083 00bd 10       		.uleb128 0x10
 5084 00be 28       		.uleb128 0x28
 5085 00bf 00       		.byte	0
 5086 00c0 03       		.uleb128 0x3
 5087 00c1 0E       		.uleb128 0xe
 5088 00c2 1C       		.uleb128 0x1c
 5089 00c3 0B       		.uleb128 0xb
 5090 00c4 00       		.byte	0
 5091 00c5 00       		.byte	0
 5092 00c6 11       		.uleb128 0x11
 5093 00c7 26       		.uleb128 0x26
 5094 00c8 00       		.byte	0
 5095 00c9 00       		.byte	0
 5096 00ca 00       		.byte	0
 5097 00cb 12       		.uleb128 0x12
 5098 00cc 0D       		.uleb128 0xd
 5099 00cd 00       		.byte	0
 5100 00ce 03       		.uleb128 0x3
 5101 00cf 08       		.uleb128 0x8
 5102 00d0 3A       		.uleb128 0x3a
 5103 00d1 0B       		.uleb128 0xb
 5104 00d2 3B       		.uleb128 0x3b
 5105 00d3 0B       		.uleb128 0xb
 5106 00d4 49       		.uleb128 0x49
 5107 00d5 13       		.uleb128 0x13
 5108 00d6 0B       		.uleb128 0xb
 5109 00d7 0B       		.uleb128 0xb
 5110 00d8 0D       		.uleb128 0xd
 5111 00d9 0B       		.uleb128 0xb
 5112 00da 0C       		.uleb128 0xc
 5113 00db 0B       		.uleb128 0xb
 5114 00dc 38       		.uleb128 0x38
 5115 00dd 0B       		.uleb128 0xb
 5116 00de 00       		.byte	0
 5117 00df 00       		.byte	0
 5118 00e0 13       		.uleb128 0x13
 5119 00e1 2E       		.uleb128 0x2e
 5120 00e2 01       		.byte	0x1
 5121 00e3 03       		.uleb128 0x3
 5122 00e4 0E       		.uleb128 0xe
 5123 00e5 3A       		.uleb128 0x3a
 5124 00e6 0B       		.uleb128 0xb
 5125 00e7 3B       		.uleb128 0x3b
 5126 00e8 05       		.uleb128 0x5
ARM GAS  C:\Users\pearlstl\AppData\Local\Temp\ccllHTLf.s 			page 106


 5127 00e9 27       		.uleb128 0x27
 5128 00ea 19       		.uleb128 0x19
 5129 00eb 49       		.uleb128 0x49
 5130 00ec 13       		.uleb128 0x13
 5131 00ed 20       		.uleb128 0x20
 5132 00ee 0B       		.uleb128 0xb
 5133 00ef 01       		.uleb128 0x1
 5134 00f0 13       		.uleb128 0x13
 5135 00f1 00       		.byte	0
 5136 00f2 00       		.byte	0
 5137 00f3 14       		.uleb128 0x14
 5138 00f4 05       		.uleb128 0x5
 5139 00f5 00       		.byte	0
 5140 00f6 03       		.uleb128 0x3
 5141 00f7 08       		.uleb128 0x8
 5142 00f8 3A       		.uleb128 0x3a
 5143 00f9 0B       		.uleb128 0xb
 5144 00fa 3B       		.uleb128 0x3b
 5145 00fb 05       		.uleb128 0x5
 5146 00fc 49       		.uleb128 0x49
 5147 00fd 13       		.uleb128 0x13
 5148 00fe 00       		.byte	0
 5149 00ff 00       		.byte	0
 5150 0100 15       		.uleb128 0x15
 5151 0101 05       		.uleb128 0x5
 5152 0102 00       		.byte	0
 5153 0103 03       		.uleb128 0x3
 5154 0104 0E       		.uleb128 0xe
 5155 0105 3A       		.uleb128 0x3a
 5156 0106 0B       		.uleb128 0xb
 5157 0107 3B       		.uleb128 0x3b
 5158 0108 05       		.uleb128 0x5
 5159 0109 49       		.uleb128 0x49
 5160 010a 13       		.uleb128 0x13
 5161 010b 00       		.byte	0
 5162 010c 00       		.byte	0
 5163 010d 16       		.uleb128 0x16
 5164 010e 34       		.uleb128 0x34
 5165 010f 00       		.byte	0
 5166 0110 03       		.uleb128 0x3
 5167 0111 08       		.uleb128 0x8
 5168 0112 3A       		.uleb128 0x3a
 5169 0113 0B       		.uleb128 0xb
 5170 0114 3B       		.uleb128 0x3b
 5171 0115 05       		.uleb128 0x5
 5172 0116 49       		.uleb128 0x49
 5173 0117 13       		.uleb128 0x13
 5174 0118 00       		.byte	0
 5175 0119 00       		.byte	0
 5176 011a 17       		.uleb128 0x17
 5177 011b 34       		.uleb128 0x34
 5178 011c 00       		.byte	0
 5179 011d 03       		.uleb128 0x3
 5180 011e 0E       		.uleb128 0xe
 5181 011f 3A       		.uleb128 0x3a
 5182 0120 0B       		.uleb128 0xb
 5183 0121 3B       		.uleb128 0x3b
ARM GAS  C:\Users\pearlstl\AppData\Local\Temp\ccllHTLf.s 			page 107


 5184 0122 05       		.uleb128 0x5
 5185 0123 49       		.uleb128 0x49
 5186 0124 13       		.uleb128 0x13
 5187 0125 00       		.byte	0
 5188 0126 00       		.byte	0
 5189 0127 18       		.uleb128 0x18
 5190 0128 2E       		.uleb128 0x2e
 5191 0129 01       		.byte	0x1
 5192 012a 03       		.uleb128 0x3
 5193 012b 0E       		.uleb128 0xe
 5194 012c 3A       		.uleb128 0x3a
 5195 012d 0B       		.uleb128 0xb
 5196 012e 3B       		.uleb128 0x3b
 5197 012f 0B       		.uleb128 0xb
 5198 0130 27       		.uleb128 0x27
 5199 0131 19       		.uleb128 0x19
 5200 0132 49       		.uleb128 0x49
 5201 0133 13       		.uleb128 0x13
 5202 0134 20       		.uleb128 0x20
 5203 0135 0B       		.uleb128 0xb
 5204 0136 01       		.uleb128 0x1
 5205 0137 13       		.uleb128 0x13
 5206 0138 00       		.byte	0
 5207 0139 00       		.byte	0
 5208 013a 19       		.uleb128 0x19
 5209 013b 05       		.uleb128 0x5
 5210 013c 00       		.byte	0
 5211 013d 03       		.uleb128 0x3
 5212 013e 0E       		.uleb128 0xe
 5213 013f 3A       		.uleb128 0x3a
 5214 0140 0B       		.uleb128 0xb
 5215 0141 3B       		.uleb128 0x3b
 5216 0142 0B       		.uleb128 0xb
 5217 0143 49       		.uleb128 0x49
 5218 0144 13       		.uleb128 0x13
 5219 0145 00       		.byte	0
 5220 0146 00       		.byte	0
 5221 0147 1A       		.uleb128 0x1a
 5222 0148 34       		.uleb128 0x34
 5223 0149 00       		.byte	0
 5224 014a 03       		.uleb128 0x3
 5225 014b 0E       		.uleb128 0xe
 5226 014c 3A       		.uleb128 0x3a
 5227 014d 0B       		.uleb128 0xb
 5228 014e 3B       		.uleb128 0x3b
 5229 014f 0B       		.uleb128 0xb
 5230 0150 49       		.uleb128 0x49
 5231 0151 13       		.uleb128 0x13
 5232 0152 00       		.byte	0
 5233 0153 00       		.byte	0
 5234 0154 1B       		.uleb128 0x1b
 5235 0155 34       		.uleb128 0x34
 5236 0156 00       		.byte	0
 5237 0157 03       		.uleb128 0x3
 5238 0158 08       		.uleb128 0x8
 5239 0159 3A       		.uleb128 0x3a
 5240 015a 0B       		.uleb128 0xb
ARM GAS  C:\Users\pearlstl\AppData\Local\Temp\ccllHTLf.s 			page 108


 5241 015b 3B       		.uleb128 0x3b
 5242 015c 0B       		.uleb128 0xb
 5243 015d 49       		.uleb128 0x49
 5244 015e 13       		.uleb128 0x13
 5245 015f 00       		.byte	0
 5246 0160 00       		.byte	0
 5247 0161 1C       		.uleb128 0x1c
 5248 0162 0B       		.uleb128 0xb
 5249 0163 01       		.byte	0x1
 5250 0164 00       		.byte	0
 5251 0165 00       		.byte	0
 5252 0166 1D       		.uleb128 0x1d
 5253 0167 0B       		.uleb128 0xb
 5254 0168 01       		.byte	0x1
 5255 0169 01       		.uleb128 0x1
 5256 016a 13       		.uleb128 0x13
 5257 016b 00       		.byte	0
 5258 016c 00       		.byte	0
 5259 016d 1E       		.uleb128 0x1e
 5260 016e 2E       		.uleb128 0x2e
 5261 016f 01       		.byte	0x1
 5262 0170 03       		.uleb128 0x3
 5263 0171 0E       		.uleb128 0xe
 5264 0172 3A       		.uleb128 0x3a
 5265 0173 0B       		.uleb128 0xb
 5266 0174 3B       		.uleb128 0x3b
 5267 0175 05       		.uleb128 0x5
 5268 0176 27       		.uleb128 0x27
 5269 0177 19       		.uleb128 0x19
 5270 0178 20       		.uleb128 0x20
 5271 0179 0B       		.uleb128 0xb
 5272 017a 01       		.uleb128 0x1
 5273 017b 13       		.uleb128 0x13
 5274 017c 00       		.byte	0
 5275 017d 00       		.byte	0
 5276 017e 1F       		.uleb128 0x1f
 5277 017f 2E       		.uleb128 0x2e
 5278 0180 01       		.byte	0x1
 5279 0181 03       		.uleb128 0x3
 5280 0182 0E       		.uleb128 0xe
 5281 0183 3A       		.uleb128 0x3a
 5282 0184 0B       		.uleb128 0xb
 5283 0185 3B       		.uleb128 0x3b
 5284 0186 05       		.uleb128 0x5
 5285 0187 27       		.uleb128 0x27
 5286 0188 19       		.uleb128 0x19
 5287 0189 49       		.uleb128 0x49
 5288 018a 13       		.uleb128 0x13
 5289 018b 11       		.uleb128 0x11
 5290 018c 01       		.uleb128 0x1
 5291 018d 12       		.uleb128 0x12
 5292 018e 06       		.uleb128 0x6
 5293 018f 40       		.uleb128 0x40
 5294 0190 18       		.uleb128 0x18
 5295 0191 9742     		.uleb128 0x2117
 5296 0193 19       		.uleb128 0x19
 5297 0194 01       		.uleb128 0x1
ARM GAS  C:\Users\pearlstl\AppData\Local\Temp\ccllHTLf.s 			page 109


 5298 0195 13       		.uleb128 0x13
 5299 0196 00       		.byte	0
 5300 0197 00       		.byte	0
 5301 0198 20       		.uleb128 0x20
 5302 0199 05       		.uleb128 0x5
 5303 019a 00       		.byte	0
 5304 019b 03       		.uleb128 0x3
 5305 019c 08       		.uleb128 0x8
 5306 019d 3A       		.uleb128 0x3a
 5307 019e 0B       		.uleb128 0xb
 5308 019f 3B       		.uleb128 0x3b
 5309 01a0 05       		.uleb128 0x5
 5310 01a1 49       		.uleb128 0x49
 5311 01a2 13       		.uleb128 0x13
 5312 01a3 02       		.uleb128 0x2
 5313 01a4 17       		.uleb128 0x17
 5314 01a5 00       		.byte	0
 5315 01a6 00       		.byte	0
 5316 01a7 21       		.uleb128 0x21
 5317 01a8 05       		.uleb128 0x5
 5318 01a9 00       		.byte	0
 5319 01aa 03       		.uleb128 0x3
 5320 01ab 0E       		.uleb128 0xe
 5321 01ac 3A       		.uleb128 0x3a
 5322 01ad 0B       		.uleb128 0xb
 5323 01ae 3B       		.uleb128 0x3b
 5324 01af 05       		.uleb128 0x5
 5325 01b0 49       		.uleb128 0x49
 5326 01b1 13       		.uleb128 0x13
 5327 01b2 02       		.uleb128 0x2
 5328 01b3 18       		.uleb128 0x18
 5329 01b4 00       		.byte	0
 5330 01b5 00       		.byte	0
 5331 01b6 22       		.uleb128 0x22
 5332 01b7 34       		.uleb128 0x34
 5333 01b8 00       		.byte	0
 5334 01b9 03       		.uleb128 0x3
 5335 01ba 0E       		.uleb128 0xe
 5336 01bb 3A       		.uleb128 0x3a
 5337 01bc 0B       		.uleb128 0xb
 5338 01bd 3B       		.uleb128 0x3b
 5339 01be 05       		.uleb128 0x5
 5340 01bf 49       		.uleb128 0x49
 5341 01c0 13       		.uleb128 0x13
 5342 01c1 02       		.uleb128 0x2
 5343 01c2 17       		.uleb128 0x17
 5344 01c3 00       		.byte	0
 5345 01c4 00       		.byte	0
 5346 01c5 23       		.uleb128 0x23
 5347 01c6 34       		.uleb128 0x34
 5348 01c7 00       		.byte	0
 5349 01c8 03       		.uleb128 0x3
 5350 01c9 0E       		.uleb128 0xe
 5351 01ca 3A       		.uleb128 0x3a
 5352 01cb 0B       		.uleb128 0xb
 5353 01cc 3B       		.uleb128 0x3b
 5354 01cd 05       		.uleb128 0x5
ARM GAS  C:\Users\pearlstl\AppData\Local\Temp\ccllHTLf.s 			page 110


 5355 01ce 49       		.uleb128 0x49
 5356 01cf 13       		.uleb128 0x13
 5357 01d0 02       		.uleb128 0x2
 5358 01d1 18       		.uleb128 0x18
 5359 01d2 00       		.byte	0
 5360 01d3 00       		.byte	0
 5361 01d4 24       		.uleb128 0x24
 5362 01d5 2E       		.uleb128 0x2e
 5363 01d6 01       		.byte	0x1
 5364 01d7 31       		.uleb128 0x31
 5365 01d8 13       		.uleb128 0x13
 5366 01d9 11       		.uleb128 0x11
 5367 01da 01       		.uleb128 0x1
 5368 01db 12       		.uleb128 0x12
 5369 01dc 06       		.uleb128 0x6
 5370 01dd 40       		.uleb128 0x40
 5371 01de 18       		.uleb128 0x18
 5372 01df 9742     		.uleb128 0x2117
 5373 01e1 19       		.uleb128 0x19
 5374 01e2 01       		.uleb128 0x1
 5375 01e3 13       		.uleb128 0x13
 5376 01e4 00       		.byte	0
 5377 01e5 00       		.byte	0
 5378 01e6 25       		.uleb128 0x25
 5379 01e7 05       		.uleb128 0x5
 5380 01e8 00       		.byte	0
 5381 01e9 31       		.uleb128 0x31
 5382 01ea 13       		.uleb128 0x13
 5383 01eb 02       		.uleb128 0x2
 5384 01ec 17       		.uleb128 0x17
 5385 01ed 00       		.byte	0
 5386 01ee 00       		.byte	0
 5387 01ef 26       		.uleb128 0x26
 5388 01f0 05       		.uleb128 0x5
 5389 01f1 00       		.byte	0
 5390 01f2 31       		.uleb128 0x31
 5391 01f3 13       		.uleb128 0x13
 5392 01f4 00       		.byte	0
 5393 01f5 00       		.byte	0
 5394 01f6 27       		.uleb128 0x27
 5395 01f7 34       		.uleb128 0x34
 5396 01f8 00       		.byte	0
 5397 01f9 31       		.uleb128 0x31
 5398 01fa 13       		.uleb128 0x13
 5399 01fb 02       		.uleb128 0x2
 5400 01fc 18       		.uleb128 0x18
 5401 01fd 00       		.byte	0
 5402 01fe 00       		.byte	0
 5403 01ff 28       		.uleb128 0x28
 5404 0200 34       		.uleb128 0x34
 5405 0201 00       		.byte	0
 5406 0202 31       		.uleb128 0x31
 5407 0203 13       		.uleb128 0x13
 5408 0204 02       		.uleb128 0x2
 5409 0205 17       		.uleb128 0x17
 5410 0206 00       		.byte	0
 5411 0207 00       		.byte	0
ARM GAS  C:\Users\pearlstl\AppData\Local\Temp\ccllHTLf.s 			page 111


 5412 0208 29       		.uleb128 0x29
 5413 0209 0B       		.uleb128 0xb
 5414 020a 01       		.byte	0x1
 5415 020b 55       		.uleb128 0x55
 5416 020c 17       		.uleb128 0x17
 5417 020d 00       		.byte	0
 5418 020e 00       		.byte	0
 5419 020f 2A       		.uleb128 0x2a
 5420 0210 0B       		.uleb128 0xb
 5421 0211 01       		.byte	0x1
 5422 0212 11       		.uleb128 0x11
 5423 0213 01       		.uleb128 0x1
 5424 0214 12       		.uleb128 0x12
 5425 0215 06       		.uleb128 0x6
 5426 0216 01       		.uleb128 0x1
 5427 0217 13       		.uleb128 0x13
 5428 0218 00       		.byte	0
 5429 0219 00       		.byte	0
 5430 021a 2B       		.uleb128 0x2b
 5431 021b 898201   		.uleb128 0x4109
 5432 021e 01       		.byte	0x1
 5433 021f 11       		.uleb128 0x11
 5434 0220 01       		.uleb128 0x1
 5435 0221 31       		.uleb128 0x31
 5436 0222 13       		.uleb128 0x13
 5437 0223 00       		.byte	0
 5438 0224 00       		.byte	0
 5439 0225 2C       		.uleb128 0x2c
 5440 0226 8A8201   		.uleb128 0x410a
 5441 0229 00       		.byte	0
 5442 022a 02       		.uleb128 0x2
 5443 022b 18       		.uleb128 0x18
 5444 022c 9142     		.uleb128 0x2111
 5445 022e 18       		.uleb128 0x18
 5446 022f 00       		.byte	0
 5447 0230 00       		.byte	0
 5448 0231 2D       		.uleb128 0x2d
 5449 0232 0B       		.uleb128 0xb
 5450 0233 01       		.byte	0x1
 5451 0234 11       		.uleb128 0x11
 5452 0235 01       		.uleb128 0x1
 5453 0236 12       		.uleb128 0x12
 5454 0237 06       		.uleb128 0x6
 5455 0238 00       		.byte	0
 5456 0239 00       		.byte	0
 5457 023a 2E       		.uleb128 0x2e
 5458 023b 2E       		.uleb128 0x2e
 5459 023c 01       		.byte	0x1
 5460 023d 3F       		.uleb128 0x3f
 5461 023e 19       		.uleb128 0x19
 5462 023f 03       		.uleb128 0x3
 5463 0240 0E       		.uleb128 0xe
 5464 0241 3A       		.uleb128 0x3a
 5465 0242 0B       		.uleb128 0xb
 5466 0243 3B       		.uleb128 0x3b
 5467 0244 0B       		.uleb128 0xb
 5468 0245 27       		.uleb128 0x27
ARM GAS  C:\Users\pearlstl\AppData\Local\Temp\ccllHTLf.s 			page 112


 5469 0246 19       		.uleb128 0x19
 5470 0247 49       		.uleb128 0x49
 5471 0248 13       		.uleb128 0x13
 5472 0249 11       		.uleb128 0x11
 5473 024a 01       		.uleb128 0x1
 5474 024b 12       		.uleb128 0x12
 5475 024c 06       		.uleb128 0x6
 5476 024d 40       		.uleb128 0x40
 5477 024e 18       		.uleb128 0x18
 5478 024f 9742     		.uleb128 0x2117
 5479 0251 19       		.uleb128 0x19
 5480 0252 01       		.uleb128 0x1
 5481 0253 13       		.uleb128 0x13
 5482 0254 00       		.byte	0
 5483 0255 00       		.byte	0
 5484 0256 2F       		.uleb128 0x2f
 5485 0257 05       		.uleb128 0x5
 5486 0258 00       		.byte	0
 5487 0259 03       		.uleb128 0x3
 5488 025a 0E       		.uleb128 0xe
 5489 025b 3A       		.uleb128 0x3a
 5490 025c 0B       		.uleb128 0xb
 5491 025d 3B       		.uleb128 0x3b
 5492 025e 0B       		.uleb128 0xb
 5493 025f 49       		.uleb128 0x49
 5494 0260 13       		.uleb128 0x13
 5495 0261 02       		.uleb128 0x2
 5496 0262 17       		.uleb128 0x17
 5497 0263 00       		.byte	0
 5498 0264 00       		.byte	0
 5499 0265 30       		.uleb128 0x30
 5500 0266 34       		.uleb128 0x34
 5501 0267 00       		.byte	0
 5502 0268 03       		.uleb128 0x3
 5503 0269 0E       		.uleb128 0xe
 5504 026a 3A       		.uleb128 0x3a
 5505 026b 0B       		.uleb128 0xb
 5506 026c 3B       		.uleb128 0x3b
 5507 026d 0B       		.uleb128 0xb
 5508 026e 49       		.uleb128 0x49
 5509 026f 13       		.uleb128 0x13
 5510 0270 02       		.uleb128 0x2
 5511 0271 17       		.uleb128 0x17
 5512 0272 00       		.byte	0
 5513 0273 00       		.byte	0
 5514 0274 31       		.uleb128 0x31
 5515 0275 1D       		.uleb128 0x1d
 5516 0276 01       		.byte	0x1
 5517 0277 31       		.uleb128 0x31
 5518 0278 13       		.uleb128 0x13
 5519 0279 52       		.uleb128 0x52
 5520 027a 01       		.uleb128 0x1
 5521 027b 55       		.uleb128 0x55
 5522 027c 17       		.uleb128 0x17
 5523 027d 58       		.uleb128 0x58
 5524 027e 0B       		.uleb128 0xb
 5525 027f 59       		.uleb128 0x59
ARM GAS  C:\Users\pearlstl\AppData\Local\Temp\ccllHTLf.s 			page 113


 5526 0280 0B       		.uleb128 0xb
 5527 0281 01       		.uleb128 0x1
 5528 0282 13       		.uleb128 0x13
 5529 0283 00       		.byte	0
 5530 0284 00       		.byte	0
 5531 0285 32       		.uleb128 0x32
 5532 0286 34       		.uleb128 0x34
 5533 0287 00       		.byte	0
 5534 0288 31       		.uleb128 0x31
 5535 0289 13       		.uleb128 0x13
 5536 028a 00       		.byte	0
 5537 028b 00       		.byte	0
 5538 028c 33       		.uleb128 0x33
 5539 028d 8A8201   		.uleb128 0x410a
 5540 0290 00       		.byte	0
 5541 0291 31       		.uleb128 0x31
 5542 0292 13       		.uleb128 0x13
 5543 0293 9142     		.uleb128 0x2111
 5544 0295 18       		.uleb128 0x18
 5545 0296 00       		.byte	0
 5546 0297 00       		.byte	0
 5547 0298 34       		.uleb128 0x34
 5548 0299 34       		.uleb128 0x34
 5549 029a 00       		.byte	0
 5550 029b 03       		.uleb128 0x3
 5551 029c 08       		.uleb128 0x8
 5552 029d 3A       		.uleb128 0x3a
 5553 029e 0B       		.uleb128 0xb
 5554 029f 3B       		.uleb128 0x3b
 5555 02a0 0B       		.uleb128 0xb
 5556 02a1 49       		.uleb128 0x49
 5557 02a2 13       		.uleb128 0x13
 5558 02a3 02       		.uleb128 0x2
 5559 02a4 18       		.uleb128 0x18
 5560 02a5 00       		.byte	0
 5561 02a6 00       		.byte	0
 5562 02a7 35       		.uleb128 0x35
 5563 02a8 1D       		.uleb128 0x1d
 5564 02a9 01       		.byte	0x1
 5565 02aa 31       		.uleb128 0x31
 5566 02ab 13       		.uleb128 0x13
 5567 02ac 52       		.uleb128 0x52
 5568 02ad 01       		.uleb128 0x1
 5569 02ae 55       		.uleb128 0x55
 5570 02af 17       		.uleb128 0x17
 5571 02b0 58       		.uleb128 0x58
 5572 02b1 0B       		.uleb128 0xb
 5573 02b2 59       		.uleb128 0x59
 5574 02b3 05       		.uleb128 0x5
 5575 02b4 01       		.uleb128 0x1
 5576 02b5 13       		.uleb128 0x13
 5577 02b6 00       		.byte	0
 5578 02b7 00       		.byte	0
 5579 02b8 36       		.uleb128 0x36
 5580 02b9 1D       		.uleb128 0x1d
 5581 02ba 01       		.byte	0x1
 5582 02bb 31       		.uleb128 0x31
ARM GAS  C:\Users\pearlstl\AppData\Local\Temp\ccllHTLf.s 			page 114


 5583 02bc 13       		.uleb128 0x13
 5584 02bd 52       		.uleb128 0x52
 5585 02be 01       		.uleb128 0x1
 5586 02bf 55       		.uleb128 0x55
 5587 02c0 17       		.uleb128 0x17
 5588 02c1 58       		.uleb128 0x58
 5589 02c2 0B       		.uleb128 0xb
 5590 02c3 59       		.uleb128 0x59
 5591 02c4 05       		.uleb128 0x5
 5592 02c5 00       		.byte	0
 5593 02c6 00       		.byte	0
 5594 02c7 37       		.uleb128 0x37
 5595 02c8 1D       		.uleb128 0x1d
 5596 02c9 01       		.byte	0x1
 5597 02ca 31       		.uleb128 0x31
 5598 02cb 13       		.uleb128 0x13
 5599 02cc 11       		.uleb128 0x11
 5600 02cd 01       		.uleb128 0x1
 5601 02ce 12       		.uleb128 0x12
 5602 02cf 06       		.uleb128 0x6
 5603 02d0 58       		.uleb128 0x58
 5604 02d1 0B       		.uleb128 0xb
 5605 02d2 59       		.uleb128 0x59
 5606 02d3 05       		.uleb128 0x5
 5607 02d4 01       		.uleb128 0x1
 5608 02d5 13       		.uleb128 0x13
 5609 02d6 00       		.byte	0
 5610 02d7 00       		.byte	0
 5611 02d8 38       		.uleb128 0x38
 5612 02d9 898201   		.uleb128 0x4109
 5613 02dc 00       		.byte	0
 5614 02dd 11       		.uleb128 0x11
 5615 02de 01       		.uleb128 0x1
 5616 02df 31       		.uleb128 0x31
 5617 02e0 13       		.uleb128 0x13
 5618 02e1 00       		.byte	0
 5619 02e2 00       		.byte	0
 5620 02e3 39       		.uleb128 0x39
 5621 02e4 34       		.uleb128 0x34
 5622 02e5 00       		.byte	0
 5623 02e6 03       		.uleb128 0x3
 5624 02e7 08       		.uleb128 0x8
 5625 02e8 3A       		.uleb128 0x3a
 5626 02e9 0B       		.uleb128 0xb
 5627 02ea 3B       		.uleb128 0x3b
 5628 02eb 0B       		.uleb128 0xb
 5629 02ec 49       		.uleb128 0x49
 5630 02ed 13       		.uleb128 0x13
 5631 02ee 02       		.uleb128 0x2
 5632 02ef 17       		.uleb128 0x17
 5633 02f0 00       		.byte	0
 5634 02f1 00       		.byte	0
 5635 02f2 3A       		.uleb128 0x3a
 5636 02f3 1D       		.uleb128 0x1d
 5637 02f4 01       		.byte	0x1
 5638 02f5 31       		.uleb128 0x31
 5639 02f6 13       		.uleb128 0x13
ARM GAS  C:\Users\pearlstl\AppData\Local\Temp\ccllHTLf.s 			page 115


 5640 02f7 52       		.uleb128 0x52
 5641 02f8 01       		.uleb128 0x1
 5642 02f9 55       		.uleb128 0x55
 5643 02fa 17       		.uleb128 0x17
 5644 02fb 58       		.uleb128 0x58
 5645 02fc 0B       		.uleb128 0xb
 5646 02fd 59       		.uleb128 0x59
 5647 02fe 0B       		.uleb128 0xb
 5648 02ff 00       		.byte	0
 5649 0300 00       		.byte	0
 5650 0301 3B       		.uleb128 0x3b
 5651 0302 0B       		.uleb128 0xb
 5652 0303 01       		.byte	0x1
 5653 0304 55       		.uleb128 0x55
 5654 0305 17       		.uleb128 0x17
 5655 0306 01       		.uleb128 0x1
 5656 0307 13       		.uleb128 0x13
 5657 0308 00       		.byte	0
 5658 0309 00       		.byte	0
 5659 030a 3C       		.uleb128 0x3c
 5660 030b 34       		.uleb128 0x34
 5661 030c 00       		.byte	0
 5662 030d 03       		.uleb128 0x3
 5663 030e 0E       		.uleb128 0xe
 5664 030f 3A       		.uleb128 0x3a
 5665 0310 0B       		.uleb128 0xb
 5666 0311 3B       		.uleb128 0x3b
 5667 0312 0B       		.uleb128 0xb
 5668 0313 49       		.uleb128 0x49
 5669 0314 13       		.uleb128 0x13
 5670 0315 02       		.uleb128 0x2
 5671 0316 18       		.uleb128 0x18
 5672 0317 00       		.byte	0
 5673 0318 00       		.byte	0
 5674 0319 3D       		.uleb128 0x3d
 5675 031a 2E       		.uleb128 0x2e
 5676 031b 00       		.byte	0
 5677 031c 3F       		.uleb128 0x3f
 5678 031d 19       		.uleb128 0x19
 5679 031e 3C       		.uleb128 0x3c
 5680 031f 19       		.uleb128 0x19
 5681 0320 6E       		.uleb128 0x6e
 5682 0321 0E       		.uleb128 0xe
 5683 0322 03       		.uleb128 0x3
 5684 0323 0E       		.uleb128 0xe
 5685 0324 3A       		.uleb128 0x3a
 5686 0325 0B       		.uleb128 0xb
 5687 0326 3B       		.uleb128 0x3b
 5688 0327 0B       		.uleb128 0xb
 5689 0328 00       		.byte	0
 5690 0329 00       		.byte	0
 5691 032a 00       		.byte	0
 5692              		.section	.debug_loc,"",%progbits
 5693              	.Ldebug_loc0:
 5694              	.LLST0:
 5695 0000 00000000 		.4byte	.LVL0
 5696 0004 0C000000 		.4byte	.LVL1
ARM GAS  C:\Users\pearlstl\AppData\Local\Temp\ccllHTLf.s 			page 116


 5697 0008 0100     		.2byte	0x1
 5698 000a 50       		.byte	0x50
 5699 000b 0C000000 		.4byte	.LVL1
 5700 000f 12000000 		.4byte	.LFE35
 5701 0013 0400     		.2byte	0x4
 5702 0015 F3       		.byte	0xf3
 5703 0016 01       		.uleb128 0x1
 5704 0017 50       		.byte	0x50
 5705 0018 9F       		.byte	0x9f
 5706 0019 00000000 		.4byte	0
 5707 001d 00000000 		.4byte	0
 5708              	.LLST1:
 5709 0021 00000000 		.4byte	.LVL0
 5710 0025 0C000000 		.4byte	.LVL1
 5711 0029 0100     		.2byte	0x1
 5712 002b 50       		.byte	0x50
 5713 002c 0C000000 		.4byte	.LVL1
 5714 0030 12000000 		.4byte	.LFE35
 5715 0034 0400     		.2byte	0x4
 5716 0036 F3       		.byte	0xf3
 5717 0037 01       		.uleb128 0x1
 5718 0038 50       		.byte	0x50
 5719 0039 9F       		.byte	0x9f
 5720 003a 00000000 		.4byte	0
 5721 003e 00000000 		.4byte	0
 5722              	.LLST2:
 5723 0042 00000000 		.4byte	.LVL2
 5724 0046 0C000000 		.4byte	.LVL3
 5725 004a 0100     		.2byte	0x1
 5726 004c 50       		.byte	0x50
 5727 004d 0C000000 		.4byte	.LVL3
 5728 0051 12000000 		.4byte	.LFE36
 5729 0055 0400     		.2byte	0x4
 5730 0057 F3       		.byte	0xf3
 5731 0058 01       		.uleb128 0x1
 5732 0059 50       		.byte	0x50
 5733 005a 9F       		.byte	0x9f
 5734 005b 00000000 		.4byte	0
 5735 005f 00000000 		.4byte	0
 5736              	.LLST3:
 5737 0063 00000000 		.4byte	.LVL2
 5738 0067 0C000000 		.4byte	.LVL3
 5739 006b 0100     		.2byte	0x1
 5740 006d 50       		.byte	0x50
 5741 006e 0C000000 		.4byte	.LVL3
 5742 0072 12000000 		.4byte	.LFE36
 5743 0076 0400     		.2byte	0x4
 5744 0078 F3       		.byte	0xf3
 5745 0079 01       		.uleb128 0x1
 5746 007a 50       		.byte	0x50
 5747 007b 9F       		.byte	0x9f
 5748 007c 00000000 		.4byte	0
 5749 0080 00000000 		.4byte	0
 5750              	.LLST4:
 5751 0084 00000000 		.4byte	.LVL4
 5752 0088 02000000 		.4byte	.LVL5
 5753 008c 0100     		.2byte	0x1
ARM GAS  C:\Users\pearlstl\AppData\Local\Temp\ccllHTLf.s 			page 117


 5754 008e 50       		.byte	0x50
 5755 008f 02000000 		.4byte	.LVL5
 5756 0093 08000000 		.4byte	.LFE43
 5757 0097 0400     		.2byte	0x4
 5758 0099 F3       		.byte	0xf3
 5759 009a 01       		.uleb128 0x1
 5760 009b 50       		.byte	0x50
 5761 009c 9F       		.byte	0x9f
 5762 009d 00000000 		.4byte	0
 5763 00a1 00000000 		.4byte	0
 5764              	.LLST5:
 5765 00a5 00000000 		.4byte	.LVL6
 5766 00a9 30000000 		.4byte	.LVL11
 5767 00ad 0100     		.2byte	0x1
 5768 00af 51       		.byte	0x51
 5769 00b0 30000000 		.4byte	.LVL11
 5770 00b4 34000000 		.4byte	.LVL12
 5771 00b8 0100     		.2byte	0x1
 5772 00ba 54       		.byte	0x54
 5773 00bb 34000000 		.4byte	.LVL12
 5774 00bf 38000000 		.4byte	.LVL13
 5775 00c3 0400     		.2byte	0x4
 5776 00c5 F3       		.byte	0xf3
 5777 00c6 01       		.uleb128 0x1
 5778 00c7 51       		.byte	0x51
 5779 00c8 9F       		.byte	0x9f
 5780 00c9 38000000 		.4byte	.LVL13
 5781 00cd 72000000 		.4byte	.LVL19
 5782 00d1 0100     		.2byte	0x1
 5783 00d3 51       		.byte	0x51
 5784 00d4 72000000 		.4byte	.LVL19
 5785 00d8 76000000 		.4byte	.LVL20
 5786 00dc 0100     		.2byte	0x1
 5787 00de 54       		.byte	0x54
 5788 00df 76000000 		.4byte	.LVL20
 5789 00e3 7E000000 		.4byte	.LVL22
 5790 00e7 0100     		.2byte	0x1
 5791 00e9 51       		.byte	0x51
 5792 00ea 7E000000 		.4byte	.LVL22
 5793 00ee 86000000 		.4byte	.LVL25
 5794 00f2 0100     		.2byte	0x1
 5795 00f4 54       		.byte	0x54
 5796 00f5 86000000 		.4byte	.LVL25
 5797 00f9 94000000 		.4byte	.LVL27
 5798 00fd 0100     		.2byte	0x1
 5799 00ff 51       		.byte	0x51
 5800 0100 94000000 		.4byte	.LVL27
 5801 0104 B6000000 		.4byte	.LVL32
 5802 0108 0100     		.2byte	0x1
 5803 010a 54       		.byte	0x54
 5804 010b B6000000 		.4byte	.LVL32
 5805 010f BA000000 		.4byte	.LVL33
 5806 0113 0100     		.2byte	0x1
 5807 0115 51       		.byte	0x51
 5808 0116 BA000000 		.4byte	.LVL33
 5809 011a DC000000 		.4byte	.LFE45
 5810 011e 0100     		.2byte	0x1
ARM GAS  C:\Users\pearlstl\AppData\Local\Temp\ccllHTLf.s 			page 118


 5811 0120 54       		.byte	0x54
 5812 0121 00000000 		.4byte	0
 5813 0125 00000000 		.4byte	0
 5814              	.LLST6:
 5815 0129 0C000000 		.4byte	.LVL8
 5816 012d 2C000000 		.4byte	.LVL10
 5817 0131 0200     		.2byte	0x2
 5818 0133 30       		.byte	0x30
 5819 0134 9F       		.byte	0x9f
 5820 0135 38000000 		.4byte	.LVL13
 5821 0139 3A000000 		.4byte	.LVL14
 5822 013d 0200     		.2byte	0x2
 5823 013f 30       		.byte	0x30
 5824 0140 9F       		.byte	0x9f
 5825 0141 3A000000 		.4byte	.LVL14
 5826 0145 3C000000 		.4byte	.LVL15
 5827 0149 0100     		.2byte	0x1
 5828 014b 53       		.byte	0x53
 5829 014c 3E000000 		.4byte	.LVL16
 5830 0150 62000000 		.4byte	.LVL18
 5831 0154 0100     		.2byte	0x1
 5832 0156 53       		.byte	0x53
 5833 0157 00000000 		.4byte	0
 5834 015b 00000000 		.4byte	0
 5835              	.LLST7:
 5836 015f 24000000 		.4byte	.LVL9
 5837 0163 30000000 		.4byte	.LVL11
 5838 0167 0200     		.2byte	0x2
 5839 0169 30       		.byte	0x30
 5840 016a 9F       		.byte	0x9f
 5841 016b 30000000 		.4byte	.LVL11
 5842 016f 34000000 		.4byte	.LVL12
 5843 0173 0100     		.2byte	0x1
 5844 0175 50       		.byte	0x50
 5845 0176 60000000 		.4byte	.LVL17
 5846 017a 76000000 		.4byte	.LVL20
 5847 017e 0200     		.2byte	0x2
 5848 0180 30       		.byte	0x30
 5849 0181 9F       		.byte	0x9f
 5850 0182 7C000000 		.4byte	.LVL21
 5851 0186 84000000 		.4byte	.LVL24
 5852 018a 0200     		.2byte	0x2
 5853 018c 30       		.byte	0x30
 5854 018d 9F       		.byte	0x9f
 5855 018e 84000000 		.4byte	.LVL24
 5856 0192 86000000 		.4byte	.LVL25
 5857 0196 0100     		.2byte	0x1
 5858 0198 50       		.byte	0x50
 5859 0199 8E000000 		.4byte	.LVL26
 5860 019d B4000000 		.4byte	.LVL31
 5861 01a1 0200     		.2byte	0x2
 5862 01a3 30       		.byte	0x30
 5863 01a4 9F       		.byte	0x9f
 5864 01a5 B4000000 		.4byte	.LVL31
 5865 01a9 B6000000 		.4byte	.LVL32
 5866 01ad 0100     		.2byte	0x1
 5867 01af 50       		.byte	0x50
ARM GAS  C:\Users\pearlstl\AppData\Local\Temp\ccllHTLf.s 			page 119


 5868 01b0 B6000000 		.4byte	.LVL32
 5869 01b4 D6000000 		.4byte	.LVL36
 5870 01b8 0200     		.2byte	0x2
 5871 01ba 30       		.byte	0x30
 5872 01bb 9F       		.byte	0x9f
 5873 01bc D6000000 		.4byte	.LVL36
 5874 01c0 DC000000 		.4byte	.LFE45
 5875 01c4 0100     		.2byte	0x1
 5876 01c6 50       		.byte	0x50
 5877 01c7 00000000 		.4byte	0
 5878 01cb 00000000 		.4byte	0
 5879              	.LLST8:
 5880 01cf 7C000000 		.4byte	.LVL21
 5881 01d3 82000000 		.4byte	.LVL23
 5882 01d7 0200     		.2byte	0x2
 5883 01d9 70       		.byte	0x70
 5884 01da 0C       		.sleb128 12
 5885 01db 82000000 		.4byte	.LVL23
 5886 01df 86000000 		.4byte	.LVL25
 5887 01e3 0100     		.2byte	0x1
 5888 01e5 51       		.byte	0x51
 5889 01e6 00000000 		.4byte	0
 5890 01ea 00000000 		.4byte	0
 5891              	.LLST9:
 5892 01ee 9E000000 		.4byte	.LVL28
 5893 01f2 AE000000 		.4byte	.LVL29
 5894 01f6 0100     		.2byte	0x1
 5895 01f8 50       		.byte	0x50
 5896 01f9 00000000 		.4byte	0
 5897 01fd 00000000 		.4byte	0
 5898              	.LLST10:
 5899 0201 AE000000 		.4byte	.LVL29
 5900 0205 B0000000 		.4byte	.LVL30
 5901 0209 0500     		.2byte	0x5
 5902 020b 70       		.byte	0x70
 5903 020c 00       		.sleb128 0
 5904 020d 31       		.byte	0x31
 5905 020e 25       		.byte	0x25
 5906 020f 9F       		.byte	0x9f
 5907 0210 B0000000 		.4byte	.LVL30
 5908 0214 B4000000 		.4byte	.LVL31
 5909 0218 0100     		.2byte	0x1
 5910 021a 50       		.byte	0x50
 5911 021b 00000000 		.4byte	0
 5912 021f 00000000 		.4byte	0
 5913              	.LLST11:
 5914 0223 AE000000 		.4byte	.LVL29
 5915 0227 B6000000 		.4byte	.LVL32
 5916 022b 0200     		.2byte	0x2
 5917 022d 77       		.byte	0x77
 5918 022e 0C       		.sleb128 12
 5919 022f 00000000 		.4byte	0
 5920 0233 00000000 		.4byte	0
 5921              	.LLST12:
 5922 0237 C4000000 		.4byte	.LVL34
 5923 023b D2000000 		.4byte	.LVL35
 5924 023f 0100     		.2byte	0x1
ARM GAS  C:\Users\pearlstl\AppData\Local\Temp\ccllHTLf.s 			page 120


 5925 0241 50       		.byte	0x50
 5926 0242 00000000 		.4byte	0
 5927 0246 00000000 		.4byte	0
 5928              	.LLST13:
 5929 024a D2000000 		.4byte	.LVL35
 5930 024e D6000000 		.4byte	.LVL36
 5931 0252 0500     		.2byte	0x5
 5932 0254 70       		.byte	0x70
 5933 0255 00       		.sleb128 0
 5934 0256 31       		.byte	0x31
 5935 0257 25       		.byte	0x25
 5936 0258 9F       		.byte	0x9f
 5937 0259 00000000 		.4byte	0
 5938 025d 00000000 		.4byte	0
 5939              	.LLST14:
 5940 0261 00000000 		.4byte	.LVL37
 5941 0265 04000000 		.4byte	.LVL38
 5942 0269 0100     		.2byte	0x1
 5943 026b 50       		.byte	0x50
 5944 026c 04000000 		.4byte	.LVL38
 5945 0270 06000000 		.4byte	.LVL39
 5946 0274 0400     		.2byte	0x4
 5947 0276 F3       		.byte	0xf3
 5948 0277 01       		.uleb128 0x1
 5949 0278 50       		.byte	0x50
 5950 0279 9F       		.byte	0x9f
 5951 027a 06000000 		.4byte	.LVL39
 5952 027e 0E000000 		.4byte	.LVL40
 5953 0282 0100     		.2byte	0x1
 5954 0284 50       		.byte	0x50
 5955 0285 0E000000 		.4byte	.LVL40
 5956 0289 13000000 		.4byte	.LVL41-1
 5957 028d 0300     		.2byte	0x3
 5958 028f 70       		.byte	0x70
 5959 0290 74       		.sleb128 -12
 5960 0291 9F       		.byte	0x9f
 5961 0292 13000000 		.4byte	.LVL41-1
 5962 0296 A0070000 		.4byte	.LFE31
 5963 029a 0400     		.2byte	0x4
 5964 029c F3       		.byte	0xf3
 5965 029d 01       		.uleb128 0x1
 5966 029e 50       		.byte	0x50
 5967 029f 9F       		.byte	0x9f
 5968 02a0 00000000 		.4byte	0
 5969 02a4 00000000 		.4byte	0
 5970              	.LLST15:
 5971 02a8 00000000 		.4byte	.LVL37
 5972 02ac 13000000 		.4byte	.LVL41-1
 5973 02b0 0100     		.2byte	0x1
 5974 02b2 51       		.byte	0x51
 5975 02b3 13000000 		.4byte	.LVL41-1
 5976 02b7 A0070000 		.4byte	.LFE31
 5977 02bb 0400     		.2byte	0x4
 5978 02bd F3       		.byte	0xf3
 5979 02be 01       		.uleb128 0x1
 5980 02bf 51       		.byte	0x51
 5981 02c0 9F       		.byte	0x9f
ARM GAS  C:\Users\pearlstl\AppData\Local\Temp\ccllHTLf.s 			page 121


 5982 02c1 00000000 		.4byte	0
 5983 02c5 00000000 		.4byte	0
 5984              	.LLST16:
 5985 02c9 00000000 		.4byte	.LVL37
 5986 02cd 04000000 		.4byte	.LVL38
 5987 02d1 0200     		.2byte	0x2
 5988 02d3 70       		.byte	0x70
 5989 02d4 0C       		.sleb128 12
 5990 02d5 04000000 		.4byte	.LVL38
 5991 02d9 06000000 		.4byte	.LVL39
 5992 02dd 0500     		.2byte	0x5
 5993 02df F3       		.byte	0xf3
 5994 02e0 01       		.uleb128 0x1
 5995 02e1 50       		.byte	0x50
 5996 02e2 23       		.byte	0x23
 5997 02e3 0C       		.uleb128 0xc
 5998 02e4 06000000 		.4byte	.LVL39
 5999 02e8 0E000000 		.4byte	.LVL40
 6000 02ec 0200     		.2byte	0x2
 6001 02ee 70       		.byte	0x70
 6002 02ef 0C       		.sleb128 12
 6003 02f0 0E000000 		.4byte	.LVL40
 6004 02f4 13000000 		.4byte	.LVL41-1
 6005 02f8 0200     		.2byte	0x2
 6006 02fa 70       		.byte	0x70
 6007 02fb 00       		.sleb128 0
 6008 02fc 00000000 		.4byte	0
 6009 0300 00000000 		.4byte	0
 6010              	.LLST17:
 6011 0304 28000000 		.4byte	.LVL42
 6012 0308 3C000000 		.4byte	.LVL43
 6013 030c 0100     		.2byte	0x1
 6014 030e 55       		.byte	0x55
 6015 030f 42000000 		.4byte	.LVL44
 6016 0313 AE000000 		.4byte	.LVL52
 6017 0317 0100     		.2byte	0x1
 6018 0319 55       		.byte	0x55
 6019 031a C6020000 		.4byte	.LVL101
 6020 031e E2020000 		.4byte	.LVL107
 6021 0322 0100     		.2byte	0x1
 6022 0324 55       		.byte	0x55
 6023 0325 00000000 		.4byte	0
 6024 0329 00000000 		.4byte	0
 6025              	.LLST18:
 6026 032d 00000000 		.4byte	.LVL37
 6027 0331 04000000 		.4byte	.LVL38
 6028 0335 0100     		.2byte	0x1
 6029 0337 50       		.byte	0x50
 6030 0338 04000000 		.4byte	.LVL38
 6031 033c 06000000 		.4byte	.LVL39
 6032 0340 0400     		.2byte	0x4
 6033 0342 F3       		.byte	0xf3
 6034 0343 01       		.uleb128 0x1
 6035 0344 50       		.byte	0x50
 6036 0345 9F       		.byte	0x9f
 6037 0346 06000000 		.4byte	.LVL39
 6038 034a 0E000000 		.4byte	.LVL40
ARM GAS  C:\Users\pearlstl\AppData\Local\Temp\ccllHTLf.s 			page 122


 6039 034e 0100     		.2byte	0x1
 6040 0350 50       		.byte	0x50
 6041 0351 0E000000 		.4byte	.LVL40
 6042 0355 13000000 		.4byte	.LVL41-1
 6043 0359 0300     		.2byte	0x3
 6044 035b 70       		.byte	0x70
 6045 035c 74       		.sleb128 -12
 6046 035d 9F       		.byte	0x9f
 6047 035e 13000000 		.4byte	.LVL41-1
 6048 0362 A0070000 		.4byte	.LFE31
 6049 0366 0400     		.2byte	0x4
 6050 0368 F3       		.byte	0xf3
 6051 0369 01       		.uleb128 0x1
 6052 036a 50       		.byte	0x50
 6053 036b 9F       		.byte	0x9f
 6054 036c 00000000 		.4byte	0
 6055 0370 00000000 		.4byte	0
 6056              	.LLST19:
 6057 0374 00000000 		.4byte	.LVL37
 6058 0378 13000000 		.4byte	.LVL41-1
 6059 037c 0100     		.2byte	0x1
 6060 037e 51       		.byte	0x51
 6061 037f 13000000 		.4byte	.LVL41-1
 6062 0383 14000000 		.4byte	.LVL41
 6063 0387 0400     		.2byte	0x4
 6064 0389 F3       		.byte	0xf3
 6065 038a 01       		.uleb128 0x1
 6066 038b 51       		.byte	0x51
 6067 038c 9F       		.byte	0x9f
 6068 038d 00000000 		.4byte	0
 6069 0391 00000000 		.4byte	0
 6070              	.LLST20:
 6071 0395 4A000000 		.4byte	.LVL45
 6072 0399 68000000 		.4byte	.LVL47
 6073 039d 0100     		.2byte	0x1
 6074 039f 56       		.byte	0x56
 6075 03a0 68000000 		.4byte	.LVL47
 6076 03a4 6F000000 		.4byte	.LVL48-1
 6077 03a8 1000     		.2byte	0x10
 6078 03aa 75       		.byte	0x75
 6079 03ab 04       		.sleb128 4
 6080 03ac 94       		.byte	0x94
 6081 03ad 01       		.byte	0x1
 6082 03ae 08       		.byte	0x8
 6083 03af FF       		.byte	0xff
 6084 03b0 1A       		.byte	0x1a
 6085 03b1 75       		.byte	0x75
 6086 03b2 05       		.sleb128 5
 6087 03b3 94       		.byte	0x94
 6088 03b4 01       		.byte	0x1
 6089 03b5 08       		.byte	0x8
 6090 03b6 FF       		.byte	0xff
 6091 03b7 1A       		.byte	0x1a
 6092 03b8 1E       		.byte	0x1e
 6093 03b9 9F       		.byte	0x9f
 6094 03ba DA020000 		.4byte	.LVL103
 6095 03be DC020000 		.4byte	.LVL104
ARM GAS  C:\Users\pearlstl\AppData\Local\Temp\ccllHTLf.s 			page 123


 6096 03c2 0100     		.2byte	0x1
 6097 03c4 56       		.byte	0x56
 6098 03c5 DC020000 		.4byte	.LVL104
 6099 03c9 DE020000 		.4byte	.LVL105
 6100 03cd 1000     		.2byte	0x10
 6101 03cf 75       		.byte	0x75
 6102 03d0 04       		.sleb128 4
 6103 03d1 94       		.byte	0x94
 6104 03d2 01       		.byte	0x1
 6105 03d3 08       		.byte	0x8
 6106 03d4 FF       		.byte	0xff
 6107 03d5 1A       		.byte	0x1a
 6108 03d6 75       		.byte	0x75
 6109 03d7 05       		.sleb128 5
 6110 03d8 94       		.byte	0x94
 6111 03d9 01       		.byte	0x1
 6112 03da 08       		.byte	0x8
 6113 03db FF       		.byte	0xff
 6114 03dc 1A       		.byte	0x1a
 6115 03dd 1E       		.byte	0x1e
 6116 03de 9F       		.byte	0x9f
 6117 03df DE020000 		.4byte	.LVL105
 6118 03e3 E0020000 		.4byte	.LVL106
 6119 03e7 0100     		.2byte	0x1
 6120 03e9 56       		.byte	0x56
 6121 03ea E0020000 		.4byte	.LVL106
 6122 03ee E2020000 		.4byte	.LVL107
 6123 03f2 1000     		.2byte	0x10
 6124 03f4 75       		.byte	0x75
 6125 03f5 04       		.sleb128 4
 6126 03f6 94       		.byte	0x94
 6127 03f7 01       		.byte	0x1
 6128 03f8 08       		.byte	0x8
 6129 03f9 FF       		.byte	0xff
 6130 03fa 1A       		.byte	0x1a
 6131 03fb 75       		.byte	0x75
 6132 03fc 05       		.sleb128 5
 6133 03fd 94       		.byte	0x94
 6134 03fe 01       		.byte	0x1
 6135 03ff 08       		.byte	0x8
 6136 0400 FF       		.byte	0xff
 6137 0401 1A       		.byte	0x1a
 6138 0402 1E       		.byte	0x1e
 6139 0403 9F       		.byte	0x9f
 6140 0404 00000000 		.4byte	0
 6141 0408 00000000 		.4byte	0
 6142              	.LLST21:
 6143 040c 50000000 		.4byte	.LVL46
 6144 0410 88000000 		.4byte	.LVL49
 6145 0414 0100     		.2byte	0x1
 6146 0416 56       		.byte	0x56
 6147 0417 C6020000 		.4byte	.LVL101
 6148 041b E2020000 		.4byte	.LVL107
 6149 041f 0100     		.2byte	0x1
 6150 0421 56       		.byte	0x56
 6151 0422 00000000 		.4byte	0
 6152 0426 00000000 		.4byte	0
ARM GAS  C:\Users\pearlstl\AppData\Local\Temp\ccllHTLf.s 			page 124


 6153              	.LLST22:
 6154 042a A0000000 		.4byte	.LVL51
 6155 042e C9000000 		.4byte	.LVL57-1
 6156 0432 0100     		.2byte	0x1
 6157 0434 52       		.byte	0x52
 6158 0435 C9000000 		.4byte	.LVL57-1
 6159 0439 2A010000 		.4byte	.LVL63
 6160 043d 0100     		.2byte	0x1
 6161 043f 59       		.byte	0x59
 6162 0440 2A010000 		.4byte	.LVL63
 6163 0444 C6020000 		.4byte	.LVL101
 6164 0448 0300     		.2byte	0x3
 6165 044a 91       		.byte	0x91
 6166 044b A07F     		.sleb128 -96
 6167 044d E2020000 		.4byte	.LVL107
 6168 0451 1E030000 		.4byte	.LVL116
 6169 0455 0300     		.2byte	0x3
 6170 0457 91       		.byte	0x91
 6171 0458 A07F     		.sleb128 -96
 6172 045a 22030000 		.4byte	.LVL117
 6173 045e 58030000 		.4byte	.LVL124
 6174 0462 0300     		.2byte	0x3
 6175 0464 91       		.byte	0x91
 6176 0465 A07F     		.sleb128 -96
 6177 0467 58030000 		.4byte	.LVL124
 6178 046b 5C030000 		.4byte	.LVL125
 6179 046f 0100     		.2byte	0x1
 6180 0471 59       		.byte	0x59
 6181 0472 C6060000 		.4byte	.LVL195
 6182 0476 CC060000 		.4byte	.LVL196
 6183 047a 0300     		.2byte	0x3
 6184 047c 91       		.byte	0x91
 6185 047d A07F     		.sleb128 -96
 6186 047f D2060000 		.4byte	.LVL197
 6187 0483 A0070000 		.4byte	.LFE31
 6188 0487 0300     		.2byte	0x3
 6189 0489 91       		.byte	0x91
 6190 048a A07F     		.sleb128 -96
 6191 048c 00000000 		.4byte	0
 6192 0490 00000000 		.4byte	0
 6193              	.LLST23:
 6194 0494 A0000000 		.4byte	.LVL51
 6195 0498 C6020000 		.4byte	.LVL101
 6196 049c 0300     		.2byte	0x3
 6197 049e 91       		.byte	0x91
 6198 049f B87F     		.sleb128 -72
 6199 04a1 E2020000 		.4byte	.LVL107
 6200 04a5 1E030000 		.4byte	.LVL116
 6201 04a9 0300     		.2byte	0x3
 6202 04ab 91       		.byte	0x91
 6203 04ac B87F     		.sleb128 -72
 6204 04ae 22030000 		.4byte	.LVL117
 6205 04b2 30060000 		.4byte	.LVL175
 6206 04b6 0300     		.2byte	0x3
 6207 04b8 91       		.byte	0x91
 6208 04b9 B87F     		.sleb128 -72
 6209 04bb 3A060000 		.4byte	.LVL176
ARM GAS  C:\Users\pearlstl\AppData\Local\Temp\ccllHTLf.s 			page 125


 6210 04bf A0070000 		.4byte	.LFE31
 6211 04c3 0300     		.2byte	0x3
 6212 04c5 91       		.byte	0x91
 6213 04c6 B87F     		.sleb128 -72
 6214 04c8 00000000 		.4byte	0
 6215 04cc 00000000 		.4byte	0
 6216              	.LLST24:
 6217 04d0 A0000000 		.4byte	.LVL51
 6218 04d4 B4000000 		.4byte	.LVL54
 6219 04d8 0100     		.2byte	0x1
 6220 04da 50       		.byte	0x50
 6221 04db B4000000 		.4byte	.LVL54
 6222 04df 02010000 		.4byte	.LVL61
 6223 04e3 0100     		.2byte	0x1
 6224 04e5 55       		.byte	0x55
 6225 04e6 02010000 		.4byte	.LVL61
 6226 04ea C6020000 		.4byte	.LVL101
 6227 04ee 0300     		.2byte	0x3
 6228 04f0 91       		.byte	0x91
 6229 04f1 BC7F     		.sleb128 -68
 6230 04f3 E2020000 		.4byte	.LVL107
 6231 04f7 1E030000 		.4byte	.LVL116
 6232 04fb 0300     		.2byte	0x3
 6233 04fd 91       		.byte	0x91
 6234 04fe BC7F     		.sleb128 -68
 6235 0500 22030000 		.4byte	.LVL117
 6236 0504 58030000 		.4byte	.LVL124
 6237 0508 0300     		.2byte	0x3
 6238 050a 91       		.byte	0x91
 6239 050b BC7F     		.sleb128 -68
 6240 050d 58030000 		.4byte	.LVL124
 6241 0511 5C030000 		.4byte	.LVL125
 6242 0515 0100     		.2byte	0x1
 6243 0517 55       		.byte	0x55
 6244 0518 5C030000 		.4byte	.LVL125
 6245 051c 30060000 		.4byte	.LVL175
 6246 0520 0300     		.2byte	0x3
 6247 0522 91       		.byte	0x91
 6248 0523 BC7F     		.sleb128 -68
 6249 0525 3A060000 		.4byte	.LVL176
 6250 0529 A0070000 		.4byte	.LFE31
 6251 052d 0300     		.2byte	0x3
 6252 052f 91       		.byte	0x91
 6253 0530 BC7F     		.sleb128 -68
 6254 0532 00000000 		.4byte	0
 6255 0536 00000000 		.4byte	0
 6256              	.LLST25:
 6257 053a 9E000000 		.4byte	.LVL50
 6258 053e C9000000 		.4byte	.LVL57-1
 6259 0542 0500     		.2byte	0x5
 6260 0544 03       		.byte	0x3
 6261 0545 00000000 		.4byte	buf.6209
 6262 0549 00000000 		.4byte	0
 6263 054d 00000000 		.4byte	0
 6264              	.LLST26:
 6265 0551 9E000000 		.4byte	.LVL50
 6266 0555 B0000000 		.4byte	.LVL53
ARM GAS  C:\Users\pearlstl\AppData\Local\Temp\ccllHTLf.s 			page 126


 6267 0559 0100     		.2byte	0x1
 6268 055b 53       		.byte	0x53
 6269 055c B0000000 		.4byte	.LVL53
 6270 0560 C9000000 		.4byte	.LVL57-1
 6271 0564 0500     		.2byte	0x5
 6272 0566 03       		.byte	0x3
 6273 0567 04000000 		.4byte	rle_in
 6274 056b 00000000 		.4byte	0
 6275 056f 00000000 		.4byte	0
 6276              	.LLST27:
 6277 0573 A0000000 		.4byte	.LVL51
 6278 0577 BE010000 		.4byte	.LVL73
 6279 057b 0200     		.2byte	0x2
 6280 057d 30       		.byte	0x30
 6281 057e 9F       		.byte	0x9f
 6282 057f BE010000 		.4byte	.LVL73
 6283 0583 E4010000 		.4byte	.LVL76
 6284 0587 0100     		.2byte	0x1
 6285 0589 51       		.byte	0x51
 6286 058a E8010000 		.4byte	.LVL77
 6287 058e 10020000 		.4byte	.LVL81
 6288 0592 0100     		.2byte	0x1
 6289 0594 51       		.byte	0x51
 6290 0595 10020000 		.4byte	.LVL81
 6291 0599 C6020000 		.4byte	.LVL101
 6292 059d 0200     		.2byte	0x2
 6293 059f 30       		.byte	0x30
 6294 05a0 9F       		.byte	0x9f
 6295 05a1 E2020000 		.4byte	.LVL107
 6296 05a5 1E030000 		.4byte	.LVL116
 6297 05a9 0200     		.2byte	0x2
 6298 05ab 30       		.byte	0x30
 6299 05ac 9F       		.byte	0x9f
 6300 05ad 22030000 		.4byte	.LVL117
 6301 05b1 5C030000 		.4byte	.LVL125
 6302 05b5 0200     		.2byte	0x2
 6303 05b7 30       		.byte	0x30
 6304 05b8 9F       		.byte	0x9f
 6305 05b9 5C030000 		.4byte	.LVL125
 6306 05bd 68040000 		.4byte	.LVL137
 6307 05c1 0300     		.2byte	0x3
 6308 05c3 91       		.byte	0x91
 6309 05c4 947F     		.sleb128 -108
 6310 05c6 68040000 		.4byte	.LVL137
 6311 05ca 8E040000 		.4byte	.LVL140
 6312 05ce 0100     		.2byte	0x1
 6313 05d0 50       		.byte	0x50
 6314 05d1 92040000 		.4byte	.LVL141
 6315 05d5 2C050000 		.4byte	.LVL154
 6316 05d9 0100     		.2byte	0x1
 6317 05db 50       		.byte	0x50
 6318 05dc 2C050000 		.4byte	.LVL154
 6319 05e0 E2050000 		.4byte	.LVL171
 6320 05e4 0300     		.2byte	0x3
 6321 05e6 91       		.byte	0x91
 6322 05e7 947F     		.sleb128 -108
 6323 05e9 E2050000 		.4byte	.LVL171
ARM GAS  C:\Users\pearlstl\AppData\Local\Temp\ccllHTLf.s 			page 127


 6324 05ed F6050000 		.4byte	.LVL172
 6325 05f1 0100     		.2byte	0x1
 6326 05f3 50       		.byte	0x50
 6327 05f4 02060000 		.4byte	.LVL173
 6328 05f8 30060000 		.4byte	.LVL175
 6329 05fc 0300     		.2byte	0x3
 6330 05fe 91       		.byte	0x91
 6331 05ff 947F     		.sleb128 -108
 6332 0601 3A060000 		.4byte	.LVL176
 6333 0605 C6060000 		.4byte	.LVL195
 6334 0609 0300     		.2byte	0x3
 6335 060b 91       		.byte	0x91
 6336 060c 947F     		.sleb128 -108
 6337 060e C6060000 		.4byte	.LVL195
 6338 0612 CC060000 		.4byte	.LVL196
 6339 0616 0200     		.2byte	0x2
 6340 0618 30       		.byte	0x30
 6341 0619 9F       		.byte	0x9f
 6342 061a CC060000 		.4byte	.LVL196
 6343 061e D2060000 		.4byte	.LVL197
 6344 0622 0300     		.2byte	0x3
 6345 0624 91       		.byte	0x91
 6346 0625 947F     		.sleb128 -108
 6347 0627 D2060000 		.4byte	.LVL197
 6348 062b 92070000 		.4byte	.LVL208
 6349 062f 0100     		.2byte	0x1
 6350 0631 51       		.byte	0x51
 6351 0632 92070000 		.4byte	.LVL208
 6352 0636 A0070000 		.4byte	.LFE31
 6353 063a 0200     		.2byte	0x2
 6354 063c 30       		.byte	0x30
 6355 063d 9F       		.byte	0x9f
 6356 063e 00000000 		.4byte	0
 6357 0642 00000000 		.4byte	0
 6358              	.LLST28:
 6359 0646 A0000000 		.4byte	.LVL51
 6360 064a BE000000 		.4byte	.LVL55
 6361 064e 0100     		.2byte	0x1
 6362 0650 52       		.byte	0x52
 6363 0651 BE000000 		.4byte	.LVL55
 6364 0655 C6020000 		.4byte	.LVL101
 6365 0659 0300     		.2byte	0x3
 6366 065b 91       		.byte	0x91
 6367 065c 987F     		.sleb128 -104
 6368 065e E2020000 		.4byte	.LVL107
 6369 0662 1E030000 		.4byte	.LVL116
 6370 0666 0300     		.2byte	0x3
 6371 0668 91       		.byte	0x91
 6372 0669 987F     		.sleb128 -104
 6373 066b 22030000 		.4byte	.LVL117
 6374 066f A0070000 		.4byte	.LFE31
 6375 0673 0300     		.2byte	0x3
 6376 0675 91       		.byte	0x91
 6377 0676 987F     		.sleb128 -104
 6378 0678 00000000 		.4byte	0
 6379 067c 00000000 		.4byte	0
 6380              	.LLST29:
ARM GAS  C:\Users\pearlstl\AppData\Local\Temp\ccllHTLf.s 			page 128


 6381 0680 CA000000 		.4byte	.LVL57
 6382 0684 F8000000 		.4byte	.LVL60
 6383 0688 0100     		.2byte	0x1
 6384 068a 50       		.byte	0x50
 6385 068b F8000000 		.4byte	.LVL60
 6386 068f 20010000 		.4byte	.LVL62
 6387 0693 0100     		.2byte	0x1
 6388 0695 5C       		.byte	0x5c
 6389 0696 20010000 		.4byte	.LVL62
 6390 069a C6020000 		.4byte	.LVL101
 6391 069e 0200     		.2byte	0x2
 6392 06a0 91       		.byte	0x91
 6393 06a1 40       		.sleb128 -64
 6394 06a2 E2020000 		.4byte	.LVL107
 6395 06a6 1E030000 		.4byte	.LVL116
 6396 06aa 0200     		.2byte	0x2
 6397 06ac 91       		.byte	0x91
 6398 06ad 40       		.sleb128 -64
 6399 06ae 22030000 		.4byte	.LVL117
 6400 06b2 58030000 		.4byte	.LVL124
 6401 06b6 0200     		.2byte	0x2
 6402 06b8 91       		.byte	0x91
 6403 06b9 40       		.sleb128 -64
 6404 06ba 58030000 		.4byte	.LVL124
 6405 06be 5C030000 		.4byte	.LVL125
 6406 06c2 0100     		.2byte	0x1
 6407 06c4 50       		.byte	0x50
 6408 06c5 5C030000 		.4byte	.LVL125
 6409 06c9 A0070000 		.4byte	.LFE31
 6410 06cd 0200     		.2byte	0x2
 6411 06cf 91       		.byte	0x91
 6412 06d0 40       		.sleb128 -64
 6413 06d1 00000000 		.4byte	0
 6414 06d5 00000000 		.4byte	0
 6415              	.LLST30:
 6416 06d9 CA000000 		.4byte	.LVL57
 6417 06dd F8000000 		.4byte	.LVL60
 6418 06e1 0100     		.2byte	0x1
 6419 06e3 50       		.byte	0x50
 6420 06e4 F8000000 		.4byte	.LVL60
 6421 06e8 20010000 		.4byte	.LVL62
 6422 06ec 0100     		.2byte	0x1
 6423 06ee 5C       		.byte	0x5c
 6424 06ef 20010000 		.4byte	.LVL62
 6425 06f3 C6020000 		.4byte	.LVL101
 6426 06f7 0200     		.2byte	0x2
 6427 06f9 91       		.byte	0x91
 6428 06fa 40       		.sleb128 -64
 6429 06fb E2020000 		.4byte	.LVL107
 6430 06ff 1E030000 		.4byte	.LVL116
 6431 0703 0200     		.2byte	0x2
 6432 0705 91       		.byte	0x91
 6433 0706 40       		.sleb128 -64
 6434 0707 22030000 		.4byte	.LVL117
 6435 070b 58030000 		.4byte	.LVL124
 6436 070f 0200     		.2byte	0x2
 6437 0711 91       		.byte	0x91
ARM GAS  C:\Users\pearlstl\AppData\Local\Temp\ccllHTLf.s 			page 129


 6438 0712 40       		.sleb128 -64
 6439 0713 58030000 		.4byte	.LVL124
 6440 0717 5C030000 		.4byte	.LVL125
 6441 071b 0100     		.2byte	0x1
 6442 071d 50       		.byte	0x50
 6443 071e 5C030000 		.4byte	.LVL125
 6444 0722 30060000 		.4byte	.LVL175
 6445 0726 0200     		.2byte	0x2
 6446 0728 91       		.byte	0x91
 6447 0729 40       		.sleb128 -64
 6448 072a 3A060000 		.4byte	.LVL176
 6449 072e A0070000 		.4byte	.LFE31
 6450 0732 0200     		.2byte	0x2
 6451 0734 91       		.byte	0x91
 6452 0735 40       		.sleb128 -64
 6453 0736 00000000 		.4byte	0
 6454 073a 00000000 		.4byte	0
 6455              	.LLST31:
 6456 073e D6000000 		.4byte	.LVL58
 6457 0742 E2000000 		.4byte	.LVL59
 6458 0746 0100     		.2byte	0x1
 6459 0748 51       		.byte	0x51
 6460 0749 E2000000 		.4byte	.LVL59
 6461 074d C6020000 		.4byte	.LVL101
 6462 0751 0200     		.2byte	0x2
 6463 0753 91       		.byte	0x91
 6464 0754 44       		.sleb128 -60
 6465 0755 E2020000 		.4byte	.LVL107
 6466 0759 1E030000 		.4byte	.LVL116
 6467 075d 0200     		.2byte	0x2
 6468 075f 91       		.byte	0x91
 6469 0760 44       		.sleb128 -60
 6470 0761 22030000 		.4byte	.LVL117
 6471 0765 58030000 		.4byte	.LVL124
 6472 0769 0200     		.2byte	0x2
 6473 076b 91       		.byte	0x91
 6474 076c 44       		.sleb128 -60
 6475 076d 58030000 		.4byte	.LVL124
 6476 0771 5C030000 		.4byte	.LVL125
 6477 0775 0100     		.2byte	0x1
 6478 0777 51       		.byte	0x51
 6479 0778 5C030000 		.4byte	.LVL125
 6480 077c 30060000 		.4byte	.LVL175
 6481 0780 0200     		.2byte	0x2
 6482 0782 91       		.byte	0x91
 6483 0783 44       		.sleb128 -60
 6484 0784 3A060000 		.4byte	.LVL176
 6485 0788 A0070000 		.4byte	.LFE31
 6486 078c 0200     		.2byte	0x2
 6487 078e 91       		.byte	0x91
 6488 078f 44       		.sleb128 -60
 6489 0790 00000000 		.4byte	0
 6490 0794 00000000 		.4byte	0
 6491              	.LLST32:
 6492 0798 5C030000 		.4byte	.LVL125
 6493 079c BC030000 		.4byte	.LVL126
 6494 07a0 0200     		.2byte	0x2
ARM GAS  C:\Users\pearlstl\AppData\Local\Temp\ccllHTLf.s 			page 130


 6495 07a2 31       		.byte	0x31
 6496 07a3 9F       		.byte	0x9f
 6497 07a4 BC030000 		.4byte	.LVL126
 6498 07a8 02060000 		.4byte	.LVL173
 6499 07ac 0300     		.2byte	0x3
 6500 07ae 91       		.byte	0x91
 6501 07af 9C7F     		.sleb128 -100
 6502 07b1 02060000 		.4byte	.LVL173
 6503 07b5 08060000 		.4byte	.LVL174
 6504 07b9 0100     		.2byte	0x1
 6505 07bb 53       		.byte	0x53
 6506 07bc 08060000 		.4byte	.LVL174
 6507 07c0 30060000 		.4byte	.LVL175
 6508 07c4 0300     		.2byte	0x3
 6509 07c6 91       		.byte	0x91
 6510 07c7 9C7F     		.sleb128 -100
 6511 07c9 3A060000 		.4byte	.LVL176
 6512 07cd C6060000 		.4byte	.LVL195
 6513 07d1 0300     		.2byte	0x3
 6514 07d3 91       		.byte	0x91
 6515 07d4 9C7F     		.sleb128 -100
 6516 07d6 CC060000 		.4byte	.LVL196
 6517 07da D2060000 		.4byte	.LVL197
 6518 07de 0300     		.2byte	0x3
 6519 07e0 91       		.byte	0x91
 6520 07e1 9C7F     		.sleb128 -100
 6521 07e3 00000000 		.4byte	0
 6522 07e7 00000000 		.4byte	0
 6523              	.LLST33:
 6524 07eb BE000000 		.4byte	.LVL55
 6525 07ef C6000000 		.4byte	.LVL56
 6526 07f3 0100     		.2byte	0x1
 6527 07f5 52       		.byte	0x52
 6528 07f6 00000000 		.4byte	0
 6529 07fa 00000000 		.4byte	0
 6530              	.LLST34:
 6531 07fe BE000000 		.4byte	.LVL55
 6532 0802 C6000000 		.4byte	.LVL56
 6533 0806 0500     		.2byte	0x5
 6534 0808 03       		.byte	0x3
 6535 0809 04000000 		.4byte	rle_in
 6536 080d 00000000 		.4byte	0
 6537 0811 00000000 		.4byte	0
 6538              	.LLST35:
 6539 0815 D6000000 		.4byte	.LVL58
 6540 0819 02010000 		.4byte	.LVL61
 6541 081d 0100     		.2byte	0x1
 6542 081f 55       		.byte	0x55
 6543 0820 02010000 		.4byte	.LVL61
 6544 0824 C6020000 		.4byte	.LVL101
 6545 0828 0300     		.2byte	0x3
 6546 082a 91       		.byte	0x91
 6547 082b BC7F     		.sleb128 -68
 6548 082d E2020000 		.4byte	.LVL107
 6549 0831 1E030000 		.4byte	.LVL116
 6550 0835 0300     		.2byte	0x3
 6551 0837 91       		.byte	0x91
ARM GAS  C:\Users\pearlstl\AppData\Local\Temp\ccllHTLf.s 			page 131


 6552 0838 BC7F     		.sleb128 -68
 6553 083a 22030000 		.4byte	.LVL117
 6554 083e 58030000 		.4byte	.LVL124
 6555 0842 0300     		.2byte	0x3
 6556 0844 91       		.byte	0x91
 6557 0845 BC7F     		.sleb128 -68
 6558 0847 58030000 		.4byte	.LVL124
 6559 084b 5C030000 		.4byte	.LVL125
 6560 084f 0100     		.2byte	0x1
 6561 0851 55       		.byte	0x55
 6562 0852 5C030000 		.4byte	.LVL125
 6563 0856 A0070000 		.4byte	.LFE31
 6564 085a 0300     		.2byte	0x3
 6565 085c 91       		.byte	0x91
 6566 085d BC7F     		.sleb128 -68
 6567 085f 00000000 		.4byte	0
 6568 0863 00000000 		.4byte	0
 6569              	.LLST36:
 6570 0867 D6000000 		.4byte	.LVL58
 6571 086b F8000000 		.4byte	.LVL60
 6572 086f 0100     		.2byte	0x1
 6573 0871 50       		.byte	0x50
 6574 0872 F8000000 		.4byte	.LVL60
 6575 0876 20010000 		.4byte	.LVL62
 6576 087a 0100     		.2byte	0x1
 6577 087c 5C       		.byte	0x5c
 6578 087d 20010000 		.4byte	.LVL62
 6579 0881 C6020000 		.4byte	.LVL101
 6580 0885 0200     		.2byte	0x2
 6581 0887 91       		.byte	0x91
 6582 0888 40       		.sleb128 -64
 6583 0889 E2020000 		.4byte	.LVL107
 6584 088d 1E030000 		.4byte	.LVL116
 6585 0891 0200     		.2byte	0x2
 6586 0893 91       		.byte	0x91
 6587 0894 40       		.sleb128 -64
 6588 0895 22030000 		.4byte	.LVL117
 6589 0899 58030000 		.4byte	.LVL124
 6590 089d 0200     		.2byte	0x2
 6591 089f 91       		.byte	0x91
 6592 08a0 40       		.sleb128 -64
 6593 08a1 58030000 		.4byte	.LVL124
 6594 08a5 5C030000 		.4byte	.LVL125
 6595 08a9 0100     		.2byte	0x1
 6596 08ab 50       		.byte	0x50
 6597 08ac 5C030000 		.4byte	.LVL125
 6598 08b0 A0070000 		.4byte	.LFE31
 6599 08b4 0200     		.2byte	0x2
 6600 08b6 91       		.byte	0x91
 6601 08b7 40       		.sleb128 -64
 6602 08b8 00000000 		.4byte	0
 6603 08bc 00000000 		.4byte	0
 6604              	.LLST37:
 6605 08c0 D6000000 		.4byte	.LVL58
 6606 08c4 2A010000 		.4byte	.LVL63
 6607 08c8 0200     		.2byte	0x2
 6608 08ca 30       		.byte	0x30
ARM GAS  C:\Users\pearlstl\AppData\Local\Temp\ccllHTLf.s 			page 132


 6609 08cb 9F       		.byte	0x9f
 6610 08cc 58030000 		.4byte	.LVL124
 6611 08d0 5C030000 		.4byte	.LVL125
 6612 08d4 0200     		.2byte	0x2
 6613 08d6 30       		.byte	0x30
 6614 08d7 9F       		.byte	0x9f
 6615 08d8 00000000 		.4byte	0
 6616 08dc 00000000 		.4byte	0
 6617              	.LLST38:
 6618 08e0 2A010000 		.4byte	.LVL63
 6619 08e4 66010000 		.4byte	.LVL72
 6620 08e8 0200     		.2byte	0x2
 6621 08ea 30       		.byte	0x30
 6622 08eb 9F       		.byte	0x9f
 6623 08ec 10020000 		.4byte	.LVL81
 6624 08f0 1E020000 		.4byte	.LVL83
 6625 08f4 0200     		.2byte	0x2
 6626 08f6 30       		.byte	0x30
 6627 08f7 9F       		.byte	0x9f
 6628 08f8 76020000 		.4byte	.LVL91
 6629 08fc B0020000 		.4byte	.LVL99
 6630 0900 0200     		.2byte	0x2
 6631 0902 30       		.byte	0x30
 6632 0903 9F       		.byte	0x9f
 6633 0904 BE020000 		.4byte	.LVL100
 6634 0908 C6020000 		.4byte	.LVL101
 6635 090c 0200     		.2byte	0x2
 6636 090e 30       		.byte	0x30
 6637 090f 9F       		.byte	0x9f
 6638 0910 00000000 		.4byte	0
 6639 0914 00000000 		.4byte	0
 6640              	.LLST39:
 6641 0918 2A010000 		.4byte	.LVL63
 6642 091c 4C010000 		.4byte	.LVL71
 6643 0920 0200     		.2byte	0x2
 6644 0922 30       		.byte	0x30
 6645 0923 9F       		.byte	0x9f
 6646 0924 10020000 		.4byte	.LVL81
 6647 0928 66020000 		.4byte	.LVL90
 6648 092c 0200     		.2byte	0x2
 6649 092e 30       		.byte	0x30
 6650 092f 9F       		.byte	0x9f
 6651 0930 76020000 		.4byte	.LVL91
 6652 0934 A0020000 		.4byte	.LVL98
 6653 0938 0100     		.2byte	0x1
 6654 093a 5E       		.byte	0x5e
 6655 093b B0020000 		.4byte	.LVL99
 6656 093f C6020000 		.4byte	.LVL101
 6657 0943 0100     		.2byte	0x1
 6658 0945 5E       		.byte	0x5e
 6659 0946 E2020000 		.4byte	.LVL107
 6660 094a 1E030000 		.4byte	.LVL116
 6661 094e 0100     		.2byte	0x1
 6662 0950 5E       		.byte	0x5e
 6663 0951 22030000 		.4byte	.LVL117
 6664 0955 44030000 		.4byte	.LVL123
 6665 0959 0100     		.2byte	0x1
ARM GAS  C:\Users\pearlstl\AppData\Local\Temp\ccllHTLf.s 			page 133


 6666 095b 5E       		.byte	0x5e
 6667 095c 00000000 		.4byte	0
 6668 0960 00000000 		.4byte	0
 6669              	.LLST40:
 6670 0964 2E010000 		.4byte	.LVL64
 6671 0968 4C010000 		.4byte	.LVL71
 6672 096c 0500     		.2byte	0x5
 6673 096e 03       		.byte	0x3
 6674 096f 08000000 		.4byte	rle_bpp
 6675 0973 00000000 		.4byte	0
 6676 0977 00000000 		.4byte	0
 6677              	.LLST41:
 6678 097b 2E010000 		.4byte	.LVL64
 6679 097f 30010000 		.4byte	.LVL65
 6680 0983 0100     		.2byte	0x1
 6681 0985 51       		.byte	0x51
 6682 0986 30010000 		.4byte	.LVL65
 6683 098a 3E010000 		.4byte	.LVL69
 6684 098e 0500     		.2byte	0x5
 6685 0990 71       		.byte	0x71
 6686 0991 00       		.sleb128 0
 6687 0992 37       		.byte	0x37
 6688 0993 1A       		.byte	0x1a
 6689 0994 9F       		.byte	0x9f
 6690 0995 3E010000 		.4byte	.LVL69
 6691 0999 44010000 		.4byte	.LVL70
 6692 099d 0100     		.2byte	0x1
 6693 099f 52       		.byte	0x52
 6694 09a0 44010000 		.4byte	.LVL70
 6695 09a4 4C010000 		.4byte	.LVL71
 6696 09a8 0500     		.2byte	0x5
 6697 09aa 71       		.byte	0x71
 6698 09ab 00       		.sleb128 0
 6699 09ac 37       		.byte	0x37
 6700 09ad 1A       		.byte	0x1a
 6701 09ae 9F       		.byte	0x9f
 6702 09af 00000000 		.4byte	0
 6703 09b3 00000000 		.4byte	0
 6704              	.LLST42:
 6705 09b7 2E010000 		.4byte	.LVL64
 6706 09bb 4C010000 		.4byte	.LVL71
 6707 09bf 0500     		.2byte	0x5
 6708 09c1 03       		.byte	0x3
 6709 09c2 04000000 		.4byte	rle_in
 6710 09c6 00000000 		.4byte	0
 6711 09ca 00000000 		.4byte	0
 6712              	.LLST43:
 6713 09ce 2E010000 		.4byte	.LVL64
 6714 09d2 4C010000 		.4byte	.LVL71
 6715 09d6 0200     		.2byte	0x2
 6716 09d8 30       		.byte	0x30
 6717 09d9 9F       		.byte	0x9f
 6718 09da 00000000 		.4byte	0
 6719 09de 00000000 		.4byte	0
 6720              	.LLST44:
 6721 09e2 30010000 		.4byte	.LVL65
 6722 09e6 34010000 		.4byte	.LVL67
ARM GAS  C:\Users\pearlstl\AppData\Local\Temp\ccllHTLf.s 			page 134


 6723 09ea 0100     		.2byte	0x1
 6724 09ec 52       		.byte	0x52
 6725 09ed 34010000 		.4byte	.LVL67
 6726 09f1 4C010000 		.4byte	.LVL71
 6727 09f5 0500     		.2byte	0x5
 6728 09f7 71       		.byte	0x71
 6729 09f8 00       		.sleb128 0
 6730 09f9 33       		.byte	0x33
 6731 09fa 25       		.byte	0x25
 6732 09fb 9F       		.byte	0x9f
 6733 09fc 00000000 		.4byte	0
 6734 0a00 00000000 		.4byte	0
 6735              	.LLST45:
 6736 0a04 30010000 		.4byte	.LVL65
 6737 0a08 32010000 		.4byte	.LVL66
 6738 0a0c 1A00     		.2byte	0x1a
 6739 0a0e 76       		.byte	0x76
 6740 0a0f 00       		.sleb128 0
 6741 0a10 72       		.byte	0x72
 6742 0a11 00       		.sleb128 0
 6743 0a12 22       		.byte	0x22
 6744 0a13 94       		.byte	0x94
 6745 0a14 01       		.byte	0x1
 6746 0a15 08       		.byte	0x8
 6747 0a16 FF       		.byte	0xff
 6748 0a17 1A       		.byte	0x1a
 6749 0a18 38       		.byte	0x38
 6750 0a19 24       		.byte	0x24
 6751 0a1a 76       		.byte	0x76
 6752 0a1b 00       		.sleb128 0
 6753 0a1c 72       		.byte	0x72
 6754 0a1d 00       		.sleb128 0
 6755 0a1e 22       		.byte	0x22
 6756 0a1f 23       		.byte	0x23
 6757 0a20 01       		.uleb128 0x1
 6758 0a21 94       		.byte	0x94
 6759 0a22 01       		.byte	0x1
 6760 0a23 08       		.byte	0x8
 6761 0a24 FF       		.byte	0xff
 6762 0a25 1A       		.byte	0x1a
 6763 0a26 22       		.byte	0x22
 6764 0a27 9F       		.byte	0x9f
 6765 0a28 32010000 		.4byte	.LVL66
 6766 0a2c 36010000 		.4byte	.LVL68
 6767 0a30 1200     		.2byte	0x12
 6768 0a32 73       		.byte	0x73
 6769 0a33 00       		.sleb128 0
 6770 0a34 94       		.byte	0x94
 6771 0a35 01       		.byte	0x1
 6772 0a36 08       		.byte	0x8
 6773 0a37 FF       		.byte	0xff
 6774 0a38 1A       		.byte	0x1a
 6775 0a39 38       		.byte	0x38
 6776 0a3a 24       		.byte	0x24
 6777 0a3b 73       		.byte	0x73
 6778 0a3c 01       		.sleb128 1
 6779 0a3d 94       		.byte	0x94
ARM GAS  C:\Users\pearlstl\AppData\Local\Temp\ccllHTLf.s 			page 135


 6780 0a3e 01       		.byte	0x1
 6781 0a3f 08       		.byte	0x8
 6782 0a40 FF       		.byte	0xff
 6783 0a41 1A       		.byte	0x1a
 6784 0a42 22       		.byte	0x22
 6785 0a43 9F       		.byte	0x9f
 6786 0a44 36010000 		.4byte	.LVL68
 6787 0a48 4C010000 		.4byte	.LVL71
 6788 0a4c 1E00     		.2byte	0x1e
 6789 0a4e 71       		.byte	0x71
 6790 0a4f 00       		.sleb128 0
 6791 0a50 33       		.byte	0x33
 6792 0a51 25       		.byte	0x25
 6793 0a52 76       		.byte	0x76
 6794 0a53 00       		.sleb128 0
 6795 0a54 22       		.byte	0x22
 6796 0a55 94       		.byte	0x94
 6797 0a56 01       		.byte	0x1
 6798 0a57 08       		.byte	0x8
 6799 0a58 FF       		.byte	0xff
 6800 0a59 1A       		.byte	0x1a
 6801 0a5a 38       		.byte	0x38
 6802 0a5b 24       		.byte	0x24
 6803 0a5c 71       		.byte	0x71
 6804 0a5d 00       		.sleb128 0
 6805 0a5e 33       		.byte	0x33
 6806 0a5f 25       		.byte	0x25
 6807 0a60 76       		.byte	0x76
 6808 0a61 00       		.sleb128 0
 6809 0a62 22       		.byte	0x22
 6810 0a63 23       		.byte	0x23
 6811 0a64 01       		.uleb128 0x1
 6812 0a65 94       		.byte	0x94
 6813 0a66 01       		.byte	0x1
 6814 0a67 08       		.byte	0x8
 6815 0a68 FF       		.byte	0xff
 6816 0a69 1A       		.byte	0x1a
 6817 0a6a 22       		.byte	0x22
 6818 0a6b 9F       		.byte	0x9f
 6819 0a6c 00000000 		.4byte	0
 6820 0a70 00000000 		.4byte	0
 6821              	.LLST46:
 6822 0a74 1C020000 		.4byte	.LVL82
 6823 0a78 1E020000 		.4byte	.LVL83
 6824 0a7c 0200     		.2byte	0x2
 6825 0a7e 31       		.byte	0x31
 6826 0a7f 9F       		.byte	0x9f
 6827 0a80 00000000 		.4byte	0
 6828 0a84 00000000 		.4byte	0
 6829              	.LLST47:
 6830 0a88 1C020000 		.4byte	.LVL82
 6831 0a8c 1E020000 		.4byte	.LVL83
 6832 0a90 0100     		.2byte	0x1
 6833 0a92 51       		.byte	0x51
 6834 0a93 00000000 		.4byte	0
 6835 0a97 00000000 		.4byte	0
 6836              	.LLST48:
ARM GAS  C:\Users\pearlstl\AppData\Local\Temp\ccllHTLf.s 			page 136


 6837 0a9b 1C020000 		.4byte	.LVL82
 6838 0a9f 1E020000 		.4byte	.LVL83
 6839 0aa3 0500     		.2byte	0x5
 6840 0aa5 03       		.byte	0x3
 6841 0aa6 04000000 		.4byte	rle_in
 6842 0aaa 00000000 		.4byte	0
 6843 0aae 00000000 		.4byte	0
 6844              	.LLST49:
 6845 0ab2 1C020000 		.4byte	.LVL82
 6846 0ab6 1E020000 		.4byte	.LVL83
 6847 0aba 0200     		.2byte	0x2
 6848 0abc 30       		.byte	0x30
 6849 0abd 9F       		.byte	0x9f
 6850 0abe 00000000 		.4byte	0
 6851 0ac2 00000000 		.4byte	0
 6852              	.LLST50:
 6853 0ac6 46020000 		.4byte	.LVL84
 6854 0aca 66020000 		.4byte	.LVL90
 6855 0ace 0500     		.2byte	0x5
 6856 0ad0 03       		.byte	0x3
 6857 0ad1 08000000 		.4byte	rle_bpp
 6858 0ad5 00000000 		.4byte	0
 6859 0ad9 00000000 		.4byte	0
 6860              	.LLST51:
 6861 0add 46020000 		.4byte	.LVL84
 6862 0ae1 48020000 		.4byte	.LVL85
 6863 0ae5 0100     		.2byte	0x1
 6864 0ae7 52       		.byte	0x52
 6865 0ae8 48020000 		.4byte	.LVL85
 6866 0aec 54020000 		.4byte	.LVL88
 6867 0af0 0500     		.2byte	0x5
 6868 0af2 72       		.byte	0x72
 6869 0af3 00       		.sleb128 0
 6870 0af4 37       		.byte	0x37
 6871 0af5 1A       		.byte	0x1a
 6872 0af6 9F       		.byte	0x9f
 6873 0af7 54020000 		.4byte	.LVL88
 6874 0afb 5C020000 		.4byte	.LVL89
 6875 0aff 0100     		.2byte	0x1
 6876 0b01 51       		.byte	0x51
 6877 0b02 5C020000 		.4byte	.LVL89
 6878 0b06 66020000 		.4byte	.LVL90
 6879 0b0a 0500     		.2byte	0x5
 6880 0b0c 72       		.byte	0x72
 6881 0b0d 00       		.sleb128 0
 6882 0b0e 37       		.byte	0x37
 6883 0b0f 1A       		.byte	0x1a
 6884 0b10 9F       		.byte	0x9f
 6885 0b11 00000000 		.4byte	0
 6886 0b15 00000000 		.4byte	0
 6887              	.LLST52:
 6888 0b19 46020000 		.4byte	.LVL84
 6889 0b1d 66020000 		.4byte	.LVL90
 6890 0b21 0500     		.2byte	0x5
 6891 0b23 03       		.byte	0x3
 6892 0b24 04000000 		.4byte	rle_in
 6893 0b28 00000000 		.4byte	0
ARM GAS  C:\Users\pearlstl\AppData\Local\Temp\ccllHTLf.s 			page 137


 6894 0b2c 00000000 		.4byte	0
 6895              	.LLST53:
 6896 0b30 46020000 		.4byte	.LVL84
 6897 0b34 66020000 		.4byte	.LVL90
 6898 0b38 0200     		.2byte	0x2
 6899 0b3a 30       		.byte	0x30
 6900 0b3b 9F       		.byte	0x9f
 6901 0b3c 00000000 		.4byte	0
 6902 0b40 00000000 		.4byte	0
 6903              	.LLST54:
 6904 0b44 48020000 		.4byte	.LVL85
 6905 0b48 54020000 		.4byte	.LVL88
 6906 0b4c 0100     		.2byte	0x1
 6907 0b4e 51       		.byte	0x51
 6908 0b4f 54020000 		.4byte	.LVL88
 6909 0b53 66020000 		.4byte	.LVL90
 6910 0b57 0500     		.2byte	0x5
 6911 0b59 72       		.byte	0x72
 6912 0b5a 00       		.sleb128 0
 6913 0b5b 33       		.byte	0x33
 6914 0b5c 25       		.byte	0x25
 6915 0b5d 9F       		.byte	0x9f
 6916 0b5e 00000000 		.4byte	0
 6917 0b62 00000000 		.4byte	0
 6918              	.LLST55:
 6919 0b66 48020000 		.4byte	.LVL85
 6920 0b6a 4A020000 		.4byte	.LVL86
 6921 0b6e 1A00     		.2byte	0x1a
 6922 0b70 76       		.byte	0x76
 6923 0b71 00       		.sleb128 0
 6924 0b72 71       		.byte	0x71
 6925 0b73 00       		.sleb128 0
 6926 0b74 22       		.byte	0x22
 6927 0b75 94       		.byte	0x94
 6928 0b76 01       		.byte	0x1
 6929 0b77 08       		.byte	0x8
 6930 0b78 FF       		.byte	0xff
 6931 0b79 1A       		.byte	0x1a
 6932 0b7a 38       		.byte	0x38
 6933 0b7b 24       		.byte	0x24
 6934 0b7c 76       		.byte	0x76
 6935 0b7d 00       		.sleb128 0
 6936 0b7e 71       		.byte	0x71
 6937 0b7f 00       		.sleb128 0
 6938 0b80 22       		.byte	0x22
 6939 0b81 23       		.byte	0x23
 6940 0b82 01       		.uleb128 0x1
 6941 0b83 94       		.byte	0x94
 6942 0b84 01       		.byte	0x1
 6943 0b85 08       		.byte	0x8
 6944 0b86 FF       		.byte	0xff
 6945 0b87 1A       		.byte	0x1a
 6946 0b88 22       		.byte	0x22
 6947 0b89 9F       		.byte	0x9f
 6948 0b8a 4A020000 		.4byte	.LVL86
 6949 0b8e 4E020000 		.4byte	.LVL87
 6950 0b92 1200     		.2byte	0x12
ARM GAS  C:\Users\pearlstl\AppData\Local\Temp\ccllHTLf.s 			page 138


 6951 0b94 73       		.byte	0x73
 6952 0b95 00       		.sleb128 0
 6953 0b96 94       		.byte	0x94
 6954 0b97 01       		.byte	0x1
 6955 0b98 08       		.byte	0x8
 6956 0b99 FF       		.byte	0xff
 6957 0b9a 1A       		.byte	0x1a
 6958 0b9b 38       		.byte	0x38
 6959 0b9c 24       		.byte	0x24
 6960 0b9d 73       		.byte	0x73
 6961 0b9e 01       		.sleb128 1
 6962 0b9f 94       		.byte	0x94
 6963 0ba0 01       		.byte	0x1
 6964 0ba1 08       		.byte	0x8
 6965 0ba2 FF       		.byte	0xff
 6966 0ba3 1A       		.byte	0x1a
 6967 0ba4 22       		.byte	0x22
 6968 0ba5 9F       		.byte	0x9f
 6969 0ba6 4E020000 		.4byte	.LVL87
 6970 0baa 54020000 		.4byte	.LVL88
 6971 0bae 1A00     		.2byte	0x1a
 6972 0bb0 76       		.byte	0x76
 6973 0bb1 00       		.sleb128 0
 6974 0bb2 71       		.byte	0x71
 6975 0bb3 00       		.sleb128 0
 6976 0bb4 22       		.byte	0x22
 6977 0bb5 94       		.byte	0x94
 6978 0bb6 01       		.byte	0x1
 6979 0bb7 08       		.byte	0x8
 6980 0bb8 FF       		.byte	0xff
 6981 0bb9 1A       		.byte	0x1a
 6982 0bba 38       		.byte	0x38
 6983 0bbb 24       		.byte	0x24
 6984 0bbc 76       		.byte	0x76
 6985 0bbd 00       		.sleb128 0
 6986 0bbe 71       		.byte	0x71
 6987 0bbf 00       		.sleb128 0
 6988 0bc0 22       		.byte	0x22
 6989 0bc1 23       		.byte	0x23
 6990 0bc2 01       		.uleb128 0x1
 6991 0bc3 94       		.byte	0x94
 6992 0bc4 01       		.byte	0x1
 6993 0bc5 08       		.byte	0x8
 6994 0bc6 FF       		.byte	0xff
 6995 0bc7 1A       		.byte	0x1a
 6996 0bc8 22       		.byte	0x22
 6997 0bc9 9F       		.byte	0x9f
 6998 0bca 54020000 		.4byte	.LVL88
 6999 0bce 66020000 		.4byte	.LVL90
 7000 0bd2 1E00     		.2byte	0x1e
 7001 0bd4 72       		.byte	0x72
 7002 0bd5 00       		.sleb128 0
 7003 0bd6 33       		.byte	0x33
 7004 0bd7 25       		.byte	0x25
 7005 0bd8 76       		.byte	0x76
 7006 0bd9 00       		.sleb128 0
 7007 0bda 22       		.byte	0x22
ARM GAS  C:\Users\pearlstl\AppData\Local\Temp\ccllHTLf.s 			page 139


 7008 0bdb 94       		.byte	0x94
 7009 0bdc 01       		.byte	0x1
 7010 0bdd 08       		.byte	0x8
 7011 0bde FF       		.byte	0xff
 7012 0bdf 1A       		.byte	0x1a
 7013 0be0 38       		.byte	0x38
 7014 0be1 24       		.byte	0x24
 7015 0be2 72       		.byte	0x72
 7016 0be3 00       		.sleb128 0
 7017 0be4 33       		.byte	0x33
 7018 0be5 25       		.byte	0x25
 7019 0be6 76       		.byte	0x76
 7020 0be7 00       		.sleb128 0
 7021 0be8 22       		.byte	0x22
 7022 0be9 23       		.byte	0x23
 7023 0bea 01       		.uleb128 0x1
 7024 0beb 94       		.byte	0x94
 7025 0bec 01       		.byte	0x1
 7026 0bed 08       		.byte	0x8
 7027 0bee FF       		.byte	0xff
 7028 0bef 1A       		.byte	0x1a
 7029 0bf0 22       		.byte	0x22
 7030 0bf1 9F       		.byte	0x9f
 7031 0bf2 00000000 		.4byte	0
 7032 0bf6 00000000 		.4byte	0
 7033              	.LLST56:
 7034 0bfa 7E020000 		.4byte	.LVL92
 7035 0bfe A0020000 		.4byte	.LVL98
 7036 0c02 0500     		.2byte	0x5
 7037 0c04 03       		.byte	0x3
 7038 0c05 08000000 		.4byte	rle_bpp
 7039 0c09 00000000 		.4byte	0
 7040 0c0d 00000000 		.4byte	0
 7041              	.LLST57:
 7042 0c11 7E020000 		.4byte	.LVL92
 7043 0c15 80020000 		.4byte	.LVL93
 7044 0c19 0100     		.2byte	0x1
 7045 0c1b 51       		.byte	0x51
 7046 0c1c 80020000 		.4byte	.LVL93
 7047 0c20 8A020000 		.4byte	.LVL96
 7048 0c24 0500     		.2byte	0x5
 7049 0c26 71       		.byte	0x71
 7050 0c27 00       		.sleb128 0
 7051 0c28 37       		.byte	0x37
 7052 0c29 1A       		.byte	0x1a
 7053 0c2a 9F       		.byte	0x9f
 7054 0c2b 8A020000 		.4byte	.LVL96
 7055 0c2f 92020000 		.4byte	.LVL97
 7056 0c33 0100     		.2byte	0x1
 7057 0c35 52       		.byte	0x52
 7058 0c36 92020000 		.4byte	.LVL97
 7059 0c3a A0020000 		.4byte	.LVL98
 7060 0c3e 0500     		.2byte	0x5
 7061 0c40 71       		.byte	0x71
 7062 0c41 00       		.sleb128 0
 7063 0c42 37       		.byte	0x37
 7064 0c43 1A       		.byte	0x1a
ARM GAS  C:\Users\pearlstl\AppData\Local\Temp\ccllHTLf.s 			page 140


 7065 0c44 9F       		.byte	0x9f
 7066 0c45 00000000 		.4byte	0
 7067 0c49 00000000 		.4byte	0
 7068              	.LLST58:
 7069 0c4d 7E020000 		.4byte	.LVL92
 7070 0c51 A0020000 		.4byte	.LVL98
 7071 0c55 0500     		.2byte	0x5
 7072 0c57 03       		.byte	0x3
 7073 0c58 04000000 		.4byte	rle_in
 7074 0c5c 00000000 		.4byte	0
 7075 0c60 00000000 		.4byte	0
 7076              	.LLST59:
 7077 0c64 7E020000 		.4byte	.LVL92
 7078 0c68 A0020000 		.4byte	.LVL98
 7079 0c6c 0200     		.2byte	0x2
 7080 0c6e 30       		.byte	0x30
 7081 0c6f 9F       		.byte	0x9f
 7082 0c70 00000000 		.4byte	0
 7083 0c74 00000000 		.4byte	0
 7084              	.LLST60:
 7085 0c78 80020000 		.4byte	.LVL93
 7086 0c7c 86020000 		.4byte	.LVL95
 7087 0c80 0100     		.2byte	0x1
 7088 0c82 53       		.byte	0x53
 7089 0c83 86020000 		.4byte	.LVL95
 7090 0c87 A0020000 		.4byte	.LVL98
 7091 0c8b 0500     		.2byte	0x5
 7092 0c8d 71       		.byte	0x71
 7093 0c8e 00       		.sleb128 0
 7094 0c8f 33       		.byte	0x33
 7095 0c90 25       		.byte	0x25
 7096 0c91 9F       		.byte	0x9f
 7097 0c92 00000000 		.4byte	0
 7098 0c96 00000000 		.4byte	0
 7099              	.LLST61:
 7100 0c9a 80020000 		.4byte	.LVL93
 7101 0c9e 82020000 		.4byte	.LVL94
 7102 0ca2 1A00     		.2byte	0x1a
 7103 0ca4 76       		.byte	0x76
 7104 0ca5 00       		.sleb128 0
 7105 0ca6 73       		.byte	0x73
 7106 0ca7 00       		.sleb128 0
 7107 0ca8 22       		.byte	0x22
 7108 0ca9 94       		.byte	0x94
 7109 0caa 01       		.byte	0x1
 7110 0cab 08       		.byte	0x8
 7111 0cac FF       		.byte	0xff
 7112 0cad 1A       		.byte	0x1a
 7113 0cae 38       		.byte	0x38
 7114 0caf 24       		.byte	0x24
 7115 0cb0 76       		.byte	0x76
 7116 0cb1 00       		.sleb128 0
 7117 0cb2 73       		.byte	0x73
 7118 0cb3 00       		.sleb128 0
 7119 0cb4 22       		.byte	0x22
 7120 0cb5 23       		.byte	0x23
 7121 0cb6 01       		.uleb128 0x1
ARM GAS  C:\Users\pearlstl\AppData\Local\Temp\ccllHTLf.s 			page 141


 7122 0cb7 94       		.byte	0x94
 7123 0cb8 01       		.byte	0x1
 7124 0cb9 08       		.byte	0x8
 7125 0cba FF       		.byte	0xff
 7126 0cbb 1A       		.byte	0x1a
 7127 0cbc 22       		.byte	0x22
 7128 0cbd 9F       		.byte	0x9f
 7129 0cbe 82020000 		.4byte	.LVL94
 7130 0cc2 8A020000 		.4byte	.LVL96
 7131 0cc6 1200     		.2byte	0x12
 7132 0cc8 72       		.byte	0x72
 7133 0cc9 00       		.sleb128 0
 7134 0cca 94       		.byte	0x94
 7135 0ccb 01       		.byte	0x1
 7136 0ccc 08       		.byte	0x8
 7137 0ccd FF       		.byte	0xff
 7138 0cce 1A       		.byte	0x1a
 7139 0ccf 38       		.byte	0x38
 7140 0cd0 24       		.byte	0x24
 7141 0cd1 72       		.byte	0x72
 7142 0cd2 01       		.sleb128 1
 7143 0cd3 94       		.byte	0x94
 7144 0cd4 01       		.byte	0x1
 7145 0cd5 08       		.byte	0x8
 7146 0cd6 FF       		.byte	0xff
 7147 0cd7 1A       		.byte	0x1a
 7148 0cd8 22       		.byte	0x22
 7149 0cd9 9F       		.byte	0x9f
 7150 0cda 8A020000 		.4byte	.LVL96
 7151 0cde A0020000 		.4byte	.LVL98
 7152 0ce2 1E00     		.2byte	0x1e
 7153 0ce4 71       		.byte	0x71
 7154 0ce5 00       		.sleb128 0
 7155 0ce6 33       		.byte	0x33
 7156 0ce7 25       		.byte	0x25
 7157 0ce8 76       		.byte	0x76
 7158 0ce9 00       		.sleb128 0
 7159 0cea 22       		.byte	0x22
 7160 0ceb 94       		.byte	0x94
 7161 0cec 01       		.byte	0x1
 7162 0ced 08       		.byte	0x8
 7163 0cee FF       		.byte	0xff
 7164 0cef 1A       		.byte	0x1a
 7165 0cf0 38       		.byte	0x38
 7166 0cf1 24       		.byte	0x24
 7167 0cf2 71       		.byte	0x71
 7168 0cf3 00       		.sleb128 0
 7169 0cf4 33       		.byte	0x33
 7170 0cf5 25       		.byte	0x25
 7171 0cf6 76       		.byte	0x76
 7172 0cf7 00       		.sleb128 0
 7173 0cf8 22       		.byte	0x22
 7174 0cf9 23       		.byte	0x23
 7175 0cfa 01       		.uleb128 0x1
 7176 0cfb 94       		.byte	0x94
 7177 0cfc 01       		.byte	0x1
 7178 0cfd 08       		.byte	0x8
ARM GAS  C:\Users\pearlstl\AppData\Local\Temp\ccllHTLf.s 			page 142


 7179 0cfe FF       		.byte	0xff
 7180 0cff 1A       		.byte	0x1a
 7181 0d00 22       		.byte	0x22
 7182 0d01 9F       		.byte	0x9f
 7183 0d02 00000000 		.4byte	0
 7184 0d06 00000000 		.4byte	0
 7185              	.LLST62:
 7186 0d0a E2020000 		.4byte	.LVL107
 7187 0d0e 0C030000 		.4byte	.LVL115
 7188 0d12 0200     		.2byte	0x2
 7189 0d14 36       		.byte	0x36
 7190 0d15 9F       		.byte	0x9f
 7191 0d16 00000000 		.4byte	0
 7192 0d1a 00000000 		.4byte	0
 7193              	.LLST63:
 7194 0d1e E2020000 		.4byte	.LVL107
 7195 0d22 E6020000 		.4byte	.LVL108
 7196 0d26 0100     		.2byte	0x1
 7197 0d28 52       		.byte	0x52
 7198 0d29 E6020000 		.4byte	.LVL108
 7199 0d2d F4020000 		.4byte	.LVL112
 7200 0d31 0500     		.2byte	0x5
 7201 0d33 72       		.byte	0x72
 7202 0d34 00       		.sleb128 0
 7203 0d35 37       		.byte	0x37
 7204 0d36 1A       		.byte	0x1a
 7205 0d37 9F       		.byte	0x9f
 7206 0d38 F4020000 		.4byte	.LVL112
 7207 0d3c FC020000 		.4byte	.LVL113
 7208 0d40 0100     		.2byte	0x1
 7209 0d42 52       		.byte	0x52
 7210 0d43 FC020000 		.4byte	.LVL113
 7211 0d47 08030000 		.4byte	.LVL114
 7212 0d4b 0500     		.2byte	0x5
 7213 0d4d 71       		.byte	0x71
 7214 0d4e 01       		.sleb128 1
 7215 0d4f 37       		.byte	0x37
 7216 0d50 1A       		.byte	0x1a
 7217 0d51 9F       		.byte	0x9f
 7218 0d52 08030000 		.4byte	.LVL114
 7219 0d56 0C030000 		.4byte	.LVL115
 7220 0d5a 0500     		.2byte	0x5
 7221 0d5c 71       		.byte	0x71
 7222 0d5d 7A       		.sleb128 -6
 7223 0d5e 37       		.byte	0x37
 7224 0d5f 1A       		.byte	0x1a
 7225 0d60 9F       		.byte	0x9f
 7226 0d61 00000000 		.4byte	0
 7227 0d65 00000000 		.4byte	0
 7228              	.LLST64:
 7229 0d69 E2020000 		.4byte	.LVL107
 7230 0d6d 0C030000 		.4byte	.LVL115
 7231 0d71 0500     		.2byte	0x5
 7232 0d73 03       		.byte	0x3
 7233 0d74 04000000 		.4byte	rle_in
 7234 0d78 00000000 		.4byte	0
 7235 0d7c 00000000 		.4byte	0
ARM GAS  C:\Users\pearlstl\AppData\Local\Temp\ccllHTLf.s 			page 143


 7236              	.LLST65:
 7237 0d80 E2020000 		.4byte	.LVL107
 7238 0d84 0C030000 		.4byte	.LVL115
 7239 0d88 0200     		.2byte	0x2
 7240 0d8a 30       		.byte	0x30
 7241 0d8b 9F       		.byte	0x9f
 7242 0d8c 00000000 		.4byte	0
 7243 0d90 00000000 		.4byte	0
 7244              	.LLST66:
 7245 0d94 E6020000 		.4byte	.LVL108
 7246 0d98 EE020000 		.4byte	.LVL110
 7247 0d9c 0100     		.2byte	0x1
 7248 0d9e 58       		.byte	0x58
 7249 0d9f EE020000 		.4byte	.LVL110
 7250 0da3 F4020000 		.4byte	.LVL112
 7251 0da7 0500     		.2byte	0x5
 7252 0da9 72       		.byte	0x72
 7253 0daa 00       		.sleb128 0
 7254 0dab 33       		.byte	0x33
 7255 0dac 25       		.byte	0x25
 7256 0dad 9F       		.byte	0x9f
 7257 0dae F4020000 		.4byte	.LVL112
 7258 0db2 08030000 		.4byte	.LVL114
 7259 0db6 0500     		.2byte	0x5
 7260 0db8 71       		.byte	0x71
 7261 0db9 01       		.sleb128 1
 7262 0dba 33       		.byte	0x33
 7263 0dbb 25       		.byte	0x25
 7264 0dbc 9F       		.byte	0x9f
 7265 0dbd 08030000 		.4byte	.LVL114
 7266 0dc1 0C030000 		.4byte	.LVL115
 7267 0dc5 0500     		.2byte	0x5
 7268 0dc7 71       		.byte	0x71
 7269 0dc8 7A       		.sleb128 -6
 7270 0dc9 33       		.byte	0x33
 7271 0dca 25       		.byte	0x25
 7272 0dcb 9F       		.byte	0x9f
 7273 0dcc 00000000 		.4byte	0
 7274 0dd0 00000000 		.4byte	0
 7275              	.LLST67:
 7276 0dd4 E6020000 		.4byte	.LVL108
 7277 0dd8 0C030000 		.4byte	.LVL115
 7278 0ddc 0300     		.2byte	0x3
 7279 0dde 08       		.byte	0x8
 7280 0ddf 3F       		.byte	0x3f
 7281 0de0 9F       		.byte	0x9f
 7282 0de1 00000000 		.4byte	0
 7283 0de5 00000000 		.4byte	0
 7284              	.LLST68:
 7285 0de9 E6020000 		.4byte	.LVL108
 7286 0ded EA020000 		.4byte	.LVL109
 7287 0df1 1A00     		.2byte	0x1a
 7288 0df3 76       		.byte	0x76
 7289 0df4 00       		.sleb128 0
 7290 0df5 78       		.byte	0x78
 7291 0df6 00       		.sleb128 0
 7292 0df7 22       		.byte	0x22
ARM GAS  C:\Users\pearlstl\AppData\Local\Temp\ccllHTLf.s 			page 144


 7293 0df8 94       		.byte	0x94
 7294 0df9 01       		.byte	0x1
 7295 0dfa 08       		.byte	0x8
 7296 0dfb FF       		.byte	0xff
 7297 0dfc 1A       		.byte	0x1a
 7298 0dfd 38       		.byte	0x38
 7299 0dfe 24       		.byte	0x24
 7300 0dff 76       		.byte	0x76
 7301 0e00 00       		.sleb128 0
 7302 0e01 78       		.byte	0x78
 7303 0e02 00       		.sleb128 0
 7304 0e03 22       		.byte	0x22
 7305 0e04 23       		.byte	0x23
 7306 0e05 01       		.uleb128 0x1
 7307 0e06 94       		.byte	0x94
 7308 0e07 01       		.byte	0x1
 7309 0e08 08       		.byte	0x8
 7310 0e09 FF       		.byte	0xff
 7311 0e0a 1A       		.byte	0x1a
 7312 0e0b 22       		.byte	0x22
 7313 0e0c 9F       		.byte	0x9f
 7314 0e0d EA020000 		.4byte	.LVL109
 7315 0e11 F0020000 		.4byte	.LVL111
 7316 0e15 1200     		.2byte	0x12
 7317 0e17 70       		.byte	0x70
 7318 0e18 00       		.sleb128 0
 7319 0e19 94       		.byte	0x94
 7320 0e1a 01       		.byte	0x1
 7321 0e1b 08       		.byte	0x8
 7322 0e1c FF       		.byte	0xff
 7323 0e1d 1A       		.byte	0x1a
 7324 0e1e 38       		.byte	0x38
 7325 0e1f 24       		.byte	0x24
 7326 0e20 70       		.byte	0x70
 7327 0e21 01       		.sleb128 1
 7328 0e22 94       		.byte	0x94
 7329 0e23 01       		.byte	0x1
 7330 0e24 08       		.byte	0x8
 7331 0e25 FF       		.byte	0xff
 7332 0e26 1A       		.byte	0x1a
 7333 0e27 22       		.byte	0x22
 7334 0e28 9F       		.byte	0x9f
 7335 0e29 F0020000 		.4byte	.LVL111
 7336 0e2d F4020000 		.4byte	.LVL112
 7337 0e31 1E00     		.2byte	0x1e
 7338 0e33 72       		.byte	0x72
 7339 0e34 00       		.sleb128 0
 7340 0e35 33       		.byte	0x33
 7341 0e36 25       		.byte	0x25
 7342 0e37 76       		.byte	0x76
 7343 0e38 00       		.sleb128 0
 7344 0e39 22       		.byte	0x22
 7345 0e3a 94       		.byte	0x94
 7346 0e3b 01       		.byte	0x1
 7347 0e3c 08       		.byte	0x8
 7348 0e3d FF       		.byte	0xff
 7349 0e3e 1A       		.byte	0x1a
ARM GAS  C:\Users\pearlstl\AppData\Local\Temp\ccllHTLf.s 			page 145


 7350 0e3f 38       		.byte	0x38
 7351 0e40 24       		.byte	0x24
 7352 0e41 72       		.byte	0x72
 7353 0e42 00       		.sleb128 0
 7354 0e43 33       		.byte	0x33
 7355 0e44 25       		.byte	0x25
 7356 0e45 76       		.byte	0x76
 7357 0e46 00       		.sleb128 0
 7358 0e47 22       		.byte	0x22
 7359 0e48 23       		.byte	0x23
 7360 0e49 01       		.uleb128 0x1
 7361 0e4a 94       		.byte	0x94
 7362 0e4b 01       		.byte	0x1
 7363 0e4c 08       		.byte	0x8
 7364 0e4d FF       		.byte	0xff
 7365 0e4e 1A       		.byte	0x1a
 7366 0e4f 22       		.byte	0x22
 7367 0e50 9F       		.byte	0x9f
 7368 0e51 F4020000 		.4byte	.LVL112
 7369 0e55 08030000 		.4byte	.LVL114
 7370 0e59 1E00     		.2byte	0x1e
 7371 0e5b 71       		.byte	0x71
 7372 0e5c 01       		.sleb128 1
 7373 0e5d 33       		.byte	0x33
 7374 0e5e 25       		.byte	0x25
 7375 0e5f 76       		.byte	0x76
 7376 0e60 00       		.sleb128 0
 7377 0e61 22       		.byte	0x22
 7378 0e62 94       		.byte	0x94
 7379 0e63 01       		.byte	0x1
 7380 0e64 08       		.byte	0x8
 7381 0e65 FF       		.byte	0xff
 7382 0e66 1A       		.byte	0x1a
 7383 0e67 38       		.byte	0x38
 7384 0e68 24       		.byte	0x24
 7385 0e69 71       		.byte	0x71
 7386 0e6a 01       		.sleb128 1
 7387 0e6b 33       		.byte	0x33
 7388 0e6c 25       		.byte	0x25
 7389 0e6d 76       		.byte	0x76
 7390 0e6e 00       		.sleb128 0
 7391 0e6f 22       		.byte	0x22
 7392 0e70 23       		.byte	0x23
 7393 0e71 01       		.uleb128 0x1
 7394 0e72 94       		.byte	0x94
 7395 0e73 01       		.byte	0x1
 7396 0e74 08       		.byte	0x8
 7397 0e75 FF       		.byte	0xff
 7398 0e76 1A       		.byte	0x1a
 7399 0e77 22       		.byte	0x22
 7400 0e78 9F       		.byte	0x9f
 7401 0e79 08030000 		.4byte	.LVL114
 7402 0e7d 0C030000 		.4byte	.LVL115
 7403 0e81 1E00     		.2byte	0x1e
 7404 0e83 71       		.byte	0x71
 7405 0e84 7A       		.sleb128 -6
 7406 0e85 33       		.byte	0x33
ARM GAS  C:\Users\pearlstl\AppData\Local\Temp\ccllHTLf.s 			page 146


 7407 0e86 25       		.byte	0x25
 7408 0e87 76       		.byte	0x76
 7409 0e88 00       		.sleb128 0
 7410 0e89 22       		.byte	0x22
 7411 0e8a 94       		.byte	0x94
 7412 0e8b 01       		.byte	0x1
 7413 0e8c 08       		.byte	0x8
 7414 0e8d FF       		.byte	0xff
 7415 0e8e 1A       		.byte	0x1a
 7416 0e8f 38       		.byte	0x38
 7417 0e90 24       		.byte	0x24
 7418 0e91 71       		.byte	0x71
 7419 0e92 7A       		.sleb128 -6
 7420 0e93 33       		.byte	0x33
 7421 0e94 25       		.byte	0x25
 7422 0e95 76       		.byte	0x76
 7423 0e96 00       		.sleb128 0
 7424 0e97 22       		.byte	0x22
 7425 0e98 23       		.byte	0x23
 7426 0e99 01       		.uleb128 0x1
 7427 0e9a 94       		.byte	0x94
 7428 0e9b 01       		.byte	0x1
 7429 0e9c 08       		.byte	0x8
 7430 0e9d FF       		.byte	0xff
 7431 0e9e 1A       		.byte	0x1a
 7432 0e9f 22       		.byte	0x22
 7433 0ea0 9F       		.byte	0x9f
 7434 0ea1 00000000 		.4byte	0
 7435 0ea5 00000000 		.4byte	0
 7436              	.LLST69:
 7437 0ea9 22030000 		.4byte	.LVL117
 7438 0ead 44030000 		.4byte	.LVL123
 7439 0eb1 0500     		.2byte	0x5
 7440 0eb3 03       		.byte	0x3
 7441 0eb4 08000000 		.4byte	rle_bpp
 7442 0eb8 00000000 		.4byte	0
 7443 0ebc 00000000 		.4byte	0
 7444              	.LLST70:
 7445 0ec0 22030000 		.4byte	.LVL117
 7446 0ec4 24030000 		.4byte	.LVL118
 7447 0ec8 0100     		.2byte	0x1
 7448 0eca 51       		.byte	0x51
 7449 0ecb 24030000 		.4byte	.LVL118
 7450 0ecf 30030000 		.4byte	.LVL121
 7451 0ed3 0500     		.2byte	0x5
 7452 0ed5 71       		.byte	0x71
 7453 0ed6 00       		.sleb128 0
 7454 0ed7 37       		.byte	0x37
 7455 0ed8 1A       		.byte	0x1a
 7456 0ed9 9F       		.byte	0x9f
 7457 0eda 30030000 		.4byte	.LVL121
 7458 0ede 38030000 		.4byte	.LVL122
 7459 0ee2 0100     		.2byte	0x1
 7460 0ee4 50       		.byte	0x50
 7461 0ee5 38030000 		.4byte	.LVL122
 7462 0ee9 44030000 		.4byte	.LVL123
 7463 0eed 0500     		.2byte	0x5
ARM GAS  C:\Users\pearlstl\AppData\Local\Temp\ccllHTLf.s 			page 147


 7464 0eef 71       		.byte	0x71
 7465 0ef0 00       		.sleb128 0
 7466 0ef1 37       		.byte	0x37
 7467 0ef2 1A       		.byte	0x1a
 7468 0ef3 9F       		.byte	0x9f
 7469 0ef4 00000000 		.4byte	0
 7470 0ef8 00000000 		.4byte	0
 7471              	.LLST71:
 7472 0efc 22030000 		.4byte	.LVL117
 7473 0f00 44030000 		.4byte	.LVL123
 7474 0f04 0500     		.2byte	0x5
 7475 0f06 03       		.byte	0x3
 7476 0f07 04000000 		.4byte	rle_in
 7477 0f0b 00000000 		.4byte	0
 7478 0f0f 00000000 		.4byte	0
 7479              	.LLST72:
 7480 0f13 22030000 		.4byte	.LVL117
 7481 0f17 44030000 		.4byte	.LVL123
 7482 0f1b 0200     		.2byte	0x2
 7483 0f1d 30       		.byte	0x30
 7484 0f1e 9F       		.byte	0x9f
 7485 0f1f 00000000 		.4byte	0
 7486 0f23 00000000 		.4byte	0
 7487              	.LLST73:
 7488 0f27 24030000 		.4byte	.LVL118
 7489 0f2b 30030000 		.4byte	.LVL121
 7490 0f2f 0100     		.2byte	0x1
 7491 0f31 50       		.byte	0x50
 7492 0f32 30030000 		.4byte	.LVL121
 7493 0f36 44030000 		.4byte	.LVL123
 7494 0f3a 0500     		.2byte	0x5
 7495 0f3c 71       		.byte	0x71
 7496 0f3d 00       		.sleb128 0
 7497 0f3e 33       		.byte	0x33
 7498 0f3f 25       		.byte	0x25
 7499 0f40 9F       		.byte	0x9f
 7500 0f41 00000000 		.4byte	0
 7501 0f45 00000000 		.4byte	0
 7502              	.LLST74:
 7503 0f49 24030000 		.4byte	.LVL118
 7504 0f4d 26030000 		.4byte	.LVL119
 7505 0f51 1A00     		.2byte	0x1a
 7506 0f53 76       		.byte	0x76
 7507 0f54 00       		.sleb128 0
 7508 0f55 70       		.byte	0x70
 7509 0f56 00       		.sleb128 0
 7510 0f57 22       		.byte	0x22
 7511 0f58 94       		.byte	0x94
 7512 0f59 01       		.byte	0x1
 7513 0f5a 08       		.byte	0x8
 7514 0f5b FF       		.byte	0xff
 7515 0f5c 1A       		.byte	0x1a
 7516 0f5d 38       		.byte	0x38
 7517 0f5e 24       		.byte	0x24
 7518 0f5f 76       		.byte	0x76
 7519 0f60 00       		.sleb128 0
 7520 0f61 70       		.byte	0x70
ARM GAS  C:\Users\pearlstl\AppData\Local\Temp\ccllHTLf.s 			page 148


 7521 0f62 00       		.sleb128 0
 7522 0f63 22       		.byte	0x22
 7523 0f64 23       		.byte	0x23
 7524 0f65 01       		.uleb128 0x1
 7525 0f66 94       		.byte	0x94
 7526 0f67 01       		.byte	0x1
 7527 0f68 08       		.byte	0x8
 7528 0f69 FF       		.byte	0xff
 7529 0f6a 1A       		.byte	0x1a
 7530 0f6b 22       		.byte	0x22
 7531 0f6c 9F       		.byte	0x9f
 7532 0f6d 26030000 		.4byte	.LVL119
 7533 0f71 2A030000 		.4byte	.LVL120
 7534 0f75 1200     		.2byte	0x12
 7535 0f77 72       		.byte	0x72
 7536 0f78 00       		.sleb128 0
 7537 0f79 94       		.byte	0x94
 7538 0f7a 01       		.byte	0x1
 7539 0f7b 08       		.byte	0x8
 7540 0f7c FF       		.byte	0xff
 7541 0f7d 1A       		.byte	0x1a
 7542 0f7e 38       		.byte	0x38
 7543 0f7f 24       		.byte	0x24
 7544 0f80 72       		.byte	0x72
 7545 0f81 01       		.sleb128 1
 7546 0f82 94       		.byte	0x94
 7547 0f83 01       		.byte	0x1
 7548 0f84 08       		.byte	0x8
 7549 0f85 FF       		.byte	0xff
 7550 0f86 1A       		.byte	0x1a
 7551 0f87 22       		.byte	0x22
 7552 0f88 9F       		.byte	0x9f
 7553 0f89 2A030000 		.4byte	.LVL120
 7554 0f8d 30030000 		.4byte	.LVL121
 7555 0f91 1A00     		.2byte	0x1a
 7556 0f93 76       		.byte	0x76
 7557 0f94 00       		.sleb128 0
 7558 0f95 70       		.byte	0x70
 7559 0f96 00       		.sleb128 0
 7560 0f97 22       		.byte	0x22
 7561 0f98 94       		.byte	0x94
 7562 0f99 01       		.byte	0x1
 7563 0f9a 08       		.byte	0x8
 7564 0f9b FF       		.byte	0xff
 7565 0f9c 1A       		.byte	0x1a
 7566 0f9d 38       		.byte	0x38
 7567 0f9e 24       		.byte	0x24
 7568 0f9f 76       		.byte	0x76
 7569 0fa0 00       		.sleb128 0
 7570 0fa1 70       		.byte	0x70
 7571 0fa2 00       		.sleb128 0
 7572 0fa3 22       		.byte	0x22
 7573 0fa4 23       		.byte	0x23
 7574 0fa5 01       		.uleb128 0x1
 7575 0fa6 94       		.byte	0x94
 7576 0fa7 01       		.byte	0x1
 7577 0fa8 08       		.byte	0x8
ARM GAS  C:\Users\pearlstl\AppData\Local\Temp\ccllHTLf.s 			page 149


 7578 0fa9 FF       		.byte	0xff
 7579 0faa 1A       		.byte	0x1a
 7580 0fab 22       		.byte	0x22
 7581 0fac 9F       		.byte	0x9f
 7582 0fad 30030000 		.4byte	.LVL121
 7583 0fb1 44030000 		.4byte	.LVL123
 7584 0fb5 1E00     		.2byte	0x1e
 7585 0fb7 71       		.byte	0x71
 7586 0fb8 00       		.sleb128 0
 7587 0fb9 33       		.byte	0x33
 7588 0fba 25       		.byte	0x25
 7589 0fbb 76       		.byte	0x76
 7590 0fbc 00       		.sleb128 0
 7591 0fbd 22       		.byte	0x22
 7592 0fbe 94       		.byte	0x94
 7593 0fbf 01       		.byte	0x1
 7594 0fc0 08       		.byte	0x8
 7595 0fc1 FF       		.byte	0xff
 7596 0fc2 1A       		.byte	0x1a
 7597 0fc3 38       		.byte	0x38
 7598 0fc4 24       		.byte	0x24
 7599 0fc5 71       		.byte	0x71
 7600 0fc6 00       		.sleb128 0
 7601 0fc7 33       		.byte	0x33
 7602 0fc8 25       		.byte	0x25
 7603 0fc9 76       		.byte	0x76
 7604 0fca 00       		.sleb128 0
 7605 0fcb 22       		.byte	0x22
 7606 0fcc 23       		.byte	0x23
 7607 0fcd 01       		.uleb128 0x1
 7608 0fce 94       		.byte	0x94
 7609 0fcf 01       		.byte	0x1
 7610 0fd0 08       		.byte	0x8
 7611 0fd1 FF       		.byte	0xff
 7612 0fd2 1A       		.byte	0x1a
 7613 0fd3 22       		.byte	0x22
 7614 0fd4 9F       		.byte	0x9f
 7615 0fd5 00000000 		.4byte	0
 7616 0fd9 00000000 		.4byte	0
 7617              	.LLST75:
 7618 0fdd BE010000 		.4byte	.LVL73
 7619 0fe1 D0010000 		.4byte	.LVL75
 7620 0fe5 0100     		.2byte	0x1
 7621 0fe7 59       		.byte	0x59
 7622 0fe8 F4010000 		.4byte	.LVL79
 7623 0fec F6010000 		.4byte	.LVL80
 7624 0ff0 0100     		.2byte	0x1
 7625 0ff2 59       		.byte	0x59
 7626 0ff3 F6010000 		.4byte	.LVL80
 7627 0ff7 10020000 		.4byte	.LVL81
 7628 0ffb 0200     		.2byte	0x2
 7629 0ffd 34       		.byte	0x34
 7630 0ffe 9F       		.byte	0x9f
 7631 0fff D2060000 		.4byte	.LVL197
 7632 1003 74070000 		.4byte	.LVL205
 7633 1007 0200     		.2byte	0x2
 7634 1009 34       		.byte	0x34
ARM GAS  C:\Users\pearlstl\AppData\Local\Temp\ccllHTLf.s 			page 150


 7635 100a 9F       		.byte	0x9f
 7636 100b 80070000 		.4byte	.LVL206
 7637 100f 92070000 		.4byte	.LVL208
 7638 1013 0200     		.2byte	0x2
 7639 1015 34       		.byte	0x34
 7640 1016 9F       		.byte	0x9f
 7641 1017 00000000 		.4byte	0
 7642 101b 00000000 		.4byte	0
 7643              	.LLST76:
 7644 101f BE010000 		.4byte	.LVL73
 7645 1023 CC010000 		.4byte	.LVL74
 7646 1027 0100     		.2byte	0x1
 7647 1029 54       		.byte	0x54
 7648 102a CC010000 		.4byte	.LVL74
 7649 102e D0010000 		.4byte	.LVL75
 7650 1032 0200     		.2byte	0x2
 7651 1034 70       		.byte	0x70
 7652 1035 00       		.sleb128 0
 7653 1036 F4010000 		.4byte	.LVL79
 7654 103a 10020000 		.4byte	.LVL81
 7655 103e 0100     		.2byte	0x1
 7656 1040 54       		.byte	0x54
 7657 1041 D2060000 		.4byte	.LVL197
 7658 1045 E6060000 		.4byte	.LVL198
 7659 1049 0200     		.2byte	0x2
 7660 104b 3F       		.byte	0x3f
 7661 104c 9F       		.byte	0x9f
 7662 104d E6060000 		.4byte	.LVL198
 7663 1051 FA060000 		.4byte	.LVL199
 7664 1055 0200     		.2byte	0x2
 7665 1057 3D       		.byte	0x3d
 7666 1058 9F       		.byte	0x9f
 7667 1059 FA060000 		.4byte	.LVL199
 7668 105d 10070000 		.4byte	.LVL200
 7669 1061 0200     		.2byte	0x2
 7670 1063 3B       		.byte	0x3b
 7671 1064 9F       		.byte	0x9f
 7672 1065 10070000 		.4byte	.LVL200
 7673 1069 24070000 		.4byte	.LVL201
 7674 106d 0200     		.2byte	0x2
 7675 106f 39       		.byte	0x39
 7676 1070 9F       		.byte	0x9f
 7677 1071 24070000 		.4byte	.LVL201
 7678 1075 3A070000 		.4byte	.LVL202
 7679 1079 0200     		.2byte	0x2
 7680 107b 36       		.byte	0x36
 7681 107c 9F       		.byte	0x9f
 7682 107d 3A070000 		.4byte	.LVL202
 7683 1081 4E070000 		.4byte	.LVL203
 7684 1085 0200     		.2byte	0x2
 7685 1087 34       		.byte	0x34
 7686 1088 9F       		.byte	0x9f
 7687 1089 4E070000 		.4byte	.LVL203
 7688 108d 64070000 		.4byte	.LVL204
 7689 1091 0200     		.2byte	0x2
 7690 1093 32       		.byte	0x32
 7691 1094 9F       		.byte	0x9f
ARM GAS  C:\Users\pearlstl\AppData\Local\Temp\ccllHTLf.s 			page 151


 7692 1095 64070000 		.4byte	.LVL204
 7693 1099 74070000 		.4byte	.LVL205
 7694 109d 0200     		.2byte	0x2
 7695 109f 30       		.byte	0x30
 7696 10a0 9F       		.byte	0x9f
 7697 10a1 80070000 		.4byte	.LVL206
 7698 10a5 8A070000 		.4byte	.LVL207
 7699 10a9 0100     		.2byte	0x1
 7700 10ab 54       		.byte	0x54
 7701 10ac 8A070000 		.4byte	.LVL207
 7702 10b0 92070000 		.4byte	.LVL208
 7703 10b4 0200     		.2byte	0x2
 7704 10b6 70       		.byte	0x70
 7705 10b7 00       		.sleb128 0
 7706 10b8 00000000 		.4byte	0
 7707 10bc 00000000 		.4byte	0
 7708              	.LLST77:
 7709 10c0 BE010000 		.4byte	.LVL73
 7710 10c4 D0010000 		.4byte	.LVL75
 7711 10c8 0100     		.2byte	0x1
 7712 10ca 51       		.byte	0x51
 7713 10cb F4010000 		.4byte	.LVL79
 7714 10cf 10020000 		.4byte	.LVL81
 7715 10d3 0100     		.2byte	0x1
 7716 10d5 51       		.byte	0x51
 7717 10d6 D2060000 		.4byte	.LVL197
 7718 10da 74070000 		.4byte	.LVL205
 7719 10de 0100     		.2byte	0x1
 7720 10e0 51       		.byte	0x51
 7721 10e1 80070000 		.4byte	.LVL206
 7722 10e5 92070000 		.4byte	.LVL208
 7723 10e9 0100     		.2byte	0x1
 7724 10eb 51       		.byte	0x51
 7725 10ec 00000000 		.4byte	0
 7726 10f0 00000000 		.4byte	0
 7727              	.LLST78:
 7728 10f4 D0010000 		.4byte	.LVL75
 7729 10f8 E4010000 		.4byte	.LVL76
 7730 10fc 0500     		.2byte	0x5
 7731 10fe 71       		.byte	0x71
 7732 10ff 00       		.sleb128 0
 7733 1100 33       		.byte	0x33
 7734 1101 25       		.byte	0x25
 7735 1102 9F       		.byte	0x9f
 7736 1103 00000000 		.4byte	0
 7737 1107 00000000 		.4byte	0
 7738              	.LLST79:
 7739 110b BC030000 		.4byte	.LVL126
 7740 110f EC030000 		.4byte	.LVL127
 7741 1113 0200     		.2byte	0x2
 7742 1115 30       		.byte	0x30
 7743 1116 9F       		.byte	0x9f
 7744 1117 00000000 		.4byte	0
 7745 111b 00000000 		.4byte	0
 7746              	.LLST80:
 7747 111f EC030000 		.4byte	.LVL127
 7748 1123 32040000 		.4byte	.LVL136
ARM GAS  C:\Users\pearlstl\AppData\Local\Temp\ccllHTLf.s 			page 152


 7749 1127 0200     		.2byte	0x2
 7750 1129 30       		.byte	0x30
 7751 112a 9F       		.byte	0x9f
 7752 112b 2C050000 		.4byte	.LVL154
 7753 112f 3A050000 		.4byte	.LVL156
 7754 1133 0200     		.2byte	0x2
 7755 1135 30       		.byte	0x30
 7756 1136 9F       		.byte	0x9f
 7757 1137 9C050000 		.4byte	.LVL164
 7758 113b E2050000 		.4byte	.LVL171
 7759 113f 0200     		.2byte	0x2
 7760 1141 30       		.byte	0x30
 7761 1142 9F       		.byte	0x9f
 7762 1143 3A060000 		.4byte	.LVL176
 7763 1147 42060000 		.4byte	.LVL177
 7764 114b 0200     		.2byte	0x2
 7765 114d 30       		.byte	0x30
 7766 114e 9F       		.byte	0x9f
 7767 114f 00000000 		.4byte	0
 7768 1153 00000000 		.4byte	0
 7769              	.LLST81:
 7770 1157 EC030000 		.4byte	.LVL127
 7771 115b 16040000 		.4byte	.LVL135
 7772 115f 0200     		.2byte	0x2
 7773 1161 30       		.byte	0x30
 7774 1162 9F       		.byte	0x9f
 7775 1163 2C050000 		.4byte	.LVL154
 7776 1167 8C050000 		.4byte	.LVL163
 7777 116b 0200     		.2byte	0x2
 7778 116d 30       		.byte	0x30
 7779 116e 9F       		.byte	0x9f
 7780 116f 9C050000 		.4byte	.LVL164
 7781 1173 B0050000 		.4byte	.LVL167
 7782 1177 0100     		.2byte	0x1
 7783 1179 56       		.byte	0x56
 7784 117a 3A060000 		.4byte	.LVL176
 7785 117e 86060000 		.4byte	.LVL188
 7786 1182 0100     		.2byte	0x1
 7787 1184 56       		.byte	0x56
 7788 1185 BA060000 		.4byte	.LVL194
 7789 1189 C6060000 		.4byte	.LVL195
 7790 118d 0100     		.2byte	0x1
 7791 118f 56       		.byte	0x56
 7792 1190 00000000 		.4byte	0
 7793 1194 00000000 		.4byte	0
 7794              	.LLST82:
 7795 1198 F2030000 		.4byte	.LVL128
 7796 119c 16040000 		.4byte	.LVL135
 7797 11a0 0500     		.2byte	0x5
 7798 11a2 03       		.byte	0x3
 7799 11a3 08000000 		.4byte	rle_bpp
 7800 11a7 00000000 		.4byte	0
 7801 11ab 00000000 		.4byte	0
 7802              	.LLST83:
 7803 11af F2030000 		.4byte	.LVL128
 7804 11b3 F4030000 		.4byte	.LVL129
 7805 11b7 0100     		.2byte	0x1
ARM GAS  C:\Users\pearlstl\AppData\Local\Temp\ccllHTLf.s 			page 153


 7806 11b9 54       		.byte	0x54
 7807 11ba F4030000 		.4byte	.LVL129
 7808 11be 08040000 		.4byte	.LVL133
 7809 11c2 0500     		.2byte	0x5
 7810 11c4 74       		.byte	0x74
 7811 11c5 00       		.sleb128 0
 7812 11c6 37       		.byte	0x37
 7813 11c7 1A       		.byte	0x1a
 7814 11c8 9F       		.byte	0x9f
 7815 11c9 08040000 		.4byte	.LVL133
 7816 11cd 0C040000 		.4byte	.LVL134
 7817 11d1 0100     		.2byte	0x1
 7818 11d3 53       		.byte	0x53
 7819 11d4 0C040000 		.4byte	.LVL134
 7820 11d8 16040000 		.4byte	.LVL135
 7821 11dc 0500     		.2byte	0x5
 7822 11de 74       		.byte	0x74
 7823 11df 00       		.sleb128 0
 7824 11e0 37       		.byte	0x37
 7825 11e1 1A       		.byte	0x1a
 7826 11e2 9F       		.byte	0x9f
 7827 11e3 00000000 		.4byte	0
 7828 11e7 00000000 		.4byte	0
 7829              	.LLST84:
 7830 11eb F2030000 		.4byte	.LVL128
 7831 11ef 16040000 		.4byte	.LVL135
 7832 11f3 0500     		.2byte	0x5
 7833 11f5 03       		.byte	0x3
 7834 11f6 04000000 		.4byte	rle_in
 7835 11fa 00000000 		.4byte	0
 7836 11fe 00000000 		.4byte	0
 7837              	.LLST85:
 7838 1202 F2030000 		.4byte	.LVL128
 7839 1206 16040000 		.4byte	.LVL135
 7840 120a 0200     		.2byte	0x2
 7841 120c 30       		.byte	0x30
 7842 120d 9F       		.byte	0x9f
 7843 120e 00000000 		.4byte	0
 7844 1212 00000000 		.4byte	0
 7845              	.LLST86:
 7846 1216 F4030000 		.4byte	.LVL129
 7847 121a FC030000 		.4byte	.LVL131
 7848 121e 0100     		.2byte	0x1
 7849 1220 50       		.byte	0x50
 7850 1221 FC030000 		.4byte	.LVL131
 7851 1225 16040000 		.4byte	.LVL135
 7852 1229 0500     		.2byte	0x5
 7853 122b 74       		.byte	0x74
 7854 122c 00       		.sleb128 0
 7855 122d 33       		.byte	0x33
 7856 122e 25       		.byte	0x25
 7857 122f 9F       		.byte	0x9f
 7858 1230 00000000 		.4byte	0
 7859 1234 00000000 		.4byte	0
 7860              	.LLST87:
 7861 1238 F4030000 		.4byte	.LVL129
 7862 123c 16040000 		.4byte	.LVL135
ARM GAS  C:\Users\pearlstl\AppData\Local\Temp\ccllHTLf.s 			page 154


 7863 1240 0900     		.2byte	0x9
 7864 1242 31       		.byte	0x31
 7865 1243 91       		.byte	0x91
 7866 1244 48       		.sleb128 -56
 7867 1245 94       		.byte	0x94
 7868 1246 01       		.byte	0x1
 7869 1247 24       		.byte	0x24
 7870 1248 31       		.byte	0x31
 7871 1249 1C       		.byte	0x1c
 7872 124a 9F       		.byte	0x9f
 7873 124b 00000000 		.4byte	0
 7874 124f 00000000 		.4byte	0
 7875              	.LLST88:
 7876 1253 F4030000 		.4byte	.LVL129
 7877 1257 F8030000 		.4byte	.LVL130
 7878 125b 1A00     		.2byte	0x1a
 7879 125d 7C       		.byte	0x7c
 7880 125e 00       		.sleb128 0
 7881 125f 70       		.byte	0x70
 7882 1260 00       		.sleb128 0
 7883 1261 22       		.byte	0x22
 7884 1262 94       		.byte	0x94
 7885 1263 01       		.byte	0x1
 7886 1264 08       		.byte	0x8
 7887 1265 FF       		.byte	0xff
 7888 1266 1A       		.byte	0x1a
 7889 1267 38       		.byte	0x38
 7890 1268 24       		.byte	0x24
 7891 1269 7C       		.byte	0x7c
 7892 126a 00       		.sleb128 0
 7893 126b 70       		.byte	0x70
 7894 126c 00       		.sleb128 0
 7895 126d 22       		.byte	0x22
 7896 126e 23       		.byte	0x23
 7897 126f 01       		.uleb128 0x1
 7898 1270 94       		.byte	0x94
 7899 1271 01       		.byte	0x1
 7900 1272 08       		.byte	0x8
 7901 1273 FF       		.byte	0xff
 7902 1274 1A       		.byte	0x1a
 7903 1275 22       		.byte	0x22
 7904 1276 9F       		.byte	0x9f
 7905 1277 F8030000 		.4byte	.LVL130
 7906 127b FE030000 		.4byte	.LVL132
 7907 127f 1200     		.2byte	0x12
 7908 1281 73       		.byte	0x73
 7909 1282 00       		.sleb128 0
 7910 1283 94       		.byte	0x94
 7911 1284 01       		.byte	0x1
 7912 1285 08       		.byte	0x8
 7913 1286 FF       		.byte	0xff
 7914 1287 1A       		.byte	0x1a
 7915 1288 38       		.byte	0x38
 7916 1289 24       		.byte	0x24
 7917 128a 73       		.byte	0x73
 7918 128b 01       		.sleb128 1
 7919 128c 94       		.byte	0x94
ARM GAS  C:\Users\pearlstl\AppData\Local\Temp\ccllHTLf.s 			page 155


 7920 128d 01       		.byte	0x1
 7921 128e 08       		.byte	0x8
 7922 128f FF       		.byte	0xff
 7923 1290 1A       		.byte	0x1a
 7924 1291 22       		.byte	0x22
 7925 1292 9F       		.byte	0x9f
 7926 1293 FE030000 		.4byte	.LVL132
 7927 1297 16040000 		.4byte	.LVL135
 7928 129b 1E00     		.2byte	0x1e
 7929 129d 74       		.byte	0x74
 7930 129e 00       		.sleb128 0
 7931 129f 33       		.byte	0x33
 7932 12a0 25       		.byte	0x25
 7933 12a1 7C       		.byte	0x7c
 7934 12a2 00       		.sleb128 0
 7935 12a3 22       		.byte	0x22
 7936 12a4 94       		.byte	0x94
 7937 12a5 01       		.byte	0x1
 7938 12a6 08       		.byte	0x8
 7939 12a7 FF       		.byte	0xff
 7940 12a8 1A       		.byte	0x1a
 7941 12a9 38       		.byte	0x38
 7942 12aa 24       		.byte	0x24
 7943 12ab 74       		.byte	0x74
 7944 12ac 00       		.sleb128 0
 7945 12ad 33       		.byte	0x33
 7946 12ae 25       		.byte	0x25
 7947 12af 7C       		.byte	0x7c
 7948 12b0 00       		.sleb128 0
 7949 12b1 22       		.byte	0x22
 7950 12b2 23       		.byte	0x23
 7951 12b3 01       		.uleb128 0x1
 7952 12b4 94       		.byte	0x94
 7953 12b5 01       		.byte	0x1
 7954 12b6 08       		.byte	0x8
 7955 12b7 FF       		.byte	0xff
 7956 12b8 1A       		.byte	0x1a
 7957 12b9 22       		.byte	0x22
 7958 12ba 9F       		.byte	0x9f
 7959 12bb 00000000 		.4byte	0
 7960 12bf 00000000 		.4byte	0
 7961              	.LLST89:
 7962 12c3 38050000 		.4byte	.LVL155
 7963 12c7 3A050000 		.4byte	.LVL156
 7964 12cb 0200     		.2byte	0x2
 7965 12cd 31       		.byte	0x31
 7966 12ce 9F       		.byte	0x9f
 7967 12cf 00000000 		.4byte	0
 7968 12d3 00000000 		.4byte	0
 7969              	.LLST90:
 7970 12d7 38050000 		.4byte	.LVL155
 7971 12db 3A050000 		.4byte	.LVL156
 7972 12df 0100     		.2byte	0x1
 7973 12e1 54       		.byte	0x54
 7974 12e2 00000000 		.4byte	0
 7975 12e6 00000000 		.4byte	0
 7976              	.LLST91:
ARM GAS  C:\Users\pearlstl\AppData\Local\Temp\ccllHTLf.s 			page 156


 7977 12ea 38050000 		.4byte	.LVL155
 7978 12ee 3A050000 		.4byte	.LVL156
 7979 12f2 0500     		.2byte	0x5
 7980 12f4 03       		.byte	0x3
 7981 12f5 04000000 		.4byte	rle_in
 7982 12f9 00000000 		.4byte	0
 7983 12fd 00000000 		.4byte	0
 7984              	.LLST92:
 7985 1301 38050000 		.4byte	.LVL155
 7986 1305 3A050000 		.4byte	.LVL156
 7987 1309 0200     		.2byte	0x2
 7988 130b 30       		.byte	0x30
 7989 130c 9F       		.byte	0x9f
 7990 130d 00000000 		.4byte	0
 7991 1311 00000000 		.4byte	0
 7992              	.LLST93:
 7993 1315 66050000 		.4byte	.LVL157
 7994 1319 8C050000 		.4byte	.LVL163
 7995 131d 0500     		.2byte	0x5
 7996 131f 03       		.byte	0x3
 7997 1320 08000000 		.4byte	rle_bpp
 7998 1324 00000000 		.4byte	0
 7999 1328 00000000 		.4byte	0
 8000              	.LLST94:
 8001 132c 66050000 		.4byte	.LVL157
 8002 1330 6A050000 		.4byte	.LVL158
 8003 1334 0100     		.2byte	0x1
 8004 1336 5B       		.byte	0x5b
 8005 1337 6A050000 		.4byte	.LVL158
 8006 133b 80050000 		.4byte	.LVL161
 8007 133f 0500     		.2byte	0x5
 8008 1341 7B       		.byte	0x7b
 8009 1342 00       		.sleb128 0
 8010 1343 37       		.byte	0x37
 8011 1344 1A       		.byte	0x1a
 8012 1345 9F       		.byte	0x9f
 8013 1346 80050000 		.4byte	.LVL161
 8014 134a 82050000 		.4byte	.LVL162
 8015 134e 0100     		.2byte	0x1
 8016 1350 50       		.byte	0x50
 8017 1351 82050000 		.4byte	.LVL162
 8018 1355 8C050000 		.4byte	.LVL163
 8019 1359 0500     		.2byte	0x5
 8020 135b 7B       		.byte	0x7b
 8021 135c 00       		.sleb128 0
 8022 135d 37       		.byte	0x37
 8023 135e 1A       		.byte	0x1a
 8024 135f 9F       		.byte	0x9f
 8025 1360 00000000 		.4byte	0
 8026 1364 00000000 		.4byte	0
 8027              	.LLST95:
 8028 1368 66050000 		.4byte	.LVL157
 8029 136c 8C050000 		.4byte	.LVL163
 8030 1370 0500     		.2byte	0x5
 8031 1372 03       		.byte	0x3
 8032 1373 04000000 		.4byte	rle_in
 8033 1377 00000000 		.4byte	0
ARM GAS  C:\Users\pearlstl\AppData\Local\Temp\ccllHTLf.s 			page 157


 8034 137b 00000000 		.4byte	0
 8035              	.LLST96:
 8036 137f 66050000 		.4byte	.LVL157
 8037 1383 8C050000 		.4byte	.LVL163
 8038 1387 0200     		.2byte	0x2
 8039 1389 30       		.byte	0x30
 8040 138a 9F       		.byte	0x9f
 8041 138b 00000000 		.4byte	0
 8042 138f 00000000 		.4byte	0
 8043              	.LLST97:
 8044 1393 6A050000 		.4byte	.LVL158
 8045 1397 80050000 		.4byte	.LVL161
 8046 139b 0100     		.2byte	0x1
 8047 139d 50       		.byte	0x50
 8048 139e 80050000 		.4byte	.LVL161
 8049 13a2 8C050000 		.4byte	.LVL163
 8050 13a6 0500     		.2byte	0x5
 8051 13a8 7B       		.byte	0x7b
 8052 13a9 00       		.sleb128 0
 8053 13aa 33       		.byte	0x33
 8054 13ab 25       		.byte	0x25
 8055 13ac 9F       		.byte	0x9f
 8056 13ad 00000000 		.4byte	0
 8057 13b1 00000000 		.4byte	0
 8058              	.LLST98:
 8059 13b5 6A050000 		.4byte	.LVL158
 8060 13b9 8C050000 		.4byte	.LVL163
 8061 13bd 0900     		.2byte	0x9
 8062 13bf 31       		.byte	0x31
 8063 13c0 91       		.byte	0x91
 8064 13c1 48       		.sleb128 -56
 8065 13c2 94       		.byte	0x94
 8066 13c3 01       		.byte	0x1
 8067 13c4 24       		.byte	0x24
 8068 13c5 31       		.byte	0x31
 8069 13c6 1C       		.byte	0x1c
 8070 13c7 9F       		.byte	0x9f
 8071 13c8 00000000 		.4byte	0
 8072 13cc 00000000 		.4byte	0
 8073              	.LLST99:
 8074 13d0 6A050000 		.4byte	.LVL158
 8075 13d4 6E050000 		.4byte	.LVL159
 8076 13d8 1A00     		.2byte	0x1a
 8077 13da 7C       		.byte	0x7c
 8078 13db 00       		.sleb128 0
 8079 13dc 70       		.byte	0x70
 8080 13dd 00       		.sleb128 0
 8081 13de 22       		.byte	0x22
 8082 13df 94       		.byte	0x94
 8083 13e0 01       		.byte	0x1
 8084 13e1 08       		.byte	0x8
 8085 13e2 FF       		.byte	0xff
 8086 13e3 1A       		.byte	0x1a
 8087 13e4 38       		.byte	0x38
 8088 13e5 24       		.byte	0x24
 8089 13e6 7C       		.byte	0x7c
 8090 13e7 00       		.sleb128 0
ARM GAS  C:\Users\pearlstl\AppData\Local\Temp\ccllHTLf.s 			page 158


 8091 13e8 70       		.byte	0x70
 8092 13e9 00       		.sleb128 0
 8093 13ea 22       		.byte	0x22
 8094 13eb 23       		.byte	0x23
 8095 13ec 01       		.uleb128 0x1
 8096 13ed 94       		.byte	0x94
 8097 13ee 01       		.byte	0x1
 8098 13ef 08       		.byte	0x8
 8099 13f0 FF       		.byte	0xff
 8100 13f1 1A       		.byte	0x1a
 8101 13f2 22       		.byte	0x22
 8102 13f3 9F       		.byte	0x9f
 8103 13f4 6E050000 		.4byte	.LVL159
 8104 13f8 74050000 		.4byte	.LVL160
 8105 13fc 1200     		.2byte	0x12
 8106 13fe 73       		.byte	0x73
 8107 13ff 00       		.sleb128 0
 8108 1400 94       		.byte	0x94
 8109 1401 01       		.byte	0x1
 8110 1402 08       		.byte	0x8
 8111 1403 FF       		.byte	0xff
 8112 1404 1A       		.byte	0x1a
 8113 1405 38       		.byte	0x38
 8114 1406 24       		.byte	0x24
 8115 1407 73       		.byte	0x73
 8116 1408 01       		.sleb128 1
 8117 1409 94       		.byte	0x94
 8118 140a 01       		.byte	0x1
 8119 140b 08       		.byte	0x8
 8120 140c FF       		.byte	0xff
 8121 140d 1A       		.byte	0x1a
 8122 140e 22       		.byte	0x22
 8123 140f 9F       		.byte	0x9f
 8124 1410 74050000 		.4byte	.LVL160
 8125 1414 80050000 		.4byte	.LVL161
 8126 1418 1A00     		.2byte	0x1a
 8127 141a 7C       		.byte	0x7c
 8128 141b 00       		.sleb128 0
 8129 141c 70       		.byte	0x70
 8130 141d 00       		.sleb128 0
 8131 141e 22       		.byte	0x22
 8132 141f 94       		.byte	0x94
 8133 1420 01       		.byte	0x1
 8134 1421 08       		.byte	0x8
 8135 1422 FF       		.byte	0xff
 8136 1423 1A       		.byte	0x1a
 8137 1424 38       		.byte	0x38
 8138 1425 24       		.byte	0x24
 8139 1426 7C       		.byte	0x7c
 8140 1427 00       		.sleb128 0
 8141 1428 70       		.byte	0x70
 8142 1429 00       		.sleb128 0
 8143 142a 22       		.byte	0x22
 8144 142b 23       		.byte	0x23
 8145 142c 01       		.uleb128 0x1
 8146 142d 94       		.byte	0x94
 8147 142e 01       		.byte	0x1
ARM GAS  C:\Users\pearlstl\AppData\Local\Temp\ccllHTLf.s 			page 159


 8148 142f 08       		.byte	0x8
 8149 1430 FF       		.byte	0xff
 8150 1431 1A       		.byte	0x1a
 8151 1432 22       		.byte	0x22
 8152 1433 9F       		.byte	0x9f
 8153 1434 80050000 		.4byte	.LVL161
 8154 1438 8C050000 		.4byte	.LVL163
 8155 143c 1E00     		.2byte	0x1e
 8156 143e 7B       		.byte	0x7b
 8157 143f 00       		.sleb128 0
 8158 1440 33       		.byte	0x33
 8159 1441 25       		.byte	0x25
 8160 1442 7C       		.byte	0x7c
 8161 1443 00       		.sleb128 0
 8162 1444 22       		.byte	0x22
 8163 1445 94       		.byte	0x94
 8164 1446 01       		.byte	0x1
 8165 1447 08       		.byte	0x8
 8166 1448 FF       		.byte	0xff
 8167 1449 1A       		.byte	0x1a
 8168 144a 38       		.byte	0x38
 8169 144b 24       		.byte	0x24
 8170 144c 7B       		.byte	0x7b
 8171 144d 00       		.sleb128 0
 8172 144e 33       		.byte	0x33
 8173 144f 25       		.byte	0x25
 8174 1450 7C       		.byte	0x7c
 8175 1451 00       		.sleb128 0
 8176 1452 22       		.byte	0x22
 8177 1453 23       		.byte	0x23
 8178 1454 01       		.uleb128 0x1
 8179 1455 94       		.byte	0x94
 8180 1456 01       		.byte	0x1
 8181 1457 08       		.byte	0x8
 8182 1458 FF       		.byte	0xff
 8183 1459 1A       		.byte	0x1a
 8184 145a 22       		.byte	0x22
 8185 145b 9F       		.byte	0x9f
 8186 145c 00000000 		.4byte	0
 8187 1460 00000000 		.4byte	0
 8188              	.LLST100:
 8189 1464 AA050000 		.4byte	.LVL165
 8190 1468 D2050000 		.4byte	.LVL170
 8191 146c 0500     		.2byte	0x5
 8192 146e 03       		.byte	0x3
 8193 146f 08000000 		.4byte	rle_bpp
 8194 1473 00000000 		.4byte	0
 8195 1477 00000000 		.4byte	0
 8196              	.LLST101:
 8197 147b AA050000 		.4byte	.LVL165
 8198 147f AC050000 		.4byte	.LVL166
 8199 1483 0100     		.2byte	0x1
 8200 1485 54       		.byte	0x54
 8201 1486 AC050000 		.4byte	.LVL166
 8202 148a C2050000 		.4byte	.LVL169
 8203 148e 0500     		.2byte	0x5
 8204 1490 74       		.byte	0x74
ARM GAS  C:\Users\pearlstl\AppData\Local\Temp\ccllHTLf.s 			page 160


 8205 1491 00       		.sleb128 0
 8206 1492 37       		.byte	0x37
 8207 1493 1A       		.byte	0x1a
 8208 1494 9F       		.byte	0x9f
 8209 1495 C2050000 		.4byte	.LVL169
 8210 1499 D2050000 		.4byte	.LVL170
 8211 149d 0100     		.2byte	0x1
 8212 149f 56       		.byte	0x56
 8213 14a0 00000000 		.4byte	0
 8214 14a4 00000000 		.4byte	0
 8215              	.LLST102:
 8216 14a8 AA050000 		.4byte	.LVL165
 8217 14ac D2050000 		.4byte	.LVL170
 8218 14b0 0500     		.2byte	0x5
 8219 14b2 03       		.byte	0x3
 8220 14b3 04000000 		.4byte	rle_in
 8221 14b7 00000000 		.4byte	0
 8222 14bb 00000000 		.4byte	0
 8223              	.LLST103:
 8224 14bf AA050000 		.4byte	.LVL165
 8225 14c3 D2050000 		.4byte	.LVL170
 8226 14c7 0200     		.2byte	0x2
 8227 14c9 30       		.byte	0x30
 8228 14ca 9F       		.byte	0x9f
 8229 14cb 00000000 		.4byte	0
 8230 14cf 00000000 		.4byte	0
 8231              	.LLST104:
 8232 14d3 AC050000 		.4byte	.LVL166
 8233 14d7 B6050000 		.4byte	.LVL168
 8234 14db 0100     		.2byte	0x1
 8235 14dd 53       		.byte	0x53
 8236 14de B6050000 		.4byte	.LVL168
 8237 14e2 D2050000 		.4byte	.LVL170
 8238 14e6 0500     		.2byte	0x5
 8239 14e8 74       		.byte	0x74
 8240 14e9 00       		.sleb128 0
 8241 14ea 33       		.byte	0x33
 8242 14eb 25       		.byte	0x25
 8243 14ec 9F       		.byte	0x9f
 8244 14ed 00000000 		.4byte	0
 8245 14f1 00000000 		.4byte	0
 8246              	.LLST105:
 8247 14f5 AC050000 		.4byte	.LVL166
 8248 14f9 D2050000 		.4byte	.LVL170
 8249 14fd 0900     		.2byte	0x9
 8250 14ff 31       		.byte	0x31
 8251 1500 91       		.byte	0x91
 8252 1501 48       		.sleb128 -56
 8253 1502 94       		.byte	0x94
 8254 1503 01       		.byte	0x1
 8255 1504 24       		.byte	0x24
 8256 1505 31       		.byte	0x31
 8257 1506 1C       		.byte	0x1c
 8258 1507 9F       		.byte	0x9f
 8259 1508 00000000 		.4byte	0
 8260 150c 00000000 		.4byte	0
 8261              	.LLST106:
ARM GAS  C:\Users\pearlstl\AppData\Local\Temp\ccllHTLf.s 			page 161


 8262 1510 AC050000 		.4byte	.LVL166
 8263 1514 B0050000 		.4byte	.LVL167
 8264 1518 1A00     		.2byte	0x1a
 8265 151a 7C       		.byte	0x7c
 8266 151b 00       		.sleb128 0
 8267 151c 73       		.byte	0x73
 8268 151d 00       		.sleb128 0
 8269 151e 22       		.byte	0x22
 8270 151f 94       		.byte	0x94
 8271 1520 01       		.byte	0x1
 8272 1521 08       		.byte	0x8
 8273 1522 FF       		.byte	0xff
 8274 1523 1A       		.byte	0x1a
 8275 1524 38       		.byte	0x38
 8276 1525 24       		.byte	0x24
 8277 1526 7C       		.byte	0x7c
 8278 1527 00       		.sleb128 0
 8279 1528 73       		.byte	0x73
 8280 1529 00       		.sleb128 0
 8281 152a 22       		.byte	0x22
 8282 152b 23       		.byte	0x23
 8283 152c 01       		.uleb128 0x1
 8284 152d 94       		.byte	0x94
 8285 152e 01       		.byte	0x1
 8286 152f 08       		.byte	0x8
 8287 1530 FF       		.byte	0xff
 8288 1531 1A       		.byte	0x1a
 8289 1532 22       		.byte	0x22
 8290 1533 9F       		.byte	0x9f
 8291 1534 B0050000 		.4byte	.LVL167
 8292 1538 C2050000 		.4byte	.LVL169
 8293 153c 1200     		.2byte	0x12
 8294 153e 76       		.byte	0x76
 8295 153f 00       		.sleb128 0
 8296 1540 94       		.byte	0x94
 8297 1541 01       		.byte	0x1
 8298 1542 08       		.byte	0x8
 8299 1543 FF       		.byte	0xff
 8300 1544 1A       		.byte	0x1a
 8301 1545 38       		.byte	0x38
 8302 1546 24       		.byte	0x24
 8303 1547 76       		.byte	0x76
 8304 1548 01       		.sleb128 1
 8305 1549 94       		.byte	0x94
 8306 154a 01       		.byte	0x1
 8307 154b 08       		.byte	0x8
 8308 154c FF       		.byte	0xff
 8309 154d 1A       		.byte	0x1a
 8310 154e 22       		.byte	0x22
 8311 154f 9F       		.byte	0x9f
 8312 1550 C2050000 		.4byte	.LVL169
 8313 1554 D2050000 		.4byte	.LVL170
 8314 1558 1E00     		.2byte	0x1e
 8315 155a 74       		.byte	0x74
 8316 155b 00       		.sleb128 0
 8317 155c 33       		.byte	0x33
 8318 155d 25       		.byte	0x25
ARM GAS  C:\Users\pearlstl\AppData\Local\Temp\ccllHTLf.s 			page 162


 8319 155e 7C       		.byte	0x7c
 8320 155f 00       		.sleb128 0
 8321 1560 22       		.byte	0x22
 8322 1561 94       		.byte	0x94
 8323 1562 01       		.byte	0x1
 8324 1563 08       		.byte	0x8
 8325 1564 FF       		.byte	0xff
 8326 1565 1A       		.byte	0x1a
 8327 1566 38       		.byte	0x38
 8328 1567 24       		.byte	0x24
 8329 1568 74       		.byte	0x74
 8330 1569 00       		.sleb128 0
 8331 156a 33       		.byte	0x33
 8332 156b 25       		.byte	0x25
 8333 156c 7C       		.byte	0x7c
 8334 156d 00       		.sleb128 0
 8335 156e 22       		.byte	0x22
 8336 156f 23       		.byte	0x23
 8337 1570 01       		.uleb128 0x1
 8338 1571 94       		.byte	0x94
 8339 1572 01       		.byte	0x1
 8340 1573 08       		.byte	0x8
 8341 1574 FF       		.byte	0xff
 8342 1575 1A       		.byte	0x1a
 8343 1576 22       		.byte	0x22
 8344 1577 9F       		.byte	0x9f
 8345 1578 00000000 		.4byte	0
 8346 157c 00000000 		.4byte	0
 8347              	.LLST107:
 8348 1580 54060000 		.4byte	.LVL178
 8349 1584 7E060000 		.4byte	.LVL186
 8350 1588 0200     		.2byte	0x2
 8351 158a 36       		.byte	0x36
 8352 158b 9F       		.byte	0x9f
 8353 158c 00000000 		.4byte	0
 8354 1590 00000000 		.4byte	0
 8355              	.LLST108:
 8356 1594 54060000 		.4byte	.LVL178
 8357 1598 58060000 		.4byte	.LVL179
 8358 159c 0100     		.2byte	0x1
 8359 159e 5B       		.byte	0x5b
 8360 159f 58060000 		.4byte	.LVL179
 8361 15a3 66060000 		.4byte	.LVL183
 8362 15a7 0500     		.2byte	0x5
 8363 15a9 7B       		.byte	0x7b
 8364 15aa 00       		.sleb128 0
 8365 15ab 37       		.byte	0x37
 8366 15ac 1A       		.byte	0x1a
 8367 15ad 9F       		.byte	0x9f
 8368 15ae 66060000 		.4byte	.LVL183
 8369 15b2 6E060000 		.4byte	.LVL184
 8370 15b6 0100     		.2byte	0x1
 8371 15b8 5B       		.byte	0x5b
 8372 15b9 6E060000 		.4byte	.LVL184
 8373 15bd 7A060000 		.4byte	.LVL185
 8374 15c1 0500     		.2byte	0x5
 8375 15c3 74       		.byte	0x74
ARM GAS  C:\Users\pearlstl\AppData\Local\Temp\ccllHTLf.s 			page 163


 8376 15c4 01       		.sleb128 1
 8377 15c5 37       		.byte	0x37
 8378 15c6 1A       		.byte	0x1a
 8379 15c7 9F       		.byte	0x9f
 8380 15c8 7A060000 		.4byte	.LVL185
 8381 15cc 7E060000 		.4byte	.LVL186
 8382 15d0 0500     		.2byte	0x5
 8383 15d2 74       		.byte	0x74
 8384 15d3 7A       		.sleb128 -6
 8385 15d4 37       		.byte	0x37
 8386 15d5 1A       		.byte	0x1a
 8387 15d6 9F       		.byte	0x9f
 8388 15d7 00000000 		.4byte	0
 8389 15db 00000000 		.4byte	0
 8390              	.LLST109:
 8391 15df 54060000 		.4byte	.LVL178
 8392 15e3 7E060000 		.4byte	.LVL186
 8393 15e7 0500     		.2byte	0x5
 8394 15e9 03       		.byte	0x3
 8395 15ea 04000000 		.4byte	rle_in
 8396 15ee 00000000 		.4byte	0
 8397 15f2 00000000 		.4byte	0
 8398              	.LLST110:
 8399 15f6 54060000 		.4byte	.LVL178
 8400 15fa 7E060000 		.4byte	.LVL186
 8401 15fe 0200     		.2byte	0x2
 8402 1600 30       		.byte	0x30
 8403 1601 9F       		.byte	0x9f
 8404 1602 00000000 		.4byte	0
 8405 1606 00000000 		.4byte	0
 8406              	.LLST111:
 8407 160a 58060000 		.4byte	.LVL179
 8408 160e 60060000 		.4byte	.LVL181
 8409 1612 0100     		.2byte	0x1
 8410 1614 55       		.byte	0x55
 8411 1615 60060000 		.4byte	.LVL181
 8412 1619 66060000 		.4byte	.LVL183
 8413 161d 0500     		.2byte	0x5
 8414 161f 7B       		.byte	0x7b
 8415 1620 00       		.sleb128 0
 8416 1621 33       		.byte	0x33
 8417 1622 25       		.byte	0x25
 8418 1623 9F       		.byte	0x9f
 8419 1624 66060000 		.4byte	.LVL183
 8420 1628 7A060000 		.4byte	.LVL185
 8421 162c 0500     		.2byte	0x5
 8422 162e 74       		.byte	0x74
 8423 162f 01       		.sleb128 1
 8424 1630 33       		.byte	0x33
 8425 1631 25       		.byte	0x25
 8426 1632 9F       		.byte	0x9f
 8427 1633 7A060000 		.4byte	.LVL185
 8428 1637 7E060000 		.4byte	.LVL186
 8429 163b 0500     		.2byte	0x5
 8430 163d 74       		.byte	0x74
 8431 163e 7A       		.sleb128 -6
 8432 163f 33       		.byte	0x33
ARM GAS  C:\Users\pearlstl\AppData\Local\Temp\ccllHTLf.s 			page 164


 8433 1640 25       		.byte	0x25
 8434 1641 9F       		.byte	0x9f
 8435 1642 00000000 		.4byte	0
 8436 1646 00000000 		.4byte	0
 8437              	.LLST112:
 8438 164a 58060000 		.4byte	.LVL179
 8439 164e 7E060000 		.4byte	.LVL186
 8440 1652 0300     		.2byte	0x3
 8441 1654 08       		.byte	0x8
 8442 1655 3F       		.byte	0x3f
 8443 1656 9F       		.byte	0x9f
 8444 1657 00000000 		.4byte	0
 8445 165b 00000000 		.4byte	0
 8446              	.LLST113:
 8447 165f 58060000 		.4byte	.LVL179
 8448 1663 5C060000 		.4byte	.LVL180
 8449 1667 1A00     		.2byte	0x1a
 8450 1669 7C       		.byte	0x7c
 8451 166a 00       		.sleb128 0
 8452 166b 75       		.byte	0x75
 8453 166c 00       		.sleb128 0
 8454 166d 22       		.byte	0x22
 8455 166e 94       		.byte	0x94
 8456 166f 01       		.byte	0x1
 8457 1670 08       		.byte	0x8
 8458 1671 FF       		.byte	0xff
 8459 1672 1A       		.byte	0x1a
 8460 1673 38       		.byte	0x38
 8461 1674 24       		.byte	0x24
 8462 1675 7C       		.byte	0x7c
 8463 1676 00       		.sleb128 0
 8464 1677 75       		.byte	0x75
 8465 1678 00       		.sleb128 0
 8466 1679 22       		.byte	0x22
 8467 167a 23       		.byte	0x23
 8468 167b 01       		.uleb128 0x1
 8469 167c 94       		.byte	0x94
 8470 167d 01       		.byte	0x1
 8471 167e 08       		.byte	0x8
 8472 167f FF       		.byte	0xff
 8473 1680 1A       		.byte	0x1a
 8474 1681 22       		.byte	0x22
 8475 1682 9F       		.byte	0x9f
 8476 1683 5C060000 		.4byte	.LVL180
 8477 1687 62060000 		.4byte	.LVL182
 8478 168b 1200     		.2byte	0x12
 8479 168d 73       		.byte	0x73
 8480 168e 00       		.sleb128 0
 8481 168f 94       		.byte	0x94
 8482 1690 01       		.byte	0x1
 8483 1691 08       		.byte	0x8
 8484 1692 FF       		.byte	0xff
 8485 1693 1A       		.byte	0x1a
 8486 1694 38       		.byte	0x38
 8487 1695 24       		.byte	0x24
 8488 1696 73       		.byte	0x73
 8489 1697 01       		.sleb128 1
ARM GAS  C:\Users\pearlstl\AppData\Local\Temp\ccllHTLf.s 			page 165


 8490 1698 94       		.byte	0x94
 8491 1699 01       		.byte	0x1
 8492 169a 08       		.byte	0x8
 8493 169b FF       		.byte	0xff
 8494 169c 1A       		.byte	0x1a
 8495 169d 22       		.byte	0x22
 8496 169e 9F       		.byte	0x9f
 8497 169f 62060000 		.4byte	.LVL182
 8498 16a3 66060000 		.4byte	.LVL183
 8499 16a7 1E00     		.2byte	0x1e
 8500 16a9 7B       		.byte	0x7b
 8501 16aa 00       		.sleb128 0
 8502 16ab 33       		.byte	0x33
 8503 16ac 25       		.byte	0x25
 8504 16ad 7C       		.byte	0x7c
 8505 16ae 00       		.sleb128 0
 8506 16af 22       		.byte	0x22
 8507 16b0 94       		.byte	0x94
 8508 16b1 01       		.byte	0x1
 8509 16b2 08       		.byte	0x8
 8510 16b3 FF       		.byte	0xff
 8511 16b4 1A       		.byte	0x1a
 8512 16b5 38       		.byte	0x38
 8513 16b6 24       		.byte	0x24
 8514 16b7 7B       		.byte	0x7b
 8515 16b8 00       		.sleb128 0
 8516 16b9 33       		.byte	0x33
 8517 16ba 25       		.byte	0x25
 8518 16bb 7C       		.byte	0x7c
 8519 16bc 00       		.sleb128 0
 8520 16bd 22       		.byte	0x22
 8521 16be 23       		.byte	0x23
 8522 16bf 01       		.uleb128 0x1
 8523 16c0 94       		.byte	0x94
 8524 16c1 01       		.byte	0x1
 8525 16c2 08       		.byte	0x8
 8526 16c3 FF       		.byte	0xff
 8527 16c4 1A       		.byte	0x1a
 8528 16c5 22       		.byte	0x22
 8529 16c6 9F       		.byte	0x9f
 8530 16c7 66060000 		.4byte	.LVL183
 8531 16cb 7A060000 		.4byte	.LVL185
 8532 16cf 1E00     		.2byte	0x1e
 8533 16d1 74       		.byte	0x74
 8534 16d2 01       		.sleb128 1
 8535 16d3 33       		.byte	0x33
 8536 16d4 25       		.byte	0x25
 8537 16d5 7C       		.byte	0x7c
 8538 16d6 00       		.sleb128 0
 8539 16d7 22       		.byte	0x22
 8540 16d8 94       		.byte	0x94
 8541 16d9 01       		.byte	0x1
 8542 16da 08       		.byte	0x8
 8543 16db FF       		.byte	0xff
 8544 16dc 1A       		.byte	0x1a
 8545 16dd 38       		.byte	0x38
 8546 16de 24       		.byte	0x24
ARM GAS  C:\Users\pearlstl\AppData\Local\Temp\ccllHTLf.s 			page 166


 8547 16df 74       		.byte	0x74
 8548 16e0 01       		.sleb128 1
 8549 16e1 33       		.byte	0x33
 8550 16e2 25       		.byte	0x25
 8551 16e3 7C       		.byte	0x7c
 8552 16e4 00       		.sleb128 0
 8553 16e5 22       		.byte	0x22
 8554 16e6 23       		.byte	0x23
 8555 16e7 01       		.uleb128 0x1
 8556 16e8 94       		.byte	0x94
 8557 16e9 01       		.byte	0x1
 8558 16ea 08       		.byte	0x8
 8559 16eb FF       		.byte	0xff
 8560 16ec 1A       		.byte	0x1a
 8561 16ed 22       		.byte	0x22
 8562 16ee 9F       		.byte	0x9f
 8563 16ef 7A060000 		.4byte	.LVL185
 8564 16f3 7E060000 		.4byte	.LVL186
 8565 16f7 1E00     		.2byte	0x1e
 8566 16f9 74       		.byte	0x74
 8567 16fa 7A       		.sleb128 -6
 8568 16fb 33       		.byte	0x33
 8569 16fc 25       		.byte	0x25
 8570 16fd 7C       		.byte	0x7c
 8571 16fe 00       		.sleb128 0
 8572 16ff 22       		.byte	0x22
 8573 1700 94       		.byte	0x94
 8574 1701 01       		.byte	0x1
 8575 1702 08       		.byte	0x8
 8576 1703 FF       		.byte	0xff
 8577 1704 1A       		.byte	0x1a
 8578 1705 38       		.byte	0x38
 8579 1706 24       		.byte	0x24
 8580 1707 74       		.byte	0x74
 8581 1708 7A       		.sleb128 -6
 8582 1709 33       		.byte	0x33
 8583 170a 25       		.byte	0x25
 8584 170b 7C       		.byte	0x7c
 8585 170c 00       		.sleb128 0
 8586 170d 22       		.byte	0x22
 8587 170e 23       		.byte	0x23
 8588 170f 01       		.uleb128 0x1
 8589 1710 94       		.byte	0x94
 8590 1711 01       		.byte	0x1
 8591 1712 08       		.byte	0x8
 8592 1713 FF       		.byte	0xff
 8593 1714 1A       		.byte	0x1a
 8594 1715 22       		.byte	0x22
 8595 1716 9F       		.byte	0x9f
 8596 1717 00000000 		.4byte	0
 8597 171b 00000000 		.4byte	0
 8598              	.LLST114:
 8599 171f 84060000 		.4byte	.LVL187
 8600 1723 AE060000 		.4byte	.LVL193
 8601 1727 0500     		.2byte	0x5
 8602 1729 03       		.byte	0x3
 8603 172a 08000000 		.4byte	rle_bpp
ARM GAS  C:\Users\pearlstl\AppData\Local\Temp\ccllHTLf.s 			page 167


 8604 172e 00000000 		.4byte	0
 8605 1732 00000000 		.4byte	0
 8606              	.LLST115:
 8607 1736 84060000 		.4byte	.LVL187
 8608 173a 86060000 		.4byte	.LVL188
 8609 173e 0100     		.2byte	0x1
 8610 1740 54       		.byte	0x54
 8611 1741 86060000 		.4byte	.LVL188
 8612 1745 A2060000 		.4byte	.LVL191
 8613 1749 0500     		.2byte	0x5
 8614 174b 74       		.byte	0x74
 8615 174c 00       		.sleb128 0
 8616 174d 37       		.byte	0x37
 8617 174e 1A       		.byte	0x1a
 8618 174f 9F       		.byte	0x9f
 8619 1750 A2060000 		.4byte	.LVL191
 8620 1754 A4060000 		.4byte	.LVL192
 8621 1758 0100     		.2byte	0x1
 8622 175a 56       		.byte	0x56
 8623 175b A4060000 		.4byte	.LVL192
 8624 175f AE060000 		.4byte	.LVL193
 8625 1763 0500     		.2byte	0x5
 8626 1765 74       		.byte	0x74
 8627 1766 00       		.sleb128 0
 8628 1767 37       		.byte	0x37
 8629 1768 1A       		.byte	0x1a
 8630 1769 9F       		.byte	0x9f
 8631 176a 00000000 		.4byte	0
 8632 176e 00000000 		.4byte	0
 8633              	.LLST116:
 8634 1772 84060000 		.4byte	.LVL187
 8635 1776 AE060000 		.4byte	.LVL193
 8636 177a 0500     		.2byte	0x5
 8637 177c 03       		.byte	0x3
 8638 177d 04000000 		.4byte	rle_in
 8639 1781 00000000 		.4byte	0
 8640 1785 00000000 		.4byte	0
 8641              	.LLST117:
 8642 1789 84060000 		.4byte	.LVL187
 8643 178d AE060000 		.4byte	.LVL193
 8644 1791 0200     		.2byte	0x2
 8645 1793 30       		.byte	0x30
 8646 1794 9F       		.byte	0x9f
 8647 1795 00000000 		.4byte	0
 8648 1799 00000000 		.4byte	0
 8649              	.LLST118:
 8650 179d 86060000 		.4byte	.LVL188
 8651 17a1 A2060000 		.4byte	.LVL191
 8652 17a5 0100     		.2byte	0x1
 8653 17a7 56       		.byte	0x56
 8654 17a8 A2060000 		.4byte	.LVL191
 8655 17ac AE060000 		.4byte	.LVL193
 8656 17b0 0500     		.2byte	0x5
 8657 17b2 74       		.byte	0x74
 8658 17b3 00       		.sleb128 0
 8659 17b4 33       		.byte	0x33
 8660 17b5 25       		.byte	0x25
ARM GAS  C:\Users\pearlstl\AppData\Local\Temp\ccllHTLf.s 			page 168


 8661 17b6 9F       		.byte	0x9f
 8662 17b7 00000000 		.4byte	0
 8663 17bb 00000000 		.4byte	0
 8664              	.LLST119:
 8665 17bf 86060000 		.4byte	.LVL188
 8666 17c3 AE060000 		.4byte	.LVL193
 8667 17c7 0900     		.2byte	0x9
 8668 17c9 31       		.byte	0x31
 8669 17ca 91       		.byte	0x91
 8670 17cb 48       		.sleb128 -56
 8671 17cc 94       		.byte	0x94
 8672 17cd 01       		.byte	0x1
 8673 17ce 24       		.byte	0x24
 8674 17cf 31       		.byte	0x31
 8675 17d0 1C       		.byte	0x1c
 8676 17d1 9F       		.byte	0x9f
 8677 17d2 00000000 		.4byte	0
 8678 17d6 00000000 		.4byte	0
 8679              	.LLST120:
 8680 17da 86060000 		.4byte	.LVL188
 8681 17de 8A060000 		.4byte	.LVL189
 8682 17e2 1A00     		.2byte	0x1a
 8683 17e4 7C       		.byte	0x7c
 8684 17e5 00       		.sleb128 0
 8685 17e6 76       		.byte	0x76
 8686 17e7 00       		.sleb128 0
 8687 17e8 22       		.byte	0x22
 8688 17e9 94       		.byte	0x94
 8689 17ea 01       		.byte	0x1
 8690 17eb 08       		.byte	0x8
 8691 17ec FF       		.byte	0xff
 8692 17ed 1A       		.byte	0x1a
 8693 17ee 38       		.byte	0x38
 8694 17ef 24       		.byte	0x24
 8695 17f0 7C       		.byte	0x7c
 8696 17f1 00       		.sleb128 0
 8697 17f2 76       		.byte	0x76
 8698 17f3 00       		.sleb128 0
 8699 17f4 22       		.byte	0x22
 8700 17f5 23       		.byte	0x23
 8701 17f6 01       		.uleb128 0x1
 8702 17f7 94       		.byte	0x94
 8703 17f8 01       		.byte	0x1
 8704 17f9 08       		.byte	0x8
 8705 17fa FF       		.byte	0xff
 8706 17fb 1A       		.byte	0x1a
 8707 17fc 22       		.byte	0x22
 8708 17fd 9F       		.byte	0x9f
 8709 17fe 8A060000 		.4byte	.LVL189
 8710 1802 90060000 		.4byte	.LVL190
 8711 1806 1200     		.2byte	0x12
 8712 1808 73       		.byte	0x73
 8713 1809 00       		.sleb128 0
 8714 180a 94       		.byte	0x94
 8715 180b 01       		.byte	0x1
 8716 180c 08       		.byte	0x8
 8717 180d FF       		.byte	0xff
ARM GAS  C:\Users\pearlstl\AppData\Local\Temp\ccllHTLf.s 			page 169


 8718 180e 1A       		.byte	0x1a
 8719 180f 38       		.byte	0x38
 8720 1810 24       		.byte	0x24
 8721 1811 73       		.byte	0x73
 8722 1812 01       		.sleb128 1
 8723 1813 94       		.byte	0x94
 8724 1814 01       		.byte	0x1
 8725 1815 08       		.byte	0x8
 8726 1816 FF       		.byte	0xff
 8727 1817 1A       		.byte	0x1a
 8728 1818 22       		.byte	0x22
 8729 1819 9F       		.byte	0x9f
 8730 181a 90060000 		.4byte	.LVL190
 8731 181e A2060000 		.4byte	.LVL191
 8732 1822 1A00     		.2byte	0x1a
 8733 1824 7C       		.byte	0x7c
 8734 1825 00       		.sleb128 0
 8735 1826 76       		.byte	0x76
 8736 1827 00       		.sleb128 0
 8737 1828 22       		.byte	0x22
 8738 1829 94       		.byte	0x94
 8739 182a 01       		.byte	0x1
 8740 182b 08       		.byte	0x8
 8741 182c FF       		.byte	0xff
 8742 182d 1A       		.byte	0x1a
 8743 182e 38       		.byte	0x38
 8744 182f 24       		.byte	0x24
 8745 1830 7C       		.byte	0x7c
 8746 1831 00       		.sleb128 0
 8747 1832 76       		.byte	0x76
 8748 1833 00       		.sleb128 0
 8749 1834 22       		.byte	0x22
 8750 1835 23       		.byte	0x23
 8751 1836 01       		.uleb128 0x1
 8752 1837 94       		.byte	0x94
 8753 1838 01       		.byte	0x1
 8754 1839 08       		.byte	0x8
 8755 183a FF       		.byte	0xff
 8756 183b 1A       		.byte	0x1a
 8757 183c 22       		.byte	0x22
 8758 183d 9F       		.byte	0x9f
 8759 183e A2060000 		.4byte	.LVL191
 8760 1842 AE060000 		.4byte	.LVL193
 8761 1846 1E00     		.2byte	0x1e
 8762 1848 74       		.byte	0x74
 8763 1849 00       		.sleb128 0
 8764 184a 33       		.byte	0x33
 8765 184b 25       		.byte	0x25
 8766 184c 7C       		.byte	0x7c
 8767 184d 00       		.sleb128 0
 8768 184e 22       		.byte	0x22
 8769 184f 94       		.byte	0x94
 8770 1850 01       		.byte	0x1
 8771 1851 08       		.byte	0x8
 8772 1852 FF       		.byte	0xff
 8773 1853 1A       		.byte	0x1a
 8774 1854 38       		.byte	0x38
ARM GAS  C:\Users\pearlstl\AppData\Local\Temp\ccllHTLf.s 			page 170


 8775 1855 24       		.byte	0x24
 8776 1856 74       		.byte	0x74
 8777 1857 00       		.sleb128 0
 8778 1858 33       		.byte	0x33
 8779 1859 25       		.byte	0x25
 8780 185a 7C       		.byte	0x7c
 8781 185b 00       		.sleb128 0
 8782 185c 22       		.byte	0x22
 8783 185d 23       		.byte	0x23
 8784 185e 01       		.uleb128 0x1
 8785 185f 94       		.byte	0x94
 8786 1860 01       		.byte	0x1
 8787 1861 08       		.byte	0x8
 8788 1862 FF       		.byte	0xff
 8789 1863 1A       		.byte	0x1a
 8790 1864 22       		.byte	0x22
 8791 1865 9F       		.byte	0x9f
 8792 1866 00000000 		.4byte	0
 8793 186a 00000000 		.4byte	0
 8794              	.LLST121:
 8795 186e 68040000 		.4byte	.LVL137
 8796 1872 78040000 		.4byte	.LVL139
 8797 1876 0100     		.2byte	0x1
 8798 1878 59       		.byte	0x59
 8799 1879 A8040000 		.4byte	.LVL143
 8800 187d AE040000 		.4byte	.LVL144
 8801 1881 0100     		.2byte	0x1
 8802 1883 59       		.byte	0x59
 8803 1884 AE040000 		.4byte	.LVL144
 8804 1888 2C050000 		.4byte	.LVL154
 8805 188c 0200     		.2byte	0x2
 8806 188e 34       		.byte	0x34
 8807 188f 9F       		.byte	0x9f
 8808 1890 00000000 		.4byte	0
 8809 1894 00000000 		.4byte	0
 8810              	.LLST122:
 8811 1898 68040000 		.4byte	.LVL137
 8812 189c 74040000 		.4byte	.LVL138
 8813 18a0 0100     		.2byte	0x1
 8814 18a2 53       		.byte	0x53
 8815 18a3 74040000 		.4byte	.LVL138
 8816 18a7 78040000 		.4byte	.LVL139
 8817 18ab 0200     		.2byte	0x2
 8818 18ad 71       		.byte	0x71
 8819 18ae 00       		.sleb128 0
 8820 18af A8040000 		.4byte	.LVL143
 8821 18b3 C2040000 		.4byte	.LVL145
 8822 18b7 0100     		.2byte	0x1
 8823 18b9 53       		.byte	0x53
 8824 18ba C2040000 		.4byte	.LVL145
 8825 18be C4040000 		.4byte	.LVL146
 8826 18c2 0200     		.2byte	0x2
 8827 18c4 3F       		.byte	0x3f
 8828 18c5 9F       		.byte	0x9f
 8829 18c6 D0040000 		.4byte	.LVL147
 8830 18ca DE040000 		.4byte	.LVL148
 8831 18ce 0200     		.2byte	0x2
ARM GAS  C:\Users\pearlstl\AppData\Local\Temp\ccllHTLf.s 			page 171


 8832 18d0 3D       		.byte	0x3d
 8833 18d1 9F       		.byte	0x9f
 8834 18d2 DE040000 		.4byte	.LVL148
 8835 18d6 EC040000 		.4byte	.LVL149
 8836 18da 0200     		.2byte	0x2
 8837 18dc 3B       		.byte	0x3b
 8838 18dd 9F       		.byte	0x9f
 8839 18de EC040000 		.4byte	.LVL149
 8840 18e2 FA040000 		.4byte	.LVL150
 8841 18e6 0200     		.2byte	0x2
 8842 18e8 39       		.byte	0x39
 8843 18e9 9F       		.byte	0x9f
 8844 18ea FA040000 		.4byte	.LVL150
 8845 18ee 08050000 		.4byte	.LVL151
 8846 18f2 0200     		.2byte	0x2
 8847 18f4 36       		.byte	0x36
 8848 18f5 9F       		.byte	0x9f
 8849 18f6 08050000 		.4byte	.LVL151
 8850 18fa 16050000 		.4byte	.LVL152
 8851 18fe 0200     		.2byte	0x2
 8852 1900 34       		.byte	0x34
 8853 1901 9F       		.byte	0x9f
 8854 1902 16050000 		.4byte	.LVL152
 8855 1906 24050000 		.4byte	.LVL153
 8856 190a 0200     		.2byte	0x2
 8857 190c 32       		.byte	0x32
 8858 190d 9F       		.byte	0x9f
 8859 190e 24050000 		.4byte	.LVL153
 8860 1912 2C050000 		.4byte	.LVL154
 8861 1916 0200     		.2byte	0x2
 8862 1918 30       		.byte	0x30
 8863 1919 9F       		.byte	0x9f
 8864 191a 00000000 		.4byte	0
 8865 191e 00000000 		.4byte	0
 8866              	.LLST123:
 8867 1922 68040000 		.4byte	.LVL137
 8868 1926 78040000 		.4byte	.LVL139
 8869 192a 0100     		.2byte	0x1
 8870 192c 50       		.byte	0x50
 8871 192d A8040000 		.4byte	.LVL143
 8872 1931 2C050000 		.4byte	.LVL154
 8873 1935 0100     		.2byte	0x1
 8874 1937 50       		.byte	0x50
 8875 1938 00000000 		.4byte	0
 8876 193c 00000000 		.4byte	0
 8877              	.LLST124:
 8878 1940 78040000 		.4byte	.LVL139
 8879 1944 8E040000 		.4byte	.LVL140
 8880 1948 0500     		.2byte	0x5
 8881 194a 70       		.byte	0x70
 8882 194b 00       		.sleb128 0
 8883 194c 33       		.byte	0x33
 8884 194d 25       		.byte	0x25
 8885 194e 9F       		.byte	0x9f
 8886 194f 00000000 		.4byte	0
 8887 1953 00000000 		.4byte	0
 8888              	.LLST125:
ARM GAS  C:\Users\pearlstl\AppData\Local\Temp\ccllHTLf.s 			page 172


 8889 1957 00000000 		.4byte	.LVL209
 8890 195b 04000000 		.4byte	.LVL211
 8891 195f 0100     		.2byte	0x1
 8892 1961 50       		.byte	0x50
 8893 1962 04000000 		.4byte	.LVL211
 8894 1966 06000000 		.4byte	.LVL212
 8895 196a 0400     		.2byte	0x4
 8896 196c F3       		.byte	0xf3
 8897 196d 01       		.uleb128 0x1
 8898 196e 50       		.byte	0x50
 8899 196f 9F       		.byte	0x9f
 8900 1970 06000000 		.4byte	.LVL212
 8901 1974 2C000000 		.4byte	.LVL217
 8902 1978 0100     		.2byte	0x1
 8903 197a 50       		.byte	0x50
 8904 197b 2C000000 		.4byte	.LVL217
 8905 197f 5C010000 		.4byte	.LVL261
 8906 1983 0100     		.2byte	0x1
 8907 1985 59       		.byte	0x59
 8908 1986 5C010000 		.4byte	.LVL261
 8909 198a 60010000 		.4byte	.LVL262
 8910 198e 0100     		.2byte	0x1
 8911 1990 50       		.byte	0x50
 8912 1991 60010000 		.4byte	.LVL262
 8913 1995 0C020000 		.4byte	.LFE32
 8914 1999 0100     		.2byte	0x1
 8915 199b 59       		.byte	0x59
 8916 199c 00000000 		.4byte	0
 8917 19a0 00000000 		.4byte	0
 8918              	.LLST126:
 8919 19a4 00000000 		.4byte	.LVL209
 8920 19a8 20000000 		.4byte	.LVL216
 8921 19ac 0100     		.2byte	0x1
 8922 19ae 51       		.byte	0x51
 8923 19af 20000000 		.4byte	.LVL216
 8924 19b3 5C010000 		.4byte	.LVL261
 8925 19b7 0100     		.2byte	0x1
 8926 19b9 54       		.byte	0x54
 8927 19ba 5C010000 		.4byte	.LVL261
 8928 19be 60010000 		.4byte	.LVL262
 8929 19c2 0100     		.2byte	0x1
 8930 19c4 51       		.byte	0x51
 8931 19c5 60010000 		.4byte	.LVL262
 8932 19c9 0C020000 		.4byte	.LFE32
 8933 19cd 0100     		.2byte	0x1
 8934 19cf 54       		.byte	0x54
 8935 19d0 00000000 		.4byte	0
 8936 19d4 00000000 		.4byte	0
 8937              	.LLST127:
 8938 19d8 00000000 		.4byte	.LVL209
 8939 19dc 2E000000 		.4byte	.LVL218
 8940 19e0 0100     		.2byte	0x1
 8941 19e2 52       		.byte	0x52
 8942 19e3 2E000000 		.4byte	.LVL218
 8943 19e7 9E000000 		.4byte	.LVL231
 8944 19eb 0100     		.2byte	0x1
 8945 19ed 57       		.byte	0x57
ARM GAS  C:\Users\pearlstl\AppData\Local\Temp\ccllHTLf.s 			page 173


 8946 19ee 9E000000 		.4byte	.LVL231
 8947 19f2 E0000000 		.4byte	.LVL239
 8948 19f6 0400     		.2byte	0x4
 8949 19f8 F3       		.byte	0xf3
 8950 19f9 01       		.uleb128 0x1
 8951 19fa 52       		.byte	0x52
 8952 19fb 9F       		.byte	0x9f
 8953 19fc E0000000 		.4byte	.LVL239
 8954 1a00 FA000000 		.4byte	.LVL242
 8955 1a04 0100     		.2byte	0x1
 8956 1a06 57       		.byte	0x57
 8957 1a07 FA000000 		.4byte	.LVL242
 8958 1a0b 38010000 		.4byte	.LVL251
 8959 1a0f 0400     		.2byte	0x4
 8960 1a11 F3       		.byte	0xf3
 8961 1a12 01       		.uleb128 0x1
 8962 1a13 52       		.byte	0x52
 8963 1a14 9F       		.byte	0x9f
 8964 1a15 38010000 		.4byte	.LVL251
 8965 1a19 4C010000 		.4byte	.LVL256
 8966 1a1d 0100     		.2byte	0x1
 8967 1a1f 57       		.byte	0x57
 8968 1a20 4C010000 		.4byte	.LVL256
 8969 1a24 5C010000 		.4byte	.LVL261
 8970 1a28 0400     		.2byte	0x4
 8971 1a2a F3       		.byte	0xf3
 8972 1a2b 01       		.uleb128 0x1
 8973 1a2c 52       		.byte	0x52
 8974 1a2d 9F       		.byte	0x9f
 8975 1a2e 5C010000 		.4byte	.LVL261
 8976 1a32 60010000 		.4byte	.LVL262
 8977 1a36 0100     		.2byte	0x1
 8978 1a38 52       		.byte	0x52
 8979 1a39 60010000 		.4byte	.LVL262
 8980 1a3d 6A010000 		.4byte	.LVL264
 8981 1a41 0100     		.2byte	0x1
 8982 1a43 57       		.byte	0x57
 8983 1a44 6A010000 		.4byte	.LVL264
 8984 1a48 9C010000 		.4byte	.LVL272
 8985 1a4c 0400     		.2byte	0x4
 8986 1a4e F3       		.byte	0xf3
 8987 1a4f 01       		.uleb128 0x1
 8988 1a50 52       		.byte	0x52
 8989 1a51 9F       		.byte	0x9f
 8990 1a52 9C010000 		.4byte	.LVL272
 8991 1a56 0C020000 		.4byte	.LFE32
 8992 1a5a 0100     		.2byte	0x1
 8993 1a5c 57       		.byte	0x57
 8994 1a5d 00000000 		.4byte	0
 8995 1a61 00000000 		.4byte	0
 8996              	.LLST128:
 8997 1a65 00000000 		.4byte	.LVL209
 8998 1a69 10000000 		.4byte	.LVL214
 8999 1a6d 0100     		.2byte	0x1
 9000 1a6f 53       		.byte	0x53
 9001 1a70 10000000 		.4byte	.LVL214
 9002 1a74 9E000000 		.4byte	.LVL231
ARM GAS  C:\Users\pearlstl\AppData\Local\Temp\ccllHTLf.s 			page 174


 9003 1a78 0100     		.2byte	0x1
 9004 1a7a 58       		.byte	0x58
 9005 1a7b 9E000000 		.4byte	.LVL231
 9006 1a7f E0000000 		.4byte	.LVL239
 9007 1a83 0400     		.2byte	0x4
 9008 1a85 F3       		.byte	0xf3
 9009 1a86 01       		.uleb128 0x1
 9010 1a87 53       		.byte	0x53
 9011 1a88 9F       		.byte	0x9f
 9012 1a89 E0000000 		.4byte	.LVL239
 9013 1a8d 10010000 		.4byte	.LVL245
 9014 1a91 0100     		.2byte	0x1
 9015 1a93 58       		.byte	0x58
 9016 1a94 10010000 		.4byte	.LVL245
 9017 1a98 38010000 		.4byte	.LVL251
 9018 1a9c 0400     		.2byte	0x4
 9019 1a9e F3       		.byte	0xf3
 9020 1a9f 01       		.uleb128 0x1
 9021 1aa0 53       		.byte	0x53
 9022 1aa1 9F       		.byte	0x9f
 9023 1aa2 38010000 		.4byte	.LVL251
 9024 1aa6 74010000 		.4byte	.LVL266
 9025 1aaa 0100     		.2byte	0x1
 9026 1aac 58       		.byte	0x58
 9027 1aad 74010000 		.4byte	.LVL266
 9028 1ab1 9C010000 		.4byte	.LVL272
 9029 1ab5 0400     		.2byte	0x4
 9030 1ab7 F3       		.byte	0xf3
 9031 1ab8 01       		.uleb128 0x1
 9032 1ab9 53       		.byte	0x53
 9033 1aba 9F       		.byte	0x9f
 9034 1abb 9C010000 		.4byte	.LVL272
 9035 1abf 0C020000 		.4byte	.LFE32
 9036 1ac3 0100     		.2byte	0x1
 9037 1ac5 58       		.byte	0x58
 9038 1ac6 00000000 		.4byte	0
 9039 1aca 00000000 		.4byte	0
 9040              	.LLST129:
 9041 1ace 00000000 		.4byte	.LVL209
 9042 1ad2 04000000 		.4byte	.LVL211
 9043 1ad6 0200     		.2byte	0x2
 9044 1ad8 70       		.byte	0x70
 9045 1ad9 0C       		.sleb128 12
 9046 1ada 04000000 		.4byte	.LVL211
 9047 1ade 06000000 		.4byte	.LVL212
 9048 1ae2 0500     		.2byte	0x5
 9049 1ae4 F3       		.byte	0xf3
 9050 1ae5 01       		.uleb128 0x1
 9051 1ae6 50       		.byte	0x50
 9052 1ae7 23       		.byte	0x23
 9053 1ae8 0C       		.uleb128 0xc
 9054 1ae9 06000000 		.4byte	.LVL212
 9055 1aed 2C000000 		.4byte	.LVL217
 9056 1af1 0200     		.2byte	0x2
 9057 1af3 70       		.byte	0x70
 9058 1af4 0C       		.sleb128 12
 9059 1af5 2C000000 		.4byte	.LVL217
ARM GAS  C:\Users\pearlstl\AppData\Local\Temp\ccllHTLf.s 			page 175


 9060 1af9 76000000 		.4byte	.LVL224
 9061 1afd 0200     		.2byte	0x2
 9062 1aff 79       		.byte	0x79
 9063 1b00 0C       		.sleb128 12
 9064 1b01 7A000000 		.4byte	.LVL225
 9065 1b05 88000000 		.4byte	.LVL227
 9066 1b09 0200     		.2byte	0x2
 9067 1b0b 79       		.byte	0x79
 9068 1b0c 0C       		.sleb128 12
 9069 1b0d 5C010000 		.4byte	.LVL261
 9070 1b11 60010000 		.4byte	.LVL262
 9071 1b15 0200     		.2byte	0x2
 9072 1b17 70       		.byte	0x70
 9073 1b18 0C       		.sleb128 12
 9074 1b19 60010000 		.4byte	.LVL262
 9075 1b1d 6A010000 		.4byte	.LVL264
 9076 1b21 0200     		.2byte	0x2
 9077 1b23 79       		.byte	0x79
 9078 1b24 0C       		.sleb128 12
 9079 1b25 9C010000 		.4byte	.LVL272
 9080 1b29 A0010000 		.4byte	.LVL273
 9081 1b2d 0200     		.2byte	0x2
 9082 1b2f 79       		.byte	0x79
 9083 1b30 0C       		.sleb128 12
 9084 1b31 A6010000 		.4byte	.LVL275
 9085 1b35 AE010000 		.4byte	.LVL276
 9086 1b39 0200     		.2byte	0x2
 9087 1b3b 79       		.byte	0x79
 9088 1b3c 0C       		.sleb128 12
 9089 1b3d D6010000 		.4byte	.LVL282
 9090 1b41 DE010000 		.4byte	.LVL283
 9091 1b45 0200     		.2byte	0x2
 9092 1b47 79       		.byte	0x79
 9093 1b48 0C       		.sleb128 12
 9094 1b49 00000000 		.4byte	0
 9095 1b4d 00000000 		.4byte	0
 9096              	.LLST130:
 9097 1b51 94000000 		.4byte	.LVL229
 9098 1b55 A0000000 		.4byte	.LVL232
 9099 1b59 0200     		.2byte	0x2
 9100 1b5b 30       		.byte	0x30
 9101 1b5c 9F       		.byte	0x9f
 9102 1b5d E0000000 		.4byte	.LVL239
 9103 1b61 5C010000 		.4byte	.LVL261
 9104 1b65 0200     		.2byte	0x2
 9105 1b67 30       		.byte	0x30
 9106 1b68 9F       		.byte	0x9f
 9107 1b69 6A010000 		.4byte	.LVL264
 9108 1b6d 9C010000 		.4byte	.LVL272
 9109 1b71 0200     		.2byte	0x2
 9110 1b73 30       		.byte	0x30
 9111 1b74 9F       		.byte	0x9f
 9112 1b75 00000000 		.4byte	0
 9113 1b79 00000000 		.4byte	0
 9114              	.LLST131:
 9115 1b7d A8000000 		.4byte	.LVL233
 9116 1b81 DA000000 		.4byte	.LVL238
ARM GAS  C:\Users\pearlstl\AppData\Local\Temp\ccllHTLf.s 			page 176


 9117 1b85 0100     		.2byte	0x1
 9118 1b87 51       		.byte	0x51
 9119 1b88 00000000 		.4byte	0
 9120 1b8c 00000000 		.4byte	0
 9121              	.LLST132:
 9122 1b90 A8000000 		.4byte	.LVL233
 9123 1b94 AC000000 		.4byte	.LVL234
 9124 1b98 0E00     		.2byte	0xe
 9125 1b9a 75       		.byte	0x75
 9126 1b9b 10       		.sleb128 16
 9127 1b9c 94       		.byte	0x94
 9128 1b9d 02       		.byte	0x2
 9129 1b9e 0A       		.byte	0xa
 9130 1b9f FFFF     		.2byte	0xffff
 9131 1ba1 1A       		.byte	0x1a
 9132 1ba2 73       		.byte	0x73
 9133 1ba3 00       		.sleb128 0
 9134 1ba4 1E       		.byte	0x1e
 9135 1ba5 34       		.byte	0x34
 9136 1ba6 26       		.byte	0x26
 9137 1ba7 9F       		.byte	0x9f
 9138 1ba8 00000000 		.4byte	0
 9139 1bac 00000000 		.4byte	0
 9140              	.LLST133:
 9141 1bb0 A8000000 		.4byte	.LVL233
 9142 1bb4 AC000000 		.4byte	.LVL234
 9143 1bb8 1D00     		.2byte	0x1d
 9144 1bba 75       		.byte	0x75
 9145 1bbb 10       		.sleb128 16
 9146 1bbc 94       		.byte	0x94
 9147 1bbd 02       		.byte	0x2
 9148 1bbe 0A       		.byte	0xa
 9149 1bbf FFFF     		.2byte	0xffff
 9150 1bc1 1A       		.byte	0x1a
 9151 1bc2 73       		.byte	0x73
 9152 1bc3 00       		.sleb128 0
 9153 1bc4 1E       		.byte	0x1e
 9154 1bc5 34       		.byte	0x34
 9155 1bc6 26       		.byte	0x26
 9156 1bc7 71       		.byte	0x71
 9157 1bc8 02       		.sleb128 2
 9158 1bc9 94       		.byte	0x94
 9159 1bca 02       		.byte	0x2
 9160 1bcb 09       		.byte	0x9
 9161 1bcc F4       		.byte	0xf4
 9162 1bcd 24       		.byte	0x24
 9163 1bce 09       		.byte	0x9
 9164 1bcf F8       		.byte	0xf8
 9165 1bd0 26       		.byte	0x26
 9166 1bd1 0A       		.byte	0xa
 9167 1bd2 FFFF     		.2byte	0xffff
 9168 1bd4 1A       		.byte	0x1a
 9169 1bd5 22       		.byte	0x22
 9170 1bd6 9F       		.byte	0x9f
 9171 1bd7 B8000000 		.4byte	.LVL235
 9172 1bdb BA000000 		.4byte	.LVL236
 9173 1bdf 0500     		.2byte	0x5
ARM GAS  C:\Users\pearlstl\AppData\Local\Temp\ccllHTLf.s 			page 177


 9174 1be1 73       		.byte	0x73
 9175 1be2 00       		.sleb128 0
 9176 1be3 34       		.byte	0x34
 9177 1be4 25       		.byte	0x25
 9178 1be5 9F       		.byte	0x9f
 9179 1be6 BA000000 		.4byte	.LVL236
 9180 1bea BE000000 		.4byte	.LVL237
 9181 1bee 0100     		.2byte	0x1
 9182 1bf0 53       		.byte	0x53
 9183 1bf1 00000000 		.4byte	0
 9184 1bf5 00000000 		.4byte	0
 9185              	.LLST134:
 9186 1bf9 00000000 		.4byte	.LVL209
 9187 1bfd 04000000 		.4byte	.LVL211
 9188 1c01 0100     		.2byte	0x1
 9189 1c03 50       		.byte	0x50
 9190 1c04 04000000 		.4byte	.LVL211
 9191 1c08 06000000 		.4byte	.LVL212
 9192 1c0c 0400     		.2byte	0x4
 9193 1c0e F3       		.byte	0xf3
 9194 1c0f 01       		.uleb128 0x1
 9195 1c10 50       		.byte	0x50
 9196 1c11 9F       		.byte	0x9f
 9197 1c12 06000000 		.4byte	.LVL212
 9198 1c16 2C000000 		.4byte	.LVL217
 9199 1c1a 0100     		.2byte	0x1
 9200 1c1c 50       		.byte	0x50
 9201 1c1d 2C000000 		.4byte	.LVL217
 9202 1c21 5C010000 		.4byte	.LVL261
 9203 1c25 0100     		.2byte	0x1
 9204 1c27 59       		.byte	0x59
 9205 1c28 5C010000 		.4byte	.LVL261
 9206 1c2c 60010000 		.4byte	.LVL262
 9207 1c30 0100     		.2byte	0x1
 9208 1c32 50       		.byte	0x50
 9209 1c33 60010000 		.4byte	.LVL262
 9210 1c37 0C020000 		.4byte	.LFE32
 9211 1c3b 0100     		.2byte	0x1
 9212 1c3d 59       		.byte	0x59
 9213 1c3e 00000000 		.4byte	0
 9214 1c42 00000000 		.4byte	0
 9215              	.LLST135:
 9216 1c46 00000000 		.4byte	.LVL209
 9217 1c4a 02000000 		.4byte	.LVL210
 9218 1c4e 0100     		.2byte	0x1
 9219 1c50 52       		.byte	0x52
 9220 1c51 06000000 		.4byte	.LVL212
 9221 1c55 2E000000 		.4byte	.LVL218
 9222 1c59 0100     		.2byte	0x1
 9223 1c5b 52       		.byte	0x52
 9224 1c5c 2E000000 		.4byte	.LVL218
 9225 1c60 8E000000 		.4byte	.LVL228
 9226 1c64 0100     		.2byte	0x1
 9227 1c66 57       		.byte	0x57
 9228 1c67 5C010000 		.4byte	.LVL261
 9229 1c6b 60010000 		.4byte	.LVL262
 9230 1c6f 0100     		.2byte	0x1
ARM GAS  C:\Users\pearlstl\AppData\Local\Temp\ccllHTLf.s 			page 178


 9231 1c71 52       		.byte	0x52
 9232 1c72 60010000 		.4byte	.LVL262
 9233 1c76 6A010000 		.4byte	.LVL264
 9234 1c7a 0100     		.2byte	0x1
 9235 1c7c 57       		.byte	0x57
 9236 1c7d 9C010000 		.4byte	.LVL272
 9237 1c81 A2010000 		.4byte	.LVL274
 9238 1c85 0100     		.2byte	0x1
 9239 1c87 57       		.byte	0x57
 9240 1c88 A6010000 		.4byte	.LVL275
 9241 1c8c 0C020000 		.4byte	.LFE32
 9242 1c90 0100     		.2byte	0x1
 9243 1c92 57       		.byte	0x57
 9244 1c93 00000000 		.4byte	0
 9245 1c97 00000000 		.4byte	0
 9246              	.LLST136:
 9247 1c9b 0C000000 		.4byte	.LVL213
 9248 1c9f 2E000000 		.4byte	.LVL218
 9249 1ca3 0100     		.2byte	0x1
 9250 1ca5 52       		.byte	0x52
 9251 1ca6 2E000000 		.4byte	.LVL218
 9252 1caa 9E000000 		.4byte	.LVL231
 9253 1cae 0100     		.2byte	0x1
 9254 1cb0 57       		.byte	0x57
 9255 1cb1 9E000000 		.4byte	.LVL231
 9256 1cb5 E0000000 		.4byte	.LVL239
 9257 1cb9 0400     		.2byte	0x4
 9258 1cbb F3       		.byte	0xf3
 9259 1cbc 01       		.uleb128 0x1
 9260 1cbd 52       		.byte	0x52
 9261 1cbe 9F       		.byte	0x9f
 9262 1cbf E0000000 		.4byte	.LVL239
 9263 1cc3 FA000000 		.4byte	.LVL242
 9264 1cc7 0100     		.2byte	0x1
 9265 1cc9 57       		.byte	0x57
 9266 1cca FA000000 		.4byte	.LVL242
 9267 1cce 38010000 		.4byte	.LVL251
 9268 1cd2 0400     		.2byte	0x4
 9269 1cd4 F3       		.byte	0xf3
 9270 1cd5 01       		.uleb128 0x1
 9271 1cd6 52       		.byte	0x52
 9272 1cd7 9F       		.byte	0x9f
 9273 1cd8 38010000 		.4byte	.LVL251
 9274 1cdc 4C010000 		.4byte	.LVL256
 9275 1ce0 0100     		.2byte	0x1
 9276 1ce2 57       		.byte	0x57
 9277 1ce3 4C010000 		.4byte	.LVL256
 9278 1ce7 5C010000 		.4byte	.LVL261
 9279 1ceb 0400     		.2byte	0x4
 9280 1ced F3       		.byte	0xf3
 9281 1cee 01       		.uleb128 0x1
 9282 1cef 52       		.byte	0x52
 9283 1cf0 9F       		.byte	0x9f
 9284 1cf1 5C010000 		.4byte	.LVL261
 9285 1cf5 60010000 		.4byte	.LVL262
 9286 1cf9 0100     		.2byte	0x1
 9287 1cfb 52       		.byte	0x52
ARM GAS  C:\Users\pearlstl\AppData\Local\Temp\ccllHTLf.s 			page 179


 9288 1cfc 60010000 		.4byte	.LVL262
 9289 1d00 6A010000 		.4byte	.LVL264
 9290 1d04 0100     		.2byte	0x1
 9291 1d06 57       		.byte	0x57
 9292 1d07 6A010000 		.4byte	.LVL264
 9293 1d0b 9C010000 		.4byte	.LVL272
 9294 1d0f 0400     		.2byte	0x4
 9295 1d11 F3       		.byte	0xf3
 9296 1d12 01       		.uleb128 0x1
 9297 1d13 52       		.byte	0x52
 9298 1d14 9F       		.byte	0x9f
 9299 1d15 9C010000 		.4byte	.LVL272
 9300 1d19 0C020000 		.4byte	.LFE32
 9301 1d1d 0100     		.2byte	0x1
 9302 1d1f 57       		.byte	0x57
 9303 1d20 00000000 		.4byte	0
 9304 1d24 00000000 		.4byte	0
 9305              	.LLST137:
 9306 1d28 0C000000 		.4byte	.LVL213
 9307 1d2c 2C000000 		.4byte	.LVL217
 9308 1d30 0200     		.2byte	0x2
 9309 1d32 70       		.byte	0x70
 9310 1d33 0C       		.sleb128 12
 9311 1d34 2C000000 		.4byte	.LVL217
 9312 1d38 76000000 		.4byte	.LVL224
 9313 1d3c 0200     		.2byte	0x2
 9314 1d3e 79       		.byte	0x79
 9315 1d3f 0C       		.sleb128 12
 9316 1d40 7A000000 		.4byte	.LVL225
 9317 1d44 88000000 		.4byte	.LVL227
 9318 1d48 0200     		.2byte	0x2
 9319 1d4a 79       		.byte	0x79
 9320 1d4b 0C       		.sleb128 12
 9321 1d4c 5C010000 		.4byte	.LVL261
 9322 1d50 60010000 		.4byte	.LVL262
 9323 1d54 0200     		.2byte	0x2
 9324 1d56 70       		.byte	0x70
 9325 1d57 0C       		.sleb128 12
 9326 1d58 60010000 		.4byte	.LVL262
 9327 1d5c 6A010000 		.4byte	.LVL264
 9328 1d60 0200     		.2byte	0x2
 9329 1d62 79       		.byte	0x79
 9330 1d63 0C       		.sleb128 12
 9331 1d64 9C010000 		.4byte	.LVL272
 9332 1d68 A0010000 		.4byte	.LVL273
 9333 1d6c 0200     		.2byte	0x2
 9334 1d6e 79       		.byte	0x79
 9335 1d6f 0C       		.sleb128 12
 9336 1d70 A6010000 		.4byte	.LVL275
 9337 1d74 AE010000 		.4byte	.LVL276
 9338 1d78 0200     		.2byte	0x2
 9339 1d7a 79       		.byte	0x79
 9340 1d7b 0C       		.sleb128 12
 9341 1d7c D6010000 		.4byte	.LVL282
 9342 1d80 DE010000 		.4byte	.LVL283
 9343 1d84 0200     		.2byte	0x2
 9344 1d86 79       		.byte	0x79
ARM GAS  C:\Users\pearlstl\AppData\Local\Temp\ccllHTLf.s 			page 180


 9345 1d87 0C       		.sleb128 12
 9346 1d88 00000000 		.4byte	0
 9347 1d8c 00000000 		.4byte	0
 9348              	.LLST138:
 9349 1d90 1E000000 		.4byte	.LVL215
 9350 1d94 3A000000 		.4byte	.LVL219
 9351 1d98 0200     		.2byte	0x2
 9352 1d9a 30       		.byte	0x30
 9353 1d9b 9F       		.byte	0x9f
 9354 1d9c 3A000000 		.4byte	.LVL219
 9355 1da0 3C000000 		.4byte	.LVL220
 9356 1da4 0100     		.2byte	0x1
 9357 1da6 53       		.byte	0x53
 9358 1da7 3E000000 		.4byte	.LVL221
 9359 1dab 64000000 		.4byte	.LVL223
 9360 1daf 0100     		.2byte	0x1
 9361 1db1 53       		.byte	0x53
 9362 1db2 7A000000 		.4byte	.LVL225
 9363 1db6 84000000 		.4byte	.LVL226
 9364 1dba 0200     		.2byte	0x2
 9365 1dbc 30       		.byte	0x30
 9366 1dbd 9F       		.byte	0x9f
 9367 1dbe 00000000 		.4byte	0
 9368 1dc2 00000000 		.4byte	0
 9369              	.LLST139:
 9370 1dc6 62000000 		.4byte	.LVL222
 9371 1dca 88000000 		.4byte	.LVL227
 9372 1dce 0200     		.2byte	0x2
 9373 1dd0 30       		.byte	0x30
 9374 1dd1 9F       		.byte	0x9f
 9375 1dd2 88000000 		.4byte	.LVL227
 9376 1dd6 8E000000 		.4byte	.LVL228
 9377 1dda 0100     		.2byte	0x1
 9378 1ddc 51       		.byte	0x51
 9379 1ddd 60010000 		.4byte	.LVL262
 9380 1de1 68010000 		.4byte	.LVL263
 9381 1de5 0200     		.2byte	0x2
 9382 1de7 30       		.byte	0x30
 9383 1de8 9F       		.byte	0x9f
 9384 1de9 68010000 		.4byte	.LVL263
 9385 1ded 6A010000 		.4byte	.LVL264
 9386 1df1 0100     		.2byte	0x1
 9387 1df3 51       		.byte	0x51
 9388 1df4 A6010000 		.4byte	.LVL275
 9389 1df8 D4010000 		.4byte	.LVL281
 9390 1dfc 0200     		.2byte	0x2
 9391 1dfe 30       		.byte	0x30
 9392 1dff 9F       		.byte	0x9f
 9393 1e00 D4010000 		.4byte	.LVL281
 9394 1e04 D6010000 		.4byte	.LVL282
 9395 1e08 0100     		.2byte	0x1
 9396 1e0a 51       		.byte	0x51
 9397 1e0b D6010000 		.4byte	.LVL282
 9398 1e0f FC010000 		.4byte	.LVL286
 9399 1e13 0200     		.2byte	0x2
 9400 1e15 30       		.byte	0x30
 9401 1e16 9F       		.byte	0x9f
ARM GAS  C:\Users\pearlstl\AppData\Local\Temp\ccllHTLf.s 			page 181


 9402 1e17 FC010000 		.4byte	.LVL286
 9403 1e1b 0C020000 		.4byte	.LFE32
 9404 1e1f 0100     		.2byte	0x1
 9405 1e21 51       		.byte	0x51
 9406 1e22 00000000 		.4byte	0
 9407 1e26 00000000 		.4byte	0
 9408              	.LLST140:
 9409 1e2a 60010000 		.4byte	.LVL262
 9410 1e2e 6A010000 		.4byte	.LVL264
 9411 1e32 0200     		.2byte	0x2
 9412 1e34 70       		.byte	0x70
 9413 1e35 0C       		.sleb128 12
 9414 1e36 00000000 		.4byte	0
 9415 1e3a 00000000 		.4byte	0
 9416              	.LLST141:
 9417 1e3e B6010000 		.4byte	.LVL277
 9418 1e42 D6010000 		.4byte	.LVL282
 9419 1e46 0100     		.2byte	0x1
 9420 1e48 50       		.byte	0x50
 9421 1e49 00000000 		.4byte	0
 9422 1e4d 00000000 		.4byte	0
 9423              	.LLST142:
 9424 1e51 CE010000 		.4byte	.LVL278
 9425 1e55 D0010000 		.4byte	.LVL279
 9426 1e59 0500     		.2byte	0x5
 9427 1e5b 72       		.byte	0x72
 9428 1e5c 00       		.sleb128 0
 9429 1e5d 31       		.byte	0x31
 9430 1e5e 25       		.byte	0x25
 9431 1e5f 9F       		.byte	0x9f
 9432 1e60 D0010000 		.4byte	.LVL279
 9433 1e64 D2010000 		.4byte	.LVL280
 9434 1e68 0100     		.2byte	0x1
 9435 1e6a 52       		.byte	0x52
 9436 1e6b D2010000 		.4byte	.LVL280
 9437 1e6f D6010000 		.4byte	.LVL282
 9438 1e73 0900     		.2byte	0x9
 9439 1e75 70       		.byte	0x70
 9440 1e76 00       		.sleb128 0
 9441 1e77 7A       		.byte	0x7a
 9442 1e78 08       		.sleb128 8
 9443 1e79 06       		.byte	0x6
 9444 1e7a 1C       		.byte	0x1c
 9445 1e7b 31       		.byte	0x31
 9446 1e7c 25       		.byte	0x25
 9447 1e7d 9F       		.byte	0x9f
 9448 1e7e 00000000 		.4byte	0
 9449 1e82 00000000 		.4byte	0
 9450              	.LLST143:
 9451 1e86 CE010000 		.4byte	.LVL278
 9452 1e8a D6010000 		.4byte	.LVL282
 9453 1e8e 0200     		.2byte	0x2
 9454 1e90 7A       		.byte	0x7a
 9455 1e91 0C       		.sleb128 12
 9456 1e92 00000000 		.4byte	0
 9457 1e96 00000000 		.4byte	0
 9458              	.LLST144:
ARM GAS  C:\Users\pearlstl\AppData\Local\Temp\ccllHTLf.s 			page 182


 9459 1e9a 98000000 		.4byte	.LVL230
 9460 1e9e 9E000000 		.4byte	.LVL231
 9461 1ea2 0100     		.2byte	0x1
 9462 1ea4 59       		.byte	0x59
 9463 1ea5 E0000000 		.4byte	.LVL239
 9464 1ea9 5C010000 		.4byte	.LVL261
 9465 1ead 0100     		.2byte	0x1
 9466 1eaf 59       		.byte	0x59
 9467 1eb0 6A010000 		.4byte	.LVL264
 9468 1eb4 9C010000 		.4byte	.LVL272
 9469 1eb8 0100     		.2byte	0x1
 9470 1eba 59       		.byte	0x59
 9471 1ebb 00000000 		.4byte	0
 9472 1ebf 00000000 		.4byte	0
 9473              	.LLST145:
 9474 1ec3 98000000 		.4byte	.LVL230
 9475 1ec7 9E000000 		.4byte	.LVL231
 9476 1ecb 0100     		.2byte	0x1
 9477 1ecd 58       		.byte	0x58
 9478 1ece E0000000 		.4byte	.LVL239
 9479 1ed2 EA000000 		.4byte	.LVL240
 9480 1ed6 0100     		.2byte	0x1
 9481 1ed8 58       		.byte	0x58
 9482 1ed9 00000000 		.4byte	0
 9483 1edd 00000000 		.4byte	0
 9484              	.LLST146:
 9485 1ee1 F2000000 		.4byte	.LVL241
 9486 1ee5 5C010000 		.4byte	.LVL261
 9487 1ee9 0100     		.2byte	0x1
 9488 1eeb 59       		.byte	0x59
 9489 1eec 6A010000 		.4byte	.LVL264
 9490 1ef0 9C010000 		.4byte	.LVL272
 9491 1ef4 0100     		.2byte	0x1
 9492 1ef6 59       		.byte	0x59
 9493 1ef7 00000000 		.4byte	0
 9494 1efb 00000000 		.4byte	0
 9495              	.LLST147:
 9496 1eff F2000000 		.4byte	.LVL241
 9497 1f03 0C010000 		.4byte	.LVL244
 9498 1f07 0100     		.2byte	0x1
 9499 1f09 50       		.byte	0x50
 9500 1f0a 38010000 		.4byte	.LVL251
 9501 1f0e 4E010000 		.4byte	.LVL257
 9502 1f12 0100     		.2byte	0x1
 9503 1f14 50       		.byte	0x50
 9504 1f15 6A010000 		.4byte	.LVL264
 9505 1f19 70010000 		.4byte	.LVL265
 9506 1f1d 0100     		.2byte	0x1
 9507 1f1f 50       		.byte	0x50
 9508 1f20 00000000 		.4byte	0
 9509 1f24 00000000 		.4byte	0
 9510              	.LLST148:
 9511 1f28 F2000000 		.4byte	.LVL241
 9512 1f2c 5C010000 		.4byte	.LVL261
 9513 1f30 0100     		.2byte	0x1
 9514 1f32 56       		.byte	0x56
 9515 1f33 6A010000 		.4byte	.LVL264
ARM GAS  C:\Users\pearlstl\AppData\Local\Temp\ccllHTLf.s 			page 183


 9516 1f37 9C010000 		.4byte	.LVL272
 9517 1f3b 0100     		.2byte	0x1
 9518 1f3d 56       		.byte	0x56
 9519 1f3e 00000000 		.4byte	0
 9520 1f42 00000000 		.4byte	0
 9521              	.LLST149:
 9522 1f46 F2000000 		.4byte	.LVL241
 9523 1f4a FC000000 		.4byte	.LVL243
 9524 1f4e 0100     		.2byte	0x1
 9525 1f50 53       		.byte	0x53
 9526 1f51 FC000000 		.4byte	.LVL243
 9527 1f55 1A010000 		.4byte	.LVL246
 9528 1f59 0200     		.2byte	0x2
 9529 1f5b 79       		.byte	0x79
 9530 1f5c 0C       		.sleb128 12
 9531 1f5d 38010000 		.4byte	.LVL251
 9532 1f61 3C010000 		.4byte	.LVL253
 9533 1f65 0100     		.2byte	0x1
 9534 1f67 53       		.byte	0x53
 9535 1f68 3C010000 		.4byte	.LVL253
 9536 1f6c 5C010000 		.4byte	.LVL261
 9537 1f70 0200     		.2byte	0x2
 9538 1f72 79       		.byte	0x79
 9539 1f73 0C       		.sleb128 12
 9540 1f74 6A010000 		.4byte	.LVL264
 9541 1f78 7E010000 		.4byte	.LVL267
 9542 1f7c 0200     		.2byte	0x2
 9543 1f7e 79       		.byte	0x79
 9544 1f7f 0C       		.sleb128 12
 9545 1f80 00000000 		.4byte	0
 9546 1f84 00000000 		.4byte	0
 9547              	.LLST150:
 9548 1f88 F2000000 		.4byte	.LVL241
 9549 1f8c 30010000 		.4byte	.LVL248
 9550 1f90 0200     		.2byte	0x2
 9551 1f92 30       		.byte	0x30
 9552 1f93 9F       		.byte	0x9f
 9553 1f94 30010000 		.4byte	.LVL248
 9554 1f98 32010000 		.4byte	.LVL249
 9555 1f9c 0800     		.2byte	0x8
 9556 1f9e 73       		.byte	0x73
 9557 1f9f 00       		.sleb128 0
 9558 1fa0 34       		.byte	0x34
 9559 1fa1 25       		.byte	0x25
 9560 1fa2 77       		.byte	0x77
 9561 1fa3 04       		.sleb128 4
 9562 1fa4 06       		.byte	0x6
 9563 1fa5 22       		.byte	0x22
 9564 1fa6 32010000 		.4byte	.LVL249
 9565 1faa 38010000 		.4byte	.LVL251
 9566 1fae 0B00     		.2byte	0xb
 9567 1fb0 70       		.byte	0x70
 9568 1fb1 00       		.sleb128 0
 9569 1fb2 78       		.byte	0x78
 9570 1fb3 00       		.sleb128 0
 9571 1fb4 1C       		.byte	0x1c
 9572 1fb5 34       		.byte	0x34
ARM GAS  C:\Users\pearlstl\AppData\Local\Temp\ccllHTLf.s 			page 184


 9573 1fb6 25       		.byte	0x25
 9574 1fb7 77       		.byte	0x77
 9575 1fb8 04       		.sleb128 4
 9576 1fb9 06       		.byte	0x6
 9577 1fba 22       		.byte	0x22
 9578 1fbb 38010000 		.4byte	.LVL251
 9579 1fbf 4A010000 		.4byte	.LVL255
 9580 1fc3 0200     		.2byte	0x2
 9581 1fc5 30       		.byte	0x30
 9582 1fc6 9F       		.byte	0x9f
 9583 1fc7 4A010000 		.4byte	.LVL255
 9584 1fcb 50010000 		.4byte	.LVL258
 9585 1fcf 1B00     		.2byte	0x1b
 9586 1fd1 73       		.byte	0x73
 9587 1fd2 00       		.sleb128 0
 9588 1fd3 08       		.byte	0x8
 9589 1fd4 FF       		.byte	0xff
 9590 1fd5 1A       		.byte	0x1a
 9591 1fd6 31       		.byte	0x31
 9592 1fd7 1C       		.byte	0x1c
 9593 1fd8 72       		.byte	0x72
 9594 1fd9 0D       		.sleb128 13
 9595 1fda 94       		.byte	0x94
 9596 1fdb 01       		.byte	0x1
 9597 1fdc 08       		.byte	0x8
 9598 1fdd FF       		.byte	0xff
 9599 1fde 1A       		.byte	0x1a
 9600 1fdf 1E       		.byte	0x1e
 9601 1fe0 71       		.byte	0x71
 9602 1fe1 00       		.sleb128 0
 9603 1fe2 08       		.byte	0x8
 9604 1fe3 FF       		.byte	0xff
 9605 1fe4 1A       		.byte	0x1a
 9606 1fe5 22       		.byte	0x22
 9607 1fe6 72       		.byte	0x72
 9608 1fe7 00       		.sleb128 0
 9609 1fe8 06       		.byte	0x6
 9610 1fe9 22       		.byte	0x22
 9611 1fea 31       		.byte	0x31
 9612 1feb 1C       		.byte	0x1c
 9613 1fec 6A010000 		.4byte	.LVL264
 9614 1ff0 94010000 		.4byte	.LVL269
 9615 1ff4 0200     		.2byte	0x2
 9616 1ff6 30       		.byte	0x30
 9617 1ff7 9F       		.byte	0x9f
 9618 1ff8 94010000 		.4byte	.LVL269
 9619 1ffc 96010000 		.4byte	.LVL270
 9620 2000 0800     		.2byte	0x8
 9621 2002 73       		.byte	0x73
 9622 2003 00       		.sleb128 0
 9623 2004 31       		.byte	0x31
 9624 2005 25       		.byte	0x25
 9625 2006 77       		.byte	0x77
 9626 2007 04       		.sleb128 4
 9627 2008 06       		.byte	0x6
 9628 2009 22       		.byte	0x22
 9629 200a 96010000 		.4byte	.LVL270
ARM GAS  C:\Users\pearlstl\AppData\Local\Temp\ccllHTLf.s 			page 185


 9630 200e 9C010000 		.4byte	.LVL272
 9631 2012 0B00     		.2byte	0xb
 9632 2014 70       		.byte	0x70
 9633 2015 00       		.sleb128 0
 9634 2016 78       		.byte	0x78
 9635 2017 00       		.sleb128 0
 9636 2018 1C       		.byte	0x1c
 9637 2019 31       		.byte	0x31
 9638 201a 25       		.byte	0x25
 9639 201b 77       		.byte	0x77
 9640 201c 04       		.sleb128 4
 9641 201d 06       		.byte	0x6
 9642 201e 22       		.byte	0x22
 9643 201f 00000000 		.4byte	0
 9644 2023 00000000 		.4byte	0
 9645              	.LLST151:
 9646 2027 FA000000 		.4byte	.LVL242
 9647 202b 38010000 		.4byte	.LVL251
 9648 202f 0100     		.2byte	0x1
 9649 2031 57       		.byte	0x57
 9650 2032 6A010000 		.4byte	.LVL264
 9651 2036 9C010000 		.4byte	.LVL272
 9652 203a 0100     		.2byte	0x1
 9653 203c 57       		.byte	0x57
 9654 203d 00000000 		.4byte	0
 9655 2041 00000000 		.4byte	0
 9656              	.LLST152:
 9657 2045 10010000 		.4byte	.LVL245
 9658 2049 38010000 		.4byte	.LVL251
 9659 204d 0100     		.2byte	0x1
 9660 204f 58       		.byte	0x58
 9661 2050 00000000 		.4byte	0
 9662 2054 00000000 		.4byte	0
 9663              	.LLST153:
 9664 2058 28010000 		.4byte	.LVL247
 9665 205c 38010000 		.4byte	.LVL251
 9666 2060 0100     		.2byte	0x1
 9667 2062 50       		.byte	0x50
 9668 2063 00000000 		.4byte	0
 9669 2067 00000000 		.4byte	0
 9670              	.LLST154:
 9671 206b 30010000 		.4byte	.LVL248
 9672 206f 32010000 		.4byte	.LVL249
 9673 2073 0500     		.2byte	0x5
 9674 2075 73       		.byte	0x73
 9675 2076 00       		.sleb128 0
 9676 2077 34       		.byte	0x34
 9677 2078 25       		.byte	0x25
 9678 2079 9F       		.byte	0x9f
 9679 207a 32010000 		.4byte	.LVL249
 9680 207e 36010000 		.4byte	.LVL250
 9681 2082 0100     		.2byte	0x1
 9682 2084 53       		.byte	0x53
 9683 2085 36010000 		.4byte	.LVL250
 9684 2089 38010000 		.4byte	.LVL251
 9685 208d 0800     		.2byte	0x8
 9686 208f 70       		.byte	0x70
ARM GAS  C:\Users\pearlstl\AppData\Local\Temp\ccllHTLf.s 			page 186


 9687 2090 00       		.sleb128 0
 9688 2091 78       		.byte	0x78
 9689 2092 00       		.sleb128 0
 9690 2093 1C       		.byte	0x1c
 9691 2094 34       		.byte	0x34
 9692 2095 25       		.byte	0x25
 9693 2096 9F       		.byte	0x9f
 9694 2097 00000000 		.4byte	0
 9695 209b 00000000 		.4byte	0
 9696              	.LLST155:
 9697 209f 74010000 		.4byte	.LVL266
 9698 20a3 9C010000 		.4byte	.LVL272
 9699 20a7 0100     		.2byte	0x1
 9700 20a9 58       		.byte	0x58
 9701 20aa 00000000 		.4byte	0
 9702 20ae 00000000 		.4byte	0
 9703              	.LLST156:
 9704 20b2 8C010000 		.4byte	.LVL268
 9705 20b6 9C010000 		.4byte	.LVL272
 9706 20ba 0100     		.2byte	0x1
 9707 20bc 50       		.byte	0x50
 9708 20bd 00000000 		.4byte	0
 9709 20c1 00000000 		.4byte	0
 9710              	.LLST157:
 9711 20c5 94010000 		.4byte	.LVL269
 9712 20c9 96010000 		.4byte	.LVL270
 9713 20cd 0500     		.2byte	0x5
 9714 20cf 73       		.byte	0x73
 9715 20d0 00       		.sleb128 0
 9716 20d1 31       		.byte	0x31
 9717 20d2 25       		.byte	0x25
 9718 20d3 9F       		.byte	0x9f
 9719 20d4 96010000 		.4byte	.LVL270
 9720 20d8 9A010000 		.4byte	.LVL271
 9721 20dc 0100     		.2byte	0x1
 9722 20de 53       		.byte	0x53
 9723 20df 9A010000 		.4byte	.LVL271
 9724 20e3 9C010000 		.4byte	.LVL272
 9725 20e7 0800     		.2byte	0x8
 9726 20e9 70       		.byte	0x70
 9727 20ea 00       		.sleb128 0
 9728 20eb 78       		.byte	0x78
 9729 20ec 00       		.sleb128 0
 9730 20ed 1C       		.byte	0x1c
 9731 20ee 31       		.byte	0x31
 9732 20ef 25       		.byte	0x25
 9733 20f0 9F       		.byte	0x9f
 9734 20f1 00000000 		.4byte	0
 9735 20f5 00000000 		.4byte	0
 9736              	.LLST158:
 9737 20f9 3A010000 		.4byte	.LVL252
 9738 20fd 52010000 		.4byte	.LVL259
 9739 2101 0100     		.2byte	0x1
 9740 2103 52       		.byte	0x52
 9741 2104 52010000 		.4byte	.LVL259
 9742 2108 5C010000 		.4byte	.LVL261
 9743 210c 0500     		.2byte	0x5
ARM GAS  C:\Users\pearlstl\AppData\Local\Temp\ccllHTLf.s 			page 187


 9744 210e 79       		.byte	0x79
 9745 210f 0C       		.sleb128 12
 9746 2110 06       		.byte	0x6
 9747 2111 23       		.byte	0x23
 9748 2112 0C       		.uleb128 0xc
 9749 2113 00000000 		.4byte	0
 9750 2117 00000000 		.4byte	0
 9751              	.LLST159:
 9752 211b 3E010000 		.4byte	.LVL254
 9753 211f 56010000 		.4byte	.LVL260
 9754 2123 0100     		.2byte	0x1
 9755 2125 53       		.byte	0x53
 9756 2126 56010000 		.4byte	.LVL260
 9757 212a 5C010000 		.4byte	.LVL261
 9758 212e 0300     		.2byte	0x3
 9759 2130 72       		.byte	0x72
 9760 2131 01       		.sleb128 1
 9761 2132 9F       		.byte	0x9f
 9762 2133 00000000 		.4byte	0
 9763 2137 00000000 		.4byte	0
 9764              	.LLST160:
 9765 213b 3E010000 		.4byte	.LVL254
 9766 213f 4E010000 		.4byte	.LVL257
 9767 2143 0600     		.2byte	0x6
 9768 2145 72       		.byte	0x72
 9769 2146 08       		.sleb128 8
 9770 2147 06       		.byte	0x6
 9771 2148 70       		.byte	0x70
 9772 2149 00       		.sleb128 0
 9773 214a 22       		.byte	0x22
 9774 214b 00000000 		.4byte	0
 9775 214f 00000000 		.4byte	0
 9776              		.section	.debug_aranges,"",%progbits
 9777 0000 44000000 		.4byte	0x44
 9778 0004 0200     		.2byte	0x2
 9779 0006 00000000 		.4byte	.Ldebug_info0
 9780 000a 04       		.byte	0x4
 9781 000b 00       		.byte	0
 9782 000c 0000     		.2byte	0
 9783 000e 0000     		.2byte	0
 9784 0010 00000000 		.4byte	.LFB35
 9785 0014 12000000 		.4byte	.LFE35-.LFB35
 9786 0018 00000000 		.4byte	.LFB36
 9787 001c 12000000 		.4byte	.LFE36-.LFB36
 9788 0020 00000000 		.4byte	.LFB43
 9789 0024 08000000 		.4byte	.LFE43-.LFB43
 9790 0028 00000000 		.4byte	.LFB45
 9791 002c DC000000 		.4byte	.LFE45-.LFB45
 9792 0030 00000000 		.4byte	.LFB31
 9793 0034 A0070000 		.4byte	.LFE31-.LFB31
 9794 0038 00000000 		.4byte	.LFB32
 9795 003c 0C020000 		.4byte	.LFE32-.LFB32
 9796 0040 00000000 		.4byte	0
 9797 0044 00000000 		.4byte	0
 9798              		.section	.debug_ranges,"",%progbits
 9799              	.Ldebug_ranges0:
 9800 0000 16000000 		.4byte	.LBB52
ARM GAS  C:\Users\pearlstl\AppData\Local\Temp\ccllHTLf.s 			page 188


 9801 0004 34000000 		.4byte	.LBE52
 9802 0008 38000000 		.4byte	.LBB58
 9803 000c 3A000000 		.4byte	.LBE58
 9804 0010 3E000000 		.4byte	.LBB59
 9805 0014 44000000 		.4byte	.LBE59
 9806 0018 46000000 		.4byte	.LBB60
 9807 001c 4A000000 		.4byte	.LBE60
 9808 0020 4C000000 		.4byte	.LBB61
 9809 0024 76000000 		.4byte	.LBE61
 9810 0028 7C000000 		.4byte	.LBB62
 9811 002c 86000000 		.4byte	.LBE62
 9812 0030 8E000000 		.4byte	.LBB63
 9813 0034 DC000000 		.4byte	.LBE63
 9814 0038 00000000 		.4byte	0
 9815 003c 00000000 		.4byte	0
 9816 0040 00000000 		.4byte	.LBB107
 9817 0044 02000000 		.4byte	.LBE107
 9818 0048 10000000 		.4byte	.LBB110
 9819 004c 14000000 		.4byte	.LBE110
 9820 0050 00000000 		.4byte	0
 9821 0054 00000000 		.4byte	0
 9822 0058 42000000 		.4byte	.LBB111
 9823 005c 1E030000 		.4byte	.LBE111
 9824 0060 22030000 		.4byte	.LBB242
 9825 0064 34060000 		.4byte	.LBE242
 9826 0068 3A060000 		.4byte	.LBB243
 9827 006c A0070000 		.4byte	.LBE243
 9828 0070 00000000 		.4byte	0
 9829 0074 00000000 		.4byte	0
 9830 0078 8E000000 		.4byte	.LBB112
 9831 007c 90000000 		.4byte	.LBE112
 9832 0080 A0000000 		.4byte	.LBB236
 9833 0084 A8000000 		.4byte	.LBE236
 9834 0088 AA000000 		.4byte	.LBB237
 9835 008c AC000000 		.4byte	.LBE237
 9836 0090 AE000000 		.4byte	.LBB238
 9837 0094 C6020000 		.4byte	.LBE238
 9838 0098 E2020000 		.4byte	.LBB239
 9839 009c 1E030000 		.4byte	.LBE239
 9840 00a0 22030000 		.4byte	.LBB240
 9841 00a4 30060000 		.4byte	.LBE240
 9842 00a8 3A060000 		.4byte	.LBB241
 9843 00ac A0070000 		.4byte	.LBE241
 9844 00b0 00000000 		.4byte	0
 9845 00b4 00000000 		.4byte	0
 9846 00b8 8E000000 		.4byte	.LBB114
 9847 00bc 90000000 		.4byte	.LBE114
 9848 00c0 A4000000 		.4byte	.LBB121
 9849 00c4 A8000000 		.4byte	.LBE121
 9850 00c8 AA000000 		.4byte	.LBB122
 9851 00cc AC000000 		.4byte	.LBE122
 9852 00d0 AE000000 		.4byte	.LBB123
 9853 00d4 B0000000 		.4byte	.LBE123
 9854 00d8 BA000000 		.4byte	.LBB124
 9855 00dc BC000000 		.4byte	.LBE124
 9856 00e0 BE000000 		.4byte	.LBB125
 9857 00e4 C6000000 		.4byte	.LBE125
ARM GAS  C:\Users\pearlstl\AppData\Local\Temp\ccllHTLf.s 			page 189


 9858 00e8 00000000 		.4byte	0
 9859 00ec 00000000 		.4byte	0
 9860 00f0 D6000000 		.4byte	.LBB126
 9861 00f4 CC010000 		.4byte	.LBE126
 9862 00f8 10020000 		.4byte	.LBB178
 9863 00fc C6020000 		.4byte	.LBE178
 9864 0100 E2020000 		.4byte	.LBB179
 9865 0104 1E030000 		.4byte	.LBE179
 9866 0108 22030000 		.4byte	.LBB180
 9867 010c 5C030000 		.4byte	.LBE180
 9868 0110 00000000 		.4byte	0
 9869 0114 00000000 		.4byte	0
 9870 0118 DC000000 		.4byte	.LBB128
 9871 011c 66010000 		.4byte	.LBE128
 9872 0120 AA010000 		.4byte	.LBB162
 9873 0124 CC010000 		.4byte	.LBE162
 9874 0128 10020000 		.4byte	.LBB163
 9875 012c C6020000 		.4byte	.LBE163
 9876 0130 E2020000 		.4byte	.LBB164
 9877 0134 1E030000 		.4byte	.LBE164
 9878 0138 22030000 		.4byte	.LBB165
 9879 013c 58030000 		.4byte	.LBE165
 9880 0140 00000000 		.4byte	0
 9881 0144 00000000 		.4byte	0
 9882 0148 E6000000 		.4byte	.LBB130
 9883 014c FC000000 		.4byte	.LBE130
 9884 0150 02010000 		.4byte	.LBB135
 9885 0154 2A010000 		.4byte	.LBE135
 9886 0158 2E010000 		.4byte	.LBB136
 9887 015c 4C010000 		.4byte	.LBE136
 9888 0160 64010000 		.4byte	.LBB137
 9889 0164 66010000 		.4byte	.LBE137
 9890 0168 00000000 		.4byte	0
 9891 016c 00000000 		.4byte	0
 9892 0170 46020000 		.4byte	.LBB140
 9893 0174 4E020000 		.4byte	.LBE140
 9894 0178 50020000 		.4byte	.LBB143
 9895 017c 66020000 		.4byte	.LBE143
 9896 0180 00000000 		.4byte	0
 9897 0184 00000000 		.4byte	0
 9898 0188 7E020000 		.4byte	.LBB144
 9899 018c 9A020000 		.4byte	.LBE144
 9900 0190 9E020000 		.4byte	.LBB147
 9901 0194 A0020000 		.4byte	.LBE147
 9902 0198 00000000 		.4byte	0
 9903 019c 00000000 		.4byte	0
 9904 01a0 E2020000 		.4byte	.LBB148
 9905 01a4 06030000 		.4byte	.LBE148
 9906 01a8 08030000 		.4byte	.LBB151
 9907 01ac 0C030000 		.4byte	.LBE151
 9908 01b0 00000000 		.4byte	0
 9909 01b4 00000000 		.4byte	0
 9910 01b8 22030000 		.4byte	.LBB152
 9911 01bc 2A030000 		.4byte	.LBE152
 9912 01c0 2C030000 		.4byte	.LBB156
 9913 01c4 40030000 		.4byte	.LBE156
 9914 01c8 42030000 		.4byte	.LBB157
ARM GAS  C:\Users\pearlstl\AppData\Local\Temp\ccllHTLf.s 			page 190


 9915 01cc 44030000 		.4byte	.LBE157
 9916 01d0 00000000 		.4byte	0
 9917 01d4 00000000 		.4byte	0
 9918 01d8 CC010000 		.4byte	.LBB169
 9919 01dc E0010000 		.4byte	.LBE169
 9920 01e0 E4010000 		.4byte	.LBB175
 9921 01e4 E8010000 		.4byte	.LBE175
 9922 01e8 EC010000 		.4byte	.LBB176
 9923 01ec F0010000 		.4byte	.LBE176
 9924 01f0 F4010000 		.4byte	.LBB177
 9925 01f4 10020000 		.4byte	.LBE177
 9926 01f8 E0060000 		.4byte	.LBB229
 9927 01fc A0070000 		.4byte	.LBE229
 9928 0200 00000000 		.4byte	0
 9929 0204 00000000 		.4byte	0
 9930 0208 64030000 		.4byte	.LBB181
 9931 020c 76040000 		.4byte	.LBE181
 9932 0210 2C050000 		.4byte	.LBB227
 9933 0214 F8050000 		.4byte	.LBE227
 9934 0218 3A060000 		.4byte	.LBB228
 9935 021c E0060000 		.4byte	.LBE228
 9936 0220 00000000 		.4byte	0
 9937 0224 00000000 		.4byte	0
 9938 0228 64030000 		.4byte	.LBB183
 9939 022c BC030000 		.4byte	.LBE183
 9940 0230 EC030000 		.4byte	.LBB214
 9941 0234 32040000 		.4byte	.LBE214
 9942 0238 2C050000 		.4byte	.LBB215
 9943 023c F8050000 		.4byte	.LBE215
 9944 0240 3A060000 		.4byte	.LBB216
 9945 0244 E0060000 		.4byte	.LBE216
 9946 0248 00000000 		.4byte	0
 9947 024c 00000000 		.4byte	0
 9948 0250 82030000 		.4byte	.LBB185
 9949 0254 BC030000 		.4byte	.LBE185
 9950 0258 F2030000 		.4byte	.LBB189
 9951 025c 16040000 		.4byte	.LBE189
 9952 0260 30040000 		.4byte	.LBB190
 9953 0264 32040000 		.4byte	.LBE190
 9954 0268 00000000 		.4byte	0
 9955 026c 00000000 		.4byte	0
 9956 0270 66050000 		.4byte	.LBB193
 9957 0274 74050000 		.4byte	.LBE193
 9958 0278 76050000 		.4byte	.LBB196
 9959 027c 8C050000 		.4byte	.LBE196
 9960 0280 00000000 		.4byte	0
 9961 0284 00000000 		.4byte	0
 9962 0288 AA050000 		.4byte	.LBB197
 9963 028c CC050000 		.4byte	.LBE197
 9964 0290 D0050000 		.4byte	.LBB200
 9965 0294 D2050000 		.4byte	.LBE200
 9966 0298 00000000 		.4byte	0
 9967 029c 00000000 		.4byte	0
 9968 02a0 54060000 		.4byte	.LBB201
 9969 02a4 78060000 		.4byte	.LBE201
 9970 02a8 7A060000 		.4byte	.LBB204
 9971 02ac 7E060000 		.4byte	.LBE204
ARM GAS  C:\Users\pearlstl\AppData\Local\Temp\ccllHTLf.s 			page 191


 9972 02b0 00000000 		.4byte	0
 9973 02b4 00000000 		.4byte	0
 9974 02b8 84060000 		.4byte	.LBB205
 9975 02bc 90060000 		.4byte	.LBE205
 9976 02c0 92060000 		.4byte	.LBB209
 9977 02c4 9C060000 		.4byte	.LBE209
 9978 02c8 9E060000 		.4byte	.LBB210
 9979 02cc AE060000 		.4byte	.LBE210
 9980 02d0 00000000 		.4byte	0
 9981 02d4 00000000 		.4byte	0
 9982 02d8 76040000 		.4byte	.LBB219
 9983 02dc 8A040000 		.4byte	.LBE219
 9984 02e0 8E040000 		.4byte	.LBB224
 9985 02e4 92040000 		.4byte	.LBE224
 9986 02e8 9E040000 		.4byte	.LBB225
 9987 02ec A2040000 		.4byte	.LBE225
 9988 02f0 AC040000 		.4byte	.LBB226
 9989 02f4 2C050000 		.4byte	.LBE226
 9990 02f8 00000000 		.4byte	0
 9991 02fc 00000000 		.4byte	0
 9992 0300 00000000 		.4byte	.LBB265
 9993 0304 02000000 		.4byte	.LBE265
 9994 0308 0E000000 		.4byte	.LBB293
 9995 030c 12000000 		.4byte	.LBE293
 9996 0310 1A000000 		.4byte	.LBB294
 9997 0314 8E000000 		.4byte	.LBE294
 9998 0318 5C010000 		.4byte	.LBB316
 9999 031c 6A010000 		.4byte	.LBE316
 10000 0320 9C010000 		.4byte	.LBB318
 10001 0324 A2010000 		.4byte	.LBE318
 10002 0328 A6010000 		.4byte	.LBB319
 10003 032c 0C020000 		.4byte	.LBE319
 10004 0330 00000000 		.4byte	0
 10005 0334 00000000 		.4byte	0
 10006 0338 2A000000 		.4byte	.LBB269
 10007 033c 3A000000 		.4byte	.LBE269
 10008 0340 3E000000 		.4byte	.LBB275
 10009 0344 46000000 		.4byte	.LBE275
 10010 0348 48000000 		.4byte	.LBB276
 10011 034c 4C000000 		.4byte	.LBE276
 10012 0350 50000000 		.4byte	.LBB277
 10013 0354 8E000000 		.4byte	.LBE277
 10014 0358 60010000 		.4byte	.LBB278
 10015 035c 6A010000 		.4byte	.LBE278
 10016 0360 A6010000 		.4byte	.LBB279
 10017 0364 0C020000 		.4byte	.LBE279
 10018 0368 00000000 		.4byte	0
 10019 036c 00000000 		.4byte	0
 10020 0370 98000000 		.4byte	.LBB295
 10021 0374 A0000000 		.4byte	.LBE295
 10022 0378 E0000000 		.4byte	.LBB315
 10023 037c 5C010000 		.4byte	.LBE315
 10024 0380 6A010000 		.4byte	.LBB317
 10025 0384 9C010000 		.4byte	.LBE317
 10026 0388 00000000 		.4byte	0
 10027 038c 00000000 		.4byte	0
 10028 0390 98000000 		.4byte	.LBB296
ARM GAS  C:\Users\pearlstl\AppData\Local\Temp\ccllHTLf.s 			page 192


 10029 0394 9E000000 		.4byte	.LBE296
 10030 0398 E0000000 		.4byte	.LBB312
 10031 039c EA000000 		.4byte	.LBE312
 10032 03a0 00000000 		.4byte	0
 10033 03a4 00000000 		.4byte	0
 10034 03a8 9E000000 		.4byte	.LBB299
 10035 03ac A0000000 		.4byte	.LBE299
 10036 03b0 F2000000 		.4byte	.LBB313
 10037 03b4 5C010000 		.4byte	.LBE313
 10038 03b8 6A010000 		.4byte	.LBB314
 10039 03bc 9C010000 		.4byte	.LBE314
 10040 03c0 00000000 		.4byte	0
 10041 03c4 00000000 		.4byte	0
 10042 03c8 9E000000 		.4byte	.LBB301
 10043 03cc A0000000 		.4byte	.LBE301
 10044 03d0 F8000000 		.4byte	.LBB307
 10045 03d4 38010000 		.4byte	.LBE307
 10046 03d8 6A010000 		.4byte	.LBB309
 10047 03dc 9C010000 		.4byte	.LBE309
 10048 03e0 00000000 		.4byte	0
 10049 03e4 00000000 		.4byte	0
 10050 03e8 9E000000 		.4byte	.LBB302
 10051 03ec A0000000 		.4byte	.LBE302
 10052 03f0 06010000 		.4byte	.LBB304
 10053 03f4 38010000 		.4byte	.LBE304
 10054 03f8 00000000 		.4byte	0
 10055 03fc 00000000 		.4byte	0
 10056 0400 00000000 		.4byte	.LFB35
 10057 0404 12000000 		.4byte	.LFE35
 10058 0408 00000000 		.4byte	.LFB36
 10059 040c 12000000 		.4byte	.LFE36
 10060 0410 00000000 		.4byte	.LFB43
 10061 0414 08000000 		.4byte	.LFE43
 10062 0418 00000000 		.4byte	.LFB45
 10063 041c DC000000 		.4byte	.LFE45
 10064 0420 00000000 		.4byte	.LFB31
 10065 0424 A0070000 		.4byte	.LFE31
 10066 0428 00000000 		.4byte	.LFB32
 10067 042c 0C020000 		.4byte	.LFE32
 10068 0430 00000000 		.4byte	0
 10069 0434 00000000 		.4byte	0
 10070              		.section	.debug_line,"",%progbits
 10071              	.Ldebug_line0:
 10072 0000 0E060000 		.section	.debug_str,"MS",%progbits,1
 10072      02009F02 
 10072      00000201 
 10072      FB0E0D00 
 10072      01010101 
 10073              	.LASF65:
 10074 0000 676C7970 		.ascii	"glyph_dsc\000"
 10074      685F6473 
 10074      6300
 10075              	.LASF55:
 10076 000a 6C765F66 		.ascii	"lv_font_fmt_txt_kern_pair_t\000"
 10076      6F6E745F 
 10076      666D745F 
 10076      7478745F 
ARM GAS  C:\Users\pearlstl\AppData\Local\Temp\ccllHTLf.s 			page 193


 10076      6B65726E 
 10077              	.LASF48:
 10078 0026 6C697374 		.ascii	"list_length\000"
 10078      5F6C656E 
 10078      67746800 
 10079              	.LASF30:
 10080 0032 6765745F 		.ascii	"get_glyph_bitmap\000"
 10080      676C7970 
 10080      685F6269 
 10080      746D6170 
 10080      00
 10081              	.LASF58:
 10082 0043 72696768 		.ascii	"right_class_mapping\000"
 10082      745F636C 
 10082      6173735F 
 10082      6D617070 
 10082      696E6700 
 10083              	.LASF1:
 10084 0057 5F5F7569 		.ascii	"__uint8_t\000"
 10084      6E74385F 
 10084      7400
 10085              	.LASF49:
 10086 0061 74797065 		.ascii	"type\000"
 10086      00
 10087              	.LASF83:
 10088 0066 62797465 		.ascii	"byte_pos\000"
 10088      5F706F73 
 10088      00
 10089              	.LASF90:
 10090 006f 66647363 		.ascii	"fdsc\000"
 10090      00
 10091              	.LASF103:
 10092 0074 72696768 		.ascii	"right_class\000"
 10092      745F636C 
 10092      61737300 
 10093              	.LASF34:
 10094 0080 6C765F66 		.ascii	"lv_font_t\000"
 10094      6F6E745F 
 10094      7400
 10095              	.LASF66:
 10096 008a 636D6170 		.ascii	"cmaps\000"
 10096      7300
 10097              	.LASF52:
 10098 0090 76616C75 		.ascii	"values\000"
 10098      657300
 10099              	.LASF129:
 10100 0097 6B76616C 		.ascii	"kvalue\000"
 10100      756500
 10101              	.LASF113:
 10102 009e 756E6963 		.ascii	"unicode_list_compare\000"
 10102      6F64655F 
 10102      6C697374 
 10102      5F636F6D 
 10102      70617265 
 10103              	.LASF138:
 10104 00b3 6C765F64 		.ascii	"lv_draw_get_buf\000"
 10104      7261775F 
ARM GAS  C:\Users\pearlstl\AppData\Local\Temp\ccllHTLf.s 			page 194


 10104      6765745F 
 10104      62756600 
 10105              	.LASF0:
 10106 00c3 5F5F696E 		.ascii	"__int8_t\000"
 10106      74385F74 
 10106      00
 10107              	.LASF126:
 10108 00cc 6C765F66 		.ascii	"lv_font_get_glyph_dsc_fmt_txt\000"
 10108      6F6E745F 
 10108      6765745F 
 10108      676C7970 
 10108      685F6473 
 10109              	.LASF99:
 10110 00ea 675F6964 		.ascii	"g_ids\000"
 10110      7300
 10111              	.LASF21:
 10112 00f0 6C765F63 		.ascii	"lv_coord_t\000"
 10112      6F6F7264 
 10112      5F7400
 10113              	.LASF17:
 10114 00fb 696E7431 		.ascii	"int16_t\000"
 10114      365F7400 
 10115              	.LASF12:
 10116 0103 6C6F6E67 		.ascii	"long long int\000"
 10116      206C6F6E 
 10116      6720696E 
 10116      7400
 10117              	.LASF2:
 10118 0111 7369676E 		.ascii	"signed char\000"
 10118      65642063 
 10118      68617200 
 10119              	.LASF36:
 10120 011d 6269746D 		.ascii	"bitmap_index\000"
 10120      61705F69 
 10120      6E646578 
 10120      00
 10121              	.LASF61:
 10122 012a 6C765F66 		.ascii	"lv_font_fmt_txt_kern_classes_t\000"
 10122      6F6E745F 
 10122      666D745F 
 10122      7478745F 
 10122      6B65726E 
 10123              	.LASF54:
 10124 0149 676C7970 		.ascii	"glyph_ids_size\000"
 10124      685F6964 
 10124      735F7369 
 10124      7A6500
 10125              	.LASF40:
 10126 0158 4C565F46 		.ascii	"LV_FONT_FMT_TXT_CMAP_SPARSE_TINY\000"
 10126      4F4E545F 
 10126      464D545F 
 10126      5458545F 
 10126      434D4150 
 10127              	.LASF117:
 10128 0179 6C696E65 		.ascii	"line_buf1\000"
 10128      5F627566 
 10128      3100
ARM GAS  C:\Users\pearlstl\AppData\Local\Temp\ccllHTLf.s 			page 195


 10129              	.LASF9:
 10130 0183 6C6F6E67 		.ascii	"long int\000"
 10130      20696E74 
 10130      00
 10131              	.LASF100:
 10132 018c 675F6964 		.ascii	"g_id_both\000"
 10132      5F626F74 
 10132      6800
 10133              	.LASF105:
 10134 0196 726C655F 		.ascii	"rle_init\000"
 10134      696E6974 
 10134      00
 10135              	.LASF18:
 10136 019f 75696E74 		.ascii	"uint16_t\000"
 10136      31365F74 
 10136      00
 10137              	.LASF13:
 10138 01a8 6C6F6E67 		.ascii	"long long unsigned int\000"
 10138      206C6F6E 
 10138      6720756E 
 10138      7369676E 
 10138      65642069 
 10139              	.LASF88:
 10140 01bf 666F6E74 		.ascii	"font\000"
 10140      00
 10141              	.LASF74:
 10142 01c4 6C765F66 		.ascii	"lv_font_fmt_txt_dsc_t\000"
 10142      6F6E745F 
 10142      666D745F 
 10142      7478745F 
 10142      6473635F 
 10143              	.LASF63:
 10144 01da 4C565F46 		.ascii	"LV_FONT_FMT_TXT_COMPRESSED\000"
 10144      4F4E545F 
 10144      464D545F 
 10144      5458545F 
 10144      434F4D50 
 10145              	.LASF119:
 10146 01f5 726C655F 		.ascii	"rle_next\000"
 10146      6E657874 
 10146      00
 10147              	.LASF111:
 10148 01fe 72656631 		.ascii	"ref16_p\000"
 10148      365F7000 
 10149              	.LASF91:
 10150 0206 676C7970 		.ascii	"glyph_id\000"
 10150      685F6964 
 10150      00
 10151              	.LASF62:
 10152 020f 4C565F46 		.ascii	"LV_FONT_FMT_TXT_PLAIN\000"
 10152      4F4E545F 
 10152      464D545F 
 10152      5458545F 
 10152      504C4149 
 10153              	.LASF41:
 10154 0225 4C565F46 		.ascii	"LV_FONT_FMT_TXT_CMAP_SPARSE_FULL\000"
 10154      4F4E545F 
ARM GAS  C:\Users\pearlstl\AppData\Local\Temp\ccllHTLf.s 			page 196


 10154      464D545F 
 10154      5458545F 
 10154      434D4150 
 10155              	.LASF10:
 10156 0246 5F5F7569 		.ascii	"__uint32_t\000"
 10156      6E743332 
 10156      5F7400
 10157              	.LASF87:
 10158 0251 6765745F 		.ascii	"get_glyph_dsc_id\000"
 10158      676C7970 
 10158      685F6473 
 10158      635F6964 
 10158      00
 10159              	.LASF4:
 10160 0262 5F5F696E 		.ascii	"__int16_t\000"
 10160      7431365F 
 10160      7400
 10161              	.LASF97:
 10162 026c 76616C75 		.ascii	"value\000"
 10162      6500
 10163              	.LASF72:
 10164 0272 6C617374 		.ascii	"last_letter\000"
 10164      5F6C6574 
 10164      74657200 
 10165              	.LASF133:
 10166 027e 726C655F 		.ascii	"rle_bpp\000"
 10166      62707000 
 10167              	.LASF127:
 10168 0286 6473635F 		.ascii	"dsc_out\000"
 10168      6F757400 
 10169              	.LASF14:
 10170 028e 756E7369 		.ascii	"unsigned int\000"
 10170      676E6564 
 10170      20696E74 
 10170      00
 10171              	.LASF29:
 10172 029b 6765745F 		.ascii	"get_glyph_dsc\000"
 10172      676C7970 
 10172      685F6473 
 10172      6300
 10173              	.LASF68:
 10174 02a9 6B65726E 		.ascii	"kern_scale\000"
 10174      5F736361 
 10174      6C6500
 10175              	.LASF134:
 10176 02b4 726C655F 		.ascii	"rle_prev_v\000"
 10176      70726576 
 10176      5F7600
 10177              	.LASF60:
 10178 02bf 72696768 		.ascii	"right_class_cnt\000"
 10178      745F636C 
 10178      6173735F 
 10178      636E7400 
 10179              	.LASF11:
 10180 02cf 6C6F6E67 		.ascii	"long unsigned int\000"
 10180      20756E73 
 10180      69676E65 
ARM GAS  C:\Users\pearlstl\AppData\Local\Temp\ccllHTLf.s 			page 197


 10180      6420696E 
 10180      7400
 10181              	.LASF136:
 10182 02e1 726C655F 		.ascii	"rle_state\000"
 10182      73746174 
 10182      6500
 10183              	.LASF102:
 10184 02eb 6C656674 		.ascii	"left_class\000"
 10184      5F636C61 
 10184      737300
 10185              	.LASF80:
 10186 02f6 524C455F 		.ascii	"RLE_STATE_COUNTER\000"
 10186      53544154 
 10186      455F434F 
 10186      554E5445 
 10186      5200
 10187              	.LASF122:
 10188 0308 67647363 		.ascii	"gdsc\000"
 10188      00
 10189              	.LASF7:
 10190 030d 73686F72 		.ascii	"short unsigned int\000"
 10190      7420756E 
 10190      7369676E 
 10190      65642069 
 10190      6E7400
 10191              	.LASF44:
 10192 0320 72616E67 		.ascii	"range_length\000"
 10192      655F6C65 
 10192      6E677468 
 10192      00
 10193              	.LASF31:
 10194 032d 6C696E65 		.ascii	"line_height\000"
 10194      5F686569 
 10194      67687400 
 10195              	.LASF128:
 10196 0339 756E6963 		.ascii	"unicode_letter_next\000"
 10196      6F64655F 
 10196      6C657474 
 10196      65725F6E 
 10196      65787400 
 10197              	.LASF35:
 10198 034d 73756270 		.ascii	"subpx\000"
 10198      7800
 10199              	.LASF143:
 10200 0353 433A5C55 		.ascii	"C:\\Users\\pearlstl\\Documents\\_Research\\projects"
 10200      73657273 
 10200      5C706561 
 10200      726C7374 
 10200      6C5C446F 
 10201 0381 5C74636F 		.ascii	"\\tcom_engineering\\embed_sw\\tcom_app\\tcom_app_ps"
 10201      6D5F656E 
 10201      67696E65 
 10201      6572696E 
 10201      675C656D 
 10202 03b0 6F63365F 		.ascii	"oc6_lvgl6\\tcom_displ_test_psoc6.cydsn\000"
 10202      6C76676C 
 10202      365C7463 
ARM GAS  C:\Users\pearlstl\AppData\Local\Temp\ccllHTLf.s 			page 198


 10202      6F6D5F64 
 10202      6973706C 
 10203              	.LASF50:
 10204 03d6 6C765F66 		.ascii	"lv_font_fmt_txt_cmap_t\000"
 10204      6F6E745F 
 10204      666D745F 
 10204      7478745F 
 10204      636D6170 
 10205              	.LASF84:
 10206 03ed 6269745F 		.ascii	"bit_mask\000"
 10206      6D61736B 
 10206      00
 10207              	.LASF8:
 10208 03f6 5F5F696E 		.ascii	"__int32_t\000"
 10208      7433325F 
 10208      7400
 10209              	.LASF64:
 10210 0400 676C7970 		.ascii	"glyph_bitmap\000"
 10210      685F6269 
 10210      746D6170 
 10210      00
 10211              	.LASF28:
 10212 040d 6C765F66 		.ascii	"lv_font_glyph_dsc_t\000"
 10212      6F6E745F 
 10212      676C7970 
 10212      685F6473 
 10212      635F7400 
 10213              	.LASF95:
 10214 0421 6769645F 		.ascii	"gid_left\000"
 10214      6C656674 
 10214      00
 10215              	.LASF51:
 10216 042a 676C7970 		.ascii	"glyph_ids\000"
 10216      685F6964 
 10216      7300
 10217              	.LASF125:
 10218 0434 6C765F66 		.ascii	"lv_font_get_bitmap_fmt_txt\000"
 10218      6F6E745F 
 10218      6765745F 
 10218      6269746D 
 10218      61705F66 
 10219              	.LASF47:
 10220 044f 676C7970 		.ascii	"glyph_id_ofs_list\000"
 10220      685F6964 
 10220      5F6F6673 
 10220      5F6C6973 
 10220      7400
 10221              	.LASF132:
 10222 0461 726C655F 		.ascii	"rle_in\000"
 10222      696E00
 10223              	.LASF75:
 10224 0468 73697A65 		.ascii	"sizetype\000"
 10224      74797065 
 10224      00
 10225              	.LASF137:
 10226 0471 6C765F75 		.ascii	"lv_utils_bsearch\000"
 10226      74696C73 
ARM GAS  C:\Users\pearlstl\AppData\Local\Temp\ccllHTLf.s 			page 199


 10226      5F627365 
 10226      61726368 
 10226      00
 10227              	.LASF124:
 10228 0482 6275665F 		.ascii	"buf_size\000"
 10228      73697A65 
 10228      00
 10229              	.LASF108:
 10230 048b 656C656D 		.ascii	"element8_p\000"
 10230      656E7438 
 10230      5F7000
 10231              	.LASF106:
 10232 0496 656C656D 		.ascii	"element\000"
 10232      656E7400 
 10233              	.LASF69:
 10234 049e 636D6170 		.ascii	"cmap_num\000"
 10234      5F6E756D 
 10234      00
 10235              	.LASF121:
 10236 04a7 756E6963 		.ascii	"unicode_letter\000"
 10236      6F64655F 
 10236      6C657474 
 10236      657200
 10237              	.LASF42:
 10238 04b6 6C765F66 		.ascii	"lv_font_fmt_txt_cmap_type_t\000"
 10238      6F6E745F 
 10238      666D745F 
 10238      7478745F 
 10238      636D6170 
 10239              	.LASF109:
 10240 04d2 6B65726E 		.ascii	"kern_pair_8_compare\000"
 10240      5F706169 
 10240      725F385F 
 10240      636F6D70 
 10240      61726500 
 10241              	.LASF85:
 10242 04e6 696E3136 		.ascii	"in16\000"
 10242      00
 10243              	.LASF46:
 10244 04eb 756E6963 		.ascii	"unicode_list\000"
 10244      6F64655F 
 10244      6C697374 
 10244      00
 10245              	.LASF77:
 10246 04f8 6C765F75 		.ascii	"lv_uintptr_t\000"
 10246      696E7470 
 10246      74725F74 
 10246      00
 10247              	.LASF81:
 10248 0505 726C655F 		.ascii	"rle_state_t\000"
 10248      73746174 
 10248      655F7400 
 10249              	.LASF140:
 10250 0511 6C765F6D 		.ascii	"lv_mem_realloc\000"
 10250      656D5F72 
 10250      65616C6C 
 10250      6F6300
ARM GAS  C:\Users\pearlstl\AppData\Local\Temp\ccllHTLf.s 			page 200


 10251              	.LASF32:
 10252 0520 62617365 		.ascii	"base_line\000"
 10252      5F6C696E 
 10252      6500
 10253              	.LASF130:
 10254 052a 6769645F 		.ascii	"gid_next\000"
 10254      6E657874 
 10254      00
 10255              	.LASF37:
 10256 0533 6C765F66 		.ascii	"lv_font_fmt_txt_glyph_dsc_t\000"
 10256      6F6E745F 
 10256      666D745F 
 10256      7478745F 
 10256      676C7970 
 10257              	.LASF118:
 10258 054f 6C696E65 		.ascii	"line_buf2\000"
 10258      5F627566 
 10258      3200
 10259              	.LASF53:
 10260 0559 70616972 		.ascii	"pair_cnt\000"
 10260      5F636E74 
 10260      00
 10261              	.LASF141:
 10262 0562 474E5520 		.ascii	"GNU C11 5.4.1 20160609 (release) [ARM/embedded-5-br"
 10262      43313120 
 10262      352E342E 
 10262      31203230 
 10262      31363036 
 10263 0595 616E6368 		.ascii	"anch revision 237715] -mcpu=cortex-m4 -mfloat-abi=s"
 10263      20726576 
 10263      6973696F 
 10263      6E203233 
 10263      37373135 
 10264 05c8 6F667466 		.ascii	"oftfp -mfpu=fpv4-sp-d16 -mthumb -g -O3 -ffunction-s"
 10264      70202D6D 
 10264      6670753D 
 10264      66707634 
 10264      2D73702D 
 10265 05fb 65637469 		.ascii	"ections -ffat-lto-objects\000"
 10265      6F6E7320 
 10265      2D666661 
 10265      742D6C74 
 10265      6F2D6F62 
 10266              	.LASF19:
 10267 0615 696E7433 		.ascii	"int32_t\000"
 10267      325F7400 
 10268              	.LASF3:
 10269 061d 756E7369 		.ascii	"unsigned char\000"
 10269      676E6564 
 10269      20636861 
 10269      7200
 10270              	.LASF110:
 10271 062b 6B65726E 		.ascii	"kern_pair_16_compare\000"
 10271      5F706169 
 10271      725F3136 
 10271      5F636F6D 
 10271      70617265 
ARM GAS  C:\Users\pearlstl\AppData\Local\Temp\ccllHTLf.s 			page 201


 10272              	.LASF79:
 10273 0640 524C455F 		.ascii	"RLE_STATE_REPEATE\000"
 10273      53544154 
 10273      455F5245 
 10273      50454154 
 10273      4500
 10274              	.LASF115:
 10275 0652 77725F73 		.ascii	"wr_size\000"
 10275      697A6500 
 10276              	.LASF5:
 10277 065a 73686F72 		.ascii	"short int\000"
 10277      7420696E 
 10277      7400
 10278              	.LASF104:
 10279 0664 6465636F 		.ascii	"decompress_line\000"
 10279      6D707265 
 10279      73735F6C 
 10279      696E6500 
 10280              	.LASF73:
 10281 0674 6C617374 		.ascii	"last_glyph_id\000"
 10281      5F676C79 
 10281      70685F69 
 10281      6400
 10282              	.LASF107:
 10283 0682 72656638 		.ascii	"ref8_p\000"
 10283      5F7000
 10284              	.LASF96:
 10285 0689 6769645F 		.ascii	"gid_right\000"
 10285      72696768 
 10285      7400
 10286              	.LASF92:
 10287 0693 6769645F 		.ascii	"gid_ofs_8\000"
 10287      6F66735F 
 10287      3800
 10288              	.LASF43:
 10289 069d 72616E67 		.ascii	"range_start\000"
 10289      655F7374 
 10289      61727400 
 10290              	.LASF33:
 10291 06a9 5F426F6F 		.ascii	"_Bool\000"
 10291      6C00
 10292              	.LASF22:
 10293 06af 6C6F6E67 		.ascii	"long double\000"
 10293      20646F75 
 10293      626C6500 
 10294              	.LASF76:
 10295 06bb 63686172 		.ascii	"char\000"
 10295      00
 10296              	.LASF116:
 10297 06c0 6C696E65 		.ascii	"line_buf\000"
 10297      5F627566 
 10297      00
 10298              	.LASF6:
 10299 06c9 5F5F7569 		.ascii	"__uint16_t\000"
 10299      6E743136 
 10299      5F7400
 10300              	.LASF101:
ARM GAS  C:\Users\pearlstl\AppData\Local\Temp\ccllHTLf.s 			page 202


 10301 06d4 6B69645F 		.ascii	"kid_p\000"
 10301      7000
 10302              	.LASF86:
 10303 06da 6765745F 		.ascii	"get_bits\000"
 10303      62697473 
 10303      00
 10304              	.LASF89:
 10305 06e3 6C657474 		.ascii	"letter\000"
 10305      657200
 10306              	.LASF123:
 10307 06ea 6773697A 		.ascii	"gsize\000"
 10307      6500
 10308              	.LASF139:
 10309 06f0 6C765F6D 		.ascii	"lv_mem_get_size\000"
 10309      656D5F67 
 10309      65745F73 
 10309      697A6500 
 10310              	.LASF23:
 10311 0700 6164765F 		.ascii	"adv_w\000"
 10311      7700
 10312              	.LASF94:
 10313 0706 6765745F 		.ascii	"get_kern_value\000"
 10313      6B65726E 
 10313      5F76616C 
 10313      756500
 10314              	.LASF45:
 10315 0715 676C7970 		.ascii	"glyph_id_start\000"
 10315      685F6964 
 10315      5F737461 
 10315      727400
 10316              	.LASF78:
 10317 0724 524C455F 		.ascii	"RLE_STATE_SINGLE\000"
 10317      53544154 
 10317      455F5349 
 10317      4E474C45 
 10317      00
 10318              	.LASF142:
 10319 0735 2E2E5C2E 		.ascii	"..\\..\\..\\lvgl\\version_6.1.2\\lvgl\\src\\lv_font"
 10319      2E5C2E2E 
 10319      5C6C7667 
 10319      6C5C7665 
 10319      7273696F 
 10320 0761 5C6C765F 		.ascii	"\\lv_font_fmt_txt.c\000"
 10320      666F6E74 
 10320      5F666D74 
 10320      5F747874 
 10320      2E6300
 10321              	.LASF67:
 10322 0774 6B65726E 		.ascii	"kern_dsc\000"
 10322      5F647363 
 10322      00
 10323              	.LASF15:
 10324 077d 696E7438 		.ascii	"int8_t\000"
 10324      5F7400
 10325              	.LASF131:
 10326 0784 726C655F 		.ascii	"rle_rdp\000"
 10326      72647000 
ARM GAS  C:\Users\pearlstl\AppData\Local\Temp\ccllHTLf.s 			page 203


 10327              	.LASF56:
 10328 078c 636C6173 		.ascii	"class_pair_values\000"
 10328      735F7061 
 10328      69725F76 
 10328      616C7565 
 10328      7300
 10329              	.LASF25:
 10330 079e 626F785F 		.ascii	"box_h\000"
 10330      6800
 10331              	.LASF59:
 10332 07a4 6C656674 		.ascii	"left_class_cnt\000"
 10332      5F636C61 
 10332      73735F63 
 10332      6E7400
 10333              	.LASF93:
 10334 07b3 6769645F 		.ascii	"gid_ofs_16\000"
 10334      6F66735F 
 10334      313600
 10335              	.LASF24:
 10336 07be 626F785F 		.ascii	"box_w\000"
 10336      7700
 10337              	.LASF144:
 10338 07c4 5F6C765F 		.ascii	"_lv_font_struct\000"
 10338      666F6E74 
 10338      5F737472 
 10338      75637400 
 10339              	.LASF135:
 10340 07d4 726C655F 		.ascii	"rle_cnt\000"
 10340      636E7400 
 10341              	.LASF57:
 10342 07dc 6C656674 		.ascii	"left_class_mapping\000"
 10342      5F636C61 
 10342      73735F6D 
 10342      61707069 
 10342      6E6700
 10343              	.LASF82:
 10344 07ef 6269745F 		.ascii	"bit_pos\000"
 10344      706F7300 
 10345              	.LASF112:
 10346 07f7 656C656D 		.ascii	"element16_p\000"
 10346      656E7431 
 10346      365F7000 
 10347              	.LASF71:
 10348 0803 6269746D 		.ascii	"bitmap_format\000"
 10348      61705F66 
 10348      6F726D61 
 10348      7400
 10349              	.LASF16:
 10350 0811 75696E74 		.ascii	"uint8_t\000"
 10350      385F7400 
 10351              	.LASF38:
 10352 0819 4C565F46 		.ascii	"LV_FONT_FMT_TXT_CMAP_FORMAT0_TINY\000"
 10352      4F4E545F 
 10352      464D545F 
 10352      5458545F 
 10352      434D4150 
 10353              	.LASF26:
ARM GAS  C:\Users\pearlstl\AppData\Local\Temp\ccllHTLf.s 			page 204


 10354 083b 6F66735F 		.ascii	"ofs_x\000"
 10354      7800
 10355              	.LASF27:
 10356 0841 6F66735F 		.ascii	"ofs_y\000"
 10356      7900
 10357              	.LASF98:
 10358 0847 6B647363 		.ascii	"kdsc\000"
 10358      00
 10359              	.LASF120:
 10360 084c 62697473 		.ascii	"bits_write\000"
 10360      5F777269 
 10360      746500
 10361              	.LASF114:
 10362 0857 6465636F 		.ascii	"decompress\000"
 10362      6D707265 
 10362      737300
 10363              	.LASF70:
 10364 0862 6B65726E 		.ascii	"kern_classes\000"
 10364      5F636C61 
 10364      73736573 
 10364      00
 10365              	.LASF20:
 10366 086f 75696E74 		.ascii	"uint32_t\000"
 10366      33325F74 
 10366      00
 10367              	.LASF39:
 10368 0878 4C565F46 		.ascii	"LV_FONT_FMT_TXT_CMAP_FORMAT0_FULL\000"
 10368      4F4E545F 
 10368      464D545F 
 10368      5458545F 
 10368      434D4150 
 10369              		.ident	"GCC: (GNU Tools for ARM Embedded Processors) 5.4.1 20160609 (release) [ARM/embedded-5-bran
