ARM GAS  C:\Users\pearlstl\AppData\Local\Temp\ccKaJa4d.s 			page 1


   1              		.syntax unified
   2              		.cpu cortex-m4
   3              		.eabi_attribute 27, 1
   4              		.fpu fpv4-sp-d16
   5              		.eabi_attribute 20, 1
   6              		.eabi_attribute 21, 1
   7              		.eabi_attribute 23, 3
   8              		.eabi_attribute 24, 1
   9              		.eabi_attribute 25, 1
  10              		.eabi_attribute 26, 1
  11              		.eabi_attribute 30, 2
  12              		.eabi_attribute 34, 1
  13              		.eabi_attribute 18, 4
  14              		.thumb
  15              		.syntax unified
  16              		.file	"lv_font.c"
  17              		.text
  18              	.Ltext0:
  19              		.cfi_sections	.debug_frame
  20              		.section	.text.lv_font_get_glyph_bitmap,"ax",%progbits
  21              		.align	2
  22              		.global	lv_font_get_glyph_bitmap
  23              		.thumb
  24              		.thumb_func
  25              		.type	lv_font_get_glyph_bitmap, %function
  26              	lv_font_get_glyph_bitmap:
  27              	.LFB1:
  28              		.file 1 "..\\..\\..\\lvgl\\version_6.1.2\\lvgl\\src\\lv_font\\lv_font.c"
   1:..\..\..\lvgl\version_6.1.2\lvgl\src\lv_font/lv_font.c **** /**
   2:..\..\..\lvgl\version_6.1.2\lvgl\src\lv_font/lv_font.c ****  * @file lv_font.c
   3:..\..\..\lvgl\version_6.1.2\lvgl\src\lv_font/lv_font.c ****  *
   4:..\..\..\lvgl\version_6.1.2\lvgl\src\lv_font/lv_font.c ****  */
   5:..\..\..\lvgl\version_6.1.2\lvgl\src\lv_font/lv_font.c **** 
   6:..\..\..\lvgl\version_6.1.2\lvgl\src\lv_font/lv_font.c **** /*********************
   7:..\..\..\lvgl\version_6.1.2\lvgl\src\lv_font/lv_font.c ****  *      INCLUDES
   8:..\..\..\lvgl\version_6.1.2\lvgl\src\lv_font/lv_font.c ****  *********************/
   9:..\..\..\lvgl\version_6.1.2\lvgl\src\lv_font/lv_font.c **** 
  10:..\..\..\lvgl\version_6.1.2\lvgl\src\lv_font/lv_font.c **** #include "lv_font.h"
  11:..\..\..\lvgl\version_6.1.2\lvgl\src\lv_font/lv_font.c **** #include "../lv_misc/lv_utils.h"
  12:..\..\..\lvgl\version_6.1.2\lvgl\src\lv_font/lv_font.c **** #include "../lv_misc/lv_log.h"
  13:..\..\..\lvgl\version_6.1.2\lvgl\src\lv_font/lv_font.c **** 
  14:..\..\..\lvgl\version_6.1.2\lvgl\src\lv_font/lv_font.c **** /*********************
  15:..\..\..\lvgl\version_6.1.2\lvgl\src\lv_font/lv_font.c ****  *      DEFINES
  16:..\..\..\lvgl\version_6.1.2\lvgl\src\lv_font/lv_font.c ****  *********************/
  17:..\..\..\lvgl\version_6.1.2\lvgl\src\lv_font/lv_font.c **** 
  18:..\..\..\lvgl\version_6.1.2\lvgl\src\lv_font/lv_font.c **** /**********************
  19:..\..\..\lvgl\version_6.1.2\lvgl\src\lv_font/lv_font.c ****  *      TYPEDEFS
  20:..\..\..\lvgl\version_6.1.2\lvgl\src\lv_font/lv_font.c ****  **********************/
  21:..\..\..\lvgl\version_6.1.2\lvgl\src\lv_font/lv_font.c **** 
  22:..\..\..\lvgl\version_6.1.2\lvgl\src\lv_font/lv_font.c **** /**********************
  23:..\..\..\lvgl\version_6.1.2\lvgl\src\lv_font/lv_font.c ****  *  STATIC PROTOTYPES
  24:..\..\..\lvgl\version_6.1.2\lvgl\src\lv_font/lv_font.c ****  **********************/
  25:..\..\..\lvgl\version_6.1.2\lvgl\src\lv_font/lv_font.c **** 
  26:..\..\..\lvgl\version_6.1.2\lvgl\src\lv_font/lv_font.c **** /**********************
  27:..\..\..\lvgl\version_6.1.2\lvgl\src\lv_font/lv_font.c ****  *  STATIC VARIABLES
  28:..\..\..\lvgl\version_6.1.2\lvgl\src\lv_font/lv_font.c ****  **********************/
  29:..\..\..\lvgl\version_6.1.2\lvgl\src\lv_font/lv_font.c **** 
ARM GAS  C:\Users\pearlstl\AppData\Local\Temp\ccKaJa4d.s 			page 2


  30:..\..\..\lvgl\version_6.1.2\lvgl\src\lv_font/lv_font.c **** /**********************
  31:..\..\..\lvgl\version_6.1.2\lvgl\src\lv_font/lv_font.c ****  * GLOBAL PROTOTYPES
  32:..\..\..\lvgl\version_6.1.2\lvgl\src\lv_font/lv_font.c ****  **********************/
  33:..\..\..\lvgl\version_6.1.2\lvgl\src\lv_font/lv_font.c **** 
  34:..\..\..\lvgl\version_6.1.2\lvgl\src\lv_font/lv_font.c **** /**********************
  35:..\..\..\lvgl\version_6.1.2\lvgl\src\lv_font/lv_font.c ****  *      MACROS
  36:..\..\..\lvgl\version_6.1.2\lvgl\src\lv_font/lv_font.c ****  **********************/
  37:..\..\..\lvgl\version_6.1.2\lvgl\src\lv_font/lv_font.c **** 
  38:..\..\..\lvgl\version_6.1.2\lvgl\src\lv_font/lv_font.c **** /**********************
  39:..\..\..\lvgl\version_6.1.2\lvgl\src\lv_font/lv_font.c ****  *   GLOBAL FUNCTIONS
  40:..\..\..\lvgl\version_6.1.2\lvgl\src\lv_font/lv_font.c ****  **********************/
  41:..\..\..\lvgl\version_6.1.2\lvgl\src\lv_font/lv_font.c **** 
  42:..\..\..\lvgl\version_6.1.2\lvgl\src\lv_font/lv_font.c **** /**
  43:..\..\..\lvgl\version_6.1.2\lvgl\src\lv_font/lv_font.c ****  * Return with the bitmap of a font.
  44:..\..\..\lvgl\version_6.1.2\lvgl\src\lv_font/lv_font.c ****  * @param font_p pointer to a font
  45:..\..\..\lvgl\version_6.1.2\lvgl\src\lv_font/lv_font.c ****  * @param letter an UNICODE character code
  46:..\..\..\lvgl\version_6.1.2\lvgl\src\lv_font/lv_font.c ****  * @return  pointer to the bitmap of the letter
  47:..\..\..\lvgl\version_6.1.2\lvgl\src\lv_font/lv_font.c ****  */
  48:..\..\..\lvgl\version_6.1.2\lvgl\src\lv_font/lv_font.c **** const uint8_t * lv_font_get_glyph_bitmap(const lv_font_t * font_p, uint32_t letter)
  49:..\..\..\lvgl\version_6.1.2\lvgl\src\lv_font/lv_font.c **** {
  29              		.loc 1 49 0
  30              		.cfi_startproc
  31              		@ args = 0, pretend = 0, frame = 0
  32              		@ frame_needed = 0, uses_anonymous_args = 0
  33              		@ link register save eliminated.
  34              	.LVL0:
  50:..\..\..\lvgl\version_6.1.2\lvgl\src\lv_font/lv_font.c ****     return font_p->get_glyph_bitmap(font_p, letter);
  35              		.loc 1 50 0
  36 0000 4368     		ldr	r3, [r0, #4]
  37 0002 1847     		bx	r3
  38              	.LVL1:
  39              		.cfi_endproc
  40              	.LFE1:
  41              		.size	lv_font_get_glyph_bitmap, .-lv_font_get_glyph_bitmap
  42              		.section	.text.lv_font_get_glyph_dsc,"ax",%progbits
  43              		.align	2
  44              		.global	lv_font_get_glyph_dsc
  45              		.thumb
  46              		.thumb_func
  47              		.type	lv_font_get_glyph_dsc, %function
  48              	lv_font_get_glyph_dsc:
  49              	.LFB2:
  51:..\..\..\lvgl\version_6.1.2\lvgl\src\lv_font/lv_font.c **** }
  52:..\..\..\lvgl\version_6.1.2\lvgl\src\lv_font/lv_font.c **** 
  53:..\..\..\lvgl\version_6.1.2\lvgl\src\lv_font/lv_font.c **** /**
  54:..\..\..\lvgl\version_6.1.2\lvgl\src\lv_font/lv_font.c ****  * Get the descriptor of a glyph
  55:..\..\..\lvgl\version_6.1.2\lvgl\src\lv_font/lv_font.c ****  * @param font_p pointer to font
  56:..\..\..\lvgl\version_6.1.2\lvgl\src\lv_font/lv_font.c ****  * @param dsc_out store the result descriptor here
  57:..\..\..\lvgl\version_6.1.2\lvgl\src\lv_font/lv_font.c ****  * @param letter an UNICODE letter code
  58:..\..\..\lvgl\version_6.1.2\lvgl\src\lv_font/lv_font.c ****  * @return true: descriptor is successfully loaded into `dsc_out`.
  59:..\..\..\lvgl\version_6.1.2\lvgl\src\lv_font/lv_font.c ****  *         false: the letter was not found, no data is loaded to `dsc_out`
  60:..\..\..\lvgl\version_6.1.2\lvgl\src\lv_font/lv_font.c ****  */
  61:..\..\..\lvgl\version_6.1.2\lvgl\src\lv_font/lv_font.c **** bool lv_font_get_glyph_dsc(const lv_font_t * font_p, lv_font_glyph_dsc_t * dsc_out, uint32_t letter
  62:..\..\..\lvgl\version_6.1.2\lvgl\src\lv_font/lv_font.c **** {
  50              		.loc 1 62 0
  51              		.cfi_startproc
  52              		@ args = 0, pretend = 0, frame = 0
ARM GAS  C:\Users\pearlstl\AppData\Local\Temp\ccKaJa4d.s 			page 3


  53              		@ frame_needed = 0, uses_anonymous_args = 0
  54              		@ link register save eliminated.
  55              	.LVL2:
  56 0000 10B4     		push	{r4}
  57              		.cfi_def_cfa_offset 4
  58              		.cfi_offset 4, -4
  63:..\..\..\lvgl\version_6.1.2\lvgl\src\lv_font/lv_font.c ****     return font_p->get_glyph_dsc(font_p, dsc_out, letter, letter_next);
  59              		.loc 1 63 0
  60 0002 0468     		ldr	r4, [r0]
  61 0004 A446     		mov	ip, r4
  64:..\..\..\lvgl\version_6.1.2\lvgl\src\lv_font/lv_font.c **** }
  62              		.loc 1 64 0
  63 0006 5DF8044B 		ldr	r4, [sp], #4
  64              		.cfi_restore 4
  65              		.cfi_def_cfa_offset 0
  63:..\..\..\lvgl\version_6.1.2\lvgl\src\lv_font/lv_font.c ****     return font_p->get_glyph_dsc(font_p, dsc_out, letter, letter_next);
  66              		.loc 1 63 0
  67 000a 6047     		bx	ip
  68              	.LVL3:
  69              		.cfi_endproc
  70              	.LFE2:
  71              		.size	lv_font_get_glyph_dsc, .-lv_font_get_glyph_dsc
  72              		.section	.text.lv_font_get_glyph_width,"ax",%progbits
  73              		.align	2
  74              		.global	lv_font_get_glyph_width
  75              		.thumb
  76              		.thumb_func
  77              		.type	lv_font_get_glyph_width, %function
  78              	lv_font_get_glyph_width:
  79              	.LFB3:
  65:..\..\..\lvgl\version_6.1.2\lvgl\src\lv_font/lv_font.c **** 
  66:..\..\..\lvgl\version_6.1.2\lvgl\src\lv_font/lv_font.c **** /**
  67:..\..\..\lvgl\version_6.1.2\lvgl\src\lv_font/lv_font.c ****  * Get the width of a glyph with kerning
  68:..\..\..\lvgl\version_6.1.2\lvgl\src\lv_font/lv_font.c ****  * @param font pointer to a font
  69:..\..\..\lvgl\version_6.1.2\lvgl\src\lv_font/lv_font.c ****  * @param letter an UNICODE letter
  70:..\..\..\lvgl\version_6.1.2\lvgl\src\lv_font/lv_font.c ****  * @param letter_next the next letter after `letter`. Used for kerning
  71:..\..\..\lvgl\version_6.1.2\lvgl\src\lv_font/lv_font.c ****  * @return the width of the glyph
  72:..\..\..\lvgl\version_6.1.2\lvgl\src\lv_font/lv_font.c ****  */
  73:..\..\..\lvgl\version_6.1.2\lvgl\src\lv_font/lv_font.c **** uint16_t lv_font_get_glyph_width(const lv_font_t * font, uint32_t letter, uint32_t letter_next)
  74:..\..\..\lvgl\version_6.1.2\lvgl\src\lv_font/lv_font.c **** {
  80              		.loc 1 74 0
  81              		.cfi_startproc
  82              		@ args = 0, pretend = 0, frame = 8
  83              		@ frame_needed = 0, uses_anonymous_args = 0
  84              	.LVL4:
  85 0000 10B5     		push	{r4, lr}
  86              		.cfi_def_cfa_offset 8
  87              		.cfi_offset 4, -8
  88              		.cfi_offset 14, -4
  89 0002 82B0     		sub	sp, sp, #8
  90              		.cfi_def_cfa_offset 16
  91              	.LVL5:
  92              	.LBB4:
  93              	.LBB5:
  63:..\..\..\lvgl\version_6.1.2\lvgl\src\lv_font/lv_font.c **** }
  94              		.loc 1 63 0
  95 0004 1346     		mov	r3, r2
ARM GAS  C:\Users\pearlstl\AppData\Local\Temp\ccKaJa4d.s 			page 4


  96 0006 0468     		ldr	r4, [r0]
  97 0008 0A46     		mov	r2, r1
  98              	.LVL6:
  99 000a 6946     		mov	r1, sp
 100              	.LVL7:
 101 000c A047     		blx	r4
 102              	.LVL8:
 103              	.LBE5:
 104              	.LBE4:
  75:..\..\..\lvgl\version_6.1.2\lvgl\src\lv_font/lv_font.c ****     lv_font_glyph_dsc_t g;
  76:..\..\..\lvgl\version_6.1.2\lvgl\src\lv_font/lv_font.c ****     bool ret;
  77:..\..\..\lvgl\version_6.1.2\lvgl\src\lv_font/lv_font.c ****     ret = lv_font_get_glyph_dsc(font, &g, letter, letter_next);
  78:..\..\..\lvgl\version_6.1.2\lvgl\src\lv_font/lv_font.c ****     if(ret) return g.adv_w;
 105              		.loc 1 78 0
 106 000e 08B1     		cbz	r0, .L5
 107              		.loc 1 78 0 is_stmt 0 discriminator 1
 108 0010 BDF80000 		ldrh	r0, [sp]
 109              	.L5:
  79:..\..\..\lvgl\version_6.1.2\lvgl\src\lv_font/lv_font.c ****     else return 0;
  80:..\..\..\lvgl\version_6.1.2\lvgl\src\lv_font/lv_font.c **** }
 110              		.loc 1 80 0 is_stmt 1
 111 0014 02B0     		add	sp, sp, #8
 112              		.cfi_def_cfa_offset 8
 113              		@ sp needed
 114 0016 10BD     		pop	{r4, pc}
 115              		.cfi_endproc
 116              	.LFE3:
 117              		.size	lv_font_get_glyph_width, .-lv_font_get_glyph_width
 118              		.text
 119              	.Letext0:
 120              		.file 2 "c:\\program files (x86)\\cypress\\psoc creator\\4.2\\psoc creator\\import\\gnu\\arm\\5.4.
 121              		.file 3 "c:\\program files (x86)\\cypress\\psoc creator\\4.2\\psoc creator\\import\\gnu\\arm\\5.4.
 122              		.file 4 "..\\..\\..\\lvgl\\version_6.1.2\\lvgl\\src\\lv_font\\lv_font.h"