ARM GAS  C:\Users\pearlstl\AppData\Local\Temp\cccjDn63.s 			page 1


   1              		.syntax unified
   2              		.cpu cortex-m4
   3              		.eabi_attribute 27, 1
   4              		.fpu fpv4-sp-d16
   5              		.eabi_attribute 20, 1
   6              		.eabi_attribute 21, 1
   7              		.eabi_attribute 23, 3
   8              		.eabi_attribute 24, 1
   9              		.eabi_attribute 25, 1
  10              		.eabi_attribute 26, 1
  11              		.eabi_attribute 30, 2
  12              		.eabi_attribute 34, 1
  13              		.eabi_attribute 18, 4
  14              		.thumb
  15              		.syntax unified
  16              		.file	"lv_gauge.c"
  17              		.text
  18              	.Ltext0:
  19              		.cfi_sections	.debug_frame
  20              		.section	.text.lv_gauge_design,"ax",%progbits
  21              		.align	2
  22              		.thumb
  23              		.thumb_func
  24              		.type	lv_gauge_design, %function
  25              	lv_gauge_design:
  26              	.LFB54:
  27              		.file 1 "..\\..\\..\\lvgl\\version_6.1.2\\lvgl\\src\\lv_objx\\lv_gauge.c"
   1:..\..\..\lvgl\version_6.1.2\lvgl\src\lv_objx/lv_gauge.c **** /**
   2:..\..\..\lvgl\version_6.1.2\lvgl\src\lv_objx/lv_gauge.c ****  * @file lv_gauge.c
   3:..\..\..\lvgl\version_6.1.2\lvgl\src\lv_objx/lv_gauge.c ****  *
   4:..\..\..\lvgl\version_6.1.2\lvgl\src\lv_objx/lv_gauge.c ****  */
   5:..\..\..\lvgl\version_6.1.2\lvgl\src\lv_objx/lv_gauge.c **** 
   6:..\..\..\lvgl\version_6.1.2\lvgl\src\lv_objx/lv_gauge.c **** /*********************
   7:..\..\..\lvgl\version_6.1.2\lvgl\src\lv_objx/lv_gauge.c ****  *      INCLUDES
   8:..\..\..\lvgl\version_6.1.2\lvgl\src\lv_objx/lv_gauge.c ****  *********************/
   9:..\..\..\lvgl\version_6.1.2\lvgl\src\lv_objx/lv_gauge.c **** #include "lv_gauge.h"
  10:..\..\..\lvgl\version_6.1.2\lvgl\src\lv_objx/lv_gauge.c **** #if LV_USE_GAUGE != 0
  11:..\..\..\lvgl\version_6.1.2\lvgl\src\lv_objx/lv_gauge.c **** 
  12:..\..\..\lvgl\version_6.1.2\lvgl\src\lv_objx/lv_gauge.c **** #include "../lv_core/lv_debug.h"
  13:..\..\..\lvgl\version_6.1.2\lvgl\src\lv_objx/lv_gauge.c **** #include "../lv_draw/lv_draw.h"
  14:..\..\..\lvgl\version_6.1.2\lvgl\src\lv_objx/lv_gauge.c **** #include "../lv_themes/lv_theme.h"
  15:..\..\..\lvgl\version_6.1.2\lvgl\src\lv_objx/lv_gauge.c **** #include "../lv_misc/lv_txt.h"
  16:..\..\..\lvgl\version_6.1.2\lvgl\src\lv_objx/lv_gauge.c **** #include "../lv_misc/lv_math.h"
  17:..\..\..\lvgl\version_6.1.2\lvgl\src\lv_objx/lv_gauge.c **** #include "../lv_misc/lv_utils.h"
  18:..\..\..\lvgl\version_6.1.2\lvgl\src\lv_objx/lv_gauge.c **** #include <stdio.h>
  19:..\..\..\lvgl\version_6.1.2\lvgl\src\lv_objx/lv_gauge.c **** #include <string.h>
  20:..\..\..\lvgl\version_6.1.2\lvgl\src\lv_objx/lv_gauge.c **** 
  21:..\..\..\lvgl\version_6.1.2\lvgl\src\lv_objx/lv_gauge.c **** /*********************
  22:..\..\..\lvgl\version_6.1.2\lvgl\src\lv_objx/lv_gauge.c ****  *      DEFINES
  23:..\..\..\lvgl\version_6.1.2\lvgl\src\lv_objx/lv_gauge.c ****  *********************/
  24:..\..\..\lvgl\version_6.1.2\lvgl\src\lv_objx/lv_gauge.c **** #define LV_OBJX_NAME "lv_gauge"
  25:..\..\..\lvgl\version_6.1.2\lvgl\src\lv_objx/lv_gauge.c **** 
  26:..\..\..\lvgl\version_6.1.2\lvgl\src\lv_objx/lv_gauge.c **** #define LV_GAUGE_DEF_NEEDLE_COLOR LV_COLOR_RED
  27:..\..\..\lvgl\version_6.1.2\lvgl\src\lv_objx/lv_gauge.c **** #define LV_GAUGE_DEF_LABEL_COUNT 6
  28:..\..\..\lvgl\version_6.1.2\lvgl\src\lv_objx/lv_gauge.c **** #define LV_GAUGE_DEF_LINE_COUNT 21 /*Should be: ((label_cnt - 1) * internal_lines) + 1*/
  29:..\..\..\lvgl\version_6.1.2\lvgl\src\lv_objx/lv_gauge.c **** #define LV_GAUGE_DEF_ANGLE 220
  30:..\..\..\lvgl\version_6.1.2\lvgl\src\lv_objx/lv_gauge.c **** #define LV_GAUGE_INTERPOLATE_SHIFT 5 /*Interpolate the needle drawing between to degrees*/
ARM GAS  C:\Users\pearlstl\AppData\Local\Temp\cccjDn63.s 			page 2


  31:..\..\..\lvgl\version_6.1.2\lvgl\src\lv_objx/lv_gauge.c **** #define LV_GAUGE_INTERPOLATE_MASK 0x1F
  32:..\..\..\lvgl\version_6.1.2\lvgl\src\lv_objx/lv_gauge.c **** 
  33:..\..\..\lvgl\version_6.1.2\lvgl\src\lv_objx/lv_gauge.c **** /**********************
  34:..\..\..\lvgl\version_6.1.2\lvgl\src\lv_objx/lv_gauge.c ****  *      TYPEDEFS
  35:..\..\..\lvgl\version_6.1.2\lvgl\src\lv_objx/lv_gauge.c ****  **********************/
  36:..\..\..\lvgl\version_6.1.2\lvgl\src\lv_objx/lv_gauge.c **** 
  37:..\..\..\lvgl\version_6.1.2\lvgl\src\lv_objx/lv_gauge.c **** /**********************
  38:..\..\..\lvgl\version_6.1.2\lvgl\src\lv_objx/lv_gauge.c ****  *  STATIC PROTOTYPES
  39:..\..\..\lvgl\version_6.1.2\lvgl\src\lv_objx/lv_gauge.c ****  **********************/
  40:..\..\..\lvgl\version_6.1.2\lvgl\src\lv_objx/lv_gauge.c **** static bool lv_gauge_design(lv_obj_t * gauge, const lv_area_t * mask, lv_design_mode_t mode);
  41:..\..\..\lvgl\version_6.1.2\lvgl\src\lv_objx/lv_gauge.c **** static lv_res_t lv_gauge_signal(lv_obj_t * gauge, lv_signal_t sign, void * param);
  42:..\..\..\lvgl\version_6.1.2\lvgl\src\lv_objx/lv_gauge.c **** static void lv_gauge_draw_scale(lv_obj_t * gauge, const lv_area_t * mask);
  43:..\..\..\lvgl\version_6.1.2\lvgl\src\lv_objx/lv_gauge.c **** static void lv_gauge_draw_needle(lv_obj_t * gauge, const lv_area_t * mask);
  44:..\..\..\lvgl\version_6.1.2\lvgl\src\lv_objx/lv_gauge.c **** 
  45:..\..\..\lvgl\version_6.1.2\lvgl\src\lv_objx/lv_gauge.c **** /**********************
  46:..\..\..\lvgl\version_6.1.2\lvgl\src\lv_objx/lv_gauge.c ****  *  STATIC VARIABLES
  47:..\..\..\lvgl\version_6.1.2\lvgl\src\lv_objx/lv_gauge.c ****  **********************/
  48:..\..\..\lvgl\version_6.1.2\lvgl\src\lv_objx/lv_gauge.c **** static lv_design_cb_t ancestor_design;
  49:..\..\..\lvgl\version_6.1.2\lvgl\src\lv_objx/lv_gauge.c **** static lv_signal_cb_t ancestor_signal;
  50:..\..\..\lvgl\version_6.1.2\lvgl\src\lv_objx/lv_gauge.c **** 
  51:..\..\..\lvgl\version_6.1.2\lvgl\src\lv_objx/lv_gauge.c **** /**********************
  52:..\..\..\lvgl\version_6.1.2\lvgl\src\lv_objx/lv_gauge.c ****  *      MACROS
  53:..\..\..\lvgl\version_6.1.2\lvgl\src\lv_objx/lv_gauge.c ****  **********************/
  54:..\..\..\lvgl\version_6.1.2\lvgl\src\lv_objx/lv_gauge.c **** 
  55:..\..\..\lvgl\version_6.1.2\lvgl\src\lv_objx/lv_gauge.c **** /**********************
  56:..\..\..\lvgl\version_6.1.2\lvgl\src\lv_objx/lv_gauge.c ****  *   GLOBAL FUNCTIONS
  57:..\..\..\lvgl\version_6.1.2\lvgl\src\lv_objx/lv_gauge.c ****  **********************/
  58:..\..\..\lvgl\version_6.1.2\lvgl\src\lv_objx/lv_gauge.c **** 
  59:..\..\..\lvgl\version_6.1.2\lvgl\src\lv_objx/lv_gauge.c **** /**
  60:..\..\..\lvgl\version_6.1.2\lvgl\src\lv_objx/lv_gauge.c ****  * Create a gauge objects
  61:..\..\..\lvgl\version_6.1.2\lvgl\src\lv_objx/lv_gauge.c ****  * @param par pointer to an object, it will be the parent of the new gauge
  62:..\..\..\lvgl\version_6.1.2\lvgl\src\lv_objx/lv_gauge.c ****  * @param copy pointer to a gauge object, if not NULL then the new object will be copied from it
  63:..\..\..\lvgl\version_6.1.2\lvgl\src\lv_objx/lv_gauge.c ****  * @return pointer to the created gauge
  64:..\..\..\lvgl\version_6.1.2\lvgl\src\lv_objx/lv_gauge.c ****  */
  65:..\..\..\lvgl\version_6.1.2\lvgl\src\lv_objx/lv_gauge.c **** lv_obj_t * lv_gauge_create(lv_obj_t * par, const lv_obj_t * copy)
  66:..\..\..\lvgl\version_6.1.2\lvgl\src\lv_objx/lv_gauge.c **** {
  67:..\..\..\lvgl\version_6.1.2\lvgl\src\lv_objx/lv_gauge.c ****     LV_LOG_TRACE("gauge create started");
  68:..\..\..\lvgl\version_6.1.2\lvgl\src\lv_objx/lv_gauge.c **** 
  69:..\..\..\lvgl\version_6.1.2\lvgl\src\lv_objx/lv_gauge.c ****     /*Create the ancestor gauge*/
  70:..\..\..\lvgl\version_6.1.2\lvgl\src\lv_objx/lv_gauge.c ****     lv_obj_t * new_gauge = lv_lmeter_create(par, copy);
  71:..\..\..\lvgl\version_6.1.2\lvgl\src\lv_objx/lv_gauge.c ****     LV_ASSERT_MEM(new_gauge);
  72:..\..\..\lvgl\version_6.1.2\lvgl\src\lv_objx/lv_gauge.c ****     if(new_gauge == NULL) return NULL;
  73:..\..\..\lvgl\version_6.1.2\lvgl\src\lv_objx/lv_gauge.c **** 
  74:..\..\..\lvgl\version_6.1.2\lvgl\src\lv_objx/lv_gauge.c ****     /*Allocate the gauge type specific extended data*/
  75:..\..\..\lvgl\version_6.1.2\lvgl\src\lv_objx/lv_gauge.c ****     lv_gauge_ext_t * ext = lv_obj_allocate_ext_attr(new_gauge, sizeof(lv_gauge_ext_t));
  76:..\..\..\lvgl\version_6.1.2\lvgl\src\lv_objx/lv_gauge.c ****     LV_ASSERT_MEM(ext);
  77:..\..\..\lvgl\version_6.1.2\lvgl\src\lv_objx/lv_gauge.c ****     if(ext == NULL) return NULL;
  78:..\..\..\lvgl\version_6.1.2\lvgl\src\lv_objx/lv_gauge.c **** 
  79:..\..\..\lvgl\version_6.1.2\lvgl\src\lv_objx/lv_gauge.c ****     /*Initialize the allocated 'ext' */
  80:..\..\..\lvgl\version_6.1.2\lvgl\src\lv_objx/lv_gauge.c ****     ext->needle_count  = 0;
  81:..\..\..\lvgl\version_6.1.2\lvgl\src\lv_objx/lv_gauge.c ****     ext->values        = NULL;
  82:..\..\..\lvgl\version_6.1.2\lvgl\src\lv_objx/lv_gauge.c ****     ext->needle_colors = NULL;
  83:..\..\..\lvgl\version_6.1.2\lvgl\src\lv_objx/lv_gauge.c ****     ext->label_count   = LV_GAUGE_DEF_LABEL_COUNT;
  84:..\..\..\lvgl\version_6.1.2\lvgl\src\lv_objx/lv_gauge.c ****     if(ancestor_signal == NULL) ancestor_signal = lv_obj_get_signal_cb(new_gauge);
  85:..\..\..\lvgl\version_6.1.2\lvgl\src\lv_objx/lv_gauge.c ****     if(ancestor_design == NULL) ancestor_design = lv_obj_get_design_cb(new_gauge);
  86:..\..\..\lvgl\version_6.1.2\lvgl\src\lv_objx/lv_gauge.c **** 
  87:..\..\..\lvgl\version_6.1.2\lvgl\src\lv_objx/lv_gauge.c ****     /*The signal and design functions are not copied so set them here*/
ARM GAS  C:\Users\pearlstl\AppData\Local\Temp\cccjDn63.s 			page 3


  88:..\..\..\lvgl\version_6.1.2\lvgl\src\lv_objx/lv_gauge.c ****     lv_obj_set_signal_cb(new_gauge, lv_gauge_signal);
  89:..\..\..\lvgl\version_6.1.2\lvgl\src\lv_objx/lv_gauge.c ****     lv_obj_set_design_cb(new_gauge, lv_gauge_design);
  90:..\..\..\lvgl\version_6.1.2\lvgl\src\lv_objx/lv_gauge.c **** 
  91:..\..\..\lvgl\version_6.1.2\lvgl\src\lv_objx/lv_gauge.c ****     /*Init the new gauge gauge*/
  92:..\..\..\lvgl\version_6.1.2\lvgl\src\lv_objx/lv_gauge.c ****     if(copy == NULL) {
  93:..\..\..\lvgl\version_6.1.2\lvgl\src\lv_objx/lv_gauge.c ****         lv_gauge_set_scale(new_gauge, LV_GAUGE_DEF_ANGLE, LV_GAUGE_DEF_LINE_COUNT, LV_GAUGE_DEF_LAB
  94:..\..\..\lvgl\version_6.1.2\lvgl\src\lv_objx/lv_gauge.c ****         lv_gauge_set_needle_count(new_gauge, 1, NULL);
  95:..\..\..\lvgl\version_6.1.2\lvgl\src\lv_objx/lv_gauge.c ****         lv_gauge_set_critical_value(new_gauge, 80);
  96:..\..\..\lvgl\version_6.1.2\lvgl\src\lv_objx/lv_gauge.c ****         lv_obj_set_size(new_gauge, 2 * LV_DPI, 2 * LV_DPI);
  97:..\..\..\lvgl\version_6.1.2\lvgl\src\lv_objx/lv_gauge.c **** 
  98:..\..\..\lvgl\version_6.1.2\lvgl\src\lv_objx/lv_gauge.c ****         /*Set the default styles*/
  99:..\..\..\lvgl\version_6.1.2\lvgl\src\lv_objx/lv_gauge.c ****         lv_theme_t * th = lv_theme_get_current();
 100:..\..\..\lvgl\version_6.1.2\lvgl\src\lv_objx/lv_gauge.c ****         if(th) {
 101:..\..\..\lvgl\version_6.1.2\lvgl\src\lv_objx/lv_gauge.c ****             lv_gauge_set_style(new_gauge, LV_GAUGE_STYLE_MAIN, th->style.gauge);
 102:..\..\..\lvgl\version_6.1.2\lvgl\src\lv_objx/lv_gauge.c ****         } else {
 103:..\..\..\lvgl\version_6.1.2\lvgl\src\lv_objx/lv_gauge.c ****             lv_gauge_set_style(new_gauge, LV_GAUGE_STYLE_MAIN, &lv_style_pretty_color);
 104:..\..\..\lvgl\version_6.1.2\lvgl\src\lv_objx/lv_gauge.c ****         }
 105:..\..\..\lvgl\version_6.1.2\lvgl\src\lv_objx/lv_gauge.c ****     }
 106:..\..\..\lvgl\version_6.1.2\lvgl\src\lv_objx/lv_gauge.c ****     /*Copy an existing gauge*/
 107:..\..\..\lvgl\version_6.1.2\lvgl\src\lv_objx/lv_gauge.c ****     else {
 108:..\..\..\lvgl\version_6.1.2\lvgl\src\lv_objx/lv_gauge.c ****         lv_gauge_ext_t * copy_ext = lv_obj_get_ext_attr(copy);
 109:..\..\..\lvgl\version_6.1.2\lvgl\src\lv_objx/lv_gauge.c ****         lv_gauge_set_needle_count(new_gauge, copy_ext->needle_count, copy_ext->needle_colors);
 110:..\..\..\lvgl\version_6.1.2\lvgl\src\lv_objx/lv_gauge.c **** 
 111:..\..\..\lvgl\version_6.1.2\lvgl\src\lv_objx/lv_gauge.c ****         uint8_t i;
 112:..\..\..\lvgl\version_6.1.2\lvgl\src\lv_objx/lv_gauge.c ****         for(i = 0; i < ext->needle_count; i++) {
 113:..\..\..\lvgl\version_6.1.2\lvgl\src\lv_objx/lv_gauge.c ****             ext->values[i] = copy_ext->values[i];
 114:..\..\..\lvgl\version_6.1.2\lvgl\src\lv_objx/lv_gauge.c ****         }
 115:..\..\..\lvgl\version_6.1.2\lvgl\src\lv_objx/lv_gauge.c ****         ext->label_count = copy_ext->label_count;
 116:..\..\..\lvgl\version_6.1.2\lvgl\src\lv_objx/lv_gauge.c ****         /*Refresh the style with new signal function*/
 117:..\..\..\lvgl\version_6.1.2\lvgl\src\lv_objx/lv_gauge.c ****         lv_obj_refresh_style(new_gauge);
 118:..\..\..\lvgl\version_6.1.2\lvgl\src\lv_objx/lv_gauge.c ****     }
 119:..\..\..\lvgl\version_6.1.2\lvgl\src\lv_objx/lv_gauge.c **** 
 120:..\..\..\lvgl\version_6.1.2\lvgl\src\lv_objx/lv_gauge.c ****     LV_LOG_INFO("gauge created");
 121:..\..\..\lvgl\version_6.1.2\lvgl\src\lv_objx/lv_gauge.c **** 
 122:..\..\..\lvgl\version_6.1.2\lvgl\src\lv_objx/lv_gauge.c ****     return new_gauge;
 123:..\..\..\lvgl\version_6.1.2\lvgl\src\lv_objx/lv_gauge.c **** }
 124:..\..\..\lvgl\version_6.1.2\lvgl\src\lv_objx/lv_gauge.c **** 
 125:..\..\..\lvgl\version_6.1.2\lvgl\src\lv_objx/lv_gauge.c **** /*=====================
 126:..\..\..\lvgl\version_6.1.2\lvgl\src\lv_objx/lv_gauge.c ****  * Setter functions
 127:..\..\..\lvgl\version_6.1.2\lvgl\src\lv_objx/lv_gauge.c ****  *====================*/
 128:..\..\..\lvgl\version_6.1.2\lvgl\src\lv_objx/lv_gauge.c **** 
 129:..\..\..\lvgl\version_6.1.2\lvgl\src\lv_objx/lv_gauge.c **** /**
 130:..\..\..\lvgl\version_6.1.2\lvgl\src\lv_objx/lv_gauge.c ****  * Set the number of needles
 131:..\..\..\lvgl\version_6.1.2\lvgl\src\lv_objx/lv_gauge.c ****  * @param gauge pointer to gauge object
 132:..\..\..\lvgl\version_6.1.2\lvgl\src\lv_objx/lv_gauge.c ****  * @param needle_cnt new count of needles
 133:..\..\..\lvgl\version_6.1.2\lvgl\src\lv_objx/lv_gauge.c ****  * @param colors an array of colors for needles (with 'num' elements)
 134:..\..\..\lvgl\version_6.1.2\lvgl\src\lv_objx/lv_gauge.c ****  */
 135:..\..\..\lvgl\version_6.1.2\lvgl\src\lv_objx/lv_gauge.c **** void lv_gauge_set_needle_count(lv_obj_t * gauge, uint8_t needle_cnt, const lv_color_t colors[])
 136:..\..\..\lvgl\version_6.1.2\lvgl\src\lv_objx/lv_gauge.c **** {
 137:..\..\..\lvgl\version_6.1.2\lvgl\src\lv_objx/lv_gauge.c ****     LV_ASSERT_OBJ(gauge, LV_OBJX_NAME);
 138:..\..\..\lvgl\version_6.1.2\lvgl\src\lv_objx/lv_gauge.c **** 
 139:..\..\..\lvgl\version_6.1.2\lvgl\src\lv_objx/lv_gauge.c ****     lv_gauge_ext_t * ext = lv_obj_get_ext_attr(gauge);
 140:..\..\..\lvgl\version_6.1.2\lvgl\src\lv_objx/lv_gauge.c **** 
 141:..\..\..\lvgl\version_6.1.2\lvgl\src\lv_objx/lv_gauge.c ****     if(ext->needle_count != needle_cnt) {
 142:..\..\..\lvgl\version_6.1.2\lvgl\src\lv_objx/lv_gauge.c ****         if(ext->values != NULL) {
 143:..\..\..\lvgl\version_6.1.2\lvgl\src\lv_objx/lv_gauge.c ****             lv_mem_free(ext->values);
 144:..\..\..\lvgl\version_6.1.2\lvgl\src\lv_objx/lv_gauge.c ****             ext->values = NULL;
ARM GAS  C:\Users\pearlstl\AppData\Local\Temp\cccjDn63.s 			page 4


 145:..\..\..\lvgl\version_6.1.2\lvgl\src\lv_objx/lv_gauge.c ****         }
 146:..\..\..\lvgl\version_6.1.2\lvgl\src\lv_objx/lv_gauge.c **** 
 147:..\..\..\lvgl\version_6.1.2\lvgl\src\lv_objx/lv_gauge.c ****         ext->values = lv_mem_realloc(ext->values, needle_cnt * sizeof(int16_t));
 148:..\..\..\lvgl\version_6.1.2\lvgl\src\lv_objx/lv_gauge.c ****         LV_ASSERT_MEM(ext->values);
 149:..\..\..\lvgl\version_6.1.2\lvgl\src\lv_objx/lv_gauge.c ****         if(ext->values == NULL) return;
 150:..\..\..\lvgl\version_6.1.2\lvgl\src\lv_objx/lv_gauge.c **** 
 151:..\..\..\lvgl\version_6.1.2\lvgl\src\lv_objx/lv_gauge.c ****         int16_t min = lv_gauge_get_min_value(gauge);
 152:..\..\..\lvgl\version_6.1.2\lvgl\src\lv_objx/lv_gauge.c ****         uint8_t n;
 153:..\..\..\lvgl\version_6.1.2\lvgl\src\lv_objx/lv_gauge.c ****         for(n = ext->needle_count; n < needle_cnt; n++) {
 154:..\..\..\lvgl\version_6.1.2\lvgl\src\lv_objx/lv_gauge.c ****             ext->values[n] = min;
 155:..\..\..\lvgl\version_6.1.2\lvgl\src\lv_objx/lv_gauge.c ****         }
 156:..\..\..\lvgl\version_6.1.2\lvgl\src\lv_objx/lv_gauge.c **** 
 157:..\..\..\lvgl\version_6.1.2\lvgl\src\lv_objx/lv_gauge.c ****         ext->needle_count = needle_cnt;
 158:..\..\..\lvgl\version_6.1.2\lvgl\src\lv_objx/lv_gauge.c ****     }
 159:..\..\..\lvgl\version_6.1.2\lvgl\src\lv_objx/lv_gauge.c **** 
 160:..\..\..\lvgl\version_6.1.2\lvgl\src\lv_objx/lv_gauge.c ****     ext->needle_colors = colors;
 161:..\..\..\lvgl\version_6.1.2\lvgl\src\lv_objx/lv_gauge.c ****     lv_obj_invalidate(gauge);
 162:..\..\..\lvgl\version_6.1.2\lvgl\src\lv_objx/lv_gauge.c **** }
 163:..\..\..\lvgl\version_6.1.2\lvgl\src\lv_objx/lv_gauge.c **** 
 164:..\..\..\lvgl\version_6.1.2\lvgl\src\lv_objx/lv_gauge.c **** /**
 165:..\..\..\lvgl\version_6.1.2\lvgl\src\lv_objx/lv_gauge.c ****  * Set the value of a needle
 166:..\..\..\lvgl\version_6.1.2\lvgl\src\lv_objx/lv_gauge.c ****  * @param gauge pointer to a gauge
 167:..\..\..\lvgl\version_6.1.2\lvgl\src\lv_objx/lv_gauge.c ****  * @param needle_id the id of the needle
 168:..\..\..\lvgl\version_6.1.2\lvgl\src\lv_objx/lv_gauge.c ****  * @param value the new value
 169:..\..\..\lvgl\version_6.1.2\lvgl\src\lv_objx/lv_gauge.c ****  */
 170:..\..\..\lvgl\version_6.1.2\lvgl\src\lv_objx/lv_gauge.c **** void lv_gauge_set_value(lv_obj_t * gauge, uint8_t needle_id, int16_t value)
 171:..\..\..\lvgl\version_6.1.2\lvgl\src\lv_objx/lv_gauge.c **** {
 172:..\..\..\lvgl\version_6.1.2\lvgl\src\lv_objx/lv_gauge.c ****     LV_ASSERT_OBJ(gauge, LV_OBJX_NAME);
 173:..\..\..\lvgl\version_6.1.2\lvgl\src\lv_objx/lv_gauge.c **** 
 174:..\..\..\lvgl\version_6.1.2\lvgl\src\lv_objx/lv_gauge.c ****     lv_gauge_ext_t * ext = lv_obj_get_ext_attr(gauge);
 175:..\..\..\lvgl\version_6.1.2\lvgl\src\lv_objx/lv_gauge.c **** 
 176:..\..\..\lvgl\version_6.1.2\lvgl\src\lv_objx/lv_gauge.c ****     if(needle_id >= ext->needle_count) return;
 177:..\..\..\lvgl\version_6.1.2\lvgl\src\lv_objx/lv_gauge.c ****     if(ext->values[needle_id] == value) return;
 178:..\..\..\lvgl\version_6.1.2\lvgl\src\lv_objx/lv_gauge.c **** 
 179:..\..\..\lvgl\version_6.1.2\lvgl\src\lv_objx/lv_gauge.c ****     int16_t min = lv_gauge_get_min_value(gauge);
 180:..\..\..\lvgl\version_6.1.2\lvgl\src\lv_objx/lv_gauge.c ****     int16_t max = lv_gauge_get_max_value(gauge);
 181:..\..\..\lvgl\version_6.1.2\lvgl\src\lv_objx/lv_gauge.c **** 
 182:..\..\..\lvgl\version_6.1.2\lvgl\src\lv_objx/lv_gauge.c ****     if(value > max)
 183:..\..\..\lvgl\version_6.1.2\lvgl\src\lv_objx/lv_gauge.c ****         value = max;
 184:..\..\..\lvgl\version_6.1.2\lvgl\src\lv_objx/lv_gauge.c ****     else if(value < min)
 185:..\..\..\lvgl\version_6.1.2\lvgl\src\lv_objx/lv_gauge.c ****         value = min;
 186:..\..\..\lvgl\version_6.1.2\lvgl\src\lv_objx/lv_gauge.c **** 
 187:..\..\..\lvgl\version_6.1.2\lvgl\src\lv_objx/lv_gauge.c ****     ext->values[needle_id] = value;
 188:..\..\..\lvgl\version_6.1.2\lvgl\src\lv_objx/lv_gauge.c **** 
 189:..\..\..\lvgl\version_6.1.2\lvgl\src\lv_objx/lv_gauge.c ****     lv_obj_invalidate(gauge);
 190:..\..\..\lvgl\version_6.1.2\lvgl\src\lv_objx/lv_gauge.c **** }
 191:..\..\..\lvgl\version_6.1.2\lvgl\src\lv_objx/lv_gauge.c **** 
 192:..\..\..\lvgl\version_6.1.2\lvgl\src\lv_objx/lv_gauge.c **** /**
 193:..\..\..\lvgl\version_6.1.2\lvgl\src\lv_objx/lv_gauge.c ****  * Set the scale settings of a gauge
 194:..\..\..\lvgl\version_6.1.2\lvgl\src\lv_objx/lv_gauge.c ****  * @param gauge pointer to a gauge object
 195:..\..\..\lvgl\version_6.1.2\lvgl\src\lv_objx/lv_gauge.c ****  * @param angle angle of the scale (0..360)
 196:..\..\..\lvgl\version_6.1.2\lvgl\src\lv_objx/lv_gauge.c ****  * @param line_cnt count of scale lines.
 197:..\..\..\lvgl\version_6.1.2\lvgl\src\lv_objx/lv_gauge.c ****  * The get a given "subdivision" lines between label, `line_cnt` = (sub_div + 1) * (label_cnt - 1) 
 198:..\..\..\lvgl\version_6.1.2\lvgl\src\lv_objx/lv_gauge.c ****  * 1
 199:..\..\..\lvgl\version_6.1.2\lvgl\src\lv_objx/lv_gauge.c ****  * @param label_cnt count of scale labels.
 200:..\..\..\lvgl\version_6.1.2\lvgl\src\lv_objx/lv_gauge.c ****  */
 201:..\..\..\lvgl\version_6.1.2\lvgl\src\lv_objx/lv_gauge.c **** void lv_gauge_set_scale(lv_obj_t * gauge, uint16_t angle, uint8_t line_cnt, uint8_t label_cnt)
ARM GAS  C:\Users\pearlstl\AppData\Local\Temp\cccjDn63.s 			page 5


 202:..\..\..\lvgl\version_6.1.2\lvgl\src\lv_objx/lv_gauge.c **** {
 203:..\..\..\lvgl\version_6.1.2\lvgl\src\lv_objx/lv_gauge.c ****     LV_ASSERT_OBJ(gauge, LV_OBJX_NAME);
 204:..\..\..\lvgl\version_6.1.2\lvgl\src\lv_objx/lv_gauge.c **** 
 205:..\..\..\lvgl\version_6.1.2\lvgl\src\lv_objx/lv_gauge.c ****     lv_lmeter_set_scale(gauge, angle, line_cnt);
 206:..\..\..\lvgl\version_6.1.2\lvgl\src\lv_objx/lv_gauge.c **** 
 207:..\..\..\lvgl\version_6.1.2\lvgl\src\lv_objx/lv_gauge.c ****     lv_gauge_ext_t * ext = lv_obj_get_ext_attr(gauge);
 208:..\..\..\lvgl\version_6.1.2\lvgl\src\lv_objx/lv_gauge.c ****     ext->label_count     = label_cnt;
 209:..\..\..\lvgl\version_6.1.2\lvgl\src\lv_objx/lv_gauge.c ****     lv_obj_invalidate(gauge);
 210:..\..\..\lvgl\version_6.1.2\lvgl\src\lv_objx/lv_gauge.c **** }
 211:..\..\..\lvgl\version_6.1.2\lvgl\src\lv_objx/lv_gauge.c **** 
 212:..\..\..\lvgl\version_6.1.2\lvgl\src\lv_objx/lv_gauge.c **** /*=====================
 213:..\..\..\lvgl\version_6.1.2\lvgl\src\lv_objx/lv_gauge.c ****  * Getter functions
 214:..\..\..\lvgl\version_6.1.2\lvgl\src\lv_objx/lv_gauge.c ****  *====================*/
 215:..\..\..\lvgl\version_6.1.2\lvgl\src\lv_objx/lv_gauge.c **** 
 216:..\..\..\lvgl\version_6.1.2\lvgl\src\lv_objx/lv_gauge.c **** /**
 217:..\..\..\lvgl\version_6.1.2\lvgl\src\lv_objx/lv_gauge.c ****  * Get the value of a needle
 218:..\..\..\lvgl\version_6.1.2\lvgl\src\lv_objx/lv_gauge.c ****  * @param gauge pointer to gauge object
 219:..\..\..\lvgl\version_6.1.2\lvgl\src\lv_objx/lv_gauge.c ****  * @param needle the id of the needle
 220:..\..\..\lvgl\version_6.1.2\lvgl\src\lv_objx/lv_gauge.c ****  * @return the value of the needle [min,max]
 221:..\..\..\lvgl\version_6.1.2\lvgl\src\lv_objx/lv_gauge.c ****  */
 222:..\..\..\lvgl\version_6.1.2\lvgl\src\lv_objx/lv_gauge.c **** int16_t lv_gauge_get_value(const lv_obj_t * gauge, uint8_t needle)
 223:..\..\..\lvgl\version_6.1.2\lvgl\src\lv_objx/lv_gauge.c **** {
 224:..\..\..\lvgl\version_6.1.2\lvgl\src\lv_objx/lv_gauge.c ****     LV_ASSERT_OBJ(gauge, LV_OBJX_NAME);
 225:..\..\..\lvgl\version_6.1.2\lvgl\src\lv_objx/lv_gauge.c **** 
 226:..\..\..\lvgl\version_6.1.2\lvgl\src\lv_objx/lv_gauge.c ****     lv_gauge_ext_t * ext = lv_obj_get_ext_attr(gauge);
 227:..\..\..\lvgl\version_6.1.2\lvgl\src\lv_objx/lv_gauge.c ****     int16_t min          = lv_gauge_get_min_value(gauge);
 228:..\..\..\lvgl\version_6.1.2\lvgl\src\lv_objx/lv_gauge.c **** 
 229:..\..\..\lvgl\version_6.1.2\lvgl\src\lv_objx/lv_gauge.c ****     if(needle >= ext->needle_count) return min;
 230:..\..\..\lvgl\version_6.1.2\lvgl\src\lv_objx/lv_gauge.c **** 
 231:..\..\..\lvgl\version_6.1.2\lvgl\src\lv_objx/lv_gauge.c ****     return ext->values[needle];
 232:..\..\..\lvgl\version_6.1.2\lvgl\src\lv_objx/lv_gauge.c **** }
 233:..\..\..\lvgl\version_6.1.2\lvgl\src\lv_objx/lv_gauge.c **** 
 234:..\..\..\lvgl\version_6.1.2\lvgl\src\lv_objx/lv_gauge.c **** /**
 235:..\..\..\lvgl\version_6.1.2\lvgl\src\lv_objx/lv_gauge.c ****  * Get the count of needles on a gauge
 236:..\..\..\lvgl\version_6.1.2\lvgl\src\lv_objx/lv_gauge.c ****  * @param gauge pointer to gauge
 237:..\..\..\lvgl\version_6.1.2\lvgl\src\lv_objx/lv_gauge.c ****  * @return count of needles
 238:..\..\..\lvgl\version_6.1.2\lvgl\src\lv_objx/lv_gauge.c ****  */
 239:..\..\..\lvgl\version_6.1.2\lvgl\src\lv_objx/lv_gauge.c **** uint8_t lv_gauge_get_needle_count(const lv_obj_t * gauge)
 240:..\..\..\lvgl\version_6.1.2\lvgl\src\lv_objx/lv_gauge.c **** {
 241:..\..\..\lvgl\version_6.1.2\lvgl\src\lv_objx/lv_gauge.c ****     LV_ASSERT_OBJ(gauge, LV_OBJX_NAME);
 242:..\..\..\lvgl\version_6.1.2\lvgl\src\lv_objx/lv_gauge.c **** 
 243:..\..\..\lvgl\version_6.1.2\lvgl\src\lv_objx/lv_gauge.c ****     lv_gauge_ext_t * ext = lv_obj_get_ext_attr(gauge);
 244:..\..\..\lvgl\version_6.1.2\lvgl\src\lv_objx/lv_gauge.c ****     return ext->needle_count;
 245:..\..\..\lvgl\version_6.1.2\lvgl\src\lv_objx/lv_gauge.c **** }
 246:..\..\..\lvgl\version_6.1.2\lvgl\src\lv_objx/lv_gauge.c **** 
 247:..\..\..\lvgl\version_6.1.2\lvgl\src\lv_objx/lv_gauge.c **** /**
 248:..\..\..\lvgl\version_6.1.2\lvgl\src\lv_objx/lv_gauge.c ****  * Set the number of labels (and the thicker lines too)
 249:..\..\..\lvgl\version_6.1.2\lvgl\src\lv_objx/lv_gauge.c ****  * @param gauge pointer to a gauge object
 250:..\..\..\lvgl\version_6.1.2\lvgl\src\lv_objx/lv_gauge.c ****  * @return count of labels
 251:..\..\..\lvgl\version_6.1.2\lvgl\src\lv_objx/lv_gauge.c ****  */
 252:..\..\..\lvgl\version_6.1.2\lvgl\src\lv_objx/lv_gauge.c **** uint8_t lv_gauge_get_label_count(const lv_obj_t * gauge)
 253:..\..\..\lvgl\version_6.1.2\lvgl\src\lv_objx/lv_gauge.c **** {
 254:..\..\..\lvgl\version_6.1.2\lvgl\src\lv_objx/lv_gauge.c ****     LV_ASSERT_OBJ(gauge, LV_OBJX_NAME);
 255:..\..\..\lvgl\version_6.1.2\lvgl\src\lv_objx/lv_gauge.c **** 
 256:..\..\..\lvgl\version_6.1.2\lvgl\src\lv_objx/lv_gauge.c ****     lv_gauge_ext_t * ext = lv_obj_get_ext_attr(gauge);
 257:..\..\..\lvgl\version_6.1.2\lvgl\src\lv_objx/lv_gauge.c ****     return ext->label_count;
 258:..\..\..\lvgl\version_6.1.2\lvgl\src\lv_objx/lv_gauge.c **** }
ARM GAS  C:\Users\pearlstl\AppData\Local\Temp\cccjDn63.s 			page 6


 259:..\..\..\lvgl\version_6.1.2\lvgl\src\lv_objx/lv_gauge.c **** 
 260:..\..\..\lvgl\version_6.1.2\lvgl\src\lv_objx/lv_gauge.c **** /**********************
 261:..\..\..\lvgl\version_6.1.2\lvgl\src\lv_objx/lv_gauge.c ****  *   STATIC FUNCTIONS
 262:..\..\..\lvgl\version_6.1.2\lvgl\src\lv_objx/lv_gauge.c ****  **********************/
 263:..\..\..\lvgl\version_6.1.2\lvgl\src\lv_objx/lv_gauge.c **** 
 264:..\..\..\lvgl\version_6.1.2\lvgl\src\lv_objx/lv_gauge.c **** /**
 265:..\..\..\lvgl\version_6.1.2\lvgl\src\lv_objx/lv_gauge.c ****  * Handle the drawing related tasks of the gauges
 266:..\..\..\lvgl\version_6.1.2\lvgl\src\lv_objx/lv_gauge.c ****  * @param gauge pointer to an object
 267:..\..\..\lvgl\version_6.1.2\lvgl\src\lv_objx/lv_gauge.c ****  * @param mask the object will be drawn only in this area
 268:..\..\..\lvgl\version_6.1.2\lvgl\src\lv_objx/lv_gauge.c ****  * @param mode LV_DESIGN_COVER_CHK: only check if the object fully covers the 'mask_p' area
 269:..\..\..\lvgl\version_6.1.2\lvgl\src\lv_objx/lv_gauge.c ****  *                                  (return 'true' if yes)
 270:..\..\..\lvgl\version_6.1.2\lvgl\src\lv_objx/lv_gauge.c ****  *             LV_DESIGN_DRAW: draw the object (always return 'true')
 271:..\..\..\lvgl\version_6.1.2\lvgl\src\lv_objx/lv_gauge.c ****  *             LV_DESIGN_DRAW_POST: drawing after every children are drawn
 272:..\..\..\lvgl\version_6.1.2\lvgl\src\lv_objx/lv_gauge.c ****  * @param return true/false, depends on 'mode'
 273:..\..\..\lvgl\version_6.1.2\lvgl\src\lv_objx/lv_gauge.c ****  */
 274:..\..\..\lvgl\version_6.1.2\lvgl\src\lv_objx/lv_gauge.c **** static bool lv_gauge_design(lv_obj_t * gauge, const lv_area_t * mask, lv_design_mode_t mode)
 275:..\..\..\lvgl\version_6.1.2\lvgl\src\lv_objx/lv_gauge.c **** {
  28              		.loc 1 275 0
  29              		.cfi_startproc
  30              		@ args = 0, pretend = 0, frame = 328
  31              		@ frame_needed = 0, uses_anonymous_args = 0
  32              	.LVL0:
 276:..\..\..\lvgl\version_6.1.2\lvgl\src\lv_objx/lv_gauge.c ****     /*Return false if the object is not covers the mask_p area*/
 277:..\..\..\lvgl\version_6.1.2\lvgl\src\lv_objx/lv_gauge.c ****     if(mode == LV_DESIGN_COVER_CHK) {
  33              		.loc 1 277 0
  34 0000 022A     		cmp	r2, #2
  35 0002 0DD0     		beq	.L16
 275:..\..\..\lvgl\version_6.1.2\lvgl\src\lv_objx/lv_gauge.c ****     /*Return false if the object is not covers the mask_p area*/
  36              		.loc 1 275 0
  37 0004 2DE9F04F 		push	{r4, r5, r6, r7, r8, r9, r10, fp, lr}
  38              		.cfi_def_cfa_offset 36
  39              		.cfi_offset 4, -36
  40              		.cfi_offset 5, -32
  41              		.cfi_offset 6, -28
  42              		.cfi_offset 7, -24
  43              		.cfi_offset 8, -20
  44              		.cfi_offset 9, -16
  45              		.cfi_offset 10, -12
  46              		.cfi_offset 11, -8
  47              		.cfi_offset 14, -4
  48 0008 D9B0     		sub	sp, sp, #356
  49              		.cfi_def_cfa_offset 392
  50 000a 1646     		mov	r6, r2
  51 000c 0791     		str	r1, [sp, #28]
  52 000e 0C90     		str	r0, [sp, #48]
 278:..\..\..\lvgl\version_6.1.2\lvgl\src\lv_objx/lv_gauge.c ****         return false;
 279:..\..\..\lvgl\version_6.1.2\lvgl\src\lv_objx/lv_gauge.c ****     }
 280:..\..\..\lvgl\version_6.1.2\lvgl\src\lv_objx/lv_gauge.c ****     /*Draw the object*/
 281:..\..\..\lvgl\version_6.1.2\lvgl\src\lv_objx/lv_gauge.c ****     else if(mode == LV_DESIGN_DRAW_MAIN) {
  53              		.loc 1 281 0
  54 0010 42B1     		cbz	r2, .L24
 282:..\..\..\lvgl\version_6.1.2\lvgl\src\lv_objx/lv_gauge.c **** 
 283:..\..\..\lvgl\version_6.1.2\lvgl\src\lv_objx/lv_gauge.c ****         /* Store the real pointer because of 'lv_group'
 284:..\..\..\lvgl\version_6.1.2\lvgl\src\lv_objx/lv_gauge.c ****          * If the object is in focus 'lv_obj_get_style()' will give a pointer to tmp style
 285:..\..\..\lvgl\version_6.1.2\lvgl\src\lv_objx/lv_gauge.c ****          * and to the real object style. It is important because of style change tricks below*/
 286:..\..\..\lvgl\version_6.1.2\lvgl\src\lv_objx/lv_gauge.c ****         const lv_style_t * style_ori_p = gauge->style_p;
 287:..\..\..\lvgl\version_6.1.2\lvgl\src\lv_objx/lv_gauge.c ****         const lv_style_t * style       = lv_obj_get_style(gauge);
ARM GAS  C:\Users\pearlstl\AppData\Local\Temp\cccjDn63.s 			page 7


 288:..\..\..\lvgl\version_6.1.2\lvgl\src\lv_objx/lv_gauge.c ****         lv_gauge_ext_t * ext           = lv_obj_get_ext_attr(gauge);
 289:..\..\..\lvgl\version_6.1.2\lvgl\src\lv_objx/lv_gauge.c **** 
 290:..\..\..\lvgl\version_6.1.2\lvgl\src\lv_objx/lv_gauge.c ****         lv_gauge_draw_scale(gauge, mask);
 291:..\..\..\lvgl\version_6.1.2\lvgl\src\lv_objx/lv_gauge.c **** 
 292:..\..\..\lvgl\version_6.1.2\lvgl\src\lv_objx/lv_gauge.c ****         /*Draw the ancestor line meter with max value to show the rainbow like line colors*/
 293:..\..\..\lvgl\version_6.1.2\lvgl\src\lv_objx/lv_gauge.c ****         uint16_t line_cnt_tmp = ext->lmeter.line_cnt;
 294:..\..\..\lvgl\version_6.1.2\lvgl\src\lv_objx/lv_gauge.c ****         ancestor_design(gauge, mask, mode); /*To draw lines*/
 295:..\..\..\lvgl\version_6.1.2\lvgl\src\lv_objx/lv_gauge.c **** 
 296:..\..\..\lvgl\version_6.1.2\lvgl\src\lv_objx/lv_gauge.c ****         /*Temporally modify the line meter to draw longer lines where labels are*/
 297:..\..\..\lvgl\version_6.1.2\lvgl\src\lv_objx/lv_gauge.c ****         lv_style_t style_tmp;
 298:..\..\..\lvgl\version_6.1.2\lvgl\src\lv_objx/lv_gauge.c ****         lv_style_copy(&style_tmp, style);
 299:..\..\..\lvgl\version_6.1.2\lvgl\src\lv_objx/lv_gauge.c ****         ext->lmeter.line_cnt         = ext->label_count;                 /*Only to labels*/
 300:..\..\..\lvgl\version_6.1.2\lvgl\src\lv_objx/lv_gauge.c ****         style_tmp.body.padding.left  = style_tmp.body.padding.left * 2;  /*Longer lines*/
 301:..\..\..\lvgl\version_6.1.2\lvgl\src\lv_objx/lv_gauge.c ****         style_tmp.body.padding.right = style_tmp.body.padding.right * 2; /*Longer lines*/
 302:..\..\..\lvgl\version_6.1.2\lvgl\src\lv_objx/lv_gauge.c ****         gauge->style_p               = &style_tmp;
 303:..\..\..\lvgl\version_6.1.2\lvgl\src\lv_objx/lv_gauge.c **** 
 304:..\..\..\lvgl\version_6.1.2\lvgl\src\lv_objx/lv_gauge.c ****         ancestor_design(gauge, mask, mode); /*To draw lines*/
 305:..\..\..\lvgl\version_6.1.2\lvgl\src\lv_objx/lv_gauge.c **** 
 306:..\..\..\lvgl\version_6.1.2\lvgl\src\lv_objx/lv_gauge.c ****         ext->lmeter.line_cnt = line_cnt_tmp; /*Restore the parameters*/
 307:..\..\..\lvgl\version_6.1.2\lvgl\src\lv_objx/lv_gauge.c ****         gauge->style_p       = style_ori_p;  /*Restore the ORIGINAL style pointer*/
 308:..\..\..\lvgl\version_6.1.2\lvgl\src\lv_objx/lv_gauge.c **** 
 309:..\..\..\lvgl\version_6.1.2\lvgl\src\lv_objx/lv_gauge.c ****         lv_gauge_draw_needle(gauge, mask);
 310:..\..\..\lvgl\version_6.1.2\lvgl\src\lv_objx/lv_gauge.c **** 
 311:..\..\..\lvgl\version_6.1.2\lvgl\src\lv_objx/lv_gauge.c ****     }
 312:..\..\..\lvgl\version_6.1.2\lvgl\src\lv_objx/lv_gauge.c ****     /*Post draw when the children are drawn*/
 313:..\..\..\lvgl\version_6.1.2\lvgl\src\lv_objx/lv_gauge.c ****     else if(mode == LV_DESIGN_DRAW_POST) {
  55              		.loc 1 313 0
  56 0012 012A     		cmp	r2, #1
  57 0014 00F01E82 		beq	.L25
 314:..\..\..\lvgl\version_6.1.2\lvgl\src\lv_objx/lv_gauge.c ****         ancestor_design(gauge, mask, mode);
 315:..\..\..\lvgl\version_6.1.2\lvgl\src\lv_objx/lv_gauge.c ****     }
 316:..\..\..\lvgl\version_6.1.2\lvgl\src\lv_objx/lv_gauge.c **** 
 317:..\..\..\lvgl\version_6.1.2\lvgl\src\lv_objx/lv_gauge.c ****     return true;
  58              		.loc 1 317 0
  59 0018 0120     		movs	r0, #1
  60              	.LVL1:
 318:..\..\..\lvgl\version_6.1.2\lvgl\src\lv_objx/lv_gauge.c **** }
  61              		.loc 1 318 0
  62 001a 59B0     		add	sp, sp, #356
  63              		.cfi_def_cfa_offset 36
  64              		@ sp needed
  65 001c BDE8F08F 		pop	{r4, r5, r6, r7, r8, r9, r10, fp, pc}
  66              	.LVL2:
  67              	.L16:
  68              		.cfi_def_cfa_offset 0
  69              		.cfi_restore 4
  70              		.cfi_restore 5
  71              		.cfi_restore 6
  72              		.cfi_restore 7
  73              		.cfi_restore 8
  74              		.cfi_restore 9
  75              		.cfi_restore 10
  76              		.cfi_restore 11
  77              		.cfi_restore 14
 278:..\..\..\lvgl\version_6.1.2\lvgl\src\lv_objx/lv_gauge.c ****     }
  78              		.loc 1 278 0
  79 0020 0020     		movs	r0, #0
ARM GAS  C:\Users\pearlstl\AppData\Local\Temp\cccjDn63.s 			page 8


  80              	.LVL3:
  81              		.loc 1 318 0
  82 0022 7047     		bx	lr
  83              	.LVL4:
  84              	.L24:
  85              		.cfi_def_cfa_offset 392
  86              		.cfi_offset 4, -36
  87              		.cfi_offset 5, -32
  88              		.cfi_offset 6, -28
  89              		.cfi_offset 7, -24
  90              		.cfi_offset 8, -20
  91              		.cfi_offset 9, -16
  92              		.cfi_offset 10, -12
  93              		.cfi_offset 11, -8
  94              		.cfi_offset 14, -4
  95              	.LBB51:
  96              	.LBB52:
 286:..\..\..\lvgl\version_6.1.2\lvgl\src\lv_objx/lv_gauge.c ****         const lv_style_t * style       = lv_obj_get_style(gauge);
  97              		.loc 1 286 0
  98 0024 836A     		ldr	r3, [r0, #40]
  99 0026 1493     		str	r3, [sp, #80]
 100              	.LVL5:
 101 0028 0746     		mov	r7, r0
 287:..\..\..\lvgl\version_6.1.2\lvgl\src\lv_objx/lv_gauge.c ****         lv_gauge_ext_t * ext           = lv_obj_get_ext_attr(gauge);
 102              		.loc 1 287 0
 103 002a FFF7FEFF 		bl	lv_obj_get_style
 104              	.LVL6:
 105 002e 1590     		str	r0, [sp, #84]
 106              	.LVL7:
 288:..\..\..\lvgl\version_6.1.2\lvgl\src\lv_objx/lv_gauge.c **** 
 107              		.loc 1 288 0
 108 0030 3846     		mov	r0, r7
 109              	.LVL8:
 110 0032 FFF7FEFF 		bl	lv_obj_get_ext_attr
 111              	.LVL9:
 112 0036 1690     		str	r0, [sp, #88]
 113              	.LVL10:
 114              	.LBB53:
 115              	.LBB54:
 319:..\..\..\lvgl\version_6.1.2\lvgl\src\lv_objx/lv_gauge.c **** 
 320:..\..\..\lvgl\version_6.1.2\lvgl\src\lv_objx/lv_gauge.c **** /**
 321:..\..\..\lvgl\version_6.1.2\lvgl\src\lv_objx/lv_gauge.c ****  * Signal function of the gauge
 322:..\..\..\lvgl\version_6.1.2\lvgl\src\lv_objx/lv_gauge.c ****  * @param gauge pointer to a gauge object
 323:..\..\..\lvgl\version_6.1.2\lvgl\src\lv_objx/lv_gauge.c ****  * @param sign a signal type from lv_signal_t enum
 324:..\..\..\lvgl\version_6.1.2\lvgl\src\lv_objx/lv_gauge.c ****  * @param param pointer to a signal specific variable
 325:..\..\..\lvgl\version_6.1.2\lvgl\src\lv_objx/lv_gauge.c ****  * @return LV_RES_OK: the object is not deleted in the function; LV_RES_INV: the object is deleted
 326:..\..\..\lvgl\version_6.1.2\lvgl\src\lv_objx/lv_gauge.c ****  */
 327:..\..\..\lvgl\version_6.1.2\lvgl\src\lv_objx/lv_gauge.c **** static lv_res_t lv_gauge_signal(lv_obj_t * gauge, lv_signal_t sign, void * param)
 328:..\..\..\lvgl\version_6.1.2\lvgl\src\lv_objx/lv_gauge.c **** {
 329:..\..\..\lvgl\version_6.1.2\lvgl\src\lv_objx/lv_gauge.c ****     lv_res_t res;
 330:..\..\..\lvgl\version_6.1.2\lvgl\src\lv_objx/lv_gauge.c **** 
 331:..\..\..\lvgl\version_6.1.2\lvgl\src\lv_objx/lv_gauge.c ****     /* Include the ancient signal function */
 332:..\..\..\lvgl\version_6.1.2\lvgl\src\lv_objx/lv_gauge.c ****     res = ancestor_signal(gauge, sign, param);
 333:..\..\..\lvgl\version_6.1.2\lvgl\src\lv_objx/lv_gauge.c ****     if(res != LV_RES_OK) return res;
 334:..\..\..\lvgl\version_6.1.2\lvgl\src\lv_objx/lv_gauge.c ****     if(sign == LV_SIGNAL_GET_TYPE) return lv_obj_handle_get_type_signal(param, LV_OBJX_NAME);
 335:..\..\..\lvgl\version_6.1.2\lvgl\src\lv_objx/lv_gauge.c **** 
 336:..\..\..\lvgl\version_6.1.2\lvgl\src\lv_objx/lv_gauge.c ****     lv_gauge_ext_t * ext = lv_obj_get_ext_attr(gauge);
ARM GAS  C:\Users\pearlstl\AppData\Local\Temp\cccjDn63.s 			page 9


 337:..\..\..\lvgl\version_6.1.2\lvgl\src\lv_objx/lv_gauge.c ****     if(sign == LV_SIGNAL_CLEANUP) {
 338:..\..\..\lvgl\version_6.1.2\lvgl\src\lv_objx/lv_gauge.c ****         lv_mem_free(ext->values);
 339:..\..\..\lvgl\version_6.1.2\lvgl\src\lv_objx/lv_gauge.c ****         ext->values = NULL;
 340:..\..\..\lvgl\version_6.1.2\lvgl\src\lv_objx/lv_gauge.c ****     }
 341:..\..\..\lvgl\version_6.1.2\lvgl\src\lv_objx/lv_gauge.c **** 
 342:..\..\..\lvgl\version_6.1.2\lvgl\src\lv_objx/lv_gauge.c ****     return res;
 343:..\..\..\lvgl\version_6.1.2\lvgl\src\lv_objx/lv_gauge.c **** }
 344:..\..\..\lvgl\version_6.1.2\lvgl\src\lv_objx/lv_gauge.c **** 
 345:..\..\..\lvgl\version_6.1.2\lvgl\src\lv_objx/lv_gauge.c **** /**
 346:..\..\..\lvgl\version_6.1.2\lvgl\src\lv_objx/lv_gauge.c ****  * Draw the scale on a gauge
 347:..\..\..\lvgl\version_6.1.2\lvgl\src\lv_objx/lv_gauge.c ****  * @param gauge pointer to gauge object
 348:..\..\..\lvgl\version_6.1.2\lvgl\src\lv_objx/lv_gauge.c ****  * @param mask mask of drawing
 349:..\..\..\lvgl\version_6.1.2\lvgl\src\lv_objx/lv_gauge.c ****  */
 350:..\..\..\lvgl\version_6.1.2\lvgl\src\lv_objx/lv_gauge.c **** static void lv_gauge_draw_scale(lv_obj_t * gauge, const lv_area_t * mask)
 351:..\..\..\lvgl\version_6.1.2\lvgl\src\lv_objx/lv_gauge.c **** {
 352:..\..\..\lvgl\version_6.1.2\lvgl\src\lv_objx/lv_gauge.c ****     char scale_txt[16];
 353:..\..\..\lvgl\version_6.1.2\lvgl\src\lv_objx/lv_gauge.c **** 
 354:..\..\..\lvgl\version_6.1.2\lvgl\src\lv_objx/lv_gauge.c ****     lv_gauge_ext_t * ext     = lv_obj_get_ext_attr(gauge);
 116              		.loc 1 354 0
 117 0038 3846     		mov	r0, r7
 118              	.LVL11:
 119 003a FFF7FEFF 		bl	lv_obj_get_ext_attr
 120              	.LVL12:
 121 003e 0446     		mov	r4, r0
 122              	.LVL13:
 355:..\..\..\lvgl\version_6.1.2\lvgl\src\lv_objx/lv_gauge.c ****     const lv_style_t * style = lv_obj_get_style(gauge);
 123              		.loc 1 355 0
 124 0040 3846     		mov	r0, r7
 125              	.LVL14:
 126 0042 FFF7FEFF 		bl	lv_obj_get_style
 127              	.LVL15:
 128 0046 8046     		mov	r8, r0
 129              	.LVL16:
 356:..\..\..\lvgl\version_6.1.2\lvgl\src\lv_objx/lv_gauge.c ****     lv_opa_t opa_scale       = lv_obj_get_opa_scale(gauge);
 130              		.loc 1 356 0
 131 0048 3846     		mov	r0, r7
 132              	.LVL17:
 133 004a FFF7FEFF 		bl	lv_obj_get_opa_scale
 134              	.LVL18:
 135 004e 0990     		str	r0, [sp, #36]
 136              	.LVL19:
 357:..\..\..\lvgl\version_6.1.2\lvgl\src\lv_objx/lv_gauge.c ****     lv_coord_t r             = lv_obj_get_width(gauge) / 2 - (3 * style->body.padding.left) - style
 137              		.loc 1 357 0
 138 0050 3846     		mov	r0, r7
 139 0052 FFF7FEFF 		bl	lv_obj_get_width
 140              	.LVL20:
 141 0056 B8F82430 		ldrh	r3, [r8, #36]
 142 005a B8F828B0 		ldrh	fp, [r8, #40]
 143 005e A3EB8303 		sub	r3, r3, r3, lsl #2
 144 0062 CBEB0303 		rsb	r3, fp, r3
 145 0066 00EBD070 		add	r0, r0, r0, lsr #31
 146 006a 03EB600B 		add	fp, r3, r0, asr #1
 358:..\..\..\lvgl\version_6.1.2\lvgl\src\lv_objx/lv_gauge.c ****     lv_coord_t x_ofs         = lv_obj_get_width(gauge) / 2 + gauge->coords.x1;
 147              		.loc 1 358 0
 148 006e 3846     		mov	r0, r7
 149 0070 FFF7FEFF 		bl	lv_obj_get_width
 150              	.LVL21:
ARM GAS  C:\Users\pearlstl\AppData\Local\Temp\cccjDn63.s 			page 10


 151 0074 3B8A     		ldrh	r3, [r7, #16]
 152 0076 00EBD070 		add	r0, r0, r0, lsr #31
 153 007a 03EB6003 		add	r3, r3, r0, asr #1
 154 007e 99B2     		uxth	r1, r3
 359:..\..\..\lvgl\version_6.1.2\lvgl\src\lv_objx/lv_gauge.c ****     lv_coord_t y_ofs         = lv_obj_get_height(gauge) / 2 + gauge->coords.y1;
 155              		.loc 1 359 0
 156 0080 3846     		mov	r0, r7
 358:..\..\..\lvgl\version_6.1.2\lvgl\src\lv_objx/lv_gauge.c ****     lv_coord_t x_ofs         = lv_obj_get_width(gauge) / 2 + gauge->coords.x1;
 157              		.loc 1 358 0
 158 0082 0B91     		str	r1, [sp, #44]
 159              		.loc 1 359 0
 160 0084 FFF7FEFF 		bl	lv_obj_get_height
 161              	.LVL22:
 162 0088 7B8A     		ldrh	r3, [r7, #18]
 163 008a 00EBD070 		add	r0, r0, r0, lsr #31
 164 008e 03EB6003 		add	r3, r3, r0, asr #1
 165 0092 9BB2     		uxth	r3, r3
 360:..\..\..\lvgl\version_6.1.2\lvgl\src\lv_objx/lv_gauge.c ****     int16_t scale_angle      = lv_lmeter_get_scale_angle(gauge);
 166              		.loc 1 360 0
 167 0094 3846     		mov	r0, r7
 359:..\..\..\lvgl\version_6.1.2\lvgl\src\lv_objx/lv_gauge.c ****     lv_coord_t y_ofs         = lv_obj_get_height(gauge) / 2 + gauge->coords.y1;
 168              		.loc 1 359 0
 169 0096 0D93     		str	r3, [sp, #52]
 170              		.loc 1 360 0
 171 0098 FFF7FEFF 		bl	lv_lmeter_get_scale_angle
 172              	.LVL23:
 173 009c 03B2     		sxth	r3, r0
 174 009e 0E93     		str	r3, [sp, #56]
 361:..\..\..\lvgl\version_6.1.2\lvgl\src\lv_objx/lv_gauge.c ****     uint16_t label_num       = ext->label_count;
 362:..\..\..\lvgl\version_6.1.2\lvgl\src\lv_objx/lv_gauge.c ****     int16_t angle_ofs        = 90 + (360 - scale_angle) / 2;
 175              		.loc 1 362 0
 176 00a0 C3F5B473 		rsb	r3, r3, #360
 177 00a4 03EBD373 		add	r3, r3, r3, lsr #31
 178 00a8 5B10     		asrs	r3, r3, #1
 361:..\..\..\lvgl\version_6.1.2\lvgl\src\lv_objx/lv_gauge.c ****     uint16_t label_num       = ext->label_count;
 179              		.loc 1 361 0
 180 00aa 94F81590 		ldrb	r9, [r4, #21]	@ zero_extendqisi2
 181              		.loc 1 362 0
 182 00ae 5A33     		adds	r3, r3, #90
 183 00b0 9BB2     		uxth	r3, r3
 184 00b2 1093     		str	r3, [sp, #64]
 185              	.LBB55:
 186              	.LBB56:
 187              		.file 2 "..\\..\\..\\lvgl\\version_6.1.2\\lvgl\\src\\lv_objx\\lv_gauge.h"
   1:..\..\..\lvgl\version_6.1.2\lvgl\src\lv_objx/lv_gauge.h **** /**
   2:..\..\..\lvgl\version_6.1.2\lvgl\src\lv_objx/lv_gauge.h ****  * @file lv_gauge.h
   3:..\..\..\lvgl\version_6.1.2\lvgl\src\lv_objx/lv_gauge.h ****  *
   4:..\..\..\lvgl\version_6.1.2\lvgl\src\lv_objx/lv_gauge.h ****  */
   5:..\..\..\lvgl\version_6.1.2\lvgl\src\lv_objx/lv_gauge.h **** 
   6:..\..\..\lvgl\version_6.1.2\lvgl\src\lv_objx/lv_gauge.h **** #ifndef LV_GAUGE_H
   7:..\..\..\lvgl\version_6.1.2\lvgl\src\lv_objx/lv_gauge.h **** #define LV_GAUGE_H
   8:..\..\..\lvgl\version_6.1.2\lvgl\src\lv_objx/lv_gauge.h **** 
   9:..\..\..\lvgl\version_6.1.2\lvgl\src\lv_objx/lv_gauge.h **** #ifdef __cplusplus
  10:..\..\..\lvgl\version_6.1.2\lvgl\src\lv_objx/lv_gauge.h **** extern "C" {
  11:..\..\..\lvgl\version_6.1.2\lvgl\src\lv_objx/lv_gauge.h **** #endif
  12:..\..\..\lvgl\version_6.1.2\lvgl\src\lv_objx/lv_gauge.h **** 
  13:..\..\..\lvgl\version_6.1.2\lvgl\src\lv_objx/lv_gauge.h **** /*********************
ARM GAS  C:\Users\pearlstl\AppData\Local\Temp\cccjDn63.s 			page 11


  14:..\..\..\lvgl\version_6.1.2\lvgl\src\lv_objx/lv_gauge.h ****  *      INCLUDES
  15:..\..\..\lvgl\version_6.1.2\lvgl\src\lv_objx/lv_gauge.h ****  *********************/
  16:..\..\..\lvgl\version_6.1.2\lvgl\src\lv_objx/lv_gauge.h **** #ifdef LV_CONF_INCLUDE_SIMPLE
  17:..\..\..\lvgl\version_6.1.2\lvgl\src\lv_objx/lv_gauge.h **** #include "lv_conf.h"
  18:..\..\..\lvgl\version_6.1.2\lvgl\src\lv_objx/lv_gauge.h **** #else
  19:..\..\..\lvgl\version_6.1.2\lvgl\src\lv_objx/lv_gauge.h **** #include "../../../lv_conf.h"
  20:..\..\..\lvgl\version_6.1.2\lvgl\src\lv_objx/lv_gauge.h **** #endif
  21:..\..\..\lvgl\version_6.1.2\lvgl\src\lv_objx/lv_gauge.h **** 
  22:..\..\..\lvgl\version_6.1.2\lvgl\src\lv_objx/lv_gauge.h **** #if LV_USE_GAUGE != 0
  23:..\..\..\lvgl\version_6.1.2\lvgl\src\lv_objx/lv_gauge.h **** 
  24:..\..\..\lvgl\version_6.1.2\lvgl\src\lv_objx/lv_gauge.h **** /*Testing of dependencies*/
  25:..\..\..\lvgl\version_6.1.2\lvgl\src\lv_objx/lv_gauge.h **** #if LV_USE_LMETER == 0
  26:..\..\..\lvgl\version_6.1.2\lvgl\src\lv_objx/lv_gauge.h **** #error "lv_gauge: lv_lmeter is required. Enable it in lv_conf.h (LV_USE_LMETER  1) "
  27:..\..\..\lvgl\version_6.1.2\lvgl\src\lv_objx/lv_gauge.h **** #endif
  28:..\..\..\lvgl\version_6.1.2\lvgl\src\lv_objx/lv_gauge.h **** 
  29:..\..\..\lvgl\version_6.1.2\lvgl\src\lv_objx/lv_gauge.h **** #include "../lv_core/lv_obj.h"
  30:..\..\..\lvgl\version_6.1.2\lvgl\src\lv_objx/lv_gauge.h **** #include "lv_lmeter.h"
  31:..\..\..\lvgl\version_6.1.2\lvgl\src\lv_objx/lv_gauge.h **** #include "lv_label.h"
  32:..\..\..\lvgl\version_6.1.2\lvgl\src\lv_objx/lv_gauge.h **** #include "lv_line.h"
  33:..\..\..\lvgl\version_6.1.2\lvgl\src\lv_objx/lv_gauge.h **** 
  34:..\..\..\lvgl\version_6.1.2\lvgl\src\lv_objx/lv_gauge.h **** /*********************
  35:..\..\..\lvgl\version_6.1.2\lvgl\src\lv_objx/lv_gauge.h ****  *      DEFINES
  36:..\..\..\lvgl\version_6.1.2\lvgl\src\lv_objx/lv_gauge.h ****  *********************/
  37:..\..\..\lvgl\version_6.1.2\lvgl\src\lv_objx/lv_gauge.h **** 
  38:..\..\..\lvgl\version_6.1.2\lvgl\src\lv_objx/lv_gauge.h **** /**********************
  39:..\..\..\lvgl\version_6.1.2\lvgl\src\lv_objx/lv_gauge.h ****  *      TYPEDEFS
  40:..\..\..\lvgl\version_6.1.2\lvgl\src\lv_objx/lv_gauge.h ****  **********************/
  41:..\..\..\lvgl\version_6.1.2\lvgl\src\lv_objx/lv_gauge.h **** 
  42:..\..\..\lvgl\version_6.1.2\lvgl\src\lv_objx/lv_gauge.h **** /*Data of gauge*/
  43:..\..\..\lvgl\version_6.1.2\lvgl\src\lv_objx/lv_gauge.h **** typedef struct
  44:..\..\..\lvgl\version_6.1.2\lvgl\src\lv_objx/lv_gauge.h **** {
  45:..\..\..\lvgl\version_6.1.2\lvgl\src\lv_objx/lv_gauge.h ****     lv_lmeter_ext_t lmeter; /*Ext. of ancestor*/
  46:..\..\..\lvgl\version_6.1.2\lvgl\src\lv_objx/lv_gauge.h ****     /*New data for this type */
  47:..\..\..\lvgl\version_6.1.2\lvgl\src\lv_objx/lv_gauge.h ****     int16_t * values;                 /*Array of the set values (for needles) */
  48:..\..\..\lvgl\version_6.1.2\lvgl\src\lv_objx/lv_gauge.h ****     const lv_color_t * needle_colors; /*Color of the needles (lv_color_t my_colors[needle_num])*/
  49:..\..\..\lvgl\version_6.1.2\lvgl\src\lv_objx/lv_gauge.h ****     uint8_t needle_count;             /*Number of needles*/
  50:..\..\..\lvgl\version_6.1.2\lvgl\src\lv_objx/lv_gauge.h ****     uint8_t label_count;              /*Number of labels on the scale*/
  51:..\..\..\lvgl\version_6.1.2\lvgl\src\lv_objx/lv_gauge.h **** } lv_gauge_ext_t;
  52:..\..\..\lvgl\version_6.1.2\lvgl\src\lv_objx/lv_gauge.h **** 
  53:..\..\..\lvgl\version_6.1.2\lvgl\src\lv_objx/lv_gauge.h **** /*Styles*/
  54:..\..\..\lvgl\version_6.1.2\lvgl\src\lv_objx/lv_gauge.h **** enum {
  55:..\..\..\lvgl\version_6.1.2\lvgl\src\lv_objx/lv_gauge.h ****     LV_GAUGE_STYLE_MAIN,
  56:..\..\..\lvgl\version_6.1.2\lvgl\src\lv_objx/lv_gauge.h **** };
  57:..\..\..\lvgl\version_6.1.2\lvgl\src\lv_objx/lv_gauge.h **** typedef uint8_t lv_gauge_style_t;
  58:..\..\..\lvgl\version_6.1.2\lvgl\src\lv_objx/lv_gauge.h **** 
  59:..\..\..\lvgl\version_6.1.2\lvgl\src\lv_objx/lv_gauge.h **** /**********************
  60:..\..\..\lvgl\version_6.1.2\lvgl\src\lv_objx/lv_gauge.h ****  * GLOBAL PROTOTYPES
  61:..\..\..\lvgl\version_6.1.2\lvgl\src\lv_objx/lv_gauge.h ****  **********************/
  62:..\..\..\lvgl\version_6.1.2\lvgl\src\lv_objx/lv_gauge.h **** 
  63:..\..\..\lvgl\version_6.1.2\lvgl\src\lv_objx/lv_gauge.h **** /**
  64:..\..\..\lvgl\version_6.1.2\lvgl\src\lv_objx/lv_gauge.h ****  * Create a gauge objects
  65:..\..\..\lvgl\version_6.1.2\lvgl\src\lv_objx/lv_gauge.h ****  * @param par pointer to an object, it will be the parent of the new gauge
  66:..\..\..\lvgl\version_6.1.2\lvgl\src\lv_objx/lv_gauge.h ****  * @param copy pointer to a gauge object, if not NULL then the new object will be copied from it
  67:..\..\..\lvgl\version_6.1.2\lvgl\src\lv_objx/lv_gauge.h ****  * @return pointer to the created gauge
  68:..\..\..\lvgl\version_6.1.2\lvgl\src\lv_objx/lv_gauge.h ****  */
  69:..\..\..\lvgl\version_6.1.2\lvgl\src\lv_objx/lv_gauge.h **** lv_obj_t * lv_gauge_create(lv_obj_t * par, const lv_obj_t * copy);
  70:..\..\..\lvgl\version_6.1.2\lvgl\src\lv_objx/lv_gauge.h **** 
ARM GAS  C:\Users\pearlstl\AppData\Local\Temp\cccjDn63.s 			page 12


  71:..\..\..\lvgl\version_6.1.2\lvgl\src\lv_objx/lv_gauge.h **** /*=====================
  72:..\..\..\lvgl\version_6.1.2\lvgl\src\lv_objx/lv_gauge.h ****  * Setter functions
  73:..\..\..\lvgl\version_6.1.2\lvgl\src\lv_objx/lv_gauge.h ****  *====================*/
  74:..\..\..\lvgl\version_6.1.2\lvgl\src\lv_objx/lv_gauge.h **** 
  75:..\..\..\lvgl\version_6.1.2\lvgl\src\lv_objx/lv_gauge.h **** /**
  76:..\..\..\lvgl\version_6.1.2\lvgl\src\lv_objx/lv_gauge.h ****  * Set the number of needles
  77:..\..\..\lvgl\version_6.1.2\lvgl\src\lv_objx/lv_gauge.h ****  * @param gauge pointer to gauge object
  78:..\..\..\lvgl\version_6.1.2\lvgl\src\lv_objx/lv_gauge.h ****  * @param needle_cnt new count of needles
  79:..\..\..\lvgl\version_6.1.2\lvgl\src\lv_objx/lv_gauge.h ****  * @param colors an array of colors for needles (with 'num' elements)
  80:..\..\..\lvgl\version_6.1.2\lvgl\src\lv_objx/lv_gauge.h ****  */
  81:..\..\..\lvgl\version_6.1.2\lvgl\src\lv_objx/lv_gauge.h **** void lv_gauge_set_needle_count(lv_obj_t * gauge, uint8_t needle_cnt, const lv_color_t colors[]);
  82:..\..\..\lvgl\version_6.1.2\lvgl\src\lv_objx/lv_gauge.h **** 
  83:..\..\..\lvgl\version_6.1.2\lvgl\src\lv_objx/lv_gauge.h **** /**
  84:..\..\..\lvgl\version_6.1.2\lvgl\src\lv_objx/lv_gauge.h ****  * Set the value of a needle
  85:..\..\..\lvgl\version_6.1.2\lvgl\src\lv_objx/lv_gauge.h ****  * @param gauge pointer to a gauge
  86:..\..\..\lvgl\version_6.1.2\lvgl\src\lv_objx/lv_gauge.h ****  * @param needle_id the id of the needle
  87:..\..\..\lvgl\version_6.1.2\lvgl\src\lv_objx/lv_gauge.h ****  * @param value the new value
  88:..\..\..\lvgl\version_6.1.2\lvgl\src\lv_objx/lv_gauge.h ****  */
  89:..\..\..\lvgl\version_6.1.2\lvgl\src\lv_objx/lv_gauge.h **** void lv_gauge_set_value(lv_obj_t * gauge, uint8_t needle_id, int16_t value);
  90:..\..\..\lvgl\version_6.1.2\lvgl\src\lv_objx/lv_gauge.h **** 
  91:..\..\..\lvgl\version_6.1.2\lvgl\src\lv_objx/lv_gauge.h **** /**
  92:..\..\..\lvgl\version_6.1.2\lvgl\src\lv_objx/lv_gauge.h ****  * Set minimum and the maximum values of a gauge
  93:..\..\..\lvgl\version_6.1.2\lvgl\src\lv_objx/lv_gauge.h ****  * @param gauge pointer to he gauge object
  94:..\..\..\lvgl\version_6.1.2\lvgl\src\lv_objx/lv_gauge.h ****  * @param min minimum value
  95:..\..\..\lvgl\version_6.1.2\lvgl\src\lv_objx/lv_gauge.h ****  * @param max maximum value
  96:..\..\..\lvgl\version_6.1.2\lvgl\src\lv_objx/lv_gauge.h ****  */
  97:..\..\..\lvgl\version_6.1.2\lvgl\src\lv_objx/lv_gauge.h **** static inline void lv_gauge_set_range(lv_obj_t * gauge, int16_t min, int16_t max)
  98:..\..\..\lvgl\version_6.1.2\lvgl\src\lv_objx/lv_gauge.h **** {
  99:..\..\..\lvgl\version_6.1.2\lvgl\src\lv_objx/lv_gauge.h ****     lv_lmeter_set_range(gauge, min, max);
 100:..\..\..\lvgl\version_6.1.2\lvgl\src\lv_objx/lv_gauge.h **** }
 101:..\..\..\lvgl\version_6.1.2\lvgl\src\lv_objx/lv_gauge.h **** 
 102:..\..\..\lvgl\version_6.1.2\lvgl\src\lv_objx/lv_gauge.h **** /**
 103:..\..\..\lvgl\version_6.1.2\lvgl\src\lv_objx/lv_gauge.h ****  * Set a critical value on the scale. After this value 'line.color' scale lines will be drawn
 104:..\..\..\lvgl\version_6.1.2\lvgl\src\lv_objx/lv_gauge.h ****  * @param gauge pointer to a gauge object
 105:..\..\..\lvgl\version_6.1.2\lvgl\src\lv_objx/lv_gauge.h ****  * @param value the critical value
 106:..\..\..\lvgl\version_6.1.2\lvgl\src\lv_objx/lv_gauge.h ****  */
 107:..\..\..\lvgl\version_6.1.2\lvgl\src\lv_objx/lv_gauge.h **** static inline void lv_gauge_set_critical_value(lv_obj_t * gauge, int16_t value)
 108:..\..\..\lvgl\version_6.1.2\lvgl\src\lv_objx/lv_gauge.h **** {
 109:..\..\..\lvgl\version_6.1.2\lvgl\src\lv_objx/lv_gauge.h ****     lv_lmeter_set_value(gauge, value);
 110:..\..\..\lvgl\version_6.1.2\lvgl\src\lv_objx/lv_gauge.h **** }
 111:..\..\..\lvgl\version_6.1.2\lvgl\src\lv_objx/lv_gauge.h **** 
 112:..\..\..\lvgl\version_6.1.2\lvgl\src\lv_objx/lv_gauge.h **** /**
 113:..\..\..\lvgl\version_6.1.2\lvgl\src\lv_objx/lv_gauge.h ****  * Set the scale settings of a gauge
 114:..\..\..\lvgl\version_6.1.2\lvgl\src\lv_objx/lv_gauge.h ****  * @param gauge pointer to a gauge object
 115:..\..\..\lvgl\version_6.1.2\lvgl\src\lv_objx/lv_gauge.h ****  * @param angle angle of the scale (0..360)
 116:..\..\..\lvgl\version_6.1.2\lvgl\src\lv_objx/lv_gauge.h ****  * @param line_cnt count of scale lines.
 117:..\..\..\lvgl\version_6.1.2\lvgl\src\lv_objx/lv_gauge.h ****  * The get a given "subdivision" lines between label, `line_cnt` = (sub_div + 1) * (label_cnt - 1) 
 118:..\..\..\lvgl\version_6.1.2\lvgl\src\lv_objx/lv_gauge.h ****  * 1
 119:..\..\..\lvgl\version_6.1.2\lvgl\src\lv_objx/lv_gauge.h ****  * @param label_cnt count of scale labels.
 120:..\..\..\lvgl\version_6.1.2\lvgl\src\lv_objx/lv_gauge.h ****  */
 121:..\..\..\lvgl\version_6.1.2\lvgl\src\lv_objx/lv_gauge.h **** void lv_gauge_set_scale(lv_obj_t * gauge, uint16_t angle, uint8_t line_cnt, uint8_t label_cnt);
 122:..\..\..\lvgl\version_6.1.2\lvgl\src\lv_objx/lv_gauge.h **** 
 123:..\..\..\lvgl\version_6.1.2\lvgl\src\lv_objx/lv_gauge.h **** /**
 124:..\..\..\lvgl\version_6.1.2\lvgl\src\lv_objx/lv_gauge.h ****  * Set the styles of a gauge
 125:..\..\..\lvgl\version_6.1.2\lvgl\src\lv_objx/lv_gauge.h ****  * @param gauge pointer to a gauge object
 126:..\..\..\lvgl\version_6.1.2\lvgl\src\lv_objx/lv_gauge.h ****  * @param type which style should be set (can be only `LV_GAUGE_STYLE_MAIN`)
 127:..\..\..\lvgl\version_6.1.2\lvgl\src\lv_objx/lv_gauge.h ****  * @param style set the style of the gauge
ARM GAS  C:\Users\pearlstl\AppData\Local\Temp\cccjDn63.s 			page 13


 128:..\..\..\lvgl\version_6.1.2\lvgl\src\lv_objx/lv_gauge.h ****  *  */
 129:..\..\..\lvgl\version_6.1.2\lvgl\src\lv_objx/lv_gauge.h **** static inline void lv_gauge_set_style(lv_obj_t * gauge, lv_gauge_style_t type, lv_style_t * style)
 130:..\..\..\lvgl\version_6.1.2\lvgl\src\lv_objx/lv_gauge.h **** {
 131:..\..\..\lvgl\version_6.1.2\lvgl\src\lv_objx/lv_gauge.h ****     (void)type; /*Unused*/
 132:..\..\..\lvgl\version_6.1.2\lvgl\src\lv_objx/lv_gauge.h ****     lv_obj_set_style(gauge, style);
 133:..\..\..\lvgl\version_6.1.2\lvgl\src\lv_objx/lv_gauge.h **** }
 134:..\..\..\lvgl\version_6.1.2\lvgl\src\lv_objx/lv_gauge.h **** 
 135:..\..\..\lvgl\version_6.1.2\lvgl\src\lv_objx/lv_gauge.h **** /*=====================
 136:..\..\..\lvgl\version_6.1.2\lvgl\src\lv_objx/lv_gauge.h ****  * Getter functions
 137:..\..\..\lvgl\version_6.1.2\lvgl\src\lv_objx/lv_gauge.h ****  *====================*/
 138:..\..\..\lvgl\version_6.1.2\lvgl\src\lv_objx/lv_gauge.h **** 
 139:..\..\..\lvgl\version_6.1.2\lvgl\src\lv_objx/lv_gauge.h **** /**
 140:..\..\..\lvgl\version_6.1.2\lvgl\src\lv_objx/lv_gauge.h ****  * Get the value of a needle
 141:..\..\..\lvgl\version_6.1.2\lvgl\src\lv_objx/lv_gauge.h ****  * @param gauge pointer to gauge object
 142:..\..\..\lvgl\version_6.1.2\lvgl\src\lv_objx/lv_gauge.h ****  * @param needle the id of the needle
 143:..\..\..\lvgl\version_6.1.2\lvgl\src\lv_objx/lv_gauge.h ****  * @return the value of the needle [min,max]
 144:..\..\..\lvgl\version_6.1.2\lvgl\src\lv_objx/lv_gauge.h ****  */
 145:..\..\..\lvgl\version_6.1.2\lvgl\src\lv_objx/lv_gauge.h **** int16_t lv_gauge_get_value(const lv_obj_t * gauge, uint8_t needle);
 146:..\..\..\lvgl\version_6.1.2\lvgl\src\lv_objx/lv_gauge.h **** 
 147:..\..\..\lvgl\version_6.1.2\lvgl\src\lv_objx/lv_gauge.h **** /**
 148:..\..\..\lvgl\version_6.1.2\lvgl\src\lv_objx/lv_gauge.h ****  * Get the count of needles on a gauge
 149:..\..\..\lvgl\version_6.1.2\lvgl\src\lv_objx/lv_gauge.h ****  * @param gauge pointer to gauge
 150:..\..\..\lvgl\version_6.1.2\lvgl\src\lv_objx/lv_gauge.h ****  * @return count of needles
 151:..\..\..\lvgl\version_6.1.2\lvgl\src\lv_objx/lv_gauge.h ****  */
 152:..\..\..\lvgl\version_6.1.2\lvgl\src\lv_objx/lv_gauge.h **** uint8_t lv_gauge_get_needle_count(const lv_obj_t * gauge);
 153:..\..\..\lvgl\version_6.1.2\lvgl\src\lv_objx/lv_gauge.h **** 
 154:..\..\..\lvgl\version_6.1.2\lvgl\src\lv_objx/lv_gauge.h **** /**
 155:..\..\..\lvgl\version_6.1.2\lvgl\src\lv_objx/lv_gauge.h ****  * Get the minimum value of a gauge
 156:..\..\..\lvgl\version_6.1.2\lvgl\src\lv_objx/lv_gauge.h ****  * @param gauge pointer to a gauge object
 157:..\..\..\lvgl\version_6.1.2\lvgl\src\lv_objx/lv_gauge.h ****  * @return the minimum value of the gauge
 158:..\..\..\lvgl\version_6.1.2\lvgl\src\lv_objx/lv_gauge.h ****  */
 159:..\..\..\lvgl\version_6.1.2\lvgl\src\lv_objx/lv_gauge.h **** static inline int16_t lv_gauge_get_min_value(const lv_obj_t * lmeter)
 160:..\..\..\lvgl\version_6.1.2\lvgl\src\lv_objx/lv_gauge.h **** {
 161:..\..\..\lvgl\version_6.1.2\lvgl\src\lv_objx/lv_gauge.h ****     return lv_lmeter_get_min_value(lmeter);
 188              		.loc 2 161 0
 189 00b4 3846     		mov	r0, r7
 190              	.LBE56:
 191              	.LBE55:
 361:..\..\..\lvgl\version_6.1.2\lvgl\src\lv_objx/lv_gauge.c ****     uint16_t label_num       = ext->label_count;
 192              		.loc 1 361 0
 193 00b6 1FFA89F3 		uxth	r3, r9
 194 00ba 1D46     		mov	r5, r3
 195 00bc 0F93     		str	r3, [sp, #60]
 196              	.LBB58:
 197              	.LBB57:
 198              		.loc 2 161 0
 199 00be FFF7FEFF 		bl	lv_lmeter_get_min_value
 200              	.LVL24:
 201 00c2 0446     		mov	r4, r0
 202              	.LVL25:
 203              	.LBE57:
 204              	.LBE58:
 205              	.LBB59:
 206              	.LBB60:
 162:..\..\..\lvgl\version_6.1.2\lvgl\src\lv_objx/lv_gauge.h **** }
 163:..\..\..\lvgl\version_6.1.2\lvgl\src\lv_objx/lv_gauge.h **** 
 164:..\..\..\lvgl\version_6.1.2\lvgl\src\lv_objx/lv_gauge.h **** /**
ARM GAS  C:\Users\pearlstl\AppData\Local\Temp\cccjDn63.s 			page 14


 165:..\..\..\lvgl\version_6.1.2\lvgl\src\lv_objx/lv_gauge.h ****  * Get the maximum value of a gauge
 166:..\..\..\lvgl\version_6.1.2\lvgl\src\lv_objx/lv_gauge.h ****  * @param gauge pointer to a gauge object
 167:..\..\..\lvgl\version_6.1.2\lvgl\src\lv_objx/lv_gauge.h ****  * @return the maximum value of the gauge
 168:..\..\..\lvgl\version_6.1.2\lvgl\src\lv_objx/lv_gauge.h ****  */
 169:..\..\..\lvgl\version_6.1.2\lvgl\src\lv_objx/lv_gauge.h **** static inline int16_t lv_gauge_get_max_value(const lv_obj_t * lmeter)
 170:..\..\..\lvgl\version_6.1.2\lvgl\src\lv_objx/lv_gauge.h **** {
 171:..\..\..\lvgl\version_6.1.2\lvgl\src\lv_objx/lv_gauge.h ****     return lv_lmeter_get_max_value(lmeter);
 207              		.loc 2 171 0
 208 00c4 3846     		mov	r0, r7
 209              	.LBE60:
 210              	.LBE59:
 357:..\..\..\lvgl\version_6.1.2\lvgl\src\lv_objx/lv_gauge.c ****     lv_coord_t x_ofs         = lv_obj_get_width(gauge) / 2 + gauge->coords.x1;
 211              		.loc 1 357 0
 212 00c6 0FFA8BFB 		sxth	fp, fp
 213              	.LVL26:
 214              	.LBB62:
 215              	.LBB61:
 216              		.loc 2 171 0
 217 00ca FFF7FEFF 		bl	lv_lmeter_get_max_value
 218              	.LVL27:
 219              	.LBE61:
 220              	.LBE62:
 363:..\..\..\lvgl\version_6.1.2\lvgl\src\lv_objx/lv_gauge.c ****     int16_t min              = lv_gauge_get_min_value(gauge);
 364:..\..\..\lvgl\version_6.1.2\lvgl\src\lv_objx/lv_gauge.c ****     int16_t max              = lv_gauge_get_max_value(gauge);
 365:..\..\..\lvgl\version_6.1.2\lvgl\src\lv_objx/lv_gauge.c **** 
 366:..\..\..\lvgl\version_6.1.2\lvgl\src\lv_objx/lv_gauge.c ****     uint8_t i;
 367:..\..\..\lvgl\version_6.1.2\lvgl\src\lv_objx/lv_gauge.c ****     for(i = 0; i < label_num; i++) {
 221              		.loc 1 367 0
 222 00ce 002D     		cmp	r5, #0
 223 00d0 00F0C781 		beq	.L26
 224              	.LVL28:
 225 00d4 031B     		subs	r3, r0, r4
 226 00d6 1193     		str	r3, [sp, #68]
 227 00d8 A3B2     		uxth	r3, r4
 228 00da 1293     		str	r3, [sp, #72]
 229 00dc 1CAB     		add	r3, sp, #112
 230 00de 0893     		str	r3, [sp, #32]
 231 00e0 30AB     		add	r3, sp, #192
 232 00e2 0A93     		str	r3, [sp, #40]
 233              	.LBB63:
 368:..\..\..\lvgl\version_6.1.2\lvgl\src\lv_objx/lv_gauge.c ****         /*Calculate the position a scale label*/
 369:..\..\..\lvgl\version_6.1.2\lvgl\src\lv_objx/lv_gauge.c ****         int16_t angle = (i * scale_angle) / (label_num - 1) + angle_ofs;
 370:..\..\..\lvgl\version_6.1.2\lvgl\src\lv_objx/lv_gauge.c **** 
 371:..\..\..\lvgl\version_6.1.2\lvgl\src\lv_objx/lv_gauge.c ****         lv_coord_t y = (int32_t)((int32_t)lv_trigo_sin(angle) * r) / LV_TRIGO_SIN_MAX;
 372:..\..\..\lvgl\version_6.1.2\lvgl\src\lv_objx/lv_gauge.c ****         y += y_ofs;
 373:..\..\..\lvgl\version_6.1.2\lvgl\src\lv_objx/lv_gauge.c **** 
 374:..\..\..\lvgl\version_6.1.2\lvgl\src\lv_objx/lv_gauge.c ****         lv_coord_t x = (int32_t)((int32_t)lv_trigo_sin(angle + 90) * r) / LV_TRIGO_SIN_MAX;
 375:..\..\..\lvgl\version_6.1.2\lvgl\src\lv_objx/lv_gauge.c ****         x += x_ofs;
 376:..\..\..\lvgl\version_6.1.2\lvgl\src\lv_objx/lv_gauge.c **** 
 377:..\..\..\lvgl\version_6.1.2\lvgl\src\lv_objx/lv_gauge.c ****         int16_t scale_act = (int32_t)((int32_t)(max - min) * i) / (label_num - 1);
 378:..\..\..\lvgl\version_6.1.2\lvgl\src\lv_objx/lv_gauge.c ****         scale_act += min;
 379:..\..\..\lvgl\version_6.1.2\lvgl\src\lv_objx/lv_gauge.c ****         lv_utils_num_to_str(scale_act, scale_txt);
 380:..\..\..\lvgl\version_6.1.2\lvgl\src\lv_objx/lv_gauge.c **** 
 381:..\..\..\lvgl\version_6.1.2\lvgl\src\lv_objx/lv_gauge.c ****         lv_area_t label_cord;
 382:..\..\..\lvgl\version_6.1.2\lvgl\src\lv_objx/lv_gauge.c ****         lv_point_t label_size;
 383:..\..\..\lvgl\version_6.1.2\lvgl\src\lv_objx/lv_gauge.c ****         lv_txt_get_size(&label_size, scale_txt, style->text.font, style->text.letter_space, style->
 384:..\..\..\lvgl\version_6.1.2\lvgl\src\lv_objx/lv_gauge.c ****                         LV_COORD_MAX, LV_TXT_FLAG_NONE);
ARM GAS  C:\Users\pearlstl\AppData\Local\Temp\cccjDn63.s 			page 15


 385:..\..\..\lvgl\version_6.1.2\lvgl\src\lv_objx/lv_gauge.c **** 
 386:..\..\..\lvgl\version_6.1.2\lvgl\src\lv_objx/lv_gauge.c ****         /*Draw the label*/
 387:..\..\..\lvgl\version_6.1.2\lvgl\src\lv_objx/lv_gauge.c ****         label_cord.x1 = x - label_size.x / 2;
 234              		.loc 1 387 0
 235 00e4 DFF894A3 		ldr	r10, .L27+12
 383:..\..\..\lvgl\version_6.1.2\lvgl\src\lv_objx/lv_gauge.c ****                         LV_COORD_MAX, LV_TXT_FLAG_NONE);
 236              		.loc 1 383 0
 237 00e8 CDF84CB0 		str	fp, [sp, #76]
 238 00ec 44AB     		add	r3, sp, #272
 239 00ee 09F1FF39 		add	r9, r9, #-1
 240 00f2 3746     		mov	r7, r6
 241              	.LVL29:
 242 00f4 1793     		str	r3, [sp, #92]
 243 00f6 9B46     		mov	fp, r3
 244              	.LVL30:
 245              	.L7:
 369:..\..\..\lvgl\version_6.1.2\lvgl\src\lv_objx/lv_gauge.c **** 
 246              		.loc 1 369 0
 247 00f8 BDF83830 		ldrh	r3, [sp, #56]
 248 00fc 16FB03F5 		smulbb	r5, r6, r3
 249 0100 109B     		ldr	r3, [sp, #64]
 250 0102 95FBF9F5 		sdiv	r5, r5, r9
 251 0106 1D44     		add	r5, r5, r3
 252 0108 ADB2     		uxth	r5, r5
 253              	.LVL31:
 371:..\..\..\lvgl\version_6.1.2\lvgl\src\lv_objx/lv_gauge.c ****         y += y_ofs;
 254              		.loc 1 371 0
 255 010a 28B2     		sxth	r0, r5
 256 010c FFF7FEFF 		bl	lv_trigo_sin
 257              	.LVL32:
 258 0110 0446     		mov	r4, r0
 259              	.LVL33:
 374:..\..\..\lvgl\version_6.1.2\lvgl\src\lv_objx/lv_gauge.c ****         x += x_ofs;
 260              		.loc 1 374 0
 261 0112 05F15A00 		add	r0, r5, #90
 262 0116 00B2     		sxth	r0, r0
 263 0118 FFF7FEFF 		bl	lv_trigo_sin
 264              	.LVL34:
 379:..\..\..\lvgl\version_6.1.2\lvgl\src\lv_objx/lv_gauge.c **** 
 265              		.loc 1 379 0
 266 011c 119B     		ldr	r3, [sp, #68]
 374:..\..\..\lvgl\version_6.1.2\lvgl\src\lv_objx/lv_gauge.c ****         x += x_ofs;
 267              		.loc 1 374 0
 268 011e 0546     		mov	r5, r0
 269              	.LVL35:
 379:..\..\..\lvgl\version_6.1.2\lvgl\src\lv_objx/lv_gauge.c **** 
 270              		.loc 1 379 0
 271 0120 03FB06F0 		mul	r0, r3, r6
 272 0124 129B     		ldr	r3, [sp, #72]
 273              	.LVL36:
 274 0126 90FBF9F0 		sdiv	r0, r0, r9
 275 012a 1844     		add	r0, r0, r3
 276 012c 5946     		mov	r1, fp
 277 012e 00B2     		sxth	r0, r0
 278 0130 FFF7FEFF 		bl	lv_utils_num_to_str
 279              	.LVL37:
 383:..\..\..\lvgl\version_6.1.2\lvgl\src\lv_objx/lv_gauge.c ****                         LV_COORD_MAX, LV_TXT_FLAG_NONE);
ARM GAS  C:\Users\pearlstl\AppData\Local\Temp\cccjDn63.s 			page 16


 280              		.loc 1 383 0
 281 0134 47F61841 		movw	r1, #31768
 282 0138 B8F93830 		ldrsh	r3, [r8, #56]
 283 013c D8F83420 		ldr	r2, [r8, #52]
 284 0140 0297     		str	r7, [sp, #8]
 285 0142 0191     		str	r1, [sp, #4]
 286 0144 B8F93A10 		ldrsh	r1, [r8, #58]
 287 0148 0091     		str	r1, [sp]
 288 014a 0898     		ldr	r0, [sp, #32]
 289 014c 5946     		mov	r1, fp
 290 014e FFF7FEFF 		bl	lv_txt_get_size
 291              	.LVL38:
 292              		.loc 1 387 0
 293 0152 139B     		ldr	r3, [sp, #76]
 294 0154 BDF97000 		ldrsh	r0, [sp, #112]
 388:..\..\..\lvgl\version_6.1.2\lvgl\src\lv_objx/lv_gauge.c ****         label_cord.y1 = y - label_size.y / 2;
 295              		.loc 1 388 0
 296 0158 BDF97210 		ldrsh	r1, [sp, #114]
 387:..\..\..\lvgl\version_6.1.2\lvgl\src\lv_objx/lv_gauge.c ****         label_cord.y1 = y - label_size.y / 2;
 297              		.loc 1 387 0
 298 015c 05FB03F5 		mul	r5, r5, r3
 299              	.LVL39:
 300              		.loc 1 388 0
 301 0160 04FB03F4 		mul	r4, r4, r3
 302              	.LVL40:
 303 0164 8AFB043E 		smull	r3, lr, r10, r4
 387:..\..\..\lvgl\version_6.1.2\lvgl\src\lv_objx/lv_gauge.c ****         label_cord.y1 = y - label_size.y / 2;
 304              		.loc 1 387 0
 305 0168 8AFB053C 		smull	r3, ip, r10, r5
 306 016c 0B9B     		ldr	r3, [sp, #44]
 307 016e 00EBD072 		add	r2, r0, r0, lsr #31
 308 0172 AC44     		add	ip, ip, r5
 309 0174 A3EB6202 		sub	r2, r3, r2, asr #1
 310 0178 ED17     		asrs	r5, r5, #31
 311              		.loc 1 388 0
 312 017a 0D9B     		ldr	r3, [sp, #52]
 313 017c A644     		add	lr, lr, r4
 387:..\..\..\lvgl\version_6.1.2\lvgl\src\lv_objx/lv_gauge.c ****         label_cord.y1 = y - label_size.y / 2;
 314              		.loc 1 387 0
 315 017e C5EBAC35 		rsb	r5, r5, ip, asr #14
 316              		.loc 1 388 0
 317 0182 E417     		asrs	r4, r4, #31
 318 0184 01EBD17C 		add	ip, r1, r1, lsr #31
 319 0188 A3EB6C03 		sub	r3, r3, ip, asr #1
 320 018c C4EBAE34 		rsb	r4, r4, lr, asr #14
 321 0190 1C44     		add	r4, r4, r3
 387:..\..\..\lvgl\version_6.1.2\lvgl\src\lv_objx/lv_gauge.c ****         label_cord.y1 = y - label_size.y / 2;
 322              		.loc 1 387 0
 323 0192 2A44     		add	r2, r2, r5
 324 0194 92B2     		uxth	r2, r2
 325              		.loc 1 388 0
 326 0196 A4B2     		uxth	r4, r4
 389:..\..\..\lvgl\version_6.1.2\lvgl\src\lv_objx/lv_gauge.c ****         label_cord.x2 = label_cord.x1 + label_size.x;
 327              		.loc 1 389 0
 328 0198 1318     		adds	r3, r2, r0
 390:..\..\..\lvgl\version_6.1.2\lvgl\src\lv_objx/lv_gauge.c ****         label_cord.y2 = label_cord.y1 + label_size.y;
 329              		.loc 1 390 0
ARM GAS  C:\Users\pearlstl\AppData\Local\Temp\cccjDn63.s 			page 17


 330 019a 2144     		add	r1, r1, r4
 391:..\..\..\lvgl\version_6.1.2\lvgl\src\lv_objx/lv_gauge.c **** 
 392:..\..\..\lvgl\version_6.1.2\lvgl\src\lv_objx/lv_gauge.c ****         lv_draw_label(&label_cord, mask, style, opa_scale, scale_txt, LV_TXT_FLAG_NONE, NULL, NULL,
 331              		.loc 1 392 0
 332 019c 0C98     		ldr	r0, [sp, #48]
 389:..\..\..\lvgl\version_6.1.2\lvgl\src\lv_objx/lv_gauge.c ****         label_cord.y2 = label_cord.y1 + label_size.y;
 333              		.loc 1 389 0
 334 019e ADF8C430 		strh	r3, [sp, #196]	@ movhi
 387:..\..\..\lvgl\version_6.1.2\lvgl\src\lv_objx/lv_gauge.c ****         label_cord.y1 = y - label_size.y / 2;
 335              		.loc 1 387 0
 336 01a2 ADF8C020 		strh	r2, [sp, #192]	@ movhi
 390:..\..\..\lvgl\version_6.1.2\lvgl\src\lv_objx/lv_gauge.c **** 
 337              		.loc 1 390 0
 338 01a6 ADF8C610 		strh	r1, [sp, #198]	@ movhi
 388:..\..\..\lvgl\version_6.1.2\lvgl\src\lv_objx/lv_gauge.c ****         label_cord.x2 = label_cord.x1 + label_size.x;
 339              		.loc 1 388 0
 340 01aa ADF8C240 		strh	r4, [sp, #194]	@ movhi
 341              		.loc 1 392 0
 342 01ae FFF7FEFF 		bl	lv_obj_get_base_dir
 343              	.LVL41:
 344 01b2 099B     		ldr	r3, [sp, #36]
 345 01b4 0590     		str	r0, [sp, #20]
 346 01b6 0497     		str	r7, [sp, #16]
 347 01b8 0397     		str	r7, [sp, #12]
 348 01ba 0297     		str	r7, [sp, #8]
 349 01bc 0197     		str	r7, [sp, #4]
 350 01be CDF800B0 		str	fp, [sp]
 351 01c2 4246     		mov	r2, r8
 352 01c4 0799     		ldr	r1, [sp, #28]
 353 01c6 0A98     		ldr	r0, [sp, #40]
 354 01c8 FFF7FEFF 		bl	lv_draw_label
 355              	.LVL42:
 356              	.LBE63:
 367:..\..\..\lvgl\version_6.1.2\lvgl\src\lv_objx/lv_gauge.c ****         /*Calculate the position a scale label*/
 357              		.loc 1 367 0
 358 01cc 0136     		adds	r6, r6, #1
 359              	.LVL43:
 360 01ce 0F9B     		ldr	r3, [sp, #60]
 361 01d0 F6B2     		uxtb	r6, r6
 362              	.LVL44:
 363 01d2 B342     		cmp	r3, r6
 364 01d4 90D8     		bhi	.L7
 365              	.LVL45:
 366              	.L8:
 367              	.LBE54:
 368              	.LBE53:
 294:..\..\..\lvgl\version_6.1.2\lvgl\src\lv_objx/lv_gauge.c **** 
 369              		.loc 1 294 0
 370 01d6 DDF83080 		ldr	r8, [sp, #48]
 371 01da A54C     		ldr	r4, .L27
 372 01dc DDF81C90 		ldr	r9, [sp, #28]
 293:..\..\..\lvgl\version_6.1.2\lvgl\src\lv_objx/lv_gauge.c ****         ancestor_design(gauge, mask, mode); /*To draw lines*/
 373              		.loc 1 293 0
 374 01e0 169E     		ldr	r6, [sp, #88]
 294:..\..\..\lvgl\version_6.1.2\lvgl\src\lv_objx/lv_gauge.c **** 
 375              		.loc 1 294 0
 376 01e2 2368     		ldr	r3, [r4]
ARM GAS  C:\Users\pearlstl\AppData\Local\Temp\cccjDn63.s 			page 18


 293:..\..\..\lvgl\version_6.1.2\lvgl\src\lv_objx/lv_gauge.c ****         ancestor_design(gauge, mask, mode); /*To draw lines*/
 377              		.loc 1 293 0
 378 01e4 B588     		ldrh	r5, [r6, #4]
 379              	.LVL46:
 294:..\..\..\lvgl\version_6.1.2\lvgl\src\lv_objx/lv_gauge.c **** 
 380              		.loc 1 294 0
 381 01e6 0022     		movs	r2, #0
 382 01e8 4946     		mov	r1, r9
 383 01ea 4046     		mov	r0, r8
 384 01ec 9847     		blx	r3
 385              	.LVL47:
 298:..\..\..\lvgl\version_6.1.2\lvgl\src\lv_objx/lv_gauge.c ****         ext->lmeter.line_cnt         = ext->label_count;                 /*Only to labels*/
 386              		.loc 1 298 0
 387 01ee 089F     		ldr	r7, [sp, #32]
 388 01f0 1599     		ldr	r1, [sp, #84]
 389 01f2 3846     		mov	r0, r7
 390 01f4 FFF7FEFF 		bl	lv_style_copy
 391              	.LVL48:
 300:..\..\..\lvgl\version_6.1.2\lvgl\src\lv_objx/lv_gauge.c ****         style_tmp.body.padding.right = style_tmp.body.padding.right * 2; /*Longer lines*/
 392              		.loc 1 300 0
 393 01f8 BDF89410 		ldrh	r1, [sp, #148]
 301:..\..\..\lvgl\version_6.1.2\lvgl\src\lv_objx/lv_gauge.c ****         gauge->style_p               = &style_tmp;
 394              		.loc 1 301 0
 395 01fc BDF89620 		ldrh	r2, [sp, #150]
 299:..\..\..\lvgl\version_6.1.2\lvgl\src\lv_objx/lv_gauge.c ****         style_tmp.body.padding.left  = style_tmp.body.padding.left * 2;  /*Longer lines*/
 396              		.loc 1 299 0
 397 0200 707D     		ldrb	r0, [r6, #21]	@ zero_extendqisi2
 304:..\..\..\lvgl\version_6.1.2\lvgl\src\lv_objx/lv_gauge.c **** 
 398              		.loc 1 304 0
 399 0202 2368     		ldr	r3, [r4]
 299:..\..\..\lvgl\version_6.1.2\lvgl\src\lv_objx/lv_gauge.c ****         style_tmp.body.padding.left  = style_tmp.body.padding.left * 2;  /*Longer lines*/
 400              		.loc 1 299 0
 401 0204 B080     		strh	r0, [r6, #4]	@ movhi
 300:..\..\..\lvgl\version_6.1.2\lvgl\src\lv_objx/lv_gauge.c ****         style_tmp.body.padding.right = style_tmp.body.padding.right * 2; /*Longer lines*/
 402              		.loc 1 300 0
 403 0206 4900     		lsls	r1, r1, #1
 301:..\..\..\lvgl\version_6.1.2\lvgl\src\lv_objx/lv_gauge.c ****         gauge->style_p               = &style_tmp;
 404              		.loc 1 301 0
 405 0208 5200     		lsls	r2, r2, #1
 302:..\..\..\lvgl\version_6.1.2\lvgl\src\lv_objx/lv_gauge.c **** 
 406              		.loc 1 302 0
 407 020a C8F82870 		str	r7, [r8, #40]
 300:..\..\..\lvgl\version_6.1.2\lvgl\src\lv_objx/lv_gauge.c ****         style_tmp.body.padding.right = style_tmp.body.padding.right * 2; /*Longer lines*/
 408              		.loc 1 300 0
 409 020e ADF89410 		strh	r1, [sp, #148]	@ movhi
 302:..\..\..\lvgl\version_6.1.2\lvgl\src\lv_objx/lv_gauge.c **** 
 410              		.loc 1 302 0
 411 0212 4046     		mov	r0, r8
 304:..\..\..\lvgl\version_6.1.2\lvgl\src\lv_objx/lv_gauge.c **** 
 412              		.loc 1 304 0
 413 0214 4946     		mov	r1, r9
 301:..\..\..\lvgl\version_6.1.2\lvgl\src\lv_objx/lv_gauge.c ****         gauge->style_p               = &style_tmp;
 414              		.loc 1 301 0
 415 0216 ADF89620 		strh	r2, [sp, #150]	@ movhi
 304:..\..\..\lvgl\version_6.1.2\lvgl\src\lv_objx/lv_gauge.c **** 
 416              		.loc 1 304 0
 417 021a 0022     		movs	r2, #0
ARM GAS  C:\Users\pearlstl\AppData\Local\Temp\cccjDn63.s 			page 19


 418 021c 9847     		blx	r3
 419              	.LVL49:
 307:..\..\..\lvgl\version_6.1.2\lvgl\src\lv_objx/lv_gauge.c **** 
 420              		.loc 1 307 0
 421 021e 149A     		ldr	r2, [sp, #80]
 306:..\..\..\lvgl\version_6.1.2\lvgl\src\lv_objx/lv_gauge.c ****         gauge->style_p       = style_ori_p;  /*Restore the ORIGINAL style pointer*/
 422              		.loc 1 306 0
 423 0220 B580     		strh	r5, [r6, #4]	@ movhi
 424              	.LBB64:
 425              	.LBB65:
 393:..\..\..\lvgl\version_6.1.2\lvgl\src\lv_objx/lv_gauge.c ****     }
 394:..\..\..\lvgl\version_6.1.2\lvgl\src\lv_objx/lv_gauge.c **** }
 395:..\..\..\lvgl\version_6.1.2\lvgl\src\lv_objx/lv_gauge.c **** /**
 396:..\..\..\lvgl\version_6.1.2\lvgl\src\lv_objx/lv_gauge.c ****  * Draw the needles of a gauge
 397:..\..\..\lvgl\version_6.1.2\lvgl\src\lv_objx/lv_gauge.c ****  * @param gauge pointer to gauge object
 398:..\..\..\lvgl\version_6.1.2\lvgl\src\lv_objx/lv_gauge.c ****  * @param mask mask of drawing
 399:..\..\..\lvgl\version_6.1.2\lvgl\src\lv_objx/lv_gauge.c ****  */
 400:..\..\..\lvgl\version_6.1.2\lvgl\src\lv_objx/lv_gauge.c **** static void lv_gauge_draw_needle(lv_obj_t * gauge, const lv_area_t * mask)
 401:..\..\..\lvgl\version_6.1.2\lvgl\src\lv_objx/lv_gauge.c **** {
 402:..\..\..\lvgl\version_6.1.2\lvgl\src\lv_objx/lv_gauge.c ****     lv_style_t style_needle;
 403:..\..\..\lvgl\version_6.1.2\lvgl\src\lv_objx/lv_gauge.c ****     lv_gauge_ext_t * ext     = lv_obj_get_ext_attr(gauge);
 426              		.loc 1 403 0
 427 0222 4046     		mov	r0, r8
 428              	.LBE65:
 429              	.LBE64:
 307:..\..\..\lvgl\version_6.1.2\lvgl\src\lv_objx/lv_gauge.c **** 
 430              		.loc 1 307 0
 431 0224 C8F82820 		str	r2, [r8, #40]
 432              	.LBB82:
 433              	.LBB79:
 434              		.loc 1 403 0
 435 0228 FFF7FEFF 		bl	lv_obj_get_ext_attr
 436              	.LVL50:
 437              	.LBE79:
 438              	.LBE82:
 304:..\..\..\lvgl\version_6.1.2\lvgl\src\lv_objx/lv_gauge.c **** 
 439              		.loc 1 304 0
 440 022c 4746     		mov	r7, r8
 441              	.LBB83:
 442              	.LBB80:
 443              		.loc 1 403 0
 444 022e 8246     		mov	r10, r0
 445              	.LBB66:
 446              	.LBB67:
 172:..\..\..\lvgl\version_6.1.2\lvgl\src\lv_objx/lv_gauge.h **** }
 173:..\..\..\lvgl\version_6.1.2\lvgl\src\lv_objx/lv_gauge.h **** 
 174:..\..\..\lvgl\version_6.1.2\lvgl\src\lv_objx/lv_gauge.h **** /**
 175:..\..\..\lvgl\version_6.1.2\lvgl\src\lv_objx/lv_gauge.h ****  * Get a critical value on the scale.
 176:..\..\..\lvgl\version_6.1.2\lvgl\src\lv_objx/lv_gauge.h ****  * @param gauge pointer to a gauge object
 177:..\..\..\lvgl\version_6.1.2\lvgl\src\lv_objx/lv_gauge.h ****  * @return the critical value
 178:..\..\..\lvgl\version_6.1.2\lvgl\src\lv_objx/lv_gauge.h ****  */
 179:..\..\..\lvgl\version_6.1.2\lvgl\src\lv_objx/lv_gauge.h **** static inline int16_t lv_gauge_get_critical_value(const lv_obj_t * gauge)
 180:..\..\..\lvgl\version_6.1.2\lvgl\src\lv_objx/lv_gauge.h **** {
 181:..\..\..\lvgl\version_6.1.2\lvgl\src\lv_objx/lv_gauge.h ****     return lv_lmeter_get_value(gauge);
 182:..\..\..\lvgl\version_6.1.2\lvgl\src\lv_objx/lv_gauge.h **** }
 183:..\..\..\lvgl\version_6.1.2\lvgl\src\lv_objx/lv_gauge.h **** 
 184:..\..\..\lvgl\version_6.1.2\lvgl\src\lv_objx/lv_gauge.h **** /**
ARM GAS  C:\Users\pearlstl\AppData\Local\Temp\cccjDn63.s 			page 20


 185:..\..\..\lvgl\version_6.1.2\lvgl\src\lv_objx/lv_gauge.h ****  * Set the number of labels (and the thicker lines too)
 186:..\..\..\lvgl\version_6.1.2\lvgl\src\lv_objx/lv_gauge.h ****  * @param gauge pointer to a gauge object
 187:..\..\..\lvgl\version_6.1.2\lvgl\src\lv_objx/lv_gauge.h ****  * @return count of labels
 188:..\..\..\lvgl\version_6.1.2\lvgl\src\lv_objx/lv_gauge.h ****  */
 189:..\..\..\lvgl\version_6.1.2\lvgl\src\lv_objx/lv_gauge.h **** uint8_t lv_gauge_get_label_count(const lv_obj_t * gauge);
 190:..\..\..\lvgl\version_6.1.2\lvgl\src\lv_objx/lv_gauge.h **** 
 191:..\..\..\lvgl\version_6.1.2\lvgl\src\lv_objx/lv_gauge.h **** /**
 192:..\..\..\lvgl\version_6.1.2\lvgl\src\lv_objx/lv_gauge.h ****  * Get the scale number of a gauge
 193:..\..\..\lvgl\version_6.1.2\lvgl\src\lv_objx/lv_gauge.h ****  * @param gauge pointer to a gauge object
 194:..\..\..\lvgl\version_6.1.2\lvgl\src\lv_objx/lv_gauge.h ****  * @return number of the scale units
 195:..\..\..\lvgl\version_6.1.2\lvgl\src\lv_objx/lv_gauge.h ****  */
 196:..\..\..\lvgl\version_6.1.2\lvgl\src\lv_objx/lv_gauge.h **** static inline uint16_t lv_gauge_get_line_count(const lv_obj_t * gauge)
 197:..\..\..\lvgl\version_6.1.2\lvgl\src\lv_objx/lv_gauge.h **** {
 198:..\..\..\lvgl\version_6.1.2\lvgl\src\lv_objx/lv_gauge.h ****     return lv_lmeter_get_line_count(gauge);
 199:..\..\..\lvgl\version_6.1.2\lvgl\src\lv_objx/lv_gauge.h **** }
 200:..\..\..\lvgl\version_6.1.2\lvgl\src\lv_objx/lv_gauge.h **** 
 201:..\..\..\lvgl\version_6.1.2\lvgl\src\lv_objx/lv_gauge.h **** /**
 202:..\..\..\lvgl\version_6.1.2\lvgl\src\lv_objx/lv_gauge.h ****  * Get the scale angle of a gauge
 203:..\..\..\lvgl\version_6.1.2\lvgl\src\lv_objx/lv_gauge.h ****  * @param gauge pointer to a gauge object
 204:..\..\..\lvgl\version_6.1.2\lvgl\src\lv_objx/lv_gauge.h ****  * @return angle of the scale
 205:..\..\..\lvgl\version_6.1.2\lvgl\src\lv_objx/lv_gauge.h ****  */
 206:..\..\..\lvgl\version_6.1.2\lvgl\src\lv_objx/lv_gauge.h **** static inline uint16_t lv_gauge_get_scale_angle(const lv_obj_t * gauge)
 207:..\..\..\lvgl\version_6.1.2\lvgl\src\lv_objx/lv_gauge.h **** {
 208:..\..\..\lvgl\version_6.1.2\lvgl\src\lv_objx/lv_gauge.h ****     return lv_lmeter_get_scale_angle(gauge);
 209:..\..\..\lvgl\version_6.1.2\lvgl\src\lv_objx/lv_gauge.h **** }
 210:..\..\..\lvgl\version_6.1.2\lvgl\src\lv_objx/lv_gauge.h **** 
 211:..\..\..\lvgl\version_6.1.2\lvgl\src\lv_objx/lv_gauge.h **** /**
 212:..\..\..\lvgl\version_6.1.2\lvgl\src\lv_objx/lv_gauge.h ****  * Get the style of a gauge
 213:..\..\..\lvgl\version_6.1.2\lvgl\src\lv_objx/lv_gauge.h ****  * @param gauge pointer to a gauge object
 214:..\..\..\lvgl\version_6.1.2\lvgl\src\lv_objx/lv_gauge.h ****  * @param type which style should be get (can be only `LV_GAUGE_STYLE_MAIN`)
 215:..\..\..\lvgl\version_6.1.2\lvgl\src\lv_objx/lv_gauge.h ****  * @return pointer to the gauge's style
 216:..\..\..\lvgl\version_6.1.2\lvgl\src\lv_objx/lv_gauge.h ****  */
 217:..\..\..\lvgl\version_6.1.2\lvgl\src\lv_objx/lv_gauge.h **** static inline const lv_style_t * lv_gauge_get_style(const lv_obj_t * gauge, lv_gauge_style_t type)
 218:..\..\..\lvgl\version_6.1.2\lvgl\src\lv_objx/lv_gauge.h **** {
 219:..\..\..\lvgl\version_6.1.2\lvgl\src\lv_objx/lv_gauge.h ****     (void)type; /*Unused*/
 220:..\..\..\lvgl\version_6.1.2\lvgl\src\lv_objx/lv_gauge.h ****     return lv_obj_get_style(gauge);
 447              		.loc 2 220 0
 448 0230 3846     		mov	r0, r7
 449 0232 FFF7FEFF 		bl	lv_obj_get_style
 450              	.LVL51:
 451 0236 0546     		mov	r5, r0
 452              	.LVL52:
 453 0238 1290     		str	r0, [sp, #72]
 454              	.LBE67:
 455              	.LBE66:
 404:..\..\..\lvgl\version_6.1.2\lvgl\src\lv_objx/lv_gauge.c ****     const lv_style_t * style = lv_gauge_get_style(gauge, LV_GAUGE_STYLE_MAIN);
 405:..\..\..\lvgl\version_6.1.2\lvgl\src\lv_objx/lv_gauge.c ****     lv_opa_t opa_scale       = lv_obj_get_opa_scale(gauge);
 456              		.loc 1 405 0
 457 023a 3846     		mov	r0, r7
 458 023c FFF7FEFF 		bl	lv_obj_get_opa_scale
 459              	.LVL53:
 460 0240 0E90     		str	r0, [sp, #56]
 406:..\..\..\lvgl\version_6.1.2\lvgl\src\lv_objx/lv_gauge.c **** 
 407:..\..\..\lvgl\version_6.1.2\lvgl\src\lv_objx/lv_gauge.c ****     lv_coord_t r      = lv_obj_get_width(gauge) / 2 - style->body.padding.left;
 461              		.loc 1 407 0
 462 0242 3846     		mov	r0, r7
 463 0244 FFF7FEFF 		bl	lv_obj_get_width
ARM GAS  C:\Users\pearlstl\AppData\Local\Temp\cccjDn63.s 			page 21


 464              	.LVL54:
 465 0248 AB8C     		ldrh	r3, [r5, #36]
 466 024a 00EBD070 		add	r0, r0, r0, lsr #31
 467              	.LBE80:
 468              	.LBE83:
 307:..\..\..\lvgl\version_6.1.2\lvgl\src\lv_objx/lv_gauge.c **** 
 469              		.loc 1 307 0
 470 024e 4446     		mov	r4, r8
 471              	.LVL55:
 472              	.LBB84:
 473              	.LBB81:
 474              		.loc 1 407 0
 475 0250 C3EB6008 		rsb	r8, r3, r0, asr #1
 476              	.LVL56:
 408:..\..\..\lvgl\version_6.1.2\lvgl\src\lv_objx/lv_gauge.c ****     lv_coord_t x_ofs  = lv_obj_get_width(gauge) / 2 + gauge->coords.x1;
 477              		.loc 1 408 0
 478 0254 3846     		mov	r0, r7
 479 0256 FFF7FEFF 		bl	lv_obj_get_width
 480              	.LVL57:
 481 025a 3B8A     		ldrh	r3, [r7, #16]
 482 025c 00EBD070 		add	r0, r0, r0, lsr #31
 483 0260 03EB6003 		add	r3, r3, r0, asr #1
 484 0264 9BB2     		uxth	r3, r3
 409:..\..\..\lvgl\version_6.1.2\lvgl\src\lv_objx/lv_gauge.c ****     lv_coord_t y_ofs  = lv_obj_get_height(gauge) / 2 + gauge->coords.y1;
 485              		.loc 1 409 0
 486 0266 3846     		mov	r0, r7
 408:..\..\..\lvgl\version_6.1.2\lvgl\src\lv_objx/lv_gauge.c ****     lv_coord_t x_ofs  = lv_obj_get_width(gauge) / 2 + gauge->coords.x1;
 487              		.loc 1 408 0
 488 0268 1E46     		mov	r6, r3
 489 026a 0893     		str	r3, [sp, #32]
 490              		.loc 1 409 0
 491 026c FFF7FEFF 		bl	lv_obj_get_height
 492              	.LVL58:
 493 0270 7B8A     		ldrh	r3, [r7, #18]
 494 0272 00EBD070 		add	r0, r0, r0, lsr #31
 495 0276 03EB6003 		add	r3, r3, r0, asr #1
 496 027a 9AB2     		uxth	r2, r3
 410:..\..\..\lvgl\version_6.1.2\lvgl\src\lv_objx/lv_gauge.c ****     uint16_t angle    = lv_lmeter_get_scale_angle(gauge);
 497              		.loc 1 410 0
 498 027c 3846     		mov	r0, r7
 409:..\..\..\lvgl\version_6.1.2\lvgl\src\lv_objx/lv_gauge.c ****     lv_coord_t y_ofs  = lv_obj_get_height(gauge) / 2 + gauge->coords.y1;
 499              		.loc 1 409 0
 500 027e 0992     		str	r2, [sp, #36]
 501 0280 1746     		mov	r7, r2
 502              		.loc 1 410 0
 503 0282 FFF7FEFF 		bl	lv_lmeter_get_scale_angle
 504              	.LVL59:
 411:..\..\..\lvgl\version_6.1.2\lvgl\src\lv_objx/lv_gauge.c ****     int16_t angle_ofs = 90 + (360 - angle) / 2;
 505              		.loc 1 411 0
 506 0286 C0F5B473 		rsb	r3, r0, #360
 507 028a 03EBD373 		add	r3, r3, r3, lsr #31
 508 028e 5B10     		asrs	r3, r3, #1
 509 0290 5A33     		adds	r3, r3, #90
 510 0292 9BB2     		uxth	r3, r3
 410:..\..\..\lvgl\version_6.1.2\lvgl\src\lv_objx/lv_gauge.c ****     uint16_t angle    = lv_lmeter_get_scale_angle(gauge);
 511              		.loc 1 410 0
 512 0294 1090     		str	r0, [sp, #64]
ARM GAS  C:\Users\pearlstl\AppData\Local\Temp\cccjDn63.s 			page 22


 513              	.LBB68:
 514              	.LBB69:
 161:..\..\..\lvgl\version_6.1.2\lvgl\src\lv_objx/lv_gauge.h **** }
 515              		.loc 2 161 0
 516 0296 2046     		mov	r0, r4
 517              	.LBE69:
 518              	.LBE68:
 519              		.loc 1 411 0
 520 0298 0F93     		str	r3, [sp, #60]
 521              	.LBB71:
 522              	.LBB70:
 161:..\..\..\lvgl\version_6.1.2\lvgl\src\lv_objx/lv_gauge.h **** }
 523              		.loc 2 161 0
 524 029a FFF7FEFF 		bl	lv_lmeter_get_min_value
 525              	.LVL60:
 526 029e 0D90     		str	r0, [sp, #52]
 527              	.LBE70:
 528              	.LBE71:
 529              	.LBB72:
 530              	.LBB73:
 171:..\..\..\lvgl\version_6.1.2\lvgl\src\lv_objx/lv_gauge.h **** }
 531              		.loc 2 171 0
 532 02a0 2046     		mov	r0, r4
 533 02a2 FFF7FEFF 		bl	lv_lmeter_get_max_value
 534              	.LVL61:
 535              	.LBE73:
 536              	.LBE72:
 412:..\..\..\lvgl\version_6.1.2\lvgl\src\lv_objx/lv_gauge.c ****     int16_t min       = lv_gauge_get_min_value(gauge);
 413:..\..\..\lvgl\version_6.1.2\lvgl\src\lv_objx/lv_gauge.c ****     int16_t max       = lv_gauge_get_max_value(gauge);
 414:..\..\..\lvgl\version_6.1.2\lvgl\src\lv_objx/lv_gauge.c ****     lv_point_t p_mid;
 415:..\..\..\lvgl\version_6.1.2\lvgl\src\lv_objx/lv_gauge.c ****     lv_point_t p_end;
 416:..\..\..\lvgl\version_6.1.2\lvgl\src\lv_objx/lv_gauge.c ****     lv_point_t p_end_low;
 417:..\..\..\lvgl\version_6.1.2\lvgl\src\lv_objx/lv_gauge.c ****     lv_point_t p_end_high;
 418:..\..\..\lvgl\version_6.1.2\lvgl\src\lv_objx/lv_gauge.c ****     uint8_t i;
 419:..\..\..\lvgl\version_6.1.2\lvgl\src\lv_objx/lv_gauge.c **** 
 420:..\..\..\lvgl\version_6.1.2\lvgl\src\lv_objx/lv_gauge.c ****     lv_style_copy(&style_needle, style);
 537              		.loc 1 420 0
 538 02a6 2946     		mov	r1, r5
 539              	.LBB75:
 540              	.LBB74:
 171:..\..\..\lvgl\version_6.1.2\lvgl\src\lv_objx/lv_gauge.h **** }
 541              		.loc 2 171 0
 542 02a8 0446     		mov	r4, r0
 543              	.LVL62:
 544              	.LBE74:
 545              	.LBE75:
 546              		.loc 1 420 0
 547 02aa 0A98     		ldr	r0, [sp, #40]
 548 02ac FFF7FEFF 		bl	lv_style_copy
 549              	.LVL63:
 421:..\..\..\lvgl\version_6.1.2\lvgl\src\lv_objx/lv_gauge.c **** 
 422:..\..\..\lvgl\version_6.1.2\lvgl\src\lv_objx/lv_gauge.c ****     p_mid.x = x_ofs;
 423:..\..\..\lvgl\version_6.1.2\lvgl\src\lv_objx/lv_gauge.c ****     p_mid.y = y_ofs;
 424:..\..\..\lvgl\version_6.1.2\lvgl\src\lv_objx/lv_gauge.c ****     for(i = 0; i < ext->needle_count; i++) {
 550              		.loc 1 424 0
 551 02b0 9AF81430 		ldrb	r3, [r10, #20]	@ zero_extendqisi2
 422:..\..\..\lvgl\version_6.1.2\lvgl\src\lv_objx/lv_gauge.c ****     p_mid.y = y_ofs;
ARM GAS  C:\Users\pearlstl\AppData\Local\Temp\cccjDn63.s 			page 23


 552              		.loc 1 422 0
 553 02b4 ADF86060 		strh	r6, [sp, #96]	@ movhi
 407:..\..\..\lvgl\version_6.1.2\lvgl\src\lv_objx/lv_gauge.c ****     lv_coord_t x_ofs  = lv_obj_get_width(gauge) / 2 + gauge->coords.x1;
 554              		.loc 1 407 0
 555 02b8 0FFA88F8 		sxth	r8, r8
 556              	.LVL64:
 423:..\..\..\lvgl\version_6.1.2\lvgl\src\lv_objx/lv_gauge.c ****     for(i = 0; i < ext->needle_count; i++) {
 557              		.loc 1 423 0
 558 02bc ADF86270 		strh	r7, [sp, #98]	@ movhi
 559              	.LVL65:
 560              		.loc 1 424 0
 561 02c0 002B     		cmp	r3, #0
 562 02c2 00F09D80 		beq	.L6
 563 02c6 0D9B     		ldr	r3, [sp, #52]
 564              	.LBB76:
 425:..\..\..\lvgl\version_6.1.2\lvgl\src\lv_objx/lv_gauge.c ****         /*Calculate the end point of a needle*/
 426:..\..\..\lvgl\version_6.1.2\lvgl\src\lv_objx/lv_gauge.c ****         int16_t needle_angle =
 427:..\..\..\lvgl\version_6.1.2\lvgl\src\lv_objx/lv_gauge.c ****             (ext->values[i] - min) * angle * (1 << LV_GAUGE_INTERPOLATE_SHIFT) / (max - min);
 428:..\..\..\lvgl\version_6.1.2\lvgl\src\lv_objx/lv_gauge.c **** 
 429:..\..\..\lvgl\version_6.1.2\lvgl\src\lv_objx/lv_gauge.c ****         int16_t needle_angle_low  = (needle_angle >> LV_GAUGE_INTERPOLATE_SHIFT) + angle_ofs;
 430:..\..\..\lvgl\version_6.1.2\lvgl\src\lv_objx/lv_gauge.c ****         int16_t needle_angle_high = needle_angle_low + 1;
 431:..\..\..\lvgl\version_6.1.2\lvgl\src\lv_objx/lv_gauge.c **** 
 432:..\..\..\lvgl\version_6.1.2\lvgl\src\lv_objx/lv_gauge.c ****         p_end_low.y = (lv_trigo_sin(needle_angle_low) * r) / LV_TRIGO_SIN_MAX + y_ofs;
 565              		.loc 1 432 0
 566 02c8 DFF8B091 		ldr	r9, .L27+12
 567 02cc E31A     		subs	r3, r4, r3
 568 02ce 1193     		str	r3, [sp, #68]
 569              	.LBE76:
 424:..\..\..\lvgl\version_6.1.2\lvgl\src\lv_objx/lv_gauge.c ****         /*Calculate the end point of a needle*/
 570              		.loc 1 424 0
 571 02d0 0027     		movs	r7, #0
 572              	.LVL66:
 573 02d2 11E0     		b	.L15
 574              	.LVL67:
 575              	.L13:
 576              	.LBB77:
 433:..\..\..\lvgl\version_6.1.2\lvgl\src\lv_objx/lv_gauge.c ****         p_end_low.x = (lv_trigo_sin(needle_angle_low + 90) * r) / LV_TRIGO_SIN_MAX + x_ofs;
 434:..\..\..\lvgl\version_6.1.2\lvgl\src\lv_objx/lv_gauge.c **** 
 435:..\..\..\lvgl\version_6.1.2\lvgl\src\lv_objx/lv_gauge.c ****         p_end_high.y = (lv_trigo_sin(needle_angle_high) * r) / LV_TRIGO_SIN_MAX + y_ofs;
 436:..\..\..\lvgl\version_6.1.2\lvgl\src\lv_objx/lv_gauge.c ****         p_end_high.x = (lv_trigo_sin(needle_angle_high + 90) * r) / LV_TRIGO_SIN_MAX + x_ofs;
 437:..\..\..\lvgl\version_6.1.2\lvgl\src\lv_objx/lv_gauge.c **** 
 438:..\..\..\lvgl\version_6.1.2\lvgl\src\lv_objx/lv_gauge.c ****         uint16_t rem  = needle_angle & ((1 << LV_GAUGE_INTERPOLATE_SHIFT) - 1);
 439:..\..\..\lvgl\version_6.1.2\lvgl\src\lv_objx/lv_gauge.c ****         int16_t x_mod = ((LV_MATH_ABS(p_end_high.x - p_end_low.x)) * rem) >> LV_GAUGE_INTERPOLATE_S
 440:..\..\..\lvgl\version_6.1.2\lvgl\src\lv_objx/lv_gauge.c ****         int16_t y_mod = ((LV_MATH_ABS(p_end_high.y - p_end_low.y)) * rem) >> LV_GAUGE_INTERPOLATE_S
 441:..\..\..\lvgl\version_6.1.2\lvgl\src\lv_objx/lv_gauge.c **** 
 442:..\..\..\lvgl\version_6.1.2\lvgl\src\lv_objx/lv_gauge.c ****         if(p_end_high.x < p_end_low.x) x_mod = -x_mod;
 443:..\..\..\lvgl\version_6.1.2\lvgl\src\lv_objx/lv_gauge.c ****         if(p_end_high.y < p_end_low.y) y_mod = -y_mod;
 444:..\..\..\lvgl\version_6.1.2\lvgl\src\lv_objx/lv_gauge.c **** 
 445:..\..\..\lvgl\version_6.1.2\lvgl\src\lv_objx/lv_gauge.c ****         p_end.x = p_end_low.x + x_mod;
 446:..\..\..\lvgl\version_6.1.2\lvgl\src\lv_objx/lv_gauge.c ****         p_end.y = p_end_low.y + y_mod;
 447:..\..\..\lvgl\version_6.1.2\lvgl\src\lv_objx/lv_gauge.c **** 
 448:..\..\..\lvgl\version_6.1.2\lvgl\src\lv_objx/lv_gauge.c ****         /*Draw the needle with the corresponding color*/
 449:..\..\..\lvgl\version_6.1.2\lvgl\src\lv_objx/lv_gauge.c ****         if(ext->needle_colors == NULL)
 450:..\..\..\lvgl\version_6.1.2\lvgl\src\lv_objx/lv_gauge.c ****             style_needle.line.color = LV_GAUGE_DEF_NEEDLE_COLOR;
 451:..\..\..\lvgl\version_6.1.2\lvgl\src\lv_objx/lv_gauge.c ****         else
 452:..\..\..\lvgl\version_6.1.2\lvgl\src\lv_objx/lv_gauge.c ****             style_needle.line.color = ext->needle_colors[i];
 577              		.loc 1 452 0
ARM GAS  C:\Users\pearlstl\AppData\Local\Temp\cccjDn63.s 			page 24


 578 02d4 50F82130 		ldr	r3, [r0, r1, lsl #2]
 579 02d8 4293     		str	r3, [sp, #264]
 580              	.L14:
 453:..\..\..\lvgl\version_6.1.2\lvgl\src\lv_objx/lv_gauge.c **** 
 454:..\..\..\lvgl\version_6.1.2\lvgl\src\lv_objx/lv_gauge.c ****         lv_draw_line(&p_mid, &p_end, mask, &style_needle, opa_scale);
 581              		.loc 1 454 0
 582 02da 0E9B     		ldr	r3, [sp, #56]
 583 02dc 0093     		str	r3, [sp]
 584 02de 079A     		ldr	r2, [sp, #28]
 585 02e0 0A9B     		ldr	r3, [sp, #40]
 586 02e2 19A9     		add	r1, sp, #100
 587 02e4 18A8     		add	r0, sp, #96
 588 02e6 FFF7FEFF 		bl	lv_draw_line
 589              	.LVL68:
 590              	.LBE77:
 424:..\..\..\lvgl\version_6.1.2\lvgl\src\lv_objx/lv_gauge.c ****         /*Calculate the end point of a needle*/
 591              		.loc 1 424 0
 592 02ea 0137     		adds	r7, r7, #1
 593              	.LVL69:
 594 02ec 9AF81430 		ldrb	r3, [r10, #20]	@ zero_extendqisi2
 595 02f0 FFB2     		uxtb	r7, r7
 596              	.LVL70:
 597 02f2 BB42     		cmp	r3, r7
 598 02f4 40F28480 		bls	.L6
 599              	.LVL71:
 600              	.L15:
 601              	.LBB78:
 427:..\..\..\lvgl\version_6.1.2\lvgl\src\lv_objx/lv_gauge.c **** 
 602              		.loc 1 427 0
 603 02f8 39B2     		sxth	r1, r7
 604 02fa DAF80C30 		ldr	r3, [r10, #12]
 605 02fe 0B91     		str	r1, [sp, #44]
 606 0300 33F91140 		ldrsh	r4, [r3, r1, lsl #1]
 607 0304 0D9B     		ldr	r3, [sp, #52]
 608 0306 E41A     		subs	r4, r4, r3
 609 0308 109B     		ldr	r3, [sp, #64]
 610 030a 03FB04F4 		mul	r4, r3, r4
 611 030e 6401     		lsls	r4, r4, #5
 612 0310 119B     		ldr	r3, [sp, #68]
 613 0312 94FBF3F4 		sdiv	r4, r4, r3
 614              	.LVL72:
 429:..\..\..\lvgl\version_6.1.2\lvgl\src\lv_objx/lv_gauge.c ****         int16_t needle_angle_high = needle_angle_low + 1;
 615              		.loc 1 429 0
 616 0316 0F9B     		ldr	r3, [sp, #60]
 617 0318 44F34A1B 		sbfx	fp, r4, #5, #11
 618 031c 9B44     		add	fp, fp, r3
 619 031e 1FFA8BFB 		uxth	fp, fp
 620              	.LVL73:
 432:..\..\..\lvgl\version_6.1.2\lvgl\src\lv_objx/lv_gauge.c ****         p_end_low.x = (lv_trigo_sin(needle_angle_low + 90) * r) / LV_TRIGO_SIN_MAX + x_ofs;
 621              		.loc 1 432 0
 622 0322 0FFA8BF0 		sxth	r0, fp
 623 0326 FFF7FEFF 		bl	lv_trigo_sin
 624              	.LVL74:
 625 032a 00FB08F0 		mul	r0, r0, r8
 626 032e 89FB0035 		smull	r3, r5, r9, r0
 627 0332 0544     		add	r5, r5, r0
 628 0334 C017     		asrs	r0, r0, #31
ARM GAS  C:\Users\pearlstl\AppData\Local\Temp\cccjDn63.s 			page 25


 629 0336 099B     		ldr	r3, [sp, #36]
 630 0338 C0EBA535 		rsb	r5, r0, r5, asr #14
 433:..\..\..\lvgl\version_6.1.2\lvgl\src\lv_objx/lv_gauge.c **** 
 631              		.loc 1 433 0
 632 033c 0BF15A00 		add	r0, fp, #90
 633 0340 00B2     		sxth	r0, r0
 432:..\..\..\lvgl\version_6.1.2\lvgl\src\lv_objx/lv_gauge.c ****         p_end_low.x = (lv_trigo_sin(needle_angle_low + 90) * r) / LV_TRIGO_SIN_MAX + x_ofs;
 634              		.loc 1 432 0
 635 0342 1D44     		add	r5, r5, r3
 433:..\..\..\lvgl\version_6.1.2\lvgl\src\lv_objx/lv_gauge.c **** 
 636              		.loc 1 433 0
 637 0344 FFF7FEFF 		bl	lv_trigo_sin
 638              	.LVL75:
 639 0348 00FB08F0 		mul	r0, r0, r8
 640 034c 89FB0026 		smull	r2, r6, r9, r0
 641 0350 0644     		add	r6, r6, r0
 642 0352 C017     		asrs	r0, r0, #31
 643 0354 089A     		ldr	r2, [sp, #32]
 644 0356 C0EBA636 		rsb	r6, r0, r6, asr #14
 435:..\..\..\lvgl\version_6.1.2\lvgl\src\lv_objx/lv_gauge.c ****         p_end_high.x = (lv_trigo_sin(needle_angle_high + 90) * r) / LV_TRIGO_SIN_MAX + x_ofs;
 645              		.loc 1 435 0
 646 035a 0BF10100 		add	r0, fp, #1
 647 035e 00B2     		sxth	r0, r0
 433:..\..\..\lvgl\version_6.1.2\lvgl\src\lv_objx/lv_gauge.c **** 
 648              		.loc 1 433 0
 649 0360 1644     		add	r6, r6, r2
 435:..\..\..\lvgl\version_6.1.2\lvgl\src\lv_objx/lv_gauge.c ****         p_end_high.x = (lv_trigo_sin(needle_angle_high + 90) * r) / LV_TRIGO_SIN_MAX + x_ofs;
 650              		.loc 1 435 0
 651 0362 FFF7FEFF 		bl	lv_trigo_sin
 652              	.LVL76:
 653 0366 00FB08F0 		mul	r0, r0, r8
 654 036a 89FB0013 		smull	r1, r3, r9, r0
 655 036e 0344     		add	r3, r3, r0
 656 0370 C017     		asrs	r0, r0, #31
 436:..\..\..\lvgl\version_6.1.2\lvgl\src\lv_objx/lv_gauge.c **** 
 657              		.loc 1 436 0
 658 0372 0BF15B02 		add	r2, fp, #91
 435:..\..\..\lvgl\version_6.1.2\lvgl\src\lv_objx/lv_gauge.c ****         p_end_high.x = (lv_trigo_sin(needle_angle_high + 90) * r) / LV_TRIGO_SIN_MAX + x_ofs;
 659              		.loc 1 435 0
 660 0376 C0EBA33B 		rsb	fp, r0, r3, asr #14
 661              	.LVL77:
 662 037a 099B     		ldr	r3, [sp, #36]
 436:..\..\..\lvgl\version_6.1.2\lvgl\src\lv_objx/lv_gauge.c **** 
 663              		.loc 1 436 0
 664 037c 10B2     		sxth	r0, r2
 435:..\..\..\lvgl\version_6.1.2\lvgl\src\lv_objx/lv_gauge.c ****         p_end_high.x = (lv_trigo_sin(needle_angle_high + 90) * r) / LV_TRIGO_SIN_MAX + x_ofs;
 665              		.loc 1 435 0
 666 037e 9B44     		add	fp, fp, r3
 436:..\..\..\lvgl\version_6.1.2\lvgl\src\lv_objx/lv_gauge.c **** 
 667              		.loc 1 436 0
 668 0380 FFF7FEFF 		bl	lv_trigo_sin
 669              	.LVL78:
 670 0384 00FB08F0 		mul	r0, r0, r8
 671 0388 89FB0013 		smull	r1, r3, r9, r0
 672 038c 0344     		add	r3, r3, r0
 673 038e 089A     		ldr	r2, [sp, #32]
 442:..\..\..\lvgl\version_6.1.2\lvgl\src\lv_objx/lv_gauge.c ****         if(p_end_high.y < p_end_low.y) y_mod = -y_mod;
ARM GAS  C:\Users\pearlstl\AppData\Local\Temp\cccjDn63.s 			page 26


 674              		.loc 1 442 0
 675 0390 0B99     		ldr	r1, [sp, #44]
 436:..\..\..\lvgl\version_6.1.2\lvgl\src\lv_objx/lv_gauge.c **** 
 676              		.loc 1 436 0
 677 0392 C017     		asrs	r0, r0, #31
 678 0394 C0EBA330 		rsb	r0, r0, r3, asr #14
 433:..\..\..\lvgl\version_6.1.2\lvgl\src\lv_objx/lv_gauge.c **** 
 679              		.loc 1 433 0
 680 0398 B6B2     		uxth	r6, r6
 436:..\..\..\lvgl\version_6.1.2\lvgl\src\lv_objx/lv_gauge.c **** 
 681              		.loc 1 436 0
 682 039a 1044     		add	r0, r0, r2
 683 039c 00B2     		sxth	r0, r0
 432:..\..\..\lvgl\version_6.1.2\lvgl\src\lv_objx/lv_gauge.c ****         p_end_low.x = (lv_trigo_sin(needle_angle_low + 90) * r) / LV_TRIGO_SIN_MAX + x_ofs;
 684              		.loc 1 432 0
 685 039e ADB2     		uxth	r5, r5
 433:..\..\..\lvgl\version_6.1.2\lvgl\src\lv_objx/lv_gauge.c **** 
 686              		.loc 1 433 0
 687 03a0 0FFA86FC 		sxth	ip, r6
 439:..\..\..\lvgl\version_6.1.2\lvgl\src\lv_objx/lv_gauge.c ****         int16_t y_mod = ((LV_MATH_ABS(p_end_high.y - p_end_low.y)) * rem) >> LV_GAUGE_INTERPOLATE_S
 688              		.loc 1 439 0
 689 03a4 CCEB0002 		rsb	r2, ip, r0
 432:..\..\..\lvgl\version_6.1.2\lvgl\src\lv_objx/lv_gauge.c ****         p_end_low.x = (lv_trigo_sin(needle_angle_low + 90) * r) / LV_TRIGO_SIN_MAX + x_ofs;
 690              		.loc 1 432 0
 691 03a8 0FFA85FE 		sxth	lr, r5
 692              	.LVL79:
 435:..\..\..\lvgl\version_6.1.2\lvgl\src\lv_objx/lv_gauge.c ****         p_end_high.x = (lv_trigo_sin(needle_angle_high + 90) * r) / LV_TRIGO_SIN_MAX + x_ofs;
 693              		.loc 1 435 0
 694 03ac 0FFA8BFB 		sxth	fp, fp
 695              	.LVL80:
 440:..\..\..\lvgl\version_6.1.2\lvgl\src\lv_objx/lv_gauge.c **** 
 696              		.loc 1 440 0
 697 03b0 CEEB0B03 		rsb	r3, lr, fp
 439:..\..\..\lvgl\version_6.1.2\lvgl\src\lv_objx/lv_gauge.c ****         int16_t y_mod = ((LV_MATH_ABS(p_end_high.y - p_end_low.y)) * rem) >> LV_GAUGE_INTERPOLATE_S
 698              		.loc 1 439 0
 699 03b4 002A     		cmp	r2, #0
 700 03b6 04F01F04 		and	r4, r4, #31
 701              	.LVL81:
 702 03ba B8BF     		it	lt
 703 03bc 5242     		rsblt	r2, r2, #0
 440:..\..\..\lvgl\version_6.1.2\lvgl\src\lv_objx/lv_gauge.c **** 
 704              		.loc 1 440 0
 705 03be 002B     		cmp	r3, #0
 706 03c0 B8BF     		it	lt
 707 03c2 5B42     		rsblt	r3, r3, #0
 439:..\..\..\lvgl\version_6.1.2\lvgl\src\lv_objx/lv_gauge.c ****         int16_t y_mod = ((LV_MATH_ABS(p_end_high.y - p_end_low.y)) * rem) >> LV_GAUGE_INTERPOLATE_S
 708              		.loc 1 439 0
 709 03c4 04FB02F2 		mul	r2, r4, r2
 442:..\..\..\lvgl\version_6.1.2\lvgl\src\lv_objx/lv_gauge.c ****         if(p_end_high.y < p_end_low.y) y_mod = -y_mod;
 710              		.loc 1 442 0
 711 03c8 8445     		cmp	ip, r0
 439:..\..\..\lvgl\version_6.1.2\lvgl\src\lv_objx/lv_gauge.c ****         int16_t y_mod = ((LV_MATH_ABS(p_end_high.y - p_end_low.y)) * rem) >> LV_GAUGE_INTERPOLATE_S
 712              		.loc 1 439 0
 713 03ca 4FEA6212 		asr	r2, r2, #5
 714              	.LVL82:
 440:..\..\..\lvgl\version_6.1.2\lvgl\src\lv_objx/lv_gauge.c **** 
 715              		.loc 1 440 0
ARM GAS  C:\Users\pearlstl\AppData\Local\Temp\cccjDn63.s 			page 27


 716 03ce 04FB03F4 		mul	r4, r4, r3
 717 03d2 4FEA6414 		asr	r4, r4, #5
 718              	.LVL83:
 442:..\..\..\lvgl\version_6.1.2\lvgl\src\lv_objx/lv_gauge.c ****         if(p_end_high.y < p_end_low.y) y_mod = -y_mod;
 719              		.loc 1 442 0
 720 03d6 C8BF     		it	gt
 721 03d8 5242     		rsbgt	r2, r2, #0
 722              	.LVL84:
 443:..\..\..\lvgl\version_6.1.2\lvgl\src\lv_objx/lv_gauge.c **** 
 723              		.loc 1 443 0
 724 03da DE45     		cmp	lr, fp
 725 03dc C8BF     		it	gt
 726 03de 6442     		rsbgt	r4, r4, #0
 727              	.LVL85:
 442:..\..\..\lvgl\version_6.1.2\lvgl\src\lv_objx/lv_gauge.c ****         if(p_end_high.y < p_end_low.y) y_mod = -y_mod;
 728              		.loc 1 442 0
 729 03e0 12B2     		sxth	r2, r2
 730              	.LVL86:
 443:..\..\..\lvgl\version_6.1.2\lvgl\src\lv_objx/lv_gauge.c **** 
 731              		.loc 1 443 0
 732 03e2 24B2     		sxth	r4, r4
 733              	.LVL87:
 449:..\..\..\lvgl\version_6.1.2\lvgl\src\lv_objx/lv_gauge.c ****             style_needle.line.color = LV_GAUGE_DEF_NEEDLE_COLOR;
 734              		.loc 1 449 0
 735 03e4 DAF81000 		ldr	r0, [r10, #16]
 736              	.LVL88:
 445:..\..\..\lvgl\version_6.1.2\lvgl\src\lv_objx/lv_gauge.c ****         p_end.y = p_end_low.y + y_mod;
 737              		.loc 1 445 0
 738 03e8 3244     		add	r2, r2, r6
 739              	.LVL89:
 446:..\..\..\lvgl\version_6.1.2\lvgl\src\lv_objx/lv_gauge.c **** 
 740              		.loc 1 446 0
 741 03ea 2544     		add	r5, r5, r4
 445:..\..\..\lvgl\version_6.1.2\lvgl\src\lv_objx/lv_gauge.c ****         p_end.y = p_end_low.y + y_mod;
 742              		.loc 1 445 0
 743 03ec ADF86420 		strh	r2, [sp, #100]	@ movhi
 446:..\..\..\lvgl\version_6.1.2\lvgl\src\lv_objx/lv_gauge.c **** 
 744              		.loc 1 446 0
 745 03f0 ADF86650 		strh	r5, [sp, #102]	@ movhi
 449:..\..\..\lvgl\version_6.1.2\lvgl\src\lv_objx/lv_gauge.c ****             style_needle.line.color = LV_GAUGE_DEF_NEEDLE_COLOR;
 746              		.loc 1 449 0
 747 03f4 0028     		cmp	r0, #0
 748 03f6 7FF46DAF 		bne	.L13
 450:..\..\..\lvgl\version_6.1.2\lvgl\src\lv_objx/lv_gauge.c ****         else
 749              		.loc 1 450 0
 750 03fa 1E4B     		ldr	r3, .L27+4
 751 03fc 4293     		str	r3, [sp, #264]
 752 03fe 6CE7     		b	.L14
 753              	.LVL90:
 754              	.L6:
 755              	.LBE78:
 455:..\..\..\lvgl\version_6.1.2\lvgl\src\lv_objx/lv_gauge.c ****     }
 456:..\..\..\lvgl\version_6.1.2\lvgl\src\lv_objx/lv_gauge.c **** 
 457:..\..\..\lvgl\version_6.1.2\lvgl\src\lv_objx/lv_gauge.c ****     /*Draw the needle middle area*/
 458:..\..\..\lvgl\version_6.1.2\lvgl\src\lv_objx/lv_gauge.c ****     lv_style_t style_neddle_mid;
 459:..\..\..\lvgl\version_6.1.2\lvgl\src\lv_objx/lv_gauge.c ****     lv_style_copy(&style_neddle_mid, &lv_style_plain);
 756              		.loc 1 459 0
ARM GAS  C:\Users\pearlstl\AppData\Local\Temp\cccjDn63.s 			page 28


 757 0400 179F     		ldr	r7, [sp, #92]
 758 0402 1D49     		ldr	r1, .L27+8
 759 0404 3846     		mov	r0, r7
 760 0406 FFF7FEFF 		bl	lv_style_copy
 761              	.LVL91:
 460:..\..\..\lvgl\version_6.1.2\lvgl\src\lv_objx/lv_gauge.c ****     style_neddle_mid.body.main_color = style->body.border.color;
 762              		.loc 1 460 0
 763 040a 129C     		ldr	r4, [sp, #72]
 461:..\..\..\lvgl\version_6.1.2\lvgl\src\lv_objx/lv_gauge.c ****     style_neddle_mid.body.grad_color = style->body.border.color;
 462:..\..\..\lvgl\version_6.1.2\lvgl\src\lv_objx/lv_gauge.c ****     style_neddle_mid.body.radius     = LV_RADIUS_CIRCLE;
 463:..\..\..\lvgl\version_6.1.2\lvgl\src\lv_objx/lv_gauge.c **** 
 464:..\..\..\lvgl\version_6.1.2\lvgl\src\lv_objx/lv_gauge.c ****     lv_area_t nm_cord;
 465:..\..\..\lvgl\version_6.1.2\lvgl\src\lv_objx/lv_gauge.c ****     nm_cord.x1 = x_ofs - style->body.radius;
 466:..\..\..\lvgl\version_6.1.2\lvgl\src\lv_objx/lv_gauge.c ****     nm_cord.y1 = y_ofs - style->body.radius;
 764              		.loc 1 466 0
 765 040c 099E     		ldr	r6, [sp, #36]
 460:..\..\..\lvgl\version_6.1.2\lvgl\src\lv_objx/lv_gauge.c ****     style_neddle_mid.body.main_color = style->body.border.color;
 766              		.loc 1 460 0
 767 040e 2169     		ldr	r1, [r4, #16]
 467:..\..\..\lvgl\version_6.1.2\lvgl\src\lv_objx/lv_gauge.c ****     nm_cord.x2 = x_ofs + style->body.radius;
 468:..\..\..\lvgl\version_6.1.2\lvgl\src\lv_objx/lv_gauge.c ****     nm_cord.y2 = y_ofs + style->body.radius;
 469:..\..\..\lvgl\version_6.1.2\lvgl\src\lv_objx/lv_gauge.c **** 
 470:..\..\..\lvgl\version_6.1.2\lvgl\src\lv_objx/lv_gauge.c ****     lv_draw_rect(&nm_cord, mask, &style_neddle_mid, lv_obj_get_opa_scale(gauge));
 768              		.loc 1 470 0
 769 0410 0C98     		ldr	r0, [sp, #48]
 462:..\..\..\lvgl\version_6.1.2\lvgl\src\lv_objx/lv_gauge.c **** 
 770              		.loc 1 462 0
 771 0412 47F61843 		movw	r3, #31768
 772 0416 ADF81C31 		strh	r3, [sp, #284]	@ movhi
 465:..\..\..\lvgl\version_6.1.2\lvgl\src\lv_objx/lv_gauge.c ****     nm_cord.y1 = y_ofs - style->body.radius;
 773              		.loc 1 465 0
 774 041a A389     		ldrh	r3, [r4, #12]
 460:..\..\..\lvgl\version_6.1.2\lvgl\src\lv_objx/lv_gauge.c ****     style_neddle_mid.body.grad_color = style->body.border.color;
 775              		.loc 1 460 0
 776 041c 4591     		str	r1, [sp, #276]
 461:..\..\..\lvgl\version_6.1.2\lvgl\src\lv_objx/lv_gauge.c ****     style_neddle_mid.body.radius     = LV_RADIUS_CIRCLE;
 777              		.loc 1 461 0
 778 041e 0A46     		mov	r2, r1
 465:..\..\..\lvgl\version_6.1.2\lvgl\src\lv_objx/lv_gauge.c ****     nm_cord.y1 = y_ofs - style->body.radius;
 779              		.loc 1 465 0
 780 0420 0899     		ldr	r1, [sp, #32]
 461:..\..\..\lvgl\version_6.1.2\lvgl\src\lv_objx/lv_gauge.c ****     style_neddle_mid.body.radius     = LV_RADIUS_CIRCLE;
 781              		.loc 1 461 0
 782 0422 4692     		str	r2, [sp, #280]
 465:..\..\..\lvgl\version_6.1.2\lvgl\src\lv_objx/lv_gauge.c ****     nm_cord.y1 = y_ofs - style->body.radius;
 783              		.loc 1 465 0
 784 0424 CD1A     		subs	r5, r1, r3
 467:..\..\..\lvgl\version_6.1.2\lvgl\src\lv_objx/lv_gauge.c ****     nm_cord.y2 = y_ofs + style->body.radius;
 785              		.loc 1 467 0
 786 0426 CC18     		adds	r4, r1, r3
 466:..\..\..\lvgl\version_6.1.2\lvgl\src\lv_objx/lv_gauge.c ****     nm_cord.x2 = x_ofs + style->body.radius;
 787              		.loc 1 466 0
 788 0428 F11A     		subs	r1, r6, r3
 468:..\..\..\lvgl\version_6.1.2\lvgl\src\lv_objx/lv_gauge.c **** 
 789              		.loc 1 468 0
 790 042a 3344     		add	r3, r3, r6
 466:..\..\..\lvgl\version_6.1.2\lvgl\src\lv_objx/lv_gauge.c ****     nm_cord.x2 = x_ofs + style->body.radius;
ARM GAS  C:\Users\pearlstl\AppData\Local\Temp\cccjDn63.s 			page 29


 791              		.loc 1 466 0
 792 042c ADF86A10 		strh	r1, [sp, #106]	@ movhi
 468:..\..\..\lvgl\version_6.1.2\lvgl\src\lv_objx/lv_gauge.c **** 
 793              		.loc 1 468 0
 794 0430 ADF86E30 		strh	r3, [sp, #110]	@ movhi
 465:..\..\..\lvgl\version_6.1.2\lvgl\src\lv_objx/lv_gauge.c ****     nm_cord.y1 = y_ofs - style->body.radius;
 795              		.loc 1 465 0
 796 0434 ADF86850 		strh	r5, [sp, #104]	@ movhi
 467:..\..\..\lvgl\version_6.1.2\lvgl\src\lv_objx/lv_gauge.c ****     nm_cord.y2 = y_ofs + style->body.radius;
 797              		.loc 1 467 0
 798 0438 ADF86C40 		strh	r4, [sp, #108]	@ movhi
 799              		.loc 1 470 0
 800 043c FFF7FEFF 		bl	lv_obj_get_opa_scale
 801              	.LVL92:
 802 0440 3A46     		mov	r2, r7
 803 0442 0346     		mov	r3, r0
 804 0444 0799     		ldr	r1, [sp, #28]
 805 0446 1AA8     		add	r0, sp, #104
 806 0448 FFF7FEFF 		bl	lv_draw_rect
 807              	.LVL93:
 808              	.LBE81:
 809              	.LBE84:
 810 044c 0120     		movs	r0, #1
 811              	.LBE52:
 812              	.LBE51:
 318:..\..\..\lvgl\version_6.1.2\lvgl\src\lv_objx/lv_gauge.c **** 
 813              		.loc 1 318 0
 814 044e 59B0     		add	sp, sp, #356
 815              		.cfi_remember_state
 816              		.cfi_def_cfa_offset 36
 817              		@ sp needed
 818 0450 BDE8F08F 		pop	{r4, r5, r6, r7, r8, r9, r10, fp, pc}
 819              	.LVL94:
 820              	.L25:
 821              		.cfi_restore_state
 314:..\..\..\lvgl\version_6.1.2\lvgl\src\lv_objx/lv_gauge.c ****     }
 822              		.loc 1 314 0
 823 0454 064B     		ldr	r3, .L27
 824 0456 1B68     		ldr	r3, [r3]
 825 0458 9847     		blx	r3
 826              	.LVL95:
 317:..\..\..\lvgl\version_6.1.2\lvgl\src\lv_objx/lv_gauge.c **** }
 827              		.loc 1 317 0
 828 045a 3046     		mov	r0, r6
 318:..\..\..\lvgl\version_6.1.2\lvgl\src\lv_objx/lv_gauge.c **** 
 829              		.loc 1 318 0
 830 045c 59B0     		add	sp, sp, #356
 831              		.cfi_remember_state
 832              		.cfi_def_cfa_offset 36
 833              		@ sp needed
 834 045e BDE8F08F 		pop	{r4, r5, r6, r7, r8, r9, r10, fp, pc}
 835              	.LVL96:
 836              	.L26:
 837              		.cfi_restore_state
 838 0462 1CAB     		add	r3, sp, #112
 839 0464 0893     		str	r3, [sp, #32]
 840 0466 30AB     		add	r3, sp, #192
ARM GAS  C:\Users\pearlstl\AppData\Local\Temp\cccjDn63.s 			page 30


 841 0468 0A93     		str	r3, [sp, #40]
 842 046a 44AB     		add	r3, sp, #272
 843 046c 1793     		str	r3, [sp, #92]
 844 046e B2E6     		b	.L8
 845              	.L28:
 846              		.align	2
 847              	.L27:
 848 0470 00000000 		.word	.LANCHOR0
 849 0474 0000FFFF 		.word	-65536
 850 0478 00000000 		.word	lv_style_plain
 851 047c 03000180 		.word	-2147418109
 852              		.cfi_endproc
 853              	.LFE54:
 854              		.size	lv_gauge_design, .-lv_gauge_design
 855              		.section	.text.lv_gauge_signal,"ax",%progbits
 856              		.align	2
 857              		.thumb
 858              		.thumb_func
 859              		.type	lv_gauge_signal, %function
 860              	lv_gauge_signal:
 861              	.LFB55:
 328:..\..\..\lvgl\version_6.1.2\lvgl\src\lv_objx/lv_gauge.c ****     lv_res_t res;
 862              		.loc 1 328 0
 863              		.cfi_startproc
 864              		@ args = 0, pretend = 0, frame = 0
 865              		@ frame_needed = 0, uses_anonymous_args = 0
 866              	.LVL97:
 867 0000 F8B5     		push	{r3, r4, r5, r6, r7, lr}
 868              		.cfi_def_cfa_offset 24
 869              		.cfi_offset 3, -24
 870              		.cfi_offset 4, -20
 871              		.cfi_offset 5, -16
 872              		.cfi_offset 6, -12
 873              		.cfi_offset 7, -8
 874              		.cfi_offset 14, -4
 332:..\..\..\lvgl\version_6.1.2\lvgl\src\lv_objx/lv_gauge.c ****     if(res != LV_RES_OK) return res;
 875              		.loc 1 332 0
 876 0002 0F4B     		ldr	r3, .L37
 877 0004 5B68     		ldr	r3, [r3, #4]
 328:..\..\..\lvgl\version_6.1.2\lvgl\src\lv_objx/lv_gauge.c ****     lv_res_t res;
 878              		.loc 1 328 0
 879 0006 0646     		mov	r6, r0
 880 0008 0D46     		mov	r5, r1
 881 000a 1746     		mov	r7, r2
 332:..\..\..\lvgl\version_6.1.2\lvgl\src\lv_objx/lv_gauge.c ****     if(res != LV_RES_OK) return res;
 882              		.loc 1 332 0
 883 000c 9847     		blx	r3
 884              	.LVL98:
 333:..\..\..\lvgl\version_6.1.2\lvgl\src\lv_objx/lv_gauge.c ****     if(sign == LV_SIGNAL_GET_TYPE) return lv_obj_handle_get_type_signal(param, LV_OBJX_NAME);
 885              		.loc 1 333 0
 886 000e 0128     		cmp	r0, #1
 332:..\..\..\lvgl\version_6.1.2\lvgl\src\lv_objx/lv_gauge.c ****     if(res != LV_RES_OK) return res;
 887              		.loc 1 332 0
 888 0010 0446     		mov	r4, r0
 889              	.LVL99:
 333:..\..\..\lvgl\version_6.1.2\lvgl\src\lv_objx/lv_gauge.c ****     if(sign == LV_SIGNAL_GET_TYPE) return lv_obj_handle_get_type_signal(param, LV_OBJX_NAME);
 890              		.loc 1 333 0
ARM GAS  C:\Users\pearlstl\AppData\Local\Temp\cccjDn63.s 			page 31


 891 0012 01D0     		beq	.L35
 892              	.LVL100:
 893              	.L30:
 343:..\..\..\lvgl\version_6.1.2\lvgl\src\lv_objx/lv_gauge.c **** 
 894              		.loc 1 343 0
 895 0014 2046     		mov	r0, r4
 896 0016 F8BD     		pop	{r3, r4, r5, r6, r7, pc}
 897              	.LVL101:
 898              	.L35:
 334:..\..\..\lvgl\version_6.1.2\lvgl\src\lv_objx/lv_gauge.c **** 
 899              		.loc 1 334 0
 900 0018 072D     		cmp	r5, #7
 901 001a 0BD0     		beq	.L36
 336:..\..\..\lvgl\version_6.1.2\lvgl\src\lv_objx/lv_gauge.c ****     if(sign == LV_SIGNAL_CLEANUP) {
 902              		.loc 1 336 0
 903 001c 3046     		mov	r0, r6
 904              	.LVL102:
 905 001e FFF7FEFF 		bl	lv_obj_get_ext_attr
 906              	.LVL103:
 907 0022 0646     		mov	r6, r0
 908              	.LVL104:
 337:..\..\..\lvgl\version_6.1.2\lvgl\src\lv_objx/lv_gauge.c ****         lv_mem_free(ext->values);
 909              		.loc 1 337 0
 910 0024 002D     		cmp	r5, #0
 911 0026 F5D1     		bne	.L30
 338:..\..\..\lvgl\version_6.1.2\lvgl\src\lv_objx/lv_gauge.c ****         ext->values = NULL;
 912              		.loc 1 338 0
 913 0028 C068     		ldr	r0, [r0, #12]
 914              	.LVL105:
 915 002a FFF7FEFF 		bl	lv_mem_free
 916              	.LVL106:
 339:..\..\..\lvgl\version_6.1.2\lvgl\src\lv_objx/lv_gauge.c ****     }
 917              		.loc 1 339 0
 918 002e F560     		str	r5, [r6, #12]
 343:..\..\..\lvgl\version_6.1.2\lvgl\src\lv_objx/lv_gauge.c **** 
 919              		.loc 1 343 0
 920 0030 2046     		mov	r0, r4
 921 0032 F8BD     		pop	{r3, r4, r5, r6, r7, pc}
 922              	.LVL107:
 923              	.L36:
 924              	.LBB87:
 925              	.LBB88:
 334:..\..\..\lvgl\version_6.1.2\lvgl\src\lv_objx/lv_gauge.c **** 
 926              		.loc 1 334 0
 927 0034 3846     		mov	r0, r7
 928              	.LVL108:
 929 0036 0349     		ldr	r1, .L37+4
 930              	.LBE88:
 931              	.LBE87:
 343:..\..\..\lvgl\version_6.1.2\lvgl\src\lv_objx/lv_gauge.c **** 
 932              		.loc 1 343 0
 933 0038 BDE8F840 		pop	{r3, r4, r5, r6, r7, lr}
 934              		.cfi_restore 14
 935              		.cfi_restore 7
 936              		.cfi_restore 6
 937              		.cfi_restore 5
 938              		.cfi_restore 4
ARM GAS  C:\Users\pearlstl\AppData\Local\Temp\cccjDn63.s 			page 32


 939              		.cfi_restore 3
 940              		.cfi_def_cfa_offset 0
 941              	.LVL109:
 942              	.LBB90:
 943              	.LBB89:
 334:..\..\..\lvgl\version_6.1.2\lvgl\src\lv_objx/lv_gauge.c **** 
 944              		.loc 1 334 0
 945 003c FFF7FEBF 		b	lv_obj_handle_get_type_signal
 946              	.LVL110:
 947              	.L38:
 948              		.align	2
 949              	.L37:
 950 0040 00000000 		.word	.LANCHOR0
 951 0044 00000000 		.word	.LC0
 952              	.LBE89:
 953              	.LBE90:
 954              		.cfi_endproc
 955              	.LFE55:
 956              		.size	lv_gauge_signal, .-lv_gauge_signal
 957              		.section	.text.lv_gauge_create,"ax",%progbits
 958              		.align	2
 959              		.global	lv_gauge_create
 960              		.thumb
 961              		.thumb_func
 962              		.type	lv_gauge_create, %function
 963              	lv_gauge_create:
 964              	.LFB47:
  66:..\..\..\lvgl\version_6.1.2\lvgl\src\lv_objx/lv_gauge.c ****     LV_LOG_TRACE("gauge create started");
 965              		.loc 1 66 0
 966              		.cfi_startproc
 967              		@ args = 0, pretend = 0, frame = 0
 968              		@ frame_needed = 0, uses_anonymous_args = 0
 969              	.LVL111:
 970 0000 2DE9F843 		push	{r3, r4, r5, r6, r7, r8, r9, lr}
 971              		.cfi_def_cfa_offset 32
 972              		.cfi_offset 3, -32
 973              		.cfi_offset 4, -28
 974              		.cfi_offset 5, -24
 975              		.cfi_offset 6, -20
 976              		.cfi_offset 7, -16
 977              		.cfi_offset 8, -12
 978              		.cfi_offset 9, -8
 979              		.cfi_offset 14, -4
  66:..\..\..\lvgl\version_6.1.2\lvgl\src\lv_objx/lv_gauge.c ****     LV_LOG_TRACE("gauge create started");
 980              		.loc 1 66 0
 981 0004 0F46     		mov	r7, r1
  70:..\..\..\lvgl\version_6.1.2\lvgl\src\lv_objx/lv_gauge.c ****     LV_ASSERT_MEM(new_gauge);
 982              		.loc 1 70 0
 983 0006 FFF7FEFF 		bl	lv_lmeter_create
 984              	.LVL112:
  72:..\..\..\lvgl\version_6.1.2\lvgl\src\lv_objx/lv_gauge.c **** 
 985              		.loc 1 72 0
 986 000a 0028     		cmp	r0, #0
 987 000c 00F0AC80 		beq	.L42
  75:..\..\..\lvgl\version_6.1.2\lvgl\src\lv_objx/lv_gauge.c ****     LV_ASSERT_MEM(ext);
 988              		.loc 1 75 0
 989 0010 1821     		movs	r1, #24
ARM GAS  C:\Users\pearlstl\AppData\Local\Temp\cccjDn63.s 			page 33


 990 0012 0446     		mov	r4, r0
 991 0014 FFF7FEFF 		bl	lv_obj_allocate_ext_attr
 992              	.LVL113:
  77:..\..\..\lvgl\version_6.1.2\lvgl\src\lv_objx/lv_gauge.c **** 
 993              		.loc 1 77 0
 994 0018 0646     		mov	r6, r0
 995 001a 0028     		cmp	r0, #0
 996 001c 00F0A480 		beq	.L42
  84:..\..\..\lvgl\version_6.1.2\lvgl\src\lv_objx/lv_gauge.c ****     if(ancestor_design == NULL) ancestor_design = lv_obj_get_design_cb(new_gauge);
 997              		.loc 1 84 0
 998 0020 5B4D     		ldr	r5, .L84
 999 0022 6A68     		ldr	r2, [r5, #4]
  80:..\..\..\lvgl\version_6.1.2\lvgl\src\lv_objx/lv_gauge.c ****     ext->values        = NULL;
 1000              		.loc 1 80 0
 1001 0024 0023     		movs	r3, #0
  83:..\..\..\lvgl\version_6.1.2\lvgl\src\lv_objx/lv_gauge.c ****     if(ancestor_signal == NULL) ancestor_signal = lv_obj_get_signal_cb(new_gauge);
 1002              		.loc 1 83 0
 1003 0026 0621     		movs	r1, #6
  80:..\..\..\lvgl\version_6.1.2\lvgl\src\lv_objx/lv_gauge.c ****     ext->values        = NULL;
 1004              		.loc 1 80 0
 1005 0028 0375     		strb	r3, [r0, #20]
  81:..\..\..\lvgl\version_6.1.2\lvgl\src\lv_objx/lv_gauge.c ****     ext->needle_colors = NULL;
 1006              		.loc 1 81 0
 1007 002a C360     		str	r3, [r0, #12]
  82:..\..\..\lvgl\version_6.1.2\lvgl\src\lv_objx/lv_gauge.c ****     ext->label_count   = LV_GAUGE_DEF_LABEL_COUNT;
 1008              		.loc 1 82 0
 1009 002c 0361     		str	r3, [r0, #16]
  83:..\..\..\lvgl\version_6.1.2\lvgl\src\lv_objx/lv_gauge.c ****     if(ancestor_signal == NULL) ancestor_signal = lv_obj_get_signal_cb(new_gauge);
 1010              		.loc 1 83 0
 1011 002e 4175     		strb	r1, [r0, #21]
  84:..\..\..\lvgl\version_6.1.2\lvgl\src\lv_objx/lv_gauge.c ****     if(ancestor_design == NULL) ancestor_design = lv_obj_get_design_cb(new_gauge);
 1012              		.loc 1 84 0
 1013 0030 002A     		cmp	r2, #0
 1014 0032 00F09C80 		beq	.L81
 1015              	.LVL114:
 1016              	.L43:
  85:..\..\..\lvgl\version_6.1.2\lvgl\src\lv_objx/lv_gauge.c **** 
 1017              		.loc 1 85 0
 1018 0036 2B68     		ldr	r3, [r5]
 1019 0038 554D     		ldr	r5, .L84
 1020 003a 002B     		cmp	r3, #0
 1021 003c 00F09C80 		beq	.L82
 1022              	.L44:
  88:..\..\..\lvgl\version_6.1.2\lvgl\src\lv_objx/lv_gauge.c ****     lv_obj_set_design_cb(new_gauge, lv_gauge_design);
 1023              		.loc 1 88 0
 1024 0040 5449     		ldr	r1, .L84+4
 1025 0042 2046     		mov	r0, r4
 1026 0044 FFF7FEFF 		bl	lv_obj_set_signal_cb
 1027              	.LVL115:
  89:..\..\..\lvgl\version_6.1.2\lvgl\src\lv_objx/lv_gauge.c **** 
 1028              		.loc 1 89 0
 1029 0048 5349     		ldr	r1, .L84+8
 1030 004a 2046     		mov	r0, r4
 1031 004c FFF7FEFF 		bl	lv_obj_set_design_cb
 1032              	.LVL116:
  92:..\..\..\lvgl\version_6.1.2\lvgl\src\lv_objx/lv_gauge.c ****         lv_gauge_set_scale(new_gauge, LV_GAUGE_DEF_ANGLE, LV_GAUGE_DEF_LINE_COUNT, LV_GAUGE_DEF_LAB
 1033              		.loc 1 92 0
ARM GAS  C:\Users\pearlstl\AppData\Local\Temp\cccjDn63.s 			page 34


 1034 0050 002F     		cmp	r7, #0
 1035 0052 48D0     		beq	.L83
 1036              	.LBB111:
 108:..\..\..\lvgl\version_6.1.2\lvgl\src\lv_objx/lv_gauge.c ****         lv_gauge_set_needle_count(new_gauge, copy_ext->needle_count, copy_ext->needle_colors);
 1037              		.loc 1 108 0
 1038 0054 3846     		mov	r0, r7
 1039 0056 FFF7FEFF 		bl	lv_obj_get_ext_attr
 1040              	.LVL117:
 1041 005a 0546     		mov	r5, r0
 1042              	.LVL118:
 1043              	.LBB112:
 1044              	.LBB113:
 139:..\..\..\lvgl\version_6.1.2\lvgl\src\lv_objx/lv_gauge.c **** 
 1045              		.loc 1 139 0
 1046 005c 2046     		mov	r0, r4
 1047              	.LVL119:
 1048              	.LBE113:
 1049              	.LBE112:
 109:..\..\..\lvgl\version_6.1.2\lvgl\src\lv_objx/lv_gauge.c **** 
 1050              		.loc 1 109 0
 1051 005e 2F7D     		ldrb	r7, [r5, #20]	@ zero_extendqisi2
 1052              	.LVL120:
 1053 0060 D5F81080 		ldr	r8, [r5, #16]
 1054              	.LVL121:
 1055              	.LBB118:
 1056              	.LBB117:
 139:..\..\..\lvgl\version_6.1.2\lvgl\src\lv_objx/lv_gauge.c **** 
 1057              		.loc 1 139 0
 1058 0064 FFF7FEFF 		bl	lv_obj_get_ext_attr
 1059              	.LVL122:
 141:..\..\..\lvgl\version_6.1.2\lvgl\src\lv_objx/lv_gauge.c ****         if(ext->values != NULL) {
 1060              		.loc 1 141 0
 1061 0068 037D     		ldrb	r3, [r0, #20]	@ zero_extendqisi2
 1062 006a BB42     		cmp	r3, r7
 139:..\..\..\lvgl\version_6.1.2\lvgl\src\lv_objx/lv_gauge.c **** 
 1063              		.loc 1 139 0
 1064 006c 8146     		mov	r9, r0
 1065              	.LVL123:
 141:..\..\..\lvgl\version_6.1.2\lvgl\src\lv_objx/lv_gauge.c ****         if(ext->values != NULL) {
 1066              		.loc 1 141 0
 1067 006e 1ED0     		beq	.L51
 1068              	.LBB114:
 142:..\..\..\lvgl\version_6.1.2\lvgl\src\lv_objx/lv_gauge.c ****             lv_mem_free(ext->values);
 1069              		.loc 1 142 0
 1070 0070 C068     		ldr	r0, [r0, #12]
 1071              	.LVL124:
 1072 0072 20B1     		cbz	r0, .L52
 143:..\..\..\lvgl\version_6.1.2\lvgl\src\lv_objx/lv_gauge.c ****             ext->values = NULL;
 1073              		.loc 1 143 0
 1074 0074 FFF7FEFF 		bl	lv_mem_free
 1075              	.LVL125:
 144:..\..\..\lvgl\version_6.1.2\lvgl\src\lv_objx/lv_gauge.c ****         }
 1076              		.loc 1 144 0
 1077 0078 0023     		movs	r3, #0
 1078 007a C9F80C30 		str	r3, [r9, #12]
 1079              	.L52:
 147:..\..\..\lvgl\version_6.1.2\lvgl\src\lv_objx/lv_gauge.c ****         LV_ASSERT_MEM(ext->values);
ARM GAS  C:\Users\pearlstl\AppData\Local\Temp\cccjDn63.s 			page 35


 1080              		.loc 1 147 0
 1081 007e 7900     		lsls	r1, r7, #1
 1082 0080 0020     		movs	r0, #0
 1083 0082 FFF7FEFF 		bl	lv_mem_realloc
 1084              	.LVL126:
 1085 0086 C9F80C00 		str	r0, [r9, #12]
 149:..\..\..\lvgl\version_6.1.2\lvgl\src\lv_objx/lv_gauge.c **** 
 1086              		.loc 1 149 0
 1087 008a A8B1     		cbz	r0, .L53
 1088              	.LVL127:
 1089              	.LBB115:
 1090              	.LBB116:
 161:..\..\..\lvgl\version_6.1.2\lvgl\src\lv_objx/lv_gauge.h **** }
 1091              		.loc 2 161 0
 1092 008c 2046     		mov	r0, r4
 1093 008e FFF7FEFF 		bl	lv_lmeter_get_min_value
 1094              	.LVL128:
 1095              	.LBE116:
 1096              	.LBE115:
 153:..\..\..\lvgl\version_6.1.2\lvgl\src\lv_objx/lv_gauge.c ****             ext->values[n] = min;
 1097              		.loc 1 153 0
 1098 0092 99F81430 		ldrb	r3, [r9, #20]	@ zero_extendqisi2
 1099              	.LVL129:
 1100 0096 9F42     		cmp	r7, r3
 1101 0098 07D9     		bls	.L56
 1102 009a D9F80C20 		ldr	r2, [r9, #12]
 1103              	.L55:
 154:..\..\..\lvgl\version_6.1.2\lvgl\src\lv_objx/lv_gauge.c ****         }
 1104              		.loc 1 154 0
 1105 009e 22F81300 		strh	r0, [r2, r3, lsl #1]	@ movhi
 153:..\..\..\lvgl\version_6.1.2\lvgl\src\lv_objx/lv_gauge.c ****             ext->values[n] = min;
 1106              		.loc 1 153 0
 1107 00a2 0133     		adds	r3, r3, #1
 1108              	.LVL130:
 1109 00a4 DBB2     		uxtb	r3, r3
 1110              	.LVL131:
 1111 00a6 9F42     		cmp	r7, r3
 1112 00a8 F9D1     		bne	.L55
 1113              	.L56:
 157:..\..\..\lvgl\version_6.1.2\lvgl\src\lv_objx/lv_gauge.c ****     }
 1114              		.loc 1 157 0
 1115 00aa 89F81470 		strb	r7, [r9, #20]
 1116              	.LVL132:
 1117              	.L51:
 1118              	.LBE114:
 160:..\..\..\lvgl\version_6.1.2\lvgl\src\lv_objx/lv_gauge.c ****     lv_obj_invalidate(gauge);
 1119              		.loc 1 160 0
 1120 00ae C9F81080 		str	r8, [r9, #16]
 161:..\..\..\lvgl\version_6.1.2\lvgl\src\lv_objx/lv_gauge.c **** }
 1121              		.loc 1 161 0
 1122 00b2 2046     		mov	r0, r4
 1123 00b4 FFF7FEFF 		bl	lv_obj_invalidate
 1124              	.LVL133:
 1125              	.L53:
 1126              	.LBE117:
 1127              	.LBE118:
 112:..\..\..\lvgl\version_6.1.2\lvgl\src\lv_objx/lv_gauge.c ****             ext->values[i] = copy_ext->values[i];
ARM GAS  C:\Users\pearlstl\AppData\Local\Temp\cccjDn63.s 			page 36


 1128              		.loc 1 112 0 discriminator 1
 1129 00b8 337D     		ldrb	r3, [r6, #20]	@ zero_extendqisi2
 1130 00ba 63B1     		cbz	r3, .L59
 1131 00bc F768     		ldr	r7, [r6, #12]
 1132              	.LVL134:
 1133 00be E868     		ldr	r0, [r5, #12]
 112:..\..\..\lvgl\version_6.1.2\lvgl\src\lv_objx/lv_gauge.c ****             ext->values[i] = copy_ext->values[i];
 1134              		.loc 1 112 0 is_stmt 0
 1135 00c0 0023     		movs	r3, #0
 1136              	.LVL135:
 1137              	.L58:
 113:..\..\..\lvgl\version_6.1.2\lvgl\src\lv_objx/lv_gauge.c ****         }
 1138              		.loc 1 113 0 is_stmt 1 discriminator 3
 1139 00c2 1AB2     		sxth	r2, r3
 112:..\..\..\lvgl\version_6.1.2\lvgl\src\lv_objx/lv_gauge.c ****             ext->values[i] = copy_ext->values[i];
 1140              		.loc 1 112 0 discriminator 3
 1141 00c4 0133     		adds	r3, r3, #1
 1142              	.LVL136:
 113:..\..\..\lvgl\version_6.1.2\lvgl\src\lv_objx/lv_gauge.c ****         }
 1143              		.loc 1 113 0 discriminator 3
 1144 00c6 30F91210 		ldrsh	r1, [r0, r2, lsl #1]
 1145 00ca 27F81210 		strh	r1, [r7, r2, lsl #1]	@ movhi
 112:..\..\..\lvgl\version_6.1.2\lvgl\src\lv_objx/lv_gauge.c ****             ext->values[i] = copy_ext->values[i];
 1146              		.loc 1 112 0 discriminator 3
 1147 00ce 327D     		ldrb	r2, [r6, #20]	@ zero_extendqisi2
 1148 00d0 DBB2     		uxtb	r3, r3
 1149              	.LVL137:
 1150 00d2 9A42     		cmp	r2, r3
 1151 00d4 F5D8     		bhi	.L58
 1152              	.LVL138:
 1153              	.L59:
 115:..\..\..\lvgl\version_6.1.2\lvgl\src\lv_objx/lv_gauge.c ****         /*Refresh the style with new signal function*/
 1154              		.loc 1 115 0
 1155 00d6 6B7D     		ldrb	r3, [r5, #21]	@ zero_extendqisi2
 1156 00d8 7375     		strb	r3, [r6, #21]
 117:..\..\..\lvgl\version_6.1.2\lvgl\src\lv_objx/lv_gauge.c ****     }
 1157              		.loc 1 117 0
 1158 00da 2046     		mov	r0, r4
 1159 00dc FFF7FEFF 		bl	lv_obj_refresh_style
 1160              	.LVL139:
 1161 00e0 2046     		mov	r0, r4
 1162 00e2 BDE8F883 		pop	{r3, r4, r5, r6, r7, r8, r9, pc}
 1163              	.LVL140:
 1164              	.L83:
 1165              	.LBE111:
 1166              	.LBB119:
 1167              	.LBB120:
 1168              	.LBB121:
 205:..\..\..\lvgl\version_6.1.2\lvgl\src\lv_objx/lv_gauge.c **** 
 1169              		.loc 1 205 0
 1170 00e6 1522     		movs	r2, #21
 1171 00e8 DC21     		movs	r1, #220
 1172 00ea 2046     		mov	r0, r4
 1173 00ec FFF7FEFF 		bl	lv_lmeter_set_scale
 1174              	.LVL141:
 207:..\..\..\lvgl\version_6.1.2\lvgl\src\lv_objx/lv_gauge.c ****     ext->label_count     = label_cnt;
 1175              		.loc 1 207 0
ARM GAS  C:\Users\pearlstl\AppData\Local\Temp\cccjDn63.s 			page 37


 1176 00f0 2046     		mov	r0, r4
 1177 00f2 FFF7FEFF 		bl	lv_obj_get_ext_attr
 1178              	.LVL142:
 208:..\..\..\lvgl\version_6.1.2\lvgl\src\lv_objx/lv_gauge.c ****     lv_obj_invalidate(gauge);
 1179              		.loc 1 208 0
 1180 00f6 0623     		movs	r3, #6
 1181 00f8 4375     		strb	r3, [r0, #21]
 209:..\..\..\lvgl\version_6.1.2\lvgl\src\lv_objx/lv_gauge.c **** }
 1182              		.loc 1 209 0
 1183 00fa 2046     		mov	r0, r4
 1184              	.LVL143:
 1185 00fc FFF7FEFF 		bl	lv_obj_invalidate
 1186              	.LVL144:
 1187              	.LBE121:
 1188              	.LBE120:
 1189              	.LBB122:
 1190              	.LBB123:
 139:..\..\..\lvgl\version_6.1.2\lvgl\src\lv_objx/lv_gauge.c **** 
 1191              		.loc 1 139 0
 1192 0100 2046     		mov	r0, r4
 1193 0102 FFF7FEFF 		bl	lv_obj_get_ext_attr
 1194              	.LVL145:
 141:..\..\..\lvgl\version_6.1.2\lvgl\src\lv_objx/lv_gauge.c ****         if(ext->values != NULL) {
 1195              		.loc 1 141 0
 1196 0106 037D     		ldrb	r3, [r0, #20]	@ zero_extendqisi2
 1197 0108 012B     		cmp	r3, #1
 139:..\..\..\lvgl\version_6.1.2\lvgl\src\lv_objx/lv_gauge.c **** 
 1198              		.loc 1 139 0
 1199 010a 0546     		mov	r5, r0
 1200              	.LVL146:
 141:..\..\..\lvgl\version_6.1.2\lvgl\src\lv_objx/lv_gauge.c ****         if(ext->values != NULL) {
 1201              		.loc 1 141 0
 1202 010c 13D0     		beq	.L46
 1203              	.LBB124:
 142:..\..\..\lvgl\version_6.1.2\lvgl\src\lv_objx/lv_gauge.c ****             lv_mem_free(ext->values);
 1204              		.loc 1 142 0
 1205 010e C068     		ldr	r0, [r0, #12]
 1206              	.LVL147:
 1207 0110 10B1     		cbz	r0, .L47
 143:..\..\..\lvgl\version_6.1.2\lvgl\src\lv_objx/lv_gauge.c ****             ext->values = NULL;
 1208              		.loc 1 143 0
 1209 0112 FFF7FEFF 		bl	lv_mem_free
 1210              	.LVL148:
 144:..\..\..\lvgl\version_6.1.2\lvgl\src\lv_objx/lv_gauge.c ****         }
 1211              		.loc 1 144 0
 1212 0116 EF60     		str	r7, [r5, #12]
 1213              	.L47:
 147:..\..\..\lvgl\version_6.1.2\lvgl\src\lv_objx/lv_gauge.c ****         LV_ASSERT_MEM(ext->values);
 1214              		.loc 1 147 0
 1215 0118 0221     		movs	r1, #2
 1216 011a 0020     		movs	r0, #0
 1217 011c FFF7FEFF 		bl	lv_mem_realloc
 1218              	.LVL149:
 1219 0120 E860     		str	r0, [r5, #12]
 149:..\..\..\lvgl\version_6.1.2\lvgl\src\lv_objx/lv_gauge.c **** 
 1220              		.loc 1 149 0
 1221 0122 68B1     		cbz	r0, .L48
ARM GAS  C:\Users\pearlstl\AppData\Local\Temp\cccjDn63.s 			page 38


 1222              	.LVL150:
 1223              	.LBB125:
 1224              	.LBB126:
 161:..\..\..\lvgl\version_6.1.2\lvgl\src\lv_objx/lv_gauge.h **** }
 1225              		.loc 2 161 0
 1226 0124 2046     		mov	r0, r4
 1227 0126 FFF7FEFF 		bl	lv_lmeter_get_min_value
 1228              	.LVL151:
 1229              	.LBE126:
 1230              	.LBE125:
 153:..\..\..\lvgl\version_6.1.2\lvgl\src\lv_objx/lv_gauge.c ****             ext->values[n] = min;
 1231              		.loc 1 153 0
 1232 012a 2B7D     		ldrb	r3, [r5, #20]	@ zero_extendqisi2
 1233 012c 0BB9     		cbnz	r3, .L49
 1234              	.LVL152:
 154:..\..\..\lvgl\version_6.1.2\lvgl\src\lv_objx/lv_gauge.c ****         }
 1235              		.loc 1 154 0
 1236 012e EB68     		ldr	r3, [r5, #12]
 1237 0130 1880     		strh	r0, [r3]	@ movhi
 1238              	.LVL153:
 1239              	.L49:
 157:..\..\..\lvgl\version_6.1.2\lvgl\src\lv_objx/lv_gauge.c ****     }
 1240              		.loc 1 157 0
 1241 0132 0123     		movs	r3, #1
 1242 0134 2B75     		strb	r3, [r5, #20]
 1243              	.L46:
 1244              	.LBE124:
 160:..\..\..\lvgl\version_6.1.2\lvgl\src\lv_objx/lv_gauge.c ****     lv_obj_invalidate(gauge);
 1245              		.loc 1 160 0
 1246 0136 0023     		movs	r3, #0
 1247 0138 2B61     		str	r3, [r5, #16]
 161:..\..\..\lvgl\version_6.1.2\lvgl\src\lv_objx/lv_gauge.c **** }
 1248              		.loc 1 161 0
 1249 013a 2046     		mov	r0, r4
 1250 013c FFF7FEFF 		bl	lv_obj_invalidate
 1251              	.LVL154:
 1252              	.L48:
 1253              	.LBE123:
 1254              	.LBE122:
 1255              	.LBB127:
 1256              	.LBB128:
 109:..\..\..\lvgl\version_6.1.2\lvgl\src\lv_objx/lv_gauge.h **** }
 1257              		.loc 2 109 0
 1258 0140 5021     		movs	r1, #80
 1259 0142 2046     		mov	r0, r4
 1260 0144 FFF7FEFF 		bl	lv_lmeter_set_value
 1261              	.LVL155:
 1262              	.LBE128:
 1263              	.LBE127:
  96:..\..\..\lvgl\version_6.1.2\lvgl\src\lv_objx/lv_gauge.c **** 
 1264              		.loc 1 96 0
 1265 0148 4FF49672 		mov	r2, #300
 1266 014c 1146     		mov	r1, r2
 1267 014e 2046     		mov	r0, r4
 1268 0150 FFF7FEFF 		bl	lv_obj_set_size
 1269              	.LVL156:
  99:..\..\..\lvgl\version_6.1.2\lvgl\src\lv_objx/lv_gauge.c ****         if(th) {
ARM GAS  C:\Users\pearlstl\AppData\Local\Temp\cccjDn63.s 			page 39


 1270              		.loc 1 99 0
 1271 0154 FFF7FEFF 		bl	lv_theme_get_current
 1272              	.LVL157:
 100:..\..\..\lvgl\version_6.1.2\lvgl\src\lv_objx/lv_gauge.c ****             lv_gauge_set_style(new_gauge, LV_GAUGE_STYLE_MAIN, th->style.gauge);
 1273              		.loc 1 100 0
 1274 0158 98B1     		cbz	r0, .L50
 1275              	.LVL158:
 1276              	.LBB129:
 1277              	.LBB130:
 132:..\..\..\lvgl\version_6.1.2\lvgl\src\lv_objx/lv_gauge.h **** }
 1278              		.loc 2 132 0
 1279 015a C16E     		ldr	r1, [r0, #108]
 1280 015c 2046     		mov	r0, r4
 1281              	.LVL159:
 1282 015e FFF7FEFF 		bl	lv_obj_set_style
 1283              	.LVL160:
 1284 0162 2046     		mov	r0, r4
 1285 0164 BDE8F883 		pop	{r3, r4, r5, r6, r7, r8, r9, pc}
 1286              	.LVL161:
 1287              	.L42:
 1288              	.LBE130:
 1289              	.LBE129:
 1290              	.LBE119:
  72:..\..\..\lvgl\version_6.1.2\lvgl\src\lv_objx/lv_gauge.c **** 
 1291              		.loc 1 72 0
 1292 0168 0020     		movs	r0, #0
 1293 016a BDE8F883 		pop	{r3, r4, r5, r6, r7, r8, r9, pc}
 1294              	.LVL162:
 1295              	.L81:
  84:..\..\..\lvgl\version_6.1.2\lvgl\src\lv_objx/lv_gauge.c ****     if(ancestor_design == NULL) ancestor_design = lv_obj_get_design_cb(new_gauge);
 1296              		.loc 1 84 0 discriminator 1
 1297 016e 2046     		mov	r0, r4
 1298              	.LVL163:
 1299 0170 FFF7FEFF 		bl	lv_obj_get_signal_cb
 1300              	.LVL164:
 1301 0174 6860     		str	r0, [r5, #4]
 1302 0176 5EE7     		b	.L43
 1303              	.L82:
  85:..\..\..\lvgl\version_6.1.2\lvgl\src\lv_objx/lv_gauge.c **** 
 1304              		.loc 1 85 0 discriminator 1
 1305 0178 2046     		mov	r0, r4
 1306 017a FFF7FEFF 		bl	lv_obj_get_design_cb
 1307              	.LVL165:
 1308 017e 2860     		str	r0, [r5]
 1309 0180 5EE7     		b	.L44
 1310              	.LVL166:
 1311              	.L50:
 1312              	.LBB133:
 1313              	.LBB131:
 1314              	.LBB132:
 132:..\..\..\lvgl\version_6.1.2\lvgl\src\lv_objx/lv_gauge.h **** }
 1315              		.loc 2 132 0
 1316 0182 2046     		mov	r0, r4
 1317              	.LVL167:
 1318 0184 0549     		ldr	r1, .L84+12
 1319 0186 FFF7FEFF 		bl	lv_obj_set_style
 1320              	.LVL168:
ARM GAS  C:\Users\pearlstl\AppData\Local\Temp\cccjDn63.s 			page 40


 1321 018a 2046     		mov	r0, r4
 1322 018c BDE8F883 		pop	{r3, r4, r5, r6, r7, r8, r9, pc}
 1323              	.LVL169:
 1324              	.L85:
 1325              		.align	2
 1326              	.L84:
 1327 0190 00000000 		.word	.LANCHOR0
 1328 0194 00000000 		.word	lv_gauge_signal
 1329 0198 00000000 		.word	lv_gauge_design
 1330 019c 00000000 		.word	lv_style_pretty_color
 1331              	.LBE132:
 1332              	.LBE131:
 1333              	.LBE133:
 1334              		.cfi_endproc
 1335              	.LFE47:
 1336              		.size	lv_gauge_create, .-lv_gauge_create
 1337              		.section	.text.lv_gauge_set_needle_count,"ax",%progbits
 1338              		.align	2
 1339              		.global	lv_gauge_set_needle_count
 1340              		.thumb
 1341              		.thumb_func
 1342              		.type	lv_gauge_set_needle_count, %function
 1343              	lv_gauge_set_needle_count:
 1344              	.LFB48:
 136:..\..\..\lvgl\version_6.1.2\lvgl\src\lv_objx/lv_gauge.c ****     LV_ASSERT_OBJ(gauge, LV_OBJX_NAME);
 1345              		.loc 1 136 0
 1346              		.cfi_startproc
 1347              		@ args = 0, pretend = 0, frame = 0
 1348              		@ frame_needed = 0, uses_anonymous_args = 0
 1349              	.LVL170:
 1350 0000 F8B5     		push	{r3, r4, r5, r6, r7, lr}
 1351              		.cfi_def_cfa_offset 24
 1352              		.cfi_offset 3, -24
 1353              		.cfi_offset 4, -20
 1354              		.cfi_offset 5, -16
 1355              		.cfi_offset 6, -12
 1356              		.cfi_offset 7, -8
 1357              		.cfi_offset 14, -4
 136:..\..\..\lvgl\version_6.1.2\lvgl\src\lv_objx/lv_gauge.c ****     LV_ASSERT_OBJ(gauge, LV_OBJX_NAME);
 1358              		.loc 1 136 0
 1359 0002 0C46     		mov	r4, r1
 1360 0004 1746     		mov	r7, r2
 1361 0006 0646     		mov	r6, r0
 139:..\..\..\lvgl\version_6.1.2\lvgl\src\lv_objx/lv_gauge.c **** 
 1362              		.loc 1 139 0
 1363 0008 FFF7FEFF 		bl	lv_obj_get_ext_attr
 1364              	.LVL171:
 141:..\..\..\lvgl\version_6.1.2\lvgl\src\lv_objx/lv_gauge.c ****         if(ext->values != NULL) {
 1365              		.loc 1 141 0
 1366 000c 037D     		ldrb	r3, [r0, #20]	@ zero_extendqisi2
 1367 000e A342     		cmp	r3, r4
 139:..\..\..\lvgl\version_6.1.2\lvgl\src\lv_objx/lv_gauge.c **** 
 1368              		.loc 1 139 0
 1369 0010 0546     		mov	r5, r0
 1370              	.LVL172:
 141:..\..\..\lvgl\version_6.1.2\lvgl\src\lv_objx/lv_gauge.c ****         if(ext->values != NULL) {
 1371              		.loc 1 141 0
ARM GAS  C:\Users\pearlstl\AppData\Local\Temp\cccjDn63.s 			page 41


 1372 0012 19D0     		beq	.L87
 1373              	.LBB134:
 142:..\..\..\lvgl\version_6.1.2\lvgl\src\lv_objx/lv_gauge.c ****             lv_mem_free(ext->values);
 1374              		.loc 1 142 0
 1375 0014 C068     		ldr	r0, [r0, #12]
 1376              	.LVL173:
 1377 0016 18B1     		cbz	r0, .L88
 143:..\..\..\lvgl\version_6.1.2\lvgl\src\lv_objx/lv_gauge.c ****             ext->values = NULL;
 1378              		.loc 1 143 0
 1379 0018 FFF7FEFF 		bl	lv_mem_free
 1380              	.LVL174:
 144:..\..\..\lvgl\version_6.1.2\lvgl\src\lv_objx/lv_gauge.c ****         }
 1381              		.loc 1 144 0
 1382 001c 0023     		movs	r3, #0
 1383 001e EB60     		str	r3, [r5, #12]
 1384              	.L88:
 147:..\..\..\lvgl\version_6.1.2\lvgl\src\lv_objx/lv_gauge.c ****         LV_ASSERT_MEM(ext->values);
 1385              		.loc 1 147 0
 1386 0020 6100     		lsls	r1, r4, #1
 1387 0022 0020     		movs	r0, #0
 1388 0024 FFF7FEFF 		bl	lv_mem_realloc
 1389              	.LVL175:
 1390 0028 E860     		str	r0, [r5, #12]
 149:..\..\..\lvgl\version_6.1.2\lvgl\src\lv_objx/lv_gauge.c **** 
 1391              		.loc 1 149 0
 1392 002a 98B1     		cbz	r0, .L86
 1393              	.LVL176:
 1394              	.LBB135:
 1395              	.LBB136:
 161:..\..\..\lvgl\version_6.1.2\lvgl\src\lv_objx/lv_gauge.h **** }
 1396              		.loc 2 161 0
 1397 002c 3046     		mov	r0, r6
 1398 002e FFF7FEFF 		bl	lv_lmeter_get_min_value
 1399              	.LVL177:
 1400              	.LBE136:
 1401              	.LBE135:
 153:..\..\..\lvgl\version_6.1.2\lvgl\src\lv_objx/lv_gauge.c ****             ext->values[n] = min;
 1402              		.loc 1 153 0
 1403 0032 2B7D     		ldrb	r3, [r5, #20]	@ zero_extendqisi2
 1404              	.LVL178:
 1405 0034 9C42     		cmp	r4, r3
 1406 0036 06D9     		bls	.L92
 1407 0038 EA68     		ldr	r2, [r5, #12]
 1408              	.L91:
 154:..\..\..\lvgl\version_6.1.2\lvgl\src\lv_objx/lv_gauge.c ****         }
 1409              		.loc 1 154 0 discriminator 3
 1410 003a 22F81300 		strh	r0, [r2, r3, lsl #1]	@ movhi
 153:..\..\..\lvgl\version_6.1.2\lvgl\src\lv_objx/lv_gauge.c ****             ext->values[n] = min;
 1411              		.loc 1 153 0 discriminator 3
 1412 003e 0133     		adds	r3, r3, #1
 1413              	.LVL179:
 1414 0040 DBB2     		uxtb	r3, r3
 1415              	.LVL180:
 1416 0042 9C42     		cmp	r4, r3
 1417 0044 F9D1     		bne	.L91
 1418              	.L92:
 157:..\..\..\lvgl\version_6.1.2\lvgl\src\lv_objx/lv_gauge.c ****     }
ARM GAS  C:\Users\pearlstl\AppData\Local\Temp\cccjDn63.s 			page 42


 1419              		.loc 1 157 0
 1420 0046 2C75     		strb	r4, [r5, #20]
 1421              	.LVL181:
 1422              	.L87:
 1423              	.LBE134:
 160:..\..\..\lvgl\version_6.1.2\lvgl\src\lv_objx/lv_gauge.c ****     lv_obj_invalidate(gauge);
 1424              		.loc 1 160 0
 1425 0048 2F61     		str	r7, [r5, #16]
 161:..\..\..\lvgl\version_6.1.2\lvgl\src\lv_objx/lv_gauge.c **** }
 1426              		.loc 1 161 0
 1427 004a 3046     		mov	r0, r6
 162:..\..\..\lvgl\version_6.1.2\lvgl\src\lv_objx/lv_gauge.c **** 
 1428              		.loc 1 162 0
 1429 004c BDE8F840 		pop	{r3, r4, r5, r6, r7, lr}
 1430              		.cfi_remember_state
 1431              		.cfi_restore 14
 1432              		.cfi_restore 7
 1433              		.cfi_restore 6
 1434              		.cfi_restore 5
 1435              		.cfi_restore 4
 1436              		.cfi_restore 3
 1437              		.cfi_def_cfa_offset 0
 1438              	.LVL182:
 161:..\..\..\lvgl\version_6.1.2\lvgl\src\lv_objx/lv_gauge.c **** }
 1439              		.loc 1 161 0
 1440 0050 FFF7FEBF 		b	lv_obj_invalidate
 1441              	.LVL183:
 1442              	.L86:
 1443              		.cfi_restore_state
 1444 0054 F8BD     		pop	{r3, r4, r5, r6, r7, pc}
 1445              		.cfi_endproc
 1446              	.LFE48:
 1447              		.size	lv_gauge_set_needle_count, .-lv_gauge_set_needle_count
 1448 0056 00BF     		.section	.text.lv_gauge_set_value,"ax",%progbits
 1449              		.align	2
 1450              		.global	lv_gauge_set_value
 1451              		.thumb
 1452              		.thumb_func
 1453              		.type	lv_gauge_set_value, %function
 1454              	lv_gauge_set_value:
 1455              	.LFB49:
 171:..\..\..\lvgl\version_6.1.2\lvgl\src\lv_objx/lv_gauge.c ****     LV_ASSERT_OBJ(gauge, LV_OBJX_NAME);
 1456              		.loc 1 171 0
 1457              		.cfi_startproc
 1458              		@ args = 0, pretend = 0, frame = 0
 1459              		@ frame_needed = 0, uses_anonymous_args = 0
 1460              	.LVL184:
 1461 0000 2DE9F041 		push	{r4, r5, r6, r7, r8, lr}
 1462              		.cfi_def_cfa_offset 24
 1463              		.cfi_offset 4, -24
 1464              		.cfi_offset 5, -20
 1465              		.cfi_offset 6, -16
 1466              		.cfi_offset 7, -12
 1467              		.cfi_offset 8, -8
 1468              		.cfi_offset 14, -4
 171:..\..\..\lvgl\version_6.1.2\lvgl\src\lv_objx/lv_gauge.c ****     LV_ASSERT_OBJ(gauge, LV_OBJX_NAME);
 1469              		.loc 1 171 0
ARM GAS  C:\Users\pearlstl\AppData\Local\Temp\cccjDn63.s 			page 43


 1470 0004 0C46     		mov	r4, r1
 1471 0006 1646     		mov	r6, r2
 1472 0008 0746     		mov	r7, r0
 174:..\..\..\lvgl\version_6.1.2\lvgl\src\lv_objx/lv_gauge.c **** 
 1473              		.loc 1 174 0
 1474 000a FFF7FEFF 		bl	lv_obj_get_ext_attr
 1475              	.LVL185:
 176:..\..\..\lvgl\version_6.1.2\lvgl\src\lv_objx/lv_gauge.c ****     if(ext->values[needle_id] == value) return;
 1476              		.loc 1 176 0
 1477 000e 037D     		ldrb	r3, [r0, #20]	@ zero_extendqisi2
 1478 0010 A342     		cmp	r3, r4
 1479 0012 18D9     		bls	.L98
 177:..\..\..\lvgl\version_6.1.2\lvgl\src\lv_objx/lv_gauge.c **** 
 1480              		.loc 1 177 0
 1481 0014 24B2     		sxth	r4, r4
 1482 0016 C368     		ldr	r3, [r0, #12]
 1483 0018 33F91430 		ldrsh	r3, [r3, r4, lsl #1]
 1484 001c B342     		cmp	r3, r6
 1485 001e 0546     		mov	r5, r0
 1486 0020 11D0     		beq	.L98
 1487              	.LVL186:
 1488              	.LBB137:
 1489              	.LBB138:
 161:..\..\..\lvgl\version_6.1.2\lvgl\src\lv_objx/lv_gauge.h **** }
 1490              		.loc 2 161 0
 1491 0022 3846     		mov	r0, r7
 1492              	.LVL187:
 1493 0024 FFF7FEFF 		bl	lv_lmeter_get_min_value
 1494              	.LVL188:
 1495 0028 8046     		mov	r8, r0
 1496              	.LVL189:
 1497              	.LBE138:
 1498              	.LBE137:
 1499              	.LBB139:
 1500              	.LBB140:
 171:..\..\..\lvgl\version_6.1.2\lvgl\src\lv_objx/lv_gauge.h **** }
 1501              		.loc 2 171 0
 1502 002a 3846     		mov	r0, r7
 1503 002c FFF7FEFF 		bl	lv_lmeter_get_max_value
 1504              	.LVL190:
 1505              	.LBE140:
 1506              	.LBE139:
 182:..\..\..\lvgl\version_6.1.2\lvgl\src\lv_objx/lv_gauge.c ****         value = max;
 1507              		.loc 1 182 0
 1508 0030 8642     		cmp	r6, r0
 1509              	.LBB142:
 1510              	.LBB141:
 171:..\..\..\lvgl\version_6.1.2\lvgl\src\lv_objx/lv_gauge.h **** }
 1511              		.loc 2 171 0
 1512 0032 0346     		mov	r3, r0
 1513              	.LVL191:
 1514              	.LBE141:
 1515              	.LBE142:
 182:..\..\..\lvgl\version_6.1.2\lvgl\src\lv_objx/lv_gauge.c ****         value = max;
 1516              		.loc 1 182 0
 1517 0034 09DD     		ble	.L102
 1518              	.L100:
ARM GAS  C:\Users\pearlstl\AppData\Local\Temp\cccjDn63.s 			page 44


 1519              	.LVL192:
 187:..\..\..\lvgl\version_6.1.2\lvgl\src\lv_objx/lv_gauge.c **** 
 1520              		.loc 1 187 0
 1521 0036 EA68     		ldr	r2, [r5, #12]
 189:..\..\..\lvgl\version_6.1.2\lvgl\src\lv_objx/lv_gauge.c **** }
 1522              		.loc 1 189 0
 1523 0038 3846     		mov	r0, r7
 187:..\..\..\lvgl\version_6.1.2\lvgl\src\lv_objx/lv_gauge.c **** 
 1524              		.loc 1 187 0
 1525 003a 22F81430 		strh	r3, [r2, r4, lsl #1]	@ movhi
 190:..\..\..\lvgl\version_6.1.2\lvgl\src\lv_objx/lv_gauge.c **** 
 1526              		.loc 1 190 0
 1527 003e BDE8F041 		pop	{r4, r5, r6, r7, r8, lr}
 1528              		.cfi_remember_state
 1529              		.cfi_restore 14
 1530              		.cfi_restore 8
 1531              		.cfi_restore 7
 1532              		.cfi_restore 6
 1533              		.cfi_restore 5
 1534              		.cfi_restore 4
 1535              		.cfi_def_cfa_offset 0
 1536              	.LVL193:
 189:..\..\..\lvgl\version_6.1.2\lvgl\src\lv_objx/lv_gauge.c **** }
 1537              		.loc 1 189 0
 1538 0042 FFF7FEBF 		b	lv_obj_invalidate
 1539              	.LVL194:
 1540              	.L98:
 1541              		.cfi_restore_state
 1542 0046 BDE8F081 		pop	{r4, r5, r6, r7, r8, pc}
 1543              	.LVL195:
 1544              	.L102:
 1545 004a 4645     		cmp	r6, r8
 1546 004c B8BF     		it	lt
 1547 004e 4646     		movlt	r6, r8
 1548 0050 33B2     		sxth	r3, r6
 1549 0052 F0E7     		b	.L100
 1550              		.cfi_endproc
 1551              	.LFE49:
 1552              		.size	lv_gauge_set_value, .-lv_gauge_set_value
 1553              		.section	.text.lv_gauge_set_scale,"ax",%progbits
 1554              		.align	2
 1555              		.global	lv_gauge_set_scale
 1556              		.thumb
 1557              		.thumb_func
 1558              		.type	lv_gauge_set_scale, %function
 1559              	lv_gauge_set_scale:
 1560              	.LFB50:
 202:..\..\..\lvgl\version_6.1.2\lvgl\src\lv_objx/lv_gauge.c ****     LV_ASSERT_OBJ(gauge, LV_OBJX_NAME);
 1561              		.loc 1 202 0
 1562              		.cfi_startproc
 1563              		@ args = 0, pretend = 0, frame = 0
 1564              		@ frame_needed = 0, uses_anonymous_args = 0
 1565              	.LVL196:
 1566 0000 38B5     		push	{r3, r4, r5, lr}
 1567              		.cfi_def_cfa_offset 16
 1568              		.cfi_offset 3, -16
 1569              		.cfi_offset 4, -12
ARM GAS  C:\Users\pearlstl\AppData\Local\Temp\cccjDn63.s 			page 45


 1570              		.cfi_offset 5, -8
 1571              		.cfi_offset 14, -4
 202:..\..\..\lvgl\version_6.1.2\lvgl\src\lv_objx/lv_gauge.c ****     LV_ASSERT_OBJ(gauge, LV_OBJX_NAME);
 1572              		.loc 1 202 0
 1573 0002 0446     		mov	r4, r0
 1574 0004 1D46     		mov	r5, r3
 205:..\..\..\lvgl\version_6.1.2\lvgl\src\lv_objx/lv_gauge.c **** 
 1575              		.loc 1 205 0
 1576 0006 FFF7FEFF 		bl	lv_lmeter_set_scale
 1577              	.LVL197:
 207:..\..\..\lvgl\version_6.1.2\lvgl\src\lv_objx/lv_gauge.c ****     ext->label_count     = label_cnt;
 1578              		.loc 1 207 0
 1579 000a 2046     		mov	r0, r4
 1580 000c FFF7FEFF 		bl	lv_obj_get_ext_attr
 1581              	.LVL198:
 208:..\..\..\lvgl\version_6.1.2\lvgl\src\lv_objx/lv_gauge.c ****     lv_obj_invalidate(gauge);
 1582              		.loc 1 208 0
 1583 0010 4575     		strb	r5, [r0, #21]
 209:..\..\..\lvgl\version_6.1.2\lvgl\src\lv_objx/lv_gauge.c **** }
 1584              		.loc 1 209 0
 1585 0012 2046     		mov	r0, r4
 1586              	.LVL199:
 210:..\..\..\lvgl\version_6.1.2\lvgl\src\lv_objx/lv_gauge.c **** 
 1587              		.loc 1 210 0
 1588 0014 BDE83840 		pop	{r3, r4, r5, lr}
 1589              		.cfi_restore 14
 1590              		.cfi_restore 5
 1591              		.cfi_restore 4
 1592              		.cfi_restore 3
 1593              		.cfi_def_cfa_offset 0
 1594              	.LVL200:
 209:..\..\..\lvgl\version_6.1.2\lvgl\src\lv_objx/lv_gauge.c **** }
 1595              		.loc 1 209 0
 1596 0018 FFF7FEBF 		b	lv_obj_invalidate
 1597              	.LVL201:
 1598              		.cfi_endproc
 1599              	.LFE50:
 1600              		.size	lv_gauge_set_scale, .-lv_gauge_set_scale
 1601              		.section	.text.lv_gauge_get_value,"ax",%progbits
 1602              		.align	2
 1603              		.global	lv_gauge_get_value
 1604              		.thumb
 1605              		.thumb_func
 1606              		.type	lv_gauge_get_value, %function
 1607              	lv_gauge_get_value:
 1608              	.LFB51:
 223:..\..\..\lvgl\version_6.1.2\lvgl\src\lv_objx/lv_gauge.c ****     LV_ASSERT_OBJ(gauge, LV_OBJX_NAME);
 1609              		.loc 1 223 0
 1610              		.cfi_startproc
 1611              		@ args = 0, pretend = 0, frame = 0
 1612              		@ frame_needed = 0, uses_anonymous_args = 0
 1613              	.LVL202:
 1614 0000 70B5     		push	{r4, r5, r6, lr}
 1615              		.cfi_def_cfa_offset 16
 1616              		.cfi_offset 4, -16
 1617              		.cfi_offset 5, -12
 1618              		.cfi_offset 6, -8
ARM GAS  C:\Users\pearlstl\AppData\Local\Temp\cccjDn63.s 			page 46


 1619              		.cfi_offset 14, -4
 223:..\..\..\lvgl\version_6.1.2\lvgl\src\lv_objx/lv_gauge.c ****     LV_ASSERT_OBJ(gauge, LV_OBJX_NAME);
 1620              		.loc 1 223 0
 1621 0002 0C46     		mov	r4, r1
 1622 0004 0646     		mov	r6, r0
 226:..\..\..\lvgl\version_6.1.2\lvgl\src\lv_objx/lv_gauge.c ****     int16_t min          = lv_gauge_get_min_value(gauge);
 1623              		.loc 1 226 0
 1624 0006 FFF7FEFF 		bl	lv_obj_get_ext_attr
 1625              	.LVL203:
 1626 000a 0546     		mov	r5, r0
 1627              	.LVL204:
 1628              	.LBB143:
 1629              	.LBB144:
 161:..\..\..\lvgl\version_6.1.2\lvgl\src\lv_objx/lv_gauge.h **** }
 1630              		.loc 2 161 0
 1631 000c 3046     		mov	r0, r6
 1632              	.LVL205:
 1633 000e FFF7FEFF 		bl	lv_lmeter_get_min_value
 1634              	.LVL206:
 1635              	.LBE144:
 1636              	.LBE143:
 229:..\..\..\lvgl\version_6.1.2\lvgl\src\lv_objx/lv_gauge.c **** 
 1637              		.loc 1 229 0
 1638 0012 2B7D     		ldrb	r3, [r5, #20]	@ zero_extendqisi2
 1639 0014 A342     		cmp	r3, r4
 231:..\..\..\lvgl\version_6.1.2\lvgl\src\lv_objx/lv_gauge.c **** }
 1640              		.loc 1 231 0
 1641 0016 84BF     		itt	hi
 1642 0018 EB68     		ldrhi	r3, [r5, #12]
 1643 001a 33F91400 		ldrshhi	r0, [r3, r4, lsl #1]
 232:..\..\..\lvgl\version_6.1.2\lvgl\src\lv_objx/lv_gauge.c **** 
 1644              		.loc 1 232 0
 1645 001e 70BD     		pop	{r4, r5, r6, pc}
 1646              		.cfi_endproc
 1647              	.LFE51:
 1648              		.size	lv_gauge_get_value, .-lv_gauge_get_value
 1649              		.section	.text.lv_gauge_get_needle_count,"ax",%progbits
 1650              		.align	2
 1651              		.global	lv_gauge_get_needle_count
 1652              		.thumb
 1653              		.thumb_func
 1654              		.type	lv_gauge_get_needle_count, %function
 1655              	lv_gauge_get_needle_count:
 1656              	.LFB52:
 240:..\..\..\lvgl\version_6.1.2\lvgl\src\lv_objx/lv_gauge.c ****     LV_ASSERT_OBJ(gauge, LV_OBJX_NAME);
 1657              		.loc 1 240 0
 1658              		.cfi_startproc
 1659              		@ args = 0, pretend = 0, frame = 0
 1660              		@ frame_needed = 0, uses_anonymous_args = 0
 1661              	.LVL207:
 1662 0000 08B5     		push	{r3, lr}
 1663              		.cfi_def_cfa_offset 8
 1664              		.cfi_offset 3, -8
 1665              		.cfi_offset 14, -4
 243:..\..\..\lvgl\version_6.1.2\lvgl\src\lv_objx/lv_gauge.c ****     return ext->needle_count;
 1666              		.loc 1 243 0
 1667 0002 FFF7FEFF 		bl	lv_obj_get_ext_attr
ARM GAS  C:\Users\pearlstl\AppData\Local\Temp\cccjDn63.s 			page 47


 1668              	.LVL208:
 245:..\..\..\lvgl\version_6.1.2\lvgl\src\lv_objx/lv_gauge.c **** 
 1669              		.loc 1 245 0
 1670 0006 007D     		ldrb	r0, [r0, #20]	@ zero_extendqisi2
 1671              	.LVL209:
 1672 0008 08BD     		pop	{r3, pc}
 1673              		.cfi_endproc
 1674              	.LFE52:
 1675              		.size	lv_gauge_get_needle_count, .-lv_gauge_get_needle_count
 1676 000a 00BF     		.section	.text.lv_gauge_get_label_count,"ax",%progbits
 1677              		.align	2
 1678              		.global	lv_gauge_get_label_count
 1679              		.thumb
 1680              		.thumb_func
 1681              		.type	lv_gauge_get_label_count, %function
 1682              	lv_gauge_get_label_count:
 1683              	.LFB53:
 253:..\..\..\lvgl\version_6.1.2\lvgl\src\lv_objx/lv_gauge.c ****     LV_ASSERT_OBJ(gauge, LV_OBJX_NAME);
 1684              		.loc 1 253 0
 1685              		.cfi_startproc
 1686              		@ args = 0, pretend = 0, frame = 0
 1687              		@ frame_needed = 0, uses_anonymous_args = 0
 1688              	.LVL210:
 1689 0000 08B5     		push	{r3, lr}
 1690              		.cfi_def_cfa_offset 8
 1691              		.cfi_offset 3, -8
 1692              		.cfi_offset 14, -4
 256:..\..\..\lvgl\version_6.1.2\lvgl\src\lv_objx/lv_gauge.c ****     return ext->label_count;
 1693              		.loc 1 256 0
 1694 0002 FFF7FEFF 		bl	lv_obj_get_ext_attr
 1695              	.LVL211:
 258:..\..\..\lvgl\version_6.1.2\lvgl\src\lv_objx/lv_gauge.c **** 
 1696              		.loc 1 258 0
 1697 0006 407D     		ldrb	r0, [r0, #21]	@ zero_extendqisi2
 1698              	.LVL212:
 1699 0008 08BD     		pop	{r3, pc}
 1700              		.cfi_endproc
 1701              	.LFE53:
 1702              		.size	lv_gauge_get_label_count, .-lv_gauge_get_label_count
 1703 000a 00BF     		.section	.rodata.str1.4,"aMS",%progbits,1
 1704              		.align	2
 1705              	.LC0:
 1706 0000 6C765F67 		.ascii	"lv_gauge\000"
 1706      61756765 
 1706      00
 1707              		.bss
 1708              		.align	2
 1709              		.set	.LANCHOR0,. + 0
 1710              		.type	ancestor_design, %object
 1711              		.size	ancestor_design, 4
 1712              	ancestor_design:
 1713 0000 00000000 		.space	4
 1714              		.type	ancestor_signal, %object
 1715              		.size	ancestor_signal, 4
 1716              	ancestor_signal:
 1717 0004 00000000 		.space	4
 1718              		.text
ARM GAS  C:\Users\pearlstl\AppData\Local\Temp\cccjDn63.s 			page 48


 1719              	.Letext0:
 1720              		.file 3 "c:\\program files (x86)\\cypress\\psoc creator\\4.2\\psoc creator\\import\\gnu\\arm\\5.4.
 1721              		.file 4 "c:\\program files (x86)\\cypress\\psoc creator\\4.2\\psoc creator\\import\\gnu\\arm\\5.4.
 1722              		.file 5 "..\\..\\..\\lvgl\\version_6.1.2\\lvgl\\src\\lv_objx\\../../../lv_conf.h"
 1723              		.file 6 "..\\..\\..\\lvgl\\version_6.1.2\\lvgl\\src\\lv_objx\\../lv_core/../lv_font/lv_font.h"
 1724              		.file 7 "..\\..\\..\\lvgl\\version_6.1.2\\lvgl\\src\\lv_objx\\../lv_core/../lv_misc/lv_color.h"
 1725              		.file 8 "..\\..\\..\\lvgl\\version_6.1.2\\lvgl\\src\\lv_objx\\../lv_core/../lv_misc/lv_area.h"
 1726              		.file 9 "..\\..\\..\\lvgl\\version_6.1.2\\lvgl\\src\\lv_objx\\../lv_core/lv_style.h"
 1727              		.file 10 "..\\..\\..\\lvgl\\version_6.1.2\\lvgl\\src\\lv_objx\\../lv_core/../lv_misc/lv_types.h"
 1728              		.file 11 "..\\..\\..\\lvgl\\version_6.1.2\\lvgl\\src\\lv_objx\\../lv_core/../lv_misc/lv_ll.h"
 1729              		.file 12 "..\\..\\..\\lvgl\\version_6.1.2\\lvgl\\src\\lv_objx\\../lv_core/../lv_misc/lv_bidi.h"
 1730              		.file 13 "..\\..\\..\\lvgl\\version_6.1.2\\lvgl\\src\\lv_objx\\../lv_core/lv_obj.h"
 1731              		.file 14 "..\\..\\..\\lvgl\\version_6.1.2\\lvgl\\src\\lv_objx\\lv_lmeter.h"
 1732              		.file 15 "..\\..\\..\\lvgl\\version_6.1.2\\lvgl\\src\\lv_objx\\../lv_misc/lv_txt.h"
 1733              		.file 16 "..\\..\\..\\lvgl\\version_6.1.2\\lvgl\\src\\lv_objx\\../lv_themes/lv_theme.h"
 1734              		.file 17 "..\\..\\..\\lvgl\\version_6.1.2\\lvgl\\src\\lv_objx\\../lv_misc/lv_math.h"
 1735              		.file 18 "..\\..\\..\\lvgl\\version_6.1.2\\lvgl\\src\\lv_objx\\../lv_misc/lv_utils.h"
 1736              		.file 19 "..\\..\\..\\lvgl\\version_6.1.2\\lvgl\\src\\lv_objx\\../lv_draw/lv_draw_label.h"
 1737              		.file 20 "..\\..\\..\\lvgl\\version_6.1.2\\lvgl\\src\\lv_objx\\../lv_draw/lv_draw_line.h"
 1738              		.file 21 "..\\..\\..\\lvgl\\version_6.1.2\\lvgl\\src\\lv_objx\\../lv_draw/lv_draw_rect.h"
 1739              		.file 22 "..\\..\\..\\lvgl\\version_6.1.2\\lvgl\\src\\lv_objx\\../lv_core/../lv_misc/lv_mem.h"