ARM GAS  C:\Users\pearlstl\AppData\Local\Temp\ccvQY5Tc.s 			page 1


   1              		.syntax unified
   2              		.cpu cortex-m4
   3              		.eabi_attribute 27, 1
   4              		.fpu fpv4-sp-d16
   5              		.eabi_attribute 20, 1
   6              		.eabi_attribute 21, 1
   7              		.eabi_attribute 23, 3
   8              		.eabi_attribute 24, 1
   9              		.eabi_attribute 25, 1
  10              		.eabi_attribute 26, 1
  11              		.eabi_attribute 30, 2
  12              		.eabi_attribute 34, 1
  13              		.eabi_attribute 18, 4
  14              		.thumb
  15              		.syntax unified
  16              		.file	"lv_gc.c"
  17              		.text
  18              	.Ltext0:
  19              		.cfi_sections	.debug_frame
  20              		.section	.text.lv_gc_clear_roots,"ax",%progbits
  21              		.align	2
  22              		.global	lv_gc_clear_roots
  23              		.thumb
  24              		.thumb_func
  25              		.type	lv_gc_clear_roots, %function
  26              	lv_gc_clear_roots:
  27              	.LFB31:
  28              		.file 1 "..\\..\\..\\lvgl\\version_6.1.2\\lvgl\\src\\lv_misc\\lv_gc.c"
   1:..\..\..\lvgl\version_6.1.2\lvgl\src\lv_misc/lv_gc.c **** /**
   2:..\..\..\lvgl\version_6.1.2\lvgl\src\lv_misc/lv_gc.c ****  * @file lv_gc.c
   3:..\..\..\lvgl\version_6.1.2\lvgl\src\lv_misc/lv_gc.c ****  *
   4:..\..\..\lvgl\version_6.1.2\lvgl\src\lv_misc/lv_gc.c ****  */
   5:..\..\..\lvgl\version_6.1.2\lvgl\src\lv_misc/lv_gc.c **** 
   6:..\..\..\lvgl\version_6.1.2\lvgl\src\lv_misc/lv_gc.c **** /*********************
   7:..\..\..\lvgl\version_6.1.2\lvgl\src\lv_misc/lv_gc.c ****  *      INCLUDES
   8:..\..\..\lvgl\version_6.1.2\lvgl\src\lv_misc/lv_gc.c ****  *********************/
   9:..\..\..\lvgl\version_6.1.2\lvgl\src\lv_misc/lv_gc.c **** 
  10:..\..\..\lvgl\version_6.1.2\lvgl\src\lv_misc/lv_gc.c **** #include "lv_gc.h"
  11:..\..\..\lvgl\version_6.1.2\lvgl\src\lv_misc/lv_gc.c **** #include "string.h"
  12:..\..\..\lvgl\version_6.1.2\lvgl\src\lv_misc/lv_gc.c **** 
  13:..\..\..\lvgl\version_6.1.2\lvgl\src\lv_misc/lv_gc.c **** #if defined(LV_GC_INCLUDE)
  14:..\..\..\lvgl\version_6.1.2\lvgl\src\lv_misc/lv_gc.c **** #include LV_GC_INCLUDE
  15:..\..\..\lvgl\version_6.1.2\lvgl\src\lv_misc/lv_gc.c **** #endif /* LV_ENABLE_GC */
  16:..\..\..\lvgl\version_6.1.2\lvgl\src\lv_misc/lv_gc.c **** 
  17:..\..\..\lvgl\version_6.1.2\lvgl\src\lv_misc/lv_gc.c **** /*********************
  18:..\..\..\lvgl\version_6.1.2\lvgl\src\lv_misc/lv_gc.c ****  *      DEFINES
  19:..\..\..\lvgl\version_6.1.2\lvgl\src\lv_misc/lv_gc.c ****  *********************/
  20:..\..\..\lvgl\version_6.1.2\lvgl\src\lv_misc/lv_gc.c **** 
  21:..\..\..\lvgl\version_6.1.2\lvgl\src\lv_misc/lv_gc.c **** /**********************
  22:..\..\..\lvgl\version_6.1.2\lvgl\src\lv_misc/lv_gc.c ****  *      TYPEDEFS
  23:..\..\..\lvgl\version_6.1.2\lvgl\src\lv_misc/lv_gc.c ****  **********************/
  24:..\..\..\lvgl\version_6.1.2\lvgl\src\lv_misc/lv_gc.c **** 
  25:..\..\..\lvgl\version_6.1.2\lvgl\src\lv_misc/lv_gc.c **** /**********************
  26:..\..\..\lvgl\version_6.1.2\lvgl\src\lv_misc/lv_gc.c ****  *  STATIC PROTOTYPES
  27:..\..\..\lvgl\version_6.1.2\lvgl\src\lv_misc/lv_gc.c ****  **********************/
  28:..\..\..\lvgl\version_6.1.2\lvgl\src\lv_misc/lv_gc.c **** 
  29:..\..\..\lvgl\version_6.1.2\lvgl\src\lv_misc/lv_gc.c **** /**********************
ARM GAS  C:\Users\pearlstl\AppData\Local\Temp\ccvQY5Tc.s 			page 2


  30:..\..\..\lvgl\version_6.1.2\lvgl\src\lv_misc/lv_gc.c ****  *  STATIC VARIABLES
  31:..\..\..\lvgl\version_6.1.2\lvgl\src\lv_misc/lv_gc.c ****  **********************/
  32:..\..\..\lvgl\version_6.1.2\lvgl\src\lv_misc/lv_gc.c **** #if(!defined(LV_ENABLE_GC)) || LV_ENABLE_GC == 0
  33:..\..\..\lvgl\version_6.1.2\lvgl\src\lv_misc/lv_gc.c **** LV_ROOTS
  34:..\..\..\lvgl\version_6.1.2\lvgl\src\lv_misc/lv_gc.c **** #endif /* LV_ENABLE_GC */
  35:..\..\..\lvgl\version_6.1.2\lvgl\src\lv_misc/lv_gc.c **** /**********************
  36:..\..\..\lvgl\version_6.1.2\lvgl\src\lv_misc/lv_gc.c ****  *      MACROS
  37:..\..\..\lvgl\version_6.1.2\lvgl\src\lv_misc/lv_gc.c ****  **********************/
  38:..\..\..\lvgl\version_6.1.2\lvgl\src\lv_misc/lv_gc.c **** 
  39:..\..\..\lvgl\version_6.1.2\lvgl\src\lv_misc/lv_gc.c **** /**********************
  40:..\..\..\lvgl\version_6.1.2\lvgl\src\lv_misc/lv_gc.c ****  *   GLOBAL FUNCTIONS
  41:..\..\..\lvgl\version_6.1.2\lvgl\src\lv_misc/lv_gc.c ****  **********************/
  42:..\..\..\lvgl\version_6.1.2\lvgl\src\lv_misc/lv_gc.c **** 
  43:..\..\..\lvgl\version_6.1.2\lvgl\src\lv_misc/lv_gc.c **** void lv_gc_clear_roots(void)
  44:..\..\..\lvgl\version_6.1.2\lvgl\src\lv_misc/lv_gc.c **** {
  29              		.loc 1 44 0
  30              		.cfi_startproc
  31              		@ args = 0, pretend = 0, frame = 0
  32              		@ frame_needed = 0, uses_anonymous_args = 0
  33 0000 F0B5     		push	{r4, r5, r6, r7, lr}
  34              		.cfi_def_cfa_offset 20
  35              		.cfi_offset 4, -20
  36              		.cfi_offset 5, -16
  37              		.cfi_offset 6, -12
  38              		.cfi_offset 7, -8
  39              		.cfi_offset 14, -4
  45:..\..\..\lvgl\version_6.1.2\lvgl\src\lv_misc/lv_gc.c **** #define LV_CLEAR_ROOT(root_type, root_name) memset(&LV_GC_ROOT(root_name), 0, sizeof(LV_GC_ROOT(roo
  46:..\..\..\lvgl\version_6.1.2\lvgl\src\lv_misc/lv_gc.c ****     LV_ITERATE_ROOTS(LV_CLEAR_ROOT)
  40              		.loc 1 46 0
  41 0002 164A     		ldr	r2, .L3
  42 0004 1649     		ldr	r1, .L3+4
  43 0006 174F     		ldr	r7, .L3+8
  44 0008 174E     		ldr	r6, .L3+12
  45 000a 184D     		ldr	r5, .L3+16
  46 000c 184C     		ldr	r4, .L3+20
  47 000e 1948     		ldr	r0, .L3+24
  48 0010 DFF86CC0 		ldr	ip, .L3+36
  49 0014 DFF86CE0 		ldr	lr, .L3+40
  50 0018 0023     		movs	r3, #0
  51 001a 1360     		str	r3, [r2]
  52 001c 5360     		str	r3, [r2, #4]
  53 001e 9360     		str	r3, [r2, #8]
  54 0020 0B60     		str	r3, [r1]
  55 0022 154A     		ldr	r2, .L3+28
  56 0024 1549     		ldr	r1, .L3+32
  57 0026 3B60     		str	r3, [r7]
  58 0028 7B60     		str	r3, [r7, #4]
  59 002a BB60     		str	r3, [r7, #8]
  60 002c 3360     		str	r3, [r6]
  61 002e 7360     		str	r3, [r6, #4]
  62 0030 B360     		str	r3, [r6, #8]
  63 0032 2B60     		str	r3, [r5]
  64 0034 6B60     		str	r3, [r5, #4]
  65 0036 AB60     		str	r3, [r5, #8]
  66 0038 2360     		str	r3, [r4]
  67 003a 6360     		str	r3, [r4, #4]
  68 003c A360     		str	r3, [r4, #8]
ARM GAS  C:\Users\pearlstl\AppData\Local\Temp\ccvQY5Tc.s 			page 3


  69 003e 0360     		str	r3, [r0]
  70 0040 4360     		str	r3, [r0, #4]
  71 0042 8360     		str	r3, [r0, #8]
  72 0044 0B60     		str	r3, [r1]
  73 0046 4B60     		str	r3, [r1, #4]
  74 0048 8B60     		str	r3, [r1, #8]
  75 004a 1360     		str	r3, [r2]
  76 004c 5360     		str	r3, [r2, #4]
  77 004e 9360     		str	r3, [r2, #8]
  78 0050 CCF80030 		str	r3, [ip]
  79 0054 CEF80030 		str	r3, [lr]
  80 0058 F0BD     		pop	{r4, r5, r6, r7, pc}
  81              	.L4:
  82 005a 00BF     		.align	2
  83              	.L3:
  84 005c 00000000 		.word	_lv_task_ll
  85 0060 00000000 		.word	_lv_task_act
  86 0064 00000000 		.word	_lv_disp_ll
  87 0068 00000000 		.word	_lv_indev_ll
  88 006c 00000000 		.word	_lv_drv_ll
  89 0070 00000000 		.word	_lv_file_ll
  90 0074 00000000 		.word	_lv_anim_ll
  91 0078 00000000 		.word	_lv_img_defoder_ll
  92 007c 00000000 		.word	_lv_group_ll
  93 0080 00000000 		.word	_lv_img_cache_array
  94 0084 00000000 		.word	_lv_draw_buf
  95              		.cfi_endproc
  96              	.LFE31:
  97              		.size	lv_gc_clear_roots, .-lv_gc_clear_roots
  98              		.comm	_lv_draw_buf,4,4
  99              		.comm	_lv_task_act,4,4
 100              		.comm	_lv_img_cache_array,4,4
 101              		.comm	_lv_img_defoder_ll,12,4
 102              		.comm	_lv_group_ll,12,4
 103              		.comm	_lv_anim_ll,12,4
 104              		.comm	_lv_file_ll,12,4
 105              		.comm	_lv_drv_ll,12,4
 106              		.comm	_lv_indev_ll,12,4
 107              		.comm	_lv_disp_ll,12,4
 108              		.comm	_lv_task_ll,12,4
 109              		.text
 110              	.Letext0:
 111              		.file 2 "c:\\program files (x86)\\cypress\\psoc creator\\4.2\\psoc creator\\import\\gnu\\arm\\5.4.
 112              		.file 3 "c:\\program files (x86)\\cypress\\psoc creator\\4.2\\psoc creator\\import\\gnu\\arm\\5.4.
 113              		.file 4 "..\\..\\..\\lvgl\\version_6.1.2\\lvgl\\src\\lv_misc\\../../../lv_conf.h"
 114              		.file 5 "..\\..\\..\\lvgl\\version_6.1.2\\lvgl\\src\\lv_misc\\lv_types.h"
 115              		.file 6 "..\\..\\..\\lvgl\\version_6.1.2\\lvgl\\src\\lv_misc\\lv_ll.h"
 116              		.file 7 "..\\..\\..\\lvgl\\version_6.1.2\\lvgl\\src\\lv_misc\\../lv_draw/../lv_core/../lv_font/lv_
 117              		.file 8 "..\\..\\..\\lvgl\\version_6.1.2\\lvgl\\src\\lv_misc\\../lv_draw/../lv_core/../lv_misc/lv_
 118              		.file 9 "..\\..\\..\\lvgl\\version_6.1.2\\lvgl\\src\\lv_misc\\../lv_draw/../lv_core/lv_style.h"
 119              		.file 10 "..\\..\\..\\lvgl\\version_6.1.2\\lvgl\\src\\lv_misc\\../lv_draw/lv_img_decoder.h"
 120              		.file 11 "..\\..\\..\\lvgl\\version_6.1.2\\lvgl\\src\\lv_misc\\../lv_draw/lv_img_cache.h"