ARM GAS  C:\Users\pearlstl\AppData\Local\Temp\cccjDn63.s 			page 1


   1              		.syntax unified
   2              		.cpu cortex-m4
   3              		.eabi_attribute 27, 1
   4              		.fpu fpv4-sp-d16
   5              		.eabi_attribute 20, 1
   6              		.eabi_attribute 21, 1
   7              		.eabi_attribute 23, 3
   8              		.eabi_attribute 24, 1
   9              		.eabi_attribute 25, 1
  10              		.eabi_attribute 26, 1
  11              		.eabi_attribute 30, 2
  12              		.eabi_attribute 34, 1
  13              		.eabi_attribute 18, 4
  14              		.thumb
  15              		.syntax unified
  16              		.file	"lv_gauge.c"
  17              		.text
  18              	.Ltext0:
  19              		.cfi_sections	.debug_frame
  20              		.section	.text.lv_gauge_design,"ax",%progbits
  21              		.align	2
  22              		.thumb
  23              		.thumb_func
  24              		.type	lv_gauge_design, %function
  25              	lv_gauge_design:
  26              	.LFB54:
  27              		.file 1 "..\\..\\..\\lvgl\\version_6.1.2\\lvgl\\src\\lv_objx\\lv_gauge.c"
   1:..\..\..\lvgl\version_6.1.2\lvgl\src\lv_objx/lv_gauge.c **** /**
   2:..\..\..\lvgl\version_6.1.2\lvgl\src\lv_objx/lv_gauge.c ****  * @file lv_gauge.c
   3:..\..\..\lvgl\version_6.1.2\lvgl\src\lv_objx/lv_gauge.c ****  *
   4:..\..\..\lvgl\version_6.1.2\lvgl\src\lv_objx/lv_gauge.c ****  */
   5:..\..\..\lvgl\version_6.1.2\lvgl\src\lv_objx/lv_gauge.c **** 
   6:..\..\..\lvgl\version_6.1.2\lvgl\src\lv_objx/lv_gauge.c **** /*********************
   7:..\..\..\lvgl\version_6.1.2\lvgl\src\lv_objx/lv_gauge.c ****  *      INCLUDES
   8:..\..\..\lvgl\version_6.1.2\lvgl\src\lv_objx/lv_gauge.c ****  *********************/
   9:..\..\..\lvgl\version_6.1.2\lvgl\src\lv_objx/lv_gauge.c **** #include "lv_gauge.h"
  10:..\..\..\lvgl\version_6.1.2\lvgl\src\lv_objx/lv_gauge.c **** #if LV_USE_GAUGE != 0
  11:..\..\..\lvgl\version_6.1.2\lvgl\src\lv_objx/lv_gauge.c **** 
  12:..\..\..\lvgl\version_6.1.2\lvgl\src\lv_objx/lv_gauge.c **** #include "../lv_core/lv_debug.h"
  13:..\..\..\lvgl\version_6.1.2\lvgl\src\lv_objx/lv_gauge.c **** #include "../lv_draw/lv_draw.h"
  14:..\..\..\lvgl\version_6.1.2\lvgl\src\lv_objx/lv_gauge.c **** #include "../lv_themes/lv_theme.h"
  15:..\..\..\lvgl\version_6.1.2\lvgl\src\lv_objx/lv_gauge.c **** #include "../lv_misc/lv_txt.h"
  16:..\..\..\lvgl\version_6.1.2\lvgl\src\lv_objx/lv_gauge.c **** #include "../lv_misc/lv_math.h"
  17:..\..\..\lvgl\version_6.1.2\lvgl\src\lv_objx/lv_gauge.c **** #include "../lv_misc/lv_utils.h"
  18:..\..\..\lvgl\version_6.1.2\lvgl\src\lv_objx/lv_gauge.c **** #include <stdio.h>
  19:..\..\..\lvgl\version_6.1.2\lvgl\src\lv_objx/lv_gauge.c **** #include <string.h>
  20:..\..\..\lvgl\version_6.1.2\lvgl\src\lv_objx/lv_gauge.c **** 
  21:..\..\..\lvgl\version_6.1.2\lvgl\src\lv_objx/lv_gauge.c **** /*********************
  22:..\..\..\lvgl\version_6.1.2\lvgl\src\lv_objx/lv_gauge.c ****  *      DEFINES
  23:..\..\..\lvgl\version_6.1.2\lvgl\src\lv_objx/lv_gauge.c ****  *********************/
  24:..\..\..\lvgl\version_6.1.2\lvgl\src\lv_objx/lv_gauge.c **** #define LV_OBJX_NAME "lv_gauge"
  25:..\..\..\lvgl\version_6.1.2\lvgl\src\lv_objx/lv_gauge.c **** 
  26:..\..\..\lvgl\version_6.1.2\lvgl\src\lv_objx/lv_gauge.c **** #define LV_GAUGE_DEF_NEEDLE_COLOR LV_COLOR_RED
  27:..\..\..\lvgl\version_6.1.2\lvgl\src\lv_objx/lv_gauge.c **** #define LV_GAUGE_DEF_LABEL_COUNT 6
  28:..\..\..\lvgl\version_6.1.2\lvgl\src\lv_objx/lv_gauge.c **** #define LV_GAUGE_DEF_LINE_COUNT 21 /*Should be: ((label_cnt - 1) * internal_lines) + 1*/
  29:..\..\..\lvgl\version_6.1.2\lvgl\src\lv_objx/lv_gauge.c **** #define LV_GAUGE_DEF_ANGLE 220
  30:..\..\..\lvgl\version_6.1.2\lvgl\src\lv_objx/lv_gauge.c **** #define LV_GAUGE_INTERPOLATE_SHIFT 5 /*Interpolate the needle drawing between to degrees*/
ARM GAS  C:\Users\pearlstl\AppData\Local\Temp\cccjDn63.s 			page 2


  31:..\..\..\lvgl\version_6.1.2\lvgl\src\lv_objx/lv_gauge.c **** #define LV_GAUGE_INTERPOLATE_MASK 0x1F
  32:..\..\..\lvgl\version_6.1.2\lvgl\src\lv_objx/lv_gauge.c **** 
  33:..\..\..\lvgl\version_6.1.2\lvgl\src\lv_objx/lv_gauge.c **** /**********************
  34:..\..\..\lvgl\version_6.1.2\lvgl\src\lv_objx/lv_gauge.c ****  *      TYPEDEFS
  35:..\..\..\lvgl\version_6.1.2\lvgl\src\lv_objx/lv_gauge.c ****  **********************/
  36:..\..\..\lvgl\version_6.1.2\lvgl\src\lv_objx/lv_gauge.c **** 
  37:..\..\..\lvgl\version_6.1.2\lvgl\src\lv_objx/lv_gauge.c **** /**********************
  38:..\..\..\lvgl\version_6.1.2\lvgl\src\lv_objx/lv_gauge.c ****  *  STATIC PROTOTYPES
  39:..\..\..\lvgl\version_6.1.2\lvgl\src\lv_objx/lv_gauge.c ****  **********************/
  40:..\..\..\lvgl\version_6.1.2\lvgl\src\lv_objx/lv_gauge.c **** static bool lv_gauge_design(lv_obj_t * gauge, const lv_area_t * mask, lv_design_mode_t mode);
  41:..\..\..\lvgl\version_6.1.2\lvgl\src\lv_objx/lv_gauge.c **** static lv_res_t lv_gauge_signal(lv_obj_t * gauge, lv_signal_t sign, void * param);
  42:..\..\..\lvgl\version_6.1.2\lvgl\src\lv_objx/lv_gauge.c **** static void lv_gauge_draw_scale(lv_obj_t * gauge, const lv_area_t * mask);
  43:..\..\..\lvgl\version_6.1.2\lvgl\src\lv_objx/lv_gauge.c **** static void lv_gauge_draw_needle(lv_obj_t * gauge, const lv_area_t * mask);
  44:..\..\..\lvgl\version_6.1.2\lvgl\src\lv_objx/lv_gauge.c **** 
  45:..\..\..\lvgl\version_6.1.2\lvgl\src\lv_objx/lv_gauge.c **** /**********************
  46:..\..\..\lvgl\version_6.1.2\lvgl\src\lv_objx/lv_gauge.c ****  *  STATIC VARIABLES
  47:..\..\..\lvgl\version_6.1.2\lvgl\src\lv_objx/lv_gauge.c ****  **********************/
  48:..\..\..\lvgl\version_6.1.2\lvgl\src\lv_objx/lv_gauge.c **** static lv_design_cb_t ancestor_design;
  49:..\..\..\lvgl\version_6.1.2\lvgl\src\lv_objx/lv_gauge.c **** static lv_signal_cb_t ancestor_signal;
  50:..\..\..\lvgl\version_6.1.2\lvgl\src\lv_objx/lv_gauge.c **** 
  51:..\..\..\lvgl\version_6.1.2\lvgl\src\lv_objx/lv_gauge.c **** /**********************
  52:..\..\..\lvgl\version_6.1.2\lvgl\src\lv_objx/lv_gauge.c ****  *      MACROS
  53:..\..\..\lvgl\version_6.1.2\lvgl\src\lv_objx/lv_gauge.c ****  **********************/
  54:..\..\..\lvgl\version_6.1.2\lvgl\src\lv_objx/lv_gauge.c **** 
  55:..\..\..\lvgl\version_6.1.2\lvgl\src\lv_objx/lv_gauge.c **** /**********************
  56:..\..\..\lvgl\version_6.1.2\lvgl\src\lv_objx/lv_gauge.c ****  *   GLOBAL FUNCTIONS
  57:..\..\..\lvgl\version_6.1.2\lvgl\src\lv_objx/lv_gauge.c ****  **********************/
  58:..\..\..\lvgl\version_6.1.2\lvgl\src\lv_objx/lv_gauge.c **** 
  59:..\..\..\lvgl\version_6.1.2\lvgl\src\lv_objx/lv_gauge.c **** /**
  60:..\..\..\lvgl\version_6.1.2\lvgl\src\lv_objx/lv_gauge.c ****  * Create a gauge objects
  61:..\..\..\lvgl\version_6.1.2\lvgl\src\lv_objx/lv_gauge.c ****  * @param par pointer to an object, it will be the parent of the new gauge
  62:..\..\..\lvgl\version_6.1.2\lvgl\src\lv_objx/lv_gauge.c ****  * @param copy pointer to a gauge object, if not NULL then the new object will be copied from it
  63:..\..\..\lvgl\version_6.1.2\lvgl\src\lv_objx/lv_gauge.c ****  * @return pointer to the created gauge
  64:..\..\..\lvgl\version_6.1.2\lvgl\src\lv_objx/lv_gauge.c ****  */
  65:..\..\..\lvgl\version_6.1.2\lvgl\src\lv_objx/lv_gauge.c **** lv_obj_t * lv_gauge_create(lv_obj_t * par, const lv_obj_t * copy)
  66:..\..\..\lvgl\version_6.1.2\lvgl\src\lv_objx/lv_gauge.c **** {
  67:..\..\..\lvgl\version_6.1.2\lvgl\src\lv_objx/lv_gauge.c ****     LV_LOG_TRACE("gauge create started");
  68:..\..\..\lvgl\version_6.1.2\lvgl\src\lv_objx/lv_gauge.c **** 
  69:..\..\..\lvgl\version_6.1.2\lvgl\src\lv_objx/lv_gauge.c ****     /*Create the ancestor gauge*/
  70:..\..\..\lvgl\version_6.1.2\lvgl\src\lv_objx/lv_gauge.c ****     lv_obj_t * new_gauge = lv_lmeter_create(par, copy);
  71:..\..\..\lvgl\version_6.1.2\lvgl\src\lv_objx/lv_gauge.c ****     LV_ASSERT_MEM(new_gauge);
  72:..\..\..\lvgl\version_6.1.2\lvgl\src\lv_objx/lv_gauge.c ****     if(new_gauge == NULL) return NULL;
  73:..\..\..\lvgl\version_6.1.2\lvgl\src\lv_objx/lv_gauge.c **** 
  74:..\..\..\lvgl\version_6.1.2\lvgl\src\lv_objx/lv_gauge.c ****     /*Allocate the gauge type specific extended data*/
  75:..\..\..\lvgl\version_6.1.2\lvgl\src\lv_objx/lv_gauge.c ****     lv_gauge_ext_t * ext = lv_obj_allocate_ext_attr(new_gauge, sizeof(lv_gauge_ext_t));
  76:..\..\..\lvgl\version_6.1.2\lvgl\src\lv_objx/lv_gauge.c ****     LV_ASSERT_MEM(ext);
  77:..\..\..\lvgl\version_6.1.2\lvgl\src\lv_objx/lv_gauge.c ****     if(ext == NULL) return NULL;
  78:..\..\..\lvgl\version_6.1.2\lvgl\src\lv_objx/lv_gauge.c **** 
  79:..\..\..\lvgl\version_6.1.2\lvgl\src\lv_objx/lv_gauge.c ****     /*Initialize the allocated 'ext' */
  80:..\..\..\lvgl\version_6.1.2\lvgl\src\lv_objx/lv_gauge.c ****     ext->needle_count  = 0;
  81:..\..\..\lvgl\version_6.1.2\lvgl\src\lv_objx/lv_gauge.c ****     ext->values        = NULL;
  82:..\..\..\lvgl\version_6.1.2\lvgl\src\lv_objx/lv_gauge.c ****     ext->needle_colors = NULL;
  83:..\..\..\lvgl\version_6.1.2\lvgl\src\lv_objx/lv_gauge.c ****     ext->label_count   = LV_GAUGE_DEF_LABEL_COUNT;
  84:..\..\..\lvgl\version_6.1.2\lvgl\src\lv_objx/lv_gauge.c ****     if(ancestor_signal == NULL) ancestor_signal = lv_obj_get_signal_cb(new_gauge);
  85:..\..\..\lvgl\version_6.1.2\lvgl\src\lv_objx/lv_gauge.c ****     if(ancestor_design == NULL) ancestor_design = lv_obj_get_design_cb(new_gauge);
  86:..\..\..\lvgl\version_6.1.2\lvgl\src\lv_objx/lv_gauge.c **** 
  87:..\..\..\lvgl\version_6.1.2\lvgl\src\lv_objx/lv_gauge.c ****     /*The signal and design functions are not copied so set them here*/
ARM GAS  C:\Users\pearlstl\AppData\Local\Temp\cccjDn63.s 			page 3


  88:..\..\..\lvgl\version_6.1.2\lvgl\src\lv_objx/lv_gauge.c ****     lv_obj_set_signal_cb(new_gauge, lv_gauge_signal);
  89:..\..\..\lvgl\version_6.1.2\lvgl\src\lv_objx/lv_gauge.c ****     lv_obj_set_design_cb(new_gauge, lv_gauge_design);
  90:..\..\..\lvgl\version_6.1.2\lvgl\src\lv_objx/lv_gauge.c **** 
  91:..\..\..\lvgl\version_6.1.2\lvgl\src\lv_objx/lv_gauge.c ****     /*Init the new gauge gauge*/
  92:..\..\..\lvgl\version_6.1.2\lvgl\src\lv_objx/lv_gauge.c ****     if(copy == NULL) {
  93:..\..\..\lvgl\version_6.1.2\lvgl\src\lv_objx/lv_gauge.c ****         lv_gauge_set_scale(new_gauge, LV_GAUGE_DEF_ANGLE, LV_GAUGE_DEF_LINE_COUNT, LV_GAUGE_DEF_LAB
  94:..\..\..\lvgl\version_6.1.2\lvgl\src\lv_objx/lv_gauge.c ****         lv_gauge_set_needle_count(new_gauge, 1, NULL);
  95:..\..\..\lvgl\version_6.1.2\lvgl\src\lv_objx/lv_gauge.c ****         lv_gauge_set_critical_value(new_gauge, 80);
  96:..\..\..\lvgl\version_6.1.2\lvgl\src\lv_objx/lv_gauge.c ****         lv_obj_set_size(new_gauge, 2 * LV_DPI, 2 * LV_DPI);
  97:..\..\..\lvgl\version_6.1.2\lvgl\src\lv_objx/lv_gauge.c **** 
  98:..\..\..\lvgl\version_6.1.2\lvgl\src\lv_objx/lv_gauge.c ****         /*Set the default styles*/
  99:..\..\..\lvgl\version_6.1.2\lvgl\src\lv_objx/lv_gauge.c ****         lv_theme_t * th = lv_theme_get_current();
 100:..\..\..\lvgl\version_6.1.2\lvgl\src\lv_objx/lv_gauge.c ****         if(th) {
 101:..\..\..\lvgl\version_6.1.2\lvgl\src\lv_objx/lv_gauge.c ****             lv_gauge_set_style(new_gauge, LV_GAUGE_STYLE_MAIN, th->style.gauge);
 102:..\..\..\lvgl\version_6.1.2\lvgl\src\lv_objx/lv_gauge.c ****         } else {
 103:..\..\..\lvgl\version_6.1.2\lvgl\src\lv_objx/lv_gauge.c ****             lv_gauge_set_style(new_gauge, LV_GAUGE_STYLE_MAIN, &lv_style_pretty_color);
 104:..\..\..\lvgl\version_6.1.2\lvgl\src\lv_objx/lv_gauge.c ****         }
 105:..\..\..\lvgl\version_6.1.2\lvgl\src\lv_objx/lv_gauge.c ****     }
 106:..\..\..\lvgl\version_6.1.2\lvgl\src\lv_objx/lv_gauge.c ****     /*Copy an existing gauge*/
 107:..\..\..\lvgl\version_6.1.2\lvgl\src\lv_objx/lv_gauge.c ****     else {
 108:..\..\..\lvgl\version_6.1.2\lvgl\src\lv_objx/lv_gauge.c ****         lv_gauge_ext_t * copy_ext = lv_obj_get_ext_attr(copy);
 109:..\..\..\lvgl\version_6.1.2\lvgl\src\lv_objx/lv_gauge.c ****         lv_gauge_set_needle_count(new_gauge, copy_ext->needle_count, copy_ext->needle_colors);
 110:..\..\..\lvgl\version_6.1.2\lvgl\src\lv_objx/lv_gauge.c **** 
 111:..\..\..\lvgl\version_6.1.2\lvgl\src\lv_objx/lv_gauge.c ****         uint8_t i;
 112:..\..\..\lvgl\version_6.1.2\lvgl\src\lv_objx/lv_gauge.c ****         for(i = 0; i < ext->needle_count; i++) {
 113:..\..\..\lvgl\version_6.1.2\lvgl\src\lv_objx/lv_gauge.c ****             ext->values[i] = copy_ext->values[i];
 114:..\..\..\lvgl\version_6.1.2\lvgl\src\lv_objx/lv_gauge.c ****         }
 115:..\..\..\lvgl\version_6.1.2\lvgl\src\lv_objx/lv_gauge.c ****         ext->label_count = copy_ext->label_count;
 116:..\..\..\lvgl\version_6.1.2\lvgl\src\lv_objx/lv_gauge.c ****         /*Refresh the style with new signal function*/
 117:..\..\..\lvgl\version_6.1.2\lvgl\src\lv_objx/lv_gauge.c ****         lv_obj_refresh_style(new_gauge);
 118:..\..\..\lvgl\version_6.1.2\lvgl\src\lv_objx/lv_gauge.c ****     }
 119:..\..\..\lvgl\version_6.1.2\lvgl\src\lv_objx/lv_gauge.c **** 
 120:..\..\..\lvgl\version_6.1.2\lvgl\src\lv_objx/lv_gauge.c ****     LV_LOG_INFO("gauge created");
 121:..\..\..\lvgl\version_6.1.2\lvgl\src\lv_objx/lv_gauge.c **** 
 122:..\..\..\lvgl\version_6.1.2\lvgl\src\lv_objx/lv_gauge.c ****     return new_gauge;
 123:..\..\..\lvgl\version_6.1.2\lvgl\src\lv_objx/lv_gauge.c **** }
 124:..\..\..\lvgl\version_6.1.2\lvgl\src\lv_objx/lv_gauge.c **** 
 125:..\..\..\lvgl\version_6.1.2\lvgl\src\lv_objx/lv_gauge.c **** /*=====================
 126:..\..\..\lvgl\version_6.1.2\lvgl\src\lv_objx/lv_gauge.c ****  * Setter functions
 127:..\..\..\lvgl\version_6.1.2\lvgl\src\lv_objx/lv_gauge.c ****  *====================*/
 128:..\..\..\lvgl\version_6.1.2\lvgl\src\lv_objx/lv_gauge.c **** 
 129:..\..\..\lvgl\version_6.1.2\lvgl\src\lv_objx/lv_gauge.c **** /**
 130:..\..\..\lvgl\version_6.1.2\lvgl\src\lv_objx/lv_gauge.c ****  * Set the number of needles
 131:..\..\..\lvgl\version_6.1.2\lvgl\src\lv_objx/lv_gauge.c ****  * @param gauge pointer to gauge object
 132:..\..\..\lvgl\version_6.1.2\lvgl\src\lv_objx/lv_gauge.c ****  * @param needle_cnt new count of needles
 133:..\..\..\lvgl\version_6.1.2\lvgl\src\lv_objx/lv_gauge.c ****  * @param colors an array of colors for needles (with 'num' elements)
 134:..\..\..\lvgl\version_6.1.2\lvgl\src\lv_objx/lv_gauge.c ****  */
 135:..\..\..\lvgl\version_6.1.2\lvgl\src\lv_objx/lv_gauge.c **** void lv_gauge_set_needle_count(lv_obj_t * gauge, uint8_t needle_cnt, const lv_color_t colors[])
 136:..\..\..\lvgl\version_6.1.2\lvgl\src\lv_objx/lv_gauge.c **** {
 137:..\..\..\lvgl\version_6.1.2\lvgl\src\lv_objx/lv_gauge.c ****     LV_ASSERT_OBJ(gauge, LV_OBJX_NAME);
 138:..\..\..\lvgl\version_6.1.2\lvgl\src\lv_objx/lv_gauge.c **** 
 139:..\..\..\lvgl\version_6.1.2\lvgl\src\lv_objx/lv_gauge.c ****     lv_gauge_ext_t * ext = lv_obj_get_ext_attr(gauge);
 140:..\..\..\lvgl\version_6.1.2\lvgl\src\lv_objx/lv_gauge.c **** 
 141:..\..\..\lvgl\version_6.1.2\lvgl\src\lv_objx/lv_gauge.c ****     if(ext->needle_count != needle_cnt) {
 142:..\..\..\lvgl\version_6.1.2\lvgl\src\lv_objx/lv_gauge.c ****         if(ext->values != NULL) {
 143:..\..\..\lvgl\version_6.1.2\lvgl\src\lv_objx/lv_gauge.c ****             lv_mem_free(ext->values);
 144:..\..\..\lvgl\version_6.1.2\lvgl\src\lv_objx/lv_gauge.c ****             ext->values = NULL;
ARM GAS  C:\Users\pearlstl\AppData\Local\Temp\cccjDn63.s 			page 4


 145:..\..\..\lvgl\version_6.1.2\lvgl\src\lv_objx/lv_gauge.c ****         }
 146:..\..\..\lvgl\version_6.1.2\lvgl\src\lv_objx/lv_gauge.c **** 
 147:..\..\..\lvgl\version_6.1.2\lvgl\src\lv_objx/lv_gauge.c ****         ext->values = lv_mem_realloc(ext->values, needle_cnt * sizeof(int16_t));
 148:..\..\..\lvgl\version_6.1.2\lvgl\src\lv_objx/lv_gauge.c ****         LV_ASSERT_MEM(ext->values);
 149:..\..\..\lvgl\version_6.1.2\lvgl\src\lv_objx/lv_gauge.c ****         if(ext->values == NULL) return;
 150:..\..\..\lvgl\version_6.1.2\lvgl\src\lv_objx/lv_gauge.c **** 
 151:..\..\..\lvgl\version_6.1.2\lvgl\src\lv_objx/lv_gauge.c ****         int16_t min = lv_gauge_get_min_value(gauge);
 152:..\..\..\lvgl\version_6.1.2\lvgl\src\lv_objx/lv_gauge.c ****         uint8_t n;
 153:..\..\..\lvgl\version_6.1.2\lvgl\src\lv_objx/lv_gauge.c ****         for(n = ext->needle_count; n < needle_cnt; n++) {
 154:..\..\..\lvgl\version_6.1.2\lvgl\src\lv_objx/lv_gauge.c ****             ext->values[n] = min;
 155:..\..\..\lvgl\version_6.1.2\lvgl\src\lv_objx/lv_gauge.c ****         }
 156:..\..\..\lvgl\version_6.1.2\lvgl\src\lv_objx/lv_gauge.c **** 
 157:..\..\..\lvgl\version_6.1.2\lvgl\src\lv_objx/lv_gauge.c ****         ext->needle_count = needle_cnt;
 158:..\..\..\lvgl\version_6.1.2\lvgl\src\lv_objx/lv_gauge.c ****     }
 159:..\..\..\lvgl\version_6.1.2\lvgl\src\lv_objx/lv_gauge.c **** 
 160:..\..\..\lvgl\version_6.1.2\lvgl\src\lv_objx/lv_gauge.c ****     ext->needle_colors = colors;
 161:..\..\..\lvgl\version_6.1.2\lvgl\src\lv_objx/lv_gauge.c ****     lv_obj_invalidate(gauge);
 162:..\..\..\lvgl\version_6.1.2\lvgl\src\lv_objx/lv_gauge.c **** }
 163:..\..\..\lvgl\version_6.1.2\lvgl\src\lv_objx/lv_gauge.c **** 
 164:..\..\..\lvgl\version_6.1.2\lvgl\src\lv_objx/lv_gauge.c **** /**
 165:..\..\..\lvgl\version_6.1.2\lvgl\src\lv_objx/lv_gauge.c ****  * Set the value of a needle
 166:..\..\..\lvgl\version_6.1.2\lvgl\src\lv_objx/lv_gauge.c ****  * @param gauge pointer to a gauge
 167:..\..\..\lvgl\version_6.1.2\lvgl\src\lv_objx/lv_gauge.c ****  * @param needle_id the id of the needle
 168:..\..\..\lvgl\version_6.1.2\lvgl\src\lv_objx/lv_gauge.c ****  * @param value the new value
 169:..\..\..\lvgl\version_6.1.2\lvgl\src\lv_objx/lv_gauge.c ****  */
 170:..\..\..\lvgl\version_6.1.2\lvgl\src\lv_objx/lv_gauge.c **** void lv_gauge_set_value(lv_obj_t * gauge, uint8_t needle_id, int16_t value)
 171:..\..\..\lvgl\version_6.1.2\lvgl\src\lv_objx/lv_gauge.c **** {
 172:..\..\..\lvgl\version_6.1.2\lvgl\src\lv_objx/lv_gauge.c ****     LV_ASSERT_OBJ(gauge, LV_OBJX_NAME);
 173:..\..\..\lvgl\version_6.1.2\lvgl\src\lv_objx/lv_gauge.c **** 
 174:..\..\..\lvgl\version_6.1.2\lvgl\src\lv_objx/lv_gauge.c ****     lv_gauge_ext_t * ext = lv_obj_get_ext_attr(gauge);
 175:..\..\..\lvgl\version_6.1.2\lvgl\src\lv_objx/lv_gauge.c **** 
 176:..\..\..\lvgl\version_6.1.2\lvgl\src\lv_objx/lv_gauge.c ****     if(needle_id >= ext->needle_count) return;
 177:..\..\..\lvgl\version_6.1.2\lvgl\src\lv_objx/lv_gauge.c ****     if(ext->values[needle_id] == value) return;
 178:..\..\..\lvgl\version_6.1.2\lvgl\src\lv_objx/lv_gauge.c **** 
 179:..\..\..\lvgl\version_6.1.2\lvgl\src\lv_objx/lv_gauge.c ****     int16_t min = lv_gauge_get_min_value(gauge);
 180:..\..\..\lvgl\version_6.1.2\lvgl\src\lv_objx/lv_gauge.c ****     int16_t max = lv_gauge_get_max_value(gauge);
 181:..\..\..\lvgl\version_6.1.2\lvgl\src\lv_objx/lv_gauge.c **** 
 182:..\..\..\lvgl\version_6.1.2\lvgl\src\lv_objx/lv_gauge.c ****     if(value > max)
 183:..\..\..\lvgl\version_6.1.2\lvgl\src\lv_objx/lv_gauge.c ****         value = max;
 184:..\..\..\lvgl\version_6.1.2\lvgl\src\lv_objx/lv_gauge.c ****     else if(value < min)
 185:..\..\..\lvgl\version_6.1.2\lvgl\src\lv_objx/lv_gauge.c ****         value = min;
 186:..\..\..\lvgl\version_6.1.2\lvgl\src\lv_objx/lv_gauge.c **** 
 187:..\..\..\lvgl\version_6.1.2\lvgl\src\lv_objx/lv_gauge.c ****     ext->values[needle_id] = value;
 188:..\..\..\lvgl\version_6.1.2\lvgl\src\lv_objx/lv_gauge.c **** 
 189:..\..\..\lvgl\version_6.1.2\lvgl\src\lv_objx/lv_gauge.c ****     lv_obj_invalidate(gauge);
 190:..\..\..\lvgl\version_6.1.2\lvgl\src\lv_objx/lv_gauge.c **** }
 191:..\..\..\lvgl\version_6.1.2\lvgl\src\lv_objx/lv_gauge.c **** 
 192:..\..\..\lvgl\version_6.1.2\lvgl\src\lv_objx/lv_gauge.c **** /**
 193:..\..\..\lvgl\version_6.1.2\lvgl\src\lv_objx/lv_gauge.c ****  * Set the scale settings of a gauge
 194:..\..\..\lvgl\version_6.1.2\lvgl\src\lv_objx/lv_gauge.c ****  * @param gauge pointer to a gauge object
 195:..\..\..\lvgl\version_6.1.2\lvgl\src\lv_objx/lv_gauge.c ****  * @param angle angle of the scale (0..360)
 196:..\..\..\lvgl\version_6.1.2\lvgl\src\lv_objx/lv_gauge.c ****  * @param line_cnt count of scale lines.
 197:..\..\..\lvgl\version_6.1.2\lvgl\src\lv_objx/lv_gauge.c ****  * The get a given "subdivision" lines between label, `line_cnt` = (sub_div + 1) * (label_cnt - 1) 
 198:..\..\..\lvgl\version_6.1.2\lvgl\src\lv_objx/lv_gauge.c ****  * 1
 199:..\..\..\lvgl\version_6.1.2\lvgl\src\lv_objx/lv_gauge.c ****  * @param label_cnt count of scale labels.
 200:..\..\..\lvgl\version_6.1.2\lvgl\src\lv_objx/lv_gauge.c ****  */
 201:..\..\..\lvgl\version_6.1.2\lvgl\src\lv_objx/lv_gauge.c **** void lv_gauge_set_scale(lv_obj_t * gauge, uint16_t angle, uint8_t line_cnt, uint8_t label_cnt)
ARM GAS  C:\Users\pearlstl\AppData\Local\Temp\cccjDn63.s 			page 5


 202:..\..\..\lvgl\version_6.1.2\lvgl\src\lv_objx/lv_gauge.c **** {
 203:..\..\..\lvgl\version_6.1.2\lvgl\src\lv_objx/lv_gauge.c ****     LV_ASSERT_OBJ(gauge, LV_OBJX_NAME);
 204:..\..\..\lvgl\version_6.1.2\lvgl\src\lv_objx/lv_gauge.c **** 
 205:..\..\..\lvgl\version_6.1.2\lvgl\src\lv_objx/lv_gauge.c ****     lv_lmeter_set_scale(gauge, angle, line_cnt);
 206:..\..\..\lvgl\version_6.1.2\lvgl\src\lv_objx/lv_gauge.c **** 
 207:..\..\..\lvgl\version_6.1.2\lvgl\src\lv_objx/lv_gauge.c ****     lv_gauge_ext_t * ext = lv_obj_get_ext_attr(gauge);
 208:..\..\..\lvgl\version_6.1.2\lvgl\src\lv_objx/lv_gauge.c ****     ext->label_count     = label_cnt;
 209:..\..\..\lvgl\version_6.1.2\lvgl\src\lv_objx/lv_gauge.c ****     lv_obj_invalidate(gauge);
 210:..\..\..\lvgl\version_6.1.2\lvgl\src\lv_objx/lv_gauge.c **** }
 211:..\..\..\lvgl\version_6.1.2\lvgl\src\lv_objx/lv_gauge.c **** 
 212:..\..\..\lvgl\version_6.1.2\lvgl\src\lv_objx/lv_gauge.c **** /*=====================
 213:..\..\..\lvgl\version_6.1.2\lvgl\src\lv_objx/lv_gauge.c ****  * Getter functions
 214:..\..\..\lvgl\version_6.1.2\lvgl\src\lv_objx/lv_gauge.c ****  *====================*/
 215:..\..\..\lvgl\version_6.1.2\lvgl\src\lv_objx/lv_gauge.c **** 
 216:..\..\..\lvgl\version_6.1.2\lvgl\src\lv_objx/lv_gauge.c **** /**
 217:..\..\..\lvgl\version_6.1.2\lvgl\src\lv_objx/lv_gauge.c ****  * Get the value of a needle
 218:..\..\..\lvgl\version_6.1.2\lvgl\src\lv_objx/lv_gauge.c ****  * @param gauge pointer to gauge object
 219:..\..\..\lvgl\version_6.1.2\lvgl\src\lv_objx/lv_gauge.c ****  * @param needle the id of the needle
 220:..\..\..\lvgl\version_6.1.2\lvgl\src\lv_objx/lv_gauge.c ****  * @return the value of the needle [min,max]
 221:..\..\..\lvgl\version_6.1.2\lvgl\src\lv_objx/lv_gauge.c ****  */
 222:..\..\..\lvgl\version_6.1.2\lvgl\src\lv_objx/lv_gauge.c **** int16_t lv_gauge_get_value(const lv_obj_t * gauge, uint8_t needle)
 223:..\..\..\lvgl\version_6.1.2\lvgl\src\lv_objx/lv_gauge.c **** {
 224:..\..\..\lvgl\version_6.1.2\lvgl\src\lv_objx/lv_gauge.c ****     LV_ASSERT_OBJ(gauge, LV_OBJX_NAME);
 225:..\..\..\lvgl\version_6.1.2\lvgl\src\lv_objx/lv_gauge.c **** 
 226:..\..\..\lvgl\version_6.1.2\lvgl\src\lv_objx/lv_gauge.c ****     lv_gauge_ext_t * ext = lv_obj_get_ext_attr(gauge);
 227:..\..\..\lvgl\version_6.1.2\lvgl\src\lv_objx/lv_gauge.c ****     int16_t min          = lv_gauge_get_min_value(gauge);
 228:..\..\..\lvgl\version_6.1.2\lvgl\src\lv_objx/lv_gauge.c **** 
 229:..\..\..\lvgl\version_6.1.2\lvgl\src\lv_objx/lv_gauge.c ****     if(needle >= ext->needle_count) return min;
 230:..\..\..\lvgl\version_6.1.2\lvgl\src\lv_objx/lv_gauge.c **** 
 231:..\..\..\lvgl\version_6.1.2\lvgl\src\lv_objx/lv_gauge.c ****     return ext->values[needle];
 232:..\..\..\lvgl\version_6.1.2\lvgl\src\lv_objx/lv_gauge.c **** }
 233:..\..\..\lvgl\version_6.1.2\lvgl\src\lv_objx/lv_gauge.c **** 
 234:..\..\..\lvgl\version_6.1.2\lvgl\src\lv_objx/lv_gauge.c **** /**
 235:..\..\..\lvgl\version_6.1.2\lvgl\src\lv_objx/lv_gauge.c ****  * Get the count of needles on a gauge
 236:..\..\..\lvgl\version_6.1.2\lvgl\src\lv_objx/lv_gauge.c ****  * @param gauge pointer to gauge
 237:..\..\..\lvgl\version_6.1.2\lvgl\src\lv_objx/lv_gauge.c ****  * @return count of needles
 238:..\..\..\lvgl\version_6.1.2\lvgl\src\lv_objx/lv_gauge.c ****  */
 239:..\..\..\lvgl\version_6.1.2\lvgl\src\lv_objx/lv_gauge.c **** uint8_t lv_gauge_get_needle_count(const lv_obj_t * gauge)
 240:..\..\..\lvgl\version_6.1.2\lvgl\src\lv_objx/lv_gauge.c **** {
 241:..\..\..\lvgl\version_6.1.2\lvgl\src\lv_objx/lv_gauge.c ****     LV_ASSERT_OBJ(gauge, LV_OBJX_NAME);
 242:..\..\..\lvgl\version_6.1.2\lvgl\src\lv_objx/lv_gauge.c **** 
 243:..\..\..\lvgl\version_6.1.2\lvgl\src\lv_objx/lv_gauge.c ****     lv_gauge_ext_t * ext = lv_obj_get_ext_attr(gauge);
 244:..\..\..\lvgl\version_6.1.2\lvgl\src\lv_objx/lv_gauge.c ****     return ext->needle_count;
 245:..\..\..\lvgl\version_6.1.2\lvgl\src\lv_objx/lv_gauge.c **** }
 246:..\..\..\lvgl\version_6.1.2\lvgl\src\lv_objx/lv_gauge.c **** 
 247:..\..\..\lvgl\version_6.1.2\lvgl\src\lv_objx/lv_gauge.c **** /**
 248:..\..\..\lvgl\version_6.1.2\lvgl\src\lv_objx/lv_gauge.c ****  * Set the number of labels (and the thicker lines too)
 249:..\..\..\lvgl\version_6.1.2\lvgl\src\lv_objx/lv_gauge.c ****  * @param gauge pointer to a gauge object
 250:..\..\..\lvgl\version_6.1.2\lvgl\src\lv_objx/lv_gauge.c ****  * @return count of labels
 251:..\..\..\lvgl\version_6.1.2\lvgl\src\lv_objx/lv_gauge.c ****  */
 252:..\..\..\lvgl\version_6.1.2\lvgl\src\lv_objx/lv_gauge.c **** uint8_t lv_gauge_get_label_count(const lv_obj_t * gauge)
 253:..\..\..\lvgl\version_6.1.2\lvgl\src\lv_objx/lv_gauge.c **** {
 254:..\..\..\lvgl\version_6.1.2\lvgl\src\lv_objx/lv_gauge.c ****     LV_ASSERT_OBJ(gauge, LV_OBJX_NAME);
 255:..\..\..\lvgl\version_6.1.2\lvgl\src\lv_objx/lv_gauge.c **** 
 256:..\..\..\lvgl\version_6.1.2\lvgl\src\lv_objx/lv_gauge.c ****     lv_gauge_ext_t * ext = lv_obj_get_ext_attr(gauge);
 257:..\..\..\lvgl\version_6.1.2\lvgl\src\lv_objx/lv_gauge.c ****     return ext->label_count;
 258:..\..\..\lvgl\version_6.1.2\lvgl\src\lv_objx/lv_gauge.c **** }
ARM GAS  C:\Users\pearlstl\AppData\Local\Temp\cccjDn63.s 			page 6


 259:..\..\..\lvgl\version_6.1.2\lvgl\src\lv_objx/lv_gauge.c **** 
 260:..\..\..\lvgl\version_6.1.2\lvgl\src\lv_objx/lv_gauge.c **** /**********************
 261:..\..\..\lvgl\version_6.1.2\lvgl\src\lv_objx/lv_gauge.c ****  *   STATIC FUNCTIONS
 262:..\..\..\lvgl\version_6.1.2\lvgl\src\lv_objx/lv_gauge.c ****  **********************/
 263:..\..\..\lvgl\version_6.1.2\lvgl\src\lv_objx/lv_gauge.c **** 
 264:..\..\..\lvgl\version_6.1.2\lvgl\src\lv_objx/lv_gauge.c **** /**
 265:..\..\..\lvgl\version_6.1.2\lvgl\src\lv_objx/lv_gauge.c ****  * Handle the drawing related tasks of the gauges
 266:..\..\..\lvgl\version_6.1.2\lvgl\src\lv_objx/lv_gauge.c ****  * @param gauge pointer to an object
 267:..\..\..\lvgl\version_6.1.2\lvgl\src\lv_objx/lv_gauge.c ****  * @param mask the object will be drawn only in this area
 268:..\..\..\lvgl\version_6.1.2\lvgl\src\lv_objx/lv_gauge.c ****  * @param mode LV_DESIGN_COVER_CHK: only check if the object fully covers the 'mask_p' area
 269:..\..\..\lvgl\version_6.1.2\lvgl\src\lv_objx/lv_gauge.c ****  *                                  (return 'true' if yes)
 270:..\..\..\lvgl\version_6.1.2\lvgl\src\lv_objx/lv_gauge.c ****  *             LV_DESIGN_DRAW: draw the object (always return 'true')
 271:..\..\..\lvgl\version_6.1.2\lvgl\src\lv_objx/lv_gauge.c ****  *             LV_DESIGN_DRAW_POST: drawing after every children are drawn
 272:..\..\..\lvgl\version_6.1.2\lvgl\src\lv_objx/lv_gauge.c ****  * @param return true/false, depends on 'mode'
 273:..\..\..\lvgl\version_6.1.2\lvgl\src\lv_objx/lv_gauge.c ****  */
 274:..\..\..\lvgl\version_6.1.2\lvgl\src\lv_objx/lv_gauge.c **** static bool lv_gauge_design(lv_obj_t * gauge, const lv_area_t * mask, lv_design_mode_t mode)
 275:..\..\..\lvgl\version_6.1.2\lvgl\src\lv_objx/lv_gauge.c **** {
  28              		.loc 1 275 0
  29              		.cfi_startproc
  30              		@ args = 0, pretend = 0, frame = 328
  31              		@ frame_needed = 0, uses_anonymous_args = 0
  32              	.LVL0:
 276:..\..\..\lvgl\version_6.1.2\lvgl\src\lv_objx/lv_gauge.c ****     /*Return false if the object is not covers the mask_p area*/
 277:..\..\..\lvgl\version_6.1.2\lvgl\src\lv_objx/lv_gauge.c ****     if(mode == LV_DESIGN_COVER_CHK) {
  33              		.loc 1 277 0
  34 0000 022A     		cmp	r2, #2
  35 0002 0DD0     		beq	.L16
 275:..\..\..\lvgl\version_6.1.2\lvgl\src\lv_objx/lv_gauge.c ****     /*Return false if the object is not covers the mask_p area*/
  36              		.loc 1 275 0
  37 0004 2DE9F04F 		push	{r4, r5, r6, r7, r8, r9, r10, fp, lr}
  38              		.cfi_def_cfa_offset 36
  39              		.cfi_offset 4, -36
  40              		.cfi_offset 5, -32
  41              		.cfi_offset 6, -28
  42              		.cfi_offset 7, -24
  43              		.cfi_offset 8, -20
  44              		.cfi_offset 9, -16
  45              		.cfi_offset 10, -12
  46              		.cfi_offset 11, -8
  47              		.cfi_offset 14, -4
  48 0008 D9B0     		sub	sp, sp, #356
  49              		.cfi_def_cfa_offset 392
  50 000a 1646     		mov	r6, r2
  51 000c 0791     		str	r1, [sp, #28]
  52 000e 0C90     		str	r0, [sp, #48]
 278:..\..\..\lvgl\version_6.1.2\lvgl\src\lv_objx/lv_gauge.c ****         return false;
 279:..\..\..\lvgl\version_6.1.2\lvgl\src\lv_objx/lv_gauge.c ****     }
 280:..\..\..\lvgl\version_6.1.2\lvgl\src\lv_objx/lv_gauge.c ****     /*Draw the object*/
 281:..\..\..\lvgl\version_6.1.2\lvgl\src\lv_objx/lv_gauge.c ****     else if(mode == LV_DESIGN_DRAW_MAIN) {
  53              		.loc 1 281 0
  54 0010 42B1     		cbz	r2, .L24
 282:..\..\..\lvgl\version_6.1.2\lvgl\src\lv_objx/lv_gauge.c **** 
 283:..\..\..\lvgl\version_6.1.2\lvgl\src\lv_objx/lv_gauge.c ****         /* Store the real pointer because of 'lv_group'
 284:..\..\..\lvgl\version_6.1.2\lvgl\src\lv_objx/lv_gauge.c ****          * If the object is in focus 'lv_obj_get_style()' will give a pointer to tmp style
 285:..\..\..\lvgl\version_6.1.2\lvgl\src\lv_objx/lv_gauge.c ****          * and to the real object style. It is important because of style change tricks below*/
 286:..\..\..\lvgl\version_6.1.2\lvgl\src\lv_objx/lv_gauge.c ****         const lv_style_t * style_ori_p = gauge->style_p;
 287:..\..\..\lvgl\version_6.1.2\lvgl\src\lv_objx/lv_gauge.c ****         const lv_style_t * style       = lv_obj_get_style(gauge);
ARM GAS  C:\Users\pearlstl\AppData\Local\Temp\cccjDn63.s 			page 7


 288:..\..\..\lvgl\version_6.1.2\lvgl\src\lv_objx/lv_gauge.c ****         lv_gauge_ext_t * ext           = lv_obj_get_ext_attr(gauge);
 289:..\..\..\lvgl\version_6.1.2\lvgl\src\lv_objx/lv_gauge.c **** 
 290:..\..\..\lvgl\version_6.1.2\lvgl\src\lv_objx/lv_gauge.c ****         lv_gauge_draw_scale(gauge, mask);
 291:..\..\..\lvgl\version_6.1.2\lvgl\src\lv_objx/lv_gauge.c **** 
 292:..\..\..\lvgl\version_6.1.2\lvgl\src\lv_objx/lv_gauge.c ****         /*Draw the ancestor line meter with max value to show the rainbow like line colors*/
 293:..\..\..\lvgl\version_6.1.2\lvgl\src\lv_objx/lv_gauge.c ****         uint16_t line_cnt_tmp = ext->lmeter.line_cnt;
 294:..\..\..\lvgl\version_6.1.2\lvgl\src\lv_objx/lv_gauge.c ****         ancestor_design(gauge, mask, mode); /*To draw lines*/
 295:..\..\..\lvgl\version_6.1.2\lvgl\src\lv_objx/lv_gauge.c **** 
 296:..\..\..\lvgl\version_6.1.2\lvgl\src\lv_objx/lv_gauge.c ****         /*Temporally modify the line meter to draw longer lines where labels are*/
 297:..\..\..\lvgl\version_6.1.2\lvgl\src\lv_objx/lv_gauge.c ****         lv_style_t style_tmp;
 298:..\..\..\lvgl\version_6.1.2\lvgl\src\lv_objx/lv_gauge.c ****         lv_style_copy(&style_tmp, style);
 299:..\..\..\lvgl\version_6.1.2\lvgl\src\lv_objx/lv_gauge.c ****         ext->lmeter.line_cnt         = ext->label_count;                 /*Only to labels*/
 300:..\..\..\lvgl\version_6.1.2\lvgl\src\lv_objx/lv_gauge.c ****         style_tmp.body.padding.left  = style_tmp.body.padding.left * 2;  /*Longer lines*/
 301:..\..\..\lvgl\version_6.1.2\lvgl\src\lv_objx/lv_gauge.c ****         style_tmp.body.padding.right = style_tmp.body.padding.right * 2; /*Longer lines*/
 302:..\..\..\lvgl\version_6.1.2\lvgl\src\lv_objx/lv_gauge.c ****         gauge->style_p               = &style_tmp;
 303:..\..\..\lvgl\version_6.1.2\lvgl\src\lv_objx/lv_gauge.c **** 
 304:..\..\..\lvgl\version_6.1.2\lvgl\src\lv_objx/lv_gauge.c ****         ancestor_design(gauge, mask, mode); /*To draw lines*/
 305:..\..\..\lvgl\version_6.1.2\lvgl\src\lv_objx/lv_gauge.c **** 
 306:..\..\..\lvgl\version_6.1.2\lvgl\src\lv_objx/lv_gauge.c ****         ext->lmeter.line_cnt = line_cnt_tmp; /*Restore the parameters*/
 307:..\..\..\lvgl\version_6.1.2\lvgl\src\lv_objx/lv_gauge.c ****         gauge->style_p       = style_ori_p;  /*Restore the ORIGINAL style pointer*/
 308:..\..\..\lvgl\version_6.1.2\lvgl\src\lv_objx/lv_gauge.c **** 
 309:..\..\..\lvgl\version_6.1.2\lvgl\src\lv_objx/lv_gauge.c ****         lv_gauge_draw_needle(gauge, mask);
 310:..\..\..\lvgl\version_6.1.2\lvgl\src\lv_objx/lv_gauge.c **** 
 311:..\..\..\lvgl\version_6.1.2\lvgl\src\lv_objx/lv_gauge.c ****     }
 312:..\..\..\lvgl\version_6.1.2\lvgl\src\lv_objx/lv_gauge.c ****     /*Post draw when the children are drawn*/
 313:..\..\..\lvgl\version_6.1.2\lvgl\src\lv_objx/lv_gauge.c ****     else if(mode == LV_DESIGN_DRAW_POST) {
  55              		.loc 1 313 0
  56 0012 012A     		cmp	r2, #1
  57 0014 00F01E82 		beq	.L25
 314:..\..\..\lvgl\version_6.1.2\lvgl\src\lv_objx/lv_gauge.c ****         ancestor_design(gauge, mask, mode);
 315:..\..\..\lvgl\version_6.1.2\lvgl\src\lv_objx/lv_gauge.c ****     }
 316:..\..\..\lvgl\version_6.1.2\lvgl\src\lv_objx/lv_gauge.c **** 
 317:..\..\..\lvgl\version_6.1.2\lvgl\src\lv_objx/lv_gauge.c ****     return true;
  58              		.loc 1 317 0
  59 0018 0120     		movs	r0, #1
  60              	.LVL1:
 318:..\..\..\lvgl\version_6.1.2\lvgl\src\lv_objx/lv_gauge.c **** }
  61              		.loc 1 318 0
  62 001a 59B0     		add	sp, sp, #356
  63              		.cfi_def_cfa_offset 36
  64              		@ sp needed
  65 001c BDE8F08F 		pop	{r4, r5, r6, r7, r8, r9, r10, fp, pc}
  66              	.LVL2:
  67              	.L16:
  68              		.cfi_def_cfa_offset 0
  69              		.cfi_restore 4
  70              		.cfi_restore 5
  71              		.cfi_restore 6
  72              		.cfi_restore 7
  73              		.cfi_restore 8
  74              		.cfi_restore 9
  75              		.cfi_restore 10
  76              		.cfi_restore 11
  77              		.cfi_restore 14
 278:..\..\..\lvgl\version_6.1.2\lvgl\src\lv_objx/lv_gauge.c ****     }
  78              		.loc 1 278 0
  79 0020 0020     		movs	r0, #0
ARM GAS  C:\Users\pearlstl\AppData\Local\Temp\cccjDn63.s 			page 8


  80              	.LVL3:
  81              		.loc 1 318 0
  82 0022 7047     		bx	lr
  83              	.LVL4:
  84              	.L24:
  85              		.cfi_def_cfa_offset 392
  86              		.cfi_offset 4, -36
  87              		.cfi_offset 5, -32
  88              		.cfi_offset 6, -28
  89              		.cfi_offset 7, -24
  90              		.cfi_offset 8, -20
  91              		.cfi_offset 9, -16
  92              		.cfi_offset 10, -12
  93              		.cfi_offset 11, -8
  94              		.cfi_offset 14, -4
  95              	.LBB51:
  96              	.LBB52:
 286:..\..\..\lvgl\version_6.1.2\lvgl\src\lv_objx/lv_gauge.c ****         const lv_style_t * style       = lv_obj_get_style(gauge);
  97              		.loc 1 286 0
  98 0024 836A     		ldr	r3, [r0, #40]
  99 0026 1493     		str	r3, [sp, #80]
 100              	.LVL5:
 101 0028 0746     		mov	r7, r0
 287:..\..\..\lvgl\version_6.1.2\lvgl\src\lv_objx/lv_gauge.c ****         lv_gauge_ext_t * ext           = lv_obj_get_ext_attr(gauge);
 102              		.loc 1 287 0
 103 002a FFF7FEFF 		bl	lv_obj_get_style
 104              	.LVL6:
 105 002e 1590     		str	r0, [sp, #84]
 106              	.LVL7:
 288:..\..\..\lvgl\version_6.1.2\lvgl\src\lv_objx/lv_gauge.c **** 
 107              		.loc 1 288 0
 108 0030 3846     		mov	r0, r7
 109              	.LVL8:
 110 0032 FFF7FEFF 		bl	lv_obj_get_ext_attr
 111              	.LVL9:
 112 0036 1690     		str	r0, [sp, #88]
 113              	.LVL10:
 114              	.LBB53:
 115              	.LBB54:
 319:..\..\..\lvgl\version_6.1.2\lvgl\src\lv_objx/lv_gauge.c **** 
 320:..\..\..\lvgl\version_6.1.2\lvgl\src\lv_objx/lv_gauge.c **** /**
 321:..\..\..\lvgl\version_6.1.2\lvgl\src\lv_objx/lv_gauge.c ****  * Signal function of the gauge
 322:..\..\..\lvgl\version_6.1.2\lvgl\src\lv_objx/lv_gauge.c ****  * @param gauge pointer to a gauge object
 323:..\..\..\lvgl\version_6.1.2\lvgl\src\lv_objx/lv_gauge.c ****  * @param sign a signal type from lv_signal_t enum
 324:..\..\..\lvgl\version_6.1.2\lvgl\src\lv_objx/lv_gauge.c ****  * @param param pointer to a signal specific variable
 325:..\..\..\lvgl\version_6.1.2\lvgl\src\lv_objx/lv_gauge.c ****  * @return LV_RES_OK: the object is not deleted in the function; LV_RES_INV: the object is deleted
 326:..\..\..\lvgl\version_6.1.2\lvgl\src\lv_objx/lv_gauge.c ****  */
 327:..\..\..\lvgl\version_6.1.2\lvgl\src\lv_objx/lv_gauge.c **** static lv_res_t lv_gauge_signal(lv_obj_t * gauge, lv_signal_t sign, void * param)
 328:..\..\..\lvgl\version_6.1.2\lvgl\src\lv_objx/lv_gauge.c **** {
 329:..\..\..\lvgl\version_6.1.2\lvgl\src\lv_objx/lv_gauge.c ****     lv_res_t res;
 330:..\..\..\lvgl\version_6.1.2\lvgl\src\lv_objx/lv_gauge.c **** 
 331:..\..\..\lvgl\version_6.1.2\lvgl\src\lv_objx/lv_gauge.c ****     /* Include the ancient signal function */
 332:..\..\..\lvgl\version_6.1.2\lvgl\src\lv_objx/lv_gauge.c ****     res = ancestor_signal(gauge, sign, param);
 333:..\..\..\lvgl\version_6.1.2\lvgl\src\lv_objx/lv_gauge.c ****     if(res != LV_RES_OK) return res;
 334:..\..\..\lvgl\version_6.1.2\lvgl\src\lv_objx/lv_gauge.c ****     if(sign == LV_SIGNAL_GET_TYPE) return lv_obj_handle_get_type_signal(param, LV_OBJX_NAME);
 335:..\..\..\lvgl\version_6.1.2\lvgl\src\lv_objx/lv_gauge.c **** 
 336:..\..\..\lvgl\version_6.1.2\lvgl\src\lv_objx/lv_gauge.c ****     lv_gauge_ext_t * ext = lv_obj_get_ext_attr(gauge);
ARM GAS  C:\Users\pearlstl\AppData\Local\Temp\cccjDn63.s 			page 9


 337:..\..\..\lvgl\version_6.1.2\lvgl\src\lv_objx/lv_gauge.c ****     if(sign == LV_SIGNAL_CLEANUP) {
 338:..\..\..\lvgl\version_6.1.2\lvgl\src\lv_objx/lv_gauge.c ****         lv_mem_free(ext->values);
 339:..\..\..\lvgl\version_6.1.2\lvgl\src\lv_objx/lv_gauge.c ****         ext->values = NULL;
 340:..\..\..\lvgl\version_6.1.2\lvgl\src\lv_objx/lv_gauge.c ****     }
 341:..\..\..\lvgl\version_6.1.2\lvgl\src\lv_objx/lv_gauge.c **** 
 342:..\..\..\lvgl\version_6.1.2\lvgl\src\lv_objx/lv_gauge.c ****     return res;
 343:..\..\..\lvgl\version_6.1.2\lvgl\src\lv_objx/lv_gauge.c **** }
 344:..\..\..\lvgl\version_6.1.2\lvgl\src\lv_objx/lv_gauge.c **** 
 345:..\..\..\lvgl\version_6.1.2\lvgl\src\lv_objx/lv_gauge.c **** /**
 346:..\..\..\lvgl\version_6.1.2\lvgl\src\lv_objx/lv_gauge.c ****  * Draw the scale on a gauge
 347:..\..\..\lvgl\version_6.1.2\lvgl\src\lv_objx/lv_gauge.c ****  * @param gauge pointer to gauge object
 348:..\..\..\lvgl\version_6.1.2\lvgl\src\lv_objx/lv_gauge.c ****  * @param mask mask of drawing
 349:..\..\..\lvgl\version_6.1.2\lvgl\src\lv_objx/lv_gauge.c ****  */
 350:..\..\..\lvgl\version_6.1.2\lvgl\src\lv_objx/lv_gauge.c **** static void lv_gauge_draw_scale(lv_obj_t * gauge, const lv_area_t * mask)
 351:..\..\..\lvgl\version_6.1.2\lvgl\src\lv_objx/lv_gauge.c **** {
 352:..\..\..\lvgl\version_6.1.2\lvgl\src\lv_objx/lv_gauge.c ****     char scale_txt[16];
 353:..\..\..\lvgl\version_6.1.2\lvgl\src\lv_objx/lv_gauge.c **** 
 354:..\..\..\lvgl\version_6.1.2\lvgl\src\lv_objx/lv_gauge.c ****     lv_gauge_ext_t * ext     = lv_obj_get_ext_attr(gauge);
 116              		.loc 1 354 0
 117 0038 3846     		mov	r0, r7
 118              	.LVL11:
 119 003a FFF7FEFF 		bl	lv_obj_get_ext_attr
 120              	.LVL12:
 121 003e 0446     		mov	r4, r0
 122              	.LVL13:
 355:..\..\..\lvgl\version_6.1.2\lvgl\src\lv_objx/lv_gauge.c ****     const lv_style_t * style = lv_obj_get_style(gauge);
 123              		.loc 1 355 0
 124 0040 3846     		mov	r0, r7
 125              	.LVL14:
 126 0042 FFF7FEFF 		bl	lv_obj_get_style
 127              	.LVL15:
 128 0046 8046     		mov	r8, r0
 129              	.LVL16:
 356:..\..\..\lvgl\version_6.1.2\lvgl\src\lv_objx/lv_gauge.c ****     lv_opa_t opa_scale       = lv_obj_get_opa_scale(gauge);
 130              		.loc 1 356 0
 131 0048 3846     		mov	r0, r7
 132              	.LVL17:
 133 004a FFF7FEFF 		bl	lv_obj_get_opa_scale
 134              	.LVL18:
 135 004e 0990     		str	r0, [sp, #36]
 136              	.LVL19:
 357:..\..\..\lvgl\version_6.1.2\lvgl\src\lv_objx/lv_gauge.c ****     lv_coord_t r             = lv_obj_get_width(gauge) / 2 - (3 * style->body.padding.left) - style
 137              		.loc 1 357 0
 138 0050 3846     		mov	r0, r7
 139 0052 FFF7FEFF 		bl	lv_obj_get_width
 140              	.LVL20:
 141 0056 B8F82430 		ldrh	r3, [r8, #36]
 142 005a B8F828B0 		ldrh	fp, [r8, #40]
 143 005e A3EB8303 		sub	r3, r3, r3, lsl #2
 144 0062 CBEB0303 		rsb	r3, fp, r3
 145 0066 00EBD070 		add	r0, r0, r0, lsr #31
 146 006a 03EB600B 		add	fp, r3, r0, asr #1
 358:..\..\..\lvgl\version_6.1.2\lvgl\src\lv_objx/lv_gauge.c ****     lv_coord_t x_ofs         = lv_obj_get_width(gauge) / 2 + gauge->coords.x1;
 147              		.loc 1 358 0
 148 006e 3846     		mov	r0, r7
 149 0070 FFF7FEFF 		bl	lv_obj_get_width
 150              	.LVL21:
ARM GAS  C:\Users\pearlstl\AppData\Local\Temp\cccjDn63.s 			page 10


 151 0074 3B8A     		ldrh	r3, [r7, #16]
 152 0076 00EBD070 		add	r0, r0, r0, lsr #31
 153 007a 03EB6003 		add	r3, r3, r0, asr #1
 154 007e 99B2     		uxth	r1, r3
 359:..\..\..\lvgl\version_6.1.2\lvgl\src\lv_objx/lv_gauge.c ****     lv_coord_t y_ofs         = lv_obj_get_height(gauge) / 2 + gauge->coords.y1;
 155              		.loc 1 359 0
 156 0080 3846     		mov	r0, r7
 358:..\..\..\lvgl\version_6.1.2\lvgl\src\lv_objx/lv_gauge.c ****     lv_coord_t x_ofs         = lv_obj_get_width(gauge) / 2 + gauge->coords.x1;
 157              		.loc 1 358 0
 158 0082 0B91     		str	r1, [sp, #44]
 159              		.loc 1 359 0
 160 0084 FFF7FEFF 		bl	lv_obj_get_height
 161              	.LVL22:
 162 0088 7B8A     		ldrh	r3, [r7, #18]
 163 008a 00EBD070 		add	r0, r0, r0, lsr #31
 164 008e 03EB6003 		add	r3, r3, r0, asr #1
 165 0092 9BB2     		uxth	r3, r3
 360:..\..\..\lvgl\version_6.1.2\lvgl\src\lv_objx/lv_gauge.c ****     int16_t scale_angle      = lv_lmeter_get_scale_angle(gauge);
 166              		.loc 1 360 0
 167 0094 3846     		mov	r0, r7
 359:..\..\..\lvgl\version_6.1.2\lvgl\src\lv_objx/lv_gauge.c ****     lv_coord_t y_ofs         = lv_obj_get_height(gauge) / 2 + gauge->coords.y1;
 168              		.loc 1 359 0
 169 0096 0D93     		str	r3, [sp, #52]
 170              		.loc 1 360 0
 171 0098 FFF7FEFF 		bl	lv_lmeter_get_scale_angle
 172              	.LVL23:
 173 009c 03B2     		sxth	r3, r0
 174 009e 0E93     		str	r3, [sp, #56]
 361:..\..\..\lvgl\version_6.1.2\lvgl\src\lv_objx/lv_gauge.c ****     uint16_t label_num       = ext->label_count;
 362:..\..\..\lvgl\version_6.1.2\lvgl\src\lv_objx/lv_gauge.c ****     int16_t angle_ofs        = 90 + (360 - scale_angle) / 2;
 175              		.loc 1 362 0
 176 00a0 C3F5B473 		rsb	r3, r3, #360
 177 00a4 03EBD373 		add	r3, r3, r3, lsr #31
 178 00a8 5B10     		asrs	r3, r3, #1
 361:..\..\..\lvgl\version_6.1.2\lvgl\src\lv_objx/lv_gauge.c ****     uint16_t label_num       = ext->label_count;
 179              		.loc 1 361 0
 180 00aa 94F81590 		ldrb	r9, [r4, #21]	@ zero_extendqisi2
 181              		.loc 1 362 0
 182 00ae 5A33     		adds	r3, r3, #90
 183 00b0 9BB2     		uxth	r3, r3
 184 00b2 1093     		str	r3, [sp, #64]
 185              	.LBB55:
 186              	.LBB56:
 187              		.file 2 "..\\..\\..\\lvgl\\version_6.1.2\\lvgl\\src\\lv_objx\\lv_gauge.h"
   1:..\..\..\lvgl\version_6.1.2\lvgl\src\lv_objx/lv_gauge.h **** /**
   2:..\..\..\lvgl\version_6.1.2\lvgl\src\lv_objx/lv_gauge.h ****  * @file lv_gauge.h
   3:..\..\..\lvgl\version_6.1.2\lvgl\src\lv_objx/lv_gauge.h ****  *
   4:..\..\..\lvgl\version_6.1.2\lvgl\src\lv_objx/lv_gauge.h ****  */
   5:..\..\..\lvgl\version_6.1.2\lvgl\src\lv_objx/lv_gauge.h **** 
   6:..\..\..\lvgl\version_6.1.2\lvgl\src\lv_objx/lv_gauge.h **** #ifndef LV_GAUGE_H
   7:..\..\..\lvgl\version_6.1.2\lvgl\src\lv_objx/lv_gauge.h **** #define LV_GAUGE_H
   8:..\..\..\lvgl\version_6.1.2\lvgl\src\lv_objx/lv_gauge.h **** 
   9:..\..\..\lvgl\version_6.1.2\lvgl\src\lv_objx/lv_gauge.h **** #ifdef __cplusplus
  10:..\..\..\lvgl\version_6.1.2\lvgl\src\lv_objx/lv_gauge.h **** extern "C" {
  11:..\..\..\lvgl\version_6.1.2\lvgl\src\lv_objx/lv_gauge.h **** #endif
  12:..\..\..\lvgl\version_6.1.2\lvgl\src\lv_objx/lv_gauge.h **** 
  13:..\..\..\lvgl\version_6.1.2\lvgl\src\lv_objx/lv_gauge.h **** /*********************
ARM GAS  C:\Users\pearlstl\AppData\Local\Temp\cccjDn63.s 			page 11


  14:..\..\..\lvgl\version_6.1.2\lvgl\src\lv_objx/lv_gauge.h ****  *      INCLUDES
  15:..\..\..\lvgl\version_6.1.2\lvgl\src\lv_objx/lv_gauge.h ****  *********************/
  16:..\..\..\lvgl\version_6.1.2\lvgl\src\lv_objx/lv_gauge.h **** #ifdef LV_CONF_INCLUDE_SIMPLE
  17:..\..\..\lvgl\version_6.1.2\lvgl\src\lv_objx/lv_gauge.h **** #include "lv_conf.h"
  18:..\..\..\lvgl\version_6.1.2\lvgl\src\lv_objx/lv_gauge.h **** #else
  19:..\..\..\lvgl\version_6.1.2\lvgl\src\lv_objx/lv_gauge.h **** #include "../../../lv_conf.h"
  20:..\..\..\lvgl\version_6.1.2\lvgl\src\lv_objx/lv_gauge.h **** #endif
  21:..\..\..\lvgl\version_6.1.2\lvgl\src\lv_objx/lv_gauge.h **** 
  22:..\..\..\lvgl\version_6.1.2\lvgl\src\lv_objx/lv_gauge.h **** #if LV_USE_GAUGE != 0
  23:..\..\..\lvgl\version_6.1.2\lvgl\src\lv_objx/lv_gauge.h **** 
  24:..\..\..\lvgl\version_6.1.2\lvgl\src\lv_objx/lv_gauge.h **** /*Testing of dependencies*/
  25:..\..\..\lvgl\version_6.1.2\lvgl\src\lv_objx/lv_gauge.h **** #if LV_USE_LMETER == 0
  26:..\..\..\lvgl\version_6.1.2\lvgl\src\lv_objx/lv_gauge.h **** #error "lv_gauge: lv_lmeter is required. Enable it in lv_conf.h (LV_USE_LMETER  1) "
  27:..\..\..\lvgl\version_6.1.2\lvgl\src\lv_objx/lv_gauge.h **** #endif
  28:..\..\..\lvgl\version_6.1.2\lvgl\src\lv_objx/lv_gauge.h **** 
  29:..\..\..\lvgl\version_6.1.2\lvgl\src\lv_objx/lv_gauge.h **** #include "../lv_core/lv_obj.h"
  30:..\..\..\lvgl\version_6.1.2\lvgl\src\lv_objx/lv_gauge.h **** #include "lv_lmeter.h"
  31:..\..\..\lvgl\version_6.1.2\lvgl\src\lv_objx/lv_gauge.h **** #include "lv_label.h"
  32:..\..\..\lvgl\version_6.1.2\lvgl\src\lv_objx/lv_gauge.h **** #include "lv_line.h"
  33:..\..\..\lvgl\version_6.1.2\lvgl\src\lv_objx/lv_gauge.h **** 
  34:..\..\..\lvgl\version_6.1.2\lvgl\src\lv_objx/lv_gauge.h **** /*********************
  35:..\..\..\lvgl\version_6.1.2\lvgl\src\lv_objx/lv_gauge.h ****  *      DEFINES
  36:..\..\..\lvgl\version_6.1.2\lvgl\src\lv_objx/lv_gauge.h ****  *********************/
  37:..\..\..\lvgl\version_6.1.2\lvgl\src\lv_objx/lv_gauge.h **** 
  38:..\..\..\lvgl\version_6.1.2\lvgl\src\lv_objx/lv_gauge.h **** /**********************
  39:..\..\..\lvgl\version_6.1.2\lvgl\src\lv_objx/lv_gauge.h ****  *      TYPEDEFS
  40:..\..\..\lvgl\version_6.1.2\lvgl\src\lv_objx/lv_gauge.h ****  **********************/
  41:..\..\..\lvgl\version_6.1.2\lvgl\src\lv_objx/lv_gauge.h **** 
  42:..\..\..\lvgl\version_6.1.2\lvgl\src\lv_objx/lv_gauge.h **** /*Data of gauge*/
  43:..\..\..\lvgl\version_6.1.2\lvgl\src\lv_objx/lv_gauge.h **** typedef struct
  44:..\..\..\lvgl\version_6.1.2\lvgl\src\lv_objx/lv_gauge.h **** {
  45:..\..\..\lvgl\version_6.1.2\lvgl\src\lv_objx/lv_gauge.h ****     lv_lmeter_ext_t lmeter; /*Ext. of ancestor*/
  46:..\..\..\lvgl\version_6.1.2\lvgl\src\lv_objx/lv_gauge.h ****     /*New data for this type */
  47:..\..\..\lvgl\version_6.1.2\lvgl\src\lv_objx/lv_gauge.h ****     int16_t * values;                 /*Array of the set values (for needles) */
  48:..\..\..\lvgl\version_6.1.2\lvgl\src\lv_objx/lv_gauge.h ****     const lv_color_t * needle_colors; /*Color of the needles (lv_color_t my_colors[needle_num])*/
  49:..\..\..\lvgl\version_6.1.2\lvgl\src\lv_objx/lv_gauge.h ****     uint8_t needle_count;             /*Number of needles*/
  50:..\..\..\lvgl\version_6.1.2\lvgl\src\lv_objx/lv_gauge.h ****     uint8_t label_count;              /*Number of labels on the scale*/
  51:..\..\..\lvgl\version_6.1.2\lvgl\src\lv_objx/lv_gauge.h **** } lv_gauge_ext_t;
  52:..\..\..\lvgl\version_6.1.2\lvgl\src\lv_objx/lv_gauge.h **** 
  53:..\..\..\lvgl\version_6.1.2\lvgl\src\lv_objx/lv_gauge.h **** /*Styles*/
  54:..\..\..\lvgl\version_6.1.2\lvgl\src\lv_objx/lv_gauge.h **** enum {
  55:..\..\..\lvgl\version_6.1.2\lvgl\src\lv_objx/lv_gauge.h ****     LV_GAUGE_STYLE_MAIN,
  56:..\..\..\lvgl\version_6.1.2\lvgl\src\lv_objx/lv_gauge.h **** };
  57:..\..\..\lvgl\version_6.1.2\lvgl\src\lv_objx/lv_gauge.h **** typedef uint8_t lv_gauge_style_t;
  58:..\..\..\lvgl\version_6.1.2\lvgl\src\lv_objx/lv_gauge.h **** 
  59:..\..\..\lvgl\version_6.1.2\lvgl\src\lv_objx/lv_gauge.h **** /**********************
  60:..\..\..\lvgl\version_6.1.2\lvgl\src\lv_objx/lv_gauge.h ****  * GLOBAL PROTOTYPES
  61:..\..\..\lvgl\version_6.1.2\lvgl\src\lv_objx/lv_gauge.h ****  **********************/
  62:..\..\..\lvgl\version_6.1.2\lvgl\src\lv_objx/lv_gauge.h **** 
  63:..\..\..\lvgl\version_6.1.2\lvgl\src\lv_objx/lv_gauge.h **** /**
  64:..\..\..\lvgl\version_6.1.2\lvgl\src\lv_objx/lv_gauge.h ****  * Create a gauge objects
  65:..\..\..\lvgl\version_6.1.2\lvgl\src\lv_objx/lv_gauge.h ****  * @param par pointer to an object, it will be the parent of the new gauge
  66:..\..\..\lvgl\version_6.1.2\lvgl\src\lv_objx/lv_gauge.h ****  * @param copy pointer to a gauge object, if not NULL then the new object will be copied from it
  67:..\..\..\lvgl\version_6.1.2\lvgl\src\lv_objx/lv_gauge.h ****  * @return pointer to the created gauge
  68:..\..\..\lvgl\version_6.1.2\lvgl\src\lv_objx/lv_gauge.h ****  */
  69:..\..\..\lvgl\version_6.1.2\lvgl\src\lv_objx/lv_gauge.h **** lv_obj_t * lv_gauge_create(lv_obj_t * par, const lv_obj_t * copy);
  70:..\..\..\lvgl\version_6.1.2\lvgl\src\lv_objx/lv_gauge.h **** 
ARM GAS  C:\Users\pearlstl\AppData\Local\Temp\cccjDn63.s 			page 12


  71:..\..\..\lvgl\version_6.1.2\lvgl\src\lv_objx/lv_gauge.h **** /*=====================
  72:..\..\..\lvgl\version_6.1.2\lvgl\src\lv_objx/lv_gauge.h ****  * Setter functions
  73:..\..\..\lvgl\version_6.1.2\lvgl\src\lv_objx/lv_gauge.h ****  *====================*/
  74:..\..\..\lvgl\version_6.1.2\lvgl\src\lv_objx/lv_gauge.h **** 
  75:..\..\..\lvgl\version_6.1.2\lvgl\src\lv_objx/lv_gauge.h **** /**
  76:..\..\..\lvgl\version_6.1.2\lvgl\src\lv_objx/lv_gauge.h ****  * Set the number of needles
  77:..\..\..\lvgl\version_6.1.2\lvgl\src\lv_objx/lv_gauge.h ****  * @param gauge pointer to gauge object
  78:..\..\..\lvgl\version_6.1.2\lvgl\src\lv_objx/lv_gauge.h ****  * @param needle_cnt new count of needles
  79:..\..\..\lvgl\version_6.1.2\lvgl\src\lv_objx/lv_gauge.h ****  * @param colors an array of colors for needles (with 'num' elements)
  80:..\..\..\lvgl\version_6.1.2\lvgl\src\lv_objx/lv_gauge.h ****  */
  81:..\..\..\lvgl\version_6.1.2\lvgl\src\lv_objx/lv_gauge.h **** void lv_gauge_set_needle_count(lv_obj_t * gauge, uint8_t needle_cnt, const lv_color_t colors[]);
  82:..\..\..\lvgl\version_6.1.2\lvgl\src\lv_objx/lv_gauge.h **** 
  83:..\..\..\lvgl\version_6.1.2\lvgl\src\lv_objx/lv_gauge.h **** /**
  84:..\..\..\lvgl\version_6.1.2\lvgl\src\lv_objx/lv_gauge.h ****  * Set the value of a needle
  85:..\..\..\lvgl\version_6.1.2\lvgl\src\lv_objx/lv_gauge.h ****  * @param gauge pointer to a gauge
  86:..\..\..\lvgl\version_6.1.2\lvgl\src\lv_objx/lv_gauge.h ****  * @param needle_id the id of the needle
  87:..\..\..\lvgl\version_6.1.2\lvgl\src\lv_objx/lv_gauge.h ****  * @param value the new value
  88:..\..\..\lvgl\version_6.1.2\lvgl\src\lv_objx/lv_gauge.h ****  */
  89:..\..\..\lvgl\version_6.1.2\lvgl\src\lv_objx/lv_gauge.h **** void lv_gauge_set_value(lv_obj_t * gauge, uint8_t needle_id, int16_t value);
  90:..\..\..\lvgl\version_6.1.2\lvgl\src\lv_objx/lv_gauge.h **** 
  91:..\..\..\lvgl\version_6.1.2\lvgl\src\lv_objx/lv_gauge.h **** /**
  92:..\..\..\lvgl\version_6.1.2\lvgl\src\lv_objx/lv_gauge.h ****  * Set minimum and the maximum values of a gauge
  93:..\..\..\lvgl\version_6.1.2\lvgl\src\lv_objx/lv_gauge.h ****  * @param gauge pointer to he gauge object
  94:..\..\..\lvgl\version_6.1.2\lvgl\src\lv_objx/lv_gauge.h ****  * @param min minimum value
  95:..\..\..\lvgl\version_6.1.2\lvgl\src\lv_objx/lv_gauge.h ****  * @param max maximum value
  96:..\..\..\lvgl\version_6.1.2\lvgl\src\lv_objx/lv_gauge.h ****  */
  97:..\..\..\lvgl\version_6.1.2\lvgl\src\lv_objx/lv_gauge.h **** static inline void lv_gauge_set_range(lv_obj_t * gauge, int16_t min, int16_t max)
  98:..\..\..\lvgl\version_6.1.2\lvgl\src\lv_objx/lv_gauge.h **** {
  99:..\..\..\lvgl\version_6.1.2\lvgl\src\lv_objx/lv_gauge.h ****     lv_lmeter_set_range(gauge, min, max);
 100:..\..\..\lvgl\version_6.1.2\lvgl\src\lv_objx/lv_gauge.h **** }
 101:..\..\..\lvgl\version_6.1.2\lvgl\src\lv_objx/lv_gauge.h **** 
 102:..\..\..\lvgl\version_6.1.2\lvgl\src\lv_objx/lv_gauge.h **** /**
 103:..\..\..\lvgl\version_6.1.2\lvgl\src\lv_objx/lv_gauge.h ****  * Set a critical value on the scale. After this value 'line.color' scale lines will be drawn
 104:..\..\..\lvgl\version_6.1.2\lvgl\src\lv_objx/lv_gauge.h ****  * @param gauge pointer to a gauge object
 105:..\..\..\lvgl\version_6.1.2\lvgl\src\lv_objx/lv_gauge.h ****  * @param value the critical value
 106:..\..\..\lvgl\version_6.1.2\lvgl\src\lv_objx/lv_gauge.h ****  */
 107:..\..\..\lvgl\version_6.1.2\lvgl\src\lv_objx/lv_gauge.h **** static inline void lv_gauge_set_critical_value(lv_obj_t * gauge, int16_t value)
 108:..\..\..\lvgl\version_6.1.2\lvgl\src\lv_objx/lv_gauge.h **** {
 109:..\..\..\lvgl\version_6.1.2\lvgl\src\lv_objx/lv_gauge.h ****     lv_lmeter_set_value(gauge, value);
 110:..\..\..\lvgl\version_6.1.2\lvgl\src\lv_objx/lv_gauge.h **** }
 111:..\..\..\lvgl\version_6.1.2\lvgl\src\lv_objx/lv_gauge.h **** 
 112:..\..\..\lvgl\version_6.1.2\lvgl\src\lv_objx/lv_gauge.h **** /**
 113:..\..\..\lvgl\version_6.1.2\lvgl\src\lv_objx/lv_gauge.h ****  * Set the scale settings of a gauge
 114:..\..\..\lvgl\version_6.1.2\lvgl\src\lv_objx/lv_gauge.h ****  * @param gauge pointer to a gauge object
 115:..\..\..\lvgl\version_6.1.2\lvgl\src\lv_objx/lv_gauge.h ****  * @param angle angle of the scale (0..360)
 116:..\..\..\lvgl\version_6.1.2\lvgl\src\lv_objx/lv_gauge.h ****  * @param line_cnt count of scale lines.
 117:..\..\..\lvgl\version_6.1.2\lvgl\src\lv_objx/lv_gauge.h ****  * The get a given "subdivision" lines between label, `line_cnt` = (sub_div + 1) * (label_cnt - 1) 
 118:..\..\..\lvgl\version_6.1.2\lvgl\src\lv_objx/lv_gauge.h ****  * 1
 119:..\..\..\lvgl\version_6.1.2\lvgl\src\lv_objx/lv_gauge.h ****  * @param label_cnt count of scale labels.
 120:..\..\..\lvgl\version_6.1.2\lvgl\src\lv_objx/lv_gauge.h ****  */
 121:..\..\..\lvgl\version_6.1.2\lvgl\src\lv_objx/lv_gauge.h **** void lv_gauge_set_scale(lv_obj_t * gauge, uint16_t angle, uint8_t line_cnt, uint8_t label_cnt);
 122:..\..\..\lvgl\version_6.1.2\lvgl\src\lv_objx/lv_gauge.h **** 
 123:..\..\..\lvgl\version_6.1.2\lvgl\src\lv_objx/lv_gauge.h **** /**
 124:..\..\..\lvgl\version_6.1.2\lvgl\src\lv_objx/lv_gauge.h ****  * Set the styles of a gauge
 125:..\..\..\lvgl\version_6.1.2\lvgl\src\lv_objx/lv_gauge.h ****  * @param gauge pointer to a gauge object
 126:..\..\..\lvgl\version_6.1.2\lvgl\src\lv_objx/lv_gauge.h ****  * @param type which style should be set (can be only `LV_GAUGE_STYLE_MAIN`)
 127:..\..\..\lvgl\version_6.1.2\lvgl\src\lv_objx/lv_gauge.h ****  * @param style set the style of the gauge
ARM GAS  C:\Users\pearlstl\AppData\Local\Temp\cccjDn63.s 			page 13


 128:..\..\..\lvgl\version_6.1.2\lvgl\src\lv_objx/lv_gauge.h ****  *  */
 129:..\..\..\lvgl\version_6.1.2\lvgl\src\lv_objx/lv_gauge.h **** static inline void lv_gauge_set_style(lv_obj_t * gauge, lv_gauge_style_t type, lv_style_t * style)
 130:..\..\..\lvgl\version_6.1.2\lvgl\src\lv_objx/lv_gauge.h **** {
 131:..\..\..\lvgl\version_6.1.2\lvgl\src\lv_objx/lv_gauge.h ****     (void)type; /*Unused*/
 132:..\..\..\lvgl\version_6.1.2\lvgl\src\lv_objx/lv_gauge.h ****     lv_obj_set_style(gauge, style);
 133:..\..\..\lvgl\version_6.1.2\lvgl\src\lv_objx/lv_gauge.h **** }
 134:..\..\..\lvgl\version_6.1.2\lvgl\src\lv_objx/lv_gauge.h **** 
 135:..\..\..\lvgl\version_6.1.2\lvgl\src\lv_objx/lv_gauge.h **** /*=====================
 136:..\..\..\lvgl\version_6.1.2\lvgl\src\lv_objx/lv_gauge.h ****  * Getter functions
 137:..\..\..\lvgl\version_6.1.2\lvgl\src\lv_objx/lv_gauge.h ****  *====================*/
 138:..\..\..\lvgl\version_6.1.2\lvgl\src\lv_objx/lv_gauge.h **** 
 139:..\..\..\lvgl\version_6.1.2\lvgl\src\lv_objx/lv_gauge.h **** /**
 140:..\..\..\lvgl\version_6.1.2\lvgl\src\lv_objx/lv_gauge.h ****  * Get the value of a needle
 141:..\..\..\lvgl\version_6.1.2\lvgl\src\lv_objx/lv_gauge.h ****  * @param gauge pointer to gauge object
 142:..\..\..\lvgl\version_6.1.2\lvgl\src\lv_objx/lv_gauge.h ****  * @param needle the id of the needle
 143:..\..\..\lvgl\version_6.1.2\lvgl\src\lv_objx/lv_gauge.h ****  * @return the value of the needle [min,max]
 144:..\..\..\lvgl\version_6.1.2\lvgl\src\lv_objx/lv_gauge.h ****  */
 145:..\..\..\lvgl\version_6.1.2\lvgl\src\lv_objx/lv_gauge.h **** int16_t lv_gauge_get_value(const lv_obj_t * gauge, uint8_t needle);
 146:..\..\..\lvgl\version_6.1.2\lvgl\src\lv_objx/lv_gauge.h **** 
 147:..\..\..\lvgl\version_6.1.2\lvgl\src\lv_objx/lv_gauge.h **** /**
 148:..\..\..\lvgl\version_6.1.2\lvgl\src\lv_objx/lv_gauge.h ****  * Get the count of needles on a gauge
 149:..\..\..\lvgl\version_6.1.2\lvgl\src\lv_objx/lv_gauge.h ****  * @param gauge pointer to gauge
 150:..\..\..\lvgl\version_6.1.2\lvgl\src\lv_objx/lv_gauge.h ****  * @return count of needles
 151:..\..\..\lvgl\version_6.1.2\lvgl\src\lv_objx/lv_gauge.h ****  */
 152:..\..\..\lvgl\version_6.1.2\lvgl\src\lv_objx/lv_gauge.h **** uint8_t lv_gauge_get_needle_count(const lv_obj_t * gauge);
 153:..\..\..\lvgl\version_6.1.2\lvgl\src\lv_objx/lv_gauge.h **** 
 154:..\..\..\lvgl\version_6.1.2\lvgl\src\lv_objx/lv_gauge.h **** /**
 155:..\..\..\lvgl\version_6.1.2\lvgl\src\lv_objx/lv_gauge.h ****  * Get the minimum value of a gauge
 156:..\..\..\lvgl\version_6.1.2\lvgl\src\lv_objx/lv_gauge.h ****  * @param gauge pointer to a gauge object
 157:..\..\..\lvgl\version_6.1.2\lvgl\src\lv_objx/lv_gauge.h ****  * @return the minimum value of the gauge
 158:..\..\..\lvgl\version_6.1.2\lvgl\src\lv_objx/lv_gauge.h ****  */
 159:..\..\..\lvgl\version_6.1.2\lvgl\src\lv_objx/lv_gauge.h **** static inline int16_t lv_gauge_get_min_value(const lv_obj_t * lmeter)
 160:..\..\..\lvgl\version_6.1.2\lvgl\src\lv_objx/lv_gauge.h **** {
 161:..\..\..\lvgl\version_6.1.2\lvgl\src\lv_objx/lv_gauge.h ****     return lv_lmeter_get_min_value(lmeter);
 188              		.loc 2 161 0
 189 00b4 3846     		mov	r0, r7
 190              	.LBE56:
 191              	.LBE55:
 361:..\..\..\lvgl\version_6.1.2\lvgl\src\lv_objx/lv_gauge.c ****     uint16_t label_num       = ext->label_count;
 192              		.loc 1 361 0
 193 00b6 1FFA89F3 		uxth	r3, r9
 194 00ba 1D46     		mov	r5, r3
 195 00bc 0F93     		str	r3, [sp, #60]
 196              	.LBB58:
 197              	.LBB57:
 198              		.loc 2 161 0
 199 00be FFF7FEFF 		bl	lv_lmeter_get_min_value
 200              	.LVL24:
 201 00c2 0446     		mov	r4, r0
 202              	.LVL25:
 203              	.LBE57:
 204              	.LBE58:
 205              	.LBB59:
 206              	.LBB60:
 162:..\..\..\lvgl\version_6.1.2\lvgl\src\lv_objx/lv_gauge.h **** }
 163:..\..\..\lvgl\version_6.1.2\lvgl\src\lv_objx/lv_gauge.h **** 
 164:..\..\..\lvgl\version_6.1.2\lvgl\src\lv_objx/lv_gauge.h **** /**
ARM GAS  C:\Users\pearlstl\AppData\Local\Temp\cccjDn63.s 			page 14


 165:..\..\..\lvgl\version_6.1.2\lvgl\src\lv_objx/lv_gauge.h ****  * Get the maximum value of a gauge
 166:..\..\..\lvgl\version_6.1.2\lvgl\src\lv_objx/lv_gauge.h ****  * @param gauge pointer to a gauge object
 167:..\..\..\lvgl\version_6.1.2\lvgl\src\lv_objx/lv_gauge.h ****  * @return the maximum value of the gauge
 168:..\..\..\lvgl\version_6.1.2\lvgl\src\lv_objx/lv_gauge.h ****  */
 169:..\..\..\lvgl\version_6.1.2\lvgl\src\lv_objx/lv_gauge.h **** static inline int16_t lv_gauge_get_max_value(const lv_obj_t * lmeter)
 170:..\..\..\lvgl\version_6.1.2\lvgl\src\lv_objx/lv_gauge.h **** {
 171:..\..\..\lvgl\version_6.1.2\lvgl\src\lv_objx/lv_gauge.h ****     return lv_lmeter_get_max_value(lmeter);
 207              		.loc 2 171 0
 208 00c4 3846     		mov	r0, r7
 209              	.LBE60:
 210              	.LBE59:
 357:..\..\..\lvgl\version_6.1.2\lvgl\src\lv_objx/lv_gauge.c ****     lv_coord_t x_ofs         = lv_obj_get_width(gauge) / 2 + gauge->coords.x1;
 211              		.loc 1 357 0
 212 00c6 0FFA8BFB 		sxth	fp, fp
 213              	.LVL26:
 214              	.LBB62:
 215              	.LBB61:
 216              		.loc 2 171 0
 217 00ca FFF7FEFF 		bl	lv_lmeter_get_max_value
 218              	.LVL27:
 219              	.LBE61:
 220              	.LBE62:
 363:..\..\..\lvgl\version_6.1.2\lvgl\src\lv_objx/lv_gauge.c ****     int16_t min              = lv_gauge_get_min_value(gauge);
 364:..\..\..\lvgl\version_6.1.2\lvgl\src\lv_objx/lv_gauge.c ****     int16_t max              = lv_gauge_get_max_value(gauge);
 365:..\..\..\lvgl\version_6.1.2\lvgl\src\lv_objx/lv_gauge.c **** 
 366:..\..\..\lvgl\version_6.1.2\lvgl\src\lv_objx/lv_gauge.c ****     uint8_t i;
 367:..\..\..\lvgl\version_6.1.2\lvgl\src\lv_objx/lv_gauge.c ****     for(i = 0; i < label_num; i++) {
 221              		.loc 1 367 0
 222 00ce 002D     		cmp	r5, #0
 223 00d0 00F0C781 		beq	.L26
 224              	.LVL28:
 225 00d4 031B     		subs	r3, r0, r4
 226 00d6 1193     		str	r3, [sp, #68]
 227 00d8 A3B2     		uxth	r3, r4
 228 00da 1293     		str	r3, [sp, #72]
 229 00dc 1CAB     		add	r3, sp, #112
 230 00de 0893     		str	r3, [sp, #32]
 231 00e0 30AB     		add	r3, sp, #192
 232 00e2 0A93     		str	r3, [sp, #40]
 233              	.LBB63:
 368:..\..\..\lvgl\version_6.1.2\lvgl\src\lv_objx/lv_gauge.c ****         /*Calculate the position a scale label*/
 369:..\..\..\lvgl\version_6.1.2\lvgl\src\lv_objx/lv_gauge.c ****         int16_t angle = (i * scale_angle) / (label_num - 1) + angle_ofs;
 370:..\..\..\lvgl\version_6.1.2\lvgl\src\lv_objx/lv_gauge.c **** 
 371:..\..\..\lvgl\version_6.1.2\lvgl\src\lv_objx/lv_gauge.c ****         lv_coord_t y = (int32_t)((int32_t)lv_trigo_sin(angle) * r) / LV_TRIGO_SIN_MAX;
 372:..\..\..\lvgl\version_6.1.2\lvgl\src\lv_objx/lv_gauge.c ****         y += y_ofs;
 373:..\..\..\lvgl\version_6.1.2\lvgl\src\lv_objx/lv_gauge.c **** 
 374:..\..\..\lvgl\version_6.1.2\lvgl\src\lv_objx/lv_gauge.c ****         lv_coord_t x = (int32_t)((int32_t)lv_trigo_sin(angle + 90) * r) / LV_TRIGO_SIN_MAX;
 375:..\..\..\lvgl\version_6.1.2\lvgl\src\lv_objx/lv_gauge.c ****         x += x_ofs;
 376:..\..\..\lvgl\version_6.1.2\lvgl\src\lv_objx/lv_gauge.c **** 
 377:..\..\..\lvgl\version_6.1.2\lvgl\src\lv_objx/lv_gauge.c ****         int16_t scale_act = (int32_t)((int32_t)(max - min) * i) / (label_num - 1);
 378:..\..\..\lvgl\version_6.1.2\lvgl\src\lv_objx/lv_gauge.c ****         scale_act += min;
 379:..\..\..\lvgl\version_6.1.2\lvgl\src\lv_objx/lv_gauge.c ****         lv_utils_num_to_str(scale_act, scale_txt);
 380:..\..\..\lvgl\version_6.1.2\lvgl\src\lv_objx/lv_gauge.c **** 
 381:..\..\..\lvgl\version_6.1.2\lvgl\src\lv_objx/lv_gauge.c ****         lv_area_t label_cord;
 382:..\..\..\lvgl\version_6.1.2\lvgl\src\lv_objx/lv_gauge.c ****         lv_point_t label_size;
 383:..\..\..\lvgl\version_6.1.2\lvgl\src\lv_objx/lv_gauge.c ****         lv_txt_get_size(&label_size, scale_txt, style->text.font, style->text.letter_space, style->
 384:..\..\..\lvgl\version_6.1.2\lvgl\src\lv_objx/lv_gauge.c ****                         LV_COORD_MAX, LV_TXT_FLAG_NONE);
ARM GAS  C:\Users\pearlstl\AppData\Local\Temp\cccjDn63.s 			page 15


 385:..\..\..\lvgl\version_6.1.2\lvgl\src\lv_objx/lv_gauge.c **** 
 386:..\..\..\lvgl\version_6.1.2\lvgl\src\lv_objx/lv_gauge.c ****         /*Draw the label*/
 387:..\..\..\lvgl\version_6.1.2\lvgl\src\lv_objx/lv_gauge.c ****         label_cord.x1 = x - label_size.x / 2;
 234              		.loc 1 387 0
 235 00e4 DFF894A3 		ldr	r10, .L27+12
 383:..\..\..\lvgl\version_6.1.2\lvgl\src\lv_objx/lv_gauge.c ****                         LV_COORD_MAX, LV_TXT_FLAG_NONE);
 236              		.loc 1 383 0
 237 00e8 CDF84CB0 		str	fp, [sp, #76]
 238 00ec 44AB     		add	r3, sp, #272
 239 00ee 09F1FF39 		add	r9, r9, #-1
 240 00f2 3746     		mov	r7, r6
 241              	.LVL29:
 242 00f4 1793     		str	r3, [sp, #92]
 243 00f6 9B46     		mov	fp, r3
 244              	.LVL30:
 245              	.L7:
 369:..\..\..\lvgl\version_6.1.2\lvgl\src\lv_objx/lv_gauge.c **** 
 246              		.loc 1 369 0
 247 00f8 BDF83830 		ldrh	r3, [sp, #56]
 248 00fc 16FB03F5 		smulbb	r5, r6, r3
 249 0100 109B     		ldr	r3, [sp, #64]
 250 0102 95FBF9F5 		sdiv	r5, r5, r9
 251 0106 1D44     		add	r5, r5, r3
 252 0108 ADB2     		uxth	r5, r5
 253              	.LVL31:
 371:..\..\..\lvgl\version_6.1.2\lvgl\src\lv_objx/lv_gauge.c ****         y += y_ofs;
 254              		.loc 1 371 0
 255 010a 28B2     		sxth	r0, r5
 256 010c FFF7FEFF 		bl	lv_trigo_sin
 257              	.LVL32:
 258 0110 0446     		mov	r4, r0
 259              	.LVL33:
 374:..\..\..\lvgl\version_6.1.2\lvgl\src\lv_objx/lv_gauge.c ****         x += x_ofs;
 260              		.loc 1 374 0
 261 0112 05F15A00 		add	r0, r5, #90
 262 0116 00B2     		sxth	r0, r0
 263 0118 FFF7FEFF 		bl	lv_trigo_sin
 264              	.LVL34:
 379:..\..\..\lvgl\version_6.1.2\lvgl\src\lv_objx/lv_gauge.c **** 
 265              		.loc 1 379 0
 266 011c 119B     		ldr	r3, [sp, #68]
 374:..\..\..\lvgl\version_6.1.2\lvgl\src\lv_objx/lv_gauge.c ****         x += x_ofs;
 267              		.loc 1 374 0
 268 011e 0546     		mov	r5, r0
 269              	.LVL35:
 379:..\..\..\lvgl\version_6.1.2\lvgl\src\lv_objx/lv_gauge.c **** 
 270              		.loc 1 379 0
 271 0120 03FB06F0 		mul	r0, r3, r6
 272 0124 129B     		ldr	r3, [sp, #72]
 273              	.LVL36:
 274 0126 90FBF9F0 		sdiv	r0, r0, r9
 275 012a 1844     		add	r0, r0, r3
 276 012c 5946     		mov	r1, fp
 277 012e 00B2     		sxth	r0, r0
 278 0130 FFF7FEFF 		bl	lv_utils_num_to_str
 279              	.LVL37:
 383:..\..\..\lvgl\version_6.1.2\lvgl\src\lv_objx/lv_gauge.c ****                         LV_COORD_MAX, LV_TXT_FLAG_NONE);
ARM GAS  C:\Users\pearlstl\AppData\Local\Temp\cccjDn63.s 			page 16


 280              		.loc 1 383 0
 281 0134 47F61841 		movw	r1, #31768
 282 0138 B8F93830 		ldrsh	r3, [r8, #56]
 283 013c D8F83420 		ldr	r2, [r8, #52]
 284 0140 0297     		str	r7, [sp, #8]
 285 0142 0191     		str	r1, [sp, #4]
 286 0144 B8F93A10 		ldrsh	r1, [r8, #58]
 287 0148 0091     		str	r1, [sp]
 288 014a 0898     		ldr	r0, [sp, #32]
 289 014c 5946     		mov	r1, fp
 290 014e FFF7FEFF 		bl	lv_txt_get_size
 291              	.LVL38:
 292              		.loc 1 387 0
 293 0152 139B     		ldr	r3, [sp, #76]
 294 0154 BDF97000 		ldrsh	r0, [sp, #112]
 388:..\..\..\lvgl\version_6.1.2\lvgl\src\lv_objx/lv_gauge.c ****         label_cord.y1 = y - label_size.y / 2;
 295              		.loc 1 388 0
 296 0158 BDF97210 		ldrsh	r1, [sp, #114]
 387:..\..\..\lvgl\version_6.1.2\lvgl\src\lv_objx/lv_gauge.c ****         label_cord.y1 = y - label_size.y / 2;
 297              		.loc 1 387 0
 298 015c 05FB03F5 		mul	r5, r5, r3
 299              	.LVL39:
 300              		.loc 1 388 0
 301 0160 04FB03F4 		mul	r4, r4, r3
 302              	.LVL40:
 303 0164 8AFB043E 		smull	r3, lr, r10, r4
 387:..\..\..\lvgl\version_6.1.2\lvgl\src\lv_objx/lv_gauge.c ****         label_cord.y1 = y - label_size.y / 2;
 304              		.loc 1 387 0
 305 0168 8AFB053C 		smull	r3, ip, r10, r5
 306 016c 0B9B     		ldr	r3, [sp, #44]
 307 016e 00EBD072 		add	r2, r0, r0, lsr #31
 308 0172 AC44     		add	ip, ip, r5
 309 0174 A3EB6202 		sub	r2, r3, r2, asr #1
 310 0178 ED17     		asrs	r5, r5, #31
 311              		.loc 1 388 0
 312 017a 0D9B     		ldr	r3, [sp, #52]
 313 017c A644     		add	lr, lr, r4
 387:..\..\..\lvgl\version_6.1.2\lvgl\src\lv_objx/lv_gauge.c ****         label_cord.y1 = y - label_size.y / 2;
 314              		.loc 1 387 0
 315 017e C5EBAC35 		rsb	r5, r5, ip, asr #14
 316              		.loc 1 388 0
 317 0182 E417     		asrs	r4, r4, #31
 318 0184 01EBD17C 		add	ip, r1, r1, lsr #31
 319 0188 A3EB6C03 		sub	r3, r3, ip, asr #1
 320 018c C4EBAE34 		rsb	r4, r4, lr, asr #14
 321 0190 1C44     		add	r4, r4, r3
 387:..\..\..\lvgl\version_6.1.2\lvgl\src\lv_objx/lv_gauge.c ****         label_cord.y1 = y - label_size.y / 2;
 322              		.loc 1 387 0
 323 0192 2A44     		add	r2, r2, r5
 324 0194 92B2     		uxth	r2, r2
 325              		.loc 1 388 0
 326 0196 A4B2     		uxth	r4, r4
 389:..\..\..\lvgl\version_6.1.2\lvgl\src\lv_objx/lv_gauge.c ****         label_cord.x2 = label_cord.x1 + label_size.x;
 327              		.loc 1 389 0
 328 0198 1318     		adds	r3, r2, r0
 390:..\..\..\lvgl\version_6.1.2\lvgl\src\lv_objx/lv_gauge.c ****         label_cord.y2 = label_cord.y1 + label_size.y;
 329              		.loc 1 390 0
ARM GAS  C:\Users\pearlstl\AppData\Local\Temp\cccjDn63.s 			page 17


 330 019a 2144     		add	r1, r1, r4
 391:..\..\..\lvgl\version_6.1.2\lvgl\src\lv_objx/lv_gauge.c **** 
 392:..\..\..\lvgl\version_6.1.2\lvgl\src\lv_objx/lv_gauge.c ****         lv_draw_label(&label_cord, mask, style, opa_scale, scale_txt, LV_TXT_FLAG_NONE, NULL, NULL,
 331              		.loc 1 392 0
 332 019c 0C98     		ldr	r0, [sp, #48]
 389:..\..\..\lvgl\version_6.1.2\lvgl\src\lv_objx/lv_gauge.c ****         label_cord.y2 = label_cord.y1 + label_size.y;
 333              		.loc 1 389 0
 334 019e ADF8C430 		strh	r3, [sp, #196]	@ movhi
 387:..\..\..\lvgl\version_6.1.2\lvgl\src\lv_objx/lv_gauge.c ****         label_cord.y1 = y - label_size.y / 2;
 335              		.loc 1 387 0
 336 01a2 ADF8C020 		strh	r2, [sp, #192]	@ movhi
 390:..\..\..\lvgl\version_6.1.2\lvgl\src\lv_objx/lv_gauge.c **** 
 337              		.loc 1 390 0
 338 01a6 ADF8C610 		strh	r1, [sp, #198]	@ movhi
 388:..\..\..\lvgl\version_6.1.2\lvgl\src\lv_objx/lv_gauge.c ****         label_cord.x2 = label_cord.x1 + label_size.x;
 339              		.loc 1 388 0
 340 01aa ADF8C240 		strh	r4, [sp, #194]	@ movhi
 341              		.loc 1 392 0
 342 01ae FFF7FEFF 		bl	lv_obj_get_base_dir
 343              	.LVL41:
 344 01b2 099B     		ldr	r3, [sp, #36]
 345 01b4 0590     		str	r0, [sp, #20]
 346 01b6 0497     		str	r7, [sp, #16]
 347 01b8 0397     		str	r7, [sp, #12]
 348 01ba 0297     		str	r7, [sp, #8]
 349 01bc 0197     		str	r7, [sp, #4]
 350 01be CDF800B0 		str	fp, [sp]
 351 01c2 4246     		mov	r2, r8
 352 01c4 0799     		ldr	r1, [sp, #28]
 353 01c6 0A98     		ldr	r0, [sp, #40]
 354 01c8 FFF7FEFF 		bl	lv_draw_label
 355              	.LVL42:
 356              	.LBE63:
 367:..\..\..\lvgl\version_6.1.2\lvgl\src\lv_objx/lv_gauge.c ****         /*Calculate the position a scale label*/
 357              		.loc 1 367 0
 358 01cc 0136     		adds	r6, r6, #1
 359              	.LVL43:
 360 01ce 0F9B     		ldr	r3, [sp, #60]
 361 01d0 F6B2     		uxtb	r6, r6
 362              	.LVL44:
 363 01d2 B342     		cmp	r3, r6
 364 01d4 90D8     		bhi	.L7
 365              	.LVL45:
 366              	.L8:
 367              	.LBE54:
 368              	.LBE53:
 294:..\..\..\lvgl\version_6.1.2\lvgl\src\lv_objx/lv_gauge.c **** 
 369              		.loc 1 294 0
 370 01d6 DDF83080 		ldr	r8, [sp, #48]
 371 01da A54C     		ldr	r4, .L27
 372 01dc DDF81C90 		ldr	r9, [sp, #28]
 293:..\..\..\lvgl\version_6.1.2\lvgl\src\lv_objx/lv_gauge.c ****         ancestor_design(gauge, mask, mode); /*To draw lines*/
 373              		.loc 1 293 0
 374 01e0 169E     		ldr	r6, [sp, #88]
 294:..\..\..\lvgl\version_6.1.2\lvgl\src\lv_objx/lv_gauge.c **** 
 375              		.loc 1 294 0
 376 01e2 2368     		ldr	r3, [r4]
ARM GAS  C:\Users\pearlstl\AppData\Local\Temp\cccjDn63.s 			page 18


 293:..\..\..\lvgl\version_6.1.2\lvgl\src\lv_objx/lv_gauge.c ****         ancestor_design(gauge, mask, mode); /*To draw lines*/
 377              		.loc 1 293 0
 378 01e4 B588     		ldrh	r5, [r6, #4]
 379              	.LVL46:
 294:..\..\..\lvgl\version_6.1.2\lvgl\src\lv_objx/lv_gauge.c **** 
 380              		.loc 1 294 0
 381 01e6 0022     		movs	r2, #0
 382 01e8 4946     		mov	r1, r9
 383 01ea 4046     		mov	r0, r8
 384 01ec 9847     		blx	r3
 385              	.LVL47:
 298:..\..\..\lvgl\version_6.1.2\lvgl\src\lv_objx/lv_gauge.c ****         ext->lmeter.line_cnt         = ext->label_count;                 /*Only to labels*/
 386              		.loc 1 298 0
 387 01ee 089F     		ldr	r7, [sp, #32]
 388 01f0 1599     		ldr	r1, [sp, #84]
 389 01f2 3846     		mov	r0, r7
 390 01f4 FFF7FEFF 		bl	lv_style_copy
 391              	.LVL48:
 300:..\..\..\lvgl\version_6.1.2\lvgl\src\lv_objx/lv_gauge.c ****         style_tmp.body.padding.right = style_tmp.body.padding.right * 2; /*Longer lines*/
 392              		.loc 1 300 0
 393 01f8 BDF89410 		ldrh	r1, [sp, #148]
 301:..\..\..\lvgl\version_6.1.2\lvgl\src\lv_objx/lv_gauge.c ****         gauge->style_p               = &style_tmp;
 394              		.loc 1 301 0
 395 01fc BDF89620 		ldrh	r2, [sp, #150]
 299:..\..\..\lvgl\version_6.1.2\lvgl\src\lv_objx/lv_gauge.c ****         style_tmp.body.padding.left  = style_tmp.body.padding.left * 2;  /*Longer lines*/
 396              		.loc 1 299 0
 397 0200 707D     		ldrb	r0, [r6, #21]	@ zero_extendqisi2
 304:..\..\..\lvgl\version_6.1.2\lvgl\src\lv_objx/lv_gauge.c **** 
 398              		.loc 1 304 0
 399 0202 2368     		ldr	r3, [r4]
 299:..\..\..\lvgl\version_6.1.2\lvgl\src\lv_objx/lv_gauge.c ****         style_tmp.body.padding.left  = style_tmp.body.padding.left * 2;  /*Longer lines*/
 400              		.loc 1 299 0
 401 0204 B080     		strh	r0, [r6, #4]	@ movhi
 300:..\..\..\lvgl\version_6.1.2\lvgl\src\lv_objx/lv_gauge.c ****         style_tmp.body.padding.right = style_tmp.body.padding.right * 2; /*Longer lines*/
 402              		.loc 1 300 0
 403 0206 4900     		lsls	r1, r1, #1
 301:..\..\..\lvgl\version_6.1.2\lvgl\src\lv_objx/lv_gauge.c ****         gauge->style_p               = &style_tmp;
 404              		.loc 1 301 0
 405 0208 5200     		lsls	r2, r2, #1
 302:..\..\..\lvgl\version_6.1.2\lvgl\src\lv_objx/lv_gauge.c **** 
 406              		.loc 1 302 0
 407 020a C8F82870 		str	r7, [r8, #40]
 300:..\..\..\lvgl\version_6.1.2\lvgl\src\lv_objx/lv_gauge.c ****         style_tmp.body.padding.right = style_tmp.body.padding.right * 2; /*Longer lines*/
 408              		.loc 1 300 0
 409 020e ADF89410 		strh	r1, [sp, #148]	@ movhi
 302:..\..\..\lvgl\version_6.1.2\lvgl\src\lv_objx/lv_gauge.c **** 
 410              		.loc 1 302 0
 411 0212 4046     		mov	r0, r8
 304:..\..\..\lvgl\version_6.1.2\lvgl\src\lv_objx/lv_gauge.c **** 
 412              		.loc 1 304 0
 413 0214 4946     		mov	r1, r9
 301:..\..\..\lvgl\version_6.1.2\lvgl\src\lv_objx/lv_gauge.c ****         gauge->style_p               = &style_tmp;
 414              		.loc 1 301 0
 415 0216 ADF89620 		strh	r2, [sp, #150]	@ movhi
 304:..\..\..\lvgl\version_6.1.2\lvgl\src\lv_objx/lv_gauge.c **** 
 416              		.loc 1 304 0
 417 021a 0022     		movs	r2, #0
ARM GAS  C:\Users\pearlstl\AppData\Local\Temp\cccjDn63.s 			page 19


 418 021c 9847     		blx	r3
 419              	.LVL49:
 307:..\..\..\lvgl\version_6.1.2\lvgl\src\lv_objx/lv_gauge.c **** 
 420              		.loc 1 307 0
 421 021e 149A     		ldr	r2, [sp, #80]
 306:..\..\..\lvgl\version_6.1.2\lvgl\src\lv_objx/lv_gauge.c ****         gauge->style_p       = style_ori_p;  /*Restore the ORIGINAL style pointer*/
 422              		.loc 1 306 0
 423 0220 B580     		strh	r5, [r6, #4]	@ movhi
 424              	.LBB64:
 425              	.LBB65:
 393:..\..\..\lvgl\version_6.1.2\lvgl\src\lv_objx/lv_gauge.c ****     }
 394:..\..\..\lvgl\version_6.1.2\lvgl\src\lv_objx/lv_gauge.c **** }
 395:..\..\..\lvgl\version_6.1.2\lvgl\src\lv_objx/lv_gauge.c **** /**
 396:..\..\..\lvgl\version_6.1.2\lvgl\src\lv_objx/lv_gauge.c ****  * Draw the needles of a gauge
 397:..\..\..\lvgl\version_6.1.2\lvgl\src\lv_objx/lv_gauge.c ****  * @param gauge pointer to gauge object
 398:..\..\..\lvgl\version_6.1.2\lvgl\src\lv_objx/lv_gauge.c ****  * @param mask mask of drawing
 399:..\..\..\lvgl\version_6.1.2\lvgl\src\lv_objx/lv_gauge.c ****  */
 400:..\..\..\lvgl\version_6.1.2\lvgl\src\lv_objx/lv_gauge.c **** static void lv_gauge_draw_needle(lv_obj_t * gauge, const lv_area_t * mask)
 401:..\..\..\lvgl\version_6.1.2\lvgl\src\lv_objx/lv_gauge.c **** {
 402:..\..\..\lvgl\version_6.1.2\lvgl\src\lv_objx/lv_gauge.c ****     lv_style_t style_needle;
 403:..\..\..\lvgl\version_6.1.2\lvgl\src\lv_objx/lv_gauge.c ****     lv_gauge_ext_t * ext     = lv_obj_get_ext_attr(gauge);
 426              		.loc 1 403 0
 427 0222 4046     		mov	r0, r8
 428              	.LBE65:
 429              	.LBE64:
 307:..\..\..\lvgl\version_6.1.2\lvgl\src\lv_objx/lv_gauge.c **** 
 430              		.loc 1 307 0
 431 0224 C8F82820 		str	r2, [r8, #40]
 432              	.LBB82:
 433              	.LBB79:
 434              		.loc 1 403 0
 435 0228 FFF7FEFF 		bl	lv_obj_get_ext_attr
 436              	.LVL50:
 437              	.LBE79:
 438              	.LBE82:
 304:..\..\..\lvgl\version_6.1.2\lvgl\src\lv_objx/lv_gauge.c **** 
 439              		.loc 1 304 0
 440 022c 4746     		mov	r7, r8
 441              	.LBB83:
 442              	.LBB80:
 443              		.loc 1 403 0
 444 022e 8246     		mov	r10, r0
 445              	.LBB66:
 446              	.LBB67:
 172:..\..\..\lvgl\version_6.1.2\lvgl\src\lv_objx/lv_gauge.h **** }
 173:..\..\..\lvgl\version_6.1.2\lvgl\src\lv_objx/lv_gauge.h **** 
 174:..\..\..\lvgl\version_6.1.2\lvgl\src\lv_objx/lv_gauge.h **** /**
 175:..\..\..\lvgl\version_6.1.2\lvgl\src\lv_objx/lv_gauge.h ****  * Get a critical value on the scale.
 176:..\..\..\lvgl\version_6.1.2\lvgl\src\lv_objx/lv_gauge.h ****  * @param gauge pointer to a gauge object
 177:..\..\..\lvgl\version_6.1.2\lvgl\src\lv_objx/lv_gauge.h ****  * @return the critical value
 178:..\..\..\lvgl\version_6.1.2\lvgl\src\lv_objx/lv_gauge.h ****  */
 179:..\..\..\lvgl\version_6.1.2\lvgl\src\lv_objx/lv_gauge.h **** static inline int16_t lv_gauge_get_critical_value(const lv_obj_t * gauge)
 180:..\..\..\lvgl\version_6.1.2\lvgl\src\lv_objx/lv_gauge.h **** {
 181:..\..\..\lvgl\version_6.1.2\lvgl\src\lv_objx/lv_gauge.h ****     return lv_lmeter_get_value(gauge);
 182:..\..\..\lvgl\version_6.1.2\lvgl\src\lv_objx/lv_gauge.h **** }
 183:..\..\..\lvgl\version_6.1.2\lvgl\src\lv_objx/lv_gauge.h **** 
 184:..\..\..\lvgl\version_6.1.2\lvgl\src\lv_objx/lv_gauge.h **** /**
ARM GAS  C:\Users\pearlstl\AppData\Local\Temp\cccjDn63.s 			page 20


 185:..\..\..\lvgl\version_6.1.2\lvgl\src\lv_objx/lv_gauge.h ****  * Set the number of labels (and the thicker lines too)
 186:..\..\..\lvgl\version_6.1.2\lvgl\src\lv_objx/lv_gauge.h ****  * @param gauge pointer to a gauge object
 187:..\..\..\lvgl\version_6.1.2\lvgl\src\lv_objx/lv_gauge.h ****  * @return count of labels
 188:..\..\..\lvgl\version_6.1.2\lvgl\src\lv_objx/lv_gauge.h ****  */
 189:..\..\..\lvgl\version_6.1.2\lvgl\src\lv_objx/lv_gauge.h **** uint8_t lv_gauge_get_label_count(const lv_obj_t * gauge);
 190:..\..\..\lvgl\version_6.1.2\lvgl\src\lv_objx/lv_gauge.h **** 
 191:..\..\..\lvgl\version_6.1.2\lvgl\src\lv_objx/lv_gauge.h **** /**
 192:..\..\..\lvgl\version_6.1.2\lvgl\src\lv_objx/lv_gauge.h ****  * Get the scale number of a gauge
 193:..\..\..\lvgl\version_6.1.2\lvgl\src\lv_objx/lv_gauge.h ****  * @param gauge pointer to a gauge object
 194:..\..\..\lvgl\version_6.1.2\lvgl\src\lv_objx/lv_gauge.h ****  * @return number of the scale units
 195:..\..\..\lvgl\version_6.1.2\lvgl\src\lv_objx/lv_gauge.h ****  */
 196:..\..\..\lvgl\version_6.1.2\lvgl\src\lv_objx/lv_gauge.h **** static inline uint16_t lv_gauge_get_line_count(const lv_obj_t * gauge)
 197:..\..\..\lvgl\version_6.1.2\lvgl\src\lv_objx/lv_gauge.h **** {
 198:..\..\..\lvgl\version_6.1.2\lvgl\src\lv_objx/lv_gauge.h ****     return lv_lmeter_get_line_count(gauge);
 199:..\..\..\lvgl\version_6.1.2\lvgl\src\lv_objx/lv_gauge.h **** }
 200:..\..\..\lvgl\version_6.1.2\lvgl\src\lv_objx/lv_gauge.h **** 
 201:..\..\..\lvgl\version_6.1.2\lvgl\src\lv_objx/lv_gauge.h **** /**
 202:..\..\..\lvgl\version_6.1.2\lvgl\src\lv_objx/lv_gauge.h ****  * Get the scale angle of a gauge
 203:..\..\..\lvgl\version_6.1.2\lvgl\src\lv_objx/lv_gauge.h ****  * @param gauge pointer to a gauge object
 204:..\..\..\lvgl\version_6.1.2\lvgl\src\lv_objx/lv_gauge.h ****  * @return angle of the scale
 205:..\..\..\lvgl\version_6.1.2\lvgl\src\lv_objx/lv_gauge.h ****  */
 206:..\..\..\lvgl\version_6.1.2\lvgl\src\lv_objx/lv_gauge.h **** static inline uint16_t lv_gauge_get_scale_angle(const lv_obj_t * gauge)
 207:..\..\..\lvgl\version_6.1.2\lvgl\src\lv_objx/lv_gauge.h **** {
 208:..\..\..\lvgl\version_6.1.2\lvgl\src\lv_objx/lv_gauge.h ****     return lv_lmeter_get_scale_angle(gauge);
 209:..\..\..\lvgl\version_6.1.2\lvgl\src\lv_objx/lv_gauge.h **** }
 210:..\..\..\lvgl\version_6.1.2\lvgl\src\lv_objx/lv_gauge.h **** 
 211:..\..\..\lvgl\version_6.1.2\lvgl\src\lv_objx/lv_gauge.h **** /**
 212:..\..\..\lvgl\version_6.1.2\lvgl\src\lv_objx/lv_gauge.h ****  * Get the style of a gauge
 213:..\..\..\lvgl\version_6.1.2\lvgl\src\lv_objx/lv_gauge.h ****  * @param gauge pointer to a gauge object
 214:..\..\..\lvgl\version_6.1.2\lvgl\src\lv_objx/lv_gauge.h ****  * @param type which style should be get (can be only `LV_GAUGE_STYLE_MAIN`)
 215:..\..\..\lvgl\version_6.1.2\lvgl\src\lv_objx/lv_gauge.h ****  * @return pointer to the gauge's style
 216:..\..\..\lvgl\version_6.1.2\lvgl\src\lv_objx/lv_gauge.h ****  */
 217:..\..\..\lvgl\version_6.1.2\lvgl\src\lv_objx/lv_gauge.h **** static inline const lv_style_t * lv_gauge_get_style(const lv_obj_t * gauge, lv_gauge_style_t type)
 218:..\..\..\lvgl\version_6.1.2\lvgl\src\lv_objx/lv_gauge.h **** {
 219:..\..\..\lvgl\version_6.1.2\lvgl\src\lv_objx/lv_gauge.h ****     (void)type; /*Unused*/
 220:..\..\..\lvgl\version_6.1.2\lvgl\src\lv_objx/lv_gauge.h ****     return lv_obj_get_style(gauge);
 447              		.loc 2 220 0
 448 0230 3846     		mov	r0, r7
 449 0232 FFF7FEFF 		bl	lv_obj_get_style
 450              	.LVL51:
 451 0236 0546     		mov	r5, r0
 452              	.LVL52:
 453 0238 1290     		str	r0, [sp, #72]
 454              	.LBE67:
 455              	.LBE66:
 404:..\..\..\lvgl\version_6.1.2\lvgl\src\lv_objx/lv_gauge.c ****     const lv_style_t * style = lv_gauge_get_style(gauge, LV_GAUGE_STYLE_MAIN);
 405:..\..\..\lvgl\version_6.1.2\lvgl\src\lv_objx/lv_gauge.c ****     lv_opa_t opa_scale       = lv_obj_get_opa_scale(gauge);
 456              		.loc 1 405 0
 457 023a 3846     		mov	r0, r7
 458 023c FFF7FEFF 		bl	lv_obj_get_opa_scale
 459              	.LVL53:
 460 0240 0E90     		str	r0, [sp, #56]
 406:..\..\..\lvgl\version_6.1.2\lvgl\src\lv_objx/lv_gauge.c **** 
 407:..\..\..\lvgl\version_6.1.2\lvgl\src\lv_objx/lv_gauge.c ****     lv_coord_t r      = lv_obj_get_width(gauge) / 2 - style->body.padding.left;
 461              		.loc 1 407 0
 462 0242 3846     		mov	r0, r7
 463 0244 FFF7FEFF 		bl	lv_obj_get_width
ARM GAS  C:\Users\pearlstl\AppData\Local\Temp\cccjDn63.s 			page 21


 464              	.LVL54:
 465 0248 AB8C     		ldrh	r3, [r5, #36]
 466 024a 00EBD070 		add	r0, r0, r0, lsr #31
 467              	.LBE80:
 468              	.LBE83:
 307:..\..\..\lvgl\version_6.1.2\lvgl\src\lv_objx/lv_gauge.c **** 
 469              		.loc 1 307 0
 470 024e 4446     		mov	r4, r8
 471              	.LVL55:
 472              	.LBB84:
 473              	.LBB81:
 474              		.loc 1 407 0
 475 0250 C3EB6008 		rsb	r8, r3, r0, asr #1
 476              	.LVL56:
 408:..\..\..\lvgl\version_6.1.2\lvgl\src\lv_objx/lv_gauge.c ****     lv_coord_t x_ofs  = lv_obj_get_width(gauge) / 2 + gauge->coords.x1;
 477              		.loc 1 408 0
 478 0254 3846     		mov	r0, r7
 479 0256 FFF7FEFF 		bl	lv_obj_get_width
 480              	.LVL57:
 481 025a 3B8A     		ldrh	r3, [r7, #16]
 482 025c 00EBD070 		add	r0, r0, r0, lsr #31
 483 0260 03EB6003 		add	r3, r3, r0, asr #1
 484 0264 9BB2     		uxth	r3, r3
 409:..\..\..\lvgl\version_6.1.2\lvgl\src\lv_objx/lv_gauge.c ****     lv_coord_t y_ofs  = lv_obj_get_height(gauge) / 2 + gauge->coords.y1;
 485              		.loc 1 409 0
 486 0266 3846     		mov	r0, r7
 408:..\..\..\lvgl\version_6.1.2\lvgl\src\lv_objx/lv_gauge.c ****     lv_coord_t x_ofs  = lv_obj_get_width(gauge) / 2 + gauge->coords.x1;
 487              		.loc 1 408 0
 488 0268 1E46     		mov	r6, r3
 489 026a 0893     		str	r3, [sp, #32]
 490              		.loc 1 409 0
 491 026c FFF7FEFF 		bl	lv_obj_get_height
 492              	.LVL58:
 493 0270 7B8A     		ldrh	r3, [r7, #18]
 494 0272 00EBD070 		add	r0, r0, r0, lsr #31
 495 0276 03EB6003 		add	r3, r3, r0, asr #1
 496 027a 9AB2     		uxth	r2, r3
 410:..\..\..\lvgl\version_6.1.2\lvgl\src\lv_objx/lv_gauge.c ****     uint16_t angle    = lv_lmeter_get_scale_angle(gauge);
 497              		.loc 1 410 0
 498 027c 3846     		mov	r0, r7
 409:..\..\..\lvgl\version_6.1.2\lvgl\src\lv_objx/lv_gauge.c ****     lv_coord_t y_ofs  = lv_obj_get_height(gauge) / 2 + gauge->coords.y1;
 499              		.loc 1 409 0
 500 027e 0992     		str	r2, [sp, #36]
 501 0280 1746     		mov	r7, r2
 502              		.loc 1 410 0
 503 0282 FFF7FEFF 		bl	lv_lmeter_get_scale_angle
 504              	.LVL59:
 411:..\..\..\lvgl\version_6.1.2\lvgl\src\lv_objx/lv_gauge.c ****     int16_t angle_ofs = 90 + (360 - angle) / 2;
 505              		.loc 1 411 0
 506 0286 C0F5B473 		rsb	r3, r0, #360
 507 028a 03EBD373 		add	r3, r3, r3, lsr #31
 508 028e 5B10     		asrs	r3, r3, #1
 509 0290 5A33     		adds	r3, r3, #90
 510 0292 9BB2     		uxth	r3, r3
 410:..\..\..\lvgl\version_6.1.2\lvgl\src\lv_objx/lv_gauge.c ****     uint16_t angle    = lv_lmeter_get_scale_angle(gauge);
 511              		.loc 1 410 0
 512 0294 1090     		str	r0, [sp, #64]
ARM GAS  C:\Users\pearlstl\AppData\Local\Temp\cccjDn63.s 			page 22


 513              	.LBB68:
 514              	.LBB69:
 161:..\..\..\lvgl\version_6.1.2\lvgl\src\lv_objx/lv_gauge.h **** }
 515              		.loc 2 161 0
 516 0296 2046     		mov	r0, r4
 517              	.LBE69:
 518              	.LBE68:
 519              		.loc 1 411 0
 520 0298 0F93     		str	r3, [sp, #60]
 521              	.LBB71:
 522              	.LBB70:
 161:..\..\..\lvgl\version_6.1.2\lvgl\src\lv_objx/lv_gauge.h **** }
 523              		.loc 2 161 0
 524 029a FFF7FEFF 		bl	lv_lmeter_get_min_value
 525              	.LVL60:
 526 029e 0D90     		str	r0, [sp, #52]
 527              	.LBE70:
 528              	.LBE71:
 529              	.LBB72:
 530              	.LBB73:
 171:..\..\..\lvgl\version_6.1.2\lvgl\src\lv_objx/lv_gauge.h **** }
 531              		.loc 2 171 0
 532 02a0 2046     		mov	r0, r4
 533 02a2 FFF7FEFF 		bl	lv_lmeter_get_max_value
 534              	.LVL61:
 535              	.LBE73:
 536              	.LBE72:
 412:..\..\..\lvgl\version_6.1.2\lvgl\src\lv_objx/lv_gauge.c ****     int16_t min       = lv_gauge_get_min_value(gauge);
 413:..\..\..\lvgl\version_6.1.2\lvgl\src\lv_objx/lv_gauge.c ****     int16_t max       = lv_gauge_get_max_value(gauge);
 414:..\..\..\lvgl\version_6.1.2\lvgl\src\lv_objx/lv_gauge.c ****     lv_point_t p_mid;
 415:..\..\..\lvgl\version_6.1.2\lvgl\src\lv_objx/lv_gauge.c ****     lv_point_t p_end;
 416:..\..\..\lvgl\version_6.1.2\lvgl\src\lv_objx/lv_gauge.c ****     lv_point_t p_end_low;
 417:..\..\..\lvgl\version_6.1.2\lvgl\src\lv_objx/lv_gauge.c ****     lv_point_t p_end_high;
 418:..\..\..\lvgl\version_6.1.2\lvgl\src\lv_objx/lv_gauge.c ****     uint8_t i;
 419:..\..\..\lvgl\version_6.1.2\lvgl\src\lv_objx/lv_gauge.c **** 
 420:..\..\..\lvgl\version_6.1.2\lvgl\src\lv_objx/lv_gauge.c ****     lv_style_copy(&style_needle, style);
 537              		.loc 1 420 0
 538 02a6 2946     		mov	r1, r5
 539              	.LBB75:
 540              	.LBB74:
 171:..\..\..\lvgl\version_6.1.2\lvgl\src\lv_objx/lv_gauge.h **** }
 541              		.loc 2 171 0
 542 02a8 0446     		mov	r4, r0
 543              	.LVL62:
 544              	.LBE74:
 545              	.LBE75:
 546              		.loc 1 420 0
 547 02aa 0A98     		ldr	r0, [sp, #40]
 548 02ac FFF7FEFF 		bl	lv_style_copy
 549              	.LVL63:
 421:..\..\..\lvgl\version_6.1.2\lvgl\src\lv_objx/lv_gauge.c **** 
 422:..\..\..\lvgl\version_6.1.2\lvgl\src\lv_objx/lv_gauge.c ****     p_mid.x = x_ofs;
 423:..\..\..\lvgl\version_6.1.2\lvgl\src\lv_objx/lv_gauge.c ****     p_mid.y = y_ofs;
 424:..\..\..\lvgl\version_6.1.2\lvgl\src\lv_objx/lv_gauge.c ****     for(i = 0; i < ext->needle_count; i++) {
 550              		.loc 1 424 0
 551 02b0 9AF81430 		ldrb	r3, [r10, #20]	@ zero_extendqisi2
 422:..\..\..\lvgl\version_6.1.2\lvgl\src\lv_objx/lv_gauge.c ****     p_mid.y = y_ofs;
ARM GAS  C:\Users\pearlstl\AppData\Local\Temp\cccjDn63.s 			page 23


 552              		.loc 1 422 0
 553 02b4 ADF86060 		strh	r6, [sp, #96]	@ movhi
 407:..\..\..\lvgl\version_6.1.2\lvgl\src\lv_objx/lv_gauge.c ****     lv_coord_t x_ofs  = lv_obj_get_width(gauge) / 2 + gauge->coords.x1;
 554              		.loc 1 407 0
 555 02b8 0FFA88F8 		sxth	r8, r8
 556              	.LVL64:
 423:..\..\..\lvgl\version_6.1.2\lvgl\src\lv_objx/lv_gauge.c ****     for(i = 0; i < ext->needle_count; i++) {
 557              		.loc 1 423 0
 558 02bc ADF86270 		strh	r7, [sp, #98]	@ movhi
 559              	.LVL65:
 560              		.loc 1 424 0
 561 02c0 002B     		cmp	r3, #0
 562 02c2 00F09D80 		beq	.L6
 563 02c6 0D9B     		ldr	r3, [sp, #52]
 564              	.LBB76:
 425:..\..\..\lvgl\version_6.1.2\lvgl\src\lv_objx/lv_gauge.c ****         /*Calculate the end point of a needle*/
 426:..\..\..\lvgl\version_6.1.2\lvgl\src\lv_objx/lv_gauge.c ****         int16_t needle_angle =
 427:..\..\..\lvgl\version_6.1.2\lvgl\src\lv_objx/lv_gauge.c ****             (ext->values[i] - min) * angle * (1 << LV_GAUGE_INTERPOLATE_SHIFT) / (max - min);
 428:..\..\..\lvgl\version_6.1.2\lvgl\src\lv_objx/lv_gauge.c **** 
 429:..\..\..\lvgl\version_6.1.2\lvgl\src\lv_objx/lv_gauge.c ****         int16_t needle_angle_low  = (needle_angle >> LV_GAUGE_INTERPOLATE_SHIFT) + angle_ofs;
 430:..\..\..\lvgl\version_6.1.2\lvgl\src\lv_objx/lv_gauge.c ****         int16_t needle_angle_high = needle_angle_low + 1;
 431:..\..\..\lvgl\version_6.1.2\lvgl\src\lv_objx/lv_gauge.c **** 
 432:..\..\..\lvgl\version_6.1.2\lvgl\src\lv_objx/lv_gauge.c ****         p_end_low.y = (lv_trigo_sin(needle_angle_low) * r) / LV_TRIGO_SIN_MAX + y_ofs;
 565              		.loc 1 432 0
 566 02c8 DFF8B091 		ldr	r9, .L27+12
 567 02cc E31A     		subs	r3, r4, r3
 568 02ce 1193     		str	r3, [sp, #68]
 569              	.LBE76:
 424:..\..\..\lvgl\version_6.1.2\lvgl\src\lv_objx/lv_gauge.c ****         /*Calculate the end point of a needle*/
 570              		.loc 1 424 0
 571 02d0 0027     		movs	r7, #0
 572              	.LVL66:
 573 02d2 11E0     		b	.L15
 574              	.LVL67:
 575              	.L13:
 576              	.LBB77:
 433:..\..\..\lvgl\version_6.1.2\lvgl\src\lv_objx/lv_gauge.c ****         p_end_low.x = (lv_trigo_sin(needle_angle_low + 90) * r) / LV_TRIGO_SIN_MAX + x_ofs;
 434:..\..\..\lvgl\version_6.1.2\lvgl\src\lv_objx/lv_gauge.c **** 
 435:..\..\..\lvgl\version_6.1.2\lvgl\src\lv_objx/lv_gauge.c ****         p_end_high.y = (lv_trigo_sin(needle_angle_high) * r) / LV_TRIGO_SIN_MAX + y_ofs;
 436:..\..\..\lvgl\version_6.1.2\lvgl\src\lv_objx/lv_gauge.c ****         p_end_high.x = (lv_trigo_sin(needle_angle_high + 90) * r) / LV_TRIGO_SIN_MAX + x_ofs;
 437:..\..\..\lvgl\version_6.1.2\lvgl\src\lv_objx/lv_gauge.c **** 
 438:..\..\..\lvgl\version_6.1.2\lvgl\src\lv_objx/lv_gauge.c ****         uint16_t rem  = needle_angle & ((1 << LV_GAUGE_INTERPOLATE_SHIFT) - 1);
 439:..\..\..\lvgl\version_6.1.2\lvgl\src\lv_objx/lv_gauge.c ****         int16_t x_mod = ((LV_MATH_ABS(p_end_high.x - p_end_low.x)) * rem) >> LV_GAUGE_INTERPOLATE_S
 440:..\..\..\lvgl\version_6.1.2\lvgl\src\lv_objx/lv_gauge.c ****         int16_t y_mod = ((LV_MATH_ABS(p_end_high.y - p_end_low.y)) * rem) >> LV_GAUGE_INTERPOLATE_S
 441:..\..\..\lvgl\version_6.1.2\lvgl\src\lv_objx/lv_gauge.c **** 
 442:..\..\..\lvgl\version_6.1.2\lvgl\src\lv_objx/lv_gauge.c ****         if(p_end_high.x < p_end_low.x) x_mod = -x_mod;
 443:..\..\..\lvgl\version_6.1.2\lvgl\src\lv_objx/lv_gauge.c ****         if(p_end_high.y < p_end_low.y) y_mod = -y_mod;
 444:..\..\..\lvgl\version_6.1.2\lvgl\src\lv_objx/lv_gauge.c **** 
 445:..\..\..\lvgl\version_6.1.2\lvgl\src\lv_objx/lv_gauge.c ****         p_end.x = p_end_low.x + x_mod;
 446:..\..\..\lvgl\version_6.1.2\lvgl\src\lv_objx/lv_gauge.c ****         p_end.y = p_end_low.y + y_mod;
 447:..\..\..\lvgl\version_6.1.2\lvgl\src\lv_objx/lv_gauge.c **** 
 448:..\..\..\lvgl\version_6.1.2\lvgl\src\lv_objx/lv_gauge.c ****         /*Draw the needle with the corresponding color*/
 449:..\..\..\lvgl\version_6.1.2\lvgl\src\lv_objx/lv_gauge.c ****         if(ext->needle_colors == NULL)
 450:..\..\..\lvgl\version_6.1.2\lvgl\src\lv_objx/lv_gauge.c ****             style_needle.line.color = LV_GAUGE_DEF_NEEDLE_COLOR;
 451:..\..\..\lvgl\version_6.1.2\lvgl\src\lv_objx/lv_gauge.c ****         else
 452:..\..\..\lvgl\version_6.1.2\lvgl\src\lv_objx/lv_gauge.c ****             style_needle.line.color = ext->needle_colors[i];
 577              		.loc 1 452 0
ARM GAS  C:\Users\pearlstl\AppData\Local\Temp\cccjDn63.s 			page 24


 578 02d4 50F82130 		ldr	r3, [r0, r1, lsl #2]
 579 02d8 4293     		str	r3, [sp, #264]
 580              	.L14:
 453:..\..\..\lvgl\version_6.1.2\lvgl\src\lv_objx/lv_gauge.c **** 
 454:..\..\..\lvgl\version_6.1.2\lvgl\src\lv_objx/lv_gauge.c ****         lv_draw_line(&p_mid, &p_end, mask, &style_needle, opa_scale);
 581              		.loc 1 454 0
 582 02da 0E9B     		ldr	r3, [sp, #56]
 583 02dc 0093     		str	r3, [sp]
 584 02de 079A     		ldr	r2, [sp, #28]
 585 02e0 0A9B     		ldr	r3, [sp, #40]
 586 02e2 19A9     		add	r1, sp, #100
 587 02e4 18A8     		add	r0, sp, #96
 588 02e6 FFF7FEFF 		bl	lv_draw_line
 589              	.LVL68:
 590              	.LBE77:
 424:..\..\..\lvgl\version_6.1.2\lvgl\src\lv_objx/lv_gauge.c ****         /*Calculate the end point of a needle*/
 591              		.loc 1 424 0
 592 02ea 0137     		adds	r7, r7, #1
 593              	.LVL69:
 594 02ec 9AF81430 		ldrb	r3, [r10, #20]	@ zero_extendqisi2
 595 02f0 FFB2     		uxtb	r7, r7
 596              	.LVL70:
 597 02f2 BB42     		cmp	r3, r7
 598 02f4 40F28480 		bls	.L6
 599              	.LVL71:
 600              	.L15:
 601              	.LBB78:
 427:..\..\..\lvgl\version_6.1.2\lvgl\src\lv_objx/lv_gauge.c **** 
 602              		.loc 1 427 0
 603 02f8 39B2     		sxth	r1, r7
 604 02fa DAF80C30 		ldr	r3, [r10, #12]
 605 02fe 0B91     		str	r1, [sp, #44]
 606 0300 33F91140 		ldrsh	r4, [r3, r1, lsl #1]
 607 0304 0D9B     		ldr	r3, [sp, #52]
 608 0306 E41A     		subs	r4, r4, r3
 609 0308 109B     		ldr	r3, [sp, #64]
 610 030a 03FB04F4 		mul	r4, r3, r4
 611 030e 6401     		lsls	r4, r4, #5
 612 0310 119B     		ldr	r3, [sp, #68]
 613 0312 94FBF3F4 		sdiv	r4, r4, r3
 614              	.LVL72:
 429:..\..\..\lvgl\version_6.1.2\lvgl\src\lv_objx/lv_gauge.c ****         int16_t needle_angle_high = needle_angle_low + 1;
 615              		.loc 1 429 0
 616 0316 0F9B     		ldr	r3, [sp, #60]
 617 0318 44F34A1B 		sbfx	fp, r4, #5, #11
 618 031c 9B44     		add	fp, fp, r3
 619 031e 1FFA8BFB 		uxth	fp, fp
 620              	.LVL73:
 432:..\..\..\lvgl\version_6.1.2\lvgl\src\lv_objx/lv_gauge.c ****         p_end_low.x = (lv_trigo_sin(needle_angle_low + 90) * r) / LV_TRIGO_SIN_MAX + x_ofs;
 621              		.loc 1 432 0
 622 0322 0FFA8BF0 		sxth	r0, fp
 623 0326 FFF7FEFF 		bl	lv_trigo_sin
 624              	.LVL74:
 625 032a 00FB08F0 		mul	r0, r0, r8
 626 032e 89FB0035 		smull	r3, r5, r9, r0
 627 0332 0544     		add	r5, r5, r0
 628 0334 C017     		asrs	r0, r0, #31
ARM GAS  C:\Users\pearlstl\AppData\Local\Temp\cccjDn63.s 			page 25


 629 0336 099B     		ldr	r3, [sp, #36]
 630 0338 C0EBA535 		rsb	r5, r0, r5, asr #14
 433:..\..\..\lvgl\version_6.1.2\lvgl\src\lv_objx/lv_gauge.c **** 
 631              		.loc 1 433 0
 632 033c 0BF15A00 		add	r0, fp, #90
 633 0340 00B2     		sxth	r0, r0
 432:..\..\..\lvgl\version_6.1.2\lvgl\src\lv_objx/lv_gauge.c ****         p_end_low.x = (lv_trigo_sin(needle_angle_low + 90) * r) / LV_TRIGO_SIN_MAX + x_ofs;
 634              		.loc 1 432 0
 635 0342 1D44     		add	r5, r5, r3
 433:..\..\..\lvgl\version_6.1.2\lvgl\src\lv_objx/lv_gauge.c **** 
 636              		.loc 1 433 0
 637 0344 FFF7FEFF 		bl	lv_trigo_sin
 638              	.LVL75:
 639 0348 00FB08F0 		mul	r0, r0, r8
 640 034c 89FB0026 		smull	r2, r6, r9, r0
 641 0350 0644     		add	r6, r6, r0
 642 0352 C017     		asrs	r0, r0, #31
 643 0354 089A     		ldr	r2, [sp, #32]
 644 0356 C0EBA636 		rsb	r6, r0, r6, asr #14
 435:..\..\..\lvgl\version_6.1.2\lvgl\src\lv_objx/lv_gauge.c ****         p_end_high.x = (lv_trigo_sin(needle_angle_high + 90) * r) / LV_TRIGO_SIN_MAX + x_ofs;
 645              		.loc 1 435 0
 646 035a 0BF10100 		add	r0, fp, #1
 647 035e 00B2     		sxth	r0, r0
 433:..\..\..\lvgl\version_6.1.2\lvgl\src\lv_objx/lv_gauge.c **** 
 648              		.loc 1 433 0
 649 0360 1644     		add	r6, r6, r2
 435:..\..\..\lvgl\version_6.1.2\lvgl\src\lv_objx/lv_gauge.c ****         p_end_high.x = (lv_trigo_sin(needle_angle_high + 90) * r) / LV_TRIGO_SIN_MAX + x_ofs;
 650              		.loc 1 435 0
 651 0362 FFF7FEFF 		bl	lv_trigo_sin
 652              	.LVL76:
 653 0366 00FB08F0 		mul	r0, r0, r8
 654 036a 89FB0013 		smull	r1, r3, r9, r0
 655 036e 0344     		add	r3, r3, r0
 656 0370 C017     		asrs	r0, r0, #31
 436:..\..\..\lvgl\version_6.1.2\lvgl\src\lv_objx/lv_gauge.c **** 
 657              		.loc 1 436 0
 658 0372 0BF15B02 		add	r2, fp, #91
 435:..\..\..\lvgl\version_6.1.2\lvgl\src\lv_objx/lv_gauge.c ****         p_end_high.x = (lv_trigo_sin(needle_angle_high + 90) * r) / LV_TRIGO_SIN_MAX + x_ofs;
 659              		.loc 1 435 0
 660 0376 C0EBA33B 		rsb	fp, r0, r3, asr #14
 661              	.LVL77:
 662 037a 099B     		ldr	r3, [sp, #36]
 436:..\..\..\lvgl\version_6.1.2\lvgl\src\lv_objx/lv_gauge.c **** 
 663              		.loc 1 436 0
 664 037c 10B2     		sxth	r0, r2
 435:..\..\..\lvgl\version_6.1.2\lvgl\src\lv_objx/lv_gauge.c ****         p_end_high.x = (lv_trigo_sin(needle_angle_high + 90) * r) / LV_TRIGO_SIN_MAX + x_ofs;
 665              		.loc 1 435 0
 666 037e 9B44     		add	fp, fp, r3
 436:..\..\..\lvgl\version_6.1.2\lvgl\src\lv_objx/lv_gauge.c **** 
 667              		.loc 1 436 0
 668 0380 FFF7FEFF 		bl	lv_trigo_sin
 669              	.LVL78:
 670 0384 00FB08F0 		mul	r0, r0, r8
 671 0388 89FB0013 		smull	r1, r3, r9, r0
 672 038c 0344     		add	r3, r3, r0
 673 038e 089A     		ldr	r2, [sp, #32]
 442:..\..\..\lvgl\version_6.1.2\lvgl\src\lv_objx/lv_gauge.c ****         if(p_end_high.y < p_end_low.y) y_mod = -y_mod;
ARM GAS  C:\Users\pearlstl\AppData\Local\Temp\cccjDn63.s 			page 26


 674              		.loc 1 442 0
 675 0390 0B99     		ldr	r1, [sp, #44]
 436:..\..\..\lvgl\version_6.1.2\lvgl\src\lv_objx/lv_gauge.c **** 
 676              		.loc 1 436 0
 677 0392 C017     		asrs	r0, r0, #31
 678 0394 C0EBA330 		rsb	r0, r0, r3, asr #14
 433:..\..\..\lvgl\version_6.1.2\lvgl\src\lv_objx/lv_gauge.c **** 
 679              		.loc 1 433 0
 680 0398 B6B2     		uxth	r6, r6
 436:..\..\..\lvgl\version_6.1.2\lvgl\src\lv_objx/lv_gauge.c **** 
 681              		.loc 1 436 0
 682 039a 1044     		add	r0, r0, r2
 683 039c 00B2     		sxth	r0, r0
 432:..\..\..\lvgl\version_6.1.2\lvgl\src\lv_objx/lv_gauge.c ****         p_end_low.x = (lv_trigo_sin(needle_angle_low + 90) * r) / LV_TRIGO_SIN_MAX + x_ofs;
 684              		.loc 1 432 0
 685 039e ADB2     		uxth	r5, r5
 433:..\..\..\lvgl\version_6.1.2\lvgl\src\lv_objx/lv_gauge.c **** 
 686              		.loc 1 433 0
 687 03a0 0FFA86FC 		sxth	ip, r6
 439:..\..\..\lvgl\version_6.1.2\lvgl\src\lv_objx/lv_gauge.c ****         int16_t y_mod = ((LV_MATH_ABS(p_end_high.y - p_end_low.y)) * rem) >> LV_GAUGE_INTERPOLATE_S
 688              		.loc 1 439 0
 689 03a4 CCEB0002 		rsb	r2, ip, r0
 432:..\..\..\lvgl\version_6.1.2\lvgl\src\lv_objx/lv_gauge.c ****         p_end_low.x = (lv_trigo_sin(needle_angle_low + 90) * r) / LV_TRIGO_SIN_MAX + x_ofs;
 690              		.loc 1 432 0
 691 03a8 0FFA85FE 		sxth	lr, r5
 692              	.LVL79:
 435:..\..\..\lvgl\version_6.1.2\lvgl\src\lv_objx/lv_gauge.c ****         p_end_high.x = (lv_trigo_sin(needle_angle_high + 90) * r) / LV_TRIGO_SIN_MAX + x_ofs;
 693              		.loc 1 435 0
 694 03ac 0FFA8BFB 		sxth	fp, fp
 695              	.LVL80:
 440:..\..\..\lvgl\version_6.1.2\lvgl\src\lv_objx/lv_gauge.c **** 
 696              		.loc 1 440 0
 697 03b0 CEEB0B03 		rsb	r3, lr, fp
 439:..\..\..\lvgl\version_6.1.2\lvgl\src\lv_objx/lv_gauge.c ****         int16_t y_mod = ((LV_MATH_ABS(p_end_high.y - p_end_low.y)) * rem) >> LV_GAUGE_INTERPOLATE_S
 698              		.loc 1 439 0
 699 03b4 002A     		cmp	r2, #0
 700 03b6 04F01F04 		and	r4, r4, #31
 701              	.LVL81:
 702 03ba B8BF     		it	lt
 703 03bc 5242     		rsblt	r2, r2, #0
 440:..\..\..\lvgl\version_6.1.2\lvgl\src\lv_objx/lv_gauge.c **** 
 704              		.loc 1 440 0
 705 03be 002B     		cmp	r3, #0
 706 03c0 B8BF     		it	lt
 707 03c2 5B42     		rsblt	r3, r3, #0
 439:..\..\..\lvgl\version_6.1.2\lvgl\src\lv_objx/lv_gauge.c ****         int16_t y_mod = ((LV_MATH_ABS(p_end_high.y - p_end_low.y)) * rem) >> LV_GAUGE_INTERPOLATE_S
 708              		.loc 1 439 0
 709 03c4 04FB02F2 		mul	r2, r4, r2
 442:..\..\..\lvgl\version_6.1.2\lvgl\src\lv_objx/lv_gauge.c ****         if(p_end_high.y < p_end_low.y) y_mod = -y_mod;
 710              		.loc 1 442 0
 711 03c8 8445     		cmp	ip, r0
 439:..\..\..\lvgl\version_6.1.2\lvgl\src\lv_objx/lv_gauge.c ****         int16_t y_mod = ((LV_MATH_ABS(p_end_high.y - p_end_low.y)) * rem) >> LV_GAUGE_INTERPOLATE_S
 712              		.loc 1 439 0
 713 03ca 4FEA6212 		asr	r2, r2, #5
 714              	.LVL82:
 440:..\..\..\lvgl\version_6.1.2\lvgl\src\lv_objx/lv_gauge.c **** 
 715              		.loc 1 440 0
ARM GAS  C:\Users\pearlstl\AppData\Local\Temp\cccjDn63.s 			page 27


 716 03ce 04FB03F4 		mul	r4, r4, r3
 717 03d2 4FEA6414 		asr	r4, r4, #5
 718              	.LVL83:
 442:..\..\..\lvgl\version_6.1.2\lvgl\src\lv_objx/lv_gauge.c ****         if(p_end_high.y < p_end_low.y) y_mod = -y_mod;
 719              		.loc 1 442 0
 720 03d6 C8BF     		it	gt
 721 03d8 5242     		rsbgt	r2, r2, #0
 722              	.LVL84:
 443:..\..\..\lvgl\version_6.1.2\lvgl\src\lv_objx/lv_gauge.c **** 
 723              		.loc 1 443 0
 724 03da DE45     		cmp	lr, fp
 725 03dc C8BF     		it	gt
 726 03de 6442     		rsbgt	r4, r4, #0
 727              	.LVL85:
 442:..\..\..\lvgl\version_6.1.2\lvgl\src\lv_objx/lv_gauge.c ****         if(p_end_high.y < p_end_low.y) y_mod = -y_mod;
 728              		.loc 1 442 0
 729 03e0 12B2     		sxth	r2, r2
 730              	.LVL86:
 443:..\..\..\lvgl\version_6.1.2\lvgl\src\lv_objx/lv_gauge.c **** 
 731              		.loc 1 443 0
 732 03e2 24B2     		sxth	r4, r4
 733              	.LVL87:
 449:..\..\..\lvgl\version_6.1.2\lvgl\src\lv_objx/lv_gauge.c ****             style_needle.line.color = LV_GAUGE_DEF_NEEDLE_COLOR;
 734              		.loc 1 449 0
 735 03e4 DAF81000 		ldr	r0, [r10, #16]
 736              	.LVL88:
 445:..\..\..\lvgl\version_6.1.2\lvgl\src\lv_objx/lv_gauge.c ****         p_end.y = p_end_low.y + y_mod;
 737              		.loc 1 445 0
 738 03e8 3244     		add	r2, r2, r6
 739              	.LVL89:
 446:..\..\..\lvgl\version_6.1.2\lvgl\src\lv_objx/lv_gauge.c **** 
 740              		.loc 1 446 0
 741 03ea 2544     		add	r5, r5, r4
 445:..\..\..\lvgl\version_6.1.2\lvgl\src\lv_objx/lv_gauge.c ****         p_end.y = p_end_low.y + y_mod;
 742              		.loc 1 445 0
 743 03ec ADF86420 		strh	r2, [sp, #100]	@ movhi
 446:..\..\..\lvgl\version_6.1.2\lvgl\src\lv_objx/lv_gauge.c **** 
 744              		.loc 1 446 0
 745 03f0 ADF86650 		strh	r5, [sp, #102]	@ movhi
 449:..\..\..\lvgl\version_6.1.2\lvgl\src\lv_objx/lv_gauge.c ****             style_needle.line.color = LV_GAUGE_DEF_NEEDLE_COLOR;
 746              		.loc 1 449 0
 747 03f4 0028     		cmp	r0, #0
 748 03f6 7FF46DAF 		bne	.L13
 450:..\..\..\lvgl\version_6.1.2\lvgl\src\lv_objx/lv_gauge.c ****         else
 749              		.loc 1 450 0
 750 03fa 1E4B     		ldr	r3, .L27+4
 751 03fc 4293     		str	r3, [sp, #264]
 752 03fe 6CE7     		b	.L14
 753              	.LVL90:
 754              	.L6:
 755              	.LBE78:
 455:..\..\..\lvgl\version_6.1.2\lvgl\src\lv_objx/lv_gauge.c ****     }
 456:..\..\..\lvgl\version_6.1.2\lvgl\src\lv_objx/lv_gauge.c **** 
 457:..\..\..\lvgl\version_6.1.2\lvgl\src\lv_objx/lv_gauge.c ****     /*Draw the needle middle area*/
 458:..\..\..\lvgl\version_6.1.2\lvgl\src\lv_objx/lv_gauge.c ****     lv_style_t style_neddle_mid;
 459:..\..\..\lvgl\version_6.1.2\lvgl\src\lv_objx/lv_gauge.c ****     lv_style_copy(&style_neddle_mid, &lv_style_plain);
 756              		.loc 1 459 0
ARM GAS  C:\Users\pearlstl\AppData\Local\Temp\cccjDn63.s 			page 28


 757 0400 179F     		ldr	r7, [sp, #92]
 758 0402 1D49     		ldr	r1, .L27+8
 759 0404 3846     		mov	r0, r7
 760 0406 FFF7FEFF 		bl	lv_style_copy
 761              	.LVL91:
 460:..\..\..\lvgl\version_6.1.2\lvgl\src\lv_objx/lv_gauge.c ****     style_neddle_mid.body.main_color = style->body.border.color;
 762              		.loc 1 460 0
 763 040a 129C     		ldr	r4, [sp, #72]
 461:..\..\..\lvgl\version_6.1.2\lvgl\src\lv_objx/lv_gauge.c ****     style_neddle_mid.body.grad_color = style->body.border.color;
 462:..\..\..\lvgl\version_6.1.2\lvgl\src\lv_objx/lv_gauge.c ****     style_neddle_mid.body.radius     = LV_RADIUS_CIRCLE;
 463:..\..\..\lvgl\version_6.1.2\lvgl\src\lv_objx/lv_gauge.c **** 
 464:..\..\..\lvgl\version_6.1.2\lvgl\src\lv_objx/lv_gauge.c ****     lv_area_t nm_cord;
 465:..\..\..\lvgl\version_6.1.2\lvgl\src\lv_objx/lv_gauge.c ****     nm_cord.x1 = x_ofs - style->body.radius;
 466:..\..\..\lvgl\version_6.1.2\lvgl\src\lv_objx/lv_gauge.c ****     nm_cord.y1 = y_ofs - style->body.radius;
 764              		.loc 1 466 0
 765 040c 099E     		ldr	r6, [sp, #36]
 460:..\..\..\lvgl\version_6.1.2\lvgl\src\lv_objx/lv_gauge.c ****     style_neddle_mid.body.main_color = style->body.border.color;
 766              		.loc 1 460 0
 767 040e 2169     		ldr	r1, [r4, #16]
 467:..\..\..\lvgl\version_6.1.2\lvgl\src\lv_objx/lv_gauge.c ****     nm_cord.x2 = x_ofs + style->body.radius;
 468:..\..\..\lvgl\version_6.1.2\lvgl\src\lv_objx/lv_gauge.c ****     nm_cord.y2 = y_ofs + style->body.radius;
 469:..\..\..\lvgl\version_6.1.2\lvgl\src\lv_objx/lv_gauge.c **** 
 470:..\..\..\lvgl\version_6.1.2\lvgl\src\lv_objx/lv_gauge.c ****     lv_draw_rect(&nm_cord, mask, &style_neddle_mid, lv_obj_get_opa_scale(gauge));
 768              		.loc 1 470 0
 769 0410 0C98     		ldr	r0, [sp, #48]
 462:..\..\..\lvgl\version_6.1.2\lvgl\src\lv_objx/lv_gauge.c **** 
 770              		.loc 1 462 0
 771 0412 47F61843 		movw	r3, #31768
 772 0416 ADF81C31 		strh	r3, [sp, #284]	@ movhi
 465:..\..\..\lvgl\version_6.1.2\lvgl\src\lv_objx/lv_gauge.c ****     nm_cord.y1 = y_ofs - style->body.radius;
 773              		.loc 1 465 0
 774 041a A389     		ldrh	r3, [r4, #12]
 460:..\..\..\lvgl\version_6.1.2\lvgl\src\lv_objx/lv_gauge.c ****     style_neddle_mid.body.grad_color = style->body.border.color;
 775              		.loc 1 460 0
 776 041c 4591     		str	r1, [sp, #276]
 461:..\..\..\lvgl\version_6.1.2\lvgl\src\lv_objx/lv_gauge.c ****     style_neddle_mid.body.radius     = LV_RADIUS_CIRCLE;
 777              		.loc 1 461 0
 778 041e 0A46     		mov	r2, r1
 465:..\..\..\lvgl\version_6.1.2\lvgl\src\lv_objx/lv_gauge.c ****     nm_cord.y1 = y_ofs - style->body.radius;
 779              		.loc 1 465 0
 780 0420 0899     		ldr	r1, [sp, #32]
 461:..\..\..\lvgl\version_6.1.2\lvgl\src\lv_objx/lv_gauge.c ****     style_neddle_mid.body.radius     = LV_RADIUS_CIRCLE;
 781              		.loc 1 461 0
 782 0422 4692     		str	r2, [sp, #280]
 465:..\..\..\lvgl\version_6.1.2\lvgl\src\lv_objx/lv_gauge.c ****     nm_cord.y1 = y_ofs - style->body.radius;
 783              		.loc 1 465 0
 784 0424 CD1A     		subs	r5, r1, r3
 467:..\..\..\lvgl\version_6.1.2\lvgl\src\lv_objx/lv_gauge.c ****     nm_cord.y2 = y_ofs + style->body.radius;
 785              		.loc 1 467 0
 786 0426 CC18     		adds	r4, r1, r3
 466:..\..\..\lvgl\version_6.1.2\lvgl\src\lv_objx/lv_gauge.c ****     nm_cord.x2 = x_ofs + style->body.radius;
 787              		.loc 1 466 0
 788 0428 F11A     		subs	r1, r6, r3
 468:..\..\..\lvgl\version_6.1.2\lvgl\src\lv_objx/lv_gauge.c **** 
 789              		.loc 1 468 0
 790 042a 3344     		add	r3, r3, r6
 466:..\..\..\lvgl\version_6.1.2\lvgl\src\lv_objx/lv_gauge.c ****     nm_cord.x2 = x_ofs + style->body.radius;
ARM GAS  C:\Users\pearlstl\AppData\Local\Temp\cccjDn63.s 			page 29


 791              		.loc 1 466 0
 792 042c ADF86A10 		strh	r1, [sp, #106]	@ movhi
 468:..\..\..\lvgl\version_6.1.2\lvgl\src\lv_objx/lv_gauge.c **** 
 793              		.loc 1 468 0
 794 0430 ADF86E30 		strh	r3, [sp, #110]	@ movhi
 465:..\..\..\lvgl\version_6.1.2\lvgl\src\lv_objx/lv_gauge.c ****     nm_cord.y1 = y_ofs - style->body.radius;
 795              		.loc 1 465 0
 796 0434 ADF86850 		strh	r5, [sp, #104]	@ movhi
 467:..\..\..\lvgl\version_6.1.2\lvgl\src\lv_objx/lv_gauge.c ****     nm_cord.y2 = y_ofs + style->body.radius;
 797              		.loc 1 467 0
 798 0438 ADF86C40 		strh	r4, [sp, #108]	@ movhi
 799              		.loc 1 470 0
 800 043c FFF7FEFF 		bl	lv_obj_get_opa_scale
 801              	.LVL92:
 802 0440 3A46     		mov	r2, r7
 803 0442 0346     		mov	r3, r0
 804 0444 0799     		ldr	r1, [sp, #28]
 805 0446 1AA8     		add	r0, sp, #104
 806 0448 FFF7FEFF 		bl	lv_draw_rect
 807              	.LVL93:
 808              	.LBE81:
 809              	.LBE84:
 810 044c 0120     		movs	r0, #1
 811              	.LBE52:
 812              	.LBE51:
 318:..\..\..\lvgl\version_6.1.2\lvgl\src\lv_objx/lv_gauge.c **** 
 813              		.loc 1 318 0
 814 044e 59B0     		add	sp, sp, #356
 815              		.cfi_remember_state
 816              		.cfi_def_cfa_offset 36
 817              		@ sp needed
 818 0450 BDE8F08F 		pop	{r4, r5, r6, r7, r8, r9, r10, fp, pc}
 819              	.LVL94:
 820              	.L25:
 821              		.cfi_restore_state
 314:..\..\..\lvgl\version_6.1.2\lvgl\src\lv_objx/lv_gauge.c ****     }
 822              		.loc 1 314 0
 823 0454 064B     		ldr	r3, .L27
 824 0456 1B68     		ldr	r3, [r3]
 825 0458 9847     		blx	r3
 826              	.LVL95:
 317:..\..\..\lvgl\version_6.1.2\lvgl\src\lv_objx/lv_gauge.c **** }
 827              		.loc 1 317 0
 828 045a 3046     		mov	r0, r6
 318:..\..\..\lvgl\version_6.1.2\lvgl\src\lv_objx/lv_gauge.c **** 
 829              		.loc 1 318 0
 830 045c 59B0     		add	sp, sp, #356
 831              		.cfi_remember_state
 832              		.cfi_def_cfa_offset 36
 833              		@ sp needed
 834 045e BDE8F08F 		pop	{r4, r5, r6, r7, r8, r9, r10, fp, pc}
 835              	.LVL96:
 836              	.L26:
 837              		.cfi_restore_state
 838 0462 1CAB     		add	r3, sp, #112
 839 0464 0893     		str	r3, [sp, #32]
 840 0466 30AB     		add	r3, sp, #192
ARM GAS  C:\Users\pearlstl\AppData\Local\Temp\cccjDn63.s 			page 30


 841 0468 0A93     		str	r3, [sp, #40]
 842 046a 44AB     		add	r3, sp, #272
 843 046c 1793     		str	r3, [sp, #92]
 844 046e B2E6     		b	.L8
 845              	.L28:
 846              		.align	2
 847              	.L27:
 848 0470 00000000 		.word	.LANCHOR0
 849 0474 0000FFFF 		.word	-65536
 850 0478 00000000 		.word	lv_style_plain
 851 047c 03000180 		.word	-2147418109
 852              		.cfi_endproc
 853              	.LFE54:
 854              		.size	lv_gauge_design, .-lv_gauge_design
 855              		.section	.text.lv_gauge_signal,"ax",%progbits
 856              		.align	2
 857              		.thumb
 858              		.thumb_func
 859              		.type	lv_gauge_signal, %function
 860              	lv_gauge_signal:
 861              	.LFB55:
 328:..\..\..\lvgl\version_6.1.2\lvgl\src\lv_objx/lv_gauge.c ****     lv_res_t res;
 862              		.loc 1 328 0
 863              		.cfi_startproc
 864              		@ args = 0, pretend = 0, frame = 0
 865              		@ frame_needed = 0, uses_anonymous_args = 0
 866              	.LVL97:
 867 0000 F8B5     		push	{r3, r4, r5, r6, r7, lr}
 868              		.cfi_def_cfa_offset 24
 869              		.cfi_offset 3, -24
 870              		.cfi_offset 4, -20
 871              		.cfi_offset 5, -16
 872              		.cfi_offset 6, -12
 873              		.cfi_offset 7, -8
 874              		.cfi_offset 14, -4
 332:..\..\..\lvgl\version_6.1.2\lvgl\src\lv_objx/lv_gauge.c ****     if(res != LV_RES_OK) return res;
 875              		.loc 1 332 0
 876 0002 0F4B     		ldr	r3, .L37
 877 0004 5B68     		ldr	r3, [r3, #4]
 328:..\..\..\lvgl\version_6.1.2\lvgl\src\lv_objx/lv_gauge.c ****     lv_res_t res;
 878              		.loc 1 328 0
 879 0006 0646     		mov	r6, r0
 880 0008 0D46     		mov	r5, r1
 881 000a 1746     		mov	r7, r2
 332:..\..\..\lvgl\version_6.1.2\lvgl\src\lv_objx/lv_gauge.c ****     if(res != LV_RES_OK) return res;
 882              		.loc 1 332 0
 883 000c 9847     		blx	r3
 884              	.LVL98:
 333:..\..\..\lvgl\version_6.1.2\lvgl\src\lv_objx/lv_gauge.c ****     if(sign == LV_SIGNAL_GET_TYPE) return lv_obj_handle_get_type_signal(param, LV_OBJX_NAME);
 885              		.loc 1 333 0
 886 000e 0128     		cmp	r0, #1
 332:..\..\..\lvgl\version_6.1.2\lvgl\src\lv_objx/lv_gauge.c ****     if(res != LV_RES_OK) return res;
 887              		.loc 1 332 0
 888 0010 0446     		mov	r4, r0
 889              	.LVL99:
 333:..\..\..\lvgl\version_6.1.2\lvgl\src\lv_objx/lv_gauge.c ****     if(sign == LV_SIGNAL_GET_TYPE) return lv_obj_handle_get_type_signal(param, LV_OBJX_NAME);
 890              		.loc 1 333 0
ARM GAS  C:\Users\pearlstl\AppData\Local\Temp\cccjDn63.s 			page 31


 891 0012 01D0     		beq	.L35
 892              	.LVL100:
 893              	.L30:
 343:..\..\..\lvgl\version_6.1.2\lvgl\src\lv_objx/lv_gauge.c **** 
 894              		.loc 1 343 0
 895 0014 2046     		mov	r0, r4
 896 0016 F8BD     		pop	{r3, r4, r5, r6, r7, pc}
 897              	.LVL101:
 898              	.L35:
 334:..\..\..\lvgl\version_6.1.2\lvgl\src\lv_objx/lv_gauge.c **** 
 899              		.loc 1 334 0
 900 0018 072D     		cmp	r5, #7
 901 001a 0BD0     		beq	.L36
 336:..\..\..\lvgl\version_6.1.2\lvgl\src\lv_objx/lv_gauge.c ****     if(sign == LV_SIGNAL_CLEANUP) {
 902              		.loc 1 336 0
 903 001c 3046     		mov	r0, r6
 904              	.LVL102:
 905 001e FFF7FEFF 		bl	lv_obj_get_ext_attr
 906              	.LVL103:
 907 0022 0646     		mov	r6, r0
 908              	.LVL104:
 337:..\..\..\lvgl\version_6.1.2\lvgl\src\lv_objx/lv_gauge.c ****         lv_mem_free(ext->values);
 909              		.loc 1 337 0
 910 0024 002D     		cmp	r5, #0
 911 0026 F5D1     		bne	.L30
 338:..\..\..\lvgl\version_6.1.2\lvgl\src\lv_objx/lv_gauge.c ****         ext->values = NULL;
 912              		.loc 1 338 0
 913 0028 C068     		ldr	r0, [r0, #12]
 914              	.LVL105:
 915 002a FFF7FEFF 		bl	lv_mem_free
 916              	.LVL106:
 339:..\..\..\lvgl\version_6.1.2\lvgl\src\lv_objx/lv_gauge.c ****     }
 917              		.loc 1 339 0
 918 002e F560     		str	r5, [r6, #12]
 343:..\..\..\lvgl\version_6.1.2\lvgl\src\lv_objx/lv_gauge.c **** 
 919              		.loc 1 343 0
 920 0030 2046     		mov	r0, r4
 921 0032 F8BD     		pop	{r3, r4, r5, r6, r7, pc}
 922              	.LVL107:
 923              	.L36:
 924              	.LBB87:
 925              	.LBB88:
 334:..\..\..\lvgl\version_6.1.2\lvgl\src\lv_objx/lv_gauge.c **** 
 926              		.loc 1 334 0
 927 0034 3846     		mov	r0, r7
 928              	.LVL108:
 929 0036 0349     		ldr	r1, .L37+4
 930              	.LBE88:
 931              	.LBE87:
 343:..\..\..\lvgl\version_6.1.2\lvgl\src\lv_objx/lv_gauge.c **** 
 932              		.loc 1 343 0
 933 0038 BDE8F840 		pop	{r3, r4, r5, r6, r7, lr}
 934              		.cfi_restore 14
 935              		.cfi_restore 7
 936              		.cfi_restore 6
 937              		.cfi_restore 5
 938              		.cfi_restore 4
ARM GAS  C:\Users\pearlstl\AppData\Local\Temp\cccjDn63.s 			page 32


 939              		.cfi_restore 3
 940              		.cfi_def_cfa_offset 0
 941              	.LVL109:
 942              	.LBB90:
 943              	.LBB89:
 334:..\..\..\lvgl\version_6.1.2\lvgl\src\lv_objx/lv_gauge.c **** 
 944              		.loc 1 334 0
 945 003c FFF7FEBF 		b	lv_obj_handle_get_type_signal
 946              	.LVL110:
 947              	.L38:
 948              		.align	2
 949              	.L37:
 950 0040 00000000 		.word	.LANCHOR0
 951 0044 00000000 		.word	.LC0
 952              	.LBE89:
 953              	.LBE90:
 954              		.cfi_endproc
 955              	.LFE55:
 956              		.size	lv_gauge_signal, .-lv_gauge_signal
 957              		.section	.text.lv_gauge_create,"ax",%progbits
 958              		.align	2
 959              		.global	lv_gauge_create
 960              		.thumb
 961              		.thumb_func
 962              		.type	lv_gauge_create, %function
 963              	lv_gauge_create:
 964              	.LFB47:
  66:..\..\..\lvgl\version_6.1.2\lvgl\src\lv_objx/lv_gauge.c ****     LV_LOG_TRACE("gauge create started");
 965              		.loc 1 66 0
 966              		.cfi_startproc
 967              		@ args = 0, pretend = 0, frame = 0
 968              		@ frame_needed = 0, uses_anonymous_args = 0
 969              	.LVL111:
 970 0000 2DE9F843 		push	{r3, r4, r5, r6, r7, r8, r9, lr}
 971              		.cfi_def_cfa_offset 32
 972              		.cfi_offset 3, -32
 973              		.cfi_offset 4, -28
 974              		.cfi_offset 5, -24
 975              		.cfi_offset 6, -20
 976              		.cfi_offset 7, -16
 977              		.cfi_offset 8, -12
 978              		.cfi_offset 9, -8
 979              		.cfi_offset 14, -4
  66:..\..\..\lvgl\version_6.1.2\lvgl\src\lv_objx/lv_gauge.c ****     LV_LOG_TRACE("gauge create started");
 980              		.loc 1 66 0
 981 0004 0F46     		mov	r7, r1
  70:..\..\..\lvgl\version_6.1.2\lvgl\src\lv_objx/lv_gauge.c ****     LV_ASSERT_MEM(new_gauge);
 982              		.loc 1 70 0
 983 0006 FFF7FEFF 		bl	lv_lmeter_create
 984              	.LVL112:
  72:..\..\..\lvgl\version_6.1.2\lvgl\src\lv_objx/lv_gauge.c **** 
 985              		.loc 1 72 0
 986 000a 0028     		cmp	r0, #0
 987 000c 00F0AC80 		beq	.L42
  75:..\..\..\lvgl\version_6.1.2\lvgl\src\lv_objx/lv_gauge.c ****     LV_ASSERT_MEM(ext);
 988              		.loc 1 75 0
 989 0010 1821     		movs	r1, #24
ARM GAS  C:\Users\pearlstl\AppData\Local\Temp\cccjDn63.s 			page 33


 990 0012 0446     		mov	r4, r0
 991 0014 FFF7FEFF 		bl	lv_obj_allocate_ext_attr
 992              	.LVL113:
  77:..\..\..\lvgl\version_6.1.2\lvgl\src\lv_objx/lv_gauge.c **** 
 993              		.loc 1 77 0
 994 0018 0646     		mov	r6, r0
 995 001a 0028     		cmp	r0, #0
 996 001c 00F0A480 		beq	.L42
  84:..\..\..\lvgl\version_6.1.2\lvgl\src\lv_objx/lv_gauge.c ****     if(ancestor_design == NULL) ancestor_design = lv_obj_get_design_cb(new_gauge);
 997              		.loc 1 84 0
 998 0020 5B4D     		ldr	r5, .L84
 999 0022 6A68     		ldr	r2, [r5, #4]
  80:..\..\..\lvgl\version_6.1.2\lvgl\src\lv_objx/lv_gauge.c ****     ext->values        = NULL;
 1000              		.loc 1 80 0
 1001 0024 0023     		movs	r3, #0
  83:..\..\..\lvgl\version_6.1.2\lvgl\src\lv_objx/lv_gauge.c ****     if(ancestor_signal == NULL) ancestor_signal = lv_obj_get_signal_cb(new_gauge);
 1002              		.loc 1 83 0
 1003 0026 0621     		movs	r1, #6
  80:..\..\..\lvgl\version_6.1.2\lvgl\src\lv_objx/lv_gauge.c ****     ext->values        = NULL;
 1004              		.loc 1 80 0
 1005 0028 0375     		strb	r3, [r0, #20]
  81:..\..\..\lvgl\version_6.1.2\lvgl\src\lv_objx/lv_gauge.c ****     ext->needle_colors = NULL;
 1006              		.loc 1 81 0
 1007 002a C360     		str	r3, [r0, #12]
  82:..\..\..\lvgl\version_6.1.2\lvgl\src\lv_objx/lv_gauge.c ****     ext->label_count   = LV_GAUGE_DEF_LABEL_COUNT;
 1008              		.loc 1 82 0
 1009 002c 0361     		str	r3, [r0, #16]
  83:..\..\..\lvgl\version_6.1.2\lvgl\src\lv_objx/lv_gauge.c ****     if(ancestor_signal == NULL) ancestor_signal = lv_obj_get_signal_cb(new_gauge);
 1010              		.loc 1 83 0
 1011 002e 4175     		strb	r1, [r0, #21]
  84:..\..\..\lvgl\version_6.1.2\lvgl\src\lv_objx/lv_gauge.c ****     if(ancestor_design == NULL) ancestor_design = lv_obj_get_design_cb(new_gauge);
 1012              		.loc 1 84 0
 1013 0030 002A     		cmp	r2, #0
 1014 0032 00F09C80 		beq	.L81
 1015              	.LVL114:
 1016              	.L43:
  85:..\..\..\lvgl\version_6.1.2\lvgl\src\lv_objx/lv_gauge.c **** 
 1017              		.loc 1 85 0
 1018 0036 2B68     		ldr	r3, [r5]
 1019 0038 554D     		ldr	r5, .L84
 1020 003a 002B     		cmp	r3, #0
 1021 003c 00F09C80 		beq	.L82
 1022              	.L44:
  88:..\..\..\lvgl\version_6.1.2\lvgl\src\lv_objx/lv_gauge.c ****     lv_obj_set_design_cb(new_gauge, lv_gauge_design);
 1023              		.loc 1 88 0
 1024 0040 5449     		ldr	r1, .L84+4
 1025 0042 2046     		mov	r0, r4
 1026 0044 FFF7FEFF 		bl	lv_obj_set_signal_cb
 1027              	.LVL115:
  89:..\..\..\lvgl\version_6.1.2\lvgl\src\lv_objx/lv_gauge.c **** 
 1028              		.loc 1 89 0
 1029 0048 5349     		ldr	r1, .L84+8
 1030 004a 2046     		mov	r0, r4
 1031 004c FFF7FEFF 		bl	lv_obj_set_design_cb
 1032              	.LVL116:
  92:..\..\..\lvgl\version_6.1.2\lvgl\src\lv_objx/lv_gauge.c ****         lv_gauge_set_scale(new_gauge, LV_GAUGE_DEF_ANGLE, LV_GAUGE_DEF_LINE_COUNT, LV_GAUGE_DEF_LAB
 1033              		.loc 1 92 0
ARM GAS  C:\Users\pearlstl\AppData\Local\Temp\cccjDn63.s 			page 34


 1034 0050 002F     		cmp	r7, #0
 1035 0052 48D0     		beq	.L83
 1036              	.LBB111:
 108:..\..\..\lvgl\version_6.1.2\lvgl\src\lv_objx/lv_gauge.c ****         lv_gauge_set_needle_count(new_gauge, copy_ext->needle_count, copy_ext->needle_colors);
 1037              		.loc 1 108 0
 1038 0054 3846     		mov	r0, r7
 1039 0056 FFF7FEFF 		bl	lv_obj_get_ext_attr
 1040              	.LVL117:
 1041 005a 0546     		mov	r5, r0
 1042              	.LVL118:
 1043              	.LBB112:
 1044              	.LBB113:
 139:..\..\..\lvgl\version_6.1.2\lvgl\src\lv_objx/lv_gauge.c **** 
 1045              		.loc 1 139 0
 1046 005c 2046     		mov	r0, r4
 1047              	.LVL119:
 1048              	.LBE113:
 1049              	.LBE112:
 109:..\..\..\lvgl\version_6.1.2\lvgl\src\lv_objx/lv_gauge.c **** 
 1050              		.loc 1 109 0
 1051 005e 2F7D     		ldrb	r7, [r5, #20]	@ zero_extendqisi2
 1052              	.LVL120:
 1053 0060 D5F81080 		ldr	r8, [r5, #16]
 1054              	.LVL121:
 1055              	.LBB118:
 1056              	.LBB117:
 139:..\..\..\lvgl\version_6.1.2\lvgl\src\lv_objx/lv_gauge.c **** 
 1057              		.loc 1 139 0
 1058 0064 FFF7FEFF 		bl	lv_obj_get_ext_attr
 1059              	.LVL122:
 141:..\..\..\lvgl\version_6.1.2\lvgl\src\lv_objx/lv_gauge.c ****         if(ext->values != NULL) {
 1060              		.loc 1 141 0
 1061 0068 037D     		ldrb	r3, [r0, #20]	@ zero_extendqisi2
 1062 006a BB42     		cmp	r3, r7
 139:..\..\..\lvgl\version_6.1.2\lvgl\src\lv_objx/lv_gauge.c **** 
 1063              		.loc 1 139 0
 1064 006c 8146     		mov	r9, r0
 1065              	.LVL123:
 141:..\..\..\lvgl\version_6.1.2\lvgl\src\lv_objx/lv_gauge.c ****         if(ext->values != NULL) {
 1066              		.loc 1 141 0
 1067 006e 1ED0     		beq	.L51
 1068              	.LBB114:
 142:..\..\..\lvgl\version_6.1.2\lvgl\src\lv_objx/lv_gauge.c ****             lv_mem_free(ext->values);
 1069              		.loc 1 142 0
 1070 0070 C068     		ldr	r0, [r0, #12]
 1071              	.LVL124:
 1072 0072 20B1     		cbz	r0, .L52
 143:..\..\..\lvgl\version_6.1.2\lvgl\src\lv_objx/lv_gauge.c ****             ext->values = NULL;
 1073              		.loc 1 143 0
 1074 0074 FFF7FEFF 		bl	lv_mem_free
 1075              	.LVL125:
 144:..\..\..\lvgl\version_6.1.2\lvgl\src\lv_objx/lv_gauge.c ****         }
 1076              		.loc 1 144 0
 1077 0078 0023     		movs	r3, #0
 1078 007a C9F80C30 		str	r3, [r9, #12]
 1079              	.L52:
 147:..\..\..\lvgl\version_6.1.2\lvgl\src\lv_objx/lv_gauge.c ****         LV_ASSERT_MEM(ext->values);
ARM GAS  C:\Users\pearlstl\AppData\Local\Temp\cccjDn63.s 			page 35


 1080              		.loc 1 147 0
 1081 007e 7900     		lsls	r1, r7, #1
 1082 0080 0020     		movs	r0, #0
 1083 0082 FFF7FEFF 		bl	lv_mem_realloc
 1084              	.LVL126:
 1085 0086 C9F80C00 		str	r0, [r9, #12]
 149:..\..\..\lvgl\version_6.1.2\lvgl\src\lv_objx/lv_gauge.c **** 
 1086              		.loc 1 149 0
 1087 008a A8B1     		cbz	r0, .L53
 1088              	.LVL127:
 1089              	.LBB115:
 1090              	.LBB116:
 161:..\..\..\lvgl\version_6.1.2\lvgl\src\lv_objx/lv_gauge.h **** }
 1091              		.loc 2 161 0
 1092 008c 2046     		mov	r0, r4
 1093 008e FFF7FEFF 		bl	lv_lmeter_get_min_value
 1094              	.LVL128:
 1095              	.LBE116:
 1096              	.LBE115:
 153:..\..\..\lvgl\version_6.1.2\lvgl\src\lv_objx/lv_gauge.c ****             ext->values[n] = min;
 1097              		.loc 1 153 0
 1098 0092 99F81430 		ldrb	r3, [r9, #20]	@ zero_extendqisi2
 1099              	.LVL129:
 1100 0096 9F42     		cmp	r7, r3
 1101 0098 07D9     		bls	.L56
 1102 009a D9F80C20 		ldr	r2, [r9, #12]
 1103              	.L55:
 154:..\..\..\lvgl\version_6.1.2\lvgl\src\lv_objx/lv_gauge.c ****         }
 1104              		.loc 1 154 0
 1105 009e 22F81300 		strh	r0, [r2, r3, lsl #1]	@ movhi
 153:..\..\..\lvgl\version_6.1.2\lvgl\src\lv_objx/lv_gauge.c ****             ext->values[n] = min;
 1106              		.loc 1 153 0
 1107 00a2 0133     		adds	r3, r3, #1
 1108              	.LVL130:
 1109 00a4 DBB2     		uxtb	r3, r3
 1110              	.LVL131:
 1111 00a6 9F42     		cmp	r7, r3
 1112 00a8 F9D1     		bne	.L55
 1113              	.L56:
 157:..\..\..\lvgl\version_6.1.2\lvgl\src\lv_objx/lv_gauge.c ****     }
 1114              		.loc 1 157 0
 1115 00aa 89F81470 		strb	r7, [r9, #20]
 1116              	.LVL132:
 1117              	.L51:
 1118              	.LBE114:
 160:..\..\..\lvgl\version_6.1.2\lvgl\src\lv_objx/lv_gauge.c ****     lv_obj_invalidate(gauge);
 1119              		.loc 1 160 0
 1120 00ae C9F81080 		str	r8, [r9, #16]
 161:..\..\..\lvgl\version_6.1.2\lvgl\src\lv_objx/lv_gauge.c **** }
 1121              		.loc 1 161 0
 1122 00b2 2046     		mov	r0, r4
 1123 00b4 FFF7FEFF 		bl	lv_obj_invalidate
 1124              	.LVL133:
 1125              	.L53:
 1126              	.LBE117:
 1127              	.LBE118:
 112:..\..\..\lvgl\version_6.1.2\lvgl\src\lv_objx/lv_gauge.c ****             ext->values[i] = copy_ext->values[i];
ARM GAS  C:\Users\pearlstl\AppData\Local\Temp\cccjDn63.s 			page 36


 1128              		.loc 1 112 0 discriminator 1
 1129 00b8 337D     		ldrb	r3, [r6, #20]	@ zero_extendqisi2
 1130 00ba 63B1     		cbz	r3, .L59
 1131 00bc F768     		ldr	r7, [r6, #12]
 1132              	.LVL134:
 1133 00be E868     		ldr	r0, [r5, #12]
 112:..\..\..\lvgl\version_6.1.2\lvgl\src\lv_objx/lv_gauge.c ****             ext->values[i] = copy_ext->values[i];
 1134              		.loc 1 112 0 is_stmt 0
 1135 00c0 0023     		movs	r3, #0
 1136              	.LVL135:
 1137              	.L58:
 113:..\..\..\lvgl\version_6.1.2\lvgl\src\lv_objx/lv_gauge.c ****         }
 1138              		.loc 1 113 0 is_stmt 1 discriminator 3
 1139 00c2 1AB2     		sxth	r2, r3
 112:..\..\..\lvgl\version_6.1.2\lvgl\src\lv_objx/lv_gauge.c ****             ext->values[i] = copy_ext->values[i];
 1140              		.loc 1 112 0 discriminator 3
 1141 00c4 0133     		adds	r3, r3, #1
 1142              	.LVL136:
 113:..\..\..\lvgl\version_6.1.2\lvgl\src\lv_objx/lv_gauge.c ****         }
 1143              		.loc 1 113 0 discriminator 3
 1144 00c6 30F91210 		ldrsh	r1, [r0, r2, lsl #1]
 1145 00ca 27F81210 		strh	r1, [r7, r2, lsl #1]	@ movhi
 112:..\..\..\lvgl\version_6.1.2\lvgl\src\lv_objx/lv_gauge.c ****             ext->values[i] = copy_ext->values[i];
 1146              		.loc 1 112 0 discriminator 3
 1147 00ce 327D     		ldrb	r2, [r6, #20]	@ zero_extendqisi2
 1148 00d0 DBB2     		uxtb	r3, r3
 1149              	.LVL137:
 1150 00d2 9A42     		cmp	r2, r3
 1151 00d4 F5D8     		bhi	.L58
 1152              	.LVL138:
 1153              	.L59:
 115:..\..\..\lvgl\version_6.1.2\lvgl\src\lv_objx/lv_gauge.c ****         /*Refresh the style with new signal function*/
 1154              		.loc 1 115 0
 1155 00d6 6B7D     		ldrb	r3, [r5, #21]	@ zero_extendqisi2
 1156 00d8 7375     		strb	r3, [r6, #21]
 117:..\..\..\lvgl\version_6.1.2\lvgl\src\lv_objx/lv_gauge.c ****     }
 1157              		.loc 1 117 0
 1158 00da 2046     		mov	r0, r4
 1159 00dc FFF7FEFF 		bl	lv_obj_refresh_style
 1160              	.LVL139:
 1161 00e0 2046     		mov	r0, r4
 1162 00e2 BDE8F883 		pop	{r3, r4, r5, r6, r7, r8, r9, pc}
 1163              	.LVL140:
 1164              	.L83:
 1165              	.LBE111:
 1166              	.LBB119:
 1167              	.LBB120:
 1168              	.LBB121:
 205:..\..\..\lvgl\version_6.1.2\lvgl\src\lv_objx/lv_gauge.c **** 
 1169              		.loc 1 205 0
 1170 00e6 1522     		movs	r2, #21
 1171 00e8 DC21     		movs	r1, #220
 1172 00ea 2046     		mov	r0, r4
 1173 00ec FFF7FEFF 		bl	lv_lmeter_set_scale
 1174              	.LVL141:
 207:..\..\..\lvgl\version_6.1.2\lvgl\src\lv_objx/lv_gauge.c ****     ext->label_count     = label_cnt;
 1175              		.loc 1 207 0
ARM GAS  C:\Users\pearlstl\AppData\Local\Temp\cccjDn63.s 			page 37


 1176 00f0 2046     		mov	r0, r4
 1177 00f2 FFF7FEFF 		bl	lv_obj_get_ext_attr
 1178              	.LVL142:
 208:..\..\..\lvgl\version_6.1.2\lvgl\src\lv_objx/lv_gauge.c ****     lv_obj_invalidate(gauge);
 1179              		.loc 1 208 0
 1180 00f6 0623     		movs	r3, #6
 1181 00f8 4375     		strb	r3, [r0, #21]
 209:..\..\..\lvgl\version_6.1.2\lvgl\src\lv_objx/lv_gauge.c **** }
 1182              		.loc 1 209 0
 1183 00fa 2046     		mov	r0, r4
 1184              	.LVL143:
 1185 00fc FFF7FEFF 		bl	lv_obj_invalidate
 1186              	.LVL144:
 1187              	.LBE121:
 1188              	.LBE120:
 1189              	.LBB122:
 1190              	.LBB123:
 139:..\..\..\lvgl\version_6.1.2\lvgl\src\lv_objx/lv_gauge.c **** 
 1191              		.loc 1 139 0
 1192 0100 2046     		mov	r0, r4
 1193 0102 FFF7FEFF 		bl	lv_obj_get_ext_attr
 1194              	.LVL145:
 141:..\..\..\lvgl\version_6.1.2\lvgl\src\lv_objx/lv_gauge.c ****         if(ext->values != NULL) {
 1195              		.loc 1 141 0
 1196 0106 037D     		ldrb	r3, [r0, #20]	@ zero_extendqisi2
 1197 0108 012B     		cmp	r3, #1
 139:..\..\..\lvgl\version_6.1.2\lvgl\src\lv_objx/lv_gauge.c **** 
 1198              		.loc 1 139 0
 1199 010a 0546     		mov	r5, r0
 1200              	.LVL146:
 141:..\..\..\lvgl\version_6.1.2\lvgl\src\lv_objx/lv_gauge.c ****         if(ext->values != NULL) {
 1201              		.loc 1 141 0
 1202 010c 13D0     		beq	.L46
 1203              	.LBB124:
 142:..\..\..\lvgl\version_6.1.2\lvgl\src\lv_objx/lv_gauge.c ****             lv_mem_free(ext->values);
 1204              		.loc 1 142 0
 1205 010e C068     		ldr	r0, [r0, #12]
 1206              	.LVL147:
 1207 0110 10B1     		cbz	r0, .L47
 143:..\..\..\lvgl\version_6.1.2\lvgl\src\lv_objx/lv_gauge.c ****             ext->values = NULL;
 1208              		.loc 1 143 0
 1209 0112 FFF7FEFF 		bl	lv_mem_free
 1210              	.LVL148:
 144:..\..\..\lvgl\version_6.1.2\lvgl\src\lv_objx/lv_gauge.c ****         }
 1211              		.loc 1 144 0
 1212 0116 EF60     		str	r7, [r5, #12]
 1213              	.L47:
 147:..\..\..\lvgl\version_6.1.2\lvgl\src\lv_objx/lv_gauge.c ****         LV_ASSERT_MEM(ext->values);
 1214              		.loc 1 147 0
 1215 0118 0221     		movs	r1, #2
 1216 011a 0020     		movs	r0, #0
 1217 011c FFF7FEFF 		bl	lv_mem_realloc
 1218              	.LVL149:
 1219 0120 E860     		str	r0, [r5, #12]
 149:..\..\..\lvgl\version_6.1.2\lvgl\src\lv_objx/lv_gauge.c **** 
 1220              		.loc 1 149 0
 1221 0122 68B1     		cbz	r0, .L48
ARM GAS  C:\Users\pearlstl\AppData\Local\Temp\cccjDn63.s 			page 38


 1222              	.LVL150:
 1223              	.LBB125:
 1224              	.LBB126:
 161:..\..\..\lvgl\version_6.1.2\lvgl\src\lv_objx/lv_gauge.h **** }
 1225              		.loc 2 161 0
 1226 0124 2046     		mov	r0, r4
 1227 0126 FFF7FEFF 		bl	lv_lmeter_get_min_value
 1228              	.LVL151:
 1229              	.LBE126:
 1230              	.LBE125:
 153:..\..\..\lvgl\version_6.1.2\lvgl\src\lv_objx/lv_gauge.c ****             ext->values[n] = min;
 1231              		.loc 1 153 0
 1232 012a 2B7D     		ldrb	r3, [r5, #20]	@ zero_extendqisi2
 1233 012c 0BB9     		cbnz	r3, .L49
 1234              	.LVL152:
 154:..\..\..\lvgl\version_6.1.2\lvgl\src\lv_objx/lv_gauge.c ****         }
 1235              		.loc 1 154 0
 1236 012e EB68     		ldr	r3, [r5, #12]
 1237 0130 1880     		strh	r0, [r3]	@ movhi
 1238              	.LVL153:
 1239              	.L49:
 157:..\..\..\lvgl\version_6.1.2\lvgl\src\lv_objx/lv_gauge.c ****     }
 1240              		.loc 1 157 0
 1241 0132 0123     		movs	r3, #1
 1242 0134 2B75     		strb	r3, [r5, #20]
 1243              	.L46:
 1244              	.LBE124:
 160:..\..\..\lvgl\version_6.1.2\lvgl\src\lv_objx/lv_gauge.c ****     lv_obj_invalidate(gauge);
 1245              		.loc 1 160 0
 1246 0136 0023     		movs	r3, #0
 1247 0138 2B61     		str	r3, [r5, #16]
 161:..\..\..\lvgl\version_6.1.2\lvgl\src\lv_objx/lv_gauge.c **** }
 1248              		.loc 1 161 0
 1249 013a 2046     		mov	r0, r4
 1250 013c FFF7FEFF 		bl	lv_obj_invalidate
 1251              	.LVL154:
 1252              	.L48:
 1253              	.LBE123:
 1254              	.LBE122:
 1255              	.LBB127:
 1256              	.LBB128:
 109:..\..\..\lvgl\version_6.1.2\lvgl\src\lv_objx/lv_gauge.h **** }
 1257              		.loc 2 109 0
 1258 0140 5021     		movs	r1, #80
 1259 0142 2046     		mov	r0, r4
 1260 0144 FFF7FEFF 		bl	lv_lmeter_set_value
 1261              	.LVL155:
 1262              	.LBE128:
 1263              	.LBE127:
  96:..\..\..\lvgl\version_6.1.2\lvgl\src\lv_objx/lv_gauge.c **** 
 1264              		.loc 1 96 0
 1265 0148 4FF49672 		mov	r2, #300
 1266 014c 1146     		mov	r1, r2
 1267 014e 2046     		mov	r0, r4
 1268 0150 FFF7FEFF 		bl	lv_obj_set_size
 1269              	.LVL156:
  99:..\..\..\lvgl\version_6.1.2\lvgl\src\lv_objx/lv_gauge.c ****         if(th) {
ARM GAS  C:\Users\pearlstl\AppData\Local\Temp\cccjDn63.s 			page 39


 1270              		.loc 1 99 0
 1271 0154 FFF7FEFF 		bl	lv_theme_get_current
 1272              	.LVL157:
 100:..\..\..\lvgl\version_6.1.2\lvgl\src\lv_objx/lv_gauge.c ****             lv_gauge_set_style(new_gauge, LV_GAUGE_STYLE_MAIN, th->style.gauge);
 1273              		.loc 1 100 0
 1274 0158 98B1     		cbz	r0, .L50
 1275              	.LVL158:
 1276              	.LBB129:
 1277              	.LBB130:
 132:..\..\..\lvgl\version_6.1.2\lvgl\src\lv_objx/lv_gauge.h **** }
 1278              		.loc 2 132 0
 1279 015a C16E     		ldr	r1, [r0, #108]
 1280 015c 2046     		mov	r0, r4
 1281              	.LVL159:
 1282 015e FFF7FEFF 		bl	lv_obj_set_style
 1283              	.LVL160:
 1284 0162 2046     		mov	r0, r4
 1285 0164 BDE8F883 		pop	{r3, r4, r5, r6, r7, r8, r9, pc}
 1286              	.LVL161:
 1287              	.L42:
 1288              	.LBE130:
 1289              	.LBE129:
 1290              	.LBE119:
  72:..\..\..\lvgl\version_6.1.2\lvgl\src\lv_objx/lv_gauge.c **** 
 1291              		.loc 1 72 0
 1292 0168 0020     		movs	r0, #0
 1293 016a BDE8F883 		pop	{r3, r4, r5, r6, r7, r8, r9, pc}
 1294              	.LVL162:
 1295              	.L81:
  84:..\..\..\lvgl\version_6.1.2\lvgl\src\lv_objx/lv_gauge.c ****     if(ancestor_design == NULL) ancestor_design = lv_obj_get_design_cb(new_gauge);
 1296              		.loc 1 84 0 discriminator 1
 1297 016e 2046     		mov	r0, r4
 1298              	.LVL163:
 1299 0170 FFF7FEFF 		bl	lv_obj_get_signal_cb
 1300              	.LVL164:
 1301 0174 6860     		str	r0, [r5, #4]
 1302 0176 5EE7     		b	.L43
 1303              	.L82:
  85:..\..\..\lvgl\version_6.1.2\lvgl\src\lv_objx/lv_gauge.c **** 
 1304              		.loc 1 85 0 discriminator 1
 1305 0178 2046     		mov	r0, r4
 1306 017a FFF7FEFF 		bl	lv_obj_get_design_cb
 1307              	.LVL165:
 1308 017e 2860     		str	r0, [r5]
 1309 0180 5EE7     		b	.L44
 1310              	.LVL166:
 1311              	.L50:
 1312              	.LBB133:
 1313              	.LBB131:
 1314              	.LBB132:
 132:..\..\..\lvgl\version_6.1.2\lvgl\src\lv_objx/lv_gauge.h **** }
 1315              		.loc 2 132 0
 1316 0182 2046     		mov	r0, r4
 1317              	.LVL167:
 1318 0184 0549     		ldr	r1, .L84+12
 1319 0186 FFF7FEFF 		bl	lv_obj_set_style
 1320              	.LVL168:
ARM GAS  C:\Users\pearlstl\AppData\Local\Temp\cccjDn63.s 			page 40


 1321 018a 2046     		mov	r0, r4
 1322 018c BDE8F883 		pop	{r3, r4, r5, r6, r7, r8, r9, pc}
 1323              	.LVL169:
 1324              	.L85:
 1325              		.align	2
 1326              	.L84:
 1327 0190 00000000 		.word	.LANCHOR0
 1328 0194 00000000 		.word	lv_gauge_signal
 1329 0198 00000000 		.word	lv_gauge_design
 1330 019c 00000000 		.word	lv_style_pretty_color
 1331              	.LBE132:
 1332              	.LBE131:
 1333              	.LBE133:
 1334              		.cfi_endproc
 1335              	.LFE47:
 1336              		.size	lv_gauge_create, .-lv_gauge_create
 1337              		.section	.text.lv_gauge_set_needle_count,"ax",%progbits
 1338              		.align	2
 1339              		.global	lv_gauge_set_needle_count
 1340              		.thumb
 1341              		.thumb_func
 1342              		.type	lv_gauge_set_needle_count, %function
 1343              	lv_gauge_set_needle_count:
 1344              	.LFB48:
 136:..\..\..\lvgl\version_6.1.2\lvgl\src\lv_objx/lv_gauge.c ****     LV_ASSERT_OBJ(gauge, LV_OBJX_NAME);
 1345              		.loc 1 136 0
 1346              		.cfi_startproc
 1347              		@ args = 0, pretend = 0, frame = 0
 1348              		@ frame_needed = 0, uses_anonymous_args = 0
 1349              	.LVL170:
 1350 0000 F8B5     		push	{r3, r4, r5, r6, r7, lr}
 1351              		.cfi_def_cfa_offset 24
 1352              		.cfi_offset 3, -24
 1353              		.cfi_offset 4, -20
 1354              		.cfi_offset 5, -16
 1355              		.cfi_offset 6, -12
 1356              		.cfi_offset 7, -8
 1357              		.cfi_offset 14, -4
 136:..\..\..\lvgl\version_6.1.2\lvgl\src\lv_objx/lv_gauge.c ****     LV_ASSERT_OBJ(gauge, LV_OBJX_NAME);
 1358              		.loc 1 136 0
 1359 0002 0C46     		mov	r4, r1
 1360 0004 1746     		mov	r7, r2
 1361 0006 0646     		mov	r6, r0
 139:..\..\..\lvgl\version_6.1.2\lvgl\src\lv_objx/lv_gauge.c **** 
 1362              		.loc 1 139 0
 1363 0008 FFF7FEFF 		bl	lv_obj_get_ext_attr
 1364              	.LVL171:
 141:..\..\..\lvgl\version_6.1.2\lvgl\src\lv_objx/lv_gauge.c ****         if(ext->values != NULL) {
 1365              		.loc 1 141 0
 1366 000c 037D     		ldrb	r3, [r0, #20]	@ zero_extendqisi2
 1367 000e A342     		cmp	r3, r4
 139:..\..\..\lvgl\version_6.1.2\lvgl\src\lv_objx/lv_gauge.c **** 
 1368              		.loc 1 139 0
 1369 0010 0546     		mov	r5, r0
 1370              	.LVL172:
 141:..\..\..\lvgl\version_6.1.2\lvgl\src\lv_objx/lv_gauge.c ****         if(ext->values != NULL) {
 1371              		.loc 1 141 0
ARM GAS  C:\Users\pearlstl\AppData\Local\Temp\cccjDn63.s 			page 41


 1372 0012 19D0     		beq	.L87
 1373              	.LBB134:
 142:..\..\..\lvgl\version_6.1.2\lvgl\src\lv_objx/lv_gauge.c ****             lv_mem_free(ext->values);
 1374              		.loc 1 142 0
 1375 0014 C068     		ldr	r0, [r0, #12]
 1376              	.LVL173:
 1377 0016 18B1     		cbz	r0, .L88
 143:..\..\..\lvgl\version_6.1.2\lvgl\src\lv_objx/lv_gauge.c ****             ext->values = NULL;
 1378              		.loc 1 143 0
 1379 0018 FFF7FEFF 		bl	lv_mem_free
 1380              	.LVL174:
 144:..\..\..\lvgl\version_6.1.2\lvgl\src\lv_objx/lv_gauge.c ****         }
 1381              		.loc 1 144 0
 1382 001c 0023     		movs	r3, #0
 1383 001e EB60     		str	r3, [r5, #12]
 1384              	.L88:
 147:..\..\..\lvgl\version_6.1.2\lvgl\src\lv_objx/lv_gauge.c ****         LV_ASSERT_MEM(ext->values);
 1385              		.loc 1 147 0
 1386 0020 6100     		lsls	r1, r4, #1
 1387 0022 0020     		movs	r0, #0
 1388 0024 FFF7FEFF 		bl	lv_mem_realloc
 1389              	.LVL175:
 1390 0028 E860     		str	r0, [r5, #12]
 149:..\..\..\lvgl\version_6.1.2\lvgl\src\lv_objx/lv_gauge.c **** 
 1391              		.loc 1 149 0
 1392 002a 98B1     		cbz	r0, .L86
 1393              	.LVL176:
 1394              	.LBB135:
 1395              	.LBB136:
 161:..\..\..\lvgl\version_6.1.2\lvgl\src\lv_objx/lv_gauge.h **** }
 1396              		.loc 2 161 0
 1397 002c 3046     		mov	r0, r6
 1398 002e FFF7FEFF 		bl	lv_lmeter_get_min_value
 1399              	.LVL177:
 1400              	.LBE136:
 1401              	.LBE135:
 153:..\..\..\lvgl\version_6.1.2\lvgl\src\lv_objx/lv_gauge.c ****             ext->values[n] = min;
 1402              		.loc 1 153 0
 1403 0032 2B7D     		ldrb	r3, [r5, #20]	@ zero_extendqisi2
 1404              	.LVL178:
 1405 0034 9C42     		cmp	r4, r3
 1406 0036 06D9     		bls	.L92
 1407 0038 EA68     		ldr	r2, [r5, #12]
 1408              	.L91:
 154:..\..\..\lvgl\version_6.1.2\lvgl\src\lv_objx/lv_gauge.c ****         }
 1409              		.loc 1 154 0 discriminator 3
 1410 003a 22F81300 		strh	r0, [r2, r3, lsl #1]	@ movhi
 153:..\..\..\lvgl\version_6.1.2\lvgl\src\lv_objx/lv_gauge.c ****             ext->values[n] = min;
 1411              		.loc 1 153 0 discriminator 3
 1412 003e 0133     		adds	r3, r3, #1
 1413              	.LVL179:
 1414 0040 DBB2     		uxtb	r3, r3
 1415              	.LVL180:
 1416 0042 9C42     		cmp	r4, r3
 1417 0044 F9D1     		bne	.L91
 1418              	.L92:
 157:..\..\..\lvgl\version_6.1.2\lvgl\src\lv_objx/lv_gauge.c ****     }
ARM GAS  C:\Users\pearlstl\AppData\Local\Temp\cccjDn63.s 			page 42


 1419              		.loc 1 157 0
 1420 0046 2C75     		strb	r4, [r5, #20]
 1421              	.LVL181:
 1422              	.L87:
 1423              	.LBE134:
 160:..\..\..\lvgl\version_6.1.2\lvgl\src\lv_objx/lv_gauge.c ****     lv_obj_invalidate(gauge);
 1424              		.loc 1 160 0
 1425 0048 2F61     		str	r7, [r5, #16]
 161:..\..\..\lvgl\version_6.1.2\lvgl\src\lv_objx/lv_gauge.c **** }
 1426              		.loc 1 161 0
 1427 004a 3046     		mov	r0, r6
 162:..\..\..\lvgl\version_6.1.2\lvgl\src\lv_objx/lv_gauge.c **** 
 1428              		.loc 1 162 0
 1429 004c BDE8F840 		pop	{r3, r4, r5, r6, r7, lr}
 1430              		.cfi_remember_state
 1431              		.cfi_restore 14
 1432              		.cfi_restore 7
 1433              		.cfi_restore 6
 1434              		.cfi_restore 5
 1435              		.cfi_restore 4
 1436              		.cfi_restore 3
 1437              		.cfi_def_cfa_offset 0
 1438              	.LVL182:
 161:..\..\..\lvgl\version_6.1.2\lvgl\src\lv_objx/lv_gauge.c **** }
 1439              		.loc 1 161 0
 1440 0050 FFF7FEBF 		b	lv_obj_invalidate
 1441              	.LVL183:
 1442              	.L86:
 1443              		.cfi_restore_state
 1444 0054 F8BD     		pop	{r3, r4, r5, r6, r7, pc}
 1445              		.cfi_endproc
 1446              	.LFE48:
 1447              		.size	lv_gauge_set_needle_count, .-lv_gauge_set_needle_count
 1448 0056 00BF     		.section	.text.lv_gauge_set_value,"ax",%progbits
 1449              		.align	2
 1450              		.global	lv_gauge_set_value
 1451              		.thumb
 1452              		.thumb_func
 1453              		.type	lv_gauge_set_value, %function
 1454              	lv_gauge_set_value:
 1455              	.LFB49:
 171:..\..\..\lvgl\version_6.1.2\lvgl\src\lv_objx/lv_gauge.c ****     LV_ASSERT_OBJ(gauge, LV_OBJX_NAME);
 1456              		.loc 1 171 0
 1457              		.cfi_startproc
 1458              		@ args = 0, pretend = 0, frame = 0
 1459              		@ frame_needed = 0, uses_anonymous_args = 0
 1460              	.LVL184:
 1461 0000 2DE9F041 		push	{r4, r5, r6, r7, r8, lr}
 1462              		.cfi_def_cfa_offset 24
 1463              		.cfi_offset 4, -24
 1464              		.cfi_offset 5, -20
 1465              		.cfi_offset 6, -16
 1466              		.cfi_offset 7, -12
 1467              		.cfi_offset 8, -8
 1468              		.cfi_offset 14, -4
 171:..\..\..\lvgl\version_6.1.2\lvgl\src\lv_objx/lv_gauge.c ****     LV_ASSERT_OBJ(gauge, LV_OBJX_NAME);
 1469              		.loc 1 171 0
ARM GAS  C:\Users\pearlstl\AppData\Local\Temp\cccjDn63.s 			page 43


 1470 0004 0C46     		mov	r4, r1
 1471 0006 1646     		mov	r6, r2
 1472 0008 0746     		mov	r7, r0
 174:..\..\..\lvgl\version_6.1.2\lvgl\src\lv_objx/lv_gauge.c **** 
 1473              		.loc 1 174 0
 1474 000a FFF7FEFF 		bl	lv_obj_get_ext_attr
 1475              	.LVL185:
 176:..\..\..\lvgl\version_6.1.2\lvgl\src\lv_objx/lv_gauge.c ****     if(ext->values[needle_id] == value) return;
 1476              		.loc 1 176 0
 1477 000e 037D     		ldrb	r3, [r0, #20]	@ zero_extendqisi2
 1478 0010 A342     		cmp	r3, r4
 1479 0012 18D9     		bls	.L98
 177:..\..\..\lvgl\version_6.1.2\lvgl\src\lv_objx/lv_gauge.c **** 
 1480              		.loc 1 177 0
 1481 0014 24B2     		sxth	r4, r4
 1482 0016 C368     		ldr	r3, [r0, #12]
 1483 0018 33F91430 		ldrsh	r3, [r3, r4, lsl #1]
 1484 001c B342     		cmp	r3, r6
 1485 001e 0546     		mov	r5, r0
 1486 0020 11D0     		beq	.L98
 1487              	.LVL186:
 1488              	.LBB137:
 1489              	.LBB138:
 161:..\..\..\lvgl\version_6.1.2\lvgl\src\lv_objx/lv_gauge.h **** }
 1490              		.loc 2 161 0
 1491 0022 3846     		mov	r0, r7
 1492              	.LVL187:
 1493 0024 FFF7FEFF 		bl	lv_lmeter_get_min_value
 1494              	.LVL188:
 1495 0028 8046     		mov	r8, r0
 1496              	.LVL189:
 1497              	.LBE138:
 1498              	.LBE137:
 1499              	.LBB139:
 1500              	.LBB140:
 171:..\..\..\lvgl\version_6.1.2\lvgl\src\lv_objx/lv_gauge.h **** }
 1501              		.loc 2 171 0
 1502 002a 3846     		mov	r0, r7
 1503 002c FFF7FEFF 		bl	lv_lmeter_get_max_value
 1504              	.LVL190:
 1505              	.LBE140:
 1506              	.LBE139:
 182:..\..\..\lvgl\version_6.1.2\lvgl\src\lv_objx/lv_gauge.c ****         value = max;
 1507              		.loc 1 182 0
 1508 0030 8642     		cmp	r6, r0
 1509              	.LBB142:
 1510              	.LBB141:
 171:..\..\..\lvgl\version_6.1.2\lvgl\src\lv_objx/lv_gauge.h **** }
 1511              		.loc 2 171 0
 1512 0032 0346     		mov	r3, r0
 1513              	.LVL191:
 1514              	.LBE141:
 1515              	.LBE142:
 182:..\..\..\lvgl\version_6.1.2\lvgl\src\lv_objx/lv_gauge.c ****         value = max;
 1516              		.loc 1 182 0
 1517 0034 09DD     		ble	.L102
 1518              	.L100:
ARM GAS  C:\Users\pearlstl\AppData\Local\Temp\cccjDn63.s 			page 44


 1519              	.LVL192:
 187:..\..\..\lvgl\version_6.1.2\lvgl\src\lv_objx/lv_gauge.c **** 
 1520              		.loc 1 187 0
 1521 0036 EA68     		ldr	r2, [r5, #12]
 189:..\..\..\lvgl\version_6.1.2\lvgl\src\lv_objx/lv_gauge.c **** }
 1522              		.loc 1 189 0
 1523 0038 3846     		mov	r0, r7
 187:..\..\..\lvgl\version_6.1.2\lvgl\src\lv_objx/lv_gauge.c **** 
 1524              		.loc 1 187 0
 1525 003a 22F81430 		strh	r3, [r2, r4, lsl #1]	@ movhi
 190:..\..\..\lvgl\version_6.1.2\lvgl\src\lv_objx/lv_gauge.c **** 
 1526              		.loc 1 190 0
 1527 003e BDE8F041 		pop	{r4, r5, r6, r7, r8, lr}
 1528              		.cfi_remember_state
 1529              		.cfi_restore 14
 1530              		.cfi_restore 8
 1531              		.cfi_restore 7
 1532              		.cfi_restore 6
 1533              		.cfi_restore 5
 1534              		.cfi_restore 4
 1535              		.cfi_def_cfa_offset 0
 1536              	.LVL193:
 189:..\..\..\lvgl\version_6.1.2\lvgl\src\lv_objx/lv_gauge.c **** }
 1537              		.loc 1 189 0
 1538 0042 FFF7FEBF 		b	lv_obj_invalidate
 1539              	.LVL194:
 1540              	.L98:
 1541              		.cfi_restore_state
 1542 0046 BDE8F081 		pop	{r4, r5, r6, r7, r8, pc}
 1543              	.LVL195:
 1544              	.L102:
 1545 004a 4645     		cmp	r6, r8
 1546 004c B8BF     		it	lt
 1547 004e 4646     		movlt	r6, r8
 1548 0050 33B2     		sxth	r3, r6
 1549 0052 F0E7     		b	.L100
 1550              		.cfi_endproc
 1551              	.LFE49:
 1552              		.size	lv_gauge_set_value, .-lv_gauge_set_value
 1553              		.section	.text.lv_gauge_set_scale,"ax",%progbits
 1554              		.align	2
 1555              		.global	lv_gauge_set_scale
 1556              		.thumb
 1557              		.thumb_func
 1558              		.type	lv_gauge_set_scale, %function
 1559              	lv_gauge_set_scale:
 1560              	.LFB50:
 202:..\..\..\lvgl\version_6.1.2\lvgl\src\lv_objx/lv_gauge.c ****     LV_ASSERT_OBJ(gauge, LV_OBJX_NAME);
 1561              		.loc 1 202 0
 1562              		.cfi_startproc
 1563              		@ args = 0, pretend = 0, frame = 0
 1564              		@ frame_needed = 0, uses_anonymous_args = 0
 1565              	.LVL196:
 1566 0000 38B5     		push	{r3, r4, r5, lr}
 1567              		.cfi_def_cfa_offset 16
 1568              		.cfi_offset 3, -16
 1569              		.cfi_offset 4, -12
ARM GAS  C:\Users\pearlstl\AppData\Local\Temp\cccjDn63.s 			page 45


 1570              		.cfi_offset 5, -8
 1571              		.cfi_offset 14, -4
 202:..\..\..\lvgl\version_6.1.2\lvgl\src\lv_objx/lv_gauge.c ****     LV_ASSERT_OBJ(gauge, LV_OBJX_NAME);
 1572              		.loc 1 202 0
 1573 0002 0446     		mov	r4, r0
 1574 0004 1D46     		mov	r5, r3
 205:..\..\..\lvgl\version_6.1.2\lvgl\src\lv_objx/lv_gauge.c **** 
 1575              		.loc 1 205 0
 1576 0006 FFF7FEFF 		bl	lv_lmeter_set_scale
 1577              	.LVL197:
 207:..\..\..\lvgl\version_6.1.2\lvgl\src\lv_objx/lv_gauge.c ****     ext->label_count     = label_cnt;
 1578              		.loc 1 207 0
 1579 000a 2046     		mov	r0, r4
 1580 000c FFF7FEFF 		bl	lv_obj_get_ext_attr
 1581              	.LVL198:
 208:..\..\..\lvgl\version_6.1.2\lvgl\src\lv_objx/lv_gauge.c ****     lv_obj_invalidate(gauge);
 1582              		.loc 1 208 0
 1583 0010 4575     		strb	r5, [r0, #21]
 209:..\..\..\lvgl\version_6.1.2\lvgl\src\lv_objx/lv_gauge.c **** }
 1584              		.loc 1 209 0
 1585 0012 2046     		mov	r0, r4
 1586              	.LVL199:
 210:..\..\..\lvgl\version_6.1.2\lvgl\src\lv_objx/lv_gauge.c **** 
 1587              		.loc 1 210 0
 1588 0014 BDE83840 		pop	{r3, r4, r5, lr}
 1589              		.cfi_restore 14
 1590              		.cfi_restore 5
 1591              		.cfi_restore 4
 1592              		.cfi_restore 3
 1593              		.cfi_def_cfa_offset 0
 1594              	.LVL200:
 209:..\..\..\lvgl\version_6.1.2\lvgl\src\lv_objx/lv_gauge.c **** }
 1595              		.loc 1 209 0
 1596 0018 FFF7FEBF 		b	lv_obj_invalidate
 1597              	.LVL201:
 1598              		.cfi_endproc
 1599              	.LFE50:
 1600              		.size	lv_gauge_set_scale, .-lv_gauge_set_scale
 1601              		.section	.text.lv_gauge_get_value,"ax",%progbits
 1602              		.align	2
 1603              		.global	lv_gauge_get_value
 1604              		.thumb
 1605              		.thumb_func
 1606              		.type	lv_gauge_get_value, %function
 1607              	lv_gauge_get_value:
 1608              	.LFB51:
 223:..\..\..\lvgl\version_6.1.2\lvgl\src\lv_objx/lv_gauge.c ****     LV_ASSERT_OBJ(gauge, LV_OBJX_NAME);
 1609              		.loc 1 223 0
 1610              		.cfi_startproc
 1611              		@ args = 0, pretend = 0, frame = 0
 1612              		@ frame_needed = 0, uses_anonymous_args = 0
 1613              	.LVL202:
 1614 0000 70B5     		push	{r4, r5, r6, lr}
 1615              		.cfi_def_cfa_offset 16
 1616              		.cfi_offset 4, -16
 1617              		.cfi_offset 5, -12
 1618              		.cfi_offset 6, -8
ARM GAS  C:\Users\pearlstl\AppData\Local\Temp\cccjDn63.s 			page 46


 1619              		.cfi_offset 14, -4
 223:..\..\..\lvgl\version_6.1.2\lvgl\src\lv_objx/lv_gauge.c ****     LV_ASSERT_OBJ(gauge, LV_OBJX_NAME);
 1620              		.loc 1 223 0
 1621 0002 0C46     		mov	r4, r1
 1622 0004 0646     		mov	r6, r0
 226:..\..\..\lvgl\version_6.1.2\lvgl\src\lv_objx/lv_gauge.c ****     int16_t min          = lv_gauge_get_min_value(gauge);
 1623              		.loc 1 226 0
 1624 0006 FFF7FEFF 		bl	lv_obj_get_ext_attr
 1625              	.LVL203:
 1626 000a 0546     		mov	r5, r0
 1627              	.LVL204:
 1628              	.LBB143:
 1629              	.LBB144:
 161:..\..\..\lvgl\version_6.1.2\lvgl\src\lv_objx/lv_gauge.h **** }
 1630              		.loc 2 161 0
 1631 000c 3046     		mov	r0, r6
 1632              	.LVL205:
 1633 000e FFF7FEFF 		bl	lv_lmeter_get_min_value
 1634              	.LVL206:
 1635              	.LBE144:
 1636              	.LBE143:
 229:..\..\..\lvgl\version_6.1.2\lvgl\src\lv_objx/lv_gauge.c **** 
 1637              		.loc 1 229 0
 1638 0012 2B7D     		ldrb	r3, [r5, #20]	@ zero_extendqisi2
 1639 0014 A342     		cmp	r3, r4
 231:..\..\..\lvgl\version_6.1.2\lvgl\src\lv_objx/lv_gauge.c **** }
 1640              		.loc 1 231 0
 1641 0016 84BF     		itt	hi
 1642 0018 EB68     		ldrhi	r3, [r5, #12]
 1643 001a 33F91400 		ldrshhi	r0, [r3, r4, lsl #1]
 232:..\..\..\lvgl\version_6.1.2\lvgl\src\lv_objx/lv_gauge.c **** 
 1644              		.loc 1 232 0
 1645 001e 70BD     		pop	{r4, r5, r6, pc}
 1646              		.cfi_endproc
 1647              	.LFE51:
 1648              		.size	lv_gauge_get_value, .-lv_gauge_get_value
 1649              		.section	.text.lv_gauge_get_needle_count,"ax",%progbits
 1650              		.align	2
 1651              		.global	lv_gauge_get_needle_count
 1652              		.thumb
 1653              		.thumb_func
 1654              		.type	lv_gauge_get_needle_count, %function
 1655              	lv_gauge_get_needle_count:
 1656              	.LFB52:
 240:..\..\..\lvgl\version_6.1.2\lvgl\src\lv_objx/lv_gauge.c ****     LV_ASSERT_OBJ(gauge, LV_OBJX_NAME);
 1657              		.loc 1 240 0
 1658              		.cfi_startproc
 1659              		@ args = 0, pretend = 0, frame = 0
 1660              		@ frame_needed = 0, uses_anonymous_args = 0
 1661              	.LVL207:
 1662 0000 08B5     		push	{r3, lr}
 1663              		.cfi_def_cfa_offset 8
 1664              		.cfi_offset 3, -8
 1665              		.cfi_offset 14, -4
 243:..\..\..\lvgl\version_6.1.2\lvgl\src\lv_objx/lv_gauge.c ****     return ext->needle_count;
 1666              		.loc 1 243 0
 1667 0002 FFF7FEFF 		bl	lv_obj_get_ext_attr
ARM GAS  C:\Users\pearlstl\AppData\Local\Temp\cccjDn63.s 			page 47


 1668              	.LVL208:
 245:..\..\..\lvgl\version_6.1.2\lvgl\src\lv_objx/lv_gauge.c **** 
 1669              		.loc 1 245 0
 1670 0006 007D     		ldrb	r0, [r0, #20]	@ zero_extendqisi2
 1671              	.LVL209:
 1672 0008 08BD     		pop	{r3, pc}
 1673              		.cfi_endproc
 1674              	.LFE52:
 1675              		.size	lv_gauge_get_needle_count, .-lv_gauge_get_needle_count
 1676 000a 00BF     		.section	.text.lv_gauge_get_label_count,"ax",%progbits
 1677              		.align	2
 1678              		.global	lv_gauge_get_label_count
 1679              		.thumb
 1680              		.thumb_func
 1681              		.type	lv_gauge_get_label_count, %function
 1682              	lv_gauge_get_label_count:
 1683              	.LFB53:
 253:..\..\..\lvgl\version_6.1.2\lvgl\src\lv_objx/lv_gauge.c ****     LV_ASSERT_OBJ(gauge, LV_OBJX_NAME);
 1684              		.loc 1 253 0
 1685              		.cfi_startproc
 1686              		@ args = 0, pretend = 0, frame = 0
 1687              		@ frame_needed = 0, uses_anonymous_args = 0
 1688              	.LVL210:
 1689 0000 08B5     		push	{r3, lr}
 1690              		.cfi_def_cfa_offset 8
 1691              		.cfi_offset 3, -8
 1692              		.cfi_offset 14, -4
 256:..\..\..\lvgl\version_6.1.2\lvgl\src\lv_objx/lv_gauge.c ****     return ext->label_count;
 1693              		.loc 1 256 0
 1694 0002 FFF7FEFF 		bl	lv_obj_get_ext_attr
 1695              	.LVL211:
 258:..\..\..\lvgl\version_6.1.2\lvgl\src\lv_objx/lv_gauge.c **** 
 1696              		.loc 1 258 0
 1697 0006 407D     		ldrb	r0, [r0, #21]	@ zero_extendqisi2
 1698              	.LVL212:
 1699 0008 08BD     		pop	{r3, pc}
 1700              		.cfi_endproc
 1701              	.LFE53:
 1702              		.size	lv_gauge_get_label_count, .-lv_gauge_get_label_count
 1703 000a 00BF     		.section	.rodata.str1.4,"aMS",%progbits,1
 1704              		.align	2
 1705              	.LC0:
 1706 0000 6C765F67 		.ascii	"lv_gauge\000"
 1706      61756765 
 1706      00
 1707              		.bss
 1708              		.align	2
 1709              		.set	.LANCHOR0,. + 0
 1710              		.type	ancestor_design, %object
 1711              		.size	ancestor_design, 4
 1712              	ancestor_design:
 1713 0000 00000000 		.space	4
 1714              		.type	ancestor_signal, %object
 1715              		.size	ancestor_signal, 4
 1716              	ancestor_signal:
 1717 0004 00000000 		.space	4
 1718              		.text
ARM GAS  C:\Users\pearlstl\AppData\Local\Temp\cccjDn63.s 			page 48


 1719              	.Letext0:
 1720              		.file 3 "c:\\program files (x86)\\cypress\\psoc creator\\4.2\\psoc creator\\import\\gnu\\arm\\5.4.
 1721              		.file 4 "c:\\program files (x86)\\cypress\\psoc creator\\4.2\\psoc creator\\import\\gnu\\arm\\5.4.
 1722              		.file 5 "..\\..\\..\\lvgl\\version_6.1.2\\lvgl\\src\\lv_objx\\../../../lv_conf.h"
 1723              		.file 6 "..\\..\\..\\lvgl\\version_6.1.2\\lvgl\\src\\lv_objx\\../lv_core/../lv_font/lv_font.h"
 1724              		.file 7 "..\\..\\..\\lvgl\\version_6.1.2\\lvgl\\src\\lv_objx\\../lv_core/../lv_misc/lv_color.h"
 1725              		.file 8 "..\\..\\..\\lvgl\\version_6.1.2\\lvgl\\src\\lv_objx\\../lv_core/../lv_misc/lv_area.h"
 1726              		.file 9 "..\\..\\..\\lvgl\\version_6.1.2\\lvgl\\src\\lv_objx\\../lv_core/lv_style.h"
 1727              		.file 10 "..\\..\\..\\lvgl\\version_6.1.2\\lvgl\\src\\lv_objx\\../lv_core/../lv_misc/lv_types.h"
 1728              		.file 11 "..\\..\\..\\lvgl\\version_6.1.2\\lvgl\\src\\lv_objx\\../lv_core/../lv_misc/lv_ll.h"
 1729              		.file 12 "..\\..\\..\\lvgl\\version_6.1.2\\lvgl\\src\\lv_objx\\../lv_core/../lv_misc/lv_bidi.h"
 1730              		.file 13 "..\\..\\..\\lvgl\\version_6.1.2\\lvgl\\src\\lv_objx\\../lv_core/lv_obj.h"
 1731              		.file 14 "..\\..\\..\\lvgl\\version_6.1.2\\lvgl\\src\\lv_objx\\lv_lmeter.h"
 1732              		.file 15 "..\\..\\..\\lvgl\\version_6.1.2\\lvgl\\src\\lv_objx\\../lv_misc/lv_txt.h"
 1733              		.file 16 "..\\..\\..\\lvgl\\version_6.1.2\\lvgl\\src\\lv_objx\\../lv_themes/lv_theme.h"
 1734              		.file 17 "..\\..\\..\\lvgl\\version_6.1.2\\lvgl\\src\\lv_objx\\../lv_misc/lv_math.h"
 1735              		.file 18 "..\\..\\..\\lvgl\\version_6.1.2\\lvgl\\src\\lv_objx\\../lv_misc/lv_utils.h"
 1736              		.file 19 "..\\..\\..\\lvgl\\version_6.1.2\\lvgl\\src\\lv_objx\\../lv_draw/lv_draw_label.h"
 1737              		.file 20 "..\\..\\..\\lvgl\\version_6.1.2\\lvgl\\src\\lv_objx\\../lv_draw/lv_draw_line.h"
 1738              		.file 21 "..\\..\\..\\lvgl\\version_6.1.2\\lvgl\\src\\lv_objx\\../lv_draw/lv_draw_rect.h"
 1739              		.file 22 "..\\..\\..\\lvgl\\version_6.1.2\\lvgl\\src\\lv_objx\\../lv_core/../lv_misc/lv_mem.h"
 1740              		.section	.debug_info,"",%progbits
 1741              	.Ldebug_info0:
 1742 0000 97260000 		.4byte	0x2697
 1743 0004 0400     		.2byte	0x4
 1744 0006 00000000 		.4byte	.Ldebug_abbrev0
 1745 000a 04       		.byte	0x4
 1746 000b 01       		.uleb128 0x1
 1747 000c E5010000 		.4byte	.LASF298
 1748 0010 0C       		.byte	0xc
 1749 0011 03050000 		.4byte	.LASF299
 1750 0015 850C0000 		.4byte	.LASF300
 1751 0019 08010000 		.4byte	.Ldebug_ranges0+0x108
 1752 001d 00000000 		.4byte	0
 1753 0021 00000000 		.4byte	.Ldebug_line0
 1754 0025 02       		.uleb128 0x2
 1755 0026 790A0000 		.4byte	.LASF0
 1756 002a 03       		.byte	0x3
 1757 002b 1B       		.byte	0x1b
 1758 002c 30000000 		.4byte	0x30
 1759 0030 03       		.uleb128 0x3
 1760 0031 01       		.byte	0x1
 1761 0032 06       		.byte	0x6
 1762 0033 36030000 		.4byte	.LASF2
 1763 0037 02       		.uleb128 0x2
 1764 0038 A3020000 		.4byte	.LASF1
 1765 003c 03       		.byte	0x3
 1766 003d 1D       		.byte	0x1d
 1767 003e 42000000 		.4byte	0x42
 1768 0042 03       		.uleb128 0x3
 1769 0043 01       		.byte	0x1
 1770 0044 08       		.byte	0x8
 1771 0045 A7030000 		.4byte	.LASF3
 1772 0049 02       		.uleb128 0x2
 1773 004a 370B0000 		.4byte	.LASF4
 1774 004e 03       		.byte	0x3
 1775 004f 29       		.byte	0x29
ARM GAS  C:\Users\pearlstl\AppData\Local\Temp\cccjDn63.s 			page 49


 1776 0050 54000000 		.4byte	0x54
 1777 0054 03       		.uleb128 0x3
 1778 0055 02       		.byte	0x2
 1779 0056 05       		.byte	0x5
 1780 0057 4D0C0000 		.4byte	.LASF5
 1781 005b 02       		.uleb128 0x2
 1782 005c 83040000 		.4byte	.LASF6
 1783 0060 03       		.byte	0x3
 1784 0061 2B       		.byte	0x2b
 1785 0062 66000000 		.4byte	0x66
 1786 0066 03       		.uleb128 0x3
 1787 0067 02       		.byte	0x2
 1788 0068 07       		.byte	0x7
 1789 0069 4B0E0000 		.4byte	.LASF7
 1790 006d 02       		.uleb128 0x2
 1791 006e 9B0E0000 		.4byte	.LASF8
 1792 0072 03       		.byte	0x3
 1793 0073 3F       		.byte	0x3f
 1794 0074 78000000 		.4byte	0x78
 1795 0078 03       		.uleb128 0x3
 1796 0079 04       		.byte	0x4
 1797 007a 05       		.byte	0x5
 1798 007b C4020000 		.4byte	.LASF9
 1799 007f 02       		.uleb128 0x2
 1800 0080 84070000 		.4byte	.LASF10
 1801 0084 03       		.byte	0x3
 1802 0085 41       		.byte	0x41
 1803 0086 8A000000 		.4byte	0x8a
 1804 008a 03       		.uleb128 0x3
 1805 008b 04       		.byte	0x4
 1806 008c 07       		.byte	0x7
 1807 008d 73060000 		.4byte	.LASF11
 1808 0091 03       		.uleb128 0x3
 1809 0092 08       		.byte	0x8
 1810 0093 05       		.byte	0x5
 1811 0094 A6070000 		.4byte	.LASF12
 1812 0098 03       		.uleb128 0x3
 1813 0099 08       		.byte	0x8
 1814 009a 07       		.byte	0x7
 1815 009b A30A0000 		.4byte	.LASF13
 1816 009f 04       		.uleb128 0x4
 1817 00a0 04       		.byte	0x4
 1818 00a1 05       		.byte	0x5
 1819 00a2 696E7400 		.ascii	"int\000"
 1820 00a6 03       		.uleb128 0x3
 1821 00a7 04       		.byte	0x4
 1822 00a8 07       		.byte	0x7
 1823 00a9 76080000 		.4byte	.LASF14
 1824 00ad 02       		.uleb128 0x2
 1825 00ae 00000000 		.4byte	.LASF15
 1826 00b2 04       		.byte	0x4
 1827 00b3 14       		.byte	0x14
 1828 00b4 25000000 		.4byte	0x25
 1829 00b8 02       		.uleb128 0x2
 1830 00b9 42030000 		.4byte	.LASF16
 1831 00bd 04       		.byte	0x4
 1832 00be 18       		.byte	0x18
ARM GAS  C:\Users\pearlstl\AppData\Local\Temp\cccjDn63.s 			page 50


 1833 00bf 37000000 		.4byte	0x37
 1834 00c3 02       		.uleb128 0x2
 1835 00c4 7D0C0000 		.4byte	.LASF17
 1836 00c8 04       		.byte	0x4
 1837 00c9 20       		.byte	0x20
 1838 00ca 49000000 		.4byte	0x49
 1839 00ce 02       		.uleb128 0x2
 1840 00cf BA0A0000 		.4byte	.LASF18
 1841 00d3 04       		.byte	0x4
 1842 00d4 24       		.byte	0x24
 1843 00d5 5B000000 		.4byte	0x5b
 1844 00d9 02       		.uleb128 0x2
 1845 00da 9A000000 		.4byte	.LASF19
 1846 00de 04       		.byte	0x4
 1847 00df 2C       		.byte	0x2c
 1848 00e0 6D000000 		.4byte	0x6d
 1849 00e4 02       		.uleb128 0x2
 1850 00e5 010E0000 		.4byte	.LASF20
 1851 00e9 04       		.byte	0x4
 1852 00ea 30       		.byte	0x30
 1853 00eb 7F000000 		.4byte	0x7f
 1854 00ef 02       		.uleb128 0x2
 1855 00f0 6F0E0000 		.4byte	.LASF21
 1856 00f4 05       		.byte	0x5
 1857 00f5 3A       		.byte	0x3a
 1858 00f6 C3000000 		.4byte	0xc3
 1859 00fa 05       		.uleb128 0x5
 1860 00fb 04       		.byte	0x4
 1861 00fc 03       		.uleb128 0x3
 1862 00fd 08       		.byte	0x8
 1863 00fe 04       		.byte	0x4
 1864 00ff 9F090000 		.4byte	.LASF22
 1865 0103 06       		.uleb128 0x6
 1866 0104 08       		.byte	0x8
 1867 0105 06       		.byte	0x6
 1868 0106 2E       		.byte	0x2e
 1869 0107 54010000 		.4byte	0x154
 1870 010b 07       		.uleb128 0x7
 1871 010c 2B000000 		.4byte	.LASF23
 1872 0110 06       		.byte	0x6
 1873 0111 30       		.byte	0x30
 1874 0112 CE000000 		.4byte	0xce
 1875 0116 00       		.byte	0
 1876 0117 07       		.uleb128 0x7
 1877 0118 470C0000 		.4byte	.LASF24
 1878 011c 06       		.byte	0x6
 1879 011d 31       		.byte	0x31
 1880 011e B8000000 		.4byte	0xb8
 1881 0122 02       		.byte	0x2
 1882 0123 07       		.uleb128 0x7
 1883 0124 3C0C0000 		.4byte	.LASF25
 1884 0128 06       		.byte	0x6
 1885 0129 32       		.byte	0x32
 1886 012a B8000000 		.4byte	0xb8
 1887 012e 03       		.byte	0x3
 1888 012f 07       		.uleb128 0x7
 1889 0130 FA030000 		.4byte	.LASF26
ARM GAS  C:\Users\pearlstl\AppData\Local\Temp\cccjDn63.s 			page 51


 1890 0134 06       		.byte	0x6
 1891 0135 33       		.byte	0x33
 1892 0136 AD000000 		.4byte	0xad
 1893 013a 04       		.byte	0x4
 1894 013b 07       		.uleb128 0x7
 1895 013c 00040000 		.4byte	.LASF27
 1896 0140 06       		.byte	0x6
 1897 0141 34       		.byte	0x34
 1898 0142 AD000000 		.4byte	0xad
 1899 0146 05       		.byte	0x5
 1900 0147 08       		.uleb128 0x8
 1901 0148 62707000 		.ascii	"bpp\000"
 1902 014c 06       		.byte	0x6
 1903 014d 35       		.byte	0x35
 1904 014e B8000000 		.4byte	0xb8
 1905 0152 06       		.byte	0x6
 1906 0153 00       		.byte	0
 1907 0154 02       		.uleb128 0x2
 1908 0155 16090000 		.4byte	.LASF28
 1909 0159 06       		.byte	0x6
 1910 015a 36       		.byte	0x36
 1911 015b 03010000 		.4byte	0x103
 1912 015f 09       		.uleb128 0x9
 1913 0160 0D0F0000 		.4byte	.LASF84
 1914 0164 10       		.byte	0x10
 1915 0165 06       		.byte	0x6
 1916 0166 44       		.byte	0x44
 1917 0167 B7010000 		.4byte	0x1b7
 1918 016b 07       		.uleb128 0x7
 1919 016c 8D0E0000 		.4byte	.LASF29
 1920 0170 06       		.byte	0x6
 1921 0171 47       		.byte	0x47
 1922 0172 ED010000 		.4byte	0x1ed
 1923 0176 00       		.byte	0
 1924 0177 07       		.uleb128 0x7
 1925 0178 73030000 		.4byte	.LASF30
 1926 017c 06       		.byte	0x6
 1927 017d 4A       		.byte	0x4a
 1928 017e 12020000 		.4byte	0x212
 1929 0182 04       		.byte	0x4
 1930 0183 07       		.uleb128 0x7
 1931 0184 E5000000 		.4byte	.LASF31
 1932 0188 06       		.byte	0x6
 1933 0189 4D       		.byte	0x4d
 1934 018a B8000000 		.4byte	0xb8
 1935 018e 08       		.byte	0x8
 1936 018f 07       		.uleb128 0x7
 1937 0190 570C0000 		.4byte	.LASF32
 1938 0194 06       		.byte	0x6
 1939 0195 4E       		.byte	0x4e
 1940 0196 AD000000 		.4byte	0xad
 1941 019a 09       		.byte	0x9
 1942 019b 0A       		.uleb128 0xa
 1943 019c E3090000 		.4byte	.LASF67
 1944 01a0 06       		.byte	0x6
 1945 01a1 4F       		.byte	0x4f
 1946 01a2 B8000000 		.4byte	0xb8
ARM GAS  C:\Users\pearlstl\AppData\Local\Temp\cccjDn63.s 			page 52


 1947 01a6 01       		.byte	0x1
 1948 01a7 02       		.byte	0x2
 1949 01a8 06       		.byte	0x6
 1950 01a9 0A       		.byte	0xa
 1951 01aa 08       		.uleb128 0x8
 1952 01ab 64736300 		.ascii	"dsc\000"
 1953 01af 06       		.byte	0x6
 1954 01b0 50       		.byte	0x50
 1955 01b1 FA000000 		.4byte	0xfa
 1956 01b5 0C       		.byte	0xc
 1957 01b6 00       		.byte	0
 1958 01b7 0B       		.uleb128 0xb
 1959 01b8 D5010000 		.4byte	0x1d5
 1960 01bc D5010000 		.4byte	0x1d5
 1961 01c0 0C       		.uleb128 0xc
 1962 01c1 DC010000 		.4byte	0x1dc
 1963 01c5 0C       		.uleb128 0xc
 1964 01c6 E7010000 		.4byte	0x1e7
 1965 01ca 0C       		.uleb128 0xc
 1966 01cb E4000000 		.4byte	0xe4
 1967 01cf 0C       		.uleb128 0xc
 1968 01d0 E4000000 		.4byte	0xe4
 1969 01d4 00       		.byte	0
 1970 01d5 03       		.uleb128 0x3
 1971 01d6 01       		.byte	0x1
 1972 01d7 02       		.byte	0x2
 1973 01d8 26040000 		.4byte	.LASF33
 1974 01dc 0D       		.uleb128 0xd
 1975 01dd 04       		.byte	0x4
 1976 01de E2010000 		.4byte	0x1e2
 1977 01e2 0E       		.uleb128 0xe
 1978 01e3 5F010000 		.4byte	0x15f
 1979 01e7 0D       		.uleb128 0xd
 1980 01e8 04       		.byte	0x4
 1981 01e9 54010000 		.4byte	0x154
 1982 01ed 0D       		.uleb128 0xd
 1983 01ee 04       		.byte	0x4
 1984 01ef B7010000 		.4byte	0x1b7
 1985 01f3 0B       		.uleb128 0xb
 1986 01f4 07020000 		.4byte	0x207
 1987 01f8 07020000 		.4byte	0x207
 1988 01fc 0C       		.uleb128 0xc
 1989 01fd DC010000 		.4byte	0x1dc
 1990 0201 0C       		.uleb128 0xc
 1991 0202 E4000000 		.4byte	0xe4
 1992 0206 00       		.byte	0
 1993 0207 0D       		.uleb128 0xd
 1994 0208 04       		.byte	0x4
 1995 0209 0D020000 		.4byte	0x20d
 1996 020d 0E       		.uleb128 0xe
 1997 020e B8000000 		.4byte	0xb8
 1998 0212 0D       		.uleb128 0xd
 1999 0213 04       		.byte	0x4
 2000 0214 F3010000 		.4byte	0x1f3
 2001 0218 02       		.uleb128 0x2
 2002 0219 380E0000 		.4byte	.LASF34
 2003 021d 06       		.byte	0x6
ARM GAS  C:\Users\pearlstl\AppData\Local\Temp\cccjDn63.s 			page 53


 2004 021e 56       		.byte	0x56
 2005 021f 5F010000 		.4byte	0x15f
 2006 0223 06       		.uleb128 0x6
 2007 0224 04       		.byte	0x4
 2008 0225 07       		.byte	0x7
 2009 0226 F3       		.byte	0xf3
 2010 0227 5C020000 		.4byte	0x25c
 2011 022b 07       		.uleb128 0x7
 2012 022c 89030000 		.4byte	.LASF35
 2013 0230 07       		.byte	0x7
 2014 0231 F5       		.byte	0xf5
 2015 0232 B8000000 		.4byte	0xb8
 2016 0236 00       		.byte	0
 2017 0237 07       		.uleb128 0x7
 2018 0238 320E0000 		.4byte	.LASF36
 2019 023c 07       		.byte	0x7
 2020 023d F6       		.byte	0xf6
 2021 023e B8000000 		.4byte	0xb8
 2022 0242 01       		.byte	0x1
 2023 0243 08       		.uleb128 0x8
 2024 0244 72656400 		.ascii	"red\000"
 2025 0248 07       		.byte	0x7
 2026 0249 F7       		.byte	0xf7
 2027 024a B8000000 		.4byte	0xb8
 2028 024e 02       		.byte	0x2
 2029 024f 07       		.uleb128 0x7
 2030 0250 B7020000 		.4byte	.LASF37
 2031 0254 07       		.byte	0x7
 2032 0255 F8       		.byte	0xf8
 2033 0256 B8000000 		.4byte	0xb8
 2034 025a 03       		.byte	0x3
 2035 025b 00       		.byte	0
 2036 025c 0F       		.uleb128 0xf
 2037 025d 04       		.byte	0x4
 2038 025e 07       		.byte	0x7
 2039 025f F1       		.byte	0xf1
 2040 0260 7A020000 		.4byte	0x27a
 2041 0264 10       		.uleb128 0x10
 2042 0265 636800   		.ascii	"ch\000"
 2043 0268 07       		.byte	0x7
 2044 0269 F9       		.byte	0xf9
 2045 026a 23020000 		.4byte	0x223
 2046 026e 11       		.uleb128 0x11
 2047 026f 6E0B0000 		.4byte	.LASF38
 2048 0273 07       		.byte	0x7
 2049 0274 FA       		.byte	0xfa
 2050 0275 E4000000 		.4byte	0xe4
 2051 0279 00       		.byte	0
 2052 027a 02       		.uleb128 0x2
 2053 027b 44000000 		.4byte	.LASF39
 2054 027f 07       		.byte	0x7
 2055 0280 FB       		.byte	0xfb
 2056 0281 5C020000 		.4byte	0x25c
 2057 0285 12       		.uleb128 0x12
 2058 0286 DD0A0000 		.4byte	.LASF40
 2059 028a 07       		.byte	0x7
 2060 028b 0801     		.2byte	0x108
ARM GAS  C:\Users\pearlstl\AppData\Local\Temp\cccjDn63.s 			page 54


 2061 028d 7A020000 		.4byte	0x27a
 2062 0291 12       		.uleb128 0x12
 2063 0292 91000000 		.4byte	.LASF41
 2064 0296 07       		.byte	0x7
 2065 0297 0D01     		.2byte	0x10d
 2066 0299 B8000000 		.4byte	0xb8
 2067 029d 03       		.uleb128 0x3
 2068 029e 04       		.byte	0x4
 2069 029f 07       		.byte	0x7
 2070 02a0 3B000000 		.4byte	.LASF42
 2071 02a4 03       		.uleb128 0x3
 2072 02a5 01       		.byte	0x1
 2073 02a6 08       		.byte	0x8
 2074 02a7 47040000 		.4byte	.LASF43
 2075 02ab 06       		.uleb128 0x6
 2076 02ac 04       		.byte	0x4
 2077 02ad 08       		.byte	0x8
 2078 02ae 2A       		.byte	0x2a
 2079 02af C8020000 		.4byte	0x2c8
 2080 02b3 08       		.uleb128 0x8
 2081 02b4 7800     		.ascii	"x\000"
 2082 02b6 08       		.byte	0x8
 2083 02b7 2C       		.byte	0x2c
 2084 02b8 EF000000 		.4byte	0xef
 2085 02bc 00       		.byte	0
 2086 02bd 08       		.uleb128 0x8
 2087 02be 7900     		.ascii	"y\000"
 2088 02c0 08       		.byte	0x8
 2089 02c1 2D       		.byte	0x2d
 2090 02c2 EF000000 		.4byte	0xef
 2091 02c6 02       		.byte	0x2
 2092 02c7 00       		.byte	0
 2093 02c8 02       		.uleb128 0x2
 2094 02c9 AA000000 		.4byte	.LASF44
 2095 02cd 08       		.byte	0x8
 2096 02ce 2E       		.byte	0x2e
 2097 02cf AB020000 		.4byte	0x2ab
 2098 02d3 06       		.uleb128 0x6
 2099 02d4 08       		.byte	0x8
 2100 02d5 08       		.byte	0x8
 2101 02d6 31       		.byte	0x31
 2102 02d7 08030000 		.4byte	0x308
 2103 02db 08       		.uleb128 0x8
 2104 02dc 783100   		.ascii	"x1\000"
 2105 02df 08       		.byte	0x8
 2106 02e0 33       		.byte	0x33
 2107 02e1 EF000000 		.4byte	0xef
 2108 02e5 00       		.byte	0
 2109 02e6 08       		.uleb128 0x8
 2110 02e7 793100   		.ascii	"y1\000"
 2111 02ea 08       		.byte	0x8
 2112 02eb 34       		.byte	0x34
 2113 02ec EF000000 		.4byte	0xef
 2114 02f0 02       		.byte	0x2
 2115 02f1 08       		.uleb128 0x8
 2116 02f2 783200   		.ascii	"x2\000"
 2117 02f5 08       		.byte	0x8
ARM GAS  C:\Users\pearlstl\AppData\Local\Temp\cccjDn63.s 			page 55


 2118 02f6 35       		.byte	0x35
 2119 02f7 EF000000 		.4byte	0xef
 2120 02fb 04       		.byte	0x4
 2121 02fc 08       		.uleb128 0x8
 2122 02fd 793200   		.ascii	"y2\000"
 2123 0300 08       		.byte	0x8
 2124 0301 36       		.byte	0x36
 2125 0302 EF000000 		.4byte	0xef
 2126 0306 06       		.byte	0x6
 2127 0307 00       		.byte	0
 2128 0308 02       		.uleb128 0x2
 2129 0309 A6050000 		.4byte	.LASF45
 2130 030d 08       		.byte	0x8
 2131 030e 37       		.byte	0x37
 2132 030f D3020000 		.4byte	0x2d3
 2133 0313 02       		.uleb128 0x2
 2134 0314 B90E0000 		.4byte	.LASF46
 2135 0318 09       		.byte	0x9
 2136 0319 2C       		.byte	0x2c
 2137 031a B8000000 		.4byte	0xb8
 2138 031e 02       		.uleb128 0x2
 2139 031f C20B0000 		.4byte	.LASF47
 2140 0323 09       		.byte	0x9
 2141 0324 33       		.byte	0x33
 2142 0325 B8000000 		.4byte	0xb8
 2143 0329 06       		.uleb128 0x6
 2144 032a 08       		.byte	0x8
 2145 032b 09       		.byte	0x9
 2146 032c 48       		.byte	0x48
 2147 032d 62030000 		.4byte	0x362
 2148 0331 07       		.uleb128 0x7
 2149 0332 730B0000 		.4byte	.LASF48
 2150 0336 09       		.byte	0x9
 2151 0337 4A       		.byte	0x4a
 2152 0338 85020000 		.4byte	0x285
 2153 033c 00       		.byte	0
 2154 033d 07       		.uleb128 0x7
 2155 033e B4070000 		.4byte	.LASF49
 2156 0342 09       		.byte	0x9
 2157 0343 4B       		.byte	0x4b
 2158 0344 EF000000 		.4byte	0xef
 2159 0348 04       		.byte	0x4
 2160 0349 07       		.uleb128 0x7
 2161 034a 350F0000 		.4byte	.LASF50
 2162 034e 09       		.byte	0x9
 2163 034f 4C       		.byte	0x4c
 2164 0350 13030000 		.4byte	0x313
 2165 0354 06       		.byte	0x6
 2166 0355 08       		.uleb128 0x8
 2167 0356 6F706100 		.ascii	"opa\000"
 2168 035a 09       		.byte	0x9
 2169 035b 4D       		.byte	0x4d
 2170 035c 91020000 		.4byte	0x291
 2171 0360 07       		.byte	0x7
 2172 0361 00       		.byte	0
 2173 0362 06       		.uleb128 0x6
 2174 0363 08       		.byte	0x8
ARM GAS  C:\Users\pearlstl\AppData\Local\Temp\cccjDn63.s 			page 56


 2175 0364 09       		.byte	0x9
 2176 0365 51       		.byte	0x51
 2177 0366 8F030000 		.4byte	0x38f
 2178 036a 07       		.uleb128 0x7
 2179 036b 730B0000 		.4byte	.LASF48
 2180 036f 09       		.byte	0x9
 2181 0370 53       		.byte	0x53
 2182 0371 85020000 		.4byte	0x285
 2183 0375 00       		.byte	0
 2184 0376 07       		.uleb128 0x7
 2185 0377 B4070000 		.4byte	.LASF49
 2186 037b 09       		.byte	0x9
 2187 037c 54       		.byte	0x54
 2188 037d EF000000 		.4byte	0xef
 2189 0381 04       		.byte	0x4
 2190 0382 07       		.uleb128 0x7
 2191 0383 D5010000 		.4byte	.LASF51
 2192 0387 09       		.byte	0x9
 2193 0388 55       		.byte	0x55
 2194 0389 1E030000 		.4byte	0x31e
 2195 038d 06       		.byte	0x6
 2196 038e 00       		.byte	0
 2197 038f 06       		.uleb128 0x6
 2198 0390 0A       		.byte	0xa
 2199 0391 09       		.byte	0x9
 2200 0392 58       		.byte	0x58
 2201 0393 D4030000 		.4byte	0x3d4
 2202 0397 08       		.uleb128 0x8
 2203 0398 746F7000 		.ascii	"top\000"
 2204 039c 09       		.byte	0x9
 2205 039d 5A       		.byte	0x5a
 2206 039e EF000000 		.4byte	0xef
 2207 03a2 00       		.byte	0
 2208 03a3 07       		.uleb128 0x7
 2209 03a4 CC070000 		.4byte	.LASF52
 2210 03a8 09       		.byte	0x9
 2211 03a9 5B       		.byte	0x5b
 2212 03aa EF000000 		.4byte	0xef
 2213 03ae 02       		.byte	0x2
 2214 03af 07       		.uleb128 0x7
 2215 03b0 D3050000 		.4byte	.LASF53
 2216 03b4 09       		.byte	0x9
 2217 03b5 5C       		.byte	0x5c
 2218 03b6 EF000000 		.4byte	0xef
 2219 03ba 04       		.byte	0x4
 2220 03bb 07       		.uleb128 0x7
 2221 03bc 98070000 		.4byte	.LASF54
 2222 03c0 09       		.byte	0x9
 2223 03c1 5D       		.byte	0x5d
 2224 03c2 EF000000 		.4byte	0xef
 2225 03c6 06       		.byte	0x6
 2226 03c7 07       		.uleb128 0x7
 2227 03c8 6D060000 		.4byte	.LASF55
 2228 03cc 09       		.byte	0x9
 2229 03cd 5E       		.byte	0x5e
 2230 03ce EF000000 		.4byte	0xef
 2231 03d2 08       		.byte	0x8
ARM GAS  C:\Users\pearlstl\AppData\Local\Temp\cccjDn63.s 			page 57


 2232 03d3 00       		.byte	0
 2233 03d4 06       		.uleb128 0x6
 2234 03d5 28       		.byte	0x28
 2235 03d6 09       		.byte	0x9
 2236 03d7 41       		.byte	0x41
 2237 03d8 31040000 		.4byte	0x431
 2238 03dc 07       		.uleb128 0x7
 2239 03dd 6E0A0000 		.4byte	.LASF56
 2240 03e1 09       		.byte	0x9
 2241 03e2 43       		.byte	0x43
 2242 03e3 85020000 		.4byte	0x285
 2243 03e7 00       		.byte	0
 2244 03e8 07       		.uleb128 0x7
 2245 03e9 2F090000 		.4byte	.LASF57
 2246 03ed 09       		.byte	0x9
 2247 03ee 44       		.byte	0x44
 2248 03ef 85020000 		.4byte	0x285
 2249 03f3 04       		.byte	0x4
 2250 03f4 07       		.uleb128 0x7
 2251 03f5 D1000000 		.4byte	.LASF58
 2252 03f9 09       		.byte	0x9
 2253 03fa 45       		.byte	0x45
 2254 03fb EF000000 		.4byte	0xef
 2255 03ff 08       		.byte	0x8
 2256 0400 08       		.uleb128 0x8
 2257 0401 6F706100 		.ascii	"opa\000"
 2258 0405 09       		.byte	0x9
 2259 0406 46       		.byte	0x46
 2260 0407 91020000 		.4byte	0x291
 2261 040b 0A       		.byte	0xa
 2262 040c 07       		.uleb128 0x7
 2263 040d 800E0000 		.4byte	.LASF59
 2264 0411 09       		.byte	0x9
 2265 0412 4E       		.byte	0x4e
 2266 0413 29030000 		.4byte	0x329
 2267 0417 0C       		.byte	0xc
 2268 0418 07       		.uleb128 0x7
 2269 0419 7D0D0000 		.4byte	.LASF60
 2270 041d 09       		.byte	0x9
 2271 041e 56       		.byte	0x56
 2272 041f 62030000 		.4byte	0x362
 2273 0423 14       		.byte	0x14
 2274 0424 07       		.uleb128 0x7
 2275 0425 E00D0000 		.4byte	.LASF61
 2276 0429 09       		.byte	0x9
 2277 042a 5F       		.byte	0x5f
 2278 042b 8F030000 		.4byte	0x38f
 2279 042f 1C       		.byte	0x1c
 2280 0430 00       		.byte	0
 2281 0431 06       		.uleb128 0x6
 2282 0432 14       		.byte	0x14
 2283 0433 09       		.byte	0x9
 2284 0434 63       		.byte	0x63
 2285 0435 82040000 		.4byte	0x482
 2286 0439 07       		.uleb128 0x7
 2287 043a 730B0000 		.4byte	.LASF48
 2288 043e 09       		.byte	0x9
ARM GAS  C:\Users\pearlstl\AppData\Local\Temp\cccjDn63.s 			page 58


 2289 043f 65       		.byte	0x65
 2290 0440 85020000 		.4byte	0x285
 2291 0444 00       		.byte	0
 2292 0445 07       		.uleb128 0x7
 2293 0446 F10E0000 		.4byte	.LASF62
 2294 044a 09       		.byte	0x9
 2295 044b 66       		.byte	0x66
 2296 044c 85020000 		.4byte	0x285
 2297 0450 04       		.byte	0x4
 2298 0451 07       		.uleb128 0x7
 2299 0452 050C0000 		.4byte	.LASF63
 2300 0456 09       		.byte	0x9
 2301 0457 67       		.byte	0x67
 2302 0458 82040000 		.4byte	0x482
 2303 045c 08       		.byte	0x8
 2304 045d 07       		.uleb128 0x7
 2305 045e 0A0C0000 		.4byte	.LASF64
 2306 0462 09       		.byte	0x9
 2307 0463 68       		.byte	0x68
 2308 0464 EF000000 		.4byte	0xef
 2309 0468 0C       		.byte	0xc
 2310 0469 07       		.uleb128 0x7
 2311 046a 8B0B0000 		.4byte	.LASF65
 2312 046e 09       		.byte	0x9
 2313 046f 69       		.byte	0x69
 2314 0470 EF000000 		.4byte	0xef
 2315 0474 0E       		.byte	0xe
 2316 0475 08       		.uleb128 0x8
 2317 0476 6F706100 		.ascii	"opa\000"
 2318 047a 09       		.byte	0x9
 2319 047b 6A       		.byte	0x6a
 2320 047c 91020000 		.4byte	0x291
 2321 0480 10       		.byte	0x10
 2322 0481 00       		.byte	0
 2323 0482 0D       		.uleb128 0xd
 2324 0483 04       		.byte	0x4
 2325 0484 88040000 		.4byte	0x488
 2326 0488 0E       		.uleb128 0xe
 2327 0489 18020000 		.4byte	0x218
 2328 048d 06       		.uleb128 0x6
 2329 048e 08       		.byte	0x8
 2330 048f 09       		.byte	0x9
 2331 0490 6E       		.byte	0x6e
 2332 0491 BA040000 		.4byte	0x4ba
 2333 0495 07       		.uleb128 0x7
 2334 0496 730B0000 		.4byte	.LASF48
 2335 049a 09       		.byte	0x9
 2336 049b 70       		.byte	0x70
 2337 049c 85020000 		.4byte	0x285
 2338 04a0 00       		.byte	0
 2339 04a1 07       		.uleb128 0x7
 2340 04a2 A2000000 		.4byte	.LASF66
 2341 04a6 09       		.byte	0x9
 2342 04a7 71       		.byte	0x71
 2343 04a8 91020000 		.4byte	0x291
 2344 04ac 04       		.byte	0x4
 2345 04ad 08       		.uleb128 0x8
ARM GAS  C:\Users\pearlstl\AppData\Local\Temp\cccjDn63.s 			page 59


 2346 04ae 6F706100 		.ascii	"opa\000"
 2347 04b2 09       		.byte	0x9
 2348 04b3 72       		.byte	0x72
 2349 04b4 91020000 		.4byte	0x291
 2350 04b8 05       		.byte	0x5
 2351 04b9 00       		.byte	0
 2352 04ba 06       		.uleb128 0x6
 2353 04bb 08       		.byte	0x8
 2354 04bc 09       		.byte	0x9
 2355 04bd 76       		.byte	0x76
 2356 04be F6040000 		.4byte	0x4f6
 2357 04c2 07       		.uleb128 0x7
 2358 04c3 730B0000 		.4byte	.LASF48
 2359 04c7 09       		.byte	0x9
 2360 04c8 78       		.byte	0x78
 2361 04c9 85020000 		.4byte	0x285
 2362 04cd 00       		.byte	0
 2363 04ce 07       		.uleb128 0x7
 2364 04cf B4070000 		.4byte	.LASF49
 2365 04d3 09       		.byte	0x9
 2366 04d4 79       		.byte	0x79
 2367 04d5 EF000000 		.4byte	0xef
 2368 04d9 04       		.byte	0x4
 2369 04da 08       		.uleb128 0x8
 2370 04db 6F706100 		.ascii	"opa\000"
 2371 04df 09       		.byte	0x9
 2372 04e0 7A       		.byte	0x7a
 2373 04e1 91020000 		.4byte	0x291
 2374 04e5 06       		.byte	0x6
 2375 04e6 0A       		.uleb128 0xa
 2376 04e7 59050000 		.4byte	.LASF68
 2377 04eb 09       		.byte	0x9
 2378 04ec 7B       		.byte	0x7b
 2379 04ed B8000000 		.4byte	0xb8
 2380 04f1 01       		.byte	0x1
 2381 04f2 01       		.byte	0x1
 2382 04f3 07       		.byte	0x7
 2383 04f4 07       		.byte	0x7
 2384 04f5 00       		.byte	0
 2385 04f6 06       		.uleb128 0x6
 2386 04f7 50       		.byte	0x50
 2387 04f8 09       		.byte	0x9
 2388 04f9 3C       		.byte	0x3c
 2389 04fa 3E050000 		.4byte	0x53e
 2390 04fe 0A       		.uleb128 0xa
 2391 04ff 5C080000 		.4byte	.LASF69
 2392 0503 09       		.byte	0x9
 2393 0504 3E       		.byte	0x3e
 2394 0505 B8000000 		.4byte	0xb8
 2395 0509 01       		.byte	0x1
 2396 050a 01       		.byte	0x1
 2397 050b 07       		.byte	0x7
 2398 050c 00       		.byte	0
 2399 050d 07       		.uleb128 0x7
 2400 050e 60040000 		.4byte	.LASF70
 2401 0512 09       		.byte	0x9
 2402 0513 60       		.byte	0x60
ARM GAS  C:\Users\pearlstl\AppData\Local\Temp\cccjDn63.s 			page 60


 2403 0514 D4030000 		.4byte	0x3d4
 2404 0518 04       		.byte	0x4
 2405 0519 07       		.uleb128 0x7
 2406 051a FE040000 		.4byte	.LASF71
 2407 051e 09       		.byte	0x9
 2408 051f 6B       		.byte	0x6b
 2409 0520 31040000 		.4byte	0x431
 2410 0524 2C       		.byte	0x2c
 2411 0525 07       		.uleb128 0x7
 2412 0526 53050000 		.4byte	.LASF72
 2413 052a 09       		.byte	0x9
 2414 052b 73       		.byte	0x73
 2415 052c 8D040000 		.4byte	0x48d
 2416 0530 40       		.byte	0x40
 2417 0531 07       		.uleb128 0x7
 2418 0532 90060000 		.4byte	.LASF73
 2419 0536 09       		.byte	0x9
 2420 0537 7C       		.byte	0x7c
 2421 0538 BA040000 		.4byte	0x4ba
 2422 053c 48       		.byte	0x48
 2423 053d 00       		.byte	0
 2424 053e 02       		.uleb128 0x2
 2425 053f 62060000 		.4byte	.LASF74
 2426 0543 09       		.byte	0x9
 2427 0544 84       		.byte	0x84
 2428 0545 F6040000 		.4byte	0x4f6
 2429 0549 0D       		.uleb128 0xd
 2430 054a 04       		.byte	0x4
 2431 054b 3E050000 		.4byte	0x53e
 2432 054f 13       		.uleb128 0x13
 2433 0550 01       		.byte	0x1
 2434 0551 42000000 		.4byte	0x42
 2435 0555 0A       		.byte	0xa
 2436 0556 27       		.byte	0x27
 2437 0557 68050000 		.4byte	0x568
 2438 055b 14       		.uleb128 0x14
 2439 055c 9A010000 		.4byte	.LASF75
 2440 0560 00       		.byte	0
 2441 0561 14       		.uleb128 0x14
 2442 0562 C30A0000 		.4byte	.LASF76
 2443 0566 01       		.byte	0x1
 2444 0567 00       		.byte	0
 2445 0568 02       		.uleb128 0x2
 2446 0569 8C090000 		.4byte	.LASF77
 2447 056d 0A       		.byte	0xa
 2448 056e 2C       		.byte	0x2c
 2449 056f B8000000 		.4byte	0xb8
 2450 0573 02       		.uleb128 0x2
 2451 0574 1E000000 		.4byte	.LASF78
 2452 0578 0B       		.byte	0xb
 2453 0579 1E       		.byte	0x1e
 2454 057a B8000000 		.4byte	0xb8
 2455 057e 06       		.uleb128 0x6
 2456 057f 0C       		.byte	0xc
 2457 0580 0B       		.byte	0xb
 2458 0581 21       		.byte	0x21
 2459 0582 AB050000 		.4byte	0x5ab
ARM GAS  C:\Users\pearlstl\AppData\Local\Temp\cccjDn63.s 			page 61


 2460 0586 07       		.uleb128 0x7
 2461 0587 3A0F0000 		.4byte	.LASF79
 2462 058b 0B       		.byte	0xb
 2463 058c 23       		.byte	0x23
 2464 058d E4000000 		.4byte	0xe4
 2465 0591 00       		.byte	0
 2466 0592 07       		.uleb128 0x7
 2467 0593 0D030000 		.4byte	.LASF80
 2468 0597 0B       		.byte	0xb
 2469 0598 24       		.byte	0x24
 2470 0599 AB050000 		.4byte	0x5ab
 2471 059d 04       		.byte	0x4
 2472 059e 07       		.uleb128 0x7
 2473 059f 56000000 		.4byte	.LASF81
 2474 05a3 0B       		.byte	0xb
 2475 05a4 25       		.byte	0x25
 2476 05a5 AB050000 		.4byte	0x5ab
 2477 05a9 08       		.byte	0x8
 2478 05aa 00       		.byte	0
 2479 05ab 0D       		.uleb128 0xd
 2480 05ac 04       		.byte	0x4
 2481 05ad 73050000 		.4byte	0x573
 2482 05b1 02       		.uleb128 0x2
 2483 05b2 610C0000 		.4byte	.LASF82
 2484 05b6 0B       		.byte	0xb
 2485 05b7 26       		.byte	0x26
 2486 05b8 7E050000 		.4byte	0x57e
 2487 05bc 02       		.uleb128 0x2
 2488 05bd 8B050000 		.4byte	.LASF83
 2489 05c1 0C       		.byte	0xc
 2490 05c2 30       		.byte	0x30
 2491 05c3 B8000000 		.4byte	0xb8
 2492 05c7 0D       		.uleb128 0xd
 2493 05c8 04       		.byte	0x4
 2494 05c9 CD050000 		.4byte	0x5cd
 2495 05cd 0E       		.uleb128 0xe
 2496 05ce 08030000 		.4byte	0x308
 2497 05d2 09       		.uleb128 0x9
 2498 05d3 FB0B0000 		.4byte	.LASF85
 2499 05d7 40       		.byte	0x40
 2500 05d8 0D       		.byte	0xd
 2501 05d9 BB       		.byte	0xbb
 2502 05da 14070000 		.4byte	0x714
 2503 05de 08       		.uleb128 0x8
 2504 05df 70617200 		.ascii	"par\000"
 2505 05e3 0D       		.byte	0xd
 2506 05e4 BD       		.byte	0xbd
 2507 05e5 14070000 		.4byte	0x714
 2508 05e9 00       		.byte	0
 2509 05ea 07       		.uleb128 0x7
 2510 05eb D3070000 		.4byte	.LASF86
 2511 05ef 0D       		.byte	0xd
 2512 05f0 BE       		.byte	0xbe
 2513 05f1 B1050000 		.4byte	0x5b1
 2514 05f5 04       		.byte	0x4
 2515 05f6 07       		.uleb128 0x7
 2516 05f7 1B0D0000 		.4byte	.LASF87
ARM GAS  C:\Users\pearlstl\AppData\Local\Temp\cccjDn63.s 			page 62


 2517 05fb 0D       		.byte	0xd
 2518 05fc C0       		.byte	0xc0
 2519 05fd 08030000 		.4byte	0x308
 2520 0601 10       		.byte	0x10
 2521 0602 07       		.uleb128 0x7
 2522 0603 8F070000 		.4byte	.LASF88
 2523 0607 0D       		.byte	0xd
 2524 0608 C2       		.byte	0xc2
 2525 0609 79070000 		.4byte	0x779
 2526 060d 18       		.byte	0x18
 2527 060e 07       		.uleb128 0x7
 2528 060f E80D0000 		.4byte	.LASF89
 2529 0613 0D       		.byte	0xd
 2530 0614 C3       		.byte	0xc3
 2531 0615 2A080000 		.4byte	0x82a
 2532 0619 1C       		.byte	0x1c
 2533 061a 07       		.uleb128 0x7
 2534 061b BF040000 		.4byte	.LASF90
 2535 061f 0D       		.byte	0xd
 2536 0620 C4       		.byte	0xc4
 2537 0621 44070000 		.4byte	0x744
 2538 0625 20       		.byte	0x20
 2539 0626 07       		.uleb128 0x7
 2540 0627 C9090000 		.4byte	.LASF91
 2541 062b 0D       		.byte	0xd
 2542 062c C6       		.byte	0xc6
 2543 062d FA000000 		.4byte	0xfa
 2544 0631 24       		.byte	0x24
 2545 0632 07       		.uleb128 0x7
 2546 0633 9E070000 		.4byte	.LASF92
 2547 0637 0D       		.byte	0xd
 2548 0638 C7       		.byte	0xc7
 2549 0639 D7080000 		.4byte	0x8d7
 2550 063d 28       		.byte	0x28
 2551 063e 0A       		.uleb128 0xa
 2552 063f F1000000 		.4byte	.LASF93
 2553 0643 0D       		.byte	0xd
 2554 0644 D7       		.byte	0xd7
 2555 0645 B8000000 		.4byte	0xb8
 2556 0649 01       		.byte	0x1
 2557 064a 01       		.byte	0x1
 2558 064b 07       		.byte	0x7
 2559 064c 2C       		.byte	0x2c
 2560 064d 0A       		.uleb128 0xa
 2561 064e D30B0000 		.4byte	.LASF94
 2562 0652 0D       		.byte	0xd
 2563 0653 D8       		.byte	0xd8
 2564 0654 B8000000 		.4byte	0xb8
 2565 0658 01       		.byte	0x1
 2566 0659 01       		.byte	0x1
 2567 065a 06       		.byte	0x6
 2568 065b 2C       		.byte	0x2c
 2569 065c 0A       		.uleb128 0xa
 2570 065d 61050000 		.4byte	.LASF95
 2571 0661 0D       		.byte	0xd
 2572 0662 D9       		.byte	0xd9
 2573 0663 B8000000 		.4byte	0xb8
ARM GAS  C:\Users\pearlstl\AppData\Local\Temp\cccjDn63.s 			page 63


 2574 0667 01       		.byte	0x1
 2575 0668 01       		.byte	0x1
 2576 0669 05       		.byte	0x5
 2577 066a 2C       		.byte	0x2c
 2578 066b 0A       		.uleb128 0xa
 2579 066c 910D0000 		.4byte	.LASF96
 2580 0670 0D       		.byte	0xd
 2581 0671 DA       		.byte	0xda
 2582 0672 B8000000 		.4byte	0xb8
 2583 0676 01       		.byte	0x1
 2584 0677 01       		.byte	0x1
 2585 0678 04       		.byte	0x4
 2586 0679 2C       		.byte	0x2c
 2587 067a 0A       		.uleb128 0xa
 2588 067b BD020000 		.4byte	.LASF97
 2589 067f 0D       		.byte	0xd
 2590 0680 DB       		.byte	0xdb
 2591 0681 B8000000 		.4byte	0xb8
 2592 0685 01       		.byte	0x1
 2593 0686 01       		.byte	0x1
 2594 0687 03       		.byte	0x3
 2595 0688 2C       		.byte	0x2c
 2596 0689 15       		.uleb128 0x15
 2597 068a 746F7000 		.ascii	"top\000"
 2598 068e 0D       		.byte	0xd
 2599 068f DC       		.byte	0xdc
 2600 0690 B8000000 		.4byte	0xb8
 2601 0694 01       		.byte	0x1
 2602 0695 01       		.byte	0x1
 2603 0696 02       		.byte	0x2
 2604 0697 2C       		.byte	0x2c
 2605 0698 0A       		.uleb128 0xa
 2606 0699 510D0000 		.4byte	.LASF98
 2607 069d 0D       		.byte	0xd
 2608 069e DD       		.byte	0xdd
 2609 069f B8000000 		.4byte	0xb8
 2610 06a3 01       		.byte	0x1
 2611 06a4 01       		.byte	0x1
 2612 06a5 01       		.byte	0x1
 2613 06a6 2C       		.byte	0x2c
 2614 06a7 0A       		.uleb128 0xa
 2615 06a8 22080000 		.4byte	.LASF99
 2616 06ac 0D       		.byte	0xd
 2617 06ad DE       		.byte	0xde
 2618 06ae B8000000 		.4byte	0xb8
 2619 06b2 01       		.byte	0x1
 2620 06b3 01       		.byte	0x1
 2621 06b4 00       		.byte	0
 2622 06b5 2C       		.byte	0x2c
 2623 06b6 0A       		.uleb128 0xa
 2624 06b7 E9030000 		.4byte	.LASF100
 2625 06bb 0D       		.byte	0xd
 2626 06bc DF       		.byte	0xdf
 2627 06bd CC080000 		.4byte	0x8cc
 2628 06c1 01       		.byte	0x1
 2629 06c2 02       		.byte	0x2
 2630 06c3 06       		.byte	0x6
ARM GAS  C:\Users\pearlstl\AppData\Local\Temp\cccjDn63.s 			page 64


 2631 06c4 2D       		.byte	0x2d
 2632 06c5 0A       		.uleb128 0xa
 2633 06c6 330C0000 		.4byte	.LASF101
 2634 06ca 0D       		.byte	0xd
 2635 06cb E0       		.byte	0xe0
 2636 06cc BC050000 		.4byte	0x5bc
 2637 06d0 01       		.byte	0x1
 2638 06d1 02       		.byte	0x2
 2639 06d2 04       		.byte	0x4
 2640 06d3 2D       		.byte	0x2d
 2641 06d4 0A       		.uleb128 0xa
 2642 06d5 420E0000 		.4byte	.LASF102
 2643 06d9 0D       		.byte	0xd
 2644 06da E1       		.byte	0xe1
 2645 06db B8000000 		.4byte	0xb8
 2646 06df 01       		.byte	0x1
 2647 06e0 03       		.byte	0x3
 2648 06e1 01       		.byte	0x1
 2649 06e2 2D       		.byte	0x2d
 2650 06e3 07       		.uleb128 0x7
 2651 06e4 E2070000 		.4byte	.LASF103
 2652 06e8 0D       		.byte	0xd
 2653 06e9 E2       		.byte	0xe2
 2654 06ea B8000000 		.4byte	0xb8
 2655 06ee 2E       		.byte	0x2e
 2656 06ef 07       		.uleb128 0x7
 2657 06f0 6C0F0000 		.4byte	.LASF104
 2658 06f4 0D       		.byte	0xd
 2659 06f5 E4       		.byte	0xe4
 2660 06f6 91020000 		.4byte	0x291
 2661 06fa 2F       		.byte	0x2f
 2662 06fb 07       		.uleb128 0x7
 2663 06fc 99050000 		.4byte	.LASF105
 2664 0700 0D       		.byte	0xd
 2665 0701 E6       		.byte	0xe6
 2666 0702 EF000000 		.4byte	0xef
 2667 0706 30       		.byte	0x30
 2668 0707 07       		.uleb128 0x7
 2669 0708 E3050000 		.4byte	.LASF106
 2670 070c 0D       		.byte	0xd
 2671 070d E9       		.byte	0xe9
 2672 070e C1080000 		.4byte	0x8c1
 2673 0712 34       		.byte	0x34
 2674 0713 00       		.byte	0
 2675 0714 0D       		.uleb128 0xd
 2676 0715 04       		.byte	0x4
 2677 0716 D2050000 		.4byte	0x5d2
 2678 071a 13       		.uleb128 0x13
 2679 071b 01       		.byte	0x1
 2680 071c 42000000 		.4byte	0x42
 2681 0720 0D       		.byte	0xd
 2682 0721 3D       		.byte	0x3d
 2683 0722 39070000 		.4byte	0x739
 2684 0726 14       		.uleb128 0x14
 2685 0727 02090000 		.4byte	.LASF107
 2686 072b 00       		.byte	0
 2687 072c 14       		.uleb128 0x14
ARM GAS  C:\Users\pearlstl\AppData\Local\Temp\cccjDn63.s 			page 65


 2688 072d 4C040000 		.4byte	.LASF108
 2689 0731 01       		.byte	0x1
 2690 0732 14       		.uleb128 0x14
 2691 0733 AB040000 		.4byte	.LASF109
 2692 0737 02       		.byte	0x2
 2693 0738 00       		.byte	0
 2694 0739 02       		.uleb128 0x2
 2695 073a D2090000 		.4byte	.LASF110
 2696 073e 0D       		.byte	0xd
 2697 073f 42       		.byte	0x42
 2698 0740 B8000000 		.4byte	0xb8
 2699 0744 02       		.uleb128 0x2
 2700 0745 480F0000 		.4byte	.LASF111
 2701 0749 0D       		.byte	0xd
 2702 074a 48       		.byte	0x48
 2703 074b 4F070000 		.4byte	0x74f
 2704 074f 0D       		.uleb128 0xd
 2705 0750 04       		.byte	0x4
 2706 0751 55070000 		.4byte	0x755
 2707 0755 0B       		.uleb128 0xb
 2708 0756 D5010000 		.4byte	0x1d5
 2709 075a 6E070000 		.4byte	0x76e
 2710 075e 0C       		.uleb128 0xc
 2711 075f 14070000 		.4byte	0x714
 2712 0763 0C       		.uleb128 0xc
 2713 0764 C7050000 		.4byte	0x5c7
 2714 0768 0C       		.uleb128 0xc
 2715 0769 39070000 		.4byte	0x739
 2716 076d 00       		.byte	0
 2717 076e 02       		.uleb128 0x2
 2718 076f 72010000 		.4byte	.LASF112
 2719 0773 0D       		.byte	0xd
 2720 0774 61       		.byte	0x61
 2721 0775 B8000000 		.4byte	0xb8
 2722 0779 02       		.uleb128 0x2
 2723 077a CA0E0000 		.4byte	.LASF113
 2724 077e 0D       		.byte	0xd
 2725 077f 68       		.byte	0x68
 2726 0780 84070000 		.4byte	0x784
 2727 0784 0D       		.uleb128 0xd
 2728 0785 04       		.byte	0x4
 2729 0786 8A070000 		.4byte	0x78a
 2730 078a 16       		.uleb128 0x16
 2731 078b 9A070000 		.4byte	0x79a
 2732 078f 0C       		.uleb128 0xc
 2733 0790 14070000 		.4byte	0x714
 2734 0794 0C       		.uleb128 0xc
 2735 0795 6E070000 		.4byte	0x76e
 2736 0799 00       		.byte	0
 2737 079a 13       		.uleb128 0x13
 2738 079b 01       		.byte	0x1
 2739 079c 42000000 		.4byte	0x42
 2740 07a0 0D       		.byte	0xd
 2741 07a1 6D       		.byte	0x6d
 2742 07a2 1F080000 		.4byte	0x81f
 2743 07a6 14       		.uleb128 0x14
 2744 07a7 2F080000 		.4byte	.LASF114
ARM GAS  C:\Users\pearlstl\AppData\Local\Temp\cccjDn63.s 			page 66


 2745 07ab 00       		.byte	0
 2746 07ac 14       		.uleb128 0x14
 2747 07ad 83080000 		.4byte	.LASF115
 2748 07b1 01       		.byte	0x1
 2749 07b2 14       		.uleb128 0x14
 2750 07b3 080D0000 		.4byte	.LASF116
 2751 07b7 02       		.byte	0x2
 2752 07b8 14       		.uleb128 0x14
 2753 07b9 230A0000 		.4byte	.LASF117
 2754 07bd 03       		.byte	0x3
 2755 07be 14       		.uleb128 0x14
 2756 07bf 71000000 		.4byte	.LASF118
 2757 07c3 04       		.byte	0x4
 2758 07c4 14       		.uleb128 0x14
 2759 07c5 A70D0000 		.4byte	.LASF119
 2760 07c9 05       		.byte	0x5
 2761 07ca 14       		.uleb128 0x14
 2762 07cb CD030000 		.4byte	.LASF120
 2763 07cf 06       		.byte	0x6
 2764 07d0 14       		.uleb128 0x14
 2765 07d1 0F060000 		.4byte	.LASF121
 2766 07d5 07       		.byte	0x7
 2767 07d6 14       		.uleb128 0x14
 2768 07d7 B2010000 		.4byte	.LASF122
 2769 07db 08       		.byte	0x8
 2770 07dc 14       		.uleb128 0x14
 2771 07dd 5F090000 		.4byte	.LASF123
 2772 07e1 09       		.byte	0x9
 2773 07e2 14       		.uleb128 0x14
 2774 07e3 E9090000 		.4byte	.LASF124
 2775 07e7 0A       		.byte	0xa
 2776 07e8 14       		.uleb128 0x14
 2777 07e9 5B0A0000 		.4byte	.LASF125
 2778 07ed 0B       		.byte	0xb
 2779 07ee 14       		.uleb128 0x14
 2780 07ef BC000000 		.4byte	.LASF126
 2781 07f3 0C       		.byte	0xc
 2782 07f4 14       		.uleb128 0x14
 2783 07f5 8E030000 		.4byte	.LASF127
 2784 07f9 0D       		.byte	0xd
 2785 07fa 14       		.uleb128 0x14
 2786 07fb 15010000 		.4byte	.LASF128
 2787 07ff 0E       		.byte	0xe
 2788 0800 14       		.uleb128 0x14
 2789 0801 040A0000 		.4byte	.LASF129
 2790 0805 0F       		.byte	0xf
 2791 0806 14       		.uleb128 0x14
 2792 0807 B3060000 		.4byte	.LASF130
 2793 080b 10       		.byte	0x10
 2794 080c 14       		.uleb128 0x14
 2795 080d DA040000 		.4byte	.LASF131
 2796 0811 11       		.byte	0x11
 2797 0812 14       		.uleb128 0x14
 2798 0813 BA070000 		.4byte	.LASF132
 2799 0817 12       		.byte	0x12
 2800 0818 14       		.uleb128 0x14
 2801 0819 39070000 		.4byte	.LASF133
ARM GAS  C:\Users\pearlstl\AppData\Local\Temp\cccjDn63.s 			page 67


 2802 081d 13       		.byte	0x13
 2803 081e 00       		.byte	0
 2804 081f 02       		.uleb128 0x2
 2805 0820 970A0000 		.4byte	.LASF134
 2806 0824 0D       		.byte	0xd
 2807 0825 88       		.byte	0x88
 2808 0826 B8000000 		.4byte	0xb8
 2809 082a 02       		.uleb128 0x2
 2810 082b 2C040000 		.4byte	.LASF135
 2811 082f 0D       		.byte	0xd
 2812 0830 8A       		.byte	0x8a
 2813 0831 35080000 		.4byte	0x835
 2814 0835 0D       		.uleb128 0xd
 2815 0836 04       		.byte	0x4
 2816 0837 3B080000 		.4byte	0x83b
 2817 083b 0B       		.uleb128 0xb
 2818 083c 68050000 		.4byte	0x568
 2819 0840 54080000 		.4byte	0x854
 2820 0844 0C       		.uleb128 0xc
 2821 0845 14070000 		.4byte	0x714
 2822 0849 0C       		.uleb128 0xc
 2823 084a 1F080000 		.4byte	0x81f
 2824 084e 0C       		.uleb128 0xc
 2825 084f FA000000 		.4byte	0xfa
 2826 0853 00       		.byte	0
 2827 0854 02       		.uleb128 0x2
 2828 0855 F7000000 		.4byte	.LASF136
 2829 0859 0D       		.byte	0xd
 2830 085a A4       		.byte	0xa4
 2831 085b B8000000 		.4byte	0xb8
 2832 085f 06       		.uleb128 0x6
 2833 0860 0C       		.byte	0xc
 2834 0861 0D       		.byte	0xd
 2835 0862 A7       		.byte	0xa7
 2836 0863 B6080000 		.4byte	0x8b6
 2837 0867 07       		.uleb128 0x7
 2838 0868 420C0000 		.4byte	.LASF137
 2839 086c 0D       		.byte	0xd
 2840 086d A9       		.byte	0xa9
 2841 086e B6080000 		.4byte	0x8b6
 2842 0872 00       		.byte	0
 2843 0873 07       		.uleb128 0x7
 2844 0874 960B0000 		.4byte	.LASF138
 2845 0878 0D       		.byte	0xd
 2846 0879 AA       		.byte	0xaa
 2847 087a EF000000 		.4byte	0xef
 2848 087e 04       		.byte	0x4
 2849 087f 07       		.uleb128 0x7
 2850 0880 65040000 		.4byte	.LASF139
 2851 0884 0D       		.byte	0xd
 2852 0885 AB       		.byte	0xab
 2853 0886 EF000000 		.4byte	0xef
 2854 088a 06       		.byte	0x6
 2855 088b 07       		.uleb128 0x7
 2856 088c 56080000 		.4byte	.LASF140
 2857 0890 0D       		.byte	0xd
 2858 0891 AC       		.byte	0xac
ARM GAS  C:\Users\pearlstl\AppData\Local\Temp\cccjDn63.s 			page 68


 2859 0892 54080000 		.4byte	0x854
 2860 0896 08       		.byte	0x8
 2861 0897 0A       		.uleb128 0xa
 2862 0898 E6080000 		.4byte	.LASF141
 2863 089c 0D       		.byte	0xd
 2864 089d AD       		.byte	0xad
 2865 089e B8000000 		.4byte	0xb8
 2866 08a2 01       		.byte	0x1
 2867 08a3 01       		.byte	0x1
 2868 08a4 07       		.byte	0x7
 2869 08a5 09       		.byte	0x9
 2870 08a6 0A       		.uleb128 0xa
 2871 08a7 E00E0000 		.4byte	.LASF142
 2872 08ab 0D       		.byte	0xd
 2873 08ac AE       		.byte	0xae
 2874 08ad B8000000 		.4byte	0xb8
 2875 08b1 01       		.byte	0x1
 2876 08b2 01       		.byte	0x1
 2877 08b3 06       		.byte	0x6
 2878 08b4 09       		.byte	0x9
 2879 08b5 00       		.byte	0
 2880 08b6 0D       		.uleb128 0xd
 2881 08b7 04       		.byte	0x4
 2882 08b8 BC080000 		.4byte	0x8bc
 2883 08bc 0E       		.uleb128 0xe
 2884 08bd D2050000 		.4byte	0x5d2
 2885 08c1 02       		.uleb128 0x2
 2886 08c2 D8000000 		.4byte	.LASF143
 2887 08c6 0D       		.byte	0xd
 2888 08c7 B0       		.byte	0xb0
 2889 08c8 5F080000 		.4byte	0x85f
 2890 08cc 02       		.uleb128 0x2
 2891 08cd AB090000 		.4byte	.LASF144
 2892 08d1 0D       		.byte	0xd
 2893 08d2 B9       		.byte	0xb9
 2894 08d3 B8000000 		.4byte	0xb8
 2895 08d7 0D       		.uleb128 0xd
 2896 08d8 04       		.byte	0x4
 2897 08d9 DD080000 		.4byte	0x8dd
 2898 08dd 0E       		.uleb128 0xe
 2899 08de 3E050000 		.4byte	0x53e
 2900 08e2 02       		.uleb128 0x2
 2901 08e3 B90B0000 		.4byte	.LASF145
 2902 08e7 0D       		.byte	0xd
 2903 08e8 F0       		.byte	0xf0
 2904 08e9 D2050000 		.4byte	0x5d2
 2905 08ed 06       		.uleb128 0x6
 2906 08ee 0C       		.byte	0xc
 2907 08ef 0E       		.byte	0xe
 2908 08f0 22       		.byte	0x22
 2909 08f1 3E090000 		.4byte	0x93e
 2910 08f5 07       		.uleb128 0x7
 2911 08f6 290F0000 		.4byte	.LASF146
 2912 08fa 0E       		.byte	0xe
 2913 08fb 26       		.byte	0x26
 2914 08fc CE000000 		.4byte	0xce
 2915 0900 00       		.byte	0
ARM GAS  C:\Users\pearlstl\AppData\Local\Temp\cccjDn63.s 			page 69


 2916 0901 07       		.uleb128 0x7
 2917 0902 14000000 		.4byte	.LASF147
 2918 0906 0E       		.byte	0xe
 2919 0907 27       		.byte	0x27
 2920 0908 CE000000 		.4byte	0xce
 2921 090c 02       		.byte	0x2
 2922 090d 07       		.uleb128 0x7
 2923 090e EB060000 		.4byte	.LASF148
 2924 0912 0E       		.byte	0xe
 2925 0913 28       		.byte	0x28
 2926 0914 CE000000 		.4byte	0xce
 2927 0918 04       		.byte	0x4
 2928 0919 07       		.uleb128 0x7
 2929 091a 080B0000 		.4byte	.LASF149
 2930 091e 0E       		.byte	0xe
 2931 091f 29       		.byte	0x29
 2932 0920 C3000000 		.4byte	0xc3
 2933 0924 06       		.byte	0x6
 2934 0925 07       		.uleb128 0x7
 2935 0926 D80B0000 		.4byte	.LASF150
 2936 092a 0E       		.byte	0xe
 2937 092b 2A       		.byte	0x2a
 2938 092c C3000000 		.4byte	0xc3
 2939 0930 08       		.byte	0x8
 2940 0931 07       		.uleb128 0x7
 2941 0932 9D0D0000 		.4byte	.LASF151
 2942 0936 0E       		.byte	0xe
 2943 0937 2B       		.byte	0x2b
 2944 0938 C3000000 		.4byte	0xc3
 2945 093c 0A       		.byte	0xa
 2946 093d 00       		.byte	0
 2947 093e 02       		.uleb128 0x2
 2948 093f CD0A0000 		.4byte	.LASF152
 2949 0943 0E       		.byte	0xe
 2950 0944 2C       		.byte	0x2c
 2951 0945 ED080000 		.4byte	0x8ed
 2952 0949 13       		.uleb128 0x13
 2953 094a 01       		.byte	0x1
 2954 094b 42000000 		.4byte	0x42
 2955 094f 0F       		.byte	0xf
 2956 0950 2B       		.byte	0x2b
 2957 0951 74090000 		.4byte	0x974
 2958 0955 14       		.uleb128 0x14
 2959 0956 C9040000 		.4byte	.LASF153
 2960 095a 00       		.byte	0
 2961 095b 14       		.uleb128 0x14
 2962 095c 22030000 		.4byte	.LASF154
 2963 0960 01       		.byte	0x1
 2964 0961 14       		.uleb128 0x14
 2965 0962 D8060000 		.4byte	.LASF155
 2966 0966 02       		.byte	0x2
 2967 0967 14       		.uleb128 0x14
 2968 0968 C0050000 		.4byte	.LASF156
 2969 096c 04       		.byte	0x4
 2970 096d 14       		.uleb128 0x14
 2971 096e E6020000 		.4byte	.LASF157
 2972 0972 08       		.byte	0x8
ARM GAS  C:\Users\pearlstl\AppData\Local\Temp\cccjDn63.s 			page 70


 2973 0973 00       		.byte	0
 2974 0974 06       		.uleb128 0x6
 2975 0975 18       		.byte	0x18
 2976 0976 02       		.byte	0x2
 2977 0977 2B       		.byte	0x2b
 2978 0978 B9090000 		.4byte	0x9b9
 2979 097c 07       		.uleb128 0x7
 2980 097d B5000000 		.4byte	.LASF158
 2981 0981 02       		.byte	0x2
 2982 0982 2D       		.byte	0x2d
 2983 0983 3E090000 		.4byte	0x93e
 2984 0987 00       		.byte	0
 2985 0988 07       		.uleb128 0x7
 2986 0989 840B0000 		.4byte	.LASF159
 2987 098d 02       		.byte	0x2
 2988 098e 2F       		.byte	0x2f
 2989 098f B9090000 		.4byte	0x9b9
 2990 0993 0C       		.byte	0xc
 2991 0994 07       		.uleb128 0x7
 2992 0995 22060000 		.4byte	.LASF160
 2993 0999 02       		.byte	0x2
 2994 099a 30       		.byte	0x30
 2995 099b BF090000 		.4byte	0x9bf
 2996 099f 10       		.byte	0x10
 2997 09a0 07       		.uleb128 0x7
 2998 09a1 07000000 		.4byte	.LASF161
 2999 09a5 02       		.byte	0x2
 3000 09a6 31       		.byte	0x31
 3001 09a7 B8000000 		.4byte	0xb8
 3002 09ab 14       		.byte	0x14
 3003 09ac 07       		.uleb128 0x7
 3004 09ad 1D0F0000 		.4byte	.LASF162
 3005 09b1 02       		.byte	0x2
 3006 09b2 32       		.byte	0x32
 3007 09b3 B8000000 		.4byte	0xb8
 3008 09b7 15       		.byte	0x15
 3009 09b8 00       		.byte	0
 3010 09b9 0D       		.uleb128 0xd
 3011 09ba 04       		.byte	0x4
 3012 09bb C3000000 		.4byte	0xc3
 3013 09bf 0D       		.uleb128 0xd
 3014 09c0 04       		.byte	0x4
 3015 09c1 C5090000 		.4byte	0x9c5
 3016 09c5 0E       		.uleb128 0xe
 3017 09c6 85020000 		.4byte	0x285
 3018 09ca 02       		.uleb128 0x2
 3019 09cb 690C0000 		.4byte	.LASF163
 3020 09cf 02       		.byte	0x2
 3021 09d0 33       		.byte	0x33
 3022 09d1 74090000 		.4byte	0x974
 3023 09d5 13       		.uleb128 0x13
 3024 09d6 01       		.byte	0x1
 3025 09d7 42000000 		.4byte	0x42
 3026 09db 02       		.byte	0x2
 3027 09dc 36       		.byte	0x36
 3028 09dd E8090000 		.4byte	0x9e8
 3029 09e1 14       		.uleb128 0x14
ARM GAS  C:\Users\pearlstl\AppData\Local\Temp\cccjDn63.s 			page 71


 3030 09e2 62080000 		.4byte	.LASF164
 3031 09e6 00       		.byte	0
 3032 09e7 00       		.byte	0
 3033 09e8 02       		.uleb128 0x2
 3034 09e9 5E0E0000 		.4byte	.LASF165
 3035 09ed 02       		.byte	0x2
 3036 09ee 39       		.byte	0x39
 3037 09ef B8000000 		.4byte	0xb8
 3038 09f3 06       		.uleb128 0x6
 3039 09f4 14       		.byte	0x14
 3040 09f5 10       		.byte	0x10
 3041 09f6 34       		.byte	0x34
 3042 09f7 370A0000 		.4byte	0xa37
 3043 09fb 08       		.uleb128 0x8
 3044 09fc 72656C00 		.ascii	"rel\000"
 3045 0a00 10       		.byte	0x10
 3046 0a01 36       		.byte	0x36
 3047 0a02 49050000 		.4byte	0x549
 3048 0a06 00       		.byte	0
 3049 0a07 08       		.uleb128 0x8
 3050 0a08 707200   		.ascii	"pr\000"
 3051 0a0b 10       		.byte	0x10
 3052 0a0c 37       		.byte	0x37
 3053 0a0d 49050000 		.4byte	0x549
 3054 0a11 04       		.byte	0x4
 3055 0a12 07       		.uleb128 0x7
 3056 0a13 B0080000 		.4byte	.LASF166
 3057 0a17 10       		.byte	0x10
 3058 0a18 38       		.byte	0x38
 3059 0a19 49050000 		.4byte	0x549
 3060 0a1d 08       		.byte	0x8
 3061 0a1e 07       		.uleb128 0x7
 3062 0a1f 54030000 		.4byte	.LASF167
 3063 0a23 10       		.byte	0x10
 3064 0a24 39       		.byte	0x39
 3065 0a25 49050000 		.4byte	0x549
 3066 0a29 0C       		.byte	0xc
 3067 0a2a 08       		.uleb128 0x8
 3068 0a2b 696E6100 		.ascii	"ina\000"
 3069 0a2f 10       		.byte	0x10
 3070 0a30 3A       		.byte	0x3a
 3071 0a31 49050000 		.4byte	0x549
 3072 0a35 10       		.byte	0x10
 3073 0a36 00       		.byte	0
 3074 0a37 06       		.uleb128 0x6
 3075 0a38 14       		.byte	0x14
 3076 0a39 10       		.byte	0x10
 3077 0a3a 3F       		.byte	0x3f
 3078 0a3b 7B0A0000 		.4byte	0xa7b
 3079 0a3f 08       		.uleb128 0x8
 3080 0a40 72656C00 		.ascii	"rel\000"
 3081 0a44 10       		.byte	0x10
 3082 0a45 41       		.byte	0x41
 3083 0a46 49050000 		.4byte	0x549
 3084 0a4a 00       		.byte	0
 3085 0a4b 08       		.uleb128 0x8
 3086 0a4c 707200   		.ascii	"pr\000"
ARM GAS  C:\Users\pearlstl\AppData\Local\Temp\cccjDn63.s 			page 72


 3087 0a4f 10       		.byte	0x10
 3088 0a50 42       		.byte	0x42
 3089 0a51 49050000 		.4byte	0x549
 3090 0a55 04       		.byte	0x4
 3091 0a56 07       		.uleb128 0x7
 3092 0a57 B0080000 		.4byte	.LASF166
 3093 0a5b 10       		.byte	0x10
 3094 0a5c 43       		.byte	0x43
 3095 0a5d 49050000 		.4byte	0x549
 3096 0a61 08       		.byte	0x8
 3097 0a62 07       		.uleb128 0x7
 3098 0a63 54030000 		.4byte	.LASF167
 3099 0a67 10       		.byte	0x10
 3100 0a68 44       		.byte	0x44
 3101 0a69 49050000 		.4byte	0x549
 3102 0a6d 0C       		.byte	0xc
 3103 0a6e 08       		.uleb128 0x8
 3104 0a6f 696E6100 		.ascii	"ina\000"
 3105 0a73 10       		.byte	0x10
 3106 0a74 45       		.byte	0x45
 3107 0a75 49050000 		.4byte	0x549
 3108 0a79 10       		.byte	0x10
 3109 0a7a 00       		.byte	0
 3110 0a7b 06       		.uleb128 0x6
 3111 0a7c 0C       		.byte	0xc
 3112 0a7d 10       		.byte	0x10
 3113 0a7e 4A       		.byte	0x4a
 3114 0a7f A80A0000 		.4byte	0xaa8
 3115 0a83 07       		.uleb128 0x7
 3116 0a84 98020000 		.4byte	.LASF168
 3117 0a88 10       		.byte	0x10
 3118 0a89 4C       		.byte	0x4c
 3119 0a8a 49050000 		.4byte	0x549
 3120 0a8e 00       		.byte	0
 3121 0a8f 08       		.uleb128 0x8
 3122 0a90 73656300 		.ascii	"sec\000"
 3123 0a94 10       		.byte	0x10
 3124 0a95 4D       		.byte	0x4d
 3125 0a96 49050000 		.4byte	0x549
 3126 0a9a 04       		.byte	0x4
 3127 0a9b 07       		.uleb128 0x7
 3128 0a9c 85060000 		.4byte	.LASF169
 3129 0aa0 10       		.byte	0x10
 3130 0aa1 4E       		.byte	0x4e
 3131 0aa2 49050000 		.4byte	0x549
 3132 0aa6 08       		.byte	0x8
 3133 0aa7 00       		.byte	0
 3134 0aa8 06       		.uleb128 0x6
 3135 0aa9 08       		.byte	0x8
 3136 0aaa 10       		.byte	0x10
 3137 0aab 53       		.byte	0x53
 3138 0aac C90A0000 		.4byte	0xac9
 3139 0ab0 07       		.uleb128 0x7
 3140 0ab1 DA010000 		.4byte	.LASF170
 3141 0ab5 10       		.byte	0x10
 3142 0ab6 55       		.byte	0x55
 3143 0ab7 49050000 		.4byte	0x549
ARM GAS  C:\Users\pearlstl\AppData\Local\Temp\cccjDn63.s 			page 73


 3144 0abb 00       		.byte	0
 3145 0abc 07       		.uleb128 0x7
 3146 0abd 200E0000 		.4byte	.LASF171
 3147 0ac1 10       		.byte	0x10
 3148 0ac2 56       		.byte	0x56
 3149 0ac3 49050000 		.4byte	0x549
 3150 0ac7 04       		.byte	0x4
 3151 0ac8 00       		.byte	0
 3152 0ac9 06       		.uleb128 0x6
 3153 0aca 04       		.byte	0x4
 3154 0acb 10       		.byte	0x10
 3155 0acc 5B       		.byte	0x5b
 3156 0acd DE0A0000 		.4byte	0xade
 3157 0ad1 07       		.uleb128 0x7
 3158 0ad2 2A0B0000 		.4byte	.LASF172
 3159 0ad6 10       		.byte	0x10
 3160 0ad7 5D       		.byte	0x5d
 3161 0ad8 49050000 		.4byte	0x549
 3162 0adc 00       		.byte	0
 3163 0add 00       		.byte	0
 3164 0ade 06       		.uleb128 0x6
 3165 0adf 08       		.byte	0x8
 3166 0ae0 10       		.byte	0x10
 3167 0ae1 66       		.byte	0x66
 3168 0ae2 FE0A0000 		.4byte	0xafe
 3169 0ae6 08       		.uleb128 0x8
 3170 0ae7 626700   		.ascii	"bg\000"
 3171 0aea 10       		.byte	0x10
 3172 0aeb 68       		.byte	0x68
 3173 0aec 49050000 		.4byte	0x549
 3174 0af0 00       		.byte	0
 3175 0af1 07       		.uleb128 0x7
 3176 0af2 DC070000 		.4byte	.LASF173
 3177 0af6 10       		.byte	0x10
 3178 0af7 69       		.byte	0x69
 3179 0af8 49050000 		.4byte	0x549
 3180 0afc 04       		.byte	0x4
 3181 0afd 00       		.byte	0
 3182 0afe 06       		.uleb128 0x6
 3183 0aff 0C       		.byte	0xc
 3184 0b00 10       		.byte	0x10
 3185 0b01 6E       		.byte	0x6e
 3186 0b02 2A0B0000 		.4byte	0xb2a
 3187 0b06 08       		.uleb128 0x8
 3188 0b07 626700   		.ascii	"bg\000"
 3189 0b0a 10       		.byte	0x10
 3190 0b0b 70       		.byte	0x70
 3191 0b0c 49050000 		.4byte	0x549
 3192 0b10 00       		.byte	0
 3193 0b11 07       		.uleb128 0x7
 3194 0b12 DC070000 		.4byte	.LASF173
 3195 0b16 10       		.byte	0x10
 3196 0b17 71       		.byte	0x71
 3197 0b18 49050000 		.4byte	0x549
 3198 0b1c 04       		.byte	0x4
 3199 0b1d 07       		.uleb128 0x7
 3200 0b1e EC0E0000 		.4byte	.LASF174
ARM GAS  C:\Users\pearlstl\AppData\Local\Temp\cccjDn63.s 			page 74


 3201 0b22 10       		.byte	0x10
 3202 0b23 72       		.byte	0x72
 3203 0b24 49050000 		.4byte	0x549
 3204 0b28 08       		.byte	0x8
 3205 0b29 00       		.byte	0
 3206 0b2a 06       		.uleb128 0x6
 3207 0b2b 10       		.byte	0x10
 3208 0b2c 10       		.byte	0x10
 3209 0b2d 87       		.byte	0x87
 3210 0b2e 620B0000 		.4byte	0xb62
 3211 0b32 08       		.uleb128 0x8
 3212 0b33 626700   		.ascii	"bg\000"
 3213 0b36 10       		.byte	0x10
 3214 0b37 89       		.byte	0x89
 3215 0b38 49050000 		.4byte	0x549
 3216 0b3c 00       		.byte	0
 3217 0b3d 07       		.uleb128 0x7
 3218 0b3e DC070000 		.4byte	.LASF173
 3219 0b42 10       		.byte	0x10
 3220 0b43 8A       		.byte	0x8a
 3221 0b44 49050000 		.4byte	0x549
 3222 0b48 04       		.byte	0x4
 3223 0b49 07       		.uleb128 0x7
 3224 0b4a 50090000 		.4byte	.LASF175
 3225 0b4e 10       		.byte	0x10
 3226 0b4f 8B       		.byte	0x8b
 3227 0b50 49050000 		.4byte	0x549
 3228 0b54 08       		.byte	0x8
 3229 0b55 07       		.uleb128 0x7
 3230 0b56 F2030000 		.4byte	.LASF176
 3231 0b5a 10       		.byte	0x10
 3232 0b5b 8C       		.byte	0x8c
 3233 0b5c 49050000 		.4byte	0x549
 3234 0b60 0C       		.byte	0xc
 3235 0b61 00       		.byte	0
 3236 0b62 06       		.uleb128 0x6
 3237 0b63 20       		.byte	0x20
 3238 0b64 10       		.byte	0x10
 3239 0b65 95       		.byte	0x95
 3240 0b66 CA0B0000 		.4byte	0xbca
 3241 0b6a 08       		.uleb128 0x8
 3242 0b6b 626700   		.ascii	"bg\000"
 3243 0b6e 10       		.byte	0x10
 3244 0b6f 97       		.byte	0x97
 3245 0b70 49050000 		.4byte	0x549
 3246 0b74 00       		.byte	0
 3247 0b75 07       		.uleb128 0x7
 3248 0b76 06040000 		.4byte	.LASF177
 3249 0b7a 10       		.byte	0x10
 3250 0b7b 98       		.byte	0x98
 3251 0b7c 49050000 		.4byte	0x549
 3252 0b80 04       		.byte	0x4
 3253 0b81 07       		.uleb128 0x7
 3254 0b82 31000000 		.4byte	.LASF178
 3255 0b86 10       		.byte	0x10
 3256 0b87 99       		.byte	0x99
 3257 0b88 49050000 		.4byte	0x549
ARM GAS  C:\Users\pearlstl\AppData\Local\Temp\cccjDn63.s 			page 75


 3258 0b8c 08       		.byte	0x8
 3259 0b8d 07       		.uleb128 0x7
 3260 0b8e 5E0D0000 		.4byte	.LASF179
 3261 0b92 10       		.byte	0x10
 3262 0b93 9A       		.byte	0x9a
 3263 0b94 49050000 		.4byte	0x549
 3264 0b98 0C       		.byte	0xc
 3265 0b99 07       		.uleb128 0x7
 3266 0b9a 47010000 		.4byte	.LASF180
 3267 0b9e 10       		.byte	0x10
 3268 0b9f 9B       		.byte	0x9b
 3269 0ba0 49050000 		.4byte	0x549
 3270 0ba4 10       		.byte	0x10
 3271 0ba5 07       		.uleb128 0x7
 3272 0ba6 6C050000 		.4byte	.LASF181
 3273 0baa 10       		.byte	0x10
 3274 0bab 9C       		.byte	0x9c
 3275 0bac 49050000 		.4byte	0x549
 3276 0bb0 14       		.byte	0x14
 3277 0bb1 07       		.uleb128 0x7
 3278 0bb2 8E040000 		.4byte	.LASF182
 3279 0bb6 10       		.byte	0x10
 3280 0bb7 9D       		.byte	0x9d
 3281 0bb8 49050000 		.4byte	0x549
 3282 0bbc 18       		.byte	0x18
 3283 0bbd 07       		.uleb128 0x7
 3284 0bbe 4A030000 		.4byte	.LASF183
 3285 0bc2 10       		.byte	0x10
 3286 0bc3 9E       		.byte	0x9e
 3287 0bc4 49050000 		.4byte	0x549
 3288 0bc8 1C       		.byte	0x1c
 3289 0bc9 00       		.byte	0
 3290 0bca 06       		.uleb128 0x6
 3291 0bcb 14       		.byte	0x14
 3292 0bcc 10       		.byte	0x10
 3293 0bcd A6       		.byte	0xa6
 3294 0bce 0E0C0000 		.4byte	0xc0e
 3295 0bd2 08       		.uleb128 0x8
 3296 0bd3 72656C00 		.ascii	"rel\000"
 3297 0bd7 10       		.byte	0x10
 3298 0bd8 A8       		.byte	0xa8
 3299 0bd9 49050000 		.4byte	0x549
 3300 0bdd 00       		.byte	0
 3301 0bde 08       		.uleb128 0x8
 3302 0bdf 707200   		.ascii	"pr\000"
 3303 0be2 10       		.byte	0x10
 3304 0be3 A9       		.byte	0xa9
 3305 0be4 49050000 		.4byte	0x549
 3306 0be8 04       		.byte	0x4
 3307 0be9 07       		.uleb128 0x7
 3308 0bea B0080000 		.4byte	.LASF166
 3309 0bee 10       		.byte	0x10
 3310 0bef AA       		.byte	0xaa
 3311 0bf0 49050000 		.4byte	0x549
 3312 0bf4 08       		.byte	0x8
 3313 0bf5 07       		.uleb128 0x7
 3314 0bf6 54030000 		.4byte	.LASF167
ARM GAS  C:\Users\pearlstl\AppData\Local\Temp\cccjDn63.s 			page 76


 3315 0bfa 10       		.byte	0x10
 3316 0bfb AB       		.byte	0xab
 3317 0bfc 49050000 		.4byte	0x549
 3318 0c00 0C       		.byte	0xc
 3319 0c01 08       		.uleb128 0x8
 3320 0c02 696E6100 		.ascii	"ina\000"
 3321 0c06 10       		.byte	0x10
 3322 0c07 AC       		.byte	0xac
 3323 0c08 49050000 		.4byte	0x549
 3324 0c0c 10       		.byte	0x10
 3325 0c0d 00       		.byte	0
 3326 0c0e 06       		.uleb128 0x6
 3327 0c0f 18       		.byte	0x18
 3328 0c10 10       		.byte	0x10
 3329 0c11 A3       		.byte	0xa3
 3330 0c12 2E0C0000 		.4byte	0xc2e
 3331 0c16 08       		.uleb128 0x8
 3332 0c17 626700   		.ascii	"bg\000"
 3333 0c1a 10       		.byte	0x10
 3334 0c1b A5       		.byte	0xa5
 3335 0c1c 49050000 		.4byte	0x549
 3336 0c20 00       		.byte	0
 3337 0c21 08       		.uleb128 0x8
 3338 0c22 626F7800 		.ascii	"box\000"
 3339 0c26 10       		.byte	0x10
 3340 0c27 AD       		.byte	0xad
 3341 0c28 CA0B0000 		.4byte	0xbca
 3342 0c2c 04       		.byte	0x4
 3343 0c2d 00       		.byte	0
 3344 0c2e 06       		.uleb128 0x6
 3345 0c2f 14       		.byte	0x14
 3346 0c30 10       		.byte	0x10
 3347 0c31 B5       		.byte	0xb5
 3348 0c32 720C0000 		.4byte	0xc72
 3349 0c36 08       		.uleb128 0x8
 3350 0c37 72656C00 		.ascii	"rel\000"
 3351 0c3b 10       		.byte	0x10
 3352 0c3c B7       		.byte	0xb7
 3353 0c3d 49050000 		.4byte	0x549
 3354 0c41 00       		.byte	0
 3355 0c42 08       		.uleb128 0x8
 3356 0c43 707200   		.ascii	"pr\000"
 3357 0c46 10       		.byte	0x10
 3358 0c47 B8       		.byte	0xb8
 3359 0c48 49050000 		.4byte	0x549
 3360 0c4c 04       		.byte	0x4
 3361 0c4d 07       		.uleb128 0x7
 3362 0c4e B0080000 		.4byte	.LASF166
 3363 0c52 10       		.byte	0x10
 3364 0c53 B9       		.byte	0xb9
 3365 0c54 49050000 		.4byte	0x549
 3366 0c58 08       		.byte	0x8
 3367 0c59 07       		.uleb128 0x7
 3368 0c5a 54030000 		.4byte	.LASF167
 3369 0c5e 10       		.byte	0x10
 3370 0c5f BA       		.byte	0xba
 3371 0c60 49050000 		.4byte	0x549
ARM GAS  C:\Users\pearlstl\AppData\Local\Temp\cccjDn63.s 			page 77


 3372 0c64 0C       		.byte	0xc
 3373 0c65 08       		.uleb128 0x8
 3374 0c66 696E6100 		.ascii	"ina\000"
 3375 0c6a 10       		.byte	0x10
 3376 0c6b BB       		.byte	0xbb
 3377 0c6c 49050000 		.4byte	0x549
 3378 0c70 10       		.byte	0x10
 3379 0c71 00       		.byte	0
 3380 0c72 06       		.uleb128 0x6
 3381 0c73 18       		.byte	0x18
 3382 0c74 10       		.byte	0x10
 3383 0c75 B2       		.byte	0xb2
 3384 0c76 920C0000 		.4byte	0xc92
 3385 0c7a 08       		.uleb128 0x8
 3386 0c7b 626700   		.ascii	"bg\000"
 3387 0c7e 10       		.byte	0x10
 3388 0c7f B4       		.byte	0xb4
 3389 0c80 49050000 		.4byte	0x549
 3390 0c84 00       		.byte	0
 3391 0c85 08       		.uleb128 0x8
 3392 0c86 62746E00 		.ascii	"btn\000"
 3393 0c8a 10       		.byte	0x10
 3394 0c8b BC       		.byte	0xbc
 3395 0c8c 2E0C0000 		.4byte	0xc2e
 3396 0c90 04       		.byte	0x4
 3397 0c91 00       		.byte	0
 3398 0c92 06       		.uleb128 0x6
 3399 0c93 14       		.byte	0x14
 3400 0c94 10       		.byte	0x10
 3401 0c95 C4       		.byte	0xc4
 3402 0c96 D60C0000 		.4byte	0xcd6
 3403 0c9a 08       		.uleb128 0x8
 3404 0c9b 72656C00 		.ascii	"rel\000"
 3405 0c9f 10       		.byte	0x10
 3406 0ca0 C6       		.byte	0xc6
 3407 0ca1 49050000 		.4byte	0x549
 3408 0ca5 00       		.byte	0
 3409 0ca6 08       		.uleb128 0x8
 3410 0ca7 707200   		.ascii	"pr\000"
 3411 0caa 10       		.byte	0x10
 3412 0cab C7       		.byte	0xc7
 3413 0cac 49050000 		.4byte	0x549
 3414 0cb0 04       		.byte	0x4
 3415 0cb1 07       		.uleb128 0x7
 3416 0cb2 B0080000 		.4byte	.LASF166
 3417 0cb6 10       		.byte	0x10
 3418 0cb7 C8       		.byte	0xc8
 3419 0cb8 49050000 		.4byte	0x549
 3420 0cbc 08       		.byte	0x8
 3421 0cbd 07       		.uleb128 0x7
 3422 0cbe 54030000 		.4byte	.LASF167
 3423 0cc2 10       		.byte	0x10
 3424 0cc3 C9       		.byte	0xc9
 3425 0cc4 49050000 		.4byte	0x549
 3426 0cc8 0C       		.byte	0xc
 3427 0cc9 08       		.uleb128 0x8
 3428 0cca 696E6100 		.ascii	"ina\000"
ARM GAS  C:\Users\pearlstl\AppData\Local\Temp\cccjDn63.s 			page 78


 3429 0cce 10       		.byte	0x10
 3430 0ccf CA       		.byte	0xca
 3431 0cd0 49050000 		.4byte	0x549
 3432 0cd4 10       		.byte	0x10
 3433 0cd5 00       		.byte	0
 3434 0cd6 06       		.uleb128 0x6
 3435 0cd7 18       		.byte	0x18
 3436 0cd8 10       		.byte	0x10
 3437 0cd9 C1       		.byte	0xc1
 3438 0cda F60C0000 		.4byte	0xcf6
 3439 0cde 08       		.uleb128 0x8
 3440 0cdf 626700   		.ascii	"bg\000"
 3441 0ce2 10       		.byte	0x10
 3442 0ce3 C3       		.byte	0xc3
 3443 0ce4 49050000 		.4byte	0x549
 3444 0ce8 00       		.byte	0
 3445 0ce9 08       		.uleb128 0x8
 3446 0cea 62746E00 		.ascii	"btn\000"
 3447 0cee 10       		.byte	0x10
 3448 0cef CB       		.byte	0xcb
 3449 0cf0 920C0000 		.4byte	0xc92
 3450 0cf4 04       		.byte	0x4
 3451 0cf5 00       		.byte	0
 3452 0cf6 06       		.uleb128 0x6
 3453 0cf7 0C       		.byte	0xc
 3454 0cf8 10       		.byte	0x10
 3455 0cf9 D3       		.byte	0xd3
 3456 0cfa 210D0000 		.4byte	0xd21
 3457 0cfe 08       		.uleb128 0x8
 3458 0cff 626700   		.ascii	"bg\000"
 3459 0d02 10       		.byte	0x10
 3460 0d03 D5       		.byte	0xd5
 3461 0d04 49050000 		.4byte	0x549
 3462 0d08 00       		.byte	0
 3463 0d09 08       		.uleb128 0x8
 3464 0d0a 72656C00 		.ascii	"rel\000"
 3465 0d0e 10       		.byte	0x10
 3466 0d0f D6       		.byte	0xd6
 3467 0d10 49050000 		.4byte	0x549
 3468 0d14 04       		.byte	0x4
 3469 0d15 08       		.uleb128 0x8
 3470 0d16 707200   		.ascii	"pr\000"
 3471 0d19 10       		.byte	0x10
 3472 0d1a D7       		.byte	0xd7
 3473 0d1b 49050000 		.4byte	0x549
 3474 0d1f 08       		.byte	0x8
 3475 0d20 00       		.byte	0
 3476 0d21 06       		.uleb128 0x6
 3477 0d22 10       		.byte	0x10
 3478 0d23 10       		.byte	0x10
 3479 0d24 D0       		.byte	0xd0
 3480 0d25 410D0000 		.4byte	0xd41
 3481 0d29 08       		.uleb128 0x8
 3482 0d2a 626700   		.ascii	"bg\000"
 3483 0d2d 10       		.byte	0x10
 3484 0d2e D2       		.byte	0xd2
 3485 0d2f 49050000 		.4byte	0x549
ARM GAS  C:\Users\pearlstl\AppData\Local\Temp\cccjDn63.s 			page 79


 3486 0d33 00       		.byte	0
 3487 0d34 08       		.uleb128 0x8
 3488 0d35 62746E00 		.ascii	"btn\000"
 3489 0d39 10       		.byte	0x10
 3490 0d3a D8       		.byte	0xd8
 3491 0d3b F60C0000 		.4byte	0xcf6
 3492 0d3f 04       		.byte	0x4
 3493 0d40 00       		.byte	0
 3494 0d41 06       		.uleb128 0x6
 3495 0d42 0C       		.byte	0xc
 3496 0d43 10       		.byte	0x10
 3497 0d44 DD       		.byte	0xdd
 3498 0d45 6C0D0000 		.4byte	0xd6c
 3499 0d49 08       		.uleb128 0x8
 3500 0d4a 626700   		.ascii	"bg\000"
 3501 0d4d 10       		.byte	0x10
 3502 0d4e DF       		.byte	0xdf
 3503 0d4f 49050000 		.4byte	0x549
 3504 0d53 00       		.byte	0
 3505 0d54 07       		.uleb128 0x7
 3506 0d55 84030000 		.4byte	.LASF184
 3507 0d59 10       		.byte	0x10
 3508 0d5a E0       		.byte	0xe0
 3509 0d5b 49050000 		.4byte	0x549
 3510 0d5f 04       		.byte	0x4
 3511 0d60 08       		.uleb128 0x8
 3512 0d61 736200   		.ascii	"sb\000"
 3513 0d64 10       		.byte	0x10
 3514 0d65 E1       		.byte	0xe1
 3515 0d66 49050000 		.4byte	0x549
 3516 0d6a 08       		.byte	0x8
 3517 0d6b 00       		.byte	0
 3518 0d6c 06       		.uleb128 0x6
 3519 0d6d 10       		.byte	0x10
 3520 0d6e 10       		.byte	0x10
 3521 0d6f E6       		.byte	0xe6
 3522 0d70 A40D0000 		.4byte	0xda4
 3523 0d74 07       		.uleb128 0x7
 3524 0d75 4A060000 		.4byte	.LASF185
 3525 0d79 10       		.byte	0x10
 3526 0d7a E8       		.byte	0xe8
 3527 0d7b 49050000 		.4byte	0x549
 3528 0d7f 00       		.byte	0
 3529 0d80 07       		.uleb128 0x7
 3530 0d81 6C070000 		.4byte	.LASF186
 3531 0d85 10       		.byte	0x10
 3532 0d86 E9       		.byte	0xe9
 3533 0d87 49050000 		.4byte	0x549
 3534 0d8b 04       		.byte	0x4
 3535 0d8c 07       		.uleb128 0x7
 3536 0d8d 410F0000 		.4byte	.LASF187
 3537 0d91 10       		.byte	0x10
 3538 0d92 EA       		.byte	0xea
 3539 0d93 49050000 		.4byte	0x549
 3540 0d97 08       		.byte	0x8
 3541 0d98 08       		.uleb128 0x8
 3542 0d99 736200   		.ascii	"sb\000"
ARM GAS  C:\Users\pearlstl\AppData\Local\Temp\cccjDn63.s 			page 80


 3543 0d9c 10       		.byte	0x10
 3544 0d9d EB       		.byte	0xeb
 3545 0d9e 49050000 		.4byte	0x549
 3546 0da2 0C       		.byte	0xc
 3547 0da3 00       		.byte	0
 3548 0da4 06       		.uleb128 0x6
 3549 0da5 0C       		.byte	0xc
 3550 0da6 10       		.byte	0x10
 3551 0da7 F0       		.byte	0xf0
 3552 0da8 CF0D0000 		.4byte	0xdcf
 3553 0dac 08       		.uleb128 0x8
 3554 0dad 626700   		.ascii	"bg\000"
 3555 0db0 10       		.byte	0x10
 3556 0db1 F2       		.byte	0xf2
 3557 0db2 49050000 		.4byte	0x549
 3558 0db6 00       		.byte	0
 3559 0db7 07       		.uleb128 0x7
 3560 0db8 410F0000 		.4byte	.LASF187
 3561 0dbc 10       		.byte	0x10
 3562 0dbd F3       		.byte	0xf3
 3563 0dbe 49050000 		.4byte	0x549
 3564 0dc2 04       		.byte	0x4
 3565 0dc3 08       		.uleb128 0x8
 3566 0dc4 736200   		.ascii	"sb\000"
 3567 0dc7 10       		.byte	0x10
 3568 0dc8 F4       		.byte	0xf4
 3569 0dc9 49050000 		.4byte	0x549
 3570 0dcd 08       		.byte	0x8
 3571 0dce 00       		.byte	0
 3572 0dcf 06       		.uleb128 0x6
 3573 0dd0 14       		.byte	0x14
 3574 0dd1 10       		.byte	0x10
 3575 0dd2 FE       		.byte	0xfe
 3576 0dd3 180E0000 		.4byte	0xe18
 3577 0dd7 17       		.uleb128 0x17
 3578 0dd8 72656C00 		.ascii	"rel\000"
 3579 0ddc 10       		.byte	0x10
 3580 0ddd 0001     		.2byte	0x100
 3581 0ddf 49050000 		.4byte	0x549
 3582 0de3 00       		.byte	0
 3583 0de4 17       		.uleb128 0x17
 3584 0de5 707200   		.ascii	"pr\000"
 3585 0de8 10       		.byte	0x10
 3586 0de9 0101     		.2byte	0x101
 3587 0deb 49050000 		.4byte	0x549
 3588 0def 04       		.byte	0x4
 3589 0df0 18       		.uleb128 0x18
 3590 0df1 B0080000 		.4byte	.LASF166
 3591 0df5 10       		.byte	0x10
 3592 0df6 0201     		.2byte	0x102
 3593 0df8 49050000 		.4byte	0x549
 3594 0dfc 08       		.byte	0x8
 3595 0dfd 18       		.uleb128 0x18
 3596 0dfe 54030000 		.4byte	.LASF167
 3597 0e02 10       		.byte	0x10
 3598 0e03 0301     		.2byte	0x103
 3599 0e05 49050000 		.4byte	0x549
ARM GAS  C:\Users\pearlstl\AppData\Local\Temp\cccjDn63.s 			page 81


 3600 0e09 0C       		.byte	0xc
 3601 0e0a 17       		.uleb128 0x17
 3602 0e0b 696E6100 		.ascii	"ina\000"
 3603 0e0f 10       		.byte	0x10
 3604 0e10 0401     		.2byte	0x104
 3605 0e12 49050000 		.4byte	0x549
 3606 0e16 10       		.byte	0x10
 3607 0e17 00       		.byte	0
 3608 0e18 06       		.uleb128 0x6
 3609 0e19 20       		.byte	0x20
 3610 0e1a 10       		.byte	0x10
 3611 0e1b F9       		.byte	0xf9
 3612 0e1c 500E0000 		.4byte	0xe50
 3613 0e20 08       		.uleb128 0x8
 3614 0e21 626700   		.ascii	"bg\000"
 3615 0e24 10       		.byte	0x10
 3616 0e25 FB       		.byte	0xfb
 3617 0e26 49050000 		.4byte	0x549
 3618 0e2a 00       		.byte	0
 3619 0e2b 07       		.uleb128 0x7
 3620 0e2c 84030000 		.4byte	.LASF184
 3621 0e30 10       		.byte	0x10
 3622 0e31 FC       		.byte	0xfc
 3623 0e32 49050000 		.4byte	0x549
 3624 0e36 04       		.byte	0x4
 3625 0e37 08       		.uleb128 0x8
 3626 0e38 736200   		.ascii	"sb\000"
 3627 0e3b 10       		.byte	0x10
 3628 0e3c FD       		.byte	0xfd
 3629 0e3d 49050000 		.4byte	0x549
 3630 0e41 08       		.byte	0x8
 3631 0e42 17       		.uleb128 0x17
 3632 0e43 62746E00 		.ascii	"btn\000"
 3633 0e47 10       		.byte	0x10
 3634 0e48 0501     		.2byte	0x105
 3635 0e4a CF0D0000 		.4byte	0xdcf
 3636 0e4e 0C       		.byte	0xc
 3637 0e4f 00       		.byte	0
 3638 0e50 19       		.uleb128 0x19
 3639 0e51 0C       		.byte	0xc
 3640 0e52 10       		.byte	0x10
 3641 0e53 0A01     		.2byte	0x10a
 3642 0e55 7F0E0000 		.4byte	0xe7f
 3643 0e59 17       		.uleb128 0x17
 3644 0e5a 626700   		.ascii	"bg\000"
 3645 0e5d 10       		.byte	0x10
 3646 0e5e 0C01     		.2byte	0x10c
 3647 0e60 49050000 		.4byte	0x549
 3648 0e64 00       		.byte	0
 3649 0e65 17       		.uleb128 0x17
 3650 0e66 73656C00 		.ascii	"sel\000"
 3651 0e6a 10       		.byte	0x10
 3652 0e6b 0D01     		.2byte	0x10d
 3653 0e6d 49050000 		.4byte	0x549
 3654 0e71 04       		.byte	0x4
 3655 0e72 17       		.uleb128 0x17
 3656 0e73 736200   		.ascii	"sb\000"
ARM GAS  C:\Users\pearlstl\AppData\Local\Temp\cccjDn63.s 			page 82


 3657 0e76 10       		.byte	0x10
 3658 0e77 0E01     		.2byte	0x10e
 3659 0e79 49050000 		.4byte	0x549
 3660 0e7d 08       		.byte	0x8
 3661 0e7e 00       		.byte	0
 3662 0e7f 19       		.uleb128 0x19
 3663 0e80 08       		.byte	0x8
 3664 0e81 10       		.byte	0x10
 3665 0e82 1301     		.2byte	0x113
 3666 0e84 A20E0000 		.4byte	0xea2
 3667 0e88 17       		.uleb128 0x17
 3668 0e89 626700   		.ascii	"bg\000"
 3669 0e8c 10       		.byte	0x10
 3670 0e8d 1501     		.2byte	0x115
 3671 0e8f 49050000 		.4byte	0x549
 3672 0e93 00       		.byte	0
 3673 0e94 17       		.uleb128 0x17
 3674 0e95 73656C00 		.ascii	"sel\000"
 3675 0e99 10       		.byte	0x10
 3676 0e9a 1601     		.2byte	0x116
 3677 0e9c 49050000 		.4byte	0x549
 3678 0ea0 04       		.byte	0x4
 3679 0ea1 00       		.byte	0
 3680 0ea2 19       		.uleb128 0x19
 3681 0ea3 14       		.byte	0x14
 3682 0ea4 10       		.byte	0x10
 3683 0ea5 1F01     		.2byte	0x11f
 3684 0ea7 EB0E0000 		.4byte	0xeeb
 3685 0eab 17       		.uleb128 0x17
 3686 0eac 626700   		.ascii	"bg\000"
 3687 0eaf 10       		.byte	0x10
 3688 0eb0 2101     		.2byte	0x121
 3689 0eb2 49050000 		.4byte	0x549
 3690 0eb6 00       		.byte	0
 3691 0eb7 17       		.uleb128 0x17
 3692 0eb8 72656C00 		.ascii	"rel\000"
 3693 0ebc 10       		.byte	0x10
 3694 0ebd 2201     		.2byte	0x122
 3695 0ebf 49050000 		.4byte	0x549
 3696 0ec3 04       		.byte	0x4
 3697 0ec4 17       		.uleb128 0x17
 3698 0ec5 707200   		.ascii	"pr\000"
 3699 0ec8 10       		.byte	0x10
 3700 0ec9 2301     		.2byte	0x123
 3701 0ecb 49050000 		.4byte	0x549
 3702 0ecf 08       		.byte	0x8
 3703 0ed0 18       		.uleb128 0x18
 3704 0ed1 B0080000 		.4byte	.LASF166
 3705 0ed5 10       		.byte	0x10
 3706 0ed6 2401     		.2byte	0x124
 3707 0ed8 49050000 		.4byte	0x549
 3708 0edc 0C       		.byte	0xc
 3709 0edd 18       		.uleb128 0x18
 3710 0ede 54030000 		.4byte	.LASF167
 3711 0ee2 10       		.byte	0x10
 3712 0ee3 2501     		.2byte	0x125
 3713 0ee5 49050000 		.4byte	0x549
ARM GAS  C:\Users\pearlstl\AppData\Local\Temp\cccjDn63.s 			page 83


 3714 0ee9 10       		.byte	0x10
 3715 0eea 00       		.byte	0
 3716 0eeb 19       		.uleb128 0x19
 3717 0eec 1C       		.byte	0x1c
 3718 0eed 10       		.byte	0x10
 3719 0eee 1B01     		.2byte	0x11b
 3720 0ef0 1B0F0000 		.4byte	0xf1b
 3721 0ef4 17       		.uleb128 0x17
 3722 0ef5 626700   		.ascii	"bg\000"
 3723 0ef8 10       		.byte	0x10
 3724 0ef9 1D01     		.2byte	0x11d
 3725 0efb 49050000 		.4byte	0x549
 3726 0eff 00       		.byte	0
 3727 0f00 18       		.uleb128 0x18
 3728 0f01 DC070000 		.4byte	.LASF173
 3729 0f05 10       		.byte	0x10
 3730 0f06 1E01     		.2byte	0x11e
 3731 0f08 49050000 		.4byte	0x549
 3732 0f0c 04       		.byte	0x4
 3733 0f0d 17       		.uleb128 0x17
 3734 0f0e 62746E00 		.ascii	"btn\000"
 3735 0f12 10       		.byte	0x10
 3736 0f13 2601     		.2byte	0x126
 3737 0f15 A20E0000 		.4byte	0xea2
 3738 0f19 08       		.byte	0x8
 3739 0f1a 00       		.byte	0
 3740 0f1b 19       		.uleb128 0x19
 3741 0f1c 0C       		.byte	0xc
 3742 0f1d 10       		.byte	0x10
 3743 0f1e 2B01     		.2byte	0x12b
 3744 0f20 4A0F0000 		.4byte	0xf4a
 3745 0f24 17       		.uleb128 0x17
 3746 0f25 626700   		.ascii	"bg\000"
 3747 0f28 10       		.byte	0x10
 3748 0f29 2D01     		.2byte	0x12d
 3749 0f2b 49050000 		.4byte	0x549
 3750 0f2f 00       		.byte	0
 3751 0f30 18       		.uleb128 0x18
 3752 0f31 84030000 		.4byte	.LASF184
 3753 0f35 10       		.byte	0x10
 3754 0f36 2E01     		.2byte	0x12e
 3755 0f38 49050000 		.4byte	0x549
 3756 0f3c 04       		.byte	0x4
 3757 0f3d 17       		.uleb128 0x17
 3758 0f3e 736200   		.ascii	"sb\000"
 3759 0f41 10       		.byte	0x10
 3760 0f42 2F01     		.2byte	0x12f
 3761 0f44 49050000 		.4byte	0x549
 3762 0f48 08       		.byte	0x8
 3763 0f49 00       		.byte	0
 3764 0f4a 19       		.uleb128 0x19
 3765 0f4b 08       		.byte	0x8
 3766 0f4c 10       		.byte	0x10
 3767 0f4d 3401     		.2byte	0x134
 3768 0f4f 6D0F0000 		.4byte	0xf6d
 3769 0f53 17       		.uleb128 0x17
 3770 0f54 626700   		.ascii	"bg\000"
ARM GAS  C:\Users\pearlstl\AppData\Local\Temp\cccjDn63.s 			page 84


 3771 0f57 10       		.byte	0x10
 3772 0f58 3601     		.2byte	0x136
 3773 0f5a 49050000 		.4byte	0x549
 3774 0f5e 00       		.byte	0
 3775 0f5f 18       		.uleb128 0x18
 3776 0f60 51000000 		.4byte	.LASF188
 3777 0f64 10       		.byte	0x10
 3778 0f65 3701     		.2byte	0x137
 3779 0f67 49050000 		.4byte	0x549
 3780 0f6b 04       		.byte	0x4
 3781 0f6c 00       		.byte	0
 3782 0f6d 19       		.uleb128 0x19
 3783 0f6e 08       		.byte	0x8
 3784 0f6f 10       		.byte	0x10
 3785 0f70 4201     		.2byte	0x142
 3786 0f72 900F0000 		.4byte	0xf90
 3787 0f76 17       		.uleb128 0x17
 3788 0f77 72656C00 		.ascii	"rel\000"
 3789 0f7b 10       		.byte	0x10
 3790 0f7c 4401     		.2byte	0x144
 3791 0f7e 49050000 		.4byte	0x549
 3792 0f82 00       		.byte	0
 3793 0f83 17       		.uleb128 0x17
 3794 0f84 707200   		.ascii	"pr\000"
 3795 0f87 10       		.byte	0x10
 3796 0f88 4501     		.2byte	0x145
 3797 0f8a 49050000 		.4byte	0x549
 3798 0f8e 04       		.byte	0x4
 3799 0f8f 00       		.byte	0
 3800 0f90 19       		.uleb128 0x19
 3801 0f91 18       		.byte	0x18
 3802 0f92 10       		.byte	0x10
 3803 0f93 3C01     		.2byte	0x13c
 3804 0f95 D90F0000 		.4byte	0xfd9
 3805 0f99 17       		.uleb128 0x17
 3806 0f9a 626700   		.ascii	"bg\000"
 3807 0f9d 10       		.byte	0x10
 3808 0f9e 3E01     		.2byte	0x13e
 3809 0fa0 49050000 		.4byte	0x549
 3810 0fa4 00       		.byte	0
 3811 0fa5 17       		.uleb128 0x17
 3812 0fa6 736200   		.ascii	"sb\000"
 3813 0fa9 10       		.byte	0x10
 3814 0faa 3F01     		.2byte	0x13f
 3815 0fac 49050000 		.4byte	0x549
 3816 0fb0 04       		.byte	0x4
 3817 0fb1 18       		.uleb128 0x18
 3818 0fb2 06040000 		.4byte	.LASF177
 3819 0fb6 10       		.byte	0x10
 3820 0fb7 4001     		.2byte	0x140
 3821 0fb9 49050000 		.4byte	0x549
 3822 0fbd 08       		.byte	0x8
 3823 0fbe 18       		.uleb128 0x18
 3824 0fbf D80D0000 		.4byte	.LASF189
 3825 0fc3 10       		.byte	0x10
 3826 0fc4 4101     		.2byte	0x141
 3827 0fc6 49050000 		.4byte	0x549
ARM GAS  C:\Users\pearlstl\AppData\Local\Temp\cccjDn63.s 			page 85


 3828 0fca 0C       		.byte	0xc
 3829 0fcb 17       		.uleb128 0x17
 3830 0fcc 62746E00 		.ascii	"btn\000"
 3831 0fd0 10       		.byte	0x10
 3832 0fd1 4601     		.2byte	0x146
 3833 0fd3 6D0F0000 		.4byte	0xf6d
 3834 0fd7 10       		.byte	0x10
 3835 0fd8 00       		.byte	0
 3836 0fd9 1A       		.uleb128 0x1a
 3837 0fda A801     		.2byte	0x1a8
 3838 0fdc 10       		.byte	0x10
 3839 0fdd 29       		.byte	0x29
 3840 0fde 7B110000 		.4byte	0x117b
 3841 0fe2 08       		.uleb128 0x8
 3842 0fe3 73637200 		.ascii	"scr\000"
 3843 0fe7 10       		.byte	0x10
 3844 0fe8 2B       		.byte	0x2b
 3845 0fe9 49050000 		.4byte	0x549
 3846 0fed 00       		.byte	0
 3847 0fee 08       		.uleb128 0x8
 3848 0fef 626700   		.ascii	"bg\000"
 3849 0ff2 10       		.byte	0x10
 3850 0ff3 2C       		.byte	0x2c
 3851 0ff4 49050000 		.4byte	0x549
 3852 0ff8 04       		.byte	0x4
 3853 0ff9 07       		.uleb128 0x7
 3854 0ffa 410B0000 		.4byte	.LASF190
 3855 0ffe 10       		.byte	0x10
 3856 0fff 2D       		.byte	0x2d
 3857 1000 49050000 		.4byte	0x549
 3858 1004 08       		.byte	0x8
 3859 1005 07       		.uleb128 0x7
 3860 1006 E0010000 		.4byte	.LASF191
 3861 100a 10       		.byte	0x10
 3862 100b 30       		.byte	0x30
 3863 100c 49050000 		.4byte	0x549
 3864 1010 0C       		.byte	0xc
 3865 1011 08       		.uleb128 0x8
 3866 1012 62746E00 		.ascii	"btn\000"
 3867 1016 10       		.byte	0x10
 3868 1017 3B       		.byte	0x3b
 3869 1018 F3090000 		.4byte	0x9f3
 3870 101c 10       		.byte	0x10
 3871 101d 07       		.uleb128 0x7
 3872 101e 300B0000 		.4byte	.LASF192
 3873 1022 10       		.byte	0x10
 3874 1023 46       		.byte	0x46
 3875 1024 370A0000 		.4byte	0xa37
 3876 1028 24       		.byte	0x24
 3877 1029 07       		.uleb128 0x7
 3878 102a 870E0000 		.4byte	.LASF193
 3879 102e 10       		.byte	0x10
 3880 102f 4F       		.byte	0x4f
 3881 1030 7B0A0000 		.4byte	0xa7b
 3882 1034 38       		.byte	0x38
 3883 1035 08       		.uleb128 0x8
 3884 1036 696D6700 		.ascii	"img\000"
ARM GAS  C:\Users\pearlstl\AppData\Local\Temp\cccjDn63.s 			page 86


 3885 103a 10       		.byte	0x10
 3886 103b 57       		.byte	0x57
 3887 103c A80A0000 		.4byte	0xaa8
 3888 1040 44       		.byte	0x44
 3889 1041 07       		.uleb128 0x7
 3890 1042 90060000 		.4byte	.LASF73
 3891 1046 10       		.byte	0x10
 3892 1047 5E       		.byte	0x5e
 3893 1048 C90A0000 		.4byte	0xac9
 3894 104c 4C       		.byte	0x4c
 3895 104d 08       		.uleb128 0x8
 3896 104e 6C656400 		.ascii	"led\000"
 3897 1052 10       		.byte	0x10
 3898 1053 62       		.byte	0x62
 3899 1054 49050000 		.4byte	0x549
 3900 1058 50       		.byte	0x50
 3901 1059 08       		.uleb128 0x8
 3902 105a 62617200 		.ascii	"bar\000"
 3903 105e 10       		.byte	0x10
 3904 105f 6A       		.byte	0x6a
 3905 1060 DE0A0000 		.4byte	0xade
 3906 1064 54       		.byte	0x54
 3907 1065 07       		.uleb128 0x7
 3908 1066 C3060000 		.4byte	.LASF194
 3909 106a 10       		.byte	0x10
 3910 106b 73       		.byte	0x73
 3911 106c FE0A0000 		.4byte	0xafe
 3912 1070 5C       		.byte	0x5c
 3913 1071 07       		.uleb128 0x7
 3914 1072 B5000000 		.4byte	.LASF158
 3915 1076 10       		.byte	0x10
 3916 1077 77       		.byte	0x77
 3917 1078 49050000 		.4byte	0x549
 3918 107c 68       		.byte	0x68
 3919 107d 07       		.uleb128 0x7
 3920 107e 59090000 		.4byte	.LASF195
 3921 1082 10       		.byte	0x10
 3922 1083 7B       		.byte	0x7b
 3923 1084 49050000 		.4byte	0x549
 3924 1088 6C       		.byte	0x6c
 3925 1089 08       		.uleb128 0x8
 3926 108a 61726300 		.ascii	"arc\000"
 3927 108e 10       		.byte	0x10
 3928 108f 7F       		.byte	0x7f
 3929 1090 49050000 		.4byte	0x549
 3930 1094 70       		.byte	0x70
 3931 1095 07       		.uleb128 0x7
 3932 1096 D80E0000 		.4byte	.LASF196
 3933 109a 10       		.byte	0x10
 3934 109b 83       		.byte	0x83
 3935 109c 49050000 		.4byte	0x549
 3936 10a0 74       		.byte	0x74
 3937 10a1 08       		.uleb128 0x8
 3938 10a2 737700   		.ascii	"sw\000"
 3939 10a5 10       		.byte	0x10
 3940 10a6 8D       		.byte	0x8d
 3941 10a7 2A0B0000 		.4byte	0xb2a
ARM GAS  C:\Users\pearlstl\AppData\Local\Temp\cccjDn63.s 			page 87


 3942 10ab 78       		.byte	0x78
 3943 10ac 07       		.uleb128 0x7
 3944 10ad 9D020000 		.4byte	.LASF197
 3945 10b1 10       		.byte	0x10
 3946 10b2 91       		.byte	0x91
 3947 10b3 49050000 		.4byte	0x549
 3948 10b7 88       		.byte	0x88
 3949 10b8 07       		.uleb128 0x7
 3950 10b9 170C0000 		.4byte	.LASF198
 3951 10bd 10       		.byte	0x10
 3952 10be 9F       		.byte	0x9f
 3953 10bf 620B0000 		.4byte	0xb62
 3954 10c3 8C       		.byte	0x8c
 3955 10c4 08       		.uleb128 0x8
 3956 10c5 636200   		.ascii	"cb\000"
 3957 10c8 10       		.byte	0x10
 3958 10c9 AE       		.byte	0xae
 3959 10ca 0E0C0000 		.4byte	0xc0e
 3960 10ce AC       		.byte	0xac
 3961 10cf 07       		.uleb128 0x7
 3962 10d0 1D030000 		.4byte	.LASF199
 3963 10d4 10       		.byte	0x10
 3964 10d5 BD       		.byte	0xbd
 3965 10d6 720C0000 		.4byte	0xc72
 3966 10da C4       		.byte	0xc4
 3967 10db 08       		.uleb128 0x8
 3968 10dc 6B6200   		.ascii	"kb\000"
 3969 10df 10       		.byte	0x10
 3970 10e0 CC       		.byte	0xcc
 3971 10e1 D60C0000 		.4byte	0xcd6
 3972 10e5 DC       		.byte	0xdc
 3973 10e6 07       		.uleb128 0x7
 3974 10e7 AB080000 		.4byte	.LASF200
 3975 10eb 10       		.byte	0x10
 3976 10ec D9       		.byte	0xd9
 3977 10ed 210D0000 		.4byte	0xd21
 3978 10f1 F4       		.byte	0xf4
 3979 10f2 1B       		.uleb128 0x1b
 3980 10f3 3A090000 		.4byte	.LASF201
 3981 10f7 10       		.byte	0x10
 3982 10f8 E2       		.byte	0xe2
 3983 10f9 410D0000 		.4byte	0xd41
 3984 10fd 0401     		.2byte	0x104
 3985 10ff 1C       		.uleb128 0x1c
 3986 1100 746100   		.ascii	"ta\000"
 3987 1103 10       		.byte	0x10
 3988 1104 EC       		.byte	0xec
 3989 1105 6C0D0000 		.4byte	0xd6c
 3990 1109 1001     		.2byte	0x110
 3991 110b 1B       		.uleb128 0x1b
 3992 110c 220D0000 		.4byte	.LASF202
 3993 1110 10       		.byte	0x10
 3994 1111 F5       		.byte	0xf5
 3995 1112 A40D0000 		.4byte	0xda4
 3996 1116 2001     		.2byte	0x120
 3997 1118 1D       		.uleb128 0x1d
 3998 1119 2A090000 		.4byte	.LASF203
ARM GAS  C:\Users\pearlstl\AppData\Local\Temp\cccjDn63.s 			page 88


 3999 111d 10       		.byte	0x10
 4000 111e 0601     		.2byte	0x106
 4001 1120 180E0000 		.4byte	0xe18
 4002 1124 2C01     		.2byte	0x12c
 4003 1126 1D       		.uleb128 0x1d
 4004 1127 EC040000 		.4byte	.LASF204
 4005 112b 10       		.byte	0x10
 4006 112c 0F01     		.2byte	0x10f
 4007 112e 500E0000 		.4byte	0xe50
 4008 1132 4C01     		.2byte	0x14c
 4009 1134 1D       		.uleb128 0x1d
 4010 1135 760F0000 		.4byte	.LASF205
 4011 1139 10       		.byte	0x10
 4012 113a 1701     		.2byte	0x117
 4013 113c 7F0E0000 		.4byte	0xe7f
 4014 1140 5801     		.2byte	0x158
 4015 1142 1D       		.uleb128 0x1d
 4016 1143 1A080000 		.4byte	.LASF206
 4017 1147 10       		.byte	0x10
 4018 1148 2701     		.2byte	0x127
 4019 114a EB0E0000 		.4byte	0xeeb
 4020 114e 6001     		.2byte	0x160
 4021 1150 1D       		.uleb128 0x1d
 4022 1151 DD020000 		.4byte	.LASF207
 4023 1155 10       		.byte	0x10
 4024 1156 3001     		.2byte	0x130
 4025 1158 1B0F0000 		.4byte	0xf1b
 4026 115c 7C01     		.2byte	0x17c
 4027 115e 1D       		.uleb128 0x1d
 4028 115f 3B040000 		.4byte	.LASF208
 4029 1163 10       		.byte	0x10
 4030 1164 3801     		.2byte	0x138
 4031 1166 4A0F0000 		.4byte	0xf4a
 4032 116a 8801     		.2byte	0x188
 4033 116c 1E       		.uleb128 0x1e
 4034 116d 77696E00 		.ascii	"win\000"
 4035 1171 10       		.byte	0x10
 4036 1172 4701     		.2byte	0x147
 4037 1174 900F0000 		.4byte	0xf90
 4038 1178 9001     		.2byte	0x190
 4039 117a 00       		.byte	0
 4040 117b 1A       		.uleb128 0x1a
 4041 117c A801     		.2byte	0x1a8
 4042 117e 10       		.byte	0x10
 4043 117f 27       		.byte	0x27
 4044 1180 92110000 		.4byte	0x1192
 4045 1184 18       		.uleb128 0x18
 4046 1185 B9090000 		.4byte	.LASF209
 4047 1189 10       		.byte	0x10
 4048 118a 4901     		.2byte	0x149
 4049 118c D90F0000 		.4byte	0xfd9
 4050 1190 00       		.byte	0
 4051 1191 00       		.byte	0
 4052 1192 12       		.uleb128 0x12
 4053 1193 D8050000 		.4byte	.LASF210
 4054 1197 10       		.byte	0x10
 4055 1198 5401     		.2byte	0x154
ARM GAS  C:\Users\pearlstl\AppData\Local\Temp\cccjDn63.s 			page 89


 4056 119a 7B110000 		.4byte	0x117b
 4057 119e 1F       		.uleb128 0x1f
 4058 119f E80B0000 		.4byte	.LASF211
 4059 11a3 02       		.byte	0x2
 4060 11a4 D9       		.byte	0xd9
 4061 11a5 D7080000 		.4byte	0x8d7
 4062 11a9 03       		.byte	0x3
 4063 11aa C5110000 		.4byte	0x11c5
 4064 11ae 20       		.uleb128 0x20
 4065 11af 59090000 		.4byte	.LASF195
 4066 11b3 02       		.byte	0x2
 4067 11b4 D9       		.byte	0xd9
 4068 11b5 C5110000 		.4byte	0x11c5
 4069 11b9 20       		.uleb128 0x20
 4070 11ba D5010000 		.4byte	.LASF51
 4071 11be 02       		.byte	0x2
 4072 11bf D9       		.byte	0xd9
 4073 11c0 E8090000 		.4byte	0x9e8
 4074 11c4 00       		.byte	0
 4075 11c5 0D       		.uleb128 0xd
 4076 11c6 04       		.byte	0x4
 4077 11c7 CB110000 		.4byte	0x11cb
 4078 11cb 0E       		.uleb128 0xe
 4079 11cc E2080000 		.4byte	0x8e2
 4080 11d0 1F       		.uleb128 0x1f
 4081 11d1 22070000 		.4byte	.LASF212
 4082 11d5 02       		.byte	0x2
 4083 11d6 A9       		.byte	0xa9
 4084 11d7 C3000000 		.4byte	0xc3
 4085 11db 03       		.byte	0x3
 4086 11dc EC110000 		.4byte	0x11ec
 4087 11e0 20       		.uleb128 0x20
 4088 11e1 B5000000 		.4byte	.LASF158
 4089 11e5 02       		.byte	0x2
 4090 11e6 A9       		.byte	0xa9
 4091 11e7 C5110000 		.4byte	0x11c5
 4092 11eb 00       		.byte	0
 4093 11ec 1F       		.uleb128 0x1f
 4094 11ed 30010000 		.4byte	.LASF213
 4095 11f1 02       		.byte	0x2
 4096 11f2 9F       		.byte	0x9f
 4097 11f3 C3000000 		.4byte	0xc3
 4098 11f7 03       		.byte	0x3
 4099 11f8 08120000 		.4byte	0x1208
 4100 11fc 20       		.uleb128 0x20
 4101 11fd B5000000 		.4byte	.LASF158
 4102 1201 02       		.byte	0x2
 4103 1202 9F       		.byte	0x9f
 4104 1203 C5110000 		.4byte	0x11c5
 4105 1207 00       		.byte	0
 4106 1208 21       		.uleb128 0x21
 4107 1209 EB050000 		.4byte	.LASF214
 4108 120d 01       		.byte	0x1
 4109 120e 1201     		.2byte	0x112
 4110 1210 D5010000 		.4byte	0x1d5
 4111 1214 01       		.byte	0x1
 4112 1215 7C120000 		.4byte	0x127c
ARM GAS  C:\Users\pearlstl\AppData\Local\Temp\cccjDn63.s 			page 90


 4113 1219 22       		.uleb128 0x22
 4114 121a 59090000 		.4byte	.LASF195
 4115 121e 01       		.byte	0x1
 4116 121f 1201     		.2byte	0x112
 4117 1221 7C120000 		.4byte	0x127c
 4118 1225 22       		.uleb128 0x22
 4119 1226 15080000 		.4byte	.LASF215
 4120 122a 01       		.byte	0x1
 4121 122b 1201     		.2byte	0x112
 4122 122d C7050000 		.4byte	0x5c7
 4123 1231 22       		.uleb128 0x22
 4124 1232 780C0000 		.4byte	.LASF216
 4125 1236 01       		.byte	0x1
 4126 1237 1201     		.2byte	0x112
 4127 1239 39070000 		.4byte	0x739
 4128 123d 23       		.uleb128 0x23
 4129 123e 24       		.uleb128 0x24
 4130 123f 170A0000 		.4byte	.LASF217
 4131 1243 01       		.byte	0x1
 4132 1244 1E01     		.2byte	0x11e
 4133 1246 D7080000 		.4byte	0x8d7
 4134 124a 24       		.uleb128 0x24
 4135 124b B9090000 		.4byte	.LASF209
 4136 124f 01       		.byte	0x1
 4137 1250 1F01     		.2byte	0x11f
 4138 1252 D7080000 		.4byte	0x8d7
 4139 1256 25       		.uleb128 0x25
 4140 1257 65787400 		.ascii	"ext\000"
 4141 125b 01       		.byte	0x1
 4142 125c 2001     		.2byte	0x120
 4143 125e 82120000 		.4byte	0x1282
 4144 1262 24       		.uleb128 0x24
 4145 1263 840D0000 		.4byte	.LASF218
 4146 1267 01       		.byte	0x1
 4147 1268 2501     		.2byte	0x125
 4148 126a CE000000 		.4byte	0xce
 4149 126e 24       		.uleb128 0x24
 4150 126f D2080000 		.4byte	.LASF219
 4151 1273 01       		.byte	0x1
 4152 1274 2901     		.2byte	0x129
 4153 1276 3E050000 		.4byte	0x53e
 4154 127a 00       		.byte	0
 4155 127b 00       		.byte	0
 4156 127c 0D       		.uleb128 0xd
 4157 127d 04       		.byte	0x4
 4158 127e E2080000 		.4byte	0x8e2
 4159 1282 0D       		.uleb128 0xd
 4160 1283 04       		.byte	0x4
 4161 1284 CA090000 		.4byte	0x9ca
 4162 1288 21       		.uleb128 0x21
 4163 1289 B0050000 		.4byte	.LASF220
 4164 128d 01       		.byte	0x1
 4165 128e 4701     		.2byte	0x147
 4166 1290 68050000 		.4byte	0x568
 4167 1294 01       		.byte	0x1
 4168 1295 D6120000 		.4byte	0x12d6
 4169 1299 22       		.uleb128 0x22
ARM GAS  C:\Users\pearlstl\AppData\Local\Temp\cccjDn63.s 			page 91


 4170 129a 59090000 		.4byte	.LASF195
 4171 129e 01       		.byte	0x1
 4172 129f 4701     		.2byte	0x147
 4173 12a1 7C120000 		.4byte	0x127c
 4174 12a5 22       		.uleb128 0x22
 4175 12a6 6D010000 		.4byte	.LASF221
 4176 12aa 01       		.byte	0x1
 4177 12ab 4701     		.2byte	0x147
 4178 12ad 1F080000 		.4byte	0x81f
 4179 12b1 22       		.uleb128 0x22
 4180 12b2 8A060000 		.4byte	.LASF222
 4181 12b6 01       		.byte	0x1
 4182 12b7 4701     		.2byte	0x147
 4183 12b9 FA000000 		.4byte	0xfa
 4184 12bd 25       		.uleb128 0x25
 4185 12be 72657300 		.ascii	"res\000"
 4186 12c2 01       		.byte	0x1
 4187 12c3 4901     		.2byte	0x149
 4188 12c5 68050000 		.4byte	0x568
 4189 12c9 25       		.uleb128 0x25
 4190 12ca 65787400 		.ascii	"ext\000"
 4191 12ce 01       		.byte	0x1
 4192 12cf 5001     		.2byte	0x150
 4193 12d1 82120000 		.4byte	0x1282
 4194 12d5 00       		.byte	0
 4195 12d6 26       		.uleb128 0x26
 4196 12d7 200C0000 		.4byte	.LASF223
 4197 12db 02       		.byte	0x2
 4198 12dc 81       		.byte	0x81
 4199 12dd 03       		.byte	0x3
 4200 12de 04130000 		.4byte	0x1304
 4201 12e2 20       		.uleb128 0x20
 4202 12e3 59090000 		.4byte	.LASF195
 4203 12e7 02       		.byte	0x2
 4204 12e8 81       		.byte	0x81
 4205 12e9 7C120000 		.4byte	0x127c
 4206 12ed 20       		.uleb128 0x20
 4207 12ee D5010000 		.4byte	.LASF51
 4208 12f2 02       		.byte	0x2
 4209 12f3 81       		.byte	0x81
 4210 12f4 E8090000 		.4byte	0x9e8
 4211 12f8 20       		.uleb128 0x20
 4212 12f9 B9090000 		.4byte	.LASF209
 4213 12fd 02       		.byte	0x2
 4214 12fe 81       		.byte	0x81
 4215 12ff 49050000 		.4byte	0x549
 4216 1303 00       		.byte	0
 4217 1304 26       		.uleb128 0x26
 4218 1305 50070000 		.4byte	.LASF224
 4219 1309 02       		.byte	0x2
 4220 130a 6B       		.byte	0x6b
 4221 130b 03       		.byte	0x3
 4222 130c 27130000 		.4byte	0x1327
 4223 1310 20       		.uleb128 0x20
 4224 1311 59090000 		.4byte	.LASF195
 4225 1315 02       		.byte	0x2
 4226 1316 6B       		.byte	0x6b
ARM GAS  C:\Users\pearlstl\AppData\Local\Temp\cccjDn63.s 			page 92


 4227 1317 7C120000 		.4byte	0x127c
 4228 131b 20       		.uleb128 0x20
 4229 131c 41040000 		.4byte	.LASF225
 4230 1320 02       		.byte	0x2
 4231 1321 6B       		.byte	0x6b
 4232 1322 C3000000 		.4byte	0xc3
 4233 1326 00       		.byte	0
 4234 1327 27       		.uleb128 0x27
 4235 1328 F8020000 		.4byte	.LASF226
 4236 132c 01       		.byte	0x1
 4237 132d 9001     		.2byte	0x190
 4238 132f 01       		.byte	0x1
 4239 1330 6B140000 		.4byte	0x146b
 4240 1334 22       		.uleb128 0x22
 4241 1335 59090000 		.4byte	.LASF195
 4242 1339 01       		.byte	0x1
 4243 133a 9001     		.2byte	0x190
 4244 133c 7C120000 		.4byte	0x127c
 4245 1340 22       		.uleb128 0x22
 4246 1341 15080000 		.4byte	.LASF215
 4247 1345 01       		.byte	0x1
 4248 1346 9001     		.2byte	0x190
 4249 1348 C7050000 		.4byte	0x5c7
 4250 134c 24       		.uleb128 0x24
 4251 134d C5080000 		.4byte	.LASF227
 4252 1351 01       		.byte	0x1
 4253 1352 9201     		.2byte	0x192
 4254 1354 3E050000 		.4byte	0x53e
 4255 1358 25       		.uleb128 0x25
 4256 1359 65787400 		.ascii	"ext\000"
 4257 135d 01       		.byte	0x1
 4258 135e 9301     		.2byte	0x193
 4259 1360 82120000 		.4byte	0x1282
 4260 1364 24       		.uleb128 0x24
 4261 1365 B9090000 		.4byte	.LASF209
 4262 1369 01       		.byte	0x1
 4263 136a 9401     		.2byte	0x194
 4264 136c D7080000 		.4byte	0x8d7
 4265 1370 24       		.uleb128 0x24
 4266 1371 6C0F0000 		.4byte	.LASF104
 4267 1375 01       		.byte	0x1
 4268 1376 9501     		.2byte	0x195
 4269 1378 91020000 		.4byte	0x291
 4270 137c 25       		.uleb128 0x25
 4271 137d 7200     		.ascii	"r\000"
 4272 137f 01       		.byte	0x1
 4273 1380 9701     		.2byte	0x197
 4274 1382 EF000000 		.4byte	0xef
 4275 1386 24       		.uleb128 0x24
 4276 1387 2A010000 		.4byte	.LASF228
 4277 138b 01       		.byte	0x1
 4278 138c 9801     		.2byte	0x198
 4279 138e EF000000 		.4byte	0xef
 4280 1392 24       		.uleb128 0x24
 4281 1393 1A0E0000 		.4byte	.LASF229
 4282 1397 01       		.byte	0x1
 4283 1398 9901     		.2byte	0x199
ARM GAS  C:\Users\pearlstl\AppData\Local\Temp\cccjDn63.s 			page 93


 4284 139a EF000000 		.4byte	0xef
 4285 139e 24       		.uleb128 0x24
 4286 139f 02070000 		.4byte	.LASF230
 4287 13a3 01       		.byte	0x1
 4288 13a4 9A01     		.2byte	0x19a
 4289 13a6 CE000000 		.4byte	0xce
 4290 13aa 24       		.uleb128 0x24
 4291 13ab 14000000 		.4byte	.LASF147
 4292 13af 01       		.byte	0x1
 4293 13b0 9B01     		.2byte	0x19b
 4294 13b2 C3000000 		.4byte	0xc3
 4295 13b6 25       		.uleb128 0x25
 4296 13b7 6D696E00 		.ascii	"min\000"
 4297 13bb 01       		.byte	0x1
 4298 13bc 9C01     		.2byte	0x19c
 4299 13be C3000000 		.4byte	0xc3
 4300 13c2 25       		.uleb128 0x25
 4301 13c3 6D617800 		.ascii	"max\000"
 4302 13c7 01       		.byte	0x1
 4303 13c8 9D01     		.2byte	0x19d
 4304 13ca C3000000 		.4byte	0xc3
 4305 13ce 24       		.uleb128 0x24
 4306 13cf FE090000 		.4byte	.LASF231
 4307 13d3 01       		.byte	0x1
 4308 13d4 9E01     		.2byte	0x19e
 4309 13d6 C8020000 		.4byte	0x2c8
 4310 13da 24       		.uleb128 0x24
 4311 13db 6D030000 		.4byte	.LASF232
 4312 13df 01       		.byte	0x1
 4313 13e0 9F01     		.2byte	0x19f
 4314 13e2 C8020000 		.4byte	0x2c8
 4315 13e6 24       		.uleb128 0x24
 4316 13e7 95060000 		.4byte	.LASF233
 4317 13eb 01       		.byte	0x1
 4318 13ec A001     		.2byte	0x1a0
 4319 13ee C8020000 		.4byte	0x2c8
 4320 13f2 24       		.uleb128 0x24
 4321 13f3 790B0000 		.4byte	.LASF234
 4322 13f7 01       		.byte	0x1
 4323 13f8 A101     		.2byte	0x1a1
 4324 13fa C8020000 		.4byte	0x2c8
 4325 13fe 25       		.uleb128 0x25
 4326 13ff 6900     		.ascii	"i\000"
 4327 1401 01       		.byte	0x1
 4328 1402 A201     		.2byte	0x1a2
 4329 1404 B8000000 		.4byte	0xb8
 4330 1408 24       		.uleb128 0x24
 4331 1409 7A050000 		.4byte	.LASF235
 4332 140d 01       		.byte	0x1
 4333 140e CA01     		.2byte	0x1ca
 4334 1410 3E050000 		.4byte	0x53e
 4335 1414 24       		.uleb128 0x24
 4336 1415 92010000 		.4byte	.LASF236
 4337 1419 01       		.byte	0x1
 4338 141a D001     		.2byte	0x1d0
 4339 141c 08030000 		.4byte	0x308
 4340 1420 23       		.uleb128 0x23
ARM GAS  C:\Users\pearlstl\AppData\Local\Temp\cccjDn63.s 			page 94


 4341 1421 24       		.uleb128 0x24
 4342 1422 250E0000 		.4byte	.LASF237
 4343 1426 01       		.byte	0x1
 4344 1427 AA01     		.2byte	0x1aa
 4345 1429 C3000000 		.4byte	0xc3
 4346 142d 24       		.uleb128 0x24
 4347 142e 3F090000 		.4byte	.LASF238
 4348 1432 01       		.byte	0x1
 4349 1433 AD01     		.2byte	0x1ad
 4350 1435 C3000000 		.4byte	0xc3
 4351 1439 24       		.uleb128 0x24
 4352 143a 5B030000 		.4byte	.LASF239
 4353 143e 01       		.byte	0x1
 4354 143f AE01     		.2byte	0x1ae
 4355 1441 C3000000 		.4byte	0xc3
 4356 1445 25       		.uleb128 0x25
 4357 1446 72656D00 		.ascii	"rem\000"
 4358 144a 01       		.byte	0x1
 4359 144b B601     		.2byte	0x1b6
 4360 144d CE000000 		.4byte	0xce
 4361 1451 24       		.uleb128 0x24
 4362 1452 7A0E0000 		.4byte	.LASF240
 4363 1456 01       		.byte	0x1
 4364 1457 B701     		.2byte	0x1b7
 4365 1459 C3000000 		.4byte	0xc3
 4366 145d 24       		.uleb128 0x24
 4367 145e E20B0000 		.4byte	.LASF241
 4368 1462 01       		.byte	0x1
 4369 1463 B801     		.2byte	0x1b8
 4370 1465 C3000000 		.4byte	0xc3
 4371 1469 00       		.byte	0
 4372 146a 00       		.byte	0
 4373 146b 27       		.uleb128 0x27
 4374 146c A50E0000 		.4byte	.LASF242
 4375 1470 01       		.byte	0x1
 4376 1471 5E01     		.2byte	0x15e
 4377 1473 01       		.byte	0x1
 4378 1474 6F150000 		.4byte	0x156f
 4379 1478 22       		.uleb128 0x22
 4380 1479 59090000 		.4byte	.LASF195
 4381 147d 01       		.byte	0x1
 4382 147e 5E01     		.2byte	0x15e
 4383 1480 7C120000 		.4byte	0x127c
 4384 1484 22       		.uleb128 0x22
 4385 1485 15080000 		.4byte	.LASF215
 4386 1489 01       		.byte	0x1
 4387 148a 5E01     		.2byte	0x15e
 4388 148c C7050000 		.4byte	0x5c7
 4389 1490 24       		.uleb128 0x24
 4390 1491 95090000 		.4byte	.LASF243
 4391 1495 01       		.byte	0x1
 4392 1496 6001     		.2byte	0x160
 4393 1498 6F150000 		.4byte	0x156f
 4394 149c 25       		.uleb128 0x25
 4395 149d 65787400 		.ascii	"ext\000"
 4396 14a1 01       		.byte	0x1
 4397 14a2 6201     		.2byte	0x162
ARM GAS  C:\Users\pearlstl\AppData\Local\Temp\cccjDn63.s 			page 95


 4398 14a4 82120000 		.4byte	0x1282
 4399 14a8 24       		.uleb128 0x24
 4400 14a9 B9090000 		.4byte	.LASF209
 4401 14ad 01       		.byte	0x1
 4402 14ae 6301     		.2byte	0x163
 4403 14b0 D7080000 		.4byte	0x8d7
 4404 14b4 24       		.uleb128 0x24
 4405 14b5 6C0F0000 		.4byte	.LASF104
 4406 14b9 01       		.byte	0x1
 4407 14ba 6401     		.2byte	0x164
 4408 14bc 91020000 		.4byte	0x291
 4409 14c0 25       		.uleb128 0x25
 4410 14c1 7200     		.ascii	"r\000"
 4411 14c3 01       		.byte	0x1
 4412 14c4 6501     		.2byte	0x165
 4413 14c6 EF000000 		.4byte	0xef
 4414 14ca 24       		.uleb128 0x24
 4415 14cb 2A010000 		.4byte	.LASF228
 4416 14cf 01       		.byte	0x1
 4417 14d0 6601     		.2byte	0x166
 4418 14d2 EF000000 		.4byte	0xef
 4419 14d6 24       		.uleb128 0x24
 4420 14d7 1A0E0000 		.4byte	.LASF229
 4421 14db 01       		.byte	0x1
 4422 14dc 6701     		.2byte	0x167
 4423 14de EF000000 		.4byte	0xef
 4424 14e2 24       		.uleb128 0x24
 4425 14e3 290F0000 		.4byte	.LASF146
 4426 14e7 01       		.byte	0x1
 4427 14e8 6801     		.2byte	0x168
 4428 14ea C3000000 		.4byte	0xc3
 4429 14ee 24       		.uleb128 0x24
 4430 14ef F1070000 		.4byte	.LASF244
 4431 14f3 01       		.byte	0x1
 4432 14f4 6901     		.2byte	0x169
 4433 14f6 CE000000 		.4byte	0xce
 4434 14fa 24       		.uleb128 0x24
 4435 14fb 14000000 		.4byte	.LASF147
 4436 14ff 01       		.byte	0x1
 4437 1500 6A01     		.2byte	0x16a
 4438 1502 C3000000 		.4byte	0xc3
 4439 1506 25       		.uleb128 0x25
 4440 1507 6D696E00 		.ascii	"min\000"
 4441 150b 01       		.byte	0x1
 4442 150c 6B01     		.2byte	0x16b
 4443 150e C3000000 		.4byte	0xc3
 4444 1512 25       		.uleb128 0x25
 4445 1513 6D617800 		.ascii	"max\000"
 4446 1517 01       		.byte	0x1
 4447 1518 6C01     		.2byte	0x16c
 4448 151a C3000000 		.4byte	0xc3
 4449 151e 25       		.uleb128 0x25
 4450 151f 6900     		.ascii	"i\000"
 4451 1521 01       		.byte	0x1
 4452 1522 6E01     		.2byte	0x16e
 4453 1524 B8000000 		.4byte	0xb8
 4454 1528 23       		.uleb128 0x23
ARM GAS  C:\Users\pearlstl\AppData\Local\Temp\cccjDn63.s 			page 96


 4455 1529 24       		.uleb128 0x24
 4456 152a 02070000 		.4byte	.LASF230
 4457 152e 01       		.byte	0x1
 4458 152f 7101     		.2byte	0x171
 4459 1531 C3000000 		.4byte	0xc3
 4460 1535 25       		.uleb128 0x25
 4461 1536 7900     		.ascii	"y\000"
 4462 1538 01       		.byte	0x1
 4463 1539 7301     		.2byte	0x173
 4464 153b EF000000 		.4byte	0xef
 4465 153f 25       		.uleb128 0x25
 4466 1540 7800     		.ascii	"x\000"
 4467 1542 01       		.byte	0x1
 4468 1543 7601     		.2byte	0x176
 4469 1545 EF000000 		.4byte	0xef
 4470 1549 24       		.uleb128 0x24
 4471 154a AD020000 		.4byte	.LASF245
 4472 154e 01       		.byte	0x1
 4473 154f 7901     		.2byte	0x179
 4474 1551 C3000000 		.4byte	0xc3
 4475 1555 24       		.uleb128 0x24
 4476 1556 12030000 		.4byte	.LASF246
 4477 155a 01       		.byte	0x1
 4478 155b 7D01     		.2byte	0x17d
 4479 155d 08030000 		.4byte	0x308
 4480 1561 24       		.uleb128 0x24
 4481 1562 F3040000 		.4byte	.LASF247
 4482 1566 01       		.byte	0x1
 4483 1567 7E01     		.2byte	0x17e
 4484 1569 C8020000 		.4byte	0x2c8
 4485 156d 00       		.byte	0
 4486 156e 00       		.byte	0
 4487 156f 28       		.uleb128 0x28
 4488 1570 A4020000 		.4byte	0x2a4
 4489 1574 7F150000 		.4byte	0x157f
 4490 1578 29       		.uleb128 0x29
 4491 1579 9D020000 		.4byte	0x29d
 4492 157d 0F       		.byte	0xf
 4493 157e 00       		.byte	0
 4494 157f 2A       		.uleb128 0x2a
 4495 1580 08120000 		.4byte	0x1208
 4496 1584 00000000 		.4byte	.LFB54
 4497 1588 80040000 		.4byte	.LFE54-.LFB54
 4498 158c 01       		.uleb128 0x1
 4499 158d 9C       		.byte	0x9c
 4500 158e F61B0000 		.4byte	0x1bf6
 4501 1592 2B       		.uleb128 0x2b
 4502 1593 19120000 		.4byte	0x1219
 4503 1597 00000000 		.4byte	.LLST0
 4504 159b 2B       		.uleb128 0x2b
 4505 159c 25120000 		.4byte	0x1225
 4506 15a0 8C000000 		.4byte	.LLST1
 4507 15a4 2B       		.uleb128 0x2b
 4508 15a5 31120000 		.4byte	0x1231
 4509 15a9 C4000000 		.4byte	.LLST2
 4510 15ad 2C       		.uleb128 0x2c
 4511 15ae 24000000 		.4byte	.LBB51
ARM GAS  C:\Users\pearlstl\AppData\Local\Temp\cccjDn63.s 			page 97


 4512 15b2 2A040000 		.4byte	.LBE51-.LBB51
 4513 15b6 2B       		.uleb128 0x2b
 4514 15b7 31120000 		.4byte	0x1231
 4515 15bb FE000000 		.4byte	.LLST3
 4516 15bf 2B       		.uleb128 0x2b
 4517 15c0 25120000 		.4byte	0x1225
 4518 15c4 1E010000 		.4byte	.LLST4
 4519 15c8 2B       		.uleb128 0x2b
 4520 15c9 19120000 		.4byte	0x1219
 4521 15cd 40010000 		.4byte	.LLST5
 4522 15d1 2C       		.uleb128 0x2c
 4523 15d2 24000000 		.4byte	.LBB52
 4524 15d6 2A040000 		.4byte	.LBE52-.LBB52
 4525 15da 2D       		.uleb128 0x2d
 4526 15db 3E120000 		.4byte	0x123e
 4527 15df 62010000 		.4byte	.LLST6
 4528 15e3 2D       		.uleb128 0x2d
 4529 15e4 4A120000 		.4byte	0x124a
 4530 15e8 8F010000 		.4byte	.LLST7
 4531 15ec 2D       		.uleb128 0x2d
 4532 15ed 56120000 		.4byte	0x1256
 4533 15f1 BC010000 		.4byte	.LLST8
 4534 15f5 2D       		.uleb128 0x2d
 4535 15f6 62120000 		.4byte	0x1262
 4536 15fa E9010000 		.4byte	.LLST9
 4537 15fe 2E       		.uleb128 0x2e
 4538 15ff 6E120000 		.4byte	0x126e
 4539 1603 03       		.uleb128 0x3
 4540 1604 91       		.byte	0x91
 4541 1605 E87D     		.sleb128 -280
 4542 1607 2F       		.uleb128 0x2f
 4543 1608 6B140000 		.4byte	0x146b
 4544 160c 38000000 		.4byte	.LBB53
 4545 1610 9E010000 		.4byte	.LBE53-.LBB53
 4546 1614 01       		.byte	0x1
 4547 1615 2201     		.2byte	0x122
 4548 1617 9A180000 		.4byte	0x189a
 4549 161b 2B       		.uleb128 0x2b
 4550 161c 84140000 		.4byte	0x1484
 4551 1620 FC010000 		.4byte	.LLST10
 4552 1624 2B       		.uleb128 0x2b
 4553 1625 78140000 		.4byte	0x1478
 4554 1629 1E020000 		.4byte	.LLST11
 4555 162d 2C       		.uleb128 0x2c
 4556 162e 38000000 		.4byte	.LBB54
 4557 1632 9E010000 		.4byte	.LBE54-.LBB54
 4558 1636 2E       		.uleb128 0x2e
 4559 1637 90140000 		.4byte	0x1490
 4560 163b 03       		.uleb128 0x3
 4561 163c 91       		.byte	0x91
 4562 163d 887F     		.sleb128 -120
 4563 163f 2D       		.uleb128 0x2d
 4564 1640 9C140000 		.4byte	0x149c
 4565 1644 49020000 		.4byte	.LLST12
 4566 1648 2D       		.uleb128 0x2d
 4567 1649 A8140000 		.4byte	0x14a8
 4568 164d 67020000 		.4byte	.LLST13
ARM GAS  C:\Users\pearlstl\AppData\Local\Temp\cccjDn63.s 			page 98


 4569 1651 2D       		.uleb128 0x2d
 4570 1652 B4140000 		.4byte	0x14b4
 4571 1656 90020000 		.4byte	.LLST14
 4572 165a 2D       		.uleb128 0x2d
 4573 165b C0140000 		.4byte	0x14c0
 4574 165f B2020000 		.4byte	.LLST15
 4575 1663 30       		.uleb128 0x30
 4576 1664 CA140000 		.4byte	0x14ca
 4577 1668 30       		.uleb128 0x30
 4578 1669 D6140000 		.4byte	0x14d6
 4579 166d 30       		.uleb128 0x30
 4580 166e E2140000 		.4byte	0x14e2
 4581 1672 2D       		.uleb128 0x2d
 4582 1673 EE140000 		.4byte	0x14ee
 4583 1677 DD020000 		.4byte	.LLST16
 4584 167b 30       		.uleb128 0x30
 4585 167c FA140000 		.4byte	0x14fa
 4586 1680 30       		.uleb128 0x30
 4587 1681 06150000 		.4byte	0x1506
 4588 1685 30       		.uleb128 0x30
 4589 1686 12150000 		.4byte	0x1512
 4590 168a 2D       		.uleb128 0x2d
 4591 168b 1E150000 		.4byte	0x151e
 4592 168f 08030000 		.4byte	.LLST17
 4593 1693 31       		.uleb128 0x31
 4594 1694 EC110000 		.4byte	0x11ec
 4595 1698 B4000000 		.4byte	.LBB55
 4596 169c 00000000 		.4byte	.Ldebug_ranges0+0
 4597 16a0 01       		.byte	0x1
 4598 16a1 6B01     		.2byte	0x16b
 4599 16a3 BD160000 		.4byte	0x16bd
 4600 16a7 32       		.uleb128 0x32
 4601 16a8 FC110000 		.4byte	0x11fc
 4602 16ac 33       		.uleb128 0x33
 4603 16ad C2000000 		.4byte	.LVL24
 4604 16b1 29250000 		.4byte	0x2529
 4605 16b5 34       		.uleb128 0x34
 4606 16b6 01       		.uleb128 0x1
 4607 16b7 50       		.byte	0x50
 4608 16b8 02       		.uleb128 0x2
 4609 16b9 77       		.byte	0x77
 4610 16ba 00       		.sleb128 0
 4611 16bb 00       		.byte	0
 4612 16bc 00       		.byte	0
 4613 16bd 31       		.uleb128 0x31
 4614 16be D0110000 		.4byte	0x11d0
 4615 16c2 C4000000 		.4byte	.LBB59
 4616 16c6 18000000 		.4byte	.Ldebug_ranges0+0x18
 4617 16ca 01       		.byte	0x1
 4618 16cb 6C01     		.2byte	0x16c
 4619 16cd EB160000 		.4byte	0x16eb
 4620 16d1 2B       		.uleb128 0x2b
 4621 16d2 E0110000 		.4byte	0x11e0
 4622 16d6 3E030000 		.4byte	.LLST18
 4623 16da 33       		.uleb128 0x33
 4624 16db CE000000 		.4byte	.LVL27
 4625 16df 34250000 		.4byte	0x2534
ARM GAS  C:\Users\pearlstl\AppData\Local\Temp\cccjDn63.s 			page 99


 4626 16e3 34       		.uleb128 0x34
 4627 16e4 01       		.uleb128 0x1
 4628 16e5 50       		.byte	0x50
 4629 16e6 02       		.uleb128 0x2
 4630 16e7 77       		.byte	0x77
 4631 16e8 00       		.sleb128 0
 4632 16e9 00       		.byte	0
 4633 16ea 00       		.byte	0
 4634 16eb 35       		.uleb128 0x35
 4635 16ec E4000000 		.4byte	.LBB63
 4636 16f0 E8000000 		.4byte	.LBE63-.LBB63
 4637 16f4 10180000 		.4byte	0x1810
 4638 16f8 2D       		.uleb128 0x2d
 4639 16f9 29150000 		.4byte	0x1529
 4640 16fd 51030000 		.4byte	.LLST19
 4641 1701 2D       		.uleb128 0x2d
 4642 1702 35150000 		.4byte	0x1535
 4643 1706 87030000 		.4byte	.LLST20
 4644 170a 2D       		.uleb128 0x2d
 4645 170b 3F150000 		.4byte	0x153f
 4646 170f B4030000 		.4byte	.LLST21
 4647 1713 2D       		.uleb128 0x2d
 4648 1714 49150000 		.4byte	0x1549
 4649 1718 E1030000 		.4byte	.LLST22
 4650 171c 2E       		.uleb128 0x2e
 4651 171d 55150000 		.4byte	0x1555
 4652 1721 03       		.uleb128 0x3
 4653 1722 91       		.byte	0x91
 4654 1723 B87E     		.sleb128 -200
 4655 1725 2E       		.uleb128 0x2e
 4656 1726 61150000 		.4byte	0x1561
 4657 172a 03       		.uleb128 0x3
 4658 172b 91       		.byte	0x91
 4659 172c E87D     		.sleb128 -280
 4660 172e 36       		.uleb128 0x36
 4661 172f 10010000 		.4byte	.LVL32
 4662 1733 3F250000 		.4byte	0x253f
 4663 1737 42170000 		.4byte	0x1742
 4664 173b 34       		.uleb128 0x34
 4665 173c 01       		.uleb128 0x1
 4666 173d 50       		.byte	0x50
 4667 173e 02       		.uleb128 0x2
 4668 173f 75       		.byte	0x75
 4669 1740 00       		.sleb128 0
 4670 1741 00       		.byte	0
 4671 1742 36       		.uleb128 0x36
 4672 1743 1C010000 		.4byte	.LVL34
 4673 1747 3F250000 		.4byte	0x253f
 4674 174b 57170000 		.4byte	0x1757
 4675 174f 34       		.uleb128 0x34
 4676 1750 01       		.uleb128 0x1
 4677 1751 50       		.byte	0x50
 4678 1752 03       		.uleb128 0x3
 4679 1753 75       		.byte	0x75
 4680 1754 DA00     		.sleb128 90
 4681 1756 00       		.byte	0
 4682 1757 36       		.uleb128 0x36
ARM GAS  C:\Users\pearlstl\AppData\Local\Temp\cccjDn63.s 			page 100


 4683 1758 34010000 		.4byte	.LVL37
 4684 175c 4A250000 		.4byte	0x254a
 4685 1760 82170000 		.4byte	0x1782
 4686 1764 34       		.uleb128 0x34
 4687 1765 01       		.uleb128 0x1
 4688 1766 50       		.byte	0x50
 4689 1767 13       		.uleb128 0x13
 4690 1768 91       		.byte	0x91
 4691 1769 BC7D     		.sleb128 -324
 4692 176b 06       		.byte	0x6
 4693 176c 76       		.byte	0x76
 4694 176d 00       		.sleb128 0
 4695 176e 1E       		.byte	0x1e
 4696 176f 79       		.byte	0x79
 4697 1770 00       		.sleb128 0
 4698 1771 1B       		.byte	0x1b
 4699 1772 91       		.byte	0x91
 4700 1773 C07D     		.sleb128 -320
 4701 1775 06       		.byte	0x6
 4702 1776 22       		.byte	0x22
 4703 1777 40       		.byte	0x40
 4704 1778 24       		.byte	0x24
 4705 1779 40       		.byte	0x40
 4706 177a 26       		.byte	0x26
 4707 177b 34       		.uleb128 0x34
 4708 177c 01       		.uleb128 0x1
 4709 177d 51       		.byte	0x51
 4710 177e 02       		.uleb128 0x2
 4711 177f 7B       		.byte	0x7b
 4712 1780 00       		.sleb128 0
 4713 1781 00       		.byte	0
 4714 1782 36       		.uleb128 0x36
 4715 1783 52010000 		.4byte	.LVL38
 4716 1787 55250000 		.4byte	0x2555
 4717 178b AD170000 		.4byte	0x17ad
 4718 178f 34       		.uleb128 0x34
 4719 1790 01       		.uleb128 0x1
 4720 1791 50       		.byte	0x50
 4721 1792 04       		.uleb128 0x4
 4722 1793 91       		.byte	0x91
 4723 1794 987D     		.sleb128 -360
 4724 1796 06       		.byte	0x6
 4725 1797 34       		.uleb128 0x34
 4726 1798 01       		.uleb128 0x1
 4727 1799 51       		.byte	0x51
 4728 179a 02       		.uleb128 0x2
 4729 179b 7B       		.byte	0x7b
 4730 179c 00       		.sleb128 0
 4731 179d 34       		.uleb128 0x34
 4732 179e 02       		.uleb128 0x2
 4733 179f 7D       		.byte	0x7d
 4734 17a0 04       		.sleb128 4
 4735 17a1 03       		.uleb128 0x3
 4736 17a2 0A       		.byte	0xa
 4737 17a3 187C     		.2byte	0x7c18
 4738 17a5 34       		.uleb128 0x34
 4739 17a6 02       		.uleb128 0x2
ARM GAS  C:\Users\pearlstl\AppData\Local\Temp\cccjDn63.s 			page 101


 4740 17a7 7D       		.byte	0x7d
 4741 17a8 08       		.sleb128 8
 4742 17a9 02       		.uleb128 0x2
 4743 17aa 77       		.byte	0x77
 4744 17ab 00       		.sleb128 0
 4745 17ac 00       		.byte	0
 4746 17ad 36       		.uleb128 0x36
 4747 17ae B2010000 		.4byte	.LVL41
 4748 17b2 60250000 		.4byte	0x2560
 4749 17b6 C3170000 		.4byte	0x17c3
 4750 17ba 34       		.uleb128 0x34
 4751 17bb 01       		.uleb128 0x1
 4752 17bc 50       		.byte	0x50
 4753 17bd 04       		.uleb128 0x4
 4754 17be 91       		.byte	0x91
 4755 17bf A87D     		.sleb128 -344
 4756 17c1 06       		.byte	0x6
 4757 17c2 00       		.byte	0
 4758 17c3 33       		.uleb128 0x33
 4759 17c4 CC010000 		.4byte	.LVL42
 4760 17c8 6C250000 		.4byte	0x256c
 4761 17cc 34       		.uleb128 0x34
 4762 17cd 01       		.uleb128 0x1
 4763 17ce 50       		.byte	0x50
 4764 17cf 04       		.uleb128 0x4
 4765 17d0 91       		.byte	0x91
 4766 17d1 A07D     		.sleb128 -352
 4767 17d3 06       		.byte	0x6
 4768 17d4 34       		.uleb128 0x34
 4769 17d5 01       		.uleb128 0x1
 4770 17d6 51       		.byte	0x51
 4771 17d7 04       		.uleb128 0x4
 4772 17d8 91       		.byte	0x91
 4773 17d9 947D     		.sleb128 -364
 4774 17db 06       		.byte	0x6
 4775 17dc 34       		.uleb128 0x34
 4776 17dd 01       		.uleb128 0x1
 4777 17de 52       		.byte	0x52
 4778 17df 02       		.uleb128 0x2
 4779 17e0 78       		.byte	0x78
 4780 17e1 00       		.sleb128 0
 4781 17e2 34       		.uleb128 0x34
 4782 17e3 01       		.uleb128 0x1
 4783 17e4 53       		.byte	0x53
 4784 17e5 05       		.uleb128 0x5
 4785 17e6 91       		.byte	0x91
 4786 17e7 9C7D     		.sleb128 -356
 4787 17e9 94       		.byte	0x94
 4788 17ea 01       		.byte	0x1
 4789 17eb 34       		.uleb128 0x34
 4790 17ec 02       		.uleb128 0x2
 4791 17ed 7D       		.byte	0x7d
 4792 17ee 00       		.sleb128 0
 4793 17ef 02       		.uleb128 0x2
 4794 17f0 7B       		.byte	0x7b
 4795 17f1 00       		.sleb128 0
 4796 17f2 34       		.uleb128 0x34
ARM GAS  C:\Users\pearlstl\AppData\Local\Temp\cccjDn63.s 			page 102


 4797 17f3 02       		.uleb128 0x2
 4798 17f4 7D       		.byte	0x7d
 4799 17f5 04       		.sleb128 4
 4800 17f6 02       		.uleb128 0x2
 4801 17f7 77       		.byte	0x77
 4802 17f8 00       		.sleb128 0
 4803 17f9 34       		.uleb128 0x34
 4804 17fa 02       		.uleb128 0x2
 4805 17fb 7D       		.byte	0x7d
 4806 17fc 08       		.sleb128 8
 4807 17fd 02       		.uleb128 0x2
 4808 17fe 77       		.byte	0x77
 4809 17ff 00       		.sleb128 0
 4810 1800 34       		.uleb128 0x34
 4811 1801 02       		.uleb128 0x2
 4812 1802 7D       		.byte	0x7d
 4813 1803 0C       		.sleb128 12
 4814 1804 02       		.uleb128 0x2
 4815 1805 77       		.byte	0x77
 4816 1806 00       		.sleb128 0
 4817 1807 34       		.uleb128 0x34
 4818 1808 02       		.uleb128 0x2
 4819 1809 7D       		.byte	0x7d
 4820 180a 10       		.sleb128 16
 4821 180b 02       		.uleb128 0x2
 4822 180c 77       		.byte	0x77
 4823 180d 00       		.sleb128 0
 4824 180e 00       		.byte	0
 4825 180f 00       		.byte	0
 4826 1810 36       		.uleb128 0x36
 4827 1811 3E000000 		.4byte	.LVL12
 4828 1815 77250000 		.4byte	0x2577
 4829 1819 24180000 		.4byte	0x1824
 4830 181d 34       		.uleb128 0x34
 4831 181e 01       		.uleb128 0x1
 4832 181f 50       		.byte	0x50
 4833 1820 02       		.uleb128 0x2
 4834 1821 77       		.byte	0x77
 4835 1822 00       		.sleb128 0
 4836 1823 00       		.byte	0
 4837 1824 36       		.uleb128 0x36
 4838 1825 46000000 		.4byte	.LVL15
 4839 1829 83250000 		.4byte	0x2583
 4840 182d 38180000 		.4byte	0x1838
 4841 1831 34       		.uleb128 0x34
 4842 1832 01       		.uleb128 0x1
 4843 1833 50       		.byte	0x50
 4844 1834 02       		.uleb128 0x2
 4845 1835 77       		.byte	0x77
 4846 1836 00       		.sleb128 0
 4847 1837 00       		.byte	0
 4848 1838 36       		.uleb128 0x36
 4849 1839 4E000000 		.4byte	.LVL18
 4850 183d 8F250000 		.4byte	0x258f
 4851 1841 4C180000 		.4byte	0x184c
 4852 1845 34       		.uleb128 0x34
 4853 1846 01       		.uleb128 0x1
ARM GAS  C:\Users\pearlstl\AppData\Local\Temp\cccjDn63.s 			page 103


 4854 1847 50       		.byte	0x50
 4855 1848 02       		.uleb128 0x2
 4856 1849 77       		.byte	0x77
 4857 184a 00       		.sleb128 0
 4858 184b 00       		.byte	0
 4859 184c 36       		.uleb128 0x36
 4860 184d 56000000 		.4byte	.LVL20
 4861 1851 9B250000 		.4byte	0x259b
 4862 1855 60180000 		.4byte	0x1860
 4863 1859 34       		.uleb128 0x34
 4864 185a 01       		.uleb128 0x1
 4865 185b 50       		.byte	0x50
 4866 185c 02       		.uleb128 0x2
 4867 185d 77       		.byte	0x77
 4868 185e 00       		.sleb128 0
 4869 185f 00       		.byte	0
 4870 1860 36       		.uleb128 0x36
 4871 1861 74000000 		.4byte	.LVL21
 4872 1865 9B250000 		.4byte	0x259b
 4873 1869 74180000 		.4byte	0x1874
 4874 186d 34       		.uleb128 0x34
 4875 186e 01       		.uleb128 0x1
 4876 186f 50       		.byte	0x50
 4877 1870 02       		.uleb128 0x2
 4878 1871 77       		.byte	0x77
 4879 1872 00       		.sleb128 0
 4880 1873 00       		.byte	0
 4881 1874 36       		.uleb128 0x36
 4882 1875 88000000 		.4byte	.LVL22
 4883 1879 A7250000 		.4byte	0x25a7
 4884 187d 88180000 		.4byte	0x1888
 4885 1881 34       		.uleb128 0x34
 4886 1882 01       		.uleb128 0x1
 4887 1883 50       		.byte	0x50
 4888 1884 02       		.uleb128 0x2
 4889 1885 77       		.byte	0x77
 4890 1886 00       		.sleb128 0
 4891 1887 00       		.byte	0
 4892 1888 33       		.uleb128 0x33
 4893 1889 9C000000 		.4byte	.LVL23
 4894 188d B3250000 		.4byte	0x25b3
 4895 1891 34       		.uleb128 0x34
 4896 1892 01       		.uleb128 0x1
 4897 1893 50       		.byte	0x50
 4898 1894 02       		.uleb128 0x2
 4899 1895 77       		.byte	0x77
 4900 1896 00       		.sleb128 0
 4901 1897 00       		.byte	0
 4902 1898 00       		.byte	0
 4903 1899 00       		.byte	0
 4904 189a 31       		.uleb128 0x31
 4905 189b 27130000 		.4byte	0x1327
 4906 189f 22020000 		.4byte	.LBB64
 4907 18a3 30000000 		.4byte	.Ldebug_ranges0+0x30
 4908 18a7 01       		.byte	0x1
 4909 18a8 3501     		.2byte	0x135
 4910 18aa 7D1B0000 		.4byte	0x1b7d
ARM GAS  C:\Users\pearlstl\AppData\Local\Temp\cccjDn63.s 			page 104


 4911 18ae 32       		.uleb128 0x32
 4912 18af 40130000 		.4byte	0x1340
 4913 18b3 2B       		.uleb128 0x2b
 4914 18b4 34130000 		.4byte	0x1334
 4915 18b8 23040000 		.4byte	.LLST23
 4916 18bc 37       		.uleb128 0x37
 4917 18bd 30000000 		.4byte	.Ldebug_ranges0+0x30
 4918 18c1 2E       		.uleb128 0x2e
 4919 18c2 4C130000 		.4byte	0x134c
 4920 18c6 03       		.uleb128 0x3
 4921 18c7 91       		.byte	0x91
 4922 18c8 B87E     		.sleb128 -200
 4923 18ca 2D       		.uleb128 0x2d
 4924 18cb 58130000 		.4byte	0x1358
 4925 18cf 4E040000 		.4byte	.LLST24
 4926 18d3 30       		.uleb128 0x30
 4927 18d4 64130000 		.4byte	0x1364
 4928 18d8 30       		.uleb128 0x30
 4929 18d9 70130000 		.4byte	0x1370
 4930 18dd 2D       		.uleb128 0x2d
 4931 18de 7C130000 		.4byte	0x137c
 4932 18e2 61040000 		.4byte	.LLST25
 4933 18e6 2D       		.uleb128 0x2d
 4934 18e7 86130000 		.4byte	0x1386
 4935 18eb 74040000 		.4byte	.LLST26
 4936 18ef 2D       		.uleb128 0x2d
 4937 18f0 92130000 		.4byte	0x1392
 4938 18f4 94040000 		.4byte	.LLST27
 4939 18f8 30       		.uleb128 0x30
 4940 18f9 9E130000 		.4byte	0x139e
 4941 18fd 30       		.uleb128 0x30
 4942 18fe AA130000 		.4byte	0x13aa
 4943 1902 30       		.uleb128 0x30
 4944 1903 B6130000 		.4byte	0x13b6
 4945 1907 30       		.uleb128 0x30
 4946 1908 C2130000 		.4byte	0x13c2
 4947 190c 2E       		.uleb128 0x2e
 4948 190d CE130000 		.4byte	0x13ce
 4949 1911 03       		.uleb128 0x3
 4950 1912 91       		.byte	0x91
 4951 1913 D87D     		.sleb128 -296
 4952 1915 2E       		.uleb128 0x2e
 4953 1916 DA130000 		.4byte	0x13da
 4954 191a 03       		.uleb128 0x3
 4955 191b 91       		.byte	0x91
 4956 191c DC7D     		.sleb128 -292
 4957 191e 30       		.uleb128 0x30
 4958 191f E6130000 		.4byte	0x13e6
 4959 1923 30       		.uleb128 0x30
 4960 1924 F2130000 		.4byte	0x13f2
 4961 1928 2D       		.uleb128 0x2d
 4962 1929 FE130000 		.4byte	0x13fe
 4963 192d C1040000 		.4byte	.LLST28
 4964 1931 2E       		.uleb128 0x2e
 4965 1932 08140000 		.4byte	0x1408
 4966 1936 03       		.uleb128 0x3
 4967 1937 91       		.byte	0x91
ARM GAS  C:\Users\pearlstl\AppData\Local\Temp\cccjDn63.s 			page 105


 4968 1938 887F     		.sleb128 -120
 4969 193a 2E       		.uleb128 0x2e
 4970 193b 14140000 		.4byte	0x1414
 4971 193f 03       		.uleb128 0x3
 4972 1940 91       		.byte	0x91
 4973 1941 E07D     		.sleb128 -288
 4974 1943 2F       		.uleb128 0x2f
 4975 1944 9E110000 		.4byte	0x119e
 4976 1948 30020000 		.4byte	.LBB66
 4977 194c 0A000000 		.4byte	.LBE66-.LBB66
 4978 1950 01       		.byte	0x1
 4979 1951 9401     		.2byte	0x194
 4980 1953 76190000 		.4byte	0x1976
 4981 1957 2B       		.uleb128 0x2b
 4982 1958 B9110000 		.4byte	0x11b9
 4983 195c EB040000 		.4byte	.LLST29
 4984 1960 32       		.uleb128 0x32
 4985 1961 AE110000 		.4byte	0x11ae
 4986 1965 33       		.uleb128 0x33
 4987 1966 36020000 		.4byte	.LVL51
 4988 196a 83250000 		.4byte	0x2583
 4989 196e 34       		.uleb128 0x34
 4990 196f 01       		.uleb128 0x1
 4991 1970 50       		.byte	0x50
 4992 1971 02       		.uleb128 0x2
 4993 1972 78       		.byte	0x78
 4994 1973 00       		.sleb128 0
 4995 1974 00       		.byte	0
 4996 1975 00       		.byte	0
 4997 1976 31       		.uleb128 0x31
 4998 1977 EC110000 		.4byte	0x11ec
 4999 197b 96020000 		.4byte	.LBB68
 5000 197f 58000000 		.4byte	.Ldebug_ranges0+0x58
 5001 1983 01       		.byte	0x1
 5002 1984 9C01     		.2byte	0x19c
 5003 1986 A0190000 		.4byte	0x19a0
 5004 198a 32       		.uleb128 0x32
 5005 198b FC110000 		.4byte	0x11fc
 5006 198f 33       		.uleb128 0x33
 5007 1990 9E020000 		.4byte	.LVL60
 5008 1994 29250000 		.4byte	0x2529
 5009 1998 34       		.uleb128 0x34
 5010 1999 01       		.uleb128 0x1
 5011 199a 50       		.byte	0x50
 5012 199b 02       		.uleb128 0x2
 5013 199c 74       		.byte	0x74
 5014 199d 00       		.sleb128 0
 5015 199e 00       		.byte	0
 5016 199f 00       		.byte	0
 5017 19a0 31       		.uleb128 0x31
 5018 19a1 D0110000 		.4byte	0x11d0
 5019 19a5 A0020000 		.4byte	.LBB72
 5020 19a9 70000000 		.4byte	.Ldebug_ranges0+0x70
 5021 19ad 01       		.byte	0x1
 5022 19ae 9D01     		.2byte	0x19d
 5023 19b0 CA190000 		.4byte	0x19ca
 5024 19b4 32       		.uleb128 0x32
ARM GAS  C:\Users\pearlstl\AppData\Local\Temp\cccjDn63.s 			page 106


 5025 19b5 E0110000 		.4byte	0x11e0
 5026 19b9 33       		.uleb128 0x33
 5027 19ba A6020000 		.4byte	.LVL61
 5028 19be 34250000 		.4byte	0x2534
 5029 19c2 34       		.uleb128 0x34
 5030 19c3 01       		.uleb128 0x1
 5031 19c4 50       		.byte	0x50
 5032 19c5 02       		.uleb128 0x2
 5033 19c6 74       		.byte	0x74
 5034 19c7 00       		.sleb128 0
 5035 19c8 00       		.byte	0
 5036 19c9 00       		.byte	0
 5037 19ca 38       		.uleb128 0x38
 5038 19cb 88000000 		.4byte	.Ldebug_ranges0+0x88
 5039 19cf 9E1A0000 		.4byte	0x1a9e
 5040 19d3 2D       		.uleb128 0x2d
 5041 19d4 21140000 		.4byte	0x1421
 5042 19d8 FF040000 		.4byte	.LLST30
 5043 19dc 2D       		.uleb128 0x2d
 5044 19dd 2D140000 		.4byte	0x142d
 5045 19e1 12050000 		.4byte	.LLST31
 5046 19e5 2D       		.uleb128 0x2d
 5047 19e6 39140000 		.4byte	0x1439
 5048 19ea 4B050000 		.4byte	.LLST32
 5049 19ee 2D       		.uleb128 0x2d
 5050 19ef 45140000 		.4byte	0x1445
 5051 19f3 88050000 		.4byte	.LLST33
 5052 19f7 2D       		.uleb128 0x2d
 5053 19f8 51140000 		.4byte	0x1451
 5054 19fc 9F050000 		.4byte	.LLST34
 5055 1a00 2D       		.uleb128 0x2d
 5056 1a01 5D140000 		.4byte	0x145d
 5057 1a05 BD050000 		.4byte	.LLST35
 5058 1a09 36       		.uleb128 0x36
 5059 1a0a EA020000 		.4byte	.LVL68
 5060 1a0e BE250000 		.4byte	0x25be
 5061 1a12 3F1A0000 		.4byte	0x1a3f
 5062 1a16 34       		.uleb128 0x34
 5063 1a17 01       		.uleb128 0x1
 5064 1a18 50       		.byte	0x50
 5065 1a19 03       		.uleb128 0x3
 5066 1a1a 91       		.byte	0x91
 5067 1a1b D87D     		.sleb128 -296
 5068 1a1d 34       		.uleb128 0x34
 5069 1a1e 01       		.uleb128 0x1
 5070 1a1f 51       		.byte	0x51
 5071 1a20 03       		.uleb128 0x3
 5072 1a21 91       		.byte	0x91
 5073 1a22 DC7D     		.sleb128 -292
 5074 1a24 34       		.uleb128 0x34
 5075 1a25 01       		.uleb128 0x1
 5076 1a26 52       		.byte	0x52
 5077 1a27 04       		.uleb128 0x4
 5078 1a28 91       		.byte	0x91
 5079 1a29 947D     		.sleb128 -364
 5080 1a2b 06       		.byte	0x6
 5081 1a2c 34       		.uleb128 0x34
ARM GAS  C:\Users\pearlstl\AppData\Local\Temp\cccjDn63.s 			page 107


 5082 1a2d 01       		.uleb128 0x1
 5083 1a2e 53       		.byte	0x53
 5084 1a2f 04       		.uleb128 0x4
 5085 1a30 91       		.byte	0x91
 5086 1a31 A07D     		.sleb128 -352
 5087 1a33 06       		.byte	0x6
 5088 1a34 34       		.uleb128 0x34
 5089 1a35 02       		.uleb128 0x2
 5090 1a36 7D       		.byte	0x7d
 5091 1a37 00       		.sleb128 0
 5092 1a38 05       		.uleb128 0x5
 5093 1a39 91       		.byte	0x91
 5094 1a3a B07D     		.sleb128 -336
 5095 1a3c 94       		.byte	0x94
 5096 1a3d 01       		.byte	0x1
 5097 1a3e 00       		.byte	0
 5098 1a3f 36       		.uleb128 0x36
 5099 1a40 2A030000 		.4byte	.LVL74
 5100 1a44 3F250000 		.4byte	0x253f
 5101 1a48 531A0000 		.4byte	0x1a53
 5102 1a4c 34       		.uleb128 0x34
 5103 1a4d 01       		.uleb128 0x1
 5104 1a4e 50       		.byte	0x50
 5105 1a4f 02       		.uleb128 0x2
 5106 1a50 7B       		.byte	0x7b
 5107 1a51 00       		.sleb128 0
 5108 1a52 00       		.byte	0
 5109 1a53 36       		.uleb128 0x36
 5110 1a54 48030000 		.4byte	.LVL75
 5111 1a58 3F250000 		.4byte	0x253f
 5112 1a5c 681A0000 		.4byte	0x1a68
 5113 1a60 34       		.uleb128 0x34
 5114 1a61 01       		.uleb128 0x1
 5115 1a62 50       		.byte	0x50
 5116 1a63 03       		.uleb128 0x3
 5117 1a64 7B       		.byte	0x7b
 5118 1a65 DA00     		.sleb128 90
 5119 1a67 00       		.byte	0
 5120 1a68 36       		.uleb128 0x36
 5121 1a69 66030000 		.4byte	.LVL76
 5122 1a6d 3F250000 		.4byte	0x253f
 5123 1a71 7C1A0000 		.4byte	0x1a7c
 5124 1a75 34       		.uleb128 0x34
 5125 1a76 01       		.uleb128 0x1
 5126 1a77 50       		.byte	0x50
 5127 1a78 02       		.uleb128 0x2
 5128 1a79 7B       		.byte	0x7b
 5129 1a7a 01       		.sleb128 1
 5130 1a7b 00       		.byte	0
 5131 1a7c 33       		.uleb128 0x33
 5132 1a7d 84030000 		.4byte	.LVL78
 5133 1a81 3F250000 		.4byte	0x253f
 5134 1a85 34       		.uleb128 0x34
 5135 1a86 01       		.uleb128 0x1
 5136 1a87 50       		.byte	0x50
 5137 1a88 13       		.uleb128 0x13
 5138 1a89 74       		.byte	0x74
ARM GAS  C:\Users\pearlstl\AppData\Local\Temp\cccjDn63.s 			page 108


 5139 1a8a 00       		.sleb128 0
 5140 1a8b 09       		.byte	0x9
 5141 1a8c F4       		.byte	0xf4
 5142 1a8d 24       		.byte	0x24
 5143 1a8e 09       		.byte	0x9
 5144 1a8f F9       		.byte	0xf9
 5145 1a90 26       		.byte	0x26
 5146 1a91 91       		.byte	0x91
 5147 1a92 B47D     		.sleb128 -332
 5148 1a94 06       		.byte	0x6
 5149 1a95 22       		.byte	0x22
 5150 1a96 0A       		.byte	0xa
 5151 1a97 FFFF     		.2byte	0xffff
 5152 1a99 1A       		.byte	0x1a
 5153 1a9a 23       		.byte	0x23
 5154 1a9b 5B       		.uleb128 0x5b
 5155 1a9c 00       		.byte	0
 5156 1a9d 00       		.byte	0
 5157 1a9e 36       		.uleb128 0x36
 5158 1a9f 2C020000 		.4byte	.LVL50
 5159 1aa3 77250000 		.4byte	0x2577
 5160 1aa7 B21A0000 		.4byte	0x1ab2
 5161 1aab 34       		.uleb128 0x34
 5162 1aac 01       		.uleb128 0x1
 5163 1aad 50       		.byte	0x50
 5164 1aae 02       		.uleb128 0x2
 5165 1aaf 78       		.byte	0x78
 5166 1ab0 00       		.sleb128 0
 5167 1ab1 00       		.byte	0
 5168 1ab2 36       		.uleb128 0x36
 5169 1ab3 40020000 		.4byte	.LVL53
 5170 1ab7 8F250000 		.4byte	0x258f
 5171 1abb C61A0000 		.4byte	0x1ac6
 5172 1abf 34       		.uleb128 0x34
 5173 1ac0 01       		.uleb128 0x1
 5174 1ac1 50       		.byte	0x50
 5175 1ac2 02       		.uleb128 0x2
 5176 1ac3 78       		.byte	0x78
 5177 1ac4 00       		.sleb128 0
 5178 1ac5 00       		.byte	0
 5179 1ac6 36       		.uleb128 0x36
 5180 1ac7 48020000 		.4byte	.LVL54
 5181 1acb 9B250000 		.4byte	0x259b
 5182 1acf DA1A0000 		.4byte	0x1ada
 5183 1ad3 34       		.uleb128 0x34
 5184 1ad4 01       		.uleb128 0x1
 5185 1ad5 50       		.byte	0x50
 5186 1ad6 02       		.uleb128 0x2
 5187 1ad7 78       		.byte	0x78
 5188 1ad8 00       		.sleb128 0
 5189 1ad9 00       		.byte	0
 5190 1ada 36       		.uleb128 0x36
 5191 1adb 5A020000 		.4byte	.LVL57
 5192 1adf 9B250000 		.4byte	0x259b
 5193 1ae3 EE1A0000 		.4byte	0x1aee
 5194 1ae7 34       		.uleb128 0x34
 5195 1ae8 01       		.uleb128 0x1
ARM GAS  C:\Users\pearlstl\AppData\Local\Temp\cccjDn63.s 			page 109


 5196 1ae9 50       		.byte	0x50
 5197 1aea 02       		.uleb128 0x2
 5198 1aeb 74       		.byte	0x74
 5199 1aec 00       		.sleb128 0
 5200 1aed 00       		.byte	0
 5201 1aee 36       		.uleb128 0x36
 5202 1aef 70020000 		.4byte	.LVL58
 5203 1af3 A7250000 		.4byte	0x25a7
 5204 1af7 021B0000 		.4byte	0x1b02
 5205 1afb 34       		.uleb128 0x34
 5206 1afc 01       		.uleb128 0x1
 5207 1afd 50       		.byte	0x50
 5208 1afe 02       		.uleb128 0x2
 5209 1aff 74       		.byte	0x74
 5210 1b00 00       		.sleb128 0
 5211 1b01 00       		.byte	0
 5212 1b02 36       		.uleb128 0x36
 5213 1b03 86020000 		.4byte	.LVL59
 5214 1b07 B3250000 		.4byte	0x25b3
 5215 1b0b 161B0000 		.4byte	0x1b16
 5216 1b0f 34       		.uleb128 0x34
 5217 1b10 01       		.uleb128 0x1
 5218 1b11 50       		.byte	0x50
 5219 1b12 02       		.uleb128 0x2
 5220 1b13 74       		.byte	0x74
 5221 1b14 00       		.sleb128 0
 5222 1b15 00       		.byte	0
 5223 1b16 36       		.uleb128 0x36
 5224 1b17 B0020000 		.4byte	.LVL63
 5225 1b1b C9250000 		.4byte	0x25c9
 5226 1b1f 321B0000 		.4byte	0x1b32
 5227 1b23 34       		.uleb128 0x34
 5228 1b24 01       		.uleb128 0x1
 5229 1b25 50       		.byte	0x50
 5230 1b26 04       		.uleb128 0x4
 5231 1b27 91       		.byte	0x91
 5232 1b28 A07D     		.sleb128 -352
 5233 1b2a 06       		.byte	0x6
 5234 1b2b 34       		.uleb128 0x34
 5235 1b2c 01       		.uleb128 0x1
 5236 1b2d 51       		.byte	0x51
 5237 1b2e 02       		.uleb128 0x2
 5238 1b2f 75       		.byte	0x75
 5239 1b30 00       		.sleb128 0
 5240 1b31 00       		.byte	0
 5241 1b32 36       		.uleb128 0x36
 5242 1b33 0A040000 		.4byte	.LVL91
 5243 1b37 C9250000 		.4byte	0x25c9
 5244 1b3b 461B0000 		.4byte	0x1b46
 5245 1b3f 34       		.uleb128 0x34
 5246 1b40 01       		.uleb128 0x1
 5247 1b41 50       		.byte	0x50
 5248 1b42 02       		.uleb128 0x2
 5249 1b43 77       		.byte	0x77
 5250 1b44 00       		.sleb128 0
 5251 1b45 00       		.byte	0
 5252 1b46 36       		.uleb128 0x36
ARM GAS  C:\Users\pearlstl\AppData\Local\Temp\cccjDn63.s 			page 110


 5253 1b47 40040000 		.4byte	.LVL92
 5254 1b4b 8F250000 		.4byte	0x258f
 5255 1b4f 5C1B0000 		.4byte	0x1b5c
 5256 1b53 34       		.uleb128 0x34
 5257 1b54 01       		.uleb128 0x1
 5258 1b55 50       		.byte	0x50
 5259 1b56 04       		.uleb128 0x4
 5260 1b57 91       		.byte	0x91
 5261 1b58 A87D     		.sleb128 -344
 5262 1b5a 06       		.byte	0x6
 5263 1b5b 00       		.byte	0
 5264 1b5c 33       		.uleb128 0x33
 5265 1b5d 4C040000 		.4byte	.LVL93
 5266 1b61 D4250000 		.4byte	0x25d4
 5267 1b65 34       		.uleb128 0x34
 5268 1b66 01       		.uleb128 0x1
 5269 1b67 50       		.byte	0x50
 5270 1b68 03       		.uleb128 0x3
 5271 1b69 91       		.byte	0x91
 5272 1b6a E07D     		.sleb128 -288
 5273 1b6c 34       		.uleb128 0x34
 5274 1b6d 01       		.uleb128 0x1
 5275 1b6e 51       		.byte	0x51
 5276 1b6f 04       		.uleb128 0x4
 5277 1b70 91       		.byte	0x91
 5278 1b71 947D     		.sleb128 -364
 5279 1b73 06       		.byte	0x6
 5280 1b74 34       		.uleb128 0x34
 5281 1b75 01       		.uleb128 0x1
 5282 1b76 52       		.byte	0x52
 5283 1b77 02       		.uleb128 0x2
 5284 1b78 77       		.byte	0x77
 5285 1b79 00       		.sleb128 0
 5286 1b7a 00       		.byte	0
 5287 1b7b 00       		.byte	0
 5288 1b7c 00       		.byte	0
 5289 1b7d 36       		.uleb128 0x36
 5290 1b7e 2E000000 		.4byte	.LVL6
 5291 1b82 83250000 		.4byte	0x2583
 5292 1b86 911B0000 		.4byte	0x1b91
 5293 1b8a 34       		.uleb128 0x34
 5294 1b8b 01       		.uleb128 0x1
 5295 1b8c 50       		.byte	0x50
 5296 1b8d 02       		.uleb128 0x2
 5297 1b8e 77       		.byte	0x77
 5298 1b8f 00       		.sleb128 0
 5299 1b90 00       		.byte	0
 5300 1b91 36       		.uleb128 0x36
 5301 1b92 36000000 		.4byte	.LVL9
 5302 1b96 77250000 		.4byte	0x2577
 5303 1b9a A51B0000 		.4byte	0x1ba5
 5304 1b9e 34       		.uleb128 0x34
 5305 1b9f 01       		.uleb128 0x1
 5306 1ba0 50       		.byte	0x50
 5307 1ba1 02       		.uleb128 0x2
 5308 1ba2 77       		.byte	0x77
 5309 1ba3 00       		.sleb128 0
ARM GAS  C:\Users\pearlstl\AppData\Local\Temp\cccjDn63.s 			page 111


 5310 1ba4 00       		.byte	0
 5311 1ba5 39       		.uleb128 0x39
 5312 1ba6 EE010000 		.4byte	.LVL47
 5313 1baa C01B0000 		.4byte	0x1bc0
 5314 1bae 34       		.uleb128 0x34
 5315 1baf 01       		.uleb128 0x1
 5316 1bb0 50       		.byte	0x50
 5317 1bb1 02       		.uleb128 0x2
 5318 1bb2 78       		.byte	0x78
 5319 1bb3 00       		.sleb128 0
 5320 1bb4 34       		.uleb128 0x34
 5321 1bb5 01       		.uleb128 0x1
 5322 1bb6 51       		.byte	0x51
 5323 1bb7 02       		.uleb128 0x2
 5324 1bb8 79       		.byte	0x79
 5325 1bb9 00       		.sleb128 0
 5326 1bba 34       		.uleb128 0x34
 5327 1bbb 01       		.uleb128 0x1
 5328 1bbc 52       		.byte	0x52
 5329 1bbd 01       		.uleb128 0x1
 5330 1bbe 30       		.byte	0x30
 5331 1bbf 00       		.byte	0
 5332 1bc0 36       		.uleb128 0x36
 5333 1bc1 F8010000 		.4byte	.LVL48
 5334 1bc5 C9250000 		.4byte	0x25c9
 5335 1bc9 DC1B0000 		.4byte	0x1bdc
 5336 1bcd 34       		.uleb128 0x34
 5337 1bce 01       		.uleb128 0x1
 5338 1bcf 50       		.byte	0x50
 5339 1bd0 02       		.uleb128 0x2
 5340 1bd1 77       		.byte	0x77
 5341 1bd2 00       		.sleb128 0
 5342 1bd3 34       		.uleb128 0x34
 5343 1bd4 01       		.uleb128 0x1
 5344 1bd5 51       		.byte	0x51
 5345 1bd6 04       		.uleb128 0x4
 5346 1bd7 91       		.byte	0x91
 5347 1bd8 CC7D     		.sleb128 -308
 5348 1bda 06       		.byte	0x6
 5349 1bdb 00       		.byte	0
 5350 1bdc 3A       		.uleb128 0x3a
 5351 1bdd 1E020000 		.4byte	.LVL49
 5352 1be1 34       		.uleb128 0x34
 5353 1be2 01       		.uleb128 0x1
 5354 1be3 50       		.byte	0x50
 5355 1be4 02       		.uleb128 0x2
 5356 1be5 78       		.byte	0x78
 5357 1be6 00       		.sleb128 0
 5358 1be7 34       		.uleb128 0x34
 5359 1be8 01       		.uleb128 0x1
 5360 1be9 51       		.byte	0x51
 5361 1bea 02       		.uleb128 0x2
 5362 1beb 79       		.byte	0x79
 5363 1bec 00       		.sleb128 0
 5364 1bed 34       		.uleb128 0x34
 5365 1bee 01       		.uleb128 0x1
 5366 1bef 52       		.byte	0x52
ARM GAS  C:\Users\pearlstl\AppData\Local\Temp\cccjDn63.s 			page 112


 5367 1bf0 01       		.uleb128 0x1
 5368 1bf1 30       		.byte	0x30
 5369 1bf2 00       		.byte	0
 5370 1bf3 00       		.byte	0
 5371 1bf4 00       		.byte	0
 5372 1bf5 00       		.byte	0
 5373 1bf6 3B       		.uleb128 0x3b
 5374 1bf7 88120000 		.4byte	0x1288
 5375 1bfb 00000000 		.4byte	.LFB55
 5376 1bff 48000000 		.4byte	.LFE55-.LFB55
 5377 1c03 01       		.uleb128 0x1
 5378 1c04 9C       		.byte	0x9c
 5379 1c05 BC1C0000 		.4byte	0x1cbc
 5380 1c09 2B       		.uleb128 0x2b
 5381 1c0a 99120000 		.4byte	0x1299
 5382 1c0e E6050000 		.4byte	.LLST36
 5383 1c12 2B       		.uleb128 0x2b
 5384 1c13 A5120000 		.4byte	0x12a5
 5385 1c17 44060000 		.4byte	.LLST37
 5386 1c1b 2B       		.uleb128 0x2b
 5387 1c1c B1120000 		.4byte	0x12b1
 5388 1c20 65060000 		.4byte	.LLST38
 5389 1c24 2D       		.uleb128 0x2d
 5390 1c25 BD120000 		.4byte	0x12bd
 5391 1c29 9C060000 		.4byte	.LLST39
 5392 1c2d 2D       		.uleb128 0x2d
 5393 1c2e C9120000 		.4byte	0x12c9
 5394 1c32 C5060000 		.4byte	.LLST40
 5395 1c36 38       		.uleb128 0x38
 5396 1c37 A8000000 		.4byte	.Ldebug_ranges0+0xa8
 5397 1c3b 821C0000 		.4byte	0x1c82
 5398 1c3f 2B       		.uleb128 0x2b
 5399 1c40 99120000 		.4byte	0x1299
 5400 1c44 E3060000 		.4byte	.LLST41
 5401 1c48 3C       		.uleb128 0x3c
 5402 1c49 A5120000 		.4byte	0x12a5
 5403 1c4d 07       		.byte	0x7
 5404 1c4e 2B       		.uleb128 0x2b
 5405 1c4f B1120000 		.4byte	0x12b1
 5406 1c53 04070000 		.4byte	.LLST42
 5407 1c57 37       		.uleb128 0x37
 5408 1c58 A8000000 		.4byte	.Ldebug_ranges0+0xa8
 5409 1c5c 30       		.uleb128 0x30
 5410 1c5d BD120000 		.4byte	0x12bd
 5411 1c61 30       		.uleb128 0x30
 5412 1c62 C9120000 		.4byte	0x12c9
 5413 1c66 3D       		.uleb128 0x3d
 5414 1c67 40000000 		.4byte	.LVL110
 5415 1c6b DF250000 		.4byte	0x25df
 5416 1c6f 34       		.uleb128 0x34
 5417 1c70 01       		.uleb128 0x1
 5418 1c71 50       		.byte	0x50
 5419 1c72 03       		.uleb128 0x3
 5420 1c73 F3       		.byte	0xf3
 5421 1c74 01       		.uleb128 0x1
 5422 1c75 52       		.byte	0x52
 5423 1c76 34       		.uleb128 0x34
ARM GAS  C:\Users\pearlstl\AppData\Local\Temp\cccjDn63.s 			page 113


 5424 1c77 01       		.uleb128 0x1
 5425 1c78 51       		.byte	0x51
 5426 1c79 05       		.uleb128 0x5
 5427 1c7a 03       		.byte	0x3
 5428 1c7b 00000000 		.4byte	.LC0
 5429 1c7f 00       		.byte	0
 5430 1c80 00       		.byte	0
 5431 1c81 00       		.byte	0
 5432 1c82 39       		.uleb128 0x39
 5433 1c83 0E000000 		.4byte	.LVL98
 5434 1c87 9E1C0000 		.4byte	0x1c9e
 5435 1c8b 34       		.uleb128 0x34
 5436 1c8c 01       		.uleb128 0x1
 5437 1c8d 50       		.byte	0x50
 5438 1c8e 02       		.uleb128 0x2
 5439 1c8f 76       		.byte	0x76
 5440 1c90 00       		.sleb128 0
 5441 1c91 34       		.uleb128 0x34
 5442 1c92 01       		.uleb128 0x1
 5443 1c93 51       		.byte	0x51
 5444 1c94 02       		.uleb128 0x2
 5445 1c95 75       		.byte	0x75
 5446 1c96 00       		.sleb128 0
 5447 1c97 34       		.uleb128 0x34
 5448 1c98 01       		.uleb128 0x1
 5449 1c99 52       		.byte	0x52
 5450 1c9a 02       		.uleb128 0x2
 5451 1c9b 77       		.byte	0x77
 5452 1c9c 00       		.sleb128 0
 5453 1c9d 00       		.byte	0
 5454 1c9e 36       		.uleb128 0x36
 5455 1c9f 22000000 		.4byte	.LVL103
 5456 1ca3 77250000 		.4byte	0x2577
 5457 1ca7 B21C0000 		.4byte	0x1cb2
 5458 1cab 34       		.uleb128 0x34
 5459 1cac 01       		.uleb128 0x1
 5460 1cad 50       		.byte	0x50
 5461 1cae 02       		.uleb128 0x2
 5462 1caf 76       		.byte	0x76
 5463 1cb0 00       		.sleb128 0
 5464 1cb1 00       		.byte	0
 5465 1cb2 3E       		.uleb128 0x3e
 5466 1cb3 2E000000 		.4byte	.LVL106
 5467 1cb7 EB250000 		.4byte	0x25eb
 5468 1cbb 00       		.byte	0
 5469 1cbc 3F       		.uleb128 0x3f
 5470 1cbd 72090000 		.4byte	.LASF250
 5471 1cc1 01       		.byte	0x1
 5472 1cc2 87       		.byte	0x87
 5473 1cc3 01       		.byte	0x1
 5474 1cc4 0B1D0000 		.4byte	0x1d0b
 5475 1cc8 20       		.uleb128 0x20
 5476 1cc9 59090000 		.4byte	.LASF195
 5477 1ccd 01       		.byte	0x1
 5478 1cce 87       		.byte	0x87
 5479 1ccf 7C120000 		.4byte	0x127c
 5480 1cd3 20       		.uleb128 0x20
ARM GAS  C:\Users\pearlstl\AppData\Local\Temp\cccjDn63.s 			page 114


 5481 1cd4 87010000 		.4byte	.LASF248
 5482 1cd8 01       		.byte	0x1
 5483 1cd9 87       		.byte	0x87
 5484 1cda B8000000 		.4byte	0xb8
 5485 1cde 20       		.uleb128 0x20
 5486 1cdf C6030000 		.4byte	.LASF249
 5487 1ce3 01       		.byte	0x1
 5488 1ce4 87       		.byte	0x87
 5489 1ce5 BF090000 		.4byte	0x9bf
 5490 1ce9 40       		.uleb128 0x40
 5491 1cea 65787400 		.ascii	"ext\000"
 5492 1cee 01       		.byte	0x1
 5493 1cef 8B       		.byte	0x8b
 5494 1cf0 82120000 		.4byte	0x1282
 5495 1cf4 23       		.uleb128 0x23
 5496 1cf5 40       		.uleb128 0x40
 5497 1cf6 6D696E00 		.ascii	"min\000"
 5498 1cfa 01       		.byte	0x1
 5499 1cfb 97       		.byte	0x97
 5500 1cfc C3000000 		.4byte	0xc3
 5501 1d00 40       		.uleb128 0x40
 5502 1d01 6E00     		.ascii	"n\000"
 5503 1d03 01       		.byte	0x1
 5504 1d04 98       		.byte	0x98
 5505 1d05 B8000000 		.4byte	0xb8
 5506 1d09 00       		.byte	0
 5507 1d0a 00       		.byte	0
 5508 1d0b 3F       		.uleb128 0x3f
 5509 1d0c 2A0D0000 		.4byte	.LASF251
 5510 1d10 01       		.byte	0x1
 5511 1d11 C9       		.byte	0xc9
 5512 1d12 01       		.byte	0x1
 5513 1d13 4F1D0000 		.4byte	0x1d4f
 5514 1d17 20       		.uleb128 0x20
 5515 1d18 59090000 		.4byte	.LASF195
 5516 1d1c 01       		.byte	0x1
 5517 1d1d C9       		.byte	0xc9
 5518 1d1e 7C120000 		.4byte	0x127c
 5519 1d22 20       		.uleb128 0x20
 5520 1d23 02070000 		.4byte	.LASF230
 5521 1d27 01       		.byte	0x1
 5522 1d28 C9       		.byte	0xc9
 5523 1d29 CE000000 		.4byte	0xce
 5524 1d2d 20       		.uleb128 0x20
 5525 1d2e EB060000 		.4byte	.LASF148
 5526 1d32 01       		.byte	0x1
 5527 1d33 C9       		.byte	0xc9
 5528 1d34 B8000000 		.4byte	0xb8
 5529 1d38 20       		.uleb128 0x20
 5530 1d39 7D010000 		.4byte	.LASF252
 5531 1d3d 01       		.byte	0x1
 5532 1d3e C9       		.byte	0xc9
 5533 1d3f B8000000 		.4byte	0xb8
 5534 1d43 40       		.uleb128 0x40
 5535 1d44 65787400 		.ascii	"ext\000"
 5536 1d48 01       		.byte	0x1
 5537 1d49 CF       		.byte	0xcf
ARM GAS  C:\Users\pearlstl\AppData\Local\Temp\cccjDn63.s 			page 115


 5538 1d4a 82120000 		.4byte	0x1282
 5539 1d4e 00       		.byte	0
 5540 1d4f 41       		.uleb128 0x41
 5541 1d50 74070000 		.4byte	.LASF257
 5542 1d54 01       		.byte	0x1
 5543 1d55 41       		.byte	0x41
 5544 1d56 7C120000 		.4byte	0x127c
 5545 1d5a 00000000 		.4byte	.LFB47
 5546 1d5e A0010000 		.4byte	.LFE47-.LFB47
 5547 1d62 01       		.uleb128 0x1
 5548 1d63 9C       		.byte	0x9c
 5549 1d64 A0210000 		.4byte	0x21a0
 5550 1d68 42       		.uleb128 0x42
 5551 1d69 70617200 		.ascii	"par\000"
 5552 1d6d 01       		.byte	0x1
 5553 1d6e 41       		.byte	0x41
 5554 1d6f 7C120000 		.4byte	0x127c
 5555 1d73 30070000 		.4byte	.LLST43
 5556 1d77 43       		.uleb128 0x43
 5557 1d78 1D070000 		.4byte	.LASF253
 5558 1d7c 01       		.byte	0x1
 5559 1d7d 41       		.byte	0x41
 5560 1d7e C5110000 		.4byte	0x11c5
 5561 1d82 51070000 		.4byte	.LLST44
 5562 1d86 44       		.uleb128 0x44
 5563 1d87 DC080000 		.4byte	.LASF254
 5564 1d8b 01       		.byte	0x1
 5565 1d8c 46       		.byte	0x46
 5566 1d8d 7C120000 		.4byte	0x127c
 5567 1d91 96070000 		.4byte	.LLST45
 5568 1d95 45       		.uleb128 0x45
 5569 1d96 65787400 		.ascii	"ext\000"
 5570 1d9a 01       		.byte	0x1
 5571 1d9b 4B       		.byte	0x4b
 5572 1d9c 82120000 		.4byte	0x1282
 5573 1da0 CA070000 		.4byte	.LLST46
 5574 1da4 35       		.uleb128 0x35
 5575 1da5 54000000 		.4byte	.LBB111
 5576 1da9 92000000 		.4byte	.LBE111-.LBB111
 5577 1dad BD1E0000 		.4byte	0x1ebd
 5578 1db1 44       		.uleb128 0x44
 5579 1db2 BE0D0000 		.4byte	.LASF255
 5580 1db6 01       		.byte	0x1
 5581 1db7 6C       		.byte	0x6c
 5582 1db8 82120000 		.4byte	0x1282
 5583 1dbc FE070000 		.4byte	.LLST47
 5584 1dc0 45       		.uleb128 0x45
 5585 1dc1 6900     		.ascii	"i\000"
 5586 1dc3 01       		.byte	0x1
 5587 1dc4 6F       		.byte	0x6f
 5588 1dc5 B8000000 		.4byte	0xb8
 5589 1dc9 1C080000 		.4byte	.LLST48
 5590 1dcd 46       		.uleb128 0x46
 5591 1dce BC1C0000 		.4byte	0x1cbc
 5592 1dd2 5C000000 		.4byte	.LBB112
 5593 1dd6 C0000000 		.4byte	.Ldebug_ranges0+0xc0
 5594 1dda 01       		.byte	0x1
ARM GAS  C:\Users\pearlstl\AppData\Local\Temp\cccjDn63.s 			page 116


 5595 1ddb 6D       		.byte	0x6d
 5596 1ddc 981E0000 		.4byte	0x1e98
 5597 1de0 2B       		.uleb128 0x2b
 5598 1de1 DE1C0000 		.4byte	0x1cde
 5599 1de5 46080000 		.4byte	.LLST49
 5600 1de9 2B       		.uleb128 0x2b
 5601 1dea D31C0000 		.4byte	0x1cd3
 5602 1dee 59080000 		.4byte	.LLST50
 5603 1df2 2B       		.uleb128 0x2b
 5604 1df3 C81C0000 		.4byte	0x1cc8
 5605 1df7 6C080000 		.4byte	.LLST51
 5606 1dfb 37       		.uleb128 0x37
 5607 1dfc C0000000 		.4byte	.Ldebug_ranges0+0xc0
 5608 1e00 2D       		.uleb128 0x2d
 5609 1e01 E91C0000 		.4byte	0x1ce9
 5610 1e05 7F080000 		.4byte	.LLST52
 5611 1e09 35       		.uleb128 0x35
 5612 1e0a 70000000 		.4byte	.LBB114
 5613 1e0e 3E000000 		.4byte	.LBE114-.LBB114
 5614 1e12 721E0000 		.4byte	0x1e72
 5615 1e16 30       		.uleb128 0x30
 5616 1e17 F51C0000 		.4byte	0x1cf5
 5617 1e1b 2D       		.uleb128 0x2d
 5618 1e1c 001D0000 		.4byte	0x1d00
 5619 1e20 9D080000 		.4byte	.LLST53
 5620 1e24 47       		.uleb128 0x47
 5621 1e25 EC110000 		.4byte	0x11ec
 5622 1e29 8C000000 		.4byte	.LBB115
 5623 1e2d 06000000 		.4byte	.LBE115-.LBB115
 5624 1e31 01       		.byte	0x1
 5625 1e32 97       		.byte	0x97
 5626 1e33 511E0000 		.4byte	0x1e51
 5627 1e37 2B       		.uleb128 0x2b
 5628 1e38 FC110000 		.4byte	0x11fc
 5629 1e3c BB080000 		.4byte	.LLST54
 5630 1e40 33       		.uleb128 0x33
 5631 1e41 92000000 		.4byte	.LVL128
 5632 1e45 29250000 		.4byte	0x2529
 5633 1e49 34       		.uleb128 0x34
 5634 1e4a 01       		.uleb128 0x1
 5635 1e4b 50       		.byte	0x50
 5636 1e4c 02       		.uleb128 0x2
 5637 1e4d 74       		.byte	0x74
 5638 1e4e 00       		.sleb128 0
 5639 1e4f 00       		.byte	0
 5640 1e50 00       		.byte	0
 5641 1e51 3E       		.uleb128 0x3e
 5642 1e52 78000000 		.4byte	.LVL125
 5643 1e56 EB250000 		.4byte	0x25eb
 5644 1e5a 33       		.uleb128 0x33
 5645 1e5b 86000000 		.4byte	.LVL126
 5646 1e5f F6250000 		.4byte	0x25f6
 5647 1e63 34       		.uleb128 0x34
 5648 1e64 01       		.uleb128 0x1
 5649 1e65 50       		.byte	0x50
 5650 1e66 01       		.uleb128 0x1
 5651 1e67 30       		.byte	0x30
ARM GAS  C:\Users\pearlstl\AppData\Local\Temp\cccjDn63.s 			page 117


 5652 1e68 34       		.uleb128 0x34
 5653 1e69 01       		.uleb128 0x1
 5654 1e6a 51       		.byte	0x51
 5655 1e6b 04       		.uleb128 0x4
 5656 1e6c 77       		.byte	0x77
 5657 1e6d 00       		.sleb128 0
 5658 1e6e 31       		.byte	0x31
 5659 1e6f 24       		.byte	0x24
 5660 1e70 00       		.byte	0
 5661 1e71 00       		.byte	0
 5662 1e72 36       		.uleb128 0x36
 5663 1e73 68000000 		.4byte	.LVL122
 5664 1e77 77250000 		.4byte	0x2577
 5665 1e7b 861E0000 		.4byte	0x1e86
 5666 1e7f 34       		.uleb128 0x34
 5667 1e80 01       		.uleb128 0x1
 5668 1e81 50       		.byte	0x50
 5669 1e82 02       		.uleb128 0x2
 5670 1e83 74       		.byte	0x74
 5671 1e84 00       		.sleb128 0
 5672 1e85 00       		.byte	0
 5673 1e86 33       		.uleb128 0x33
 5674 1e87 B8000000 		.4byte	.LVL133
 5675 1e8b 01260000 		.4byte	0x2601
 5676 1e8f 34       		.uleb128 0x34
 5677 1e90 01       		.uleb128 0x1
 5678 1e91 50       		.byte	0x50
 5679 1e92 02       		.uleb128 0x2
 5680 1e93 74       		.byte	0x74
 5681 1e94 00       		.sleb128 0
 5682 1e95 00       		.byte	0
 5683 1e96 00       		.byte	0
 5684 1e97 00       		.byte	0
 5685 1e98 36       		.uleb128 0x36
 5686 1e99 5A000000 		.4byte	.LVL117
 5687 1e9d 77250000 		.4byte	0x2577
 5688 1ea1 AC1E0000 		.4byte	0x1eac
 5689 1ea5 34       		.uleb128 0x34
 5690 1ea6 01       		.uleb128 0x1
 5691 1ea7 50       		.byte	0x50
 5692 1ea8 02       		.uleb128 0x2
 5693 1ea9 77       		.byte	0x77
 5694 1eaa 00       		.sleb128 0
 5695 1eab 00       		.byte	0
 5696 1eac 33       		.uleb128 0x33
 5697 1ead E0000000 		.4byte	.LVL139
 5698 1eb1 0D260000 		.4byte	0x260d
 5699 1eb5 34       		.uleb128 0x34
 5700 1eb6 01       		.uleb128 0x1
 5701 1eb7 50       		.byte	0x50
 5702 1eb8 02       		.uleb128 0x2
 5703 1eb9 74       		.byte	0x74
 5704 1eba 00       		.sleb128 0
 5705 1ebb 00       		.byte	0
 5706 1ebc 00       		.byte	0
 5707 1ebd 38       		.uleb128 0x38
 5708 1ebe D8000000 		.4byte	.Ldebug_ranges0+0xd8
ARM GAS  C:\Users\pearlstl\AppData\Local\Temp\cccjDn63.s 			page 118


 5709 1ec2 0D210000 		.4byte	0x210d
 5710 1ec6 45       		.uleb128 0x45
 5711 1ec7 746800   		.ascii	"th\000"
 5712 1eca 01       		.byte	0x1
 5713 1ecb 63       		.byte	0x63
 5714 1ecc A0210000 		.4byte	0x21a0
 5715 1ed0 CE080000 		.4byte	.LLST55
 5716 1ed4 47       		.uleb128 0x47
 5717 1ed5 0B1D0000 		.4byte	0x1d0b
 5718 1ed9 E6000000 		.4byte	.LBB120
 5719 1edd 1A000000 		.4byte	.LBE120-.LBB120
 5720 1ee1 01       		.byte	0x1
 5721 1ee2 5D       		.byte	0x5d
 5722 1ee3 621F0000 		.4byte	0x1f62
 5723 1ee7 2B       		.uleb128 0x2b
 5724 1ee8 381D0000 		.4byte	0x1d38
 5725 1eec EC080000 		.4byte	.LLST56
 5726 1ef0 2B       		.uleb128 0x2b
 5727 1ef1 2D1D0000 		.4byte	0x1d2d
 5728 1ef5 00090000 		.4byte	.LLST57
 5729 1ef9 2B       		.uleb128 0x2b
 5730 1efa 221D0000 		.4byte	0x1d22
 5731 1efe 14090000 		.4byte	.LLST58
 5732 1f02 2B       		.uleb128 0x2b
 5733 1f03 171D0000 		.4byte	0x1d17
 5734 1f07 29090000 		.4byte	.LLST59
 5735 1f0b 2C       		.uleb128 0x2c
 5736 1f0c E6000000 		.4byte	.LBB121
 5737 1f10 1A000000 		.4byte	.LBE121-.LBB121
 5738 1f14 2D       		.uleb128 0x2d
 5739 1f15 431D0000 		.4byte	0x1d43
 5740 1f19 3C090000 		.4byte	.LLST60
 5741 1f1d 36       		.uleb128 0x36
 5742 1f1e F0000000 		.4byte	.LVL141
 5743 1f22 19260000 		.4byte	0x2619
 5744 1f26 3C1F0000 		.4byte	0x1f3c
 5745 1f2a 34       		.uleb128 0x34
 5746 1f2b 01       		.uleb128 0x1
 5747 1f2c 50       		.byte	0x50
 5748 1f2d 02       		.uleb128 0x2
 5749 1f2e 74       		.byte	0x74
 5750 1f2f 00       		.sleb128 0
 5751 1f30 34       		.uleb128 0x34
 5752 1f31 01       		.uleb128 0x1
 5753 1f32 51       		.byte	0x51
 5754 1f33 02       		.uleb128 0x2
 5755 1f34 08       		.byte	0x8
 5756 1f35 DC       		.byte	0xdc
 5757 1f36 34       		.uleb128 0x34
 5758 1f37 01       		.uleb128 0x1
 5759 1f38 52       		.byte	0x52
 5760 1f39 01       		.uleb128 0x1
 5761 1f3a 45       		.byte	0x45
 5762 1f3b 00       		.byte	0
 5763 1f3c 36       		.uleb128 0x36
 5764 1f3d F6000000 		.4byte	.LVL142
 5765 1f41 77250000 		.4byte	0x2577
ARM GAS  C:\Users\pearlstl\AppData\Local\Temp\cccjDn63.s 			page 119


 5766 1f45 501F0000 		.4byte	0x1f50
 5767 1f49 34       		.uleb128 0x34
 5768 1f4a 01       		.uleb128 0x1
 5769 1f4b 50       		.byte	0x50
 5770 1f4c 02       		.uleb128 0x2
 5771 1f4d 74       		.byte	0x74
 5772 1f4e 00       		.sleb128 0
 5773 1f4f 00       		.byte	0
 5774 1f50 33       		.uleb128 0x33
 5775 1f51 00010000 		.4byte	.LVL144
 5776 1f55 01260000 		.4byte	0x2601
 5777 1f59 34       		.uleb128 0x34
 5778 1f5a 01       		.uleb128 0x1
 5779 1f5b 50       		.byte	0x50
 5780 1f5c 02       		.uleb128 0x2
 5781 1f5d 74       		.byte	0x74
 5782 1f5e 00       		.sleb128 0
 5783 1f5f 00       		.byte	0
 5784 1f60 00       		.byte	0
 5785 1f61 00       		.byte	0
 5786 1f62 47       		.uleb128 0x47
 5787 1f63 BC1C0000 		.4byte	0x1cbc
 5788 1f67 00010000 		.4byte	.LBB122
 5789 1f6b 40000000 		.4byte	.LBE122-.LBB122
 5790 1f6f 01       		.byte	0x1
 5791 1f70 5E       		.byte	0x5e
 5792 1f71 2E200000 		.4byte	0x202e
 5793 1f75 2B       		.uleb128 0x2b
 5794 1f76 DE1C0000 		.4byte	0x1cde
 5795 1f7a 4F090000 		.4byte	.LLST61
 5796 1f7e 2B       		.uleb128 0x2b
 5797 1f7f D31C0000 		.4byte	0x1cd3
 5798 1f83 63090000 		.4byte	.LLST62
 5799 1f87 2B       		.uleb128 0x2b
 5800 1f88 C81C0000 		.4byte	0x1cc8
 5801 1f8c 77090000 		.4byte	.LLST63
 5802 1f90 2C       		.uleb128 0x2c
 5803 1f91 00010000 		.4byte	.LBB123
 5804 1f95 40000000 		.4byte	.LBE123-.LBB123
 5805 1f99 2D       		.uleb128 0x2d
 5806 1f9a E91C0000 		.4byte	0x1ce9
 5807 1f9e 8A090000 		.4byte	.LLST64
 5808 1fa2 35       		.uleb128 0x35
 5809 1fa3 0E010000 		.4byte	.LBB124
 5810 1fa7 28000000 		.4byte	.LBE124-.LBB124
 5811 1fab 08200000 		.4byte	0x2008
 5812 1faf 30       		.uleb128 0x30
 5813 1fb0 F51C0000 		.4byte	0x1cf5
 5814 1fb4 2D       		.uleb128 0x2d
 5815 1fb5 001D0000 		.4byte	0x1d00
 5816 1fb9 A8090000 		.4byte	.LLST65
 5817 1fbd 47       		.uleb128 0x47
 5818 1fbe EC110000 		.4byte	0x11ec
 5819 1fc2 24010000 		.4byte	.LBB125
 5820 1fc6 06000000 		.4byte	.LBE125-.LBB125
 5821 1fca 01       		.byte	0x1
 5822 1fcb 97       		.byte	0x97
ARM GAS  C:\Users\pearlstl\AppData\Local\Temp\cccjDn63.s 			page 120


 5823 1fcc EA1F0000 		.4byte	0x1fea
 5824 1fd0 2B       		.uleb128 0x2b
 5825 1fd1 FC110000 		.4byte	0x11fc
 5826 1fd5 C8090000 		.4byte	.LLST66
 5827 1fd9 33       		.uleb128 0x33
 5828 1fda 2A010000 		.4byte	.LVL151
 5829 1fde 29250000 		.4byte	0x2529
 5830 1fe2 34       		.uleb128 0x34
 5831 1fe3 01       		.uleb128 0x1
 5832 1fe4 50       		.byte	0x50
 5833 1fe5 02       		.uleb128 0x2
 5834 1fe6 74       		.byte	0x74
 5835 1fe7 00       		.sleb128 0
 5836 1fe8 00       		.byte	0
 5837 1fe9 00       		.byte	0
 5838 1fea 3E       		.uleb128 0x3e
 5839 1feb 16010000 		.4byte	.LVL148
 5840 1fef EB250000 		.4byte	0x25eb
 5841 1ff3 33       		.uleb128 0x33
 5842 1ff4 20010000 		.4byte	.LVL149
 5843 1ff8 F6250000 		.4byte	0x25f6
 5844 1ffc 34       		.uleb128 0x34
 5845 1ffd 01       		.uleb128 0x1
 5846 1ffe 50       		.byte	0x50
 5847 1fff 01       		.uleb128 0x1
 5848 2000 30       		.byte	0x30
 5849 2001 34       		.uleb128 0x34
 5850 2002 01       		.uleb128 0x1
 5851 2003 51       		.byte	0x51
 5852 2004 01       		.uleb128 0x1
 5853 2005 32       		.byte	0x32
 5854 2006 00       		.byte	0
 5855 2007 00       		.byte	0
 5856 2008 36       		.uleb128 0x36
 5857 2009 06010000 		.4byte	.LVL145
 5858 200d 77250000 		.4byte	0x2577
 5859 2011 1C200000 		.4byte	0x201c
 5860 2015 34       		.uleb128 0x34
 5861 2016 01       		.uleb128 0x1
 5862 2017 50       		.byte	0x50
 5863 2018 02       		.uleb128 0x2
 5864 2019 74       		.byte	0x74
 5865 201a 00       		.sleb128 0
 5866 201b 00       		.byte	0
 5867 201c 33       		.uleb128 0x33
 5868 201d 40010000 		.4byte	.LVL154
 5869 2021 01260000 		.4byte	0x2601
 5870 2025 34       		.uleb128 0x34
 5871 2026 01       		.uleb128 0x1
 5872 2027 50       		.byte	0x50
 5873 2028 02       		.uleb128 0x2
 5874 2029 74       		.byte	0x74
 5875 202a 00       		.sleb128 0
 5876 202b 00       		.byte	0
 5877 202c 00       		.byte	0
 5878 202d 00       		.byte	0
 5879 202e 47       		.uleb128 0x47
ARM GAS  C:\Users\pearlstl\AppData\Local\Temp\cccjDn63.s 			page 121


 5880 202f 04130000 		.4byte	0x1304
 5881 2033 40010000 		.4byte	.LBB127
 5882 2037 08000000 		.4byte	.LBE127-.LBB127
 5883 203b 01       		.byte	0x1
 5884 203c 5F       		.byte	0x5f
 5885 203d 6A200000 		.4byte	0x206a
 5886 2041 2B       		.uleb128 0x2b
 5887 2042 1B130000 		.4byte	0x131b
 5888 2046 DB090000 		.4byte	.LLST67
 5889 204a 2B       		.uleb128 0x2b
 5890 204b 10130000 		.4byte	0x1310
 5891 204f F0090000 		.4byte	.LLST68
 5892 2053 33       		.uleb128 0x33
 5893 2054 48010000 		.4byte	.LVL155
 5894 2058 24260000 		.4byte	0x2624
 5895 205c 34       		.uleb128 0x34
 5896 205d 01       		.uleb128 0x1
 5897 205e 50       		.byte	0x50
 5898 205f 02       		.uleb128 0x2
 5899 2060 74       		.byte	0x74
 5900 2061 00       		.sleb128 0
 5901 2062 34       		.uleb128 0x34
 5902 2063 01       		.uleb128 0x1
 5903 2064 51       		.byte	0x51
 5904 2065 02       		.uleb128 0x2
 5905 2066 08       		.byte	0x8
 5906 2067 50       		.byte	0x50
 5907 2068 00       		.byte	0
 5908 2069 00       		.byte	0
 5909 206a 47       		.uleb128 0x47
 5910 206b D6120000 		.4byte	0x12d6
 5911 206f 5A010000 		.4byte	.LBB129
 5912 2073 0E000000 		.4byte	.LBE129-.LBB129
 5913 2077 01       		.byte	0x1
 5914 2078 65       		.byte	0x65
 5915 2079 A9200000 		.4byte	0x20a9
 5916 207d 2B       		.uleb128 0x2b
 5917 207e ED120000 		.4byte	0x12ed
 5918 2082 030A0000 		.4byte	.LLST69
 5919 2086 2B       		.uleb128 0x2b
 5920 2087 F8120000 		.4byte	0x12f8
 5921 208b 170A0000 		.4byte	.LLST70
 5922 208f 2B       		.uleb128 0x2b
 5923 2090 E2120000 		.4byte	0x12e2
 5924 2094 370A0000 		.4byte	.LLST71
 5925 2098 33       		.uleb128 0x33
 5926 2099 62010000 		.4byte	.LVL160
 5927 209d 2F260000 		.4byte	0x262f
 5928 20a1 34       		.uleb128 0x34
 5929 20a2 01       		.uleb128 0x1
 5930 20a3 50       		.byte	0x50
 5931 20a4 02       		.uleb128 0x2
 5932 20a5 74       		.byte	0x74
 5933 20a6 00       		.sleb128 0
 5934 20a7 00       		.byte	0
 5935 20a8 00       		.byte	0
 5936 20a9 47       		.uleb128 0x47
ARM GAS  C:\Users\pearlstl\AppData\Local\Temp\cccjDn63.s 			page 122


 5937 20aa D6120000 		.4byte	0x12d6
 5938 20ae 82010000 		.4byte	.LBB131
 5939 20b2 1E000000 		.4byte	.LBE131-.LBB131
 5940 20b6 01       		.byte	0x1
 5941 20b7 67       		.byte	0x67
 5942 20b8 E1200000 		.4byte	0x20e1
 5943 20bc 3C       		.uleb128 0x3c
 5944 20bd ED120000 		.4byte	0x12ed
 5945 20c1 00       		.byte	0
 5946 20c2 32       		.uleb128 0x32
 5947 20c3 F8120000 		.4byte	0x12f8
 5948 20c7 2B       		.uleb128 0x2b
 5949 20c8 E2120000 		.4byte	0x12e2
 5950 20cc 4A0A0000 		.4byte	.LLST72
 5951 20d0 33       		.uleb128 0x33
 5952 20d1 8A010000 		.4byte	.LVL168
 5953 20d5 2F260000 		.4byte	0x262f
 5954 20d9 34       		.uleb128 0x34
 5955 20da 01       		.uleb128 0x1
 5956 20db 50       		.byte	0x50
 5957 20dc 02       		.uleb128 0x2
 5958 20dd 74       		.byte	0x74
 5959 20de 00       		.sleb128 0
 5960 20df 00       		.byte	0
 5961 20e0 00       		.byte	0
 5962 20e1 36       		.uleb128 0x36
 5963 20e2 54010000 		.4byte	.LVL156
 5964 20e6 3B260000 		.4byte	0x263b
 5965 20ea 03210000 		.4byte	0x2103
 5966 20ee 34       		.uleb128 0x34
 5967 20ef 01       		.uleb128 0x1
 5968 20f0 50       		.byte	0x50
 5969 20f1 02       		.uleb128 0x2
 5970 20f2 74       		.byte	0x74
 5971 20f3 00       		.sleb128 0
 5972 20f4 34       		.uleb128 0x34
 5973 20f5 01       		.uleb128 0x1
 5974 20f6 51       		.byte	0x51
 5975 20f7 03       		.uleb128 0x3
 5976 20f8 0A       		.byte	0xa
 5977 20f9 2C01     		.2byte	0x12c
 5978 20fb 34       		.uleb128 0x34
 5979 20fc 01       		.uleb128 0x1
 5980 20fd 52       		.byte	0x52
 5981 20fe 03       		.uleb128 0x3
 5982 20ff 0A       		.byte	0xa
 5983 2100 2C01     		.2byte	0x12c
 5984 2102 00       		.byte	0
 5985 2103 3E       		.uleb128 0x3e
 5986 2104 58010000 		.4byte	.LVL157
 5987 2108 47260000 		.4byte	0x2647
 5988 210c 00       		.byte	0
 5989 210d 36       		.uleb128 0x36
 5990 210e 0A000000 		.4byte	.LVL112
 5991 2112 53260000 		.4byte	0x2653
 5992 2116 28210000 		.4byte	0x2128
 5993 211a 34       		.uleb128 0x34
ARM GAS  C:\Users\pearlstl\AppData\Local\Temp\cccjDn63.s 			page 123


 5994 211b 01       		.uleb128 0x1
 5995 211c 50       		.byte	0x50
 5996 211d 03       		.uleb128 0x3
 5997 211e F3       		.byte	0xf3
 5998 211f 01       		.uleb128 0x1
 5999 2120 50       		.byte	0x50
 6000 2121 34       		.uleb128 0x34
 6001 2122 01       		.uleb128 0x1
 6002 2123 51       		.byte	0x51
 6003 2124 02       		.uleb128 0x2
 6004 2125 77       		.byte	0x77
 6005 2126 00       		.sleb128 0
 6006 2127 00       		.byte	0
 6007 2128 36       		.uleb128 0x36
 6008 2129 18000000 		.4byte	.LVL113
 6009 212d 5E260000 		.4byte	0x265e
 6010 2131 41210000 		.4byte	0x2141
 6011 2135 34       		.uleb128 0x34
 6012 2136 01       		.uleb128 0x1
 6013 2137 50       		.byte	0x50
 6014 2138 02       		.uleb128 0x2
 6015 2139 74       		.byte	0x74
 6016 213a 00       		.sleb128 0
 6017 213b 34       		.uleb128 0x34
 6018 213c 01       		.uleb128 0x1
 6019 213d 51       		.byte	0x51
 6020 213e 01       		.uleb128 0x1
 6021 213f 48       		.byte	0x48
 6022 2140 00       		.byte	0
 6023 2141 36       		.uleb128 0x36
 6024 2142 48000000 		.4byte	.LVL115
 6025 2146 6A260000 		.4byte	0x266a
 6026 214a 5E210000 		.4byte	0x215e
 6027 214e 34       		.uleb128 0x34
 6028 214f 01       		.uleb128 0x1
 6029 2150 50       		.byte	0x50
 6030 2151 02       		.uleb128 0x2
 6031 2152 74       		.byte	0x74
 6032 2153 00       		.sleb128 0
 6033 2154 34       		.uleb128 0x34
 6034 2155 01       		.uleb128 0x1
 6035 2156 51       		.byte	0x51
 6036 2157 05       		.uleb128 0x5
 6037 2158 03       		.byte	0x3
 6038 2159 00000000 		.4byte	lv_gauge_signal
 6039 215d 00       		.byte	0
 6040 215e 36       		.uleb128 0x36
 6041 215f 50000000 		.4byte	.LVL116
 6042 2163 76260000 		.4byte	0x2676
 6043 2167 7B210000 		.4byte	0x217b
 6044 216b 34       		.uleb128 0x34
 6045 216c 01       		.uleb128 0x1
 6046 216d 50       		.byte	0x50
 6047 216e 02       		.uleb128 0x2
 6048 216f 74       		.byte	0x74
 6049 2170 00       		.sleb128 0
 6050 2171 34       		.uleb128 0x34
ARM GAS  C:\Users\pearlstl\AppData\Local\Temp\cccjDn63.s 			page 124


 6051 2172 01       		.uleb128 0x1
 6052 2173 51       		.byte	0x51
 6053 2174 05       		.uleb128 0x5
 6054 2175 03       		.byte	0x3
 6055 2176 00000000 		.4byte	lv_gauge_design
 6056 217a 00       		.byte	0
 6057 217b 36       		.uleb128 0x36
 6058 217c 74010000 		.4byte	.LVL164
 6059 2180 82260000 		.4byte	0x2682
 6060 2184 8F210000 		.4byte	0x218f
 6061 2188 34       		.uleb128 0x34
 6062 2189 01       		.uleb128 0x1
 6063 218a 50       		.byte	0x50
 6064 218b 02       		.uleb128 0x2
 6065 218c 74       		.byte	0x74
 6066 218d 00       		.sleb128 0
 6067 218e 00       		.byte	0
 6068 218f 33       		.uleb128 0x33
 6069 2190 7E010000 		.4byte	.LVL165
 6070 2194 8E260000 		.4byte	0x268e
 6071 2198 34       		.uleb128 0x34
 6072 2199 01       		.uleb128 0x1
 6073 219a 50       		.byte	0x50
 6074 219b 02       		.uleb128 0x2
 6075 219c 74       		.byte	0x74
 6076 219d 00       		.sleb128 0
 6077 219e 00       		.byte	0
 6078 219f 00       		.byte	0
 6079 21a0 0D       		.uleb128 0xd
 6080 21a1 04       		.byte	0x4
 6081 21a2 92110000 		.4byte	0x1192
 6082 21a6 3B       		.uleb128 0x3b
 6083 21a7 BC1C0000 		.4byte	0x1cbc
 6084 21ab 00000000 		.4byte	.LFB48
 6085 21af 56000000 		.4byte	.LFE48-.LFB48
 6086 21b3 01       		.uleb128 0x1
 6087 21b4 9C       		.byte	0x9c
 6088 21b5 6C220000 		.4byte	0x226c
 6089 21b9 2B       		.uleb128 0x2b
 6090 21ba C81C0000 		.4byte	0x1cc8
 6091 21be 680A0000 		.4byte	.LLST73
 6092 21c2 2B       		.uleb128 0x2b
 6093 21c3 D31C0000 		.4byte	0x1cd3
 6094 21c7 AA0A0000 		.4byte	.LLST74
 6095 21cb 2B       		.uleb128 0x2b
 6096 21cc DE1C0000 		.4byte	0x1cde
 6097 21d0 CB0A0000 		.4byte	.LLST75
 6098 21d4 2D       		.uleb128 0x2d
 6099 21d5 E91C0000 		.4byte	0x1ce9
 6100 21d9 020B0000 		.4byte	.LLST76
 6101 21dd 35       		.uleb128 0x35
 6102 21de 14000000 		.4byte	.LBB134
 6103 21e2 34000000 		.4byte	.LBE134-.LBB134
 6104 21e6 46220000 		.4byte	0x2246
 6105 21ea 30       		.uleb128 0x30
 6106 21eb F51C0000 		.4byte	0x1cf5
 6107 21ef 2D       		.uleb128 0x2d
ARM GAS  C:\Users\pearlstl\AppData\Local\Temp\cccjDn63.s 			page 125


 6108 21f0 001D0000 		.4byte	0x1d00
 6109 21f4 2B0B0000 		.4byte	.LLST77
 6110 21f8 47       		.uleb128 0x47
 6111 21f9 EC110000 		.4byte	0x11ec
 6112 21fd 2C000000 		.4byte	.LBB135
 6113 2201 06000000 		.4byte	.LBE135-.LBB135
 6114 2205 01       		.byte	0x1
 6115 2206 97       		.byte	0x97
 6116 2207 25220000 		.4byte	0x2225
 6117 220b 2B       		.uleb128 0x2b
 6118 220c FC110000 		.4byte	0x11fc
 6119 2210 490B0000 		.4byte	.LLST78
 6120 2214 33       		.uleb128 0x33
 6121 2215 32000000 		.4byte	.LVL177
 6122 2219 29250000 		.4byte	0x2529
 6123 221d 34       		.uleb128 0x34
 6124 221e 01       		.uleb128 0x1
 6125 221f 50       		.byte	0x50
 6126 2220 02       		.uleb128 0x2
 6127 2221 76       		.byte	0x76
 6128 2222 00       		.sleb128 0
 6129 2223 00       		.byte	0
 6130 2224 00       		.byte	0
 6131 2225 3E       		.uleb128 0x3e
 6132 2226 1C000000 		.4byte	.LVL174
 6133 222a EB250000 		.4byte	0x25eb
 6134 222e 33       		.uleb128 0x33
 6135 222f 28000000 		.4byte	.LVL175
 6136 2233 F6250000 		.4byte	0x25f6
 6137 2237 34       		.uleb128 0x34
 6138 2238 01       		.uleb128 0x1
 6139 2239 50       		.byte	0x50
 6140 223a 01       		.uleb128 0x1
 6141 223b 30       		.byte	0x30
 6142 223c 34       		.uleb128 0x34
 6143 223d 01       		.uleb128 0x1
 6144 223e 51       		.byte	0x51
 6145 223f 04       		.uleb128 0x4
 6146 2240 74       		.byte	0x74
 6147 2241 00       		.sleb128 0
 6148 2242 31       		.byte	0x31
 6149 2243 24       		.byte	0x24
 6150 2244 00       		.byte	0
 6151 2245 00       		.byte	0
 6152 2246 36       		.uleb128 0x36
 6153 2247 0C000000 		.4byte	.LVL171
 6154 224b 77250000 		.4byte	0x2577
 6155 224f 5A220000 		.4byte	0x225a
 6156 2253 34       		.uleb128 0x34
 6157 2254 01       		.uleb128 0x1
 6158 2255 50       		.byte	0x50
 6159 2256 02       		.uleb128 0x2
 6160 2257 76       		.byte	0x76
 6161 2258 00       		.sleb128 0
 6162 2259 00       		.byte	0
 6163 225a 3D       		.uleb128 0x3d
 6164 225b 54000000 		.4byte	.LVL183
ARM GAS  C:\Users\pearlstl\AppData\Local\Temp\cccjDn63.s 			page 126


 6165 225f 01260000 		.4byte	0x2601
 6166 2263 34       		.uleb128 0x34
 6167 2264 01       		.uleb128 0x1
 6168 2265 50       		.byte	0x50
 6169 2266 03       		.uleb128 0x3
 6170 2267 F3       		.byte	0xf3
 6171 2268 01       		.uleb128 0x1
 6172 2269 50       		.byte	0x50
 6173 226a 00       		.byte	0
 6174 226b 00       		.byte	0
 6175 226c 48       		.uleb128 0x48
 6176 226d 02010000 		.4byte	.LASF301
 6177 2271 01       		.byte	0x1
 6178 2272 AA       		.byte	0xaa
 6179 2273 00000000 		.4byte	.LFB49
 6180 2277 54000000 		.4byte	.LFE49-.LFB49
 6181 227b 01       		.uleb128 0x1
 6182 227c 9C       		.byte	0x9c
 6183 227d 53230000 		.4byte	0x2353
 6184 2281 43       		.uleb128 0x43
 6185 2282 59090000 		.4byte	.LASF195
 6186 2286 01       		.byte	0x1
 6187 2287 AA       		.byte	0xaa
 6188 2288 7C120000 		.4byte	0x127c
 6189 228c 5C0B0000 		.4byte	.LLST79
 6190 2290 43       		.uleb128 0x43
 6191 2291 BF090000 		.4byte	.LASF256
 6192 2295 01       		.byte	0x1
 6193 2296 AA       		.byte	0xaa
 6194 2297 B8000000 		.4byte	0xb8
 6195 229b 9E0B0000 		.4byte	.LLST80
 6196 229f 43       		.uleb128 0x43
 6197 22a0 41040000 		.4byte	.LASF225
 6198 22a4 01       		.byte	0x1
 6199 22a5 AA       		.byte	0xaa
 6200 22a6 C3000000 		.4byte	0xc3
 6201 22aa BF0B0000 		.4byte	.LLST81
 6202 22ae 45       		.uleb128 0x45
 6203 22af 65787400 		.ascii	"ext\000"
 6204 22b3 01       		.byte	0x1
 6205 22b4 AE       		.byte	0xae
 6206 22b5 82120000 		.4byte	0x1282
 6207 22b9 F90B0000 		.4byte	.LLST82
 6208 22bd 40       		.uleb128 0x40
 6209 22be 6D696E00 		.ascii	"min\000"
 6210 22c2 01       		.byte	0x1
 6211 22c3 B3       		.byte	0xb3
 6212 22c4 C3000000 		.4byte	0xc3
 6213 22c8 40       		.uleb128 0x40
 6214 22c9 6D617800 		.ascii	"max\000"
 6215 22cd 01       		.byte	0x1
 6216 22ce B4       		.byte	0xb4
 6217 22cf C3000000 		.4byte	0xc3
 6218 22d3 47       		.uleb128 0x47
 6219 22d4 EC110000 		.4byte	0x11ec
 6220 22d8 22000000 		.4byte	.LBB137
 6221 22dc 08000000 		.4byte	.LBE137-.LBB137
ARM GAS  C:\Users\pearlstl\AppData\Local\Temp\cccjDn63.s 			page 127


 6222 22e0 01       		.byte	0x1
 6223 22e1 B3       		.byte	0xb3
 6224 22e2 00230000 		.4byte	0x2300
 6225 22e6 2B       		.uleb128 0x2b
 6226 22e7 FC110000 		.4byte	0x11fc
 6227 22eb 2D0C0000 		.4byte	.LLST83
 6228 22ef 33       		.uleb128 0x33
 6229 22f0 28000000 		.4byte	.LVL188
 6230 22f4 29250000 		.4byte	0x2529
 6231 22f8 34       		.uleb128 0x34
 6232 22f9 01       		.uleb128 0x1
 6233 22fa 50       		.byte	0x50
 6234 22fb 02       		.uleb128 0x2
 6235 22fc 77       		.byte	0x77
 6236 22fd 00       		.sleb128 0
 6237 22fe 00       		.byte	0
 6238 22ff 00       		.byte	0
 6239 2300 46       		.uleb128 0x46
 6240 2301 D0110000 		.4byte	0x11d0
 6241 2305 2A000000 		.4byte	.LBB139
 6242 2309 F0000000 		.4byte	.Ldebug_ranges0+0xf0
 6243 230d 01       		.byte	0x1
 6244 230e B4       		.byte	0xb4
 6245 230f 2D230000 		.4byte	0x232d
 6246 2313 2B       		.uleb128 0x2b
 6247 2314 E0110000 		.4byte	0x11e0
 6248 2318 400C0000 		.4byte	.LLST84
 6249 231c 33       		.uleb128 0x33
 6250 231d 30000000 		.4byte	.LVL190
 6251 2321 34250000 		.4byte	0x2534
 6252 2325 34       		.uleb128 0x34
 6253 2326 01       		.uleb128 0x1
 6254 2327 50       		.byte	0x50
 6255 2328 02       		.uleb128 0x2
 6256 2329 77       		.byte	0x77
 6257 232a 00       		.sleb128 0
 6258 232b 00       		.byte	0
 6259 232c 00       		.byte	0
 6260 232d 36       		.uleb128 0x36
 6261 232e 0E000000 		.4byte	.LVL185
 6262 2332 77250000 		.4byte	0x2577
 6263 2336 41230000 		.4byte	0x2341
 6264 233a 34       		.uleb128 0x34
 6265 233b 01       		.uleb128 0x1
 6266 233c 50       		.byte	0x50
 6267 233d 02       		.uleb128 0x2
 6268 233e 77       		.byte	0x77
 6269 233f 00       		.sleb128 0
 6270 2340 00       		.byte	0
 6271 2341 3D       		.uleb128 0x3d
 6272 2342 46000000 		.4byte	.LVL194
 6273 2346 01260000 		.4byte	0x2601
 6274 234a 34       		.uleb128 0x34
 6275 234b 01       		.uleb128 0x1
 6276 234c 50       		.byte	0x50
 6277 234d 03       		.uleb128 0x3
 6278 234e F3       		.byte	0xf3
ARM GAS  C:\Users\pearlstl\AppData\Local\Temp\cccjDn63.s 			page 128


 6279 234f 01       		.uleb128 0x1
 6280 2350 50       		.byte	0x50
 6281 2351 00       		.byte	0
 6282 2352 00       		.byte	0
 6283 2353 3B       		.uleb128 0x3b
 6284 2354 0B1D0000 		.4byte	0x1d0b
 6285 2358 00000000 		.4byte	.LFB50
 6286 235c 1C000000 		.4byte	.LFE50-.LFB50
 6287 2360 01       		.uleb128 0x1
 6288 2361 9C       		.byte	0x9c
 6289 2362 CD230000 		.4byte	0x23cd
 6290 2366 2B       		.uleb128 0x2b
 6291 2367 171D0000 		.4byte	0x1d17
 6292 236b 530C0000 		.4byte	.LLST85
 6293 236f 2B       		.uleb128 0x2b
 6294 2370 221D0000 		.4byte	0x1d22
 6295 2374 8A0C0000 		.4byte	.LLST86
 6296 2378 2B       		.uleb128 0x2b
 6297 2379 2D1D0000 		.4byte	0x1d2d
 6298 237d AB0C0000 		.4byte	.LLST87
 6299 2381 2B       		.uleb128 0x2b
 6300 2382 381D0000 		.4byte	0x1d38
 6301 2386 CC0C0000 		.4byte	.LLST88
 6302 238a 2D       		.uleb128 0x2d
 6303 238b 431D0000 		.4byte	0x1d43
 6304 238f ED0C0000 		.4byte	.LLST89
 6305 2393 36       		.uleb128 0x36
 6306 2394 0A000000 		.4byte	.LVL197
 6307 2398 19260000 		.4byte	0x2619
 6308 239c A7230000 		.4byte	0x23a7
 6309 23a0 34       		.uleb128 0x34
 6310 23a1 01       		.uleb128 0x1
 6311 23a2 50       		.byte	0x50
 6312 23a3 02       		.uleb128 0x2
 6313 23a4 74       		.byte	0x74
 6314 23a5 00       		.sleb128 0
 6315 23a6 00       		.byte	0
 6316 23a7 36       		.uleb128 0x36
 6317 23a8 10000000 		.4byte	.LVL198
 6318 23ac 77250000 		.4byte	0x2577
 6319 23b0 BB230000 		.4byte	0x23bb
 6320 23b4 34       		.uleb128 0x34
 6321 23b5 01       		.uleb128 0x1
 6322 23b6 50       		.byte	0x50
 6323 23b7 02       		.uleb128 0x2
 6324 23b8 74       		.byte	0x74
 6325 23b9 00       		.sleb128 0
 6326 23ba 00       		.byte	0
 6327 23bb 3D       		.uleb128 0x3d
 6328 23bc 1C000000 		.4byte	.LVL201
 6329 23c0 01260000 		.4byte	0x2601
 6330 23c4 34       		.uleb128 0x34
 6331 23c5 01       		.uleb128 0x1
 6332 23c6 50       		.byte	0x50
 6333 23c7 03       		.uleb128 0x3
 6334 23c8 F3       		.byte	0xf3
 6335 23c9 01       		.uleb128 0x1
ARM GAS  C:\Users\pearlstl\AppData\Local\Temp\cccjDn63.s 			page 129


 6336 23ca 50       		.byte	0x50
 6337 23cb 00       		.byte	0
 6338 23cc 00       		.byte	0
 6339 23cd 41       		.uleb128 0x41
 6340 23ce 4F060000 		.4byte	.LASF258
 6341 23d2 01       		.byte	0x1
 6342 23d3 DE       		.byte	0xde
 6343 23d4 C3000000 		.4byte	0xc3
 6344 23d8 00000000 		.4byte	.LFB51
 6345 23dc 20000000 		.4byte	.LFE51-.LFB51
 6346 23e0 01       		.uleb128 0x1
 6347 23e1 9C       		.byte	0x9c
 6348 23e2 5C240000 		.4byte	0x245c
 6349 23e6 43       		.uleb128 0x43
 6350 23e7 59090000 		.4byte	.LASF195
 6351 23eb 01       		.byte	0x1
 6352 23ec DE       		.byte	0xde
 6353 23ed C5110000 		.4byte	0x11c5
 6354 23f1 000D0000 		.4byte	.LLST90
 6355 23f5 43       		.uleb128 0x43
 6356 23f6 EA070000 		.4byte	.LASF259
 6357 23fa 01       		.byte	0x1
 6358 23fb DE       		.byte	0xde
 6359 23fc B8000000 		.4byte	0xb8
 6360 2400 1E0D0000 		.4byte	.LLST91
 6361 2404 45       		.uleb128 0x45
 6362 2405 65787400 		.ascii	"ext\000"
 6363 2409 01       		.byte	0x1
 6364 240a E2       		.byte	0xe2
 6365 240b 82120000 		.4byte	0x1282
 6366 240f 3F0D0000 		.4byte	.LLST92
 6367 2413 40       		.uleb128 0x40
 6368 2414 6D696E00 		.ascii	"min\000"
 6369 2418 01       		.byte	0x1
 6370 2419 E3       		.byte	0xe3
 6371 241a C3000000 		.4byte	0xc3
 6372 241e 47       		.uleb128 0x47
 6373 241f EC110000 		.4byte	0x11ec
 6374 2423 0C000000 		.4byte	.LBB143
 6375 2427 06000000 		.4byte	.LBE143-.LBB143
 6376 242b 01       		.byte	0x1
 6377 242c E3       		.byte	0xe3
 6378 242d 4B240000 		.4byte	0x244b
 6379 2431 2B       		.uleb128 0x2b
 6380 2432 FC110000 		.4byte	0x11fc
 6381 2436 5D0D0000 		.4byte	.LLST93
 6382 243a 33       		.uleb128 0x33
 6383 243b 12000000 		.4byte	.LVL206
 6384 243f 29250000 		.4byte	0x2529
 6385 2443 34       		.uleb128 0x34
 6386 2444 01       		.uleb128 0x1
 6387 2445 50       		.byte	0x50
 6388 2446 02       		.uleb128 0x2
 6389 2447 76       		.byte	0x76
 6390 2448 00       		.sleb128 0
 6391 2449 00       		.byte	0
 6392 244a 00       		.byte	0
ARM GAS  C:\Users\pearlstl\AppData\Local\Temp\cccjDn63.s 			page 130


 6393 244b 33       		.uleb128 0x33
 6394 244c 0A000000 		.4byte	.LVL203
 6395 2450 77250000 		.4byte	0x2577
 6396 2454 34       		.uleb128 0x34
 6397 2455 01       		.uleb128 0x1
 6398 2456 50       		.byte	0x50
 6399 2457 02       		.uleb128 0x2
 6400 2458 76       		.byte	0x76
 6401 2459 00       		.sleb128 0
 6402 245a 00       		.byte	0
 6403 245b 00       		.byte	0
 6404 245c 41       		.uleb128 0x41
 6405 245d FB070000 		.4byte	.LASF260
 6406 2461 01       		.byte	0x1
 6407 2462 EF       		.byte	0xef
 6408 2463 B8000000 		.4byte	0xb8
 6409 2467 00000000 		.4byte	.LFB52
 6410 246b 0A000000 		.4byte	.LFE52-.LFB52
 6411 246f 01       		.uleb128 0x1
 6412 2470 9C       		.byte	0x9c
 6413 2471 A5240000 		.4byte	0x24a5
 6414 2475 43       		.uleb128 0x43
 6415 2476 59090000 		.4byte	.LASF195
 6416 247a 01       		.byte	0x1
 6417 247b EF       		.byte	0xef
 6418 247c C5110000 		.4byte	0x11c5
 6419 2480 700D0000 		.4byte	.LLST94
 6420 2484 45       		.uleb128 0x45
 6421 2485 65787400 		.ascii	"ext\000"
 6422 2489 01       		.byte	0x1
 6423 248a F3       		.byte	0xf3
 6424 248b 82120000 		.4byte	0x1282
 6425 248f 910D0000 		.4byte	.LLST95
 6426 2493 33       		.uleb128 0x33
 6427 2494 06000000 		.4byte	.LVL208
 6428 2498 77250000 		.4byte	0x2577
 6429 249c 34       		.uleb128 0x34
 6430 249d 01       		.uleb128 0x1
 6431 249e 50       		.byte	0x50
 6432 249f 03       		.uleb128 0x3
 6433 24a0 F3       		.byte	0xf3
 6434 24a1 01       		.uleb128 0x1
 6435 24a2 50       		.byte	0x50
 6436 24a3 00       		.byte	0
 6437 24a4 00       		.byte	0
 6438 24a5 41       		.uleb128 0x41
 6439 24a6 6A040000 		.4byte	.LASF261
 6440 24aa 01       		.byte	0x1
 6441 24ab FC       		.byte	0xfc
 6442 24ac B8000000 		.4byte	0xb8
 6443 24b0 00000000 		.4byte	.LFB53
 6444 24b4 0A000000 		.4byte	.LFE53-.LFB53
 6445 24b8 01       		.uleb128 0x1
 6446 24b9 9C       		.byte	0x9c
 6447 24ba EF240000 		.4byte	0x24ef
 6448 24be 43       		.uleb128 0x43
 6449 24bf 59090000 		.4byte	.LASF195
ARM GAS  C:\Users\pearlstl\AppData\Local\Temp\cccjDn63.s 			page 131


 6450 24c3 01       		.byte	0x1
 6451 24c4 FC       		.byte	0xfc
 6452 24c5 C5110000 		.4byte	0x11c5
 6453 24c9 A40D0000 		.4byte	.LLST96
 6454 24cd 49       		.uleb128 0x49
 6455 24ce 65787400 		.ascii	"ext\000"
 6456 24d2 01       		.byte	0x1
 6457 24d3 0001     		.2byte	0x100
 6458 24d5 82120000 		.4byte	0x1282
 6459 24d9 C50D0000 		.4byte	.LLST97
 6460 24dd 33       		.uleb128 0x33
 6461 24de 06000000 		.4byte	.LVL211
 6462 24e2 77250000 		.4byte	0x2577
 6463 24e6 34       		.uleb128 0x34
 6464 24e7 01       		.uleb128 0x1
 6465 24e8 50       		.byte	0x50
 6466 24e9 03       		.uleb128 0x3
 6467 24ea F3       		.byte	0xf3
 6468 24eb 01       		.uleb128 0x1
 6469 24ec 50       		.byte	0x50
 6470 24ed 00       		.byte	0
 6471 24ee 00       		.byte	0
 6472 24ef 4A       		.uleb128 0x4a
 6473 24f0 F80A0000 		.4byte	.LASF262
 6474 24f4 01       		.byte	0x1
 6475 24f5 30       		.byte	0x30
 6476 24f6 44070000 		.4byte	0x744
 6477 24fa 05       		.uleb128 0x5
 6478 24fb 03       		.byte	0x3
 6479 24fc 00000000 		.4byte	ancestor_design
 6480 2500 4A       		.uleb128 0x4a
 6481 2501 E80A0000 		.4byte	.LASF263
 6482 2505 01       		.byte	0x1
 6483 2506 31       		.byte	0x31
 6484 2507 2A080000 		.4byte	0x82a
 6485 250b 05       		.uleb128 0x5
 6486 250c 03       		.byte	0x3
 6487 250d 04000000 		.4byte	ancestor_signal
 6488 2511 4B       		.uleb128 0x4b
 6489 2512 F3080000 		.4byte	.LASF264
 6490 2516 09       		.byte	0x9
 6491 2517 0F01     		.2byte	0x10f
 6492 2519 3E050000 		.4byte	0x53e
 6493 251d 4B       		.uleb128 0x4b
 6494 251e 5B000000 		.4byte	.LASF265
 6495 2522 09       		.byte	0x9
 6496 2523 1201     		.2byte	0x112
 6497 2525 3E050000 		.4byte	0x53e
 6498 2529 4C       		.uleb128 0x4c
 6499 252a 3B050000 		.4byte	.LASF266
 6500 252e 3B050000 		.4byte	.LASF266
 6501 2532 0E       		.byte	0xe
 6502 2533 7F       		.byte	0x7f
 6503 2534 4C       		.uleb128 0x4c
 6504 2535 120B0000 		.4byte	.LASF267
 6505 2539 120B0000 		.4byte	.LASF267
 6506 253d 0E       		.byte	0xe
ARM GAS  C:\Users\pearlstl\AppData\Local\Temp\cccjDn63.s 			page 132


 6507 253e 86       		.byte	0x86
 6508 253f 4C       		.uleb128 0x4c
 6509 2540 A5010000 		.4byte	.LASF268
 6510 2544 A5010000 		.4byte	.LASF268
 6511 2548 11       		.byte	0x11
 6512 2549 31       		.byte	0x31
 6513 254a 4C       		.uleb128 0x4c
 6514 254b 3D0D0000 		.4byte	.LASF269
 6515 254f 3D0D0000 		.4byte	.LASF269
 6516 2553 12       		.byte	0x12
 6517 2554 24       		.byte	0x24
 6518 2555 4C       		.uleb128 0x4c
 6519 2556 CD020000 		.4byte	.LASF270
 6520 255a CD020000 		.4byte	.LASF270
 6521 255e 0F       		.byte	0xf
 6522 255f 4C       		.byte	0x4c
 6523 2560 4D       		.uleb128 0x4d
 6524 2561 9F060000 		.4byte	.LASF271
 6525 2565 9F060000 		.4byte	.LASF271
 6526 2569 0D       		.byte	0xd
 6527 256a 6C03     		.2byte	0x36c
 6528 256c 4C       		.uleb128 0x4c
 6529 256d F4060000 		.4byte	.LASF272
 6530 2571 F4060000 		.4byte	.LASF272
 6531 2575 13       		.byte	0x13
 6532 2576 44       		.byte	0x44
 6533 2577 4D       		.uleb128 0x4d
 6534 2578 97040000 		.4byte	.LASF273
 6535 257c 97040000 		.4byte	.LASF273
 6536 2580 0D       		.byte	0xd
 6537 2581 AA03     		.2byte	0x3aa
 6538 2583 4D       		.uleb128 0x4d
 6539 2584 B5030000 		.4byte	.LASF274
 6540 2588 B5030000 		.4byte	.LASF274
 6541 258c 0D       		.byte	0xd
 6542 258d 2D03     		.2byte	0x32d
 6543 258f 4D       		.uleb128 0x4d
 6544 2590 680D0000 		.4byte	.LASF275
 6545 2594 680D0000 		.4byte	.LASF275
 6546 2598 0D       		.byte	0xd
 6547 2599 7A03     		.2byte	0x37a
 6548 259b 4D       		.uleb128 0x4d
 6549 259c C4010000 		.4byte	.LASF276
 6550 25a0 C4010000 		.4byte	.LASF276
 6551 25a4 0D       		.byte	0xd
 6552 25a5 E302     		.2byte	0x2e3
 6553 25a7 4D       		.uleb128 0x4d
 6554 25a8 5C0B0000 		.4byte	.LASF277
 6555 25ac 5C0B0000 		.4byte	.LASF277
 6556 25b0 0D       		.byte	0xd
 6557 25b1 EA02     		.2byte	0x2ea
 6558 25b3 4C       		.uleb128 0x4c
 6559 25b4 30060000 		.4byte	.LASF278
 6560 25b8 30060000 		.4byte	.LASF278
 6561 25bc 0E       		.byte	0xe
 6562 25bd 94       		.byte	0x94
 6563 25be 4C       		.uleb128 0x4c
ARM GAS  C:\Users\pearlstl\AppData\Local\Temp\cccjDn63.s 			page 133


 6564 25bf B8080000 		.4byte	.LASF279
 6565 25c3 B8080000 		.4byte	.LASF279
 6566 25c7 14       		.byte	0x14
 6567 25c8 25       		.byte	0x25
 6568 25c9 4C       		.uleb128 0x4c
 6569 25ca CA060000 		.4byte	.LASF280
 6570 25ce CA060000 		.4byte	.LASF280
 6571 25d2 09       		.byte	0x9
 6572 25d3 A0       		.byte	0xa0
 6573 25d4 4C       		.uleb128 0x4c
 6574 25d5 3D0A0000 		.4byte	.LASF281
 6575 25d9 3D0A0000 		.4byte	.LASF281
 6576 25dd 15       		.byte	0x15
 6577 25de 25       		.byte	0x25
 6578 25df 4D       		.uleb128 0x4d
 6579 25e0 9B0B0000 		.4byte	.LASF282
 6580 25e4 9B0B0000 		.4byte	.LASF282
 6581 25e8 0D       		.byte	0xd
 6582 25e9 E703     		.2byte	0x3e7
 6583 25eb 4C       		.uleb128 0x4c
 6584 25ec 85000000 		.4byte	.LASF283
 6585 25f0 85000000 		.4byte	.LASF283
 6586 25f4 16       		.byte	0x16
 6587 25f5 4B       		.byte	0x4b
 6588 25f6 4C       		.uleb128 0x4c
 6589 25f7 F20D0000 		.4byte	.LASF284
 6590 25fb F20D0000 		.4byte	.LASF284
 6591 25ff 16       		.byte	0x16
 6592 2600 54       		.byte	0x54
 6593 2601 4D       		.uleb128 0x4d
 6594 2602 FB0E0000 		.4byte	.LASF285
 6595 2606 FB0E0000 		.4byte	.LASF285
 6596 260a 0D       		.byte	0xd
 6597 260b 4801     		.2byte	0x148
 6598 260d 4D       		.uleb128 0x4d
 6599 260e 08070000 		.4byte	.LASF286
 6600 2612 08070000 		.4byte	.LASF286
 6601 2616 0D       		.byte	0xd
 6602 2617 D001     		.2byte	0x1d0
 6603 2619 4C       		.uleb128 0x4c
 6604 261a 97080000 		.4byte	.LASF287
 6605 261e 97080000 		.4byte	.LASF287
 6606 2622 0E       		.byte	0xe
 6607 2623 5A       		.byte	0x5a
 6608 2624 4C       		.uleb128 0x4c
 6609 2625 FB050000 		.4byte	.LASF288
 6610 2629 FB050000 		.4byte	.LASF288
 6611 262d 0E       		.byte	0xe
 6612 262e 4A       		.byte	0x4a
 6613 262f 4D       		.uleb128 0x4d
 6614 2630 C70D0000 		.4byte	.LASF289
 6615 2634 C70D0000 		.4byte	.LASF289
 6616 2638 0D       		.byte	0xd
 6617 2639 CA01     		.2byte	0x1ca
 6618 263b 4D       		.uleb128 0x4d
 6619 263c 0A0E0000 		.4byte	.LASF290
 6620 2640 0A0E0000 		.4byte	.LASF290
ARM GAS  C:\Users\pearlstl\AppData\Local\Temp\cccjDn63.s 			page 134


 6621 2644 0D       		.byte	0xd
 6622 2645 8501     		.2byte	0x185
 6623 2647 4D       		.uleb128 0x4d
 6624 2648 570F0000 		.4byte	.LASF291
 6625 264c 570F0000 		.4byte	.LASF291
 6626 2650 10       		.byte	0x10
 6627 2651 6501     		.2byte	0x165
 6628 2653 4C       		.uleb128 0x4c
 6629 2654 4A0A0000 		.4byte	.LASF292
 6630 2658 4A0A0000 		.4byte	.LASF292
 6631 265c 0E       		.byte	0xe
 6632 265d 3F       		.byte	0x3f
 6633 265e 4D       		.uleb128 0x4d
 6634 265f 0D040000 		.4byte	.LASF293
 6635 2663 0D040000 		.4byte	.LASF293
 6636 2667 0D       		.byte	0xd
 6637 2668 7A02     		.2byte	0x27a
 6638 266a 4D       		.uleb128 0x4d
 6639 266b 58010000 		.4byte	.LASF294
 6640 266f 58010000 		.4byte	.LASF294
 6641 2673 0D       		.byte	0xd
 6642 2674 6002     		.2byte	0x260
 6643 2676 4D       		.uleb128 0x4d
 6644 2677 41080000 		.4byte	.LASF295
 6645 267b 41080000 		.4byte	.LASF295
 6646 267f 0D       		.byte	0xd
 6647 2680 6E02     		.2byte	0x26e
 6648 2682 4D       		.uleb128 0x4d
 6649 2683 470B0000 		.4byte	.LASF296
 6650 2687 470B0000 		.4byte	.LASF296
 6651 268b 0D       		.byte	0xd
 6652 268c 9003     		.2byte	0x390
 6653 268e 4D       		.uleb128 0x4d
 6654 268f 820A0000 		.4byte	.LASF297
 6655 2693 820A0000 		.4byte	.LASF297
 6656 2697 0D       		.byte	0xd
 6657 2698 9703     		.2byte	0x397
 6658 269a 00       		.byte	0
 6659              		.section	.debug_abbrev,"",%progbits
 6660              	.Ldebug_abbrev0:
 6661 0000 01       		.uleb128 0x1
 6662 0001 11       		.uleb128 0x11
 6663 0002 01       		.byte	0x1
 6664 0003 25       		.uleb128 0x25
 6665 0004 0E       		.uleb128 0xe
 6666 0005 13       		.uleb128 0x13
 6667 0006 0B       		.uleb128 0xb
 6668 0007 03       		.uleb128 0x3
 6669 0008 0E       		.uleb128 0xe
 6670 0009 1B       		.uleb128 0x1b
 6671 000a 0E       		.uleb128 0xe
 6672 000b 55       		.uleb128 0x55
 6673 000c 17       		.uleb128 0x17
 6674 000d 11       		.uleb128 0x11
 6675 000e 01       		.uleb128 0x1
 6676 000f 10       		.uleb128 0x10
 6677 0010 17       		.uleb128 0x17
ARM GAS  C:\Users\pearlstl\AppData\Local\Temp\cccjDn63.s 			page 135


 6678 0011 00       		.byte	0
 6679 0012 00       		.byte	0
 6680 0013 02       		.uleb128 0x2
 6681 0014 16       		.uleb128 0x16
 6682 0015 00       		.byte	0
 6683 0016 03       		.uleb128 0x3
 6684 0017 0E       		.uleb128 0xe
 6685 0018 3A       		.uleb128 0x3a
 6686 0019 0B       		.uleb128 0xb
 6687 001a 3B       		.uleb128 0x3b
 6688 001b 0B       		.uleb128 0xb
 6689 001c 49       		.uleb128 0x49
 6690 001d 13       		.uleb128 0x13
 6691 001e 00       		.byte	0
 6692 001f 00       		.byte	0
 6693 0020 03       		.uleb128 0x3
 6694 0021 24       		.uleb128 0x24
 6695 0022 00       		.byte	0
 6696 0023 0B       		.uleb128 0xb
 6697 0024 0B       		.uleb128 0xb
 6698 0025 3E       		.uleb128 0x3e
 6699 0026 0B       		.uleb128 0xb
 6700 0027 03       		.uleb128 0x3
 6701 0028 0E       		.uleb128 0xe
 6702 0029 00       		.byte	0
 6703 002a 00       		.byte	0
 6704 002b 04       		.uleb128 0x4
 6705 002c 24       		.uleb128 0x24
 6706 002d 00       		.byte	0
 6707 002e 0B       		.uleb128 0xb
 6708 002f 0B       		.uleb128 0xb
 6709 0030 3E       		.uleb128 0x3e
 6710 0031 0B       		.uleb128 0xb
 6711 0032 03       		.uleb128 0x3
 6712 0033 08       		.uleb128 0x8
 6713 0034 00       		.byte	0
 6714 0035 00       		.byte	0
 6715 0036 05       		.uleb128 0x5
 6716 0037 0F       		.uleb128 0xf
 6717 0038 00       		.byte	0
 6718 0039 0B       		.uleb128 0xb
 6719 003a 0B       		.uleb128 0xb
 6720 003b 00       		.byte	0
 6721 003c 00       		.byte	0
 6722 003d 06       		.uleb128 0x6
 6723 003e 13       		.uleb128 0x13
 6724 003f 01       		.byte	0x1
 6725 0040 0B       		.uleb128 0xb
 6726 0041 0B       		.uleb128 0xb
 6727 0042 3A       		.uleb128 0x3a
 6728 0043 0B       		.uleb128 0xb
 6729 0044 3B       		.uleb128 0x3b
 6730 0045 0B       		.uleb128 0xb
 6731 0046 01       		.uleb128 0x1
 6732 0047 13       		.uleb128 0x13
 6733 0048 00       		.byte	0
 6734 0049 00       		.byte	0
ARM GAS  C:\Users\pearlstl\AppData\Local\Temp\cccjDn63.s 			page 136


 6735 004a 07       		.uleb128 0x7
 6736 004b 0D       		.uleb128 0xd
 6737 004c 00       		.byte	0
 6738 004d 03       		.uleb128 0x3
 6739 004e 0E       		.uleb128 0xe
 6740 004f 3A       		.uleb128 0x3a
 6741 0050 0B       		.uleb128 0xb
 6742 0051 3B       		.uleb128 0x3b
 6743 0052 0B       		.uleb128 0xb
 6744 0053 49       		.uleb128 0x49
 6745 0054 13       		.uleb128 0x13
 6746 0055 38       		.uleb128 0x38
 6747 0056 0B       		.uleb128 0xb
 6748 0057 00       		.byte	0
 6749 0058 00       		.byte	0
 6750 0059 08       		.uleb128 0x8
 6751 005a 0D       		.uleb128 0xd
 6752 005b 00       		.byte	0
 6753 005c 03       		.uleb128 0x3
 6754 005d 08       		.uleb128 0x8
 6755 005e 3A       		.uleb128 0x3a
 6756 005f 0B       		.uleb128 0xb
 6757 0060 3B       		.uleb128 0x3b
 6758 0061 0B       		.uleb128 0xb
 6759 0062 49       		.uleb128 0x49
 6760 0063 13       		.uleb128 0x13
 6761 0064 38       		.uleb128 0x38
 6762 0065 0B       		.uleb128 0xb
 6763 0066 00       		.byte	0
 6764 0067 00       		.byte	0
 6765 0068 09       		.uleb128 0x9
 6766 0069 13       		.uleb128 0x13
 6767 006a 01       		.byte	0x1
 6768 006b 03       		.uleb128 0x3
 6769 006c 0E       		.uleb128 0xe
 6770 006d 0B       		.uleb128 0xb
 6771 006e 0B       		.uleb128 0xb
 6772 006f 3A       		.uleb128 0x3a
 6773 0070 0B       		.uleb128 0xb
 6774 0071 3B       		.uleb128 0x3b
 6775 0072 0B       		.uleb128 0xb
 6776 0073 01       		.uleb128 0x1
 6777 0074 13       		.uleb128 0x13
 6778 0075 00       		.byte	0
 6779 0076 00       		.byte	0
 6780 0077 0A       		.uleb128 0xa
 6781 0078 0D       		.uleb128 0xd
 6782 0079 00       		.byte	0
 6783 007a 03       		.uleb128 0x3
 6784 007b 0E       		.uleb128 0xe
 6785 007c 3A       		.uleb128 0x3a
 6786 007d 0B       		.uleb128 0xb
 6787 007e 3B       		.uleb128 0x3b
 6788 007f 0B       		.uleb128 0xb
 6789 0080 49       		.uleb128 0x49
 6790 0081 13       		.uleb128 0x13
 6791 0082 0B       		.uleb128 0xb
ARM GAS  C:\Users\pearlstl\AppData\Local\Temp\cccjDn63.s 			page 137


 6792 0083 0B       		.uleb128 0xb
 6793 0084 0D       		.uleb128 0xd
 6794 0085 0B       		.uleb128 0xb
 6795 0086 0C       		.uleb128 0xc
 6796 0087 0B       		.uleb128 0xb
 6797 0088 38       		.uleb128 0x38
 6798 0089 0B       		.uleb128 0xb
 6799 008a 00       		.byte	0
 6800 008b 00       		.byte	0
 6801 008c 0B       		.uleb128 0xb
 6802 008d 15       		.uleb128 0x15
 6803 008e 01       		.byte	0x1
 6804 008f 27       		.uleb128 0x27
 6805 0090 19       		.uleb128 0x19
 6806 0091 49       		.uleb128 0x49
 6807 0092 13       		.uleb128 0x13
 6808 0093 01       		.uleb128 0x1
 6809 0094 13       		.uleb128 0x13
 6810 0095 00       		.byte	0
 6811 0096 00       		.byte	0
 6812 0097 0C       		.uleb128 0xc
 6813 0098 05       		.uleb128 0x5
 6814 0099 00       		.byte	0
 6815 009a 49       		.uleb128 0x49
 6816 009b 13       		.uleb128 0x13
 6817 009c 00       		.byte	0
 6818 009d 00       		.byte	0
 6819 009e 0D       		.uleb128 0xd
 6820 009f 0F       		.uleb128 0xf
 6821 00a0 00       		.byte	0
 6822 00a1 0B       		.uleb128 0xb
 6823 00a2 0B       		.uleb128 0xb
 6824 00a3 49       		.uleb128 0x49
 6825 00a4 13       		.uleb128 0x13
 6826 00a5 00       		.byte	0
 6827 00a6 00       		.byte	0
 6828 00a7 0E       		.uleb128 0xe
 6829 00a8 26       		.uleb128 0x26
 6830 00a9 00       		.byte	0
 6831 00aa 49       		.uleb128 0x49
 6832 00ab 13       		.uleb128 0x13
 6833 00ac 00       		.byte	0
 6834 00ad 00       		.byte	0
 6835 00ae 0F       		.uleb128 0xf
 6836 00af 17       		.uleb128 0x17
 6837 00b0 01       		.byte	0x1
 6838 00b1 0B       		.uleb128 0xb
 6839 00b2 0B       		.uleb128 0xb
 6840 00b3 3A       		.uleb128 0x3a
 6841 00b4 0B       		.uleb128 0xb
 6842 00b5 3B       		.uleb128 0x3b
 6843 00b6 0B       		.uleb128 0xb
 6844 00b7 01       		.uleb128 0x1
 6845 00b8 13       		.uleb128 0x13
 6846 00b9 00       		.byte	0
 6847 00ba 00       		.byte	0
 6848 00bb 10       		.uleb128 0x10
ARM GAS  C:\Users\pearlstl\AppData\Local\Temp\cccjDn63.s 			page 138


 6849 00bc 0D       		.uleb128 0xd
 6850 00bd 00       		.byte	0
 6851 00be 03       		.uleb128 0x3
 6852 00bf 08       		.uleb128 0x8
 6853 00c0 3A       		.uleb128 0x3a
 6854 00c1 0B       		.uleb128 0xb
 6855 00c2 3B       		.uleb128 0x3b
 6856 00c3 0B       		.uleb128 0xb
 6857 00c4 49       		.uleb128 0x49
 6858 00c5 13       		.uleb128 0x13
 6859 00c6 00       		.byte	0
 6860 00c7 00       		.byte	0
 6861 00c8 11       		.uleb128 0x11
 6862 00c9 0D       		.uleb128 0xd
 6863 00ca 00       		.byte	0
 6864 00cb 03       		.uleb128 0x3
 6865 00cc 0E       		.uleb128 0xe
 6866 00cd 3A       		.uleb128 0x3a
 6867 00ce 0B       		.uleb128 0xb
 6868 00cf 3B       		.uleb128 0x3b
 6869 00d0 0B       		.uleb128 0xb
 6870 00d1 49       		.uleb128 0x49
 6871 00d2 13       		.uleb128 0x13
 6872 00d3 00       		.byte	0
 6873 00d4 00       		.byte	0
 6874 00d5 12       		.uleb128 0x12
 6875 00d6 16       		.uleb128 0x16
 6876 00d7 00       		.byte	0
 6877 00d8 03       		.uleb128 0x3
 6878 00d9 0E       		.uleb128 0xe
 6879 00da 3A       		.uleb128 0x3a
 6880 00db 0B       		.uleb128 0xb
 6881 00dc 3B       		.uleb128 0x3b
 6882 00dd 05       		.uleb128 0x5
 6883 00de 49       		.uleb128 0x49
 6884 00df 13       		.uleb128 0x13
 6885 00e0 00       		.byte	0
 6886 00e1 00       		.byte	0
 6887 00e2 13       		.uleb128 0x13
 6888 00e3 04       		.uleb128 0x4
 6889 00e4 01       		.byte	0x1
 6890 00e5 0B       		.uleb128 0xb
 6891 00e6 0B       		.uleb128 0xb
 6892 00e7 49       		.uleb128 0x49
 6893 00e8 13       		.uleb128 0x13
 6894 00e9 3A       		.uleb128 0x3a
 6895 00ea 0B       		.uleb128 0xb
 6896 00eb 3B       		.uleb128 0x3b
 6897 00ec 0B       		.uleb128 0xb
 6898 00ed 01       		.uleb128 0x1
 6899 00ee 13       		.uleb128 0x13
 6900 00ef 00       		.byte	0
 6901 00f0 00       		.byte	0
 6902 00f1 14       		.uleb128 0x14
 6903 00f2 28       		.uleb128 0x28
 6904 00f3 00       		.byte	0
 6905 00f4 03       		.uleb128 0x3
ARM GAS  C:\Users\pearlstl\AppData\Local\Temp\cccjDn63.s 			page 139


 6906 00f5 0E       		.uleb128 0xe
 6907 00f6 1C       		.uleb128 0x1c
 6908 00f7 0B       		.uleb128 0xb
 6909 00f8 00       		.byte	0
 6910 00f9 00       		.byte	0
 6911 00fa 15       		.uleb128 0x15
 6912 00fb 0D       		.uleb128 0xd
 6913 00fc 00       		.byte	0
 6914 00fd 03       		.uleb128 0x3
 6915 00fe 08       		.uleb128 0x8
 6916 00ff 3A       		.uleb128 0x3a
 6917 0100 0B       		.uleb128 0xb
 6918 0101 3B       		.uleb128 0x3b
 6919 0102 0B       		.uleb128 0xb
 6920 0103 49       		.uleb128 0x49
 6921 0104 13       		.uleb128 0x13
 6922 0105 0B       		.uleb128 0xb
 6923 0106 0B       		.uleb128 0xb
 6924 0107 0D       		.uleb128 0xd
 6925 0108 0B       		.uleb128 0xb
 6926 0109 0C       		.uleb128 0xc
 6927 010a 0B       		.uleb128 0xb
 6928 010b 38       		.uleb128 0x38
 6929 010c 0B       		.uleb128 0xb
 6930 010d 00       		.byte	0
 6931 010e 00       		.byte	0
 6932 010f 16       		.uleb128 0x16
 6933 0110 15       		.uleb128 0x15
 6934 0111 01       		.byte	0x1
 6935 0112 27       		.uleb128 0x27
 6936 0113 19       		.uleb128 0x19
 6937 0114 01       		.uleb128 0x1
 6938 0115 13       		.uleb128 0x13
 6939 0116 00       		.byte	0
 6940 0117 00       		.byte	0
 6941 0118 17       		.uleb128 0x17
 6942 0119 0D       		.uleb128 0xd
 6943 011a 00       		.byte	0
 6944 011b 03       		.uleb128 0x3
 6945 011c 08       		.uleb128 0x8
 6946 011d 3A       		.uleb128 0x3a
 6947 011e 0B       		.uleb128 0xb
 6948 011f 3B       		.uleb128 0x3b
 6949 0120 05       		.uleb128 0x5
 6950 0121 49       		.uleb128 0x49
 6951 0122 13       		.uleb128 0x13
 6952 0123 38       		.uleb128 0x38
 6953 0124 0B       		.uleb128 0xb
 6954 0125 00       		.byte	0
 6955 0126 00       		.byte	0
 6956 0127 18       		.uleb128 0x18
 6957 0128 0D       		.uleb128 0xd
 6958 0129 00       		.byte	0
 6959 012a 03       		.uleb128 0x3
 6960 012b 0E       		.uleb128 0xe
 6961 012c 3A       		.uleb128 0x3a
 6962 012d 0B       		.uleb128 0xb
ARM GAS  C:\Users\pearlstl\AppData\Local\Temp\cccjDn63.s 			page 140


 6963 012e 3B       		.uleb128 0x3b
 6964 012f 05       		.uleb128 0x5
 6965 0130 49       		.uleb128 0x49
 6966 0131 13       		.uleb128 0x13
 6967 0132 38       		.uleb128 0x38
 6968 0133 0B       		.uleb128 0xb
 6969 0134 00       		.byte	0
 6970 0135 00       		.byte	0
 6971 0136 19       		.uleb128 0x19
 6972 0137 13       		.uleb128 0x13
 6973 0138 01       		.byte	0x1
 6974 0139 0B       		.uleb128 0xb
 6975 013a 0B       		.uleb128 0xb
 6976 013b 3A       		.uleb128 0x3a
 6977 013c 0B       		.uleb128 0xb
 6978 013d 3B       		.uleb128 0x3b
 6979 013e 05       		.uleb128 0x5
 6980 013f 01       		.uleb128 0x1
 6981 0140 13       		.uleb128 0x13
 6982 0141 00       		.byte	0
 6983 0142 00       		.byte	0
 6984 0143 1A       		.uleb128 0x1a
 6985 0144 13       		.uleb128 0x13
 6986 0145 01       		.byte	0x1
 6987 0146 0B       		.uleb128 0xb
 6988 0147 05       		.uleb128 0x5
 6989 0148 3A       		.uleb128 0x3a
 6990 0149 0B       		.uleb128 0xb
 6991 014a 3B       		.uleb128 0x3b
 6992 014b 0B       		.uleb128 0xb
 6993 014c 01       		.uleb128 0x1
 6994 014d 13       		.uleb128 0x13
 6995 014e 00       		.byte	0
 6996 014f 00       		.byte	0
 6997 0150 1B       		.uleb128 0x1b
 6998 0151 0D       		.uleb128 0xd
 6999 0152 00       		.byte	0
 7000 0153 03       		.uleb128 0x3
 7001 0154 0E       		.uleb128 0xe
 7002 0155 3A       		.uleb128 0x3a
 7003 0156 0B       		.uleb128 0xb
 7004 0157 3B       		.uleb128 0x3b
 7005 0158 0B       		.uleb128 0xb
 7006 0159 49       		.uleb128 0x49
 7007 015a 13       		.uleb128 0x13
 7008 015b 38       		.uleb128 0x38
 7009 015c 05       		.uleb128 0x5
 7010 015d 00       		.byte	0
 7011 015e 00       		.byte	0
 7012 015f 1C       		.uleb128 0x1c
 7013 0160 0D       		.uleb128 0xd
 7014 0161 00       		.byte	0
 7015 0162 03       		.uleb128 0x3
 7016 0163 08       		.uleb128 0x8
 7017 0164 3A       		.uleb128 0x3a
 7018 0165 0B       		.uleb128 0xb
 7019 0166 3B       		.uleb128 0x3b
ARM GAS  C:\Users\pearlstl\AppData\Local\Temp\cccjDn63.s 			page 141


 7020 0167 0B       		.uleb128 0xb
 7021 0168 49       		.uleb128 0x49
 7022 0169 13       		.uleb128 0x13
 7023 016a 38       		.uleb128 0x38
 7024 016b 05       		.uleb128 0x5
 7025 016c 00       		.byte	0
 7026 016d 00       		.byte	0
 7027 016e 1D       		.uleb128 0x1d
 7028 016f 0D       		.uleb128 0xd
 7029 0170 00       		.byte	0
 7030 0171 03       		.uleb128 0x3
 7031 0172 0E       		.uleb128 0xe
 7032 0173 3A       		.uleb128 0x3a
 7033 0174 0B       		.uleb128 0xb
 7034 0175 3B       		.uleb128 0x3b
 7035 0176 05       		.uleb128 0x5
 7036 0177 49       		.uleb128 0x49
 7037 0178 13       		.uleb128 0x13
 7038 0179 38       		.uleb128 0x38
 7039 017a 05       		.uleb128 0x5
 7040 017b 00       		.byte	0
 7041 017c 00       		.byte	0
 7042 017d 1E       		.uleb128 0x1e
 7043 017e 0D       		.uleb128 0xd
 7044 017f 00       		.byte	0
 7045 0180 03       		.uleb128 0x3
 7046 0181 08       		.uleb128 0x8
 7047 0182 3A       		.uleb128 0x3a
 7048 0183 0B       		.uleb128 0xb
 7049 0184 3B       		.uleb128 0x3b
 7050 0185 05       		.uleb128 0x5
 7051 0186 49       		.uleb128 0x49
 7052 0187 13       		.uleb128 0x13
 7053 0188 38       		.uleb128 0x38
 7054 0189 05       		.uleb128 0x5
 7055 018a 00       		.byte	0
 7056 018b 00       		.byte	0
 7057 018c 1F       		.uleb128 0x1f
 7058 018d 2E       		.uleb128 0x2e
 7059 018e 01       		.byte	0x1
 7060 018f 03       		.uleb128 0x3
 7061 0190 0E       		.uleb128 0xe
 7062 0191 3A       		.uleb128 0x3a
 7063 0192 0B       		.uleb128 0xb
 7064 0193 3B       		.uleb128 0x3b
 7065 0194 0B       		.uleb128 0xb
 7066 0195 27       		.uleb128 0x27
 7067 0196 19       		.uleb128 0x19
 7068 0197 49       		.uleb128 0x49
 7069 0198 13       		.uleb128 0x13
 7070 0199 20       		.uleb128 0x20
 7071 019a 0B       		.uleb128 0xb
 7072 019b 01       		.uleb128 0x1
 7073 019c 13       		.uleb128 0x13
 7074 019d 00       		.byte	0
 7075 019e 00       		.byte	0
 7076 019f 20       		.uleb128 0x20
ARM GAS  C:\Users\pearlstl\AppData\Local\Temp\cccjDn63.s 			page 142


 7077 01a0 05       		.uleb128 0x5
 7078 01a1 00       		.byte	0
 7079 01a2 03       		.uleb128 0x3
 7080 01a3 0E       		.uleb128 0xe
 7081 01a4 3A       		.uleb128 0x3a
 7082 01a5 0B       		.uleb128 0xb
 7083 01a6 3B       		.uleb128 0x3b
 7084 01a7 0B       		.uleb128 0xb
 7085 01a8 49       		.uleb128 0x49
 7086 01a9 13       		.uleb128 0x13
 7087 01aa 00       		.byte	0
 7088 01ab 00       		.byte	0
 7089 01ac 21       		.uleb128 0x21
 7090 01ad 2E       		.uleb128 0x2e
 7091 01ae 01       		.byte	0x1
 7092 01af 03       		.uleb128 0x3
 7093 01b0 0E       		.uleb128 0xe
 7094 01b1 3A       		.uleb128 0x3a
 7095 01b2 0B       		.uleb128 0xb
 7096 01b3 3B       		.uleb128 0x3b
 7097 01b4 05       		.uleb128 0x5
 7098 01b5 27       		.uleb128 0x27
 7099 01b6 19       		.uleb128 0x19
 7100 01b7 49       		.uleb128 0x49
 7101 01b8 13       		.uleb128 0x13
 7102 01b9 20       		.uleb128 0x20
 7103 01ba 0B       		.uleb128 0xb
 7104 01bb 01       		.uleb128 0x1
 7105 01bc 13       		.uleb128 0x13
 7106 01bd 00       		.byte	0
 7107 01be 00       		.byte	0
 7108 01bf 22       		.uleb128 0x22
 7109 01c0 05       		.uleb128 0x5
 7110 01c1 00       		.byte	0
 7111 01c2 03       		.uleb128 0x3
 7112 01c3 0E       		.uleb128 0xe
 7113 01c4 3A       		.uleb128 0x3a
 7114 01c5 0B       		.uleb128 0xb
 7115 01c6 3B       		.uleb128 0x3b
 7116 01c7 05       		.uleb128 0x5
 7117 01c8 49       		.uleb128 0x49
 7118 01c9 13       		.uleb128 0x13
 7119 01ca 00       		.byte	0
 7120 01cb 00       		.byte	0
 7121 01cc 23       		.uleb128 0x23
 7122 01cd 0B       		.uleb128 0xb
 7123 01ce 01       		.byte	0x1
 7124 01cf 00       		.byte	0
 7125 01d0 00       		.byte	0
 7126 01d1 24       		.uleb128 0x24
 7127 01d2 34       		.uleb128 0x34
 7128 01d3 00       		.byte	0
 7129 01d4 03       		.uleb128 0x3
 7130 01d5 0E       		.uleb128 0xe
 7131 01d6 3A       		.uleb128 0x3a
 7132 01d7 0B       		.uleb128 0xb
 7133 01d8 3B       		.uleb128 0x3b
ARM GAS  C:\Users\pearlstl\AppData\Local\Temp\cccjDn63.s 			page 143


 7134 01d9 05       		.uleb128 0x5
 7135 01da 49       		.uleb128 0x49
 7136 01db 13       		.uleb128 0x13
 7137 01dc 00       		.byte	0
 7138 01dd 00       		.byte	0
 7139 01de 25       		.uleb128 0x25
 7140 01df 34       		.uleb128 0x34
 7141 01e0 00       		.byte	0
 7142 01e1 03       		.uleb128 0x3
 7143 01e2 08       		.uleb128 0x8
 7144 01e3 3A       		.uleb128 0x3a
 7145 01e4 0B       		.uleb128 0xb
 7146 01e5 3B       		.uleb128 0x3b
 7147 01e6 05       		.uleb128 0x5
 7148 01e7 49       		.uleb128 0x49
 7149 01e8 13       		.uleb128 0x13
 7150 01e9 00       		.byte	0
 7151 01ea 00       		.byte	0
 7152 01eb 26       		.uleb128 0x26
 7153 01ec 2E       		.uleb128 0x2e
 7154 01ed 01       		.byte	0x1
 7155 01ee 03       		.uleb128 0x3
 7156 01ef 0E       		.uleb128 0xe
 7157 01f0 3A       		.uleb128 0x3a
 7158 01f1 0B       		.uleb128 0xb
 7159 01f2 3B       		.uleb128 0x3b
 7160 01f3 0B       		.uleb128 0xb
 7161 01f4 27       		.uleb128 0x27
 7162 01f5 19       		.uleb128 0x19
 7163 01f6 20       		.uleb128 0x20
 7164 01f7 0B       		.uleb128 0xb
 7165 01f8 01       		.uleb128 0x1
 7166 01f9 13       		.uleb128 0x13
 7167 01fa 00       		.byte	0
 7168 01fb 00       		.byte	0
 7169 01fc 27       		.uleb128 0x27
 7170 01fd 2E       		.uleb128 0x2e
 7171 01fe 01       		.byte	0x1
 7172 01ff 03       		.uleb128 0x3
 7173 0200 0E       		.uleb128 0xe
 7174 0201 3A       		.uleb128 0x3a
 7175 0202 0B       		.uleb128 0xb
 7176 0203 3B       		.uleb128 0x3b
 7177 0204 05       		.uleb128 0x5
 7178 0205 27       		.uleb128 0x27
 7179 0206 19       		.uleb128 0x19
 7180 0207 20       		.uleb128 0x20
 7181 0208 0B       		.uleb128 0xb
 7182 0209 01       		.uleb128 0x1
 7183 020a 13       		.uleb128 0x13
 7184 020b 00       		.byte	0
 7185 020c 00       		.byte	0
 7186 020d 28       		.uleb128 0x28
 7187 020e 01       		.uleb128 0x1
 7188 020f 01       		.byte	0x1
 7189 0210 49       		.uleb128 0x49
 7190 0211 13       		.uleb128 0x13
ARM GAS  C:\Users\pearlstl\AppData\Local\Temp\cccjDn63.s 			page 144


 7191 0212 01       		.uleb128 0x1
 7192 0213 13       		.uleb128 0x13
 7193 0214 00       		.byte	0
 7194 0215 00       		.byte	0
 7195 0216 29       		.uleb128 0x29
 7196 0217 21       		.uleb128 0x21
 7197 0218 00       		.byte	0
 7198 0219 49       		.uleb128 0x49
 7199 021a 13       		.uleb128 0x13
 7200 021b 2F       		.uleb128 0x2f
 7201 021c 0B       		.uleb128 0xb
 7202 021d 00       		.byte	0
 7203 021e 00       		.byte	0
 7204 021f 2A       		.uleb128 0x2a
 7205 0220 2E       		.uleb128 0x2e
 7206 0221 01       		.byte	0x1
 7207 0222 31       		.uleb128 0x31
 7208 0223 13       		.uleb128 0x13
 7209 0224 11       		.uleb128 0x11
 7210 0225 01       		.uleb128 0x1
 7211 0226 12       		.uleb128 0x12
 7212 0227 06       		.uleb128 0x6
 7213 0228 40       		.uleb128 0x40
 7214 0229 18       		.uleb128 0x18
 7215 022a 9642     		.uleb128 0x2116
 7216 022c 19       		.uleb128 0x19
 7217 022d 01       		.uleb128 0x1
 7218 022e 13       		.uleb128 0x13
 7219 022f 00       		.byte	0
 7220 0230 00       		.byte	0
 7221 0231 2B       		.uleb128 0x2b
 7222 0232 05       		.uleb128 0x5
 7223 0233 00       		.byte	0
 7224 0234 31       		.uleb128 0x31
 7225 0235 13       		.uleb128 0x13
 7226 0236 02       		.uleb128 0x2
 7227 0237 17       		.uleb128 0x17
 7228 0238 00       		.byte	0
 7229 0239 00       		.byte	0
 7230 023a 2C       		.uleb128 0x2c
 7231 023b 0B       		.uleb128 0xb
 7232 023c 01       		.byte	0x1
 7233 023d 11       		.uleb128 0x11
 7234 023e 01       		.uleb128 0x1
 7235 023f 12       		.uleb128 0x12
 7236 0240 06       		.uleb128 0x6
 7237 0241 00       		.byte	0
 7238 0242 00       		.byte	0
 7239 0243 2D       		.uleb128 0x2d
 7240 0244 34       		.uleb128 0x34
 7241 0245 00       		.byte	0
 7242 0246 31       		.uleb128 0x31
 7243 0247 13       		.uleb128 0x13
 7244 0248 02       		.uleb128 0x2
 7245 0249 17       		.uleb128 0x17
 7246 024a 00       		.byte	0
 7247 024b 00       		.byte	0
ARM GAS  C:\Users\pearlstl\AppData\Local\Temp\cccjDn63.s 			page 145


 7248 024c 2E       		.uleb128 0x2e
 7249 024d 34       		.uleb128 0x34
 7250 024e 00       		.byte	0
 7251 024f 31       		.uleb128 0x31
 7252 0250 13       		.uleb128 0x13
 7253 0251 02       		.uleb128 0x2
 7254 0252 18       		.uleb128 0x18
 7255 0253 00       		.byte	0
 7256 0254 00       		.byte	0
 7257 0255 2F       		.uleb128 0x2f
 7258 0256 1D       		.uleb128 0x1d
 7259 0257 01       		.byte	0x1
 7260 0258 31       		.uleb128 0x31
 7261 0259 13       		.uleb128 0x13
 7262 025a 11       		.uleb128 0x11
 7263 025b 01       		.uleb128 0x1
 7264 025c 12       		.uleb128 0x12
 7265 025d 06       		.uleb128 0x6
 7266 025e 58       		.uleb128 0x58
 7267 025f 0B       		.uleb128 0xb
 7268 0260 59       		.uleb128 0x59
 7269 0261 05       		.uleb128 0x5
 7270 0262 01       		.uleb128 0x1
 7271 0263 13       		.uleb128 0x13
 7272 0264 00       		.byte	0
 7273 0265 00       		.byte	0
 7274 0266 30       		.uleb128 0x30
 7275 0267 34       		.uleb128 0x34
 7276 0268 00       		.byte	0
 7277 0269 31       		.uleb128 0x31
 7278 026a 13       		.uleb128 0x13
 7279 026b 00       		.byte	0
 7280 026c 00       		.byte	0
 7281 026d 31       		.uleb128 0x31
 7282 026e 1D       		.uleb128 0x1d
 7283 026f 01       		.byte	0x1
 7284 0270 31       		.uleb128 0x31
 7285 0271 13       		.uleb128 0x13
 7286 0272 52       		.uleb128 0x52
 7287 0273 01       		.uleb128 0x1
 7288 0274 55       		.uleb128 0x55
 7289 0275 17       		.uleb128 0x17
 7290 0276 58       		.uleb128 0x58
 7291 0277 0B       		.uleb128 0xb
 7292 0278 59       		.uleb128 0x59
 7293 0279 05       		.uleb128 0x5
 7294 027a 01       		.uleb128 0x1
 7295 027b 13       		.uleb128 0x13
 7296 027c 00       		.byte	0
 7297 027d 00       		.byte	0
 7298 027e 32       		.uleb128 0x32
 7299 027f 05       		.uleb128 0x5
 7300 0280 00       		.byte	0
 7301 0281 31       		.uleb128 0x31
 7302 0282 13       		.uleb128 0x13
 7303 0283 00       		.byte	0
 7304 0284 00       		.byte	0
ARM GAS  C:\Users\pearlstl\AppData\Local\Temp\cccjDn63.s 			page 146


 7305 0285 33       		.uleb128 0x33
 7306 0286 898201   		.uleb128 0x4109
 7307 0289 01       		.byte	0x1
 7308 028a 11       		.uleb128 0x11
 7309 028b 01       		.uleb128 0x1
 7310 028c 31       		.uleb128 0x31
 7311 028d 13       		.uleb128 0x13
 7312 028e 00       		.byte	0
 7313 028f 00       		.byte	0
 7314 0290 34       		.uleb128 0x34
 7315 0291 8A8201   		.uleb128 0x410a
 7316 0294 00       		.byte	0
 7317 0295 02       		.uleb128 0x2
 7318 0296 18       		.uleb128 0x18
 7319 0297 9142     		.uleb128 0x2111
 7320 0299 18       		.uleb128 0x18
 7321 029a 00       		.byte	0
 7322 029b 00       		.byte	0
 7323 029c 35       		.uleb128 0x35
 7324 029d 0B       		.uleb128 0xb
 7325 029e 01       		.byte	0x1
 7326 029f 11       		.uleb128 0x11
 7327 02a0 01       		.uleb128 0x1
 7328 02a1 12       		.uleb128 0x12
 7329 02a2 06       		.uleb128 0x6
 7330 02a3 01       		.uleb128 0x1
 7331 02a4 13       		.uleb128 0x13
 7332 02a5 00       		.byte	0
 7333 02a6 00       		.byte	0
 7334 02a7 36       		.uleb128 0x36
 7335 02a8 898201   		.uleb128 0x4109
 7336 02ab 01       		.byte	0x1
 7337 02ac 11       		.uleb128 0x11
 7338 02ad 01       		.uleb128 0x1
 7339 02ae 31       		.uleb128 0x31
 7340 02af 13       		.uleb128 0x13
 7341 02b0 01       		.uleb128 0x1
 7342 02b1 13       		.uleb128 0x13
 7343 02b2 00       		.byte	0
 7344 02b3 00       		.byte	0
 7345 02b4 37       		.uleb128 0x37
 7346 02b5 0B       		.uleb128 0xb
 7347 02b6 01       		.byte	0x1
 7348 02b7 55       		.uleb128 0x55
 7349 02b8 17       		.uleb128 0x17
 7350 02b9 00       		.byte	0
 7351 02ba 00       		.byte	0
 7352 02bb 38       		.uleb128 0x38
 7353 02bc 0B       		.uleb128 0xb
 7354 02bd 01       		.byte	0x1
 7355 02be 55       		.uleb128 0x55
 7356 02bf 17       		.uleb128 0x17
 7357 02c0 01       		.uleb128 0x1
 7358 02c1 13       		.uleb128 0x13
 7359 02c2 00       		.byte	0
 7360 02c3 00       		.byte	0
 7361 02c4 39       		.uleb128 0x39
ARM GAS  C:\Users\pearlstl\AppData\Local\Temp\cccjDn63.s 			page 147


 7362 02c5 898201   		.uleb128 0x4109
 7363 02c8 01       		.byte	0x1
 7364 02c9 11       		.uleb128 0x11
 7365 02ca 01       		.uleb128 0x1
 7366 02cb 01       		.uleb128 0x1
 7367 02cc 13       		.uleb128 0x13
 7368 02cd 00       		.byte	0
 7369 02ce 00       		.byte	0
 7370 02cf 3A       		.uleb128 0x3a
 7371 02d0 898201   		.uleb128 0x4109
 7372 02d3 01       		.byte	0x1
 7373 02d4 11       		.uleb128 0x11
 7374 02d5 01       		.uleb128 0x1
 7375 02d6 00       		.byte	0
 7376 02d7 00       		.byte	0
 7377 02d8 3B       		.uleb128 0x3b
 7378 02d9 2E       		.uleb128 0x2e
 7379 02da 01       		.byte	0x1
 7380 02db 31       		.uleb128 0x31
 7381 02dc 13       		.uleb128 0x13
 7382 02dd 11       		.uleb128 0x11
 7383 02de 01       		.uleb128 0x1
 7384 02df 12       		.uleb128 0x12
 7385 02e0 06       		.uleb128 0x6
 7386 02e1 40       		.uleb128 0x40
 7387 02e2 18       		.uleb128 0x18
 7388 02e3 9742     		.uleb128 0x2117
 7389 02e5 19       		.uleb128 0x19
 7390 02e6 01       		.uleb128 0x1
 7391 02e7 13       		.uleb128 0x13
 7392 02e8 00       		.byte	0
 7393 02e9 00       		.byte	0
 7394 02ea 3C       		.uleb128 0x3c
 7395 02eb 05       		.uleb128 0x5
 7396 02ec 00       		.byte	0
 7397 02ed 31       		.uleb128 0x31
 7398 02ee 13       		.uleb128 0x13
 7399 02ef 1C       		.uleb128 0x1c
 7400 02f0 0B       		.uleb128 0xb
 7401 02f1 00       		.byte	0
 7402 02f2 00       		.byte	0
 7403 02f3 3D       		.uleb128 0x3d
 7404 02f4 898201   		.uleb128 0x4109
 7405 02f7 01       		.byte	0x1
 7406 02f8 11       		.uleb128 0x11
 7407 02f9 01       		.uleb128 0x1
 7408 02fa 9542     		.uleb128 0x2115
 7409 02fc 19       		.uleb128 0x19
 7410 02fd 31       		.uleb128 0x31
 7411 02fe 13       		.uleb128 0x13
 7412 02ff 00       		.byte	0
 7413 0300 00       		.byte	0
 7414 0301 3E       		.uleb128 0x3e
 7415 0302 898201   		.uleb128 0x4109
 7416 0305 00       		.byte	0
 7417 0306 11       		.uleb128 0x11
 7418 0307 01       		.uleb128 0x1
ARM GAS  C:\Users\pearlstl\AppData\Local\Temp\cccjDn63.s 			page 148


 7419 0308 31       		.uleb128 0x31
 7420 0309 13       		.uleb128 0x13
 7421 030a 00       		.byte	0
 7422 030b 00       		.byte	0
 7423 030c 3F       		.uleb128 0x3f
 7424 030d 2E       		.uleb128 0x2e
 7425 030e 01       		.byte	0x1
 7426 030f 3F       		.uleb128 0x3f
 7427 0310 19       		.uleb128 0x19
 7428 0311 03       		.uleb128 0x3
 7429 0312 0E       		.uleb128 0xe
 7430 0313 3A       		.uleb128 0x3a
 7431 0314 0B       		.uleb128 0xb
 7432 0315 3B       		.uleb128 0x3b
 7433 0316 0B       		.uleb128 0xb
 7434 0317 27       		.uleb128 0x27
 7435 0318 19       		.uleb128 0x19
 7436 0319 20       		.uleb128 0x20
 7437 031a 0B       		.uleb128 0xb
 7438 031b 01       		.uleb128 0x1
 7439 031c 13       		.uleb128 0x13
 7440 031d 00       		.byte	0
 7441 031e 00       		.byte	0
 7442 031f 40       		.uleb128 0x40
 7443 0320 34       		.uleb128 0x34
 7444 0321 00       		.byte	0
 7445 0322 03       		.uleb128 0x3
 7446 0323 08       		.uleb128 0x8
 7447 0324 3A       		.uleb128 0x3a
 7448 0325 0B       		.uleb128 0xb
 7449 0326 3B       		.uleb128 0x3b
 7450 0327 0B       		.uleb128 0xb
 7451 0328 49       		.uleb128 0x49
 7452 0329 13       		.uleb128 0x13
 7453 032a 00       		.byte	0
 7454 032b 00       		.byte	0
 7455 032c 41       		.uleb128 0x41
 7456 032d 2E       		.uleb128 0x2e
 7457 032e 01       		.byte	0x1
 7458 032f 3F       		.uleb128 0x3f
 7459 0330 19       		.uleb128 0x19
 7460 0331 03       		.uleb128 0x3
 7461 0332 0E       		.uleb128 0xe
 7462 0333 3A       		.uleb128 0x3a
 7463 0334 0B       		.uleb128 0xb
 7464 0335 3B       		.uleb128 0x3b
 7465 0336 0B       		.uleb128 0xb
 7466 0337 27       		.uleb128 0x27
 7467 0338 19       		.uleb128 0x19
 7468 0339 49       		.uleb128 0x49
 7469 033a 13       		.uleb128 0x13
 7470 033b 11       		.uleb128 0x11
 7471 033c 01       		.uleb128 0x1
 7472 033d 12       		.uleb128 0x12
 7473 033e 06       		.uleb128 0x6
 7474 033f 40       		.uleb128 0x40
 7475 0340 18       		.uleb128 0x18
ARM GAS  C:\Users\pearlstl\AppData\Local\Temp\cccjDn63.s 			page 149


 7476 0341 9742     		.uleb128 0x2117
 7477 0343 19       		.uleb128 0x19
 7478 0344 01       		.uleb128 0x1
 7479 0345 13       		.uleb128 0x13
 7480 0346 00       		.byte	0
 7481 0347 00       		.byte	0
 7482 0348 42       		.uleb128 0x42
 7483 0349 05       		.uleb128 0x5
 7484 034a 00       		.byte	0
 7485 034b 03       		.uleb128 0x3
 7486 034c 08       		.uleb128 0x8
 7487 034d 3A       		.uleb128 0x3a
 7488 034e 0B       		.uleb128 0xb
 7489 034f 3B       		.uleb128 0x3b
 7490 0350 0B       		.uleb128 0xb
 7491 0351 49       		.uleb128 0x49
 7492 0352 13       		.uleb128 0x13
 7493 0353 02       		.uleb128 0x2
 7494 0354 17       		.uleb128 0x17
 7495 0355 00       		.byte	0
 7496 0356 00       		.byte	0
 7497 0357 43       		.uleb128 0x43
 7498 0358 05       		.uleb128 0x5
 7499 0359 00       		.byte	0
 7500 035a 03       		.uleb128 0x3
 7501 035b 0E       		.uleb128 0xe
 7502 035c 3A       		.uleb128 0x3a
 7503 035d 0B       		.uleb128 0xb
 7504 035e 3B       		.uleb128 0x3b
 7505 035f 0B       		.uleb128 0xb
 7506 0360 49       		.uleb128 0x49
 7507 0361 13       		.uleb128 0x13
 7508 0362 02       		.uleb128 0x2
 7509 0363 17       		.uleb128 0x17
 7510 0364 00       		.byte	0
 7511 0365 00       		.byte	0
 7512 0366 44       		.uleb128 0x44
 7513 0367 34       		.uleb128 0x34
 7514 0368 00       		.byte	0
 7515 0369 03       		.uleb128 0x3
 7516 036a 0E       		.uleb128 0xe
 7517 036b 3A       		.uleb128 0x3a
 7518 036c 0B       		.uleb128 0xb
 7519 036d 3B       		.uleb128 0x3b
 7520 036e 0B       		.uleb128 0xb
 7521 036f 49       		.uleb128 0x49
 7522 0370 13       		.uleb128 0x13
 7523 0371 02       		.uleb128 0x2
 7524 0372 17       		.uleb128 0x17
 7525 0373 00       		.byte	0
 7526 0374 00       		.byte	0
 7527 0375 45       		.uleb128 0x45
 7528 0376 34       		.uleb128 0x34
 7529 0377 00       		.byte	0
 7530 0378 03       		.uleb128 0x3
 7531 0379 08       		.uleb128 0x8
 7532 037a 3A       		.uleb128 0x3a
ARM GAS  C:\Users\pearlstl\AppData\Local\Temp\cccjDn63.s 			page 150


 7533 037b 0B       		.uleb128 0xb
 7534 037c 3B       		.uleb128 0x3b
 7535 037d 0B       		.uleb128 0xb
 7536 037e 49       		.uleb128 0x49
 7537 037f 13       		.uleb128 0x13
 7538 0380 02       		.uleb128 0x2
 7539 0381 17       		.uleb128 0x17
 7540 0382 00       		.byte	0
 7541 0383 00       		.byte	0
 7542 0384 46       		.uleb128 0x46
 7543 0385 1D       		.uleb128 0x1d
 7544 0386 01       		.byte	0x1
 7545 0387 31       		.uleb128 0x31
 7546 0388 13       		.uleb128 0x13
 7547 0389 52       		.uleb128 0x52
 7548 038a 01       		.uleb128 0x1
 7549 038b 55       		.uleb128 0x55
 7550 038c 17       		.uleb128 0x17
 7551 038d 58       		.uleb128 0x58
 7552 038e 0B       		.uleb128 0xb
 7553 038f 59       		.uleb128 0x59
 7554 0390 0B       		.uleb128 0xb
 7555 0391 01       		.uleb128 0x1
 7556 0392 13       		.uleb128 0x13
 7557 0393 00       		.byte	0
 7558 0394 00       		.byte	0
 7559 0395 47       		.uleb128 0x47
 7560 0396 1D       		.uleb128 0x1d
 7561 0397 01       		.byte	0x1
 7562 0398 31       		.uleb128 0x31
 7563 0399 13       		.uleb128 0x13
 7564 039a 11       		.uleb128 0x11
 7565 039b 01       		.uleb128 0x1
 7566 039c 12       		.uleb128 0x12
 7567 039d 06       		.uleb128 0x6
 7568 039e 58       		.uleb128 0x58
 7569 039f 0B       		.uleb128 0xb
 7570 03a0 59       		.uleb128 0x59
 7571 03a1 0B       		.uleb128 0xb
 7572 03a2 01       		.uleb128 0x1
 7573 03a3 13       		.uleb128 0x13
 7574 03a4 00       		.byte	0
 7575 03a5 00       		.byte	0
 7576 03a6 48       		.uleb128 0x48
 7577 03a7 2E       		.uleb128 0x2e
 7578 03a8 01       		.byte	0x1
 7579 03a9 3F       		.uleb128 0x3f
 7580 03aa 19       		.uleb128 0x19
 7581 03ab 03       		.uleb128 0x3
 7582 03ac 0E       		.uleb128 0xe
 7583 03ad 3A       		.uleb128 0x3a
 7584 03ae 0B       		.uleb128 0xb
 7585 03af 3B       		.uleb128 0x3b
 7586 03b0 0B       		.uleb128 0xb
 7587 03b1 27       		.uleb128 0x27
 7588 03b2 19       		.uleb128 0x19
 7589 03b3 11       		.uleb128 0x11
ARM GAS  C:\Users\pearlstl\AppData\Local\Temp\cccjDn63.s 			page 151


 7590 03b4 01       		.uleb128 0x1
 7591 03b5 12       		.uleb128 0x12
 7592 03b6 06       		.uleb128 0x6
 7593 03b7 40       		.uleb128 0x40
 7594 03b8 18       		.uleb128 0x18
 7595 03b9 9742     		.uleb128 0x2117
 7596 03bb 19       		.uleb128 0x19
 7597 03bc 01       		.uleb128 0x1
 7598 03bd 13       		.uleb128 0x13
 7599 03be 00       		.byte	0
 7600 03bf 00       		.byte	0
 7601 03c0 49       		.uleb128 0x49
 7602 03c1 34       		.uleb128 0x34
 7603 03c2 00       		.byte	0
 7604 03c3 03       		.uleb128 0x3
 7605 03c4 08       		.uleb128 0x8
 7606 03c5 3A       		.uleb128 0x3a
 7607 03c6 0B       		.uleb128 0xb
 7608 03c7 3B       		.uleb128 0x3b
 7609 03c8 05       		.uleb128 0x5
 7610 03c9 49       		.uleb128 0x49
 7611 03ca 13       		.uleb128 0x13
 7612 03cb 02       		.uleb128 0x2
 7613 03cc 17       		.uleb128 0x17
 7614 03cd 00       		.byte	0
 7615 03ce 00       		.byte	0
 7616 03cf 4A       		.uleb128 0x4a
 7617 03d0 34       		.uleb128 0x34
 7618 03d1 00       		.byte	0
 7619 03d2 03       		.uleb128 0x3
 7620 03d3 0E       		.uleb128 0xe
 7621 03d4 3A       		.uleb128 0x3a
 7622 03d5 0B       		.uleb128 0xb
 7623 03d6 3B       		.uleb128 0x3b
 7624 03d7 0B       		.uleb128 0xb
 7625 03d8 49       		.uleb128 0x49
 7626 03d9 13       		.uleb128 0x13
 7627 03da 02       		.uleb128 0x2
 7628 03db 18       		.uleb128 0x18
 7629 03dc 00       		.byte	0
 7630 03dd 00       		.byte	0
 7631 03de 4B       		.uleb128 0x4b
 7632 03df 34       		.uleb128 0x34
 7633 03e0 00       		.byte	0
 7634 03e1 03       		.uleb128 0x3
 7635 03e2 0E       		.uleb128 0xe
 7636 03e3 3A       		.uleb128 0x3a
 7637 03e4 0B       		.uleb128 0xb
 7638 03e5 3B       		.uleb128 0x3b
 7639 03e6 05       		.uleb128 0x5
 7640 03e7 49       		.uleb128 0x49
 7641 03e8 13       		.uleb128 0x13
 7642 03e9 3F       		.uleb128 0x3f
 7643 03ea 19       		.uleb128 0x19
 7644 03eb 3C       		.uleb128 0x3c
 7645 03ec 19       		.uleb128 0x19
 7646 03ed 00       		.byte	0
ARM GAS  C:\Users\pearlstl\AppData\Local\Temp\cccjDn63.s 			page 152


 7647 03ee 00       		.byte	0
 7648 03ef 4C       		.uleb128 0x4c
 7649 03f0 2E       		.uleb128 0x2e
 7650 03f1 00       		.byte	0
 7651 03f2 3F       		.uleb128 0x3f
 7652 03f3 19       		.uleb128 0x19
 7653 03f4 3C       		.uleb128 0x3c
 7654 03f5 19       		.uleb128 0x19
 7655 03f6 6E       		.uleb128 0x6e
 7656 03f7 0E       		.uleb128 0xe
 7657 03f8 03       		.uleb128 0x3
 7658 03f9 0E       		.uleb128 0xe
 7659 03fa 3A       		.uleb128 0x3a
 7660 03fb 0B       		.uleb128 0xb
 7661 03fc 3B       		.uleb128 0x3b
 7662 03fd 0B       		.uleb128 0xb
 7663 03fe 00       		.byte	0
 7664 03ff 00       		.byte	0
 7665 0400 4D       		.uleb128 0x4d
 7666 0401 2E       		.uleb128 0x2e
 7667 0402 00       		.byte	0
 7668 0403 3F       		.uleb128 0x3f
 7669 0404 19       		.uleb128 0x19
 7670 0405 3C       		.uleb128 0x3c
 7671 0406 19       		.uleb128 0x19
 7672 0407 6E       		.uleb128 0x6e
 7673 0408 0E       		.uleb128 0xe
 7674 0409 03       		.uleb128 0x3
 7675 040a 0E       		.uleb128 0xe
 7676 040b 3A       		.uleb128 0x3a
 7677 040c 0B       		.uleb128 0xb
 7678 040d 3B       		.uleb128 0x3b
 7679 040e 05       		.uleb128 0x5
 7680 040f 00       		.byte	0
 7681 0410 00       		.byte	0
 7682 0411 00       		.byte	0
 7683              		.section	.debug_loc,"",%progbits
 7684              	.Ldebug_loc0:
 7685              	.LLST0:
 7686 0000 00000000 		.4byte	.LVL0
 7687 0004 1A000000 		.4byte	.LVL1
 7688 0008 0100     		.2byte	0x1
 7689 000a 50       		.byte	0x50
 7690 000b 1A000000 		.4byte	.LVL1
 7691 000f 20000000 		.4byte	.LVL2
 7692 0013 0300     		.2byte	0x3
 7693 0015 91       		.byte	0x91
 7694 0016 A87D     		.sleb128 -344
 7695 0018 20000000 		.4byte	.LVL2
 7696 001c 22000000 		.4byte	.LVL3
 7697 0020 0100     		.2byte	0x1
 7698 0022 50       		.byte	0x50
 7699 0023 22000000 		.4byte	.LVL3
 7700 0027 24000000 		.4byte	.LVL4
 7701 002b 0400     		.2byte	0x4
 7702 002d F3       		.byte	0xf3
 7703 002e 01       		.uleb128 0x1
ARM GAS  C:\Users\pearlstl\AppData\Local\Temp\cccjDn63.s 			page 153


 7704 002f 50       		.byte	0x50
 7705 0030 9F       		.byte	0x9f
 7706 0031 24000000 		.4byte	.LVL4
 7707 0035 2D000000 		.4byte	.LVL6-1
 7708 0039 0100     		.2byte	0x1
 7709 003b 50       		.byte	0x50
 7710 003c 2D000000 		.4byte	.LVL6-1
 7711 0040 D4000000 		.4byte	.LVL28
 7712 0044 0300     		.2byte	0x3
 7713 0046 91       		.byte	0x91
 7714 0047 A87D     		.sleb128 -344
 7715 0049 D4000000 		.4byte	.LVL28
 7716 004d F4000000 		.4byte	.LVL29
 7717 0051 0100     		.2byte	0x1
 7718 0053 57       		.byte	0x57
 7719 0054 F4000000 		.4byte	.LVL29
 7720 0058 54040000 		.4byte	.LVL94
 7721 005c 0300     		.2byte	0x3
 7722 005e 91       		.byte	0x91
 7723 005f A87D     		.sleb128 -344
 7724 0061 54040000 		.4byte	.LVL94
 7725 0065 59040000 		.4byte	.LVL95-1
 7726 0069 0100     		.2byte	0x1
 7727 006b 50       		.byte	0x50
 7728 006c 59040000 		.4byte	.LVL95-1
 7729 0070 62040000 		.4byte	.LVL96
 7730 0074 0300     		.2byte	0x3
 7731 0076 91       		.byte	0x91
 7732 0077 A87D     		.sleb128 -344
 7733 0079 62040000 		.4byte	.LVL96
 7734 007d 80040000 		.4byte	.LFE54
 7735 0081 0100     		.2byte	0x1
 7736 0083 57       		.byte	0x57
 7737 0084 00000000 		.4byte	0
 7738 0088 00000000 		.4byte	0
 7739              	.LLST1:
 7740 008c 00000000 		.4byte	.LVL0
 7741 0090 2D000000 		.4byte	.LVL6-1
 7742 0094 0100     		.2byte	0x1
 7743 0096 51       		.byte	0x51
 7744 0097 2D000000 		.4byte	.LVL6-1
 7745 009b 54040000 		.4byte	.LVL94
 7746 009f 0300     		.2byte	0x3
 7747 00a1 91       		.byte	0x91
 7748 00a2 947D     		.sleb128 -364
 7749 00a4 54040000 		.4byte	.LVL94
 7750 00a8 59040000 		.4byte	.LVL95-1
 7751 00ac 0100     		.2byte	0x1
 7752 00ae 51       		.byte	0x51
 7753 00af 59040000 		.4byte	.LVL95-1
 7754 00b3 80040000 		.4byte	.LFE54
 7755 00b7 0300     		.2byte	0x3
 7756 00b9 91       		.byte	0x91
 7757 00ba 947D     		.sleb128 -364
 7758 00bc 00000000 		.4byte	0
 7759 00c0 00000000 		.4byte	0
 7760              	.LLST2:
ARM GAS  C:\Users\pearlstl\AppData\Local\Temp\cccjDn63.s 			page 154


 7761 00c4 00000000 		.4byte	.LVL0
 7762 00c8 2D000000 		.4byte	.LVL6-1
 7763 00cc 0100     		.2byte	0x1
 7764 00ce 52       		.byte	0x52
 7765 00cf 2D000000 		.4byte	.LVL6-1
 7766 00d3 54040000 		.4byte	.LVL94
 7767 00d7 0400     		.2byte	0x4
 7768 00d9 F3       		.byte	0xf3
 7769 00da 01       		.uleb128 0x1
 7770 00db 52       		.byte	0x52
 7771 00dc 9F       		.byte	0x9f
 7772 00dd 54040000 		.4byte	.LVL94
 7773 00e1 59040000 		.4byte	.LVL95-1
 7774 00e5 0100     		.2byte	0x1
 7775 00e7 52       		.byte	0x52
 7776 00e8 59040000 		.4byte	.LVL95-1
 7777 00ec 80040000 		.4byte	.LFE54
 7778 00f0 0400     		.2byte	0x4
 7779 00f2 F3       		.byte	0xf3
 7780 00f3 01       		.uleb128 0x1
 7781 00f4 52       		.byte	0x52
 7782 00f5 9F       		.byte	0x9f
 7783 00f6 00000000 		.4byte	0
 7784 00fa 00000000 		.4byte	0
 7785              	.LLST3:
 7786 00fe 24000000 		.4byte	.LVL4
 7787 0102 4C040000 		.4byte	.LVL93
 7788 0106 0200     		.2byte	0x2
 7789 0108 30       		.byte	0x30
 7790 0109 9F       		.byte	0x9f
 7791 010a 62040000 		.4byte	.LVL96
 7792 010e 80040000 		.4byte	.LFE54
 7793 0112 0200     		.2byte	0x2
 7794 0114 30       		.byte	0x30
 7795 0115 9F       		.byte	0x9f
 7796 0116 00000000 		.4byte	0
 7797 011a 00000000 		.4byte	0
 7798              	.LLST4:
 7799 011e 24000000 		.4byte	.LVL4
 7800 0122 4C040000 		.4byte	.LVL93
 7801 0126 0300     		.2byte	0x3
 7802 0128 91       		.byte	0x91
 7803 0129 947D     		.sleb128 -364
 7804 012b 62040000 		.4byte	.LVL96
 7805 012f 80040000 		.4byte	.LFE54
 7806 0133 0300     		.2byte	0x3
 7807 0135 91       		.byte	0x91
 7808 0136 947D     		.sleb128 -364
 7809 0138 00000000 		.4byte	0
 7810 013c 00000000 		.4byte	0
 7811              	.LLST5:
 7812 0140 24000000 		.4byte	.LVL4
 7813 0144 4C040000 		.4byte	.LVL93
 7814 0148 0300     		.2byte	0x3
 7815 014a 91       		.byte	0x91
 7816 014b A87D     		.sleb128 -344
 7817 014d 62040000 		.4byte	.LVL96
ARM GAS  C:\Users\pearlstl\AppData\Local\Temp\cccjDn63.s 			page 155


 7818 0151 80040000 		.4byte	.LFE54
 7819 0155 0300     		.2byte	0x3
 7820 0157 91       		.byte	0x91
 7821 0158 A87D     		.sleb128 -344
 7822 015a 00000000 		.4byte	0
 7823 015e 00000000 		.4byte	0
 7824              	.LLST6:
 7825 0162 28000000 		.4byte	.LVL5
 7826 0166 2D000000 		.4byte	.LVL6-1
 7827 016a 0100     		.2byte	0x1
 7828 016c 53       		.byte	0x53
 7829 016d 2D000000 		.4byte	.LVL6-1
 7830 0171 4C040000 		.4byte	.LVL93
 7831 0175 0300     		.2byte	0x3
 7832 0177 91       		.byte	0x91
 7833 0178 C87D     		.sleb128 -312
 7834 017a 62040000 		.4byte	.LVL96
 7835 017e 80040000 		.4byte	.LFE54
 7836 0182 0300     		.2byte	0x3
 7837 0184 91       		.byte	0x91
 7838 0185 C87D     		.sleb128 -312
 7839 0187 00000000 		.4byte	0
 7840 018b 00000000 		.4byte	0
 7841              	.LLST7:
 7842 018f 30000000 		.4byte	.LVL7
 7843 0193 32000000 		.4byte	.LVL8
 7844 0197 0100     		.2byte	0x1
 7845 0199 50       		.byte	0x50
 7846 019a 32000000 		.4byte	.LVL8
 7847 019e 4C040000 		.4byte	.LVL93
 7848 01a2 0300     		.2byte	0x3
 7849 01a4 91       		.byte	0x91
 7850 01a5 CC7D     		.sleb128 -308
 7851 01a7 62040000 		.4byte	.LVL96
 7852 01ab 80040000 		.4byte	.LFE54
 7853 01af 0300     		.2byte	0x3
 7854 01b1 91       		.byte	0x91
 7855 01b2 CC7D     		.sleb128 -308
 7856 01b4 00000000 		.4byte	0
 7857 01b8 00000000 		.4byte	0
 7858              	.LLST8:
 7859 01bc 38000000 		.4byte	.LVL10
 7860 01c0 3A000000 		.4byte	.LVL11
 7861 01c4 0100     		.2byte	0x1
 7862 01c6 50       		.byte	0x50
 7863 01c7 3A000000 		.4byte	.LVL11
 7864 01cb 4C040000 		.4byte	.LVL93
 7865 01cf 0300     		.2byte	0x3
 7866 01d1 91       		.byte	0x91
 7867 01d2 D07D     		.sleb128 -304
 7868 01d4 62040000 		.4byte	.LVL96
 7869 01d8 80040000 		.4byte	.LFE54
 7870 01dc 0300     		.2byte	0x3
 7871 01de 91       		.byte	0x91
 7872 01df D07D     		.sleb128 -304
 7873 01e1 00000000 		.4byte	0
 7874 01e5 00000000 		.4byte	0
ARM GAS  C:\Users\pearlstl\AppData\Local\Temp\cccjDn63.s 			page 156


 7875              	.LLST9:
 7876 01e9 E6010000 		.4byte	.LVL46
 7877 01ed 38020000 		.4byte	.LVL52
 7878 01f1 0100     		.2byte	0x1
 7879 01f3 55       		.byte	0x55
 7880 01f4 00000000 		.4byte	0
 7881 01f8 00000000 		.4byte	0
 7882              	.LLST10:
 7883 01fc 38000000 		.4byte	.LVL10
 7884 0200 D6010000 		.4byte	.LVL45
 7885 0204 0300     		.2byte	0x3
 7886 0206 91       		.byte	0x91
 7887 0207 947D     		.sleb128 -364
 7888 0209 62040000 		.4byte	.LVL96
 7889 020d 80040000 		.4byte	.LFE54
 7890 0211 0300     		.2byte	0x3
 7891 0213 91       		.byte	0x91
 7892 0214 947D     		.sleb128 -364
 7893 0216 00000000 		.4byte	0
 7894 021a 00000000 		.4byte	0
 7895              	.LLST11:
 7896 021e 38000000 		.4byte	.LVL10
 7897 0222 F4000000 		.4byte	.LVL29
 7898 0226 0100     		.2byte	0x1
 7899 0228 57       		.byte	0x57
 7900 0229 F4000000 		.4byte	.LVL29
 7901 022d D6010000 		.4byte	.LVL45
 7902 0231 0300     		.2byte	0x3
 7903 0233 91       		.byte	0x91
 7904 0234 A87D     		.sleb128 -344
 7905 0236 62040000 		.4byte	.LVL96
 7906 023a 80040000 		.4byte	.LFE54
 7907 023e 0100     		.2byte	0x1
 7908 0240 57       		.byte	0x57
 7909 0241 00000000 		.4byte	0
 7910 0245 00000000 		.4byte	0
 7911              	.LLST12:
 7912 0249 40000000 		.4byte	.LVL13
 7913 024d 42000000 		.4byte	.LVL14
 7914 0251 0100     		.2byte	0x1
 7915 0253 50       		.byte	0x50
 7916 0254 42000000 		.4byte	.LVL14
 7917 0258 C4000000 		.4byte	.LVL25
 7918 025c 0100     		.2byte	0x1
 7919 025e 54       		.byte	0x54
 7920 025f 00000000 		.4byte	0
 7921 0263 00000000 		.4byte	0
 7922              	.LLST13:
 7923 0267 48000000 		.4byte	.LVL16
 7924 026b 4A000000 		.4byte	.LVL17
 7925 026f 0100     		.2byte	0x1
 7926 0271 50       		.byte	0x50
 7927 0272 4A000000 		.4byte	.LVL17
 7928 0276 D6010000 		.4byte	.LVL45
 7929 027a 0100     		.2byte	0x1
 7930 027c 58       		.byte	0x58
 7931 027d 62040000 		.4byte	.LVL96
ARM GAS  C:\Users\pearlstl\AppData\Local\Temp\cccjDn63.s 			page 157


 7932 0281 80040000 		.4byte	.LFE54
 7933 0285 0100     		.2byte	0x1
 7934 0287 58       		.byte	0x58
 7935 0288 00000000 		.4byte	0
 7936 028c 00000000 		.4byte	0
 7937              	.LLST14:
 7938 0290 50000000 		.4byte	.LVL19
 7939 0294 D6010000 		.4byte	.LVL45
 7940 0298 0300     		.2byte	0x3
 7941 029a 91       		.byte	0x91
 7942 029b 9C7D     		.sleb128 -356
 7943 029d 62040000 		.4byte	.LVL96
 7944 02a1 80040000 		.4byte	.LFE54
 7945 02a5 0300     		.2byte	0x3
 7946 02a7 91       		.byte	0x91
 7947 02a8 9C7D     		.sleb128 -356
 7948 02aa 00000000 		.4byte	0
 7949 02ae 00000000 		.4byte	0
 7950              	.LLST15:
 7951 02b2 CA000000 		.4byte	.LVL26
 7952 02b6 F8000000 		.4byte	.LVL30
 7953 02ba 0100     		.2byte	0x1
 7954 02bc 5B       		.byte	0x5b
 7955 02bd F8000000 		.4byte	.LVL30
 7956 02c1 D6010000 		.4byte	.LVL45
 7957 02c5 0300     		.2byte	0x3
 7958 02c7 91       		.byte	0x91
 7959 02c8 C47D     		.sleb128 -316
 7960 02ca 62040000 		.4byte	.LVL96
 7961 02ce 80040000 		.4byte	.LFE54
 7962 02d2 0100     		.2byte	0x1
 7963 02d4 5B       		.byte	0x5b
 7964 02d5 00000000 		.4byte	0
 7965 02d9 00000000 		.4byte	0
 7966              	.LLST16:
 7967 02dd CA000000 		.4byte	.LVL26
 7968 02e1 F8000000 		.4byte	.LVL30
 7969 02e5 0100     		.2byte	0x1
 7970 02e7 55       		.byte	0x55
 7971 02e8 F8000000 		.4byte	.LVL30
 7972 02ec D6010000 		.4byte	.LVL45
 7973 02f0 0300     		.2byte	0x3
 7974 02f2 91       		.byte	0x91
 7975 02f3 B47D     		.sleb128 -332
 7976 02f5 62040000 		.4byte	.LVL96
 7977 02f9 80040000 		.4byte	.LFE54
 7978 02fd 0100     		.2byte	0x1
 7979 02ff 55       		.byte	0x55
 7980 0300 00000000 		.4byte	0
 7981 0304 00000000 		.4byte	0
 7982              	.LLST17:
 7983 0308 CE000000 		.4byte	.LVL27
 7984 030c F8000000 		.4byte	.LVL30
 7985 0310 0200     		.2byte	0x2
 7986 0312 30       		.byte	0x30
 7987 0313 9F       		.byte	0x9f
 7988 0314 F8000000 		.4byte	.LVL30
ARM GAS  C:\Users\pearlstl\AppData\Local\Temp\cccjDn63.s 			page 158


 7989 0318 CE010000 		.4byte	.LVL43
 7990 031c 0100     		.2byte	0x1
 7991 031e 56       		.byte	0x56
 7992 031f D2010000 		.4byte	.LVL44
 7993 0323 D6010000 		.4byte	.LVL45
 7994 0327 0100     		.2byte	0x1
 7995 0329 56       		.byte	0x56
 7996 032a 62040000 		.4byte	.LVL96
 7997 032e 80040000 		.4byte	.LFE54
 7998 0332 0200     		.2byte	0x2
 7999 0334 30       		.byte	0x30
 8000 0335 9F       		.byte	0x9f
 8001 0336 00000000 		.4byte	0
 8002 033a 00000000 		.4byte	0
 8003              	.LLST18:
 8004 033e CA000000 		.4byte	.LVL26
 8005 0342 CE000000 		.4byte	.LVL27
 8006 0346 0100     		.2byte	0x1
 8007 0348 57       		.byte	0x57
 8008 0349 00000000 		.4byte	0
 8009 034d 00000000 		.4byte	0
 8010              	.LLST19:
 8011 0351 0A010000 		.4byte	.LVL31
 8012 0355 20010000 		.4byte	.LVL35
 8013 0359 0100     		.2byte	0x1
 8014 035b 55       		.byte	0x55
 8015 035c 20010000 		.4byte	.LVL35
 8016 0360 CE010000 		.4byte	.LVL43
 8017 0364 1900     		.2byte	0x19
 8018 0366 76       		.byte	0x76
 8019 0367 00       		.sleb128 0
 8020 0368 40       		.byte	0x40
 8021 0369 24       		.byte	0x24
 8022 036a 40       		.byte	0x40
 8023 036b 26       		.byte	0x26
 8024 036c 91       		.byte	0x91
 8025 036d B07D     		.sleb128 -336
 8026 036f 94       		.byte	0x94
 8027 0370 02       		.byte	0x2
 8028 0371 40       		.byte	0x40
 8029 0372 24       		.byte	0x24
 8030 0373 40       		.byte	0x40
 8031 0374 26       		.byte	0x26
 8032 0375 1E       		.byte	0x1e
 8033 0376 79       		.byte	0x79
 8034 0377 00       		.sleb128 0
 8035 0378 1B       		.byte	0x1b
 8036 0379 91       		.byte	0x91
 8037 037a B87D     		.sleb128 -328
 8038 037c 06       		.byte	0x6
 8039 037d 22       		.byte	0x22
 8040 037e 9F       		.byte	0x9f
 8041 037f 00000000 		.4byte	0
 8042 0383 00000000 		.4byte	0
 8043              	.LLST20:
 8044 0387 12010000 		.4byte	.LVL33
 8045 038b 64010000 		.4byte	.LVL40
ARM GAS  C:\Users\pearlstl\AppData\Local\Temp\cccjDn63.s 			page 159


 8046 038f 1B00     		.2byte	0x1b
 8047 0391 74       		.byte	0x74
 8048 0392 00       		.sleb128 0
 8049 0393 40       		.byte	0x40
 8050 0394 24       		.byte	0x24
 8051 0395 40       		.byte	0x40
 8052 0396 26       		.byte	0x26
 8053 0397 91       		.byte	0x91
 8054 0398 C47D     		.sleb128 -316
 8055 039a 94       		.byte	0x94
 8056 039b 02       		.byte	0x2
 8057 039c 40       		.byte	0x40
 8058 039d 24       		.byte	0x24
 8059 039e 40       		.byte	0x40
 8060 039f 26       		.byte	0x26
 8061 03a0 1E       		.byte	0x1e
 8062 03a1 0A       		.byte	0xa
 8063 03a2 FF7F     		.2byte	0x7fff
 8064 03a4 1B       		.byte	0x1b
 8065 03a5 91       		.byte	0x91
 8066 03a6 AC7D     		.sleb128 -340
 8067 03a8 94       		.byte	0x94
 8068 03a9 02       		.byte	0x2
 8069 03aa 22       		.byte	0x22
 8070 03ab 9F       		.byte	0x9f
 8071 03ac 00000000 		.4byte	0
 8072 03b0 00000000 		.4byte	0
 8073              	.LLST21:
 8074 03b4 20010000 		.4byte	.LVL35
 8075 03b8 60010000 		.4byte	.LVL39
 8076 03bc 1B00     		.2byte	0x1b
 8077 03be 75       		.byte	0x75
 8078 03bf 00       		.sleb128 0
 8079 03c0 40       		.byte	0x40
 8080 03c1 24       		.byte	0x24
 8081 03c2 40       		.byte	0x40
 8082 03c3 26       		.byte	0x26
 8083 03c4 91       		.byte	0x91
 8084 03c5 C47D     		.sleb128 -316
 8085 03c7 94       		.byte	0x94
 8086 03c8 02       		.byte	0x2
 8087 03c9 40       		.byte	0x40
 8088 03ca 24       		.byte	0x24
 8089 03cb 40       		.byte	0x40
 8090 03cc 26       		.byte	0x26
 8091 03cd 1E       		.byte	0x1e
 8092 03ce 0A       		.byte	0xa
 8093 03cf FF7F     		.2byte	0x7fff
 8094 03d1 1B       		.byte	0x1b
 8095 03d2 91       		.byte	0x91
 8096 03d3 A47D     		.sleb128 -348
 8097 03d5 94       		.byte	0x94
 8098 03d6 02       		.byte	0x2
 8099 03d7 22       		.byte	0x22
 8100 03d8 9F       		.byte	0x9f
 8101 03d9 00000000 		.4byte	0
 8102 03dd 00000000 		.4byte	0
ARM GAS  C:\Users\pearlstl\AppData\Local\Temp\cccjDn63.s 			page 160


 8103              	.LLST22:
 8104 03e1 20010000 		.4byte	.LVL35
 8105 03e5 26010000 		.4byte	.LVL36
 8106 03e9 1200     		.2byte	0x12
 8107 03eb 76       		.byte	0x76
 8108 03ec 00       		.sleb128 0
 8109 03ed 08       		.byte	0x8
 8110 03ee FF       		.byte	0xff
 8111 03ef 1A       		.byte	0x1a
 8112 03f0 73       		.byte	0x73
 8113 03f1 00       		.sleb128 0
 8114 03f2 1E       		.byte	0x1e
 8115 03f3 79       		.byte	0x79
 8116 03f4 00       		.sleb128 0
 8117 03f5 1B       		.byte	0x1b
 8118 03f6 91       		.byte	0x91
 8119 03f7 C07D     		.sleb128 -320
 8120 03f9 94       		.byte	0x94
 8121 03fa 02       		.byte	0x2
 8122 03fb 22       		.byte	0x22
 8123 03fc 9F       		.byte	0x9f
 8124 03fd 26010000 		.4byte	.LVL36
 8125 0401 CE010000 		.4byte	.LVL43
 8126 0405 1400     		.2byte	0x14
 8127 0407 76       		.byte	0x76
 8128 0408 00       		.sleb128 0
 8129 0409 08       		.byte	0x8
 8130 040a FF       		.byte	0xff
 8131 040b 1A       		.byte	0x1a
 8132 040c 91       		.byte	0x91
 8133 040d BC7D     		.sleb128 -324
 8134 040f 06       		.byte	0x6
 8135 0410 1E       		.byte	0x1e
 8136 0411 79       		.byte	0x79
 8137 0412 00       		.sleb128 0
 8138 0413 1B       		.byte	0x1b
 8139 0414 91       		.byte	0x91
 8140 0415 C07D     		.sleb128 -320
 8141 0417 94       		.byte	0x94
 8142 0418 02       		.byte	0x2
 8143 0419 22       		.byte	0x22
 8144 041a 9F       		.byte	0x9f
 8145 041b 00000000 		.4byte	0
 8146 041f 00000000 		.4byte	0
 8147              	.LLST23:
 8148 0423 50020000 		.4byte	.LVL55
 8149 0427 54020000 		.4byte	.LVL56
 8150 042b 0100     		.2byte	0x1
 8151 042d 58       		.byte	0x58
 8152 042e 54020000 		.4byte	.LVL56
 8153 0432 AA020000 		.4byte	.LVL62
 8154 0436 0100     		.2byte	0x1
 8155 0438 54       		.byte	0x54
 8156 0439 AA020000 		.4byte	.LVL62
 8157 043d 4C040000 		.4byte	.LVL93
 8158 0441 0300     		.2byte	0x3
 8159 0443 91       		.byte	0x91
ARM GAS  C:\Users\pearlstl\AppData\Local\Temp\cccjDn63.s 			page 161


 8160 0444 A87D     		.sleb128 -344
 8161 0446 00000000 		.4byte	0
 8162 044a 00000000 		.4byte	0
 8163              	.LLST24:
 8164 044e 50020000 		.4byte	.LVL55
 8165 0452 4C040000 		.4byte	.LVL93
 8166 0456 0100     		.2byte	0x1
 8167 0458 5A       		.byte	0x5a
 8168 0459 00000000 		.4byte	0
 8169 045d 00000000 		.4byte	0
 8170              	.LLST25:
 8171 0461 BC020000 		.4byte	.LVL64
 8172 0465 4C040000 		.4byte	.LVL93
 8173 0469 0100     		.2byte	0x1
 8174 046b 58       		.byte	0x58
 8175 046c 00000000 		.4byte	0
 8176 0470 00000000 		.4byte	0
 8177              	.LLST26:
 8178 0474 BC020000 		.4byte	.LVL64
 8179 0478 D4020000 		.4byte	.LVL67
 8180 047c 0100     		.2byte	0x1
 8181 047e 56       		.byte	0x56
 8182 047f D4020000 		.4byte	.LVL67
 8183 0483 4C040000 		.4byte	.LVL93
 8184 0487 0300     		.2byte	0x3
 8185 0489 91       		.byte	0x91
 8186 048a 987D     		.sleb128 -360
 8187 048c 00000000 		.4byte	0
 8188 0490 00000000 		.4byte	0
 8189              	.LLST27:
 8190 0494 BC020000 		.4byte	.LVL64
 8191 0498 D2020000 		.4byte	.LVL66
 8192 049c 0100     		.2byte	0x1
 8193 049e 57       		.byte	0x57
 8194 049f D2020000 		.4byte	.LVL66
 8195 04a3 D4020000 		.4byte	.LVL67
 8196 04a7 0300     		.2byte	0x3
 8197 04a9 91       		.byte	0x91
 8198 04aa DA7D     		.sleb128 -294
 8199 04ac D4020000 		.4byte	.LVL67
 8200 04b0 4C040000 		.4byte	.LVL93
 8201 04b4 0300     		.2byte	0x3
 8202 04b6 91       		.byte	0x91
 8203 04b7 9C7D     		.sleb128 -356
 8204 04b9 00000000 		.4byte	0
 8205 04bd 00000000 		.4byte	0
 8206              	.LLST28:
 8207 04c1 C0020000 		.4byte	.LVL65
 8208 04c5 D4020000 		.4byte	.LVL67
 8209 04c9 0200     		.2byte	0x2
 8210 04cb 30       		.byte	0x30
 8211 04cc 9F       		.byte	0x9f
 8212 04cd D4020000 		.4byte	.LVL67
 8213 04d1 EC020000 		.4byte	.LVL69
 8214 04d5 0100     		.2byte	0x1
 8215 04d7 57       		.byte	0x57
 8216 04d8 F2020000 		.4byte	.LVL70
ARM GAS  C:\Users\pearlstl\AppData\Local\Temp\cccjDn63.s 			page 162


 8217 04dc 00040000 		.4byte	.LVL90
 8218 04e0 0100     		.2byte	0x1
 8219 04e2 57       		.byte	0x57
 8220 04e3 00000000 		.4byte	0
 8221 04e7 00000000 		.4byte	0
 8222              	.LLST29:
 8223 04eb 50020000 		.4byte	.LVL55
 8224 04ef 54040000 		.4byte	.LVL94
 8225 04f3 0200     		.2byte	0x2
 8226 04f5 30       		.byte	0x30
 8227 04f6 9F       		.byte	0x9f
 8228 04f7 00000000 		.4byte	0
 8229 04fb 00000000 		.4byte	0
 8230              	.LLST30:
 8231 04ff 16030000 		.4byte	.LVL72
 8232 0503 BA030000 		.4byte	.LVL81
 8233 0507 0100     		.2byte	0x1
 8234 0509 54       		.byte	0x54
 8235 050a 00000000 		.4byte	0
 8236 050e 00000000 		.4byte	0
 8237              	.LLST31:
 8238 0512 22030000 		.4byte	.LVL73
 8239 0516 7A030000 		.4byte	.LVL77
 8240 051a 0100     		.2byte	0x1
 8241 051c 5B       		.byte	0x5b
 8242 051d 7A030000 		.4byte	.LVL77
 8243 0521 83030000 		.4byte	.LVL78-1
 8244 0525 0400     		.2byte	0x4
 8245 0527 72       		.byte	0x72
 8246 0528 A57F     		.sleb128 -91
 8247 052a 9F       		.byte	0x9f
 8248 052b 83030000 		.4byte	.LVL78-1
 8249 052f BA030000 		.4byte	.LVL81
 8250 0533 0E00     		.2byte	0xe
 8251 0535 74       		.byte	0x74
 8252 0536 00       		.sleb128 0
 8253 0537 09       		.byte	0x9
 8254 0538 F4       		.byte	0xf4
 8255 0539 24       		.byte	0x24
 8256 053a 09       		.byte	0x9
 8257 053b F9       		.byte	0xf9
 8258 053c 26       		.byte	0x26
 8259 053d 91       		.byte	0x91
 8260 053e B47D     		.sleb128 -332
 8261 0540 06       		.byte	0x6
 8262 0541 22       		.byte	0x22
 8263 0542 9F       		.byte	0x9f
 8264 0543 00000000 		.4byte	0
 8265 0547 00000000 		.4byte	0
 8266              	.LLST32:
 8267 054b 22030000 		.4byte	.LVL73
 8268 054f 7A030000 		.4byte	.LVL77
 8269 0553 0300     		.2byte	0x3
 8270 0555 7B       		.byte	0x7b
 8271 0556 01       		.sleb128 1
 8272 0557 9F       		.byte	0x9f
 8273 0558 7A030000 		.4byte	.LVL77
ARM GAS  C:\Users\pearlstl\AppData\Local\Temp\cccjDn63.s 			page 163


 8274 055c 83030000 		.4byte	.LVL78-1
 8275 0560 0400     		.2byte	0x4
 8276 0562 72       		.byte	0x72
 8277 0563 A67F     		.sleb128 -90
 8278 0565 9F       		.byte	0x9f
 8279 0566 83030000 		.4byte	.LVL78-1
 8280 056a BA030000 		.4byte	.LVL81
 8281 056e 1000     		.2byte	0x10
 8282 0570 74       		.byte	0x74
 8283 0571 00       		.sleb128 0
 8284 0572 09       		.byte	0x9
 8285 0573 F4       		.byte	0xf4
 8286 0574 24       		.byte	0x24
 8287 0575 09       		.byte	0x9
 8288 0576 F9       		.byte	0xf9
 8289 0577 26       		.byte	0x26
 8290 0578 91       		.byte	0x91
 8291 0579 B47D     		.sleb128 -332
 8292 057b 06       		.byte	0x6
 8293 057c 22       		.byte	0x22
 8294 057d 23       		.byte	0x23
 8295 057e 01       		.uleb128 0x1
 8296 057f 9F       		.byte	0x9f
 8297 0580 00000000 		.4byte	0
 8298 0584 00000000 		.4byte	0
 8299              	.LLST33:
 8300 0588 B0030000 		.4byte	.LVL80
 8301 058c BA030000 		.4byte	.LVL81
 8302 0590 0500     		.2byte	0x5
 8303 0592 74       		.byte	0x74
 8304 0593 00       		.sleb128 0
 8305 0594 4F       		.byte	0x4f
 8306 0595 1A       		.byte	0x1a
 8307 0596 9F       		.byte	0x9f
 8308 0597 00000000 		.4byte	0
 8309 059b 00000000 		.4byte	0
 8310              	.LLST34:
 8311 059f CE030000 		.4byte	.LVL82
 8312 05a3 DA030000 		.4byte	.LVL84
 8313 05a7 0100     		.2byte	0x1
 8314 05a9 52       		.byte	0x52
 8315 05aa E2030000 		.4byte	.LVL86
 8316 05ae EA030000 		.4byte	.LVL89
 8317 05b2 0100     		.2byte	0x1
 8318 05b4 52       		.byte	0x52
 8319 05b5 00000000 		.4byte	0
 8320 05b9 00000000 		.4byte	0
 8321              	.LLST35:
 8322 05bd D4020000 		.4byte	.LVL67
 8323 05c1 F8020000 		.4byte	.LVL71
 8324 05c5 0100     		.2byte	0x1
 8325 05c7 54       		.byte	0x54
 8326 05c8 D6030000 		.4byte	.LVL83
 8327 05cc E0030000 		.4byte	.LVL85
 8328 05d0 0100     		.2byte	0x1
 8329 05d2 54       		.byte	0x54
 8330 05d3 E4030000 		.4byte	.LVL87
ARM GAS  C:\Users\pearlstl\AppData\Local\Temp\cccjDn63.s 			page 164


 8331 05d7 00040000 		.4byte	.LVL90
 8332 05db 0100     		.2byte	0x1
 8333 05dd 54       		.byte	0x54
 8334 05de 00000000 		.4byte	0
 8335 05e2 00000000 		.4byte	0
 8336              	.LLST36:
 8337 05e6 00000000 		.4byte	.LVL97
 8338 05ea 0D000000 		.4byte	.LVL98-1
 8339 05ee 0100     		.2byte	0x1
 8340 05f0 50       		.byte	0x50
 8341 05f1 0D000000 		.4byte	.LVL98-1
 8342 05f5 14000000 		.4byte	.LVL100
 8343 05f9 0100     		.2byte	0x1
 8344 05fb 56       		.byte	0x56
 8345 05fc 14000000 		.4byte	.LVL100
 8346 0600 18000000 		.4byte	.LVL101
 8347 0604 0400     		.2byte	0x4
 8348 0606 F3       		.byte	0xf3
 8349 0607 01       		.uleb128 0x1
 8350 0608 50       		.byte	0x50
 8351 0609 9F       		.byte	0x9f
 8352 060a 18000000 		.4byte	.LVL101
 8353 060e 24000000 		.4byte	.LVL104
 8354 0612 0100     		.2byte	0x1
 8355 0614 56       		.byte	0x56
 8356 0615 24000000 		.4byte	.LVL104
 8357 0619 34000000 		.4byte	.LVL107
 8358 061d 0400     		.2byte	0x4
 8359 061f F3       		.byte	0xf3
 8360 0620 01       		.uleb128 0x1
 8361 0621 50       		.byte	0x50
 8362 0622 9F       		.byte	0x9f
 8363 0623 34000000 		.4byte	.LVL107
 8364 0627 3C000000 		.4byte	.LVL109
 8365 062b 0100     		.2byte	0x1
 8366 062d 56       		.byte	0x56
 8367 062e 3C000000 		.4byte	.LVL109
 8368 0632 48000000 		.4byte	.LFE55
 8369 0636 0400     		.2byte	0x4
 8370 0638 F3       		.byte	0xf3
 8371 0639 01       		.uleb128 0x1
 8372 063a 50       		.byte	0x50
 8373 063b 9F       		.byte	0x9f
 8374 063c 00000000 		.4byte	0
 8375 0640 00000000 		.4byte	0
 8376              	.LLST37:
 8377 0644 00000000 		.4byte	.LVL97
 8378 0648 0D000000 		.4byte	.LVL98-1
 8379 064c 0100     		.2byte	0x1
 8380 064e 51       		.byte	0x51
 8381 064f 0D000000 		.4byte	.LVL98-1
 8382 0653 48000000 		.4byte	.LFE55
 8383 0657 0400     		.2byte	0x4
 8384 0659 F3       		.byte	0xf3
 8385 065a 01       		.uleb128 0x1
 8386 065b 51       		.byte	0x51
 8387 065c 9F       		.byte	0x9f
ARM GAS  C:\Users\pearlstl\AppData\Local\Temp\cccjDn63.s 			page 165


 8388 065d 00000000 		.4byte	0
 8389 0661 00000000 		.4byte	0
 8390              	.LLST38:
 8391 0665 00000000 		.4byte	.LVL97
 8392 0669 0D000000 		.4byte	.LVL98-1
 8393 066d 0100     		.2byte	0x1
 8394 066f 52       		.byte	0x52
 8395 0670 0D000000 		.4byte	.LVL98-1
 8396 0674 3C000000 		.4byte	.LVL109
 8397 0678 0100     		.2byte	0x1
 8398 067a 57       		.byte	0x57
 8399 067b 3C000000 		.4byte	.LVL109
 8400 067f 3F000000 		.4byte	.LVL110-1
 8401 0683 0100     		.2byte	0x1
 8402 0685 50       		.byte	0x50
 8403 0686 3F000000 		.4byte	.LVL110-1
 8404 068a 48000000 		.4byte	.LFE55
 8405 068e 0400     		.2byte	0x4
 8406 0690 F3       		.byte	0xf3
 8407 0691 01       		.uleb128 0x1
 8408 0692 52       		.byte	0x52
 8409 0693 9F       		.byte	0x9f
 8410 0694 00000000 		.4byte	0
 8411 0698 00000000 		.4byte	0
 8412              	.LLST39:
 8413 069c 12000000 		.4byte	.LVL99
 8414 06a0 14000000 		.4byte	.LVL100
 8415 06a4 0100     		.2byte	0x1
 8416 06a6 50       		.byte	0x50
 8417 06a7 18000000 		.4byte	.LVL101
 8418 06ab 1E000000 		.4byte	.LVL102
 8419 06af 0100     		.2byte	0x1
 8420 06b1 50       		.byte	0x50
 8421 06b2 34000000 		.4byte	.LVL107
 8422 06b6 36000000 		.4byte	.LVL108
 8423 06ba 0100     		.2byte	0x1
 8424 06bc 50       		.byte	0x50
 8425 06bd 00000000 		.4byte	0
 8426 06c1 00000000 		.4byte	0
 8427              	.LLST40:
 8428 06c5 24000000 		.4byte	.LVL104
 8429 06c9 2A000000 		.4byte	.LVL105
 8430 06cd 0100     		.2byte	0x1
 8431 06cf 50       		.byte	0x50
 8432 06d0 2A000000 		.4byte	.LVL105
 8433 06d4 34000000 		.4byte	.LVL107
 8434 06d8 0100     		.2byte	0x1
 8435 06da 56       		.byte	0x56
 8436 06db 00000000 		.4byte	0
 8437 06df 00000000 		.4byte	0
 8438              	.LLST41:
 8439 06e3 34000000 		.4byte	.LVL107
 8440 06e7 3C000000 		.4byte	.LVL109
 8441 06eb 0100     		.2byte	0x1
 8442 06ed 56       		.byte	0x56
 8443 06ee 3C000000 		.4byte	.LVL109
 8444 06f2 48000000 		.4byte	.LFE55
ARM GAS  C:\Users\pearlstl\AppData\Local\Temp\cccjDn63.s 			page 166


 8445 06f6 0400     		.2byte	0x4
 8446 06f8 F3       		.byte	0xf3
 8447 06f9 01       		.uleb128 0x1
 8448 06fa 50       		.byte	0x50
 8449 06fb 9F       		.byte	0x9f
 8450 06fc 00000000 		.4byte	0
 8451 0700 00000000 		.4byte	0
 8452              	.LLST42:
 8453 0704 34000000 		.4byte	.LVL107
 8454 0708 3C000000 		.4byte	.LVL109
 8455 070c 0100     		.2byte	0x1
 8456 070e 57       		.byte	0x57
 8457 070f 3C000000 		.4byte	.LVL109
 8458 0713 3F000000 		.4byte	.LVL110-1
 8459 0717 0100     		.2byte	0x1
 8460 0719 50       		.byte	0x50
 8461 071a 3F000000 		.4byte	.LVL110-1
 8462 071e 48000000 		.4byte	.LFE55
 8463 0722 0400     		.2byte	0x4
 8464 0724 F3       		.byte	0xf3
 8465 0725 01       		.uleb128 0x1
 8466 0726 52       		.byte	0x52
 8467 0727 9F       		.byte	0x9f
 8468 0728 00000000 		.4byte	0
 8469 072c 00000000 		.4byte	0
 8470              	.LLST43:
 8471 0730 00000000 		.4byte	.LVL111
 8472 0734 09000000 		.4byte	.LVL112-1
 8473 0738 0100     		.2byte	0x1
 8474 073a 50       		.byte	0x50
 8475 073b 09000000 		.4byte	.LVL112-1
 8476 073f A0010000 		.4byte	.LFE47
 8477 0743 0400     		.2byte	0x4
 8478 0745 F3       		.byte	0xf3
 8479 0746 01       		.uleb128 0x1
 8480 0747 50       		.byte	0x50
 8481 0748 9F       		.byte	0x9f
 8482 0749 00000000 		.4byte	0
 8483 074d 00000000 		.4byte	0
 8484              	.LLST44:
 8485 0751 00000000 		.4byte	.LVL111
 8486 0755 09000000 		.4byte	.LVL112-1
 8487 0759 0100     		.2byte	0x1
 8488 075b 51       		.byte	0x51
 8489 075c 09000000 		.4byte	.LVL112-1
 8490 0760 60000000 		.4byte	.LVL120
 8491 0764 0100     		.2byte	0x1
 8492 0766 57       		.byte	0x57
 8493 0767 60000000 		.4byte	.LVL120
 8494 076b E6000000 		.4byte	.LVL140
 8495 076f 0400     		.2byte	0x4
 8496 0771 F3       		.byte	0xf3
 8497 0772 01       		.uleb128 0x1
 8498 0773 51       		.byte	0x51
 8499 0774 9F       		.byte	0x9f
 8500 0775 E6000000 		.4byte	.LVL140
 8501 0779 90010000 		.4byte	.LVL169
ARM GAS  C:\Users\pearlstl\AppData\Local\Temp\cccjDn63.s 			page 167


 8502 077d 0100     		.2byte	0x1
 8503 077f 57       		.byte	0x57
 8504 0780 90010000 		.4byte	.LVL169
 8505 0784 A0010000 		.4byte	.LFE47
 8506 0788 0400     		.2byte	0x4
 8507 078a F3       		.byte	0xf3
 8508 078b 01       		.uleb128 0x1
 8509 078c 51       		.byte	0x51
 8510 078d 9F       		.byte	0x9f
 8511 078e 00000000 		.4byte	0
 8512 0792 00000000 		.4byte	0
 8513              	.LLST45:
 8514 0796 0A000000 		.4byte	.LVL112
 8515 079a 17000000 		.4byte	.LVL113-1
 8516 079e 0100     		.2byte	0x1
 8517 07a0 50       		.byte	0x50
 8518 07a1 17000000 		.4byte	.LVL113-1
 8519 07a5 68010000 		.4byte	.LVL161
 8520 07a9 0100     		.2byte	0x1
 8521 07ab 54       		.byte	0x54
 8522 07ac 6E010000 		.4byte	.LVL162
 8523 07b0 90010000 		.4byte	.LVL169
 8524 07b4 0100     		.2byte	0x1
 8525 07b6 54       		.byte	0x54
 8526 07b7 90010000 		.4byte	.LVL169
 8527 07bb A0010000 		.4byte	.LFE47
 8528 07bf 0100     		.2byte	0x1
 8529 07c1 50       		.byte	0x50
 8530 07c2 00000000 		.4byte	0
 8531 07c6 00000000 		.4byte	0
 8532              	.LLST46:
 8533 07ca 18000000 		.4byte	.LVL113
 8534 07ce 36000000 		.4byte	.LVL114
 8535 07d2 0100     		.2byte	0x1
 8536 07d4 50       		.byte	0x50
 8537 07d5 36000000 		.4byte	.LVL114
 8538 07d9 68010000 		.4byte	.LVL161
 8539 07dd 0100     		.2byte	0x1
 8540 07df 56       		.byte	0x56
 8541 07e0 6E010000 		.4byte	.LVL162
 8542 07e4 70010000 		.4byte	.LVL163
 8543 07e8 0100     		.2byte	0x1
 8544 07ea 50       		.byte	0x50
 8545 07eb 70010000 		.4byte	.LVL163
 8546 07ef 90010000 		.4byte	.LVL169
 8547 07f3 0100     		.2byte	0x1
 8548 07f5 56       		.byte	0x56
 8549 07f6 00000000 		.4byte	0
 8550 07fa 00000000 		.4byte	0
 8551              	.LLST47:
 8552 07fe 5C000000 		.4byte	.LVL118
 8553 0802 5E000000 		.4byte	.LVL119
 8554 0806 0100     		.2byte	0x1
 8555 0808 50       		.byte	0x50
 8556 0809 5E000000 		.4byte	.LVL119
 8557 080d E6000000 		.4byte	.LVL140
 8558 0811 0100     		.2byte	0x1
ARM GAS  C:\Users\pearlstl\AppData\Local\Temp\cccjDn63.s 			page 168


 8559 0813 55       		.byte	0x55
 8560 0814 00000000 		.4byte	0
 8561 0818 00000000 		.4byte	0
 8562              	.LLST48:
 8563 081c B8000000 		.4byte	.LVL133
 8564 0820 C2000000 		.4byte	.LVL135
 8565 0824 0200     		.2byte	0x2
 8566 0826 30       		.byte	0x30
 8567 0827 9F       		.byte	0x9f
 8568 0828 C2000000 		.4byte	.LVL135
 8569 082c C6000000 		.4byte	.LVL136
 8570 0830 0100     		.2byte	0x1
 8571 0832 53       		.byte	0x53
 8572 0833 D2000000 		.4byte	.LVL137
 8573 0837 D6000000 		.4byte	.LVL138
 8574 083b 0100     		.2byte	0x1
 8575 083d 53       		.byte	0x53
 8576 083e 00000000 		.4byte	0
 8577 0842 00000000 		.4byte	0
 8578              	.LLST49:
 8579 0846 64000000 		.4byte	.LVL121
 8580 084a E6000000 		.4byte	.LVL140
 8581 084e 0100     		.2byte	0x1
 8582 0850 58       		.byte	0x58
 8583 0851 00000000 		.4byte	0
 8584 0855 00000000 		.4byte	0
 8585              	.LLST50:
 8586 0859 64000000 		.4byte	.LVL121
 8587 085d BE000000 		.4byte	.LVL134
 8588 0861 0100     		.2byte	0x1
 8589 0863 57       		.byte	0x57
 8590 0864 00000000 		.4byte	0
 8591 0868 00000000 		.4byte	0
 8592              	.LLST51:
 8593 086c 64000000 		.4byte	.LVL121
 8594 0870 E6000000 		.4byte	.LVL140
 8595 0874 0100     		.2byte	0x1
 8596 0876 54       		.byte	0x54
 8597 0877 00000000 		.4byte	0
 8598 087b 00000000 		.4byte	0
 8599              	.LLST52:
 8600 087f 6E000000 		.4byte	.LVL123
 8601 0883 72000000 		.4byte	.LVL124
 8602 0887 0100     		.2byte	0x1
 8603 0889 50       		.byte	0x50
 8604 088a 72000000 		.4byte	.LVL124
 8605 088e E6000000 		.4byte	.LVL140
 8606 0892 0100     		.2byte	0x1
 8607 0894 59       		.byte	0x59
 8608 0895 00000000 		.4byte	0
 8609 0899 00000000 		.4byte	0
 8610              	.LLST53:
 8611 089d 96000000 		.4byte	.LVL129
 8612 08a1 A4000000 		.4byte	.LVL130
 8613 08a5 0100     		.2byte	0x1
 8614 08a7 53       		.byte	0x53
 8615 08a8 A6000000 		.4byte	.LVL131
ARM GAS  C:\Users\pearlstl\AppData\Local\Temp\cccjDn63.s 			page 169


 8616 08ac AE000000 		.4byte	.LVL132
 8617 08b0 0100     		.2byte	0x1
 8618 08b2 53       		.byte	0x53
 8619 08b3 00000000 		.4byte	0
 8620 08b7 00000000 		.4byte	0
 8621              	.LLST54:
 8622 08bb 8C000000 		.4byte	.LVL127
 8623 08bf 92000000 		.4byte	.LVL128
 8624 08c3 0100     		.2byte	0x1
 8625 08c5 54       		.byte	0x54
 8626 08c6 00000000 		.4byte	0
 8627 08ca 00000000 		.4byte	0
 8628              	.LLST55:
 8629 08ce 58010000 		.4byte	.LVL157
 8630 08d2 5E010000 		.4byte	.LVL159
 8631 08d6 0100     		.2byte	0x1
 8632 08d8 50       		.byte	0x50
 8633 08d9 82010000 		.4byte	.LVL166
 8634 08dd 84010000 		.4byte	.LVL167
 8635 08e1 0100     		.2byte	0x1
 8636 08e3 50       		.byte	0x50
 8637 08e4 00000000 		.4byte	0
 8638 08e8 00000000 		.4byte	0
 8639              	.LLST56:
 8640 08ec E6000000 		.4byte	.LVL140
 8641 08f0 00010000 		.4byte	.LVL144
 8642 08f4 0200     		.2byte	0x2
 8643 08f6 36       		.byte	0x36
 8644 08f7 9F       		.byte	0x9f
 8645 08f8 00000000 		.4byte	0
 8646 08fc 00000000 		.4byte	0
 8647              	.LLST57:
 8648 0900 E6000000 		.4byte	.LVL140
 8649 0904 00010000 		.4byte	.LVL144
 8650 0908 0200     		.2byte	0x2
 8651 090a 45       		.byte	0x45
 8652 090b 9F       		.byte	0x9f
 8653 090c 00000000 		.4byte	0
 8654 0910 00000000 		.4byte	0
 8655              	.LLST58:
 8656 0914 E6000000 		.4byte	.LVL140
 8657 0918 00010000 		.4byte	.LVL144
 8658 091c 0300     		.2byte	0x3
 8659 091e 08       		.byte	0x8
 8660 091f DC       		.byte	0xdc
 8661 0920 9F       		.byte	0x9f
 8662 0921 00000000 		.4byte	0
 8663 0925 00000000 		.4byte	0
 8664              	.LLST59:
 8665 0929 E6000000 		.4byte	.LVL140
 8666 092d 00010000 		.4byte	.LVL144
 8667 0931 0100     		.2byte	0x1
 8668 0933 54       		.byte	0x54
 8669 0934 00000000 		.4byte	0
 8670 0938 00000000 		.4byte	0
 8671              	.LLST60:
 8672 093c F6000000 		.4byte	.LVL142
ARM GAS  C:\Users\pearlstl\AppData\Local\Temp\cccjDn63.s 			page 170


 8673 0940 FC000000 		.4byte	.LVL143
 8674 0944 0100     		.2byte	0x1
 8675 0946 50       		.byte	0x50
 8676 0947 00000000 		.4byte	0
 8677 094b 00000000 		.4byte	0
 8678              	.LLST61:
 8679 094f 00010000 		.4byte	.LVL144
 8680 0953 40010000 		.4byte	.LVL154
 8681 0957 0200     		.2byte	0x2
 8682 0959 30       		.byte	0x30
 8683 095a 9F       		.byte	0x9f
 8684 095b 00000000 		.4byte	0
 8685 095f 00000000 		.4byte	0
 8686              	.LLST62:
 8687 0963 00010000 		.4byte	.LVL144
 8688 0967 40010000 		.4byte	.LVL154
 8689 096b 0200     		.2byte	0x2
 8690 096d 31       		.byte	0x31
 8691 096e 9F       		.byte	0x9f
 8692 096f 00000000 		.4byte	0
 8693 0973 00000000 		.4byte	0
 8694              	.LLST63:
 8695 0977 00010000 		.4byte	.LVL144
 8696 097b 40010000 		.4byte	.LVL154
 8697 097f 0100     		.2byte	0x1
 8698 0981 54       		.byte	0x54
 8699 0982 00000000 		.4byte	0
 8700 0986 00000000 		.4byte	0
 8701              	.LLST64:
 8702 098a 0C010000 		.4byte	.LVL146
 8703 098e 10010000 		.4byte	.LVL147
 8704 0992 0100     		.2byte	0x1
 8705 0994 50       		.byte	0x50
 8706 0995 10010000 		.4byte	.LVL147
 8707 0999 40010000 		.4byte	.LVL154
 8708 099d 0100     		.2byte	0x1
 8709 099f 55       		.byte	0x55
 8710 09a0 00000000 		.4byte	0
 8711 09a4 00000000 		.4byte	0
 8712              	.LLST65:
 8713 09a8 2A010000 		.4byte	.LVL151
 8714 09ac 2E010000 		.4byte	.LVL152
 8715 09b0 0200     		.2byte	0x2
 8716 09b2 75       		.byte	0x75
 8717 09b3 14       		.sleb128 20
 8718 09b4 2E010000 		.4byte	.LVL152
 8719 09b8 32010000 		.4byte	.LVL153
 8720 09bc 0200     		.2byte	0x2
 8721 09be 30       		.byte	0x30
 8722 09bf 9F       		.byte	0x9f
 8723 09c0 00000000 		.4byte	0
 8724 09c4 00000000 		.4byte	0
 8725              	.LLST66:
 8726 09c8 24010000 		.4byte	.LVL150
 8727 09cc 2A010000 		.4byte	.LVL151
 8728 09d0 0100     		.2byte	0x1
 8729 09d2 54       		.byte	0x54
ARM GAS  C:\Users\pearlstl\AppData\Local\Temp\cccjDn63.s 			page 171


 8730 09d3 00000000 		.4byte	0
 8731 09d7 00000000 		.4byte	0
 8732              	.LLST67:
 8733 09db 40010000 		.4byte	.LVL154
 8734 09df 48010000 		.4byte	.LVL155
 8735 09e3 0300     		.2byte	0x3
 8736 09e5 08       		.byte	0x8
 8737 09e6 50       		.byte	0x50
 8738 09e7 9F       		.byte	0x9f
 8739 09e8 00000000 		.4byte	0
 8740 09ec 00000000 		.4byte	0
 8741              	.LLST68:
 8742 09f0 40010000 		.4byte	.LVL154
 8743 09f4 48010000 		.4byte	.LVL155
 8744 09f8 0100     		.2byte	0x1
 8745 09fa 54       		.byte	0x54
 8746 09fb 00000000 		.4byte	0
 8747 09ff 00000000 		.4byte	0
 8748              	.LLST69:
 8749 0a03 5A010000 		.4byte	.LVL158
 8750 0a07 68010000 		.4byte	.LVL161
 8751 0a0b 0200     		.2byte	0x2
 8752 0a0d 30       		.byte	0x30
 8753 0a0e 9F       		.byte	0x9f
 8754 0a0f 00000000 		.4byte	0
 8755 0a13 00000000 		.4byte	0
 8756              	.LLST70:
 8757 0a17 5A010000 		.4byte	.LVL158
 8758 0a1b 5E010000 		.4byte	.LVL159
 8759 0a1f 0300     		.2byte	0x3
 8760 0a21 70       		.byte	0x70
 8761 0a22 EC00     		.sleb128 108
 8762 0a24 5E010000 		.4byte	.LVL159
 8763 0a28 61010000 		.4byte	.LVL160-1
 8764 0a2c 0100     		.2byte	0x1
 8765 0a2e 51       		.byte	0x51
 8766 0a2f 00000000 		.4byte	0
 8767 0a33 00000000 		.4byte	0
 8768              	.LLST71:
 8769 0a37 5A010000 		.4byte	.LVL158
 8770 0a3b 68010000 		.4byte	.LVL161
 8771 0a3f 0100     		.2byte	0x1
 8772 0a41 54       		.byte	0x54
 8773 0a42 00000000 		.4byte	0
 8774 0a46 00000000 		.4byte	0
 8775              	.LLST72:
 8776 0a4a 82010000 		.4byte	.LVL166
 8777 0a4e 90010000 		.4byte	.LVL169
 8778 0a52 0100     		.2byte	0x1
 8779 0a54 54       		.byte	0x54
 8780 0a55 90010000 		.4byte	.LVL169
 8781 0a59 A0010000 		.4byte	.LFE47
 8782 0a5d 0100     		.2byte	0x1
 8783 0a5f 50       		.byte	0x50
 8784 0a60 00000000 		.4byte	0
 8785 0a64 00000000 		.4byte	0
 8786              	.LLST73:
ARM GAS  C:\Users\pearlstl\AppData\Local\Temp\cccjDn63.s 			page 172


 8787 0a68 00000000 		.4byte	.LVL170
 8788 0a6c 0B000000 		.4byte	.LVL171-1
 8789 0a70 0100     		.2byte	0x1
 8790 0a72 50       		.byte	0x50
 8791 0a73 0B000000 		.4byte	.LVL171-1
 8792 0a77 50000000 		.4byte	.LVL182
 8793 0a7b 0100     		.2byte	0x1
 8794 0a7d 56       		.byte	0x56
 8795 0a7e 50000000 		.4byte	.LVL182
 8796 0a82 53000000 		.4byte	.LVL183-1
 8797 0a86 0100     		.2byte	0x1
 8798 0a88 50       		.byte	0x50
 8799 0a89 53000000 		.4byte	.LVL183-1
 8800 0a8d 54000000 		.4byte	.LVL183
 8801 0a91 0400     		.2byte	0x4
 8802 0a93 F3       		.byte	0xf3
 8803 0a94 01       		.uleb128 0x1
 8804 0a95 50       		.byte	0x50
 8805 0a96 9F       		.byte	0x9f
 8806 0a97 54000000 		.4byte	.LVL183
 8807 0a9b 56000000 		.4byte	.LFE48
 8808 0a9f 0100     		.2byte	0x1
 8809 0aa1 56       		.byte	0x56
 8810 0aa2 00000000 		.4byte	0
 8811 0aa6 00000000 		.4byte	0
 8812              	.LLST74:
 8813 0aaa 00000000 		.4byte	.LVL170
 8814 0aae 0B000000 		.4byte	.LVL171-1
 8815 0ab2 0100     		.2byte	0x1
 8816 0ab4 51       		.byte	0x51
 8817 0ab5 0B000000 		.4byte	.LVL171-1
 8818 0ab9 56000000 		.4byte	.LFE48
 8819 0abd 0400     		.2byte	0x4
 8820 0abf F3       		.byte	0xf3
 8821 0ac0 01       		.uleb128 0x1
 8822 0ac1 51       		.byte	0x51
 8823 0ac2 9F       		.byte	0x9f
 8824 0ac3 00000000 		.4byte	0
 8825 0ac7 00000000 		.4byte	0
 8826              	.LLST75:
 8827 0acb 00000000 		.4byte	.LVL170
 8828 0acf 0B000000 		.4byte	.LVL171-1
 8829 0ad3 0100     		.2byte	0x1
 8830 0ad5 52       		.byte	0x52
 8831 0ad6 0B000000 		.4byte	.LVL171-1
 8832 0ada 50000000 		.4byte	.LVL182
 8833 0ade 0100     		.2byte	0x1
 8834 0ae0 57       		.byte	0x57
 8835 0ae1 50000000 		.4byte	.LVL182
 8836 0ae5 54000000 		.4byte	.LVL183
 8837 0ae9 0400     		.2byte	0x4
 8838 0aeb F3       		.byte	0xf3
 8839 0aec 01       		.uleb128 0x1
 8840 0aed 52       		.byte	0x52
 8841 0aee 9F       		.byte	0x9f
 8842 0aef 54000000 		.4byte	.LVL183
 8843 0af3 56000000 		.4byte	.LFE48
ARM GAS  C:\Users\pearlstl\AppData\Local\Temp\cccjDn63.s 			page 173


 8844 0af7 0100     		.2byte	0x1
 8845 0af9 57       		.byte	0x57
 8846 0afa 00000000 		.4byte	0
 8847 0afe 00000000 		.4byte	0
 8848              	.LLST76:
 8849 0b02 12000000 		.4byte	.LVL172
 8850 0b06 16000000 		.4byte	.LVL173
 8851 0b0a 0100     		.2byte	0x1
 8852 0b0c 50       		.byte	0x50
 8853 0b0d 16000000 		.4byte	.LVL173
 8854 0b11 50000000 		.4byte	.LVL182
 8855 0b15 0100     		.2byte	0x1
 8856 0b17 55       		.byte	0x55
 8857 0b18 54000000 		.4byte	.LVL183
 8858 0b1c 56000000 		.4byte	.LFE48
 8859 0b20 0100     		.2byte	0x1
 8860 0b22 55       		.byte	0x55
 8861 0b23 00000000 		.4byte	0
 8862 0b27 00000000 		.4byte	0
 8863              	.LLST77:
 8864 0b2b 34000000 		.4byte	.LVL178
 8865 0b2f 40000000 		.4byte	.LVL179
 8866 0b33 0100     		.2byte	0x1
 8867 0b35 53       		.byte	0x53
 8868 0b36 42000000 		.4byte	.LVL180
 8869 0b3a 48000000 		.4byte	.LVL181
 8870 0b3e 0100     		.2byte	0x1
 8871 0b40 53       		.byte	0x53
 8872 0b41 00000000 		.4byte	0
 8873 0b45 00000000 		.4byte	0
 8874              	.LLST78:
 8875 0b49 2C000000 		.4byte	.LVL176
 8876 0b4d 32000000 		.4byte	.LVL177
 8877 0b51 0100     		.2byte	0x1
 8878 0b53 56       		.byte	0x56
 8879 0b54 00000000 		.4byte	0
 8880 0b58 00000000 		.4byte	0
 8881              	.LLST79:
 8882 0b5c 00000000 		.4byte	.LVL184
 8883 0b60 0D000000 		.4byte	.LVL185-1
 8884 0b64 0100     		.2byte	0x1
 8885 0b66 50       		.byte	0x50
 8886 0b67 0D000000 		.4byte	.LVL185-1
 8887 0b6b 42000000 		.4byte	.LVL193
 8888 0b6f 0100     		.2byte	0x1
 8889 0b71 57       		.byte	0x57
 8890 0b72 42000000 		.4byte	.LVL193
 8891 0b76 45000000 		.4byte	.LVL194-1
 8892 0b7a 0100     		.2byte	0x1
 8893 0b7c 50       		.byte	0x50
 8894 0b7d 45000000 		.4byte	.LVL194-1
 8895 0b81 46000000 		.4byte	.LVL194
 8896 0b85 0400     		.2byte	0x4
 8897 0b87 F3       		.byte	0xf3
 8898 0b88 01       		.uleb128 0x1
 8899 0b89 50       		.byte	0x50
 8900 0b8a 9F       		.byte	0x9f
ARM GAS  C:\Users\pearlstl\AppData\Local\Temp\cccjDn63.s 			page 174


 8901 0b8b 46000000 		.4byte	.LVL194
 8902 0b8f 54000000 		.4byte	.LFE49
 8903 0b93 0100     		.2byte	0x1
 8904 0b95 57       		.byte	0x57
 8905 0b96 00000000 		.4byte	0
 8906 0b9a 00000000 		.4byte	0
 8907              	.LLST80:
 8908 0b9e 00000000 		.4byte	.LVL184
 8909 0ba2 0D000000 		.4byte	.LVL185-1
 8910 0ba6 0100     		.2byte	0x1
 8911 0ba8 51       		.byte	0x51
 8912 0ba9 0D000000 		.4byte	.LVL185-1
 8913 0bad 54000000 		.4byte	.LFE49
 8914 0bb1 0400     		.2byte	0x4
 8915 0bb3 F3       		.byte	0xf3
 8916 0bb4 01       		.uleb128 0x1
 8917 0bb5 51       		.byte	0x51
 8918 0bb6 9F       		.byte	0x9f
 8919 0bb7 00000000 		.4byte	0
 8920 0bbb 00000000 		.4byte	0
 8921              	.LLST81:
 8922 0bbf 00000000 		.4byte	.LVL184
 8923 0bc3 0D000000 		.4byte	.LVL185-1
 8924 0bc7 0100     		.2byte	0x1
 8925 0bc9 52       		.byte	0x52
 8926 0bca 0D000000 		.4byte	.LVL185-1
 8927 0bce 36000000 		.4byte	.LVL192
 8928 0bd2 0400     		.2byte	0x4
 8929 0bd4 F3       		.byte	0xf3
 8930 0bd5 01       		.uleb128 0x1
 8931 0bd6 52       		.byte	0x52
 8932 0bd7 9F       		.byte	0x9f
 8933 0bd8 36000000 		.4byte	.LVL192
 8934 0bdc 45000000 		.4byte	.LVL194-1
 8935 0be0 0100     		.2byte	0x1
 8936 0be2 53       		.byte	0x53
 8937 0be3 46000000 		.4byte	.LVL194
 8938 0be7 54000000 		.4byte	.LFE49
 8939 0beb 0400     		.2byte	0x4
 8940 0bed F3       		.byte	0xf3
 8941 0bee 01       		.uleb128 0x1
 8942 0bef 52       		.byte	0x52
 8943 0bf0 9F       		.byte	0x9f
 8944 0bf1 00000000 		.4byte	0
 8945 0bf5 00000000 		.4byte	0
 8946              	.LLST82:
 8947 0bf9 0E000000 		.4byte	.LVL185
 8948 0bfd 24000000 		.4byte	.LVL187
 8949 0c01 0100     		.2byte	0x1
 8950 0c03 50       		.byte	0x50
 8951 0c04 24000000 		.4byte	.LVL187
 8952 0c08 42000000 		.4byte	.LVL193
 8953 0c0c 0100     		.2byte	0x1
 8954 0c0e 55       		.byte	0x55
 8955 0c0f 46000000 		.4byte	.LVL194
 8956 0c13 4A000000 		.4byte	.LVL195
 8957 0c17 0100     		.2byte	0x1
ARM GAS  C:\Users\pearlstl\AppData\Local\Temp\cccjDn63.s 			page 175


 8958 0c19 50       		.byte	0x50
 8959 0c1a 4A000000 		.4byte	.LVL195
 8960 0c1e 54000000 		.4byte	.LFE49
 8961 0c22 0100     		.2byte	0x1
 8962 0c24 55       		.byte	0x55
 8963 0c25 00000000 		.4byte	0
 8964 0c29 00000000 		.4byte	0
 8965              	.LLST83:
 8966 0c2d 22000000 		.4byte	.LVL186
 8967 0c31 2A000000 		.4byte	.LVL189
 8968 0c35 0100     		.2byte	0x1
 8969 0c37 57       		.byte	0x57
 8970 0c38 00000000 		.4byte	0
 8971 0c3c 00000000 		.4byte	0
 8972              	.LLST84:
 8973 0c40 2A000000 		.4byte	.LVL189
 8974 0c44 34000000 		.4byte	.LVL191
 8975 0c48 0100     		.2byte	0x1
 8976 0c4a 57       		.byte	0x57
 8977 0c4b 00000000 		.4byte	0
 8978 0c4f 00000000 		.4byte	0
 8979              	.LLST85:
 8980 0c53 00000000 		.4byte	.LVL196
 8981 0c57 09000000 		.4byte	.LVL197-1
 8982 0c5b 0100     		.2byte	0x1
 8983 0c5d 50       		.byte	0x50
 8984 0c5e 09000000 		.4byte	.LVL197-1
 8985 0c62 18000000 		.4byte	.LVL200
 8986 0c66 0100     		.2byte	0x1
 8987 0c68 54       		.byte	0x54
 8988 0c69 18000000 		.4byte	.LVL200
 8989 0c6d 1B000000 		.4byte	.LVL201-1
 8990 0c71 0100     		.2byte	0x1
 8991 0c73 50       		.byte	0x50
 8992 0c74 1B000000 		.4byte	.LVL201-1
 8993 0c78 1C000000 		.4byte	.LFE50
 8994 0c7c 0400     		.2byte	0x4
 8995 0c7e F3       		.byte	0xf3
 8996 0c7f 01       		.uleb128 0x1
 8997 0c80 50       		.byte	0x50
 8998 0c81 9F       		.byte	0x9f
 8999 0c82 00000000 		.4byte	0
 9000 0c86 00000000 		.4byte	0
 9001              	.LLST86:
 9002 0c8a 00000000 		.4byte	.LVL196
 9003 0c8e 09000000 		.4byte	.LVL197-1
 9004 0c92 0100     		.2byte	0x1
 9005 0c94 51       		.byte	0x51
 9006 0c95 09000000 		.4byte	.LVL197-1
 9007 0c99 1C000000 		.4byte	.LFE50
 9008 0c9d 0400     		.2byte	0x4
 9009 0c9f F3       		.byte	0xf3
 9010 0ca0 01       		.uleb128 0x1
 9011 0ca1 51       		.byte	0x51
 9012 0ca2 9F       		.byte	0x9f
 9013 0ca3 00000000 		.4byte	0
 9014 0ca7 00000000 		.4byte	0
ARM GAS  C:\Users\pearlstl\AppData\Local\Temp\cccjDn63.s 			page 176


 9015              	.LLST87:
 9016 0cab 00000000 		.4byte	.LVL196
 9017 0caf 09000000 		.4byte	.LVL197-1
 9018 0cb3 0100     		.2byte	0x1
 9019 0cb5 52       		.byte	0x52
 9020 0cb6 09000000 		.4byte	.LVL197-1
 9021 0cba 1C000000 		.4byte	.LFE50
 9022 0cbe 0400     		.2byte	0x4
 9023 0cc0 F3       		.byte	0xf3
 9024 0cc1 01       		.uleb128 0x1
 9025 0cc2 52       		.byte	0x52
 9026 0cc3 9F       		.byte	0x9f
 9027 0cc4 00000000 		.4byte	0
 9028 0cc8 00000000 		.4byte	0
 9029              	.LLST88:
 9030 0ccc 00000000 		.4byte	.LVL196
 9031 0cd0 09000000 		.4byte	.LVL197-1
 9032 0cd4 0100     		.2byte	0x1
 9033 0cd6 53       		.byte	0x53
 9034 0cd7 09000000 		.4byte	.LVL197-1
 9035 0cdb 1C000000 		.4byte	.LFE50
 9036 0cdf 0400     		.2byte	0x4
 9037 0ce1 F3       		.byte	0xf3
 9038 0ce2 01       		.uleb128 0x1
 9039 0ce3 53       		.byte	0x53
 9040 0ce4 9F       		.byte	0x9f
 9041 0ce5 00000000 		.4byte	0
 9042 0ce9 00000000 		.4byte	0
 9043              	.LLST89:
 9044 0ced 10000000 		.4byte	.LVL198
 9045 0cf1 14000000 		.4byte	.LVL199
 9046 0cf5 0100     		.2byte	0x1
 9047 0cf7 50       		.byte	0x50
 9048 0cf8 00000000 		.4byte	0
 9049 0cfc 00000000 		.4byte	0
 9050              	.LLST90:
 9051 0d00 00000000 		.4byte	.LVL202
 9052 0d04 09000000 		.4byte	.LVL203-1
 9053 0d08 0100     		.2byte	0x1
 9054 0d0a 50       		.byte	0x50
 9055 0d0b 09000000 		.4byte	.LVL203-1
 9056 0d0f 20000000 		.4byte	.LFE51
 9057 0d13 0100     		.2byte	0x1
 9058 0d15 56       		.byte	0x56
 9059 0d16 00000000 		.4byte	0
 9060 0d1a 00000000 		.4byte	0
 9061              	.LLST91:
 9062 0d1e 00000000 		.4byte	.LVL202
 9063 0d22 09000000 		.4byte	.LVL203-1
 9064 0d26 0100     		.2byte	0x1
 9065 0d28 51       		.byte	0x51
 9066 0d29 09000000 		.4byte	.LVL203-1
 9067 0d2d 20000000 		.4byte	.LFE51
 9068 0d31 0400     		.2byte	0x4
 9069 0d33 F3       		.byte	0xf3
 9070 0d34 01       		.uleb128 0x1
 9071 0d35 51       		.byte	0x51
ARM GAS  C:\Users\pearlstl\AppData\Local\Temp\cccjDn63.s 			page 177


 9072 0d36 9F       		.byte	0x9f
 9073 0d37 00000000 		.4byte	0
 9074 0d3b 00000000 		.4byte	0
 9075              	.LLST92:
 9076 0d3f 0C000000 		.4byte	.LVL204
 9077 0d43 0E000000 		.4byte	.LVL205
 9078 0d47 0100     		.2byte	0x1
 9079 0d49 50       		.byte	0x50
 9080 0d4a 0E000000 		.4byte	.LVL205
 9081 0d4e 20000000 		.4byte	.LFE51
 9082 0d52 0100     		.2byte	0x1
 9083 0d54 55       		.byte	0x55
 9084 0d55 00000000 		.4byte	0
 9085 0d59 00000000 		.4byte	0
 9086              	.LLST93:
 9087 0d5d 0C000000 		.4byte	.LVL204
 9088 0d61 12000000 		.4byte	.LVL206
 9089 0d65 0100     		.2byte	0x1
 9090 0d67 56       		.byte	0x56
 9091 0d68 00000000 		.4byte	0
 9092 0d6c 00000000 		.4byte	0
 9093              	.LLST94:
 9094 0d70 00000000 		.4byte	.LVL207
 9095 0d74 05000000 		.4byte	.LVL208-1
 9096 0d78 0100     		.2byte	0x1
 9097 0d7a 50       		.byte	0x50
 9098 0d7b 05000000 		.4byte	.LVL208-1
 9099 0d7f 0A000000 		.4byte	.LFE52
 9100 0d83 0400     		.2byte	0x4
 9101 0d85 F3       		.byte	0xf3
 9102 0d86 01       		.uleb128 0x1
 9103 0d87 50       		.byte	0x50
 9104 0d88 9F       		.byte	0x9f
 9105 0d89 00000000 		.4byte	0
 9106 0d8d 00000000 		.4byte	0
 9107              	.LLST95:
 9108 0d91 06000000 		.4byte	.LVL208
 9109 0d95 08000000 		.4byte	.LVL209
 9110 0d99 0100     		.2byte	0x1
 9111 0d9b 50       		.byte	0x50
 9112 0d9c 00000000 		.4byte	0
 9113 0da0 00000000 		.4byte	0
 9114              	.LLST96:
 9115 0da4 00000000 		.4byte	.LVL210
 9116 0da8 05000000 		.4byte	.LVL211-1
 9117 0dac 0100     		.2byte	0x1
 9118 0dae 50       		.byte	0x50
 9119 0daf 05000000 		.4byte	.LVL211-1
 9120 0db3 0A000000 		.4byte	.LFE53
 9121 0db7 0400     		.2byte	0x4
 9122 0db9 F3       		.byte	0xf3
 9123 0dba 01       		.uleb128 0x1
 9124 0dbb 50       		.byte	0x50
 9125 0dbc 9F       		.byte	0x9f
 9126 0dbd 00000000 		.4byte	0
 9127 0dc1 00000000 		.4byte	0
 9128              	.LLST97:
ARM GAS  C:\Users\pearlstl\AppData\Local\Temp\cccjDn63.s 			page 178


 9129 0dc5 06000000 		.4byte	.LVL211
 9130 0dc9 08000000 		.4byte	.LVL212
 9131 0dcd 0100     		.2byte	0x1
 9132 0dcf 50       		.byte	0x50
 9133 0dd0 00000000 		.4byte	0
 9134 0dd4 00000000 		.4byte	0
 9135              		.section	.debug_aranges,"",%progbits
 9136 0000 5C000000 		.4byte	0x5c
 9137 0004 0200     		.2byte	0x2
 9138 0006 00000000 		.4byte	.Ldebug_info0
 9139 000a 04       		.byte	0x4
 9140 000b 00       		.byte	0
 9141 000c 0000     		.2byte	0
 9142 000e 0000     		.2byte	0
 9143 0010 00000000 		.4byte	.LFB54
 9144 0014 80040000 		.4byte	.LFE54-.LFB54
 9145 0018 00000000 		.4byte	.LFB55
 9146 001c 48000000 		.4byte	.LFE55-.LFB55
 9147 0020 00000000 		.4byte	.LFB47
 9148 0024 A0010000 		.4byte	.LFE47-.LFB47
 9149 0028 00000000 		.4byte	.LFB48
 9150 002c 56000000 		.4byte	.LFE48-.LFB48
 9151 0030 00000000 		.4byte	.LFB49
 9152 0034 54000000 		.4byte	.LFE49-.LFB49
 9153 0038 00000000 		.4byte	.LFB50
 9154 003c 1C000000 		.4byte	.LFE50-.LFB50
 9155 0040 00000000 		.4byte	.LFB51
 9156 0044 20000000 		.4byte	.LFE51-.LFB51
 9157 0048 00000000 		.4byte	.LFB52
 9158 004c 0A000000 		.4byte	.LFE52-.LFB52
 9159 0050 00000000 		.4byte	.LFB53
 9160 0054 0A000000 		.4byte	.LFE53-.LFB53
 9161 0058 00000000 		.4byte	0
 9162 005c 00000000 		.4byte	0
 9163              		.section	.debug_ranges,"",%progbits
 9164              	.Ldebug_ranges0:
 9165 0000 B4000000 		.4byte	.LBB55
 9166 0004 B6000000 		.4byte	.LBE55
 9167 0008 BE000000 		.4byte	.LBB58
 9168 000c C4000000 		.4byte	.LBE58
 9169 0010 00000000 		.4byte	0
 9170 0014 00000000 		.4byte	0
 9171 0018 C4000000 		.4byte	.LBB59
 9172 001c C6000000 		.4byte	.LBE59
 9173 0020 CA000000 		.4byte	.LBB62
 9174 0024 CE000000 		.4byte	.LBE62
 9175 0028 00000000 		.4byte	0
 9176 002c 00000000 		.4byte	0
 9177 0030 22020000 		.4byte	.LBB64
 9178 0034 24020000 		.4byte	.LBE64
 9179 0038 28020000 		.4byte	.LBB82
 9180 003c 2C020000 		.4byte	.LBE82
 9181 0040 2E020000 		.4byte	.LBB83
 9182 0044 4E020000 		.4byte	.LBE83
 9183 0048 50020000 		.4byte	.LBB84
 9184 004c 4C040000 		.4byte	.LBE84
 9185 0050 00000000 		.4byte	0
ARM GAS  C:\Users\pearlstl\AppData\Local\Temp\cccjDn63.s 			page 179


 9186 0054 00000000 		.4byte	0
 9187 0058 96020000 		.4byte	.LBB68
 9188 005c 98020000 		.4byte	.LBE68
 9189 0060 9A020000 		.4byte	.LBB71
 9190 0064 A0020000 		.4byte	.LBE71
 9191 0068 00000000 		.4byte	0
 9192 006c 00000000 		.4byte	0
 9193 0070 A0020000 		.4byte	.LBB72
 9194 0074 A6020000 		.4byte	.LBE72
 9195 0078 A8020000 		.4byte	.LBB75
 9196 007c AA020000 		.4byte	.LBE75
 9197 0080 00000000 		.4byte	0
 9198 0084 00000000 		.4byte	0
 9199 0088 C8020000 		.4byte	.LBB76
 9200 008c D0020000 		.4byte	.LBE76
 9201 0090 D4020000 		.4byte	.LBB77
 9202 0094 EA020000 		.4byte	.LBE77
 9203 0098 F8020000 		.4byte	.LBB78
 9204 009c 00040000 		.4byte	.LBE78
 9205 00a0 00000000 		.4byte	0
 9206 00a4 00000000 		.4byte	0
 9207 00a8 34000000 		.4byte	.LBB87
 9208 00ac 38000000 		.4byte	.LBE87
 9209 00b0 3C000000 		.4byte	.LBB90
 9210 00b4 48000000 		.4byte	.LBE90
 9211 00b8 00000000 		.4byte	0
 9212 00bc 00000000 		.4byte	0
 9213 00c0 5C000000 		.4byte	.LBB112
 9214 00c4 5E000000 		.4byte	.LBE112
 9215 00c8 64000000 		.4byte	.LBB118
 9216 00cc B8000000 		.4byte	.LBE118
 9217 00d0 00000000 		.4byte	0
 9218 00d4 00000000 		.4byte	0
 9219 00d8 E6000000 		.4byte	.LBB119
 9220 00dc 68010000 		.4byte	.LBE119
 9221 00e0 82010000 		.4byte	.LBB133
 9222 00e4 A0010000 		.4byte	.LBE133
 9223 00e8 00000000 		.4byte	0
 9224 00ec 00000000 		.4byte	0
 9225 00f0 2A000000 		.4byte	.LBB139
 9226 00f4 30000000 		.4byte	.LBE139
 9227 00f8 32000000 		.4byte	.LBB142
 9228 00fc 34000000 		.4byte	.LBE142
 9229 0100 00000000 		.4byte	0
 9230 0104 00000000 		.4byte	0
 9231 0108 00000000 		.4byte	.LFB54
 9232 010c 80040000 		.4byte	.LFE54
 9233 0110 00000000 		.4byte	.LFB55
 9234 0114 48000000 		.4byte	.LFE55
 9235 0118 00000000 		.4byte	.LFB47
 9236 011c A0010000 		.4byte	.LFE47
 9237 0120 00000000 		.4byte	.LFB48
 9238 0124 56000000 		.4byte	.LFE48
 9239 0128 00000000 		.4byte	.LFB49
 9240 012c 54000000 		.4byte	.LFE49
 9241 0130 00000000 		.4byte	.LFB50
 9242 0134 1C000000 		.4byte	.LFE50
ARM GAS  C:\Users\pearlstl\AppData\Local\Temp\cccjDn63.s 			page 180


 9243 0138 00000000 		.4byte	.LFB51
 9244 013c 20000000 		.4byte	.LFE51
 9245 0140 00000000 		.4byte	.LFB52
 9246 0144 0A000000 		.4byte	.LFE52
 9247 0148 00000000 		.4byte	.LFB53
 9248 014c 0A000000 		.4byte	.LFE53
 9249 0150 00000000 		.4byte	0
 9250 0154 00000000 		.4byte	0
 9251              		.section	.debug_line,"",%progbits
 9252              	.Ldebug_line0:
 9253 0000 DF060000 		.section	.debug_str,"MS",%progbits,1
 9253      0200F303 
 9253      00000201 
 9253      FB0E0D00 
 9253      01010101 
 9254              	.LASF15:
 9255 0000 696E7438 		.ascii	"int8_t\000"
 9255      5F7400
 9256              	.LASF161:
 9257 0007 6E656564 		.ascii	"needle_count\000"
 9257      6C655F63 
 9257      6F756E74 
 9257      00
 9258              	.LASF147:
 9259 0014 616E676C 		.ascii	"angle_ofs\000"
 9259      655F6F66 
 9259      7300
 9260              	.LASF78:
 9261 001e 6C765F6C 		.ascii	"lv_ll_node_t\000"
 9261      6C5F6E6F 
 9261      64655F74 
 9261      00
 9262              	.LASF23:
 9263 002b 6164765F 		.ascii	"adv_w\000"
 9263      7700
 9264              	.LASF178:
 9265 0031 68656164 		.ascii	"header_pr\000"
 9265      65725F70 
 9265      7200
 9266              	.LASF42:
 9267 003b 73697A65 		.ascii	"sizetype\000"
 9267      74797065 
 9267      00
 9268              	.LASF39:
 9269 0044 6C765F63 		.ascii	"lv_color32_t\000"
 9269      6F6C6F72 
 9269      33325F74 
 9269      00
 9270              	.LASF188:
 9271 0051 63656C6C 		.ascii	"cell\000"
 9271      00
 9272              	.LASF81:
 9273 0056 7461696C 		.ascii	"tail\000"
 9273      00
 9274              	.LASF265:
 9275 005b 6C765F73 		.ascii	"lv_style_pretty_color\000"
 9275      74796C65 
ARM GAS  C:\Users\pearlstl\AppData\Local\Temp\cccjDn63.s 			page 181


 9275      5F707265 
 9275      7474795F 
 9275      636F6C6F 
 9276              	.LASF118:
 9277 0071 4C565F53 		.ascii	"LV_SIGNAL_STYLE_CHG\000"
 9277      49474E41 
 9277      4C5F5354 
 9277      594C455F 
 9277      43484700 
 9278              	.LASF283:
 9279 0085 6C765F6D 		.ascii	"lv_mem_free\000"
 9279      656D5F66 
 9279      72656500 
 9280              	.LASF41:
 9281 0091 6C765F6F 		.ascii	"lv_opa_t\000"
 9281      70615F74 
 9281      00
 9282              	.LASF19:
 9283 009a 696E7433 		.ascii	"int32_t\000"
 9283      325F7400 
 9284              	.LASF66:
 9285 00a2 696E7465 		.ascii	"intense\000"
 9285      6E736500 
 9286              	.LASF44:
 9287 00aa 6C765F70 		.ascii	"lv_point_t\000"
 9287      6F696E74 
 9287      5F7400
 9288              	.LASF158:
 9289 00b5 6C6D6574 		.ascii	"lmeter\000"
 9289      657200
 9290              	.LASF126:
 9291 00bc 4C565F53 		.ascii	"LV_SIGNAL_LONG_PRESS\000"
 9291      49474E41 
 9291      4C5F4C4F 
 9291      4E475F50 
 9291      52455353 
 9292              	.LASF58:
 9293 00d1 72616469 		.ascii	"radius\000"
 9293      757300
 9294              	.LASF143:
 9295 00d8 6C765F72 		.ascii	"lv_reailgn_t\000"
 9295      6561696C 
 9295      676E5F74 
 9295      00
 9296              	.LASF31:
 9297 00e5 6C696E65 		.ascii	"line_height\000"
 9297      5F686569 
 9297      67687400 
 9298              	.LASF93:
 9299 00f1 636C6963 		.ascii	"click\000"
 9299      6B00
 9300              	.LASF136:
 9301 00f7 6C765F61 		.ascii	"lv_align_t\000"
 9301      6C69676E 
 9301      5F7400
 9302              	.LASF301:
 9303 0102 6C765F67 		.ascii	"lv_gauge_set_value\000"
ARM GAS  C:\Users\pearlstl\AppData\Local\Temp\cccjDn63.s 			page 182


 9303      61756765 
 9303      5F736574 
 9303      5F76616C 
 9303      756500
 9304              	.LASF128:
 9305 0115 4C565F53 		.ascii	"LV_SIGNAL_DRAG_BEGIN\000"
 9305      49474E41 
 9305      4C5F4452 
 9305      41475F42 
 9305      4547494E 
 9306              	.LASF228:
 9307 012a 785F6F66 		.ascii	"x_ofs\000"
 9307      7300
 9308              	.LASF213:
 9309 0130 6C765F67 		.ascii	"lv_gauge_get_min_value\000"
 9309      61756765 
 9309      5F676574 
 9309      5F6D696E 
 9309      5F76616C 
 9310              	.LASF180:
 9311 0147 68696768 		.ascii	"highlighted_days\000"
 9311      6C696768 
 9311      7465645F 
 9311      64617973 
 9311      00
 9312              	.LASF294:
 9313 0158 6C765F6F 		.ascii	"lv_obj_set_signal_cb\000"
 9313      626A5F73 
 9313      65745F73 
 9313      69676E61 
 9313      6C5F6362 
 9314              	.LASF221:
 9315 016d 7369676E 		.ascii	"sign\000"
 9315      00
 9316              	.LASF112:
 9317 0172 6C765F65 		.ascii	"lv_event_t\000"
 9317      76656E74 
 9317      5F7400
 9318              	.LASF252:
 9319 017d 6C616265 		.ascii	"label_cnt\000"
 9319      6C5F636E 
 9319      7400
 9320              	.LASF248:
 9321 0187 6E656564 		.ascii	"needle_cnt\000"
 9321      6C655F63 
 9321      6E7400
 9322              	.LASF236:
 9323 0192 6E6D5F63 		.ascii	"nm_cord\000"
 9323      6F726400 
 9324              	.LASF75:
 9325 019a 4C565F52 		.ascii	"LV_RES_INV\000"
 9325      45535F49 
 9325      4E5600
 9326              	.LASF268:
 9327 01a5 6C765F74 		.ascii	"lv_trigo_sin\000"
 9327      7269676F 
 9327      5F73696E 
ARM GAS  C:\Users\pearlstl\AppData\Local\Temp\cccjDn63.s 			page 183


 9327      00
 9328              	.LASF122:
 9329 01b2 4C565F53 		.ascii	"LV_SIGNAL_PRESSED\000"
 9329      49474E41 
 9329      4C5F5052 
 9329      45535345 
 9329      4400
 9330              	.LASF276:
 9331 01c4 6C765F6F 		.ascii	"lv_obj_get_width\000"
 9331      626A5F67 
 9331      65745F77 
 9331      69647468 
 9331      00
 9332              	.LASF51:
 9333 01d5 74797065 		.ascii	"type\000"
 9333      00
 9334              	.LASF170:
 9335 01da 6C696768 		.ascii	"light\000"
 9335      7400
 9336              	.LASF191:
 9337 01e0 636F6E74 		.ascii	"cont\000"
 9337      00
 9338              	.LASF298:
 9339 01e5 474E5520 		.ascii	"GNU C11 5.4.1 20160609 (release) [ARM/embedded-5-br"
 9339      43313120 
 9339      352E342E 
 9339      31203230 
 9339      31363036 
 9340 0218 616E6368 		.ascii	"anch revision 237715] -mcpu=cortex-m4 -mfloat-abi=s"
 9340      20726576 
 9340      6973696F 
 9340      6E203233 
 9340      37373135 
 9341 024b 6F667466 		.ascii	"oftfp -mfpu=fpv4-sp-d16 -mthumb -g -O3 -ffunction-s"
 9341      70202D6D 
 9341      6670753D 
 9341      66707634 
 9341      2D73702D 
 9342 027e 65637469 		.ascii	"ections -ffat-lto-objects\000"
 9342      6F6E7320 
 9342      2D666661 
 9342      742D6C74 
 9342      6F2D6F62 
 9343              	.LASF168:
 9344 0298 7072696D 		.ascii	"prim\000"
 9344      00
 9345              	.LASF197:
 9346 029d 63686172 		.ascii	"chart\000"
 9346      7400
 9347              	.LASF1:
 9348 02a3 5F5F7569 		.ascii	"__uint8_t\000"
 9348      6E74385F 
 9348      7400
 9349              	.LASF245:
 9350 02ad 7363616C 		.ascii	"scale_act\000"
 9350      655F6163 
 9350      7400
ARM GAS  C:\Users\pearlstl\AppData\Local\Temp\cccjDn63.s 			page 184


 9351              	.LASF37:
 9352 02b7 616C7068 		.ascii	"alpha\000"
 9352      6100
 9353              	.LASF97:
 9354 02bd 68696464 		.ascii	"hidden\000"
 9354      656E00
 9355              	.LASF9:
 9356 02c4 6C6F6E67 		.ascii	"long int\000"
 9356      20696E74 
 9356      00
 9357              	.LASF270:
 9358 02cd 6C765F74 		.ascii	"lv_txt_get_size\000"
 9358      78745F67 
 9358      65745F73 
 9358      697A6500 
 9359              	.LASF207:
 9360 02dd 74696C65 		.ascii	"tileview\000"
 9360      76696577 
 9360      00
 9361              	.LASF157:
 9362 02e6 4C565F54 		.ascii	"LV_TXT_FLAG_RIGHT\000"
 9362      58545F46 
 9362      4C41475F 
 9362      52494748 
 9362      5400
 9363              	.LASF226:
 9364 02f8 6C765F67 		.ascii	"lv_gauge_draw_needle\000"
 9364      61756765 
 9364      5F647261 
 9364      775F6E65 
 9364      65646C65 
 9365              	.LASF80:
 9366 030d 68656164 		.ascii	"head\000"
 9366      00
 9367              	.LASF246:
 9368 0312 6C616265 		.ascii	"label_cord\000"
 9368      6C5F636F 
 9368      726400
 9369              	.LASF199:
 9370 031d 62746E6D 		.ascii	"btnm\000"
 9370      00
 9371              	.LASF154:
 9372 0322 4C565F54 		.ascii	"LV_TXT_FLAG_RECOLOR\000"
 9372      58545F46 
 9372      4C41475F 
 9372      5245434F 
 9372      4C4F5200 
 9373              	.LASF2:
 9374 0336 7369676E 		.ascii	"signed char\000"
 9374      65642063 
 9374      68617200 
 9375              	.LASF16:
 9376 0342 75696E74 		.ascii	"uint8_t\000"
 9376      385F7400 
 9377              	.LASF183:
 9378 034a 746F6461 		.ascii	"today_box\000"
 9378      795F626F 
ARM GAS  C:\Users\pearlstl\AppData\Local\Temp\cccjDn63.s 			page 185


 9378      7800
 9379              	.LASF167:
 9380 0354 74676C5F 		.ascii	"tgl_pr\000"
 9380      707200
 9381              	.LASF239:
 9382 035b 6E656564 		.ascii	"needle_angle_high\000"
 9382      6C655F61 
 9382      6E676C65 
 9382      5F686967 
 9382      6800
 9383              	.LASF232:
 9384 036d 705F656E 		.ascii	"p_end\000"
 9384      6400
 9385              	.LASF30:
 9386 0373 6765745F 		.ascii	"get_glyph_bitmap\000"
 9386      676C7970 
 9386      685F6269 
 9386      746D6170 
 9386      00
 9387              	.LASF184:
 9388 0384 7363726C 		.ascii	"scrl\000"
 9388      00
 9389              	.LASF35:
 9390 0389 626C7565 		.ascii	"blue\000"
 9390      00
 9391              	.LASF127:
 9392 038e 4C565F53 		.ascii	"LV_SIGNAL_LONG_PRESS_REP\000"
 9392      49474E41 
 9392      4C5F4C4F 
 9392      4E475F50 
 9392      52455353 
 9393              	.LASF3:
 9394 03a7 756E7369 		.ascii	"unsigned char\000"
 9394      676E6564 
 9394      20636861 
 9394      7200
 9395              	.LASF274:
 9396 03b5 6C765F6F 		.ascii	"lv_obj_get_style\000"
 9396      626A5F67 
 9396      65745F73 
 9396      74796C65 
 9396      00
 9397              	.LASF249:
 9398 03c6 636F6C6F 		.ascii	"colors\000"
 9398      727300
 9399              	.LASF120:
 9400 03cd 4C565F53 		.ascii	"LV_SIGNAL_REFR_EXT_DRAW_PAD\000"
 9400      49474E41 
 9400      4C5F5245 
 9400      46525F45 
 9400      58545F44 
 9401              	.LASF100:
 9402 03e9 64726167 		.ascii	"drag_dir\000"
 9402      5F646972 
 9402      00
 9403              	.LASF176:
 9404 03f2 6B6E6F62 		.ascii	"knob_on\000"
ARM GAS  C:\Users\pearlstl\AppData\Local\Temp\cccjDn63.s 			page 186


 9404      5F6F6E00 
 9405              	.LASF26:
 9406 03fa 6F66735F 		.ascii	"ofs_x\000"
 9406      7800
 9407              	.LASF27:
 9408 0400 6F66735F 		.ascii	"ofs_y\000"
 9408      7900
 9409              	.LASF177:
 9410 0406 68656164 		.ascii	"header\000"
 9410      657200
 9411              	.LASF293:
 9412 040d 6C765F6F 		.ascii	"lv_obj_allocate_ext_attr\000"
 9412      626A5F61 
 9412      6C6C6F63 
 9412      6174655F 
 9412      6578745F 
 9413              	.LASF33:
 9414 0426 5F426F6F 		.ascii	"_Bool\000"
 9414      6C00
 9415              	.LASF135:
 9416 042c 6C765F73 		.ascii	"lv_signal_cb_t\000"
 9416      69676E61 
 9416      6C5F6362 
 9416      5F7400
 9417              	.LASF208:
 9418 043b 7461626C 		.ascii	"table\000"
 9418      6500
 9419              	.LASF225:
 9420 0441 76616C75 		.ascii	"value\000"
 9420      6500
 9421              	.LASF43:
 9422 0447 63686172 		.ascii	"char\000"
 9422      00
 9423              	.LASF108:
 9424 044c 4C565F44 		.ascii	"LV_DESIGN_DRAW_POST\000"
 9424      45534947 
 9424      4E5F4452 
 9424      41575F50 
 9424      4F535400 
 9425              	.LASF70:
 9426 0460 626F6479 		.ascii	"body\000"
 9426      00
 9427              	.LASF139:
 9428 0465 796F6673 		.ascii	"yofs\000"
 9428      00
 9429              	.LASF261:
 9430 046a 6C765F67 		.ascii	"lv_gauge_get_label_count\000"
 9430      61756765 
 9430      5F676574 
 9430      5F6C6162 
 9430      656C5F63 
 9431              	.LASF6:
 9432 0483 5F5F7569 		.ascii	"__uint16_t\000"
 9432      6E743136 
 9432      5F7400
 9433              	.LASF182:
 9434 048e 7765656B 		.ascii	"week_box\000"
ARM GAS  C:\Users\pearlstl\AppData\Local\Temp\cccjDn63.s 			page 187


 9434      5F626F78 
 9434      00
 9435              	.LASF273:
 9436 0497 6C765F6F 		.ascii	"lv_obj_get_ext_attr\000"
 9436      626A5F67 
 9436      65745F65 
 9436      78745F61 
 9436      74747200 
 9437              	.LASF109:
 9438 04ab 4C565F44 		.ascii	"LV_DESIGN_COVER_CHK\000"
 9438      45534947 
 9438      4E5F434F 
 9438      5645525F 
 9438      43484B00 
 9439              	.LASF90:
 9440 04bf 64657369 		.ascii	"design_cb\000"
 9440      676E5F63 
 9440      6200
 9441              	.LASF153:
 9442 04c9 4C565F54 		.ascii	"LV_TXT_FLAG_NONE\000"
 9442      58545F46 
 9442      4C41475F 
 9442      4E4F4E45 
 9442      00
 9443              	.LASF131:
 9444 04da 4C565F53 		.ascii	"LV_SIGNAL_DEFOCUS\000"
 9444      49474E41 
 9444      4C5F4445 
 9444      464F4355 
 9444      5300
 9445              	.LASF204:
 9446 04ec 64646C69 		.ascii	"ddlist\000"
 9446      737400
 9447              	.LASF247:
 9448 04f3 6C616265 		.ascii	"label_size\000"
 9448      6C5F7369 
 9448      7A6500
 9449              	.LASF71:
 9450 04fe 74657874 		.ascii	"text\000"
 9450      00
 9451              	.LASF299:
 9452 0503 2E2E5C2E 		.ascii	"..\\..\\..\\lvgl\\version_6.1.2\\lvgl\\src\\lv_objx"
 9452      2E5C2E2E 
 9452      5C6C7667 
 9452      6C5C7665 
 9452      7273696F 
 9453 052f 5C6C765F 		.ascii	"\\lv_gauge.c\000"
 9453      67617567 
 9453      652E6300 
 9454              	.LASF266:
 9455 053b 6C765F6C 		.ascii	"lv_lmeter_get_min_value\000"
 9455      6D657465 
 9455      725F6765 
 9455      745F6D69 
 9455      6E5F7661 
 9456              	.LASF72:
 9457 0553 696D6167 		.ascii	"image\000"
ARM GAS  C:\Users\pearlstl\AppData\Local\Temp\cccjDn63.s 			page 188


 9457      6500
 9458              	.LASF68:
 9459 0559 726F756E 		.ascii	"rounded\000"
 9459      64656400 
 9460              	.LASF95:
 9461 0561 64726167 		.ascii	"drag_throw\000"
 9461      5F746872 
 9461      6F7700
 9462              	.LASF181:
 9463 056c 696E6163 		.ascii	"inactive_days\000"
 9463      74697665 
 9463      5F646179 
 9463      7300
 9464              	.LASF235:
 9465 057a 7374796C 		.ascii	"style_neddle_mid\000"
 9465      655F6E65 
 9465      64646C65 
 9465      5F6D6964 
 9465      00
 9466              	.LASF83:
 9467 058b 6C765F62 		.ascii	"lv_bidi_dir_t\000"
 9467      6964695F 
 9467      6469725F 
 9467      7400
 9468              	.LASF105:
 9469 0599 6578745F 		.ascii	"ext_draw_pad\000"
 9469      64726177 
 9469      5F706164 
 9469      00
 9470              	.LASF45:
 9471 05a6 6C765F61 		.ascii	"lv_area_t\000"
 9471      7265615F 
 9471      7400
 9472              	.LASF220:
 9473 05b0 6C765F67 		.ascii	"lv_gauge_signal\000"
 9473      61756765 
 9473      5F736967 
 9473      6E616C00 
 9474              	.LASF156:
 9475 05c0 4C565F54 		.ascii	"LV_TXT_FLAG_CENTER\000"
 9475      58545F46 
 9475      4C41475F 
 9475      43454E54 
 9475      455200
 9476              	.LASF53:
 9477 05d3 6C656674 		.ascii	"left\000"
 9477      00
 9478              	.LASF210:
 9479 05d8 6C765F74 		.ascii	"lv_theme_t\000"
 9479      68656D65 
 9479      5F7400
 9480              	.LASF106:
 9481 05e3 7265616C 		.ascii	"realign\000"
 9481      69676E00 
 9482              	.LASF214:
 9483 05eb 6C765F67 		.ascii	"lv_gauge_design\000"
 9483      61756765 
ARM GAS  C:\Users\pearlstl\AppData\Local\Temp\cccjDn63.s 			page 189


 9483      5F646573 
 9483      69676E00 
 9484              	.LASF288:
 9485 05fb 6C765F6C 		.ascii	"lv_lmeter_set_value\000"
 9485      6D657465 
 9485      725F7365 
 9485      745F7661 
 9485      6C756500 
 9486              	.LASF121:
 9487 060f 4C565F53 		.ascii	"LV_SIGNAL_GET_TYPE\000"
 9487      49474E41 
 9487      4C5F4745 
 9487      545F5459 
 9487      504500
 9488              	.LASF160:
 9489 0622 6E656564 		.ascii	"needle_colors\000"
 9489      6C655F63 
 9489      6F6C6F72 
 9489      7300
 9490              	.LASF278:
 9491 0630 6C765F6C 		.ascii	"lv_lmeter_get_scale_angle\000"
 9491      6D657465 
 9491      725F6765 
 9491      745F7363 
 9491      616C655F 
 9492              	.LASF185:
 9493 064a 61726561 		.ascii	"area\000"
 9493      00
 9494              	.LASF258:
 9495 064f 6C765F67 		.ascii	"lv_gauge_get_value\000"
 9495      61756765 
 9495      5F676574 
 9495      5F76616C 
 9495      756500
 9496              	.LASF74:
 9497 0662 6C765F73 		.ascii	"lv_style_t\000"
 9497      74796C65 
 9497      5F7400
 9498              	.LASF55:
 9499 066d 696E6E65 		.ascii	"inner\000"
 9499      7200
 9500              	.LASF11:
 9501 0673 6C6F6E67 		.ascii	"long unsigned int\000"
 9501      20756E73 
 9501      69676E65 
 9501      6420696E 
 9501      7400
 9502              	.LASF169:
 9503 0685 68696E74 		.ascii	"hint\000"
 9503      00
 9504              	.LASF222:
 9505 068a 70617261 		.ascii	"param\000"
 9505      6D00
 9506              	.LASF73:
 9507 0690 6C696E65 		.ascii	"line\000"
 9507      00
 9508              	.LASF233:
ARM GAS  C:\Users\pearlstl\AppData\Local\Temp\cccjDn63.s 			page 190


 9509 0695 705F656E 		.ascii	"p_end_low\000"
 9509      645F6C6F 
 9509      7700
 9510              	.LASF271:
 9511 069f 6C765F6F 		.ascii	"lv_obj_get_base_dir\000"
 9511      626A5F67 
 9511      65745F62 
 9511      6173655F 
 9511      64697200 
 9512              	.LASF130:
 9513 06b3 4C565F53 		.ascii	"LV_SIGNAL_FOCUS\000"
 9513      49474E41 
 9513      4C5F464F 
 9513      43555300 
 9514              	.LASF194:
 9515 06c3 736C6964 		.ascii	"slider\000"
 9515      657200
 9516              	.LASF280:
 9517 06ca 6C765F73 		.ascii	"lv_style_copy\000"
 9517      74796C65 
 9517      5F636F70 
 9517      7900
 9518              	.LASF155:
 9519 06d8 4C565F54 		.ascii	"LV_TXT_FLAG_EXPAND\000"
 9519      58545F46 
 9519      4C41475F 
 9519      45585041 
 9519      4E4400
 9520              	.LASF148:
 9521 06eb 6C696E65 		.ascii	"line_cnt\000"
 9521      5F636E74 
 9521      00
 9522              	.LASF272:
 9523 06f4 6C765F64 		.ascii	"lv_draw_label\000"
 9523      7261775F 
 9523      6C616265 
 9523      6C00
 9524              	.LASF230:
 9525 0702 616E676C 		.ascii	"angle\000"
 9525      6500
 9526              	.LASF286:
 9527 0708 6C765F6F 		.ascii	"lv_obj_refresh_style\000"
 9527      626A5F72 
 9527      65667265 
 9527      73685F73 
 9527      74796C65 
 9528              	.LASF253:
 9529 071d 636F7079 		.ascii	"copy\000"
 9529      00
 9530              	.LASF212:
 9531 0722 6C765F67 		.ascii	"lv_gauge_get_max_value\000"
 9531      61756765 
 9531      5F676574 
 9531      5F6D6178 
 9531      5F76616C 
 9532              	.LASF133:
 9533 0739 4C565F53 		.ascii	"LV_SIGNAL_GET_EDITABLE\000"
ARM GAS  C:\Users\pearlstl\AppData\Local\Temp\cccjDn63.s 			page 191


 9533      49474E41 
 9533      4C5F4745 
 9533      545F4544 
 9533      49544142 
 9534              	.LASF224:
 9535 0750 6C765F67 		.ascii	"lv_gauge_set_critical_value\000"
 9535      61756765 
 9535      5F736574 
 9535      5F637269 
 9535      74696361 
 9536              	.LASF186:
 9537 076c 6F6E656C 		.ascii	"oneline\000"
 9537      696E6500 
 9538              	.LASF257:
 9539 0774 6C765F67 		.ascii	"lv_gauge_create\000"
 9539      61756765 
 9539      5F637265 
 9539      61746500 
 9540              	.LASF10:
 9541 0784 5F5F7569 		.ascii	"__uint32_t\000"
 9541      6E743332 
 9541      5F7400
 9542              	.LASF88:
 9543 078f 6576656E 		.ascii	"event_cb\000"
 9543      745F6362 
 9543      00
 9544              	.LASF54:
 9545 0798 72696768 		.ascii	"right\000"
 9545      7400
 9546              	.LASF92:
 9547 079e 7374796C 		.ascii	"style_p\000"
 9547      655F7000 
 9548              	.LASF12:
 9549 07a6 6C6F6E67 		.ascii	"long long int\000"
 9549      206C6F6E 
 9549      6720696E 
 9549      7400
 9550              	.LASF49:
 9551 07b4 77696474 		.ascii	"width\000"
 9551      6800
 9552              	.LASF132:
 9553 07ba 4C565F53 		.ascii	"LV_SIGNAL_CONTROL\000"
 9553      49474E41 
 9553      4C5F434F 
 9553      4E54524F 
 9553      4C00
 9554              	.LASF52:
 9555 07cc 626F7474 		.ascii	"bottom\000"
 9555      6F6D00
 9556              	.LASF86:
 9557 07d3 6368696C 		.ascii	"child_ll\000"
 9557      645F6C6C 
 9557      00
 9558              	.LASF173:
 9559 07dc 696E6469 		.ascii	"indic\000"
 9559      6300
 9560              	.LASF103:
ARM GAS  C:\Users\pearlstl\AppData\Local\Temp\cccjDn63.s 			page 192


 9561 07e2 70726F74 		.ascii	"protect\000"
 9561      65637400 
 9562              	.LASF259:
 9563 07ea 6E656564 		.ascii	"needle\000"
 9563      6C6500
 9564              	.LASF244:
 9565 07f1 6C616265 		.ascii	"label_num\000"
 9565      6C5F6E75 
 9565      6D00
 9566              	.LASF260:
 9567 07fb 6C765F67 		.ascii	"lv_gauge_get_needle_count\000"
 9567      61756765 
 9567      5F676574 
 9567      5F6E6565 
 9567      646C655F 
 9568              	.LASF215:
 9569 0815 6D61736B 		.ascii	"mask\000"
 9569      00
 9570              	.LASF206:
 9571 081a 74616276 		.ascii	"tabview\000"
 9571      69657700 
 9572              	.LASF99:
 9573 0822 70617265 		.ascii	"parent_event\000"
 9573      6E745F65 
 9573      76656E74 
 9573      00
 9574              	.LASF114:
 9575 082f 4C565F53 		.ascii	"LV_SIGNAL_CLEANUP\000"
 9575      49474E41 
 9575      4C5F434C 
 9575      45414E55 
 9575      5000
 9576              	.LASF295:
 9577 0841 6C765F6F 		.ascii	"lv_obj_set_design_cb\000"
 9577      626A5F73 
 9577      65745F64 
 9577      65736967 
 9577      6E5F6362 
 9578              	.LASF140:
 9579 0856 616C6967 		.ascii	"align\000"
 9579      6E00
 9580              	.LASF69:
 9581 085c 676C6173 		.ascii	"glass\000"
 9581      7300
 9582              	.LASF164:
 9583 0862 4C565F47 		.ascii	"LV_GAUGE_STYLE_MAIN\000"
 9583      41554745 
 9583      5F535459 
 9583      4C455F4D 
 9583      41494E00 
 9584              	.LASF14:
 9585 0876 756E7369 		.ascii	"unsigned int\000"
 9585      676E6564 
 9585      20696E74 
 9585      00
 9586              	.LASF115:
 9587 0883 4C565F53 		.ascii	"LV_SIGNAL_CHILD_CHG\000"
ARM GAS  C:\Users\pearlstl\AppData\Local\Temp\cccjDn63.s 			page 193


 9587      49474E41 
 9587      4C5F4348 
 9587      494C445F 
 9587      43484700 
 9588              	.LASF287:
 9589 0897 6C765F6C 		.ascii	"lv_lmeter_set_scale\000"
 9589      6D657465 
 9589      725F7365 
 9589      745F7363 
 9589      616C6500 
 9590              	.LASF200:
 9591 08ab 6D626F78 		.ascii	"mbox\000"
 9591      00
 9592              	.LASF166:
 9593 08b0 74676C5F 		.ascii	"tgl_rel\000"
 9593      72656C00 
 9594              	.LASF279:
 9595 08b8 6C765F64 		.ascii	"lv_draw_line\000"
 9595      7261775F 
 9595      6C696E65 
 9595      00
 9596              	.LASF227:
 9597 08c5 7374796C 		.ascii	"style_needle\000"
 9597      655F6E65 
 9597      65646C65 
 9597      00
 9598              	.LASF219:
 9599 08d2 7374796C 		.ascii	"style_tmp\000"
 9599      655F746D 
 9599      7000
 9600              	.LASF254:
 9601 08dc 6E65775F 		.ascii	"new_gauge\000"
 9601      67617567 
 9601      6500
 9602              	.LASF141:
 9603 08e6 6175746F 		.ascii	"auto_realign\000"
 9603      5F726561 
 9603      6C69676E 
 9603      00
 9604              	.LASF264:
 9605 08f3 6C765F73 		.ascii	"lv_style_plain\000"
 9605      74796C65 
 9605      5F706C61 
 9605      696E00
 9606              	.LASF107:
 9607 0902 4C565F44 		.ascii	"LV_DESIGN_DRAW_MAIN\000"
 9607      45534947 
 9607      4E5F4452 
 9607      41575F4D 
 9607      41494E00 
 9608              	.LASF28:
 9609 0916 6C765F66 		.ascii	"lv_font_glyph_dsc_t\000"
 9609      6F6E745F 
 9609      676C7970 
 9609      685F6473 
 9609      635F7400 
 9610              	.LASF203:
ARM GAS  C:\Users\pearlstl\AppData\Local\Temp\cccjDn63.s 			page 194


 9611 092a 6C697374 		.ascii	"list\000"
 9611      00
 9612              	.LASF57:
 9613 092f 67726164 		.ascii	"grad_color\000"
 9613      5F636F6C 
 9613      6F7200
 9614              	.LASF201:
 9615 093a 70616765 		.ascii	"page\000"
 9615      00
 9616              	.LASF238:
 9617 093f 6E656564 		.ascii	"needle_angle_low\000"
 9617      6C655F61 
 9617      6E676C65 
 9617      5F6C6F77 
 9617      00
 9618              	.LASF175:
 9619 0950 6B6E6F62 		.ascii	"knob_off\000"
 9619      5F6F6666 
 9619      00
 9620              	.LASF195:
 9621 0959 67617567 		.ascii	"gauge\000"
 9621      6500
 9622              	.LASF123:
 9623 095f 4C565F53 		.ascii	"LV_SIGNAL_PRESSING\000"
 9623      49474E41 
 9623      4C5F5052 
 9623      45535349 
 9623      4E4700
 9624              	.LASF250:
 9625 0972 6C765F67 		.ascii	"lv_gauge_set_needle_count\000"
 9625      61756765 
 9625      5F736574 
 9625      5F6E6565 
 9625      646C655F 
 9626              	.LASF77:
 9627 098c 6C765F72 		.ascii	"lv_res_t\000"
 9627      65735F74 
 9627      00
 9628              	.LASF243:
 9629 0995 7363616C 		.ascii	"scale_txt\000"
 9629      655F7478 
 9629      7400
 9630              	.LASF22:
 9631 099f 6C6F6E67 		.ascii	"long double\000"
 9631      20646F75 
 9631      626C6500 
 9632              	.LASF144:
 9633 09ab 6C765F64 		.ascii	"lv_drag_dir_t\000"
 9633      7261675F 
 9633      6469725F 
 9633      7400
 9634              	.LASF209:
 9635 09b9 7374796C 		.ascii	"style\000"
 9635      6500
 9636              	.LASF256:
 9637 09bf 6E656564 		.ascii	"needle_id\000"
 9637      6C655F69 
ARM GAS  C:\Users\pearlstl\AppData\Local\Temp\cccjDn63.s 			page 195


 9637      6400
 9638              	.LASF91:
 9639 09c9 6578745F 		.ascii	"ext_attr\000"
 9639      61747472 
 9639      00
 9640              	.LASF110:
 9641 09d2 6C765F64 		.ascii	"lv_design_mode_t\000"
 9641      65736967 
 9641      6E5F6D6F 
 9641      64655F74 
 9641      00
 9642              	.LASF67:
 9643 09e3 73756270 		.ascii	"subpx\000"
 9643      7800
 9644              	.LASF124:
 9645 09e9 4C565F53 		.ascii	"LV_SIGNAL_PRESS_LOST\000"
 9645      49474E41 
 9645      4C5F5052 
 9645      4553535F 
 9645      4C4F5354 
 9646              	.LASF231:
 9647 09fe 705F6D69 		.ascii	"p_mid\000"
 9647      6400
 9648              	.LASF129:
 9649 0a04 4C565F53 		.ascii	"LV_SIGNAL_DRAG_END\000"
 9649      49474E41 
 9649      4C5F4452 
 9649      41475F45 
 9649      4E4400
 9650              	.LASF217:
 9651 0a17 7374796C 		.ascii	"style_ori_p\000"
 9651      655F6F72 
 9651      695F7000 
 9652              	.LASF117:
 9653 0a23 4C565F53 		.ascii	"LV_SIGNAL_PARENT_SIZE_CHG\000"
 9653      49474E41 
 9653      4C5F5041 
 9653      52454E54 
 9653      5F53495A 
 9654              	.LASF281:
 9655 0a3d 6C765F64 		.ascii	"lv_draw_rect\000"
 9655      7261775F 
 9655      72656374 
 9655      00
 9656              	.LASF292:
 9657 0a4a 6C765F6C 		.ascii	"lv_lmeter_create\000"
 9657      6D657465 
 9657      725F6372 
 9657      65617465 
 9657      00
 9658              	.LASF125:
 9659 0a5b 4C565F53 		.ascii	"LV_SIGNAL_RELEASED\000"
 9659      49474E41 
 9659      4C5F5245 
 9659      4C454153 
 9659      454400
 9660              	.LASF56:
ARM GAS  C:\Users\pearlstl\AppData\Local\Temp\cccjDn63.s 			page 196


 9661 0a6e 6D61696E 		.ascii	"main_color\000"
 9661      5F636F6C 
 9661      6F7200
 9662              	.LASF0:
 9663 0a79 5F5F696E 		.ascii	"__int8_t\000"
 9663      74385F74 
 9663      00
 9664              	.LASF297:
 9665 0a82 6C765F6F 		.ascii	"lv_obj_get_design_cb\000"
 9665      626A5F67 
 9665      65745F64 
 9665      65736967 
 9665      6E5F6362 
 9666              	.LASF134:
 9667 0a97 6C765F73 		.ascii	"lv_signal_t\000"
 9667      69676E61 
 9667      6C5F7400 
 9668              	.LASF13:
 9669 0aa3 6C6F6E67 		.ascii	"long long unsigned int\000"
 9669      206C6F6E 
 9669      6720756E 
 9669      7369676E 
 9669      65642069 
 9670              	.LASF18:
 9671 0aba 75696E74 		.ascii	"uint16_t\000"
 9671      31365F74 
 9671      00
 9672              	.LASF76:
 9673 0ac3 4C565F52 		.ascii	"LV_RES_OK\000"
 9673      45535F4F 
 9673      4B00
 9674              	.LASF152:
 9675 0acd 6C765F6C 		.ascii	"lv_lmeter_ext_t\000"
 9675      6D657465 
 9675      725F6578 
 9675      745F7400 
 9676              	.LASF40:
 9677 0add 6C765F63 		.ascii	"lv_color_t\000"
 9677      6F6C6F72 
 9677      5F7400
 9678              	.LASF263:
 9679 0ae8 616E6365 		.ascii	"ancestor_signal\000"
 9679      73746F72 
 9679      5F736967 
 9679      6E616C00 
 9680              	.LASF262:
 9681 0af8 616E6365 		.ascii	"ancestor_design\000"
 9681      73746F72 
 9681      5F646573 
 9681      69676E00 
 9682              	.LASF149:
 9683 0b08 6375725F 		.ascii	"cur_value\000"
 9683      76616C75 
 9683      6500
 9684              	.LASF267:
 9685 0b12 6C765F6C 		.ascii	"lv_lmeter_get_max_value\000"
 9685      6D657465 
ARM GAS  C:\Users\pearlstl\AppData\Local\Temp\cccjDn63.s 			page 197


 9685      725F6765 
 9685      745F6D61 
 9685      785F7661 
 9686              	.LASF172:
 9687 0b2a 6465636F 		.ascii	"decor\000"
 9687      7200
 9688              	.LASF192:
 9689 0b30 696D6762 		.ascii	"imgbtn\000"
 9689      746E00
 9690              	.LASF4:
 9691 0b37 5F5F696E 		.ascii	"__int16_t\000"
 9691      7431365F 
 9691      7400
 9692              	.LASF190:
 9693 0b41 70616E65 		.ascii	"panel\000"
 9693      6C00
 9694              	.LASF296:
 9695 0b47 6C765F6F 		.ascii	"lv_obj_get_signal_cb\000"
 9695      626A5F67 
 9695      65745F73 
 9695      69676E61 
 9695      6C5F6362 
 9696              	.LASF277:
 9697 0b5c 6C765F6F 		.ascii	"lv_obj_get_height\000"
 9697      626A5F67 
 9697      65745F68 
 9697      65696768 
 9697      7400
 9698              	.LASF38:
 9699 0b6e 66756C6C 		.ascii	"full\000"
 9699      00
 9700              	.LASF48:
 9701 0b73 636F6C6F 		.ascii	"color\000"
 9701      7200
 9702              	.LASF234:
 9703 0b79 705F656E 		.ascii	"p_end_high\000"
 9703      645F6869 
 9703      676800
 9704              	.LASF159:
 9705 0b84 76616C75 		.ascii	"values\000"
 9705      657300
 9706              	.LASF65:
 9707 0b8b 6C696E65 		.ascii	"line_space\000"
 9707      5F737061 
 9707      636500
 9708              	.LASF138:
 9709 0b96 786F6673 		.ascii	"xofs\000"
 9709      00
 9710              	.LASF282:
 9711 0b9b 6C765F6F 		.ascii	"lv_obj_handle_get_type_signal\000"
 9711      626A5F68 
 9711      616E646C 
 9711      655F6765 
 9711      745F7479 
 9712              	.LASF145:
 9713 0bb9 6C765F6F 		.ascii	"lv_obj_t\000"
 9713      626A5F74 
ARM GAS  C:\Users\pearlstl\AppData\Local\Temp\cccjDn63.s 			page 198


 9713      00
 9714              	.LASF47:
 9715 0bc2 6C765F73 		.ascii	"lv_shadow_type_t\000"
 9715      6861646F 
 9715      775F7479 
 9715      70655F74 
 9715      00
 9716              	.LASF94:
 9717 0bd3 64726167 		.ascii	"drag\000"
 9717      00
 9718              	.LASF150:
 9719 0bd8 6D696E5F 		.ascii	"min_value\000"
 9719      76616C75 
 9719      6500
 9720              	.LASF241:
 9721 0be2 795F6D6F 		.ascii	"y_mod\000"
 9721      6400
 9722              	.LASF211:
 9723 0be8 6C765F67 		.ascii	"lv_gauge_get_style\000"
 9723      61756765 
 9723      5F676574 
 9723      5F737479 
 9723      6C6500
 9724              	.LASF85:
 9725 0bfb 5F6C765F 		.ascii	"_lv_obj_t\000"
 9725      6F626A5F 
 9725      7400
 9726              	.LASF63:
 9727 0c05 666F6E74 		.ascii	"font\000"
 9727      00
 9728              	.LASF64:
 9729 0c0a 6C657474 		.ascii	"letter_space\000"
 9729      65725F73 
 9729      70616365 
 9729      00
 9730              	.LASF198:
 9731 0c17 63616C65 		.ascii	"calendar\000"
 9731      6E646172 
 9731      00
 9732              	.LASF223:
 9733 0c20 6C765F67 		.ascii	"lv_gauge_set_style\000"
 9733      61756765 
 9733      5F736574 
 9733      5F737479 
 9733      6C6500
 9734              	.LASF101:
 9735 0c33 62617365 		.ascii	"base_dir\000"
 9735      5F646972 
 9735      00
 9736              	.LASF25:
 9737 0c3c 626F785F 		.ascii	"box_h\000"
 9737      6800
 9738              	.LASF137:
 9739 0c42 62617365 		.ascii	"base\000"
 9739      00
 9740              	.LASF24:
 9741 0c47 626F785F 		.ascii	"box_w\000"
ARM GAS  C:\Users\pearlstl\AppData\Local\Temp\cccjDn63.s 			page 199


 9741      7700
 9742              	.LASF5:
 9743 0c4d 73686F72 		.ascii	"short int\000"
 9743      7420696E 
 9743      7400
 9744              	.LASF32:
 9745 0c57 62617365 		.ascii	"base_line\000"
 9745      5F6C696E 
 9745      6500
 9746              	.LASF82:
 9747 0c61 6C765F6C 		.ascii	"lv_ll_t\000"
 9747      6C5F7400 
 9748              	.LASF163:
 9749 0c69 6C765F67 		.ascii	"lv_gauge_ext_t\000"
 9749      61756765 
 9749      5F657874 
 9749      5F7400
 9750              	.LASF216:
 9751 0c78 6D6F6465 		.ascii	"mode\000"
 9751      00
 9752              	.LASF17:
 9753 0c7d 696E7431 		.ascii	"int16_t\000"
 9753      365F7400 
 9754              	.LASF300:
 9755 0c85 433A5C55 		.ascii	"C:\\Users\\pearlstl\\Documents\\_Research\\projects"
 9755      73657273 
 9755      5C706561 
 9755      726C7374 
 9755      6C5C446F 
 9756 0cb3 5C74636F 		.ascii	"\\tcom_engineering\\embed_sw\\tcom_app\\tcom_app_ps"
 9756      6D5F656E 
 9756      67696E65 
 9756      6572696E 
 9756      675C656D 
 9757 0ce2 6F63365F 		.ascii	"oc6_lvgl6\\tcom_displ_test_psoc6.cydsn\000"
 9757      6C76676C 
 9757      365C7463 
 9757      6F6D5F64 
 9757      6973706C 
 9758              	.LASF116:
 9759 0d08 4C565F53 		.ascii	"LV_SIGNAL_CORD_CHG\000"
 9759      49474E41 
 9759      4C5F434F 
 9759      52445F43 
 9759      484700
 9760              	.LASF87:
 9761 0d1b 636F6F72 		.ascii	"coords\000"
 9761      647300
 9762              	.LASF202:
 9763 0d22 7370696E 		.ascii	"spinbox\000"
 9763      626F7800 
 9764              	.LASF251:
 9765 0d2a 6C765F67 		.ascii	"lv_gauge_set_scale\000"
 9765      61756765 
 9765      5F736574 
 9765      5F736361 
 9765      6C6500
ARM GAS  C:\Users\pearlstl\AppData\Local\Temp\cccjDn63.s 			page 200


 9766              	.LASF269:
 9767 0d3d 6C765F75 		.ascii	"lv_utils_num_to_str\000"
 9767      74696C73 
 9767      5F6E756D 
 9767      5F746F5F 
 9767      73747200 
 9768              	.LASF98:
 9769 0d51 6F70615F 		.ascii	"opa_scale_en\000"
 9769      7363616C 
 9769      655F656E 
 9769      00
 9770              	.LASF179:
 9771 0d5e 6461795F 		.ascii	"day_names\000"
 9771      6E616D65 
 9771      7300
 9772              	.LASF275:
 9773 0d68 6C765F6F 		.ascii	"lv_obj_get_opa_scale\000"
 9773      626A5F67 
 9773      65745F6F 
 9773      70615F73 
 9773      63616C65 
 9774              	.LASF60:
 9775 0d7d 73686164 		.ascii	"shadow\000"
 9775      6F7700
 9776              	.LASF218:
 9777 0d84 6C696E65 		.ascii	"line_cnt_tmp\000"
 9777      5F636E74 
 9777      5F746D70 
 9777      00
 9778              	.LASF96:
 9779 0d91 64726167 		.ascii	"drag_parent\000"
 9779      5F706172 
 9779      656E7400 
 9780              	.LASF151:
 9781 0d9d 6D61785F 		.ascii	"max_value\000"
 9781      76616C75 
 9781      6500
 9782              	.LASF119:
 9783 0da7 4C565F53 		.ascii	"LV_SIGNAL_BASE_DIR_CHG\000"
 9783      49474E41 
 9783      4C5F4241 
 9783      53455F44 
 9783      49525F43 
 9784              	.LASF255:
 9785 0dbe 636F7079 		.ascii	"copy_ext\000"
 9785      5F657874 
 9785      00
 9786              	.LASF289:
 9787 0dc7 6C765F6F 		.ascii	"lv_obj_set_style\000"
 9787      626A5F73 
 9787      65745F73 
 9787      74796C65 
 9787      00
 9788              	.LASF189:
 9789 0dd8 636F6E74 		.ascii	"content\000"
 9789      656E7400 
 9790              	.LASF61:
ARM GAS  C:\Users\pearlstl\AppData\Local\Temp\cccjDn63.s 			page 201


 9791 0de0 70616464 		.ascii	"padding\000"
 9791      696E6700 
 9792              	.LASF89:
 9793 0de8 7369676E 		.ascii	"signal_cb\000"
 9793      616C5F63 
 9793      6200
 9794              	.LASF284:
 9795 0df2 6C765F6D 		.ascii	"lv_mem_realloc\000"
 9795      656D5F72 
 9795      65616C6C 
 9795      6F6300
 9796              	.LASF20:
 9797 0e01 75696E74 		.ascii	"uint32_t\000"
 9797      33325F74 
 9797      00
 9798              	.LASF290:
 9799 0e0a 6C765F6F 		.ascii	"lv_obj_set_size\000"
 9799      626A5F73 
 9799      65745F73 
 9799      697A6500 
 9800              	.LASF229:
 9801 0e1a 795F6F66 		.ascii	"y_ofs\000"
 9801      7300
 9802              	.LASF171:
 9803 0e20 6461726B 		.ascii	"dark\000"
 9803      00
 9804              	.LASF237:
 9805 0e25 6E656564 		.ascii	"needle_angle\000"
 9805      6C655F61 
 9805      6E676C65 
 9805      00
 9806              	.LASF36:
 9807 0e32 67726565 		.ascii	"green\000"
 9807      6E00
 9808              	.LASF34:
 9809 0e38 6C765F66 		.ascii	"lv_font_t\000"
 9809      6F6E745F 
 9809      7400
 9810              	.LASF102:
 9811 0e42 72657365 		.ascii	"reserved\000"
 9811      72766564 
 9811      00
 9812              	.LASF7:
 9813 0e4b 73686F72 		.ascii	"short unsigned int\000"
 9813      7420756E 
 9813      7369676E 
 9813      65642069 
 9813      6E7400
 9814              	.LASF165:
 9815 0e5e 6C765F67 		.ascii	"lv_gauge_style_t\000"
 9815      61756765 
 9815      5F737479 
 9815      6C655F74 
 9815      00
 9816              	.LASF21:
 9817 0e6f 6C765F63 		.ascii	"lv_coord_t\000"
 9817      6F6F7264 
ARM GAS  C:\Users\pearlstl\AppData\Local\Temp\cccjDn63.s 			page 202


 9817      5F7400
 9818              	.LASF240:
 9819 0e7a 785F6D6F 		.ascii	"x_mod\000"
 9819      6400
 9820              	.LASF59:
 9821 0e80 626F7264 		.ascii	"border\000"
 9821      657200
 9822              	.LASF193:
 9823 0e87 6C616265 		.ascii	"label\000"
 9823      6C00
 9824              	.LASF29:
 9825 0e8d 6765745F 		.ascii	"get_glyph_dsc\000"
 9825      676C7970 
 9825      685F6473 
 9825      6300
 9826              	.LASF8:
 9827 0e9b 5F5F696E 		.ascii	"__int32_t\000"
 9827      7433325F 
 9827      7400
 9828              	.LASF242:
 9829 0ea5 6C765F67 		.ascii	"lv_gauge_draw_scale\000"
 9829      61756765 
 9829      5F647261 
 9829      775F7363 
 9829      616C6500 
 9830              	.LASF46:
 9831 0eb9 6C765F62 		.ascii	"lv_border_part_t\000"
 9831      6F726465 
 9831      725F7061 
 9831      72745F74 
 9831      00
 9832              	.LASF113:
 9833 0eca 6C765F65 		.ascii	"lv_event_cb_t\000"
 9833      76656E74 
 9833      5F63625F 
 9833      7400
 9834              	.LASF196:
 9835 0ed8 7072656C 		.ascii	"preload\000"
 9835      6F616400 
 9836              	.LASF142:
 9837 0ee0 6F726967 		.ascii	"origo_align\000"
 9837      6F5F616C 
 9837      69676E00 
 9838              	.LASF174:
 9839 0eec 6B6E6F62 		.ascii	"knob\000"
 9839      00
 9840              	.LASF62:
 9841 0ef1 73656C5F 		.ascii	"sel_color\000"
 9841      636F6C6F 
 9841      7200
 9842              	.LASF285:
 9843 0efb 6C765F6F 		.ascii	"lv_obj_invalidate\000"
 9843      626A5F69 
 9843      6E76616C 
 9843      69646174 
 9843      6500
 9844              	.LASF84:
ARM GAS  C:\Users\pearlstl\AppData\Local\Temp\cccjDn63.s 			page 203


 9845 0f0d 5F6C765F 		.ascii	"_lv_font_struct\000"
 9845      666F6E74 
 9845      5F737472 
 9845      75637400 
 9846              	.LASF162:
 9847 0f1d 6C616265 		.ascii	"label_count\000"
 9847      6C5F636F 
 9847      756E7400 
 9848              	.LASF146:
 9849 0f29 7363616C 		.ascii	"scale_angle\000"
 9849      655F616E 
 9849      676C6500 
 9850              	.LASF50:
 9851 0f35 70617274 		.ascii	"part\000"
 9851      00
 9852              	.LASF79:
 9853 0f3a 6E5F7369 		.ascii	"n_size\000"
 9853      7A6500
 9854              	.LASF187:
 9855 0f41 63757273 		.ascii	"cursor\000"
 9855      6F7200
 9856              	.LASF111:
 9857 0f48 6C765F64 		.ascii	"lv_design_cb_t\000"
 9857      65736967 
 9857      6E5F6362 
 9857      5F7400
 9858              	.LASF291:
 9859 0f57 6C765F74 		.ascii	"lv_theme_get_current\000"
 9859      68656D65 
 9859      5F676574 
 9859      5F637572 
 9859      72656E74 
 9860              	.LASF104:
 9861 0f6c 6F70615F 		.ascii	"opa_scale\000"
 9861      7363616C 
 9861      6500
 9862              	.LASF205:
 9863 0f76 726F6C6C 		.ascii	"roller\000"
 9863      657200
 9864              		.ident	"GCC: (GNU Tools for ARM Embedded Processors) 5.4.1 20160609 (release) [ARM/embedded-5-bran
