ARM GAS  C:\Users\pearlstl\AppData\Local\Temp\ccigVjWt.s 			page 1


   1              		.syntax unified
   2              		.cpu cortex-m4
   3              		.eabi_attribute 27, 1
   4              		.fpu fpv4-sp-d16
   5              		.eabi_attribute 20, 1
   6              		.eabi_attribute 21, 1
   7              		.eabi_attribute 23, 3
   8              		.eabi_attribute 24, 1
   9              		.eabi_attribute 25, 1
  10              		.eabi_attribute 26, 1
  11              		.eabi_attribute 30, 2
  12              		.eabi_attribute 34, 1
  13              		.eabi_attribute 18, 4
  14              		.thumb
  15              		.syntax unified
  16              		.file	"lv_hal_tick.c"
  17              		.text
  18              	.Ltext0:
  19              		.cfi_sections	.debug_frame
  20              		.section	.text.lv_tick_inc,"ax",%progbits
  21              		.align	2
  22              		.global	lv_tick_inc
  23              		.thumb
  24              		.thumb_func
  25              		.type	lv_tick_inc, %function
  26              	lv_tick_inc:
  27              	.LFB0:
  28              		.file 1 "..\\..\\..\\lvgl\\version_6.1.2\\lvgl\\src\\lv_hal\\lv_hal_tick.c"
   1:..\..\..\lvgl\version_6.1.2\lvgl\src\lv_hal/lv_hal_tick.c **** /**
   2:..\..\..\lvgl\version_6.1.2\lvgl\src\lv_hal/lv_hal_tick.c ****  * @file systick.c
   3:..\..\..\lvgl\version_6.1.2\lvgl\src\lv_hal/lv_hal_tick.c ****  * Provide access to the system tick with 1 millisecond resolution
   4:..\..\..\lvgl\version_6.1.2\lvgl\src\lv_hal/lv_hal_tick.c ****  */
   5:..\..\..\lvgl\version_6.1.2\lvgl\src\lv_hal/lv_hal_tick.c **** 
   6:..\..\..\lvgl\version_6.1.2\lvgl\src\lv_hal/lv_hal_tick.c **** /*********************
   7:..\..\..\lvgl\version_6.1.2\lvgl\src\lv_hal/lv_hal_tick.c ****  *      INCLUDES
   8:..\..\..\lvgl\version_6.1.2\lvgl\src\lv_hal/lv_hal_tick.c ****  *********************/
   9:..\..\..\lvgl\version_6.1.2\lvgl\src\lv_hal/lv_hal_tick.c **** #ifdef LV_CONF_INCLUDE_SIMPLE
  10:..\..\..\lvgl\version_6.1.2\lvgl\src\lv_hal/lv_hal_tick.c **** #include "lv_conf.h"
  11:..\..\..\lvgl\version_6.1.2\lvgl\src\lv_hal/lv_hal_tick.c **** #else
  12:..\..\..\lvgl\version_6.1.2\lvgl\src\lv_hal/lv_hal_tick.c **** #include "../../../lv_conf.h"
  13:..\..\..\lvgl\version_6.1.2\lvgl\src\lv_hal/lv_hal_tick.c **** #endif
  14:..\..\..\lvgl\version_6.1.2\lvgl\src\lv_hal/lv_hal_tick.c **** 
  15:..\..\..\lvgl\version_6.1.2\lvgl\src\lv_hal/lv_hal_tick.c **** #include "lv_hal_tick.h"
  16:..\..\..\lvgl\version_6.1.2\lvgl\src\lv_hal/lv_hal_tick.c **** #include <stddef.h>
  17:..\..\..\lvgl\version_6.1.2\lvgl\src\lv_hal/lv_hal_tick.c **** 
  18:..\..\..\lvgl\version_6.1.2\lvgl\src\lv_hal/lv_hal_tick.c **** #if LV_TICK_CUSTOM == 1
  19:..\..\..\lvgl\version_6.1.2\lvgl\src\lv_hal/lv_hal_tick.c **** #include LV_TICK_CUSTOM_INCLUDE
  20:..\..\..\lvgl\version_6.1.2\lvgl\src\lv_hal/lv_hal_tick.c **** #endif
  21:..\..\..\lvgl\version_6.1.2\lvgl\src\lv_hal/lv_hal_tick.c **** 
  22:..\..\..\lvgl\version_6.1.2\lvgl\src\lv_hal/lv_hal_tick.c **** /*********************
  23:..\..\..\lvgl\version_6.1.2\lvgl\src\lv_hal/lv_hal_tick.c ****  *      DEFINES
  24:..\..\..\lvgl\version_6.1.2\lvgl\src\lv_hal/lv_hal_tick.c ****  *********************/
  25:..\..\..\lvgl\version_6.1.2\lvgl\src\lv_hal/lv_hal_tick.c **** 
  26:..\..\..\lvgl\version_6.1.2\lvgl\src\lv_hal/lv_hal_tick.c **** /**********************
  27:..\..\..\lvgl\version_6.1.2\lvgl\src\lv_hal/lv_hal_tick.c ****  *      TYPEDEFS
  28:..\..\..\lvgl\version_6.1.2\lvgl\src\lv_hal/lv_hal_tick.c ****  **********************/
  29:..\..\..\lvgl\version_6.1.2\lvgl\src\lv_hal/lv_hal_tick.c **** 
ARM GAS  C:\Users\pearlstl\AppData\Local\Temp\ccigVjWt.s 			page 2


  30:..\..\..\lvgl\version_6.1.2\lvgl\src\lv_hal/lv_hal_tick.c **** /**********************
  31:..\..\..\lvgl\version_6.1.2\lvgl\src\lv_hal/lv_hal_tick.c ****  *  STATIC PROTOTYPES
  32:..\..\..\lvgl\version_6.1.2\lvgl\src\lv_hal/lv_hal_tick.c ****  **********************/
  33:..\..\..\lvgl\version_6.1.2\lvgl\src\lv_hal/lv_hal_tick.c **** 
  34:..\..\..\lvgl\version_6.1.2\lvgl\src\lv_hal/lv_hal_tick.c **** /**********************
  35:..\..\..\lvgl\version_6.1.2\lvgl\src\lv_hal/lv_hal_tick.c ****  *  STATIC VARIABLES
  36:..\..\..\lvgl\version_6.1.2\lvgl\src\lv_hal/lv_hal_tick.c ****  **********************/
  37:..\..\..\lvgl\version_6.1.2\lvgl\src\lv_hal/lv_hal_tick.c **** static uint32_t sys_time = 0;
  38:..\..\..\lvgl\version_6.1.2\lvgl\src\lv_hal/lv_hal_tick.c **** static volatile uint8_t tick_irq_flag;
  39:..\..\..\lvgl\version_6.1.2\lvgl\src\lv_hal/lv_hal_tick.c **** 
  40:..\..\..\lvgl\version_6.1.2\lvgl\src\lv_hal/lv_hal_tick.c **** /**********************
  41:..\..\..\lvgl\version_6.1.2\lvgl\src\lv_hal/lv_hal_tick.c ****  *      MACROS
  42:..\..\..\lvgl\version_6.1.2\lvgl\src\lv_hal/lv_hal_tick.c ****  **********************/
  43:..\..\..\lvgl\version_6.1.2\lvgl\src\lv_hal/lv_hal_tick.c **** 
  44:..\..\..\lvgl\version_6.1.2\lvgl\src\lv_hal/lv_hal_tick.c **** /**********************
  45:..\..\..\lvgl\version_6.1.2\lvgl\src\lv_hal/lv_hal_tick.c ****  *   GLOBAL FUNCTIONS
  46:..\..\..\lvgl\version_6.1.2\lvgl\src\lv_hal/lv_hal_tick.c ****  **********************/
  47:..\..\..\lvgl\version_6.1.2\lvgl\src\lv_hal/lv_hal_tick.c **** 
  48:..\..\..\lvgl\version_6.1.2\lvgl\src\lv_hal/lv_hal_tick.c **** /**
  49:..\..\..\lvgl\version_6.1.2\lvgl\src\lv_hal/lv_hal_tick.c ****  * You have to call this function periodically
  50:..\..\..\lvgl\version_6.1.2\lvgl\src\lv_hal/lv_hal_tick.c ****  * @param tick_period the call period of this function in milliseconds
  51:..\..\..\lvgl\version_6.1.2\lvgl\src\lv_hal/lv_hal_tick.c ****  */
  52:..\..\..\lvgl\version_6.1.2\lvgl\src\lv_hal/lv_hal_tick.c **** LV_ATTRIBUTE_TICK_INC void lv_tick_inc(uint32_t tick_period)
  53:..\..\..\lvgl\version_6.1.2\lvgl\src\lv_hal/lv_hal_tick.c **** {
  29              		.loc 1 53 0
  30              		.cfi_startproc
  31              		@ args = 0, pretend = 0, frame = 0
  32              		@ frame_needed = 0, uses_anonymous_args = 0
  33              		@ link register save eliminated.
  34              	.LVL0:
  54:..\..\..\lvgl\version_6.1.2\lvgl\src\lv_hal/lv_hal_tick.c ****     tick_irq_flag = 0;
  35              		.loc 1 54 0
  36 0000 034B     		ldr	r3, .L2
  55:..\..\..\lvgl\version_6.1.2\lvgl\src\lv_hal/lv_hal_tick.c ****     sys_time += tick_period;
  37              		.loc 1 55 0
  38 0002 5A68     		ldr	r2, [r3, #4]
  54:..\..\..\lvgl\version_6.1.2\lvgl\src\lv_hal/lv_hal_tick.c ****     tick_irq_flag = 0;
  39              		.loc 1 54 0
  40 0004 0021     		movs	r1, #0
  41              		.loc 1 55 0
  42 0006 1044     		add	r0, r0, r2
  43              	.LVL1:
  54:..\..\..\lvgl\version_6.1.2\lvgl\src\lv_hal/lv_hal_tick.c ****     tick_irq_flag = 0;
  44              		.loc 1 54 0
  45 0008 1970     		strb	r1, [r3]
  46              		.loc 1 55 0
  47 000a 5860     		str	r0, [r3, #4]
  48 000c 7047     		bx	lr
  49              	.L3:
  50 000e 00BF     		.align	2
  51              	.L2:
  52 0010 00000000 		.word	.LANCHOR0
  53              		.cfi_endproc
  54              	.LFE0:
  55              		.size	lv_tick_inc, .-lv_tick_inc
  56              		.section	.text.lv_tick_get,"ax",%progbits
  57              		.align	2
ARM GAS  C:\Users\pearlstl\AppData\Local\Temp\ccigVjWt.s 			page 3


  58              		.global	lv_tick_get
  59              		.thumb
  60              		.thumb_func
  61              		.type	lv_tick_get, %function
  62              	lv_tick_get:
  63              	.LFB1:
  56:..\..\..\lvgl\version_6.1.2\lvgl\src\lv_hal/lv_hal_tick.c **** }
  57:..\..\..\lvgl\version_6.1.2\lvgl\src\lv_hal/lv_hal_tick.c **** 
  58:..\..\..\lvgl\version_6.1.2\lvgl\src\lv_hal/lv_hal_tick.c **** /**
  59:..\..\..\lvgl\version_6.1.2\lvgl\src\lv_hal/lv_hal_tick.c ****  * Get the elapsed milliseconds since start up
  60:..\..\..\lvgl\version_6.1.2\lvgl\src\lv_hal/lv_hal_tick.c ****  * @return the elapsed milliseconds
  61:..\..\..\lvgl\version_6.1.2\lvgl\src\lv_hal/lv_hal_tick.c ****  */
  62:..\..\..\lvgl\version_6.1.2\lvgl\src\lv_hal/lv_hal_tick.c **** uint32_t lv_tick_get(void)
  63:..\..\..\lvgl\version_6.1.2\lvgl\src\lv_hal/lv_hal_tick.c **** {
  64              		.loc 1 63 0
  65              		.cfi_startproc
  66              		@ args = 0, pretend = 0, frame = 0
  67              		@ frame_needed = 0, uses_anonymous_args = 0
  68              		@ link register save eliminated.
  69 0000 034B     		ldr	r3, .L9
  70 0002 5868     		ldr	r0, [r3, #4]
  64:..\..\..\lvgl\version_6.1.2\lvgl\src\lv_hal/lv_hal_tick.c **** #if LV_TICK_CUSTOM == 0
  65:..\..\..\lvgl\version_6.1.2\lvgl\src\lv_hal/lv_hal_tick.c ****     uint32_t result;
  66:..\..\..\lvgl\version_6.1.2\lvgl\src\lv_hal/lv_hal_tick.c ****     do {
  67:..\..\..\lvgl\version_6.1.2\lvgl\src\lv_hal/lv_hal_tick.c ****         tick_irq_flag = 1;
  71              		.loc 1 67 0
  72 0004 0121     		movs	r1, #1
  73              	.L5:
  74              		.loc 1 67 0 is_stmt 0 discriminator 1
  75 0006 1970     		strb	r1, [r3]
  76              	.LVL2:
  68:..\..\..\lvgl\version_6.1.2\lvgl\src\lv_hal/lv_hal_tick.c ****         result        = sys_time;
  69:..\..\..\lvgl\version_6.1.2\lvgl\src\lv_hal/lv_hal_tick.c ****     } while(!tick_irq_flag); /*'lv_tick_inc()' clears this flag which can be in an interrupt.
  77              		.loc 1 69 0 is_stmt 1 discriminator 1
  78 0008 1A78     		ldrb	r2, [r3]	@ zero_extendqisi2
  79 000a 002A     		cmp	r2, #0
  80 000c FBD0     		beq	.L5
  70:..\..\..\lvgl\version_6.1.2\lvgl\src\lv_hal/lv_hal_tick.c ****                                 Continue until make a non interrupted cycle */
  71:..\..\..\lvgl\version_6.1.2\lvgl\src\lv_hal/lv_hal_tick.c **** 
  72:..\..\..\lvgl\version_6.1.2\lvgl\src\lv_hal/lv_hal_tick.c ****     return result;
  73:..\..\..\lvgl\version_6.1.2\lvgl\src\lv_hal/lv_hal_tick.c **** #else
  74:..\..\..\lvgl\version_6.1.2\lvgl\src\lv_hal/lv_hal_tick.c ****     return LV_TICK_CUSTOM_SYS_TIME_EXPR;
  75:..\..\..\lvgl\version_6.1.2\lvgl\src\lv_hal/lv_hal_tick.c **** #endif
  76:..\..\..\lvgl\version_6.1.2\lvgl\src\lv_hal/lv_hal_tick.c **** }
  81              		.loc 1 76 0
  82 000e 7047     		bx	lr
  83              	.L10:
  84              		.align	2
  85              	.L9:
  86 0010 00000000 		.word	.LANCHOR0
  87              		.cfi_endproc
  88              	.LFE1:
  89              		.size	lv_tick_get, .-lv_tick_get
  90              		.section	.text.lv_tick_elaps,"ax",%progbits
  91              		.align	2
  92              		.global	lv_tick_elaps
  93              		.thumb
ARM GAS  C:\Users\pearlstl\AppData\Local\Temp\ccigVjWt.s 			page 4


  94              		.thumb_func
  95              		.type	lv_tick_elaps, %function
  96              	lv_tick_elaps:
  97              	.LFB2:
  77:..\..\..\lvgl\version_6.1.2\lvgl\src\lv_hal/lv_hal_tick.c **** 
  78:..\..\..\lvgl\version_6.1.2\lvgl\src\lv_hal/lv_hal_tick.c **** /**
  79:..\..\..\lvgl\version_6.1.2\lvgl\src\lv_hal/lv_hal_tick.c ****  * Get the elapsed milliseconds since a previous time stamp
  80:..\..\..\lvgl\version_6.1.2\lvgl\src\lv_hal/lv_hal_tick.c ****  * @param prev_tick a previous time stamp (return value of systick_get() )
  81:..\..\..\lvgl\version_6.1.2\lvgl\src\lv_hal/lv_hal_tick.c ****  * @return the elapsed milliseconds since 'prev_tick'
  82:..\..\..\lvgl\version_6.1.2\lvgl\src\lv_hal/lv_hal_tick.c ****  */
  83:..\..\..\lvgl\version_6.1.2\lvgl\src\lv_hal/lv_hal_tick.c **** uint32_t lv_tick_elaps(uint32_t prev_tick)
  84:..\..\..\lvgl\version_6.1.2\lvgl\src\lv_hal/lv_hal_tick.c **** {
  98              		.loc 1 84 0
  99              		.cfi_startproc
 100              		@ args = 0, pretend = 0, frame = 0
 101              		@ frame_needed = 0, uses_anonymous_args = 0
 102              		@ link register save eliminated.
 103              	.LVL3:
 104 0000 054B     		ldr	r3, .L18
 105 0002 10B4     		push	{r4}
 106              		.cfi_def_cfa_offset 4
 107              		.cfi_offset 4, -4
 108 0004 5C68     		ldr	r4, [r3, #4]
 109              	.LBB4:
 110              	.LBB5:
  67:..\..\..\lvgl\version_6.1.2\lvgl\src\lv_hal/lv_hal_tick.c ****         result        = sys_time;
 111              		.loc 1 67 0
 112 0006 0121     		movs	r1, #1
 113              	.L12:
 114 0008 1970     		strb	r1, [r3]
 115              	.LVL4:
  69:..\..\..\lvgl\version_6.1.2\lvgl\src\lv_hal/lv_hal_tick.c ****                                 Continue until make a non interrupted cycle */
 116              		.loc 1 69 0
 117 000a 1A78     		ldrb	r2, [r3]	@ zero_extendqisi2
 118 000c 002A     		cmp	r2, #0
 119 000e FBD0     		beq	.L12
 120              	.LVL5:
 121              	.LBE5:
 122              	.LBE4:
  85:..\..\..\lvgl\version_6.1.2\lvgl\src\lv_hal/lv_hal_tick.c ****     uint32_t act_time = lv_tick_get();
  86:..\..\..\lvgl\version_6.1.2\lvgl\src\lv_hal/lv_hal_tick.c **** 
  87:..\..\..\lvgl\version_6.1.2\lvgl\src\lv_hal/lv_hal_tick.c ****     /*If there is no overflow in sys_time simple subtract*/
  88:..\..\..\lvgl\version_6.1.2\lvgl\src\lv_hal/lv_hal_tick.c ****     if(act_time >= prev_tick) {
  89:..\..\..\lvgl\version_6.1.2\lvgl\src\lv_hal/lv_hal_tick.c ****         prev_tick = act_time - prev_tick;
  90:..\..\..\lvgl\version_6.1.2\lvgl\src\lv_hal/lv_hal_tick.c ****     } else {
  91:..\..\..\lvgl\version_6.1.2\lvgl\src\lv_hal/lv_hal_tick.c ****         prev_tick = UINT32_MAX - prev_tick + 1;
  92:..\..\..\lvgl\version_6.1.2\lvgl\src\lv_hal/lv_hal_tick.c ****         prev_tick += act_time;
  93:..\..\..\lvgl\version_6.1.2\lvgl\src\lv_hal/lv_hal_tick.c ****     }
  94:..\..\..\lvgl\version_6.1.2\lvgl\src\lv_hal/lv_hal_tick.c **** 
  95:..\..\..\lvgl\version_6.1.2\lvgl\src\lv_hal/lv_hal_tick.c ****     return prev_tick;
  96:..\..\..\lvgl\version_6.1.2\lvgl\src\lv_hal/lv_hal_tick.c **** }
 123              		.loc 1 96 0
 124 0010 201A     		subs	r0, r4, r0
 125              	.LVL6:
 126 0012 5DF8044B 		ldr	r4, [sp], #4
 127              		.cfi_restore 4
 128              		.cfi_def_cfa_offset 0
ARM GAS  C:\Users\pearlstl\AppData\Local\Temp\ccigVjWt.s 			page 5


 129 0016 7047     		bx	lr
 130              	.L19:
 131              		.align	2
 132              	.L18:
 133 0018 00000000 		.word	.LANCHOR0
 134              		.cfi_endproc
 135              	.LFE2:
 136              		.size	lv_tick_elaps, .-lv_tick_elaps
 137              		.bss
 138              		.align	2
 139              		.set	.LANCHOR0,. + 0
 140              		.type	tick_irq_flag, %object
 141              		.size	tick_irq_flag, 1
 142              	tick_irq_flag:
 143 0000 00       		.space	1
 144 0001 000000   		.space	3
 145              		.type	sys_time, %object
 146              		.size	sys_time, 4
 147              	sys_time:
 148 0004 00000000 		.space	4
 149              		.text
 150              	.Letext0:
 151              		.file 2 "c:\\program files (x86)\\cypress\\psoc creator\\4.2\\psoc creator\\import\\gnu\\arm\\5.4.
 152              		.file 3 "c:\\program files (x86)\\cypress\\psoc creator\\4.2\\psoc creator\\import\\gnu\\arm\\5.4.