ARM GAS  C:\Users\pearlstl\AppData\Local\Temp\cct01Du5.s 			page 1


   1              		.syntax unified
   2              		.cpu cortex-m4
   3              		.eabi_attribute 27, 1
   4              		.fpu fpv4-sp-d16
   5              		.eabi_attribute 20, 1
   6              		.eabi_attribute 21, 1
   7              		.eabi_attribute 23, 3
   8              		.eabi_attribute 24, 1
   9              		.eabi_attribute 25, 1
  10              		.eabi_attribute 26, 1
  11              		.eabi_attribute 30, 2
  12              		.eabi_attribute 34, 1
  13              		.eabi_attribute 18, 4
  14              		.thumb
  15              		.syntax unified
  16              		.file	"lv_hal_disp.c"
  17              		.text
  18              	.Ltext0:
  19              		.cfi_sections	.debug_frame
  20              		.section	.text.lv_disp_drv_init,"ax",%progbits
  21              		.align	2
  22              		.global	lv_disp_drv_init
  23              		.thumb
  24              		.thumb_func
  25              		.type	lv_disp_drv_init, %function
  26              	lv_disp_drv_init:
  27              	.LFB31:
  28              		.file 1 "..\\..\\..\\lvgl\\version_6.1.2\\lvgl\\src\\lv_hal\\lv_hal_disp.c"
   1:..\..\..\lvgl\version_6.1.2\lvgl\src\lv_hal/lv_hal_disp.c **** 
   2:..\..\..\lvgl\version_6.1.2\lvgl\src\lv_hal/lv_hal_disp.c **** /**
   3:..\..\..\lvgl\version_6.1.2\lvgl\src\lv_hal/lv_hal_disp.c ****  * @file hal_disp.c
   4:..\..\..\lvgl\version_6.1.2\lvgl\src\lv_hal/lv_hal_disp.c ****  *
   5:..\..\..\lvgl\version_6.1.2\lvgl\src\lv_hal/lv_hal_disp.c ****  * @description HAL layer for display driver
   6:..\..\..\lvgl\version_6.1.2\lvgl\src\lv_hal/lv_hal_disp.c ****  *
   7:..\..\..\lvgl\version_6.1.2\lvgl\src\lv_hal/lv_hal_disp.c ****  */
   8:..\..\..\lvgl\version_6.1.2\lvgl\src\lv_hal/lv_hal_disp.c **** 
   9:..\..\..\lvgl\version_6.1.2\lvgl\src\lv_hal/lv_hal_disp.c **** /*********************
  10:..\..\..\lvgl\version_6.1.2\lvgl\src\lv_hal/lv_hal_disp.c ****  *      INCLUDES
  11:..\..\..\lvgl\version_6.1.2\lvgl\src\lv_hal/lv_hal_disp.c ****  *********************/
  12:..\..\..\lvgl\version_6.1.2\lvgl\src\lv_hal/lv_hal_disp.c **** #include <stdint.h>
  13:..\..\..\lvgl\version_6.1.2\lvgl\src\lv_hal/lv_hal_disp.c **** #include <stddef.h>
  14:..\..\..\lvgl\version_6.1.2\lvgl\src\lv_hal/lv_hal_disp.c **** #include "lv_hal.h"
  15:..\..\..\lvgl\version_6.1.2\lvgl\src\lv_hal/lv_hal_disp.c **** #include "../lv_core/lv_debug.h"
  16:..\..\..\lvgl\version_6.1.2\lvgl\src\lv_hal/lv_hal_disp.c **** #include "../lv_misc/lv_mem.h"
  17:..\..\..\lvgl\version_6.1.2\lvgl\src\lv_hal/lv_hal_disp.c **** #include "../lv_core/lv_obj.h"
  18:..\..\..\lvgl\version_6.1.2\lvgl\src\lv_hal/lv_hal_disp.c **** #include "../lv_core/lv_refr.h"
  19:..\..\..\lvgl\version_6.1.2\lvgl\src\lv_hal/lv_hal_disp.c **** #include "../lv_misc/lv_gc.h"
  20:..\..\..\lvgl\version_6.1.2\lvgl\src\lv_hal/lv_hal_disp.c **** 
  21:..\..\..\lvgl\version_6.1.2\lvgl\src\lv_hal/lv_hal_disp.c **** #if defined(LV_GC_INCLUDE)
  22:..\..\..\lvgl\version_6.1.2\lvgl\src\lv_hal/lv_hal_disp.c **** #include LV_GC_INCLUDE
  23:..\..\..\lvgl\version_6.1.2\lvgl\src\lv_hal/lv_hal_disp.c **** #endif /* LV_ENABLE_GC */
  24:..\..\..\lvgl\version_6.1.2\lvgl\src\lv_hal/lv_hal_disp.c **** 
  25:..\..\..\lvgl\version_6.1.2\lvgl\src\lv_hal/lv_hal_disp.c **** /*********************
  26:..\..\..\lvgl\version_6.1.2\lvgl\src\lv_hal/lv_hal_disp.c ****  *      DEFINES
  27:..\..\..\lvgl\version_6.1.2\lvgl\src\lv_hal/lv_hal_disp.c ****  *********************/
  28:..\..\..\lvgl\version_6.1.2\lvgl\src\lv_hal/lv_hal_disp.c **** 
  29:..\..\..\lvgl\version_6.1.2\lvgl\src\lv_hal/lv_hal_disp.c **** /**********************
ARM GAS  C:\Users\pearlstl\AppData\Local\Temp\cct01Du5.s 			page 2


  30:..\..\..\lvgl\version_6.1.2\lvgl\src\lv_hal/lv_hal_disp.c ****  *      TYPEDEFS
  31:..\..\..\lvgl\version_6.1.2\lvgl\src\lv_hal/lv_hal_disp.c ****  **********************/
  32:..\..\..\lvgl\version_6.1.2\lvgl\src\lv_hal/lv_hal_disp.c **** 
  33:..\..\..\lvgl\version_6.1.2\lvgl\src\lv_hal/lv_hal_disp.c **** /**********************
  34:..\..\..\lvgl\version_6.1.2\lvgl\src\lv_hal/lv_hal_disp.c ****  *  STATIC PROTOTYPES
  35:..\..\..\lvgl\version_6.1.2\lvgl\src\lv_hal/lv_hal_disp.c ****  **********************/
  36:..\..\..\lvgl\version_6.1.2\lvgl\src\lv_hal/lv_hal_disp.c **** 
  37:..\..\..\lvgl\version_6.1.2\lvgl\src\lv_hal/lv_hal_disp.c **** /**********************
  38:..\..\..\lvgl\version_6.1.2\lvgl\src\lv_hal/lv_hal_disp.c ****  *  STATIC VARIABLES
  39:..\..\..\lvgl\version_6.1.2\lvgl\src\lv_hal/lv_hal_disp.c ****  **********************/
  40:..\..\..\lvgl\version_6.1.2\lvgl\src\lv_hal/lv_hal_disp.c **** static lv_disp_t * disp_def;
  41:..\..\..\lvgl\version_6.1.2\lvgl\src\lv_hal/lv_hal_disp.c **** 
  42:..\..\..\lvgl\version_6.1.2\lvgl\src\lv_hal/lv_hal_disp.c **** /**********************
  43:..\..\..\lvgl\version_6.1.2\lvgl\src\lv_hal/lv_hal_disp.c ****  *      MACROS
  44:..\..\..\lvgl\version_6.1.2\lvgl\src\lv_hal/lv_hal_disp.c ****  **********************/
  45:..\..\..\lvgl\version_6.1.2\lvgl\src\lv_hal/lv_hal_disp.c **** 
  46:..\..\..\lvgl\version_6.1.2\lvgl\src\lv_hal/lv_hal_disp.c **** /**********************
  47:..\..\..\lvgl\version_6.1.2\lvgl\src\lv_hal/lv_hal_disp.c ****  *   GLOBAL FUNCTIONS
  48:..\..\..\lvgl\version_6.1.2\lvgl\src\lv_hal/lv_hal_disp.c ****  **********************/
  49:..\..\..\lvgl\version_6.1.2\lvgl\src\lv_hal/lv_hal_disp.c **** 
  50:..\..\..\lvgl\version_6.1.2\lvgl\src\lv_hal/lv_hal_disp.c **** /**
  51:..\..\..\lvgl\version_6.1.2\lvgl\src\lv_hal/lv_hal_disp.c ****  * Initialize a display driver with default values.
  52:..\..\..\lvgl\version_6.1.2\lvgl\src\lv_hal/lv_hal_disp.c ****  * It is used to surly have known values in the fields ant not memory junk.
  53:..\..\..\lvgl\version_6.1.2\lvgl\src\lv_hal/lv_hal_disp.c ****  * After it you can set the fields.
  54:..\..\..\lvgl\version_6.1.2\lvgl\src\lv_hal/lv_hal_disp.c ****  * @param driver pointer to driver variable to initialize
  55:..\..\..\lvgl\version_6.1.2\lvgl\src\lv_hal/lv_hal_disp.c ****  */
  56:..\..\..\lvgl\version_6.1.2\lvgl\src\lv_hal/lv_hal_disp.c **** void lv_disp_drv_init(lv_disp_drv_t * driver)
  57:..\..\..\lvgl\version_6.1.2\lvgl\src\lv_hal/lv_hal_disp.c **** {
  29              		.loc 1 57 0
  30              		.cfi_startproc
  31              		@ args = 0, pretend = 0, frame = 0
  32              		@ frame_needed = 0, uses_anonymous_args = 0
  33              	.LVL0:
  34 0000 38B5     		push	{r3, r4, r5, lr}
  35              		.cfi_def_cfa_offset 16
  36              		.cfi_offset 3, -16
  37              		.cfi_offset 4, -12
  38              		.cfi_offset 5, -8
  39              		.cfi_offset 14, -4
  58:..\..\..\lvgl\version_6.1.2\lvgl\src\lv_hal/lv_hal_disp.c ****     memset(driver, 0, sizeof(lv_disp_drv_t));
  40              		.loc 1 58 0
  41 0002 2022     		movs	r2, #32
  42 0004 0021     		movs	r1, #0
  57:..\..\..\lvgl\version_6.1.2\lvgl\src\lv_hal/lv_hal_disp.c ****     memset(driver, 0, sizeof(lv_disp_drv_t));
  43              		.loc 1 57 0
  44 0006 0446     		mov	r4, r0
  45              		.loc 1 58 0
  46 0008 FFF7FEFF 		bl	memset
  47              	.LVL1:
  59:..\..\..\lvgl\version_6.1.2\lvgl\src\lv_hal/lv_hal_disp.c **** 
  60:..\..\..\lvgl\version_6.1.2\lvgl\src\lv_hal/lv_hal_disp.c ****     driver->flush_cb         = NULL;
  48              		.loc 1 60 0
  49 000c 0023     		movs	r3, #0
  61:..\..\..\lvgl\version_6.1.2\lvgl\src\lv_hal/lv_hal_disp.c ****     driver->hor_res          = LV_HOR_RES_MAX;
  62:..\..\..\lvgl\version_6.1.2\lvgl\src\lv_hal/lv_hal_disp.c ****     driver->ver_res          = LV_VER_RES_MAX;
  63:..\..\..\lvgl\version_6.1.2\lvgl\src\lv_hal/lv_hal_disp.c ****     driver->buffer           = NULL;
  64:..\..\..\lvgl\version_6.1.2\lvgl\src\lv_hal/lv_hal_disp.c ****     driver->rotated          = 0;
ARM GAS  C:\Users\pearlstl\AppData\Local\Temp\cct01Du5.s 			page 3


  50              		.loc 1 64 0
  51 000e 4FF00001 		mov	r1, #0
  65:..\..\..\lvgl\version_6.1.2\lvgl\src\lv_hal/lv_hal_disp.c ****     driver->color_chroma_key = LV_COLOR_TRANSP;
  52              		.loc 1 65 0
  53 0012 FF22     		movs	r2, #255
  64:..\..\..\lvgl\version_6.1.2\lvgl\src\lv_hal/lv_hal_disp.c ****     driver->color_chroma_key = LV_COLOR_TRANSP;
  54              		.loc 1 64 0
  55 0014 63F30001 		bfi	r1, r3, #0, #1
  61:..\..\..\lvgl\version_6.1.2\lvgl\src\lv_hal/lv_hal_disp.c ****     driver->hor_res          = LV_HOR_RES_MAX;
  56              		.loc 1 61 0
  57 0018 4FF4A075 		mov	r5, #320
  62:..\..\..\lvgl\version_6.1.2\lvgl\src\lv_hal/lv_hal_disp.c ****     driver->buffer           = NULL;
  58              		.loc 1 62 0
  59 001c 4FF4F070 		mov	r0, #480
  60              		.loc 1 65 0
  61 0020 2377     		strb	r3, [r4, #28]
  62 0022 A377     		strb	r3, [r4, #30]
  64:..\..\..\lvgl\version_6.1.2\lvgl\src\lv_hal/lv_hal_disp.c ****     driver->color_chroma_key = LV_COLOR_TRANSP;
  63              		.loc 1 64 0
  64 0024 2172     		strb	r1, [r4, #8]
  65              		.loc 1 65 0
  66 0026 6277     		strb	r2, [r4, #29]
  67 0028 E277     		strb	r2, [r4, #31]
  61:..\..\..\lvgl\version_6.1.2\lvgl\src\lv_hal/lv_hal_disp.c ****     driver->ver_res          = LV_VER_RES_MAX;
  68              		.loc 1 61 0
  69 002a 2580     		strh	r5, [r4]	@ movhi
  62:..\..\..\lvgl\version_6.1.2\lvgl\src\lv_hal/lv_hal_disp.c ****     driver->buffer           = NULL;
  70              		.loc 1 62 0
  71 002c 6080     		strh	r0, [r4, #2]	@ movhi
  72              		.loc 1 65 0
  73 002e 38BD     		pop	{r3, r4, r5, pc}
  74              		.cfi_endproc
  75              	.LFE31:
  76              		.size	lv_disp_drv_init, .-lv_disp_drv_init
  77              		.section	.text.lv_disp_buf_init,"ax",%progbits
  78              		.align	2
  79              		.global	lv_disp_buf_init
  80              		.thumb
  81              		.thumb_func
  82              		.type	lv_disp_buf_init, %function
  83              	lv_disp_buf_init:
  84              	.LFB32:
  66:..\..\..\lvgl\version_6.1.2\lvgl\src\lv_hal/lv_hal_disp.c **** 
  67:..\..\..\lvgl\version_6.1.2\lvgl\src\lv_hal/lv_hal_disp.c **** #if LV_ANTIALIAS
  68:..\..\..\lvgl\version_6.1.2\lvgl\src\lv_hal/lv_hal_disp.c ****     driver->antialiasing = true;
  69:..\..\..\lvgl\version_6.1.2\lvgl\src\lv_hal/lv_hal_disp.c **** #endif
  70:..\..\..\lvgl\version_6.1.2\lvgl\src\lv_hal/lv_hal_disp.c **** 
  71:..\..\..\lvgl\version_6.1.2\lvgl\src\lv_hal/lv_hal_disp.c **** #if LV_COLOR_SCREEN_TRANSP
  72:..\..\..\lvgl\version_6.1.2\lvgl\src\lv_hal/lv_hal_disp.c ****     driver->screen_transp = 1;
  73:..\..\..\lvgl\version_6.1.2\lvgl\src\lv_hal/lv_hal_disp.c **** #endif
  74:..\..\..\lvgl\version_6.1.2\lvgl\src\lv_hal/lv_hal_disp.c **** 
  75:..\..\..\lvgl\version_6.1.2\lvgl\src\lv_hal/lv_hal_disp.c **** #if LV_USE_GPU
  76:..\..\..\lvgl\version_6.1.2\lvgl\src\lv_hal/lv_hal_disp.c ****     driver->gpu_blend_cb = NULL;
  77:..\..\..\lvgl\version_6.1.2\lvgl\src\lv_hal/lv_hal_disp.c ****     driver->gpu_fill_cb  = NULL;
  78:..\..\..\lvgl\version_6.1.2\lvgl\src\lv_hal/lv_hal_disp.c **** #endif
  79:..\..\..\lvgl\version_6.1.2\lvgl\src\lv_hal/lv_hal_disp.c **** 
  80:..\..\..\lvgl\version_6.1.2\lvgl\src\lv_hal/lv_hal_disp.c **** #if LV_USE_USER_DATA
ARM GAS  C:\Users\pearlstl\AppData\Local\Temp\cct01Du5.s 			page 4


  81:..\..\..\lvgl\version_6.1.2\lvgl\src\lv_hal/lv_hal_disp.c ****     driver->user_data = NULL;
  82:..\..\..\lvgl\version_6.1.2\lvgl\src\lv_hal/lv_hal_disp.c **** #endif
  83:..\..\..\lvgl\version_6.1.2\lvgl\src\lv_hal/lv_hal_disp.c **** 
  84:..\..\..\lvgl\version_6.1.2\lvgl\src\lv_hal/lv_hal_disp.c ****     driver->set_px_cb = NULL;
  85:..\..\..\lvgl\version_6.1.2\lvgl\src\lv_hal/lv_hal_disp.c **** }
  86:..\..\..\lvgl\version_6.1.2\lvgl\src\lv_hal/lv_hal_disp.c **** 
  87:..\..\..\lvgl\version_6.1.2\lvgl\src\lv_hal/lv_hal_disp.c **** /**
  88:..\..\..\lvgl\version_6.1.2\lvgl\src\lv_hal/lv_hal_disp.c ****  * Initialize a display buffer
  89:..\..\..\lvgl\version_6.1.2\lvgl\src\lv_hal/lv_hal_disp.c ****  * @param disp_buf pointer `lv_disp_buf_t` variable to initialize
  90:..\..\..\lvgl\version_6.1.2\lvgl\src\lv_hal/lv_hal_disp.c ****  * @param buf1 A buffer to be used by LittlevGL to draw the image.
  91:..\..\..\lvgl\version_6.1.2\lvgl\src\lv_hal/lv_hal_disp.c ****  *             Always has to specified and can't be NULL.
  92:..\..\..\lvgl\version_6.1.2\lvgl\src\lv_hal/lv_hal_disp.c ****  *             Can be an array allocated by the user. E.g. `static lv_color_t disp_buf1[1024 * 10]`
  93:..\..\..\lvgl\version_6.1.2\lvgl\src\lv_hal/lv_hal_disp.c ****  *             Or a memory address e.g. in external SRAM
  94:..\..\..\lvgl\version_6.1.2\lvgl\src\lv_hal/lv_hal_disp.c ****  * @param buf2 Optionally specify a second buffer to make image rendering and image flushing
  95:..\..\..\lvgl\version_6.1.2\lvgl\src\lv_hal/lv_hal_disp.c ****  *             (sending to the display) parallel.
  96:..\..\..\lvgl\version_6.1.2\lvgl\src\lv_hal/lv_hal_disp.c ****  *             In the `disp_drv->flush` you should use DMA or similar hardware to send
  97:..\..\..\lvgl\version_6.1.2\lvgl\src\lv_hal/lv_hal_disp.c ****  *             the image to the display in the background.
  98:..\..\..\lvgl\version_6.1.2\lvgl\src\lv_hal/lv_hal_disp.c ****  *             It lets LittlevGL to render next frame into the other buffer while previous is being
  99:..\..\..\lvgl\version_6.1.2\lvgl\src\lv_hal/lv_hal_disp.c ****  * sent. Set to `NULL` if unused.
 100:..\..\..\lvgl\version_6.1.2\lvgl\src\lv_hal/lv_hal_disp.c ****  * @param size_in_px_cnt size of the `buf1` and `buf2` in pixel count.
 101:..\..\..\lvgl\version_6.1.2\lvgl\src\lv_hal/lv_hal_disp.c ****  */
 102:..\..\..\lvgl\version_6.1.2\lvgl\src\lv_hal/lv_hal_disp.c **** void lv_disp_buf_init(lv_disp_buf_t * disp_buf, void * buf1, void * buf2, uint32_t size_in_px_cnt)
 103:..\..\..\lvgl\version_6.1.2\lvgl\src\lv_hal/lv_hal_disp.c **** {
  85              		.loc 1 103 0
  86              		.cfi_startproc
  87              		@ args = 0, pretend = 0, frame = 0
  88              		@ frame_needed = 0, uses_anonymous_args = 0
  89              		@ link register save eliminated.
  90              	.LVL2:
  91 0000 10B4     		push	{r4}
  92              		.cfi_def_cfa_offset 4
  93              		.cfi_offset 4, -4
 104:..\..\..\lvgl\version_6.1.2\lvgl\src\lv_hal/lv_hal_disp.c ****     memset(disp_buf, 0, sizeof(lv_disp_buf_t));
  94              		.loc 1 104 0
  95 0002 0024     		movs	r4, #0
  96 0004 0461     		str	r4, [r0, #16]	@ unaligned
  97 0006 4461     		str	r4, [r0, #20]	@ unaligned
  98 0008 8461     		str	r4, [r0, #24]	@ unaligned
 105:..\..\..\lvgl\version_6.1.2\lvgl\src\lv_hal/lv_hal_disp.c **** 
 106:..\..\..\lvgl\version_6.1.2\lvgl\src\lv_hal/lv_hal_disp.c ****     disp_buf->buf1    = buf1;
 107:..\..\..\lvgl\version_6.1.2\lvgl\src\lv_hal/lv_hal_disp.c ****     disp_buf->buf2    = buf2;
  99              		.loc 1 107 0
 100 000a 4260     		str	r2, [r0, #4]
 108:..\..\..\lvgl\version_6.1.2\lvgl\src\lv_hal/lv_hal_disp.c ****     disp_buf->buf_act = disp_buf->buf1;
 109:..\..\..\lvgl\version_6.1.2\lvgl\src\lv_hal/lv_hal_disp.c ****     disp_buf->size    = size_in_px_cnt;
 101              		.loc 1 109 0
 102 000c C360     		str	r3, [r0, #12]
 106:..\..\..\lvgl\version_6.1.2\lvgl\src\lv_hal/lv_hal_disp.c ****     disp_buf->buf2    = buf2;
 103              		.loc 1 106 0
 104 000e 0160     		str	r1, [r0]
 108:..\..\..\lvgl\version_6.1.2\lvgl\src\lv_hal/lv_hal_disp.c ****     disp_buf->buf_act = disp_buf->buf1;
 105              		.loc 1 108 0
 106 0010 8160     		str	r1, [r0, #8]
 110:..\..\..\lvgl\version_6.1.2\lvgl\src\lv_hal/lv_hal_disp.c **** }
 107              		.loc 1 110 0
 108 0012 5DF8044B 		ldr	r4, [sp], #4
 109              		.cfi_restore 4
ARM GAS  C:\Users\pearlstl\AppData\Local\Temp\cct01Du5.s 			page 5


 110              		.cfi_def_cfa_offset 0
 111 0016 7047     		bx	lr
 112              		.cfi_endproc
 113              	.LFE32:
 114              		.size	lv_disp_buf_init, .-lv_disp_buf_init
 115              		.section	.text.lv_disp_drv_register,"ax",%progbits
 116              		.align	2
 117              		.global	lv_disp_drv_register
 118              		.thumb
 119              		.thumb_func
 120              		.type	lv_disp_drv_register, %function
 121              	lv_disp_drv_register:
 122              	.LFB33:
 111:..\..\..\lvgl\version_6.1.2\lvgl\src\lv_hal/lv_hal_disp.c **** 
 112:..\..\..\lvgl\version_6.1.2\lvgl\src\lv_hal/lv_hal_disp.c **** /**
 113:..\..\..\lvgl\version_6.1.2\lvgl\src\lv_hal/lv_hal_disp.c ****  * Register an initialized display driver.
 114:..\..\..\lvgl\version_6.1.2\lvgl\src\lv_hal/lv_hal_disp.c ****  * Automatically set the first display as active.
 115:..\..\..\lvgl\version_6.1.2\lvgl\src\lv_hal/lv_hal_disp.c ****  * @param driver pointer to an initialized 'lv_disp_drv_t' variable (can be local variable)
 116:..\..\..\lvgl\version_6.1.2\lvgl\src\lv_hal/lv_hal_disp.c ****  * @return pointer to the new display or NULL on error
 117:..\..\..\lvgl\version_6.1.2\lvgl\src\lv_hal/lv_hal_disp.c ****  */
 118:..\..\..\lvgl\version_6.1.2\lvgl\src\lv_hal/lv_hal_disp.c **** lv_disp_t * lv_disp_drv_register(lv_disp_drv_t * driver)
 119:..\..\..\lvgl\version_6.1.2\lvgl\src\lv_hal/lv_hal_disp.c **** {
 123              		.loc 1 119 0
 124              		.cfi_startproc
 125              		@ args = 0, pretend = 0, frame = 0
 126              		@ frame_needed = 0, uses_anonymous_args = 0
 127              	.LVL3:
 128 0000 F8B5     		push	{r3, r4, r5, r6, r7, lr}
 129              		.cfi_def_cfa_offset 24
 130              		.cfi_offset 3, -24
 131              		.cfi_offset 4, -20
 132              		.cfi_offset 5, -16
 133              		.cfi_offset 6, -12
 134              		.cfi_offset 7, -8
 135              		.cfi_offset 14, -4
 136              		.loc 1 119 0
 137 0002 0546     		mov	r5, r0
 120:..\..\..\lvgl\version_6.1.2\lvgl\src\lv_hal/lv_hal_disp.c ****     lv_disp_t * disp = lv_ll_ins_head(&LV_GC_ROOT(_lv_disp_ll));
 138              		.loc 1 120 0
 139 0004 2F48     		ldr	r0, .L16
 140              	.LVL4:
 141 0006 FFF7FEFF 		bl	lv_ll_ins_head
 142              	.LVL5:
 121:..\..\..\lvgl\version_6.1.2\lvgl\src\lv_hal/lv_hal_disp.c ****     if(!disp) {
 143              		.loc 1 121 0
 144 000a 0028     		cmp	r0, #0
 145 000c 58D0     		beq	.L9
 146 000e 0446     		mov	r4, r0
 122:..\..\..\lvgl\version_6.1.2\lvgl\src\lv_hal/lv_hal_disp.c ****         LV_ASSERT_MEM(disp);
 123:..\..\..\lvgl\version_6.1.2\lvgl\src\lv_hal/lv_hal_disp.c ****         return NULL;
 124:..\..\..\lvgl\version_6.1.2\lvgl\src\lv_hal/lv_hal_disp.c ****     }
 125:..\..\..\lvgl\version_6.1.2\lvgl\src\lv_hal/lv_hal_disp.c **** 
 126:..\..\..\lvgl\version_6.1.2\lvgl\src\lv_hal/lv_hal_disp.c ****     memcpy(&disp->driver, driver, sizeof(lv_disp_drv_t));
 147              		.loc 1 126 0
 148 0010 2968     		ldr	r1, [r5]	@ unaligned
 149 0012 6A68     		ldr	r2, [r5, #4]	@ unaligned
 150 0014 AB68     		ldr	r3, [r5, #8]	@ unaligned
ARM GAS  C:\Users\pearlstl\AppData\Local\Temp\cct01Du5.s 			page 6


 151 0016 E868     		ldr	r0, [r5, #12]	@ unaligned
 152              	.LVL6:
 153 0018 E060     		str	r0, [r4, #12]	@ unaligned
 154 001a 2160     		str	r1, [r4]	@ unaligned
 155 001c 6260     		str	r2, [r4, #4]	@ unaligned
 156 001e A360     		str	r3, [r4, #8]	@ unaligned
 157 0020 AB69     		ldr	r3, [r5, #24]	@ unaligned
 158 0022 2969     		ldr	r1, [r5, #16]	@ unaligned
 159 0024 6A69     		ldr	r2, [r5, #20]	@ unaligned
 160 0026 E869     		ldr	r0, [r5, #28]	@ unaligned
 161 0028 E061     		str	r0, [r4, #28]	@ unaligned
 162 002a A361     		str	r3, [r4, #24]	@ unaligned
 163 002c 2161     		str	r1, [r4, #16]	@ unaligned
 164 002e 6261     		str	r2, [r4, #20]	@ unaligned
 127:..\..\..\lvgl\version_6.1.2\lvgl\src\lv_hal/lv_hal_disp.c ****     memset(&disp->inv_area_joined, 0, sizeof(disp->inv_area_joined));
 165              		.loc 1 127 0
 166 0030 0021     		movs	r1, #0
 167 0032 2022     		movs	r2, #32
 168 0034 04F59E70 		add	r0, r4, #316
 169 0038 FFF7FEFF 		bl	memset
 170              	.LVL7:
 128:..\..\..\lvgl\version_6.1.2\lvgl\src\lv_hal/lv_hal_disp.c ****     memset(&disp->inv_areas, 0, sizeof(disp->inv_areas));
 171              		.loc 1 128 0
 172 003c 4FF48072 		mov	r2, #256
 173 0040 0021     		movs	r1, #0
 174 0042 04F13C00 		add	r0, r4, #60
 175 0046 FFF7FEFF 		bl	memset
 176              	.LVL8:
 129:..\..\..\lvgl\version_6.1.2\lvgl\src\lv_hal/lv_hal_disp.c ****     lv_ll_init(&disp->scr_ll, sizeof(lv_obj_t));
 177              		.loc 1 129 0
 178 004a 4021     		movs	r1, #64
 179 004c 04F12400 		add	r0, r4, #36
 180 0050 FFF7FEFF 		bl	lv_ll_init
 181              	.LVL9:
 130:..\..\..\lvgl\version_6.1.2\lvgl\src\lv_hal/lv_hal_disp.c ****     disp->last_activity_time = 0;
 131:..\..\..\lvgl\version_6.1.2\lvgl\src\lv_hal/lv_hal_disp.c **** 
 132:..\..\..\lvgl\version_6.1.2\lvgl\src\lv_hal/lv_hal_disp.c ****     if(disp_def == NULL) disp_def = disp;
 133:..\..\..\lvgl\version_6.1.2\lvgl\src\lv_hal/lv_hal_disp.c **** 
 134:..\..\..\lvgl\version_6.1.2\lvgl\src\lv_hal/lv_hal_disp.c ****     lv_disp_t * disp_def_tmp = disp_def;
 135:..\..\..\lvgl\version_6.1.2\lvgl\src\lv_hal/lv_hal_disp.c ****     disp_def                 = disp; /*Temporarily change the default screen to create the default 
 136:..\..\..\lvgl\version_6.1.2\lvgl\src\lv_hal/lv_hal_disp.c ****                                         new display*/
 137:..\..\..\lvgl\version_6.1.2\lvgl\src\lv_hal/lv_hal_disp.c **** 
 138:..\..\..\lvgl\version_6.1.2\lvgl\src\lv_hal/lv_hal_disp.c ****     disp->inv_p = 0;
 182              		.loc 1 138 0
 183 0054 B4F85C31 		ldrh	r3, [r4, #348]
 132:..\..\..\lvgl\version_6.1.2\lvgl\src\lv_hal/lv_hal_disp.c **** 
 184              		.loc 1 132 0
 185 0058 1B4F     		ldr	r7, .L16+4
 130:..\..\..\lvgl\version_6.1.2\lvgl\src\lv_hal/lv_hal_disp.c ****     disp->last_activity_time = 0;
 186              		.loc 1 130 0
 187 005a 0025     		movs	r5, #0
 188              	.LVL10:
 189              		.loc 1 138 0
 190 005c 65F30903 		bfi	r3, r5, #0, #10
 191 0060 A4F85C31 		strh	r3, [r4, #348]	@ movhi
 139:..\..\..\lvgl\version_6.1.2\lvgl\src\lv_hal/lv_hal_disp.c **** 
 140:..\..\..\lvgl\version_6.1.2\lvgl\src\lv_hal/lv_hal_disp.c ****     disp->act_scr   = lv_obj_create(NULL, NULL); /*Create a default screen on the display*/
ARM GAS  C:\Users\pearlstl\AppData\Local\Temp\cct01Du5.s 			page 7


 192              		.loc 1 140 0
 193 0064 2946     		mov	r1, r5
 130:..\..\..\lvgl\version_6.1.2\lvgl\src\lv_hal/lv_hal_disp.c **** 
 194              		.loc 1 130 0
 195 0066 C4F86051 		str	r5, [r4, #352]
 196              		.loc 1 140 0
 197 006a 2846     		mov	r0, r5
 132:..\..\..\lvgl\version_6.1.2\lvgl\src\lv_hal/lv_hal_disp.c **** 
 198              		.loc 1 132 0
 199 006c 3E68     		ldr	r6, [r7]
 135:..\..\..\lvgl\version_6.1.2\lvgl\src\lv_hal/lv_hal_disp.c ****                                         new display*/
 200              		.loc 1 135 0
 201 006e 3C60     		str	r4, [r7]
 202              		.loc 1 140 0
 203 0070 FFF7FEFF 		bl	lv_obj_create
 204              	.LVL11:
 141:..\..\..\lvgl\version_6.1.2\lvgl\src\lv_hal/lv_hal_disp.c ****     disp->top_layer = lv_obj_create(NULL, NULL); /*Create top layer on the display*/
 205              		.loc 1 141 0
 206 0074 2946     		mov	r1, r5
 140:..\..\..\lvgl\version_6.1.2\lvgl\src\lv_hal/lv_hal_disp.c ****     disp->top_layer = lv_obj_create(NULL, NULL); /*Create top layer on the display*/
 207              		.loc 1 140 0
 208 0076 2063     		str	r0, [r4, #48]
 209              		.loc 1 141 0
 210 0078 2846     		mov	r0, r5
 211 007a FFF7FEFF 		bl	lv_obj_create
 212              	.LVL12:
 142:..\..\..\lvgl\version_6.1.2\lvgl\src\lv_hal/lv_hal_disp.c ****     disp->sys_layer = lv_obj_create(NULL, NULL); /*Create sys layer on the display*/
 213              		.loc 1 142 0
 214 007e 2946     		mov	r1, r5
 141:..\..\..\lvgl\version_6.1.2\lvgl\src\lv_hal/lv_hal_disp.c ****     disp->top_layer = lv_obj_create(NULL, NULL); /*Create top layer on the display*/
 215              		.loc 1 141 0
 216 0080 6063     		str	r0, [r4, #52]
 217              		.loc 1 142 0
 218 0082 2846     		mov	r0, r5
 219 0084 FFF7FEFF 		bl	lv_obj_create
 220              	.LVL13:
 143:..\..\..\lvgl\version_6.1.2\lvgl\src\lv_hal/lv_hal_disp.c ****     lv_obj_set_style(disp->top_layer, &lv_style_transp);
 221              		.loc 1 143 0
 222 0088 1049     		ldr	r1, .L16+8
 142:..\..\..\lvgl\version_6.1.2\lvgl\src\lv_hal/lv_hal_disp.c ****     disp->sys_layer = lv_obj_create(NULL, NULL); /*Create sys layer on the display*/
 223              		.loc 1 142 0
 224 008a A063     		str	r0, [r4, #56]
 225              		.loc 1 143 0
 226 008c 606B     		ldr	r0, [r4, #52]
 227 008e FFF7FEFF 		bl	lv_obj_set_style
 228              	.LVL14:
 144:..\..\..\lvgl\version_6.1.2\lvgl\src\lv_hal/lv_hal_disp.c ****     lv_obj_set_style(disp->sys_layer, &lv_style_transp);
 229              		.loc 1 144 0
 230 0092 0E49     		ldr	r1, .L16+8
 231 0094 A06B     		ldr	r0, [r4, #56]
 232 0096 FFF7FEFF 		bl	lv_obj_set_style
 233              	.LVL15:
 145:..\..\..\lvgl\version_6.1.2\lvgl\src\lv_hal/lv_hal_disp.c **** 
 146:..\..\..\lvgl\version_6.1.2\lvgl\src\lv_hal/lv_hal_disp.c ****     lv_obj_invalidate(disp->act_scr);
 234              		.loc 1 146 0
 235 009a 206B     		ldr	r0, [r4, #48]
 236 009c FFF7FEFF 		bl	lv_obj_invalidate
ARM GAS  C:\Users\pearlstl\AppData\Local\Temp\cct01Du5.s 			page 8


 237              	.LVL16:
 238 00a0 AE42     		cmp	r6, r5
 239 00a2 08BF     		it	eq
 240 00a4 2646     		moveq	r6, r4
 241              	.LVL17:
 147:..\..\..\lvgl\version_6.1.2\lvgl\src\lv_hal/lv_hal_disp.c **** 
 148:..\..\..\lvgl\version_6.1.2\lvgl\src\lv_hal/lv_hal_disp.c ****     disp_def = disp_def_tmp; /*Revert the default display*/
 149:..\..\..\lvgl\version_6.1.2\lvgl\src\lv_hal/lv_hal_disp.c **** 
 150:..\..\..\lvgl\version_6.1.2\lvgl\src\lv_hal/lv_hal_disp.c ****     /*Create a refresh task*/
 151:..\..\..\lvgl\version_6.1.2\lvgl\src\lv_hal/lv_hal_disp.c ****     disp->refr_task = lv_task_create(lv_disp_refr_task, LV_DISP_DEF_REFR_PERIOD, LV_TASK_PRIO_MID, 
 242              		.loc 1 151 0
 243 00a6 2346     		mov	r3, r4
 244 00a8 0322     		movs	r2, #3
 245 00aa 1E21     		movs	r1, #30
 246 00ac 0848     		ldr	r0, .L16+12
 148:..\..\..\lvgl\version_6.1.2\lvgl\src\lv_hal/lv_hal_disp.c **** 
 247              		.loc 1 148 0
 248 00ae 3E60     		str	r6, [r7]
 249              		.loc 1 151 0
 250 00b0 FFF7FEFF 		bl	lv_task_create
 251              	.LVL18:
 252 00b4 2062     		str	r0, [r4, #32]
 152:..\..\..\lvgl\version_6.1.2\lvgl\src\lv_hal/lv_hal_disp.c ****     LV_ASSERT_MEM(disp->refr_task);
 153:..\..\..\lvgl\version_6.1.2\lvgl\src\lv_hal/lv_hal_disp.c ****     if(disp->refr_task == NULL) return NULL;
 253              		.loc 1 153 0
 254 00b6 18B1     		cbz	r0, .L9
 154:..\..\..\lvgl\version_6.1.2\lvgl\src\lv_hal/lv_hal_disp.c **** 
 155:..\..\..\lvgl\version_6.1.2\lvgl\src\lv_hal/lv_hal_disp.c ****     lv_task_ready(disp->refr_task); /*Be sure the screen will be refreshed immediately on start up*
 255              		.loc 1 155 0
 256 00b8 FFF7FEFF 		bl	lv_task_ready
 257              	.LVL19:
 156:..\..\..\lvgl\version_6.1.2\lvgl\src\lv_hal/lv_hal_disp.c **** 
 157:..\..\..\lvgl\version_6.1.2\lvgl\src\lv_hal/lv_hal_disp.c ****     return disp;
 258              		.loc 1 157 0
 259 00bc 2046     		mov	r0, r4
 158:..\..\..\lvgl\version_6.1.2\lvgl\src\lv_hal/lv_hal_disp.c **** }
 260              		.loc 1 158 0
 261 00be F8BD     		pop	{r3, r4, r5, r6, r7, pc}
 262              	.LVL20:
 263              	.L9:
 123:..\..\..\lvgl\version_6.1.2\lvgl\src\lv_hal/lv_hal_disp.c ****     }
 264              		.loc 1 123 0
 265 00c0 0020     		movs	r0, #0
 266 00c2 F8BD     		pop	{r3, r4, r5, r6, r7, pc}
 267              	.L17:
 268              		.align	2
 269              	.L16:
 270 00c4 00000000 		.word	_lv_disp_ll
 271 00c8 00000000 		.word	.LANCHOR0
 272 00cc 00000000 		.word	lv_style_transp
 273 00d0 00000000 		.word	lv_disp_refr_task
 274              		.cfi_endproc
 275              	.LFE33:
 276              		.size	lv_disp_drv_register, .-lv_disp_drv_register
 277              		.section	.text.lv_disp_drv_update,"ax",%progbits
 278              		.align	2
 279              		.global	lv_disp_drv_update
ARM GAS  C:\Users\pearlstl\AppData\Local\Temp\cct01Du5.s 			page 9


 280              		.thumb
 281              		.thumb_func
 282              		.type	lv_disp_drv_update, %function
 283              	lv_disp_drv_update:
 284              	.LFB34:
 159:..\..\..\lvgl\version_6.1.2\lvgl\src\lv_hal/lv_hal_disp.c **** 
 160:..\..\..\lvgl\version_6.1.2\lvgl\src\lv_hal/lv_hal_disp.c **** /**
 161:..\..\..\lvgl\version_6.1.2\lvgl\src\lv_hal/lv_hal_disp.c ****  * Update the driver in run time.
 162:..\..\..\lvgl\version_6.1.2\lvgl\src\lv_hal/lv_hal_disp.c ****  * @param disp pointer to a display. (return value of `lv_disp_drv_register`)
 163:..\..\..\lvgl\version_6.1.2\lvgl\src\lv_hal/lv_hal_disp.c ****  * @param new_drv pointer to the new driver
 164:..\..\..\lvgl\version_6.1.2\lvgl\src\lv_hal/lv_hal_disp.c ****  */
 165:..\..\..\lvgl\version_6.1.2\lvgl\src\lv_hal/lv_hal_disp.c **** void lv_disp_drv_update(lv_disp_t * disp, lv_disp_drv_t * new_drv)
 166:..\..\..\lvgl\version_6.1.2\lvgl\src\lv_hal/lv_hal_disp.c **** {
 285              		.loc 1 166 0
 286              		.cfi_startproc
 287              		@ args = 0, pretend = 0, frame = 0
 288              		@ frame_needed = 0, uses_anonymous_args = 0
 289              	.LVL21:
 290 0000 70B5     		push	{r4, r5, r6, lr}
 291              		.cfi_def_cfa_offset 16
 292              		.cfi_offset 4, -16
 293              		.cfi_offset 5, -12
 294              		.cfi_offset 6, -8
 295              		.cfi_offset 14, -4
 296              		.loc 1 166 0
 297 0002 0546     		mov	r5, r0
 167:..\..\..\lvgl\version_6.1.2\lvgl\src\lv_hal/lv_hal_disp.c ****     memcpy(&disp->driver, new_drv, sizeof(lv_disp_drv_t));
 298              		.loc 1 167 0
 299 0004 4A68     		ldr	r2, [r1, #4]	@ unaligned
 300 0006 0868     		ldr	r0, [r1]	@ unaligned
 301              	.LVL22:
 302 0008 8B68     		ldr	r3, [r1, #8]	@ unaligned
 303 000a CC68     		ldr	r4, [r1, #12]	@ unaligned
 304 000c EC60     		str	r4, [r5, #12]	@ unaligned
 305 000e 2860     		str	r0, [r5]	@ unaligned
 306 0010 6A60     		str	r2, [r5, #4]	@ unaligned
 307 0012 AB60     		str	r3, [r5, #8]	@ unaligned
 308 0014 0869     		ldr	r0, [r1, #16]	@ unaligned
 309 0016 4A69     		ldr	r2, [r1, #20]	@ unaligned
 310 0018 8B69     		ldr	r3, [r1, #24]	@ unaligned
 311 001a CC69     		ldr	r4, [r1, #28]	@ unaligned
 312 001c EC61     		str	r4, [r5, #28]	@ unaligned
 168:..\..\..\lvgl\version_6.1.2\lvgl\src\lv_hal/lv_hal_disp.c **** 
 169:..\..\..\lvgl\version_6.1.2\lvgl\src\lv_hal/lv_hal_disp.c ****     lv_obj_t * scr;
 170:..\..\..\lvgl\version_6.1.2\lvgl\src\lv_hal/lv_hal_disp.c ****     LV_LL_READ(disp->scr_ll, scr)
 313              		.loc 1 170 0
 314 001e 05F12406 		add	r6, r5, #36
 167:..\..\..\lvgl\version_6.1.2\lvgl\src\lv_hal/lv_hal_disp.c ****     memcpy(&disp->driver, new_drv, sizeof(lv_disp_drv_t));
 315              		.loc 1 167 0
 316 0022 2861     		str	r0, [r5, #16]	@ unaligned
 317 0024 6A61     		str	r2, [r5, #20]	@ unaligned
 318 0026 AB61     		str	r3, [r5, #24]	@ unaligned
 319              		.loc 1 170 0
 320 0028 3046     		mov	r0, r6
 321 002a FFF7FEFF 		bl	lv_ll_get_head
 322              	.LVL23:
 323 002e 40B3     		cbz	r0, .L18
ARM GAS  C:\Users\pearlstl\AppData\Local\Temp\cct01Du5.s 			page 10


 324 0030 0446     		mov	r4, r0
 325 0032 ADB1     		cbz	r5, .L20
 326              	.L23:
 327              	.LVL24:
 328              	.LBB20:
 329              	.LBB21:
 171:..\..\..\lvgl\version_6.1.2\lvgl\src\lv_hal/lv_hal_disp.c ****     {
 172:..\..\..\lvgl\version_6.1.2\lvgl\src\lv_hal/lv_hal_disp.c ****         lv_obj_set_size(scr, lv_disp_get_hor_res(disp), lv_disp_get_ver_res(disp));
 173:..\..\..\lvgl\version_6.1.2\lvgl\src\lv_hal/lv_hal_disp.c ****     }
 174:..\..\..\lvgl\version_6.1.2\lvgl\src\lv_hal/lv_hal_disp.c **** }
 175:..\..\..\lvgl\version_6.1.2\lvgl\src\lv_hal/lv_hal_disp.c **** 
 176:..\..\..\lvgl\version_6.1.2\lvgl\src\lv_hal/lv_hal_disp.c **** /**
 177:..\..\..\lvgl\version_6.1.2\lvgl\src\lv_hal/lv_hal_disp.c ****  * Remove a display
 178:..\..\..\lvgl\version_6.1.2\lvgl\src\lv_hal/lv_hal_disp.c ****  * @param disp pointer to display
 179:..\..\..\lvgl\version_6.1.2\lvgl\src\lv_hal/lv_hal_disp.c ****  */
 180:..\..\..\lvgl\version_6.1.2\lvgl\src\lv_hal/lv_hal_disp.c **** void lv_disp_remove(lv_disp_t * disp)
 181:..\..\..\lvgl\version_6.1.2\lvgl\src\lv_hal/lv_hal_disp.c **** {
 182:..\..\..\lvgl\version_6.1.2\lvgl\src\lv_hal/lv_hal_disp.c ****     bool was_default = false;
 183:..\..\..\lvgl\version_6.1.2\lvgl\src\lv_hal/lv_hal_disp.c ****     if(disp == lv_disp_get_default()) was_default = true;
 184:..\..\..\lvgl\version_6.1.2\lvgl\src\lv_hal/lv_hal_disp.c **** 
 185:..\..\..\lvgl\version_6.1.2\lvgl\src\lv_hal/lv_hal_disp.c ****     /*Detach the input devices */
 186:..\..\..\lvgl\version_6.1.2\lvgl\src\lv_hal/lv_hal_disp.c ****     lv_indev_t * indev;
 187:..\..\..\lvgl\version_6.1.2\lvgl\src\lv_hal/lv_hal_disp.c ****     indev = lv_indev_get_next(NULL);
 188:..\..\..\lvgl\version_6.1.2\lvgl\src\lv_hal/lv_hal_disp.c ****     while(indev) {
 189:..\..\..\lvgl\version_6.1.2\lvgl\src\lv_hal/lv_hal_disp.c ****         if(indev->driver.disp == disp) {
 190:..\..\..\lvgl\version_6.1.2\lvgl\src\lv_hal/lv_hal_disp.c ****             indev->driver.disp = NULL;
 191:..\..\..\lvgl\version_6.1.2\lvgl\src\lv_hal/lv_hal_disp.c ****         }
 192:..\..\..\lvgl\version_6.1.2\lvgl\src\lv_hal/lv_hal_disp.c ****         indev = lv_indev_get_next(indev);
 193:..\..\..\lvgl\version_6.1.2\lvgl\src\lv_hal/lv_hal_disp.c ****     }
 194:..\..\..\lvgl\version_6.1.2\lvgl\src\lv_hal/lv_hal_disp.c **** 
 195:..\..\..\lvgl\version_6.1.2\lvgl\src\lv_hal/lv_hal_disp.c ****     lv_ll_rem(&LV_GC_ROOT(_lv_disp_ll), disp);
 196:..\..\..\lvgl\version_6.1.2\lvgl\src\lv_hal/lv_hal_disp.c ****     lv_mem_free(disp);
 197:..\..\..\lvgl\version_6.1.2\lvgl\src\lv_hal/lv_hal_disp.c **** 
 198:..\..\..\lvgl\version_6.1.2\lvgl\src\lv_hal/lv_hal_disp.c ****     if(was_default) lv_disp_set_default(lv_ll_get_head(&LV_GC_ROOT(_lv_disp_ll)));
 199:..\..\..\lvgl\version_6.1.2\lvgl\src\lv_hal/lv_hal_disp.c **** }
 200:..\..\..\lvgl\version_6.1.2\lvgl\src\lv_hal/lv_hal_disp.c **** 
 201:..\..\..\lvgl\version_6.1.2\lvgl\src\lv_hal/lv_hal_disp.c **** /**
 202:..\..\..\lvgl\version_6.1.2\lvgl\src\lv_hal/lv_hal_disp.c ****  * Set a default screen. The new screens will be created on it by default.
 203:..\..\..\lvgl\version_6.1.2\lvgl\src\lv_hal/lv_hal_disp.c ****  * @param disp pointer to a display
 204:..\..\..\lvgl\version_6.1.2\lvgl\src\lv_hal/lv_hal_disp.c ****  */
 205:..\..\..\lvgl\version_6.1.2\lvgl\src\lv_hal/lv_hal_disp.c **** void lv_disp_set_default(lv_disp_t * disp)
 206:..\..\..\lvgl\version_6.1.2\lvgl\src\lv_hal/lv_hal_disp.c **** {
 207:..\..\..\lvgl\version_6.1.2\lvgl\src\lv_hal/lv_hal_disp.c ****     disp_def = disp;
 208:..\..\..\lvgl\version_6.1.2\lvgl\src\lv_hal/lv_hal_disp.c **** }
 209:..\..\..\lvgl\version_6.1.2\lvgl\src\lv_hal/lv_hal_disp.c **** 
 210:..\..\..\lvgl\version_6.1.2\lvgl\src\lv_hal/lv_hal_disp.c **** /**
 211:..\..\..\lvgl\version_6.1.2\lvgl\src\lv_hal/lv_hal_disp.c ****  * Get the default display
 212:..\..\..\lvgl\version_6.1.2\lvgl\src\lv_hal/lv_hal_disp.c ****  * @return pointer to the default display
 213:..\..\..\lvgl\version_6.1.2\lvgl\src\lv_hal/lv_hal_disp.c ****  */
 214:..\..\..\lvgl\version_6.1.2\lvgl\src\lv_hal/lv_hal_disp.c **** lv_disp_t * lv_disp_get_default(void)
 215:..\..\..\lvgl\version_6.1.2\lvgl\src\lv_hal/lv_hal_disp.c **** {
 216:..\..\..\lvgl\version_6.1.2\lvgl\src\lv_hal/lv_hal_disp.c ****     return disp_def;
 217:..\..\..\lvgl\version_6.1.2\lvgl\src\lv_hal/lv_hal_disp.c **** }
 218:..\..\..\lvgl\version_6.1.2\lvgl\src\lv_hal/lv_hal_disp.c **** 
 219:..\..\..\lvgl\version_6.1.2\lvgl\src\lv_hal/lv_hal_disp.c **** /**
 220:..\..\..\lvgl\version_6.1.2\lvgl\src\lv_hal/lv_hal_disp.c ****  * Get the horizontal resolution of a display
 221:..\..\..\lvgl\version_6.1.2\lvgl\src\lv_hal/lv_hal_disp.c ****  * @param disp pointer to a display (NULL to use the default display)
ARM GAS  C:\Users\pearlstl\AppData\Local\Temp\cct01Du5.s 			page 11


 222:..\..\..\lvgl\version_6.1.2\lvgl\src\lv_hal/lv_hal_disp.c ****  * @return the horizontal resolution of the display
 223:..\..\..\lvgl\version_6.1.2\lvgl\src\lv_hal/lv_hal_disp.c ****  */
 224:..\..\..\lvgl\version_6.1.2\lvgl\src\lv_hal/lv_hal_disp.c **** lv_coord_t lv_disp_get_hor_res(lv_disp_t * disp)
 225:..\..\..\lvgl\version_6.1.2\lvgl\src\lv_hal/lv_hal_disp.c **** {
 226:..\..\..\lvgl\version_6.1.2\lvgl\src\lv_hal/lv_hal_disp.c ****     if(disp == NULL) disp = lv_disp_get_default();
 227:..\..\..\lvgl\version_6.1.2\lvgl\src\lv_hal/lv_hal_disp.c **** 
 228:..\..\..\lvgl\version_6.1.2\lvgl\src\lv_hal/lv_hal_disp.c ****     if(disp == NULL)
 229:..\..\..\lvgl\version_6.1.2\lvgl\src\lv_hal/lv_hal_disp.c ****         return LV_HOR_RES_MAX;
 230:..\..\..\lvgl\version_6.1.2\lvgl\src\lv_hal/lv_hal_disp.c ****     else
 231:..\..\..\lvgl\version_6.1.2\lvgl\src\lv_hal/lv_hal_disp.c ****         return disp->driver.rotated == 0 ? disp->driver.hor_res : disp->driver.ver_res;
 330              		.loc 1 231 0
 331 0034 2B7A     		ldrb	r3, [r5, #8]	@ zero_extendqisi2
 332 0036 D807     		lsls	r0, r3, #31
 333              	.LVL25:
 334 0038 4BBF     		itete	mi
 335 003a B5F90210 		ldrshmi	r1, [r5, #2]
 336              	.LVL26:
 337 003e B5F90010 		ldrshpl	r1, [r5]
 338              	.LVL27:
 339              	.LBE21:
 340              	.LBE20:
 341              	.LBB26:
 342              	.LBB27:
 232:..\..\..\lvgl\version_6.1.2\lvgl\src\lv_hal/lv_hal_disp.c **** }
 233:..\..\..\lvgl\version_6.1.2\lvgl\src\lv_hal/lv_hal_disp.c **** 
 234:..\..\..\lvgl\version_6.1.2\lvgl\src\lv_hal/lv_hal_disp.c **** /**
 235:..\..\..\lvgl\version_6.1.2\lvgl\src\lv_hal/lv_hal_disp.c ****  * Get the vertical resolution of a display
 236:..\..\..\lvgl\version_6.1.2\lvgl\src\lv_hal/lv_hal_disp.c ****  * @param disp pointer to a display (NULL to use the default display)
 237:..\..\..\lvgl\version_6.1.2\lvgl\src\lv_hal/lv_hal_disp.c ****  * @return the vertical resolution of the display
 238:..\..\..\lvgl\version_6.1.2\lvgl\src\lv_hal/lv_hal_disp.c ****  */
 239:..\..\..\lvgl\version_6.1.2\lvgl\src\lv_hal/lv_hal_disp.c **** lv_coord_t lv_disp_get_ver_res(lv_disp_t * disp)
 240:..\..\..\lvgl\version_6.1.2\lvgl\src\lv_hal/lv_hal_disp.c **** {
 241:..\..\..\lvgl\version_6.1.2\lvgl\src\lv_hal/lv_hal_disp.c ****     if(disp == NULL) disp = lv_disp_get_default();
 242:..\..\..\lvgl\version_6.1.2\lvgl\src\lv_hal/lv_hal_disp.c **** 
 243:..\..\..\lvgl\version_6.1.2\lvgl\src\lv_hal/lv_hal_disp.c ****     if(disp == NULL)
 244:..\..\..\lvgl\version_6.1.2\lvgl\src\lv_hal/lv_hal_disp.c ****         return LV_VER_RES_MAX;
 245:..\..\..\lvgl\version_6.1.2\lvgl\src\lv_hal/lv_hal_disp.c ****     else
 246:..\..\..\lvgl\version_6.1.2\lvgl\src\lv_hal/lv_hal_disp.c ****         return disp->driver.rotated == 0 ? disp->driver.ver_res : disp->driver.hor_res;
 343              		.loc 1 246 0
 344 0042 B5F90020 		ldrshmi	r2, [r5]
 345 0046 B5F90220 		ldrshpl	r2, [r5, #2]
 346              	.LBE27:
 347              	.LBE26:
 172:..\..\..\lvgl\version_6.1.2\lvgl\src\lv_hal/lv_hal_disp.c ****     }
 348              		.loc 1 172 0
 349 004a 2046     		mov	r0, r4
 350 004c FFF7FEFF 		bl	lv_obj_set_size
 351              	.LVL28:
 170:..\..\..\lvgl\version_6.1.2\lvgl\src\lv_hal/lv_hal_disp.c ****     {
 352              		.loc 1 170 0
 353 0050 2146     		mov	r1, r4
 354 0052 3046     		mov	r0, r6
 355 0054 FFF7FEFF 		bl	lv_ll_get_next
 356              	.LVL29:
 357 0058 0446     		mov	r4, r0
 358 005a 0028     		cmp	r0, #0
 359 005c EAD1     		bne	.L23
ARM GAS  C:\Users\pearlstl\AppData\Local\Temp\cct01Du5.s 			page 12


 360 005e 70BD     		pop	{r4, r5, r6, pc}
 361              	.LVL30:
 362              	.L20:
 363 0060 0F4D     		ldr	r5, .L35
 364              	.LVL31:
 365              	.L29:
 366              	.LBB30:
 367              	.LBB24:
 368              	.LBB22:
 369              	.LBB23:
 216:..\..\..\lvgl\version_6.1.2\lvgl\src\lv_hal/lv_hal_disp.c **** }
 370              		.loc 1 216 0
 371 0062 2B68     		ldr	r3, [r5]
 372              	.LVL32:
 373              	.LBE23:
 374              	.LBE22:
 228:..\..\..\lvgl\version_6.1.2\lvgl\src\lv_hal/lv_hal_disp.c ****         return LV_HOR_RES_MAX;
 375              		.loc 1 228 0
 376 0064 73B9     		cbnz	r3, .L34
 229:..\..\..\lvgl\version_6.1.2\lvgl\src\lv_hal/lv_hal_disp.c ****     else
 377              		.loc 1 229 0
 378 0066 4FF4A071 		mov	r1, #320
 379              	.LBE24:
 380              	.LBE30:
 381              	.LBB31:
 382              	.LBB28:
 244:..\..\..\lvgl\version_6.1.2\lvgl\src\lv_hal/lv_hal_disp.c ****     else
 383              		.loc 1 244 0
 384 006a 4FF4F072 		mov	r2, #480
 385              	.LVL33:
 386              	.L25:
 387              	.LBE28:
 388              	.LBE31:
 172:..\..\..\lvgl\version_6.1.2\lvgl\src\lv_hal/lv_hal_disp.c ****     }
 389              		.loc 1 172 0
 390 006e 2046     		mov	r0, r4
 391              	.LVL34:
 392 0070 FFF7FEFF 		bl	lv_obj_set_size
 393              	.LVL35:
 170:..\..\..\lvgl\version_6.1.2\lvgl\src\lv_hal/lv_hal_disp.c ****     {
 394              		.loc 1 170 0
 395 0074 2146     		mov	r1, r4
 396 0076 3046     		mov	r0, r6
 397 0078 FFF7FEFF 		bl	lv_ll_get_next
 398              	.LVL36:
 399 007c 0446     		mov	r4, r0
 400 007e 0028     		cmp	r0, #0
 401 0080 EFD1     		bne	.L29
 402              	.L18:
 403 0082 70BD     		pop	{r4, r5, r6, pc}
 404              	.LVL37:
 405              	.L34:
 406              	.LBB32:
 407              	.LBB25:
 231:..\..\..\lvgl\version_6.1.2\lvgl\src\lv_hal/lv_hal_disp.c **** }
 408              		.loc 1 231 0
 409 0084 1A7A     		ldrb	r2, [r3, #8]	@ zero_extendqisi2
ARM GAS  C:\Users\pearlstl\AppData\Local\Temp\cct01Du5.s 			page 13


 410 0086 D107     		lsls	r1, r2, #31
 411 0088 54BF     		ite	pl
 412 008a B3F90010 		ldrshpl	r1, [r3]
 413 008e B3F90210 		ldrshmi	r1, [r3, #2]
 414              	.LBE25:
 415              	.LBE32:
 416              	.LBB33:
 417              	.LBB29:
 418              		.loc 1 246 0
 419 0092 D207     		lsls	r2, r2, #31
 420 0094 54BF     		ite	pl
 421 0096 B3F90220 		ldrshpl	r2, [r3, #2]
 422 009a B3F90020 		ldrshmi	r2, [r3]
 423 009e E6E7     		b	.L25
 424              	.L36:
 425              		.align	2
 426              	.L35:
 427 00a0 00000000 		.word	.LANCHOR0
 428              	.LBE29:
 429              	.LBE33:
 430              		.cfi_endproc
 431              	.LFE34:
 432              		.size	lv_disp_drv_update, .-lv_disp_drv_update
 433              		.section	.text.lv_disp_remove,"ax",%progbits
 434              		.align	2
 435              		.global	lv_disp_remove
 436              		.thumb
 437              		.thumb_func
 438              		.type	lv_disp_remove, %function
 439              	lv_disp_remove:
 440              	.LFB35:
 181:..\..\..\lvgl\version_6.1.2\lvgl\src\lv_hal/lv_hal_disp.c ****     bool was_default = false;
 441              		.loc 1 181 0
 442              		.cfi_startproc
 443              		@ args = 0, pretend = 0, frame = 0
 444              		@ frame_needed = 0, uses_anonymous_args = 0
 445              	.LVL38:
 446 0000 F8B5     		push	{r3, r4, r5, r6, r7, lr}
 447              		.cfi_def_cfa_offset 24
 448              		.cfi_offset 3, -24
 449              		.cfi_offset 4, -20
 450              		.cfi_offset 5, -16
 451              		.cfi_offset 6, -12
 452              		.cfi_offset 7, -8
 453              		.cfi_offset 14, -4
 454              	.LBB34:
 455              	.LBB35:
 216:..\..\..\lvgl\version_6.1.2\lvgl\src\lv_hal/lv_hal_disp.c **** }
 456              		.loc 1 216 0
 457 0002 104E     		ldr	r6, .L47
 458              	.LBE35:
 459              	.LBE34:
 181:..\..\..\lvgl\version_6.1.2\lvgl\src\lv_hal/lv_hal_disp.c ****     bool was_default = false;
 460              		.loc 1 181 0
 461 0004 0446     		mov	r4, r0
 187:..\..\..\lvgl\version_6.1.2\lvgl\src\lv_hal/lv_hal_disp.c ****     while(indev) {
 462              		.loc 1 187 0
ARM GAS  C:\Users\pearlstl\AppData\Local\Temp\cct01Du5.s 			page 14


 463 0006 0020     		movs	r0, #0
 464              	.LVL39:
 465              	.LBB37:
 466              	.LBB36:
 216:..\..\..\lvgl\version_6.1.2\lvgl\src\lv_hal/lv_hal_disp.c **** }
 467              		.loc 1 216 0
 468 0008 3768     		ldr	r7, [r6]
 469              	.LVL40:
 470              	.LBE36:
 471              	.LBE37:
 187:..\..\..\lvgl\version_6.1.2\lvgl\src\lv_hal/lv_hal_disp.c ****     while(indev) {
 472              		.loc 1 187 0
 473 000a FFF7FEFF 		bl	lv_indev_get_next
 474              	.LVL41:
 188:..\..\..\lvgl\version_6.1.2\lvgl\src\lv_hal/lv_hal_disp.c ****         if(indev->driver.disp == disp) {
 475              		.loc 1 188 0
 476 000e 58B1     		cbz	r0, .L43
 477 0010 0346     		mov	r3, r0
 190:..\..\..\lvgl\version_6.1.2\lvgl\src\lv_hal/lv_hal_disp.c ****         }
 478              		.loc 1 190 0
 479 0012 0025     		movs	r5, #0
 480              	.L42:
 189:..\..\..\lvgl\version_6.1.2\lvgl\src\lv_hal/lv_hal_disp.c ****             indev->driver.disp = NULL;
 481              		.loc 1 189 0
 482 0014 DA68     		ldr	r2, [r3, #12]
 483 0016 9442     		cmp	r4, r2
 192:..\..\..\lvgl\version_6.1.2\lvgl\src\lv_hal/lv_hal_disp.c ****     }
 484              		.loc 1 192 0
 485 0018 1846     		mov	r0, r3
 190:..\..\..\lvgl\version_6.1.2\lvgl\src\lv_hal/lv_hal_disp.c ****         }
 486              		.loc 1 190 0
 487 001a 08BF     		it	eq
 488 001c DD60     		streq	r5, [r3, #12]
 192:..\..\..\lvgl\version_6.1.2\lvgl\src\lv_hal/lv_hal_disp.c ****     }
 489              		.loc 1 192 0
 490 001e FFF7FEFF 		bl	lv_indev_get_next
 491              	.LVL42:
 188:..\..\..\lvgl\version_6.1.2\lvgl\src\lv_hal/lv_hal_disp.c ****         if(indev->driver.disp == disp) {
 492              		.loc 1 188 0
 493 0022 0346     		mov	r3, r0
 494 0024 0028     		cmp	r0, #0
 495 0026 F5D1     		bne	.L42
 496              	.L43:
 195:..\..\..\lvgl\version_6.1.2\lvgl\src\lv_hal/lv_hal_disp.c ****     lv_mem_free(disp);
 497              		.loc 1 195 0
 498 0028 2146     		mov	r1, r4
 499 002a 0748     		ldr	r0, .L47+4
 500              	.LVL43:
 501 002c FFF7FEFF 		bl	lv_ll_rem
 502              	.LVL44:
 196:..\..\..\lvgl\version_6.1.2\lvgl\src\lv_hal/lv_hal_disp.c **** 
 503              		.loc 1 196 0
 504 0030 2046     		mov	r0, r4
 505 0032 FFF7FEFF 		bl	lv_mem_free
 506              	.LVL45:
 198:..\..\..\lvgl\version_6.1.2\lvgl\src\lv_hal/lv_hal_disp.c **** }
 507              		.loc 1 198 0
ARM GAS  C:\Users\pearlstl\AppData\Local\Temp\cct01Du5.s 			page 15


 508 0036 A742     		cmp	r7, r4
 509 0038 03D1     		bne	.L37
 198:..\..\..\lvgl\version_6.1.2\lvgl\src\lv_hal/lv_hal_disp.c **** }
 510              		.loc 1 198 0 is_stmt 0 discriminator 1
 511 003a 0348     		ldr	r0, .L47+4
 512 003c FFF7FEFF 		bl	lv_ll_get_head
 513              	.LVL46:
 514              	.LBB38:
 515              	.LBB39:
 207:..\..\..\lvgl\version_6.1.2\lvgl\src\lv_hal/lv_hal_disp.c **** }
 516              		.loc 1 207 0 is_stmt 1 discriminator 1
 517 0040 3060     		str	r0, [r6]
 518              	.LVL47:
 519              	.L37:
 520 0042 F8BD     		pop	{r3, r4, r5, r6, r7, pc}
 521              	.LVL48:
 522              	.L48:
 523              		.align	2
 524              	.L47:
 525 0044 00000000 		.word	.LANCHOR0
 526 0048 00000000 		.word	_lv_disp_ll
 527              	.LBE39:
 528              	.LBE38:
 529              		.cfi_endproc
 530              	.LFE35:
 531              		.size	lv_disp_remove, .-lv_disp_remove
 532              		.section	.text.lv_disp_set_default,"ax",%progbits
 533              		.align	2
 534              		.global	lv_disp_set_default
 535              		.thumb
 536              		.thumb_func
 537              		.type	lv_disp_set_default, %function
 538              	lv_disp_set_default:
 539              	.LFB36:
 206:..\..\..\lvgl\version_6.1.2\lvgl\src\lv_hal/lv_hal_disp.c ****     disp_def = disp;
 540              		.loc 1 206 0
 541              		.cfi_startproc
 542              		@ args = 0, pretend = 0, frame = 0
 543              		@ frame_needed = 0, uses_anonymous_args = 0
 544              		@ link register save eliminated.
 545              	.LVL49:
 207:..\..\..\lvgl\version_6.1.2\lvgl\src\lv_hal/lv_hal_disp.c **** }
 546              		.loc 1 207 0
 547 0000 014B     		ldr	r3, .L50
 548 0002 1860     		str	r0, [r3]
 549 0004 7047     		bx	lr
 550              	.L51:
 551 0006 00BF     		.align	2
 552              	.L50:
 553 0008 00000000 		.word	.LANCHOR0
 554              		.cfi_endproc
 555              	.LFE36:
 556              		.size	lv_disp_set_default, .-lv_disp_set_default
 557              		.section	.text.lv_disp_get_default,"ax",%progbits
 558              		.align	2
 559              		.global	lv_disp_get_default
 560              		.thumb
ARM GAS  C:\Users\pearlstl\AppData\Local\Temp\cct01Du5.s 			page 16


 561              		.thumb_func
 562              		.type	lv_disp_get_default, %function
 563              	lv_disp_get_default:
 564              	.LFB37:
 215:..\..\..\lvgl\version_6.1.2\lvgl\src\lv_hal/lv_hal_disp.c ****     return disp_def;
 565              		.loc 1 215 0
 566              		.cfi_startproc
 567              		@ args = 0, pretend = 0, frame = 0
 568              		@ frame_needed = 0, uses_anonymous_args = 0
 569              		@ link register save eliminated.
 216:..\..\..\lvgl\version_6.1.2\lvgl\src\lv_hal/lv_hal_disp.c **** }
 570              		.loc 1 216 0
 571 0000 014B     		ldr	r3, .L53
 217:..\..\..\lvgl\version_6.1.2\lvgl\src\lv_hal/lv_hal_disp.c **** 
 572              		.loc 1 217 0
 573 0002 1868     		ldr	r0, [r3]
 574 0004 7047     		bx	lr
 575              	.L54:
 576 0006 00BF     		.align	2
 577              	.L53:
 578 0008 00000000 		.word	.LANCHOR0
 579              		.cfi_endproc
 580              	.LFE37:
 581              		.size	lv_disp_get_default, .-lv_disp_get_default
 582              		.section	.text.lv_disp_get_hor_res,"ax",%progbits
 583              		.align	2
 584              		.global	lv_disp_get_hor_res
 585              		.thumb
 586              		.thumb_func
 587              		.type	lv_disp_get_hor_res, %function
 588              	lv_disp_get_hor_res:
 589              	.LFB38:
 225:..\..\..\lvgl\version_6.1.2\lvgl\src\lv_hal/lv_hal_disp.c ****     if(disp == NULL) disp = lv_disp_get_default();
 590              		.loc 1 225 0
 591              		.cfi_startproc
 592              		@ args = 0, pretend = 0, frame = 0
 593              		@ frame_needed = 0, uses_anonymous_args = 0
 594              		@ link register save eliminated.
 595              	.LVL50:
 226:..\..\..\lvgl\version_6.1.2\lvgl\src\lv_hal/lv_hal_disp.c **** 
 596              		.loc 1 226 0
 597 0000 38B1     		cbz	r0, .L60
 598              	.L56:
 231:..\..\..\lvgl\version_6.1.2\lvgl\src\lv_hal/lv_hal_disp.c **** }
 599              		.loc 1 231 0
 600 0002 037A     		ldrb	r3, [r0, #8]	@ zero_extendqisi2
 601 0004 DB07     		lsls	r3, r3, #31
 602 0006 54BF     		ite	pl
 603 0008 B0F90000 		ldrshpl	r0, [r0]
 604              	.LVL51:
 605 000c B0F90200 		ldrshmi	r0, [r0, #2]
 606 0010 7047     		bx	lr
 607              	.LVL52:
 608              	.L60:
 609              	.LBB40:
 610              	.LBB41:
 216:..\..\..\lvgl\version_6.1.2\lvgl\src\lv_hal/lv_hal_disp.c **** }
ARM GAS  C:\Users\pearlstl\AppData\Local\Temp\cct01Du5.s 			page 17


 611              		.loc 1 216 0
 612 0012 034B     		ldr	r3, .L61
 613 0014 1868     		ldr	r0, [r3]
 614              	.LVL53:
 615              	.LBE41:
 616              	.LBE40:
 228:..\..\..\lvgl\version_6.1.2\lvgl\src\lv_hal/lv_hal_disp.c ****         return LV_HOR_RES_MAX;
 617              		.loc 1 228 0
 618 0016 0028     		cmp	r0, #0
 619 0018 F3D1     		bne	.L56
 229:..\..\..\lvgl\version_6.1.2\lvgl\src\lv_hal/lv_hal_disp.c ****     else
 620              		.loc 1 229 0
 621 001a 4FF4A070 		mov	r0, #320
 622              	.LVL54:
 232:..\..\..\lvgl\version_6.1.2\lvgl\src\lv_hal/lv_hal_disp.c **** 
 623              		.loc 1 232 0
 624 001e 7047     		bx	lr
 625              	.L62:
 626              		.align	2
 627              	.L61:
 628 0020 00000000 		.word	.LANCHOR0
 629              		.cfi_endproc
 630              	.LFE38:
 631              		.size	lv_disp_get_hor_res, .-lv_disp_get_hor_res
 632              		.section	.text.lv_disp_get_ver_res,"ax",%progbits
 633              		.align	2
 634              		.global	lv_disp_get_ver_res
 635              		.thumb
 636              		.thumb_func
 637              		.type	lv_disp_get_ver_res, %function
 638              	lv_disp_get_ver_res:
 639              	.LFB39:
 240:..\..\..\lvgl\version_6.1.2\lvgl\src\lv_hal/lv_hal_disp.c ****     if(disp == NULL) disp = lv_disp_get_default();
 640              		.loc 1 240 0
 641              		.cfi_startproc
 642              		@ args = 0, pretend = 0, frame = 0
 643              		@ frame_needed = 0, uses_anonymous_args = 0
 644              		@ link register save eliminated.
 645              	.LVL55:
 241:..\..\..\lvgl\version_6.1.2\lvgl\src\lv_hal/lv_hal_disp.c **** 
 646              		.loc 1 241 0
 647 0000 38B1     		cbz	r0, .L68
 648              	.L64:
 649              		.loc 1 246 0
 650 0002 037A     		ldrb	r3, [r0, #8]	@ zero_extendqisi2
 651 0004 DB07     		lsls	r3, r3, #31
 652 0006 54BF     		ite	pl
 653 0008 B0F90200 		ldrshpl	r0, [r0, #2]
 654              	.LVL56:
 655 000c B0F90000 		ldrshmi	r0, [r0]
 656 0010 7047     		bx	lr
 657              	.LVL57:
 658              	.L68:
 659              	.LBB42:
 660              	.LBB43:
 216:..\..\..\lvgl\version_6.1.2\lvgl\src\lv_hal/lv_hal_disp.c **** }
 661              		.loc 1 216 0
ARM GAS  C:\Users\pearlstl\AppData\Local\Temp\cct01Du5.s 			page 18


 662 0012 034B     		ldr	r3, .L69
 663 0014 1868     		ldr	r0, [r3]
 664              	.LVL58:
 665              	.LBE43:
 666              	.LBE42:
 243:..\..\..\lvgl\version_6.1.2\lvgl\src\lv_hal/lv_hal_disp.c ****         return LV_VER_RES_MAX;
 667              		.loc 1 243 0
 668 0016 0028     		cmp	r0, #0
 669 0018 F3D1     		bne	.L64
 244:..\..\..\lvgl\version_6.1.2\lvgl\src\lv_hal/lv_hal_disp.c ****     else
 670              		.loc 1 244 0
 671 001a 4FF4F070 		mov	r0, #480
 672              	.LVL59:
 247:..\..\..\lvgl\version_6.1.2\lvgl\src\lv_hal/lv_hal_disp.c **** }
 673              		.loc 1 247 0
 674 001e 7047     		bx	lr
 675              	.L70:
 676              		.align	2
 677              	.L69:
 678 0020 00000000 		.word	.LANCHOR0
 679              		.cfi_endproc
 680              	.LFE39:
 681              		.size	lv_disp_get_ver_res, .-lv_disp_get_ver_res
 682              		.section	.text.lv_disp_get_antialiasing,"ax",%progbits
 683              		.align	2
 684              		.global	lv_disp_get_antialiasing
 685              		.thumb
 686              		.thumb_func
 687              		.type	lv_disp_get_antialiasing, %function
 688              	lv_disp_get_antialiasing:
 689              	.LFB40:
 248:..\..\..\lvgl\version_6.1.2\lvgl\src\lv_hal/lv_hal_disp.c **** 
 249:..\..\..\lvgl\version_6.1.2\lvgl\src\lv_hal/lv_hal_disp.c **** /**
 250:..\..\..\lvgl\version_6.1.2\lvgl\src\lv_hal/lv_hal_disp.c ****  * Get if anti-aliasing is enabled for a display or not
 251:..\..\..\lvgl\version_6.1.2\lvgl\src\lv_hal/lv_hal_disp.c ****  * @param disp pointer to a display (NULL to use the default display)
 252:..\..\..\lvgl\version_6.1.2\lvgl\src\lv_hal/lv_hal_disp.c ****  * @return true: anti-aliasing is enabled; false: disabled
 253:..\..\..\lvgl\version_6.1.2\lvgl\src\lv_hal/lv_hal_disp.c ****  */
 254:..\..\..\lvgl\version_6.1.2\lvgl\src\lv_hal/lv_hal_disp.c **** bool lv_disp_get_antialiasing(lv_disp_t * disp)
 255:..\..\..\lvgl\version_6.1.2\lvgl\src\lv_hal/lv_hal_disp.c **** {
 690              		.loc 1 255 0
 691              		.cfi_startproc
 692              		@ args = 0, pretend = 0, frame = 0
 693              		@ frame_needed = 0, uses_anonymous_args = 0
 694              		@ link register save eliminated.
 695              	.LVL60:
 256:..\..\..\lvgl\version_6.1.2\lvgl\src\lv_hal/lv_hal_disp.c **** #if LV_ANTIALIAS == 0
 257:..\..\..\lvgl\version_6.1.2\lvgl\src\lv_hal/lv_hal_disp.c ****     return false;
 258:..\..\..\lvgl\version_6.1.2\lvgl\src\lv_hal/lv_hal_disp.c **** #else
 259:..\..\..\lvgl\version_6.1.2\lvgl\src\lv_hal/lv_hal_disp.c ****     if(disp == NULL) disp = lv_disp_get_default();
 260:..\..\..\lvgl\version_6.1.2\lvgl\src\lv_hal/lv_hal_disp.c ****     if(disp == NULL) return false;
 261:..\..\..\lvgl\version_6.1.2\lvgl\src\lv_hal/lv_hal_disp.c **** 
 262:..\..\..\lvgl\version_6.1.2\lvgl\src\lv_hal/lv_hal_disp.c ****     return disp->driver.antialiasing ? true : false;
 263:..\..\..\lvgl\version_6.1.2\lvgl\src\lv_hal/lv_hal_disp.c **** #endif
 264:..\..\..\lvgl\version_6.1.2\lvgl\src\lv_hal/lv_hal_disp.c **** }
 696              		.loc 1 264 0
 697 0000 0020     		movs	r0, #0
 698              	.LVL61:
ARM GAS  C:\Users\pearlstl\AppData\Local\Temp\cct01Du5.s 			page 19


 699 0002 7047     		bx	lr
 700              		.cfi_endproc
 701              	.LFE40:
 702              		.size	lv_disp_get_antialiasing, .-lv_disp_get_antialiasing
 703              		.section	.text.lv_disp_flush_ready,"ax",%progbits
 704              		.align	2
 705              		.global	lv_disp_flush_ready
 706              		.thumb
 707              		.thumb_func
 708              		.type	lv_disp_flush_ready, %function
 709              	lv_disp_flush_ready:
 710              	.LFB41:
 265:..\..\..\lvgl\version_6.1.2\lvgl\src\lv_hal/lv_hal_disp.c **** 
 266:..\..\..\lvgl\version_6.1.2\lvgl\src\lv_hal/lv_hal_disp.c **** /**
 267:..\..\..\lvgl\version_6.1.2\lvgl\src\lv_hal/lv_hal_disp.c ****  * Call in the display driver's `flush_cb` function when the flushing is finished
 268:..\..\..\lvgl\version_6.1.2\lvgl\src\lv_hal/lv_hal_disp.c ****  * @param disp_drv pointer to display driver in `flush_cb` where this function is called
 269:..\..\..\lvgl\version_6.1.2\lvgl\src\lv_hal/lv_hal_disp.c ****  */
 270:..\..\..\lvgl\version_6.1.2\lvgl\src\lv_hal/lv_hal_disp.c **** LV_ATTRIBUTE_FLUSH_READY void lv_disp_flush_ready(lv_disp_drv_t * disp_drv)
 271:..\..\..\lvgl\version_6.1.2\lvgl\src\lv_hal/lv_hal_disp.c **** {
 711              		.loc 1 271 0
 712              		.cfi_startproc
 713              		@ args = 0, pretend = 0, frame = 0
 714              		@ frame_needed = 0, uses_anonymous_args = 0
 715              		@ link register save eliminated.
 716              	.LVL62:
 272:..\..\..\lvgl\version_6.1.2\lvgl\src\lv_hal/lv_hal_disp.c ****     /*If the screen is transparent initialize it when the flushing is ready*/
 273:..\..\..\lvgl\version_6.1.2\lvgl\src\lv_hal/lv_hal_disp.c **** #if LV_COLOR_SCREEN_TRANSP
 274:..\..\..\lvgl\version_6.1.2\lvgl\src\lv_hal/lv_hal_disp.c ****     if(disp_drv->screen_transp) {
 275:..\..\..\lvgl\version_6.1.2\lvgl\src\lv_hal/lv_hal_disp.c ****         memset(disp_drv->buffer->buf_act, 0x00, disp_drv->buffer->size * sizeof(lv_color32_t));
 276:..\..\..\lvgl\version_6.1.2\lvgl\src\lv_hal/lv_hal_disp.c ****     }
 277:..\..\..\lvgl\version_6.1.2\lvgl\src\lv_hal/lv_hal_disp.c **** #endif
 278:..\..\..\lvgl\version_6.1.2\lvgl\src\lv_hal/lv_hal_disp.c **** 
 279:..\..\..\lvgl\version_6.1.2\lvgl\src\lv_hal/lv_hal_disp.c ****     disp_drv->buffer->flushing = 0;
 717              		.loc 1 279 0
 718 0000 4268     		ldr	r2, [r0, #4]
 719 0002 137E     		ldrb	r3, [r2, #24]	@ zero_extendqisi2
 720 0004 6FF30003 		bfc	r3, #0, #1
 721 0008 1376     		strb	r3, [r2, #24]
 722 000a 7047     		bx	lr
 723              		.cfi_endproc
 724              	.LFE41:
 725              		.size	lv_disp_flush_ready, .-lv_disp_flush_ready
 726              		.section	.text.lv_disp_get_next,"ax",%progbits
 727              		.align	2
 728              		.global	lv_disp_get_next
 729              		.thumb
 730              		.thumb_func
 731              		.type	lv_disp_get_next, %function
 732              	lv_disp_get_next:
 733              	.LFB42:
 280:..\..\..\lvgl\version_6.1.2\lvgl\src\lv_hal/lv_hal_disp.c **** }
 281:..\..\..\lvgl\version_6.1.2\lvgl\src\lv_hal/lv_hal_disp.c **** 
 282:..\..\..\lvgl\version_6.1.2\lvgl\src\lv_hal/lv_hal_disp.c **** /**
 283:..\..\..\lvgl\version_6.1.2\lvgl\src\lv_hal/lv_hal_disp.c ****  * Get the next display.
 284:..\..\..\lvgl\version_6.1.2\lvgl\src\lv_hal/lv_hal_disp.c ****  * @param disp pointer to the current display. NULL to initialize.
 285:..\..\..\lvgl\version_6.1.2\lvgl\src\lv_hal/lv_hal_disp.c ****  * @return the next display or NULL if no more. Give the first display when the parameter is NULL
 286:..\..\..\lvgl\version_6.1.2\lvgl\src\lv_hal/lv_hal_disp.c ****  */
ARM GAS  C:\Users\pearlstl\AppData\Local\Temp\cct01Du5.s 			page 20


 287:..\..\..\lvgl\version_6.1.2\lvgl\src\lv_hal/lv_hal_disp.c **** lv_disp_t * lv_disp_get_next(lv_disp_t * disp)
 288:..\..\..\lvgl\version_6.1.2\lvgl\src\lv_hal/lv_hal_disp.c **** {
 734              		.loc 1 288 0
 735              		.cfi_startproc
 736              		@ args = 0, pretend = 0, frame = 0
 737              		@ frame_needed = 0, uses_anonymous_args = 0
 738              		@ link register save eliminated.
 739              	.LVL63:
 289:..\..\..\lvgl\version_6.1.2\lvgl\src\lv_hal/lv_hal_disp.c ****     if(disp == NULL)
 740              		.loc 1 289 0
 741 0000 18B1     		cbz	r0, .L75
 290:..\..\..\lvgl\version_6.1.2\lvgl\src\lv_hal/lv_hal_disp.c ****         return lv_ll_get_head(&LV_GC_ROOT(_lv_disp_ll));
 291:..\..\..\lvgl\version_6.1.2\lvgl\src\lv_hal/lv_hal_disp.c ****     else
 292:..\..\..\lvgl\version_6.1.2\lvgl\src\lv_hal/lv_hal_disp.c ****         return lv_ll_get_next(&LV_GC_ROOT(_lv_disp_ll), disp);
 742              		.loc 1 292 0
 743 0002 0146     		mov	r1, r0
 744 0004 0248     		ldr	r0, .L76
 745              	.LVL64:
 746 0006 FFF7FEBF 		b	lv_ll_get_next
 747              	.LVL65:
 748              	.L75:
 290:..\..\..\lvgl\version_6.1.2\lvgl\src\lv_hal/lv_hal_disp.c ****         return lv_ll_get_head(&LV_GC_ROOT(_lv_disp_ll));
 749              		.loc 1 290 0
 750 000a 0148     		ldr	r0, .L76
 751              	.LVL66:
 752 000c FFF7FEBF 		b	lv_ll_get_head
 753              	.LVL67:
 754              	.L77:
 755              		.align	2
 756              	.L76:
 757 0010 00000000 		.word	_lv_disp_ll
 758              		.cfi_endproc
 759              	.LFE42:
 760              		.size	lv_disp_get_next, .-lv_disp_get_next
 761              		.section	.text.lv_disp_get_buf,"ax",%progbits
 762              		.align	2
 763              		.global	lv_disp_get_buf
 764              		.thumb
 765              		.thumb_func
 766              		.type	lv_disp_get_buf, %function
 767              	lv_disp_get_buf:
 768              	.LFB43:
 293:..\..\..\lvgl\version_6.1.2\lvgl\src\lv_hal/lv_hal_disp.c **** }
 294:..\..\..\lvgl\version_6.1.2\lvgl\src\lv_hal/lv_hal_disp.c **** 
 295:..\..\..\lvgl\version_6.1.2\lvgl\src\lv_hal/lv_hal_disp.c **** /**
 296:..\..\..\lvgl\version_6.1.2\lvgl\src\lv_hal/lv_hal_disp.c ****  * Get the internal buffer of a display
 297:..\..\..\lvgl\version_6.1.2\lvgl\src\lv_hal/lv_hal_disp.c ****  * @param disp pointer to a display
 298:..\..\..\lvgl\version_6.1.2\lvgl\src\lv_hal/lv_hal_disp.c ****  * @return pointer to the internal buffers
 299:..\..\..\lvgl\version_6.1.2\lvgl\src\lv_hal/lv_hal_disp.c ****  */
 300:..\..\..\lvgl\version_6.1.2\lvgl\src\lv_hal/lv_hal_disp.c **** lv_disp_buf_t * lv_disp_get_buf(lv_disp_t * disp)
 301:..\..\..\lvgl\version_6.1.2\lvgl\src\lv_hal/lv_hal_disp.c **** {
 769              		.loc 1 301 0
 770              		.cfi_startproc
 771              		@ args = 0, pretend = 0, frame = 0
 772              		@ frame_needed = 0, uses_anonymous_args = 0
 773              		@ link register save eliminated.
 774              	.LVL68:
ARM GAS  C:\Users\pearlstl\AppData\Local\Temp\cct01Du5.s 			page 21


 302:..\..\..\lvgl\version_6.1.2\lvgl\src\lv_hal/lv_hal_disp.c ****     return disp->driver.buffer;
 303:..\..\..\lvgl\version_6.1.2\lvgl\src\lv_hal/lv_hal_disp.c **** }
 775              		.loc 1 303 0
 776 0000 4068     		ldr	r0, [r0, #4]
 777              	.LVL69:
 778 0002 7047     		bx	lr
 779              		.cfi_endproc
 780              	.LFE43:
 781              		.size	lv_disp_get_buf, .-lv_disp_get_buf
 782              		.section	.text.lv_disp_get_inv_buf_size,"ax",%progbits
 783              		.align	2
 784              		.global	lv_disp_get_inv_buf_size
 785              		.thumb
 786              		.thumb_func
 787              		.type	lv_disp_get_inv_buf_size, %function
 788              	lv_disp_get_inv_buf_size:
 789              	.LFB44:
 304:..\..\..\lvgl\version_6.1.2\lvgl\src\lv_hal/lv_hal_disp.c **** 
 305:..\..\..\lvgl\version_6.1.2\lvgl\src\lv_hal/lv_hal_disp.c **** /**
 306:..\..\..\lvgl\version_6.1.2\lvgl\src\lv_hal/lv_hal_disp.c ****  * Get the number of areas in the buffer
 307:..\..\..\lvgl\version_6.1.2\lvgl\src\lv_hal/lv_hal_disp.c ****  * @return number of invalid areas
 308:..\..\..\lvgl\version_6.1.2\lvgl\src\lv_hal/lv_hal_disp.c ****  */
 309:..\..\..\lvgl\version_6.1.2\lvgl\src\lv_hal/lv_hal_disp.c **** uint16_t lv_disp_get_inv_buf_size(lv_disp_t * disp)
 310:..\..\..\lvgl\version_6.1.2\lvgl\src\lv_hal/lv_hal_disp.c **** {
 790              		.loc 1 310 0
 791              		.cfi_startproc
 792              		@ args = 0, pretend = 0, frame = 0
 793              		@ frame_needed = 0, uses_anonymous_args = 0
 794              		@ link register save eliminated.
 795              	.LVL70:
 311:..\..\..\lvgl\version_6.1.2\lvgl\src\lv_hal/lv_hal_disp.c ****     return disp->inv_p;
 796              		.loc 1 311 0
 797 0000 B0F85C01 		ldrh	r0, [r0, #348]
 798              	.LVL71:
 312:..\..\..\lvgl\version_6.1.2\lvgl\src\lv_hal/lv_hal_disp.c **** }
 799              		.loc 1 312 0
 800 0004 C0F30900 		ubfx	r0, r0, #0, #10
 801 0008 7047     		bx	lr
 802              		.cfi_endproc
 803              	.LFE44:
 804              		.size	lv_disp_get_inv_buf_size, .-lv_disp_get_inv_buf_size
 805 000a 00BF     		.section	.text.lv_disp_pop_from_inv_buf,"ax",%progbits
 806              		.align	2
 807              		.global	lv_disp_pop_from_inv_buf
 808              		.thumb
 809              		.thumb_func
 810              		.type	lv_disp_pop_from_inv_buf, %function
 811              	lv_disp_pop_from_inv_buf:
 812              	.LFB45:
 313:..\..\..\lvgl\version_6.1.2\lvgl\src\lv_hal/lv_hal_disp.c **** 
 314:..\..\..\lvgl\version_6.1.2\lvgl\src\lv_hal/lv_hal_disp.c **** /**
 315:..\..\..\lvgl\version_6.1.2\lvgl\src\lv_hal/lv_hal_disp.c ****  * Pop (delete) the last 'num' invalidated areas from the buffer
 316:..\..\..\lvgl\version_6.1.2\lvgl\src\lv_hal/lv_hal_disp.c ****  * @param num number of areas to delete
 317:..\..\..\lvgl\version_6.1.2\lvgl\src\lv_hal/lv_hal_disp.c ****  */
 318:..\..\..\lvgl\version_6.1.2\lvgl\src\lv_hal/lv_hal_disp.c **** void lv_disp_pop_from_inv_buf(lv_disp_t * disp, uint16_t num)
 319:..\..\..\lvgl\version_6.1.2\lvgl\src\lv_hal/lv_hal_disp.c **** {
 813              		.loc 1 319 0
ARM GAS  C:\Users\pearlstl\AppData\Local\Temp\cct01Du5.s 			page 22


 814              		.cfi_startproc
 815              		@ args = 0, pretend = 0, frame = 0
 816              		@ frame_needed = 0, uses_anonymous_args = 0
 817              		@ link register save eliminated.
 818              	.LVL72:
 320:..\..\..\lvgl\version_6.1.2\lvgl\src\lv_hal/lv_hal_disp.c **** 
 321:..\..\..\lvgl\version_6.1.2\lvgl\src\lv_hal/lv_hal_disp.c ****     if(disp->inv_p < num)
 819              		.loc 1 321 0
 820 0000 B0F85C31 		ldrh	r3, [r0, #348]
 821 0004 B0F85C21 		ldrh	r2, [r0, #348]
 822 0008 C3F30903 		ubfx	r3, r3, #0, #10
 823 000c 8B42     		cmp	r3, r1
 322:..\..\..\lvgl\version_6.1.2\lvgl\src\lv_hal/lv_hal_disp.c ****         disp->inv_p = 0;
 323:..\..\..\lvgl\version_6.1.2\lvgl\src\lv_hal/lv_hal_disp.c ****     else
 324:..\..\..\lvgl\version_6.1.2\lvgl\src\lv_hal/lv_hal_disp.c ****         disp->inv_p -= num;
 824              		.loc 1 324 0
 825 000e A6BF     		itte	ge
 826 0010 5B1A     		subge	r3, r3, r1
 827 0012 C3F30903 		ubfxge	r3, r3, #0, #10
 322:..\..\..\lvgl\version_6.1.2\lvgl\src\lv_hal/lv_hal_disp.c ****         disp->inv_p = 0;
 828              		.loc 1 322 0
 829 0016 0023     		movlt	r3, #0
 830 0018 63F30902 		bfi	r2, r3, #0, #10
 831 001c A0F85C21 		strh	r2, [r0, #348]	@ movhi
 832 0020 7047     		bx	lr
 833              		.cfi_endproc
 834              	.LFE45:
 835              		.size	lv_disp_pop_from_inv_buf, .-lv_disp_pop_from_inv_buf
 836 0022 00BF     		.section	.text.lv_disp_is_double_buf,"ax",%progbits
 837              		.align	2
 838              		.global	lv_disp_is_double_buf
 839              		.thumb
 840              		.thumb_func
 841              		.type	lv_disp_is_double_buf, %function
 842              	lv_disp_is_double_buf:
 843              	.LFB46:
 325:..\..\..\lvgl\version_6.1.2\lvgl\src\lv_hal/lv_hal_disp.c **** }
 326:..\..\..\lvgl\version_6.1.2\lvgl\src\lv_hal/lv_hal_disp.c **** 
 327:..\..\..\lvgl\version_6.1.2\lvgl\src\lv_hal/lv_hal_disp.c **** /**
 328:..\..\..\lvgl\version_6.1.2\lvgl\src\lv_hal/lv_hal_disp.c ****  * Check the driver configuration if it's double buffered (both `buf1` and `buf2` are set)
 329:..\..\..\lvgl\version_6.1.2\lvgl\src\lv_hal/lv_hal_disp.c ****  * @param disp pointer to to display to check
 330:..\..\..\lvgl\version_6.1.2\lvgl\src\lv_hal/lv_hal_disp.c ****  * @return true: double buffered; false: not double buffered
 331:..\..\..\lvgl\version_6.1.2\lvgl\src\lv_hal/lv_hal_disp.c ****  */
 332:..\..\..\lvgl\version_6.1.2\lvgl\src\lv_hal/lv_hal_disp.c **** bool lv_disp_is_double_buf(lv_disp_t * disp)
 333:..\..\..\lvgl\version_6.1.2\lvgl\src\lv_hal/lv_hal_disp.c **** {
 844              		.loc 1 333 0
 845              		.cfi_startproc
 846              		@ args = 0, pretend = 0, frame = 0
 847              		@ frame_needed = 0, uses_anonymous_args = 0
 848              		@ link register save eliminated.
 849              	.LVL73:
 334:..\..\..\lvgl\version_6.1.2\lvgl\src\lv_hal/lv_hal_disp.c ****     if(disp->driver.buffer->buf1 && disp->driver.buffer->buf2)
 850              		.loc 1 334 0
 851 0000 4368     		ldr	r3, [r0, #4]
 852 0002 1868     		ldr	r0, [r3]
 853              	.LVL74:
 854 0004 18B1     		cbz	r0, .L84
ARM GAS  C:\Users\pearlstl\AppData\Local\Temp\cct01Du5.s 			page 23


 855              		.loc 1 334 0 is_stmt 0 discriminator 1
 856 0006 5868     		ldr	r0, [r3, #4]
 857 0008 0030     		adds	r0, r0, #0
 858 000a 18BF     		it	ne
 859 000c 0120     		movne	r0, #1
 860              	.L84:
 335:..\..\..\lvgl\version_6.1.2\lvgl\src\lv_hal/lv_hal_disp.c ****         return true;
 336:..\..\..\lvgl\version_6.1.2\lvgl\src\lv_hal/lv_hal_disp.c ****     else
 337:..\..\..\lvgl\version_6.1.2\lvgl\src\lv_hal/lv_hal_disp.c ****         return false;
 338:..\..\..\lvgl\version_6.1.2\lvgl\src\lv_hal/lv_hal_disp.c **** }
 861              		.loc 1 338 0 is_stmt 1
 862 000e 7047     		bx	lr
 863              		.cfi_endproc
 864              	.LFE46:
 865              		.size	lv_disp_is_double_buf, .-lv_disp_is_double_buf
 866              		.section	.text.lv_disp_is_true_double_buf,"ax",%progbits
 867              		.align	2
 868              		.global	lv_disp_is_true_double_buf
 869              		.thumb
 870              		.thumb_func
 871              		.type	lv_disp_is_true_double_buf, %function
 872              	lv_disp_is_true_double_buf:
 873              	.LFB47:
 339:..\..\..\lvgl\version_6.1.2\lvgl\src\lv_hal/lv_hal_disp.c **** 
 340:..\..\..\lvgl\version_6.1.2\lvgl\src\lv_hal/lv_hal_disp.c **** /**
 341:..\..\..\lvgl\version_6.1.2\lvgl\src\lv_hal/lv_hal_disp.c ****  * Check the driver configuration if it's TRUE double buffered (both `buf1` and `buf2` are set and
 342:..\..\..\lvgl\version_6.1.2\lvgl\src\lv_hal/lv_hal_disp.c ****  * `size` is screen sized)
 343:..\..\..\lvgl\version_6.1.2\lvgl\src\lv_hal/lv_hal_disp.c ****  * @param disp pointer to to display to check
 344:..\..\..\lvgl\version_6.1.2\lvgl\src\lv_hal/lv_hal_disp.c ****  * @return true: double buffered; false: not double buffered
 345:..\..\..\lvgl\version_6.1.2\lvgl\src\lv_hal/lv_hal_disp.c ****  */
 346:..\..\..\lvgl\version_6.1.2\lvgl\src\lv_hal/lv_hal_disp.c **** bool lv_disp_is_true_double_buf(lv_disp_t * disp)
 347:..\..\..\lvgl\version_6.1.2\lvgl\src\lv_hal/lv_hal_disp.c **** {
 874              		.loc 1 347 0
 875              		.cfi_startproc
 876              		@ args = 0, pretend = 0, frame = 0
 877              		@ frame_needed = 0, uses_anonymous_args = 0
 878              		@ link register save eliminated.
 879              	.LVL75:
 880              	.LBB44:
 881              	.LBB45:
 334:..\..\..\lvgl\version_6.1.2\lvgl\src\lv_hal/lv_hal_disp.c ****         return true;
 882              		.loc 1 334 0
 883 0000 4168     		ldr	r1, [r0, #4]
 884 0002 0B68     		ldr	r3, [r1]
 885 0004 6BB1     		cbz	r3, .L89
 886 0006 4B68     		ldr	r3, [r1, #4]
 887 0008 5BB1     		cbz	r3, .L89
 888              	.LBE45:
 889              	.LBE44:
 348:..\..\..\lvgl\version_6.1.2\lvgl\src\lv_hal/lv_hal_disp.c ****     uint32_t scr_size = disp->driver.hor_res * disp->driver.ver_res;
 890              		.loc 1 348 0
 891 000a B0F90020 		ldrsh	r2, [r0]
 892 000e B0F90200 		ldrsh	r0, [r0, #2]
 893              	.LVL76:
 349:..\..\..\lvgl\version_6.1.2\lvgl\src\lv_hal/lv_hal_disp.c **** 
 350:..\..\..\lvgl\version_6.1.2\lvgl\src\lv_hal/lv_hal_disp.c ****     if(lv_disp_is_double_buf(disp) && disp->driver.buffer->size == scr_size) {
 894              		.loc 1 350 0
ARM GAS  C:\Users\pearlstl\AppData\Local\Temp\cct01Du5.s 			page 24


 895 0012 C968     		ldr	r1, [r1, #12]
 896 0014 02FB00F3 		mul	r3, r2, r0
 897 0018 581A     		subs	r0, r3, r1
 898              	.LVL77:
 899 001a B0FA80F0 		clz	r0, r0
 900 001e 4009     		lsrs	r0, r0, #5
 351:..\..\..\lvgl\version_6.1.2\lvgl\src\lv_hal/lv_hal_disp.c ****         return true;
 352:..\..\..\lvgl\version_6.1.2\lvgl\src\lv_hal/lv_hal_disp.c ****     } else {
 353:..\..\..\lvgl\version_6.1.2\lvgl\src\lv_hal/lv_hal_disp.c ****         return false;
 354:..\..\..\lvgl\version_6.1.2\lvgl\src\lv_hal/lv_hal_disp.c ****     }
 355:..\..\..\lvgl\version_6.1.2\lvgl\src\lv_hal/lv_hal_disp.c **** }
 901              		.loc 1 355 0
 902 0020 7047     		bx	lr
 903              	.LVL78:
 904              	.L89:
 353:..\..\..\lvgl\version_6.1.2\lvgl\src\lv_hal/lv_hal_disp.c ****     }
 905              		.loc 1 353 0
 906 0022 1846     		mov	r0, r3
 907              	.LVL79:
 908 0024 7047     		bx	lr
 909              		.cfi_endproc
 910              	.LFE47:
 911              		.size	lv_disp_is_true_double_buf, .-lv_disp_is_true_double_buf
 912 0026 00BF     		.bss
 913              		.align	2
 914              		.set	.LANCHOR0,. + 0
 915              		.type	disp_def, %object
 916              		.size	disp_def, 4
 917              	disp_def:
 918 0000 00000000 		.space	4
 919              		.text
 920              	.Letext0:
 921              		.file 2 "c:\\program files (x86)\\cypress\\psoc creator\\4.2\\psoc creator\\import\\gnu\\arm\\5.4.
 922              		.file 3 "c:\\program files (x86)\\cypress\\psoc creator\\4.2\\psoc creator\\import\\gnu\\arm\\5.4.
 923              		.file 4 "..\\..\\..\\lvgl\\version_6.1.2\\lvgl\\src\\lv_hal\\../lv_misc/../../../lv_conf.h"
 924              		.file 5 "..\\..\\..\\lvgl\\version_6.1.2\\lvgl\\src\\lv_hal\\../lv_misc/lv_color.h"
 925              		.file 6 "..\\..\\..\\lvgl\\version_6.1.2\\lvgl\\src\\lv_hal\\../lv_misc/lv_area.h"
 926              		.file 7 "..\\..\\..\\lvgl\\version_6.1.2\\lvgl\\src\\lv_hal\\../lv_misc/lv_types.h"
 927              		.file 8 "..\\..\\..\\lvgl\\version_6.1.2\\lvgl\\src\\lv_hal\\../lv_misc/lv_ll.h"
 928              		.file 9 "..\\..\\..\\lvgl\\version_6.1.2\\lvgl\\src\\lv_hal\\../lv_misc/lv_task.h"
 929              		.file 10 "..\\..\\..\\lvgl\\version_6.1.2\\lvgl\\src\\lv_hal\\lv_hal_disp.h"
 930              		.file 11 "..\\..\\..\\lvgl\\version_6.1.2\\lvgl\\src\\lv_hal\\../lv_core/lv_obj.h"
 931              		.file 12 "..\\..\\..\\lvgl\\version_6.1.2\\lvgl\\src\\lv_hal\\lv_hal_indev.h"
 932              		.file 13 "..\\..\\..\\lvgl\\version_6.1.2\\lvgl\\src\\lv_hal\\../lv_core/../lv_font/lv_font.h"
 933              		.file 14 "..\\..\\..\\lvgl\\version_6.1.2\\lvgl\\src\\lv_hal\\../lv_core/lv_style.h"
 934              		.file 15 "..\\..\\..\\lvgl\\version_6.1.2\\lvgl\\src\\lv_hal\\../lv_core/../lv_misc/lv_bidi.h"
 935              		.file 16 "..\\..\\..\\lvgl\\version_6.1.2\\lvgl\\src\\lv_hal\\../lv_misc/lv_gc.h"
 936              		.file 17 "..\\..\\..\\lvgl\\version_6.1.2\\lvgl\\src\\lv_hal\\../lv_misc/lv_mem.h"