ARM GAS  C:\Users\pearlstl\AppData\Local\Temp\ccKQfvhr.s 			page 1


   1              		.syntax unified
   2              		.cpu cortex-m4
   3              		.eabi_attribute 27, 1
   4              		.fpu fpv4-sp-d16
   5              		.eabi_attribute 20, 1
   6              		.eabi_attribute 21, 1
   7              		.eabi_attribute 23, 3
   8              		.eabi_attribute 24, 1
   9              		.eabi_attribute 25, 1
  10              		.eabi_attribute 26, 1
  11              		.eabi_attribute 30, 2
  12              		.eabi_attribute 34, 1
  13              		.eabi_attribute 18, 4
  14              		.thumb
  15              		.syntax unified
  16              		.file	"lv_img_cache.c"
  17              		.text
  18              	.Ltext0:
  19              		.cfi_sections	.debug_frame
  20              		.section	.text.lv_img_cache_open,"ax",%progbits
  21              		.align	2
  22              		.global	lv_img_cache_open
  23              		.thumb
  24              		.thumb_func
  25              		.type	lv_img_cache_open, %function
  26              	lv_img_cache_open:
  27              	.LFB31:
  28              		.file 1 "..\\..\\..\\lvgl\\version_6.1.2\\lvgl\\src\\lv_draw\\lv_img_cache.c"
   1:..\..\..\lvgl\version_6.1.2\lvgl\src\lv_draw/lv_img_cache.c **** /**
   2:..\..\..\lvgl\version_6.1.2\lvgl\src\lv_draw/lv_img_cache.c ****  * @file lv_img_cache.c
   3:..\..\..\lvgl\version_6.1.2\lvgl\src\lv_draw/lv_img_cache.c ****  *
   4:..\..\..\lvgl\version_6.1.2\lvgl\src\lv_draw/lv_img_cache.c ****  */
   5:..\..\..\lvgl\version_6.1.2\lvgl\src\lv_draw/lv_img_cache.c **** 
   6:..\..\..\lvgl\version_6.1.2\lvgl\src\lv_draw/lv_img_cache.c **** /*********************
   7:..\..\..\lvgl\version_6.1.2\lvgl\src\lv_draw/lv_img_cache.c ****  *      INCLUDES
   8:..\..\..\lvgl\version_6.1.2\lvgl\src\lv_draw/lv_img_cache.c ****  *********************/
   9:..\..\..\lvgl\version_6.1.2\lvgl\src\lv_draw/lv_img_cache.c **** #include "../lv_core/lv_debug.h"
  10:..\..\..\lvgl\version_6.1.2\lvgl\src\lv_draw/lv_img_cache.c **** #include "lv_img_cache.h"
  11:..\..\..\lvgl\version_6.1.2\lvgl\src\lv_draw/lv_img_cache.c **** #include "lv_img_decoder.h"
  12:..\..\..\lvgl\version_6.1.2\lvgl\src\lv_draw/lv_img_cache.c **** #include "lv_draw_img.h"
  13:..\..\..\lvgl\version_6.1.2\lvgl\src\lv_draw/lv_img_cache.c **** #include "../lv_hal/lv_hal_tick.h"
  14:..\..\..\lvgl\version_6.1.2\lvgl\src\lv_draw/lv_img_cache.c **** #include "../lv_misc/lv_gc.h"
  15:..\..\..\lvgl\version_6.1.2\lvgl\src\lv_draw/lv_img_cache.c **** 
  16:..\..\..\lvgl\version_6.1.2\lvgl\src\lv_draw/lv_img_cache.c **** #if defined(LV_GC_INCLUDE)
  17:..\..\..\lvgl\version_6.1.2\lvgl\src\lv_draw/lv_img_cache.c **** #include LV_GC_INCLUDE
  18:..\..\..\lvgl\version_6.1.2\lvgl\src\lv_draw/lv_img_cache.c **** #endif /* LV_ENABLE_GC */
  19:..\..\..\lvgl\version_6.1.2\lvgl\src\lv_draw/lv_img_cache.c **** /*********************
  20:..\..\..\lvgl\version_6.1.2\lvgl\src\lv_draw/lv_img_cache.c ****  *      DEFINES
  21:..\..\..\lvgl\version_6.1.2\lvgl\src\lv_draw/lv_img_cache.c ****  *********************/
  22:..\..\..\lvgl\version_6.1.2\lvgl\src\lv_draw/lv_img_cache.c **** /*Decrement life with this value in every open*/
  23:..\..\..\lvgl\version_6.1.2\lvgl\src\lv_draw/lv_img_cache.c **** #define LV_IMG_CACHE_AGING 1
  24:..\..\..\lvgl\version_6.1.2\lvgl\src\lv_draw/lv_img_cache.c **** 
  25:..\..\..\lvgl\version_6.1.2\lvgl\src\lv_draw/lv_img_cache.c **** /*Boost life by this factor (multiply time_to_open with this value)*/
  26:..\..\..\lvgl\version_6.1.2\lvgl\src\lv_draw/lv_img_cache.c **** #define LV_IMG_CACHE_LIFE_GAIN 1
  27:..\..\..\lvgl\version_6.1.2\lvgl\src\lv_draw/lv_img_cache.c **** 
  28:..\..\..\lvgl\version_6.1.2\lvgl\src\lv_draw/lv_img_cache.c **** /*Don't let life to be greater than this limit because it would require a lot of time to
  29:..\..\..\lvgl\version_6.1.2\lvgl\src\lv_draw/lv_img_cache.c ****  * "die" from very high values */
ARM GAS  C:\Users\pearlstl\AppData\Local\Temp\ccKQfvhr.s 			page 2


  30:..\..\..\lvgl\version_6.1.2\lvgl\src\lv_draw/lv_img_cache.c **** #define LV_IMG_CACHE_LIFE_LIMIT 1000
  31:..\..\..\lvgl\version_6.1.2\lvgl\src\lv_draw/lv_img_cache.c **** 
  32:..\..\..\lvgl\version_6.1.2\lvgl\src\lv_draw/lv_img_cache.c **** #if LV_IMG_CACHE_DEF_SIZE < 1
  33:..\..\..\lvgl\version_6.1.2\lvgl\src\lv_draw/lv_img_cache.c **** #error "LV_IMG_CACHE_DEF_SIZE must be >= 1. See lv_conf.h"
  34:..\..\..\lvgl\version_6.1.2\lvgl\src\lv_draw/lv_img_cache.c **** #endif
  35:..\..\..\lvgl\version_6.1.2\lvgl\src\lv_draw/lv_img_cache.c **** 
  36:..\..\..\lvgl\version_6.1.2\lvgl\src\lv_draw/lv_img_cache.c **** /**********************
  37:..\..\..\lvgl\version_6.1.2\lvgl\src\lv_draw/lv_img_cache.c ****  *      TYPEDEFS
  38:..\..\..\lvgl\version_6.1.2\lvgl\src\lv_draw/lv_img_cache.c ****  **********************/
  39:..\..\..\lvgl\version_6.1.2\lvgl\src\lv_draw/lv_img_cache.c **** 
  40:..\..\..\lvgl\version_6.1.2\lvgl\src\lv_draw/lv_img_cache.c **** /**********************
  41:..\..\..\lvgl\version_6.1.2\lvgl\src\lv_draw/lv_img_cache.c ****  *  STATIC PROTOTYPES
  42:..\..\..\lvgl\version_6.1.2\lvgl\src\lv_draw/lv_img_cache.c ****  **********************/
  43:..\..\..\lvgl\version_6.1.2\lvgl\src\lv_draw/lv_img_cache.c **** 
  44:..\..\..\lvgl\version_6.1.2\lvgl\src\lv_draw/lv_img_cache.c **** /**********************
  45:..\..\..\lvgl\version_6.1.2\lvgl\src\lv_draw/lv_img_cache.c ****  *  STATIC VARIABLES
  46:..\..\..\lvgl\version_6.1.2\lvgl\src\lv_draw/lv_img_cache.c ****  **********************/
  47:..\..\..\lvgl\version_6.1.2\lvgl\src\lv_draw/lv_img_cache.c **** static uint16_t entry_cnt;
  48:..\..\..\lvgl\version_6.1.2\lvgl\src\lv_draw/lv_img_cache.c **** 
  49:..\..\..\lvgl\version_6.1.2\lvgl\src\lv_draw/lv_img_cache.c **** /**********************
  50:..\..\..\lvgl\version_6.1.2\lvgl\src\lv_draw/lv_img_cache.c ****  *      MACROS
  51:..\..\..\lvgl\version_6.1.2\lvgl\src\lv_draw/lv_img_cache.c ****  **********************/
  52:..\..\..\lvgl\version_6.1.2\lvgl\src\lv_draw/lv_img_cache.c **** 
  53:..\..\..\lvgl\version_6.1.2\lvgl\src\lv_draw/lv_img_cache.c **** /**********************
  54:..\..\..\lvgl\version_6.1.2\lvgl\src\lv_draw/lv_img_cache.c ****  *   GLOBAL FUNCTIONS
  55:..\..\..\lvgl\version_6.1.2\lvgl\src\lv_draw/lv_img_cache.c ****  **********************/
  56:..\..\..\lvgl\version_6.1.2\lvgl\src\lv_draw/lv_img_cache.c **** 
  57:..\..\..\lvgl\version_6.1.2\lvgl\src\lv_draw/lv_img_cache.c **** /**
  58:..\..\..\lvgl\version_6.1.2\lvgl\src\lv_draw/lv_img_cache.c ****  * Open an image using the image decoder interface and cache it.
  59:..\..\..\lvgl\version_6.1.2\lvgl\src\lv_draw/lv_img_cache.c ****  * The image will be left open meaning if the image decoder open callback allocated memory then it 
  60:..\..\..\lvgl\version_6.1.2\lvgl\src\lv_draw/lv_img_cache.c ****  * The image is closed if a new image is opened and the new image takes its place in the cache.
  61:..\..\..\lvgl\version_6.1.2\lvgl\src\lv_draw/lv_img_cache.c ****  * @param src source of the image. Path to file or pointer to an `lv_img_dsc_t` variable
  62:..\..\..\lvgl\version_6.1.2\lvgl\src\lv_draw/lv_img_cache.c ****  * @param style style of the image
  63:..\..\..\lvgl\version_6.1.2\lvgl\src\lv_draw/lv_img_cache.c ****  * @return pointer to the cache entry or NULL if can open the image
  64:..\..\..\lvgl\version_6.1.2\lvgl\src\lv_draw/lv_img_cache.c ****  */
  65:..\..\..\lvgl\version_6.1.2\lvgl\src\lv_draw/lv_img_cache.c **** lv_img_cache_entry_t * lv_img_cache_open(const void * src, const lv_style_t * style)
  66:..\..\..\lvgl\version_6.1.2\lvgl\src\lv_draw/lv_img_cache.c **** {
  29              		.loc 1 66 0
  30              		.cfi_startproc
  31              		@ args = 0, pretend = 0, frame = 0
  32              		@ frame_needed = 0, uses_anonymous_args = 0
  33              	.LVL0:
  34 0000 2DE9F843 		push	{r3, r4, r5, r6, r7, r8, r9, lr}
  35              		.cfi_def_cfa_offset 32
  36              		.cfi_offset 3, -32
  37              		.cfi_offset 4, -28
  38              		.cfi_offset 5, -24
  39              		.cfi_offset 6, -20
  40              		.cfi_offset 7, -16
  41              		.cfi_offset 8, -12
  42              		.cfi_offset 9, -8
  43              		.cfi_offset 14, -4
  67:..\..\..\lvgl\version_6.1.2\lvgl\src\lv_draw/lv_img_cache.c ****     if(entry_cnt == 0) {
  44              		.loc 1 67 0
  45 0004 4A4D     		ldr	r5, .L41
  46 0006 2C88     		ldrh	r4, [r5]
  47 0008 002C     		cmp	r4, #0
ARM GAS  C:\Users\pearlstl\AppData\Local\Temp\ccKQfvhr.s 			page 3


  48 000a 3CD0     		beq	.L8
  49 000c 631E     		subs	r3, r4, #1
  68:..\..\..\lvgl\version_6.1.2\lvgl\src\lv_draw/lv_img_cache.c ****         LV_LOG_WARN("lv_img_cache_open: the cache size is 0");
  69:..\..\..\lvgl\version_6.1.2\lvgl\src\lv_draw/lv_img_cache.c ****         return NULL;
  70:..\..\..\lvgl\version_6.1.2\lvgl\src\lv_draw/lv_img_cache.c ****     }
  71:..\..\..\lvgl\version_6.1.2\lvgl\src\lv_draw/lv_img_cache.c **** 
  72:..\..\..\lvgl\version_6.1.2\lvgl\src\lv_draw/lv_img_cache.c ****     lv_img_cache_entry_t * cache = LV_GC_ROOT(_lv_img_cache_array);
  50              		.loc 1 72 0
  51 000e 494C     		ldr	r4, .L41+4
  73:..\..\..\lvgl\version_6.1.2\lvgl\src\lv_draw/lv_img_cache.c **** 
  74:..\..\..\lvgl\version_6.1.2\lvgl\src\lv_draw/lv_img_cache.c ****     /*Decrement all lifes. Make the entries older*/
  75:..\..\..\lvgl\version_6.1.2\lvgl\src\lv_draw/lv_img_cache.c ****     uint16_t i;
  76:..\..\..\lvgl\version_6.1.2\lvgl\src\lv_draw/lv_img_cache.c ****     for(i = 0; i < entry_cnt; i++) {
  77:..\..\..\lvgl\version_6.1.2\lvgl\src\lv_draw/lv_img_cache.c ****         if(cache[i].life > INT32_MIN + LV_IMG_CACHE_AGING) {
  52              		.loc 1 77 0
  53 0010 494A     		ldr	r2, .L41+8
  72:..\..\..\lvgl\version_6.1.2\lvgl\src\lv_draw/lv_img_cache.c **** 
  54              		.loc 1 72 0
  55 0012 2668     		ldr	r6, [r4]
  56              	.LVL1:
  57 0014 9BB2     		uxth	r3, r3
  58 0016 0133     		adds	r3, r3, #1
  59 0018 03EB8303 		add	r3, r3, r3, lsl #2
  60 001c 06EBC303 		add	r3, r6, r3, lsl #3
  61 0020 3446     		mov	r4, r6
  62              	.LVL2:
  63              	.L4:
  64              		.loc 1 77 0
  65 0022 676A     		ldr	r7, [r4, #36]
  66 0024 9742     		cmp	r7, r2
  78:..\..\..\lvgl\version_6.1.2\lvgl\src\lv_draw/lv_img_cache.c ****             cache[i].life -= LV_IMG_CACHE_AGING;
  67              		.loc 1 78 0
  68 0026 A4BF     		itt	ge
  69 0028 07F1FF37 		addge	r7, r7, #-1
  70 002c 6762     		strge	r7, [r4, #36]
  71 002e 2834     		adds	r4, r4, #40
  76:..\..\..\lvgl\version_6.1.2\lvgl\src\lv_draw/lv_img_cache.c ****         if(cache[i].life > INT32_MIN + LV_IMG_CACHE_AGING) {
  72              		.loc 1 76 0
  73 0030 A342     		cmp	r3, r4
  74 0032 F6D1     		bne	.L4
  75 0034 8846     		mov	r8, r1
  76 0036 0746     		mov	r7, r0
  77 0038 4FF00009 		mov	r9, #0
  78 003c 09E0     		b	.L17
  79              	.LVL3:
  80              	.L36:
  81              	.LBB2:
  79:..\..\..\lvgl\version_6.1.2\lvgl\src\lv_draw/lv_img_cache.c ****         }
  80:..\..\..\lvgl\version_6.1.2\lvgl\src\lv_draw/lv_img_cache.c ****     }
  81:..\..\..\lvgl\version_6.1.2\lvgl\src\lv_draw/lv_img_cache.c **** 
  82:..\..\..\lvgl\version_6.1.2\lvgl\src\lv_draw/lv_img_cache.c ****     /*Is the image cached?*/
  83:..\..\..\lvgl\version_6.1.2\lvgl\src\lv_draw/lv_img_cache.c ****     lv_img_cache_entry_t * cached_src = NULL;
  84:..\..\..\lvgl\version_6.1.2\lvgl\src\lv_draw/lv_img_cache.c ****     for(i = 0; i < entry_cnt; i++) {
  85:..\..\..\lvgl\version_6.1.2\lvgl\src\lv_draw/lv_img_cache.c ****         bool match = false;
  86:..\..\..\lvgl\version_6.1.2\lvgl\src\lv_draw/lv_img_cache.c ****         lv_img_src_t src_type = lv_img_src_get_type(cache[i].dec_dsc.src);
  87:..\..\..\lvgl\version_6.1.2\lvgl\src\lv_draw/lv_img_cache.c ****         if(src_type == LV_IMG_SRC_VARIABLE) {
  88:..\..\..\lvgl\version_6.1.2\lvgl\src\lv_draw/lv_img_cache.c ****             if(cache[i].dec_dsc.src == src && cache[i].dec_dsc.style == style) match = true;
ARM GAS  C:\Users\pearlstl\AppData\Local\Temp\ccKQfvhr.s 			page 4


  82              		.loc 1 88 0
  83 003e 6368     		ldr	r3, [r4, #4]
  84 0040 BB42     		cmp	r3, r7
  85 0042 51D0     		beq	.L34
  86              	.LVL4:
  87              	.L6:
  88              	.LBE2:
  84:..\..\..\lvgl\version_6.1.2\lvgl\src\lv_draw/lv_img_cache.c ****         bool match = false;
  89              		.loc 1 84 0
  90 0044 09F10109 		add	r9, r9, #1
  91              	.LVL5:
  92 0048 2B88     		ldrh	r3, [r5]
  93 004a 1FFA89F9 		uxth	r9, r9
  94              	.LVL6:
  95 004e 4B45     		cmp	r3, r9
  96 0050 1CD9     		bls	.L35
  97              	.LVL7:
  98              	.L17:
  99              	.LBB3:
  86:..\..\..\lvgl\version_6.1.2\lvgl\src\lv_draw/lv_img_cache.c ****         if(src_type == LV_IMG_SRC_VARIABLE) {
 100              		.loc 1 86 0
 101 0052 09EB8904 		add	r4, r9, r9, lsl #2
 102 0056 06EBC404 		add	r4, r6, r4, lsl #3
 103 005a 6068     		ldr	r0, [r4, #4]
 104 005c FFF7FEFF 		bl	lv_img_src_get_type
 105              	.LVL8:
  87:..\..\..\lvgl\version_6.1.2\lvgl\src\lv_draw/lv_img_cache.c ****             if(cache[i].dec_dsc.src == src && cache[i].dec_dsc.style == style) match = true;
 106              		.loc 1 87 0
 107 0060 0028     		cmp	r0, #0
 108 0062 ECD0     		beq	.L36
  89:..\..\..\lvgl\version_6.1.2\lvgl\src\lv_draw/lv_img_cache.c ****         } else if(src_type == LV_IMG_SRC_FILE) {
 109              		.loc 1 89 0
 110 0064 0128     		cmp	r0, #1
 111 0066 EDD1     		bne	.L6
  90:..\..\..\lvgl\version_6.1.2\lvgl\src\lv_draw/lv_img_cache.c ****             if(strcmp(cache[i].dec_dsc.src, src) == 0) match = true;
 112              		.loc 1 90 0
 113 0068 3946     		mov	r1, r7
 114 006a 6068     		ldr	r0, [r4, #4]
 115              	.LVL9:
 116 006c FFF7FEFF 		bl	strcmp
 117              	.LVL10:
 118 0070 0028     		cmp	r0, #0
 119 0072 E7D1     		bne	.L6
 120              	.L7:
 121              	.LVL11:
  91:..\..\..\lvgl\version_6.1.2\lvgl\src\lv_draw/lv_img_cache.c ****         }
  92:..\..\..\lvgl\version_6.1.2\lvgl\src\lv_draw/lv_img_cache.c **** 
  93:..\..\..\lvgl\version_6.1.2\lvgl\src\lv_draw/lv_img_cache.c ****         if(match) {
  94:..\..\..\lvgl\version_6.1.2\lvgl\src\lv_draw/lv_img_cache.c ****             /* If opened increment its life.
  95:..\..\..\lvgl\version_6.1.2\lvgl\src\lv_draw/lv_img_cache.c ****              * Image difficult to open should live longer to keep avoid frequent their recaching.
  96:..\..\..\lvgl\version_6.1.2\lvgl\src\lv_draw/lv_img_cache.c ****              * Therefore increase `life` with `time_to_open`*/
  97:..\..\..\lvgl\version_6.1.2\lvgl\src\lv_draw/lv_img_cache.c ****             cached_src = &cache[i];
  98:..\..\..\lvgl\version_6.1.2\lvgl\src\lv_draw/lv_img_cache.c ****             cached_src->life += cached_src->dec_dsc.time_to_open * LV_IMG_CACHE_LIFE_GAIN;
 122              		.loc 1 98 0
 123 0074 626A     		ldr	r2, [r4, #36]
 124 0076 A369     		ldr	r3, [r4, #24]
 125 0078 1344     		add	r3, r3, r2
ARM GAS  C:\Users\pearlstl\AppData\Local\Temp\ccKQfvhr.s 			page 5


  99:..\..\..\lvgl\version_6.1.2\lvgl\src\lv_draw/lv_img_cache.c ****             if(cached_src->life > LV_IMG_CACHE_LIFE_LIMIT) cached_src->life = LV_IMG_CACHE_LIFE_LIM
 126              		.loc 1 99 0
 127 007a B3F57A7F 		cmp	r3, #1000
 128 007e 37DD     		ble	.L37
 129              		.loc 1 99 0 is_stmt 0 discriminator 1
 130 0080 4FF47A73 		mov	r3, #1000
 131 0084 6362     		str	r3, [r4, #36]
 132              	.LVL12:
 133              	.L8:
 134              	.LBE3:
 135              	.LBB4:
 100:..\..\..\lvgl\version_6.1.2\lvgl\src\lv_draw/lv_img_cache.c ****             LV_LOG_TRACE("image draw: image found in the cache");
 101:..\..\..\lvgl\version_6.1.2\lvgl\src\lv_draw/lv_img_cache.c ****             break;
 102:..\..\..\lvgl\version_6.1.2\lvgl\src\lv_draw/lv_img_cache.c ****         }
 103:..\..\..\lvgl\version_6.1.2\lvgl\src\lv_draw/lv_img_cache.c ****     }
 104:..\..\..\lvgl\version_6.1.2\lvgl\src\lv_draw/lv_img_cache.c **** 
 105:..\..\..\lvgl\version_6.1.2\lvgl\src\lv_draw/lv_img_cache.c ****     /*The image is not cached then cache it now*/
 106:..\..\..\lvgl\version_6.1.2\lvgl\src\lv_draw/lv_img_cache.c ****     if(cached_src == NULL) {
 107:..\..\..\lvgl\version_6.1.2\lvgl\src\lv_draw/lv_img_cache.c ****         /*Find an entry to reuse. Select the entry with the least life*/
 108:..\..\..\lvgl\version_6.1.2\lvgl\src\lv_draw/lv_img_cache.c ****         cached_src = &cache[0];
 109:..\..\..\lvgl\version_6.1.2\lvgl\src\lv_draw/lv_img_cache.c ****         for(i = 1; i < entry_cnt; i++) {
 110:..\..\..\lvgl\version_6.1.2\lvgl\src\lv_draw/lv_img_cache.c ****             if(cache[i].life < cached_src->life) {
 111:..\..\..\lvgl\version_6.1.2\lvgl\src\lv_draw/lv_img_cache.c ****                 cached_src = &cache[i];
 112:..\..\..\lvgl\version_6.1.2\lvgl\src\lv_draw/lv_img_cache.c ****             }
 113:..\..\..\lvgl\version_6.1.2\lvgl\src\lv_draw/lv_img_cache.c ****         }
 114:..\..\..\lvgl\version_6.1.2\lvgl\src\lv_draw/lv_img_cache.c **** 
 115:..\..\..\lvgl\version_6.1.2\lvgl\src\lv_draw/lv_img_cache.c ****         /*Close the decoder to reuse if it was opened (has a valid source)*/
 116:..\..\..\lvgl\version_6.1.2\lvgl\src\lv_draw/lv_img_cache.c ****         if(cached_src->dec_dsc.src) {
 117:..\..\..\lvgl\version_6.1.2\lvgl\src\lv_draw/lv_img_cache.c ****             lv_img_decoder_close(&cached_src->dec_dsc);
 118:..\..\..\lvgl\version_6.1.2\lvgl\src\lv_draw/lv_img_cache.c ****             LV_LOG_INFO("image draw: cache miss, close and reuse an entry");
 119:..\..\..\lvgl\version_6.1.2\lvgl\src\lv_draw/lv_img_cache.c ****         } else {
 120:..\..\..\lvgl\version_6.1.2\lvgl\src\lv_draw/lv_img_cache.c ****             LV_LOG_INFO("image draw: cache miss, cached to an empty entry");
 121:..\..\..\lvgl\version_6.1.2\lvgl\src\lv_draw/lv_img_cache.c ****         }
 122:..\..\..\lvgl\version_6.1.2\lvgl\src\lv_draw/lv_img_cache.c **** 
 123:..\..\..\lvgl\version_6.1.2\lvgl\src\lv_draw/lv_img_cache.c ****         /*Open the image and measure the time to open*/
 124:..\..\..\lvgl\version_6.1.2\lvgl\src\lv_draw/lv_img_cache.c ****         uint32_t t_start;
 125:..\..\..\lvgl\version_6.1.2\lvgl\src\lv_draw/lv_img_cache.c ****         t_start                          = lv_tick_get();
 126:..\..\..\lvgl\version_6.1.2\lvgl\src\lv_draw/lv_img_cache.c ****         cached_src->dec_dsc.time_to_open = 0;
 127:..\..\..\lvgl\version_6.1.2\lvgl\src\lv_draw/lv_img_cache.c ****         lv_res_t open_res                = lv_img_decoder_open(&cached_src->dec_dsc, src, style);
 128:..\..\..\lvgl\version_6.1.2\lvgl\src\lv_draw/lv_img_cache.c ****         if(open_res == LV_RES_INV) {
 129:..\..\..\lvgl\version_6.1.2\lvgl\src\lv_draw/lv_img_cache.c ****             LV_LOG_WARN("Image draw cannot open the image resource");
 130:..\..\..\lvgl\version_6.1.2\lvgl\src\lv_draw/lv_img_cache.c ****             lv_img_decoder_close(&cached_src->dec_dsc);
 131:..\..\..\lvgl\version_6.1.2\lvgl\src\lv_draw/lv_img_cache.c ****             memset(&cached_src->dec_dsc, 0, sizeof(lv_img_decoder_dsc_t));
 132:..\..\..\lvgl\version_6.1.2\lvgl\src\lv_draw/lv_img_cache.c ****             memset(cached_src, 0, sizeof(lv_img_cache_entry_t));
 133:..\..\..\lvgl\version_6.1.2\lvgl\src\lv_draw/lv_img_cache.c ****             cached_src->life = INT32_MIN; /*Make the empty entry very "weak" to force its use  */
 134:..\..\..\lvgl\version_6.1.2\lvgl\src\lv_draw/lv_img_cache.c ****             return NULL;
 135:..\..\..\lvgl\version_6.1.2\lvgl\src\lv_draw/lv_img_cache.c ****         }
 136:..\..\..\lvgl\version_6.1.2\lvgl\src\lv_draw/lv_img_cache.c **** 
 137:..\..\..\lvgl\version_6.1.2\lvgl\src\lv_draw/lv_img_cache.c ****         cached_src->life = 0;
 138:..\..\..\lvgl\version_6.1.2\lvgl\src\lv_draw/lv_img_cache.c **** 
 139:..\..\..\lvgl\version_6.1.2\lvgl\src\lv_draw/lv_img_cache.c ****         /*If `time_to_open` was not set in the open function set it here*/
 140:..\..\..\lvgl\version_6.1.2\lvgl\src\lv_draw/lv_img_cache.c ****         if(cached_src->dec_dsc.time_to_open == 0) {
 141:..\..\..\lvgl\version_6.1.2\lvgl\src\lv_draw/lv_img_cache.c ****             cached_src->dec_dsc.time_to_open = lv_tick_elaps(t_start);
 136              		.loc 1 141 0 is_stmt 1
 137 0086 2046     		mov	r0, r4
 138              	.LBE4:
 142:..\..\..\lvgl\version_6.1.2\lvgl\src\lv_draw/lv_img_cache.c ****         }
ARM GAS  C:\Users\pearlstl\AppData\Local\Temp\ccKQfvhr.s 			page 6


 143:..\..\..\lvgl\version_6.1.2\lvgl\src\lv_draw/lv_img_cache.c **** 
 144:..\..\..\lvgl\version_6.1.2\lvgl\src\lv_draw/lv_img_cache.c ****         if(cached_src->dec_dsc.time_to_open == 0) cached_src->dec_dsc.time_to_open = 1;
 145:..\..\..\lvgl\version_6.1.2\lvgl\src\lv_draw/lv_img_cache.c ****     }
 146:..\..\..\lvgl\version_6.1.2\lvgl\src\lv_draw/lv_img_cache.c **** 
 147:..\..\..\lvgl\version_6.1.2\lvgl\src\lv_draw/lv_img_cache.c ****     return cached_src;
 148:..\..\..\lvgl\version_6.1.2\lvgl\src\lv_draw/lv_img_cache.c **** }
 139              		.loc 1 148 0
 140 0088 BDE8F883 		pop	{r3, r4, r5, r6, r7, r8, r9, pc}
 141              	.LVL13:
 142              	.L35:
 143              	.LBB5:
 109:..\..\..\lvgl\version_6.1.2\lvgl\src\lv_draw/lv_img_cache.c ****             if(cache[i].life < cached_src->life) {
 144              		.loc 1 109 0 discriminator 1
 145 008c 012B     		cmp	r3, #1
 146 008e 14D9     		bls	.L9
 147 0090 023B     		subs	r3, r3, #2
 148 0092 9BB2     		uxth	r3, r3
 149 0094 03EB8303 		add	r3, r3, r3, lsl #2
 150 0098 06EBC303 		add	r3, r6, r3, lsl #3
 151 009c 716A     		ldr	r1, [r6, #36]
 152 009e 5033     		adds	r3, r3, #80
 153 00a0 06F12802 		add	r2, r6, #40
 154              	.LVL14:
 155              	.L10:
 110:..\..\..\lvgl\version_6.1.2\lvgl\src\lv_draw/lv_img_cache.c ****                 cached_src = &cache[i];
 156              		.loc 1 110 0
 157 00a4 506A     		ldr	r0, [r2, #36]
 158 00a6 8842     		cmp	r0, r1
 159 00a8 B8BF     		it	lt
 160 00aa 1646     		movlt	r6, r2
 161 00ac 8142     		cmp	r1, r0
 162 00ae 02F12802 		add	r2, r2, #40
 163 00b2 A8BF     		it	ge
 164 00b4 0146     		movge	r1, r0
 165              	.LVL15:
 109:..\..\..\lvgl\version_6.1.2\lvgl\src\lv_draw/lv_img_cache.c ****             if(cache[i].life < cached_src->life) {
 166              		.loc 1 109 0
 167 00b6 9342     		cmp	r3, r2
 168 00b8 F4D1     		bne	.L10
 169              	.L9:
 116:..\..\..\lvgl\version_6.1.2\lvgl\src\lv_draw/lv_img_cache.c ****             lv_img_decoder_close(&cached_src->dec_dsc);
 170              		.loc 1 116 0
 171 00ba 7368     		ldr	r3, [r6, #4]
 172 00bc 13B1     		cbz	r3, .L12
 117:..\..\..\lvgl\version_6.1.2\lvgl\src\lv_draw/lv_img_cache.c ****             LV_LOG_INFO("image draw: cache miss, close and reuse an entry");
 173              		.loc 1 117 0
 174 00be 3046     		mov	r0, r6
 175 00c0 FFF7FEFF 		bl	lv_img_decoder_close
 176              	.LVL16:
 177              	.L12:
 125:..\..\..\lvgl\version_6.1.2\lvgl\src\lv_draw/lv_img_cache.c ****         cached_src->dec_dsc.time_to_open = 0;
 178              		.loc 1 125 0
 179 00c4 FFF7FEFF 		bl	lv_tick_get
 180              	.LVL17:
 126:..\..\..\lvgl\version_6.1.2\lvgl\src\lv_draw/lv_img_cache.c ****         lv_res_t open_res                = lv_img_decoder_open(&cached_src->dec_dsc, src, style);
 181              		.loc 1 126 0
 182 00c8 0025     		movs	r5, #0
ARM GAS  C:\Users\pearlstl\AppData\Local\Temp\ccKQfvhr.s 			page 7


 125:..\..\..\lvgl\version_6.1.2\lvgl\src\lv_draw/lv_img_cache.c ****         cached_src->dec_dsc.time_to_open = 0;
 183              		.loc 1 125 0
 184 00ca 8146     		mov	r9, r0
 185              	.LVL18:
 127:..\..\..\lvgl\version_6.1.2\lvgl\src\lv_draw/lv_img_cache.c ****         if(open_res == LV_RES_INV) {
 186              		.loc 1 127 0
 187 00cc 4246     		mov	r2, r8
 188 00ce 3946     		mov	r1, r7
 126:..\..\..\lvgl\version_6.1.2\lvgl\src\lv_draw/lv_img_cache.c ****         lv_res_t open_res                = lv_img_decoder_open(&cached_src->dec_dsc, src, style);
 189              		.loc 1 126 0
 190 00d0 B561     		str	r5, [r6, #24]
 127:..\..\..\lvgl\version_6.1.2\lvgl\src\lv_draw/lv_img_cache.c ****         if(open_res == LV_RES_INV) {
 191              		.loc 1 127 0
 192 00d2 3046     		mov	r0, r6
 193              	.LVL19:
 194 00d4 FFF7FEFF 		bl	lv_img_decoder_open
 195              	.LVL20:
 128:..\..\..\lvgl\version_6.1.2\lvgl\src\lv_draw/lv_img_cache.c ****             LV_LOG_WARN("Image draw cannot open the image resource");
 196              		.loc 1 128 0
 197 00d8 0446     		mov	r4, r0
 198 00da B0B1     		cbz	r0, .L38
 140:..\..\..\lvgl\version_6.1.2\lvgl\src\lv_draw/lv_img_cache.c ****             cached_src->dec_dsc.time_to_open = lv_tick_elaps(t_start);
 199              		.loc 1 140 0
 200 00dc B369     		ldr	r3, [r6, #24]
 137:..\..\..\lvgl\version_6.1.2\lvgl\src\lv_draw/lv_img_cache.c **** 
 201              		.loc 1 137 0
 202 00de 7562     		str	r5, [r6, #36]
 140:..\..\..\lvgl\version_6.1.2\lvgl\src\lv_draw/lv_img_cache.c ****             cached_src->dec_dsc.time_to_open = lv_tick_elaps(t_start);
 203              		.loc 1 140 0
 204 00e0 53B1     		cbz	r3, .L39
 205 00e2 3046     		mov	r0, r6
 206              	.LVL21:
 207 00e4 BDE8F883 		pop	{r3, r4, r5, r6, r7, r8, r9, pc}
 208              	.LVL22:
 209              	.L34:
 210              	.LBE5:
 211              	.LBB6:
  88:..\..\..\lvgl\version_6.1.2\lvgl\src\lv_draw/lv_img_cache.c ****         } else if(src_type == LV_IMG_SRC_FILE) {
 212              		.loc 1 88 0 discriminator 1
 213 00e8 A368     		ldr	r3, [r4, #8]
 214 00ea 4345     		cmp	r3, r8
 215 00ec AAD1     		bne	.L6
 216 00ee C1E7     		b	.L7
 217              	.LVL23:
 218              	.L37:
  98:..\..\..\lvgl\version_6.1.2\lvgl\src\lv_draw/lv_img_cache.c ****             if(cached_src->life > LV_IMG_CACHE_LIFE_LIMIT) cached_src->life = LV_IMG_CACHE_LIFE_LIM
 219              		.loc 1 98 0
 220 00f0 6362     		str	r3, [r4, #36]
 221              	.LBE6:
 222              	.LBB7:
 141:..\..\..\lvgl\version_6.1.2\lvgl\src\lv_draw/lv_img_cache.c ****         }
 223              		.loc 1 141 0
 224 00f2 2046     		mov	r0, r4
 225              	.LBE7:
 226              		.loc 1 148 0
 227 00f4 BDE8F883 		pop	{r3, r4, r5, r6, r7, r8, r9, pc}
 228              	.LVL24:
ARM GAS  C:\Users\pearlstl\AppData\Local\Temp\ccKQfvhr.s 			page 8


 229              	.L39:
 230              	.LBB8:
 141:..\..\..\lvgl\version_6.1.2\lvgl\src\lv_draw/lv_img_cache.c ****         }
 231              		.loc 1 141 0
 232 00f8 4846     		mov	r0, r9
 233              	.LVL25:
 234 00fa FFF7FEFF 		bl	lv_tick_elaps
 235              	.LVL26:
 144:..\..\..\lvgl\version_6.1.2\lvgl\src\lv_draw/lv_img_cache.c ****     }
 236              		.loc 1 144 0
 237 00fe 90B9     		cbnz	r0, .L40
 144:..\..\..\lvgl\version_6.1.2\lvgl\src\lv_draw/lv_img_cache.c ****     }
 238              		.loc 1 144 0 is_stmt 0 discriminator 1
 239 0100 0123     		movs	r3, #1
 240 0102 B361     		str	r3, [r6, #24]
 241 0104 3046     		mov	r0, r6
 242 0106 BDE8F883 		pop	{r3, r4, r5, r6, r7, r8, r9, pc}
 243              	.LVL27:
 244              	.L38:
 130:..\..\..\lvgl\version_6.1.2\lvgl\src\lv_draw/lv_img_cache.c ****             memset(&cached_src->dec_dsc, 0, sizeof(lv_img_decoder_dsc_t));
 245              		.loc 1 130 0 is_stmt 1
 246 010a 3046     		mov	r0, r6
 247              	.LVL28:
 248 010c FFF7FEFF 		bl	lv_img_decoder_close
 249              	.LVL29:
 132:..\..\..\lvgl\version_6.1.2\lvgl\src\lv_draw/lv_img_cache.c ****             cached_src->life = INT32_MIN; /*Make the empty entry very "weak" to force its use  */
 250              		.loc 1 132 0
 251 0110 2822     		movs	r2, #40
 252 0112 2146     		mov	r1, r4
 253 0114 3046     		mov	r0, r6
 254 0116 FFF7FEFF 		bl	memset
 255              	.LVL30:
 133:..\..\..\lvgl\version_6.1.2\lvgl\src\lv_draw/lv_img_cache.c ****             return NULL;
 256              		.loc 1 133 0
 257 011a 4FF00043 		mov	r3, #-2147483648
 134:..\..\..\lvgl\version_6.1.2\lvgl\src\lv_draw/lv_img_cache.c ****         }
 258              		.loc 1 134 0
 259 011e 2046     		mov	r0, r4
 133:..\..\..\lvgl\version_6.1.2\lvgl\src\lv_draw/lv_img_cache.c ****             return NULL;
 260              		.loc 1 133 0
 261 0120 7362     		str	r3, [r6, #36]
 134:..\..\..\lvgl\version_6.1.2\lvgl\src\lv_draw/lv_img_cache.c ****         }
 262              		.loc 1 134 0
 263 0122 BDE8F883 		pop	{r3, r4, r5, r6, r7, r8, r9, pc}
 264              	.LVL31:
 265              	.L40:
 141:..\..\..\lvgl\version_6.1.2\lvgl\src\lv_draw/lv_img_cache.c ****         }
 266              		.loc 1 141 0
 267 0126 B061     		str	r0, [r6, #24]
 268 0128 3046     		mov	r0, r6
 269 012a BDE8F883 		pop	{r3, r4, r5, r6, r7, r8, r9, pc}
 270              	.LVL32:
 271              	.L42:
 272 012e 00BF     		.align	2
 273              	.L41:
 274 0130 00000000 		.word	.LANCHOR0
 275 0134 00000000 		.word	_lv_img_cache_array
ARM GAS  C:\Users\pearlstl\AppData\Local\Temp\ccKQfvhr.s 			page 9


 276 0138 02000080 		.word	-2147483646
 277              	.LBE8:
 278              		.cfi_endproc
 279              	.LFE31:
 280              		.size	lv_img_cache_open, .-lv_img_cache_open
 281              		.section	.text.lv_img_cache_set_size,"ax",%progbits
 282              		.align	2
 283              		.global	lv_img_cache_set_size
 284              		.thumb
 285              		.thumb_func
 286              		.type	lv_img_cache_set_size, %function
 287              	lv_img_cache_set_size:
 288              	.LFB32:
 149:..\..\..\lvgl\version_6.1.2\lvgl\src\lv_draw/lv_img_cache.c **** 
 150:..\..\..\lvgl\version_6.1.2\lvgl\src\lv_draw/lv_img_cache.c **** /**
 151:..\..\..\lvgl\version_6.1.2\lvgl\src\lv_draw/lv_img_cache.c ****  * Set the number of images to be cached.
 152:..\..\..\lvgl\version_6.1.2\lvgl\src\lv_draw/lv_img_cache.c ****  * More cached images mean more opened image at same time which might mean more memory usage.
 153:..\..\..\lvgl\version_6.1.2\lvgl\src\lv_draw/lv_img_cache.c ****  * E.g. if 20 PNG or JPG images are open in the RAM they consume memory while opened in the cache.
 154:..\..\..\lvgl\version_6.1.2\lvgl\src\lv_draw/lv_img_cache.c ****  * @param new_entry_cnt number of image to cache
 155:..\..\..\lvgl\version_6.1.2\lvgl\src\lv_draw/lv_img_cache.c ****  */
 156:..\..\..\lvgl\version_6.1.2\lvgl\src\lv_draw/lv_img_cache.c **** void lv_img_cache_set_size(uint16_t new_entry_cnt)
 157:..\..\..\lvgl\version_6.1.2\lvgl\src\lv_draw/lv_img_cache.c **** {
 289              		.loc 1 157 0
 290              		.cfi_startproc
 291              		@ args = 0, pretend = 0, frame = 0
 292              		@ frame_needed = 0, uses_anonymous_args = 0
 293              	.LVL33:
 294 0000 2DE9F047 		push	{r4, r5, r6, r7, r8, r9, r10, lr}
 295              		.cfi_def_cfa_offset 32
 296              		.cfi_offset 4, -32
 297              		.cfi_offset 5, -28
 298              		.cfi_offset 6, -24
 299              		.cfi_offset 7, -20
 300              		.cfi_offset 8, -16
 301              		.cfi_offset 9, -12
 302              		.cfi_offset 10, -8
 303              		.cfi_offset 14, -4
 158:..\..\..\lvgl\version_6.1.2\lvgl\src\lv_draw/lv_img_cache.c ****     if(LV_GC_ROOT(_lv_img_cache_array) != NULL) {
 304              		.loc 1 158 0
 305 0004 DFF89C80 		ldr	r8, .L68
 306              	.LBB11:
 307              	.LBB12:
 159:..\..\..\lvgl\version_6.1.2\lvgl\src\lv_draw/lv_img_cache.c ****         /*Clean the cache before free it*/
 160:..\..\..\lvgl\version_6.1.2\lvgl\src\lv_draw/lv_img_cache.c ****         lv_img_cache_invalidate_src(NULL);
 161:..\..\..\lvgl\version_6.1.2\lvgl\src\lv_draw/lv_img_cache.c ****         lv_mem_free(LV_GC_ROOT(_lv_img_cache_array));
 162:..\..\..\lvgl\version_6.1.2\lvgl\src\lv_draw/lv_img_cache.c ****     }
 163:..\..\..\lvgl\version_6.1.2\lvgl\src\lv_draw/lv_img_cache.c **** 
 164:..\..\..\lvgl\version_6.1.2\lvgl\src\lv_draw/lv_img_cache.c ****     /*Reallocate the cache*/
 165:..\..\..\lvgl\version_6.1.2\lvgl\src\lv_draw/lv_img_cache.c ****     LV_GC_ROOT(_lv_img_cache_array) = lv_mem_alloc(sizeof(lv_img_cache_entry_t) * new_entry_cnt);
 166:..\..\..\lvgl\version_6.1.2\lvgl\src\lv_draw/lv_img_cache.c ****     LV_ASSERT_MEM(LV_GC_ROOT(_lv_img_cache_array));
 167:..\..\..\lvgl\version_6.1.2\lvgl\src\lv_draw/lv_img_cache.c ****     if(LV_GC_ROOT(_lv_img_cache_array) == NULL) {
 168:..\..\..\lvgl\version_6.1.2\lvgl\src\lv_draw/lv_img_cache.c ****         entry_cnt = 0;
 169:..\..\..\lvgl\version_6.1.2\lvgl\src\lv_draw/lv_img_cache.c ****         return;
 170:..\..\..\lvgl\version_6.1.2\lvgl\src\lv_draw/lv_img_cache.c ****     }
 171:..\..\..\lvgl\version_6.1.2\lvgl\src\lv_draw/lv_img_cache.c ****     entry_cnt = new_entry_cnt;
 172:..\..\..\lvgl\version_6.1.2\lvgl\src\lv_draw/lv_img_cache.c **** 
 173:..\..\..\lvgl\version_6.1.2\lvgl\src\lv_draw/lv_img_cache.c ****     /*Clean the cache*/
ARM GAS  C:\Users\pearlstl\AppData\Local\Temp\ccKQfvhr.s 			page 10


 174:..\..\..\lvgl\version_6.1.2\lvgl\src\lv_draw/lv_img_cache.c ****     uint16_t i;
 175:..\..\..\lvgl\version_6.1.2\lvgl\src\lv_draw/lv_img_cache.c ****     for(i = 0; i < entry_cnt; i++) {
 176:..\..\..\lvgl\version_6.1.2\lvgl\src\lv_draw/lv_img_cache.c ****         memset(&LV_GC_ROOT(_lv_img_cache_array)[i].dec_dsc, 0, sizeof(lv_img_decoder_dsc_t));
 177:..\..\..\lvgl\version_6.1.2\lvgl\src\lv_draw/lv_img_cache.c ****         memset(&LV_GC_ROOT(_lv_img_cache_array)[i], 0, sizeof(lv_img_cache_entry_t));
 178:..\..\..\lvgl\version_6.1.2\lvgl\src\lv_draw/lv_img_cache.c ****     }
 179:..\..\..\lvgl\version_6.1.2\lvgl\src\lv_draw/lv_img_cache.c **** }
 180:..\..\..\lvgl\version_6.1.2\lvgl\src\lv_draw/lv_img_cache.c **** 
 181:..\..\..\lvgl\version_6.1.2\lvgl\src\lv_draw/lv_img_cache.c **** /**
 182:..\..\..\lvgl\version_6.1.2\lvgl\src\lv_draw/lv_img_cache.c ****  * Invalidate an image source in the cache.
 183:..\..\..\lvgl\version_6.1.2\lvgl\src\lv_draw/lv_img_cache.c ****  * Useful if the image source is updated therefore it needs to be cached again.
 184:..\..\..\lvgl\version_6.1.2\lvgl\src\lv_draw/lv_img_cache.c ****  * @param src an image source path to a file or pointer to an `lv_img_dsc_t` variable.
 185:..\..\..\lvgl\version_6.1.2\lvgl\src\lv_draw/lv_img_cache.c ****  */
 186:..\..\..\lvgl\version_6.1.2\lvgl\src\lv_draw/lv_img_cache.c **** void lv_img_cache_invalidate_src(const void * src)
 187:..\..\..\lvgl\version_6.1.2\lvgl\src\lv_draw/lv_img_cache.c **** {
 188:..\..\..\lvgl\version_6.1.2\lvgl\src\lv_draw/lv_img_cache.c **** 
 189:..\..\..\lvgl\version_6.1.2\lvgl\src\lv_draw/lv_img_cache.c ****     lv_img_cache_entry_t * cache = LV_GC_ROOT(_lv_img_cache_array);
 190:..\..\..\lvgl\version_6.1.2\lvgl\src\lv_draw/lv_img_cache.c **** 
 191:..\..\..\lvgl\version_6.1.2\lvgl\src\lv_draw/lv_img_cache.c ****     uint16_t i;
 192:..\..\..\lvgl\version_6.1.2\lvgl\src\lv_draw/lv_img_cache.c ****     for(i = 0; i < entry_cnt; i++) {
 308              		.loc 1 192 0
 309 0008 DFF89CA0 		ldr	r10, .L68+4
 310              	.LBE12:
 311              	.LBE11:
 158:..\..\..\lvgl\version_6.1.2\lvgl\src\lv_draw/lv_img_cache.c ****     if(LV_GC_ROOT(_lv_img_cache_array) != NULL) {
 312              		.loc 1 158 0
 313 000c D8F80090 		ldr	r9, [r8]
 157:..\..\..\lvgl\version_6.1.2\lvgl\src\lv_draw/lv_img_cache.c ****     if(LV_GC_ROOT(_lv_img_cache_array) != NULL) {
 314              		.loc 1 157 0
 315 0010 0646     		mov	r6, r0
 158:..\..\..\lvgl\version_6.1.2\lvgl\src\lv_draw/lv_img_cache.c ****     if(LV_GC_ROOT(_lv_img_cache_array) != NULL) {
 316              		.loc 1 158 0
 317 0012 B9F1000F 		cmp	r9, #0
 318 0016 1CD0     		beq	.L44
 319              	.LVL34:
 320              	.LBB14:
 321              	.LBB13:
 322              		.loc 1 192 0
 323 0018 BAF80070 		ldrh	r7, [r10]
 324 001c B7B1     		cbz	r7, .L45
 325 001e 0024     		movs	r4, #0
 326              	.LVL35:
 327              	.L47:
 193:..\..\..\lvgl\version_6.1.2\lvgl\src\lv_draw/lv_img_cache.c ****         if(cache[i].dec_dsc.src == src || src == NULL) {
 328              		.loc 1 193 0
 329 0020 04EB8405 		add	r5, r4, r4, lsl #2
 330 0024 09EBC505 		add	r5, r9, r5, lsl #3
 194:..\..\..\lvgl\version_6.1.2\lvgl\src\lv_draw/lv_img_cache.c ****             if(cache[i].dec_dsc.src != NULL) {
 195:..\..\..\lvgl\version_6.1.2\lvgl\src\lv_draw/lv_img_cache.c ****                 lv_img_decoder_close(&cache[i].dec_dsc);
 331              		.loc 1 195 0
 332 0028 2846     		mov	r0, r5
 194:..\..\..\lvgl\version_6.1.2\lvgl\src\lv_draw/lv_img_cache.c ****             if(cache[i].dec_dsc.src != NULL) {
 333              		.loc 1 194 0
 334 002a 6B68     		ldr	r3, [r5, #4]
 335 002c 1BB1     		cbz	r3, .L46
 336              		.loc 1 195 0
 337 002e FFF7FEFF 		bl	lv_img_decoder_close
 338              	.LVL36:
ARM GAS  C:\Users\pearlstl\AppData\Local\Temp\ccKQfvhr.s 			page 11


 339 0032 BAF80070 		ldrh	r7, [r10]
 340              	.L46:
 192:..\..\..\lvgl\version_6.1.2\lvgl\src\lv_draw/lv_img_cache.c ****         if(cache[i].dec_dsc.src == src || src == NULL) {
 341              		.loc 1 192 0
 342 0036 0134     		adds	r4, r4, #1
 343              	.LVL37:
 196:..\..\..\lvgl\version_6.1.2\lvgl\src\lv_draw/lv_img_cache.c ****             }
 197:..\..\..\lvgl\version_6.1.2\lvgl\src\lv_draw/lv_img_cache.c **** 
 198:..\..\..\lvgl\version_6.1.2\lvgl\src\lv_draw/lv_img_cache.c ****             memset(&cache[i].dec_dsc, 0, sizeof(lv_img_decoder_dsc_t));
 199:..\..\..\lvgl\version_6.1.2\lvgl\src\lv_draw/lv_img_cache.c ****             memset(&cache[i], 0, sizeof(lv_img_cache_entry_t));
 344              		.loc 1 199 0
 345 0038 2846     		mov	r0, r5
 346 003a 2822     		movs	r2, #40
 347 003c 0021     		movs	r1, #0
 192:..\..\..\lvgl\version_6.1.2\lvgl\src\lv_draw/lv_img_cache.c ****         if(cache[i].dec_dsc.src == src || src == NULL) {
 348              		.loc 1 192 0
 349 003e A4B2     		uxth	r4, r4
 350              		.loc 1 199 0
 351 0040 FFF7FEFF 		bl	memset
 352              	.LVL38:
 192:..\..\..\lvgl\version_6.1.2\lvgl\src\lv_draw/lv_img_cache.c ****         if(cache[i].dec_dsc.src == src || src == NULL) {
 353              		.loc 1 192 0
 354 0044 BC42     		cmp	r4, r7
 355 0046 EBD3     		bcc	.L47
 356 0048 D8F80090 		ldr	r9, [r8]
 357              	.LVL39:
 358              	.L45:
 359              	.LBE13:
 360              	.LBE14:
 161:..\..\..\lvgl\version_6.1.2\lvgl\src\lv_draw/lv_img_cache.c ****     }
 361              		.loc 1 161 0
 362 004c 4846     		mov	r0, r9
 363 004e FFF7FEFF 		bl	lv_mem_free
 364              	.LVL40:
 365              	.L44:
 165:..\..\..\lvgl\version_6.1.2\lvgl\src\lv_draw/lv_img_cache.c ****     LV_ASSERT_MEM(LV_GC_ROOT(_lv_img_cache_array));
 366              		.loc 1 165 0
 367 0052 06EB8600 		add	r0, r6, r6, lsl #2
 368 0056 C000     		lsls	r0, r0, #3
 369 0058 FFF7FEFF 		bl	lv_mem_alloc
 370              	.LVL41:
 371 005c C8F80000 		str	r0, [r8]
 167:..\..\..\lvgl\version_6.1.2\lvgl\src\lv_draw/lv_img_cache.c ****         entry_cnt = 0;
 372              		.loc 1 167 0
 373 0060 E0B1     		cbz	r0, .L66
 171:..\..\..\lvgl\version_6.1.2\lvgl\src\lv_draw/lv_img_cache.c **** 
 374              		.loc 1 171 0
 375 0062 AAF80060 		strh	r6, [r10]	@ movhi
 376              	.LVL42:
 175:..\..\..\lvgl\version_6.1.2\lvgl\src\lv_draw/lv_img_cache.c ****         memset(&LV_GC_ROOT(_lv_img_cache_array)[i].dec_dsc, 0, sizeof(lv_img_decoder_dsc_t));
 377              		.loc 1 175 0
 378 0066 BEB1     		cbz	r6, .L43
 379 0068 751E     		subs	r5, r6, #1
 380 006a ADB2     		uxth	r5, r5
 381 006c 05EB8505 		add	r5, r5, r5, lsl #2
 177:..\..\..\lvgl\version_6.1.2\lvgl\src\lv_draw/lv_img_cache.c ****     }
 382              		.loc 1 177 0 discriminator 3
ARM GAS  C:\Users\pearlstl\AppData\Local\Temp\ccKQfvhr.s 			page 12


 383 0070 0C4E     		ldr	r6, .L68
 384 0072 ED00     		lsls	r5, r5, #3
 175:..\..\..\lvgl\version_6.1.2\lvgl\src\lv_draw/lv_img_cache.c ****         memset(&LV_GC_ROOT(_lv_img_cache_array)[i].dec_dsc, 0, sizeof(lv_img_decoder_dsc_t));
 385              		.loc 1 175 0 discriminator 3
 386 0074 0024     		movs	r4, #0
 387 0076 01E0     		b	.L51
 388              	.LVL43:
 389              	.L67:
 390 0078 3068     		ldr	r0, [r6]
 391 007a 2834     		adds	r4, r4, #40
 392              	.L51:
 176:..\..\..\lvgl\version_6.1.2\lvgl\src\lv_draw/lv_img_cache.c ****         memset(&LV_GC_ROOT(_lv_img_cache_array)[i], 0, sizeof(lv_img_cache_entry_t));
 393              		.loc 1 176 0 discriminator 3
 394 007c 2422     		movs	r2, #36
 395 007e 0021     		movs	r1, #0
 396 0080 2044     		add	r0, r0, r4
 397 0082 FFF7FEFF 		bl	memset
 398              	.LVL44:
 177:..\..\..\lvgl\version_6.1.2\lvgl\src\lv_draw/lv_img_cache.c ****     }
 399              		.loc 1 177 0 discriminator 3
 400 0086 D8F80000 		ldr	r0, [r8]
 401 008a 2822     		movs	r2, #40
 402 008c 2044     		add	r0, r0, r4
 403 008e 0021     		movs	r1, #0
 404 0090 FFF7FEFF 		bl	memset
 405              	.LVL45:
 175:..\..\..\lvgl\version_6.1.2\lvgl\src\lv_draw/lv_img_cache.c ****         memset(&LV_GC_ROOT(_lv_img_cache_array)[i].dec_dsc, 0, sizeof(lv_img_decoder_dsc_t));
 406              		.loc 1 175 0 discriminator 3
 407 0094 AC42     		cmp	r4, r5
 408 0096 EFD1     		bne	.L67
 409              	.L43:
 410 0098 BDE8F087 		pop	{r4, r5, r6, r7, r8, r9, r10, pc}
 411              	.L66:
 168:..\..\..\lvgl\version_6.1.2\lvgl\src\lv_draw/lv_img_cache.c ****         return;
 412              		.loc 1 168 0
 413 009c AAF80000 		strh	r0, [r10]	@ movhi
 169:..\..\..\lvgl\version_6.1.2\lvgl\src\lv_draw/lv_img_cache.c ****     }
 414              		.loc 1 169 0
 415 00a0 BDE8F087 		pop	{r4, r5, r6, r7, r8, r9, r10, pc}
 416              	.L69:
 417              		.align	2
 418              	.L68:
 419 00a4 00000000 		.word	_lv_img_cache_array
 420 00a8 00000000 		.word	.LANCHOR0
 421              		.cfi_endproc
 422              	.LFE32:
 423              		.size	lv_img_cache_set_size, .-lv_img_cache_set_size
 424              		.section	.text.lv_img_cache_invalidate_src,"ax",%progbits
 425              		.align	2
 426              		.global	lv_img_cache_invalidate_src
 427              		.thumb
 428              		.thumb_func
 429              		.type	lv_img_cache_invalidate_src, %function
 430              	lv_img_cache_invalidate_src:
 431              	.LFB33:
 187:..\..\..\lvgl\version_6.1.2\lvgl\src\lv_draw/lv_img_cache.c **** 
 432              		.loc 1 187 0
ARM GAS  C:\Users\pearlstl\AppData\Local\Temp\ccKQfvhr.s 			page 13


 433              		.cfi_startproc
 434              		@ args = 0, pretend = 0, frame = 0
 435              		@ frame_needed = 0, uses_anonymous_args = 0
 436              	.LVL46:
 437 0000 2DE9F843 		push	{r3, r4, r5, r6, r7, r8, r9, lr}
 438              		.cfi_def_cfa_offset 32
 439              		.cfi_offset 3, -32
 440              		.cfi_offset 4, -28
 441              		.cfi_offset 5, -24
 442              		.cfi_offset 6, -20
 443              		.cfi_offset 7, -16
 444              		.cfi_offset 8, -12
 445              		.cfi_offset 9, -8
 446              		.cfi_offset 14, -4
 192:..\..\..\lvgl\version_6.1.2\lvgl\src\lv_draw/lv_img_cache.c ****         if(cache[i].dec_dsc.src == src || src == NULL) {
 447              		.loc 1 192 0
 448 0004 DFF88080 		ldr	r8, .L85+4
 189:..\..\..\lvgl\version_6.1.2\lvgl\src\lv_draw/lv_img_cache.c **** 
 449              		.loc 1 189 0
 450 0008 1E4B     		ldr	r3, .L85
 192:..\..\..\lvgl\version_6.1.2\lvgl\src\lv_draw/lv_img_cache.c ****         if(cache[i].dec_dsc.src == src || src == NULL) {
 451              		.loc 1 192 0
 452 000a B8F80070 		ldrh	r7, [r8]
 189:..\..\..\lvgl\version_6.1.2\lvgl\src\lv_draw/lv_img_cache.c **** 
 453              		.loc 1 189 0
 454 000e D3F80090 		ldr	r9, [r3]
 455              	.LVL47:
 192:..\..\..\lvgl\version_6.1.2\lvgl\src\lv_draw/lv_img_cache.c ****         if(cache[i].dec_dsc.src == src || src == NULL) {
 456              		.loc 1 192 0
 457 0012 A7B3     		cbz	r7, .L70
 458 0014 0646     		mov	r6, r0
 459 0016 28B3     		cbz	r0, .L77
 460 0018 0024     		movs	r4, #0
 461 001a 03E0     		b	.L74
 462              	.LVL48:
 463              	.L73:
 464 001c 0134     		adds	r4, r4, #1
 465              	.LVL49:
 466 001e A4B2     		uxth	r4, r4
 467              	.LVL50:
 468 0020 A742     		cmp	r7, r4
 469 0022 14D9     		bls	.L84
 470              	.LVL51:
 471              	.L74:
 193:..\..\..\lvgl\version_6.1.2\lvgl\src\lv_draw/lv_img_cache.c ****             if(cache[i].dec_dsc.src != NULL) {
 472              		.loc 1 193 0
 473 0024 04EB8405 		add	r5, r4, r4, lsl #2
 474 0028 09EBC505 		add	r5, r9, r5, lsl #3
 475 002c 6B68     		ldr	r3, [r5, #4]
 476 002e 9E42     		cmp	r6, r3
 477 0030 F4D1     		bne	.L73
 195:..\..\..\lvgl\version_6.1.2\lvgl\src\lv_draw/lv_img_cache.c ****             }
 478              		.loc 1 195 0
 479 0032 2846     		mov	r0, r5
 480 0034 FFF7FEFF 		bl	lv_img_decoder_close
 481              	.LVL52:
 192:..\..\..\lvgl\version_6.1.2\lvgl\src\lv_draw/lv_img_cache.c ****         if(cache[i].dec_dsc.src == src || src == NULL) {
ARM GAS  C:\Users\pearlstl\AppData\Local\Temp\ccKQfvhr.s 			page 14


 482              		.loc 1 192 0
 483 0038 0134     		adds	r4, r4, #1
 484              	.LVL53:
 485 003a B8F80070 		ldrh	r7, [r8]
 486              		.loc 1 199 0
 487 003e 2846     		mov	r0, r5
 488 0040 2822     		movs	r2, #40
 489 0042 0021     		movs	r1, #0
 192:..\..\..\lvgl\version_6.1.2\lvgl\src\lv_draw/lv_img_cache.c ****         if(cache[i].dec_dsc.src == src || src == NULL) {
 490              		.loc 1 192 0
 491 0044 A4B2     		uxth	r4, r4
 492              		.loc 1 199 0
 493 0046 FFF7FEFF 		bl	memset
 494              	.LVL54:
 192:..\..\..\lvgl\version_6.1.2\lvgl\src\lv_draw/lv_img_cache.c ****         if(cache[i].dec_dsc.src == src || src == NULL) {
 495              		.loc 1 192 0
 496 004a A742     		cmp	r7, r4
 497 004c EAD8     		bhi	.L74
 498              	.L84:
 499 004e BDE8F883 		pop	{r3, r4, r5, r6, r7, r8, r9, pc}
 500              	.LVL55:
 501              	.L76:
 502 0052 0136     		adds	r6, r6, #1
 503              	.LVL56:
 504              		.loc 1 199 0
 505 0054 2046     		mov	r0, r4
 506 0056 2822     		movs	r2, #40
 507 0058 0021     		movs	r1, #0
 192:..\..\..\lvgl\version_6.1.2\lvgl\src\lv_draw/lv_img_cache.c ****         if(cache[i].dec_dsc.src == src || src == NULL) {
 508              		.loc 1 192 0
 509 005a B6B2     		uxth	r6, r6
 510              		.loc 1 199 0
 511 005c FFF7FEFF 		bl	memset
 512              	.LVL57:
 192:..\..\..\lvgl\version_6.1.2\lvgl\src\lv_draw/lv_img_cache.c ****         if(cache[i].dec_dsc.src == src || src == NULL) {
 513              		.loc 1 192 0
 514 0060 BE42     		cmp	r6, r7
 515 0062 0CD2     		bcs	.L70
 516              	.LVL58:
 517              	.L77:
 193:..\..\..\lvgl\version_6.1.2\lvgl\src\lv_draw/lv_img_cache.c ****             if(cache[i].dec_dsc.src != NULL) {
 518              		.loc 1 193 0
 519 0064 06EB8604 		add	r4, r6, r6, lsl #2
 520 0068 09EBC404 		add	r4, r9, r4, lsl #3
 195:..\..\..\lvgl\version_6.1.2\lvgl\src\lv_draw/lv_img_cache.c ****             }
 521              		.loc 1 195 0
 522 006c 2046     		mov	r0, r4
 194:..\..\..\lvgl\version_6.1.2\lvgl\src\lv_draw/lv_img_cache.c ****                 lv_img_decoder_close(&cache[i].dec_dsc);
 523              		.loc 1 194 0
 524 006e 6368     		ldr	r3, [r4, #4]
 525 0070 002B     		cmp	r3, #0
 526 0072 EED0     		beq	.L76
 195:..\..\..\lvgl\version_6.1.2\lvgl\src\lv_draw/lv_img_cache.c ****             }
 527              		.loc 1 195 0
 528 0074 FFF7FEFF 		bl	lv_img_decoder_close
 529              	.LVL59:
 530 0078 B8F80070 		ldrh	r7, [r8]
ARM GAS  C:\Users\pearlstl\AppData\Local\Temp\ccKQfvhr.s 			page 15


 531 007c E9E7     		b	.L76
 532              	.LVL60:
 533              	.L70:
 534 007e BDE8F883 		pop	{r3, r4, r5, r6, r7, r8, r9, pc}
 535              	.LVL61:
 536              	.L86:
 537 0082 00BF     		.align	2
 538              	.L85:
 539 0084 00000000 		.word	_lv_img_cache_array
 540 0088 00000000 		.word	.LANCHOR0
 541              		.cfi_endproc
 542              	.LFE33:
 543              		.size	lv_img_cache_invalidate_src, .-lv_img_cache_invalidate_src
 544              		.bss
 545              		.align	1
 546              		.set	.LANCHOR0,. + 0
 547              		.type	entry_cnt, %object
 548              		.size	entry_cnt, 2
 549              	entry_cnt:
 550 0000 0000     		.space	2
 551              		.text
 552              	.Letext0:
 553              		.file 2 "c:\\program files (x86)\\cypress\\psoc creator\\4.2\\psoc creator\\import\\gnu\\arm\\5.4.
 554              		.file 3 "c:\\program files (x86)\\cypress\\psoc creator\\4.2\\psoc creator\\import\\gnu\\arm\\5.4.
 555              		.file 4 "..\\..\\..\\lvgl\\version_6.1.2\\lvgl\\src\\lv_draw\\../lv_core/../../../lv_conf.h"
 556              		.file 5 "..\\..\\..\\lvgl\\version_6.1.2\\lvgl\\src\\lv_draw\\../lv_core/../lv_font/lv_font.h"
 557              		.file 6 "..\\..\\..\\lvgl\\version_6.1.2\\lvgl\\src\\lv_draw\\../lv_core/../lv_misc/lv_color.h"
 558              		.file 7 "..\\..\\..\\lvgl\\version_6.1.2\\lvgl\\src\\lv_draw\\../lv_core/lv_style.h"
 559              		.file 8 "..\\..\\..\\lvgl\\version_6.1.2\\lvgl\\src\\lv_draw\\../lv_core/../lv_misc/lv_types.h"
 560              		.file 9 "..\\..\\..\\lvgl\\version_6.1.2\\lvgl\\src\\lv_draw\\lv_img_decoder.h"
 561              		.file 10 "..\\..\\..\\lvgl\\version_6.1.2\\lvgl\\src\\lv_draw\\lv_img_cache.h"
 562              		.file 11 "..\\..\\..\\lvgl\\version_6.1.2\\lvgl\\src\\lv_draw\\lv_draw_img.h"
 563              		.file 12 "c:\\program files (x86)\\cypress\\psoc creator\\4.2\\psoc creator\\import\\gnu\\arm\\5.4
 564              		.file 13 "..\\..\\..\\lvgl\\version_6.1.2\\lvgl\\src\\lv_draw\\../lv_core/../lv_hal/lv_hal_tick.h"
 565              		.file 14 "..\\..\\..\\lvgl\\version_6.1.2\\lvgl\\src\\lv_draw\\../lv_core/../lv_misc/lv_mem.h"
 566              		.file 15 "..\\..\\..\\lvgl\\version_6.1.2\\lvgl\\src\\lv_draw\\../lv_misc/lv_gc.h"