ARM GAS  C:\Users\pearlstl\AppData\Local\Temp\ccVzUAcm.s 			page 1


   1              		.syntax unified
   2              		.cpu cortex-m4
   3              		.eabi_attribute 27, 1
   4              		.fpu fpv4-sp-d16
   5              		.eabi_attribute 20, 1
   6              		.eabi_attribute 21, 1
   7              		.eabi_attribute 23, 3
   8              		.eabi_attribute 24, 1
   9              		.eabi_attribute 25, 1
  10              		.eabi_attribute 26, 1
  11              		.eabi_attribute 30, 2
  12              		.eabi_attribute 34, 1
  13              		.eabi_attribute 18, 4
  14              		.thumb
  15              		.syntax unified
  16              		.file	"lv_img.c"
  17              		.text
  18              	.Ltext0:
  19              		.cfi_sections	.debug_frame
  20              		.section	.text.lv_img_design,"ax",%progbits
  21              		.align	2
  22              		.thumb
  23              		.thumb_func
  24              		.type	lv_img_design, %function
  25              	lv_img_design:
  26              	.LFB45:
  27              		.file 1 "..\\..\\..\\lvgl\\version_6.1.2\\lvgl\\src\\lv_objx\\lv_img.c"
   1:..\..\..\lvgl\version_6.1.2\lvgl\src\lv_objx/lv_img.c **** /**
   2:..\..\..\lvgl\version_6.1.2\lvgl\src\lv_objx/lv_img.c ****  * @file lv_img.c
   3:..\..\..\lvgl\version_6.1.2\lvgl\src\lv_objx/lv_img.c ****  *
   4:..\..\..\lvgl\version_6.1.2\lvgl\src\lv_objx/lv_img.c ****  */
   5:..\..\..\lvgl\version_6.1.2\lvgl\src\lv_objx/lv_img.c **** 
   6:..\..\..\lvgl\version_6.1.2\lvgl\src\lv_objx/lv_img.c **** /*********************
   7:..\..\..\lvgl\version_6.1.2\lvgl\src\lv_objx/lv_img.c ****  *      INCLUDES
   8:..\..\..\lvgl\version_6.1.2\lvgl\src\lv_objx/lv_img.c ****  *********************/
   9:..\..\..\lvgl\version_6.1.2\lvgl\src\lv_objx/lv_img.c **** #include "lv_img.h"
  10:..\..\..\lvgl\version_6.1.2\lvgl\src\lv_objx/lv_img.c **** #if LV_USE_IMG != 0
  11:..\..\..\lvgl\version_6.1.2\lvgl\src\lv_objx/lv_img.c **** 
  12:..\..\..\lvgl\version_6.1.2\lvgl\src\lv_objx/lv_img.c **** /*Testing of dependencies*/
  13:..\..\..\lvgl\version_6.1.2\lvgl\src\lv_objx/lv_img.c **** #if LV_USE_LABEL == 0
  14:..\..\..\lvgl\version_6.1.2\lvgl\src\lv_objx/lv_img.c **** #error "lv_img: lv_label is required. Enable it in lv_conf.h (LV_USE_LABEL  1) "
  15:..\..\..\lvgl\version_6.1.2\lvgl\src\lv_objx/lv_img.c **** #endif
  16:..\..\..\lvgl\version_6.1.2\lvgl\src\lv_objx/lv_img.c **** 
  17:..\..\..\lvgl\version_6.1.2\lvgl\src\lv_objx/lv_img.c **** #include "../lv_core/lv_debug.h"
  18:..\..\..\lvgl\version_6.1.2\lvgl\src\lv_objx/lv_img.c **** #include "../lv_themes/lv_theme.h"
  19:..\..\..\lvgl\version_6.1.2\lvgl\src\lv_objx/lv_img.c **** #include "../lv_draw/lv_img_decoder.h"
  20:..\..\..\lvgl\version_6.1.2\lvgl\src\lv_objx/lv_img.c **** #include "../lv_misc/lv_fs.h"
  21:..\..\..\lvgl\version_6.1.2\lvgl\src\lv_objx/lv_img.c **** #include "../lv_misc/lv_txt.h"
  22:..\..\..\lvgl\version_6.1.2\lvgl\src\lv_objx/lv_img.c **** #include "../lv_misc/lv_log.h"
  23:..\..\..\lvgl\version_6.1.2\lvgl\src\lv_objx/lv_img.c **** 
  24:..\..\..\lvgl\version_6.1.2\lvgl\src\lv_objx/lv_img.c **** /*********************
  25:..\..\..\lvgl\version_6.1.2\lvgl\src\lv_objx/lv_img.c ****  *      DEFINES
  26:..\..\..\lvgl\version_6.1.2\lvgl\src\lv_objx/lv_img.c ****  *********************/
  27:..\..\..\lvgl\version_6.1.2\lvgl\src\lv_objx/lv_img.c **** #define LV_OBJX_NAME "lv_img"
  28:..\..\..\lvgl\version_6.1.2\lvgl\src\lv_objx/lv_img.c **** 
  29:..\..\..\lvgl\version_6.1.2\lvgl\src\lv_objx/lv_img.c **** /**********************
  30:..\..\..\lvgl\version_6.1.2\lvgl\src\lv_objx/lv_img.c ****  *      TYPEDEFS
ARM GAS  C:\Users\pearlstl\AppData\Local\Temp\ccVzUAcm.s 			page 2


  31:..\..\..\lvgl\version_6.1.2\lvgl\src\lv_objx/lv_img.c ****  **********************/
  32:..\..\..\lvgl\version_6.1.2\lvgl\src\lv_objx/lv_img.c **** 
  33:..\..\..\lvgl\version_6.1.2\lvgl\src\lv_objx/lv_img.c **** /**********************
  34:..\..\..\lvgl\version_6.1.2\lvgl\src\lv_objx/lv_img.c ****  *  STATIC PROTOTYPES
  35:..\..\..\lvgl\version_6.1.2\lvgl\src\lv_objx/lv_img.c ****  **********************/
  36:..\..\..\lvgl\version_6.1.2\lvgl\src\lv_objx/lv_img.c **** static bool lv_img_design(lv_obj_t * img, const lv_area_t * mask, lv_design_mode_t mode);
  37:..\..\..\lvgl\version_6.1.2\lvgl\src\lv_objx/lv_img.c **** static lv_res_t lv_img_signal(lv_obj_t * img, lv_signal_t sign, void * param);
  38:..\..\..\lvgl\version_6.1.2\lvgl\src\lv_objx/lv_img.c **** 
  39:..\..\..\lvgl\version_6.1.2\lvgl\src\lv_objx/lv_img.c **** /**********************
  40:..\..\..\lvgl\version_6.1.2\lvgl\src\lv_objx/lv_img.c ****  *  STATIC VARIABLES
  41:..\..\..\lvgl\version_6.1.2\lvgl\src\lv_objx/lv_img.c ****  **********************/
  42:..\..\..\lvgl\version_6.1.2\lvgl\src\lv_objx/lv_img.c **** static lv_signal_cb_t ancestor_signal;
  43:..\..\..\lvgl\version_6.1.2\lvgl\src\lv_objx/lv_img.c **** 
  44:..\..\..\lvgl\version_6.1.2\lvgl\src\lv_objx/lv_img.c **** /**********************
  45:..\..\..\lvgl\version_6.1.2\lvgl\src\lv_objx/lv_img.c ****  *      MACROS
  46:..\..\..\lvgl\version_6.1.2\lvgl\src\lv_objx/lv_img.c ****  **********************/
  47:..\..\..\lvgl\version_6.1.2\lvgl\src\lv_objx/lv_img.c **** 
  48:..\..\..\lvgl\version_6.1.2\lvgl\src\lv_objx/lv_img.c **** /**********************
  49:..\..\..\lvgl\version_6.1.2\lvgl\src\lv_objx/lv_img.c ****  *   GLOBAL FUNCTIONS
  50:..\..\..\lvgl\version_6.1.2\lvgl\src\lv_objx/lv_img.c ****  **********************/
  51:..\..\..\lvgl\version_6.1.2\lvgl\src\lv_objx/lv_img.c **** 
  52:..\..\..\lvgl\version_6.1.2\lvgl\src\lv_objx/lv_img.c **** /**
  53:..\..\..\lvgl\version_6.1.2\lvgl\src\lv_objx/lv_img.c ****  * Create an image objects
  54:..\..\..\lvgl\version_6.1.2\lvgl\src\lv_objx/lv_img.c ****  * @param par pointer to an object, it will be the parent of the new button
  55:..\..\..\lvgl\version_6.1.2\lvgl\src\lv_objx/lv_img.c ****  * @param copy pointer to a image object, if not NULL then the new object will be copied from it
  56:..\..\..\lvgl\version_6.1.2\lvgl\src\lv_objx/lv_img.c ****  * @return pointer to the created image
  57:..\..\..\lvgl\version_6.1.2\lvgl\src\lv_objx/lv_img.c ****  */
  58:..\..\..\lvgl\version_6.1.2\lvgl\src\lv_objx/lv_img.c **** lv_obj_t * lv_img_create(lv_obj_t * par, const lv_obj_t * copy)
  59:..\..\..\lvgl\version_6.1.2\lvgl\src\lv_objx/lv_img.c **** {
  60:..\..\..\lvgl\version_6.1.2\lvgl\src\lv_objx/lv_img.c ****     LV_LOG_TRACE("image create started");
  61:..\..\..\lvgl\version_6.1.2\lvgl\src\lv_objx/lv_img.c **** 
  62:..\..\..\lvgl\version_6.1.2\lvgl\src\lv_objx/lv_img.c ****     lv_obj_t * new_img = NULL;
  63:..\..\..\lvgl\version_6.1.2\lvgl\src\lv_objx/lv_img.c **** 
  64:..\..\..\lvgl\version_6.1.2\lvgl\src\lv_objx/lv_img.c ****     /*Create a basic object*/
  65:..\..\..\lvgl\version_6.1.2\lvgl\src\lv_objx/lv_img.c ****     new_img = lv_obj_create(par, copy);
  66:..\..\..\lvgl\version_6.1.2\lvgl\src\lv_objx/lv_img.c ****     LV_ASSERT_MEM(new_img);
  67:..\..\..\lvgl\version_6.1.2\lvgl\src\lv_objx/lv_img.c ****     if(new_img == NULL) return NULL;
  68:..\..\..\lvgl\version_6.1.2\lvgl\src\lv_objx/lv_img.c **** 
  69:..\..\..\lvgl\version_6.1.2\lvgl\src\lv_objx/lv_img.c ****     if(ancestor_signal == NULL) ancestor_signal = lv_obj_get_signal_cb(new_img);
  70:..\..\..\lvgl\version_6.1.2\lvgl\src\lv_objx/lv_img.c **** 
  71:..\..\..\lvgl\version_6.1.2\lvgl\src\lv_objx/lv_img.c ****     /*Extend the basic object to image object*/
  72:..\..\..\lvgl\version_6.1.2\lvgl\src\lv_objx/lv_img.c ****     lv_img_ext_t * ext = lv_obj_allocate_ext_attr(new_img, sizeof(lv_img_ext_t));
  73:..\..\..\lvgl\version_6.1.2\lvgl\src\lv_objx/lv_img.c ****     LV_ASSERT_MEM(ext);
  74:..\..\..\lvgl\version_6.1.2\lvgl\src\lv_objx/lv_img.c ****     if(ext == NULL) return NULL;
  75:..\..\..\lvgl\version_6.1.2\lvgl\src\lv_objx/lv_img.c **** 
  76:..\..\..\lvgl\version_6.1.2\lvgl\src\lv_objx/lv_img.c ****     ext->src       = NULL;
  77:..\..\..\lvgl\version_6.1.2\lvgl\src\lv_objx/lv_img.c ****     ext->src_type  = LV_IMG_SRC_UNKNOWN;
  78:..\..\..\lvgl\version_6.1.2\lvgl\src\lv_objx/lv_img.c ****     ext->cf        = LV_IMG_CF_UNKNOWN;
  79:..\..\..\lvgl\version_6.1.2\lvgl\src\lv_objx/lv_img.c ****     ext->w         = lv_obj_get_width(new_img);
  80:..\..\..\lvgl\version_6.1.2\lvgl\src\lv_objx/lv_img.c ****     ext->h         = lv_obj_get_height(new_img);
  81:..\..\..\lvgl\version_6.1.2\lvgl\src\lv_objx/lv_img.c ****     ext->auto_size = 1;
  82:..\..\..\lvgl\version_6.1.2\lvgl\src\lv_objx/lv_img.c ****     ext->offset.x  = 0;
  83:..\..\..\lvgl\version_6.1.2\lvgl\src\lv_objx/lv_img.c ****     ext->offset.y  = 0;
  84:..\..\..\lvgl\version_6.1.2\lvgl\src\lv_objx/lv_img.c **** 
  85:..\..\..\lvgl\version_6.1.2\lvgl\src\lv_objx/lv_img.c ****     /*Init the new object*/
  86:..\..\..\lvgl\version_6.1.2\lvgl\src\lv_objx/lv_img.c ****     lv_obj_set_signal_cb(new_img, lv_img_signal);
  87:..\..\..\lvgl\version_6.1.2\lvgl\src\lv_objx/lv_img.c ****     lv_obj_set_design_cb(new_img, lv_img_design);
ARM GAS  C:\Users\pearlstl\AppData\Local\Temp\ccVzUAcm.s 			page 3


  88:..\..\..\lvgl\version_6.1.2\lvgl\src\lv_objx/lv_img.c **** 
  89:..\..\..\lvgl\version_6.1.2\lvgl\src\lv_objx/lv_img.c ****     if(copy == NULL) {
  90:..\..\..\lvgl\version_6.1.2\lvgl\src\lv_objx/lv_img.c ****         lv_obj_set_click(new_img, false);
  91:..\..\..\lvgl\version_6.1.2\lvgl\src\lv_objx/lv_img.c ****         /* Enable auto size for non screens
  92:..\..\..\lvgl\version_6.1.2\lvgl\src\lv_objx/lv_img.c ****          * because image screens are wallpapers
  93:..\..\..\lvgl\version_6.1.2\lvgl\src\lv_objx/lv_img.c ****          * and must be screen sized*/
  94:..\..\..\lvgl\version_6.1.2\lvgl\src\lv_objx/lv_img.c ****         if(par != NULL) {
  95:..\..\..\lvgl\version_6.1.2\lvgl\src\lv_objx/lv_img.c ****             ext->auto_size = 1;
  96:..\..\..\lvgl\version_6.1.2\lvgl\src\lv_objx/lv_img.c ****             lv_obj_set_style(new_img, NULL); /*Inherit the style  by default*/
  97:..\..\..\lvgl\version_6.1.2\lvgl\src\lv_objx/lv_img.c ****         } else {
  98:..\..\..\lvgl\version_6.1.2\lvgl\src\lv_objx/lv_img.c ****             ext->auto_size = 0;
  99:..\..\..\lvgl\version_6.1.2\lvgl\src\lv_objx/lv_img.c ****             lv_obj_set_style(new_img, &lv_style_plain); /*Set a style for screens*/
 100:..\..\..\lvgl\version_6.1.2\lvgl\src\lv_objx/lv_img.c ****         }
 101:..\..\..\lvgl\version_6.1.2\lvgl\src\lv_objx/lv_img.c ****     } else {
 102:..\..\..\lvgl\version_6.1.2\lvgl\src\lv_objx/lv_img.c ****         lv_img_ext_t * copy_ext = lv_obj_get_ext_attr(copy);
 103:..\..\..\lvgl\version_6.1.2\lvgl\src\lv_objx/lv_img.c ****         ext->auto_size          = copy_ext->auto_size;
 104:..\..\..\lvgl\version_6.1.2\lvgl\src\lv_objx/lv_img.c ****         lv_img_set_src(new_img, copy_ext->src);
 105:..\..\..\lvgl\version_6.1.2\lvgl\src\lv_objx/lv_img.c **** 
 106:..\..\..\lvgl\version_6.1.2\lvgl\src\lv_objx/lv_img.c ****         /*Refresh the style with new signal function*/
 107:..\..\..\lvgl\version_6.1.2\lvgl\src\lv_objx/lv_img.c ****         lv_obj_refresh_style(new_img);
 108:..\..\..\lvgl\version_6.1.2\lvgl\src\lv_objx/lv_img.c ****     }
 109:..\..\..\lvgl\version_6.1.2\lvgl\src\lv_objx/lv_img.c **** 
 110:..\..\..\lvgl\version_6.1.2\lvgl\src\lv_objx/lv_img.c ****     LV_LOG_INFO("image created");
 111:..\..\..\lvgl\version_6.1.2\lvgl\src\lv_objx/lv_img.c **** 
 112:..\..\..\lvgl\version_6.1.2\lvgl\src\lv_objx/lv_img.c ****     return new_img;
 113:..\..\..\lvgl\version_6.1.2\lvgl\src\lv_objx/lv_img.c **** }
 114:..\..\..\lvgl\version_6.1.2\lvgl\src\lv_objx/lv_img.c **** 
 115:..\..\..\lvgl\version_6.1.2\lvgl\src\lv_objx/lv_img.c **** /*=====================
 116:..\..\..\lvgl\version_6.1.2\lvgl\src\lv_objx/lv_img.c ****  * Setter functions
 117:..\..\..\lvgl\version_6.1.2\lvgl\src\lv_objx/lv_img.c ****  *====================*/
 118:..\..\..\lvgl\version_6.1.2\lvgl\src\lv_objx/lv_img.c **** 
 119:..\..\..\lvgl\version_6.1.2\lvgl\src\lv_objx/lv_img.c **** /**
 120:..\..\..\lvgl\version_6.1.2\lvgl\src\lv_objx/lv_img.c ****  * Set the pixel map to display by the image
 121:..\..\..\lvgl\version_6.1.2\lvgl\src\lv_objx/lv_img.c ****  * @param img pointer to an image object
 122:..\..\..\lvgl\version_6.1.2\lvgl\src\lv_objx/lv_img.c ****  * @param data the image data
 123:..\..\..\lvgl\version_6.1.2\lvgl\src\lv_objx/lv_img.c ****  */
 124:..\..\..\lvgl\version_6.1.2\lvgl\src\lv_objx/lv_img.c **** void lv_img_set_src(lv_obj_t * img, const void * src_img)
 125:..\..\..\lvgl\version_6.1.2\lvgl\src\lv_objx/lv_img.c **** {
 126:..\..\..\lvgl\version_6.1.2\lvgl\src\lv_objx/lv_img.c ****     LV_ASSERT_OBJ(img, LV_OBJX_NAME);
 127:..\..\..\lvgl\version_6.1.2\lvgl\src\lv_objx/lv_img.c **** 
 128:..\..\..\lvgl\version_6.1.2\lvgl\src\lv_objx/lv_img.c ****     lv_img_src_t src_type = lv_img_src_get_type(src_img);
 129:..\..\..\lvgl\version_6.1.2\lvgl\src\lv_objx/lv_img.c ****     lv_img_ext_t * ext    = lv_obj_get_ext_attr(img);
 130:..\..\..\lvgl\version_6.1.2\lvgl\src\lv_objx/lv_img.c **** 
 131:..\..\..\lvgl\version_6.1.2\lvgl\src\lv_objx/lv_img.c **** #if LV_USE_LOG && LV_LOG_LEVEL >= LV_LOG_LEVEL_INFO
 132:..\..\..\lvgl\version_6.1.2\lvgl\src\lv_objx/lv_img.c ****     switch(src_type) {
 133:..\..\..\lvgl\version_6.1.2\lvgl\src\lv_objx/lv_img.c ****         case LV_IMG_SRC_FILE: LV_LOG_TRACE("lv_img_set_src: `LV_IMG_SRC_FILE` type found"); break;
 134:..\..\..\lvgl\version_6.1.2\lvgl\src\lv_objx/lv_img.c ****         case LV_IMG_SRC_VARIABLE: LV_LOG_TRACE("lv_img_set_src: `LV_IMG_SRC_VARIABLE` type found");
 135:..\..\..\lvgl\version_6.1.2\lvgl\src\lv_objx/lv_img.c ****         case LV_IMG_SRC_SYMBOL: LV_LOG_TRACE("lv_img_set_src: `LV_IMG_SRC_SYMBOL` type found"); bre
 136:..\..\..\lvgl\version_6.1.2\lvgl\src\lv_objx/lv_img.c ****         default: LV_LOG_WARN("lv_img_set_src: unknown type");
 137:..\..\..\lvgl\version_6.1.2\lvgl\src\lv_objx/lv_img.c ****     }
 138:..\..\..\lvgl\version_6.1.2\lvgl\src\lv_objx/lv_img.c **** #endif
 139:..\..\..\lvgl\version_6.1.2\lvgl\src\lv_objx/lv_img.c **** 
 140:..\..\..\lvgl\version_6.1.2\lvgl\src\lv_objx/lv_img.c ****     /*If the new source type is unknown free the memories of the old source*/
 141:..\..\..\lvgl\version_6.1.2\lvgl\src\lv_objx/lv_img.c ****     if(src_type == LV_IMG_SRC_UNKNOWN) {
 142:..\..\..\lvgl\version_6.1.2\lvgl\src\lv_objx/lv_img.c ****         LV_LOG_WARN("lv_img_set_src: unknown image type");
 143:..\..\..\lvgl\version_6.1.2\lvgl\src\lv_objx/lv_img.c ****         if(ext->src_type == LV_IMG_SRC_SYMBOL || ext->src_type == LV_IMG_SRC_FILE) {
 144:..\..\..\lvgl\version_6.1.2\lvgl\src\lv_objx/lv_img.c ****             lv_mem_free(ext->src);
ARM GAS  C:\Users\pearlstl\AppData\Local\Temp\ccVzUAcm.s 			page 4


 145:..\..\..\lvgl\version_6.1.2\lvgl\src\lv_objx/lv_img.c ****         }
 146:..\..\..\lvgl\version_6.1.2\lvgl\src\lv_objx/lv_img.c ****         ext->src      = NULL;
 147:..\..\..\lvgl\version_6.1.2\lvgl\src\lv_objx/lv_img.c ****         ext->src_type = LV_IMG_SRC_UNKNOWN;
 148:..\..\..\lvgl\version_6.1.2\lvgl\src\lv_objx/lv_img.c ****         return;
 149:..\..\..\lvgl\version_6.1.2\lvgl\src\lv_objx/lv_img.c ****     }
 150:..\..\..\lvgl\version_6.1.2\lvgl\src\lv_objx/lv_img.c **** 
 151:..\..\..\lvgl\version_6.1.2\lvgl\src\lv_objx/lv_img.c ****     lv_img_header_t header;
 152:..\..\..\lvgl\version_6.1.2\lvgl\src\lv_objx/lv_img.c ****     lv_img_decoder_get_info(src_img, &header);
 153:..\..\..\lvgl\version_6.1.2\lvgl\src\lv_objx/lv_img.c **** 
 154:..\..\..\lvgl\version_6.1.2\lvgl\src\lv_objx/lv_img.c ****     /*Save the source*/
 155:..\..\..\lvgl\version_6.1.2\lvgl\src\lv_objx/lv_img.c ****     if(src_type == LV_IMG_SRC_VARIABLE) {
 156:..\..\..\lvgl\version_6.1.2\lvgl\src\lv_objx/lv_img.c ****         LV_LOG_INFO("lv_img_set_src:  `LV_IMG_SRC_VARIABLE` type found");
 157:..\..\..\lvgl\version_6.1.2\lvgl\src\lv_objx/lv_img.c **** 
 158:..\..\..\lvgl\version_6.1.2\lvgl\src\lv_objx/lv_img.c ****         /*If memory was allocated because of the previous `src_type` then free it*/
 159:..\..\..\lvgl\version_6.1.2\lvgl\src\lv_objx/lv_img.c ****         if(ext->src_type == LV_IMG_SRC_FILE || ext->src_type == LV_IMG_SRC_SYMBOL) {
 160:..\..\..\lvgl\version_6.1.2\lvgl\src\lv_objx/lv_img.c ****             lv_mem_free(ext->src);
 161:..\..\..\lvgl\version_6.1.2\lvgl\src\lv_objx/lv_img.c ****         }
 162:..\..\..\lvgl\version_6.1.2\lvgl\src\lv_objx/lv_img.c ****         ext->src = src_img;
 163:..\..\..\lvgl\version_6.1.2\lvgl\src\lv_objx/lv_img.c ****     } else if(src_type == LV_IMG_SRC_FILE || src_type == LV_IMG_SRC_SYMBOL) {
 164:..\..\..\lvgl\version_6.1.2\lvgl\src\lv_objx/lv_img.c ****         /* If the new and the old src are the same then it was only a refresh.*/
 165:..\..\..\lvgl\version_6.1.2\lvgl\src\lv_objx/lv_img.c ****         if(ext->src != src_img) {
 166:..\..\..\lvgl\version_6.1.2\lvgl\src\lv_objx/lv_img.c ****             const void * old_src = NULL;
 167:..\..\..\lvgl\version_6.1.2\lvgl\src\lv_objx/lv_img.c ****             /* If memory was allocated because of the previous `src_type` then save its pointer and
 168:..\..\..\lvgl\version_6.1.2\lvgl\src\lv_objx/lv_img.c ****              * It's important to allocate first to be sure the new data will be on a new address.
 169:..\..\..\lvgl\version_6.1.2\lvgl\src\lv_objx/lv_img.c ****              * Else `img_cache` wouldn't see the change in source.*/
 170:..\..\..\lvgl\version_6.1.2\lvgl\src\lv_objx/lv_img.c ****             if(ext->src_type == LV_IMG_SRC_FILE || ext->src_type == LV_IMG_SRC_SYMBOL) {
 171:..\..\..\lvgl\version_6.1.2\lvgl\src\lv_objx/lv_img.c ****                 old_src = ext->src;
 172:..\..\..\lvgl\version_6.1.2\lvgl\src\lv_objx/lv_img.c ****             }
 173:..\..\..\lvgl\version_6.1.2\lvgl\src\lv_objx/lv_img.c ****             char * new_str = lv_mem_alloc(strlen(src_img) + 1);
 174:..\..\..\lvgl\version_6.1.2\lvgl\src\lv_objx/lv_img.c ****             LV_ASSERT_MEM(new_str);
 175:..\..\..\lvgl\version_6.1.2\lvgl\src\lv_objx/lv_img.c ****             if(new_str == NULL) return;
 176:..\..\..\lvgl\version_6.1.2\lvgl\src\lv_objx/lv_img.c ****             strcpy(new_str, src_img);
 177:..\..\..\lvgl\version_6.1.2\lvgl\src\lv_objx/lv_img.c ****             ext->src = new_str;
 178:..\..\..\lvgl\version_6.1.2\lvgl\src\lv_objx/lv_img.c **** 
 179:..\..\..\lvgl\version_6.1.2\lvgl\src\lv_objx/lv_img.c ****             if(old_src) lv_mem_free(old_src);
 180:..\..\..\lvgl\version_6.1.2\lvgl\src\lv_objx/lv_img.c ****         }
 181:..\..\..\lvgl\version_6.1.2\lvgl\src\lv_objx/lv_img.c ****     }
 182:..\..\..\lvgl\version_6.1.2\lvgl\src\lv_objx/lv_img.c **** 
 183:..\..\..\lvgl\version_6.1.2\lvgl\src\lv_objx/lv_img.c ****     if(src_type == LV_IMG_SRC_SYMBOL) {
 184:..\..\..\lvgl\version_6.1.2\lvgl\src\lv_objx/lv_img.c ****         /*`lv_img_dsc_get_info` couldn't set the with and height of a font so set it here*/
 185:..\..\..\lvgl\version_6.1.2\lvgl\src\lv_objx/lv_img.c ****         const lv_style_t * style = lv_img_get_style(img, LV_IMG_STYLE_MAIN);
 186:..\..\..\lvgl\version_6.1.2\lvgl\src\lv_objx/lv_img.c ****         lv_point_t size;
 187:..\..\..\lvgl\version_6.1.2\lvgl\src\lv_objx/lv_img.c ****         lv_txt_get_size(&size, src_img, style->text.font, style->text.letter_space, style->text.lin
 188:..\..\..\lvgl\version_6.1.2\lvgl\src\lv_objx/lv_img.c ****                         LV_COORD_MAX, LV_TXT_FLAG_NONE);
 189:..\..\..\lvgl\version_6.1.2\lvgl\src\lv_objx/lv_img.c ****         header.w = size.x;
 190:..\..\..\lvgl\version_6.1.2\lvgl\src\lv_objx/lv_img.c ****         header.h = size.y;
 191:..\..\..\lvgl\version_6.1.2\lvgl\src\lv_objx/lv_img.c ****     }
 192:..\..\..\lvgl\version_6.1.2\lvgl\src\lv_objx/lv_img.c **** 
 193:..\..\..\lvgl\version_6.1.2\lvgl\src\lv_objx/lv_img.c ****     ext->src_type = src_type;
 194:..\..\..\lvgl\version_6.1.2\lvgl\src\lv_objx/lv_img.c ****     ext->w        = header.w;
 195:..\..\..\lvgl\version_6.1.2\lvgl\src\lv_objx/lv_img.c ****     ext->h        = header.h;
 196:..\..\..\lvgl\version_6.1.2\lvgl\src\lv_objx/lv_img.c ****     ext->cf       = header.cf;
 197:..\..\..\lvgl\version_6.1.2\lvgl\src\lv_objx/lv_img.c **** 
 198:..\..\..\lvgl\version_6.1.2\lvgl\src\lv_objx/lv_img.c ****     if(lv_img_get_auto_size(img) != false) {
 199:..\..\..\lvgl\version_6.1.2\lvgl\src\lv_objx/lv_img.c ****         lv_obj_set_size(img, ext->w, ext->h);
 200:..\..\..\lvgl\version_6.1.2\lvgl\src\lv_objx/lv_img.c ****     }
 201:..\..\..\lvgl\version_6.1.2\lvgl\src\lv_objx/lv_img.c **** 
ARM GAS  C:\Users\pearlstl\AppData\Local\Temp\ccVzUAcm.s 			page 5


 202:..\..\..\lvgl\version_6.1.2\lvgl\src\lv_objx/lv_img.c ****     lv_obj_invalidate(img);
 203:..\..\..\lvgl\version_6.1.2\lvgl\src\lv_objx/lv_img.c **** }
 204:..\..\..\lvgl\version_6.1.2\lvgl\src\lv_objx/lv_img.c **** 
 205:..\..\..\lvgl\version_6.1.2\lvgl\src\lv_objx/lv_img.c **** /**
 206:..\..\..\lvgl\version_6.1.2\lvgl\src\lv_objx/lv_img.c ****  * Enable the auto size feature.
 207:..\..\..\lvgl\version_6.1.2\lvgl\src\lv_objx/lv_img.c ****  * If enabled the object size will be same as the picture size.
 208:..\..\..\lvgl\version_6.1.2\lvgl\src\lv_objx/lv_img.c ****  * @param img pointer to an image
 209:..\..\..\lvgl\version_6.1.2\lvgl\src\lv_objx/lv_img.c ****  * @param en true: auto size enable, false: auto size disable
 210:..\..\..\lvgl\version_6.1.2\lvgl\src\lv_objx/lv_img.c ****  */
 211:..\..\..\lvgl\version_6.1.2\lvgl\src\lv_objx/lv_img.c **** void lv_img_set_auto_size(lv_obj_t * img, bool en)
 212:..\..\..\lvgl\version_6.1.2\lvgl\src\lv_objx/lv_img.c **** {
 213:..\..\..\lvgl\version_6.1.2\lvgl\src\lv_objx/lv_img.c ****     LV_ASSERT_OBJ(img, LV_OBJX_NAME);
 214:..\..\..\lvgl\version_6.1.2\lvgl\src\lv_objx/lv_img.c **** 
 215:..\..\..\lvgl\version_6.1.2\lvgl\src\lv_objx/lv_img.c ****     lv_img_ext_t * ext = lv_obj_get_ext_attr(img);
 216:..\..\..\lvgl\version_6.1.2\lvgl\src\lv_objx/lv_img.c **** 
 217:..\..\..\lvgl\version_6.1.2\lvgl\src\lv_objx/lv_img.c ****     ext->auto_size = (en == false ? 0 : 1);
 218:..\..\..\lvgl\version_6.1.2\lvgl\src\lv_objx/lv_img.c **** }
 219:..\..\..\lvgl\version_6.1.2\lvgl\src\lv_objx/lv_img.c **** 
 220:..\..\..\lvgl\version_6.1.2\lvgl\src\lv_objx/lv_img.c **** /**
 221:..\..\..\lvgl\version_6.1.2\lvgl\src\lv_objx/lv_img.c ****  * Set an offset for the source of an image.
 222:..\..\..\lvgl\version_6.1.2\lvgl\src\lv_objx/lv_img.c ****  * so the image will be displayed from the new origin.
 223:..\..\..\lvgl\version_6.1.2\lvgl\src\lv_objx/lv_img.c ****  * @param img pointer to an image
 224:..\..\..\lvgl\version_6.1.2\lvgl\src\lv_objx/lv_img.c ****  * @param x: the new offset along x axis.
 225:..\..\..\lvgl\version_6.1.2\lvgl\src\lv_objx/lv_img.c ****  */
 226:..\..\..\lvgl\version_6.1.2\lvgl\src\lv_objx/lv_img.c **** void lv_img_set_offset_x(lv_obj_t * img, lv_coord_t x)
 227:..\..\..\lvgl\version_6.1.2\lvgl\src\lv_objx/lv_img.c **** {
 228:..\..\..\lvgl\version_6.1.2\lvgl\src\lv_objx/lv_img.c ****     LV_ASSERT_OBJ(img, LV_OBJX_NAME);
 229:..\..\..\lvgl\version_6.1.2\lvgl\src\lv_objx/lv_img.c **** 
 230:..\..\..\lvgl\version_6.1.2\lvgl\src\lv_objx/lv_img.c ****     lv_img_ext_t * ext = lv_obj_get_ext_attr(img);
 231:..\..\..\lvgl\version_6.1.2\lvgl\src\lv_objx/lv_img.c **** 
 232:..\..\..\lvgl\version_6.1.2\lvgl\src\lv_objx/lv_img.c ****     if(x < ext->w - 1) {
 233:..\..\..\lvgl\version_6.1.2\lvgl\src\lv_objx/lv_img.c ****         ext->offset.x = x;
 234:..\..\..\lvgl\version_6.1.2\lvgl\src\lv_objx/lv_img.c ****         lv_obj_invalidate(img);
 235:..\..\..\lvgl\version_6.1.2\lvgl\src\lv_objx/lv_img.c ****     }
 236:..\..\..\lvgl\version_6.1.2\lvgl\src\lv_objx/lv_img.c **** }
 237:..\..\..\lvgl\version_6.1.2\lvgl\src\lv_objx/lv_img.c **** 
 238:..\..\..\lvgl\version_6.1.2\lvgl\src\lv_objx/lv_img.c **** /**
 239:..\..\..\lvgl\version_6.1.2\lvgl\src\lv_objx/lv_img.c ****  * Set an offset for the source of an image.
 240:..\..\..\lvgl\version_6.1.2\lvgl\src\lv_objx/lv_img.c ****  * so the image will be displayed from the new origin.
 241:..\..\..\lvgl\version_6.1.2\lvgl\src\lv_objx/lv_img.c ****  * @param img pointer to an image
 242:..\..\..\lvgl\version_6.1.2\lvgl\src\lv_objx/lv_img.c ****  * @param y: the new offset along y axis.
 243:..\..\..\lvgl\version_6.1.2\lvgl\src\lv_objx/lv_img.c ****  */
 244:..\..\..\lvgl\version_6.1.2\lvgl\src\lv_objx/lv_img.c **** void lv_img_set_offset_y(lv_obj_t * img, lv_coord_t y)
 245:..\..\..\lvgl\version_6.1.2\lvgl\src\lv_objx/lv_img.c **** {
 246:..\..\..\lvgl\version_6.1.2\lvgl\src\lv_objx/lv_img.c ****     LV_ASSERT_OBJ(img, LV_OBJX_NAME);
 247:..\..\..\lvgl\version_6.1.2\lvgl\src\lv_objx/lv_img.c **** 
 248:..\..\..\lvgl\version_6.1.2\lvgl\src\lv_objx/lv_img.c ****     lv_img_ext_t * ext = lv_obj_get_ext_attr(img);
 249:..\..\..\lvgl\version_6.1.2\lvgl\src\lv_objx/lv_img.c **** 
 250:..\..\..\lvgl\version_6.1.2\lvgl\src\lv_objx/lv_img.c ****     if(y < ext->h - 1) {
 251:..\..\..\lvgl\version_6.1.2\lvgl\src\lv_objx/lv_img.c ****         ext->offset.y = y;
 252:..\..\..\lvgl\version_6.1.2\lvgl\src\lv_objx/lv_img.c ****         lv_obj_invalidate(img);
 253:..\..\..\lvgl\version_6.1.2\lvgl\src\lv_objx/lv_img.c ****     }
 254:..\..\..\lvgl\version_6.1.2\lvgl\src\lv_objx/lv_img.c **** }
 255:..\..\..\lvgl\version_6.1.2\lvgl\src\lv_objx/lv_img.c **** 
 256:..\..\..\lvgl\version_6.1.2\lvgl\src\lv_objx/lv_img.c **** /*=====================
 257:..\..\..\lvgl\version_6.1.2\lvgl\src\lv_objx/lv_img.c ****  * Getter functions
 258:..\..\..\lvgl\version_6.1.2\lvgl\src\lv_objx/lv_img.c ****  *====================*/
ARM GAS  C:\Users\pearlstl\AppData\Local\Temp\ccVzUAcm.s 			page 6


 259:..\..\..\lvgl\version_6.1.2\lvgl\src\lv_objx/lv_img.c **** 
 260:..\..\..\lvgl\version_6.1.2\lvgl\src\lv_objx/lv_img.c **** /**
 261:..\..\..\lvgl\version_6.1.2\lvgl\src\lv_objx/lv_img.c ****  * Get the source of the image
 262:..\..\..\lvgl\version_6.1.2\lvgl\src\lv_objx/lv_img.c ****  * @param img pointer to an image object
 263:..\..\..\lvgl\version_6.1.2\lvgl\src\lv_objx/lv_img.c ****  * @return the image source (symbol, file name or C array)
 264:..\..\..\lvgl\version_6.1.2\lvgl\src\lv_objx/lv_img.c ****  */
 265:..\..\..\lvgl\version_6.1.2\lvgl\src\lv_objx/lv_img.c **** const void * lv_img_get_src(lv_obj_t * img)
 266:..\..\..\lvgl\version_6.1.2\lvgl\src\lv_objx/lv_img.c **** {
 267:..\..\..\lvgl\version_6.1.2\lvgl\src\lv_objx/lv_img.c ****     LV_ASSERT_OBJ(img, LV_OBJX_NAME);
 268:..\..\..\lvgl\version_6.1.2\lvgl\src\lv_objx/lv_img.c **** 
 269:..\..\..\lvgl\version_6.1.2\lvgl\src\lv_objx/lv_img.c ****     lv_img_ext_t * ext = lv_obj_get_ext_attr(img);
 270:..\..\..\lvgl\version_6.1.2\lvgl\src\lv_objx/lv_img.c **** 
 271:..\..\..\lvgl\version_6.1.2\lvgl\src\lv_objx/lv_img.c ****     return ext->src;
 272:..\..\..\lvgl\version_6.1.2\lvgl\src\lv_objx/lv_img.c **** }
 273:..\..\..\lvgl\version_6.1.2\lvgl\src\lv_objx/lv_img.c **** 
 274:..\..\..\lvgl\version_6.1.2\lvgl\src\lv_objx/lv_img.c **** /**
 275:..\..\..\lvgl\version_6.1.2\lvgl\src\lv_objx/lv_img.c ****  * Get the name of the file set for an image
 276:..\..\..\lvgl\version_6.1.2\lvgl\src\lv_objx/lv_img.c ****  * @param img pointer to an image
 277:..\..\..\lvgl\version_6.1.2\lvgl\src\lv_objx/lv_img.c ****  * @return file name
 278:..\..\..\lvgl\version_6.1.2\lvgl\src\lv_objx/lv_img.c ****  */
 279:..\..\..\lvgl\version_6.1.2\lvgl\src\lv_objx/lv_img.c **** const char * lv_img_get_file_name(const lv_obj_t * img)
 280:..\..\..\lvgl\version_6.1.2\lvgl\src\lv_objx/lv_img.c **** {
 281:..\..\..\lvgl\version_6.1.2\lvgl\src\lv_objx/lv_img.c ****     LV_ASSERT_OBJ(img, LV_OBJX_NAME);
 282:..\..\..\lvgl\version_6.1.2\lvgl\src\lv_objx/lv_img.c **** 
 283:..\..\..\lvgl\version_6.1.2\lvgl\src\lv_objx/lv_img.c ****     lv_img_ext_t * ext = lv_obj_get_ext_attr(img);
 284:..\..\..\lvgl\version_6.1.2\lvgl\src\lv_objx/lv_img.c **** 
 285:..\..\..\lvgl\version_6.1.2\lvgl\src\lv_objx/lv_img.c ****     if(ext->src_type == LV_IMG_SRC_FILE)
 286:..\..\..\lvgl\version_6.1.2\lvgl\src\lv_objx/lv_img.c ****         return ext->src;
 287:..\..\..\lvgl\version_6.1.2\lvgl\src\lv_objx/lv_img.c ****     else
 288:..\..\..\lvgl\version_6.1.2\lvgl\src\lv_objx/lv_img.c ****         return "";
 289:..\..\..\lvgl\version_6.1.2\lvgl\src\lv_objx/lv_img.c **** }
 290:..\..\..\lvgl\version_6.1.2\lvgl\src\lv_objx/lv_img.c **** 
 291:..\..\..\lvgl\version_6.1.2\lvgl\src\lv_objx/lv_img.c **** /**
 292:..\..\..\lvgl\version_6.1.2\lvgl\src\lv_objx/lv_img.c ****  * Get the auto size enable attribute
 293:..\..\..\lvgl\version_6.1.2\lvgl\src\lv_objx/lv_img.c ****  * @param img pointer to an image
 294:..\..\..\lvgl\version_6.1.2\lvgl\src\lv_objx/lv_img.c ****  * @return true: auto size is enabled, false: auto size is disabled
 295:..\..\..\lvgl\version_6.1.2\lvgl\src\lv_objx/lv_img.c ****  */
 296:..\..\..\lvgl\version_6.1.2\lvgl\src\lv_objx/lv_img.c **** bool lv_img_get_auto_size(const lv_obj_t * img)
 297:..\..\..\lvgl\version_6.1.2\lvgl\src\lv_objx/lv_img.c **** {
 298:..\..\..\lvgl\version_6.1.2\lvgl\src\lv_objx/lv_img.c ****     LV_ASSERT_OBJ(img, LV_OBJX_NAME);
 299:..\..\..\lvgl\version_6.1.2\lvgl\src\lv_objx/lv_img.c **** 
 300:..\..\..\lvgl\version_6.1.2\lvgl\src\lv_objx/lv_img.c ****     lv_img_ext_t * ext = lv_obj_get_ext_attr(img);
 301:..\..\..\lvgl\version_6.1.2\lvgl\src\lv_objx/lv_img.c **** 
 302:..\..\..\lvgl\version_6.1.2\lvgl\src\lv_objx/lv_img.c ****     return ext->auto_size == 0 ? false : true;
 303:..\..\..\lvgl\version_6.1.2\lvgl\src\lv_objx/lv_img.c **** }
 304:..\..\..\lvgl\version_6.1.2\lvgl\src\lv_objx/lv_img.c **** 
 305:..\..\..\lvgl\version_6.1.2\lvgl\src\lv_objx/lv_img.c **** /**
 306:..\..\..\lvgl\version_6.1.2\lvgl\src\lv_objx/lv_img.c ****  * Get the offset.x attribute of the img object.
 307:..\..\..\lvgl\version_6.1.2\lvgl\src\lv_objx/lv_img.c ****  * @param img pointer to an image
 308:..\..\..\lvgl\version_6.1.2\lvgl\src\lv_objx/lv_img.c ****  * @return offset.x value.
 309:..\..\..\lvgl\version_6.1.2\lvgl\src\lv_objx/lv_img.c ****  */
 310:..\..\..\lvgl\version_6.1.2\lvgl\src\lv_objx/lv_img.c **** lv_coord_t lv_img_get_offset_x(lv_obj_t * img)
 311:..\..\..\lvgl\version_6.1.2\lvgl\src\lv_objx/lv_img.c **** {
 312:..\..\..\lvgl\version_6.1.2\lvgl\src\lv_objx/lv_img.c ****     LV_ASSERT_OBJ(img, LV_OBJX_NAME);
 313:..\..\..\lvgl\version_6.1.2\lvgl\src\lv_objx/lv_img.c **** 
 314:..\..\..\lvgl\version_6.1.2\lvgl\src\lv_objx/lv_img.c ****     lv_img_ext_t * ext = lv_obj_get_ext_attr(img);
 315:..\..\..\lvgl\version_6.1.2\lvgl\src\lv_objx/lv_img.c **** 
ARM GAS  C:\Users\pearlstl\AppData\Local\Temp\ccVzUAcm.s 			page 7


 316:..\..\..\lvgl\version_6.1.2\lvgl\src\lv_objx/lv_img.c ****     return ext->offset.x;
 317:..\..\..\lvgl\version_6.1.2\lvgl\src\lv_objx/lv_img.c **** }
 318:..\..\..\lvgl\version_6.1.2\lvgl\src\lv_objx/lv_img.c **** 
 319:..\..\..\lvgl\version_6.1.2\lvgl\src\lv_objx/lv_img.c **** /**
 320:..\..\..\lvgl\version_6.1.2\lvgl\src\lv_objx/lv_img.c ****  * Get the offset.y attribute of the img object.
 321:..\..\..\lvgl\version_6.1.2\lvgl\src\lv_objx/lv_img.c ****  * @param img pointer to an image
 322:..\..\..\lvgl\version_6.1.2\lvgl\src\lv_objx/lv_img.c ****  * @return offset.y value.
 323:..\..\..\lvgl\version_6.1.2\lvgl\src\lv_objx/lv_img.c ****  */
 324:..\..\..\lvgl\version_6.1.2\lvgl\src\lv_objx/lv_img.c **** lv_coord_t lv_img_get_offset_y(lv_obj_t * img)
 325:..\..\..\lvgl\version_6.1.2\lvgl\src\lv_objx/lv_img.c **** {
 326:..\..\..\lvgl\version_6.1.2\lvgl\src\lv_objx/lv_img.c ****     LV_ASSERT_OBJ(img, LV_OBJX_NAME);
 327:..\..\..\lvgl\version_6.1.2\lvgl\src\lv_objx/lv_img.c **** 
 328:..\..\..\lvgl\version_6.1.2\lvgl\src\lv_objx/lv_img.c ****     lv_img_ext_t * ext = lv_obj_get_ext_attr(img);
 329:..\..\..\lvgl\version_6.1.2\lvgl\src\lv_objx/lv_img.c **** 
 330:..\..\..\lvgl\version_6.1.2\lvgl\src\lv_objx/lv_img.c ****     return ext->offset.y;
 331:..\..\..\lvgl\version_6.1.2\lvgl\src\lv_objx/lv_img.c **** }
 332:..\..\..\lvgl\version_6.1.2\lvgl\src\lv_objx/lv_img.c **** 
 333:..\..\..\lvgl\version_6.1.2\lvgl\src\lv_objx/lv_img.c **** /**********************
 334:..\..\..\lvgl\version_6.1.2\lvgl\src\lv_objx/lv_img.c ****  *   STATIC FUNCTIONS
 335:..\..\..\lvgl\version_6.1.2\lvgl\src\lv_objx/lv_img.c ****  **********************/
 336:..\..\..\lvgl\version_6.1.2\lvgl\src\lv_objx/lv_img.c **** 
 337:..\..\..\lvgl\version_6.1.2\lvgl\src\lv_objx/lv_img.c **** /**
 338:..\..\..\lvgl\version_6.1.2\lvgl\src\lv_objx/lv_img.c ****  * Handle the drawing related tasks of the images
 339:..\..\..\lvgl\version_6.1.2\lvgl\src\lv_objx/lv_img.c ****  * @param img pointer to an object
 340:..\..\..\lvgl\version_6.1.2\lvgl\src\lv_objx/lv_img.c ****  * @param mask the object will be drawn only in this area
 341:..\..\..\lvgl\version_6.1.2\lvgl\src\lv_objx/lv_img.c ****  * @param mode LV_DESIGN_COVER_CHK: only check if the object fully covers the 'mask_p' area
 342:..\..\..\lvgl\version_6.1.2\lvgl\src\lv_objx/lv_img.c ****  *                                  (return 'true' if yes)
 343:..\..\..\lvgl\version_6.1.2\lvgl\src\lv_objx/lv_img.c ****  *             LV_DESIGN_DRAW: draw the object (always return 'true')
 344:..\..\..\lvgl\version_6.1.2\lvgl\src\lv_objx/lv_img.c ****  *             LV_DESIGN_DRAW_POST: drawing after every children are drawn
 345:..\..\..\lvgl\version_6.1.2\lvgl\src\lv_objx/lv_img.c ****  * @param return true/false, depends on 'mode'
 346:..\..\..\lvgl\version_6.1.2\lvgl\src\lv_objx/lv_img.c ****  */
 347:..\..\..\lvgl\version_6.1.2\lvgl\src\lv_objx/lv_img.c **** static bool lv_img_design(lv_obj_t * img, const lv_area_t * mask, lv_design_mode_t mode)
 348:..\..\..\lvgl\version_6.1.2\lvgl\src\lv_objx/lv_img.c **** {
  28              		.loc 1 348 0
  29              		.cfi_startproc
  30              		@ args = 0, pretend = 0, frame = 88
  31              		@ frame_needed = 0, uses_anonymous_args = 0
  32              	.LVL0:
  33 0000 2DE9F043 		push	{r4, r5, r6, r7, r8, r9, lr}
  34              		.cfi_def_cfa_offset 28
  35              		.cfi_offset 4, -28
  36              		.cfi_offset 5, -24
  37              		.cfi_offset 6, -20
  38              		.cfi_offset 7, -16
  39              		.cfi_offset 8, -12
  40              		.cfi_offset 9, -8
  41              		.cfi_offset 14, -4
  42 0004 9DB0     		sub	sp, sp, #116
  43              		.cfi_def_cfa_offset 144
  44              		.loc 1 348 0
  45 0006 9046     		mov	r8, r2
  46 0008 8146     		mov	r9, r0
  47 000a 0D46     		mov	r5, r1
 349:..\..\..\lvgl\version_6.1.2\lvgl\src\lv_objx/lv_img.c ****     const lv_style_t * style = lv_obj_get_style(img);
  48              		.loc 1 349 0
  49 000c FFF7FEFF 		bl	lv_obj_get_style
  50              	.LVL1:
ARM GAS  C:\Users\pearlstl\AppData\Local\Temp\ccVzUAcm.s 			page 8


  51 0010 0646     		mov	r6, r0
  52              	.LVL2:
 350:..\..\..\lvgl\version_6.1.2\lvgl\src\lv_objx/lv_img.c ****     lv_img_ext_t * ext       = lv_obj_get_ext_attr(img);
  53              		.loc 1 350 0
  54 0012 4846     		mov	r0, r9
  55              	.LVL3:
  56 0014 FFF7FEFF 		bl	lv_obj_get_ext_attr
  57              	.LVL4:
 351:..\..\..\lvgl\version_6.1.2\lvgl\src\lv_objx/lv_img.c **** 
 352:..\..\..\lvgl\version_6.1.2\lvgl\src\lv_objx/lv_img.c ****     if(mode == LV_DESIGN_COVER_CHK) {
  58              		.loc 1 352 0
  59 0018 B8F1020F 		cmp	r8, #2
 350:..\..\..\lvgl\version_6.1.2\lvgl\src\lv_objx/lv_img.c ****     lv_img_ext_t * ext       = lv_obj_get_ext_attr(img);
  60              		.loc 1 350 0
  61 001c 0446     		mov	r4, r0
  62              	.LVL5:
  63              		.loc 1 352 0
  64 001e 0CD0     		beq	.L29
 353:..\..\..\lvgl\version_6.1.2\lvgl\src\lv_objx/lv_img.c ****         bool cover = false;
 354:..\..\..\lvgl\version_6.1.2\lvgl\src\lv_objx/lv_img.c ****         if(ext->src_type == LV_IMG_SRC_UNKNOWN || ext->src_type == LV_IMG_SRC_SYMBOL) return false;
 355:..\..\..\lvgl\version_6.1.2\lvgl\src\lv_objx/lv_img.c **** 
 356:..\..\..\lvgl\version_6.1.2\lvgl\src\lv_objx/lv_img.c ****         if(ext->cf == LV_IMG_CF_TRUE_COLOR || ext->cf == LV_IMG_CF_RAW) cover = lv_area_is_in(mask,
 357:..\..\..\lvgl\version_6.1.2\lvgl\src\lv_objx/lv_img.c **** 
 358:..\..\..\lvgl\version_6.1.2\lvgl\src\lv_objx/lv_img.c ****         const lv_style_t * style = lv_img_get_style(img, LV_IMG_STYLE_MAIN);
 359:..\..\..\lvgl\version_6.1.2\lvgl\src\lv_objx/lv_img.c ****         if(style->image.opa < LV_OPA_MAX) return false;
 360:..\..\..\lvgl\version_6.1.2\lvgl\src\lv_objx/lv_img.c **** 
 361:..\..\..\lvgl\version_6.1.2\lvgl\src\lv_objx/lv_img.c ****         return cover;
 362:..\..\..\lvgl\version_6.1.2\lvgl\src\lv_objx/lv_img.c ****     } else if(mode == LV_DESIGN_DRAW_MAIN) {
  65              		.loc 1 362 0
  66 0020 B8F1000F 		cmp	r8, #0
  67 0024 05D1     		bne	.L19
  68              	.LBB14:
 363:..\..\..\lvgl\version_6.1.2\lvgl\src\lv_objx/lv_img.c ****         if(ext->h == 0 || ext->w == 0) return true;
  69              		.loc 1 363 0
  70 0026 B0F90A30 		ldrsh	r3, [r0, #10]
  71 002a 13B1     		cbz	r3, .L19
  72              		.loc 1 363 0 is_stmt 0 discriminator 2
  73 002c B0F90830 		ldrsh	r3, [r0, #8]
  74 0030 DBB9     		cbnz	r3, .L30
  75              	.LVL6:
  76              	.L19:
  77              	.LBE14:
 364:..\..\..\lvgl\version_6.1.2\lvgl\src\lv_objx/lv_img.c ****         lv_area_t coords;
 365:..\..\..\lvgl\version_6.1.2\lvgl\src\lv_objx/lv_img.c ****         lv_opa_t opa_scale = lv_obj_get_opa_scale(img);
 366:..\..\..\lvgl\version_6.1.2\lvgl\src\lv_objx/lv_img.c **** 
 367:..\..\..\lvgl\version_6.1.2\lvgl\src\lv_objx/lv_img.c ****         lv_obj_get_coords(img, &coords);
 368:..\..\..\lvgl\version_6.1.2\lvgl\src\lv_objx/lv_img.c **** 
 369:..\..\..\lvgl\version_6.1.2\lvgl\src\lv_objx/lv_img.c ****         if(ext->src_type == LV_IMG_SRC_FILE || ext->src_type == LV_IMG_SRC_VARIABLE) {
 370:..\..\..\lvgl\version_6.1.2\lvgl\src\lv_objx/lv_img.c ****             coords.x1 -= ext->offset.x;
 371:..\..\..\lvgl\version_6.1.2\lvgl\src\lv_objx/lv_img.c ****             coords.y1 -= ext->offset.y;
 372:..\..\..\lvgl\version_6.1.2\lvgl\src\lv_objx/lv_img.c **** 
 373:..\..\..\lvgl\version_6.1.2\lvgl\src\lv_objx/lv_img.c ****             LV_LOG_TRACE("lv_img_design: start to draw image");
 374:..\..\..\lvgl\version_6.1.2\lvgl\src\lv_objx/lv_img.c ****             lv_area_t cords_tmp;
 375:..\..\..\lvgl\version_6.1.2\lvgl\src\lv_objx/lv_img.c ****             cords_tmp.y1 = coords.y1;
 376:..\..\..\lvgl\version_6.1.2\lvgl\src\lv_objx/lv_img.c ****             cords_tmp.y2 = coords.y1 + ext->h - 1;
 377:..\..\..\lvgl\version_6.1.2\lvgl\src\lv_objx/lv_img.c **** 
 378:..\..\..\lvgl\version_6.1.2\lvgl\src\lv_objx/lv_img.c ****             for(; cords_tmp.y1 <= coords.y2; cords_tmp.y1 += ext->h, cords_tmp.y2 += ext->h) {
ARM GAS  C:\Users\pearlstl\AppData\Local\Temp\ccVzUAcm.s 			page 9


 379:..\..\..\lvgl\version_6.1.2\lvgl\src\lv_objx/lv_img.c ****                 cords_tmp.x1 = coords.x1;
 380:..\..\..\lvgl\version_6.1.2\lvgl\src\lv_objx/lv_img.c ****                 cords_tmp.x2 = coords.x1 + ext->w - 1;
 381:..\..\..\lvgl\version_6.1.2\lvgl\src\lv_objx/lv_img.c ****                 for(; cords_tmp.x1 <= coords.x2; cords_tmp.x1 += ext->w, cords_tmp.x2 += ext->w) {
 382:..\..\..\lvgl\version_6.1.2\lvgl\src\lv_objx/lv_img.c ****                     lv_draw_img(&cords_tmp, mask, ext->src, style, opa_scale);
 383:..\..\..\lvgl\version_6.1.2\lvgl\src\lv_objx/lv_img.c ****                 }
 384:..\..\..\lvgl\version_6.1.2\lvgl\src\lv_objx/lv_img.c ****             }
 385:..\..\..\lvgl\version_6.1.2\lvgl\src\lv_objx/lv_img.c ****         } else if(ext->src_type == LV_IMG_SRC_SYMBOL) {
 386:..\..\..\lvgl\version_6.1.2\lvgl\src\lv_objx/lv_img.c ****             LV_LOG_TRACE("lv_img_design: start to draw symbol");
 387:..\..\..\lvgl\version_6.1.2\lvgl\src\lv_objx/lv_img.c ****             lv_style_t style_mod;
 388:..\..\..\lvgl\version_6.1.2\lvgl\src\lv_objx/lv_img.c ****             lv_style_copy(&style_mod, style);
 389:..\..\..\lvgl\version_6.1.2\lvgl\src\lv_objx/lv_img.c ****             style_mod.text.color = style->image.color;
 390:..\..\..\lvgl\version_6.1.2\lvgl\src\lv_objx/lv_img.c ****             lv_draw_label(&coords, mask, &style_mod, opa_scale, ext->src, LV_TXT_FLAG_NONE, NULL, N
 391:..\..\..\lvgl\version_6.1.2\lvgl\src\lv_objx/lv_img.c ****         } else {
 392:..\..\..\lvgl\version_6.1.2\lvgl\src\lv_objx/lv_img.c ****             /*Trigger the error handler of image drawer*/
 393:..\..\..\lvgl\version_6.1.2\lvgl\src\lv_objx/lv_img.c ****             LV_LOG_WARN("lv_img_design: image source type is unknown");
 394:..\..\..\lvgl\version_6.1.2\lvgl\src\lv_objx/lv_img.c ****             lv_draw_img(&img->coords, mask, NULL, style, opa_scale);
 395:..\..\..\lvgl\version_6.1.2\lvgl\src\lv_objx/lv_img.c ****         }
 396:..\..\..\lvgl\version_6.1.2\lvgl\src\lv_objx/lv_img.c ****     }
 397:..\..\..\lvgl\version_6.1.2\lvgl\src\lv_objx/lv_img.c **** 
 398:..\..\..\lvgl\version_6.1.2\lvgl\src\lv_objx/lv_img.c ****     return true;
  78              		.loc 1 398 0 is_stmt 1
  79 0032 0120     		movs	r0, #1
 399:..\..\..\lvgl\version_6.1.2\lvgl\src\lv_objx/lv_img.c **** }
  80              		.loc 1 399 0
  81 0034 1DB0     		add	sp, sp, #116
  82              		.cfi_remember_state
  83              		.cfi_def_cfa_offset 28
  84              		@ sp needed
  85 0036 BDE8F083 		pop	{r4, r5, r6, r7, r8, r9, pc}
  86              	.LVL7:
  87              	.L29:
  88              		.cfi_restore_state
  89              	.LBB17:
 354:..\..\..\lvgl\version_6.1.2\lvgl\src\lv_objx/lv_img.c **** 
  90              		.loc 1 354 0
  91 003a 037B     		ldrb	r3, [r0, #12]	@ zero_extendqisi2
  92 003c 03F00302 		and	r2, r3, #3
  93 0040 023A     		subs	r2, r2, #2
  94 0042 012A     		cmp	r2, #1
  95 0044 30D9     		bls	.L7
 356:..\..\..\lvgl\version_6.1.2\lvgl\src\lv_objx/lv_img.c **** 
  96              		.loc 1 356 0
  97 0046 03F0F803 		and	r3, r3, #248
  98 004a 202B     		cmp	r3, #32
  99 004c 25D0     		beq	.L5
 356:..\..\..\lvgl\version_6.1.2\lvgl\src\lv_objx/lv_img.c **** 
 100              		.loc 1 356 0 is_stmt 0 discriminator 2
 101 004e 082B     		cmp	r3, #8
 102 0050 23D0     		beq	.L5
 353:..\..\..\lvgl\version_6.1.2\lvgl\src\lv_objx/lv_img.c ****         if(ext->src_type == LV_IMG_SRC_UNKNOWN || ext->src_type == LV_IMG_SRC_SYMBOL) return false;
 103              		.loc 1 353 0 is_stmt 1
 104 0052 0024     		movs	r4, #0
 105              	.LVL8:
 106              	.L6:
 107              	.LBB18:
 108              	.LBB19:
 109              		.file 2 "..\\..\\..\\lvgl\\version_6.1.2\\lvgl\\src\\lv_objx\\lv_img.h"
ARM GAS  C:\Users\pearlstl\AppData\Local\Temp\ccVzUAcm.s 			page 10


   1:..\..\..\lvgl\version_6.1.2\lvgl\src\lv_objx/lv_img.h **** /**
   2:..\..\..\lvgl\version_6.1.2\lvgl\src\lv_objx/lv_img.h ****  * @file lv_img.h
   3:..\..\..\lvgl\version_6.1.2\lvgl\src\lv_objx/lv_img.h ****  *
   4:..\..\..\lvgl\version_6.1.2\lvgl\src\lv_objx/lv_img.h ****  */
   5:..\..\..\lvgl\version_6.1.2\lvgl\src\lv_objx/lv_img.h **** 
   6:..\..\..\lvgl\version_6.1.2\lvgl\src\lv_objx/lv_img.h **** #ifndef LV_IMG_H
   7:..\..\..\lvgl\version_6.1.2\lvgl\src\lv_objx/lv_img.h **** #define LV_IMG_H
   8:..\..\..\lvgl\version_6.1.2\lvgl\src\lv_objx/lv_img.h **** 
   9:..\..\..\lvgl\version_6.1.2\lvgl\src\lv_objx/lv_img.h **** #ifdef __cplusplus
  10:..\..\..\lvgl\version_6.1.2\lvgl\src\lv_objx/lv_img.h **** extern "C" {
  11:..\..\..\lvgl\version_6.1.2\lvgl\src\lv_objx/lv_img.h **** #endif
  12:..\..\..\lvgl\version_6.1.2\lvgl\src\lv_objx/lv_img.h **** 
  13:..\..\..\lvgl\version_6.1.2\lvgl\src\lv_objx/lv_img.h **** /*********************
  14:..\..\..\lvgl\version_6.1.2\lvgl\src\lv_objx/lv_img.h ****  *      INCLUDES
  15:..\..\..\lvgl\version_6.1.2\lvgl\src\lv_objx/lv_img.h ****  *********************/
  16:..\..\..\lvgl\version_6.1.2\lvgl\src\lv_objx/lv_img.h **** #ifdef LV_CONF_INCLUDE_SIMPLE
  17:..\..\..\lvgl\version_6.1.2\lvgl\src\lv_objx/lv_img.h **** #include "lv_conf.h"
  18:..\..\..\lvgl\version_6.1.2\lvgl\src\lv_objx/lv_img.h **** #else
  19:..\..\..\lvgl\version_6.1.2\lvgl\src\lv_objx/lv_img.h **** #include "../../../lv_conf.h"
  20:..\..\..\lvgl\version_6.1.2\lvgl\src\lv_objx/lv_img.h **** #endif
  21:..\..\..\lvgl\version_6.1.2\lvgl\src\lv_objx/lv_img.h **** 
  22:..\..\..\lvgl\version_6.1.2\lvgl\src\lv_objx/lv_img.h **** #if LV_USE_IMG != 0
  23:..\..\..\lvgl\version_6.1.2\lvgl\src\lv_objx/lv_img.h **** 
  24:..\..\..\lvgl\version_6.1.2\lvgl\src\lv_objx/lv_img.h **** #include "../lv_core/lv_obj.h"
  25:..\..\..\lvgl\version_6.1.2\lvgl\src\lv_objx/lv_img.h **** #include "../lv_misc/lv_fs.h"
  26:..\..\..\lvgl\version_6.1.2\lvgl\src\lv_objx/lv_img.h **** #include "lv_label.h"
  27:..\..\..\lvgl\version_6.1.2\lvgl\src\lv_objx/lv_img.h **** #include "../lv_draw/lv_draw.h"
  28:..\..\..\lvgl\version_6.1.2\lvgl\src\lv_objx/lv_img.h **** 
  29:..\..\..\lvgl\version_6.1.2\lvgl\src\lv_objx/lv_img.h **** /*********************
  30:..\..\..\lvgl\version_6.1.2\lvgl\src\lv_objx/lv_img.h ****  *      DEFINES
  31:..\..\..\lvgl\version_6.1.2\lvgl\src\lv_objx/lv_img.h ****  *********************/
  32:..\..\..\lvgl\version_6.1.2\lvgl\src\lv_objx/lv_img.h **** 
  33:..\..\..\lvgl\version_6.1.2\lvgl\src\lv_objx/lv_img.h **** /**********************
  34:..\..\..\lvgl\version_6.1.2\lvgl\src\lv_objx/lv_img.h ****  *      TYPEDEFS
  35:..\..\..\lvgl\version_6.1.2\lvgl\src\lv_objx/lv_img.h ****  **********************/
  36:..\..\..\lvgl\version_6.1.2\lvgl\src\lv_objx/lv_img.h **** /*Data of image*/
  37:..\..\..\lvgl\version_6.1.2\lvgl\src\lv_objx/lv_img.h **** typedef struct
  38:..\..\..\lvgl\version_6.1.2\lvgl\src\lv_objx/lv_img.h **** {
  39:..\..\..\lvgl\version_6.1.2\lvgl\src\lv_objx/lv_img.h ****     /*No inherited ext. because inherited from the base object*/ /*Ext. of ancestor*/
  40:..\..\..\lvgl\version_6.1.2\lvgl\src\lv_objx/lv_img.h ****     /*New data for this type */
  41:..\..\..\lvgl\version_6.1.2\lvgl\src\lv_objx/lv_img.h ****     const void * src; /*Image source: Pointer to an array or a file or a symbol*/
  42:..\..\..\lvgl\version_6.1.2\lvgl\src\lv_objx/lv_img.h ****     lv_point_t offset;
  43:..\..\..\lvgl\version_6.1.2\lvgl\src\lv_objx/lv_img.h ****     lv_coord_t w;          /*Width of the image (Handled by the library)*/
  44:..\..\..\lvgl\version_6.1.2\lvgl\src\lv_objx/lv_img.h ****     lv_coord_t h;          /*Height of the image (Handled by the library)*/
  45:..\..\..\lvgl\version_6.1.2\lvgl\src\lv_objx/lv_img.h ****     uint8_t src_type : 2;  /*See: lv_img_src_t*/
  46:..\..\..\lvgl\version_6.1.2\lvgl\src\lv_objx/lv_img.h ****     uint8_t auto_size : 1; /*1: automatically set the object size to the image size*/
  47:..\..\..\lvgl\version_6.1.2\lvgl\src\lv_objx/lv_img.h ****     uint8_t cf : 5;        /*Color format from `lv_img_color_format_t`*/
  48:..\..\..\lvgl\version_6.1.2\lvgl\src\lv_objx/lv_img.h **** } lv_img_ext_t;
  49:..\..\..\lvgl\version_6.1.2\lvgl\src\lv_objx/lv_img.h **** 
  50:..\..\..\lvgl\version_6.1.2\lvgl\src\lv_objx/lv_img.h **** /*Styles*/
  51:..\..\..\lvgl\version_6.1.2\lvgl\src\lv_objx/lv_img.h **** enum {
  52:..\..\..\lvgl\version_6.1.2\lvgl\src\lv_objx/lv_img.h ****     LV_IMG_STYLE_MAIN,
  53:..\..\..\lvgl\version_6.1.2\lvgl\src\lv_objx/lv_img.h **** };
  54:..\..\..\lvgl\version_6.1.2\lvgl\src\lv_objx/lv_img.h **** typedef uint8_t lv_img_style_t;
  55:..\..\..\lvgl\version_6.1.2\lvgl\src\lv_objx/lv_img.h **** 
  56:..\..\..\lvgl\version_6.1.2\lvgl\src\lv_objx/lv_img.h **** /**********************
  57:..\..\..\lvgl\version_6.1.2\lvgl\src\lv_objx/lv_img.h ****  * GLOBAL PROTOTYPES
ARM GAS  C:\Users\pearlstl\AppData\Local\Temp\ccVzUAcm.s 			page 11


  58:..\..\..\lvgl\version_6.1.2\lvgl\src\lv_objx/lv_img.h ****  **********************/
  59:..\..\..\lvgl\version_6.1.2\lvgl\src\lv_objx/lv_img.h **** 
  60:..\..\..\lvgl\version_6.1.2\lvgl\src\lv_objx/lv_img.h **** /**
  61:..\..\..\lvgl\version_6.1.2\lvgl\src\lv_objx/lv_img.h ****  * Create an image objects
  62:..\..\..\lvgl\version_6.1.2\lvgl\src\lv_objx/lv_img.h ****  * @param par pointer to an object, it will be the parent of the new button
  63:..\..\..\lvgl\version_6.1.2\lvgl\src\lv_objx/lv_img.h ****  * @param copy pointer to a image object, if not NULL then the new object will be copied from it
  64:..\..\..\lvgl\version_6.1.2\lvgl\src\lv_objx/lv_img.h ****  * @return pointer to the created image
  65:..\..\..\lvgl\version_6.1.2\lvgl\src\lv_objx/lv_img.h ****  */
  66:..\..\..\lvgl\version_6.1.2\lvgl\src\lv_objx/lv_img.h **** lv_obj_t * lv_img_create(lv_obj_t * par, const lv_obj_t * copy);
  67:..\..\..\lvgl\version_6.1.2\lvgl\src\lv_objx/lv_img.h **** 
  68:..\..\..\lvgl\version_6.1.2\lvgl\src\lv_objx/lv_img.h **** /*=====================
  69:..\..\..\lvgl\version_6.1.2\lvgl\src\lv_objx/lv_img.h ****  * Setter functions
  70:..\..\..\lvgl\version_6.1.2\lvgl\src\lv_objx/lv_img.h ****  *====================*/
  71:..\..\..\lvgl\version_6.1.2\lvgl\src\lv_objx/lv_img.h **** 
  72:..\..\..\lvgl\version_6.1.2\lvgl\src\lv_objx/lv_img.h **** /**
  73:..\..\..\lvgl\version_6.1.2\lvgl\src\lv_objx/lv_img.h ****  * Set the pixel map to display by the image
  74:..\..\..\lvgl\version_6.1.2\lvgl\src\lv_objx/lv_img.h ****  * @param img pointer to an image object
  75:..\..\..\lvgl\version_6.1.2\lvgl\src\lv_objx/lv_img.h ****  * @param data the image data
  76:..\..\..\lvgl\version_6.1.2\lvgl\src\lv_objx/lv_img.h ****  */
  77:..\..\..\lvgl\version_6.1.2\lvgl\src\lv_objx/lv_img.h **** void lv_img_set_src(lv_obj_t * img, const void * src_img);
  78:..\..\..\lvgl\version_6.1.2\lvgl\src\lv_objx/lv_img.h **** 
  79:..\..\..\lvgl\version_6.1.2\lvgl\src\lv_objx/lv_img.h **** /**
  80:..\..\..\lvgl\version_6.1.2\lvgl\src\lv_objx/lv_img.h ****  * Enable the auto size feature.
  81:..\..\..\lvgl\version_6.1.2\lvgl\src\lv_objx/lv_img.h ****  * If enabled the object size will be same as the picture size.
  82:..\..\..\lvgl\version_6.1.2\lvgl\src\lv_objx/lv_img.h ****  * @param img pointer to an image
  83:..\..\..\lvgl\version_6.1.2\lvgl\src\lv_objx/lv_img.h ****  * @param en true: auto size enable, false: auto size disable
  84:..\..\..\lvgl\version_6.1.2\lvgl\src\lv_objx/lv_img.h ****  */
  85:..\..\..\lvgl\version_6.1.2\lvgl\src\lv_objx/lv_img.h **** void lv_img_set_auto_size(lv_obj_t * img, bool autosize_en);
  86:..\..\..\lvgl\version_6.1.2\lvgl\src\lv_objx/lv_img.h **** 
  87:..\..\..\lvgl\version_6.1.2\lvgl\src\lv_objx/lv_img.h **** /**
  88:..\..\..\lvgl\version_6.1.2\lvgl\src\lv_objx/lv_img.h ****  * Set an offset for the source of an image.
  89:..\..\..\lvgl\version_6.1.2\lvgl\src\lv_objx/lv_img.h ****  * so the image will be displayed from the new origin.
  90:..\..\..\lvgl\version_6.1.2\lvgl\src\lv_objx/lv_img.h ****  * @param img pointer to an image
  91:..\..\..\lvgl\version_6.1.2\lvgl\src\lv_objx/lv_img.h ****  * @param x: the new offset along x axis.
  92:..\..\..\lvgl\version_6.1.2\lvgl\src\lv_objx/lv_img.h ****  */
  93:..\..\..\lvgl\version_6.1.2\lvgl\src\lv_objx/lv_img.h **** void lv_img_set_offset_x(lv_obj_t * img, lv_coord_t x);
  94:..\..\..\lvgl\version_6.1.2\lvgl\src\lv_objx/lv_img.h **** 
  95:..\..\..\lvgl\version_6.1.2\lvgl\src\lv_objx/lv_img.h **** /**
  96:..\..\..\lvgl\version_6.1.2\lvgl\src\lv_objx/lv_img.h ****  * Set an offset for the source of an image.
  97:..\..\..\lvgl\version_6.1.2\lvgl\src\lv_objx/lv_img.h ****  * so the image will be displayed from the new origin.
  98:..\..\..\lvgl\version_6.1.2\lvgl\src\lv_objx/lv_img.h ****  * @param img pointer to an image
  99:..\..\..\lvgl\version_6.1.2\lvgl\src\lv_objx/lv_img.h ****  * @param y: the new offset along y axis.
 100:..\..\..\lvgl\version_6.1.2\lvgl\src\lv_objx/lv_img.h ****  */
 101:..\..\..\lvgl\version_6.1.2\lvgl\src\lv_objx/lv_img.h **** void lv_img_set_offset_y(lv_obj_t * img, lv_coord_t y);
 102:..\..\..\lvgl\version_6.1.2\lvgl\src\lv_objx/lv_img.h **** 
 103:..\..\..\lvgl\version_6.1.2\lvgl\src\lv_objx/lv_img.h **** /**
 104:..\..\..\lvgl\version_6.1.2\lvgl\src\lv_objx/lv_img.h ****  * Set the style of an image
 105:..\..\..\lvgl\version_6.1.2\lvgl\src\lv_objx/lv_img.h ****  * @param img pointer to an image object
 106:..\..\..\lvgl\version_6.1.2\lvgl\src\lv_objx/lv_img.h ****  * @param type which style should be set (can be only `LV_IMG_STYLE_MAIN`)
 107:..\..\..\lvgl\version_6.1.2\lvgl\src\lv_objx/lv_img.h ****  * @param style pointer to a style
 108:..\..\..\lvgl\version_6.1.2\lvgl\src\lv_objx/lv_img.h ****  */
 109:..\..\..\lvgl\version_6.1.2\lvgl\src\lv_objx/lv_img.h **** static inline void lv_img_set_style(lv_obj_t * img, lv_img_style_t type, const lv_style_t * style)
 110:..\..\..\lvgl\version_6.1.2\lvgl\src\lv_objx/lv_img.h **** {
 111:..\..\..\lvgl\version_6.1.2\lvgl\src\lv_objx/lv_img.h ****     (void)type; /*Unused*/
 112:..\..\..\lvgl\version_6.1.2\lvgl\src\lv_objx/lv_img.h ****     lv_obj_set_style(img, style);
 113:..\..\..\lvgl\version_6.1.2\lvgl\src\lv_objx/lv_img.h **** }
 114:..\..\..\lvgl\version_6.1.2\lvgl\src\lv_objx/lv_img.h **** 
ARM GAS  C:\Users\pearlstl\AppData\Local\Temp\ccVzUAcm.s 			page 12


 115:..\..\..\lvgl\version_6.1.2\lvgl\src\lv_objx/lv_img.h **** /*=====================
 116:..\..\..\lvgl\version_6.1.2\lvgl\src\lv_objx/lv_img.h ****  * Getter functions
 117:..\..\..\lvgl\version_6.1.2\lvgl\src\lv_objx/lv_img.h ****  *====================*/
 118:..\..\..\lvgl\version_6.1.2\lvgl\src\lv_objx/lv_img.h **** 
 119:..\..\..\lvgl\version_6.1.2\lvgl\src\lv_objx/lv_img.h **** /**
 120:..\..\..\lvgl\version_6.1.2\lvgl\src\lv_objx/lv_img.h ****  * Get the source of the image
 121:..\..\..\lvgl\version_6.1.2\lvgl\src\lv_objx/lv_img.h ****  * @param img pointer to an image object
 122:..\..\..\lvgl\version_6.1.2\lvgl\src\lv_objx/lv_img.h ****  * @return the image source (symbol, file name or C array)
 123:..\..\..\lvgl\version_6.1.2\lvgl\src\lv_objx/lv_img.h ****  */
 124:..\..\..\lvgl\version_6.1.2\lvgl\src\lv_objx/lv_img.h **** const void * lv_img_get_src(lv_obj_t * img);
 125:..\..\..\lvgl\version_6.1.2\lvgl\src\lv_objx/lv_img.h **** 
 126:..\..\..\lvgl\version_6.1.2\lvgl\src\lv_objx/lv_img.h **** /**
 127:..\..\..\lvgl\version_6.1.2\lvgl\src\lv_objx/lv_img.h ****  * Get the name of the file set for an image
 128:..\..\..\lvgl\version_6.1.2\lvgl\src\lv_objx/lv_img.h ****  * @param img pointer to an image
 129:..\..\..\lvgl\version_6.1.2\lvgl\src\lv_objx/lv_img.h ****  * @return file name
 130:..\..\..\lvgl\version_6.1.2\lvgl\src\lv_objx/lv_img.h ****  */
 131:..\..\..\lvgl\version_6.1.2\lvgl\src\lv_objx/lv_img.h **** const char * lv_img_get_file_name(const lv_obj_t * img);
 132:..\..\..\lvgl\version_6.1.2\lvgl\src\lv_objx/lv_img.h **** 
 133:..\..\..\lvgl\version_6.1.2\lvgl\src\lv_objx/lv_img.h **** /**
 134:..\..\..\lvgl\version_6.1.2\lvgl\src\lv_objx/lv_img.h ****  * Get the auto size enable attribute
 135:..\..\..\lvgl\version_6.1.2\lvgl\src\lv_objx/lv_img.h ****  * @param img pointer to an image
 136:..\..\..\lvgl\version_6.1.2\lvgl\src\lv_objx/lv_img.h ****  * @return true: auto size is enabled, false: auto size is disabled
 137:..\..\..\lvgl\version_6.1.2\lvgl\src\lv_objx/lv_img.h ****  */
 138:..\..\..\lvgl\version_6.1.2\lvgl\src\lv_objx/lv_img.h **** bool lv_img_get_auto_size(const lv_obj_t * img);
 139:..\..\..\lvgl\version_6.1.2\lvgl\src\lv_objx/lv_img.h **** 
 140:..\..\..\lvgl\version_6.1.2\lvgl\src\lv_objx/lv_img.h **** /**
 141:..\..\..\lvgl\version_6.1.2\lvgl\src\lv_objx/lv_img.h ****  * Get the offset.x attribute of the img object.
 142:..\..\..\lvgl\version_6.1.2\lvgl\src\lv_objx/lv_img.h ****  * @param img pointer to an image
 143:..\..\..\lvgl\version_6.1.2\lvgl\src\lv_objx/lv_img.h ****  * @return offset.x value.
 144:..\..\..\lvgl\version_6.1.2\lvgl\src\lv_objx/lv_img.h ****  */
 145:..\..\..\lvgl\version_6.1.2\lvgl\src\lv_objx/lv_img.h **** lv_coord_t lv_img_get_offset_x(lv_obj_t * img);
 146:..\..\..\lvgl\version_6.1.2\lvgl\src\lv_objx/lv_img.h **** 
 147:..\..\..\lvgl\version_6.1.2\lvgl\src\lv_objx/lv_img.h **** /**
 148:..\..\..\lvgl\version_6.1.2\lvgl\src\lv_objx/lv_img.h ****  * Get the offset.y attribute of the img object.
 149:..\..\..\lvgl\version_6.1.2\lvgl\src\lv_objx/lv_img.h ****  * @param img pointer to an image
 150:..\..\..\lvgl\version_6.1.2\lvgl\src\lv_objx/lv_img.h ****  * @return offset.y value.
 151:..\..\..\lvgl\version_6.1.2\lvgl\src\lv_objx/lv_img.h ****  */
 152:..\..\..\lvgl\version_6.1.2\lvgl\src\lv_objx/lv_img.h **** lv_coord_t lv_img_get_offset_y(lv_obj_t * img);
 153:..\..\..\lvgl\version_6.1.2\lvgl\src\lv_objx/lv_img.h **** 
 154:..\..\..\lvgl\version_6.1.2\lvgl\src\lv_objx/lv_img.h **** /**
 155:..\..\..\lvgl\version_6.1.2\lvgl\src\lv_objx/lv_img.h ****  * Get the style of an image object
 156:..\..\..\lvgl\version_6.1.2\lvgl\src\lv_objx/lv_img.h ****  * @param img pointer to an image object
 157:..\..\..\lvgl\version_6.1.2\lvgl\src\lv_objx/lv_img.h ****  * @param type which style should be get (can be only `LV_IMG_STYLE_MAIN`)
 158:..\..\..\lvgl\version_6.1.2\lvgl\src\lv_objx/lv_img.h ****  * @return pointer to the image's style
 159:..\..\..\lvgl\version_6.1.2\lvgl\src\lv_objx/lv_img.h ****  */
 160:..\..\..\lvgl\version_6.1.2\lvgl\src\lv_objx/lv_img.h **** static inline const lv_style_t * lv_img_get_style(const lv_obj_t * img, lv_img_style_t type)
 161:..\..\..\lvgl\version_6.1.2\lvgl\src\lv_objx/lv_img.h **** {
 162:..\..\..\lvgl\version_6.1.2\lvgl\src\lv_objx/lv_img.h ****     (void)type; /*Unused*/
 163:..\..\..\lvgl\version_6.1.2\lvgl\src\lv_objx/lv_img.h ****     return lv_obj_get_style(img);
 110              		.loc 2 163 0
 111 0054 4846     		mov	r0, r9
 112 0056 FFF7FEFF 		bl	lv_obj_get_style
 113              	.LVL9:
 114              	.LBE19:
 115              	.LBE18:
 359:..\..\..\lvgl\version_6.1.2\lvgl\src\lv_objx/lv_img.c **** 
 116              		.loc 1 359 0
ARM GAS  C:\Users\pearlstl\AppData\Local\Temp\ccVzUAcm.s 			page 13


 117 005a 90F84530 		ldrb	r3, [r0, #69]	@ zero_extendqisi2
 118 005e FA2B     		cmp	r3, #250
 119 0060 22D9     		bls	.L7
 361:..\..\..\lvgl\version_6.1.2\lvgl\src\lv_objx/lv_img.c ****     } else if(mode == LV_DESIGN_DRAW_MAIN) {
 120              		.loc 1 361 0
 121 0062 2046     		mov	r0, r4
 122              	.LBE17:
 123              		.loc 1 399 0
 124 0064 1DB0     		add	sp, sp, #116
 125              		.cfi_remember_state
 126              		.cfi_def_cfa_offset 28
 127              		@ sp needed
 128 0066 BDE8F083 		pop	{r4, r5, r6, r7, r8, r9, pc}
 129              	.LVL10:
 130              	.L30:
 131              		.cfi_restore_state
 132              	.LBB20:
 365:..\..\..\lvgl\version_6.1.2\lvgl\src\lv_objx/lv_img.c **** 
 133              		.loc 1 365 0
 134 006a 4846     		mov	r0, r9
 135              	.LVL11:
 136 006c FFF7FEFF 		bl	lv_obj_get_opa_scale
 137              	.LVL12:
 367:..\..\..\lvgl\version_6.1.2\lvgl\src\lv_objx/lv_img.c **** 
 138              		.loc 1 367 0
 139 0070 06A9     		add	r1, sp, #24
 365:..\..\..\lvgl\version_6.1.2\lvgl\src\lv_objx/lv_img.c **** 
 140              		.loc 1 365 0
 141 0072 0746     		mov	r7, r0
 142              	.LVL13:
 367:..\..\..\lvgl\version_6.1.2\lvgl\src\lv_objx/lv_img.c **** 
 143              		.loc 1 367 0
 144 0074 4846     		mov	r0, r9
 145 0076 FFF7FEFF 		bl	lv_obj_get_coords
 146              	.LVL14:
 369:..\..\..\lvgl\version_6.1.2\lvgl\src\lv_objx/lv_img.c ****             coords.x1 -= ext->offset.x;
 147              		.loc 1 369 0
 148 007a 237B     		ldrb	r3, [r4, #12]	@ zero_extendqisi2
 149 007c 03F00303 		and	r3, r3, #3
 150 0080 012B     		cmp	r3, #1
 151 0082 15D9     		bls	.L31
 385:..\..\..\lvgl\version_6.1.2\lvgl\src\lv_objx/lv_img.c ****             LV_LOG_TRACE("lv_img_design: start to draw symbol");
 152              		.loc 1 385 0
 153 0084 022B     		cmp	r3, #2
 154 0086 70D0     		beq	.L32
 394:..\..\..\lvgl\version_6.1.2\lvgl\src\lv_objx/lv_img.c ****         }
 155              		.loc 1 394 0
 156 0088 0097     		str	r7, [sp]
 157 008a 3346     		mov	r3, r6
 158 008c 4246     		mov	r2, r8
 159 008e 2946     		mov	r1, r5
 160 0090 09F11000 		add	r0, r9, #16
 161 0094 FFF7FEFF 		bl	lv_draw_img
 162              	.LVL15:
 163 0098 CBE7     		b	.L19
 164              	.LVL16:
 165              	.L5:
ARM GAS  C:\Users\pearlstl\AppData\Local\Temp\ccVzUAcm.s 			page 14


 166              	.LBE20:
 167              	.LBB21:
 356:..\..\..\lvgl\version_6.1.2\lvgl\src\lv_objx/lv_img.c **** 
 168              		.loc 1 356 0 discriminator 3
 169 009a 2846     		mov	r0, r5
 170              	.LVL17:
 171 009c 09F11001 		add	r1, r9, #16
 172 00a0 FFF7FEFF 		bl	lv_area_is_in
 173              	.LVL18:
 174 00a4 0446     		mov	r4, r0
 175              	.LVL19:
 176 00a6 D5E7     		b	.L6
 177              	.LVL20:
 178              	.L7:
 354:..\..\..\lvgl\version_6.1.2\lvgl\src\lv_objx/lv_img.c **** 
 179              		.loc 1 354 0
 180 00a8 0020     		movs	r0, #0
 181              	.LBE21:
 182              		.loc 1 399 0
 183 00aa 1DB0     		add	sp, sp, #116
 184              		.cfi_remember_state
 185              		.cfi_def_cfa_offset 28
 186              		@ sp needed
 187 00ac BDE8F083 		pop	{r4, r5, r6, r7, r8, r9, pc}
 188              	.LVL21:
 189              	.L31:
 190              		.cfi_restore_state
 191              	.LBB22:
 192              	.LBB15:
 371:..\..\..\lvgl\version_6.1.2\lvgl\src\lv_objx/lv_img.c **** 
 193              		.loc 1 371 0
 194 00b0 E188     		ldrh	r1, [r4, #6]
 195 00b2 BDF81A30 		ldrh	r3, [sp, #26]
 376:..\..\..\lvgl\version_6.1.2\lvgl\src\lv_objx/lv_img.c **** 
 196              		.loc 1 376 0
 197 00b6 B4F90A80 		ldrsh	r8, [r4, #10]
 370:..\..\..\lvgl\version_6.1.2\lvgl\src\lv_objx/lv_img.c ****             coords.y1 -= ext->offset.y;
 198              		.loc 1 370 0
 199 00ba A288     		ldrh	r2, [r4, #4]
 200 00bc BDF81800 		ldrh	r0, [sp, #24]
 378:..\..\..\lvgl\version_6.1.2\lvgl\src\lv_objx/lv_img.c ****                 cords_tmp.x1 = coords.x1;
 201              		.loc 1 378 0
 202 00c0 BDF91EC0 		ldrsh	ip, [sp, #30]
 371:..\..\..\lvgl\version_6.1.2\lvgl\src\lv_objx/lv_img.c **** 
 203              		.loc 1 371 0
 204 00c4 5B1A     		subs	r3, r3, r1
 205 00c6 9BB2     		uxth	r3, r3
 376:..\..\..\lvgl\version_6.1.2\lvgl\src\lv_objx/lv_img.c **** 
 206              		.loc 1 376 0
 207 00c8 08F1FF31 		add	r1, r8, #-1
 208 00cc 1944     		add	r1, r1, r3
 370:..\..\..\lvgl\version_6.1.2\lvgl\src\lv_objx/lv_img.c ****             coords.y1 -= ext->offset.y;
 209              		.loc 1 370 0
 210 00ce 821A     		subs	r2, r0, r2
 371:..\..\..\lvgl\version_6.1.2\lvgl\src\lv_objx/lv_img.c **** 
 211              		.loc 1 371 0
 212 00d0 1BB2     		sxth	r3, r3
ARM GAS  C:\Users\pearlstl\AppData\Local\Temp\ccVzUAcm.s 			page 15


 376:..\..\..\lvgl\version_6.1.2\lvgl\src\lv_objx/lv_img.c **** 
 213              		.loc 1 376 0
 214 00d2 09B2     		sxth	r1, r1
 370:..\..\..\lvgl\version_6.1.2\lvgl\src\lv_objx/lv_img.c ****             coords.y1 -= ext->offset.y;
 215              		.loc 1 370 0
 216 00d4 12B2     		sxth	r2, r2
 378:..\..\..\lvgl\version_6.1.2\lvgl\src\lv_objx/lv_img.c ****                 cords_tmp.x1 = coords.x1;
 217              		.loc 1 378 0
 218 00d6 6345     		cmp	r3, ip
 371:..\..\..\lvgl\version_6.1.2\lvgl\src\lv_objx/lv_img.c **** 
 219              		.loc 1 371 0
 220 00d8 ADF81A30 		strh	r3, [sp, #26]	@ movhi
 376:..\..\..\lvgl\version_6.1.2\lvgl\src\lv_objx/lv_img.c **** 
 221              		.loc 1 376 0
 222 00dc ADF82610 		strh	r1, [sp, #38]	@ movhi
 375:..\..\..\lvgl\version_6.1.2\lvgl\src\lv_objx/lv_img.c ****             cords_tmp.y2 = coords.y1 + ext->h - 1;
 223              		.loc 1 375 0
 224 00e0 ADF82230 		strh	r3, [sp, #34]	@ movhi
 370:..\..\..\lvgl\version_6.1.2\lvgl\src\lv_objx/lv_img.c ****             coords.y1 -= ext->offset.y;
 225              		.loc 1 370 0
 226 00e4 ADF81820 		strh	r2, [sp, #24]	@ movhi
 378:..\..\..\lvgl\version_6.1.2\lvgl\src\lv_objx/lv_img.c ****                 cords_tmp.x1 = coords.x1;
 227              		.loc 1 378 0
 228 00e8 A3DC     		bgt	.L19
 229 00ea B4F908E0 		ldrsh	lr, [r4, #8]
 230 00ee BDF91C00 		ldrsh	r0, [sp, #28]
 231              	.LVL22:
 232              	.L16:
 379:..\..\..\lvgl\version_6.1.2\lvgl\src\lv_objx/lv_img.c ****                 cords_tmp.x2 = coords.x1 + ext->w - 1;
 233              		.loc 1 379 0
 234 00f2 ADF82020 		strh	r2, [sp, #32]	@ movhi
 380:..\..\..\lvgl\version_6.1.2\lvgl\src\lv_objx/lv_img.c ****                 for(; cords_tmp.x1 <= coords.x2; cords_tmp.x1 += ext->w, cords_tmp.x2 += ext->w) {
 235              		.loc 1 380 0
 236 00f6 02EB0E09 		add	r9, r2, lr
 237 00fa 09F1FF39 		add	r9, r9, #-1
 381:..\..\..\lvgl\version_6.1.2\lvgl\src\lv_objx/lv_img.c ****                     lv_draw_img(&cords_tmp, mask, ext->src, style, opa_scale);
 238              		.loc 1 381 0
 239 00fe 8242     		cmp	r2, r0
 380:..\..\..\lvgl\version_6.1.2\lvgl\src\lv_objx/lv_img.c ****                 for(; cords_tmp.x1 <= coords.x2; cords_tmp.x1 += ext->w, cords_tmp.x2 += ext->w) {
 240              		.loc 1 380 0
 241 0100 ADF82490 		strh	r9, [sp, #36]	@ movhi
 381:..\..\..\lvgl\version_6.1.2\lvgl\src\lv_objx/lv_img.c ****                     lv_draw_img(&cords_tmp, mask, ext->src, style, opa_scale);
 242              		.loc 1 381 0
 243 0104 21DC     		bgt	.L13
 244              	.L14:
 382:..\..\..\lvgl\version_6.1.2\lvgl\src\lv_objx/lv_img.c ****                 }
 245              		.loc 1 382 0 discriminator 2
 246 0106 2268     		ldr	r2, [r4]
 247 0108 0097     		str	r7, [sp]
 248 010a 3346     		mov	r3, r6
 249 010c 2946     		mov	r1, r5
 250 010e 08A8     		add	r0, sp, #32
 251 0110 FFF7FEFF 		bl	lv_draw_img
 252              	.LVL23:
 381:..\..\..\lvgl\version_6.1.2\lvgl\src\lv_objx/lv_img.c ****                     lv_draw_img(&cords_tmp, mask, ext->src, style, opa_scale);
 253              		.loc 1 381 0 discriminator 2
 254 0114 B4F908E0 		ldrsh	lr, [r4, #8]
ARM GAS  C:\Users\pearlstl\AppData\Local\Temp\ccVzUAcm.s 			page 16


 255 0118 BDF82030 		ldrh	r3, [sp, #32]
 256 011c BDF82420 		ldrh	r2, [sp, #36]
 257 0120 BDF91C00 		ldrsh	r0, [sp, #28]
 258 0124 1FFA8EF1 		uxth	r1, lr
 259 0128 0B44     		add	r3, r3, r1
 260 012a 1BB2     		sxth	r3, r3
 261 012c 0A44     		add	r2, r2, r1
 262 012e 9842     		cmp	r0, r3
 263 0130 ADF82030 		strh	r3, [sp, #32]	@ movhi
 264 0134 ADF82420 		strh	r2, [sp, #36]	@ movhi
 265 0138 E5DA     		bge	.L14
 266 013a BDF91EC0 		ldrsh	ip, [sp, #30]
 267 013e BDF92230 		ldrsh	r3, [sp, #34]
 268 0142 B4F90A80 		ldrsh	r8, [r4, #10]
 269 0146 BDF92610 		ldrsh	r1, [sp, #38]
 270              	.L13:
 378:..\..\..\lvgl\version_6.1.2\lvgl\src\lv_objx/lv_img.c ****                 cords_tmp.x1 = coords.x1;
 271              		.loc 1 378 0
 272 014a 1FFA88F2 		uxth	r2, r8
 273 014e 1344     		add	r3, r3, r2
 274 0150 1BB2     		sxth	r3, r3
 275 0152 0A44     		add	r2, r2, r1
 276 0154 11B2     		sxth	r1, r2
 277 0156 6345     		cmp	r3, ip
 278 0158 ADF82230 		strh	r3, [sp, #34]	@ movhi
 279 015c ADF82610 		strh	r1, [sp, #38]	@ movhi
 280 0160 3FF767AF 		bgt	.L19
 281 0164 BDF91820 		ldrsh	r2, [sp, #24]
 282 0168 C3E7     		b	.L16
 283              	.LVL24:
 284              	.L32:
 285              	.LBE15:
 286              	.LBB16:
 388:..\..\..\lvgl\version_6.1.2\lvgl\src\lv_objx/lv_img.c ****             style_mod.text.color = style->image.color;
 287              		.loc 1 388 0 discriminator 2
 288 016a 3146     		mov	r1, r6
 289 016c 08A8     		add	r0, sp, #32
 290 016e FFF7FEFF 		bl	lv_style_copy
 291              	.LVL25:
 389:..\..\..\lvgl\version_6.1.2\lvgl\src\lv_objx/lv_img.c ****             lv_draw_label(&coords, mask, &style_mod, opa_scale, ext->src, LV_TXT_FLAG_NONE, NULL, N
 292              		.loc 1 389 0 discriminator 2
 293 0172 336C     		ldr	r3, [r6, #64]
 294 0174 1393     		str	r3, [sp, #76]
 390:..\..\..\lvgl\version_6.1.2\lvgl\src\lv_objx/lv_img.c ****         } else {
 295              		.loc 1 390 0 discriminator 2
 296 0176 4846     		mov	r0, r9
 297 0178 2468     		ldr	r4, [r4]
 298              	.LVL26:
 299 017a FFF7FEFF 		bl	lv_obj_get_base_dir
 300              	.LVL27:
 301 017e 0094     		str	r4, [sp]
 302 0180 0590     		str	r0, [sp, #20]
 303 0182 08AA     		add	r2, sp, #32
 304 0184 CDF81080 		str	r8, [sp, #16]
 305 0188 CDF80C80 		str	r8, [sp, #12]
 306 018c CDF80880 		str	r8, [sp, #8]
 307 0190 CDF80480 		str	r8, [sp, #4]
ARM GAS  C:\Users\pearlstl\AppData\Local\Temp\ccVzUAcm.s 			page 17


 308 0194 3B46     		mov	r3, r7
 309 0196 2946     		mov	r1, r5
 310 0198 06A8     		add	r0, sp, #24
 311 019a FFF7FEFF 		bl	lv_draw_label
 312              	.LVL28:
 313              	.LBE16:
 314 019e 48E7     		b	.L19
 315              	.LBE22:
 316              		.cfi_endproc
 317              	.LFE45:
 318              		.size	lv_img_design, .-lv_img_design
 319              		.section	.text.lv_img_set_src,"ax",%progbits
 320              		.align	2
 321              		.global	lv_img_set_src
 322              		.thumb
 323              		.thumb_func
 324              		.type	lv_img_set_src, %function
 325              	lv_img_set_src:
 326              	.LFB36:
 125:..\..\..\lvgl\version_6.1.2\lvgl\src\lv_objx/lv_img.c ****     LV_ASSERT_OBJ(img, LV_OBJX_NAME);
 327              		.loc 1 125 0
 328              		.cfi_startproc
 329              		@ args = 0, pretend = 0, frame = 8
 330              		@ frame_needed = 0, uses_anonymous_args = 0
 331              	.LVL29:
 332 0000 2DE9F043 		push	{r4, r5, r6, r7, r8, r9, lr}
 333              		.cfi_def_cfa_offset 28
 334              		.cfi_offset 4, -28
 335              		.cfi_offset 5, -24
 336              		.cfi_offset 6, -20
 337              		.cfi_offset 7, -16
 338              		.cfi_offset 8, -12
 339              		.cfi_offset 9, -8
 340              		.cfi_offset 14, -4
 341 0004 0646     		mov	r6, r0
 342 0006 87B0     		sub	sp, sp, #28
 343              		.cfi_def_cfa_offset 56
 128:..\..\..\lvgl\version_6.1.2\lvgl\src\lv_objx/lv_img.c ****     lv_img_ext_t * ext    = lv_obj_get_ext_attr(img);
 344              		.loc 1 128 0
 345 0008 0846     		mov	r0, r1
 346              	.LVL30:
 125:..\..\..\lvgl\version_6.1.2\lvgl\src\lv_objx/lv_img.c ****     LV_ASSERT_OBJ(img, LV_OBJX_NAME);
 347              		.loc 1 125 0
 348 000a 0F46     		mov	r7, r1
 128:..\..\..\lvgl\version_6.1.2\lvgl\src\lv_objx/lv_img.c ****     lv_img_ext_t * ext    = lv_obj_get_ext_attr(img);
 349              		.loc 1 128 0
 350 000c FFF7FEFF 		bl	lv_img_src_get_type
 351              	.LVL31:
 352 0010 0546     		mov	r5, r0
 353              	.LVL32:
 129:..\..\..\lvgl\version_6.1.2\lvgl\src\lv_objx/lv_img.c **** 
 354              		.loc 1 129 0
 355 0012 3046     		mov	r0, r6
 356 0014 FFF7FEFF 		bl	lv_obj_get_ext_attr
 357              	.LVL33:
 141:..\..\..\lvgl\version_6.1.2\lvgl\src\lv_objx/lv_img.c ****         LV_LOG_WARN("lv_img_set_src: unknown image type");
 358              		.loc 1 141 0
ARM GAS  C:\Users\pearlstl\AppData\Local\Temp\ccVzUAcm.s 			page 18


 359 0018 032D     		cmp	r5, #3
 129:..\..\..\lvgl\version_6.1.2\lvgl\src\lv_objx/lv_img.c **** 
 360              		.loc 1 129 0
 361 001a 0446     		mov	r4, r0
 362              	.LVL34:
 141:..\..\..\lvgl\version_6.1.2\lvgl\src\lv_objx/lv_img.c ****         LV_LOG_WARN("lv_img_set_src: unknown image type");
 363              		.loc 1 141 0
 364 001c 3ED0     		beq	.L63
 152:..\..\..\lvgl\version_6.1.2\lvgl\src\lv_objx/lv_img.c **** 
 365              		.loc 1 152 0
 366 001e 04A9     		add	r1, sp, #16
 367 0020 3846     		mov	r0, r7
 368              	.LVL35:
 369 0022 FFF7FEFF 		bl	lv_img_decoder_get_info
 370              	.LVL36:
 155:..\..\..\lvgl\version_6.1.2\lvgl\src\lv_objx/lv_img.c ****         LV_LOG_INFO("lv_img_set_src:  `LV_IMG_SRC_VARIABLE` type found");
 371              		.loc 1 155 0
 372 0026 5DBB     		cbnz	r5, .L37
 159:..\..\..\lvgl\version_6.1.2\lvgl\src\lv_objx/lv_img.c ****             lv_mem_free(ext->src);
 373              		.loc 1 159 0
 374 0028 237B     		ldrb	r3, [r4, #12]	@ zero_extendqisi2
 375 002a 03F00303 		and	r3, r3, #3
 376 002e 013B     		subs	r3, r3, #1
 377 0030 012B     		cmp	r3, #1
 378 0032 40F29980 		bls	.L64
 379              	.L38:
 380 0036 0499     		ldr	r1, [sp, #16]
 381 0038 BDF81220 		ldrh	r2, [sp, #18]
 162:..\..\..\lvgl\version_6.1.2\lvgl\src\lv_objx/lv_img.c ****     } else if(src_type == LV_IMG_SRC_FILE || src_type == LV_IMG_SRC_SYMBOL) {
 382              		.loc 1 162 0
 383 003c 2760     		str	r7, [r4]
 384 003e C1F38A21 		ubfx	r1, r1, #10, #11
 385 0042 C2F34A12 		ubfx	r2, r2, #5, #11
 386              	.L39:
 193:..\..\..\lvgl\version_6.1.2\lvgl\src\lv_objx/lv_img.c ****     ext->w        = header.w;
 387              		.loc 1 193 0
 388 0046 237B     		ldrb	r3, [r4, #12]	@ zero_extendqisi2
 196:..\..\..\lvgl\version_6.1.2\lvgl\src\lv_objx/lv_img.c **** 
 389              		.loc 1 196 0
 390 0048 9DF81000 		ldrb	r0, [sp, #16]	@ zero_extendqisi2
 194:..\..\..\lvgl\version_6.1.2\lvgl\src\lv_objx/lv_img.c ****     ext->h        = header.h;
 391              		.loc 1 194 0
 392 004c 2181     		strh	r1, [r4, #8]	@ movhi
 193:..\..\..\lvgl\version_6.1.2\lvgl\src\lv_objx/lv_img.c ****     ext->w        = header.w;
 393              		.loc 1 193 0
 394 004e 65F30103 		bfi	r3, r5, #0, #2
 196:..\..\..\lvgl\version_6.1.2\lvgl\src\lv_objx/lv_img.c **** 
 395              		.loc 1 196 0
 396 0052 60F3C703 		bfi	r3, r0, #3, #5
 397 0056 2373     		strb	r3, [r4, #12]
 398              	.LVL37:
 195:..\..\..\lvgl\version_6.1.2\lvgl\src\lv_objx/lv_img.c ****     ext->cf       = header.cf;
 399              		.loc 1 195 0
 400 0058 6281     		strh	r2, [r4, #10]	@ movhi
 401              	.LBB23:
 402              	.LBB24:
 300:..\..\..\lvgl\version_6.1.2\lvgl\src\lv_objx/lv_img.c **** 
ARM GAS  C:\Users\pearlstl\AppData\Local\Temp\ccVzUAcm.s 			page 19


 403              		.loc 1 300 0
 404 005a 3046     		mov	r0, r6
 405 005c FFF7FEFF 		bl	lv_obj_get_ext_attr
 406              	.LVL38:
 407              	.LBE24:
 408              	.LBE23:
 198:..\..\..\lvgl\version_6.1.2\lvgl\src\lv_objx/lv_img.c ****         lv_obj_set_size(img, ext->w, ext->h);
 409              		.loc 1 198 0
 410 0060 037B     		ldrb	r3, [r0, #12]	@ zero_extendqisi2
 411 0062 5B07     		lsls	r3, r3, #29
 412 0064 06D5     		bpl	.L46
 199:..\..\..\lvgl\version_6.1.2\lvgl\src\lv_objx/lv_img.c ****     }
 413              		.loc 1 199 0
 414 0066 B4F90A20 		ldrsh	r2, [r4, #10]
 415 006a B4F90810 		ldrsh	r1, [r4, #8]
 416 006e 3046     		mov	r0, r6
 417 0070 FFF7FEFF 		bl	lv_obj_set_size
 418              	.LVL39:
 419              	.L46:
 202:..\..\..\lvgl\version_6.1.2\lvgl\src\lv_objx/lv_img.c **** }
 420              		.loc 1 202 0
 421 0074 3046     		mov	r0, r6
 422 0076 FFF7FEFF 		bl	lv_obj_invalidate
 423              	.LVL40:
 424              	.L33:
 203:..\..\..\lvgl\version_6.1.2\lvgl\src\lv_objx/lv_img.c **** 
 425              		.loc 1 203 0
 426 007a 07B0     		add	sp, sp, #28
 427              		.cfi_remember_state
 428              		.cfi_def_cfa_offset 28
 429              		@ sp needed
 430 007c BDE8F083 		pop	{r4, r5, r6, r7, r8, r9, pc}
 431              	.LVL41:
 432              	.L37:
 433              		.cfi_restore_state
 163:..\..\..\lvgl\version_6.1.2\lvgl\src\lv_objx/lv_img.c ****         /* If the new and the old src are the same then it was only a refresh.*/
 434              		.loc 1 163 0
 435 0080 6B1E     		subs	r3, r5, #1
 436 0082 DBB2     		uxtb	r3, r3
 437 0084 012B     		cmp	r3, #1
 438 0086 18D9     		bls	.L65
 439              	.L41:
 183:..\..\..\lvgl\version_6.1.2\lvgl\src\lv_objx/lv_img.c ****         /*`lv_img_dsc_get_info` couldn't set the with and height of a font so set it here*/
 440              		.loc 1 183 0
 441 0088 022D     		cmp	r5, #2
 442 008a 2FD0     		beq	.L45
 443 008c 0499     		ldr	r1, [sp, #16]
 444 008e BDF81220 		ldrh	r2, [sp, #18]
 445 0092 C1F38A21 		ubfx	r1, r1, #10, #11
 446 0096 C2F34A12 		ubfx	r2, r2, #5, #11
 447 009a D4E7     		b	.L39
 448              	.LVL42:
 449              	.L63:
 143:..\..\..\lvgl\version_6.1.2\lvgl\src\lv_objx/lv_img.c ****             lv_mem_free(ext->src);
 450              		.loc 1 143 0
 451 009c 037B     		ldrb	r3, [r0, #12]	@ zero_extendqisi2
 452 009e 03F00303 		and	r3, r3, #3
ARM GAS  C:\Users\pearlstl\AppData\Local\Temp\ccVzUAcm.s 			page 20


 453 00a2 013B     		subs	r3, r3, #1
 454 00a4 012B     		cmp	r3, #1
 455 00a6 47D9     		bls	.L66
 456              	.LVL43:
 457              	.L35:
 147:..\..\..\lvgl\version_6.1.2\lvgl\src\lv_objx/lv_img.c ****         return;
 458              		.loc 1 147 0
 459 00a8 237B     		ldrb	r3, [r4, #12]	@ zero_extendqisi2
 146:..\..\..\lvgl\version_6.1.2\lvgl\src\lv_objx/lv_img.c ****         ext->src_type = LV_IMG_SRC_UNKNOWN;
 460              		.loc 1 146 0
 461 00aa 0022     		movs	r2, #0
 147:..\..\..\lvgl\version_6.1.2\lvgl\src\lv_objx/lv_img.c ****         return;
 462              		.loc 1 147 0
 463 00ac 43F00303 		orr	r3, r3, #3
 464 00b0 2373     		strb	r3, [r4, #12]
 146:..\..\..\lvgl\version_6.1.2\lvgl\src\lv_objx/lv_img.c ****         ext->src_type = LV_IMG_SRC_UNKNOWN;
 465              		.loc 1 146 0
 466 00b2 2260     		str	r2, [r4]
 203:..\..\..\lvgl\version_6.1.2\lvgl\src\lv_objx/lv_img.c **** 
 467              		.loc 1 203 0
 468 00b4 07B0     		add	sp, sp, #28
 469              		.cfi_remember_state
 470              		.cfi_def_cfa_offset 28
 471              		@ sp needed
 472 00b6 BDE8F083 		pop	{r4, r5, r6, r7, r8, r9, pc}
 473              	.LVL44:
 474              	.L65:
 475              		.cfi_restore_state
 165:..\..\..\lvgl\version_6.1.2\lvgl\src\lv_objx/lv_img.c ****             const void * old_src = NULL;
 476              		.loc 1 165 0
 477 00ba D4F80080 		ldr	r8, [r4]
 478 00be 4745     		cmp	r7, r8
 479 00c0 E2D0     		beq	.L41
 480              	.LVL45:
 481              	.LBB25:
 170:..\..\..\lvgl\version_6.1.2\lvgl\src\lv_objx/lv_img.c ****                 old_src = ext->src;
 482              		.loc 1 170 0
 483 00c2 237B     		ldrb	r3, [r4, #12]	@ zero_extendqisi2
 484 00c4 03F00303 		and	r3, r3, #3
 485 00c8 013B     		subs	r3, r3, #1
 486 00ca 012B     		cmp	r3, #1
 173:..\..\..\lvgl\version_6.1.2\lvgl\src\lv_objx/lv_img.c ****             LV_ASSERT_MEM(new_str);
 487              		.loc 1 173 0
 488 00cc 3846     		mov	r0, r7
 170:..\..\..\lvgl\version_6.1.2\lvgl\src\lv_objx/lv_img.c ****                 old_src = ext->src;
 489              		.loc 1 170 0
 490 00ce 37D9     		bls	.L67
 491              	.LVL46:
 173:..\..\..\lvgl\version_6.1.2\lvgl\src\lv_objx/lv_img.c ****             LV_ASSERT_MEM(new_str);
 492              		.loc 1 173 0
 493 00d0 FFF7FEFF 		bl	strlen
 494              	.LVL47:
 495 00d4 0130     		adds	r0, r0, #1
 496 00d6 FFF7FEFF 		bl	lv_mem_alloc
 497              	.LVL48:
 175:..\..\..\lvgl\version_6.1.2\lvgl\src\lv_objx/lv_img.c ****             strcpy(new_str, src_img);
 498              		.loc 1 175 0
ARM GAS  C:\Users\pearlstl\AppData\Local\Temp\ccVzUAcm.s 			page 21


 499 00da 8046     		mov	r8, r0
 500 00dc 0028     		cmp	r0, #0
 501 00de CCD0     		beq	.L33
 176:..\..\..\lvgl\version_6.1.2\lvgl\src\lv_objx/lv_img.c ****             ext->src = new_str;
 502              		.loc 1 176 0
 503 00e0 3946     		mov	r1, r7
 504 00e2 FFF7FEFF 		bl	strcpy
 505              	.LVL49:
 177:..\..\..\lvgl\version_6.1.2\lvgl\src\lv_objx/lv_img.c **** 
 506              		.loc 1 177 0
 507 00e6 C4F80080 		str	r8, [r4]
 508 00ea CDE7     		b	.L41
 509              	.LVL50:
 510              	.L45:
 511              	.LBE25:
 512              	.LBB26:
 513              	.LBB27:
 514              	.LBB28:
 515              		.loc 2 163 0
 516 00ec 3046     		mov	r0, r6
 517 00ee FFF7FEFF 		bl	lv_obj_get_style
 518              	.LVL51:
 519              	.LBE28:
 520              	.LBE27:
 187:..\..\..\lvgl\version_6.1.2\lvgl\src\lv_objx/lv_img.c ****                         LV_COORD_MAX, LV_TXT_FLAG_NONE);
 521              		.loc 1 187 0
 522 00f2 4FF0000E 		mov	lr, #0
 523 00f6 47F61841 		movw	r1, #31768
 524 00fa B0F93830 		ldrsh	r3, [r0, #56]
 525 00fe 426B     		ldr	r2, [r0, #52]
 526 0100 CDF808E0 		str	lr, [sp, #8]
 527 0104 0191     		str	r1, [sp, #4]
 528 0106 B0F93A10 		ldrsh	r1, [r0, #58]
 529 010a 0091     		str	r1, [sp]
 530 010c 05A8     		add	r0, sp, #20
 531 010e 3946     		mov	r1, r7
 532 0110 FFF7FEFF 		bl	lv_txt_get_size
 533              	.LVL52:
 189:..\..\..\lvgl\version_6.1.2\lvgl\src\lv_objx/lv_img.c ****         header.h = size.y;
 534              		.loc 1 189 0
 535 0114 BDF81410 		ldrh	r1, [sp, #20]
 536 0118 049B     		ldr	r3, [sp, #16]
 190:..\..\..\lvgl\version_6.1.2\lvgl\src\lv_objx/lv_img.c ****     }
 537              		.loc 1 190 0
 538 011a BDF81620 		ldrh	r2, [sp, #22]
 189:..\..\..\lvgl\version_6.1.2\lvgl\src\lv_objx/lv_img.c ****         header.h = size.y;
 539              		.loc 1 189 0
 540 011e C1F30A01 		ubfx	r1, r1, #0, #11
 541 0122 61F39423 		bfi	r3, r1, #10, #11
 190:..\..\..\lvgl\version_6.1.2\lvgl\src\lv_objx/lv_img.c ****     }
 542              		.loc 1 190 0
 543 0126 180C     		lsrs	r0, r3, #16
 544 0128 C2F30A02 		ubfx	r2, r2, #0, #11
 545 012c 62F34F10 		bfi	r0, r2, #5, #11
 189:..\..\..\lvgl\version_6.1.2\lvgl\src\lv_objx/lv_img.c ****         header.h = size.y;
 546              		.loc 1 189 0
 547 0130 0493     		str	r3, [sp, #16]
ARM GAS  C:\Users\pearlstl\AppData\Local\Temp\ccVzUAcm.s 			page 22


 190:..\..\..\lvgl\version_6.1.2\lvgl\src\lv_objx/lv_img.c ****     }
 548              		.loc 1 190 0
 549 0132 ADF81200 		strh	r0, [sp, #18]	@ movhi
 550 0136 86E7     		b	.L39
 551              	.LVL53:
 552              	.L66:
 553              	.LBE26:
 144:..\..\..\lvgl\version_6.1.2\lvgl\src\lv_objx/lv_img.c ****         }
 554              		.loc 1 144 0
 555 0138 0068     		ldr	r0, [r0]
 556              	.LVL54:
 557 013a FFF7FEFF 		bl	lv_mem_free
 558              	.LVL55:
 559 013e B3E7     		b	.L35
 560              	.LVL56:
 561              	.L67:
 562              	.LBB29:
 173:..\..\..\lvgl\version_6.1.2\lvgl\src\lv_objx/lv_img.c ****             LV_ASSERT_MEM(new_str);
 563              		.loc 1 173 0
 564 0140 FFF7FEFF 		bl	strlen
 565              	.LVL57:
 566 0144 0130     		adds	r0, r0, #1
 567 0146 FFF7FEFF 		bl	lv_mem_alloc
 568              	.LVL58:
 175:..\..\..\lvgl\version_6.1.2\lvgl\src\lv_objx/lv_img.c ****             strcpy(new_str, src_img);
 569              		.loc 1 175 0
 570 014a 8146     		mov	r9, r0
 571 014c 0028     		cmp	r0, #0
 572 014e 94D0     		beq	.L33
 176:..\..\..\lvgl\version_6.1.2\lvgl\src\lv_objx/lv_img.c ****             ext->src = new_str;
 573              		.loc 1 176 0
 574 0150 3946     		mov	r1, r7
 575 0152 FFF7FEFF 		bl	strcpy
 576              	.LVL59:
 177:..\..\..\lvgl\version_6.1.2\lvgl\src\lv_objx/lv_img.c **** 
 577              		.loc 1 177 0
 578 0156 C4F80090 		str	r9, [r4]
 179:..\..\..\lvgl\version_6.1.2\lvgl\src\lv_objx/lv_img.c ****         }
 579              		.loc 1 179 0
 580 015a B8F1000F 		cmp	r8, #0
 581 015e 93D0     		beq	.L41
 179:..\..\..\lvgl\version_6.1.2\lvgl\src\lv_objx/lv_img.c ****         }
 582              		.loc 1 179 0 is_stmt 0 discriminator 1
 583 0160 4046     		mov	r0, r8
 584 0162 FFF7FEFF 		bl	lv_mem_free
 585              	.LVL60:
 586 0166 8FE7     		b	.L41
 587              	.LVL61:
 588              	.L64:
 589              	.LBE29:
 160:..\..\..\lvgl\version_6.1.2\lvgl\src\lv_objx/lv_img.c ****         }
 590              		.loc 1 160 0 is_stmt 1
 591 0168 2068     		ldr	r0, [r4]
 592 016a FFF7FEFF 		bl	lv_mem_free
 593              	.LVL62:
 594 016e 62E7     		b	.L38
 595              		.cfi_endproc
ARM GAS  C:\Users\pearlstl\AppData\Local\Temp\ccVzUAcm.s 			page 23


 596              	.LFE36:
 597              		.size	lv_img_set_src, .-lv_img_set_src
 598              		.section	.text.lv_img_create,"ax",%progbits
 599              		.align	2
 600              		.global	lv_img_create
 601              		.thumb
 602              		.thumb_func
 603              		.type	lv_img_create, %function
 604              	lv_img_create:
 605              	.LFB35:
  59:..\..\..\lvgl\version_6.1.2\lvgl\src\lv_objx/lv_img.c ****     LV_LOG_TRACE("image create started");
 606              		.loc 1 59 0
 607              		.cfi_startproc
 608              		@ args = 0, pretend = 0, frame = 0
 609              		@ frame_needed = 0, uses_anonymous_args = 0
 610              	.LVL63:
 611 0000 2DE9F041 		push	{r4, r5, r6, r7, r8, lr}
 612              		.cfi_def_cfa_offset 24
 613              		.cfi_offset 4, -24
 614              		.cfi_offset 5, -20
 615              		.cfi_offset 6, -16
 616              		.cfi_offset 7, -12
 617              		.cfi_offset 8, -8
 618              		.cfi_offset 14, -4
  59:..\..\..\lvgl\version_6.1.2\lvgl\src\lv_objx/lv_img.c ****     LV_LOG_TRACE("image create started");
 619              		.loc 1 59 0
 620 0004 8046     		mov	r8, r0
 621 0006 0F46     		mov	r7, r1
  65:..\..\..\lvgl\version_6.1.2\lvgl\src\lv_objx/lv_img.c ****     LV_ASSERT_MEM(new_img);
 622              		.loc 1 65 0
 623 0008 FFF7FEFF 		bl	lv_obj_create
 624              	.LVL64:
  67:..\..\..\lvgl\version_6.1.2\lvgl\src\lv_objx/lv_img.c **** 
 625              		.loc 1 67 0
 626 000c 0028     		cmp	r0, #0
 627 000e 54D0     		beq	.L72
  69:..\..\..\lvgl\version_6.1.2\lvgl\src\lv_objx/lv_img.c **** 
 628              		.loc 1 69 0
 629 0010 304C     		ldr	r4, .L81
 630 0012 2368     		ldr	r3, [r4]
 631 0014 0546     		mov	r5, r0
 632 0016 002B     		cmp	r3, #0
 633 0018 4BD0     		beq	.L79
 634              	.LVL65:
 635              	.L71:
  72:..\..\..\lvgl\version_6.1.2\lvgl\src\lv_objx/lv_img.c ****     LV_ASSERT_MEM(ext);
 636              		.loc 1 72 0
 637 001a 1021     		movs	r1, #16
 638 001c 2846     		mov	r0, r5
 639 001e FFF7FEFF 		bl	lv_obj_allocate_ext_attr
 640              	.LVL66:
  74:..\..\..\lvgl\version_6.1.2\lvgl\src\lv_objx/lv_img.c **** 
 641              		.loc 1 74 0
 642 0022 0446     		mov	r4, r0
 643 0024 0028     		cmp	r0, #0
 644 0026 48D0     		beq	.L72
  77:..\..\..\lvgl\version_6.1.2\lvgl\src\lv_objx/lv_img.c ****     ext->cf        = LV_IMG_CF_UNKNOWN;
ARM GAS  C:\Users\pearlstl\AppData\Local\Temp\ccVzUAcm.s 			page 24


 645              		.loc 1 77 0
 646 0028 037B     		ldrb	r3, [r0, #12]	@ zero_extendqisi2
  76:..\..\..\lvgl\version_6.1.2\lvgl\src\lv_objx/lv_img.c ****     ext->src_type  = LV_IMG_SRC_UNKNOWN;
 647              		.loc 1 76 0
 648 002a 0026     		movs	r6, #0
  78:..\..\..\lvgl\version_6.1.2\lvgl\src\lv_objx/lv_img.c ****     ext->w         = lv_obj_get_width(new_img);
 649              		.loc 1 78 0
 650 002c 43F00303 		orr	r3, r3, #3
 651 0030 66F3C703 		bfi	r3, r6, #3, #5
 652 0034 0373     		strb	r3, [r0, #12]
  76:..\..\..\lvgl\version_6.1.2\lvgl\src\lv_objx/lv_img.c ****     ext->src_type  = LV_IMG_SRC_UNKNOWN;
 653              		.loc 1 76 0
 654 0036 0660     		str	r6, [r0]
  79:..\..\..\lvgl\version_6.1.2\lvgl\src\lv_objx/lv_img.c ****     ext->h         = lv_obj_get_height(new_img);
 655              		.loc 1 79 0
 656 0038 2846     		mov	r0, r5
 657              	.LVL67:
 658 003a FFF7FEFF 		bl	lv_obj_get_width
 659              	.LVL68:
 660 003e 2081     		strh	r0, [r4, #8]	@ movhi
  80:..\..\..\lvgl\version_6.1.2\lvgl\src\lv_objx/lv_img.c ****     ext->auto_size = 1;
 661              		.loc 1 80 0
 662 0040 2846     		mov	r0, r5
 663 0042 FFF7FEFF 		bl	lv_obj_get_height
 664              	.LVL69:
  81:..\..\..\lvgl\version_6.1.2\lvgl\src\lv_objx/lv_img.c ****     ext->offset.x  = 0;
 665              		.loc 1 81 0
 666 0046 237B     		ldrb	r3, [r4, #12]	@ zero_extendqisi2
  80:..\..\..\lvgl\version_6.1.2\lvgl\src\lv_objx/lv_img.c ****     ext->auto_size = 1;
 667              		.loc 1 80 0
 668 0048 6081     		strh	r0, [r4, #10]	@ movhi
  81:..\..\..\lvgl\version_6.1.2\lvgl\src\lv_objx/lv_img.c ****     ext->offset.x  = 0;
 669              		.loc 1 81 0
 670 004a 43F00403 		orr	r3, r3, #4
  86:..\..\..\lvgl\version_6.1.2\lvgl\src\lv_objx/lv_img.c ****     lv_obj_set_design_cb(new_img, lv_img_design);
 671              		.loc 1 86 0
 672 004e 2249     		ldr	r1, .L81+4
  82:..\..\..\lvgl\version_6.1.2\lvgl\src\lv_objx/lv_img.c ****     ext->offset.y  = 0;
 673              		.loc 1 82 0
 674 0050 A680     		strh	r6, [r4, #4]	@ movhi
  86:..\..\..\lvgl\version_6.1.2\lvgl\src\lv_objx/lv_img.c ****     lv_obj_set_design_cb(new_img, lv_img_design);
 675              		.loc 1 86 0
 676 0052 2846     		mov	r0, r5
  83:..\..\..\lvgl\version_6.1.2\lvgl\src\lv_objx/lv_img.c **** 
 677              		.loc 1 83 0
 678 0054 E680     		strh	r6, [r4, #6]	@ movhi
  81:..\..\..\lvgl\version_6.1.2\lvgl\src\lv_objx/lv_img.c ****     ext->offset.x  = 0;
 679              		.loc 1 81 0
 680 0056 2373     		strb	r3, [r4, #12]
  86:..\..\..\lvgl\version_6.1.2\lvgl\src\lv_objx/lv_img.c ****     lv_obj_set_design_cb(new_img, lv_img_design);
 681              		.loc 1 86 0
 682 0058 FFF7FEFF 		bl	lv_obj_set_signal_cb
 683              	.LVL70:
  87:..\..\..\lvgl\version_6.1.2\lvgl\src\lv_objx/lv_img.c **** 
 684              		.loc 1 87 0
 685 005c 1F49     		ldr	r1, .L81+8
 686 005e 2846     		mov	r0, r5
ARM GAS  C:\Users\pearlstl\AppData\Local\Temp\ccVzUAcm.s 			page 25


 687 0060 FFF7FEFF 		bl	lv_obj_set_design_cb
 688              	.LVL71:
  89:..\..\..\lvgl\version_6.1.2\lvgl\src\lv_objx/lv_img.c ****         lv_obj_set_click(new_img, false);
 689              		.loc 1 89 0
 690 0064 9FB1     		cbz	r7, .L80
 691              	.LBB30:
 102:..\..\..\lvgl\version_6.1.2\lvgl\src\lv_objx/lv_img.c ****         ext->auto_size          = copy_ext->auto_size;
 692              		.loc 1 102 0
 693 0066 3846     		mov	r0, r7
 694 0068 FFF7FEFF 		bl	lv_obj_get_ext_attr
 695              	.LVL72:
 103:..\..\..\lvgl\version_6.1.2\lvgl\src\lv_objx/lv_img.c ****         lv_img_set_src(new_img, copy_ext->src);
 696              		.loc 1 103 0
 697 006c 037B     		ldrb	r3, [r0, #12]	@ zero_extendqisi2
 698 006e 227B     		ldrb	r2, [r4, #12]	@ zero_extendqisi2
 699 0070 C3F38003 		ubfx	r3, r3, #2, #1
 700 0074 63F38202 		bfi	r2, r3, #2, #1
 701 0078 2273     		strb	r2, [r4, #12]
 104:..\..\..\lvgl\version_6.1.2\lvgl\src\lv_objx/lv_img.c **** 
 702              		.loc 1 104 0
 703 007a 0168     		ldr	r1, [r0]
 704 007c 2846     		mov	r0, r5
 705              	.LVL73:
 706 007e FFF7FEFF 		bl	lv_img_set_src
 707              	.LVL74:
 107:..\..\..\lvgl\version_6.1.2\lvgl\src\lv_objx/lv_img.c ****     }
 708              		.loc 1 107 0
 709 0082 2846     		mov	r0, r5
 710 0084 FFF7FEFF 		bl	lv_obj_refresh_style
 711              	.LVL75:
 712 0088 2846     		mov	r0, r5
 713              	.LBE30:
 113:..\..\..\lvgl\version_6.1.2\lvgl\src\lv_objx/lv_img.c **** 
 714              		.loc 1 113 0
 715 008a BDE8F081 		pop	{r4, r5, r6, r7, r8, pc}
 716              	.LVL76:
 717              	.L80:
  90:..\..\..\lvgl\version_6.1.2\lvgl\src\lv_objx/lv_img.c ****         /* Enable auto size for non screens
 718              		.loc 1 90 0
 719 008e 3946     		mov	r1, r7
 720 0090 2846     		mov	r0, r5
 721 0092 FFF7FEFF 		bl	lv_obj_set_click
 722              	.LVL77:
  95:..\..\..\lvgl\version_6.1.2\lvgl\src\lv_objx/lv_img.c ****             lv_obj_set_style(new_img, NULL); /*Inherit the style  by default*/
 723              		.loc 1 95 0
 724 0096 237B     		ldrb	r3, [r4, #12]	@ zero_extendqisi2
  94:..\..\..\lvgl\version_6.1.2\lvgl\src\lv_objx/lv_img.c ****             ext->auto_size = 1;
 725              		.loc 1 94 0
 726 0098 B8F1000F 		cmp	r8, #0
 727 009c 10D0     		beq	.L74
  95:..\..\..\lvgl\version_6.1.2\lvgl\src\lv_objx/lv_img.c ****             lv_obj_set_style(new_img, NULL); /*Inherit the style  by default*/
 728              		.loc 1 95 0
 729 009e 43F00403 		orr	r3, r3, #4
  96:..\..\..\lvgl\version_6.1.2\lvgl\src\lv_objx/lv_img.c ****         } else {
 730              		.loc 1 96 0
 731 00a2 2846     		mov	r0, r5
 732 00a4 3946     		mov	r1, r7
ARM GAS  C:\Users\pearlstl\AppData\Local\Temp\ccVzUAcm.s 			page 26


  95:..\..\..\lvgl\version_6.1.2\lvgl\src\lv_objx/lv_img.c ****             lv_obj_set_style(new_img, NULL); /*Inherit the style  by default*/
 733              		.loc 1 95 0
 734 00a6 2373     		strb	r3, [r4, #12]
  96:..\..\..\lvgl\version_6.1.2\lvgl\src\lv_objx/lv_img.c ****         } else {
 735              		.loc 1 96 0
 736 00a8 FFF7FEFF 		bl	lv_obj_set_style
 737              	.LVL78:
 738 00ac 2846     		mov	r0, r5
 739 00ae BDE8F081 		pop	{r4, r5, r6, r7, r8, pc}
 740              	.LVL79:
 741              	.L79:
  69:..\..\..\lvgl\version_6.1.2\lvgl\src\lv_objx/lv_img.c **** 
 742              		.loc 1 69 0 discriminator 1
 743 00b2 FFF7FEFF 		bl	lv_obj_get_signal_cb
 744              	.LVL80:
 745 00b6 2060     		str	r0, [r4]
 746 00b8 AFE7     		b	.L71
 747              	.LVL81:
 748              	.L72:
  67:..\..\..\lvgl\version_6.1.2\lvgl\src\lv_objx/lv_img.c **** 
 749              		.loc 1 67 0
 750 00ba 0020     		movs	r0, #0
 751 00bc BDE8F081 		pop	{r4, r5, r6, r7, r8, pc}
 752              	.LVL82:
 753              	.L74:
  98:..\..\..\lvgl\version_6.1.2\lvgl\src\lv_objx/lv_img.c ****             lv_obj_set_style(new_img, &lv_style_plain); /*Set a style for screens*/
 754              		.loc 1 98 0
 755 00c0 68F38203 		bfi	r3, r8, #2, #1
  99:..\..\..\lvgl\version_6.1.2\lvgl\src\lv_objx/lv_img.c ****         }
 756              		.loc 1 99 0
 757 00c4 2846     		mov	r0, r5
 758 00c6 0649     		ldr	r1, .L81+12
  98:..\..\..\lvgl\version_6.1.2\lvgl\src\lv_objx/lv_img.c ****             lv_obj_set_style(new_img, &lv_style_plain); /*Set a style for screens*/
 759              		.loc 1 98 0
 760 00c8 2373     		strb	r3, [r4, #12]
  99:..\..\..\lvgl\version_6.1.2\lvgl\src\lv_objx/lv_img.c ****         }
 761              		.loc 1 99 0
 762 00ca FFF7FEFF 		bl	lv_obj_set_style
 763              	.LVL83:
 764 00ce 2846     		mov	r0, r5
 765 00d0 BDE8F081 		pop	{r4, r5, r6, r7, r8, pc}
 766              	.LVL84:
 767              	.L82:
 768              		.align	2
 769              	.L81:
 770 00d4 00000000 		.word	.LANCHOR0
 771 00d8 00000000 		.word	lv_img_signal
 772 00dc 00000000 		.word	lv_img_design
 773 00e0 00000000 		.word	lv_style_plain
 774              		.cfi_endproc
 775              	.LFE35:
 776              		.size	lv_img_create, .-lv_img_create
 777              		.section	.text.lv_img_signal,"ax",%progbits
 778              		.align	2
 779              		.thumb
 780              		.thumb_func
 781              		.type	lv_img_signal, %function
ARM GAS  C:\Users\pearlstl\AppData\Local\Temp\ccVzUAcm.s 			page 27


 782              	lv_img_signal:
 783              	.LFB46:
 400:..\..\..\lvgl\version_6.1.2\lvgl\src\lv_objx/lv_img.c **** 
 401:..\..\..\lvgl\version_6.1.2\lvgl\src\lv_objx/lv_img.c **** /**
 402:..\..\..\lvgl\version_6.1.2\lvgl\src\lv_objx/lv_img.c ****  * Signal function of the image
 403:..\..\..\lvgl\version_6.1.2\lvgl\src\lv_objx/lv_img.c ****  * @param img pointer to an image object
 404:..\..\..\lvgl\version_6.1.2\lvgl\src\lv_objx/lv_img.c ****  * @param sign a signal type from lv_signal_t enum
 405:..\..\..\lvgl\version_6.1.2\lvgl\src\lv_objx/lv_img.c ****  * @param param pointer to a signal specific variable
 406:..\..\..\lvgl\version_6.1.2\lvgl\src\lv_objx/lv_img.c ****  * @return LV_RES_OK: the object is not deleted in the function; LV_RES_INV: the object is deleted
 407:..\..\..\lvgl\version_6.1.2\lvgl\src\lv_objx/lv_img.c ****  */
 408:..\..\..\lvgl\version_6.1.2\lvgl\src\lv_objx/lv_img.c **** static lv_res_t lv_img_signal(lv_obj_t * img, lv_signal_t sign, void * param)
 409:..\..\..\lvgl\version_6.1.2\lvgl\src\lv_objx/lv_img.c **** {
 784              		.loc 1 409 0
 785              		.cfi_startproc
 786              		@ args = 0, pretend = 0, frame = 0
 787              		@ frame_needed = 0, uses_anonymous_args = 0
 788              	.LVL85:
 789 0000 F8B5     		push	{r3, r4, r5, r6, r7, lr}
 790              		.cfi_def_cfa_offset 24
 791              		.cfi_offset 3, -24
 792              		.cfi_offset 4, -20
 793              		.cfi_offset 5, -16
 794              		.cfi_offset 6, -12
 795              		.cfi_offset 7, -8
 796              		.cfi_offset 14, -4
 410:..\..\..\lvgl\version_6.1.2\lvgl\src\lv_objx/lv_img.c ****     lv_res_t res;
 411:..\..\..\lvgl\version_6.1.2\lvgl\src\lv_objx/lv_img.c **** 
 412:..\..\..\lvgl\version_6.1.2\lvgl\src\lv_objx/lv_img.c ****     /* Include the ancient signal function */
 413:..\..\..\lvgl\version_6.1.2\lvgl\src\lv_objx/lv_img.c ****     res = ancestor_signal(img, sign, param);
 797              		.loc 1 413 0
 798 0002 194B     		ldr	r3, .L95
 799 0004 1B68     		ldr	r3, [r3]
 409:..\..\..\lvgl\version_6.1.2\lvgl\src\lv_objx/lv_img.c ****     lv_res_t res;
 800              		.loc 1 409 0
 801 0006 0646     		mov	r6, r0
 802 0008 0D46     		mov	r5, r1
 803 000a 1746     		mov	r7, r2
 804              		.loc 1 413 0
 805 000c 9847     		blx	r3
 806              	.LVL86:
 414:..\..\..\lvgl\version_6.1.2\lvgl\src\lv_objx/lv_img.c ****     if(res != LV_RES_OK) return res;
 807              		.loc 1 414 0
 808 000e 0128     		cmp	r0, #1
 413:..\..\..\lvgl\version_6.1.2\lvgl\src\lv_objx/lv_img.c ****     if(res != LV_RES_OK) return res;
 809              		.loc 1 413 0
 810 0010 0446     		mov	r4, r0
 811              	.LVL87:
 812              		.loc 1 414 0
 813 0012 01D0     		beq	.L92
 814              	.LVL88:
 815              	.L84:
 415:..\..\..\lvgl\version_6.1.2\lvgl\src\lv_objx/lv_img.c **** 
 416:..\..\..\lvgl\version_6.1.2\lvgl\src\lv_objx/lv_img.c ****     if(sign == LV_SIGNAL_GET_TYPE) return lv_obj_handle_get_type_signal(param, LV_OBJX_NAME);
 417:..\..\..\lvgl\version_6.1.2\lvgl\src\lv_objx/lv_img.c **** 
 418:..\..\..\lvgl\version_6.1.2\lvgl\src\lv_objx/lv_img.c ****     lv_img_ext_t * ext = lv_obj_get_ext_attr(img);
 419:..\..\..\lvgl\version_6.1.2\lvgl\src\lv_objx/lv_img.c ****     if(sign == LV_SIGNAL_CLEANUP) {
 420:..\..\..\lvgl\version_6.1.2\lvgl\src\lv_objx/lv_img.c ****         if(ext->src_type == LV_IMG_SRC_FILE || ext->src_type == LV_IMG_SRC_SYMBOL) {
ARM GAS  C:\Users\pearlstl\AppData\Local\Temp\ccVzUAcm.s 			page 28


 421:..\..\..\lvgl\version_6.1.2\lvgl\src\lv_objx/lv_img.c ****             lv_mem_free(ext->src);
 422:..\..\..\lvgl\version_6.1.2\lvgl\src\lv_objx/lv_img.c ****             ext->src      = NULL;
 423:..\..\..\lvgl\version_6.1.2\lvgl\src\lv_objx/lv_img.c ****             ext->src_type = LV_IMG_SRC_UNKNOWN;
 424:..\..\..\lvgl\version_6.1.2\lvgl\src\lv_objx/lv_img.c ****         }
 425:..\..\..\lvgl\version_6.1.2\lvgl\src\lv_objx/lv_img.c ****     } else if(sign == LV_SIGNAL_STYLE_CHG) {
 426:..\..\..\lvgl\version_6.1.2\lvgl\src\lv_objx/lv_img.c ****         /*Refresh the file name to refresh the symbol text size*/
 427:..\..\..\lvgl\version_6.1.2\lvgl\src\lv_objx/lv_img.c ****         if(ext->src_type == LV_IMG_SRC_SYMBOL) {
 428:..\..\..\lvgl\version_6.1.2\lvgl\src\lv_objx/lv_img.c ****             lv_img_set_src(img, ext->src);
 429:..\..\..\lvgl\version_6.1.2\lvgl\src\lv_objx/lv_img.c ****         }
 430:..\..\..\lvgl\version_6.1.2\lvgl\src\lv_objx/lv_img.c ****     }
 431:..\..\..\lvgl\version_6.1.2\lvgl\src\lv_objx/lv_img.c **** 
 432:..\..\..\lvgl\version_6.1.2\lvgl\src\lv_objx/lv_img.c ****     return res;
 433:..\..\..\lvgl\version_6.1.2\lvgl\src\lv_objx/lv_img.c **** }
 816              		.loc 1 433 0
 817 0014 2046     		mov	r0, r4
 818 0016 F8BD     		pop	{r3, r4, r5, r6, r7, pc}
 819              	.LVL89:
 820              	.L92:
 416:..\..\..\lvgl\version_6.1.2\lvgl\src\lv_objx/lv_img.c **** 
 821              		.loc 1 416 0
 822 0018 072D     		cmp	r5, #7
 823 001a 1FD0     		beq	.L93
 418:..\..\..\lvgl\version_6.1.2\lvgl\src\lv_objx/lv_img.c ****     if(sign == LV_SIGNAL_CLEANUP) {
 824              		.loc 1 418 0
 825 001c 3046     		mov	r0, r6
 826              	.LVL90:
 827 001e FFF7FEFF 		bl	lv_obj_get_ext_attr
 828              	.LVL91:
 829 0022 0746     		mov	r7, r0
 830              	.LVL92:
 419:..\..\..\lvgl\version_6.1.2\lvgl\src\lv_objx/lv_img.c ****         if(ext->src_type == LV_IMG_SRC_FILE || ext->src_type == LV_IMG_SRC_SYMBOL) {
 831              		.loc 1 419 0
 832 0024 5DB1     		cbz	r5, .L94
 425:..\..\..\lvgl\version_6.1.2\lvgl\src\lv_objx/lv_img.c ****         /*Refresh the file name to refresh the symbol text size*/
 833              		.loc 1 425 0
 834 0026 042D     		cmp	r5, #4
 835 0028 F4D1     		bne	.L84
 427:..\..\..\lvgl\version_6.1.2\lvgl\src\lv_objx/lv_img.c ****             lv_img_set_src(img, ext->src);
 836              		.loc 1 427 0
 837 002a 037B     		ldrb	r3, [r0, #12]	@ zero_extendqisi2
 838 002c 03F00303 		and	r3, r3, #3
 839 0030 022B     		cmp	r3, #2
 840 0032 EFD1     		bne	.L84
 428:..\..\..\lvgl\version_6.1.2\lvgl\src\lv_objx/lv_img.c ****         }
 841              		.loc 1 428 0
 842 0034 0168     		ldr	r1, [r0]
 843 0036 3046     		mov	r0, r6
 844              	.LVL93:
 845 0038 FFF7FEFF 		bl	lv_img_set_src
 846              	.LVL94:
 847 003c EAE7     		b	.L84
 848              	.LVL95:
 849              	.L94:
 420:..\..\..\lvgl\version_6.1.2\lvgl\src\lv_objx/lv_img.c ****             lv_mem_free(ext->src);
 850              		.loc 1 420 0
 851 003e 037B     		ldrb	r3, [r0, #12]	@ zero_extendqisi2
 852 0040 03F00303 		and	r3, r3, #3
ARM GAS  C:\Users\pearlstl\AppData\Local\Temp\ccVzUAcm.s 			page 29


 853 0044 013B     		subs	r3, r3, #1
 854 0046 012B     		cmp	r3, #1
 855 0048 E4D8     		bhi	.L84
 421:..\..\..\lvgl\version_6.1.2\lvgl\src\lv_objx/lv_img.c ****             ext->src      = NULL;
 856              		.loc 1 421 0
 857 004a 0068     		ldr	r0, [r0]
 858              	.LVL96:
 859 004c FFF7FEFF 		bl	lv_mem_free
 860              	.LVL97:
 423:..\..\..\lvgl\version_6.1.2\lvgl\src\lv_objx/lv_img.c ****         }
 861              		.loc 1 423 0
 862 0050 3B7B     		ldrb	r3, [r7, #12]	@ zero_extendqisi2
 422:..\..\..\lvgl\version_6.1.2\lvgl\src\lv_objx/lv_img.c ****             ext->src_type = LV_IMG_SRC_UNKNOWN;
 863              		.loc 1 422 0
 864 0052 3D60     		str	r5, [r7]
 423:..\..\..\lvgl\version_6.1.2\lvgl\src\lv_objx/lv_img.c ****         }
 865              		.loc 1 423 0
 866 0054 43F00303 		orr	r3, r3, #3
 867 0058 3B73     		strb	r3, [r7, #12]
 868 005a DBE7     		b	.L84
 869              	.LVL98:
 870              	.L93:
 416:..\..\..\lvgl\version_6.1.2\lvgl\src\lv_objx/lv_img.c **** 
 871              		.loc 1 416 0 discriminator 1
 872 005c 3846     		mov	r0, r7
 873              	.LVL99:
 874 005e 0349     		ldr	r1, .L95+4
 875              		.loc 1 433 0 discriminator 1
 876 0060 BDE8F840 		pop	{r3, r4, r5, r6, r7, lr}
 877              		.cfi_restore 14
 878              		.cfi_restore 7
 879              		.cfi_restore 6
 880              		.cfi_restore 5
 881              		.cfi_restore 4
 882              		.cfi_restore 3
 883              		.cfi_def_cfa_offset 0
 884              	.LVL100:
 416:..\..\..\lvgl\version_6.1.2\lvgl\src\lv_objx/lv_img.c **** 
 885              		.loc 1 416 0 discriminator 1
 886 0064 FFF7FEBF 		b	lv_obj_handle_get_type_signal
 887              	.LVL101:
 888              	.L96:
 889              		.align	2
 890              	.L95:
 891 0068 00000000 		.word	.LANCHOR0
 892 006c 00000000 		.word	.LC0
 893              		.cfi_endproc
 894              	.LFE46:
 895              		.size	lv_img_signal, .-lv_img_signal
 896              		.section	.text.lv_img_set_auto_size,"ax",%progbits
 897              		.align	2
 898              		.global	lv_img_set_auto_size
 899              		.thumb
 900              		.thumb_func
 901              		.type	lv_img_set_auto_size, %function
 902              	lv_img_set_auto_size:
 903              	.LFB37:
ARM GAS  C:\Users\pearlstl\AppData\Local\Temp\ccVzUAcm.s 			page 30


 212:..\..\..\lvgl\version_6.1.2\lvgl\src\lv_objx/lv_img.c ****     LV_ASSERT_OBJ(img, LV_OBJX_NAME);
 904              		.loc 1 212 0
 905              		.cfi_startproc
 906              		@ args = 0, pretend = 0, frame = 0
 907              		@ frame_needed = 0, uses_anonymous_args = 0
 908              	.LVL102:
 909 0000 10B5     		push	{r4, lr}
 910              		.cfi_def_cfa_offset 8
 911              		.cfi_offset 4, -8
 912              		.cfi_offset 14, -4
 212:..\..\..\lvgl\version_6.1.2\lvgl\src\lv_objx/lv_img.c ****     LV_ASSERT_OBJ(img, LV_OBJX_NAME);
 913              		.loc 1 212 0
 914 0002 0C46     		mov	r4, r1
 215:..\..\..\lvgl\version_6.1.2\lvgl\src\lv_objx/lv_img.c **** 
 915              		.loc 1 215 0
 916 0004 FFF7FEFF 		bl	lv_obj_get_ext_attr
 917              	.LVL103:
 217:..\..\..\lvgl\version_6.1.2\lvgl\src\lv_objx/lv_img.c **** }
 918              		.loc 1 217 0
 919 0008 037B     		ldrb	r3, [r0, #12]	@ zero_extendqisi2
 920 000a 64F38203 		bfi	r3, r4, #2, #1
 921 000e 0373     		strb	r3, [r0, #12]
 922 0010 10BD     		pop	{r4, pc}
 923              		.cfi_endproc
 924              	.LFE37:
 925              		.size	lv_img_set_auto_size, .-lv_img_set_auto_size
 926 0012 00BF     		.section	.text.lv_img_set_offset_x,"ax",%progbits
 927              		.align	2
 928              		.global	lv_img_set_offset_x
 929              		.thumb
 930              		.thumb_func
 931              		.type	lv_img_set_offset_x, %function
 932              	lv_img_set_offset_x:
 933              	.LFB38:
 227:..\..\..\lvgl\version_6.1.2\lvgl\src\lv_objx/lv_img.c ****     LV_ASSERT_OBJ(img, LV_OBJX_NAME);
 934              		.loc 1 227 0
 935              		.cfi_startproc
 936              		@ args = 0, pretend = 0, frame = 0
 937              		@ frame_needed = 0, uses_anonymous_args = 0
 938              	.LVL104:
 939 0000 38B5     		push	{r3, r4, r5, lr}
 940              		.cfi_def_cfa_offset 16
 941              		.cfi_offset 3, -16
 942              		.cfi_offset 4, -12
 943              		.cfi_offset 5, -8
 944              		.cfi_offset 14, -4
 227:..\..\..\lvgl\version_6.1.2\lvgl\src\lv_objx/lv_img.c ****     LV_ASSERT_OBJ(img, LV_OBJX_NAME);
 945              		.loc 1 227 0
 946 0002 0C46     		mov	r4, r1
 947 0004 0546     		mov	r5, r0
 230:..\..\..\lvgl\version_6.1.2\lvgl\src\lv_objx/lv_img.c **** 
 948              		.loc 1 230 0
 949 0006 FFF7FEFF 		bl	lv_obj_get_ext_attr
 950              	.LVL105:
 232:..\..\..\lvgl\version_6.1.2\lvgl\src\lv_objx/lv_img.c ****         ext->offset.x = x;
 951              		.loc 1 232 0
 952 000a B0F90830 		ldrsh	r3, [r0, #8]
ARM GAS  C:\Users\pearlstl\AppData\Local\Temp\ccVzUAcm.s 			page 31


 953 000e 013B     		subs	r3, r3, #1
 954 0010 9C42     		cmp	r4, r3
 955 0012 00DB     		blt	.L102
 956 0014 38BD     		pop	{r3, r4, r5, pc}
 957              	.LVL106:
 958              	.L102:
 233:..\..\..\lvgl\version_6.1.2\lvgl\src\lv_objx/lv_img.c ****         lv_obj_invalidate(img);
 959              		.loc 1 233 0
 960 0016 8480     		strh	r4, [r0, #4]	@ movhi
 234:..\..\..\lvgl\version_6.1.2\lvgl\src\lv_objx/lv_img.c ****     }
 961              		.loc 1 234 0
 962 0018 2846     		mov	r0, r5
 963              	.LVL107:
 236:..\..\..\lvgl\version_6.1.2\lvgl\src\lv_objx/lv_img.c **** 
 964              		.loc 1 236 0
 965 001a BDE83840 		pop	{r3, r4, r5, lr}
 966              		.cfi_restore 14
 967              		.cfi_restore 5
 968              		.cfi_restore 4
 969              		.cfi_restore 3
 970              		.cfi_def_cfa_offset 0
 971              	.LVL108:
 234:..\..\..\lvgl\version_6.1.2\lvgl\src\lv_objx/lv_img.c ****     }
 972              		.loc 1 234 0
 973 001e FFF7FEBF 		b	lv_obj_invalidate
 974              	.LVL109:
 975              		.cfi_endproc
 976              	.LFE38:
 977              		.size	lv_img_set_offset_x, .-lv_img_set_offset_x
 978 0022 00BF     		.section	.text.lv_img_set_offset_y,"ax",%progbits
 979              		.align	2
 980              		.global	lv_img_set_offset_y
 981              		.thumb
 982              		.thumb_func
 983              		.type	lv_img_set_offset_y, %function
 984              	lv_img_set_offset_y:
 985              	.LFB39:
 245:..\..\..\lvgl\version_6.1.2\lvgl\src\lv_objx/lv_img.c ****     LV_ASSERT_OBJ(img, LV_OBJX_NAME);
 986              		.loc 1 245 0
 987              		.cfi_startproc
 988              		@ args = 0, pretend = 0, frame = 0
 989              		@ frame_needed = 0, uses_anonymous_args = 0
 990              	.LVL110:
 991 0000 38B5     		push	{r3, r4, r5, lr}
 992              		.cfi_def_cfa_offset 16
 993              		.cfi_offset 3, -16
 994              		.cfi_offset 4, -12
 995              		.cfi_offset 5, -8
 996              		.cfi_offset 14, -4
 245:..\..\..\lvgl\version_6.1.2\lvgl\src\lv_objx/lv_img.c ****     LV_ASSERT_OBJ(img, LV_OBJX_NAME);
 997              		.loc 1 245 0
 998 0002 0C46     		mov	r4, r1
 999 0004 0546     		mov	r5, r0
 248:..\..\..\lvgl\version_6.1.2\lvgl\src\lv_objx/lv_img.c **** 
 1000              		.loc 1 248 0
 1001 0006 FFF7FEFF 		bl	lv_obj_get_ext_attr
 1002              	.LVL111:
ARM GAS  C:\Users\pearlstl\AppData\Local\Temp\ccVzUAcm.s 			page 32


 250:..\..\..\lvgl\version_6.1.2\lvgl\src\lv_objx/lv_img.c ****         ext->offset.y = y;
 1003              		.loc 1 250 0
 1004 000a B0F90A30 		ldrsh	r3, [r0, #10]
 1005 000e 013B     		subs	r3, r3, #1
 1006 0010 9C42     		cmp	r4, r3
 1007 0012 00DB     		blt	.L106
 1008 0014 38BD     		pop	{r3, r4, r5, pc}
 1009              	.LVL112:
 1010              	.L106:
 251:..\..\..\lvgl\version_6.1.2\lvgl\src\lv_objx/lv_img.c ****         lv_obj_invalidate(img);
 1011              		.loc 1 251 0
 1012 0016 C480     		strh	r4, [r0, #6]	@ movhi
 252:..\..\..\lvgl\version_6.1.2\lvgl\src\lv_objx/lv_img.c ****     }
 1013              		.loc 1 252 0
 1014 0018 2846     		mov	r0, r5
 1015              	.LVL113:
 254:..\..\..\lvgl\version_6.1.2\lvgl\src\lv_objx/lv_img.c **** 
 1016              		.loc 1 254 0
 1017 001a BDE83840 		pop	{r3, r4, r5, lr}
 1018              		.cfi_restore 14
 1019              		.cfi_restore 5
 1020              		.cfi_restore 4
 1021              		.cfi_restore 3
 1022              		.cfi_def_cfa_offset 0
 1023              	.LVL114:
 252:..\..\..\lvgl\version_6.1.2\lvgl\src\lv_objx/lv_img.c ****     }
 1024              		.loc 1 252 0
 1025 001e FFF7FEBF 		b	lv_obj_invalidate
 1026              	.LVL115:
 1027              		.cfi_endproc
 1028              	.LFE39:
 1029              		.size	lv_img_set_offset_y, .-lv_img_set_offset_y
 1030 0022 00BF     		.section	.text.lv_img_get_src,"ax",%progbits
 1031              		.align	2
 1032              		.global	lv_img_get_src
 1033              		.thumb
 1034              		.thumb_func
 1035              		.type	lv_img_get_src, %function
 1036              	lv_img_get_src:
 1037              	.LFB40:
 266:..\..\..\lvgl\version_6.1.2\lvgl\src\lv_objx/lv_img.c ****     LV_ASSERT_OBJ(img, LV_OBJX_NAME);
 1038              		.loc 1 266 0
 1039              		.cfi_startproc
 1040              		@ args = 0, pretend = 0, frame = 0
 1041              		@ frame_needed = 0, uses_anonymous_args = 0
 1042              	.LVL116:
 1043 0000 08B5     		push	{r3, lr}
 1044              		.cfi_def_cfa_offset 8
 1045              		.cfi_offset 3, -8
 1046              		.cfi_offset 14, -4
 269:..\..\..\lvgl\version_6.1.2\lvgl\src\lv_objx/lv_img.c **** 
 1047              		.loc 1 269 0
 1048 0002 FFF7FEFF 		bl	lv_obj_get_ext_attr
 1049              	.LVL117:
 272:..\..\..\lvgl\version_6.1.2\lvgl\src\lv_objx/lv_img.c **** 
 1050              		.loc 1 272 0
 1051 0006 0068     		ldr	r0, [r0]
ARM GAS  C:\Users\pearlstl\AppData\Local\Temp\ccVzUAcm.s 			page 33


 1052              	.LVL118:
 1053 0008 08BD     		pop	{r3, pc}
 1054              		.cfi_endproc
 1055              	.LFE40:
 1056              		.size	lv_img_get_src, .-lv_img_get_src
 1057 000a 00BF     		.section	.text.lv_img_get_file_name,"ax",%progbits
 1058              		.align	2
 1059              		.global	lv_img_get_file_name
 1060              		.thumb
 1061              		.thumb_func
 1062              		.type	lv_img_get_file_name, %function
 1063              	lv_img_get_file_name:
 1064              	.LFB41:
 280:..\..\..\lvgl\version_6.1.2\lvgl\src\lv_objx/lv_img.c ****     LV_ASSERT_OBJ(img, LV_OBJX_NAME);
 1065              		.loc 1 280 0
 1066              		.cfi_startproc
 1067              		@ args = 0, pretend = 0, frame = 0
 1068              		@ frame_needed = 0, uses_anonymous_args = 0
 1069              	.LVL119:
 1070 0000 08B5     		push	{r3, lr}
 1071              		.cfi_def_cfa_offset 8
 1072              		.cfi_offset 3, -8
 1073              		.cfi_offset 14, -4
 283:..\..\..\lvgl\version_6.1.2\lvgl\src\lv_objx/lv_img.c **** 
 1074              		.loc 1 283 0
 1075 0002 FFF7FEFF 		bl	lv_obj_get_ext_attr
 1076              	.LVL120:
 285:..\..\..\lvgl\version_6.1.2\lvgl\src\lv_objx/lv_img.c ****         return ext->src;
 1077              		.loc 1 285 0
 1078 0006 037B     		ldrb	r3, [r0, #12]	@ zero_extendqisi2
 1079 0008 03F00303 		and	r3, r3, #3
 1080 000c 012B     		cmp	r3, #1
 286:..\..\..\lvgl\version_6.1.2\lvgl\src\lv_objx/lv_img.c ****     else
 1081              		.loc 1 286 0
 1082 000e 0CBF     		ite	eq
 1083 0010 0068     		ldreq	r0, [r0]
 1084              	.LVL121:
 288:..\..\..\lvgl\version_6.1.2\lvgl\src\lv_objx/lv_img.c **** }
 1085              		.loc 1 288 0
 1086 0012 0148     		ldrne	r0, .L113
 289:..\..\..\lvgl\version_6.1.2\lvgl\src\lv_objx/lv_img.c **** 
 1087              		.loc 1 289 0
 1088 0014 08BD     		pop	{r3, pc}
 1089              	.L114:
 1090 0016 00BF     		.align	2
 1091              	.L113:
 1092 0018 08000000 		.word	.LC1
 1093              		.cfi_endproc
 1094              	.LFE41:
 1095              		.size	lv_img_get_file_name, .-lv_img_get_file_name
 1096              		.section	.text.lv_img_get_auto_size,"ax",%progbits
 1097              		.align	2
 1098              		.global	lv_img_get_auto_size
 1099              		.thumb
 1100              		.thumb_func
 1101              		.type	lv_img_get_auto_size, %function
 1102              	lv_img_get_auto_size:
ARM GAS  C:\Users\pearlstl\AppData\Local\Temp\ccVzUAcm.s 			page 34


 1103              	.LFB42:
 297:..\..\..\lvgl\version_6.1.2\lvgl\src\lv_objx/lv_img.c ****     LV_ASSERT_OBJ(img, LV_OBJX_NAME);
 1104              		.loc 1 297 0
 1105              		.cfi_startproc
 1106              		@ args = 0, pretend = 0, frame = 0
 1107              		@ frame_needed = 0, uses_anonymous_args = 0
 1108              	.LVL122:
 1109 0000 08B5     		push	{r3, lr}
 1110              		.cfi_def_cfa_offset 8
 1111              		.cfi_offset 3, -8
 1112              		.cfi_offset 14, -4
 300:..\..\..\lvgl\version_6.1.2\lvgl\src\lv_objx/lv_img.c **** 
 1113              		.loc 1 300 0
 1114 0002 FFF7FEFF 		bl	lv_obj_get_ext_attr
 1115              	.LVL123:
 302:..\..\..\lvgl\version_6.1.2\lvgl\src\lv_objx/lv_img.c **** }
 1116              		.loc 1 302 0
 1117 0006 007B     		ldrb	r0, [r0, #12]	@ zero_extendqisi2
 1118              	.LVL124:
 303:..\..\..\lvgl\version_6.1.2\lvgl\src\lv_objx/lv_img.c **** 
 1119              		.loc 1 303 0
 1120 0008 C0F38000 		ubfx	r0, r0, #2, #1
 1121 000c 08BD     		pop	{r3, pc}
 1122              		.cfi_endproc
 1123              	.LFE42:
 1124              		.size	lv_img_get_auto_size, .-lv_img_get_auto_size
 1125 000e 00BF     		.section	.text.lv_img_get_offset_x,"ax",%progbits
 1126              		.align	2
 1127              		.global	lv_img_get_offset_x
 1128              		.thumb
 1129              		.thumb_func
 1130              		.type	lv_img_get_offset_x, %function
 1131              	lv_img_get_offset_x:
 1132              	.LFB43:
 311:..\..\..\lvgl\version_6.1.2\lvgl\src\lv_objx/lv_img.c ****     LV_ASSERT_OBJ(img, LV_OBJX_NAME);
 1133              		.loc 1 311 0
 1134              		.cfi_startproc
 1135              		@ args = 0, pretend = 0, frame = 0
 1136              		@ frame_needed = 0, uses_anonymous_args = 0
 1137              	.LVL125:
 1138 0000 08B5     		push	{r3, lr}
 1139              		.cfi_def_cfa_offset 8
 1140              		.cfi_offset 3, -8
 1141              		.cfi_offset 14, -4
 314:..\..\..\lvgl\version_6.1.2\lvgl\src\lv_objx/lv_img.c **** 
 1142              		.loc 1 314 0
 1143 0002 FFF7FEFF 		bl	lv_obj_get_ext_attr
 1144              	.LVL126:
 317:..\..\..\lvgl\version_6.1.2\lvgl\src\lv_objx/lv_img.c **** 
 1145              		.loc 1 317 0
 1146 0006 B0F90400 		ldrsh	r0, [r0, #4]
 1147              	.LVL127:
 1148 000a 08BD     		pop	{r3, pc}
 1149              		.cfi_endproc
 1150              	.LFE43:
 1151              		.size	lv_img_get_offset_x, .-lv_img_get_offset_x
 1152              		.section	.text.lv_img_get_offset_y,"ax",%progbits
ARM GAS  C:\Users\pearlstl\AppData\Local\Temp\ccVzUAcm.s 			page 35


 1153              		.align	2
 1154              		.global	lv_img_get_offset_y
 1155              		.thumb
 1156              		.thumb_func
 1157              		.type	lv_img_get_offset_y, %function
 1158              	lv_img_get_offset_y:
 1159              	.LFB44:
 325:..\..\..\lvgl\version_6.1.2\lvgl\src\lv_objx/lv_img.c ****     LV_ASSERT_OBJ(img, LV_OBJX_NAME);
 1160              		.loc 1 325 0
 1161              		.cfi_startproc
 1162              		@ args = 0, pretend = 0, frame = 0
 1163              		@ frame_needed = 0, uses_anonymous_args = 0
 1164              	.LVL128:
 1165 0000 08B5     		push	{r3, lr}
 1166              		.cfi_def_cfa_offset 8
 1167              		.cfi_offset 3, -8
 1168              		.cfi_offset 14, -4
 328:..\..\..\lvgl\version_6.1.2\lvgl\src\lv_objx/lv_img.c **** 
 1169              		.loc 1 328 0
 1170 0002 FFF7FEFF 		bl	lv_obj_get_ext_attr
 1171              	.LVL129:
 331:..\..\..\lvgl\version_6.1.2\lvgl\src\lv_objx/lv_img.c **** 
 1172              		.loc 1 331 0
 1173 0006 B0F90600 		ldrsh	r0, [r0, #6]
 1174              	.LVL130:
 1175 000a 08BD     		pop	{r3, pc}
 1176              		.cfi_endproc
 1177              	.LFE44:
 1178              		.size	lv_img_get_offset_y, .-lv_img_get_offset_y
 1179              		.section	.rodata.str1.4,"aMS",%progbits,1
 1180              		.align	2
 1181              	.LC0:
 1182 0000 6C765F69 		.ascii	"lv_img\000"
 1182      6D6700
 1183 0007 00       		.space	1
 1184              	.LC1:
 1185 0008 00       		.ascii	"\000"
 1186              		.bss
 1187              		.align	2
 1188              		.set	.LANCHOR0,. + 0
 1189              		.type	ancestor_signal, %object
 1190              		.size	ancestor_signal, 4
 1191              	ancestor_signal:
 1192 0000 00000000 		.space	4
 1193              		.text
 1194              	.Letext0:
 1195              		.file 3 "c:\\program files (x86)\\cypress\\psoc creator\\4.2\\psoc creator\\import\\gnu\\arm\\5.4.
 1196              		.file 4 "c:\\program files (x86)\\cypress\\psoc creator\\4.2\\psoc creator\\import\\gnu\\arm\\5.4.
 1197              		.file 5 "..\\..\\..\\lvgl\\version_6.1.2\\lvgl\\src\\lv_objx\\../../../lv_conf.h"
 1198              		.file 6 "..\\..\\..\\lvgl\\version_6.1.2\\lvgl\\src\\lv_objx\\../lv_core/../lv_font/lv_font.h"
 1199              		.file 7 "..\\..\\..\\lvgl\\version_6.1.2\\lvgl\\src\\lv_objx\\../lv_core/../lv_misc/lv_color.h"
 1200              		.file 8 "..\\..\\..\\lvgl\\version_6.1.2\\lvgl\\src\\lv_objx\\../lv_core/../lv_misc/lv_area.h"
 1201              		.file 9 "..\\..\\..\\lvgl\\version_6.1.2\\lvgl\\src\\lv_objx\\../lv_core/lv_style.h"
 1202              		.file 10 "..\\..\\..\\lvgl\\version_6.1.2\\lvgl\\src\\lv_objx\\../lv_core/../lv_misc/lv_types.h"
 1203              		.file 11 "..\\..\\..\\lvgl\\version_6.1.2\\lvgl\\src\\lv_objx\\../lv_core/../lv_misc/lv_ll.h"
 1204              		.file 12 "..\\..\\..\\lvgl\\version_6.1.2\\lvgl\\src\\lv_objx\\../lv_core/../lv_misc/lv_bidi.h"
 1205              		.file 13 "..\\..\\..\\lvgl\\version_6.1.2\\lvgl\\src\\lv_objx\\../lv_core/lv_obj.h"
ARM GAS  C:\Users\pearlstl\AppData\Local\Temp\ccVzUAcm.s 			page 36


 1206              		.file 14 "..\\..\\..\\lvgl\\version_6.1.2\\lvgl\\src\\lv_objx\\../lv_misc/lv_txt.h"
 1207              		.file 15 "..\\..\\..\\lvgl\\version_6.1.2\\lvgl\\src\\lv_objx\\../lv_draw/lv_img_decoder.h"
 1208              		.file 16 "..\\..\\..\\lvgl\\version_6.1.2\\lvgl\\src\\lv_objx\\../lv_draw/lv_draw_img.h"
 1209              		.file 17 "..\\..\\..\\lvgl\\version_6.1.2\\lvgl\\src\\lv_objx\\../lv_draw/lv_draw_label.h"
 1210              		.file 18 "c:\\program files (x86)\\cypress\\psoc creator\\4.2\\psoc creator\\import\\gnu\\arm\\5.4
 1211              		.file 19 "..\\..\\..\\lvgl\\version_6.1.2\\lvgl\\src\\lv_objx\\../lv_core/../lv_misc/lv_mem.h"