ARM GAS  C:\Users\pearlstl\AppData\Local\Temp\ccuPtQ0N.s 			page 1


   1              		.syntax unified
   2              		.cpu cortex-m4
   3              		.eabi_attribute 27, 1
   4              		.fpu fpv4-sp-d16
   5              		.eabi_attribute 20, 1
   6              		.eabi_attribute 21, 1
   7              		.eabi_attribute 23, 3
   8              		.eabi_attribute 24, 1
   9              		.eabi_attribute 25, 1
  10              		.eabi_attribute 26, 1
  11              		.eabi_attribute 30, 2
  12              		.eabi_attribute 34, 1
  13              		.eabi_attribute 18, 4
  14              		.thumb
  15              		.syntax unified
  16              		.file	"lv_math.c"
  17              		.text
  18              	.Ltext0:
  19              		.cfi_sections	.debug_frame
  20              		.section	.text.lv_trigo_sin,"ax",%progbits
  21              		.align	2
  22              		.global	lv_trigo_sin
  23              		.thumb
  24              		.thumb_func
  25              		.type	lv_trigo_sin, %function
  26              	lv_trigo_sin:
  27              	.LFB0:
  28              		.file 1 "..\\..\\..\\lvgl\\version_6.1.2\\lvgl\\src\\lv_misc\\lv_math.c"
   1:..\..\..\lvgl\version_6.1.2\lvgl\src\lv_misc/lv_math.c **** /**
   2:..\..\..\lvgl\version_6.1.2\lvgl\src\lv_misc/lv_math.c ****  * @file lv_math.c
   3:..\..\..\lvgl\version_6.1.2\lvgl\src\lv_misc/lv_math.c ****  *
   4:..\..\..\lvgl\version_6.1.2\lvgl\src\lv_misc/lv_math.c ****  */
   5:..\..\..\lvgl\version_6.1.2\lvgl\src\lv_misc/lv_math.c **** 
   6:..\..\..\lvgl\version_6.1.2\lvgl\src\lv_misc/lv_math.c **** /*********************
   7:..\..\..\lvgl\version_6.1.2\lvgl\src\lv_misc/lv_math.c ****  *      INCLUDES
   8:..\..\..\lvgl\version_6.1.2\lvgl\src\lv_misc/lv_math.c ****  *********************/
   9:..\..\..\lvgl\version_6.1.2\lvgl\src\lv_misc/lv_math.c **** #include "lv_math.h"
  10:..\..\..\lvgl\version_6.1.2\lvgl\src\lv_misc/lv_math.c **** #include <stdbool.h>
  11:..\..\..\lvgl\version_6.1.2\lvgl\src\lv_misc/lv_math.c **** #include <stdlib.h>
  12:..\..\..\lvgl\version_6.1.2\lvgl\src\lv_misc/lv_math.c **** 
  13:..\..\..\lvgl\version_6.1.2\lvgl\src\lv_misc/lv_math.c **** /*********************
  14:..\..\..\lvgl\version_6.1.2\lvgl\src\lv_misc/lv_math.c ****  *      DEFINES
  15:..\..\..\lvgl\version_6.1.2\lvgl\src\lv_misc/lv_math.c ****  *********************/
  16:..\..\..\lvgl\version_6.1.2\lvgl\src\lv_misc/lv_math.c **** 
  17:..\..\..\lvgl\version_6.1.2\lvgl\src\lv_misc/lv_math.c **** /**********************
  18:..\..\..\lvgl\version_6.1.2\lvgl\src\lv_misc/lv_math.c ****  *      TYPEDEFS
  19:..\..\..\lvgl\version_6.1.2\lvgl\src\lv_misc/lv_math.c ****  **********************/
  20:..\..\..\lvgl\version_6.1.2\lvgl\src\lv_misc/lv_math.c **** 
  21:..\..\..\lvgl\version_6.1.2\lvgl\src\lv_misc/lv_math.c **** /**********************
  22:..\..\..\lvgl\version_6.1.2\lvgl\src\lv_misc/lv_math.c ****  *  STATIC PROTOTYPES
  23:..\..\..\lvgl\version_6.1.2\lvgl\src\lv_misc/lv_math.c ****  **********************/
  24:..\..\..\lvgl\version_6.1.2\lvgl\src\lv_misc/lv_math.c **** 
  25:..\..\..\lvgl\version_6.1.2\lvgl\src\lv_misc/lv_math.c **** /**********************
  26:..\..\..\lvgl\version_6.1.2\lvgl\src\lv_misc/lv_math.c ****  *  STATIC VARIABLES
  27:..\..\..\lvgl\version_6.1.2\lvgl\src\lv_misc/lv_math.c ****  **********************/
  28:..\..\..\lvgl\version_6.1.2\lvgl\src\lv_misc/lv_math.c **** static const int16_t sin0_90_table[] = {
  29:..\..\..\lvgl\version_6.1.2\lvgl\src\lv_misc/lv_math.c ****     0,     572,   1144,  1715,  2286,  2856,  3425,  3993,  4560,  5126,  5690,  6252,  6813,  7371
ARM GAS  C:\Users\pearlstl\AppData\Local\Temp\ccuPtQ0N.s 			page 2


  30:..\..\..\lvgl\version_6.1.2\lvgl\src\lv_misc/lv_math.c ****     9032,  9580,  10126, 10668, 11207, 11743, 12275, 12803, 13328, 13848, 14364, 14876, 15383, 1588
  31:..\..\..\lvgl\version_6.1.2\lvgl\src\lv_misc/lv_math.c ****     17364, 17846, 18323, 18794, 19260, 19720, 20173, 20621, 21062, 21497, 21925, 22347, 22762, 2317
  32:..\..\..\lvgl\version_6.1.2\lvgl\src\lv_misc/lv_math.c ****     24351, 24730, 25101, 25465, 25821, 26169, 26509, 26841, 27165, 27481, 27788, 28087, 28377, 2865
  33:..\..\..\lvgl\version_6.1.2\lvgl\src\lv_misc/lv_math.c ****     29451, 29697, 29934, 30162, 30381, 30591, 30791, 30982, 31163, 31335, 31498, 31650, 31794, 3192
  34:..\..\..\lvgl\version_6.1.2\lvgl\src\lv_misc/lv_math.c ****     32269, 32364, 32448, 32523, 32587, 32642, 32687, 32722, 32747, 32762, 32767};
  35:..\..\..\lvgl\version_6.1.2\lvgl\src\lv_misc/lv_math.c **** 
  36:..\..\..\lvgl\version_6.1.2\lvgl\src\lv_misc/lv_math.c **** /**********************
  37:..\..\..\lvgl\version_6.1.2\lvgl\src\lv_misc/lv_math.c ****  *      MACROS
  38:..\..\..\lvgl\version_6.1.2\lvgl\src\lv_misc/lv_math.c ****  **********************/
  39:..\..\..\lvgl\version_6.1.2\lvgl\src\lv_misc/lv_math.c **** 
  40:..\..\..\lvgl\version_6.1.2\lvgl\src\lv_misc/lv_math.c **** /**********************
  41:..\..\..\lvgl\version_6.1.2\lvgl\src\lv_misc/lv_math.c ****  *   GLOBAL FUNCTIONS
  42:..\..\..\lvgl\version_6.1.2\lvgl\src\lv_misc/lv_math.c ****  **********************/
  43:..\..\..\lvgl\version_6.1.2\lvgl\src\lv_misc/lv_math.c **** 
  44:..\..\..\lvgl\version_6.1.2\lvgl\src\lv_misc/lv_math.c **** /**
  45:..\..\..\lvgl\version_6.1.2\lvgl\src\lv_misc/lv_math.c ****  * Return with sinus of an angle
  46:..\..\..\lvgl\version_6.1.2\lvgl\src\lv_misc/lv_math.c ****  * @param angle
  47:..\..\..\lvgl\version_6.1.2\lvgl\src\lv_misc/lv_math.c ****  * @return sinus of 'angle'. sin(-90) = -32767, sin(90) = 32767
  48:..\..\..\lvgl\version_6.1.2\lvgl\src\lv_misc/lv_math.c ****  */
  49:..\..\..\lvgl\version_6.1.2\lvgl\src\lv_misc/lv_math.c **** int16_t lv_trigo_sin(int16_t angle)
  50:..\..\..\lvgl\version_6.1.2\lvgl\src\lv_misc/lv_math.c **** {
  29              		.loc 1 50 0
  30              		.cfi_startproc
  31              		@ args = 0, pretend = 0, frame = 0
  32              		@ frame_needed = 0, uses_anonymous_args = 0
  33              		@ link register save eliminated.
  34              	.LVL0:
  51:..\..\..\lvgl\version_6.1.2\lvgl\src\lv_misc/lv_math.c ****     int16_t ret = 0;
  52:..\..\..\lvgl\version_6.1.2\lvgl\src\lv_misc/lv_math.c ****     angle       = angle % 360;
  35              		.loc 1 52 0
  36 0000 184A     		ldr	r2, .L11
  37 0002 80FB0223 		smull	r2, r3, r0, r2
  38 0006 C218     		adds	r2, r0, r3
  39 0008 C317     		asrs	r3, r0, #31
  40 000a C3EB2223 		rsb	r3, r3, r2, asr #8
  41 000e 4FF4B472 		mov	r2, #360
  42 0012 02FB1300 		mls	r0, r2, r3, r0
  43              	.LVL1:
  44 0016 00B2     		sxth	r0, r0
  45              	.LVL2:
  53:..\..\..\lvgl\version_6.1.2\lvgl\src\lv_misc/lv_math.c **** 
  54:..\..\..\lvgl\version_6.1.2\lvgl\src\lv_misc/lv_math.c ****     if(angle < 0) angle = 360 + angle;
  46              		.loc 1 54 0
  47 0018 0028     		cmp	r0, #0
  48 001a BCBF     		itt	lt
  49 001c 8018     		addlt	r0, r0, r2
  50              	.LVL3:
  51 001e 00B2     		sxthlt	r0, r0
  52              	.LVL4:
  55:..\..\..\lvgl\version_6.1.2\lvgl\src\lv_misc/lv_math.c **** 
  56:..\..\..\lvgl\version_6.1.2\lvgl\src\lv_misc/lv_math.c ****     if(angle < 90) {
  53              		.loc 1 56 0
  54 0020 5928     		cmp	r0, #89
  55 0022 15DD     		ble	.L7
  57:..\..\..\lvgl\version_6.1.2\lvgl\src\lv_misc/lv_math.c ****         ret = sin0_90_table[angle];
  58:..\..\..\lvgl\version_6.1.2\lvgl\src\lv_misc/lv_math.c ****     } else if(angle >= 90 && angle < 180) {
  56              		.loc 1 58 0
ARM GAS  C:\Users\pearlstl\AppData\Local\Temp\ccuPtQ0N.s 			page 3


  57 0024 80B2     		uxth	r0, r0
  58 0026 A0F15A03 		sub	r3, r0, #90
  59 002a 592B     		cmp	r3, #89
  60 002c 0DD9     		bls	.L9
  59:..\..\..\lvgl\version_6.1.2\lvgl\src\lv_misc/lv_math.c ****         angle = 180 - angle;
  60:..\..\..\lvgl\version_6.1.2\lvgl\src\lv_misc/lv_math.c ****         ret   = sin0_90_table[angle];
  61:..\..\..\lvgl\version_6.1.2\lvgl\src\lv_misc/lv_math.c ****     } else if(angle >= 180 && angle < 270) {
  61              		.loc 1 61 0
  62 002e A0F1B403 		sub	r3, r0, #180
  63 0032 9BB2     		uxth	r3, r3
  64 0034 592B     		cmp	r3, #89
  65 0036 0FD9     		bls	.L10
  66              	.LVL5:
  62:..\..\..\lvgl\version_6.1.2\lvgl\src\lv_misc/lv_math.c ****         angle = angle - 180;
  63:..\..\..\lvgl\version_6.1.2\lvgl\src\lv_misc/lv_math.c ****         ret   = -sin0_90_table[angle];
  64:..\..\..\lvgl\version_6.1.2\lvgl\src\lv_misc/lv_math.c ****     } else { /*angle >=270*/
  65:..\..\..\lvgl\version_6.1.2\lvgl\src\lv_misc/lv_math.c ****         angle = 360 - angle;
  66:..\..\..\lvgl\version_6.1.2\lvgl\src\lv_misc/lv_math.c ****         ret   = -sin0_90_table[angle];
  67              		.loc 1 66 0
  68 0038 C0F5B470 		rsb	r0, r0, #360
  69              	.LVL6:
  70 003c 0A4B     		ldr	r3, .L11+4
  71 003e 80B2     		uxth	r0, r0
  72 0040 33F81000 		ldrh	r0, [r3, r0, lsl #1]
  73 0044 4042     		negs	r0, r0
  74 0046 00B2     		sxth	r0, r0
  75              	.LVL7:
  67:..\..\..\lvgl\version_6.1.2\lvgl\src\lv_misc/lv_math.c ****     }
  68:..\..\..\lvgl\version_6.1.2\lvgl\src\lv_misc/lv_math.c **** 
  69:..\..\..\lvgl\version_6.1.2\lvgl\src\lv_misc/lv_math.c ****     return ret;
  70:..\..\..\lvgl\version_6.1.2\lvgl\src\lv_misc/lv_math.c **** }
  76              		.loc 1 70 0
  77 0048 7047     		bx	lr
  78              	.LVL8:
  79              	.L9:
  60:..\..\..\lvgl\version_6.1.2\lvgl\src\lv_misc/lv_math.c ****     } else if(angle >= 180 && angle < 270) {
  80              		.loc 1 60 0
  81 004a C0F1B400 		rsb	r0, r0, #180
  82              	.LVL9:
  83 004e 80B2     		uxth	r0, r0
  84              	.L7:
  85 0050 054B     		ldr	r3, .L11+4
  86 0052 33F91000 		ldrsh	r0, [r3, r0, lsl #1]
  87              	.LVL10:
  88 0056 7047     		bx	lr
  89              	.LVL11:
  90              	.L10:
  63:..\..\..\lvgl\version_6.1.2\lvgl\src\lv_misc/lv_math.c ****     } else { /*angle >=270*/
  91              		.loc 1 63 0
  92 0058 034A     		ldr	r2, .L11+4
  93 005a 32F81300 		ldrh	r0, [r2, r3, lsl #1]
  94 005e 4042     		negs	r0, r0
  95 0060 00B2     		sxth	r0, r0
  96              	.LVL12:
  97 0062 7047     		bx	lr
  98              	.L12:
  99              		.align	2
ARM GAS  C:\Users\pearlstl\AppData\Local\Temp\ccuPtQ0N.s 			page 4


 100              	.L11:
 101 0064 B7600BB6 		.word	-1240768329
 102 0068 00000000 		.word	.LANCHOR0
 103              		.cfi_endproc
 104              	.LFE0:
 105              		.size	lv_trigo_sin, .-lv_trigo_sin
 106              		.section	.text.lv_bezier3,"ax",%progbits
 107              		.align	2
 108              		.global	lv_bezier3
 109              		.thumb
 110              		.thumb_func
 111              		.type	lv_bezier3, %function
 112              	lv_bezier3:
 113              	.LFB1:
  71:..\..\..\lvgl\version_6.1.2\lvgl\src\lv_misc/lv_math.c **** 
  72:..\..\..\lvgl\version_6.1.2\lvgl\src\lv_misc/lv_math.c **** /**
  73:..\..\..\lvgl\version_6.1.2\lvgl\src\lv_misc/lv_math.c ****  * Calculate a value of a Cubic Bezier function.
  74:..\..\..\lvgl\version_6.1.2\lvgl\src\lv_misc/lv_math.c ****  * @param t time in range of [0..LV_BEZIER_VAL_MAX]
  75:..\..\..\lvgl\version_6.1.2\lvgl\src\lv_misc/lv_math.c ****  * @param u0 start values in range of [0..LV_BEZIER_VAL_MAX]
  76:..\..\..\lvgl\version_6.1.2\lvgl\src\lv_misc/lv_math.c ****  * @param u1 control value 1 values in range of [0..LV_BEZIER_VAL_MAX]
  77:..\..\..\lvgl\version_6.1.2\lvgl\src\lv_misc/lv_math.c ****  * @param u2 control value 2 in range of [0..LV_BEZIER_VAL_MAX]
  78:..\..\..\lvgl\version_6.1.2\lvgl\src\lv_misc/lv_math.c ****  * @param u3 end values in range of [0..LV_BEZIER_VAL_MAX]
  79:..\..\..\lvgl\version_6.1.2\lvgl\src\lv_misc/lv_math.c ****  * @return the value calculated from the given parameters in range of [0..LV_BEZIER_VAL_MAX]
  80:..\..\..\lvgl\version_6.1.2\lvgl\src\lv_misc/lv_math.c ****  */
  81:..\..\..\lvgl\version_6.1.2\lvgl\src\lv_misc/lv_math.c **** int32_t lv_bezier3(uint32_t t, int32_t u0, int32_t u1, int32_t u2, int32_t u3)
  82:..\..\..\lvgl\version_6.1.2\lvgl\src\lv_misc/lv_math.c **** {
 114              		.loc 1 82 0
 115              		.cfi_startproc
 116              		@ args = 4, pretend = 0, frame = 0
 117              		@ frame_needed = 0, uses_anonymous_args = 0
 118              	.LVL13:
 119 0000 F0B5     		push	{r4, r5, r6, r7, lr}
 120              		.cfi_def_cfa_offset 20
 121              		.cfi_offset 4, -20
 122              		.cfi_offset 5, -16
 123              		.cfi_offset 6, -12
 124              		.cfi_offset 7, -8
 125              		.cfi_offset 14, -4
  83:..\..\..\lvgl\version_6.1.2\lvgl\src\lv_misc/lv_math.c ****     uint32_t t_rem  = 1024 - t;
  84:..\..\..\lvgl\version_6.1.2\lvgl\src\lv_misc/lv_math.c ****     uint32_t t_rem2 = (t_rem * t_rem) >> 10;
  85:..\..\..\lvgl\version_6.1.2\lvgl\src\lv_misc/lv_math.c ****     uint32_t t_rem3 = (t_rem2 * t_rem) >> 10;
  86:..\..\..\lvgl\version_6.1.2\lvgl\src\lv_misc/lv_math.c ****     uint32_t t2     = (t * t) >> 10;
  87:..\..\..\lvgl\version_6.1.2\lvgl\src\lv_misc/lv_math.c ****     uint32_t t3     = (t2 * t) >> 10;
  88:..\..\..\lvgl\version_6.1.2\lvgl\src\lv_misc/lv_math.c **** 
  89:..\..\..\lvgl\version_6.1.2\lvgl\src\lv_misc/lv_math.c ****     uint32_t v1 = ((uint32_t)t_rem3 * u0) >> 10;
  90:..\..\..\lvgl\version_6.1.2\lvgl\src\lv_misc/lv_math.c ****     uint32_t v2 = ((uint32_t)3 * t_rem2 * t * u1) >> 20;
  91:..\..\..\lvgl\version_6.1.2\lvgl\src\lv_misc/lv_math.c ****     uint32_t v3 = ((uint32_t)3 * t_rem * t2 * u2) >> 20;
  92:..\..\..\lvgl\version_6.1.2\lvgl\src\lv_misc/lv_math.c ****     uint32_t v4 = ((uint32_t)t3 * u3) >> 10;
  93:..\..\..\lvgl\version_6.1.2\lvgl\src\lv_misc/lv_math.c **** 
  94:..\..\..\lvgl\version_6.1.2\lvgl\src\lv_misc/lv_math.c ****     return v1 + v2 + v3 + v4;
 126              		.loc 1 94 0
 127 0002 03EB4303 		add	r3, r3, r3, lsl #1
 128              	.LVL14:
  83:..\..\..\lvgl\version_6.1.2\lvgl\src\lv_misc/lv_math.c ****     uint32_t t_rem  = 1024 - t;
 129              		.loc 1 83 0
 130 0006 C0F5806E 		rsb	lr, r0, #1024
 131              	.LVL15:
ARM GAS  C:\Users\pearlstl\AppData\Local\Temp\ccuPtQ0N.s 			page 5


  86:..\..\..\lvgl\version_6.1.2\lvgl\src\lv_misc/lv_math.c ****     uint32_t t3     = (t2 * t) >> 10;
 132              		.loc 1 86 0
 133 000a 00FB00F6 		mul	r6, r0, r0
  84:..\..\..\lvgl\version_6.1.2\lvgl\src\lv_misc/lv_math.c ****     uint32_t t_rem3 = (t_rem2 * t_rem) >> 10;
 134              		.loc 1 84 0
 135 000e 0EFB0EF4 		mul	r4, lr, lr
 136              		.loc 1 94 0
 137 0012 0EFB03F3 		mul	r3, lr, r3
  86:..\..\..\lvgl\version_6.1.2\lvgl\src\lv_misc/lv_math.c ****     uint32_t t3     = (t2 * t) >> 10;
 138              		.loc 1 86 0
 139 0016 B60A     		lsrs	r6, r6, #10
 140              		.loc 1 94 0
 141 0018 02EB4202 		add	r2, r2, r2, lsl #1
 142              	.LVL16:
 143 001c 00FB02F2 		mul	r2, r0, r2
 144 0020 06FB03F3 		mul	r3, r6, r3
  84:..\..\..\lvgl\version_6.1.2\lvgl\src\lv_misc/lv_math.c ****     uint32_t t_rem3 = (t_rem2 * t_rem) >> 10;
 145              		.loc 1 84 0
 146 0024 A50A     		lsrs	r5, r4, #10
 147              	.LVL17:
 148              		.loc 1 94 0
 149 0026 06FB00F6 		mul	r6, r6, r0
 150              	.LVL18:
  82:..\..\..\lvgl\version_6.1.2\lvgl\src\lv_misc/lv_math.c ****     uint32_t t_rem  = 1024 - t;
 151              		.loc 1 82 0
 152 002a 059F     		ldr	r7, [sp, #20]
 153              	.LVL19:
 154              		.loc 1 94 0
 155 002c 1C0D     		lsrs	r4, r3, #20
 156 002e B60A     		lsrs	r6, r6, #10
 157 0030 05FB02F3 		mul	r3, r5, r2
 158 0034 05FB0EF5 		mul	r5, r5, lr
 159              	.LVL20:
 160 0038 04EB1353 		add	r3, r4, r3, lsr #20
 161 003c AD0A     		lsrs	r5, r5, #10
 162              	.LVL21:
 163 003e 07FB06F6 		mul	r6, r7, r6
 164 0042 01FB05F1 		mul	r1, r1, r5
 165              	.LVL22:
 166 0046 03EB9620 		add	r0, r3, r6, lsr #10
 167              	.LVL23:
  95:..\..\..\lvgl\version_6.1.2\lvgl\src\lv_misc/lv_math.c **** }
 168              		.loc 1 95 0
 169 004a 00EB9120 		add	r0, r0, r1, lsr #10
 170 004e F0BD     		pop	{r4, r5, r6, r7, pc}
 171              		.cfi_endproc
 172              	.LFE1:
 173              		.size	lv_bezier3, .-lv_bezier3
 174              		.section	.text.lv_atan2,"ax",%progbits
 175              		.align	2
 176              		.global	lv_atan2
 177              		.thumb
 178              		.thumb_func
 179              		.type	lv_atan2, %function
 180              	lv_atan2:
 181              	.LFB2:
  96:..\..\..\lvgl\version_6.1.2\lvgl\src\lv_misc/lv_math.c **** 
ARM GAS  C:\Users\pearlstl\AppData\Local\Temp\ccuPtQ0N.s 			page 6


  97:..\..\..\lvgl\version_6.1.2\lvgl\src\lv_misc/lv_math.c **** /**
  98:..\..\..\lvgl\version_6.1.2\lvgl\src\lv_misc/lv_math.c ****  * Calculate the atan2 of a vector.
  99:..\..\..\lvgl\version_6.1.2\lvgl\src\lv_misc/lv_math.c ****  * @param x
 100:..\..\..\lvgl\version_6.1.2\lvgl\src\lv_misc/lv_math.c ****  * @param y
 101:..\..\..\lvgl\version_6.1.2\lvgl\src\lv_misc/lv_math.c ****  * @return the angle in degree calculated from the given parameters in range of [0..360]
 102:..\..\..\lvgl\version_6.1.2\lvgl\src\lv_misc/lv_math.c ****  */
 103:..\..\..\lvgl\version_6.1.2\lvgl\src\lv_misc/lv_math.c **** uint16_t lv_atan2(int x, int y)
 104:..\..\..\lvgl\version_6.1.2\lvgl\src\lv_misc/lv_math.c **** {
 182              		.loc 1 104 0
 183              		.cfi_startproc
 184              		@ args = 0, pretend = 0, frame = 0
 185              		@ frame_needed = 0, uses_anonymous_args = 0
 186              		@ link register save eliminated.
 187              	.LVL24:
 105:..\..\..\lvgl\version_6.1.2\lvgl\src\lv_misc/lv_math.c ****     // Fast XY vector to integer degree algorithm - Jan 2011 www.RomanBlack.com
 106:..\..\..\lvgl\version_6.1.2\lvgl\src\lv_misc/lv_math.c ****     // Converts any XY values including 0 to a degree value that should be
 107:..\..\..\lvgl\version_6.1.2\lvgl\src\lv_misc/lv_math.c ****     // within +/- 1 degree of the accurate value without needing
 108:..\..\..\lvgl\version_6.1.2\lvgl\src\lv_misc/lv_math.c ****     // large slow trig functions like ArcTan() or ArcCos().
 109:..\..\..\lvgl\version_6.1.2\lvgl\src\lv_misc/lv_math.c ****     // NOTE! at least one of the X or Y values must be non-zero!
 110:..\..\..\lvgl\version_6.1.2\lvgl\src\lv_misc/lv_math.c ****     // This is the full version, for all 4 quadrants and will generate
 111:..\..\..\lvgl\version_6.1.2\lvgl\src\lv_misc/lv_math.c ****     // the angle in integer degrees from 0-360.
 112:..\..\..\lvgl\version_6.1.2\lvgl\src\lv_misc/lv_math.c ****     // Any values of X and Y are usable including negative values provided
 113:..\..\..\lvgl\version_6.1.2\lvgl\src\lv_misc/lv_math.c ****     // they are between -1456 and 1456 so the 16bit multiply does not overflow.
 114:..\..\..\lvgl\version_6.1.2\lvgl\src\lv_misc/lv_math.c **** 
 115:..\..\..\lvgl\version_6.1.2\lvgl\src\lv_misc/lv_math.c ****     unsigned char negflag;
 116:..\..\..\lvgl\version_6.1.2\lvgl\src\lv_misc/lv_math.c ****     unsigned char tempdegree;
 117:..\..\..\lvgl\version_6.1.2\lvgl\src\lv_misc/lv_math.c ****     unsigned char comp;
 118:..\..\..\lvgl\version_6.1.2\lvgl\src\lv_misc/lv_math.c ****     unsigned int degree;     // this will hold the result
 119:..\..\..\lvgl\version_6.1.2\lvgl\src\lv_misc/lv_math.c ****     //signed int x;            // these hold the XY vector at the start
 120:..\..\..\lvgl\version_6.1.2\lvgl\src\lv_misc/lv_math.c ****     //signed int y;            // (and they will be destroyed)
 121:..\..\..\lvgl\version_6.1.2\lvgl\src\lv_misc/lv_math.c ****     unsigned int ux;
 122:..\..\..\lvgl\version_6.1.2\lvgl\src\lv_misc/lv_math.c ****     unsigned int uy;
 123:..\..\..\lvgl\version_6.1.2\lvgl\src\lv_misc/lv_math.c **** 
 124:..\..\..\lvgl\version_6.1.2\lvgl\src\lv_misc/lv_math.c ****     // Save the sign flags then remove signs and get XY as unsigned ints
 125:..\..\..\lvgl\version_6.1.2\lvgl\src\lv_misc/lv_math.c ****     negflag = 0;
 126:..\..\..\lvgl\version_6.1.2\lvgl\src\lv_misc/lv_math.c ****     if(x < 0) {
 188              		.loc 1 126 0
 189 0000 0028     		cmp	r0, #0
 190 0002 46DB     		blt	.L46
 191 0004 0222     		movs	r2, #2
 125:..\..\..\lvgl\version_6.1.2\lvgl\src\lv_misc/lv_math.c ****     if(x < 0) {
 192              		.loc 1 125 0
 193 0006 0023     		movs	r3, #0
 194              	.LVL25:
 195              	.L16:
 127:..\..\..\lvgl\version_6.1.2\lvgl\src\lv_misc/lv_math.c ****         negflag += 0x01;    // x flag bit
 128:..\..\..\lvgl\version_6.1.2\lvgl\src\lv_misc/lv_math.c ****         x = (0 - x);        // is now +
 129:..\..\..\lvgl\version_6.1.2\lvgl\src\lv_misc/lv_math.c ****     }
 130:..\..\..\lvgl\version_6.1.2\lvgl\src\lv_misc/lv_math.c ****     ux = x;                // copy to unsigned var before multiply
 131:..\..\..\lvgl\version_6.1.2\lvgl\src\lv_misc/lv_math.c ****     if(y < 0) {
 196              		.loc 1 131 0
 197 0008 0029     		cmp	r1, #0
 132:..\..\..\lvgl\version_6.1.2\lvgl\src\lv_misc/lv_math.c ****         negflag += 0x02;    // y flag bit
 133:..\..\..\lvgl\version_6.1.2\lvgl\src\lv_misc/lv_math.c ****         y = (0 - y);        // is now +
 198              		.loc 1 133 0
 199 000a BCBF     		itt	lt
 200 000c 4942     		rsblt	r1, r1, #0
ARM GAS  C:\Users\pearlstl\AppData\Local\Temp\ccuPtQ0N.s 			page 7


 201              	.LVL26:
 132:..\..\..\lvgl\version_6.1.2\lvgl\src\lv_misc/lv_math.c ****         negflag += 0x02;    // y flag bit
 202              		.loc 1 132 0
 203 000e 1346     		movlt	r3, r2
 204              	.LVL27:
 134:..\..\..\lvgl\version_6.1.2\lvgl\src\lv_misc/lv_math.c ****     }
 135:..\..\..\lvgl\version_6.1.2\lvgl\src\lv_misc/lv_math.c ****     uy = y;                // copy to unsigned var before multiply
 136:..\..\..\lvgl\version_6.1.2\lvgl\src\lv_misc/lv_math.c **** 
 137:..\..\..\lvgl\version_6.1.2\lvgl\src\lv_misc/lv_math.c ****     // 1. Calc the scaled "degrees"
 138:..\..\..\lvgl\version_6.1.2\lvgl\src\lv_misc/lv_math.c ****     if(ux > uy) {
 205              		.loc 1 138 0
 206 0010 8842     		cmp	r0, r1
 207 0012 15D9     		bls	.L18
 139:..\..\..\lvgl\version_6.1.2\lvgl\src\lv_misc/lv_math.c ****         degree = (uy * 45) / ux;   // degree result will be 0-45 range
 208              		.loc 1 139 0
 209 0014 01EB4101 		add	r1, r1, r1, lsl #1
 210              	.LVL28:
 211 0018 C1EB0111 		rsb	r1, r1, r1, lsl #4
 212 001c B1FBF0F0 		udiv	r0, r1, r0
 213              	.LVL29:
 140:..\..\..\lvgl\version_6.1.2\lvgl\src\lv_misc/lv_math.c ****         negflag += 0x10;    // octant flag bit
 141:..\..\..\lvgl\version_6.1.2\lvgl\src\lv_misc/lv_math.c ****     } else {
 142:..\..\..\lvgl\version_6.1.2\lvgl\src\lv_misc/lv_math.c ****         degree = (ux * 45) / uy;   // degree result will be 0-45 range
 143:..\..\..\lvgl\version_6.1.2\lvgl\src\lv_misc/lv_math.c ****     }
 144:..\..\..\lvgl\version_6.1.2\lvgl\src\lv_misc/lv_math.c **** 
 145:..\..\..\lvgl\version_6.1.2\lvgl\src\lv_misc/lv_math.c ****     // 2. Compensate for the 4 degree error curve
 146:..\..\..\lvgl\version_6.1.2\lvgl\src\lv_misc/lv_math.c ****     comp = 0;
 147:..\..\..\lvgl\version_6.1.2\lvgl\src\lv_misc/lv_math.c ****     tempdegree = degree;    // use an unsigned char for speed!
 214              		.loc 1 147 0
 215 0020 C2B2     		uxtb	r2, r0
 216              	.LVL30:
 140:..\..\..\lvgl\version_6.1.2\lvgl\src\lv_misc/lv_math.c ****         negflag += 0x10;    // octant flag bit
 217              		.loc 1 140 0
 218 0022 1033     		adds	r3, r3, #16
 219              	.LVL31:
 148:..\..\..\lvgl\version_6.1.2\lvgl\src\lv_misc/lv_math.c ****     if(tempdegree > 22) {    // if top half of range
 220              		.loc 1 148 0
 221 0024 162A     		cmp	r2, #22
 140:..\..\..\lvgl\version_6.1.2\lvgl\src\lv_misc/lv_math.c ****         negflag += 0x10;    // octant flag bit
 222              		.loc 1 140 0
 223 0026 DBB2     		uxtb	r3, r3
 224              	.LVL32:
 225              		.loc 1 148 0
 226 0028 13D9     		bls	.L20
 227              	.L47:
 149:..\..\..\lvgl\version_6.1.2\lvgl\src\lv_misc/lv_math.c ****         if(tempdegree <= 44) comp++;
 228              		.loc 1 149 0
 229 002a 2C2A     		cmp	r2, #44
 230 002c 29D8     		bhi	.L35
 231              	.LVL33:
 150:..\..\..\lvgl\version_6.1.2\lvgl\src\lv_misc/lv_math.c ****         if(tempdegree <= 41) comp++;
 232              		.loc 1 150 0
 233 002e 292A     		cmp	r2, #41
 234 0030 33D8     		bhi	.L36
 235              	.LVL34:
 151:..\..\..\lvgl\version_6.1.2\lvgl\src\lv_misc/lv_math.c ****         if(tempdegree <= 37) comp++;
 236              		.loc 1 151 0 discriminator 1
ARM GAS  C:\Users\pearlstl\AppData\Local\Temp\ccuPtQ0N.s 			page 8


 237 0032 252A     		cmp	r2, #37
 238 0034 33D8     		bhi	.L37
 239              	.LVL35:
 152:..\..\..\lvgl\version_6.1.2\lvgl\src\lv_misc/lv_math.c ****         if(tempdegree <= 32) comp++;  // max is 4 degrees compensated
 240              		.loc 1 152 0 discriminator 1
 241 0036 212A     		cmp	r2, #33
 242 0038 34BF     		ite	cc
 243 003a 0421     		movcc	r1, #4
 244 003c 0321     		movcs	r1, #3
 245 003e 12E0     		b	.L23
 246              	.LVL36:
 247              	.L18:
 142:..\..\..\lvgl\version_6.1.2\lvgl\src\lv_misc/lv_math.c ****     }
 248              		.loc 1 142 0
 249 0040 00EB4000 		add	r0, r0, r0, lsl #1
 250              	.LVL37:
 251 0044 C0EB0010 		rsb	r0, r0, r0, lsl #4
 252 0048 B0FBF1F0 		udiv	r0, r0, r1
 253              	.LVL38:
 147:..\..\..\lvgl\version_6.1.2\lvgl\src\lv_misc/lv_math.c ****     if(tempdegree > 22) {    // if top half of range
 254              		.loc 1 147 0
 255 004c C2B2     		uxtb	r2, r0
 256              	.LVL39:
 148:..\..\..\lvgl\version_6.1.2\lvgl\src\lv_misc/lv_math.c ****         if(tempdegree <= 44) comp++;
 257              		.loc 1 148 0
 258 004e 162A     		cmp	r2, #22
 259 0050 EBD8     		bhi	.L47
 260              	.LVL40:
 261              	.L20:
 153:..\..\..\lvgl\version_6.1.2\lvgl\src\lv_misc/lv_math.c ****     } else { // else is lower half of range
 154:..\..\..\lvgl\version_6.1.2\lvgl\src\lv_misc/lv_math.c ****         if(tempdegree >= 2) comp++;
 262              		.loc 1 154 0
 263 0052 012A     		cmp	r2, #1
 264 0054 15D9     		bls	.L35
 265              	.LVL41:
 155:..\..\..\lvgl\version_6.1.2\lvgl\src\lv_misc/lv_math.c ****         if(tempdegree >= 6) comp++;
 266              		.loc 1 155 0
 267 0056 052A     		cmp	r2, #5
 268 0058 1FD9     		bls	.L36
 269              	.LVL42:
 156:..\..\..\lvgl\version_6.1.2\lvgl\src\lv_misc/lv_math.c ****         if(tempdegree >= 10) comp++;
 270              		.loc 1 156 0 discriminator 1
 271 005a 092A     		cmp	r2, #9
 272 005c 1FD9     		bls	.L37
 273              	.LVL43:
 157:..\..\..\lvgl\version_6.1.2\lvgl\src\lv_misc/lv_math.c ****         if(tempdegree >= 15) comp++;  // max is 4 degrees compensated
 274              		.loc 1 157 0 discriminator 1
 275 005e 0E2A     		cmp	r2, #14
 276 0060 8CBF     		ite	hi
 277 0062 0421     		movhi	r1, #4
 278 0064 0321     		movls	r1, #3
 279              	.LVL44:
 280              	.L23:
 158:..\..\..\lvgl\version_6.1.2\lvgl\src\lv_misc/lv_math.c ****     }
 159:..\..\..\lvgl\version_6.1.2\lvgl\src\lv_misc/lv_math.c ****     degree += comp;   // degree is now accurate to +/- 1 degree!
 281              		.loc 1 159 0
 282 0066 0844     		add	r0, r0, r1
ARM GAS  C:\Users\pearlstl\AppData\Local\Temp\ccuPtQ0N.s 			page 9


 283              	.LVL45:
 160:..\..\..\lvgl\version_6.1.2\lvgl\src\lv_misc/lv_math.c **** 
 161:..\..\..\lvgl\version_6.1.2\lvgl\src\lv_misc/lv_math.c ****     // Invert degree if it was X>Y octant, makes 0-45 into 90-45
 162:..\..\..\lvgl\version_6.1.2\lvgl\src\lv_misc/lv_math.c ****     if(negflag & 0x10) degree = (90 - degree);
 284              		.loc 1 162 0
 285 0068 DA06     		lsls	r2, r3, #27
 286              	.LVL46:
 287 006a 48BF     		it	mi
 288 006c C0F15A00 		rsbmi	r0, r0, #90
 289              	.LVL47:
 163:..\..\..\lvgl\version_6.1.2\lvgl\src\lv_misc/lv_math.c **** 
 164:..\..\..\lvgl\version_6.1.2\lvgl\src\lv_misc/lv_math.c ****     // 3. Degree is now 0-90 range for this quadrant,
 165:..\..\..\lvgl\version_6.1.2\lvgl\src\lv_misc/lv_math.c ****     // need to invert it for whichever quadrant it was in
 166:..\..\..\lvgl\version_6.1.2\lvgl\src\lv_misc/lv_math.c ****     if(negflag & 0x02) { // if -Y
 290              		.loc 1 166 0
 291 0070 9907     		lsls	r1, r3, #30
 292 0072 08D5     		bpl	.L27
 167:..\..\..\lvgl\version_6.1.2\lvgl\src\lv_misc/lv_math.c ****         if(negflag & 0x01)   // if -Y -X
 293              		.loc 1 167 0
 294 0074 DA07     		lsls	r2, r3, #31
 168:..\..\..\lvgl\version_6.1.2\lvgl\src\lv_misc/lv_math.c ****             degree = (180 + degree);
 295              		.loc 1 168 0
 296 0076 4CBF     		ite	mi
 297 0078 B430     		addmi	r0, r0, #180
 298              	.LVL48:
 169:..\..\..\lvgl\version_6.1.2\lvgl\src\lv_misc/lv_math.c ****         else        // else is -Y +X
 170:..\..\..\lvgl\version_6.1.2\lvgl\src\lv_misc/lv_math.c ****             degree = (180 - degree);
 299              		.loc 1 170 0
 300 007a C0F1B400 		rsbpl	r0, r0, #180
 301              	.LVL49:
 302              	.L29:
 171:..\..\..\lvgl\version_6.1.2\lvgl\src\lv_misc/lv_math.c ****     } else { // else is +Y
 172:..\..\..\lvgl\version_6.1.2\lvgl\src\lv_misc/lv_math.c ****         if(negflag & 0x01)   // if +Y -X
 173:..\..\..\lvgl\version_6.1.2\lvgl\src\lv_misc/lv_math.c ****             degree = (360 - degree);
 174:..\..\..\lvgl\version_6.1.2\lvgl\src\lv_misc/lv_math.c ****     }
 175:..\..\..\lvgl\version_6.1.2\lvgl\src\lv_misc/lv_math.c ****     return degree;
 303              		.loc 1 175 0
 304 007e 80B2     		uxth	r0, r0
 305              	.LVL50:
 176:..\..\..\lvgl\version_6.1.2\lvgl\src\lv_misc/lv_math.c **** }
 306              		.loc 1 176 0
 307 0080 7047     		bx	lr
 308              	.LVL51:
 309              	.L35:
 310 0082 0021     		movs	r1, #0
 311 0084 EFE7     		b	.L23
 312              	.LVL52:
 313              	.L27:
 172:..\..\..\lvgl\version_6.1.2\lvgl\src\lv_misc/lv_math.c ****             degree = (360 - degree);
 314              		.loc 1 172 0
 315 0086 DB07     		lsls	r3, r3, #31
 316 0088 F9D5     		bpl	.L29
 173:..\..\..\lvgl\version_6.1.2\lvgl\src\lv_misc/lv_math.c ****     }
 317              		.loc 1 173 0
 318 008a C0F5B470 		rsb	r0, r0, #360
 319              	.LVL53:
 175:..\..\..\lvgl\version_6.1.2\lvgl\src\lv_misc/lv_math.c **** }
ARM GAS  C:\Users\pearlstl\AppData\Local\Temp\ccuPtQ0N.s 			page 10


 320              		.loc 1 175 0
 321 008e 80B2     		uxth	r0, r0
 322              	.LVL54:
 323              		.loc 1 176 0
 324 0090 7047     		bx	lr
 325              	.LVL55:
 326              	.L46:
 128:..\..\..\lvgl\version_6.1.2\lvgl\src\lv_misc/lv_math.c ****     }
 327              		.loc 1 128 0
 328 0092 4042     		negs	r0, r0
 329              	.LVL56:
 330 0094 0322     		movs	r2, #3
 127:..\..\..\lvgl\version_6.1.2\lvgl\src\lv_misc/lv_math.c ****         x = (0 - x);        // is now +
 331              		.loc 1 127 0
 332 0096 0123     		movs	r3, #1
 333 0098 B6E7     		b	.L16
 334              	.LVL57:
 335              	.L36:
 336 009a 0121     		movs	r1, #1
 337              	.LVL58:
 338 009c E3E7     		b	.L23
 339              	.LVL59:
 340              	.L37:
 341 009e 0221     		movs	r1, #2
 342              	.LVL60:
 343 00a0 E1E7     		b	.L23
 344              		.cfi_endproc
 345              	.LFE2:
 346              		.size	lv_atan2, .-lv_atan2
 347 00a2 00BF     		.section	.text.lv_sqrt,"ax",%progbits
 348              		.align	2
 349              		.global	lv_sqrt
 350              		.thumb
 351              		.thumb_func
 352              		.type	lv_sqrt, %function
 353              	lv_sqrt:
 354              	.LFB3:
 177:..\..\..\lvgl\version_6.1.2\lvgl\src\lv_misc/lv_math.c **** 
 178:..\..\..\lvgl\version_6.1.2\lvgl\src\lv_misc/lv_math.c **** /**
 179:..\..\..\lvgl\version_6.1.2\lvgl\src\lv_misc/lv_math.c ****  * Calculate the integer square root of a number.
 180:..\..\..\lvgl\version_6.1.2\lvgl\src\lv_misc/lv_math.c ****  * @param num
 181:..\..\..\lvgl\version_6.1.2\lvgl\src\lv_misc/lv_math.c ****  * @return square root of 'num'
 182:..\..\..\lvgl\version_6.1.2\lvgl\src\lv_misc/lv_math.c ****  */
 183:..\..\..\lvgl\version_6.1.2\lvgl\src\lv_misc/lv_math.c **** uint32_t lv_sqrt(uint32_t num)
 184:..\..\..\lvgl\version_6.1.2\lvgl\src\lv_misc/lv_math.c **** {
 355              		.loc 1 184 0
 356              		.cfi_startproc
 357              		@ args = 0, pretend = 0, frame = 0
 358              		@ frame_needed = 0, uses_anonymous_args = 0
 359              		@ link register save eliminated.
 360              	.LVL61:
 185:..\..\..\lvgl\version_6.1.2\lvgl\src\lv_misc/lv_math.c ****     // http://www.codecodex.com/wiki/Calculate_an_integer_square_root#C
 186:..\..\..\lvgl\version_6.1.2\lvgl\src\lv_misc/lv_math.c ****     uint32_t root  = 0;
 187:..\..\..\lvgl\version_6.1.2\lvgl\src\lv_misc/lv_math.c ****     uint32_t place = 0x40000000;
 188:..\..\..\lvgl\version_6.1.2\lvgl\src\lv_misc/lv_math.c **** 
 189:..\..\..\lvgl\version_6.1.2\lvgl\src\lv_misc/lv_math.c ****     while(place > num) place >>= 2;
 361              		.loc 1 189 0
ARM GAS  C:\Users\pearlstl\AppData\Local\Temp\ccuPtQ0N.s 			page 11


 362 0000 B0F1804F 		cmp	r0, #1073741824
 184:..\..\..\lvgl\version_6.1.2\lvgl\src\lv_misc/lv_math.c ****     // http://www.codecodex.com/wiki/Calculate_an_integer_square_root#C
 363              		.loc 1 184 0
 364 0004 10B4     		push	{r4}
 365              		.cfi_def_cfa_offset 4
 366              		.cfi_offset 4, -4
 367              		.loc 1 189 0
 368 0006 4FF08043 		mov	r3, #1073741824
 369 000a 03D2     		bcs	.L49
 370              	.LVL62:
 371              	.L50:
 372              		.loc 1 189 0 is_stmt 0 discriminator 2
 373 000c 9B08     		lsrs	r3, r3, #2
 374              	.LVL63:
 375 000e 9842     		cmp	r0, r3
 376 0010 FCD3     		bcc	.L50
 190:..\..\..\lvgl\version_6.1.2\lvgl\src\lv_misc/lv_math.c ****     while(place) {
 377              		.loc 1 190 0 is_stmt 1
 378 0012 8BB1     		cbz	r3, .L58
 379              	.LVL64:
 380              	.L49:
 187:..\..\..\lvgl\version_6.1.2\lvgl\src\lv_misc/lv_math.c **** 
 381              		.loc 1 187 0
 382 0014 0022     		movs	r2, #0
 383              	.LVL65:
 384              	.L52:
 191:..\..\..\lvgl\version_6.1.2\lvgl\src\lv_misc/lv_math.c ****         if(num >= root + place) {
 385              		.loc 1 191 0
 386 0016 D118     		adds	r1, r2, r3
 387 0018 8142     		cmp	r1, r0
 192:..\..\..\lvgl\version_6.1.2\lvgl\src\lv_misc/lv_math.c ****             num -= root + place;
 193:..\..\..\lvgl\version_6.1.2\lvgl\src\lv_misc/lv_math.c ****             root += (place << 1);
 388              		.loc 1 193 0
 389 001a 02EB4304 		add	r4, r2, r3, lsl #1
 390 001e 8CBF     		ite	hi
 391 0020 0021     		movhi	r1, #0
 392 0022 2246     		movls	r2, r4
 393              	.LVL66:
 190:..\..\..\lvgl\version_6.1.2\lvgl\src\lv_misc/lv_math.c ****         if(num >= root + place) {
 394              		.loc 1 190 0
 395 0024 9B08     		lsrs	r3, r3, #2
 396 0026 A0EB0100 		sub	r0, r0, r1
 397              	.LVL67:
 194:..\..\..\lvgl\version_6.1.2\lvgl\src\lv_misc/lv_math.c ****         }
 195:..\..\..\lvgl\version_6.1.2\lvgl\src\lv_misc/lv_math.c ****         root >>= 1;
 398              		.loc 1 195 0
 399 002a 4FEA5202 		lsr	r2, r2, #1
 400              	.LVL68:
 190:..\..\..\lvgl\version_6.1.2\lvgl\src\lv_misc/lv_math.c ****         if(num >= root + place) {
 401              		.loc 1 190 0
 402 002e F2D1     		bne	.L52
 403              	.LVL69:
 404              	.L51:
 196:..\..\..\lvgl\version_6.1.2\lvgl\src\lv_misc/lv_math.c ****         place >>= 2;
 197:..\..\..\lvgl\version_6.1.2\lvgl\src\lv_misc/lv_math.c ****     }
 198:..\..\..\lvgl\version_6.1.2\lvgl\src\lv_misc/lv_math.c ****     return root;
 199:..\..\..\lvgl\version_6.1.2\lvgl\src\lv_misc/lv_math.c **** }
ARM GAS  C:\Users\pearlstl\AppData\Local\Temp\ccuPtQ0N.s 			page 12


 405              		.loc 1 199 0
 406 0030 1046     		mov	r0, r2
 407 0032 5DF8044B 		ldr	r4, [sp], #4
 408              		.cfi_remember_state
 409              		.cfi_restore 4
 410              		.cfi_def_cfa_offset 0
 411 0036 7047     		bx	lr
 412              	.LVL70:
 413              	.L58:
 414              		.cfi_restore_state
 190:..\..\..\lvgl\version_6.1.2\lvgl\src\lv_misc/lv_math.c ****         if(num >= root + place) {
 415              		.loc 1 190 0
 416 0038 1A46     		mov	r2, r3
 417 003a F9E7     		b	.L51
 418              		.cfi_endproc
 419              	.LFE3:
 420              		.size	lv_sqrt, .-lv_sqrt
 421              		.section	.rodata
 422              		.align	2
 423              		.set	.LANCHOR0,. + 0
 424              		.type	sin0_90_table, %object
 425              		.size	sin0_90_table, 182
 426              	sin0_90_table:
 427 0000 0000     		.short	0
 428 0002 3C02     		.short	572
 429 0004 7804     		.short	1144
 430 0006 B306     		.short	1715
 431 0008 EE08     		.short	2286
 432 000a 280B     		.short	2856
 433 000c 610D     		.short	3425
 434 000e 990F     		.short	3993
 435 0010 D011     		.short	4560
 436 0012 0614     		.short	5126
 437 0014 3A16     		.short	5690
 438 0016 6C18     		.short	6252
 439 0018 9D1A     		.short	6813
 440 001a CB1C     		.short	7371
 441 001c F71E     		.short	7927
 442 001e 2121     		.short	8481
 443 0020 4823     		.short	9032
 444 0022 6C25     		.short	9580
 445 0024 8E27     		.short	10126
 446 0026 AC29     		.short	10668
 447 0028 C72B     		.short	11207
 448 002a DF2D     		.short	11743
 449 002c F32F     		.short	12275
 450 002e 0332     		.short	12803
 451 0030 1034     		.short	13328
 452 0032 1836     		.short	13848
 453 0034 1C38     		.short	14364
 454 0036 1C3A     		.short	14876
 455 0038 173C     		.short	15383
 456 003a 0E3E     		.short	15886
 457 003c FF3F     		.short	16383
 458 003e EC41     		.short	16876
 459 0040 D443     		.short	17364
 460 0042 B645     		.short	17846
ARM GAS  C:\Users\pearlstl\AppData\Local\Temp\ccuPtQ0N.s 			page 13


 461 0044 9347     		.short	18323
 462 0046 6A49     		.short	18794
 463 0048 3C4B     		.short	19260
 464 004a 084D     		.short	19720
 465 004c CD4E     		.short	20173
 466 004e 8D50     		.short	20621
 467 0050 4652     		.short	21062
 468 0052 F953     		.short	21497
 469 0054 A555     		.short	21925
 470 0056 4B57     		.short	22347
 471 0058 EA58     		.short	22762
 472 005a 825A     		.short	23170
 473 005c 135C     		.short	23571
 474 005e 9C5D     		.short	23964
 475 0060 1F5F     		.short	24351
 476 0062 9A60     		.short	24730
 477 0064 0D62     		.short	25101
 478 0066 7963     		.short	25465
 479 0068 DD64     		.short	25821
 480 006a 3966     		.short	26169
 481 006c 8D67     		.short	26509
 482 006e D968     		.short	26841
 483 0070 1D6A     		.short	27165
 484 0072 596B     		.short	27481
 485 0074 8C6C     		.short	27788
 486 0076 B76D     		.short	28087
 487 0078 D96E     		.short	28377
 488 007a F36F     		.short	28659
 489 007c 0471     		.short	28932
 490 007e 0C72     		.short	29196
 491 0080 0B73     		.short	29451
 492 0082 0174     		.short	29697
 493 0084 EE74     		.short	29934
 494 0086 D275     		.short	30162
 495 0088 AD76     		.short	30381
 496 008a 7F77     		.short	30591
 497 008c 4778     		.short	30791
 498 008e 0679     		.short	30982
 499 0090 BB79     		.short	31163
 500 0092 677A     		.short	31335
 501 0094 0A7B     		.short	31498
 502 0096 A27B     		.short	31650
 503 0098 327C     		.short	31794
 504 009a B77C     		.short	31927
 505 009c 337D     		.short	32051
 506 009e A57D     		.short	32165
 507 00a0 0D7E     		.short	32269
 508 00a2 6C7E     		.short	32364
 509 00a4 C07E     		.short	32448
 510 00a6 0B7F     		.short	32523
 511 00a8 4B7F     		.short	32587
 512 00aa 827F     		.short	32642
 513 00ac AF7F     		.short	32687
 514 00ae D27F     		.short	32722
 515 00b0 EB7F     		.short	32747
 516 00b2 FA7F     		.short	32762
 517 00b4 FF7F     		.short	32767
ARM GAS  C:\Users\pearlstl\AppData\Local\Temp\ccuPtQ0N.s 			page 14


 518              		.text
 519              	.Letext0:
 520              		.file 2 "c:\\program files (x86)\\cypress\\psoc creator\\4.2\\psoc creator\\import\\gnu\\arm\\5.4.
 521              		.file 3 "c:\\program files (x86)\\cypress\\psoc creator\\4.2\\psoc creator\\import\\gnu\\arm\\5.4.