ARM GAS  C:\Users\pearlstl\AppData\Local\Temp\ccbpFzqf.s 			page 1


   1              		.syntax unified
   2              		.cpu cortex-m4
   3              		.eabi_attribute 27, 1
   4              		.fpu fpv4-sp-d16
   5              		.eabi_attribute 20, 1
   6              		.eabi_attribute 21, 1
   7              		.eabi_attribute 23, 3
   8              		.eabi_attribute 24, 1
   9              		.eabi_attribute 25, 1
  10              		.eabi_attribute 26, 1
  11              		.eabi_attribute 30, 2
  12              		.eabi_attribute 34, 1
  13              		.eabi_attribute 18, 4
  14              		.thumb
  15              		.syntax unified
  16              		.file	"lv_printf.c"
  17              		.text
  18              	.Ltext0:
  19              		.cfi_sections	.debug_frame
  20              		.section	.text._out_buffer,"ax",%progbits
  21              		.align	2
  22              		.thumb
  23              		.thumb_func
  24              		.type	_out_buffer, %function
  25              	_out_buffer:
  26              	.LFB0:
  27              		.file 1 "..\\..\\..\\lvgl\\version_6.1.2\\lvgl\\src\\lv_misc\\lv_printf.c"
   1:..\..\..\lvgl\version_6.1.2\lvgl\src\lv_misc/lv_printf.c **** ///////////////////////////////////////////////////////////////////////////////
   2:..\..\..\lvgl\version_6.1.2\lvgl\src\lv_misc/lv_printf.c **** // \author (c) Marco Paland (info@paland.com)
   3:..\..\..\lvgl\version_6.1.2\lvgl\src\lv_misc/lv_printf.c **** //             2014-2019, PALANDesign Hannover, Germany
   4:..\..\..\lvgl\version_6.1.2\lvgl\src\lv_misc/lv_printf.c **** //
   5:..\..\..\lvgl\version_6.1.2\lvgl\src\lv_misc/lv_printf.c **** // \license The MIT License (MIT)
   6:..\..\..\lvgl\version_6.1.2\lvgl\src\lv_misc/lv_printf.c **** //
   7:..\..\..\lvgl\version_6.1.2\lvgl\src\lv_misc/lv_printf.c **** // Permission is hereby granted, free of charge, to any person obtaining a copy
   8:..\..\..\lvgl\version_6.1.2\lvgl\src\lv_misc/lv_printf.c **** // of this software and associated documentation files (the "Software"), to deal
   9:..\..\..\lvgl\version_6.1.2\lvgl\src\lv_misc/lv_printf.c **** // in the Software without restriction, including without limitation the rights
  10:..\..\..\lvgl\version_6.1.2\lvgl\src\lv_misc/lv_printf.c **** // to use, copy, modify, merge, publish, distribute, sublicense, and/or sell
  11:..\..\..\lvgl\version_6.1.2\lvgl\src\lv_misc/lv_printf.c **** // copies of the Software, and to permit persons to whom the Software is
  12:..\..\..\lvgl\version_6.1.2\lvgl\src\lv_misc/lv_printf.c **** // furnished to do so, subject to the following conditions:
  13:..\..\..\lvgl\version_6.1.2\lvgl\src\lv_misc/lv_printf.c **** //
  14:..\..\..\lvgl\version_6.1.2\lvgl\src\lv_misc/lv_printf.c **** // The above copyright notice and this permission notice shall be included in
  15:..\..\..\lvgl\version_6.1.2\lvgl\src\lv_misc/lv_printf.c **** // all copies or substantial portions of the Software.
  16:..\..\..\lvgl\version_6.1.2\lvgl\src\lv_misc/lv_printf.c **** //
  17:..\..\..\lvgl\version_6.1.2\lvgl\src\lv_misc/lv_printf.c **** // THE SOFTWARE IS PROVIDED "AS IS", WITHOUT WARRANTY OF ANY KIND, EXPRESS OR
  18:..\..\..\lvgl\version_6.1.2\lvgl\src\lv_misc/lv_printf.c **** // IMPLIED, INCLUDING BUT NOT LIMITED TO THE WARRANTIES OF MERCHANTABILITY,
  19:..\..\..\lvgl\version_6.1.2\lvgl\src\lv_misc/lv_printf.c **** // FITNESS FOR A PARTICULAR PURPOSE AND NONINFRINGEMENT. IN NO EVENT SHALL THE
  20:..\..\..\lvgl\version_6.1.2\lvgl\src\lv_misc/lv_printf.c **** // AUTHORS OR COPYRIGHT HOLDERS BE LIABLE FOR ANY CLAIM, DAMAGES OR OTHER
  21:..\..\..\lvgl\version_6.1.2\lvgl\src\lv_misc/lv_printf.c **** // LIABILITY, WHETHER IN AN ACTION OF CONTRACT, TORT OR OTHERWISE, ARISING FROM,
  22:..\..\..\lvgl\version_6.1.2\lvgl\src\lv_misc/lv_printf.c **** // OUT OF OR IN CONNECTION WITH THE SOFTWARE OR THE USE OR OTHER DEALINGS IN
  23:..\..\..\lvgl\version_6.1.2\lvgl\src\lv_misc/lv_printf.c **** // THE SOFTWARE.
  24:..\..\..\lvgl\version_6.1.2\lvgl\src\lv_misc/lv_printf.c **** //
  25:..\..\..\lvgl\version_6.1.2\lvgl\src\lv_misc/lv_printf.c **** // \brief Tiny printf, sprintf and (v)snprintf implementation, optimized for speed on
  26:..\..\..\lvgl\version_6.1.2\lvgl\src\lv_misc/lv_printf.c **** //        embedded systems with a very limited resources. These routines are thread
  27:..\..\..\lvgl\version_6.1.2\lvgl\src\lv_misc/lv_printf.c **** //        safe and reentrant!
  28:..\..\..\lvgl\version_6.1.2\lvgl\src\lv_misc/lv_printf.c **** //        Use this instead of the bloated standard/newlib printf cause these use
  29:..\..\..\lvgl\version_6.1.2\lvgl\src\lv_misc/lv_printf.c **** //        malloc for printf (and may not be thread safe).
  30:..\..\..\lvgl\version_6.1.2\lvgl\src\lv_misc/lv_printf.c **** //
ARM GAS  C:\Users\pearlstl\AppData\Local\Temp\ccbpFzqf.s 			page 2


  31:..\..\..\lvgl\version_6.1.2\lvgl\src\lv_misc/lv_printf.c **** ///////////////////////////////////////////////////////////////////////////////
  32:..\..\..\lvgl\version_6.1.2\lvgl\src\lv_misc/lv_printf.c **** 
  33:..\..\..\lvgl\version_6.1.2\lvgl\src\lv_misc/lv_printf.c **** #include "lv_printf.h"
  34:..\..\..\lvgl\version_6.1.2\lvgl\src\lv_misc/lv_printf.c **** 
  35:..\..\..\lvgl\version_6.1.2\lvgl\src\lv_misc/lv_printf.c **** #if LV_SPRINTF_CUSTOM == 0
  36:..\..\..\lvgl\version_6.1.2\lvgl\src\lv_misc/lv_printf.c **** 
  37:..\..\..\lvgl\version_6.1.2\lvgl\src\lv_misc/lv_printf.c **** #include <stdbool.h>
  38:..\..\..\lvgl\version_6.1.2\lvgl\src\lv_misc/lv_printf.c **** #include <stdint.h>
  39:..\..\..\lvgl\version_6.1.2\lvgl\src\lv_misc/lv_printf.c **** 
  40:..\..\..\lvgl\version_6.1.2\lvgl\src\lv_misc/lv_printf.c **** 
  41:..\..\..\lvgl\version_6.1.2\lvgl\src\lv_misc/lv_printf.c **** // 'ntoa' conversion buffer size, this must be big enough to hold one converted
  42:..\..\..\lvgl\version_6.1.2\lvgl\src\lv_misc/lv_printf.c **** // numeric number including padded zeros (dynamically created on stack)
  43:..\..\..\lvgl\version_6.1.2\lvgl\src\lv_misc/lv_printf.c **** // default: 32 byte
  44:..\..\..\lvgl\version_6.1.2\lvgl\src\lv_misc/lv_printf.c **** #ifndef PRINTF_NTOA_BUFFER_SIZE
  45:..\..\..\lvgl\version_6.1.2\lvgl\src\lv_misc/lv_printf.c **** #define PRINTF_NTOA_BUFFER_SIZE    32U
  46:..\..\..\lvgl\version_6.1.2\lvgl\src\lv_misc/lv_printf.c **** #endif
  47:..\..\..\lvgl\version_6.1.2\lvgl\src\lv_misc/lv_printf.c **** 
  48:..\..\..\lvgl\version_6.1.2\lvgl\src\lv_misc/lv_printf.c **** // 'ftoa' conversion buffer size, this must be big enough to hold one converted
  49:..\..\..\lvgl\version_6.1.2\lvgl\src\lv_misc/lv_printf.c **** // float number including padded zeros (dynamically created on stack)
  50:..\..\..\lvgl\version_6.1.2\lvgl\src\lv_misc/lv_printf.c **** // default: 32 byte
  51:..\..\..\lvgl\version_6.1.2\lvgl\src\lv_misc/lv_printf.c **** #ifndef PRINTF_FTOA_BUFFER_SIZE
  52:..\..\..\lvgl\version_6.1.2\lvgl\src\lv_misc/lv_printf.c **** #define PRINTF_FTOA_BUFFER_SIZE    32U
  53:..\..\..\lvgl\version_6.1.2\lvgl\src\lv_misc/lv_printf.c **** #endif
  54:..\..\..\lvgl\version_6.1.2\lvgl\src\lv_misc/lv_printf.c **** 
  55:..\..\..\lvgl\version_6.1.2\lvgl\src\lv_misc/lv_printf.c **** // support for the floating point type (%f)
  56:..\..\..\lvgl\version_6.1.2\lvgl\src\lv_misc/lv_printf.c **** // default: activated
  57:..\..\..\lvgl\version_6.1.2\lvgl\src\lv_misc/lv_printf.c **** #ifndef PRINTF_DISABLE_SUPPORT_FLOAT
  58:..\..\..\lvgl\version_6.1.2\lvgl\src\lv_misc/lv_printf.c **** #define PRINTF_SUPPORT_FLOAT
  59:..\..\..\lvgl\version_6.1.2\lvgl\src\lv_misc/lv_printf.c **** #endif
  60:..\..\..\lvgl\version_6.1.2\lvgl\src\lv_misc/lv_printf.c **** 
  61:..\..\..\lvgl\version_6.1.2\lvgl\src\lv_misc/lv_printf.c **** // support for exponential floating point notation (%e/%g)
  62:..\..\..\lvgl\version_6.1.2\lvgl\src\lv_misc/lv_printf.c **** // default: activated
  63:..\..\..\lvgl\version_6.1.2\lvgl\src\lv_misc/lv_printf.c **** #ifndef PRINTF_DISABLE_SUPPORT_EXPONENTIAL
  64:..\..\..\lvgl\version_6.1.2\lvgl\src\lv_misc/lv_printf.c **** #define PRINTF_SUPPORT_EXPONENTIAL
  65:..\..\..\lvgl\version_6.1.2\lvgl\src\lv_misc/lv_printf.c **** #endif
  66:..\..\..\lvgl\version_6.1.2\lvgl\src\lv_misc/lv_printf.c **** 
  67:..\..\..\lvgl\version_6.1.2\lvgl\src\lv_misc/lv_printf.c **** // define the default floating point precision
  68:..\..\..\lvgl\version_6.1.2\lvgl\src\lv_misc/lv_printf.c **** // default: 6 digits
  69:..\..\..\lvgl\version_6.1.2\lvgl\src\lv_misc/lv_printf.c **** #ifndef PRINTF_DEFAULT_FLOAT_PRECISION
  70:..\..\..\lvgl\version_6.1.2\lvgl\src\lv_misc/lv_printf.c **** #define PRINTF_DEFAULT_FLOAT_PRECISION  6U
  71:..\..\..\lvgl\version_6.1.2\lvgl\src\lv_misc/lv_printf.c **** #endif
  72:..\..\..\lvgl\version_6.1.2\lvgl\src\lv_misc/lv_printf.c **** 
  73:..\..\..\lvgl\version_6.1.2\lvgl\src\lv_misc/lv_printf.c **** // define the largest float suitable to print with %f
  74:..\..\..\lvgl\version_6.1.2\lvgl\src\lv_misc/lv_printf.c **** // default: 1e9
  75:..\..\..\lvgl\version_6.1.2\lvgl\src\lv_misc/lv_printf.c **** #ifndef PRINTF_MAX_FLOAT
  76:..\..\..\lvgl\version_6.1.2\lvgl\src\lv_misc/lv_printf.c **** #define PRINTF_MAX_FLOAT  1e9
  77:..\..\..\lvgl\version_6.1.2\lvgl\src\lv_misc/lv_printf.c **** #endif
  78:..\..\..\lvgl\version_6.1.2\lvgl\src\lv_misc/lv_printf.c **** 
  79:..\..\..\lvgl\version_6.1.2\lvgl\src\lv_misc/lv_printf.c **** // support for the long long types (%llu or %p)
  80:..\..\..\lvgl\version_6.1.2\lvgl\src\lv_misc/lv_printf.c **** // default: activated
  81:..\..\..\lvgl\version_6.1.2\lvgl\src\lv_misc/lv_printf.c **** #ifndef PRINTF_DISABLE_SUPPORT_LONG_LONG
  82:..\..\..\lvgl\version_6.1.2\lvgl\src\lv_misc/lv_printf.c **** #define PRINTF_SUPPORT_LONG_LONG
  83:..\..\..\lvgl\version_6.1.2\lvgl\src\lv_misc/lv_printf.c **** #endif
  84:..\..\..\lvgl\version_6.1.2\lvgl\src\lv_misc/lv_printf.c **** 
  85:..\..\..\lvgl\version_6.1.2\lvgl\src\lv_misc/lv_printf.c **** // support for the ptrdiff_t type (%t)
  86:..\..\..\lvgl\version_6.1.2\lvgl\src\lv_misc/lv_printf.c **** // ptrdiff_t is normally defined in <stddef.h> as long or long long type
  87:..\..\..\lvgl\version_6.1.2\lvgl\src\lv_misc/lv_printf.c **** // default: activated
ARM GAS  C:\Users\pearlstl\AppData\Local\Temp\ccbpFzqf.s 			page 3


  88:..\..\..\lvgl\version_6.1.2\lvgl\src\lv_misc/lv_printf.c **** #ifndef PRINTF_DISABLE_SUPPORT_PTRDIFF_T
  89:..\..\..\lvgl\version_6.1.2\lvgl\src\lv_misc/lv_printf.c **** #define PRINTF_SUPPORT_PTRDIFF_T
  90:..\..\..\lvgl\version_6.1.2\lvgl\src\lv_misc/lv_printf.c **** #endif
  91:..\..\..\lvgl\version_6.1.2\lvgl\src\lv_misc/lv_printf.c **** 
  92:..\..\..\lvgl\version_6.1.2\lvgl\src\lv_misc/lv_printf.c **** ///////////////////////////////////////////////////////////////////////////////
  93:..\..\..\lvgl\version_6.1.2\lvgl\src\lv_misc/lv_printf.c **** 
  94:..\..\..\lvgl\version_6.1.2\lvgl\src\lv_misc/lv_printf.c **** // internal flag definitions
  95:..\..\..\lvgl\version_6.1.2\lvgl\src\lv_misc/lv_printf.c **** #define FLAGS_ZEROPAD   (1U <<  0U)
  96:..\..\..\lvgl\version_6.1.2\lvgl\src\lv_misc/lv_printf.c **** #define FLAGS_LEFT      (1U <<  1U)
  97:..\..\..\lvgl\version_6.1.2\lvgl\src\lv_misc/lv_printf.c **** #define FLAGS_PLUS      (1U <<  2U)
  98:..\..\..\lvgl\version_6.1.2\lvgl\src\lv_misc/lv_printf.c **** #define FLAGS_SPACE     (1U <<  3U)
  99:..\..\..\lvgl\version_6.1.2\lvgl\src\lv_misc/lv_printf.c **** #define FLAGS_HASH      (1U <<  4U)
 100:..\..\..\lvgl\version_6.1.2\lvgl\src\lv_misc/lv_printf.c **** #define FLAGS_UPPERCASE (1U <<  5U)
 101:..\..\..\lvgl\version_6.1.2\lvgl\src\lv_misc/lv_printf.c **** #define FLAGS_CHAR      (1U <<  6U)
 102:..\..\..\lvgl\version_6.1.2\lvgl\src\lv_misc/lv_printf.c **** #define FLAGS_SHORT     (1U <<  7U)
 103:..\..\..\lvgl\version_6.1.2\lvgl\src\lv_misc/lv_printf.c **** #define FLAGS_LONG      (1U <<  8U)
 104:..\..\..\lvgl\version_6.1.2\lvgl\src\lv_misc/lv_printf.c **** #define FLAGS_LONG_LONG (1U <<  9U)
 105:..\..\..\lvgl\version_6.1.2\lvgl\src\lv_misc/lv_printf.c **** #define FLAGS_PRECISION (1U << 10U)
 106:..\..\..\lvgl\version_6.1.2\lvgl\src\lv_misc/lv_printf.c **** #define FLAGS_ADAPT_EXP (1U << 11U)
 107:..\..\..\lvgl\version_6.1.2\lvgl\src\lv_misc/lv_printf.c **** 
 108:..\..\..\lvgl\version_6.1.2\lvgl\src\lv_misc/lv_printf.c **** 
 109:..\..\..\lvgl\version_6.1.2\lvgl\src\lv_misc/lv_printf.c **** // import float.h for DBL_MAX
 110:..\..\..\lvgl\version_6.1.2\lvgl\src\lv_misc/lv_printf.c **** #if defined(PRINTF_SUPPORT_FLOAT)
 111:..\..\..\lvgl\version_6.1.2\lvgl\src\lv_misc/lv_printf.c **** #include <float.h>
 112:..\..\..\lvgl\version_6.1.2\lvgl\src\lv_misc/lv_printf.c **** #endif
 113:..\..\..\lvgl\version_6.1.2\lvgl\src\lv_misc/lv_printf.c **** 
 114:..\..\..\lvgl\version_6.1.2\lvgl\src\lv_misc/lv_printf.c **** 
 115:..\..\..\lvgl\version_6.1.2\lvgl\src\lv_misc/lv_printf.c **** // output function type
 116:..\..\..\lvgl\version_6.1.2\lvgl\src\lv_misc/lv_printf.c **** typedef void (*out_fct_type)(char character, void* buffer, size_t idx, size_t maxlen);
 117:..\..\..\lvgl\version_6.1.2\lvgl\src\lv_misc/lv_printf.c **** 
 118:..\..\..\lvgl\version_6.1.2\lvgl\src\lv_misc/lv_printf.c **** 
 119:..\..\..\lvgl\version_6.1.2\lvgl\src\lv_misc/lv_printf.c **** // wrapper (used as buffer) for output function type
 120:..\..\..\lvgl\version_6.1.2\lvgl\src\lv_misc/lv_printf.c **** typedef struct {
 121:..\..\..\lvgl\version_6.1.2\lvgl\src\lv_misc/lv_printf.c ****   void  (*fct)(char character, void* arg);
 122:..\..\..\lvgl\version_6.1.2\lvgl\src\lv_misc/lv_printf.c ****   void* arg;
 123:..\..\..\lvgl\version_6.1.2\lvgl\src\lv_misc/lv_printf.c **** } out_fct_wrap_type;
 124:..\..\..\lvgl\version_6.1.2\lvgl\src\lv_misc/lv_printf.c **** 
 125:..\..\..\lvgl\version_6.1.2\lvgl\src\lv_misc/lv_printf.c **** 
 126:..\..\..\lvgl\version_6.1.2\lvgl\src\lv_misc/lv_printf.c **** // internal buffer output
 127:..\..\..\lvgl\version_6.1.2\lvgl\src\lv_misc/lv_printf.c **** static inline void _out_buffer(char character, void* buffer, size_t idx, size_t maxlen)
 128:..\..\..\lvgl\version_6.1.2\lvgl\src\lv_misc/lv_printf.c **** {
  28              		.loc 1 128 0
  29              		.cfi_startproc
  30              		@ args = 0, pretend = 0, frame = 0
  31              		@ frame_needed = 0, uses_anonymous_args = 0
  32              		@ link register save eliminated.
  33              	.LVL0:
 129:..\..\..\lvgl\version_6.1.2\lvgl\src\lv_misc/lv_printf.c ****   if (idx < maxlen) {
  34              		.loc 1 129 0
  35 0000 9A42     		cmp	r2, r3
 130:..\..\..\lvgl\version_6.1.2\lvgl\src\lv_misc/lv_printf.c ****     ((char*)buffer)[idx] = character;
  36              		.loc 1 130 0
  37 0002 38BF     		it	cc
  38 0004 8854     		strbcc	r0, [r1, r2]
  39 0006 7047     		bx	lr
  40              		.cfi_endproc
  41              	.LFE0:
ARM GAS  C:\Users\pearlstl\AppData\Local\Temp\ccbpFzqf.s 			page 4


  42              		.size	_out_buffer, .-_out_buffer
  43              		.section	.text._out_null,"ax",%progbits
  44              		.align	2
  45              		.thumb
  46              		.thumb_func
  47              		.type	_out_null, %function
  48              	_out_null:
  49              	.LFB1:
 131:..\..\..\lvgl\version_6.1.2\lvgl\src\lv_misc/lv_printf.c ****   }
 132:..\..\..\lvgl\version_6.1.2\lvgl\src\lv_misc/lv_printf.c **** }
 133:..\..\..\lvgl\version_6.1.2\lvgl\src\lv_misc/lv_printf.c **** 
 134:..\..\..\lvgl\version_6.1.2\lvgl\src\lv_misc/lv_printf.c **** 
 135:..\..\..\lvgl\version_6.1.2\lvgl\src\lv_misc/lv_printf.c **** // internal null output
 136:..\..\..\lvgl\version_6.1.2\lvgl\src\lv_misc/lv_printf.c **** static inline void _out_null(char character, void* buffer, size_t idx, size_t maxlen)
 137:..\..\..\lvgl\version_6.1.2\lvgl\src\lv_misc/lv_printf.c **** {
  50              		.loc 1 137 0
  51              		.cfi_startproc
  52              		@ args = 0, pretend = 0, frame = 0
  53              		@ frame_needed = 0, uses_anonymous_args = 0
  54              		@ link register save eliminated.
  55              	.LVL1:
  56 0000 7047     		bx	lr
  57              		.cfi_endproc
  58              	.LFE1:
  59              		.size	_out_null, .-_out_null
  60 0002 00BF     		.section	.text._ntoa_format,"ax",%progbits
  61              		.align	2
  62              		.thumb
  63              		.thumb_func
  64              		.type	_ntoa_format, %function
  65              	_ntoa_format:
  66              	.LFB6:
 138:..\..\..\lvgl\version_6.1.2\lvgl\src\lv_misc/lv_printf.c ****   (void)character; (void)buffer; (void)idx; (void)maxlen;
 139:..\..\..\lvgl\version_6.1.2\lvgl\src\lv_misc/lv_printf.c **** }
 140:..\..\..\lvgl\version_6.1.2\lvgl\src\lv_misc/lv_printf.c **** 
 141:..\..\..\lvgl\version_6.1.2\lvgl\src\lv_misc/lv_printf.c **** 
 142:..\..\..\lvgl\version_6.1.2\lvgl\src\lv_misc/lv_printf.c **** 
 143:..\..\..\lvgl\version_6.1.2\lvgl\src\lv_misc/lv_printf.c **** // internal secure strlen
 144:..\..\..\lvgl\version_6.1.2\lvgl\src\lv_misc/lv_printf.c **** // \return The length of the string (excluding the terminating 0) limited by 'maxsize'
 145:..\..\..\lvgl\version_6.1.2\lvgl\src\lv_misc/lv_printf.c **** static inline unsigned int _strnlen_s(const char* str, size_t maxsize)
 146:..\..\..\lvgl\version_6.1.2\lvgl\src\lv_misc/lv_printf.c **** {
 147:..\..\..\lvgl\version_6.1.2\lvgl\src\lv_misc/lv_printf.c ****   const char* s;
 148:..\..\..\lvgl\version_6.1.2\lvgl\src\lv_misc/lv_printf.c ****   for (s = str; *s && maxsize--; ++s);
 149:..\..\..\lvgl\version_6.1.2\lvgl\src\lv_misc/lv_printf.c ****   return (unsigned int)(s - str);
 150:..\..\..\lvgl\version_6.1.2\lvgl\src\lv_misc/lv_printf.c **** }
 151:..\..\..\lvgl\version_6.1.2\lvgl\src\lv_misc/lv_printf.c **** 
 152:..\..\..\lvgl\version_6.1.2\lvgl\src\lv_misc/lv_printf.c **** 
 153:..\..\..\lvgl\version_6.1.2\lvgl\src\lv_misc/lv_printf.c **** // internal test if char is a digit (0-9)
 154:..\..\..\lvgl\version_6.1.2\lvgl\src\lv_misc/lv_printf.c **** // \return true if char is a digit
 155:..\..\..\lvgl\version_6.1.2\lvgl\src\lv_misc/lv_printf.c **** static inline bool _is_digit(char ch)
 156:..\..\..\lvgl\version_6.1.2\lvgl\src\lv_misc/lv_printf.c **** {
 157:..\..\..\lvgl\version_6.1.2\lvgl\src\lv_misc/lv_printf.c ****   return (ch >= '0') && (ch <= '9');
 158:..\..\..\lvgl\version_6.1.2\lvgl\src\lv_misc/lv_printf.c **** }
 159:..\..\..\lvgl\version_6.1.2\lvgl\src\lv_misc/lv_printf.c **** 
 160:..\..\..\lvgl\version_6.1.2\lvgl\src\lv_misc/lv_printf.c **** 
 161:..\..\..\lvgl\version_6.1.2\lvgl\src\lv_misc/lv_printf.c **** // internal ASCII string to unsigned int conversion
 162:..\..\..\lvgl\version_6.1.2\lvgl\src\lv_misc/lv_printf.c **** static unsigned int _atoi(const char** str)
ARM GAS  C:\Users\pearlstl\AppData\Local\Temp\ccbpFzqf.s 			page 5


 163:..\..\..\lvgl\version_6.1.2\lvgl\src\lv_misc/lv_printf.c **** {
 164:..\..\..\lvgl\version_6.1.2\lvgl\src\lv_misc/lv_printf.c ****   unsigned int i = 0U;
 165:..\..\..\lvgl\version_6.1.2\lvgl\src\lv_misc/lv_printf.c ****   while (_is_digit(**str)) {
 166:..\..\..\lvgl\version_6.1.2\lvgl\src\lv_misc/lv_printf.c ****     i = i * 10U + (unsigned int)(*((*str)++) - '0');
 167:..\..\..\lvgl\version_6.1.2\lvgl\src\lv_misc/lv_printf.c ****   }
 168:..\..\..\lvgl\version_6.1.2\lvgl\src\lv_misc/lv_printf.c ****   return i;
 169:..\..\..\lvgl\version_6.1.2\lvgl\src\lv_misc/lv_printf.c **** }
 170:..\..\..\lvgl\version_6.1.2\lvgl\src\lv_misc/lv_printf.c **** 
 171:..\..\..\lvgl\version_6.1.2\lvgl\src\lv_misc/lv_printf.c **** 
 172:..\..\..\lvgl\version_6.1.2\lvgl\src\lv_misc/lv_printf.c **** // output the specified string in reverse, taking care of any zero-padding
 173:..\..\..\lvgl\version_6.1.2\lvgl\src\lv_misc/lv_printf.c **** static size_t _out_rev(out_fct_type out, char* buffer, size_t idx, size_t maxlen, const char* buf, 
 174:..\..\..\lvgl\version_6.1.2\lvgl\src\lv_misc/lv_printf.c **** {
 175:..\..\..\lvgl\version_6.1.2\lvgl\src\lv_misc/lv_printf.c ****   const size_t start_idx = idx;
 176:..\..\..\lvgl\version_6.1.2\lvgl\src\lv_misc/lv_printf.c **** 
 177:..\..\..\lvgl\version_6.1.2\lvgl\src\lv_misc/lv_printf.c ****   // pad spaces up to given width
 178:..\..\..\lvgl\version_6.1.2\lvgl\src\lv_misc/lv_printf.c ****   if (!(flags & FLAGS_LEFT) && !(flags & FLAGS_ZEROPAD)) {
 179:..\..\..\lvgl\version_6.1.2\lvgl\src\lv_misc/lv_printf.c ****       size_t i;
 180:..\..\..\lvgl\version_6.1.2\lvgl\src\lv_misc/lv_printf.c ****       for (i = len; i < width; i++) {
 181:..\..\..\lvgl\version_6.1.2\lvgl\src\lv_misc/lv_printf.c ****       out(' ', buffer, idx++, maxlen);
 182:..\..\..\lvgl\version_6.1.2\lvgl\src\lv_misc/lv_printf.c ****     }
 183:..\..\..\lvgl\version_6.1.2\lvgl\src\lv_misc/lv_printf.c ****   }
 184:..\..\..\lvgl\version_6.1.2\lvgl\src\lv_misc/lv_printf.c **** 
 185:..\..\..\lvgl\version_6.1.2\lvgl\src\lv_misc/lv_printf.c ****   // reverse string
 186:..\..\..\lvgl\version_6.1.2\lvgl\src\lv_misc/lv_printf.c ****   while (len) {
 187:..\..\..\lvgl\version_6.1.2\lvgl\src\lv_misc/lv_printf.c ****     out(buf[--len], buffer, idx++, maxlen);
 188:..\..\..\lvgl\version_6.1.2\lvgl\src\lv_misc/lv_printf.c ****   }
 189:..\..\..\lvgl\version_6.1.2\lvgl\src\lv_misc/lv_printf.c **** 
 190:..\..\..\lvgl\version_6.1.2\lvgl\src\lv_misc/lv_printf.c ****   // append pad spaces up to given width
 191:..\..\..\lvgl\version_6.1.2\lvgl\src\lv_misc/lv_printf.c ****   if (flags & FLAGS_LEFT) {
 192:..\..\..\lvgl\version_6.1.2\lvgl\src\lv_misc/lv_printf.c ****     while (idx - start_idx < width) {
 193:..\..\..\lvgl\version_6.1.2\lvgl\src\lv_misc/lv_printf.c ****       out(' ', buffer, idx++, maxlen);
 194:..\..\..\lvgl\version_6.1.2\lvgl\src\lv_misc/lv_printf.c ****     }
 195:..\..\..\lvgl\version_6.1.2\lvgl\src\lv_misc/lv_printf.c ****   }
 196:..\..\..\lvgl\version_6.1.2\lvgl\src\lv_misc/lv_printf.c **** 
 197:..\..\..\lvgl\version_6.1.2\lvgl\src\lv_misc/lv_printf.c ****   return idx;
 198:..\..\..\lvgl\version_6.1.2\lvgl\src\lv_misc/lv_printf.c **** }
 199:..\..\..\lvgl\version_6.1.2\lvgl\src\lv_misc/lv_printf.c **** 
 200:..\..\..\lvgl\version_6.1.2\lvgl\src\lv_misc/lv_printf.c **** 
 201:..\..\..\lvgl\version_6.1.2\lvgl\src\lv_misc/lv_printf.c **** // internal itoa format
 202:..\..\..\lvgl\version_6.1.2\lvgl\src\lv_misc/lv_printf.c **** static size_t _ntoa_format(out_fct_type out, char* buffer, size_t idx, size_t maxlen, char* buf, si
 203:..\..\..\lvgl\version_6.1.2\lvgl\src\lv_misc/lv_printf.c **** {
  67              		.loc 1 203 0
  68              		.cfi_startproc
  69              		@ args = 28, pretend = 0, frame = 8
  70              		@ frame_needed = 0, uses_anonymous_args = 0
  71              	.LVL2:
  72              		.loc 1 203 0
  73 0000 2DE9F04F 		push	{r4, r5, r6, r7, r8, r9, r10, fp, lr}
  74              		.cfi_def_cfa_offset 36
  75              		.cfi_offset 4, -36
  76              		.cfi_offset 5, -32
  77              		.cfi_offset 6, -28
  78              		.cfi_offset 7, -24
  79              		.cfi_offset 8, -20
  80              		.cfi_offset 9, -16
  81              		.cfi_offset 10, -12
  82              		.cfi_offset 11, -8
ARM GAS  C:\Users\pearlstl\AppData\Local\Temp\ccbpFzqf.s 			page 6


  83              		.cfi_offset 14, -4
  84 0004 83B0     		sub	sp, sp, #12
  85              		.cfi_def_cfa_offset 48
  86              		.loc 1 203 0
  87 0006 9946     		mov	r9, r3
  88 0008 129D     		ldr	r5, [sp, #72]
  89 000a DDF830A0 		ldr	r10, [sp, #48]
  90 000e 0D9C     		ldr	r4, [sp, #52]
  91 0010 9DF838E0 		ldrb	lr, [sp, #56]	@ zero_extendqisi2
  92 0014 109E     		ldr	r6, [sp, #64]
  93 0016 0092     		str	r2, [sp]
 204:..\..\..\lvgl\version_6.1.2\lvgl\src\lv_misc/lv_printf.c ****   // pad leading zeros
 205:..\..\..\lvgl\version_6.1.2\lvgl\src\lv_misc/lv_printf.c ****   if (!(flags & FLAGS_LEFT)) {
  94              		.loc 1 205 0
  95 0018 15F00203 		ands	r3, r5, #2
  96              	.LVL3:
 203:..\..\..\lvgl\version_6.1.2\lvgl\src\lv_misc/lv_printf.c ****   // pad leading zeros
  97              		.loc 1 203 0
  98 001c 0746     		mov	r7, r0
  99 001e 8846     		mov	r8, r1
 100              		.loc 1 205 0
 101 0020 0193     		str	r3, [sp, #4]
 102 0022 2BD1     		bne	.L6
 206:..\..\..\lvgl\version_6.1.2\lvgl\src\lv_misc/lv_printf.c ****     if (width && (flags & FLAGS_ZEROPAD) && (negative || (flags & (FLAGS_PLUS | FLAGS_SPACE)))) {
 103              		.loc 1 206 0
 104 0024 119B     		ldr	r3, [sp, #68]
 105 0026 002B     		cmp	r3, #0
 106 0028 40F08A80 		bne	.L84
 107              	.LVL4:
 207:..\..\..\lvgl\version_6.1.2\lvgl\src\lv_misc/lv_printf.c ****       width--;
 208:..\..\..\lvgl\version_6.1.2\lvgl\src\lv_misc/lv_printf.c ****     }
 209:..\..\..\lvgl\version_6.1.2\lvgl\src\lv_misc/lv_printf.c ****     while ((len < prec) && (len < PRINTF_NTOA_BUFFER_SIZE)) {
 108              		.loc 1 209 0
 109 002c B442     		cmp	r4, r6
 110 002e 25D2     		bcs	.L6
 111 0030 1F2C     		cmp	r4, #31
 112 0032 05F00101 		and	r1, r5, #1
 113              	.LVL5:
 114 0036 21D8     		bhi	.L6
 115              	.LVL6:
 116              	.L41:
 117 0038 0AEB0403 		add	r3, r10, r4
 210:..\..\..\lvgl\version_6.1.2\lvgl\src\lv_misc/lv_printf.c ****       buf[len++] = '0';
 118              		.loc 1 210 0
 119 003c 3022     		movs	r2, #48
 120              	.LVL7:
 121 003e 01E0     		b	.L14
 122              	.L11:
 209:..\..\..\lvgl\version_6.1.2\lvgl\src\lv_misc/lv_printf.c ****       buf[len++] = '0';
 123              		.loc 1 209 0 discriminator 1
 124 0040 202C     		cmp	r4, #32
 125 0042 04D0     		beq	.L15
 126              	.L14:
 127              		.loc 1 210 0
 128 0044 0134     		adds	r4, r4, #1
 129              	.LVL8:
 209:..\..\..\lvgl\version_6.1.2\lvgl\src\lv_misc/lv_printf.c ****       buf[len++] = '0';
ARM GAS  C:\Users\pearlstl\AppData\Local\Temp\ccbpFzqf.s 			page 7


 130              		.loc 1 209 0
 131 0046 A642     		cmp	r6, r4
 132              		.loc 1 210 0
 133 0048 03F8012B 		strb	r2, [r3], #1
 209:..\..\..\lvgl\version_6.1.2\lvgl\src\lv_misc/lv_printf.c ****       buf[len++] = '0';
 134              		.loc 1 209 0
 135 004c F8D8     		bhi	.L11
 136              	.L15:
 211:..\..\..\lvgl\version_6.1.2\lvgl\src\lv_misc/lv_printf.c ****     }
 212:..\..\..\lvgl\version_6.1.2\lvgl\src\lv_misc/lv_printf.c ****     while ((flags & FLAGS_ZEROPAD) && (len < width) && (len < PRINTF_NTOA_BUFFER_SIZE)) {
 137              		.loc 1 212 0
 138 004e A9B1     		cbz	r1, .L6
 139              	.L37:
 140 0050 119B     		ldr	r3, [sp, #68]
 141 0052 A342     		cmp	r3, r4
 142 0054 12D9     		bls	.L6
 143 0056 1F2C     		cmp	r4, #31
 144 0058 00F2AE80 		bhi	.L52
 213:..\..\..\lvgl\version_6.1.2\lvgl\src\lv_misc/lv_printf.c ****       buf[len++] = '0';
 145              		.loc 1 213 0
 146 005c 3022     		movs	r2, #48
 147 005e 1946     		mov	r1, r3
 148 0060 0AF80420 		strb	r2, [r10, r4]
 149 0064 631C     		adds	r3, r4, #1
 150              	.LVL9:
 151 0066 5444     		add	r4, r4, r10
 152 0068 05E0     		b	.L40
 153              	.L85:
 212:..\..\..\lvgl\version_6.1.2\lvgl\src\lv_misc/lv_printf.c ****       buf[len++] = '0';
 154              		.loc 1 212 0 discriminator 2
 155 006a 202B     		cmp	r3, #32
 156 006c 00F0A580 		beq	.L13
 157              		.loc 1 213 0
 158 0070 04F8012F 		strb	r2, [r4, #1]!
 159 0074 0133     		adds	r3, r3, #1
 160              	.LVL10:
 161              	.L40:
 212:..\..\..\lvgl\version_6.1.2\lvgl\src\lv_misc/lv_printf.c ****       buf[len++] = '0';
 162              		.loc 1 212 0 discriminator 1
 163 0076 9942     		cmp	r1, r3
 164 0078 F7D1     		bne	.L85
 165 007a 119C     		ldr	r4, [sp, #68]
 166              	.LVL11:
 167              	.L6:
 214:..\..\..\lvgl\version_6.1.2\lvgl\src\lv_misc/lv_printf.c ****     }
 215:..\..\..\lvgl\version_6.1.2\lvgl\src\lv_misc/lv_printf.c ****   }
 216:..\..\..\lvgl\version_6.1.2\lvgl\src\lv_misc/lv_printf.c **** 
 217:..\..\..\lvgl\version_6.1.2\lvgl\src\lv_misc/lv_printf.c ****   // handle hash
 218:..\..\..\lvgl\version_6.1.2\lvgl\src\lv_misc/lv_printf.c ****   if (flags & FLAGS_HASH) {
 168              		.loc 1 218 0
 169 007c E806     		lsls	r0, r5, #27
 170              	.LVL12:
 171 007e 10D5     		bpl	.L17
 219:..\..\..\lvgl\version_6.1.2\lvgl\src\lv_misc/lv_printf.c ****     if (!(flags & FLAGS_PRECISION) && len && ((len == prec) || (len == width))) {
 172              		.loc 1 219 0
 173 0080 6905     		lsls	r1, r5, #21
 174 0082 01D4     		bmi	.L18
ARM GAS  C:\Users\pearlstl\AppData\Local\Temp\ccbpFzqf.s 			page 8


 175              		.loc 1 219 0 is_stmt 0 discriminator 1
 176 0084 002C     		cmp	r4, #0
 177 0086 7CD1     		bne	.L43
 178              	.L18:
 220:..\..\..\lvgl\version_6.1.2\lvgl\src\lv_misc/lv_printf.c ****       len--;
 221:..\..\..\lvgl\version_6.1.2\lvgl\src\lv_misc/lv_printf.c ****       if (len && (base == 16U)) {
 222:..\..\..\lvgl\version_6.1.2\lvgl\src\lv_misc/lv_printf.c ****         len--;
 223:..\..\..\lvgl\version_6.1.2\lvgl\src\lv_misc/lv_printf.c ****       }
 224:..\..\..\lvgl\version_6.1.2\lvgl\src\lv_misc/lv_printf.c ****     }
 225:..\..\..\lvgl\version_6.1.2\lvgl\src\lv_misc/lv_printf.c ****     if ((base == 16U) && !(flags & FLAGS_UPPERCASE) && (len < PRINTF_NTOA_BUFFER_SIZE)) {
 179              		.loc 1 225 0 is_stmt 1
 180 0088 0F9B     		ldr	r3, [sp, #60]
 181 008a 102B     		cmp	r3, #16
 182 008c 00F0A280 		beq	.L21
 183              	.L20:
 226:..\..\..\lvgl\version_6.1.2\lvgl\src\lv_misc/lv_printf.c ****       buf[len++] = 'x';
 227:..\..\..\lvgl\version_6.1.2\lvgl\src\lv_misc/lv_printf.c ****     }
 228:..\..\..\lvgl\version_6.1.2\lvgl\src\lv_misc/lv_printf.c ****     else if ((base == 16U) && (flags & FLAGS_UPPERCASE) && (len < PRINTF_NTOA_BUFFER_SIZE)) {
 229:..\..\..\lvgl\version_6.1.2\lvgl\src\lv_misc/lv_printf.c ****       buf[len++] = 'X';
 230:..\..\..\lvgl\version_6.1.2\lvgl\src\lv_misc/lv_printf.c ****     }
 231:..\..\..\lvgl\version_6.1.2\lvgl\src\lv_misc/lv_printf.c ****     else if ((base == 2U) && (len < PRINTF_NTOA_BUFFER_SIZE)) {
 184              		.loc 1 231 0
 185 0090 022B     		cmp	r3, #2
 186 0092 00F0A980 		beq	.L86
 187              	.LVL13:
 188              	.L24:
 232:..\..\..\lvgl\version_6.1.2\lvgl\src\lv_misc/lv_printf.c ****       buf[len++] = 'b';
 233:..\..\..\lvgl\version_6.1.2\lvgl\src\lv_misc/lv_printf.c ****     }
 234:..\..\..\lvgl\version_6.1.2\lvgl\src\lv_misc/lv_printf.c ****     if (len < PRINTF_NTOA_BUFFER_SIZE) {
 189              		.loc 1 234 0
 190 0096 1F2C     		cmp	r4, #31
 191 0098 11D8     		bhi	.L25
 192              	.LVL14:
 235:..\..\..\lvgl\version_6.1.2\lvgl\src\lv_misc/lv_printf.c ****       buf[len++] = '0';
 193              		.loc 1 235 0
 194 009a 3023     		movs	r3, #48
 195 009c 0AF80430 		strb	r3, [r10, r4]
 196 00a0 0134     		adds	r4, r4, #1
 197              	.LVL15:
 198              	.L17:
 236:..\..\..\lvgl\version_6.1.2\lvgl\src\lv_misc/lv_printf.c ****     }
 237:..\..\..\lvgl\version_6.1.2\lvgl\src\lv_misc/lv_printf.c ****   }
 238:..\..\..\lvgl\version_6.1.2\lvgl\src\lv_misc/lv_printf.c **** 
 239:..\..\..\lvgl\version_6.1.2\lvgl\src\lv_misc/lv_printf.c ****   if (len < PRINTF_NTOA_BUFFER_SIZE) {
 199              		.loc 1 239 0
 200 00a2 1F2C     		cmp	r4, #31
 201 00a4 0BD8     		bhi	.L25
 240:..\..\..\lvgl\version_6.1.2\lvgl\src\lv_misc/lv_printf.c ****     if (negative) {
 202              		.loc 1 240 0
 203 00a6 BEF1000F 		cmp	lr, #0
 204 00aa 59D1     		bne	.L87
 241:..\..\..\lvgl\version_6.1.2\lvgl\src\lv_misc/lv_printf.c ****       buf[len++] = '-';
 242:..\..\..\lvgl\version_6.1.2\lvgl\src\lv_misc/lv_printf.c ****     }
 243:..\..\..\lvgl\version_6.1.2\lvgl\src\lv_misc/lv_printf.c ****     else if (flags & FLAGS_PLUS) {
 205              		.loc 1 243 0
 206 00ac 6B07     		lsls	r3, r5, #29
 207 00ae 00F18880 		bmi	.L88
ARM GAS  C:\Users\pearlstl\AppData\Local\Temp\ccbpFzqf.s 			page 9


 244:..\..\..\lvgl\version_6.1.2\lvgl\src\lv_misc/lv_printf.c ****       buf[len++] = '+';  // ignore the space if the '+' exists
 245:..\..\..\lvgl\version_6.1.2\lvgl\src\lv_misc/lv_printf.c ****     }
 246:..\..\..\lvgl\version_6.1.2\lvgl\src\lv_misc/lv_printf.c ****     else if (flags & FLAGS_SPACE) {
 208              		.loc 1 246 0
 209 00b2 2E07     		lsls	r6, r5, #28
 210 00b4 2BD5     		bpl	.L28
 211              	.LVL16:
 247:..\..\..\lvgl\version_6.1.2\lvgl\src\lv_misc/lv_printf.c ****       buf[len++] = ' ';
 212              		.loc 1 247 0
 213 00b6 2023     		movs	r3, #32
 214 00b8 0AF80430 		strb	r3, [r10, r4]
 215 00bc 0134     		adds	r4, r4, #1
 216              	.LVL17:
 217              	.L25:
 218              	.LBB56:
 219              	.LBB57:
 178:..\..\..\lvgl\version_6.1.2\lvgl\src\lv_misc/lv_printf.c ****       size_t i;
 220              		.loc 1 178 0
 221 00be AB07     		lsls	r3, r5, #30
 222 00c0 27D0     		beq	.L44
 223              	.L90:
 224 00c2 009D     		ldr	r5, [sp]
 225              	.LVL18:
 226              	.L45:
 227 00c4 A244     		add	r10, r10, r4
 228              	.LVL19:
 229 00c6 2A46     		mov	r2, r5
 230 00c8 2646     		mov	r6, r4
 231              	.LVL20:
 232              	.L32:
 187:..\..\..\lvgl\version_6.1.2\lvgl\src\lv_misc/lv_printf.c ****   }
 233              		.loc 1 187 0
 234 00ca 02F1010B 		add	fp, r2, #1
 235 00ce 4B46     		mov	r3, r9
 236 00d0 4146     		mov	r1, r8
 237 00d2 1AF8010D 		ldrb	r0, [r10, #-1]!	@ zero_extendqisi2
 238 00d6 013E     		subs	r6, r6, #1
 239              	.LVL21:
 240 00d8 B847     		blx	r7
 241              	.LVL22:
 242 00da 5A46     		mov	r2, fp
 186:..\..\..\lvgl\version_6.1.2\lvgl\src\lv_misc/lv_printf.c ****     out(buf[--len], buffer, idx++, maxlen);
 243              		.loc 1 186 0
 244 00dc 002E     		cmp	r6, #0
 245 00de F4D1     		bne	.L32
 246 00e0 2544     		add	r5, r5, r4
 247              	.LVL23:
 248              	.L31:
 191:..\..\..\lvgl\version_6.1.2\lvgl\src\lv_misc/lv_printf.c ****     while (idx - start_idx < width) {
 249              		.loc 1 191 0
 250 00e2 019B     		ldr	r3, [sp, #4]
 251 00e4 7BB1     		cbz	r3, .L61
 252              	.LVL24:
 192:..\..\..\lvgl\version_6.1.2\lvgl\src\lv_misc/lv_printf.c ****       out(' ', buffer, idx++, maxlen);
 253              		.loc 1 192 0
 254 00e6 009C     		ldr	r4, [sp]
 255              	.LVL25:
ARM GAS  C:\Users\pearlstl\AppData\Local\Temp\ccbpFzqf.s 			page 10


 256 00e8 119A     		ldr	r2, [sp, #68]
 257 00ea 2B1B     		subs	r3, r5, r4
 258 00ec 9342     		cmp	r3, r2
 259 00ee 0AD2     		bcs	.L61
 260 00f0 1646     		mov	r6, r2
 261 00f2 2A46     		mov	r2, r5
 262              	.LVL26:
 263              	.L34:
 193:..\..\..\lvgl\version_6.1.2\lvgl\src\lv_misc/lv_printf.c ****     }
 264              		.loc 1 193 0
 265 00f4 0135     		adds	r5, r5, #1
 266              	.LVL27:
 267 00f6 4B46     		mov	r3, r9
 268 00f8 4146     		mov	r1, r8
 269 00fa 2020     		movs	r0, #32
 270 00fc B847     		blx	r7
 271              	.LVL28:
 192:..\..\..\lvgl\version_6.1.2\lvgl\src\lv_misc/lv_printf.c ****       out(' ', buffer, idx++, maxlen);
 272              		.loc 1 192 0
 273 00fe 2B1B     		subs	r3, r5, r4
 274 0100 B342     		cmp	r3, r6
 193:..\..\..\lvgl\version_6.1.2\lvgl\src\lv_misc/lv_printf.c ****     }
 275              		.loc 1 193 0
 276 0102 2A46     		mov	r2, r5
 192:..\..\..\lvgl\version_6.1.2\lvgl\src\lv_misc/lv_printf.c ****       out(' ', buffer, idx++, maxlen);
 277              		.loc 1 192 0
 278 0104 F6D3     		bcc	.L34
 279              	.LVL29:
 280              	.L61:
 281              	.LBE57:
 282              	.LBE56:
 248:..\..\..\lvgl\version_6.1.2\lvgl\src\lv_misc/lv_printf.c ****     }
 249:..\..\..\lvgl\version_6.1.2\lvgl\src\lv_misc/lv_printf.c ****   }
 250:..\..\..\lvgl\version_6.1.2\lvgl\src\lv_misc/lv_printf.c **** 
 251:..\..\..\lvgl\version_6.1.2\lvgl\src\lv_misc/lv_printf.c ****   return _out_rev(out, buffer, idx, maxlen, buf, len, width, flags);
 252:..\..\..\lvgl\version_6.1.2\lvgl\src\lv_misc/lv_printf.c **** }
 283              		.loc 1 252 0
 284 0106 2846     		mov	r0, r5
 285 0108 03B0     		add	sp, sp, #12
 286              		.cfi_remember_state
 287              		.cfi_def_cfa_offset 36
 288              	.LVL30:
 289              		@ sp needed
 290 010a BDE8F08F 		pop	{r4, r5, r6, r7, r8, r9, r10, fp, pc}
 291              	.LVL31:
 292              	.L28:
 293              		.cfi_restore_state
 294              	.LBB66:
 295              	.LBB60:
 178:..\..\..\lvgl\version_6.1.2\lvgl\src\lv_misc/lv_printf.c ****       size_t i;
 296              		.loc 1 178 0
 297 010e A807     		lsls	r0, r5, #30
 298 0110 45D1     		bne	.L50
 299              	.L44:
 300              	.LVL32:
 301              	.LBB58:
 180:..\..\..\lvgl\version_6.1.2\lvgl\src\lv_misc/lv_printf.c ****       out(' ', buffer, idx++, maxlen);
ARM GAS  C:\Users\pearlstl\AppData\Local\Temp\ccbpFzqf.s 			page 11


 302              		.loc 1 180 0
 303 0112 119B     		ldr	r3, [sp, #68]
 304 0114 9C42     		cmp	r4, r3
 305 0116 42D2     		bcs	.L50
 306 0118 9B46     		mov	fp, r3
 307 011a 009B     		ldr	r3, [sp]
 308 011c 1A46     		mov	r2, r3
 309 011e E61A     		subs	r6, r4, r3
 310              	.LVL33:
 311              	.L30:
 181:..\..\..\lvgl\version_6.1.2\lvgl\src\lv_misc/lv_printf.c ****     }
 312              		.loc 1 181 0
 313 0120 551C     		adds	r5, r2, #1
 314              	.LVL34:
 315 0122 4B46     		mov	r3, r9
 316 0124 4146     		mov	r1, r8
 317 0126 2020     		movs	r0, #32
 318 0128 B847     		blx	r7
 319              	.LVL35:
 180:..\..\..\lvgl\version_6.1.2\lvgl\src\lv_misc/lv_printf.c ****       out(' ', buffer, idx++, maxlen);
 320              		.loc 1 180 0
 321 012a AB19     		adds	r3, r5, r6
 322 012c 5B45     		cmp	r3, fp
 181:..\..\..\lvgl\version_6.1.2\lvgl\src\lv_misc/lv_printf.c ****     }
 323              		.loc 1 181 0
 324 012e 2A46     		mov	r2, r5
 180:..\..\..\lvgl\version_6.1.2\lvgl\src\lv_misc/lv_printf.c ****       out(' ', buffer, idx++, maxlen);
 325              		.loc 1 180 0
 326 0130 F6D3     		bcc	.L30
 327 0132 009B     		ldr	r3, [sp]
 328 0134 119A     		ldr	r2, [sp, #68]
 329 0136 9D18     		adds	r5, r3, r2
 330              	.LVL36:
 331 0138 2D1B     		subs	r5, r5, r4
 332              	.LVL37:
 333              	.LBE58:
 186:..\..\..\lvgl\version_6.1.2\lvgl\src\lv_misc/lv_printf.c ****     out(buf[--len], buffer, idx++, maxlen);
 334              		.loc 1 186 0
 335 013a 002C     		cmp	r4, #0
 336 013c C2D1     		bne	.L45
 337 013e D0E7     		b	.L31
 338              	.LVL38:
 339              	.L84:
 340              	.LBE60:
 341              	.LBE66:
 206:..\..\..\lvgl\version_6.1.2\lvgl\src\lv_misc/lv_printf.c ****       width--;
 342              		.loc 1 206 0 discriminator 1
 343 0140 15F00101 		ands	r1, r5, #1
 344              	.LVL39:
 345 0144 14D0     		beq	.L8
 206:..\..\..\lvgl\version_6.1.2\lvgl\src\lv_misc/lv_printf.c ****       width--;
 346              		.loc 1 206 0 is_stmt 0 discriminator 2
 347 0146 BEF1000F 		cmp	lr, #0
 348 014a 2CD1     		bne	.L9
 206:..\..\..\lvgl\version_6.1.2\lvgl\src\lv_misc/lv_printf.c ****       width--;
 349              		.loc 1 206 0 discriminator 3
 350 014c 15F00C0F 		tst	r5, #12
ARM GAS  C:\Users\pearlstl\AppData\Local\Temp\ccbpFzqf.s 			page 12


 351 0150 29D1     		bne	.L9
 352              	.L10:
 353              	.LVL40:
 209:..\..\..\lvgl\version_6.1.2\lvgl\src\lv_misc/lv_printf.c ****       buf[len++] = '0';
 354              		.loc 1 209 0 is_stmt 1
 355 0152 B442     		cmp	r4, r6
 356 0154 BFF47CAF 		bcs	.L37
 357 0158 1F2C     		cmp	r4, #31
 358 015a 29D8     		bhi	.L89
 359 015c 0121     		movs	r1, #1
 360 015e 6BE7     		b	.L41
 361              	.LVL41:
 362              	.L87:
 241:..\..\..\lvgl\version_6.1.2\lvgl\src\lv_misc/lv_printf.c ****     }
 363              		.loc 1 241 0
 364 0160 2D23     		movs	r3, #45
 365 0162 0AF80430 		strb	r3, [r10, r4]
 366              	.LBB67:
 367              	.LBB61:
 178:..\..\..\lvgl\version_6.1.2\lvgl\src\lv_misc/lv_printf.c ****       size_t i;
 368              		.loc 1 178 0
 369 0166 AB07     		lsls	r3, r5, #30
 370              	.LBE61:
 371              	.LBE67:
 241:..\..\..\lvgl\version_6.1.2\lvgl\src\lv_misc/lv_printf.c ****     }
 372              		.loc 1 241 0
 373 0168 04F10104 		add	r4, r4, #1
 374              	.LVL42:
 375              	.LBB68:
 376              	.LBB62:
 178:..\..\..\lvgl\version_6.1.2\lvgl\src\lv_misc/lv_printf.c ****       size_t i;
 377              		.loc 1 178 0
 378 016c D1D0     		beq	.L44
 379 016e A8E7     		b	.L90
 380              	.LVL43:
 381              	.L8:
 382              	.LBE62:
 383              	.LBE68:
 209:..\..\..\lvgl\version_6.1.2\lvgl\src\lv_misc/lv_printf.c ****       buf[len++] = '0';
 384              		.loc 1 209 0
 385 0170 B442     		cmp	r4, r6
 386 0172 83D2     		bcs	.L6
 387 0174 1F2C     		cmp	r4, #31
 388 0176 7FF65FAF 		bls	.L41
 389 017a 7FE7     		b	.L6
 390              	.LVL44:
 391              	.L38:
 219:..\..\..\lvgl\version_6.1.2\lvgl\src\lv_misc/lv_printf.c ****       len--;
 392              		.loc 1 219 0
 393 017c 6A05     		lsls	r2, r5, #21
 394 017e 15D4     		bmi	.L47
 395 0180 1C46     		mov	r4, r3
 396              	.LVL45:
 397              	.L43:
 219:..\..\..\lvgl\version_6.1.2\lvgl\src\lv_misc/lv_printf.c ****       len--;
 398              		.loc 1 219 0 is_stmt 0 discriminator 2
 399 0182 A642     		cmp	r6, r4
ARM GAS  C:\Users\pearlstl\AppData\Local\Temp\ccbpFzqf.s 			page 13


 400 0184 03D0     		beq	.L19
 219:..\..\..\lvgl\version_6.1.2\lvgl\src\lv_misc/lv_printf.c ****       len--;
 401              		.loc 1 219 0 discriminator 3
 402 0186 119B     		ldr	r3, [sp, #68]
 403 0188 A342     		cmp	r3, r4
 404 018a 7FF47DAF 		bne	.L18
 405              	.L19:
 406              	.LVL46:
 221:..\..\..\lvgl\version_6.1.2\lvgl\src\lv_misc/lv_printf.c ****         len--;
 407              		.loc 1 221 0 is_stmt 1
 408 018e 631E     		subs	r3, r4, #1
 409              	.LVL47:
 410 0190 0CD0     		beq	.L47
 221:..\..\..\lvgl\version_6.1.2\lvgl\src\lv_misc/lv_printf.c ****         len--;
 411              		.loc 1 221 0 is_stmt 0 discriminator 1
 412 0192 0F9A     		ldr	r2, [sp, #60]
 413 0194 102A     		cmp	r2, #16
 414 0196 1CD0     		beq	.L91
 415 0198 1C46     		mov	r4, r3
 416 019a 1346     		mov	r3, r2
 417              	.LVL48:
 418 019c 78E7     		b	.L20
 419              	.LVL49:
 420              	.L50:
 421              	.LBB69:
 422              	.LBB63:
 423              	.LBB59:
 180:..\..\..\lvgl\version_6.1.2\lvgl\src\lv_misc/lv_printf.c ****       out(' ', buffer, idx++, maxlen);
 424              		.loc 1 180 0 is_stmt 1
 425 019e 009D     		ldr	r5, [sp]
 426              	.LVL50:
 427              	.LBE59:
 186:..\..\..\lvgl\version_6.1.2\lvgl\src\lv_misc/lv_printf.c ****     out(buf[--len], buffer, idx++, maxlen);
 428              		.loc 1 186 0
 429 01a0 002C     		cmp	r4, #0
 430 01a2 8FD1     		bne	.L45
 431 01a4 9DE7     		b	.L31
 432              	.LVL51:
 433              	.L9:
 434              	.LBE63:
 435              	.LBE69:
 207:..\..\..\lvgl\version_6.1.2\lvgl\src\lv_misc/lv_printf.c ****     }
 436              		.loc 1 207 0
 437 01a6 013B     		subs	r3, r3, #1
 438 01a8 1193     		str	r3, [sp, #68]
 439              	.LVL52:
 440 01aa D2E7     		b	.L10
 441              	.LVL53:
 442              	.L47:
 443 01ac 1C46     		mov	r4, r3
 444 01ae 6BE7     		b	.L18
 445              	.LVL54:
 446              	.L89:
 212:..\..\..\lvgl\version_6.1.2\lvgl\src\lv_misc/lv_printf.c ****       buf[len++] = '0';
 447              		.loc 1 212 0
 448 01b0 119B     		ldr	r3, [sp, #68]
 449 01b2 A342     		cmp	r3, r4
ARM GAS  C:\Users\pearlstl\AppData\Local\Temp\ccbpFzqf.s 			page 14


 450 01b4 7FF662AF 		bls	.L6
 451              	.LVL55:
 452              	.L52:
 453 01b8 2346     		mov	r3, r4
 454              	.LVL56:
 455              	.L13:
 218:..\..\..\lvgl\version_6.1.2\lvgl\src\lv_misc/lv_printf.c ****     if (!(flags & FLAGS_PRECISION) && len && ((len == prec) || (len == width))) {
 456              		.loc 1 218 0
 457 01ba E906     		lsls	r1, r5, #27
 458 01bc DED4     		bmi	.L38
 459 01be 1C46     		mov	r4, r3
 460 01c0 7DE7     		b	.L25
 461              	.LVL57:
 462              	.L88:
 244:..\..\..\lvgl\version_6.1.2\lvgl\src\lv_misc/lv_printf.c ****     }
 463              		.loc 1 244 0
 464 01c2 2B23     		movs	r3, #43
 465 01c4 0AF80430 		strb	r3, [r10, r4]
 466              	.LBB70:
 467              	.LBB64:
 178:..\..\..\lvgl\version_6.1.2\lvgl\src\lv_misc/lv_printf.c ****       size_t i;
 468              		.loc 1 178 0
 469 01c8 AB07     		lsls	r3, r5, #30
 470              	.LBE64:
 471              	.LBE70:
 244:..\..\..\lvgl\version_6.1.2\lvgl\src\lv_misc/lv_printf.c ****     }
 472              		.loc 1 244 0
 473 01ca 04F10104 		add	r4, r4, #1
 474              	.LVL58:
 475              	.LBB71:
 476              	.LBB65:
 178:..\..\..\lvgl\version_6.1.2\lvgl\src\lv_misc/lv_printf.c ****       size_t i;
 477              		.loc 1 178 0
 478 01ce A0D0     		beq	.L44
 479 01d0 77E7     		b	.L90
 480              	.LVL59:
 481              	.L91:
 482              	.LBE65:
 483              	.LBE71:
 222:..\..\..\lvgl\version_6.1.2\lvgl\src\lv_misc/lv_printf.c ****       }
 484              		.loc 1 222 0
 485 01d2 023C     		subs	r4, r4, #2
 486              	.LVL60:
 487              	.L21:
 225:..\..\..\lvgl\version_6.1.2\lvgl\src\lv_misc/lv_printf.c ****       buf[len++] = 'x';
 488              		.loc 1 225 0 discriminator 1
 489 01d4 AA06     		lsls	r2, r5, #26
 490 01d6 0FD4     		bmi	.L22
 225:..\..\..\lvgl\version_6.1.2\lvgl\src\lv_misc/lv_printf.c ****       buf[len++] = 'x';
 491              		.loc 1 225 0 is_stmt 0 discriminator 2
 492 01d8 1F2C     		cmp	r4, #31
 493 01da 3FF670AF 		bhi	.L25
 494              	.LVL61:
 226:..\..\..\lvgl\version_6.1.2\lvgl\src\lv_misc/lv_printf.c ****     }
 495              		.loc 1 226 0 is_stmt 1
 496 01de 7823     		movs	r3, #120
 497 01e0 0AF80430 		strb	r3, [r10, r4]
ARM GAS  C:\Users\pearlstl\AppData\Local\Temp\ccbpFzqf.s 			page 15


 498              	.LVL62:
 499 01e4 0134     		adds	r4, r4, #1
 500              	.LVL63:
 501 01e6 56E7     		b	.L24
 502              	.LVL64:
 503              	.L86:
 231:..\..\..\lvgl\version_6.1.2\lvgl\src\lv_misc/lv_printf.c ****       buf[len++] = 'b';
 504              		.loc 1 231 0 discriminator 1
 505 01e8 1F2C     		cmp	r4, #31
 506 01ea 3FF668AF 		bhi	.L25
 507              	.LVL65:
 232:..\..\..\lvgl\version_6.1.2\lvgl\src\lv_misc/lv_printf.c ****     }
 508              		.loc 1 232 0
 509 01ee 6223     		movs	r3, #98
 510 01f0 0AF80430 		strb	r3, [r10, r4]
 511              	.LVL66:
 512 01f4 0134     		adds	r4, r4, #1
 513              	.LVL67:
 514 01f6 4EE7     		b	.L24
 515              	.LVL68:
 516              	.L22:
 228:..\..\..\lvgl\version_6.1.2\lvgl\src\lv_misc/lv_printf.c ****       buf[len++] = 'X';
 517              		.loc 1 228 0
 518 01f8 1F2C     		cmp	r4, #31
 519 01fa 3FF660AF 		bhi	.L25
 520              	.LVL69:
 229:..\..\..\lvgl\version_6.1.2\lvgl\src\lv_misc/lv_printf.c ****     }
 521              		.loc 1 229 0
 522 01fe 5823     		movs	r3, #88
 523 0200 0AF80430 		strb	r3, [r10, r4]
 524              	.LVL70:
 525 0204 0134     		adds	r4, r4, #1
 526              	.LVL71:
 527 0206 46E7     		b	.L24
 528              		.cfi_endproc
 529              	.LFE6:
 530              		.size	_ntoa_format, .-_ntoa_format
 531              		.global	__aeabi_dcmpeq
 532              		.global	__aeabi_dcmpgt
 533              		.global	__aeabi_dcmplt
 534              		.global	__aeabi_i2d
 535              		.global	__aeabi_dmul
 536              		.global	__aeabi_dadd
 537              		.global	__aeabi_dsub
 538              		.global	__aeabi_d2iz
 539              		.global	__aeabi_ddiv
 540              		.global	__aeabi_dcmpge
 541              		.section	.text._etoa,"ax",%progbits
 542              		.align	2
 543              		.thumb
 544              		.thumb_func
 545              		.type	_etoa, %function
 546              	_etoa:
 547              	.LFB10:
 253:..\..\..\lvgl\version_6.1.2\lvgl\src\lv_misc/lv_printf.c **** 
 254:..\..\..\lvgl\version_6.1.2\lvgl\src\lv_misc/lv_printf.c **** 
 255:..\..\..\lvgl\version_6.1.2\lvgl\src\lv_misc/lv_printf.c **** // internal itoa for 'long' type
ARM GAS  C:\Users\pearlstl\AppData\Local\Temp\ccbpFzqf.s 			page 16


 256:..\..\..\lvgl\version_6.1.2\lvgl\src\lv_misc/lv_printf.c **** static size_t _ntoa_long(out_fct_type out, char* buffer, size_t idx, size_t maxlen, unsigned long v
 257:..\..\..\lvgl\version_6.1.2\lvgl\src\lv_misc/lv_printf.c **** {
 258:..\..\..\lvgl\version_6.1.2\lvgl\src\lv_misc/lv_printf.c ****   char buf[PRINTF_NTOA_BUFFER_SIZE];
 259:..\..\..\lvgl\version_6.1.2\lvgl\src\lv_misc/lv_printf.c ****   size_t len = 0U;
 260:..\..\..\lvgl\version_6.1.2\lvgl\src\lv_misc/lv_printf.c **** 
 261:..\..\..\lvgl\version_6.1.2\lvgl\src\lv_misc/lv_printf.c ****   // no hash for 0 values
 262:..\..\..\lvgl\version_6.1.2\lvgl\src\lv_misc/lv_printf.c ****   if (!value) {
 263:..\..\..\lvgl\version_6.1.2\lvgl\src\lv_misc/lv_printf.c ****     flags &= ~FLAGS_HASH;
 264:..\..\..\lvgl\version_6.1.2\lvgl\src\lv_misc/lv_printf.c ****   }
 265:..\..\..\lvgl\version_6.1.2\lvgl\src\lv_misc/lv_printf.c **** 
 266:..\..\..\lvgl\version_6.1.2\lvgl\src\lv_misc/lv_printf.c ****   // write if precision != 0 and value is != 0
 267:..\..\..\lvgl\version_6.1.2\lvgl\src\lv_misc/lv_printf.c ****   if (!(flags & FLAGS_PRECISION) || value) {
 268:..\..\..\lvgl\version_6.1.2\lvgl\src\lv_misc/lv_printf.c ****     do {
 269:..\..\..\lvgl\version_6.1.2\lvgl\src\lv_misc/lv_printf.c ****       const char digit = (char)(value % base);
 270:..\..\..\lvgl\version_6.1.2\lvgl\src\lv_misc/lv_printf.c ****       buf[len++] = digit < 10 ? '0' + digit : (flags & FLAGS_UPPERCASE ? 'A' : 'a') + digit - 10;
 271:..\..\..\lvgl\version_6.1.2\lvgl\src\lv_misc/lv_printf.c ****       value /= base;
 272:..\..\..\lvgl\version_6.1.2\lvgl\src\lv_misc/lv_printf.c ****     } while (value && (len < PRINTF_NTOA_BUFFER_SIZE));
 273:..\..\..\lvgl\version_6.1.2\lvgl\src\lv_misc/lv_printf.c ****   }
 274:..\..\..\lvgl\version_6.1.2\lvgl\src\lv_misc/lv_printf.c **** 
 275:..\..\..\lvgl\version_6.1.2\lvgl\src\lv_misc/lv_printf.c ****   return _ntoa_format(out, buffer, idx, maxlen, buf, len, negative, (unsigned int)base, prec, width
 276:..\..\..\lvgl\version_6.1.2\lvgl\src\lv_misc/lv_printf.c **** }
 277:..\..\..\lvgl\version_6.1.2\lvgl\src\lv_misc/lv_printf.c **** 
 278:..\..\..\lvgl\version_6.1.2\lvgl\src\lv_misc/lv_printf.c **** 
 279:..\..\..\lvgl\version_6.1.2\lvgl\src\lv_misc/lv_printf.c **** // internal itoa for 'long long' type
 280:..\..\..\lvgl\version_6.1.2\lvgl\src\lv_misc/lv_printf.c **** #if defined(PRINTF_SUPPORT_LONG_LONG)
 281:..\..\..\lvgl\version_6.1.2\lvgl\src\lv_misc/lv_printf.c **** static size_t _ntoa_long_long(out_fct_type out, char* buffer, size_t idx, size_t maxlen, unsigned l
 282:..\..\..\lvgl\version_6.1.2\lvgl\src\lv_misc/lv_printf.c **** {
 283:..\..\..\lvgl\version_6.1.2\lvgl\src\lv_misc/lv_printf.c ****   char buf[PRINTF_NTOA_BUFFER_SIZE];
 284:..\..\..\lvgl\version_6.1.2\lvgl\src\lv_misc/lv_printf.c ****   size_t len = 0U;
 285:..\..\..\lvgl\version_6.1.2\lvgl\src\lv_misc/lv_printf.c **** 
 286:..\..\..\lvgl\version_6.1.2\lvgl\src\lv_misc/lv_printf.c ****   // no hash for 0 values
 287:..\..\..\lvgl\version_6.1.2\lvgl\src\lv_misc/lv_printf.c ****   if (!value) {
 288:..\..\..\lvgl\version_6.1.2\lvgl\src\lv_misc/lv_printf.c ****     flags &= ~FLAGS_HASH;
 289:..\..\..\lvgl\version_6.1.2\lvgl\src\lv_misc/lv_printf.c ****   }
 290:..\..\..\lvgl\version_6.1.2\lvgl\src\lv_misc/lv_printf.c **** 
 291:..\..\..\lvgl\version_6.1.2\lvgl\src\lv_misc/lv_printf.c ****   // write if precision != 0 and value is != 0
 292:..\..\..\lvgl\version_6.1.2\lvgl\src\lv_misc/lv_printf.c ****   if (!(flags & FLAGS_PRECISION) || value) {
 293:..\..\..\lvgl\version_6.1.2\lvgl\src\lv_misc/lv_printf.c ****     do {
 294:..\..\..\lvgl\version_6.1.2\lvgl\src\lv_misc/lv_printf.c ****       const char digit = (char)(value % base);
 295:..\..\..\lvgl\version_6.1.2\lvgl\src\lv_misc/lv_printf.c ****       buf[len++] = digit < 10 ? '0' + digit : (flags & FLAGS_UPPERCASE ? 'A' : 'a') + digit - 10;
 296:..\..\..\lvgl\version_6.1.2\lvgl\src\lv_misc/lv_printf.c ****       value /= base;
 297:..\..\..\lvgl\version_6.1.2\lvgl\src\lv_misc/lv_printf.c ****     } while (value && (len < PRINTF_NTOA_BUFFER_SIZE));
 298:..\..\..\lvgl\version_6.1.2\lvgl\src\lv_misc/lv_printf.c ****   }
 299:..\..\..\lvgl\version_6.1.2\lvgl\src\lv_misc/lv_printf.c **** 
 300:..\..\..\lvgl\version_6.1.2\lvgl\src\lv_misc/lv_printf.c ****   return _ntoa_format(out, buffer, idx, maxlen, buf, len, negative, (unsigned int)base, prec, width
 301:..\..\..\lvgl\version_6.1.2\lvgl\src\lv_misc/lv_printf.c **** }
 302:..\..\..\lvgl\version_6.1.2\lvgl\src\lv_misc/lv_printf.c **** #endif  // PRINTF_SUPPORT_LONG_LONG
 303:..\..\..\lvgl\version_6.1.2\lvgl\src\lv_misc/lv_printf.c **** 
 304:..\..\..\lvgl\version_6.1.2\lvgl\src\lv_misc/lv_printf.c **** 
 305:..\..\..\lvgl\version_6.1.2\lvgl\src\lv_misc/lv_printf.c **** #if defined(PRINTF_SUPPORT_FLOAT)
 306:..\..\..\lvgl\version_6.1.2\lvgl\src\lv_misc/lv_printf.c **** 
 307:..\..\..\lvgl\version_6.1.2\lvgl\src\lv_misc/lv_printf.c **** #if defined(PRINTF_SUPPORT_EXPONENTIAL)
 308:..\..\..\lvgl\version_6.1.2\lvgl\src\lv_misc/lv_printf.c **** // forward declaration so that _ftoa can switch to exp notation for values > PRINTF_MAX_FLOAT
 309:..\..\..\lvgl\version_6.1.2\lvgl\src\lv_misc/lv_printf.c **** static size_t _etoa(out_fct_type out, char* buffer, size_t idx, size_t maxlen, double value, unsign
 310:..\..\..\lvgl\version_6.1.2\lvgl\src\lv_misc/lv_printf.c **** #endif
 311:..\..\..\lvgl\version_6.1.2\lvgl\src\lv_misc/lv_printf.c **** 
 312:..\..\..\lvgl\version_6.1.2\lvgl\src\lv_misc/lv_printf.c **** 
ARM GAS  C:\Users\pearlstl\AppData\Local\Temp\ccbpFzqf.s 			page 17


 313:..\..\..\lvgl\version_6.1.2\lvgl\src\lv_misc/lv_printf.c **** // internal ftoa for fixed decimal floating point
 314:..\..\..\lvgl\version_6.1.2\lvgl\src\lv_misc/lv_printf.c **** static size_t _ftoa(out_fct_type out, char* buffer, size_t idx, size_t maxlen, double value, unsign
 315:..\..\..\lvgl\version_6.1.2\lvgl\src\lv_misc/lv_printf.c **** {
 316:..\..\..\lvgl\version_6.1.2\lvgl\src\lv_misc/lv_printf.c ****   char buf[PRINTF_FTOA_BUFFER_SIZE];
 317:..\..\..\lvgl\version_6.1.2\lvgl\src\lv_misc/lv_printf.c ****   size_t len  = 0U;
 318:..\..\..\lvgl\version_6.1.2\lvgl\src\lv_misc/lv_printf.c ****   double diff = 0.0;
 319:..\..\..\lvgl\version_6.1.2\lvgl\src\lv_misc/lv_printf.c **** 
 320:..\..\..\lvgl\version_6.1.2\lvgl\src\lv_misc/lv_printf.c ****   // powers of 10
 321:..\..\..\lvgl\version_6.1.2\lvgl\src\lv_misc/lv_printf.c ****   static const double pow10[] = { 1, 10, 100, 1000, 10000, 100000, 1000000, 10000000, 100000000, 10
 322:..\..\..\lvgl\version_6.1.2\lvgl\src\lv_misc/lv_printf.c **** 
 323:..\..\..\lvgl\version_6.1.2\lvgl\src\lv_misc/lv_printf.c ****   // test for special values
 324:..\..\..\lvgl\version_6.1.2\lvgl\src\lv_misc/lv_printf.c ****   if (value != value)
 325:..\..\..\lvgl\version_6.1.2\lvgl\src\lv_misc/lv_printf.c ****     return _out_rev(out, buffer, idx, maxlen, "nan", 3, width, flags);
 326:..\..\..\lvgl\version_6.1.2\lvgl\src\lv_misc/lv_printf.c ****   if (value < -DBL_MAX)
 327:..\..\..\lvgl\version_6.1.2\lvgl\src\lv_misc/lv_printf.c ****     return _out_rev(out, buffer, idx, maxlen, "fni-", 4, width, flags);
 328:..\..\..\lvgl\version_6.1.2\lvgl\src\lv_misc/lv_printf.c ****   if (value > DBL_MAX)
 329:..\..\..\lvgl\version_6.1.2\lvgl\src\lv_misc/lv_printf.c ****     return _out_rev(out, buffer, idx, maxlen, (flags & FLAGS_PLUS) ? "fni+" : "fni", (flags & FLAGS
 330:..\..\..\lvgl\version_6.1.2\lvgl\src\lv_misc/lv_printf.c **** 
 331:..\..\..\lvgl\version_6.1.2\lvgl\src\lv_misc/lv_printf.c ****   // test for very large values
 332:..\..\..\lvgl\version_6.1.2\lvgl\src\lv_misc/lv_printf.c ****   // standard printf behavior is to print EVERY whole number digit -- which could be 100s of charac
 333:..\..\..\lvgl\version_6.1.2\lvgl\src\lv_misc/lv_printf.c ****   if ((value > PRINTF_MAX_FLOAT) || (value < -PRINTF_MAX_FLOAT)) {
 334:..\..\..\lvgl\version_6.1.2\lvgl\src\lv_misc/lv_printf.c **** #if defined(PRINTF_SUPPORT_EXPONENTIAL)
 335:..\..\..\lvgl\version_6.1.2\lvgl\src\lv_misc/lv_printf.c ****     return _etoa(out, buffer, idx, maxlen, value, prec, width, flags);
 336:..\..\..\lvgl\version_6.1.2\lvgl\src\lv_misc/lv_printf.c **** #else
 337:..\..\..\lvgl\version_6.1.2\lvgl\src\lv_misc/lv_printf.c ****     return 0U;
 338:..\..\..\lvgl\version_6.1.2\lvgl\src\lv_misc/lv_printf.c **** #endif
 339:..\..\..\lvgl\version_6.1.2\lvgl\src\lv_misc/lv_printf.c ****   }
 340:..\..\..\lvgl\version_6.1.2\lvgl\src\lv_misc/lv_printf.c **** 
 341:..\..\..\lvgl\version_6.1.2\lvgl\src\lv_misc/lv_printf.c ****   // test for negative
 342:..\..\..\lvgl\version_6.1.2\lvgl\src\lv_misc/lv_printf.c ****   bool negative = false;
 343:..\..\..\lvgl\version_6.1.2\lvgl\src\lv_misc/lv_printf.c ****   if (value < 0) {
 344:..\..\..\lvgl\version_6.1.2\lvgl\src\lv_misc/lv_printf.c ****     negative = true;
 345:..\..\..\lvgl\version_6.1.2\lvgl\src\lv_misc/lv_printf.c ****     value = 0 - value;
 346:..\..\..\lvgl\version_6.1.2\lvgl\src\lv_misc/lv_printf.c ****   }
 347:..\..\..\lvgl\version_6.1.2\lvgl\src\lv_misc/lv_printf.c **** 
 348:..\..\..\lvgl\version_6.1.2\lvgl\src\lv_misc/lv_printf.c ****   // set default precision, if not set explicitly
 349:..\..\..\lvgl\version_6.1.2\lvgl\src\lv_misc/lv_printf.c ****   if (!(flags & FLAGS_PRECISION)) {
 350:..\..\..\lvgl\version_6.1.2\lvgl\src\lv_misc/lv_printf.c ****     prec = PRINTF_DEFAULT_FLOAT_PRECISION;
 351:..\..\..\lvgl\version_6.1.2\lvgl\src\lv_misc/lv_printf.c ****   }
 352:..\..\..\lvgl\version_6.1.2\lvgl\src\lv_misc/lv_printf.c ****   // limit precision to 9, cause a prec >= 10 can lead to overflow errors
 353:..\..\..\lvgl\version_6.1.2\lvgl\src\lv_misc/lv_printf.c ****   while ((len < PRINTF_FTOA_BUFFER_SIZE) && (prec > 9U)) {
 354:..\..\..\lvgl\version_6.1.2\lvgl\src\lv_misc/lv_printf.c ****     buf[len++] = '0';
 355:..\..\..\lvgl\version_6.1.2\lvgl\src\lv_misc/lv_printf.c ****     prec--;
 356:..\..\..\lvgl\version_6.1.2\lvgl\src\lv_misc/lv_printf.c ****   }
 357:..\..\..\lvgl\version_6.1.2\lvgl\src\lv_misc/lv_printf.c **** 
 358:..\..\..\lvgl\version_6.1.2\lvgl\src\lv_misc/lv_printf.c ****   int whole = (int)value;
 359:..\..\..\lvgl\version_6.1.2\lvgl\src\lv_misc/lv_printf.c ****   double tmp = (value - whole) * pow10[prec];
 360:..\..\..\lvgl\version_6.1.2\lvgl\src\lv_misc/lv_printf.c ****   unsigned long frac = (unsigned long)tmp;
 361:..\..\..\lvgl\version_6.1.2\lvgl\src\lv_misc/lv_printf.c ****   diff = tmp - frac;
 362:..\..\..\lvgl\version_6.1.2\lvgl\src\lv_misc/lv_printf.c **** 
 363:..\..\..\lvgl\version_6.1.2\lvgl\src\lv_misc/lv_printf.c ****   if (diff > 0.5) {
 364:..\..\..\lvgl\version_6.1.2\lvgl\src\lv_misc/lv_printf.c ****     ++frac;
 365:..\..\..\lvgl\version_6.1.2\lvgl\src\lv_misc/lv_printf.c ****     // handle rollover, e.g. case 0.99 with prec 1 is 1.0
 366:..\..\..\lvgl\version_6.1.2\lvgl\src\lv_misc/lv_printf.c ****     if (frac >= pow10[prec]) {
 367:..\..\..\lvgl\version_6.1.2\lvgl\src\lv_misc/lv_printf.c ****       frac = 0;
 368:..\..\..\lvgl\version_6.1.2\lvgl\src\lv_misc/lv_printf.c ****       ++whole;
 369:..\..\..\lvgl\version_6.1.2\lvgl\src\lv_misc/lv_printf.c ****     }
ARM GAS  C:\Users\pearlstl\AppData\Local\Temp\ccbpFzqf.s 			page 18


 370:..\..\..\lvgl\version_6.1.2\lvgl\src\lv_misc/lv_printf.c ****   }
 371:..\..\..\lvgl\version_6.1.2\lvgl\src\lv_misc/lv_printf.c ****   else if (diff < 0.5) {
 372:..\..\..\lvgl\version_6.1.2\lvgl\src\lv_misc/lv_printf.c ****   }
 373:..\..\..\lvgl\version_6.1.2\lvgl\src\lv_misc/lv_printf.c ****   else if ((frac == 0U) || (frac & 1U)) {
 374:..\..\..\lvgl\version_6.1.2\lvgl\src\lv_misc/lv_printf.c ****     // if halfway, round up if odd OR if last digit is 0
 375:..\..\..\lvgl\version_6.1.2\lvgl\src\lv_misc/lv_printf.c ****     ++frac;
 376:..\..\..\lvgl\version_6.1.2\lvgl\src\lv_misc/lv_printf.c ****   }
 377:..\..\..\lvgl\version_6.1.2\lvgl\src\lv_misc/lv_printf.c **** 
 378:..\..\..\lvgl\version_6.1.2\lvgl\src\lv_misc/lv_printf.c ****   if (prec == 0U) {
 379:..\..\..\lvgl\version_6.1.2\lvgl\src\lv_misc/lv_printf.c ****     diff = value - (double)whole;
 380:..\..\..\lvgl\version_6.1.2\lvgl\src\lv_misc/lv_printf.c ****     if ((!(diff < 0.5) || (diff > 0.5)) && (whole & 1)) {
 381:..\..\..\lvgl\version_6.1.2\lvgl\src\lv_misc/lv_printf.c ****       // exactly 0.5 and ODD, then round up
 382:..\..\..\lvgl\version_6.1.2\lvgl\src\lv_misc/lv_printf.c ****       // 1.5 -> 2, but 2.5 -> 2
 383:..\..\..\lvgl\version_6.1.2\lvgl\src\lv_misc/lv_printf.c ****       ++whole;
 384:..\..\..\lvgl\version_6.1.2\lvgl\src\lv_misc/lv_printf.c ****     }
 385:..\..\..\lvgl\version_6.1.2\lvgl\src\lv_misc/lv_printf.c ****   }
 386:..\..\..\lvgl\version_6.1.2\lvgl\src\lv_misc/lv_printf.c ****   else {
 387:..\..\..\lvgl\version_6.1.2\lvgl\src\lv_misc/lv_printf.c ****     unsigned int count = prec;
 388:..\..\..\lvgl\version_6.1.2\lvgl\src\lv_misc/lv_printf.c ****     // now do fractional part, as an unsigned number
 389:..\..\..\lvgl\version_6.1.2\lvgl\src\lv_misc/lv_printf.c ****     while (len < PRINTF_FTOA_BUFFER_SIZE) {
 390:..\..\..\lvgl\version_6.1.2\lvgl\src\lv_misc/lv_printf.c ****       --count;
 391:..\..\..\lvgl\version_6.1.2\lvgl\src\lv_misc/lv_printf.c ****       buf[len++] = (char)(48U + (frac % 10U));
 392:..\..\..\lvgl\version_6.1.2\lvgl\src\lv_misc/lv_printf.c ****       if (!(frac /= 10U)) {
 393:..\..\..\lvgl\version_6.1.2\lvgl\src\lv_misc/lv_printf.c ****         break;
 394:..\..\..\lvgl\version_6.1.2\lvgl\src\lv_misc/lv_printf.c ****       }
 395:..\..\..\lvgl\version_6.1.2\lvgl\src\lv_misc/lv_printf.c ****     }
 396:..\..\..\lvgl\version_6.1.2\lvgl\src\lv_misc/lv_printf.c ****     // add extra 0s
 397:..\..\..\lvgl\version_6.1.2\lvgl\src\lv_misc/lv_printf.c ****     while ((len < PRINTF_FTOA_BUFFER_SIZE) && (count-- > 0U)) {
 398:..\..\..\lvgl\version_6.1.2\lvgl\src\lv_misc/lv_printf.c ****       buf[len++] = '0';
 399:..\..\..\lvgl\version_6.1.2\lvgl\src\lv_misc/lv_printf.c ****     }
 400:..\..\..\lvgl\version_6.1.2\lvgl\src\lv_misc/lv_printf.c ****     if (len < PRINTF_FTOA_BUFFER_SIZE) {
 401:..\..\..\lvgl\version_6.1.2\lvgl\src\lv_misc/lv_printf.c ****       // add decimal
 402:..\..\..\lvgl\version_6.1.2\lvgl\src\lv_misc/lv_printf.c ****       buf[len++] = '.';
 403:..\..\..\lvgl\version_6.1.2\lvgl\src\lv_misc/lv_printf.c ****     }
 404:..\..\..\lvgl\version_6.1.2\lvgl\src\lv_misc/lv_printf.c ****   }
 405:..\..\..\lvgl\version_6.1.2\lvgl\src\lv_misc/lv_printf.c **** 
 406:..\..\..\lvgl\version_6.1.2\lvgl\src\lv_misc/lv_printf.c ****   // do whole part, number is reversed
 407:..\..\..\lvgl\version_6.1.2\lvgl\src\lv_misc/lv_printf.c ****   while (len < PRINTF_FTOA_BUFFER_SIZE) {
 408:..\..\..\lvgl\version_6.1.2\lvgl\src\lv_misc/lv_printf.c ****     buf[len++] = (char)(48 + (whole % 10));
 409:..\..\..\lvgl\version_6.1.2\lvgl\src\lv_misc/lv_printf.c ****     if (!(whole /= 10)) {
 410:..\..\..\lvgl\version_6.1.2\lvgl\src\lv_misc/lv_printf.c ****       break;
 411:..\..\..\lvgl\version_6.1.2\lvgl\src\lv_misc/lv_printf.c ****     }
 412:..\..\..\lvgl\version_6.1.2\lvgl\src\lv_misc/lv_printf.c ****   }
 413:..\..\..\lvgl\version_6.1.2\lvgl\src\lv_misc/lv_printf.c **** 
 414:..\..\..\lvgl\version_6.1.2\lvgl\src\lv_misc/lv_printf.c ****   // pad leading zeros
 415:..\..\..\lvgl\version_6.1.2\lvgl\src\lv_misc/lv_printf.c ****   if (!(flags & FLAGS_LEFT) && (flags & FLAGS_ZEROPAD)) {
 416:..\..\..\lvgl\version_6.1.2\lvgl\src\lv_misc/lv_printf.c ****     if (width && (negative || (flags & (FLAGS_PLUS | FLAGS_SPACE)))) {
 417:..\..\..\lvgl\version_6.1.2\lvgl\src\lv_misc/lv_printf.c ****       width--;
 418:..\..\..\lvgl\version_6.1.2\lvgl\src\lv_misc/lv_printf.c ****     }
 419:..\..\..\lvgl\version_6.1.2\lvgl\src\lv_misc/lv_printf.c ****     while ((len < width) && (len < PRINTF_FTOA_BUFFER_SIZE)) {
 420:..\..\..\lvgl\version_6.1.2\lvgl\src\lv_misc/lv_printf.c ****       buf[len++] = '0';
 421:..\..\..\lvgl\version_6.1.2\lvgl\src\lv_misc/lv_printf.c ****     }
 422:..\..\..\lvgl\version_6.1.2\lvgl\src\lv_misc/lv_printf.c ****   }
 423:..\..\..\lvgl\version_6.1.2\lvgl\src\lv_misc/lv_printf.c **** 
 424:..\..\..\lvgl\version_6.1.2\lvgl\src\lv_misc/lv_printf.c ****   if (len < PRINTF_FTOA_BUFFER_SIZE) {
 425:..\..\..\lvgl\version_6.1.2\lvgl\src\lv_misc/lv_printf.c ****     if (negative) {
 426:..\..\..\lvgl\version_6.1.2\lvgl\src\lv_misc/lv_printf.c ****       buf[len++] = '-';
ARM GAS  C:\Users\pearlstl\AppData\Local\Temp\ccbpFzqf.s 			page 19


 427:..\..\..\lvgl\version_6.1.2\lvgl\src\lv_misc/lv_printf.c ****     }
 428:..\..\..\lvgl\version_6.1.2\lvgl\src\lv_misc/lv_printf.c ****     else if (flags & FLAGS_PLUS) {
 429:..\..\..\lvgl\version_6.1.2\lvgl\src\lv_misc/lv_printf.c ****       buf[len++] = '+';  // ignore the space if the '+' exists
 430:..\..\..\lvgl\version_6.1.2\lvgl\src\lv_misc/lv_printf.c ****     }
 431:..\..\..\lvgl\version_6.1.2\lvgl\src\lv_misc/lv_printf.c ****     else if (flags & FLAGS_SPACE) {
 432:..\..\..\lvgl\version_6.1.2\lvgl\src\lv_misc/lv_printf.c ****       buf[len++] = ' ';
 433:..\..\..\lvgl\version_6.1.2\lvgl\src\lv_misc/lv_printf.c ****     }
 434:..\..\..\lvgl\version_6.1.2\lvgl\src\lv_misc/lv_printf.c ****   }
 435:..\..\..\lvgl\version_6.1.2\lvgl\src\lv_misc/lv_printf.c **** 
 436:..\..\..\lvgl\version_6.1.2\lvgl\src\lv_misc/lv_printf.c ****   return _out_rev(out, buffer, idx, maxlen, buf, len, width, flags);
 437:..\..\..\lvgl\version_6.1.2\lvgl\src\lv_misc/lv_printf.c **** }
 438:..\..\..\lvgl\version_6.1.2\lvgl\src\lv_misc/lv_printf.c **** 
 439:..\..\..\lvgl\version_6.1.2\lvgl\src\lv_misc/lv_printf.c **** 
 440:..\..\..\lvgl\version_6.1.2\lvgl\src\lv_misc/lv_printf.c **** #if defined(PRINTF_SUPPORT_EXPONENTIAL)
 441:..\..\..\lvgl\version_6.1.2\lvgl\src\lv_misc/lv_printf.c **** // internal ftoa variant for exponential floating-point type, contributed by Martijn Jasperse <m.ja
 442:..\..\..\lvgl\version_6.1.2\lvgl\src\lv_misc/lv_printf.c **** static size_t _etoa(out_fct_type out, char* buffer, size_t idx, size_t maxlen, double value, unsign
 443:..\..\..\lvgl\version_6.1.2\lvgl\src\lv_misc/lv_printf.c **** {
 548              		.loc 1 443 0
 549              		.cfi_startproc
 550              		@ args = 20, pretend = 0, frame = 64
 551              		@ frame_needed = 0, uses_anonymous_args = 0
 552              	.LVL72:
 553 0000 2DE9F04F 		push	{r4, r5, r6, r7, r8, r9, r10, fp, lr}
 554              		.cfi_def_cfa_offset 36
 555              		.cfi_offset 4, -36
 556              		.cfi_offset 5, -32
 557              		.cfi_offset 6, -28
 558              		.cfi_offset 7, -24
 559              		.cfi_offset 8, -20
 560              		.cfi_offset 9, -16
 561              		.cfi_offset 10, -12
 562              		.cfi_offset 11, -8
 563              		.cfi_offset 14, -4
 564 0004 99B0     		sub	sp, sp, #100
 565              		.cfi_def_cfa_offset 136
 566              		.loc 1 443 0
 567 0006 0546     		mov	r5, r0
 568 0008 0E46     		mov	r6, r1
 444:..\..\..\lvgl\version_6.1.2\lvgl\src\lv_misc/lv_printf.c ****   // check for NaN and special values
 445:..\..\..\lvgl\version_6.1.2\lvgl\src\lv_misc/lv_printf.c ****   if ((value != value) || (value > DBL_MAX) || (value < -DBL_MAX)) {
 569              		.loc 1 445 0
 570 000a DDE92201 		ldrd	r0, [sp, #136]
 571              	.LVL73:
 443:..\..\..\lvgl\version_6.1.2\lvgl\src\lv_misc/lv_printf.c ****   // check for NaN and special values
 572              		.loc 1 443 0
 573 000e 9246     		mov	r10, r2
 574 0010 1F46     		mov	r7, r3
 575              		.loc 1 445 0
 576 0012 0246     		mov	r2, r0
 577              	.LVL74:
 578 0014 0B46     		mov	r3, r1
 579              	.LVL75:
 580 0016 FFF7FEFF 		bl	__aeabi_dcmpeq
 581              	.LVL76:
 582 001a 0028     		cmp	r0, #0
 583 001c 00F00282 		beq	.L93
 584              		.loc 1 445 0 is_stmt 0 discriminator 1
ARM GAS  C:\Users\pearlstl\AppData\Local\Temp\ccbpFzqf.s 			page 20


 585 0020 4FF0FF32 		mov	r2, #-1
 586 0024 C24B     		ldr	r3, .L223+64
 587 0026 DDE92201 		ldrd	r0, [sp, #136]
 588 002a FFF7FEFF 		bl	__aeabi_dcmpgt
 589              	.LVL77:
 590              	.LBB93:
 591              	.LBB94:
 326:..\..\..\lvgl\version_6.1.2\lvgl\src\lv_misc/lv_printf.c ****     return _out_rev(out, buffer, idx, maxlen, "fni-", 4, width, flags);
 592              		.loc 1 326 0 is_stmt 1 discriminator 1
 593 002e 4FF0FF32 		mov	r2, #-1
 594 0032 6FF48013 		mvn	r3, #1048576
 595              	.LBE94:
 596              	.LBE93:
 597              		.loc 1 445 0 discriminator 1
 598 0036 0028     		cmp	r0, #0
 599 0038 40F0CB81 		bne	.L94
 600              		.loc 1 445 0 is_stmt 0 discriminator 2
 601 003c DDE92201 		ldrd	r0, [sp, #136]
 602 0040 FFF7FEFF 		bl	__aeabi_dcmplt
 603              	.LVL78:
 604 0044 0028     		cmp	r0, #0
 605 0046 40F02582 		bne	.L95
 606              	.LVL79:
 607              	.LBB110:
 608              	.LBB111:
 446:..\..\..\lvgl\version_6.1.2\lvgl\src\lv_misc/lv_printf.c ****     return _ftoa(out, buffer, idx, maxlen, value, prec, width, flags);
 447:..\..\..\lvgl\version_6.1.2\lvgl\src\lv_misc/lv_printf.c ****   }
 448:..\..\..\lvgl\version_6.1.2\lvgl\src\lv_misc/lv_printf.c **** 
 449:..\..\..\lvgl\version_6.1.2\lvgl\src\lv_misc/lv_printf.c ****   // determine the sign
 450:..\..\..\lvgl\version_6.1.2\lvgl\src\lv_misc/lv_printf.c ****   const bool negative = value < 0;
 451:..\..\..\lvgl\version_6.1.2\lvgl\src\lv_misc/lv_printf.c ****   if (negative) {
 609              		.loc 1 451 0 is_stmt 1
 610 004a 0022     		movs	r2, #0
 611 004c 0023     		movs	r3, #0
 612 004e DDE92201 		ldrd	r0, [sp, #136]
 613 0052 FFF7FEFF 		bl	__aeabi_dcmplt
 614              	.LVL80:
 615 0056 0028     		cmp	r0, #0
 616 0058 40F05682 		bne	.L216
 617 005c 9DED227B 		vldr.64	d7, [sp, #136]
 618 0060 8DED087B 		vstr.64	d7, [sp, #32]
 619 0064 0998     		ldr	r0, [sp, #36]
 620              	.LVL81:
 621              	.L108:
 452:..\..\..\lvgl\version_6.1.2\lvgl\src\lv_misc/lv_printf.c ****     value = -value;
 453:..\..\..\lvgl\version_6.1.2\lvgl\src\lv_misc/lv_printf.c ****   }
 454:..\..\..\lvgl\version_6.1.2\lvgl\src\lv_misc/lv_printf.c **** 
 455:..\..\..\lvgl\version_6.1.2\lvgl\src\lv_misc/lv_printf.c ****   // default precision
 456:..\..\..\lvgl\version_6.1.2\lvgl\src\lv_misc/lv_printf.c ****   if (!(flags & FLAGS_PRECISION)) {
 457:..\..\..\lvgl\version_6.1.2\lvgl\src\lv_misc/lv_printf.c ****     prec = PRINTF_DEFAULT_FLOAT_PRECISION;
 622              		.loc 1 457 0
 623 0066 269B     		ldr	r3, [sp, #152]
 458:..\..\..\lvgl\version_6.1.2\lvgl\src\lv_misc/lv_printf.c ****   }
 459:..\..\..\lvgl\version_6.1.2\lvgl\src\lv_misc/lv_printf.c **** 
 460:..\..\..\lvgl\version_6.1.2\lvgl\src\lv_misc/lv_printf.c ****   // determine the decimal exponent
 461:..\..\..\lvgl\version_6.1.2\lvgl\src\lv_misc/lv_printf.c ****   // based on the algorithm by David Gay (https://www.ampl.com/netlib/fp/dtoa.c)
 462:..\..\..\lvgl\version_6.1.2\lvgl\src\lv_misc/lv_printf.c ****   union {
ARM GAS  C:\Users\pearlstl\AppData\Local\Temp\ccbpFzqf.s 			page 21


 463:..\..\..\lvgl\version_6.1.2\lvgl\src\lv_misc/lv_printf.c ****     uint64_t U;
 464:..\..\..\lvgl\version_6.1.2\lvgl\src\lv_misc/lv_printf.c ****     double   F;
 465:..\..\..\lvgl\version_6.1.2\lvgl\src\lv_misc/lv_printf.c ****   } conv;
 466:..\..\..\lvgl\version_6.1.2\lvgl\src\lv_misc/lv_printf.c **** 
 467:..\..\..\lvgl\version_6.1.2\lvgl\src\lv_misc/lv_printf.c ****   conv.F = value;
 468:..\..\..\lvgl\version_6.1.2\lvgl\src\lv_misc/lv_printf.c ****   int exp2 = (int)((conv.U >> 52U) & 0x07FFU) - 1023;           // effectively log2
 469:..\..\..\lvgl\version_6.1.2\lvgl\src\lv_misc/lv_printf.c ****   conv.U = (conv.U & ((1ULL << 52U) - 1U)) | (1023ULL << 52U);  // drop the exponent so conv.F is n
 470:..\..\..\lvgl\version_6.1.2\lvgl\src\lv_misc/lv_printf.c ****   // now approximate log10 from the log2 integer part and an expansion of ln around 1.5
 471:..\..\..\lvgl\version_6.1.2\lvgl\src\lv_misc/lv_printf.c ****   int expval = (int)(0.1760912590558 + exp2 * 0.301029995663981 + (conv.F - 1.5) * 0.28952965460216
 624              		.loc 1 471 0
 625 0068 C0F30A50 		ubfx	r0, r0, #20, #11
 457:..\..\..\lvgl\version_6.1.2\lvgl\src\lv_misc/lv_printf.c ****   }
 626              		.loc 1 457 0
 627 006c 13F48063 		ands	r3, r3, #1024
 628 0070 0F93     		str	r3, [sp, #60]
 629              		.loc 1 471 0
 630 0072 A0F2FF30 		subw	r0, r0, #1023
 457:..\..\..\lvgl\version_6.1.2\lvgl\src\lv_misc/lv_printf.c ****   }
 631              		.loc 1 457 0
 632 0076 249B     		ldr	r3, [sp, #144]
 633 0078 08BF     		it	eq
 634 007a 0623     		moveq	r3, #6
 635 007c 2493     		str	r3, [sp, #144]
 636              	.LVL82:
 637              		.loc 1 471 0
 638 007e FFF7FEFF 		bl	__aeabi_i2d
 639              	.LVL83:
 640 0082 9BA3     		adr	r3, .L223
 641 0084 D3E90023 		ldrd	r2, [r3]
 642 0088 FFF7FEFF 		bl	__aeabi_dmul
 643              	.LVL84:
 644 008c 9AA3     		adr	r3, .L223+8
 645 008e D3E90023 		ldrd	r2, [r3]
 646 0092 FFF7FEFF 		bl	__aeabi_dadd
 647              	.LVL85:
 469:..\..\..\lvgl\version_6.1.2\lvgl\src\lv_misc/lv_printf.c ****   // now approximate log10 from the log2 integer part and an expansion of ln around 1.5
 648              		.loc 1 469 0
 649 0096 DDE908BC 		ldrd	fp, [sp, #32]
 650 009a A64B     		ldr	r3, .L223+68
 651 009c 4FF0FF32 		mov	r2, #-1
 652 00a0 0CEA030C 		and	ip, ip, r3
 653              		.loc 1 471 0
 654 00a4 8946     		mov	r9, r1
 469:..\..\..\lvgl\version_6.1.2\lvgl\src\lv_misc/lv_printf.c ****   // now approximate log10 from the log2 integer part and an expansion of ln around 1.5
 655              		.loc 1 469 0
 656 00a6 0BEA020B 		and	fp, fp, r2
 657 00aa A349     		ldr	r1, .L223+72
 658 00ac 6346     		mov	r3, ip
 659              		.loc 1 471 0
 660 00ae 8046     		mov	r8, r0
 469:..\..\..\lvgl\version_6.1.2\lvgl\src\lv_misc/lv_printf.c ****   // now approximate log10 from the log2 integer part and an expansion of ln around 1.5
 661              		.loc 1 469 0
 662 00b0 5A46     		mov	r2, fp
 663 00b2 0020     		movs	r0, #0
 664              		.loc 1 471 0
 665 00b4 1043     		orrs	r0, r0, r2
 666 00b6 1943     		orrs	r1, r1, r3
ARM GAS  C:\Users\pearlstl\AppData\Local\Temp\ccbpFzqf.s 			page 22


 667 00b8 0022     		movs	r2, #0
 668 00ba A04B     		ldr	r3, .L223+76
 669 00bc FFF7FEFF 		bl	__aeabi_dsub
 670              	.LVL86:
 671 00c0 8FA3     		adr	r3, .L223+16
 672 00c2 D3E90023 		ldrd	r2, [r3]
 673 00c6 FFF7FEFF 		bl	__aeabi_dmul
 674              	.LVL87:
 675 00ca 0246     		mov	r2, r0
 676 00cc 0B46     		mov	r3, r1
 677 00ce 4046     		mov	r0, r8
 678 00d0 4946     		mov	r1, r9
 679 00d2 FFF7FEFF 		bl	__aeabi_dadd
 680              	.LVL88:
 681 00d6 FFF7FEFF 		bl	__aeabi_d2iz
 682              	.LVL89:
 683 00da 8346     		mov	fp, r0
 684              	.LVL90:
 472:..\..\..\lvgl\version_6.1.2\lvgl\src\lv_misc/lv_printf.c ****   // now we want to compute 10^expval but we want to be sure it won't overflow
 473:..\..\..\lvgl\version_6.1.2\lvgl\src\lv_misc/lv_printf.c ****   exp2 = (int)(expval * 3.321928094887362 + 0.5);
 685              		.loc 1 473 0
 686 00dc FFF7FEFF 		bl	__aeabi_i2d
 687              	.LVL91:
 688 00e0 89A3     		adr	r3, .L223+24
 689 00e2 D3E90023 		ldrd	r2, [r3]
 690 00e6 8046     		mov	r8, r0
 691 00e8 8946     		mov	r9, r1
 692 00ea FFF7FEFF 		bl	__aeabi_dmul
 693              	.LVL92:
 694 00ee 0022     		movs	r2, #0
 695 00f0 934B     		ldr	r3, .L223+80
 696 00f2 FFF7FEFF 		bl	__aeabi_dadd
 697              	.LVL93:
 698 00f6 FFF7FEFF 		bl	__aeabi_d2iz
 699              	.LVL94:
 474:..\..\..\lvgl\version_6.1.2\lvgl\src\lv_misc/lv_printf.c ****   const double z  = expval * 2.302585092994046 - exp2 * 0.6931471805599453;
 700              		.loc 1 474 0
 701 00fa 85A3     		adr	r3, .L223+32
 702 00fc D3E90023 		ldrd	r2, [r3]
 473:..\..\..\lvgl\version_6.1.2\lvgl\src\lv_misc/lv_printf.c ****   const double z  = expval * 2.302585092994046 - exp2 * 0.6931471805599453;
 703              		.loc 1 473 0
 704 0100 0446     		mov	r4, r0
 705              	.LVL95:
 706              		.loc 1 474 0
 707 0102 4946     		mov	r1, r9
 708 0104 4046     		mov	r0, r8
 709              	.LVL96:
 710 0106 FFF7FEFF 		bl	__aeabi_dmul
 711              	.LVL97:
 712 010a 8046     		mov	r8, r0
 713 010c 2046     		mov	r0, r4
 714 010e 8946     		mov	r9, r1
 715 0110 FFF7FEFF 		bl	__aeabi_i2d
 716              	.LVL98:
 717 0114 80A3     		adr	r3, .L223+40
 718 0116 D3E90023 		ldrd	r2, [r3]
 719 011a FFF7FEFF 		bl	__aeabi_dmul
ARM GAS  C:\Users\pearlstl\AppData\Local\Temp\ccbpFzqf.s 			page 23


 720              	.LVL99:
 721 011e 0246     		mov	r2, r0
 722 0120 0B46     		mov	r3, r1
 723 0122 4046     		mov	r0, r8
 724 0124 4946     		mov	r1, r9
 725 0126 FFF7FEFF 		bl	__aeabi_dsub
 726              	.LVL100:
 727 012a 0246     		mov	r2, r0
 728 012c 0B46     		mov	r3, r1
 729              	.LVL101:
 475:..\..\..\lvgl\version_6.1.2\lvgl\src\lv_misc/lv_printf.c ****   const double z2 = z * z;
 730              		.loc 1 475 0
 731 012e CDE90A23 		strd	r2, [sp, #40]
 732 0132 FFF7FEFF 		bl	__aeabi_dmul
 733              	.LVL102:
 734 0136 8046     		mov	r8, r0
 735 0138 8946     		mov	r9, r1
 736              	.LVL103:
 476:..\..\..\lvgl\version_6.1.2\lvgl\src\lv_misc/lv_printf.c ****   conv.U = (uint64_t)(exp2 + 1023) << 52U;
 477:..\..\..\lvgl\version_6.1.2\lvgl\src\lv_misc/lv_printf.c ****   // compute exp(z) using continued fractions, see https://en.wikipedia.org/wiki/Exponential_functi
 478:..\..\..\lvgl\version_6.1.2\lvgl\src\lv_misc/lv_printf.c ****   conv.F *= 1 + 2 * z / (2 - z + (z2 / (6 + (z2 / (10 + z2 / 14)))));
 737              		.loc 1 478 0
 738 013a DDE90A01 		ldrd	r0, [sp, #40]
 739 013e 0246     		mov	r2, r0
 740 0140 0B46     		mov	r3, r1
 741 0142 FFF7FEFF 		bl	__aeabi_dadd
 742              	.LVL104:
 743 0146 0022     		movs	r2, #0
 744 0148 CDE90C01 		strd	r0, [sp, #48]
 745 014c 7D4B     		ldr	r3, .L223+84
 746 014e 4046     		mov	r0, r8
 747 0150 4946     		mov	r1, r9
 748 0152 FFF7FEFF 		bl	__aeabi_ddiv
 749              	.LVL105:
 750 0156 0022     		movs	r2, #0
 751 0158 7B4B     		ldr	r3, .L223+88
 752 015a FFF7FEFF 		bl	__aeabi_dadd
 753              	.LVL106:
 754 015e 0246     		mov	r2, r0
 755 0160 0B46     		mov	r3, r1
 756 0162 4046     		mov	r0, r8
 757 0164 4946     		mov	r1, r9
 758 0166 FFF7FEFF 		bl	__aeabi_ddiv
 759              	.LVL107:
 760 016a 0022     		movs	r2, #0
 761 016c 774B     		ldr	r3, .L223+92
 762 016e FFF7FEFF 		bl	__aeabi_dadd
 763              	.LVL108:
 764 0172 0246     		mov	r2, r0
 765 0174 0B46     		mov	r3, r1
 766 0176 4046     		mov	r0, r8
 767 0178 4946     		mov	r1, r9
 768 017a FFF7FEFF 		bl	__aeabi_ddiv
 769              	.LVL109:
 770 017e DDE90A23 		ldrd	r2, [sp, #40]
 771 0182 8046     		mov	r8, r0
 772              	.LVL110:
ARM GAS  C:\Users\pearlstl\AppData\Local\Temp\ccbpFzqf.s 			page 24


 773 0184 8946     		mov	r9, r1
 774 0186 0020     		movs	r0, #0
 775 0188 4FF08041 		mov	r1, #1073741824
 776 018c FFF7FEFF 		bl	__aeabi_dsub
 777              	.LVL111:
 778 0190 0246     		mov	r2, r0
 779 0192 0B46     		mov	r3, r1
 780 0194 4046     		mov	r0, r8
 781 0196 4946     		mov	r1, r9
 782 0198 FFF7FEFF 		bl	__aeabi_dadd
 783              	.LVL112:
 784 019c 0246     		mov	r2, r0
 785 019e 0B46     		mov	r3, r1
 786 01a0 DDE90C01 		ldrd	r0, [sp, #48]
 787 01a4 FFF7FEFF 		bl	__aeabi_ddiv
 788              	.LVL113:
 476:..\..\..\lvgl\version_6.1.2\lvgl\src\lv_misc/lv_printf.c ****   conv.U = (uint64_t)(exp2 + 1023) << 52U;
 789              		.loc 1 476 0
 790 01a8 04F2FF34 		addw	r4, r4, #1023
 791              	.LVL114:
 792              		.loc 1 478 0
 793 01ac 0022     		movs	r2, #0
 794 01ae 624B     		ldr	r3, .L223+72
 795 01b0 FFF7FEFF 		bl	__aeabi_dadd
 796              	.LVL115:
 476:..\..\..\lvgl\version_6.1.2\lvgl\src\lv_misc/lv_printf.c ****   conv.U = (uint64_t)(exp2 + 1023) << 52U;
 797              		.loc 1 476 0
 798 01b4 0022     		movs	r2, #0
 799 01b6 2305     		lsls	r3, r4, #20
 800              		.loc 1 478 0
 801 01b8 FFF7FEFF 		bl	__aeabi_dmul
 802              	.LVL116:
 803 01bc 8046     		mov	r8, r0
 804 01be 8946     		mov	r9, r1
 805              	.LVL117:
 479:..\..\..\lvgl\version_6.1.2\lvgl\src\lv_misc/lv_printf.c ****   // correct for rounding errors
 480:..\..\..\lvgl\version_6.1.2\lvgl\src\lv_misc/lv_printf.c ****   if (value < conv.F) {
 806              		.loc 1 480 0
 807 01c0 0246     		mov	r2, r0
 808 01c2 0B46     		mov	r3, r1
 809 01c4 DDE90801 		ldrd	r0, [sp, #32]
 810 01c8 FFF7FEFF 		bl	__aeabi_dcmplt
 811              	.LVL118:
 812 01cc 48B1     		cbz	r0, .L111
 481:..\..\..\lvgl\version_6.1.2\lvgl\src\lv_misc/lv_printf.c ****     expval--;
 482:..\..\..\lvgl\version_6.1.2\lvgl\src\lv_misc/lv_printf.c ****     conv.F /= 10;
 813              		.loc 1 482 0
 814 01ce 4046     		mov	r0, r8
 815 01d0 4946     		mov	r1, r9
 816 01d2 0022     		movs	r2, #0
 817 01d4 5C4B     		ldr	r3, .L223+88
 818 01d6 FFF7FEFF 		bl	__aeabi_ddiv
 819              	.LVL119:
 481:..\..\..\lvgl\version_6.1.2\lvgl\src\lv_misc/lv_printf.c ****     expval--;
 820              		.loc 1 481 0
 821 01da 0BF1FF3B 		add	fp, fp, #-1
 822              	.LVL120:
ARM GAS  C:\Users\pearlstl\AppData\Local\Temp\ccbpFzqf.s 			page 25


 823              		.loc 1 482 0
 824 01de 8046     		mov	r8, r0
 825              	.LVL121:
 826 01e0 8946     		mov	r9, r1
 827              	.LVL122:
 828              	.L111:
 483:..\..\..\lvgl\version_6.1.2\lvgl\src\lv_misc/lv_printf.c ****   }
 484:..\..\..\lvgl\version_6.1.2\lvgl\src\lv_misc/lv_printf.c **** 
 485:..\..\..\lvgl\version_6.1.2\lvgl\src\lv_misc/lv_printf.c ****   // the exponent format is "%+03d" and largest value is "307", so set aside 4-5 characters
 486:..\..\..\lvgl\version_6.1.2\lvgl\src\lv_misc/lv_printf.c ****   unsigned int minwidth = ((expval < 100) && (expval > -100)) ? 4U : 5U;
 829              		.loc 1 486 0
 830 01e2 0BF16303 		add	r3, fp, #99
 831 01e6 C72B     		cmp	r3, #199
 832 01e8 34BF     		ite	cc
 833 01ea 0423     		movcc	r3, #4
 834 01ec 0523     		movcs	r3, #5
 835 01ee 0A93     		str	r3, [sp, #40]
 836              	.LVL123:
 487:..\..\..\lvgl\version_6.1.2\lvgl\src\lv_misc/lv_printf.c **** 
 488:..\..\..\lvgl\version_6.1.2\lvgl\src\lv_misc/lv_printf.c ****   // in "%g" mode, "prec" is the number of *significant figures* not decimals
 489:..\..\..\lvgl\version_6.1.2\lvgl\src\lv_misc/lv_printf.c ****   if (flags & FLAGS_ADAPT_EXP) {
 837              		.loc 1 489 0
 838 01f0 269B     		ldr	r3, [sp, #152]
 839              	.LVL124:
 840 01f2 1905     		lsls	r1, r3, #20
 841 01f4 18D5     		bpl	.L114
 490:..\..\..\lvgl\version_6.1.2\lvgl\src\lv_misc/lv_printf.c ****     // do we want to fall-back to "%f" mode?
 491:..\..\..\lvgl\version_6.1.2\lvgl\src\lv_misc/lv_printf.c ****     if ((value >= 1e-4) && (value < 1e6)) {
 842              		.loc 1 491 0
 843 01f6 4AA3     		adr	r3, .L223+48
 844 01f8 D3E90023 		ldrd	r2, [r3]
 845 01fc DDE90801 		ldrd	r0, [sp, #32]
 846 0200 FFF7FEFF 		bl	__aeabi_dcmpge
 847              	.LVL125:
 848 0204 48B1     		cbz	r0, .L115
 849 0206 48A3     		adr	r3, .L223+56
 850 0208 D3E90023 		ldrd	r2, [r3]
 851 020c DDE90801 		ldrd	r0, [sp, #32]
 852 0210 FFF7FEFF 		bl	__aeabi_dcmplt
 853              	.LVL126:
 854 0214 0028     		cmp	r0, #0
 855 0216 40F0D381 		bne	.L217
 856              	.L115:
 492:..\..\..\lvgl\version_6.1.2\lvgl\src\lv_misc/lv_printf.c ****       if ((int)prec > expval) {
 493:..\..\..\lvgl\version_6.1.2\lvgl\src\lv_misc/lv_printf.c ****         prec = (unsigned)((int)prec - expval - 1);
 494:..\..\..\lvgl\version_6.1.2\lvgl\src\lv_misc/lv_printf.c ****       }
 495:..\..\..\lvgl\version_6.1.2\lvgl\src\lv_misc/lv_printf.c ****       else {
 496:..\..\..\lvgl\version_6.1.2\lvgl\src\lv_misc/lv_printf.c ****         prec = 0;
 497:..\..\..\lvgl\version_6.1.2\lvgl\src\lv_misc/lv_printf.c ****       }
 498:..\..\..\lvgl\version_6.1.2\lvgl\src\lv_misc/lv_printf.c ****       flags |= FLAGS_PRECISION;   // make sure _ftoa respects precision
 499:..\..\..\lvgl\version_6.1.2\lvgl\src\lv_misc/lv_printf.c ****       // no characters in exponent
 500:..\..\..\lvgl\version_6.1.2\lvgl\src\lv_misc/lv_printf.c ****       minwidth = 0U;
 501:..\..\..\lvgl\version_6.1.2\lvgl\src\lv_misc/lv_printf.c ****       expval   = 0;
 502:..\..\..\lvgl\version_6.1.2\lvgl\src\lv_misc/lv_printf.c ****     }
 503:..\..\..\lvgl\version_6.1.2\lvgl\src\lv_misc/lv_printf.c ****     else {
 504:..\..\..\lvgl\version_6.1.2\lvgl\src\lv_misc/lv_printf.c ****       // we use one sigfig for the whole part
 505:..\..\..\lvgl\version_6.1.2\lvgl\src\lv_misc/lv_printf.c ****       if ((prec > 0) && (flags & FLAGS_PRECISION)) {
ARM GAS  C:\Users\pearlstl\AppData\Local\Temp\ccbpFzqf.s 			page 26


 857              		.loc 1 505 0
 858 021a 249B     		ldr	r3, [sp, #144]
 859 021c 23B1     		cbz	r3, .L114
 860 021e 0F9B     		ldr	r3, [sp, #60]
 861 0220 13B1     		cbz	r3, .L114
 862              	.LVL127:
 506:..\..\..\lvgl\version_6.1.2\lvgl\src\lv_misc/lv_printf.c ****         --prec;
 863              		.loc 1 506 0
 864 0222 249B     		ldr	r3, [sp, #144]
 865 0224 013B     		subs	r3, r3, #1
 866              	.LVL128:
 867 0226 2493     		str	r3, [sp, #144]
 868              	.LVL129:
 869              	.L114:
 507:..\..\..\lvgl\version_6.1.2\lvgl\src\lv_misc/lv_printf.c ****       }
 508:..\..\..\lvgl\version_6.1.2\lvgl\src\lv_misc/lv_printf.c ****     }
 509:..\..\..\lvgl\version_6.1.2\lvgl\src\lv_misc/lv_printf.c ****   }
 510:..\..\..\lvgl\version_6.1.2\lvgl\src\lv_misc/lv_printf.c **** 
 511:..\..\..\lvgl\version_6.1.2\lvgl\src\lv_misc/lv_printf.c ****   // will everything fit?
 512:..\..\..\lvgl\version_6.1.2\lvgl\src\lv_misc/lv_printf.c ****   unsigned int fwidth = width;
 513:..\..\..\lvgl\version_6.1.2\lvgl\src\lv_misc/lv_printf.c ****   if (width > minwidth) {
 870              		.loc 1 513 0
 871 0228 259B     		ldr	r3, [sp, #148]
 872 022a 0A9A     		ldr	r2, [sp, #40]
 873 022c 1946     		mov	r1, r3
 514:..\..\..\lvgl\version_6.1.2\lvgl\src\lv_misc/lv_printf.c ****     // we didn't fall-back so subtract the characters required for the exponent
 515:..\..\..\lvgl\version_6.1.2\lvgl\src\lv_misc/lv_printf.c ****     fwidth -= minwidth;
 516:..\..\..\lvgl\version_6.1.2\lvgl\src\lv_misc/lv_printf.c ****   } else {
 517:..\..\..\lvgl\version_6.1.2\lvgl\src\lv_misc/lv_printf.c ****     // not enough characters, so go back to default sizing
 518:..\..\..\lvgl\version_6.1.2\lvgl\src\lv_misc/lv_printf.c ****     fwidth = 0U;
 519:..\..\..\lvgl\version_6.1.2\lvgl\src\lv_misc/lv_printf.c ****   }
 520:..\..\..\lvgl\version_6.1.2\lvgl\src\lv_misc/lv_printf.c ****   if ((flags & FLAGS_LEFT) && minwidth) {
 874              		.loc 1 520 0
 875 022e 269B     		ldr	r3, [sp, #152]
 513:..\..\..\lvgl\version_6.1.2\lvgl\src\lv_misc/lv_printf.c ****     // we didn't fall-back so subtract the characters required for the exponent
 876              		.loc 1 513 0
 877 0230 9142     		cmp	r1, r2
 515:..\..\..\lvgl\version_6.1.2\lvgl\src\lv_misc/lv_printf.c ****   } else {
 878              		.loc 1 515 0
 879 0232 8CBF     		ite	hi
 880 0234 8C1A     		subhi	r4, r1, r2
 881              	.LVL130:
 518:..\..\..\lvgl\version_6.1.2\lvgl\src\lv_misc/lv_printf.c ****   }
 882              		.loc 1 518 0
 883 0236 0024     		movls	r4, #0
 884              	.LVL131:
 885              		.loc 1 520 0
 886 0238 13F00203 		ands	r3, r3, #2
 887 023c 0C93     		str	r3, [sp, #48]
 888 023e 03D0     		beq	.L120
 521:..\..\..\lvgl\version_6.1.2\lvgl\src\lv_misc/lv_printf.c ****     // if we're padding on the right, DON'T pad the floating part
 522:..\..\..\lvgl\version_6.1.2\lvgl\src\lv_misc/lv_printf.c ****     fwidth = 0U;
 889              		.loc 1 522 0
 890 0240 0A9B     		ldr	r3, [sp, #40]
 891 0242 002B     		cmp	r3, #0
 892 0244 18BF     		it	ne
 893 0246 0024     		movne	r4, #0
ARM GAS  C:\Users\pearlstl\AppData\Local\Temp\ccbpFzqf.s 			page 27


 894              	.LVL132:
 895              	.L120:
 523:..\..\..\lvgl\version_6.1.2\lvgl\src\lv_misc/lv_printf.c ****   }
 524:..\..\..\lvgl\version_6.1.2\lvgl\src\lv_misc/lv_printf.c **** 
 525:..\..\..\lvgl\version_6.1.2\lvgl\src\lv_misc/lv_printf.c ****   // rescale the float value
 526:..\..\..\lvgl\version_6.1.2\lvgl\src\lv_misc/lv_printf.c ****   if (expval) {
 896              		.loc 1 526 0
 897 0248 BBF1000F 		cmp	fp, #0
 898 024c 40F0DC80 		bne	.L218
 899              	.LVL133:
 900              	.L121:
 527:..\..\..\lvgl\version_6.1.2\lvgl\src\lv_misc/lv_printf.c ****     value /= conv.F;
 528:..\..\..\lvgl\version_6.1.2\lvgl\src\lv_misc/lv_printf.c ****   }
 529:..\..\..\lvgl\version_6.1.2\lvgl\src\lv_misc/lv_printf.c **** 
 530:..\..\..\lvgl\version_6.1.2\lvgl\src\lv_misc/lv_printf.c ****   // output the floating part
 531:..\..\..\lvgl\version_6.1.2\lvgl\src\lv_misc/lv_printf.c ****   const size_t start_idx = idx;
 532:..\..\..\lvgl\version_6.1.2\lvgl\src\lv_misc/lv_printf.c ****   idx = _ftoa(out, buffer, idx, maxlen, negative ? -value : value, prec, fwidth, flags & ~FLAGS_ADA
 901              		.loc 1 532 0
 902 0250 0022     		movs	r2, #0
 903 0252 0023     		movs	r3, #0
 904 0254 DDE92201 		ldrd	r0, [sp, #136]
 905 0258 FFF7FEFF 		bl	__aeabi_dcmplt
 906              	.LVL134:
 907 025c 0028     		cmp	r0, #0
 908 025e 40F05B81 		bne	.L219
 909 0262 DDE90889 		ldrd	r8, [sp, #32]
 910              	.LVL135:
 911              	.L122:
 912              	.LBB112:
 913              	.LBB113:
 324:..\..\..\lvgl\version_6.1.2\lvgl\src\lv_misc/lv_printf.c ****     return _out_rev(out, buffer, idx, maxlen, "nan", 3, width, flags);
 914              		.loc 1 324 0
 915 0266 4246     		mov	r2, r8
 916 0268 4B46     		mov	r3, r9
 917 026a 4046     		mov	r0, r8
 918 026c 4946     		mov	r1, r9
 919 026e FFF7FEFF 		bl	__aeabi_dcmpeq
 920              	.LVL136:
 921 0272 0028     		cmp	r0, #0
 922 0274 00F05881 		beq	.L220
 326:..\..\..\lvgl\version_6.1.2\lvgl\src\lv_misc/lv_printf.c ****     return _out_rev(out, buffer, idx, maxlen, "fni-", 4, width, flags);
 923              		.loc 1 326 0
 924 0278 6FF48013 		mvn	r3, #1048576
 925 027c 4FF0FF32 		mov	r2, #-1
 926 0280 4046     		mov	r0, r8
 927 0282 4946     		mov	r1, r9
 928 0284 FFF7FEFF 		bl	__aeabi_dcmplt
 929              	.LVL137:
 930              	.LBB114:
 931              	.LBB115:
 178:..\..\..\lvgl\version_6.1.2\lvgl\src\lv_misc/lv_printf.c ****       size_t i;
 932              		.loc 1 178 0
 933 0288 269B     		ldr	r3, [sp, #152]
 934              	.LBE115:
 935              	.LBE114:
 326:..\..\..\lvgl\version_6.1.2\lvgl\src\lv_misc/lv_printf.c ****     return _out_rev(out, buffer, idx, maxlen, "fni-", 4, width, flags);
 936              		.loc 1 326 0
ARM GAS  C:\Users\pearlstl\AppData\Local\Temp\ccbpFzqf.s 			page 28


 937 028a 0028     		cmp	r0, #0
 938 028c 40F06281 		bne	.L221
 939 0290 249A     		ldr	r2, [sp, #144]
 940 0292 0394     		str	r4, [sp, #12]
 941 0294 23F40063 		bic	r3, r3, #2048
 942              	.LVL138:
 943 0298 0292     		str	r2, [sp, #8]
 944 029a 0493     		str	r3, [sp, #16]
 945 029c CDE90089 		strd	r8, [sp]
 946 02a0 3B46     		mov	r3, r7
 947              	.LVL139:
 948 02a2 5246     		mov	r2, r10
 949 02a4 3146     		mov	r1, r6
 950 02a6 2846     		mov	r0, r5
 951 02a8 FFF7FEFF 		bl	_ftoa.part.1
 952              	.LVL140:
 953 02ac 0446     		mov	r4, r0
 954              	.LVL141:
 955              	.L129:
 956              	.LBE113:
 957              	.LBE112:
 533:..\..\..\lvgl\version_6.1.2\lvgl\src\lv_misc/lv_printf.c **** 
 534:..\..\..\lvgl\version_6.1.2\lvgl\src\lv_misc/lv_printf.c ****   // output the exponent part
 535:..\..\..\lvgl\version_6.1.2\lvgl\src\lv_misc/lv_printf.c ****   if (minwidth) {
 958              		.loc 1 535 0
 959 02ae 0A9B     		ldr	r3, [sp, #40]
 960 02b0 002B     		cmp	r3, #0
 961 02b2 00F0A580 		beq	.L100
 536:..\..\..\lvgl\version_6.1.2\lvgl\src\lv_misc/lv_printf.c ****     // output the exponential symbol
 537:..\..\..\lvgl\version_6.1.2\lvgl\src\lv_misc/lv_printf.c ****     out((flags & FLAGS_UPPERCASE) ? 'E' : 'e', buffer, idx++, maxlen);
 962              		.loc 1 537 0
 963 02b6 269A     		ldr	r2, [sp, #152]
 964 02b8 12F0200F 		tst	r2, #32
 965 02bc 14BF     		ite	ne
 966 02be 4520     		movne	r0, #69
 967 02c0 6520     		moveq	r0, #101
 968 02c2 3B46     		mov	r3, r7
 969 02c4 2246     		mov	r2, r4
 970 02c6 3146     		mov	r1, r6
 971 02c8 A847     		blx	r5
 972              	.LVL142:
 538:..\..\..\lvgl\version_6.1.2\lvgl\src\lv_misc/lv_printf.c ****     // output the exponent value
 539:..\..\..\lvgl\version_6.1.2\lvgl\src\lv_misc/lv_printf.c ****     idx = _ntoa_long(out, buffer, idx, maxlen, (expval < 0) ? -expval : expval, expval < 0, 10, 0, 
 973              		.loc 1 539 0
 974 02ca 0A9B     		ldr	r3, [sp, #40]
 975              	.LBB130:
 976              	.LBB131:
 977              	.LBB132:
 270:..\..\..\lvgl\version_6.1.2\lvgl\src\lv_misc/lv_printf.c ****       value /= base;
 978              		.loc 1 270 0
 979 02cc DFF880C0 		ldr	ip, .L223+96
 980              	.LBE132:
 981              	.LBE131:
 982              	.LBE130:
 983              		.loc 1 539 0
 984 02d0 03F1FF38 		add	r8, r3, #-1
 985 02d4 8BEAEB73 		eor	r3, fp, fp, asr #31
ARM GAS  C:\Users\pearlstl\AppData\Local\Temp\ccbpFzqf.s 			page 29


 537:..\..\..\lvgl\version_6.1.2\lvgl\src\lv_misc/lv_printf.c ****     // output the exponent value
 986              		.loc 1 537 0
 987 02d8 0134     		adds	r4, r4, #1
 988              	.LVL143:
 989              		.loc 1 539 0
 990 02da A3EBEB73 		sub	r3, r3, fp, asr #31
 991              	.LVL144:
 992 02de 4FEADB79 		lsr	r9, fp, #31
 993              	.LVL145:
 994 02e2 0DF13F0E 		add	lr, sp, #63
 995 02e6 0020     		movs	r0, #0
 996 02e8 36E0     		b	.L139
 997              	.L224:
 998 02ea 00BFAFF3 		.align	3
 998      0080
 999              	.L223:
 1000 02f0 FB799F50 		.word	1352628731
 1001 02f4 1344D33F 		.word	1070810131
 1002 02f8 B3C8608B 		.word	-1956591437
 1003 02fc 288AC63F 		.word	1069976104
 1004 0300 61436F63 		.word	1668236129
 1005 0304 A787D23F 		.word	1070761895
 1006 0308 71A37909 		.word	158966641
 1007 030c 4F930A40 		.word	1074434895
 1008 0310 1655B5BB 		.word	-1145744106
 1009 0314 B16B0240 		.word	1073900465
 1010 0318 EF39FAFE 		.word	-17155601
 1011 031c 422EE63F 		.word	1072049730
 1012 0320 2D431CEB 		.word	-350469331
 1013 0324 E2361A3F 		.word	1058682594
 1014 0328 00000000 		.word	0
 1015 032c 80842E41 		.word	1093567616
 1016 0330 FFFFEF7F 		.word	2146435071
 1017 0334 FFFF0F00 		.word	1048575
 1018 0338 0000F03F 		.word	1072693248
 1019 033c 0000F83F 		.word	1073217536
 1020 0340 0000E03F 		.word	1071644672
 1021 0344 00002C40 		.word	1076625408
 1022 0348 00002440 		.word	1076101120
 1023 034c 00001840 		.word	1075314688
 1024 0350 CDCCCCCC 		.word	-858993459
 1025              	.LVL146:
 1026              	.L222:
 1027              	.LBB136:
 1028              	.LBB134:
 272:..\..\..\lvgl\version_6.1.2\lvgl\src\lv_misc/lv_printf.c ****   }
 1029              		.loc 1 272 0
 1030 0354 2028     		cmp	r0, #32
 1031 0356 0DD0     		beq	.L138
 1032              	.LVL147:
 1033              	.L139:
 1034              	.LBB133:
 270:..\..\..\lvgl\version_6.1.2\lvgl\src\lv_misc/lv_printf.c ****       value /= base;
 1035              		.loc 1 270 0
 1036 0358 ACFB0312 		umull	r1, r2, ip, r3
 1037 035c D208     		lsrs	r2, r2, #3
 1038 035e 02EB8201 		add	r1, r2, r2, lsl #2
ARM GAS  C:\Users\pearlstl\AppData\Local\Temp\ccbpFzqf.s 			page 30


 1039 0362 A3EB4103 		sub	r3, r3, r1, lsl #1
 1040              	.LVL148:
 1041 0366 3033     		adds	r3, r3, #48
 1042 0368 0EF8013F 		strb	r3, [lr, #1]!
 1043 036c 0130     		adds	r0, r0, #1
 1044              	.LVL149:
 1045              	.LBE133:
 272:..\..\..\lvgl\version_6.1.2\lvgl\src\lv_misc/lv_printf.c ****   }
 1046              		.loc 1 272 0
 1047 036e 1346     		mov	r3, r2
 1048 0370 002A     		cmp	r2, #0
 1049 0372 EFD1     		bne	.L222
 1050              	.L138:
 275:..\..\..\lvgl\version_6.1.2\lvgl\src\lv_misc/lv_printf.c **** }
 1051              		.loc 1 275 0
 1052 0374 4FF0050E 		mov	lr, #5
 1053 0378 4FF0000C 		mov	ip, #0
 1054 037c 0A21     		movs	r1, #10
 1055 037e 10AB     		add	r3, sp, #64
 1056 0380 0190     		str	r0, [sp, #4]
 1057 0382 2246     		mov	r2, r4
 1058              	.LVL150:
 1059 0384 0391     		str	r1, [sp, #12]
 1060 0386 0093     		str	r3, [sp]
 1061 0388 CDF81480 		str	r8, [sp, #20]
 1062 038c 3B46     		mov	r3, r7
 1063 038e CDF80890 		str	r9, [sp, #8]
 1064 0392 CDF818E0 		str	lr, [sp, #24]
 1065 0396 CDF810C0 		str	ip, [sp, #16]
 1066 039a 3146     		mov	r1, r6
 1067 039c 2846     		mov	r0, r5
 1068              	.LVL151:
 1069 039e FFF7FEFF 		bl	_ntoa_format
 1070              	.LVL152:
 1071              	.LBE134:
 1072              	.LBE136:
 540:..\..\..\lvgl\version_6.1.2\lvgl\src\lv_misc/lv_printf.c ****     // might need to right-pad spaces
 541:..\..\..\lvgl\version_6.1.2\lvgl\src\lv_misc/lv_printf.c ****     if (flags & FLAGS_LEFT) {
 1073              		.loc 1 541 0
 1074 03a2 0C9B     		ldr	r3, [sp, #48]
 1075              	.LBB137:
 1076              	.LBB135:
 275:..\..\..\lvgl\version_6.1.2\lvgl\src\lv_misc/lv_printf.c **** }
 1077              		.loc 1 275 0
 1078 03a4 0246     		mov	r2, r0
 1079              	.LVL153:
 1080              	.LBE135:
 1081              	.LBE137:
 1082              		.loc 1 541 0
 1083 03a6 002B     		cmp	r3, #0
 1084 03a8 37D0     		beq	.L164
 1085              	.LVL154:
 542:..\..\..\lvgl\version_6.1.2\lvgl\src\lv_misc/lv_printf.c ****       while (idx - start_idx < width) out(' ', buffer, idx++, maxlen);
 1086              		.loc 1 542 0
 1087 03aa 2599     		ldr	r1, [sp, #148]
 1088 03ac CAEB0003 		rsb	r3, r10, r0
 1089 03b0 9942     		cmp	r1, r3
ARM GAS  C:\Users\pearlstl\AppData\Local\Temp\ccbpFzqf.s 			page 31


 1090 03b2 32D9     		bls	.L164
 1091 03b4 8846     		mov	r8, r1
 1092              	.LVL155:
 1093              	.L140:
 1094 03b6 541C     		adds	r4, r2, #1
 1095              	.LVL156:
 1096 03b8 3B46     		mov	r3, r7
 1097 03ba 3146     		mov	r1, r6
 1098 03bc 2020     		movs	r0, #32
 1099 03be A847     		blx	r5
 1100              	.LVL157:
 1101 03c0 CAEB0403 		rsb	r3, r10, r4
 1102 03c4 9845     		cmp	r8, r3
 1103 03c6 2246     		mov	r2, r4
 1104 03c8 F5D8     		bhi	.L140
 1105              	.LVL158:
 1106              	.LBE111:
 1107              	.LBE110:
 543:..\..\..\lvgl\version_6.1.2\lvgl\src\lv_misc/lv_printf.c ****     }
 544:..\..\..\lvgl\version_6.1.2\lvgl\src\lv_misc/lv_printf.c ****   }
 545:..\..\..\lvgl\version_6.1.2\lvgl\src\lv_misc/lv_printf.c ****   return idx;
 546:..\..\..\lvgl\version_6.1.2\lvgl\src\lv_misc/lv_printf.c **** }
 1108              		.loc 1 546 0
 1109 03ca 2046     		mov	r0, r4
 1110 03cc 19B0     		add	sp, sp, #100
 1111              		.cfi_remember_state
 1112              		.cfi_def_cfa_offset 36
 1113              		@ sp needed
 1114 03ce BDE8F08F 		pop	{r4, r5, r6, r7, r8, r9, r10, fp, pc}
 1115              	.LVL159:
 1116              	.L94:
 1117              		.cfi_restore_state
 1118              	.LBB143:
 1119              	.LBB107:
 326:..\..\..\lvgl\version_6.1.2\lvgl\src\lv_misc/lv_printf.c ****     return _out_rev(out, buffer, idx, maxlen, "fni-", 4, width, flags);
 1120              		.loc 1 326 0
 1121 03d2 DDE92201 		ldrd	r0, [sp, #136]
 1122 03d6 FFF7FEFF 		bl	__aeabi_dcmplt
 1123              	.LVL160:
 1124 03da 0028     		cmp	r0, #0
 1125 03dc 5AD1     		bne	.L95
 1126 03de 269B     		ldr	r3, [sp, #152]
 1127 03e0 0493     		str	r3, [sp, #16]
 1128 03e2 9DED227B 		vldr.64	d7, [sp, #136]
 1129 03e6 259B     		ldr	r3, [sp, #148]
 1130 03e8 0393     		str	r3, [sp, #12]
 1131 03ea 249B     		ldr	r3, [sp, #144]
 1132 03ec 0293     		str	r3, [sp, #8]
 1133 03ee 8DED007B 		vstr.64	d7, [sp]
 1134 03f2 3B46     		mov	r3, r7
 1135 03f4 5246     		mov	r2, r10
 1136 03f6 3146     		mov	r1, r6
 1137 03f8 2846     		mov	r0, r5
 1138 03fa FFF7FEFF 		bl	_ftoa.part.1
 1139              	.LVL161:
 1140 03fe 0446     		mov	r4, r0
 1141              	.LVL162:
ARM GAS  C:\Users\pearlstl\AppData\Local\Temp\ccbpFzqf.s 			page 32


 1142              	.L100:
 1143              	.LBE107:
 1144              	.LBE143:
 1145              		.loc 1 546 0
 1146 0400 2046     		mov	r0, r4
 1147 0402 19B0     		add	sp, sp, #100
 1148              		.cfi_remember_state
 1149              		.cfi_def_cfa_offset 36
 1150              		@ sp needed
 1151 0404 BDE8F08F 		pop	{r4, r5, r6, r7, r8, r9, r10, fp, pc}
 1152              	.LVL163:
 1153              	.L218:
 1154              		.cfi_restore_state
 1155              	.LBB144:
 1156              	.LBB140:
 527:..\..\..\lvgl\version_6.1.2\lvgl\src\lv_misc/lv_printf.c ****   }
 1157              		.loc 1 527 0
 1158 0408 DDE90801 		ldrd	r0, [sp, #32]
 1159 040c 4246     		mov	r2, r8
 1160              	.LVL164:
 1161 040e 4B46     		mov	r3, r9
 1162 0410 FFF7FEFF 		bl	__aeabi_ddiv
 1163              	.LVL165:
 1164 0414 CDE90801 		strd	r0, [sp, #32]
 1165              	.LVL166:
 1166 0418 1AE7     		b	.L121
 1167              	.LVL167:
 1168              	.L164:
 542:..\..\..\lvgl\version_6.1.2\lvgl\src\lv_misc/lv_printf.c ****     }
 1169              		.loc 1 542 0
 1170 041a 1446     		mov	r4, r2
 1171              	.LBE140:
 1172              	.LBE144:
 1173              		.loc 1 546 0
 1174 041c 2046     		mov	r0, r4
 1175 041e 19B0     		add	sp, sp, #100
 1176              		.cfi_remember_state
 1177              		.cfi_def_cfa_offset 36
 1178              		@ sp needed
 1179 0420 BDE8F08F 		pop	{r4, r5, r6, r7, r8, r9, r10, fp, pc}
 1180              	.LVL168:
 1181              	.L93:
 1182              		.cfi_restore_state
 1183              	.LBB145:
 1184              	.LBB108:
 1185              	.LBB95:
 1186              	.LBB96:
 178:..\..\..\lvgl\version_6.1.2\lvgl\src\lv_misc/lv_printf.c ****       size_t i;
 1187              		.loc 1 178 0
 1188 0424 269B     		ldr	r3, [sp, #152]
 1189 0426 9A07     		lsls	r2, r3, #30
 1190 0428 6CD1     		bne	.L142
 1191              	.LVL169:
 1192              	.LBB97:
 180:..\..\..\lvgl\version_6.1.2\lvgl\src\lv_misc/lv_printf.c ****       out(' ', buffer, idx++, maxlen);
 1193              		.loc 1 180 0
 1194 042a 259B     		ldr	r3, [sp, #148]
ARM GAS  C:\Users\pearlstl\AppData\Local\Temp\ccbpFzqf.s 			page 33


 1195 042c 032B     		cmp	r3, #3
 1196 042e 69D9     		bls	.L142
 1197 0430 AAF10304 		sub	r4, r10, #3
 1198 0434 1C44     		add	r4, r4, r3
 1199 0436 5246     		mov	r2, r10
 1200              	.LVL170:
 1201              	.L98:
 181:..\..\..\lvgl\version_6.1.2\lvgl\src\lv_misc/lv_printf.c ****     }
 1202              		.loc 1 181 0
 1203 0438 02F10108 		add	r8, r2, #1
 1204              	.LVL171:
 1205 043c 3B46     		mov	r3, r7
 1206 043e 3146     		mov	r1, r6
 1207 0440 2020     		movs	r0, #32
 1208 0442 A847     		blx	r5
 1209              	.LVL172:
 180:..\..\..\lvgl\version_6.1.2\lvgl\src\lv_misc/lv_printf.c ****       out(' ', buffer, idx++, maxlen);
 1210              		.loc 1 180 0
 1211 0444 A045     		cmp	r8, r4
 1212 0446 4246     		mov	r2, r8
 1213 0448 F6D1     		bne	.L98
 1214              	.LVL173:
 1215              	.L97:
 1216 044a DFF8F481 		ldr	r8, .L225+8
 1217              	.LBE97:
 178:..\..\..\lvgl\version_6.1.2\lvgl\src\lv_misc/lv_printf.c ****       size_t i;
 1218              		.loc 1 178 0
 1219 044e 2246     		mov	r2, r4
 1220 0450 A8F1030B 		sub	fp, r8, #3
 1221              	.LVL174:
 1222              	.L99:
 187:..\..\..\lvgl\version_6.1.2\lvgl\src\lv_misc/lv_printf.c ****   }
 1223              		.loc 1 187 0
 1224 0454 18F8010D 		ldrb	r0, [r8, #-1]!	@ zero_extendqisi2
 1225              	.LVL175:
 1226 0458 3B46     		mov	r3, r7
 1227 045a 3146     		mov	r1, r6
 1228 045c 02F10109 		add	r9, r2, #1
 1229              	.LVL176:
 1230 0460 A847     		blx	r5
 1231              	.LVL177:
 186:..\..\..\lvgl\version_6.1.2\lvgl\src\lv_misc/lv_printf.c ****     out(buf[--len], buffer, idx++, maxlen);
 1232              		.loc 1 186 0
 1233 0462 C345     		cmp	fp, r8
 187:..\..\..\lvgl\version_6.1.2\lvgl\src\lv_misc/lv_printf.c ****   }
 1234              		.loc 1 187 0
 1235 0464 4A46     		mov	r2, r9
 186:..\..\..\lvgl\version_6.1.2\lvgl\src\lv_misc/lv_printf.c ****     out(buf[--len], buffer, idx++, maxlen);
 1236              		.loc 1 186 0
 1237 0466 F5D1     		bne	.L99
 191:..\..\..\lvgl\version_6.1.2\lvgl\src\lv_misc/lv_printf.c ****     while (idx - start_idx < width) {
 1238              		.loc 1 191 0
 1239 0468 269B     		ldr	r3, [sp, #152]
 1240 046a 9B07     		lsls	r3, r3, #30
 1241 046c 04F10302 		add	r2, r4, #3
 1242 0470 D3D5     		bpl	.L164
 1243              	.LVL178:
ARM GAS  C:\Users\pearlstl\AppData\Local\Temp\ccbpFzqf.s 			page 34


 192:..\..\..\lvgl\version_6.1.2\lvgl\src\lv_misc/lv_printf.c ****       out(' ', buffer, idx++, maxlen);
 1244              		.loc 1 192 0
 1245 0472 2599     		ldr	r1, [sp, #148]
 1246 0474 CAEB0203 		rsb	r3, r10, r2
 1247 0478 9942     		cmp	r1, r3
 1248 047a CED9     		bls	.L164
 1249 047c 8846     		mov	r8, r1
 1250              	.LVL179:
 1251              	.L101:
 193:..\..\..\lvgl\version_6.1.2\lvgl\src\lv_misc/lv_printf.c ****     }
 1252              		.loc 1 193 0
 1253 047e 541C     		adds	r4, r2, #1
 1254              	.LVL180:
 1255 0480 3B46     		mov	r3, r7
 1256 0482 3146     		mov	r1, r6
 1257 0484 2020     		movs	r0, #32
 1258 0486 A847     		blx	r5
 1259              	.LVL181:
 192:..\..\..\lvgl\version_6.1.2\lvgl\src\lv_misc/lv_printf.c ****       out(' ', buffer, idx++, maxlen);
 1260              		.loc 1 192 0
 1261 0488 CAEB0403 		rsb	r3, r10, r4
 1262 048c 9845     		cmp	r8, r3
 193:..\..\..\lvgl\version_6.1.2\lvgl\src\lv_misc/lv_printf.c ****     }
 1263              		.loc 1 193 0
 1264 048e 2246     		mov	r2, r4
 192:..\..\..\lvgl\version_6.1.2\lvgl\src\lv_misc/lv_printf.c ****       out(' ', buffer, idx++, maxlen);
 1265              		.loc 1 192 0
 1266 0490 F5D8     		bhi	.L101
 1267 0492 B5E7     		b	.L100
 1268              	.LVL182:
 1269              	.L95:
 1270              	.LBE96:
 1271              	.LBE95:
 1272              	.LBB100:
 1273              	.LBB101:
 178:..\..\..\lvgl\version_6.1.2\lvgl\src\lv_misc/lv_printf.c ****       size_t i;
 1274              		.loc 1 178 0
 1275 0494 269B     		ldr	r3, [sp, #152]
 1276 0496 9C07     		lsls	r4, r3, #30
 1277 0498 44D1     		bne	.L146
 1278              	.LVL183:
 1279              	.LBB102:
 180:..\..\..\lvgl\version_6.1.2\lvgl\src\lv_misc/lv_printf.c ****       out(' ', buffer, idx++, maxlen);
 1280              		.loc 1 180 0
 1281 049a 259B     		ldr	r3, [sp, #148]
 1282 049c 042B     		cmp	r3, #4
 1283 049e 41D9     		bls	.L146
 1284 04a0 AAF10404 		sub	r4, r10, #4
 1285 04a4 1C44     		add	r4, r4, r3
 1286 04a6 5246     		mov	r2, r10
 1287              	.LVL184:
 1288              	.L105:
 181:..\..\..\lvgl\version_6.1.2\lvgl\src\lv_misc/lv_printf.c ****     }
 1289              		.loc 1 181 0
 1290 04a8 02F10108 		add	r8, r2, #1
 1291              	.LVL185:
 1292 04ac 3B46     		mov	r3, r7
ARM GAS  C:\Users\pearlstl\AppData\Local\Temp\ccbpFzqf.s 			page 35


 1293 04ae 3146     		mov	r1, r6
 1294 04b0 2020     		movs	r0, #32
 1295 04b2 A847     		blx	r5
 1296              	.LVL186:
 180:..\..\..\lvgl\version_6.1.2\lvgl\src\lv_misc/lv_printf.c ****       out(' ', buffer, idx++, maxlen);
 1297              		.loc 1 180 0
 1298 04b4 A045     		cmp	r8, r4
 1299 04b6 4246     		mov	r2, r8
 1300 04b8 F6D1     		bne	.L105
 1301              	.LVL187:
 1302              	.L104:
 1303 04ba DFF88881 		ldr	r8, .L225+12
 1304              	.LBE102:
 178:..\..\..\lvgl\version_6.1.2\lvgl\src\lv_misc/lv_printf.c ****       size_t i;
 1305              		.loc 1 178 0
 1306 04be 2246     		mov	r2, r4
 1307 04c0 A8F1040B 		sub	fp, r8, #4
 1308              	.LVL188:
 1309              	.L106:
 187:..\..\..\lvgl\version_6.1.2\lvgl\src\lv_misc/lv_printf.c ****   }
 1310              		.loc 1 187 0
 1311 04c4 18F8010D 		ldrb	r0, [r8, #-1]!	@ zero_extendqisi2
 1312              	.LVL189:
 1313 04c8 3B46     		mov	r3, r7
 1314 04ca 3146     		mov	r1, r6
 1315 04cc 02F10109 		add	r9, r2, #1
 1316              	.LVL190:
 1317 04d0 A847     		blx	r5
 1318              	.LVL191:
 186:..\..\..\lvgl\version_6.1.2\lvgl\src\lv_misc/lv_printf.c ****     out(buf[--len], buffer, idx++, maxlen);
 1319              		.loc 1 186 0
 1320 04d2 D845     		cmp	r8, fp
 187:..\..\..\lvgl\version_6.1.2\lvgl\src\lv_misc/lv_printf.c ****   }
 1321              		.loc 1 187 0
 1322 04d4 4A46     		mov	r2, r9
 186:..\..\..\lvgl\version_6.1.2\lvgl\src\lv_misc/lv_printf.c ****     out(buf[--len], buffer, idx++, maxlen);
 1323              		.loc 1 186 0
 1324 04d6 F5D1     		bne	.L106
 191:..\..\..\lvgl\version_6.1.2\lvgl\src\lv_misc/lv_printf.c ****     while (idx - start_idx < width) {
 1325              		.loc 1 191 0
 1326 04d8 269B     		ldr	r3, [sp, #152]
 1327 04da 9807     		lsls	r0, r3, #30
 1328 04dc 04F10402 		add	r2, r4, #4
 1329 04e0 9BD5     		bpl	.L164
 1330              	.LVL192:
 192:..\..\..\lvgl\version_6.1.2\lvgl\src\lv_misc/lv_printf.c ****       out(' ', buffer, idx++, maxlen);
 1331              		.loc 1 192 0
 1332 04e2 2599     		ldr	r1, [sp, #148]
 1333 04e4 CAEB0203 		rsb	r3, r10, r2
 1334 04e8 9942     		cmp	r1, r3
 1335 04ea 96D9     		bls	.L164
 1336 04ec 8846     		mov	r8, r1
 1337              	.LVL193:
 1338              	.L107:
 193:..\..\..\lvgl\version_6.1.2\lvgl\src\lv_misc/lv_printf.c ****     }
 1339              		.loc 1 193 0
 1340 04ee 541C     		adds	r4, r2, #1
ARM GAS  C:\Users\pearlstl\AppData\Local\Temp\ccbpFzqf.s 			page 36


 1341              	.LVL194:
 1342 04f0 3B46     		mov	r3, r7
 1343 04f2 3146     		mov	r1, r6
 1344 04f4 2020     		movs	r0, #32
 1345 04f6 A847     		blx	r5
 1346              	.LVL195:
 192:..\..\..\lvgl\version_6.1.2\lvgl\src\lv_misc/lv_printf.c ****       out(' ', buffer, idx++, maxlen);
 1347              		.loc 1 192 0
 1348 04f8 CAEB0403 		rsb	r3, r10, r4
 1349 04fc 9845     		cmp	r8, r3
 193:..\..\..\lvgl\version_6.1.2\lvgl\src\lv_misc/lv_printf.c ****     }
 1350              		.loc 1 193 0
 1351 04fe 2246     		mov	r2, r4
 192:..\..\..\lvgl\version_6.1.2\lvgl\src\lv_misc/lv_printf.c ****       out(' ', buffer, idx++, maxlen);
 1352              		.loc 1 192 0
 1353 0500 F5D8     		bhi	.L107
 1354 0502 7DE7     		b	.L100
 1355              	.LVL196:
 1356              	.L142:
 1357              	.LBE101:
 1358              	.LBE100:
 1359              	.LBB105:
 1360              	.LBB99:
 1361              	.LBB98:
 180:..\..\..\lvgl\version_6.1.2\lvgl\src\lv_misc/lv_printf.c ****       out(' ', buffer, idx++, maxlen);
 1362              		.loc 1 180 0
 1363 0504 5446     		mov	r4, r10
 1364 0506 A0E7     		b	.L97
 1365              	.LVL197:
 1366              	.L216:
 1367              	.LBE98:
 1368              	.LBE99:
 1369              	.LBE105:
 1370              	.LBE108:
 1371              	.LBE145:
 1372              	.LBB146:
 1373              	.LBB141:
 452:..\..\..\lvgl\version_6.1.2\lvgl\src\lv_misc/lv_printf.c ****   }
 1374              		.loc 1 452 0
 1375 0508 229B     		ldr	r3, [sp, #136]
 1376 050a 0893     		str	r3, [sp, #32]
 1377 050c 239B     		ldr	r3, [sp, #140]
 1378 050e 03F10043 		add	r3, r3, #-2147483648
 1379 0512 0993     		str	r3, [sp, #36]
 1380              	.LVL198:
 1381 0514 1846     		mov	r0, r3
 1382 0516 A6E5     		b	.L108
 1383              	.LVL199:
 1384              	.L219:
 532:..\..\..\lvgl\version_6.1.2\lvgl\src\lv_misc/lv_printf.c **** 
 1385              		.loc 1 532 0
 1386 0518 DDE90823 		ldrd	r2, [sp, #32]
 1387 051c 9046     		mov	r8, r2
 1388              	.LVL200:
 1389 051e 03F10049 		add	r9, r3, #-2147483648
 1390 0522 A0E6     		b	.L122
 1391              	.LVL201:
ARM GAS  C:\Users\pearlstl\AppData\Local\Temp\ccbpFzqf.s 			page 37


 1392              	.L146:
 1393              	.LBE141:
 1394              	.LBE146:
 1395              	.LBB147:
 1396              	.LBB109:
 1397              	.LBB106:
 1398              	.LBB104:
 1399              	.LBB103:
 180:..\..\..\lvgl\version_6.1.2\lvgl\src\lv_misc/lv_printf.c ****       out(' ', buffer, idx++, maxlen);
 1400              		.loc 1 180 0
 1401 0524 5446     		mov	r4, r10
 1402 0526 C8E7     		b	.L104
 1403              	.LVL202:
 1404              	.L220:
 1405              	.LBE103:
 1406              	.LBE104:
 1407              	.LBE106:
 1408              	.LBE109:
 1409              	.LBE147:
 1410              	.LBB148:
 1411              	.LBB142:
 1412              	.LBB138:
 1413              	.LBB128:
 1414              	.LBB120:
 1415              	.LBB121:
 178:..\..\..\lvgl\version_6.1.2\lvgl\src\lv_misc/lv_printf.c ****       size_t i;
 1416              		.loc 1 178 0
 1417 0528 269B     		ldr	r3, [sp, #152]
 1418 052a 9A07     		lsls	r2, r3, #30
 1419 052c 59D1     		bne	.L155
 1420              	.LVL203:
 1421              	.LBB122:
 180:..\..\..\lvgl\version_6.1.2\lvgl\src\lv_misc/lv_printf.c ****       out(' ', buffer, idx++, maxlen);
 1422              		.loc 1 180 0
 1423 052e 032C     		cmp	r4, #3
 1424 0530 57D9     		bls	.L155
 1425 0532 AAF10303 		sub	r3, r10, #3
 1426 0536 E318     		adds	r3, r4, r3
 1427 0538 0893     		str	r3, [sp, #32]
 1428              	.LVL204:
 1429 053a 5246     		mov	r2, r10
 1430 053c 9946     		mov	r9, r3
 1431              	.LVL205:
 1432              	.L127:
 181:..\..\..\lvgl\version_6.1.2\lvgl\src\lv_misc/lv_printf.c ****     }
 1433              		.loc 1 181 0
 1434 053e 02F10108 		add	r8, r2, #1
 1435              	.LVL206:
 1436 0542 3B46     		mov	r3, r7
 1437 0544 3146     		mov	r1, r6
 1438 0546 2020     		movs	r0, #32
 1439 0548 A847     		blx	r5
 1440              	.LVL207:
 180:..\..\..\lvgl\version_6.1.2\lvgl\src\lv_misc/lv_printf.c ****       out(' ', buffer, idx++, maxlen);
 1441              		.loc 1 180 0
 1442 054a C845     		cmp	r8, r9
 1443 054c 4246     		mov	r2, r8
ARM GAS  C:\Users\pearlstl\AppData\Local\Temp\ccbpFzqf.s 			page 38


 1444 054e F6D1     		bne	.L127
 1445 0550 089A     		ldr	r2, [sp, #32]
 1446 0552 49E0     		b	.L126
 1447              	.LVL208:
 1448              	.L221:
 1449              	.LBE122:
 1450              	.LBE121:
 1451              	.LBE120:
 1452              	.LBB125:
 1453              	.LBB118:
 178:..\..\..\lvgl\version_6.1.2\lvgl\src\lv_misc/lv_printf.c ****       size_t i;
 1454              		.loc 1 178 0
 1455 0554 9B07     		lsls	r3, r3, #30
 1456              	.LVL209:
 1457 0556 6AD1     		bne	.L159
 1458              	.LVL210:
 1459              	.LBB116:
 180:..\..\..\lvgl\version_6.1.2\lvgl\src\lv_misc/lv_printf.c ****       out(' ', buffer, idx++, maxlen);
 1460              		.loc 1 180 0
 1461 0558 042C     		cmp	r4, #4
 1462 055a 68D9     		bls	.L159
 1463 055c AAF10403 		sub	r3, r10, #4
 1464 0560 E318     		adds	r3, r4, r3
 1465 0562 0893     		str	r3, [sp, #32]
 1466              	.LVL211:
 1467 0564 5246     		mov	r2, r10
 1468 0566 9946     		mov	r9, r3
 1469              	.LVL212:
 1470              	.L134:
 181:..\..\..\lvgl\version_6.1.2\lvgl\src\lv_misc/lv_printf.c ****     }
 1471              		.loc 1 181 0
 1472 0568 02F10108 		add	r8, r2, #1
 1473              	.LVL213:
 1474 056c 3B46     		mov	r3, r7
 1475 056e 3146     		mov	r1, r6
 1476 0570 2020     		movs	r0, #32
 1477 0572 A847     		blx	r5
 1478              	.LVL214:
 180:..\..\..\lvgl\version_6.1.2\lvgl\src\lv_misc/lv_printf.c ****       out(' ', buffer, idx++, maxlen);
 1479              		.loc 1 180 0
 1480 0574 C845     		cmp	r8, r9
 1481 0576 4246     		mov	r2, r8
 1482 0578 F6D1     		bne	.L134
 1483 057a 089A     		ldr	r2, [sp, #32]
 1484              	.LVL215:
 1485              	.L133:
 1486 057c DFF8C480 		ldr	r8, .L225+12
 1487              	.LVL216:
 1488              	.L135:
 1489              	.LBE116:
 187:..\..\..\lvgl\version_6.1.2\lvgl\src\lv_misc/lv_printf.c ****   }
 1490              		.loc 1 187 0
 1491 0580 18F8010D 		ldrb	r0, [r8, #-1]!	@ zero_extendqisi2
 1492              	.LVL217:
 1493 0584 3B46     		mov	r3, r7
 1494 0586 3146     		mov	r1, r6
 1495 0588 02F10109 		add	r9, r2, #1
ARM GAS  C:\Users\pearlstl\AppData\Local\Temp\ccbpFzqf.s 			page 39


 1496              	.LVL218:
 1497 058c A847     		blx	r5
 1498              	.LVL219:
 186:..\..\..\lvgl\version_6.1.2\lvgl\src\lv_misc/lv_printf.c ****     out(buf[--len], buffer, idx++, maxlen);
 1499              		.loc 1 186 0
 1500 058e 2A4B     		ldr	r3, .L225
 1501 0590 9845     		cmp	r8, r3
 187:..\..\..\lvgl\version_6.1.2\lvgl\src\lv_misc/lv_printf.c ****   }
 1502              		.loc 1 187 0
 1503 0592 4A46     		mov	r2, r9
 186:..\..\..\lvgl\version_6.1.2\lvgl\src\lv_misc/lv_printf.c ****     out(buf[--len], buffer, idx++, maxlen);
 1504              		.loc 1 186 0
 1505 0594 F4D1     		bne	.L135
 1506 0596 089A     		ldr	r2, [sp, #32]
 191:..\..\..\lvgl\version_6.1.2\lvgl\src\lv_misc/lv_printf.c ****     while (idx - start_idx < width) {
 1507              		.loc 1 191 0
 1508 0598 0C9B     		ldr	r3, [sp, #48]
 1509 059a 0432     		adds	r2, r2, #4
 1510 059c 73B1     		cbz	r3, .L161
 1511              	.LVL220:
 192:..\..\..\lvgl\version_6.1.2\lvgl\src\lv_misc/lv_printf.c ****       out(' ', buffer, idx++, maxlen);
 1512              		.loc 1 192 0
 1513 059e CAEB0203 		rsb	r3, r10, r2
 1514 05a2 9C42     		cmp	r4, r3
 1515 05a4 0AD9     		bls	.L161
 1516              	.LVL221:
 1517              	.L136:
 193:..\..\..\lvgl\version_6.1.2\lvgl\src\lv_misc/lv_printf.c ****     }
 1518              		.loc 1 193 0
 1519 05a6 02F10108 		add	r8, r2, #1
 1520              	.LVL222:
 1521 05aa 3B46     		mov	r3, r7
 1522 05ac 3146     		mov	r1, r6
 1523 05ae 2020     		movs	r0, #32
 1524 05b0 A847     		blx	r5
 1525              	.LVL223:
 192:..\..\..\lvgl\version_6.1.2\lvgl\src\lv_misc/lv_printf.c ****       out(' ', buffer, idx++, maxlen);
 1526              		.loc 1 192 0
 1527 05b2 CAEB0803 		rsb	r3, r10, r8
 1528 05b6 9C42     		cmp	r4, r3
 193:..\..\..\lvgl\version_6.1.2\lvgl\src\lv_misc/lv_printf.c ****     }
 1529              		.loc 1 193 0
 1530 05b8 4246     		mov	r2, r8
 192:..\..\..\lvgl\version_6.1.2\lvgl\src\lv_misc/lv_printf.c ****       out(' ', buffer, idx++, maxlen);
 1531              		.loc 1 192 0
 1532 05ba F4D8     		bhi	.L136
 1533              	.LVL224:
 1534              	.L161:
 187:..\..\..\lvgl\version_6.1.2\lvgl\src\lv_misc/lv_printf.c ****   }
 1535              		.loc 1 187 0
 1536 05bc 1446     		mov	r4, r2
 1537              	.LVL225:
 1538 05be 76E6     		b	.L129
 1539              	.LVL226:
 1540              	.L217:
 1541              	.LBE118:
 1542              	.LBE125:
ARM GAS  C:\Users\pearlstl\AppData\Local\Temp\ccbpFzqf.s 			page 40


 1543              	.LBE128:
 1544              	.LBE138:
 492:..\..\..\lvgl\version_6.1.2\lvgl\src\lv_misc/lv_printf.c ****         prec = (unsigned)((int)prec - expval - 1);
 1545              		.loc 1 492 0
 1546 05c0 249B     		ldr	r3, [sp, #144]
 498:..\..\..\lvgl\version_6.1.2\lvgl\src\lv_misc/lv_printf.c ****       // no characters in exponent
 1547              		.loc 1 498 0
 1548 05c2 269A     		ldr	r2, [sp, #152]
 492:..\..\..\lvgl\version_6.1.2\lvgl\src\lv_misc/lv_printf.c ****         prec = (unsigned)((int)prec - expval - 1);
 1549              		.loc 1 492 0
 1550 05c4 9B45     		cmp	fp, r3
 493:..\..\..\lvgl\version_6.1.2\lvgl\src\lv_misc/lv_printf.c ****       }
 1551              		.loc 1 493 0
 1552 05c6 BABF     		itte	lt
 1553 05c8 CBEB030B 		rsblt	fp, fp, r3
 1554              	.LVL227:
 1555 05cc 0BF1FF33 		addlt	r3, fp, #-1
 1556              	.LVL228:
 496:..\..\..\lvgl\version_6.1.2\lvgl\src\lv_misc/lv_printf.c ****       }
 1557              		.loc 1 496 0
 1558 05d0 0023     		movge	r3, #0
 1559 05d2 2493     		str	r3, [sp, #144]
 498:..\..\..\lvgl\version_6.1.2\lvgl\src\lv_misc/lv_printf.c ****       // no characters in exponent
 1560              		.loc 1 498 0
 1561 05d4 42F48062 		orr	r2, r2, #1024
 500:..\..\..\lvgl\version_6.1.2\lvgl\src\lv_misc/lv_printf.c ****       expval   = 0;
 1562              		.loc 1 500 0
 1563 05d8 0023     		movs	r3, #0
 1564 05da 0A93     		str	r3, [sp, #40]
 1565              	.LVL229:
 498:..\..\..\lvgl\version_6.1.2\lvgl\src\lv_misc/lv_printf.c ****       // no characters in exponent
 1566              		.loc 1 498 0
 1567 05dc 2692     		str	r2, [sp, #152]
 1568              	.LVL230:
 501:..\..\..\lvgl\version_6.1.2\lvgl\src\lv_misc/lv_printf.c ****     }
 1569              		.loc 1 501 0
 1570 05de 9B46     		mov	fp, r3
 1571 05e0 22E6     		b	.L114
 1572              	.LVL231:
 1573              	.L155:
 1574              	.LBB139:
 1575              	.LBB129:
 1576              	.LBB126:
 1577              	.LBB124:
 1578              	.LBB123:
 180:..\..\..\lvgl\version_6.1.2\lvgl\src\lv_misc/lv_printf.c ****       out(' ', buffer, idx++, maxlen);
 1579              		.loc 1 180 0
 1580 05e2 CDF820A0 		str	r10, [sp, #32]
 1581              	.LVL232:
 1582 05e6 5246     		mov	r2, r10
 1583              	.LVL233:
 1584              	.L126:
 1585 05e8 DFF85480 		ldr	r8, .L225+8
 1586              	.LVL234:
 1587              	.L128:
 1588              	.LBE123:
 187:..\..\..\lvgl\version_6.1.2\lvgl\src\lv_misc/lv_printf.c ****   }
ARM GAS  C:\Users\pearlstl\AppData\Local\Temp\ccbpFzqf.s 			page 41


 1589              		.loc 1 187 0
 1590 05ec 18F8010D 		ldrb	r0, [r8, #-1]!	@ zero_extendqisi2
 1591              	.LVL235:
 1592 05f0 3B46     		mov	r3, r7
 1593 05f2 3146     		mov	r1, r6
 1594 05f4 02F10109 		add	r9, r2, #1
 1595              	.LVL236:
 1596 05f8 A847     		blx	r5
 1597              	.LVL237:
 186:..\..\..\lvgl\version_6.1.2\lvgl\src\lv_misc/lv_printf.c ****     out(buf[--len], buffer, idx++, maxlen);
 1598              		.loc 1 186 0
 1599 05fa 104B     		ldr	r3, .L225+4
 1600 05fc 4345     		cmp	r3, r8
 187:..\..\..\lvgl\version_6.1.2\lvgl\src\lv_misc/lv_printf.c ****   }
 1601              		.loc 1 187 0
 1602 05fe 4A46     		mov	r2, r9
 186:..\..\..\lvgl\version_6.1.2\lvgl\src\lv_misc/lv_printf.c ****     out(buf[--len], buffer, idx++, maxlen);
 1603              		.loc 1 186 0
 1604 0600 F4D1     		bne	.L128
 1605 0602 089A     		ldr	r2, [sp, #32]
 191:..\..\..\lvgl\version_6.1.2\lvgl\src\lv_misc/lv_printf.c ****     while (idx - start_idx < width) {
 1606              		.loc 1 191 0
 1607 0604 0C9B     		ldr	r3, [sp, #48]
 1608 0606 0332     		adds	r2, r2, #3
 1609 0608 002B     		cmp	r3, #0
 1610 060a D7D0     		beq	.L161
 1611              	.LVL238:
 192:..\..\..\lvgl\version_6.1.2\lvgl\src\lv_misc/lv_printf.c ****       out(' ', buffer, idx++, maxlen);
 1612              		.loc 1 192 0
 1613 060c CAEB0203 		rsb	r3, r10, r2
 1614 0610 9C42     		cmp	r4, r3
 1615 0612 D3D9     		bls	.L161
 1616              	.LVL239:
 1617              	.L130:
 193:..\..\..\lvgl\version_6.1.2\lvgl\src\lv_misc/lv_printf.c ****     }
 1618              		.loc 1 193 0
 1619 0614 02F10108 		add	r8, r2, #1
 1620              	.LVL240:
 1621 0618 3B46     		mov	r3, r7
 1622 061a 3146     		mov	r1, r6
 1623 061c 2020     		movs	r0, #32
 1624 061e A847     		blx	r5
 1625              	.LVL241:
 192:..\..\..\lvgl\version_6.1.2\lvgl\src\lv_misc/lv_printf.c ****       out(' ', buffer, idx++, maxlen);
 1626              		.loc 1 192 0
 1627 0620 CAEB0803 		rsb	r3, r10, r8
 1628 0624 9C42     		cmp	r4, r3
 193:..\..\..\lvgl\version_6.1.2\lvgl\src\lv_misc/lv_printf.c ****     }
 1629              		.loc 1 193 0
 1630 0626 4246     		mov	r2, r8
 192:..\..\..\lvgl\version_6.1.2\lvgl\src\lv_misc/lv_printf.c ****       out(' ', buffer, idx++, maxlen);
 1631              		.loc 1 192 0
 1632 0628 F4D8     		bhi	.L130
 1633              	.LBE124:
 1634              	.LBE126:
 1635              	.LBB127:
 1636              	.LBB119:
ARM GAS  C:\Users\pearlstl\AppData\Local\Temp\ccbpFzqf.s 			page 42


 187:..\..\..\lvgl\version_6.1.2\lvgl\src\lv_misc/lv_printf.c ****   }
 1637              		.loc 1 187 0
 1638 062a 1446     		mov	r4, r2
 1639              	.LVL242:
 1640 062c 3FE6     		b	.L129
 1641              	.LVL243:
 1642              	.L159:
 1643              	.LBB117:
 180:..\..\..\lvgl\version_6.1.2\lvgl\src\lv_misc/lv_printf.c ****       out(' ', buffer, idx++, maxlen);
 1644              		.loc 1 180 0
 1645 062e CDF820A0 		str	r10, [sp, #32]
 1646              	.LVL244:
 1647 0632 5246     		mov	r2, r10
 1648 0634 A2E7     		b	.L133
 1649              	.L226:
 1650 0636 00BF     		.align	2
 1651              	.L225:
 1652 0638 04000000 		.word	.LC1
 1653 063c 00000000 		.word	.LC0
 1654 0640 03000000 		.word	.LC0+3
 1655 0644 04000000 		.word	.LC1+4
 1656              	.LBE117:
 1657              	.LBE119:
 1658              	.LBE127:
 1659              	.LBE129:
 1660              	.LBE139:
 1661              	.LBE142:
 1662              	.LBE148:
 1663              		.cfi_endproc
 1664              	.LFE10:
 1665              		.size	_etoa, .-_etoa
 1666              		.global	__aeabi_d2uiz
 1667              		.global	__aeabi_ui2d
 1668              		.section	.text._ftoa.part.1,"ax",%progbits
 1669              		.align	2
 1670              		.thumb
 1671              		.thumb_func
 1672              		.type	_ftoa.part.1, %function
 1673              	_ftoa.part.1:
 1674              	.LFB15:
 314:..\..\..\lvgl\version_6.1.2\lvgl\src\lv_misc/lv_printf.c **** {
 1675              		.loc 1 314 0
 1676              		.cfi_startproc
 1677              		@ args = 20, pretend = 0, frame = 72
 1678              		@ frame_needed = 0, uses_anonymous_args = 0
 1679              	.LVL245:
 1680 0000 2DE9F04F 		push	{r4, r5, r6, r7, r8, r9, r10, fp, lr}
 1681              		.cfi_def_cfa_offset 36
 1682              		.cfi_offset 4, -36
 1683              		.cfi_offset 5, -32
 1684              		.cfi_offset 6, -28
 1685              		.cfi_offset 7, -24
 1686              		.cfi_offset 8, -20
 1687              		.cfi_offset 9, -16
 1688              		.cfi_offset 10, -12
 1689              		.cfi_offset 11, -8
 1690              		.cfi_offset 14, -4
ARM GAS  C:\Users\pearlstl\AppData\Local\Temp\ccbpFzqf.s 			page 43


 1691 0004 93B0     		sub	sp, sp, #76
 1692              		.cfi_def_cfa_offset 112
 314:..\..\..\lvgl\version_6.1.2\lvgl\src\lv_misc/lv_printf.c **** {
 1693              		.loc 1 314 0
 1694 0006 9DED1C7B 		vldr.64	d7, [sp, #112]
 1695 000a 0546     		mov	r5, r0
 1696 000c 0E46     		mov	r6, r1
 1697 000e 9246     		mov	r10, r2
 1698 0010 0392     		str	r2, [sp, #12]
 1699 0012 1F46     		mov	r7, r3
 1700 0014 209C     		ldr	r4, [sp, #128]
 328:..\..\..\lvgl\version_6.1.2\lvgl\src\lv_misc/lv_printf.c ****     return _out_rev(out, buffer, idx, maxlen, (flags & FLAGS_PLUS) ? "fni+" : "fni", (flags & FLAGS
 1701              		.loc 1 328 0
 1702 0016 C44B     		ldr	r3, .L382+24
 1703              	.LVL246:
 314:..\..\..\lvgl\version_6.1.2\lvgl\src\lv_misc/lv_printf.c **** {
 1704              		.loc 1 314 0
 1705 0018 DDF87880 		ldr	r8, [sp, #120]
 1706 001c DDF87CB0 		ldr	fp, [sp, #124]
 1707 0020 0294     		str	r4, [sp, #8]
 328:..\..\..\lvgl\version_6.1.2\lvgl\src\lv_misc/lv_printf.c ****     return _out_rev(out, buffer, idx, maxlen, (flags & FLAGS_PLUS) ? "fni+" : "fni", (flags & FLAGS
 1708              		.loc 1 328 0
 1709 0022 51EC170B 		vmov	r0, r1, d7
 1710              	.LVL247:
 1711 0026 4FF0FF32 		mov	r2, #-1
 1712              	.LVL248:
 314:..\..\..\lvgl\version_6.1.2\lvgl\src\lv_misc/lv_printf.c **** {
 1713              		.loc 1 314 0
 1714 002a 8DED007B 		vstr.64	d7, [sp]
 328:..\..\..\lvgl\version_6.1.2\lvgl\src\lv_misc/lv_printf.c ****     return _out_rev(out, buffer, idx, maxlen, (flags & FLAGS_PLUS) ? "fni+" : "fni", (flags & FLAGS
 1715              		.loc 1 328 0
 1716 002e FFF7FEFF 		bl	__aeabi_dcmpgt
 1717              	.LVL249:
 1718 0032 0028     		cmp	r0, #0
 1719 0034 44D0     		beq	.L360
 329:..\..\..\lvgl\version_6.1.2\lvgl\src\lv_misc/lv_printf.c **** 
 1720              		.loc 1 329 0
 1721 0036 04F00403 		and	r3, r4, #4
 1722 003a 2146     		mov	r1, r4
 1723 003c BB4A     		ldr	r2, .L382+28
 1724 003e BC4C     		ldr	r4, .L382+32
 1725 0040 002B     		cmp	r3, #0
 1726              	.LBB157:
 1727              	.LBB158:
 178:..\..\..\lvgl\version_6.1.2\lvgl\src\lv_misc/lv_printf.c ****       size_t i;
 1728              		.loc 1 178 0
 1729 0042 0B46     		mov	r3, r1
 1730              	.LBE158:
 1731              	.LBE157:
 329:..\..\..\lvgl\version_6.1.2\lvgl\src\lv_misc/lv_printf.c **** 
 1732              		.loc 1 329 0
 1733 0044 0ABF     		itet	eq
 1734 0046 1446     		moveq	r4, r2
 1735 0048 4FF00409 		movne	r9, #4
 1736 004c 4FF00309 		moveq	r9, #3
 1737              	.LVL250:
 1738              	.LBB162:
ARM GAS  C:\Users\pearlstl\AppData\Local\Temp\ccbpFzqf.s 			page 44


 1739              	.LBB160:
 178:..\..\..\lvgl\version_6.1.2\lvgl\src\lv_misc/lv_printf.c ****       size_t i;
 1740              		.loc 1 178 0
 1741 0050 9B07     		lsls	r3, r3, #30
 1742 0052 0ED1     		bne	.L231
 1743              	.LVL251:
 1744              	.LBB159:
 180:..\..\..\lvgl\version_6.1.2\lvgl\src\lv_misc/lv_printf.c ****       out(' ', buffer, idx++, maxlen);
 1745              		.loc 1 180 0
 1746 0054 D945     		cmp	r9, fp
 1747 0056 0CD2     		bcs	.L231
 1748 0058 5246     		mov	r2, r10
 1749 005a DA44     		add	r10, r10, fp
 1750              	.LVL252:
 1751 005c C9EB0A0A 		rsb	r10, r9, r10
 1752              	.LVL253:
 1753              	.L232:
 181:..\..\..\lvgl\version_6.1.2\lvgl\src\lv_misc/lv_printf.c ****     }
 1754              		.loc 1 181 0
 1755 0060 02F10108 		add	r8, r2, #1
 1756              	.LVL254:
 1757 0064 3B46     		mov	r3, r7
 1758 0066 3146     		mov	r1, r6
 1759 0068 2020     		movs	r0, #32
 1760 006a A847     		blx	r5
 1761              	.LVL255:
 180:..\..\..\lvgl\version_6.1.2\lvgl\src\lv_misc/lv_printf.c ****       out(' ', buffer, idx++, maxlen);
 1762              		.loc 1 180 0
 1763 006c D045     		cmp	r8, r10
 1764 006e 4246     		mov	r2, r8
 1765 0070 F6D1     		bne	.L232
 1766              	.LVL256:
 1767              	.L231:
 1768 0072 4C44     		add	r4, r4, r9
 1769 0074 D144     		add	r9, r9, r10
 1770              	.LVL257:
 1771              	.L233:
 1772              	.LBE159:
 187:..\..\..\lvgl\version_6.1.2\lvgl\src\lv_misc/lv_printf.c ****   }
 1773              		.loc 1 187 0
 1774 0076 0AF10101 		add	r1, r10, #1
 1775              	.LVL258:
 1776 007a 5246     		mov	r2, r10
 1777 007c 3B46     		mov	r3, r7
 1778 007e 8A46     		mov	r10, r1
 1779 0080 14F8010D 		ldrb	r0, [r4, #-1]!	@ zero_extendqisi2
 1780 0084 3146     		mov	r1, r6
 1781              	.LVL259:
 1782 0086 A847     		blx	r5
 1783              	.LVL260:
 186:..\..\..\lvgl\version_6.1.2\lvgl\src\lv_misc/lv_printf.c ****     out(buf[--len], buffer, idx++, maxlen);
 1784              		.loc 1 186 0
 1785 0088 CA45     		cmp	r10, r9
 1786 008a F4D1     		bne	.L233
 191:..\..\..\lvgl\version_6.1.2\lvgl\src\lv_misc/lv_printf.c ****     while (idx - start_idx < width) {
 1787              		.loc 1 191 0
 1788 008c 029B     		ldr	r3, [sp, #8]
ARM GAS  C:\Users\pearlstl\AppData\Local\Temp\ccbpFzqf.s 			page 45


 1789 008e 9C07     		lsls	r4, r3, #30
 1790 0090 40F11981 		bpl	.L291
 1791              	.LVL261:
 192:..\..\..\lvgl\version_6.1.2\lvgl\src\lv_misc/lv_printf.c ****       out(' ', buffer, idx++, maxlen);
 1792              		.loc 1 192 0
 1793 0094 039C     		ldr	r4, [sp, #12]
 1794 0096 C4EB0903 		rsb	r3, r4, r9
 1795 009a 9B45     		cmp	fp, r3
 1796 009c 40F21381 		bls	.L291
 1797              	.LVL262:
 1798              	.L235:
 193:..\..\..\lvgl\version_6.1.2\lvgl\src\lv_misc/lv_printf.c ****     }
 1799              		.loc 1 193 0
 1800 00a0 09F10101 		add	r1, r9, #1
 1801              	.LVL263:
 1802 00a4 4A46     		mov	r2, r9
 1803 00a6 3B46     		mov	r3, r7
 1804 00a8 8946     		mov	r9, r1
 1805 00aa 2020     		movs	r0, #32
 1806 00ac 3146     		mov	r1, r6
 1807              	.LVL264:
 1808 00ae A847     		blx	r5
 1809              	.LVL265:
 192:..\..\..\lvgl\version_6.1.2\lvgl\src\lv_misc/lv_printf.c ****       out(' ', buffer, idx++, maxlen);
 1810              		.loc 1 192 0
 1811 00b0 C4EB0903 		rsb	r3, r4, r9
 1812 00b4 9B45     		cmp	fp, r3
 1813 00b6 F3D8     		bhi	.L235
 193:..\..\..\lvgl\version_6.1.2\lvgl\src\lv_misc/lv_printf.c ****     }
 1814              		.loc 1 193 0
 1815 00b8 4846     		mov	r0, r9
 1816              	.LBE160:
 1817              	.LBE162:
 437:..\..\..\lvgl\version_6.1.2\lvgl\src\lv_misc/lv_printf.c **** 
 1818              		.loc 1 437 0
 1819 00ba 13B0     		add	sp, sp, #76
 1820              		.cfi_remember_state
 1821              		.cfi_def_cfa_offset 36
 1822              		@ sp needed
 1823 00bc BDE8F08F 		pop	{r4, r5, r6, r7, r8, r9, r10, fp, pc}
 1824              	.LVL266:
 1825              	.L360:
 1826              		.cfi_restore_state
 333:..\..\..\lvgl\version_6.1.2\lvgl\src\lv_misc/lv_printf.c **** #if defined(PRINTF_SUPPORT_EXPONENTIAL)
 1827              		.loc 1 333 0
 1828 00c0 DDE9009A 		ldrd	r9, [sp]
 1829 00c4 92A3     		adr	r3, .L382
 1830 00c6 D3E90023 		ldrd	r2, [r3]
 1831 00ca 4846     		mov	r0, r9
 1832 00cc 5146     		mov	r1, r10
 1833 00ce FFF7FEFF 		bl	__aeabi_dcmpgt
 1834              	.LVL267:
 1835 00d2 0028     		cmp	r0, #0
 1836 00d4 40F0FB80 		bne	.L236
 1837 00d8 8FA3     		adr	r3, .L382+8
 1838 00da D3E90023 		ldrd	r2, [r3]
 1839 00de 4846     		mov	r0, r9
ARM GAS  C:\Users\pearlstl\AppData\Local\Temp\ccbpFzqf.s 			page 46


 1840 00e0 5146     		mov	r1, r10
 1841 00e2 FFF7FEFF 		bl	__aeabi_dcmplt
 1842              	.LVL268:
 1843 00e6 0028     		cmp	r0, #0
 1844 00e8 40F0F180 		bne	.L236
 1845              	.LVL269:
 1846 00ec 4846     		mov	r0, r9
 1847 00ee 5146     		mov	r1, r10
 343:..\..\..\lvgl\version_6.1.2\lvgl\src\lv_misc/lv_printf.c ****     negative = true;
 1848              		.loc 1 343 0
 1849 00f0 0022     		movs	r2, #0
 1850 00f2 0023     		movs	r3, #0
 1851 00f4 FFF7FEFF 		bl	__aeabi_dcmplt
 1852              	.LVL270:
 1853 00f8 0028     		cmp	r0, #0
 1854 00fa 40F0FB80 		bne	.L374
 342:..\..\..\lvgl\version_6.1.2\lvgl\src\lv_misc/lv_printf.c ****   if (value < 0) {
 1855              		.loc 1 342 0
 1856 00fe 0990     		str	r0, [sp, #36]
 1857 0100 2346     		mov	r3, r4
 1858              	.LVL271:
 1859              	.L239:
 349:..\..\..\lvgl\version_6.1.2\lvgl\src\lv_misc/lv_printf.c ****     prec = PRINTF_DEFAULT_FLOAT_PRECISION;
 1860              		.loc 1 349 0
 1861 0102 13F48069 		ands	r9, r3, #1024
 1862 0106 40F06881 		bne	.L375
 1863 010a 9FED857B 		vldr.64	d7, .L382+16
 1864 010e 8DED047B 		vstr.64	d7, [sp, #16]
 350:..\..\..\lvgl\version_6.1.2\lvgl\src\lv_misc/lv_printf.c ****   }
 1865              		.loc 1 350 0
 1866 0112 0624     		movs	r4, #6
 1867 0114 0DF1280A 		add	r10, sp, #40
 1868              	.LVL272:
 1869              	.L241:
 358:..\..\..\lvgl\version_6.1.2\lvgl\src\lv_misc/lv_printf.c ****   double tmp = (value - whole) * pow10[prec];
 1870              		.loc 1 358 0
 1871 0118 DDE90001 		ldrd	r0, [sp]
 1872 011c FFF7FEFF 		bl	__aeabi_d2iz
 1873              	.LVL273:
 1874 0120 0890     		str	r0, [sp, #32]
 1875              	.LVL274:
 359:..\..\..\lvgl\version_6.1.2\lvgl\src\lv_misc/lv_printf.c ****   unsigned long frac = (unsigned long)tmp;
 1876              		.loc 1 359 0
 1877 0122 FFF7FEFF 		bl	__aeabi_i2d
 1878              	.LVL275:
 1879 0126 0246     		mov	r2, r0
 1880 0128 0B46     		mov	r3, r1
 1881 012a DDE90001 		ldrd	r0, [sp]
 1882 012e FFF7FEFF 		bl	__aeabi_dsub
 1883              	.LVL276:
 1884 0132 DDE90423 		ldrd	r2, [sp, #16]
 1885 0136 FFF7FEFF 		bl	__aeabi_dmul
 1886              	.LVL277:
 1887 013a CDE90601 		strd	r0, [sp, #24]
 1888              	.LVL278:
 360:..\..\..\lvgl\version_6.1.2\lvgl\src\lv_misc/lv_printf.c ****   diff = tmp - frac;
 1889              		.loc 1 360 0
ARM GAS  C:\Users\pearlstl\AppData\Local\Temp\ccbpFzqf.s 			page 47


 1890 013e FFF7FEFF 		bl	__aeabi_d2uiz
 1891              	.LVL279:
 1892 0142 8046     		mov	r8, r0
 1893              	.LVL280:
 361:..\..\..\lvgl\version_6.1.2\lvgl\src\lv_misc/lv_printf.c **** 
 1894              		.loc 1 361 0
 1895 0144 FFF7FEFF 		bl	__aeabi_ui2d
 1896              	.LVL281:
 1897 0148 0246     		mov	r2, r0
 1898 014a 0B46     		mov	r3, r1
 1899 014c DDE90601 		ldrd	r0, [sp, #24]
 1900 0150 FFF7FEFF 		bl	__aeabi_dsub
 1901              	.LVL282:
 363:..\..\..\lvgl\version_6.1.2\lvgl\src\lv_misc/lv_printf.c ****     ++frac;
 1902              		.loc 1 363 0
 1903 0154 0022     		movs	r2, #0
 1904 0156 774B     		ldr	r3, .L382+36
 361:..\..\..\lvgl\version_6.1.2\lvgl\src\lv_misc/lv_printf.c **** 
 1905              		.loc 1 361 0
 1906 0158 CDE90601 		strd	r0, [sp, #24]
 1907              	.LVL283:
 363:..\..\..\lvgl\version_6.1.2\lvgl\src\lv_misc/lv_printf.c ****     ++frac;
 1908              		.loc 1 363 0
 1909 015c FFF7FEFF 		bl	__aeabi_dcmpgt
 1910              	.LVL284:
 1911 0160 0028     		cmp	r0, #0
 1912 0162 00F02B81 		beq	.L365
 364:..\..\..\lvgl\version_6.1.2\lvgl\src\lv_misc/lv_printf.c ****     // handle rollover, e.g. case 0.99 with prec 1 is 1.0
 1913              		.loc 1 364 0
 1914 0166 08F10108 		add	r8, r8, #1
 1915              	.LVL285:
 366:..\..\..\lvgl\version_6.1.2\lvgl\src\lv_misc/lv_printf.c ****       frac = 0;
 1916              		.loc 1 366 0
 1917 016a 4046     		mov	r0, r8
 1918 016c FFF7FEFF 		bl	__aeabi_ui2d
 1919              	.LVL286:
 1920 0170 DDE90423 		ldrd	r2, [sp, #16]
 1921 0174 FFF7FEFF 		bl	__aeabi_dcmpge
 1922              	.LVL287:
 1923 0178 20B1     		cbz	r0, .L247
 1924              	.LVL288:
 368:..\..\..\lvgl\version_6.1.2\lvgl\src\lv_misc/lv_printf.c ****     }
 1925              		.loc 1 368 0
 1926 017a 089B     		ldr	r3, [sp, #32]
 1927 017c 0133     		adds	r3, r3, #1
 1928 017e 0893     		str	r3, [sp, #32]
 1929              	.LVL289:
 367:..\..\..\lvgl\version_6.1.2\lvgl\src\lv_misc/lv_printf.c ****       ++whole;
 1930              		.loc 1 367 0
 1931 0180 4FF00008 		mov	r8, #0
 1932              	.LVL290:
 1933              	.L247:
 378:..\..\..\lvgl\version_6.1.2\lvgl\src\lv_misc/lv_printf.c ****     diff = value - (double)whole;
 1934              		.loc 1 378 0
 1935 0184 002C     		cmp	r4, #0
 1936 0186 40F0E180 		bne	.L250
 379:..\..\..\lvgl\version_6.1.2\lvgl\src\lv_misc/lv_printf.c ****     if ((!(diff < 0.5) || (diff > 0.5)) && (whole & 1)) {
ARM GAS  C:\Users\pearlstl\AppData\Local\Temp\ccbpFzqf.s 			page 48


 1937              		.loc 1 379 0
 1938 018a 0898     		ldr	r0, [sp, #32]
 1939 018c FFF7FEFF 		bl	__aeabi_i2d
 1940              	.LVL291:
 1941 0190 0246     		mov	r2, r0
 1942 0192 0B46     		mov	r3, r1
 1943 0194 DDE90001 		ldrd	r0, [sp]
 1944 0198 FFF7FEFF 		bl	__aeabi_dsub
 1945              	.LVL292:
 380:..\..\..\lvgl\version_6.1.2\lvgl\src\lv_misc/lv_printf.c ****       // exactly 0.5 and ODD, then round up
 1946              		.loc 1 380 0
 1947 019c 0022     		movs	r2, #0
 1948 019e 654B     		ldr	r3, .L382+36
 379:..\..\..\lvgl\version_6.1.2\lvgl\src\lv_misc/lv_printf.c ****     if ((!(diff < 0.5) || (diff > 0.5)) && (whole & 1)) {
 1949              		.loc 1 379 0
 1950 01a0 CDE90001 		strd	r0, [sp]
 1951              	.LVL293:
 380:..\..\..\lvgl\version_6.1.2\lvgl\src\lv_misc/lv_printf.c ****       // exactly 0.5 and ODD, then round up
 1952              		.loc 1 380 0
 1953 01a4 FFF7FEFF 		bl	__aeabi_dcmplt
 1954              	.LVL294:
 1955 01a8 0028     		cmp	r0, #0
 1956 01aa 00F0C780 		beq	.L251
 1957 01ae DDE90001 		ldrd	r0, [sp]
 1958 01b2 0022     		movs	r2, #0
 1959 01b4 5F4B     		ldr	r3, .L382+36
 1960 01b6 FFF7FEFF 		bl	__aeabi_dcmpgt
 1961              	.LVL295:
 1962 01ba 0028     		cmp	r0, #0
 1963 01bc 40F0BE80 		bne	.L251
 1964              	.LVL296:
 1965              	.L253:
 407:..\..\..\lvgl\version_6.1.2\lvgl\src\lv_misc/lv_printf.c ****     buf[len++] = (char)(48 + (whole % 10));
 1966              		.loc 1 407 0
 1967 01c0 B9F1200F 		cmp	r9, #32
 1968 01c4 00F0EF80 		beq	.L266
 408:..\..\..\lvgl\version_6.1.2\lvgl\src\lv_misc/lv_printf.c ****     if (!(whole /= 10)) {
 1969              		.loc 1 408 0
 1970 01c8 0898     		ldr	r0, [sp, #32]
 1971 01ca 5B4A     		ldr	r2, .L382+40
 1972 01cc C317     		asrs	r3, r0, #31
 1973 01ce 82FB0041 		smull	r4, r1, r2, r0
 1974 01d2 C3EBA103 		rsb	r3, r3, r1, asr #2
 1975 01d6 03EB8301 		add	r1, r3, r3, lsl #2
 1976 01da A0EB4101 		sub	r1, r0, r1, lsl #1
 1977 01de 12A8     		add	r0, sp, #72
 1978 01e0 4844     		add	r0, r0, r9
 1979 01e2 3031     		adds	r1, r1, #48
 1980 01e4 09F10108 		add	r8, r9, #1
 1981              	.LVL297:
 1982 01e8 00F8201C 		strb	r1, [r0, #-32]
 1983 01ec D144     		add	r9, r9, r10
 409:..\..\..\lvgl\version_6.1.2\lvgl\src\lv_misc/lv_printf.c ****       break;
 1984              		.loc 1 409 0
 1985 01ee ABB1     		cbz	r3, .L263
 1986              	.L264:
 408:..\..\..\lvgl\version_6.1.2\lvgl\src\lv_misc/lv_printf.c ****     if (!(whole /= 10)) {
ARM GAS  C:\Users\pearlstl\AppData\Local\Temp\ccbpFzqf.s 			page 49


 1987              		.loc 1 408 0
 1988 01f0 82FB0310 		smull	r1, r0, r2, r3
 1989 01f4 D917     		asrs	r1, r3, #31
 1990 01f6 C1EBA001 		rsb	r1, r1, r0, asr #2
 1991 01fa 01EB8100 		add	r0, r1, r1, lsl #2
 1992 01fe A3EB4003 		sub	r3, r3, r0, lsl #1
 1993              	.LVL298:
 407:..\..\..\lvgl\version_6.1.2\lvgl\src\lv_misc/lv_printf.c ****     buf[len++] = (char)(48 + (whole % 10));
 1994              		.loc 1 407 0
 1995 0202 B8F1200F 		cmp	r8, #32
 408:..\..\..\lvgl\version_6.1.2\lvgl\src\lv_misc/lv_printf.c ****     if (!(whole /= 10)) {
 1996              		.loc 1 408 0
 1997 0206 03F13003 		add	r3, r3, #48
 407:..\..\..\lvgl\version_6.1.2\lvgl\src\lv_misc/lv_printf.c ****     buf[len++] = (char)(48 + (whole % 10));
 1998              		.loc 1 407 0
 1999 020a 00F0CC80 		beq	.L266
 408:..\..\..\lvgl\version_6.1.2\lvgl\src\lv_misc/lv_printf.c ****     if (!(whole /= 10)) {
 2000              		.loc 1 408 0
 2001 020e 09F8013F 		strb	r3, [r9, #1]!
 2002 0212 08F10108 		add	r8, r8, #1
 2003              	.LVL299:
 409:..\..\..\lvgl\version_6.1.2\lvgl\src\lv_misc/lv_printf.c ****       break;
 2004              		.loc 1 409 0
 2005 0216 0B46     		mov	r3, r1
 2006 0218 0029     		cmp	r1, #0
 2007 021a E9D1     		bne	.L264
 2008              	.LVL300:
 2009              	.L263:
 415:..\..\..\lvgl\version_6.1.2\lvgl\src\lv_misc/lv_printf.c ****     if (width && (negative || (flags & (FLAGS_PLUS | FLAGS_SPACE)))) {
 2010              		.loc 1 415 0
 2011 021c 029B     		ldr	r3, [sp, #8]
 2012              	.LVL301:
 2013 021e 03F00303 		and	r3, r3, #3
 2014 0222 012B     		cmp	r3, #1
 2015 0224 00F05E81 		beq	.L376
 2016              	.LVL302:
 424:..\..\..\lvgl\version_6.1.2\lvgl\src\lv_misc/lv_printf.c ****     if (negative) {
 2017              		.loc 1 424 0
 2018 0228 B8F1200F 		cmp	r8, #32
 2019 022c 0AD0     		beq	.L274
 2020              	.L284:
 425:..\..\..\lvgl\version_6.1.2\lvgl\src\lv_misc/lv_printf.c ****       buf[len++] = '-';
 2021              		.loc 1 425 0
 2022 022e 099A     		ldr	r2, [sp, #36]
 2023 0230 002A     		cmp	r2, #0
 2024 0232 00F02081 		beq	.L275
 426:..\..\..\lvgl\version_6.1.2\lvgl\src\lv_misc/lv_printf.c ****     }
 2025              		.loc 1 426 0
 2026 0236 12AA     		add	r2, sp, #72
 2027 0238 4244     		add	r2, r2, r8
 2028 023a 2D21     		movs	r1, #45
 2029 023c 08F10108 		add	r8, r8, #1
 2030              	.LVL303:
 2031 0240 02F8201C 		strb	r1, [r2, #-32]
 2032              	.L274:
 2033              	.LVL304:
 2034              	.LBB163:
ARM GAS  C:\Users\pearlstl\AppData\Local\Temp\ccbpFzqf.s 			page 50


 2035              	.LBB164:
 178:..\..\..\lvgl\version_6.1.2\lvgl\src\lv_misc/lv_printf.c ****       size_t i;
 2036              		.loc 1 178 0
 2037 0244 002B     		cmp	r3, #0
 2038 0246 40F00981 		bne	.L295
 2039              	.LVL305:
 2040              	.L286:
 2041              	.LBB165:
 180:..\..\..\lvgl\version_6.1.2\lvgl\src\lv_misc/lv_printf.c ****       out(' ', buffer, idx++, maxlen);
 2042              		.loc 1 180 0
 2043 024a C345     		cmp	fp, r8
 2044 024c 039B     		ldr	r3, [sp, #12]
 2045 024e 40F20681 		bls	.L371
 2046 0252 1A46     		mov	r2, r3
 2047 0254 C3EB0809 		rsb	r9, r3, r8
 2048              	.LVL306:
 2049              	.L278:
 181:..\..\..\lvgl\version_6.1.2\lvgl\src\lv_misc/lv_printf.c ****     }
 2050              		.loc 1 181 0
 2051 0258 541C     		adds	r4, r2, #1
 2052              	.LVL307:
 2053 025a 3B46     		mov	r3, r7
 2054 025c 3146     		mov	r1, r6
 2055 025e 2020     		movs	r0, #32
 2056 0260 A847     		blx	r5
 2057              	.LVL308:
 180:..\..\..\lvgl\version_6.1.2\lvgl\src\lv_misc/lv_printf.c ****       out(' ', buffer, idx++, maxlen);
 2058              		.loc 1 180 0
 2059 0262 09EB0403 		add	r3, r9, r4
 2060 0266 5B45     		cmp	r3, fp
 181:..\..\..\lvgl\version_6.1.2\lvgl\src\lv_misc/lv_printf.c ****     }
 2061              		.loc 1 181 0
 2062 0268 2246     		mov	r2, r4
 180:..\..\..\lvgl\version_6.1.2\lvgl\src\lv_misc/lv_printf.c ****       out(' ', buffer, idx++, maxlen);
 2063              		.loc 1 180 0
 2064 026a F5D3     		bcc	.L278
 2065 026c 039B     		ldr	r3, [sp, #12]
 2066 026e 03EB0B04 		add	r4, r3, fp
 2067              	.LVL309:
 2068 0272 C8EB0403 		rsb	r3, r8, r4
 2069 0276 0093     		str	r3, [sp]
 2070 0278 1A46     		mov	r2, r3
 2071              	.LVL310:
 2072              	.L272:
 2073 027a C244     		add	r10, r10, r8
 2074              	.LBE165:
 2075              	.LBE164:
 2076              	.LBE163:
 419:..\..\..\lvgl\version_6.1.2\lvgl\src\lv_misc/lv_printf.c ****       buf[len++] = '0';
 2077              		.loc 1 419 0
 2078 027c 4446     		mov	r4, r8
 2079              	.LVL311:
 2080              	.L279:
 2081              	.LBB169:
 2082              	.LBB166:
 187:..\..\..\lvgl\version_6.1.2\lvgl\src\lv_misc/lv_printf.c ****   }
 2083              		.loc 1 187 0
ARM GAS  C:\Users\pearlstl\AppData\Local\Temp\ccbpFzqf.s 			page 51


 2084 027e 02F10109 		add	r9, r2, #1
 2085 0282 3B46     		mov	r3, r7
 2086 0284 3146     		mov	r1, r6
 2087 0286 1AF8010D 		ldrb	r0, [r10, #-1]!	@ zero_extendqisi2
 2088 028a 013C     		subs	r4, r4, #1
 2089              	.LVL312:
 2090 028c A847     		blx	r5
 2091              	.LVL313:
 2092 028e 4A46     		mov	r2, r9
 186:..\..\..\lvgl\version_6.1.2\lvgl\src\lv_misc/lv_printf.c ****     out(buf[--len], buffer, idx++, maxlen);
 2093              		.loc 1 186 0
 2094 0290 002C     		cmp	r4, #0
 2095 0292 F4D1     		bne	.L279
 2096 0294 009B     		ldr	r3, [sp]
 2097 0296 4344     		add	r3, r3, r8
 2098 0298 1A46     		mov	r2, r3
 191:..\..\..\lvgl\version_6.1.2\lvgl\src\lv_misc/lv_printf.c ****     while (idx - start_idx < width) {
 2099              		.loc 1 191 0
 2100 029a 029B     		ldr	r3, [sp, #8]
 2101 029c 9B07     		lsls	r3, r3, #30
 2102 029e 0ED5     		bpl	.L301
 2103              	.LVL314:
 192:..\..\..\lvgl\version_6.1.2\lvgl\src\lv_misc/lv_printf.c ****       out(' ', buffer, idx++, maxlen);
 2104              		.loc 1 192 0
 2105 02a0 0399     		ldr	r1, [sp, #12]
 2106 02a2 531A     		subs	r3, r2, r1
 2107 02a4 9B45     		cmp	fp, r3
 2108 02a6 0AD9     		bls	.L301
 2109 02a8 8846     		mov	r8, r1
 2110              	.LVL315:
 2111              	.L280:
 193:..\..\..\lvgl\version_6.1.2\lvgl\src\lv_misc/lv_printf.c ****     }
 2112              		.loc 1 193 0
 2113 02aa 541C     		adds	r4, r2, #1
 2114              	.LVL316:
 2115 02ac 3B46     		mov	r3, r7
 2116 02ae 3146     		mov	r1, r6
 2117 02b0 2020     		movs	r0, #32
 2118 02b2 A847     		blx	r5
 2119              	.LVL317:
 192:..\..\..\lvgl\version_6.1.2\lvgl\src\lv_misc/lv_printf.c ****       out(' ', buffer, idx++, maxlen);
 2120              		.loc 1 192 0
 2121 02b4 C8EB0403 		rsb	r3, r8, r4
 2122 02b8 9B45     		cmp	fp, r3
 193:..\..\..\lvgl\version_6.1.2\lvgl\src\lv_misc/lv_printf.c ****     }
 2123              		.loc 1 193 0
 2124 02ba 2246     		mov	r2, r4
 192:..\..\..\lvgl\version_6.1.2\lvgl\src\lv_misc/lv_printf.c ****       out(' ', buffer, idx++, maxlen);
 2125              		.loc 1 192 0
 2126 02bc F5D8     		bhi	.L280
 2127              	.LVL318:
 2128              	.L301:
 2129 02be 1046     		mov	r0, r2
 2130              	.LBE166:
 2131              	.LBE169:
 437:..\..\..\lvgl\version_6.1.2\lvgl\src\lv_misc/lv_printf.c **** 
 2132              		.loc 1 437 0
ARM GAS  C:\Users\pearlstl\AppData\Local\Temp\ccbpFzqf.s 			page 52


 2133 02c0 13B0     		add	sp, sp, #76
 2134              		.cfi_remember_state
 2135              		.cfi_def_cfa_offset 36
 2136              		@ sp needed
 2137 02c2 BDE8F08F 		pop	{r4, r5, r6, r7, r8, r9, r10, fp, pc}
 2138              	.LVL319:
 2139              	.L291:
 2140              		.cfi_restore_state
 2141              	.LBB170:
 2142              	.LBB161:
 192:..\..\..\lvgl\version_6.1.2\lvgl\src\lv_misc/lv_printf.c ****       out(' ', buffer, idx++, maxlen);
 2143              		.loc 1 192 0
 2144 02c6 5046     		mov	r0, r10
 2145              	.LBE161:
 2146              	.LBE170:
 437:..\..\..\lvgl\version_6.1.2\lvgl\src\lv_misc/lv_printf.c **** 
 2147              		.loc 1 437 0
 2148 02c8 13B0     		add	sp, sp, #76
 2149              		.cfi_remember_state
 2150              		.cfi_def_cfa_offset 36
 2151              		@ sp needed
 2152 02ca BDE8F08F 		pop	{r4, r5, r6, r7, r8, r9, r10, fp, pc}
 2153              	.LVL320:
 2154              	.L236:
 2155              		.cfi_restore_state
 335:..\..\..\lvgl\version_6.1.2\lvgl\src\lv_misc/lv_printf.c **** #else
 2156              		.loc 1 335 0
 2157 02ce 9DED007B 		vldr.64	d7, [sp]
 2158 02d2 029B     		ldr	r3, [sp, #8]
 2159 02d4 039A     		ldr	r2, [sp, #12]
 2160 02d6 2093     		str	r3, [sp, #128]
 2161 02d8 3146     		mov	r1, r6
 2162 02da 3B46     		mov	r3, r7
 2163 02dc 2846     		mov	r0, r5
 2164 02de CDF87CB0 		str	fp, [sp, #124]
 2165 02e2 CDF87880 		str	r8, [sp, #120]
 2166 02e6 8DED1C7B 		vstr.64	d7, [sp, #112]
 437:..\..\..\lvgl\version_6.1.2\lvgl\src\lv_misc/lv_printf.c **** 
 2167              		.loc 1 437 0
 2168 02ea 13B0     		add	sp, sp, #76
 2169              		.cfi_remember_state
 2170              		.cfi_def_cfa_offset 36
 2171              		@ sp needed
 2172 02ec BDE8F04F 		pop	{r4, r5, r6, r7, r8, r9, r10, fp, lr}
 2173              		.cfi_restore 14
 2174              		.cfi_restore 11
 2175              		.cfi_restore 10
 2176              		.cfi_restore 9
 2177              		.cfi_restore 8
 2178              		.cfi_restore 7
 2179              		.cfi_restore 6
 2180              		.cfi_restore 5
 2181              		.cfi_restore 4
 2182              		.cfi_def_cfa_offset 0
 2183              	.LVL321:
 335:..\..\..\lvgl\version_6.1.2\lvgl\src\lv_misc/lv_printf.c **** #else
 2184              		.loc 1 335 0
ARM GAS  C:\Users\pearlstl\AppData\Local\Temp\ccbpFzqf.s 			page 53


 2185 02f0 FFF7FEBF 		b	_etoa
 2186              	.LVL322:
 2187              	.L374:
 2188              		.cfi_restore_state
 345:..\..\..\lvgl\version_6.1.2\lvgl\src\lv_misc/lv_printf.c ****   }
 2189              		.loc 1 345 0
 2190 02f4 DDE90023 		ldrd	r2, [sp]
 2191 02f8 0020     		movs	r0, #0
 2192 02fa 0021     		movs	r1, #0
 2193 02fc FFF7FEFF 		bl	__aeabi_dsub
 2194              	.LVL323:
 344:..\..\..\lvgl\version_6.1.2\lvgl\src\lv_misc/lv_printf.c ****     value = 0 - value;
 2195              		.loc 1 344 0
 2196 0300 0123     		movs	r3, #1
 2197 0302 0993     		str	r3, [sp, #36]
 345:..\..\..\lvgl\version_6.1.2\lvgl\src\lv_misc/lv_printf.c ****   }
 2198              		.loc 1 345 0
 2199 0304 CDE90001 		strd	r0, [sp]
 2200              	.LVL324:
 2201 0308 2346     		mov	r3, r4
 2202 030a FAE6     		b	.L239
 2203              	.L383:
 2204 030c AFF30080 		.align	3
 2205              	.L382:
 2206 0310 00000000 		.word	0
 2207 0314 65CDCD41 		.word	1104006501
 2208 0318 00000000 		.word	0
 2209 031c 65CDCDC1 		.word	-1043477147
 2210 0320 00000000 		.word	0
 2211 0324 80842E41 		.word	1093567616
 2212 0328 FFFFEF7F 		.word	2146435071
 2213 032c 14000000 		.word	.LC3
 2214 0330 0C000000 		.word	.LC2
 2215 0334 0000E03F 		.word	1071644672
 2216 0338 67666666 		.word	1717986919
 2217              	.LVL325:
 2218              	.L251:
 380:..\..\..\lvgl\version_6.1.2\lvgl\src\lv_misc/lv_printf.c ****       // exactly 0.5 and ODD, then round up
 2219              		.loc 1 380 0
 2220 033c 089A     		ldr	r2, [sp, #32]
 2221 033e D007     		lsls	r0, r2, #31
 2222 0340 1346     		mov	r3, r2
 2223 0342 7FF53DAF 		bpl	.L253
 383:..\..\..\lvgl\version_6.1.2\lvgl\src\lv_misc/lv_printf.c ****     }
 2224              		.loc 1 383 0
 2225 0346 0133     		adds	r3, r3, #1
 2226 0348 0893     		str	r3, [sp, #32]
 2227              	.LVL326:
 2228 034a 39E7     		b	.L253
 2229              	.LVL327:
 2230              	.L250:
 2231              	.LBB171:
 389:..\..\..\lvgl\version_6.1.2\lvgl\src\lv_misc/lv_printf.c ****       --count;
 2232              		.loc 1 389 0
 2233 034c B9F1200F 		cmp	r9, #32
 2234 0350 29D0     		beq	.L266
 391:..\..\..\lvgl\version_6.1.2\lvgl\src\lv_misc/lv_printf.c ****       if (!(frac /= 10U)) {
ARM GAS  C:\Users\pearlstl\AppData\Local\Temp\ccbpFzqf.s 			page 54


 2235              		.loc 1 391 0
 2236 0352 7149     		ldr	r1, .L384
 2237 0354 A1FB0823 		umull	r2, r3, r1, r8
 2238 0358 DB08     		lsrs	r3, r3, #3
 2239 035a 03EB8302 		add	r2, r3, r3, lsl #2
 2240 035e A8EB4208 		sub	r8, r8, r2, lsl #1
 2241              	.LVL328:
 2242 0362 12AA     		add	r2, sp, #72
 2243 0364 4A44     		add	r2, r2, r9
 2244 0366 08F13008 		add	r8, r8, #48
 2245 036a 02F8208C 		strb	r8, [r2, #-32]
 390:..\..\..\lvgl\version_6.1.2\lvgl\src\lv_misc/lv_printf.c ****       buf[len++] = (char)(48U + (frac % 10U));
 2246              		.loc 1 390 0
 2247 036e 013C     		subs	r4, r4, #1
 2248              	.LVL329:
 391:..\..\..\lvgl\version_6.1.2\lvgl\src\lv_misc/lv_printf.c ****       if (!(frac /= 10U)) {
 2249              		.loc 1 391 0
 2250 0370 09F10102 		add	r2, r9, #1
 2251              	.LVL330:
 392:..\..\..\lvgl\version_6.1.2\lvgl\src\lv_misc/lv_printf.c ****         break;
 2252              		.loc 1 392 0
 2253 0374 002B     		cmp	r3, #0
 2254 0376 00F08C80 		beq	.L255
 2255 037a D144     		add	r9, r9, r10
 391:..\..\..\lvgl\version_6.1.2\lvgl\src\lv_misc/lv_printf.c ****       if (!(frac /= 10U)) {
 2256              		.loc 1 391 0
 2257 037c 8E46     		mov	lr, r1
 2258 037e 07E0     		b	.L256
 2259              	.LVL331:
 2260              	.L257:
 2261 0380 09F8013F 		strb	r3, [r9, #1]!
 390:..\..\..\lvgl\version_6.1.2\lvgl\src\lv_misc/lv_printf.c ****       buf[len++] = (char)(48U + (frac % 10U));
 2262              		.loc 1 390 0
 2263 0384 013C     		subs	r4, r4, #1
 2264              	.LVL332:
 391:..\..\..\lvgl\version_6.1.2\lvgl\src\lv_misc/lv_printf.c ****       if (!(frac /= 10U)) {
 2265              		.loc 1 391 0
 2266 0386 0132     		adds	r2, r2, #1
 2267              	.LVL333:
 392:..\..\..\lvgl\version_6.1.2\lvgl\src\lv_misc/lv_printf.c ****         break;
 2268              		.loc 1 392 0
 2269 0388 0B46     		mov	r3, r1
 2270 038a 0029     		cmp	r1, #0
 2271 038c 00F08180 		beq	.L255
 2272              	.LVL334:
 2273              	.L256:
 391:..\..\..\lvgl\version_6.1.2\lvgl\src\lv_misc/lv_printf.c ****       if (!(frac /= 10U)) {
 2274              		.loc 1 391 0
 2275 0390 AEFB0301 		umull	r0, r1, lr, r3
 2276 0394 C908     		lsrs	r1, r1, #3
 2277 0396 01EB8100 		add	r0, r1, r1, lsl #2
 2278 039a A3EB4003 		sub	r3, r3, r0, lsl #1
 2279              	.LVL335:
 389:..\..\..\lvgl\version_6.1.2\lvgl\src\lv_misc/lv_printf.c ****       --count;
 2280              		.loc 1 389 0
 2281 039e 202A     		cmp	r2, #32
 391:..\..\..\lvgl\version_6.1.2\lvgl\src\lv_misc/lv_printf.c ****       if (!(frac /= 10U)) {
ARM GAS  C:\Users\pearlstl\AppData\Local\Temp\ccbpFzqf.s 			page 55


 2282              		.loc 1 391 0
 2283 03a0 03F13003 		add	r3, r3, #48
 389:..\..\..\lvgl\version_6.1.2\lvgl\src\lv_misc/lv_printf.c ****       --count;
 2284              		.loc 1 389 0
 2285 03a4 ECD1     		bne	.L257
 2286              	.LVL336:
 2287              	.L266:
 2288              	.LBE171:
 415:..\..\..\lvgl\version_6.1.2\lvgl\src\lv_misc/lv_printf.c ****     if (width && (negative || (flags & (FLAGS_PLUS | FLAGS_SPACE)))) {
 2289              		.loc 1 415 0
 2290 03a6 029B     		ldr	r3, [sp, #8]
 2291 03a8 03F00303 		and	r3, r3, #3
 2292 03ac 012B     		cmp	r3, #1
 2293 03ae 36D0     		beq	.L377
 2294              	.LVL337:
 2295              	.LBB172:
 2296              	.LBB167:
 178:..\..\..\lvgl\version_6.1.2\lvgl\src\lv_misc/lv_printf.c ****       size_t i;
 2297              		.loc 1 178 0
 2298 03b0 002B     		cmp	r3, #0
 2299 03b2 40F09180 		bne	.L370
 2300 03b6 4FF02008 		mov	r8, #32
 2301 03ba 46E7     		b	.L286
 2302              	.LVL338:
 2303              	.L365:
 2304              	.LBE167:
 2305              	.LBE172:
 371:..\..\..\lvgl\version_6.1.2\lvgl\src\lv_misc/lv_printf.c ****   }
 2306              		.loc 1 371 0
 2307 03bc DDE90601 		ldrd	r0, [sp, #24]
 2308 03c0 0022     		movs	r2, #0
 2309 03c2 564B     		ldr	r3, .L384+4
 2310 03c4 FFF7FEFF 		bl	__aeabi_dcmplt
 2311              	.LVL339:
 2312 03c8 0028     		cmp	r0, #0
 2313 03ca 7FF4DBAE 		bne	.L247
 373:..\..\..\lvgl\version_6.1.2\lvgl\src\lv_misc/lv_printf.c ****     // if halfway, round up if odd OR if last digit is 0
 2314              		.loc 1 373 0
 2315 03ce B8F1000F 		cmp	r8, #0
 2316 03d2 74D1     		bne	.L378
 2317              	.L249:
 375:..\..\..\lvgl\version_6.1.2\lvgl\src\lv_misc/lv_printf.c ****   }
 2318              		.loc 1 375 0
 2319 03d4 08F10108 		add	r8, r8, #1
 2320              	.LVL340:
 2321 03d8 D4E6     		b	.L247
 2322              	.LVL341:
 2323              	.L375:
 353:..\..\..\lvgl\version_6.1.2\lvgl\src\lv_misc/lv_printf.c ****     buf[len++] = '0';
 2324              		.loc 1 353 0
 2325 03da B8F1090F 		cmp	r8, #9
 2326 03de 40F28D80 		bls	.L379
 2327              	.LVL342:
 354:..\..\..\lvgl\version_6.1.2\lvgl\src\lv_misc/lv_printf.c ****     prec--;
 2328              		.loc 1 354 0
 2329 03e2 0DF1480A 		add	r10, sp, #72
 2330              	.LVL343:
ARM GAS  C:\Users\pearlstl\AppData\Local\Temp\ccbpFzqf.s 			page 56


 2331 03e6 3021     		movs	r1, #48
 2332 03e8 0AF8201D 		strb	r1, [r10, #-32]!
 355:..\..\..\lvgl\version_6.1.2\lvgl\src\lv_misc/lv_printf.c ****   }
 2333              		.loc 1 355 0
 2334 03ec 08F1FF34 		add	r4, r8, #-1
 2335              	.LVL344:
 2336 03f0 5246     		mov	r2, r10
 2337 03f2 A8F10909 		sub	r9, r8, #9
 2338 03f6 0123     		movs	r3, #1
 2339 03f8 05E0     		b	.L243
 2340              	.LVL345:
 2341              	.L244:
 353:..\..\..\lvgl\version_6.1.2\lvgl\src\lv_misc/lv_printf.c ****     buf[len++] = '0';
 2342              		.loc 1 353 0
 2343 03fa 202B     		cmp	r3, #32
 354:..\..\..\lvgl\version_6.1.2\lvgl\src\lv_misc/lv_printf.c ****     prec--;
 2344              		.loc 1 354 0
 2345 03fc 02F8011F 		strb	r1, [r2, #1]!
 355:..\..\..\lvgl\version_6.1.2\lvgl\src\lv_misc/lv_printf.c ****   }
 2346              		.loc 1 355 0
 2347 0400 04F1FF34 		add	r4, r4, #-1
 2348              	.LVL346:
 353:..\..\..\lvgl\version_6.1.2\lvgl\src\lv_misc/lv_printf.c ****     buf[len++] = '0';
 2349              		.loc 1 353 0
 2350 0404 2ED0     		beq	.L380
 2351              	.LVL347:
 2352              	.L243:
 2353 0406 4B45     		cmp	r3, r9
 354:..\..\..\lvgl\version_6.1.2\lvgl\src\lv_misc/lv_printf.c ****     prec--;
 2354              		.loc 1 354 0
 2355 0408 03F10103 		add	r3, r3, #1
 2356              	.LVL348:
 353:..\..\..\lvgl\version_6.1.2\lvgl\src\lv_misc/lv_printf.c ****     buf[len++] = '0';
 2357              		.loc 1 353 0
 2358 040c F5D1     		bne	.L244
 2359 040e 444B     		ldr	r3, .L384+8
 2360              	.LVL349:
 2361 0410 03EBC403 		add	r3, r3, r4, lsl #3
 2362 0414 93ED007B 		vldr.64	d7, [r3]
 2363 0418 8DED047B 		vstr.64	d7, [sp, #16]
 2364 041c 7CE6     		b	.L241
 2365              	.LVL350:
 2366              	.L377:
 416:..\..\..\lvgl\version_6.1.2\lvgl\src\lv_misc/lv_printf.c ****       width--;
 2367              		.loc 1 416 0
 2368 041e 4FF02008 		mov	r8, #32
 2369 0422 BBF1000F 		cmp	fp, #0
 2370 0426 57D0     		beq	.L370
 2371              	.LVL351:
 2372              	.L285:
 2373 0428 099B     		ldr	r3, [sp, #36]
 2374 042a 1BB9     		cbnz	r3, .L270
 2375 042c 029B     		ldr	r3, [sp, #8]
 2376 042e 13F00C0F 		tst	r3, #12
 2377 0432 01D0     		beq	.L271
 2378              	.L270:
 417:..\..\..\lvgl\version_6.1.2\lvgl\src\lv_misc/lv_printf.c ****     }
ARM GAS  C:\Users\pearlstl\AppData\Local\Temp\ccbpFzqf.s 			page 57


 2379              		.loc 1 417 0
 2380 0434 0BF1FF3B 		add	fp, fp, #-1
 2381              	.LVL352:
 2382              	.L271:
 419:..\..\..\lvgl\version_6.1.2\lvgl\src\lv_misc/lv_printf.c ****       buf[len++] = '0';
 2383              		.loc 1 419 0
 2384 0438 C345     		cmp	fp, r8
 2385 043a 56D9     		bls	.L269
 2386 043c B8F1200F 		cmp	r8, #32
 2387 0440 0CD0     		beq	.L295
 2388 0442 08F1FF33 		add	r3, r8, #-1
 2389 0446 5344     		add	r3, r3, r10
 420:..\..\..\lvgl\version_6.1.2\lvgl\src\lv_misc/lv_printf.c ****     }
 2390              		.loc 1 420 0
 2391 0448 3022     		movs	r2, #48
 2392              	.L273:
 2393 044a 08F10108 		add	r8, r8, #1
 2394              	.LVL353:
 419:..\..\..\lvgl\version_6.1.2\lvgl\src\lv_misc/lv_printf.c ****       buf[len++] = '0';
 2395              		.loc 1 419 0
 2396 044e D845     		cmp	r8, fp
 420:..\..\..\lvgl\version_6.1.2\lvgl\src\lv_misc/lv_printf.c ****     }
 2397              		.loc 1 420 0
 2398 0450 03F8012F 		strb	r2, [r3, #1]!
 419:..\..\..\lvgl\version_6.1.2\lvgl\src\lv_misc/lv_printf.c ****       buf[len++] = '0';
 2399              		.loc 1 419 0
 2400 0454 50D0     		beq	.L296
 2401 0456 B8F1200F 		cmp	r8, #32
 2402 045a F6D1     		bne	.L273
 2403              	.L295:
 2404 045c 039B     		ldr	r3, [sp, #12]
 2405              	.LVL354:
 2406              	.L371:
 2407 045e 0093     		str	r3, [sp]
 2408 0460 1A46     		mov	r2, r3
 2409 0462 0AE7     		b	.L272
 2410              	.LVL355:
 2411              	.L380:
 2412 0464 2E4A     		ldr	r2, .L384+8
 2413 0466 02EBC402 		add	r2, r2, r4, lsl #3
 2414 046a 92ED007B 		vldr.64	d7, [r2]
 353:..\..\..\lvgl\version_6.1.2\lvgl\src\lv_misc/lv_printf.c ****     buf[len++] = '0';
 2415              		.loc 1 353 0
 2416 046e 9946     		mov	r9, r3
 2417 0470 8DED047B 		vstr.64	d7, [sp, #16]
 2418 0474 50E6     		b	.L241
 2419              	.LVL356:
 2420              	.L275:
 428:..\..\..\lvgl\version_6.1.2\lvgl\src\lv_misc/lv_printf.c ****       buf[len++] = '+';  // ignore the space if the '+' exists
 2421              		.loc 1 428 0
 2422 0476 029A     		ldr	r2, [sp, #8]
 2423 0478 5107     		lsls	r1, r2, #29
 2424 047a 25D4     		bmi	.L381
 431:..\..\..\lvgl\version_6.1.2\lvgl\src\lv_misc/lv_printf.c ****       buf[len++] = ' ';
 2425              		.loc 1 431 0
 2426 047c 1207     		lsls	r2, r2, #28
 2427 047e 7FF5E1AE 		bpl	.L274
ARM GAS  C:\Users\pearlstl\AppData\Local\Temp\ccbpFzqf.s 			page 58


 432:..\..\..\lvgl\version_6.1.2\lvgl\src\lv_misc/lv_printf.c ****     }
 2428              		.loc 1 432 0
 2429 0482 12AA     		add	r2, sp, #72
 2430 0484 4244     		add	r2, r2, r8
 2431 0486 2021     		movs	r1, #32
 2432 0488 08F10108 		add	r8, r8, #1
 2433              	.LVL357:
 2434 048c 02F8201C 		strb	r1, [r2, #-32]
 2435 0490 D8E6     		b	.L274
 2436              	.LVL358:
 2437              	.L255:
 2438              	.LBB173:
 397:..\..\..\lvgl\version_6.1.2\lvgl\src\lv_misc/lv_printf.c ****       buf[len++] = '0';
 2439              		.loc 1 397 0
 2440 0492 202A     		cmp	r2, #32
 2441 0494 87D0     		beq	.L266
 2442              	.LVL359:
 2443 0496 54B1     		cbz	r4, .L260
 2444 0498 531E     		subs	r3, r2, #1
 2445              	.LVL360:
 2446 049a 5344     		add	r3, r3, r10
 398:..\..\..\lvgl\version_6.1.2\lvgl\src\lv_misc/lv_printf.c ****     }
 2447              		.loc 1 398 0
 2448 049c 3021     		movs	r1, #48
 2449              	.LVL361:
 2450              	.L262:
 2451 049e 0132     		adds	r2, r2, #1
 2452              	.LVL362:
 397:..\..\..\lvgl\version_6.1.2\lvgl\src\lv_misc/lv_printf.c ****       buf[len++] = '0';
 2453              		.loc 1 397 0
 2454 04a0 202A     		cmp	r2, #32
 398:..\..\..\lvgl\version_6.1.2\lvgl\src\lv_misc/lv_printf.c ****     }
 2455              		.loc 1 398 0
 2456 04a2 03F8011F 		strb	r1, [r3, #1]!
 2457              	.LVL363:
 397:..\..\..\lvgl\version_6.1.2\lvgl\src\lv_misc/lv_printf.c ****       buf[len++] = '0';
 2458              		.loc 1 397 0
 2459 04a6 3FF47EAF 		beq	.L266
 2460 04aa 013C     		subs	r4, r4, #1
 2461              	.LVL364:
 2462 04ac F7D1     		bne	.L262
 2463              	.LVL365:
 2464              	.L260:
 402:..\..\..\lvgl\version_6.1.2\lvgl\src\lv_misc/lv_printf.c ****     }
 2465              		.loc 1 402 0
 2466 04ae 12AB     		add	r3, sp, #72
 2467 04b0 1344     		add	r3, r3, r2
 2468 04b2 2E21     		movs	r1, #46
 2469 04b4 02F10109 		add	r9, r2, #1
 2470              	.LVL366:
 2471 04b8 03F8201C 		strb	r1, [r3, #-32]
 2472 04bc 80E6     		b	.L253
 2473              	.LVL367:
 2474              	.L378:
 2475              	.LBE173:
 373:..\..\..\lvgl\version_6.1.2\lvgl\src\lv_misc/lv_printf.c ****     // if halfway, round up if odd OR if last digit is 0
 2476              		.loc 1 373 0
ARM GAS  C:\Users\pearlstl\AppData\Local\Temp\ccbpFzqf.s 			page 59


 2477 04be 18F0010F 		tst	r8, #1
 2478 04c2 3FF45FAE 		beq	.L247
 2479 04c6 85E7     		b	.L249
 2480              	.LVL368:
 2481              	.L381:
 429:..\..\..\lvgl\version_6.1.2\lvgl\src\lv_misc/lv_printf.c ****     }
 2482              		.loc 1 429 0
 2483 04c8 12AA     		add	r2, sp, #72
 2484 04ca 4244     		add	r2, r2, r8
 2485 04cc 2B21     		movs	r1, #43
 2486 04ce 08F10108 		add	r8, r8, #1
 2487              	.LVL369:
 2488 04d2 02F8201C 		strb	r1, [r2, #-32]
 2489 04d6 B5E6     		b	.L274
 2490              	.LVL370:
 2491              	.L370:
 2492              	.LBB174:
 2493              	.LBB168:
 178:..\..\..\lvgl\version_6.1.2\lvgl\src\lv_misc/lv_printf.c ****       size_t i;
 2494              		.loc 1 178 0
 2495 04d8 039B     		ldr	r3, [sp, #12]
 2496 04da 0093     		str	r3, [sp]
 2497 04dc 4FF02008 		mov	r8, #32
 2498 04e0 1A46     		mov	r2, r3
 2499 04e2 CAE6     		b	.L272
 2500              	.LVL371:
 2501              	.L376:
 2502              	.LBE168:
 2503              	.LBE174:
 416:..\..\..\lvgl\version_6.1.2\lvgl\src\lv_misc/lv_printf.c ****       width--;
 2504              		.loc 1 416 0
 2505 04e4 BBF1000F 		cmp	fp, #0
 2506 04e8 9ED1     		bne	.L285
 2507              	.LVL372:
 2508              	.L269:
 424:..\..\..\lvgl\version_6.1.2\lvgl\src\lv_misc/lv_printf.c ****     if (negative) {
 2509              		.loc 1 424 0
 2510 04ea B8F1200F 		cmp	r8, #32
 2511 04ee 18BF     		it	ne
 2512 04f0 0123     		movne	r3, #1
 2513 04f2 7FF49CAE 		bne	.L284
 2514 04f6 B1E7     		b	.L295
 2515              	.L296:
 419:..\..\..\lvgl\version_6.1.2\lvgl\src\lv_misc/lv_printf.c ****       buf[len++] = '0';
 2516              		.loc 1 419 0
 2517 04f8 D846     		mov	r8, fp
 2518              	.LVL373:
 2519 04fa F6E7     		b	.L269
 2520              	.LVL374:
 2521              	.L379:
 2522 04fc 084B     		ldr	r3, .L384+8
 2523 04fe 03EBC803 		add	r3, r3, r8, lsl #3
 2524 0502 93ED007B 		vldr.64	d7, [r3]
 353:..\..\..\lvgl\version_6.1.2\lvgl\src\lv_misc/lv_printf.c ****     buf[len++] = '0';
 2525              		.loc 1 353 0
 2526 0506 4446     		mov	r4, r8
 2527 0508 8DED047B 		vstr.64	d7, [sp, #16]
ARM GAS  C:\Users\pearlstl\AppData\Local\Temp\ccbpFzqf.s 			page 60


 2528 050c 4FF00009 		mov	r9, #0
 2529 0510 0DF1280A 		add	r10, sp, #40
 2530              	.LVL375:
 2531 0514 00E6     		b	.L241
 2532              	.L385:
 2533 0516 00BF     		.align	2
 2534              	.L384:
 2535 0518 CDCCCCCC 		.word	-858993459
 2536 051c 0000E03F 		.word	1071644672
 2537 0520 00000000 		.word	.LANCHOR0
 2538              		.cfi_endproc
 2539              	.LFE15:
 2540              		.size	_ftoa.part.1, .-_ftoa.part.1
 2541              		.global	__aeabi_uldivmod
 2542              		.section	.text._vsnprintf.constprop.2,"ax",%progbits
 2543              		.align	2
 2544              		.thumb
 2545              		.thumb_func
 2546              		.type	_vsnprintf.constprop.2, %function
 2547              	_vsnprintf.constprop.2:
 2548              	.LFB16:
 547:..\..\..\lvgl\version_6.1.2\lvgl\src\lv_misc/lv_printf.c **** #endif  // PRINTF_SUPPORT_EXPONENTIAL
 548:..\..\..\lvgl\version_6.1.2\lvgl\src\lv_misc/lv_printf.c **** #endif  // PRINTF_SUPPORT_FLOAT
 549:..\..\..\lvgl\version_6.1.2\lvgl\src\lv_misc/lv_printf.c **** 
 550:..\..\..\lvgl\version_6.1.2\lvgl\src\lv_misc/lv_printf.c **** 
 551:..\..\..\lvgl\version_6.1.2\lvgl\src\lv_misc/lv_printf.c **** // internal vsnprintf
 552:..\..\..\lvgl\version_6.1.2\lvgl\src\lv_misc/lv_printf.c **** static int _vsnprintf(out_fct_type out, char* buffer, const size_t maxlen, const char* format, va_l
 2549              		.loc 1 552 0
 2550              		.cfi_startproc
 2551              		@ args = 0, pretend = 0, frame = 80
 2552              		@ frame_needed = 0, uses_anonymous_args = 0
 2553              	.LVL376:
 2554 0000 2DE9F04F 		push	{r4, r5, r6, r7, r8, r9, r10, fp, lr}
 2555              		.cfi_def_cfa_offset 36
 2556              		.cfi_offset 4, -36
 2557              		.cfi_offset 5, -32
 2558              		.cfi_offset 6, -28
 2559              		.cfi_offset 7, -24
 2560              		.cfi_offset 8, -20
 2561              		.cfi_offset 9, -16
 2562              		.cfi_offset 10, -12
 2563              		.cfi_offset 11, -8
 2564              		.cfi_offset 14, -4
 553:..\..\..\lvgl\version_6.1.2\lvgl\src\lv_misc/lv_printf.c **** {
 554:..\..\..\lvgl\version_6.1.2\lvgl\src\lv_misc/lv_printf.c ****   unsigned int flags, width, precision, n;
 555:..\..\..\lvgl\version_6.1.2\lvgl\src\lv_misc/lv_printf.c ****   size_t idx = 0U;
 556:..\..\..\lvgl\version_6.1.2\lvgl\src\lv_misc/lv_printf.c **** 
 557:..\..\..\lvgl\version_6.1.2\lvgl\src\lv_misc/lv_printf.c ****   if (!buffer) {
 2565              		.loc 1 557 0
 2566 0004 8B4E     		ldr	r6, .L830
 2567 0006 8C4D     		ldr	r5, .L830+4
 552:..\..\..\lvgl\version_6.1.2\lvgl\src\lv_misc/lv_printf.c **** {
 2568              		.loc 1 552 0
 2569 0008 9DB0     		sub	sp, sp, #116
 2570              		.cfi_def_cfa_offset 152
 552:..\..\..\lvgl\version_6.1.2\lvgl\src\lv_misc/lv_printf.c **** {
 2571              		.loc 1 552 0
ARM GAS  C:\Users\pearlstl\AppData\Local\Temp\ccbpFzqf.s 			page 61


 2572 000a 1446     		mov	r4, r2
 2573 000c 0C93     		str	r3, [sp, #48]
 2574              	.LVL377:
 2575              		.loc 1 557 0
 2576 000e 3346     		mov	r3, r6
 2577              	.LVL378:
 2578 0010 0028     		cmp	r0, #0
 2579 0012 18BF     		it	ne
 2580 0014 2B46     		movne	r3, r5
 2581 0016 0893     		str	r3, [sp, #32]
 2582              	.LBB237:
 558:..\..\..\lvgl\version_6.1.2\lvgl\src\lv_misc/lv_printf.c ****     // use null output function
 559:..\..\..\lvgl\version_6.1.2\lvgl\src\lv_misc/lv_printf.c ****     out = _out_null;
 560:..\..\..\lvgl\version_6.1.2\lvgl\src\lv_misc/lv_printf.c ****   }
 561:..\..\..\lvgl\version_6.1.2\lvgl\src\lv_misc/lv_printf.c **** 
 562:..\..\..\lvgl\version_6.1.2\lvgl\src\lv_misc/lv_printf.c ****   while (*format)
 563:..\..\..\lvgl\version_6.1.2\lvgl\src\lv_misc/lv_printf.c ****   {
 564:..\..\..\lvgl\version_6.1.2\lvgl\src\lv_misc/lv_printf.c ****     // format specifier?  %[flags][width][.precision][length]
 565:..\..\..\lvgl\version_6.1.2\lvgl\src\lv_misc/lv_printf.c ****     if (*format != '%') {
 566:..\..\..\lvgl\version_6.1.2\lvgl\src\lv_misc/lv_printf.c ****       // no
 567:..\..\..\lvgl\version_6.1.2\lvgl\src\lv_misc/lv_printf.c ****       out(*format, buffer, idx++, maxlen);
 568:..\..\..\lvgl\version_6.1.2\lvgl\src\lv_misc/lv_printf.c ****       format++;
 569:..\..\..\lvgl\version_6.1.2\lvgl\src\lv_misc/lv_printf.c ****       continue;
 570:..\..\..\lvgl\version_6.1.2\lvgl\src\lv_misc/lv_printf.c ****     }
 571:..\..\..\lvgl\version_6.1.2\lvgl\src\lv_misc/lv_printf.c ****     else {
 572:..\..\..\lvgl\version_6.1.2\lvgl\src\lv_misc/lv_printf.c ****       // yes, evaluate it
 573:..\..\..\lvgl\version_6.1.2\lvgl\src\lv_misc/lv_printf.c ****       format++;
 574:..\..\..\lvgl\version_6.1.2\lvgl\src\lv_misc/lv_printf.c ****     }
 575:..\..\..\lvgl\version_6.1.2\lvgl\src\lv_misc/lv_printf.c **** 
 576:..\..\..\lvgl\version_6.1.2\lvgl\src\lv_misc/lv_printf.c ****     // evaluate flags
 577:..\..\..\lvgl\version_6.1.2\lvgl\src\lv_misc/lv_printf.c ****     flags = 0U;
 578:..\..\..\lvgl\version_6.1.2\lvgl\src\lv_misc/lv_printf.c ****     do {
 579:..\..\..\lvgl\version_6.1.2\lvgl\src\lv_misc/lv_printf.c ****       switch (*format) {
 580:..\..\..\lvgl\version_6.1.2\lvgl\src\lv_misc/lv_printf.c ****         case '0': flags |= FLAGS_ZEROPAD; format++; n = 1U; break;
 581:..\..\..\lvgl\version_6.1.2\lvgl\src\lv_misc/lv_printf.c ****         case '-': flags |= FLAGS_LEFT;    format++; n = 1U; break;
 582:..\..\..\lvgl\version_6.1.2\lvgl\src\lv_misc/lv_printf.c ****         case '+': flags |= FLAGS_PLUS;    format++; n = 1U; break;
 583:..\..\..\lvgl\version_6.1.2\lvgl\src\lv_misc/lv_printf.c ****         case ' ': flags |= FLAGS_SPACE;   format++; n = 1U; break;
 584:..\..\..\lvgl\version_6.1.2\lvgl\src\lv_misc/lv_printf.c ****         case '#': flags |= FLAGS_HASH;    format++; n = 1U; break;
 585:..\..\..\lvgl\version_6.1.2\lvgl\src\lv_misc/lv_printf.c ****         default :                                   n = 0U; break;
 586:..\..\..\lvgl\version_6.1.2\lvgl\src\lv_misc/lv_printf.c ****       }
 587:..\..\..\lvgl\version_6.1.2\lvgl\src\lv_misc/lv_printf.c ****     } while (n);
 588:..\..\..\lvgl\version_6.1.2\lvgl\src\lv_misc/lv_printf.c **** 
 589:..\..\..\lvgl\version_6.1.2\lvgl\src\lv_misc/lv_printf.c ****     // evaluate width field
 590:..\..\..\lvgl\version_6.1.2\lvgl\src\lv_misc/lv_printf.c ****     width = 0U;
 591:..\..\..\lvgl\version_6.1.2\lvgl\src\lv_misc/lv_printf.c ****     if (_is_digit(*format)) {
 592:..\..\..\lvgl\version_6.1.2\lvgl\src\lv_misc/lv_printf.c ****       width = _atoi(&format);
 593:..\..\..\lvgl\version_6.1.2\lvgl\src\lv_misc/lv_printf.c ****     }
 594:..\..\..\lvgl\version_6.1.2\lvgl\src\lv_misc/lv_printf.c ****     else if (*format == '*') {
 595:..\..\..\lvgl\version_6.1.2\lvgl\src\lv_misc/lv_printf.c ****       const int w = va_arg(va, int);
 596:..\..\..\lvgl\version_6.1.2\lvgl\src\lv_misc/lv_printf.c ****       if (w < 0) {
 597:..\..\..\lvgl\version_6.1.2\lvgl\src\lv_misc/lv_printf.c ****         flags |= FLAGS_LEFT;    // reverse padding
 598:..\..\..\lvgl\version_6.1.2\lvgl\src\lv_misc/lv_printf.c ****         width = (unsigned int)-w;
 599:..\..\..\lvgl\version_6.1.2\lvgl\src\lv_misc/lv_printf.c ****       }
 600:..\..\..\lvgl\version_6.1.2\lvgl\src\lv_misc/lv_printf.c ****       else {
 601:..\..\..\lvgl\version_6.1.2\lvgl\src\lv_misc/lv_printf.c ****         width = (unsigned int)w;
 602:..\..\..\lvgl\version_6.1.2\lvgl\src\lv_misc/lv_printf.c ****       }
 603:..\..\..\lvgl\version_6.1.2\lvgl\src\lv_misc/lv_printf.c ****       format++;
ARM GAS  C:\Users\pearlstl\AppData\Local\Temp\ccbpFzqf.s 			page 62


 604:..\..\..\lvgl\version_6.1.2\lvgl\src\lv_misc/lv_printf.c ****     }
 605:..\..\..\lvgl\version_6.1.2\lvgl\src\lv_misc/lv_printf.c **** 
 606:..\..\..\lvgl\version_6.1.2\lvgl\src\lv_misc/lv_printf.c ****     // evaluate precision field
 607:..\..\..\lvgl\version_6.1.2\lvgl\src\lv_misc/lv_printf.c ****     precision = 0U;
 608:..\..\..\lvgl\version_6.1.2\lvgl\src\lv_misc/lv_printf.c ****     if (*format == '.') {
 609:..\..\..\lvgl\version_6.1.2\lvgl\src\lv_misc/lv_printf.c ****       flags |= FLAGS_PRECISION;
 610:..\..\..\lvgl\version_6.1.2\lvgl\src\lv_misc/lv_printf.c ****       format++;
 611:..\..\..\lvgl\version_6.1.2\lvgl\src\lv_misc/lv_printf.c ****       if (_is_digit(*format)) {
 612:..\..\..\lvgl\version_6.1.2\lvgl\src\lv_misc/lv_printf.c ****         precision = _atoi(&format);
 613:..\..\..\lvgl\version_6.1.2\lvgl\src\lv_misc/lv_printf.c ****       }
 614:..\..\..\lvgl\version_6.1.2\lvgl\src\lv_misc/lv_printf.c ****       else if (*format == '*') {
 615:..\..\..\lvgl\version_6.1.2\lvgl\src\lv_misc/lv_printf.c ****         const int prec = (int)va_arg(va, int);
 616:..\..\..\lvgl\version_6.1.2\lvgl\src\lv_misc/lv_printf.c ****         precision = prec > 0 ? (unsigned int)prec : 0U;
 617:..\..\..\lvgl\version_6.1.2\lvgl\src\lv_misc/lv_printf.c ****         format++;
 618:..\..\..\lvgl\version_6.1.2\lvgl\src\lv_misc/lv_printf.c ****       }
 619:..\..\..\lvgl\version_6.1.2\lvgl\src\lv_misc/lv_printf.c ****     }
 620:..\..\..\lvgl\version_6.1.2\lvgl\src\lv_misc/lv_printf.c **** 
 621:..\..\..\lvgl\version_6.1.2\lvgl\src\lv_misc/lv_printf.c ****     // evaluate length field
 622:..\..\..\lvgl\version_6.1.2\lvgl\src\lv_misc/lv_printf.c ****     switch (*format) {
 623:..\..\..\lvgl\version_6.1.2\lvgl\src\lv_misc/lv_printf.c ****       case 'l' :
 624:..\..\..\lvgl\version_6.1.2\lvgl\src\lv_misc/lv_printf.c ****         flags |= FLAGS_LONG;
 625:..\..\..\lvgl\version_6.1.2\lvgl\src\lv_misc/lv_printf.c ****         format++;
 626:..\..\..\lvgl\version_6.1.2\lvgl\src\lv_misc/lv_printf.c ****         if (*format == 'l') {
 627:..\..\..\lvgl\version_6.1.2\lvgl\src\lv_misc/lv_printf.c ****           flags |= FLAGS_LONG_LONG;
 628:..\..\..\lvgl\version_6.1.2\lvgl\src\lv_misc/lv_printf.c ****           format++;
 629:..\..\..\lvgl\version_6.1.2\lvgl\src\lv_misc/lv_printf.c ****         }
 630:..\..\..\lvgl\version_6.1.2\lvgl\src\lv_misc/lv_printf.c ****         break;
 631:..\..\..\lvgl\version_6.1.2\lvgl\src\lv_misc/lv_printf.c ****       case 'h' :
 632:..\..\..\lvgl\version_6.1.2\lvgl\src\lv_misc/lv_printf.c ****         flags |= FLAGS_SHORT;
 633:..\..\..\lvgl\version_6.1.2\lvgl\src\lv_misc/lv_printf.c ****         format++;
 634:..\..\..\lvgl\version_6.1.2\lvgl\src\lv_misc/lv_printf.c ****         if (*format == 'h') {
 635:..\..\..\lvgl\version_6.1.2\lvgl\src\lv_misc/lv_printf.c ****           flags |= FLAGS_CHAR;
 636:..\..\..\lvgl\version_6.1.2\lvgl\src\lv_misc/lv_printf.c ****           format++;
 637:..\..\..\lvgl\version_6.1.2\lvgl\src\lv_misc/lv_printf.c ****         }
 638:..\..\..\lvgl\version_6.1.2\lvgl\src\lv_misc/lv_printf.c ****         break;
 639:..\..\..\lvgl\version_6.1.2\lvgl\src\lv_misc/lv_printf.c **** #if defined(PRINTF_SUPPORT_PTRDIFF_T)
 640:..\..\..\lvgl\version_6.1.2\lvgl\src\lv_misc/lv_printf.c ****       case 't' :
 641:..\..\..\lvgl\version_6.1.2\lvgl\src\lv_misc/lv_printf.c ****         flags |= (sizeof(ptrdiff_t) == sizeof(long) ? FLAGS_LONG : FLAGS_LONG_LONG);
 642:..\..\..\lvgl\version_6.1.2\lvgl\src\lv_misc/lv_printf.c ****         format++;
 643:..\..\..\lvgl\version_6.1.2\lvgl\src\lv_misc/lv_printf.c ****         break;
 644:..\..\..\lvgl\version_6.1.2\lvgl\src\lv_misc/lv_printf.c **** #endif
 645:..\..\..\lvgl\version_6.1.2\lvgl\src\lv_misc/lv_printf.c ****       case 'j' :
 646:..\..\..\lvgl\version_6.1.2\lvgl\src\lv_misc/lv_printf.c ****         flags |= (sizeof(intmax_t) == sizeof(long) ? FLAGS_LONG : FLAGS_LONG_LONG);
 647:..\..\..\lvgl\version_6.1.2\lvgl\src\lv_misc/lv_printf.c ****         format++;
 648:..\..\..\lvgl\version_6.1.2\lvgl\src\lv_misc/lv_printf.c ****         break;
 649:..\..\..\lvgl\version_6.1.2\lvgl\src\lv_misc/lv_printf.c ****       case 'z' :
 650:..\..\..\lvgl\version_6.1.2\lvgl\src\lv_misc/lv_printf.c ****         flags |= (sizeof(size_t) == sizeof(long) ? FLAGS_LONG : FLAGS_LONG_LONG);
 651:..\..\..\lvgl\version_6.1.2\lvgl\src\lv_misc/lv_printf.c ****         format++;
 652:..\..\..\lvgl\version_6.1.2\lvgl\src\lv_misc/lv_printf.c ****         break;
 653:..\..\..\lvgl\version_6.1.2\lvgl\src\lv_misc/lv_printf.c ****       default :
 654:..\..\..\lvgl\version_6.1.2\lvgl\src\lv_misc/lv_printf.c ****         break;
 655:..\..\..\lvgl\version_6.1.2\lvgl\src\lv_misc/lv_printf.c ****     }
 656:..\..\..\lvgl\version_6.1.2\lvgl\src\lv_misc/lv_printf.c **** 
 657:..\..\..\lvgl\version_6.1.2\lvgl\src\lv_misc/lv_printf.c ****     // evaluate specifier
 658:..\..\..\lvgl\version_6.1.2\lvgl\src\lv_misc/lv_printf.c ****     switch (*format) {
 659:..\..\..\lvgl\version_6.1.2\lvgl\src\lv_misc/lv_printf.c ****       case 'd' :
 660:..\..\..\lvgl\version_6.1.2\lvgl\src\lv_misc/lv_printf.c ****       case 'i' :
ARM GAS  C:\Users\pearlstl\AppData\Local\Temp\ccbpFzqf.s 			page 63


 661:..\..\..\lvgl\version_6.1.2\lvgl\src\lv_misc/lv_printf.c ****       case 'u' :
 662:..\..\..\lvgl\version_6.1.2\lvgl\src\lv_misc/lv_printf.c ****       case 'x' :
 663:..\..\..\lvgl\version_6.1.2\lvgl\src\lv_misc/lv_printf.c ****       case 'X' :
 664:..\..\..\lvgl\version_6.1.2\lvgl\src\lv_misc/lv_printf.c ****       case 'o' :
 665:..\..\..\lvgl\version_6.1.2\lvgl\src\lv_misc/lv_printf.c ****       case 'b' : {
 666:..\..\..\lvgl\version_6.1.2\lvgl\src\lv_misc/lv_printf.c ****         // set the base
 667:..\..\..\lvgl\version_6.1.2\lvgl\src\lv_misc/lv_printf.c ****         unsigned int base;
 668:..\..\..\lvgl\version_6.1.2\lvgl\src\lv_misc/lv_printf.c ****         if (*format == 'x' || *format == 'X') {
 669:..\..\..\lvgl\version_6.1.2\lvgl\src\lv_misc/lv_printf.c ****           base = 16U;
 670:..\..\..\lvgl\version_6.1.2\lvgl\src\lv_misc/lv_printf.c ****         }
 671:..\..\..\lvgl\version_6.1.2\lvgl\src\lv_misc/lv_printf.c ****         else if (*format == 'o') {
 672:..\..\..\lvgl\version_6.1.2\lvgl\src\lv_misc/lv_printf.c ****           base =  8U;
 673:..\..\..\lvgl\version_6.1.2\lvgl\src\lv_misc/lv_printf.c ****         }
 674:..\..\..\lvgl\version_6.1.2\lvgl\src\lv_misc/lv_printf.c ****         else if (*format == 'b') {
 675:..\..\..\lvgl\version_6.1.2\lvgl\src\lv_misc/lv_printf.c ****           base =  2U;
 676:..\..\..\lvgl\version_6.1.2\lvgl\src\lv_misc/lv_printf.c ****         }
 677:..\..\..\lvgl\version_6.1.2\lvgl\src\lv_misc/lv_printf.c ****         else {
 678:..\..\..\lvgl\version_6.1.2\lvgl\src\lv_misc/lv_printf.c ****           base = 10U;
 679:..\..\..\lvgl\version_6.1.2\lvgl\src\lv_misc/lv_printf.c ****           flags &= ~FLAGS_HASH;   // no hash for dec format
 680:..\..\..\lvgl\version_6.1.2\lvgl\src\lv_misc/lv_printf.c ****         }
 681:..\..\..\lvgl\version_6.1.2\lvgl\src\lv_misc/lv_printf.c ****         // uppercase
 682:..\..\..\lvgl\version_6.1.2\lvgl\src\lv_misc/lv_printf.c ****         if (*format == 'X') {
 683:..\..\..\lvgl\version_6.1.2\lvgl\src\lv_misc/lv_printf.c ****           flags |= FLAGS_UPPERCASE;
 684:..\..\..\lvgl\version_6.1.2\lvgl\src\lv_misc/lv_printf.c ****         }
 685:..\..\..\lvgl\version_6.1.2\lvgl\src\lv_misc/lv_printf.c **** 
 686:..\..\..\lvgl\version_6.1.2\lvgl\src\lv_misc/lv_printf.c ****         // no plus or space flag for u, x, X, o, b
 687:..\..\..\lvgl\version_6.1.2\lvgl\src\lv_misc/lv_printf.c ****         if ((*format != 'i') && (*format != 'd')) {
 688:..\..\..\lvgl\version_6.1.2\lvgl\src\lv_misc/lv_printf.c ****           flags &= ~(FLAGS_PLUS | FLAGS_SPACE);
 689:..\..\..\lvgl\version_6.1.2\lvgl\src\lv_misc/lv_printf.c ****         }
 690:..\..\..\lvgl\version_6.1.2\lvgl\src\lv_misc/lv_printf.c **** 
 691:..\..\..\lvgl\version_6.1.2\lvgl\src\lv_misc/lv_printf.c ****         // ignore '0' flag when precision is given
 692:..\..\..\lvgl\version_6.1.2\lvgl\src\lv_misc/lv_printf.c ****         if (flags & FLAGS_PRECISION) {
 693:..\..\..\lvgl\version_6.1.2\lvgl\src\lv_misc/lv_printf.c ****           flags &= ~FLAGS_ZEROPAD;
 694:..\..\..\lvgl\version_6.1.2\lvgl\src\lv_misc/lv_printf.c ****         }
 695:..\..\..\lvgl\version_6.1.2\lvgl\src\lv_misc/lv_printf.c **** 
 696:..\..\..\lvgl\version_6.1.2\lvgl\src\lv_misc/lv_printf.c ****         // convert the integer
 697:..\..\..\lvgl\version_6.1.2\lvgl\src\lv_misc/lv_printf.c ****         if ((*format == 'i') || (*format == 'd')) {
 698:..\..\..\lvgl\version_6.1.2\lvgl\src\lv_misc/lv_printf.c ****           // signed
 699:..\..\..\lvgl\version_6.1.2\lvgl\src\lv_misc/lv_printf.c ****           if (flags & FLAGS_LONG_LONG) {
 700:..\..\..\lvgl\version_6.1.2\lvgl\src\lv_misc/lv_printf.c **** #if defined(PRINTF_SUPPORT_LONG_LONG)
 701:..\..\..\lvgl\version_6.1.2\lvgl\src\lv_misc/lv_printf.c ****             const long long value = va_arg(va, long long);
 702:..\..\..\lvgl\version_6.1.2\lvgl\src\lv_misc/lv_printf.c ****             idx = _ntoa_long_long(out, buffer, idx, maxlen, (unsigned long long)(value > 0 ? value 
 703:..\..\..\lvgl\version_6.1.2\lvgl\src\lv_misc/lv_printf.c **** #endif
 704:..\..\..\lvgl\version_6.1.2\lvgl\src\lv_misc/lv_printf.c ****           }
 705:..\..\..\lvgl\version_6.1.2\lvgl\src\lv_misc/lv_printf.c ****           else if (flags & FLAGS_LONG) {
 706:..\..\..\lvgl\version_6.1.2\lvgl\src\lv_misc/lv_printf.c ****             const long value = va_arg(va, long);
 707:..\..\..\lvgl\version_6.1.2\lvgl\src\lv_misc/lv_printf.c ****             idx = _ntoa_long(out, buffer, idx, maxlen, (unsigned long)(value > 0 ? value : 0 - valu
 708:..\..\..\lvgl\version_6.1.2\lvgl\src\lv_misc/lv_printf.c ****           }
 709:..\..\..\lvgl\version_6.1.2\lvgl\src\lv_misc/lv_printf.c ****           else {
 710:..\..\..\lvgl\version_6.1.2\lvgl\src\lv_misc/lv_printf.c ****             const int value = (flags & FLAGS_CHAR) ? (char)va_arg(va, int) : (flags & FLAGS_SHORT) 
 711:..\..\..\lvgl\version_6.1.2\lvgl\src\lv_misc/lv_printf.c ****             idx = _ntoa_long(out, buffer, idx, maxlen, (unsigned int)(value > 0 ? value : 0 - value
 712:..\..\..\lvgl\version_6.1.2\lvgl\src\lv_misc/lv_printf.c ****           }
 713:..\..\..\lvgl\version_6.1.2\lvgl\src\lv_misc/lv_printf.c ****         }
 714:..\..\..\lvgl\version_6.1.2\lvgl\src\lv_misc/lv_printf.c ****         else {
 715:..\..\..\lvgl\version_6.1.2\lvgl\src\lv_misc/lv_printf.c ****           // unsigned
 716:..\..\..\lvgl\version_6.1.2\lvgl\src\lv_misc/lv_printf.c ****           if (flags & FLAGS_LONG_LONG) {
 717:..\..\..\lvgl\version_6.1.2\lvgl\src\lv_misc/lv_printf.c **** #if defined(PRINTF_SUPPORT_LONG_LONG)
ARM GAS  C:\Users\pearlstl\AppData\Local\Temp\ccbpFzqf.s 			page 64


 718:..\..\..\lvgl\version_6.1.2\lvgl\src\lv_misc/lv_printf.c ****             idx = _ntoa_long_long(out, buffer, idx, maxlen, va_arg(va, unsigned long long), false, 
 719:..\..\..\lvgl\version_6.1.2\lvgl\src\lv_misc/lv_printf.c **** #endif
 720:..\..\..\lvgl\version_6.1.2\lvgl\src\lv_misc/lv_printf.c ****           }
 721:..\..\..\lvgl\version_6.1.2\lvgl\src\lv_misc/lv_printf.c ****           else if (flags & FLAGS_LONG) {
 722:..\..\..\lvgl\version_6.1.2\lvgl\src\lv_misc/lv_printf.c ****             idx = _ntoa_long(out, buffer, idx, maxlen, va_arg(va, unsigned long), false, base, prec
 723:..\..\..\lvgl\version_6.1.2\lvgl\src\lv_misc/lv_printf.c ****           }
 724:..\..\..\lvgl\version_6.1.2\lvgl\src\lv_misc/lv_printf.c ****           else {
 725:..\..\..\lvgl\version_6.1.2\lvgl\src\lv_misc/lv_printf.c ****             const unsigned int value = (flags & FLAGS_CHAR) ? (unsigned char)va_arg(va, unsigned in
 726:..\..\..\lvgl\version_6.1.2\lvgl\src\lv_misc/lv_printf.c ****             idx = _ntoa_long(out, buffer, idx, maxlen, value, false, base, precision, width, flags)
 727:..\..\..\lvgl\version_6.1.2\lvgl\src\lv_misc/lv_printf.c ****           }
 728:..\..\..\lvgl\version_6.1.2\lvgl\src\lv_misc/lv_printf.c ****         }
 729:..\..\..\lvgl\version_6.1.2\lvgl\src\lv_misc/lv_printf.c ****         format++;
 730:..\..\..\lvgl\version_6.1.2\lvgl\src\lv_misc/lv_printf.c ****         break;
 731:..\..\..\lvgl\version_6.1.2\lvgl\src\lv_misc/lv_printf.c ****       }
 732:..\..\..\lvgl\version_6.1.2\lvgl\src\lv_misc/lv_printf.c **** #if defined(PRINTF_SUPPORT_FLOAT)
 733:..\..\..\lvgl\version_6.1.2\lvgl\src\lv_misc/lv_printf.c ****       case 'f' :
 734:..\..\..\lvgl\version_6.1.2\lvgl\src\lv_misc/lv_printf.c ****       case 'F' :
 735:..\..\..\lvgl\version_6.1.2\lvgl\src\lv_misc/lv_printf.c ****         if (*format == 'F') flags |= FLAGS_UPPERCASE;
 736:..\..\..\lvgl\version_6.1.2\lvgl\src\lv_misc/lv_printf.c ****         idx = _ftoa(out, buffer, idx, maxlen, va_arg(va, double), precision, width, flags);
 737:..\..\..\lvgl\version_6.1.2\lvgl\src\lv_misc/lv_printf.c ****         format++;
 738:..\..\..\lvgl\version_6.1.2\lvgl\src\lv_misc/lv_printf.c ****         break;
 739:..\..\..\lvgl\version_6.1.2\lvgl\src\lv_misc/lv_printf.c **** #if defined(PRINTF_SUPPORT_EXPONENTIAL)
 740:..\..\..\lvgl\version_6.1.2\lvgl\src\lv_misc/lv_printf.c ****       case 'e':
 741:..\..\..\lvgl\version_6.1.2\lvgl\src\lv_misc/lv_printf.c ****       case 'E':
 742:..\..\..\lvgl\version_6.1.2\lvgl\src\lv_misc/lv_printf.c ****       case 'g':
 743:..\..\..\lvgl\version_6.1.2\lvgl\src\lv_misc/lv_printf.c ****       case 'G':
 744:..\..\..\lvgl\version_6.1.2\lvgl\src\lv_misc/lv_printf.c ****         if ((*format == 'g')||(*format == 'G')) flags |= FLAGS_ADAPT_EXP;
 745:..\..\..\lvgl\version_6.1.2\lvgl\src\lv_misc/lv_printf.c ****         if ((*format == 'E')||(*format == 'G')) flags |= FLAGS_UPPERCASE;
 746:..\..\..\lvgl\version_6.1.2\lvgl\src\lv_misc/lv_printf.c ****         idx = _etoa(out, buffer, idx, maxlen, va_arg(va, double), precision, width, flags);
 747:..\..\..\lvgl\version_6.1.2\lvgl\src\lv_misc/lv_printf.c ****         format++;
 748:..\..\..\lvgl\version_6.1.2\lvgl\src\lv_misc/lv_printf.c ****         break;
 749:..\..\..\lvgl\version_6.1.2\lvgl\src\lv_misc/lv_printf.c **** #endif  // PRINTF_SUPPORT_EXPONENTIAL
 750:..\..\..\lvgl\version_6.1.2\lvgl\src\lv_misc/lv_printf.c **** #endif  // PRINTF_SUPPORT_FLOAT
 751:..\..\..\lvgl\version_6.1.2\lvgl\src\lv_misc/lv_printf.c ****       case 'c' : {
 752:..\..\..\lvgl\version_6.1.2\lvgl\src\lv_misc/lv_printf.c ****         unsigned int l = 1U;
 753:..\..\..\lvgl\version_6.1.2\lvgl\src\lv_misc/lv_printf.c ****         // pre padding
 754:..\..\..\lvgl\version_6.1.2\lvgl\src\lv_misc/lv_printf.c ****         if (!(flags & FLAGS_LEFT)) {
 755:..\..\..\lvgl\version_6.1.2\lvgl\src\lv_misc/lv_printf.c ****           while (l++ < width) {
 756:..\..\..\lvgl\version_6.1.2\lvgl\src\lv_misc/lv_printf.c ****             out(' ', buffer, idx++, maxlen);
 757:..\..\..\lvgl\version_6.1.2\lvgl\src\lv_misc/lv_printf.c ****           }
 758:..\..\..\lvgl\version_6.1.2\lvgl\src\lv_misc/lv_printf.c ****         }
 759:..\..\..\lvgl\version_6.1.2\lvgl\src\lv_misc/lv_printf.c ****         // char output
 760:..\..\..\lvgl\version_6.1.2\lvgl\src\lv_misc/lv_printf.c ****         out((char)va_arg(va, int), buffer, idx++, maxlen);
 761:..\..\..\lvgl\version_6.1.2\lvgl\src\lv_misc/lv_printf.c ****         // post padding
 762:..\..\..\lvgl\version_6.1.2\lvgl\src\lv_misc/lv_printf.c ****         if (flags & FLAGS_LEFT) {
 763:..\..\..\lvgl\version_6.1.2\lvgl\src\lv_misc/lv_printf.c ****           while (l++ < width) {
 764:..\..\..\lvgl\version_6.1.2\lvgl\src\lv_misc/lv_printf.c ****             out(' ', buffer, idx++, maxlen);
 765:..\..\..\lvgl\version_6.1.2\lvgl\src\lv_misc/lv_printf.c ****           }
 766:..\..\..\lvgl\version_6.1.2\lvgl\src\lv_misc/lv_printf.c ****         }
 767:..\..\..\lvgl\version_6.1.2\lvgl\src\lv_misc/lv_printf.c ****         format++;
 768:..\..\..\lvgl\version_6.1.2\lvgl\src\lv_misc/lv_printf.c ****         break;
 769:..\..\..\lvgl\version_6.1.2\lvgl\src\lv_misc/lv_printf.c ****       }
 770:..\..\..\lvgl\version_6.1.2\lvgl\src\lv_misc/lv_printf.c **** 
 771:..\..\..\lvgl\version_6.1.2\lvgl\src\lv_misc/lv_printf.c ****       case 's' : {
 772:..\..\..\lvgl\version_6.1.2\lvgl\src\lv_misc/lv_printf.c ****         const char* p = va_arg(va, char*);
 2583              		.loc 1 772 0
 2584 0018 4FF0000A 		mov	r10, #0
ARM GAS  C:\Users\pearlstl\AppData\Local\Temp\ccbpFzqf.s 			page 65


 2585 001c 0990     		str	r0, [sp, #36]
 2586 001e 8B46     		mov	fp, r1
 2587              	.LVL379:
 2588              	.L388:
 2589              	.LBE237:
 562:..\..\..\lvgl\version_6.1.2\lvgl\src\lv_misc/lv_printf.c ****   {
 2590              		.loc 1 562 0
 2591 0020 2078     		ldrb	r0, [r4]	@ zero_extendqisi2
 2592 0022 60B1     		cbz	r0, .L793
 2593              	.L571:
 565:..\..\..\lvgl\version_6.1.2\lvgl\src\lv_misc/lv_printf.c ****       // no
 2594              		.loc 1 565 0
 2595 0024 2528     		cmp	r0, #37
 2596 0026 1AD0     		beq	.L389
 568:..\..\..\lvgl\version_6.1.2\lvgl\src\lv_misc/lv_printf.c ****       continue;
 2597              		.loc 1 568 0
 2598 0028 0134     		adds	r4, r4, #1
 2599              	.LVL380:
 567:..\..\..\lvgl\version_6.1.2\lvgl\src\lv_misc/lv_printf.c ****       format++;
 2600              		.loc 1 567 0
 2601 002a 5246     		mov	r2, r10
 2602 002c 5B46     		mov	r3, fp
 2603 002e 0999     		ldr	r1, [sp, #36]
 2604 0030 089D     		ldr	r5, [sp, #32]
 2605 0032 A847     		blx	r5
 2606              	.LVL381:
 562:..\..\..\lvgl\version_6.1.2\lvgl\src\lv_misc/lv_printf.c ****   {
 2607              		.loc 1 562 0
 2608 0034 2078     		ldrb	r0, [r4]	@ zero_extendqisi2
 567:..\..\..\lvgl\version_6.1.2\lvgl\src\lv_misc/lv_printf.c ****       format++;
 2609              		.loc 1 567 0
 2610 0036 0AF1010A 		add	r10, r10, #1
 2611              	.LVL382:
 562:..\..\..\lvgl\version_6.1.2\lvgl\src\lv_misc/lv_printf.c ****   {
 2612              		.loc 1 562 0
 2613 003a 0028     		cmp	r0, #0
 2614 003c F2D1     		bne	.L571
 2615              	.LVL383:
 2616              	.L793:
 2617 003e DDF82480 		ldr	r8, [sp, #36]
 773:..\..\..\lvgl\version_6.1.2\lvgl\src\lv_misc/lv_printf.c ****         unsigned int l = _strnlen_s(p, precision ? precision : (size_t)-1);
 774:..\..\..\lvgl\version_6.1.2\lvgl\src\lv_misc/lv_printf.c ****         // pre padding
 775:..\..\..\lvgl\version_6.1.2\lvgl\src\lv_misc/lv_printf.c ****         if (flags & FLAGS_PRECISION) {
 776:..\..\..\lvgl\version_6.1.2\lvgl\src\lv_misc/lv_printf.c ****           l = (l < precision ? l : precision);
 777:..\..\..\lvgl\version_6.1.2\lvgl\src\lv_misc/lv_printf.c ****         }
 778:..\..\..\lvgl\version_6.1.2\lvgl\src\lv_misc/lv_printf.c ****         if (!(flags & FLAGS_LEFT)) {
 779:..\..\..\lvgl\version_6.1.2\lvgl\src\lv_misc/lv_printf.c ****           while (l++ < width) {
 780:..\..\..\lvgl\version_6.1.2\lvgl\src\lv_misc/lv_printf.c ****             out(' ', buffer, idx++, maxlen);
 781:..\..\..\lvgl\version_6.1.2\lvgl\src\lv_misc/lv_printf.c ****           }
 782:..\..\..\lvgl\version_6.1.2\lvgl\src\lv_misc/lv_printf.c ****         }
 783:..\..\..\lvgl\version_6.1.2\lvgl\src\lv_misc/lv_printf.c ****         // string output
 784:..\..\..\lvgl\version_6.1.2\lvgl\src\lv_misc/lv_printf.c ****         while ((*p != 0) && (!(flags & FLAGS_PRECISION) || precision--)) {
 785:..\..\..\lvgl\version_6.1.2\lvgl\src\lv_misc/lv_printf.c ****           out(*(p++), buffer, idx++, maxlen);
 786:..\..\..\lvgl\version_6.1.2\lvgl\src\lv_misc/lv_printf.c ****         }
 787:..\..\..\lvgl\version_6.1.2\lvgl\src\lv_misc/lv_printf.c ****         // post padding
 788:..\..\..\lvgl\version_6.1.2\lvgl\src\lv_misc/lv_printf.c ****         if (flags & FLAGS_LEFT) {
 789:..\..\..\lvgl\version_6.1.2\lvgl\src\lv_misc/lv_printf.c ****           while (l++ < width) {
ARM GAS  C:\Users\pearlstl\AppData\Local\Temp\ccbpFzqf.s 			page 66


 790:..\..\..\lvgl\version_6.1.2\lvgl\src\lv_misc/lv_printf.c ****             out(' ', buffer, idx++, maxlen);
 791:..\..\..\lvgl\version_6.1.2\lvgl\src\lv_misc/lv_printf.c ****           }
 792:..\..\..\lvgl\version_6.1.2\lvgl\src\lv_misc/lv_printf.c ****         }
 793:..\..\..\lvgl\version_6.1.2\lvgl\src\lv_misc/lv_printf.c ****         format++;
 794:..\..\..\lvgl\version_6.1.2\lvgl\src\lv_misc/lv_printf.c ****         break;
 795:..\..\..\lvgl\version_6.1.2\lvgl\src\lv_misc/lv_printf.c ****       }
 796:..\..\..\lvgl\version_6.1.2\lvgl\src\lv_misc/lv_printf.c **** 
 797:..\..\..\lvgl\version_6.1.2\lvgl\src\lv_misc/lv_printf.c ****       case 'p' : {
 798:..\..\..\lvgl\version_6.1.2\lvgl\src\lv_misc/lv_printf.c ****         width = sizeof(void*) * 2U;
 799:..\..\..\lvgl\version_6.1.2\lvgl\src\lv_misc/lv_printf.c ****         flags |= FLAGS_ZEROPAD | FLAGS_UPPERCASE;
 800:..\..\..\lvgl\version_6.1.2\lvgl\src\lv_misc/lv_printf.c **** #if defined(PRINTF_SUPPORT_LONG_LONG)
 801:..\..\..\lvgl\version_6.1.2\lvgl\src\lv_misc/lv_printf.c ****         const bool is_ll = sizeof(uintptr_t) == sizeof(long long);
 802:..\..\..\lvgl\version_6.1.2\lvgl\src\lv_misc/lv_printf.c ****         if (is_ll) {
 803:..\..\..\lvgl\version_6.1.2\lvgl\src\lv_misc/lv_printf.c ****           idx = _ntoa_long_long(out, buffer, idx, maxlen, (uintptr_t)va_arg(va, void*), false, 16U,
 804:..\..\..\lvgl\version_6.1.2\lvgl\src\lv_misc/lv_printf.c ****         }
 805:..\..\..\lvgl\version_6.1.2\lvgl\src\lv_misc/lv_printf.c ****         else {
 806:..\..\..\lvgl\version_6.1.2\lvgl\src\lv_misc/lv_printf.c **** #endif
 807:..\..\..\lvgl\version_6.1.2\lvgl\src\lv_misc/lv_printf.c ****           idx = _ntoa_long(out, buffer, idx, maxlen, (unsigned long)((uintptr_t)va_arg(va, void*)),
 808:..\..\..\lvgl\version_6.1.2\lvgl\src\lv_misc/lv_printf.c **** #if defined(PRINTF_SUPPORT_LONG_LONG)
 809:..\..\..\lvgl\version_6.1.2\lvgl\src\lv_misc/lv_printf.c ****         }
 810:..\..\..\lvgl\version_6.1.2\lvgl\src\lv_misc/lv_printf.c **** #endif
 811:..\..\..\lvgl\version_6.1.2\lvgl\src\lv_misc/lv_printf.c ****         format++;
 812:..\..\..\lvgl\version_6.1.2\lvgl\src\lv_misc/lv_printf.c ****         break;
 813:..\..\..\lvgl\version_6.1.2\lvgl\src\lv_misc/lv_printf.c ****       }
 814:..\..\..\lvgl\version_6.1.2\lvgl\src\lv_misc/lv_printf.c **** 
 815:..\..\..\lvgl\version_6.1.2\lvgl\src\lv_misc/lv_printf.c ****       case '%' :
 816:..\..\..\lvgl\version_6.1.2\lvgl\src\lv_misc/lv_printf.c ****         out('%', buffer, idx++, maxlen);
 817:..\..\..\lvgl\version_6.1.2\lvgl\src\lv_misc/lv_printf.c ****         format++;
 818:..\..\..\lvgl\version_6.1.2\lvgl\src\lv_misc/lv_printf.c ****         break;
 819:..\..\..\lvgl\version_6.1.2\lvgl\src\lv_misc/lv_printf.c **** 
 820:..\..\..\lvgl\version_6.1.2\lvgl\src\lv_misc/lv_printf.c ****       default :
 821:..\..\..\lvgl\version_6.1.2\lvgl\src\lv_misc/lv_printf.c ****         out(*format, buffer, idx++, maxlen);
 822:..\..\..\lvgl\version_6.1.2\lvgl\src\lv_misc/lv_printf.c ****         format++;
 823:..\..\..\lvgl\version_6.1.2\lvgl\src\lv_misc/lv_printf.c ****         break;
 824:..\..\..\lvgl\version_6.1.2\lvgl\src\lv_misc/lv_printf.c ****     }
 825:..\..\..\lvgl\version_6.1.2\lvgl\src\lv_misc/lv_printf.c ****   }
 826:..\..\..\lvgl\version_6.1.2\lvgl\src\lv_misc/lv_printf.c **** 
 827:..\..\..\lvgl\version_6.1.2\lvgl\src\lv_misc/lv_printf.c ****   // termination
 828:..\..\..\lvgl\version_6.1.2\lvgl\src\lv_misc/lv_printf.c ****   out((char)0, buffer, idx < maxlen ? idx : maxlen - 1U, maxlen);
 2618              		.loc 1 828 0
 2619 0042 089C     		ldr	r4, [sp, #32]
 2620              	.LVL384:
 2621 0044 DA45     		cmp	r10, fp
 2622 0046 2CBF     		ite	cs
 2623 0048 0BF1FF32 		addcs	r2, fp, #-1
 2624 004c 5246     		movcc	r2, r10
 2625 004e 5B46     		mov	r3, fp
 2626 0050 4146     		mov	r1, r8
 2627 0052 0020     		movs	r0, #0
 2628 0054 A047     		blx	r4
 2629              	.LVL385:
 829:..\..\..\lvgl\version_6.1.2\lvgl\src\lv_misc/lv_printf.c **** 
 830:..\..\..\lvgl\version_6.1.2\lvgl\src\lv_misc/lv_printf.c ****   // return written chars without terminating \0
 831:..\..\..\lvgl\version_6.1.2\lvgl\src\lv_misc/lv_printf.c ****   return (int)idx;
 832:..\..\..\lvgl\version_6.1.2\lvgl\src\lv_misc/lv_printf.c **** }
 2630              		.loc 1 832 0
 2631 0056 5046     		mov	r0, r10
ARM GAS  C:\Users\pearlstl\AppData\Local\Temp\ccbpFzqf.s 			page 67


 2632 0058 1DB0     		add	sp, sp, #116
 2633              		.cfi_remember_state
 2634              		.cfi_def_cfa_offset 36
 2635              		@ sp needed
 2636 005a BDE8F08F 		pop	{r4, r5, r6, r7, r8, r9, r10, fp, pc}
 2637              	.LVL386:
 2638              	.L389:
 2639              		.cfi_restore_state
 2640 005e 631C     		adds	r3, r4, #1
 2641              	.LVL387:
 577:..\..\..\lvgl\version_6.1.2\lvgl\src\lv_misc/lv_printf.c ****     do {
 2642              		.loc 1 577 0
 2643 0060 0025     		movs	r5, #0
 2644              	.LVL388:
 2645              	.L575:
 2646 0062 1C46     		mov	r4, r3
 2647              	.LVL389:
 579:..\..\..\lvgl\version_6.1.2\lvgl\src\lv_misc/lv_printf.c ****         case '0': flags |= FLAGS_ZEROPAD; format++; n = 1U; break;
 2648              		.loc 1 579 0
 2649 0064 13F8010B 		ldrb	r0, [r3], #1	@ zero_extendqisi2
 2650              	.LVL390:
 2651 0068 A0F12002 		sub	r2, r0, #32
 2652 006c 102A     		cmp	r2, #16
 2653 006e 19D8     		bhi	.L391
 2654 0070 DFE802F0 		tbb	[pc, r2]
 2655              	.L393:
 2656 0074 15       		.byte	(.L392-.L393)/2
 2657 0075 18       		.byte	(.L391-.L393)/2
 2658 0076 18       		.byte	(.L391-.L393)/2
 2659 0077 12       		.byte	(.L394-.L393)/2
 2660 0078 18       		.byte	(.L391-.L393)/2
 2661 0079 18       		.byte	(.L391-.L393)/2
 2662 007a 18       		.byte	(.L391-.L393)/2
 2663 007b 18       		.byte	(.L391-.L393)/2
 2664 007c 18       		.byte	(.L391-.L393)/2
 2665 007d 18       		.byte	(.L391-.L393)/2
 2666 007e 18       		.byte	(.L391-.L393)/2
 2667 007f 0F       		.byte	(.L395-.L393)/2
 2668 0080 18       		.byte	(.L391-.L393)/2
 2669 0081 0C       		.byte	(.L396-.L393)/2
 2670 0082 18       		.byte	(.L391-.L393)/2
 2671 0083 18       		.byte	(.L391-.L393)/2
 2672 0084 09       		.byte	(.L397-.L393)/2
 2673 0085 00       		.p2align 1
 2674              	.L397:
 580:..\..\..\lvgl\version_6.1.2\lvgl\src\lv_misc/lv_printf.c ****         case '-': flags |= FLAGS_LEFT;    format++; n = 1U; break;
 2675              		.loc 1 580 0
 2676 0086 45F00105 		orr	r5, r5, #1
 2677              	.LVL391:
 2678 008a EAE7     		b	.L575
 2679              	.LVL392:
 2680              	.L396:
 581:..\..\..\lvgl\version_6.1.2\lvgl\src\lv_misc/lv_printf.c ****         case '+': flags |= FLAGS_PLUS;    format++; n = 1U; break;
 2681              		.loc 1 581 0
 2682 008c 45F00205 		orr	r5, r5, #2
 2683              	.LVL393:
 2684 0090 E7E7     		b	.L575
ARM GAS  C:\Users\pearlstl\AppData\Local\Temp\ccbpFzqf.s 			page 68


 2685              	.LVL394:
 2686              	.L395:
 582:..\..\..\lvgl\version_6.1.2\lvgl\src\lv_misc/lv_printf.c ****         case ' ': flags |= FLAGS_SPACE;   format++; n = 1U; break;
 2687              		.loc 1 582 0
 2688 0092 45F00405 		orr	r5, r5, #4
 2689              	.LVL395:
 2690 0096 E4E7     		b	.L575
 2691              	.LVL396:
 2692              	.L394:
 584:..\..\..\lvgl\version_6.1.2\lvgl\src\lv_misc/lv_printf.c ****         default :                                   n = 0U; break;
 2693              		.loc 1 584 0
 2694 0098 45F01005 		orr	r5, r5, #16
 2695              	.LVL397:
 2696 009c E1E7     		b	.L575
 2697              	.LVL398:
 2698              	.L392:
 583:..\..\..\lvgl\version_6.1.2\lvgl\src\lv_misc/lv_printf.c ****         case '#': flags |= FLAGS_HASH;    format++; n = 1U; break;
 2699              		.loc 1 583 0
 2700 009e 45F00805 		orr	r5, r5, #8
 2701              	.LVL399:
 2702 00a2 DEE7     		b	.L575
 2703              	.LVL400:
 2704              	.L391:
 591:..\..\..\lvgl\version_6.1.2\lvgl\src\lv_misc/lv_printf.c ****       width = _atoi(&format);
 2705              		.loc 1 591 0
 2706 00a4 A0F13003 		sub	r3, r0, #48
 2707 00a8 092B     		cmp	r3, #9
 2708 00aa 40F21082 		bls	.L573
 594:..\..\..\lvgl\version_6.1.2\lvgl\src\lv_misc/lv_printf.c ****       const int w = va_arg(va, int);
 2709              		.loc 1 594 0
 2710 00ae 2A28     		cmp	r0, #42
 2711 00b0 00F03782 		beq	.L794
 590:..\..\..\lvgl\version_6.1.2\lvgl\src\lv_misc/lv_printf.c ****     if (_is_digit(*format)) {
 2712              		.loc 1 590 0
 2713 00b4 4FF00008 		mov	r8, #0
 2714              	.LVL401:
 2715              	.L400:
 608:..\..\..\lvgl\version_6.1.2\lvgl\src\lv_misc/lv_printf.c ****       flags |= FLAGS_PRECISION;
 2716              		.loc 1 608 0
 2717 00b8 2E28     		cmp	r0, #46
 2718 00ba 00F01982 		beq	.L795
 2719              	.L778:
 607:..\..\..\lvgl\version_6.1.2\lvgl\src\lv_misc/lv_printf.c ****     if (*format == '.') {
 2720              		.loc 1 607 0
 2721 00be 4FF00009 		mov	r9, #0
 2722              	.LVL402:
 2723              	.L403:
 622:..\..\..\lvgl\version_6.1.2\lvgl\src\lv_misc/lv_printf.c ****       case 'l' :
 2724              		.loc 1 622 0
 2725 00c2 A0F16803 		sub	r3, r0, #104
 2726 00c6 122B     		cmp	r3, #18
 2727 00c8 0FD8     		bhi	.L406
 2728 00ca DFE803F0 		tbb	[pc, r3]
 2729              	.L408:
 2730 00ce 6E       		.byte	(.L407-.L408)/2
 2731 00cf 0E       		.byte	(.L406-.L408)/2
 2732 00d0 69       		.byte	(.L409-.L408)/2
ARM GAS  C:\Users\pearlstl\AppData\Local\Temp\ccbpFzqf.s 			page 69


 2733 00d1 0E       		.byte	(.L406-.L408)/2
 2734 00d2 76       		.byte	(.L410-.L408)/2
 2735 00d3 0E       		.byte	(.L406-.L408)/2
 2736 00d4 0E       		.byte	(.L406-.L408)/2
 2737 00d5 0E       		.byte	(.L406-.L408)/2
 2738 00d6 0E       		.byte	(.L406-.L408)/2
 2739 00d7 0E       		.byte	(.L406-.L408)/2
 2740 00d8 0E       		.byte	(.L406-.L408)/2
 2741 00d9 0E       		.byte	(.L406-.L408)/2
 2742 00da 0A       		.byte	(.L412-.L408)/2
 2743 00db 0E       		.byte	(.L406-.L408)/2
 2744 00dc 0E       		.byte	(.L406-.L408)/2
 2745 00dd 0E       		.byte	(.L406-.L408)/2
 2746 00de 0E       		.byte	(.L406-.L408)/2
 2747 00df 0E       		.byte	(.L406-.L408)/2
 2748 00e0 0A       		.byte	(.L412-.L408)/2
 2749 00e1 00       		.p2align 1
 2750              	.L412:
 2751 00e2 6078     		ldrb	r0, [r4, #1]	@ zero_extendqisi2
 650:..\..\..\lvgl\version_6.1.2\lvgl\src\lv_misc/lv_printf.c ****         format++;
 2752              		.loc 1 650 0
 2753 00e4 45F48075 		orr	r5, r5, #256
 2754              	.LVL403:
 651:..\..\..\lvgl\version_6.1.2\lvgl\src\lv_misc/lv_printf.c ****         break;
 2755              		.loc 1 651 0
 2756 00e8 0134     		adds	r4, r4, #1
 2757              	.LVL404:
 2758              	.L406:
 658:..\..\..\lvgl\version_6.1.2\lvgl\src\lv_misc/lv_printf.c ****       case 'd' :
 2759              		.loc 1 658 0
 2760 00ea A0F12503 		sub	r3, r0, #37
 2761 00ee 532B     		cmp	r3, #83
 2762 00f0 00F2E481 		bhi	.L415
 2763 00f4 DFE813F0 		tbh	[pc, r3, lsl #1]
 2764              	.L417:
 2765 00f8 7F01     		.2byte	(.L416-.L417)/2
 2766 00fa E201     		.2byte	(.L415-.L417)/2
 2767 00fc E201     		.2byte	(.L415-.L417)/2
 2768 00fe E201     		.2byte	(.L415-.L417)/2
 2769 0100 E201     		.2byte	(.L415-.L417)/2
 2770 0102 E201     		.2byte	(.L415-.L417)/2
 2771 0104 E201     		.2byte	(.L415-.L417)/2
 2772 0106 E201     		.2byte	(.L415-.L417)/2
 2773 0108 E201     		.2byte	(.L415-.L417)/2
 2774 010a E201     		.2byte	(.L415-.L417)/2
 2775 010c E201     		.2byte	(.L415-.L417)/2
 2776 010e E201     		.2byte	(.L415-.L417)/2
 2777 0110 E201     		.2byte	(.L415-.L417)/2
 2778 0112 E201     		.2byte	(.L415-.L417)/2
 2779 0114 E201     		.2byte	(.L415-.L417)/2
 2780 0116 E201     		.2byte	(.L415-.L417)/2
 2781 0118 E201     		.2byte	(.L415-.L417)/2
 2782 011a E201     		.2byte	(.L415-.L417)/2
 2783 011c E201     		.2byte	(.L415-.L417)/2
 2784 011e E201     		.2byte	(.L415-.L417)/2
 2785 0120 E201     		.2byte	(.L415-.L417)/2
 2786 0122 E201     		.2byte	(.L415-.L417)/2
ARM GAS  C:\Users\pearlstl\AppData\Local\Temp\ccbpFzqf.s 			page 70


 2787 0124 E201     		.2byte	(.L415-.L417)/2
 2788 0126 E201     		.2byte	(.L415-.L417)/2
 2789 0128 E201     		.2byte	(.L415-.L417)/2
 2790 012a E201     		.2byte	(.L415-.L417)/2
 2791 012c E201     		.2byte	(.L415-.L417)/2
 2792 012e E201     		.2byte	(.L415-.L417)/2
 2793 0130 E201     		.2byte	(.L415-.L417)/2
 2794 0132 E201     		.2byte	(.L415-.L417)/2
 2795 0134 E201     		.2byte	(.L415-.L417)/2
 2796 0136 E201     		.2byte	(.L415-.L417)/2
 2797 0138 2A02     		.2byte	(.L418-.L417)/2
 2798 013a 8A01     		.2byte	(.L419-.L417)/2
 2799 013c 2A02     		.2byte	(.L418-.L417)/2
 2800 013e E201     		.2byte	(.L415-.L417)/2
 2801 0140 E201     		.2byte	(.L415-.L417)/2
 2802 0142 E201     		.2byte	(.L415-.L417)/2
 2803 0144 E201     		.2byte	(.L415-.L417)/2
 2804 0146 E201     		.2byte	(.L415-.L417)/2
 2805 0148 E201     		.2byte	(.L415-.L417)/2
 2806 014a E201     		.2byte	(.L415-.L417)/2
 2807 014c E201     		.2byte	(.L415-.L417)/2
 2808 014e E201     		.2byte	(.L415-.L417)/2
 2809 0150 E201     		.2byte	(.L415-.L417)/2
 2810 0152 E201     		.2byte	(.L415-.L417)/2
 2811 0154 E201     		.2byte	(.L415-.L417)/2
 2812 0156 E201     		.2byte	(.L415-.L417)/2
 2813 0158 E201     		.2byte	(.L415-.L417)/2
 2814 015a E201     		.2byte	(.L415-.L417)/2
 2815 015c E201     		.2byte	(.L415-.L417)/2
 2816 015e 2201     		.2byte	(.L420-.L417)/2
 2817 0160 E201     		.2byte	(.L415-.L417)/2
 2818 0162 E201     		.2byte	(.L415-.L417)/2
 2819 0164 E201     		.2byte	(.L415-.L417)/2
 2820 0166 E201     		.2byte	(.L415-.L417)/2
 2821 0168 E201     		.2byte	(.L415-.L417)/2
 2822 016a E201     		.2byte	(.L415-.L417)/2
 2823 016c E201     		.2byte	(.L415-.L417)/2
 2824 016e E201     		.2byte	(.L415-.L417)/2
 2825 0170 E201     		.2byte	(.L415-.L417)/2
 2826 0172 2201     		.2byte	(.L420-.L417)/2
 2827 0174 A200     		.2byte	(.L421-.L417)/2
 2828 0176 2201     		.2byte	(.L420-.L417)/2
 2829 0178 2A02     		.2byte	(.L418-.L417)/2
 2830 017a 8A01     		.2byte	(.L419-.L417)/2
 2831 017c 2A02     		.2byte	(.L418-.L417)/2
 2832 017e E201     		.2byte	(.L415-.L417)/2
 2833 0180 2201     		.2byte	(.L420-.L417)/2
 2834 0182 E201     		.2byte	(.L415-.L417)/2
 2835 0184 E201     		.2byte	(.L415-.L417)/2
 2836 0186 E201     		.2byte	(.L415-.L417)/2
 2837 0188 E201     		.2byte	(.L415-.L417)/2
 2838 018a E201     		.2byte	(.L415-.L417)/2
 2839 018c 2201     		.2byte	(.L420-.L417)/2
 2840 018e 6900     		.2byte	(.L422-.L417)/2
 2841 0190 E201     		.2byte	(.L415-.L417)/2
 2842 0192 E201     		.2byte	(.L415-.L417)/2
 2843 0194 C400     		.2byte	(.L423-.L417)/2
ARM GAS  C:\Users\pearlstl\AppData\Local\Temp\ccbpFzqf.s 			page 71


 2844 0196 E201     		.2byte	(.L415-.L417)/2
 2845 0198 2201     		.2byte	(.L420-.L417)/2
 2846 019a E201     		.2byte	(.L415-.L417)/2
 2847 019c E201     		.2byte	(.L415-.L417)/2
 2848 019e 2201     		.2byte	(.L420-.L417)/2
 2849              		.p2align 1
 2850              	.L409:
 2851 01a0 6078     		ldrb	r0, [r4, #1]	@ zero_extendqisi2
 646:..\..\..\lvgl\version_6.1.2\lvgl\src\lv_misc/lv_printf.c ****         format++;
 2852              		.loc 1 646 0
 2853 01a2 45F40075 		orr	r5, r5, #512
 2854              	.LVL405:
 647:..\..\..\lvgl\version_6.1.2\lvgl\src\lv_misc/lv_printf.c ****         break;
 2855              		.loc 1 647 0
 2856 01a6 0134     		adds	r4, r4, #1
 2857              	.LVL406:
 2858 01a8 9FE7     		b	.L406
 2859              	.L407:
 2860              	.LVL407:
 634:..\..\..\lvgl\version_6.1.2\lvgl\src\lv_misc/lv_printf.c ****           flags |= FLAGS_CHAR;
 2861              		.loc 1 634 0
 2862 01aa 6078     		ldrb	r0, [r4, #1]	@ zero_extendqisi2
 2863 01ac 6828     		cmp	r0, #104
 2864 01ae 00F05E82 		beq	.L414
 632:..\..\..\lvgl\version_6.1.2\lvgl\src\lv_misc/lv_printf.c ****         format++;
 2865              		.loc 1 632 0
 2866 01b2 45F08005 		orr	r5, r5, #128
 2867              	.LVL408:
 633:..\..\..\lvgl\version_6.1.2\lvgl\src\lv_misc/lv_printf.c ****         if (*format == 'h') {
 2868              		.loc 1 633 0
 2869 01b6 0134     		adds	r4, r4, #1
 2870              	.LVL409:
 2871 01b8 97E7     		b	.L406
 2872              	.L410:
 2873              	.LVL410:
 626:..\..\..\lvgl\version_6.1.2\lvgl\src\lv_misc/lv_printf.c ****           flags |= FLAGS_LONG_LONG;
 2874              		.loc 1 626 0
 2875 01ba 6078     		ldrb	r0, [r4, #1]	@ zero_extendqisi2
 2876 01bc 6C28     		cmp	r0, #108
 2877 01be 00F05182 		beq	.L413
 624:..\..\..\lvgl\version_6.1.2\lvgl\src\lv_misc/lv_printf.c ****         format++;
 2878              		.loc 1 624 0
 2879 01c2 45F48075 		orr	r5, r5, #256
 2880              	.LVL411:
 625:..\..\..\lvgl\version_6.1.2\lvgl\src\lv_misc/lv_printf.c ****         if (*format == 'l') {
 2881              		.loc 1 625 0
 2882 01c6 0134     		adds	r4, r4, #1
 2883              	.LVL412:
 2884 01c8 8FE7     		b	.L406
 2885              	.L422:
 2886              	.LVL413:
 2887              	.LBB244:
 807:..\..\..\lvgl\version_6.1.2\lvgl\src\lv_misc/lv_printf.c **** #if defined(PRINTF_SUPPORT_LONG_LONG)
 2888              		.loc 1 807 0
 2889 01ca 0C99     		ldr	r1, [sp, #48]
 2890 01cc 0A68     		ldr	r2, [r1]
 2891 01ce 01F1040E 		add	lr, r1, #4
ARM GAS  C:\Users\pearlstl\AppData\Local\Temp\ccbpFzqf.s 			page 72


 2892              	.LVL414:
 2893              	.LBB245:
 2894              	.LBB246:
 262:..\..\..\lvgl\version_6.1.2\lvgl\src\lv_misc/lv_printf.c ****     flags &= ~FLAGS_HASH;
 2895              		.loc 1 262 0
 2896 01d2 002A     		cmp	r2, #0
 2897 01d4 00F03982 		beq	.L565
 2898              	.LBE246:
 2899              	.LBE245:
 799:..\..\..\lvgl\version_6.1.2\lvgl\src\lv_misc/lv_printf.c **** #if defined(PRINTF_SUPPORT_LONG_LONG)
 2900              		.loc 1 799 0
 2901 01d8 45F02100 		orr	r0, r5, #33
 2902              	.LVL415:
 2903              	.L566:
 2904 01dc 0DF14F05 		add	r5, sp, #79
 2905              	.LVL416:
 2906              	.LBE244:
 2907              	.LBB257:
 789:..\..\..\lvgl\version_6.1.2\lvgl\src\lv_misc/lv_printf.c ****             out(' ', buffer, idx++, maxlen);
 2908              		.loc 1 789 0
 2909 01e0 0021     		movs	r1, #0
 2910 01e2 01E0     		b	.L570
 2911              	.LVL417:
 2912              	.L796:
 2913              	.LBE257:
 2914              	.LBB258:
 2915              	.LBB253:
 2916              	.LBB249:
 272:..\..\..\lvgl\version_6.1.2\lvgl\src\lv_misc/lv_printf.c ****   }
 2917              		.loc 1 272 0
 2918 01e4 2029     		cmp	r1, #32
 2919 01e6 0ED0     		beq	.L567
 2920              	.LVL418:
 2921              	.L570:
 2922              	.LBB247:
 269:..\..\..\lvgl\version_6.1.2\lvgl\src\lv_misc/lv_printf.c ****       buf[len++] = digit < 10 ? '0' + digit : (flags & FLAGS_UPPERCASE ? 'A' : 'a') + digit - 10;
 2923              		.loc 1 269 0
 2924 01e8 02F00F03 		and	r3, r2, #15
 270:..\..\..\lvgl\version_6.1.2\lvgl\src\lv_misc/lv_printf.c ****       value /= base;
 2925              		.loc 1 270 0
 2926 01ec 092B     		cmp	r3, #9
 269:..\..\..\lvgl\version_6.1.2\lvgl\src\lv_misc/lv_printf.c ****       buf[len++] = digit < 10 ? '0' + digit : (flags & FLAGS_UPPERCASE ? 'A' : 'a') + digit - 10;
 2927              		.loc 1 269 0
 2928 01ee DEB2     		uxtb	r6, r3
 2929              	.LVL419:
 270:..\..\..\lvgl\version_6.1.2\lvgl\src\lv_misc/lv_printf.c ****       value /= base;
 2930              		.loc 1 270 0
 2931 01f0 94BF     		ite	ls
 2932 01f2 06F13003 		addls	r3, r6, #48
 2933 01f6 06F13703 		addhi	r3, r6, #55
 2934              	.LBE247:
 272:..\..\..\lvgl\version_6.1.2\lvgl\src\lv_misc/lv_printf.c ****   }
 2935              		.loc 1 272 0
 2936 01fa 1209     		lsrs	r2, r2, #4
 2937              	.LVL420:
 2938              	.LBB248:
 270:..\..\..\lvgl\version_6.1.2\lvgl\src\lv_misc/lv_printf.c ****       value /= base;
ARM GAS  C:\Users\pearlstl\AppData\Local\Temp\ccbpFzqf.s 			page 73


 2939              		.loc 1 270 0
 2940 01fc 01F10101 		add	r1, r1, #1
 2941              	.LVL421:
 2942 0200 05F8013F 		strb	r3, [r5, #1]!
 2943              	.LBE248:
 272:..\..\..\lvgl\version_6.1.2\lvgl\src\lv_misc/lv_printf.c ****   }
 2944              		.loc 1 272 0
 2945 0204 EED1     		bne	.L796
 2946              	.LVL422:
 2947              	.L567:
 275:..\..\..\lvgl\version_6.1.2\lvgl\src\lv_misc/lv_printf.c **** }
 2948              		.loc 1 275 0
 2949 0206 0690     		str	r0, [sp, #24]
 2950 0208 14AB     		add	r3, sp, #80
 2951 020a 0020     		movs	r0, #0
 2952 020c 0826     		movs	r6, #8
 2953 020e 1025     		movs	r5, #16
 2954 0210 0191     		str	r1, [sp, #4]
 2955 0212 5246     		mov	r2, r10
 2956 0214 0290     		str	r0, [sp, #8]
 2957 0216 0093     		str	r3, [sp]
 2958 0218 CDF81090 		str	r9, [sp, #16]
 2959 021c 0596     		str	r6, [sp, #20]
 2960 021e 0395     		str	r5, [sp, #12]
 2961 0220 5B46     		mov	r3, fp
 2962 0222 0999     		ldr	r1, [sp, #36]
 2963              	.LVL423:
 2964 0224 0898     		ldr	r0, [sp, #32]
 2965              	.LBE249:
 2966              	.LBE253:
 807:..\..\..\lvgl\version_6.1.2\lvgl\src\lv_misc/lv_printf.c **** #if defined(PRINTF_SUPPORT_LONG_LONG)
 2967              		.loc 1 807 0
 2968 0226 CDF830E0 		str	lr, [sp, #48]
 2969              	.LBB254:
 2970              	.LBB250:
 275:..\..\..\lvgl\version_6.1.2\lvgl\src\lv_misc/lv_printf.c **** }
 2971              		.loc 1 275 0
 2972 022a FFF7FEFF 		bl	_ntoa_format
 2973              	.LVL424:
 2974              	.LBE250:
 2975              	.LBE254:
 811:..\..\..\lvgl\version_6.1.2\lvgl\src\lv_misc/lv_printf.c ****         break;
 2976              		.loc 1 811 0
 2977 022e 0134     		adds	r4, r4, #1
 2978              	.LVL425:
 2979              	.LBB255:
 2980              	.LBB251:
 275:..\..\..\lvgl\version_6.1.2\lvgl\src\lv_misc/lv_printf.c **** }
 2981              		.loc 1 275 0
 2982 0230 8246     		mov	r10, r0
 2983              	.LVL426:
 2984 0232 F5E6     		b	.L388
 2985              	.L831:
 2986              		.align	2
 2987              	.L830:
 2988 0234 00000000 		.word	_out_null
 2989 0238 00000000 		.word	_out_buffer
ARM GAS  C:\Users\pearlstl\AppData\Local\Temp\ccbpFzqf.s 			page 74


 2990              	.LVL427:
 2991              	.L421:
 2992              	.LBE251:
 2993              	.LBE255:
 2994              	.LBE258:
 2995              	.LBB259:
 754:..\..\..\lvgl\version_6.1.2\lvgl\src\lv_misc/lv_printf.c ****           while (l++ < width) {
 2996              		.loc 1 754 0
 2997 023c A807     		lsls	r0, r5, #30
 2998 023e 00F1E581 		bmi	.L546
 2999              	.LVL428:
 755:..\..\..\lvgl\version_6.1.2\lvgl\src\lv_misc/lv_printf.c ****             out(' ', buffer, idx++, maxlen);
 3000              		.loc 1 755 0
 3001 0242 B8F1010F 		cmp	r8, #1
 3002 0246 40F2CA86 		bls	.L624
 3003 024a 0AF1FF35 		add	r5, r10, #-1
 3004              	.LVL429:
 3005 024e 089E     		ldr	r6, [sp, #32]
 3006 0250 099F     		ldr	r7, [sp, #36]
 3007 0252 4544     		add	r5, r5, r8
 3008              	.LVL430:
 3009              	.L548:
 756:..\..\..\lvgl\version_6.1.2\lvgl\src\lv_misc/lv_printf.c ****           }
 3010              		.loc 1 756 0
 3011 0254 0AF10101 		add	r1, r10, #1
 3012              	.LVL431:
 3013 0258 5246     		mov	r2, r10
 3014 025a 5B46     		mov	r3, fp
 3015 025c 8A46     		mov	r10, r1
 3016 025e 2020     		movs	r0, #32
 3017 0260 3946     		mov	r1, r7
 3018              	.LVL432:
 3019 0262 B047     		blx	r6
 3020              	.LVL433:
 755:..\..\..\lvgl\version_6.1.2\lvgl\src\lv_misc/lv_printf.c ****             out(' ', buffer, idx++, maxlen);
 3021              		.loc 1 755 0
 3022 0264 AA45     		cmp	r10, r5
 3023 0266 F5D1     		bne	.L548
 3024              	.LVL434:
 3025              	.L547:
 760:..\..\..\lvgl\version_6.1.2\lvgl\src\lv_misc/lv_printf.c ****         // post padding
 3026              		.loc 1 760 0
 3027 0268 0C9B     		ldr	r3, [sp, #48]
 3028 026a 0999     		ldr	r1, [sp, #36]
 3029 026c 1878     		ldrb	r0, [r3]	@ zero_extendqisi2
 3030 026e 1E1D     		adds	r6, r3, #4
 3031 0270 2A46     		mov	r2, r5
 3032 0272 05F1010A 		add	r10, r5, #1
 3033              	.LVL435:
 3034 0276 5B46     		mov	r3, fp
 3035 0278 0C96     		str	r6, [sp, #48]
 3036 027a 089D     		ldr	r5, [sp, #32]
 3037 027c A847     		blx	r5
 3038              	.LVL436:
 3039 027e 24E1     		b	.L788
 3040              	.LVL437:
 3041              	.L423:
ARM GAS  C:\Users\pearlstl\AppData\Local\Temp\ccbpFzqf.s 			page 75


 3042              	.LBE259:
 3043              	.LBB260:
 772:..\..\..\lvgl\version_6.1.2\lvgl\src\lv_misc/lv_printf.c ****         unsigned int l = _strnlen_s(p, precision ? precision : (size_t)-1);
 3044              		.loc 1 772 0
 3045 0280 0C99     		ldr	r1, [sp, #48]
 3046 0282 0B68     		ldr	r3, [r1]
 3047 0284 0C93     		str	r3, [sp, #48]
 3048              	.LBB238:
 3049              	.LBB239:
 148:..\..\..\lvgl\version_6.1.2\lvgl\src\lv_misc/lv_printf.c ****   return (unsigned int)(s - str);
 3050              		.loc 1 148 0
 3051 0286 1878     		ldrb	r0, [r3]	@ zero_extendqisi2
 3052              	.LBE239:
 3053              	.LBE238:
 772:..\..\..\lvgl\version_6.1.2\lvgl\src\lv_misc/lv_printf.c ****         unsigned int l = _strnlen_s(p, precision ? precision : (size_t)-1);
 3054              		.loc 1 772 0
 3055 0288 0A46     		mov	r2, r1
 773:..\..\..\lvgl\version_6.1.2\lvgl\src\lv_misc/lv_printf.c ****         // pre padding
 3056              		.loc 1 773 0
 3057 028a B9F1000F 		cmp	r9, #0
 772:..\..\..\lvgl\version_6.1.2\lvgl\src\lv_misc/lv_printf.c ****         unsigned int l = _strnlen_s(p, precision ? precision : (size_t)-1);
 3058              		.loc 1 772 0
 3059 028e 02F10402 		add	r2, r2, #4
 3060 0292 1F46     		mov	r7, r3
 3061 0294 0A92     		str	r2, [sp, #40]
 773:..\..\..\lvgl\version_6.1.2\lvgl\src\lv_misc/lv_printf.c ****         // pre padding
 3062              		.loc 1 773 0
 3063 0296 14BF     		ite	ne
 3064 0298 4B46     		movne	r3, r9
 3065 029a 4FF0FF33 		moveq	r3, #-1
 3066              	.LVL438:
 3067              	.LBB242:
 3068              	.LBB240:
 148:..\..\..\lvgl\version_6.1.2\lvgl\src\lv_misc/lv_printf.c ****   return (unsigned int)(s - str);
 3069              		.loc 1 148 0
 3070 029e 18B9     		cbnz	r0, .L553
 3071 02a0 00F0A0BD 		b	.L764
 3072              	.LVL439:
 3073              	.L797:
 3074 02a4 013B     		subs	r3, r3, #1
 3075              	.LVL440:
 3076 02a6 03D0     		beq	.L787
 3077              	.LVL441:
 3078              	.L553:
 3079 02a8 17F8012F 		ldrb	r2, [r7, #1]!	@ zero_extendqisi2
 3080              	.LVL442:
 3081 02ac 002A     		cmp	r2, #0
 3082 02ae F9D1     		bne	.L797
 3083              	.LVL443:
 3084              	.L787:
 3085 02b0 0C9B     		ldr	r3, [sp, #48]
 3086 02b2 FF1A     		subs	r7, r7, r3
 3087              	.LVL444:
 3088              	.L552:
 3089              	.LBE240:
 3090              	.LBE242:
 775:..\..\..\lvgl\version_6.1.2\lvgl\src\lv_misc/lv_printf.c ****           l = (l < precision ? l : precision);
ARM GAS  C:\Users\pearlstl\AppData\Local\Temp\ccbpFzqf.s 			page 76


 3091              		.loc 1 775 0
 3092 02b4 15F48063 		ands	r3, r5, #1024
 3093 02b8 0D93     		str	r3, [sp, #52]
 3094 02ba 02D0     		beq	.L554
 776:..\..\..\lvgl\version_6.1.2\lvgl\src\lv_misc/lv_printf.c ****         }
 3095              		.loc 1 776 0
 3096 02bc 4F45     		cmp	r7, r9
 3097 02be 28BF     		it	cs
 3098 02c0 4F46     		movcs	r7, r9
 3099              	.LVL445:
 3100              	.L554:
 778:..\..\..\lvgl\version_6.1.2\lvgl\src\lv_misc/lv_printf.c ****           while (l++ < width) {
 3101              		.loc 1 778 0
 3102 02c2 15F00203 		ands	r3, r5, #2
 3103 02c6 0E93     		str	r3, [sp, #56]
 3104 02c8 00F06781 		beq	.L798
 784:..\..\..\lvgl\version_6.1.2\lvgl\src\lv_misc/lv_printf.c ****           out(*(p++), buffer, idx++, maxlen);
 3105              		.loc 1 784 0
 3106 02cc C8B1     		cbz	r0, .L585
 3107 02ce 0D9B     		ldr	r3, [sp, #52]
 3108 02d0 0C9E     		ldr	r6, [sp, #48]
 3109 02d2 002B     		cmp	r3, #0
 3110 02d4 00F08A81 		beq	.L559
 3111              	.LVL446:
 3112              	.L808:
 3113 02d8 0C94     		str	r4, [sp, #48]
 3114 02da D144     		add	r9, r9, r10
 3115 02dc 089D     		ldr	r5, [sp, #32]
 3116 02de 099C     		ldr	r4, [sp, #36]
 3117 02e0 07E0     		b	.L560
 3118              	.LVL447:
 3119              	.L800:
 785:..\..\..\lvgl\version_6.1.2\lvgl\src\lv_misc/lv_printf.c ****         }
 3120              		.loc 1 785 0
 3121 02e2 A847     		blx	r5
 3122              	.LVL448:
 784:..\..\..\lvgl\version_6.1.2\lvgl\src\lv_misc/lv_printf.c ****           out(*(p++), buffer, idx++, maxlen);
 3123              		.loc 1 784 0
 3124 02e4 16F8010F 		ldrb	r0, [r6, #1]!	@ zero_extendqisi2
 785:..\..\..\lvgl\version_6.1.2\lvgl\src\lv_misc/lv_printf.c ****         }
 3125              		.loc 1 785 0
 3126 02e8 0AF1010A 		add	r10, r10, #1
 3127              	.LVL449:
 784:..\..\..\lvgl\version_6.1.2\lvgl\src\lv_misc/lv_printf.c ****           out(*(p++), buffer, idx++, maxlen);
 3128              		.loc 1 784 0
 3129 02ec 0028     		cmp	r0, #0
 3130 02ee 00F0B581 		beq	.L799
 3131              	.LVL450:
 3132              	.L560:
 3133 02f2 D145     		cmp	r9, r10
 785:..\..\..\lvgl\version_6.1.2\lvgl\src\lv_misc/lv_printf.c ****         }
 3134              		.loc 1 785 0
 3135 02f4 5246     		mov	r2, r10
 3136 02f6 5B46     		mov	r3, fp
 3137 02f8 2146     		mov	r1, r4
 784:..\..\..\lvgl\version_6.1.2\lvgl\src\lv_misc/lv_printf.c ****           out(*(p++), buffer, idx++, maxlen);
 3138              		.loc 1 784 0
ARM GAS  C:\Users\pearlstl\AppData\Local\Temp\ccbpFzqf.s 			page 77


 3139 02fa F2D1     		bne	.L800
 3140              	.LVL451:
 3141 02fc 0C9C     		ldr	r4, [sp, #48]
 3142              	.LVL452:
 3143              	.L558:
 788:..\..\..\lvgl\version_6.1.2\lvgl\src\lv_misc/lv_printf.c ****           while (l++ < width) {
 3144              		.loc 1 788 0
 3145 02fe 0E9B     		ldr	r3, [sp, #56]
 3146 0300 C3B1     		cbz	r3, .L563
 3147              	.L585:
 3148              	.LVL453:
 789:..\..\..\lvgl\version_6.1.2\lvgl\src\lv_misc/lv_printf.c ****             out(' ', buffer, idx++, maxlen);
 3149              		.loc 1 789 0
 3150 0302 B845     		cmp	r8, r7
 3151 0304 16D9     		bls	.L563
 3152 0306 5246     		mov	r2, r10
 3153 0308 CAEB0705 		rsb	r5, r10, r7
 3154 030c CDF830A0 		str	r10, [sp, #48]
 3155 0310 DDF82090 		ldr	r9, [sp, #32]
 3156 0314 DDF824A0 		ldr	r10, [sp, #36]
 3157              	.LVL454:
 3158              	.L564:
 790:..\..\..\lvgl\version_6.1.2\lvgl\src\lv_misc/lv_printf.c ****           }
 3159              		.loc 1 790 0
 3160 0318 561C     		adds	r6, r2, #1
 3161              	.LVL455:
 3162 031a 5B46     		mov	r3, fp
 3163 031c 5146     		mov	r1, r10
 3164 031e 2020     		movs	r0, #32
 3165 0320 C847     		blx	r9
 3166              	.LVL456:
 789:..\..\..\lvgl\version_6.1.2\lvgl\src\lv_misc/lv_printf.c ****             out(' ', buffer, idx++, maxlen);
 3167              		.loc 1 789 0
 3168 0322 7319     		adds	r3, r6, r5
 3169 0324 9845     		cmp	r8, r3
 790:..\..\..\lvgl\version_6.1.2\lvgl\src\lv_misc/lv_printf.c ****           }
 3170              		.loc 1 790 0
 3171 0326 3246     		mov	r2, r6
 789:..\..\..\lvgl\version_6.1.2\lvgl\src\lv_misc/lv_printf.c ****             out(' ', buffer, idx++, maxlen);
 3172              		.loc 1 789 0
 3173 0328 F6D8     		bhi	.L564
 3174 032a DDF830A0 		ldr	r10, [sp, #48]
 3175 032e C244     		add	r10, r10, r8
 3176 0330 C7EB0A0A 		rsb	r10, r7, r10
 3177              	.LVL457:
 3178              	.L563:
 772:..\..\..\lvgl\version_6.1.2\lvgl\src\lv_misc/lv_printf.c ****         unsigned int l = _strnlen_s(p, precision ? precision : (size_t)-1);
 3179              		.loc 1 772 0
 3180 0334 0A9B     		ldr	r3, [sp, #40]
 3181 0336 0C93     		str	r3, [sp, #48]
 793:..\..\..\lvgl\version_6.1.2\lvgl\src\lv_misc/lv_printf.c ****         break;
 3182              		.loc 1 793 0
 3183 0338 0134     		adds	r4, r4, #1
 3184              	.LVL458:
 3185 033a 71E6     		b	.L388
 3186              	.LVL459:
 3187              	.L420:
ARM GAS  C:\Users\pearlstl\AppData\Local\Temp\ccbpFzqf.s 			page 78


 3188              	.LBE260:
 3189              	.LBB261:
 668:..\..\..\lvgl\version_6.1.2\lvgl\src\lv_misc/lv_printf.c ****           base = 16U;
 3190              		.loc 1 668 0
 3191 033c 7828     		cmp	r0, #120
 3192 033e 00F09B81 		beq	.L593
 3193 0342 5828     		cmp	r0, #88
 3194 0344 00F06F83 		beq	.L425
 671:..\..\..\lvgl\version_6.1.2\lvgl\src\lv_misc/lv_printf.c ****           base =  8U;
 3195              		.loc 1 671 0
 3196 0348 6F28     		cmp	r0, #111
 3197 034a 00F04B84 		beq	.L594
 674:..\..\..\lvgl\version_6.1.2\lvgl\src\lv_misc/lv_printf.c ****           base =  2U;
 3198              		.loc 1 674 0
 3199 034e 6228     		cmp	r0, #98
 3200 0350 00F03882 		beq	.L595
 3201              	.LVL460:
 679:..\..\..\lvgl\version_6.1.2\lvgl\src\lv_misc/lv_printf.c ****         }
 3202              		.loc 1 679 0
 3203 0354 25F01003 		bic	r3, r5, #16
 687:..\..\..\lvgl\version_6.1.2\lvgl\src\lv_misc/lv_printf.c ****           flags &= ~(FLAGS_PLUS | FLAGS_SPACE);
 3204              		.loc 1 687 0
 3205 0358 6928     		cmp	r0, #105
 679:..\..\..\lvgl\version_6.1.2\lvgl\src\lv_misc/lv_printf.c ****         }
 3206              		.loc 1 679 0
 3207 035a 0A93     		str	r3, [sp, #40]
 3208              	.LVL461:
 687:..\..\..\lvgl\version_6.1.2\lvgl\src\lv_misc/lv_printf.c ****           flags &= ~(FLAGS_PLUS | FLAGS_SPACE);
 3209              		.loc 1 687 0
 3210 035c 40F08286 		bne	.L801
 692:..\..\..\lvgl\version_6.1.2\lvgl\src\lv_misc/lv_printf.c ****           flags &= ~FLAGS_ZEROPAD;
 3211              		.loc 1 692 0
 3212 0360 6905     		lsls	r1, r5, #21
 678:..\..\..\lvgl\version_6.1.2\lvgl\src\lv_misc/lv_printf.c ****           flags &= ~FLAGS_HASH;   // no hash for dec format
 3213              		.loc 1 678 0
 3214 0362 4FF00A07 		mov	r7, #10
 692:..\..\..\lvgl\version_6.1.2\lvgl\src\lv_misc/lv_printf.c ****           flags &= ~FLAGS_ZEROPAD;
 3215              		.loc 1 692 0
 3216 0366 00F18D81 		bmi	.L580
 3217              	.LVL462:
 3218              	.L430:
 699:..\..\..\lvgl\version_6.1.2\lvgl\src\lv_misc/lv_printf.c **** #if defined(PRINTF_SUPPORT_LONG_LONG)
 3219              		.loc 1 699 0
 3220 036a 0A9B     		ldr	r3, [sp, #40]
 3221 036c 9D05     		lsls	r5, r3, #22
 3222 036e 00F13B84 		bmi	.L802
 705:..\..\..\lvgl\version_6.1.2\lvgl\src\lv_misc/lv_printf.c ****             const long value = va_arg(va, long);
 3223              		.loc 1 705 0
 3224 0372 D905     		lsls	r1, r3, #23
 3225              	.LBB262:
 706:..\..\..\lvgl\version_6.1.2\lvgl\src\lv_misc/lv_printf.c ****             idx = _ntoa_long(out, buffer, idx, maxlen, (unsigned long)(value > 0 ? value : 0 - valu
 3226              		.loc 1 706 0
 3227 0374 0C9A     		ldr	r2, [sp, #48]
 3228              	.LBE262:
 705:..\..\..\lvgl\version_6.1.2\lvgl\src\lv_misc/lv_printf.c ****             const long value = va_arg(va, long);
 3229              		.loc 1 705 0
 3230 0376 00F1F184 		bmi	.L803
ARM GAS  C:\Users\pearlstl\AppData\Local\Temp\ccbpFzqf.s 			page 79


 3231              	.LBB271:
 710:..\..\..\lvgl\version_6.1.2\lvgl\src\lv_misc/lv_printf.c ****             idx = _ntoa_long(out, buffer, idx, maxlen, (unsigned int)(value > 0 ? value : 0 - value
 3232              		.loc 1 710 0
 3233 037a 5D06     		lsls	r5, r3, #25
 3234 037c 40F1A584 		bpl	.L446
 3235 0380 1378     		ldrb	r3, [r2]	@ zero_extendqisi2
 3236 0382 0432     		adds	r2, r2, #4
 3237 0384 0C92     		str	r2, [sp, #48]
 3238              	.L447:
 3239              	.LVL463:
 711:..\..\..\lvgl\version_6.1.2\lvgl\src\lv_misc/lv_printf.c ****           }
 3240              		.loc 1 711 0
 3241 0386 83EAE371 		eor	r1, r3, r3, asr #31
 3242 038a A1EBE371 		sub	r1, r1, r3, asr #31
 3243 038e 4FEAD37E 		lsr	lr, r3, #31
 3244              	.LVL464:
 3245              	.LBB272:
 3246              	.LBB273:
 262:..\..\..\lvgl\version_6.1.2\lvgl\src\lv_misc/lv_printf.c ****     flags &= ~FLAGS_HASH;
 3247              		.loc 1 262 0
 3248 0392 0B46     		mov	r3, r1
 3249              	.LVL465:
 3250 0394 29B9     		cbnz	r1, .L449
 263:..\..\..\lvgl\version_6.1.2\lvgl\src\lv_misc/lv_printf.c ****   }
 3251              		.loc 1 263 0
 3252 0396 0A98     		ldr	r0, [sp, #40]
 3253 0398 20F01002 		bic	r2, r0, #16
 3254              	.LVL466:
 267:..\..\..\lvgl\version_6.1.2\lvgl\src\lv_misc/lv_printf.c ****     do {
 3255              		.loc 1 267 0
 3256 039c 4005     		lsls	r0, r0, #21
 263:..\..\..\lvgl\version_6.1.2\lvgl\src\lv_misc/lv_printf.c ****   }
 3257              		.loc 1 263 0
 3258 039e 0A92     		str	r2, [sp, #40]
 267:..\..\..\lvgl\version_6.1.2\lvgl\src\lv_misc/lv_printf.c ****     do {
 3259              		.loc 1 267 0
 3260 03a0 1CD4     		bmi	.L450
 3261              	.LVL467:
 3262              	.L449:
 3263 03a2 0A9A     		ldr	r2, [sp, #40]
 3264 03a4 12F0200F 		tst	r2, #32
 3265              	.LBB274:
 270:..\..\..\lvgl\version_6.1.2\lvgl\src\lv_misc/lv_printf.c ****       value /= base;
 3266              		.loc 1 270 0
 3267 03a8 14BF     		ite	ne
 3268 03aa 3726     		movne	r6, #55
 3269 03ac 5726     		moveq	r6, #87
 3270 03ae 0DF14F05 		add	r5, sp, #79
 3271 03b2 0021     		movs	r1, #0
 3272              	.LVL468:
 3273 03b4 01E0     		b	.L453
 3274              	.LVL469:
 3275              	.L804:
 3276              	.LBE274:
 272:..\..\..\lvgl\version_6.1.2\lvgl\src\lv_misc/lv_printf.c ****   }
 3277              		.loc 1 272 0
 3278 03b6 2029     		cmp	r1, #32
ARM GAS  C:\Users\pearlstl\AppData\Local\Temp\ccbpFzqf.s 			page 80


 3279 03b8 10D0     		beq	.L450
 3280              	.LVL470:
 3281              	.L453:
 3282              	.LBB275:
 269:..\..\..\lvgl\version_6.1.2\lvgl\src\lv_misc/lv_printf.c ****       buf[len++] = digit < 10 ? '0' + digit : (flags & FLAGS_UPPERCASE ? 'A' : 'a') + digit - 10;
 3283              		.loc 1 269 0
 3284 03ba B3FBF7F0 		udiv	r0, r3, r7
 3285 03be 07FB1033 		mls	r3, r7, r0, r3
 3286              	.LVL471:
 3287 03c2 DAB2     		uxtb	r2, r3
 3288              	.LVL472:
 270:..\..\..\lvgl\version_6.1.2\lvgl\src\lv_misc/lv_printf.c ****       value /= base;
 3289              		.loc 1 270 0
 3290 03c4 092B     		cmp	r3, #9
 3291 03c6 02F13003 		add	r3, r2, #48
 3292 03ca 88BF     		it	hi
 3293 03cc 9319     		addhi	r3, r2, r6
 3294 03ce DBB2     		uxtb	r3, r3
 3295 03d0 05F8013F 		strb	r3, [r5, #1]!
 3296 03d4 0131     		adds	r1, r1, #1
 3297              	.LVL473:
 3298              	.LBE275:
 272:..\..\..\lvgl\version_6.1.2\lvgl\src\lv_misc/lv_printf.c ****   }
 3299              		.loc 1 272 0
 3300 03d6 0346     		mov	r3, r0
 3301 03d8 0028     		cmp	r0, #0
 3302 03da ECD1     		bne	.L804
 3303              	.LVL474:
 3304              	.L450:
 275:..\..\..\lvgl\version_6.1.2\lvgl\src\lv_misc/lv_printf.c **** }
 3305              		.loc 1 275 0
 3306 03dc 0A9A     		ldr	r2, [sp, #40]
 3307 03de 0692     		str	r2, [sp, #24]
 3308 03e0 14AB     		add	r3, sp, #80
 3309              	.LVL475:
 3310 03e2 CDF81480 		str	r8, [sp, #20]
 3311 03e6 CDF81090 		str	r9, [sp, #16]
 3312 03ea 0397     		str	r7, [sp, #12]
 3313 03ec CDF808E0 		str	lr, [sp, #8]
 3314 03f0 0191     		str	r1, [sp, #4]
 3315 03f2 5246     		mov	r2, r10
 3316 03f4 8EE1     		b	.L783
 3317              	.LVL476:
 3318              	.L416:
 3319              	.LBE273:
 3320              	.LBE272:
 3321              	.LBE271:
 3322              	.LBE261:
 816:..\..\..\lvgl\version_6.1.2\lvgl\src\lv_misc/lv_printf.c ****         format++;
 3323              		.loc 1 816 0
 3324 03f6 0AF10105 		add	r5, r10, #1
 3325              	.LVL477:
 3326 03fa 5246     		mov	r2, r10
 3327 03fc 5B46     		mov	r3, fp
 3328 03fe AA46     		mov	r10, r5
 3329 0400 0999     		ldr	r1, [sp, #36]
 3330 0402 089D     		ldr	r5, [sp, #32]
ARM GAS  C:\Users\pearlstl\AppData\Local\Temp\ccbpFzqf.s 			page 81


 3331              	.LVL478:
 3332 0404 2520     		movs	r0, #37
 817:..\..\..\lvgl\version_6.1.2\lvgl\src\lv_misc/lv_printf.c ****         break;
 3333              		.loc 1 817 0
 3334 0406 0134     		adds	r4, r4, #1
 3335              	.LVL479:
 816:..\..\..\lvgl\version_6.1.2\lvgl\src\lv_misc/lv_printf.c ****         format++;
 3336              		.loc 1 816 0
 3337 0408 A847     		blx	r5
 3338              	.LVL480:
 3339 040a 09E6     		b	.L388
 3340              	.LVL481:
 3341              	.L419:
 736:..\..\..\lvgl\version_6.1.2\lvgl\src\lv_misc/lv_printf.c ****         format++;
 3342              		.loc 1 736 0
 3343 040c 0C9B     		ldr	r3, [sp, #48]
 3344 040e 03F1070E 		add	lr, r3, #7
 3345 0412 2EF0070E 		bic	lr, lr, #7
 3346 0416 9EED007B 		vldr.64	d7, [lr]
 735:..\..\..\lvgl\version_6.1.2\lvgl\src\lv_misc/lv_printf.c ****         idx = _ftoa(out, buffer, idx, maxlen, va_arg(va, double), precision, width, flags);
 3347              		.loc 1 735 0
 3348 041a 4628     		cmp	r0, #70
 3349              	.LBB317:
 3350              	.LBB318:
 324:..\..\..\lvgl\version_6.1.2\lvgl\src\lv_misc/lv_printf.c ****     return _out_rev(out, buffer, idx, maxlen, "nan", 3, width, flags);
 3351              		.loc 1 324 0
 3352 041c 51EC170B 		vmov	r0, r1, d7
 3353              	.LBE318:
 3354              	.LBE317:
 736:..\..\..\lvgl\version_6.1.2\lvgl\src\lv_misc/lv_printf.c ****         format++;
 3355              		.loc 1 736 0
 3356 0420 0EF10806 		add	r6, lr, #8
 3357              	.LBB388:
 3358              	.LBB375:
 324:..\..\..\lvgl\version_6.1.2\lvgl\src\lv_misc/lv_printf.c ****     return _out_rev(out, buffer, idx, maxlen, "nan", 3, width, flags);
 3359              		.loc 1 324 0
 3360 0424 17EE102A 		vmov	r2, s14	@ int
 3361 0428 0B46     		mov	r3, r1
 3362              	.LBE375:
 3363              	.LBE388:
 735:..\..\..\lvgl\version_6.1.2\lvgl\src\lv_misc/lv_printf.c ****         idx = _ftoa(out, buffer, idx, maxlen, va_arg(va, double), precision, width, flags);
 3364              		.loc 1 735 0
 3365 042a 08BF     		it	eq
 3366 042c 45F02005 		orreq	r5, r5, #32
 3367              	.LVL482:
 736:..\..\..\lvgl\version_6.1.2\lvgl\src\lv_misc/lv_printf.c ****         format++;
 3368              		.loc 1 736 0
 3369 0430 8DED0A7B 		vstr.64	d7, [sp, #40]
 3370 0434 0C96     		str	r6, [sp, #48]
 3371              	.LVL483:
 3372              	.LBB389:
 3373              	.LBB376:
 324:..\..\..\lvgl\version_6.1.2\lvgl\src\lv_misc/lv_printf.c ****     return _out_rev(out, buffer, idx, maxlen, "nan", 3, width, flags);
 3374              		.loc 1 324 0
 3375 0436 FFF7FEFF 		bl	__aeabi_dcmpeq
 3376              	.LVL484:
 3377 043a 0028     		cmp	r0, #0
ARM GAS  C:\Users\pearlstl\AppData\Local\Temp\ccbpFzqf.s 			page 82


 3378 043c 00F01283 		beq	.L805
 326:..\..\..\lvgl\version_6.1.2\lvgl\src\lv_misc/lv_printf.c ****     return _out_rev(out, buffer, idx, maxlen, "fni-", 4, width, flags);
 3379              		.loc 1 326 0
 3380 0440 4FF0FF32 		mov	r2, #-1
 3381 0444 6FF48013 		mvn	r3, #1048576
 3382 0448 DDE90A01 		ldrd	r0, [sp, #40]
 3383 044c FFF7FEFF 		bl	__aeabi_dcmplt
 3384              	.LVL485:
 3385 0450 0028     		cmp	r0, #0
 3386 0452 40F09A81 		bne	.L806
 3387              	.LVL486:
 3388              	.LBB319:
 3389              	.LBB320:
 328:..\..\..\lvgl\version_6.1.2\lvgl\src\lv_misc/lv_printf.c ****     return _out_rev(out, buffer, idx, maxlen, (flags & FLAGS_PLUS) ? "fni+" : "fni", (flags & FLAGS
 3390              		.loc 1 328 0
 3391 0456 4FF0FF32 		mov	r2, #-1
 3392 045a B24B     		ldr	r3, .L832
 3393 045c DDE90A01 		ldrd	r0, [sp, #40]
 3394 0460 FFF7FEFF 		bl	__aeabi_dcmpgt
 3395              	.LVL487:
 3396 0464 0028     		cmp	r0, #0
 3397 0466 00F0E881 		beq	.L758
 329:..\..\..\lvgl\version_6.1.2\lvgl\src\lv_misc/lv_printf.c **** 
 3398              		.loc 1 329 0
 3399 046a 05F00403 		and	r3, r5, #4
 3400 046e AE4A     		ldr	r2, .L832+4
 3401 0470 AE49     		ldr	r1, .L832+8
 3402 0472 002B     		cmp	r3, #0
 3403 0474 0DBF     		iteet	eq
 3404 0476 0323     		moveq	r3, #3
 3405 0478 0423     		movne	r3, #4
 3406 047a 9146     		movne	r9, r2
 3407 047c 8946     		moveq	r9, r1
 3408              	.LBB321:
 3409              	.LBB322:
 178:..\..\..\lvgl\version_6.1.2\lvgl\src\lv_misc/lv_printf.c ****       size_t i;
 3410              		.loc 1 178 0
 3411 047e AE07     		lsls	r6, r5, #30
 3412              	.LBE322:
 3413              	.LBE321:
 329:..\..\..\lvgl\version_6.1.2\lvgl\src\lv_misc/lv_printf.c **** 
 3414              		.loc 1 329 0
 3415 0480 1A46     		mov	r2, r3
 3416 0482 0A93     		str	r3, [sp, #40]
 3417              	.LVL488:
 3418              	.LBB327:
 3419              	.LBB325:
 178:..\..\..\lvgl\version_6.1.2\lvgl\src\lv_misc/lv_printf.c ****       size_t i;
 3420              		.loc 1 178 0
 3421 0484 40F05481 		bne	.L612
 3422              	.LVL489:
 3423              	.LBB323:
 180:..\..\..\lvgl\version_6.1.2\lvgl\src\lv_misc/lv_printf.c ****       out(' ', buffer, idx++, maxlen);
 3424              		.loc 1 180 0
 3425 0488 9845     		cmp	r8, r3
 3426 048a 40F25181 		bls	.L612
 3427 048e 0AEB0806 		add	r6, r10, r8
ARM GAS  C:\Users\pearlstl\AppData\Local\Temp\ccbpFzqf.s 			page 83


 3428 0492 5246     		mov	r2, r10
 3429              	.LVL490:
 3430 0494 CDF834A0 		str	r10, [sp, #52]
 3431 0498 089F     		ldr	r7, [sp, #32]
 3432 049a DDF824A0 		ldr	r10, [sp, #36]
 3433 049e 0E94     		str	r4, [sp, #56]
 3434 04a0 F61A     		subs	r6, r6, r3
 3435              	.LVL491:
 3436              	.L492:
 181:..\..\..\lvgl\version_6.1.2\lvgl\src\lv_misc/lv_printf.c ****     }
 3437              		.loc 1 181 0
 3438 04a2 541C     		adds	r4, r2, #1
 3439              	.LVL492:
 3440 04a4 5B46     		mov	r3, fp
 3441 04a6 5146     		mov	r1, r10
 3442 04a8 2020     		movs	r0, #32
 3443 04aa B847     		blx	r7
 3444              	.LVL493:
 180:..\..\..\lvgl\version_6.1.2\lvgl\src\lv_misc/lv_printf.c ****       out(' ', buffer, idx++, maxlen);
 3445              		.loc 1 180 0
 3446 04ac B442     		cmp	r4, r6
 3447 04ae 2246     		mov	r2, r4
 3448 04b0 F7D1     		bne	.L492
 3449 04b2 DDF834A0 		ldr	r10, [sp, #52]
 3450 04b6 0E9C     		ldr	r4, [sp, #56]
 3451              	.LVL494:
 3452 04b8 0A9A     		ldr	r2, [sp, #40]
 3453              	.LVL495:
 3454 04ba 3AE1     		b	.L491
 3455              	.LVL496:
 3456              	.L415:
 3457              	.LBE323:
 3458              	.LBE325:
 3459              	.LBE327:
 3460              	.LBE320:
 3461              	.LBE319:
 3462              	.LBE376:
 3463              	.LBE389:
 821:..\..\..\lvgl\version_6.1.2\lvgl\src\lv_misc/lv_printf.c ****         format++;
 3464              		.loc 1 821 0
 3465 04bc 5246     		mov	r2, r10
 3466 04be 5B46     		mov	r3, fp
 3467 04c0 0999     		ldr	r1, [sp, #36]
 3468 04c2 089D     		ldr	r5, [sp, #32]
 3469              	.LVL497:
 3470 04c4 A847     		blx	r5
 3471              	.LVL498:
 3472 04c6 0AF1010A 		add	r10, r10, #1
 3473              	.LVL499:
 3474              	.L788:
 822:..\..\..\lvgl\version_6.1.2\lvgl\src\lv_misc/lv_printf.c ****         break;
 3475              		.loc 1 822 0
 3476 04ca 0134     		adds	r4, r4, #1
 3477              	.LVL500:
 3478 04cc A8E5     		b	.L388
 3479              	.LVL501:
 3480              	.L573:
ARM GAS  C:\Users\pearlstl\AppData\Local\Temp\ccbpFzqf.s 			page 84


 591:..\..\..\lvgl\version_6.1.2\lvgl\src\lv_misc/lv_printf.c ****       width = _atoi(&format);
 3481              		.loc 1 591 0
 3482 04ce 4FF00008 		mov	r8, #0
 3483              	.LVL502:
 3484              	.L399:
 3485              	.LBB390:
 3486              	.LBB391:
 166:..\..\..\lvgl\version_6.1.2\lvgl\src\lv_misc/lv_printf.c ****   }
 3487              		.loc 1 166 0
 3488 04d2 08EB8808 		add	r8, r8, r8, lsl #2
 3489 04d6 00EB4808 		add	r8, r0, r8, lsl #1
 3490              	.LVL503:
 165:..\..\..\lvgl\version_6.1.2\lvgl\src\lv_misc/lv_printf.c ****     i = i * 10U + (unsigned int)(*((*str)++) - '0');
 3491              		.loc 1 165 0
 3492 04da 14F8010F 		ldrb	r0, [r4, #1]!	@ zero_extendqisi2
 3493              	.LVL504:
 3494 04de A0F13003 		sub	r3, r0, #48
 3495 04e2 092B     		cmp	r3, #9
 166:..\..\..\lvgl\version_6.1.2\lvgl\src\lv_misc/lv_printf.c ****   }
 3496              		.loc 1 166 0
 3497 04e4 A8F13008 		sub	r8, r8, #48
 3498              	.LVL505:
 165:..\..\..\lvgl\version_6.1.2\lvgl\src\lv_misc/lv_printf.c ****     i = i * 10U + (unsigned int)(*((*str)++) - '0');
 3499              		.loc 1 165 0
 3500 04e8 F3D9     		bls	.L399
 3501              	.LVL506:
 3502              	.LBE391:
 3503              	.LBE390:
 608:..\..\..\lvgl\version_6.1.2\lvgl\src\lv_misc/lv_printf.c ****       flags |= FLAGS_PRECISION;
 3504              		.loc 1 608 0
 3505 04ea 2E28     		cmp	r0, #46
 3506 04ec 7FF4E7AD 		bne	.L778
 3507              	.LVL507:
 3508              	.L795:
 611:..\..\..\lvgl\version_6.1.2\lvgl\src\lv_misc/lv_printf.c ****         precision = _atoi(&format);
 3509              		.loc 1 611 0
 3510 04f0 6078     		ldrb	r0, [r4, #1]	@ zero_extendqisi2
 3511 04f2 A0F13003 		sub	r3, r0, #48
 3512 04f6 092B     		cmp	r3, #9
 609:..\..\..\lvgl\version_6.1.2\lvgl\src\lv_misc/lv_printf.c ****       format++;
 3513              		.loc 1 609 0
 3514 04f8 45F48065 		orr	r5, r5, #1024
 3515              	.LVL508:
 610:..\..\..\lvgl\version_6.1.2\lvgl\src\lv_misc/lv_printf.c ****       if (_is_digit(*format)) {
 3516              		.loc 1 610 0
 3517 04fc 04F10102 		add	r2, r4, #1
 3518              	.LVL509:
 611:..\..\..\lvgl\version_6.1.2\lvgl\src\lv_misc/lv_printf.c ****         precision = _atoi(&format);
 3519              		.loc 1 611 0
 3520 0500 1FD8     		bhi	.L404
 3521 0502 1446     		mov	r4, r2
 3522 0504 4FF00009 		mov	r9, #0
 3523              	.LVL510:
 3524              	.L405:
 3525              	.LBB392:
 3526              	.LBB393:
 166:..\..\..\lvgl\version_6.1.2\lvgl\src\lv_misc/lv_printf.c ****   }
ARM GAS  C:\Users\pearlstl\AppData\Local\Temp\ccbpFzqf.s 			page 85


 3527              		.loc 1 166 0
 3528 0508 09EB8909 		add	r9, r9, r9, lsl #2
 3529 050c 00EB4909 		add	r9, r0, r9, lsl #1
 3530              	.LVL511:
 165:..\..\..\lvgl\version_6.1.2\lvgl\src\lv_misc/lv_printf.c ****     i = i * 10U + (unsigned int)(*((*str)++) - '0');
 3531              		.loc 1 165 0
 3532 0510 14F8010F 		ldrb	r0, [r4, #1]!	@ zero_extendqisi2
 3533              	.LVL512:
 3534 0514 A0F13003 		sub	r3, r0, #48
 3535 0518 092B     		cmp	r3, #9
 166:..\..\..\lvgl\version_6.1.2\lvgl\src\lv_misc/lv_printf.c ****   }
 3536              		.loc 1 166 0
 3537 051a A9F13009 		sub	r9, r9, #48
 3538              	.LVL513:
 165:..\..\..\lvgl\version_6.1.2\lvgl\src\lv_misc/lv_printf.c ****     i = i * 10U + (unsigned int)(*((*str)++) - '0');
 3539              		.loc 1 165 0
 3540 051e F3D9     		bls	.L405
 3541 0520 CFE5     		b	.L403
 3542              	.LVL514:
 3543              	.L794:
 3544              	.LBE393:
 3545              	.LBE392:
 3546              	.LBB394:
 595:..\..\..\lvgl\version_6.1.2\lvgl\src\lv_misc/lv_printf.c ****       if (w < 0) {
 3547              		.loc 1 595 0
 3548 0522 0C9A     		ldr	r2, [sp, #48]
 3549 0524 6078     		ldrb	r0, [r4, #1]	@ zero_extendqisi2
 3550 0526 1368     		ldr	r3, [r2]
 3551 0528 02F1040E 		add	lr, r2, #4
 3552              	.LVL515:
 596:..\..\..\lvgl\version_6.1.2\lvgl\src\lv_misc/lv_printf.c ****         flags |= FLAGS_LEFT;    // reverse padding
 3553              		.loc 1 596 0
 3554 052c 002B     		cmp	r3, #0
 597:..\..\..\lvgl\version_6.1.2\lvgl\src\lv_misc/lv_printf.c ****         width = (unsigned int)-w;
 3555              		.loc 1 597 0
 3556 052e BABF     		itte	lt
 3557 0530 45F00205 		orrlt	r5, r5, #2
 3558              	.LVL516:
 598:..\..\..\lvgl\version_6.1.2\lvgl\src\lv_misc/lv_printf.c ****       }
 3559              		.loc 1 598 0
 3560 0534 C3F10008 		rsblt	r8, r3, #0
 3561              	.LVL517:
 601:..\..\..\lvgl\version_6.1.2\lvgl\src\lv_misc/lv_printf.c ****       }
 3562              		.loc 1 601 0
 3563 0538 9846     		movge	r8, r3
 3564              	.LVL518:
 595:..\..\..\lvgl\version_6.1.2\lvgl\src\lv_misc/lv_printf.c ****       if (w < 0) {
 3565              		.loc 1 595 0
 3566 053a CDF830E0 		str	lr, [sp, #48]
 603:..\..\..\lvgl\version_6.1.2\lvgl\src\lv_misc/lv_printf.c ****     }
 3567              		.loc 1 603 0
 3568 053e 0134     		adds	r4, r4, #1
 3569              	.LVL519:
 3570 0540 BAE5     		b	.L400
 3571              	.LVL520:
 3572              	.L404:
 3573              	.LBE394:
ARM GAS  C:\Users\pearlstl\AppData\Local\Temp\ccbpFzqf.s 			page 86


 614:..\..\..\lvgl\version_6.1.2\lvgl\src\lv_misc/lv_printf.c ****         const int prec = (int)va_arg(va, int);
 3574              		.loc 1 614 0
 3575 0542 2A28     		cmp	r0, #42
 3576 0544 00F06F81 		beq	.L807
 610:..\..\..\lvgl\version_6.1.2\lvgl\src\lv_misc/lv_printf.c ****       if (_is_digit(*format)) {
 3577              		.loc 1 610 0
 3578 0548 1446     		mov	r4, r2
 3579 054a B8E5     		b	.L778
 3580              	.LVL521:
 3581              	.L418:
 744:..\..\..\lvgl\version_6.1.2\lvgl\src\lv_misc/lv_printf.c ****         if ((*format == 'E')||(*format == 'G')) flags |= FLAGS_UPPERCASE;
 3582              		.loc 1 744 0
 3583 054c 00F0DF03 		and	r3, r0, #223
 3584 0550 472B     		cmp	r3, #71
 745:..\..\..\lvgl\version_6.1.2\lvgl\src\lv_misc/lv_printf.c ****         idx = _etoa(out, buffer, idx, maxlen, va_arg(va, double), precision, width, flags);
 3585              		.loc 1 745 0
 3586 0552 08BF     		it	eq
 3587 0554 00F0FD00 		andeq	r0, r0, #253
