ARM GAS  C:\Users\pearlstl\AppData\Local\Temp\ccH1AW89.s 			page 1


   1              		.syntax unified
   2              		.cpu cortex-m4
   3              		.eabi_attribute 27, 1
   4              		.fpu fpv4-sp-d16
   5              		.eabi_attribute 20, 1
   6              		.eabi_attribute 21, 1
   7              		.eabi_attribute 23, 3
   8              		.eabi_attribute 24, 1
   9              		.eabi_attribute 25, 1
  10              		.eabi_attribute 26, 1
  11              		.eabi_attribute 30, 2
  12              		.eabi_attribute 34, 1
  13              		.eabi_attribute 18, 4
  14              		.thumb
  15              		.syntax unified
  16              		.file	"lv_preload.c"
  17              		.text
  18              	.Ltext0:
  19              		.cfi_sections	.debug_frame
  20              		.section	.text.lv_preload_set_arc_length,"ax",%progbits
  21              		.align	2
  22              		.global	lv_preload_set_arc_length
  23              		.thumb
  24              		.thumb_func
  25              		.type	lv_preload_set_arc_length, %function
  26              	lv_preload_set_arc_length:
  27              	.LFB32:
  28              		.file 1 "..\\..\\..\\lvgl\\version_6.1.2\\lvgl\\src\\lv_objx\\lv_preload.c"
   1:..\..\..\lvgl\version_6.1.2\lvgl\src\lv_objx/lv_preload.c **** /**
   2:..\..\..\lvgl\version_6.1.2\lvgl\src\lv_objx/lv_preload.c ****  * @file lv_preload.c
   3:..\..\..\lvgl\version_6.1.2\lvgl\src\lv_objx/lv_preload.c ****  *
   4:..\..\..\lvgl\version_6.1.2\lvgl\src\lv_objx/lv_preload.c ****  */
   5:..\..\..\lvgl\version_6.1.2\lvgl\src\lv_objx/lv_preload.c **** 
   6:..\..\..\lvgl\version_6.1.2\lvgl\src\lv_objx/lv_preload.c **** /*********************
   7:..\..\..\lvgl\version_6.1.2\lvgl\src\lv_objx/lv_preload.c ****  *      INCLUDES
   8:..\..\..\lvgl\version_6.1.2\lvgl\src\lv_objx/lv_preload.c ****  *********************/
   9:..\..\..\lvgl\version_6.1.2\lvgl\src\lv_objx/lv_preload.c **** #include "lv_preload.h"
  10:..\..\..\lvgl\version_6.1.2\lvgl\src\lv_objx/lv_preload.c **** #if LV_USE_PRELOAD != 0
  11:..\..\..\lvgl\version_6.1.2\lvgl\src\lv_objx/lv_preload.c **** 
  12:..\..\..\lvgl\version_6.1.2\lvgl\src\lv_objx/lv_preload.c **** #include "../lv_core/lv_debug.h"
  13:..\..\..\lvgl\version_6.1.2\lvgl\src\lv_objx/lv_preload.c **** #include "../lv_misc/lv_math.h"
  14:..\..\..\lvgl\version_6.1.2\lvgl\src\lv_objx/lv_preload.c **** #include "../lv_draw/lv_draw_rect.h"
  15:..\..\..\lvgl\version_6.1.2\lvgl\src\lv_objx/lv_preload.c **** #include "../lv_draw/lv_draw_arc.h"
  16:..\..\..\lvgl\version_6.1.2\lvgl\src\lv_objx/lv_preload.c **** #include "../lv_themes/lv_theme.h"
  17:..\..\..\lvgl\version_6.1.2\lvgl\src\lv_objx/lv_preload.c **** 
  18:..\..\..\lvgl\version_6.1.2\lvgl\src\lv_objx/lv_preload.c **** /*********************
  19:..\..\..\lvgl\version_6.1.2\lvgl\src\lv_objx/lv_preload.c ****  *      DEFINES
  20:..\..\..\lvgl\version_6.1.2\lvgl\src\lv_objx/lv_preload.c ****  *********************/
  21:..\..\..\lvgl\version_6.1.2\lvgl\src\lv_objx/lv_preload.c **** #define LV_OBJX_NAME "lv_preloader"
  22:..\..\..\lvgl\version_6.1.2\lvgl\src\lv_objx/lv_preload.c **** 
  23:..\..\..\lvgl\version_6.1.2\lvgl\src\lv_objx/lv_preload.c **** #ifndef LV_PRELOAD_DEF_ARC_LENGTH
  24:..\..\..\lvgl\version_6.1.2\lvgl\src\lv_objx/lv_preload.c **** #define LV_PRELOAD_DEF_ARC_LENGTH 60 /*[deg]*/
  25:..\..\..\lvgl\version_6.1.2\lvgl\src\lv_objx/lv_preload.c **** #endif
  26:..\..\..\lvgl\version_6.1.2\lvgl\src\lv_objx/lv_preload.c **** 
  27:..\..\..\lvgl\version_6.1.2\lvgl\src\lv_objx/lv_preload.c **** #ifndef LV_PRELOAD_DEF_SPIN_TIME
  28:..\..\..\lvgl\version_6.1.2\lvgl\src\lv_objx/lv_preload.c **** #define LV_PRELOAD_DEF_SPIN_TIME 1000 /*[ms]*/
  29:..\..\..\lvgl\version_6.1.2\lvgl\src\lv_objx/lv_preload.c **** #endif
ARM GAS  C:\Users\pearlstl\AppData\Local\Temp\ccH1AW89.s 			page 2


  30:..\..\..\lvgl\version_6.1.2\lvgl\src\lv_objx/lv_preload.c **** 
  31:..\..\..\lvgl\version_6.1.2\lvgl\src\lv_objx/lv_preload.c **** #ifndef LV_PRELOAD_DEF_ANIM
  32:..\..\..\lvgl\version_6.1.2\lvgl\src\lv_objx/lv_preload.c **** #define LV_PRELOAD_DEF_ANIM LV_PRELOAD_TYPE_SPINNING_ARC /*animation type*/
  33:..\..\..\lvgl\version_6.1.2\lvgl\src\lv_objx/lv_preload.c **** #endif
  34:..\..\..\lvgl\version_6.1.2\lvgl\src\lv_objx/lv_preload.c **** 
  35:..\..\..\lvgl\version_6.1.2\lvgl\src\lv_objx/lv_preload.c **** /**********************
  36:..\..\..\lvgl\version_6.1.2\lvgl\src\lv_objx/lv_preload.c ****  *      TYPEDEFS
  37:..\..\..\lvgl\version_6.1.2\lvgl\src\lv_objx/lv_preload.c ****  **********************/
  38:..\..\..\lvgl\version_6.1.2\lvgl\src\lv_objx/lv_preload.c **** 
  39:..\..\..\lvgl\version_6.1.2\lvgl\src\lv_objx/lv_preload.c **** /**********************
  40:..\..\..\lvgl\version_6.1.2\lvgl\src\lv_objx/lv_preload.c ****  *  STATIC PROTOTYPES
  41:..\..\..\lvgl\version_6.1.2\lvgl\src\lv_objx/lv_preload.c ****  **********************/
  42:..\..\..\lvgl\version_6.1.2\lvgl\src\lv_objx/lv_preload.c **** static bool lv_preload_design(lv_obj_t * preload, const lv_area_t * mask, lv_design_mode_t mode);
  43:..\..\..\lvgl\version_6.1.2\lvgl\src\lv_objx/lv_preload.c **** static lv_res_t lv_preload_signal(lv_obj_t * preload, lv_signal_t sign, void * param);
  44:..\..\..\lvgl\version_6.1.2\lvgl\src\lv_objx/lv_preload.c **** 
  45:..\..\..\lvgl\version_6.1.2\lvgl\src\lv_objx/lv_preload.c **** /**********************
  46:..\..\..\lvgl\version_6.1.2\lvgl\src\lv_objx/lv_preload.c ****  *  STATIC VARIABLES
  47:..\..\..\lvgl\version_6.1.2\lvgl\src\lv_objx/lv_preload.c ****  **********************/
  48:..\..\..\lvgl\version_6.1.2\lvgl\src\lv_objx/lv_preload.c **** static lv_signal_cb_t ancestor_signal;
  49:..\..\..\lvgl\version_6.1.2\lvgl\src\lv_objx/lv_preload.c **** static lv_design_cb_t ancestor_design;
  50:..\..\..\lvgl\version_6.1.2\lvgl\src\lv_objx/lv_preload.c **** 
  51:..\..\..\lvgl\version_6.1.2\lvgl\src\lv_objx/lv_preload.c **** /**********************
  52:..\..\..\lvgl\version_6.1.2\lvgl\src\lv_objx/lv_preload.c ****  *      MACROS
  53:..\..\..\lvgl\version_6.1.2\lvgl\src\lv_objx/lv_preload.c ****  **********************/
  54:..\..\..\lvgl\version_6.1.2\lvgl\src\lv_objx/lv_preload.c **** 
  55:..\..\..\lvgl\version_6.1.2\lvgl\src\lv_objx/lv_preload.c **** /**********************
  56:..\..\..\lvgl\version_6.1.2\lvgl\src\lv_objx/lv_preload.c ****  *   GLOBAL FUNCTIONS
  57:..\..\..\lvgl\version_6.1.2\lvgl\src\lv_objx/lv_preload.c ****  **********************/
  58:..\..\..\lvgl\version_6.1.2\lvgl\src\lv_objx/lv_preload.c **** 
  59:..\..\..\lvgl\version_6.1.2\lvgl\src\lv_objx/lv_preload.c **** /**
  60:..\..\..\lvgl\version_6.1.2\lvgl\src\lv_objx/lv_preload.c ****  * Create a pre loader object
  61:..\..\..\lvgl\version_6.1.2\lvgl\src\lv_objx/lv_preload.c ****  * @param par pointer to an object, it will be the parent of the new pre loader
  62:..\..\..\lvgl\version_6.1.2\lvgl\src\lv_objx/lv_preload.c ****  * @param copy pointer to a pre loader object, if not NULL then the new object will be copied from
  63:..\..\..\lvgl\version_6.1.2\lvgl\src\lv_objx/lv_preload.c ****  * it
  64:..\..\..\lvgl\version_6.1.2\lvgl\src\lv_objx/lv_preload.c ****  * @return pointer to the created pre loader
  65:..\..\..\lvgl\version_6.1.2\lvgl\src\lv_objx/lv_preload.c ****  */
  66:..\..\..\lvgl\version_6.1.2\lvgl\src\lv_objx/lv_preload.c **** lv_obj_t * lv_preload_create(lv_obj_t * par, const lv_obj_t * copy)
  67:..\..\..\lvgl\version_6.1.2\lvgl\src\lv_objx/lv_preload.c **** {
  68:..\..\..\lvgl\version_6.1.2\lvgl\src\lv_objx/lv_preload.c ****     LV_LOG_TRACE("preload create started");
  69:..\..\..\lvgl\version_6.1.2\lvgl\src\lv_objx/lv_preload.c **** 
  70:..\..\..\lvgl\version_6.1.2\lvgl\src\lv_objx/lv_preload.c ****     /*Create the ancestor of pre loader*/
  71:..\..\..\lvgl\version_6.1.2\lvgl\src\lv_objx/lv_preload.c ****     lv_obj_t * new_preload = lv_arc_create(par, copy);
  72:..\..\..\lvgl\version_6.1.2\lvgl\src\lv_objx/lv_preload.c ****     LV_ASSERT_MEM(new_preload);
  73:..\..\..\lvgl\version_6.1.2\lvgl\src\lv_objx/lv_preload.c ****     if(new_preload == NULL) return NULL;
  74:..\..\..\lvgl\version_6.1.2\lvgl\src\lv_objx/lv_preload.c **** 
  75:..\..\..\lvgl\version_6.1.2\lvgl\src\lv_objx/lv_preload.c ****     /*Allocate the pre loader type specific extended data*/
  76:..\..\..\lvgl\version_6.1.2\lvgl\src\lv_objx/lv_preload.c ****     lv_preload_ext_t * ext = lv_obj_allocate_ext_attr(new_preload, sizeof(lv_preload_ext_t));
  77:..\..\..\lvgl\version_6.1.2\lvgl\src\lv_objx/lv_preload.c ****     LV_ASSERT_MEM(ext);
  78:..\..\..\lvgl\version_6.1.2\lvgl\src\lv_objx/lv_preload.c ****     if(ext == NULL) return NULL;
  79:..\..\..\lvgl\version_6.1.2\lvgl\src\lv_objx/lv_preload.c **** 
  80:..\..\..\lvgl\version_6.1.2\lvgl\src\lv_objx/lv_preload.c ****     if(ancestor_signal == NULL) ancestor_signal = lv_obj_get_signal_cb(new_preload);
  81:..\..\..\lvgl\version_6.1.2\lvgl\src\lv_objx/lv_preload.c ****     if(ancestor_design == NULL) ancestor_design = lv_obj_get_design_cb(new_preload);
  82:..\..\..\lvgl\version_6.1.2\lvgl\src\lv_objx/lv_preload.c **** 
  83:..\..\..\lvgl\version_6.1.2\lvgl\src\lv_objx/lv_preload.c ****     /*Initialize the allocated 'ext' */
  84:..\..\..\lvgl\version_6.1.2\lvgl\src\lv_objx/lv_preload.c ****     ext->arc_length = LV_PRELOAD_DEF_ARC_LENGTH;
  85:..\..\..\lvgl\version_6.1.2\lvgl\src\lv_objx/lv_preload.c ****     ext->anim_type  = LV_PRELOAD_DEF_ANIM;
  86:..\..\..\lvgl\version_6.1.2\lvgl\src\lv_objx/lv_preload.c ****     ext->anim_dir   = LV_PRELOAD_DIR_FORWARD;
ARM GAS  C:\Users\pearlstl\AppData\Local\Temp\ccH1AW89.s 			page 3


  87:..\..\..\lvgl\version_6.1.2\lvgl\src\lv_objx/lv_preload.c **** 
  88:..\..\..\lvgl\version_6.1.2\lvgl\src\lv_objx/lv_preload.c ****     /*The signal and design functions are not copied so set them here*/
  89:..\..\..\lvgl\version_6.1.2\lvgl\src\lv_objx/lv_preload.c ****     lv_obj_set_signal_cb(new_preload, lv_preload_signal);
  90:..\..\..\lvgl\version_6.1.2\lvgl\src\lv_objx/lv_preload.c ****     lv_obj_set_design_cb(new_preload, lv_preload_design);
  91:..\..\..\lvgl\version_6.1.2\lvgl\src\lv_objx/lv_preload.c **** 
  92:..\..\..\lvgl\version_6.1.2\lvgl\src\lv_objx/lv_preload.c ****     /*Init the new pre loader pre loader*/
  93:..\..\..\lvgl\version_6.1.2\lvgl\src\lv_objx/lv_preload.c ****     if(copy == NULL) {
  94:..\..\..\lvgl\version_6.1.2\lvgl\src\lv_objx/lv_preload.c ****         lv_obj_set_size(new_preload, LV_DPI / 2, LV_DPI / 2);
  95:..\..\..\lvgl\version_6.1.2\lvgl\src\lv_objx/lv_preload.c **** 
  96:..\..\..\lvgl\version_6.1.2\lvgl\src\lv_objx/lv_preload.c ****         /*Set the default styles*/
  97:..\..\..\lvgl\version_6.1.2\lvgl\src\lv_objx/lv_preload.c ****         lv_theme_t * th = lv_theme_get_current();
  98:..\..\..\lvgl\version_6.1.2\lvgl\src\lv_objx/lv_preload.c ****         if(th) {
  99:..\..\..\lvgl\version_6.1.2\lvgl\src\lv_objx/lv_preload.c ****             lv_preload_set_style(new_preload, LV_PRELOAD_STYLE_MAIN, th->style.preload);
 100:..\..\..\lvgl\version_6.1.2\lvgl\src\lv_objx/lv_preload.c ****         } else {
 101:..\..\..\lvgl\version_6.1.2\lvgl\src\lv_objx/lv_preload.c ****             lv_obj_set_style(new_preload, &lv_style_pretty_color);
 102:..\..\..\lvgl\version_6.1.2\lvgl\src\lv_objx/lv_preload.c ****         }
 103:..\..\..\lvgl\version_6.1.2\lvgl\src\lv_objx/lv_preload.c **** 
 104:..\..\..\lvgl\version_6.1.2\lvgl\src\lv_objx/lv_preload.c ****         ext->time = LV_PRELOAD_DEF_SPIN_TIME;
 105:..\..\..\lvgl\version_6.1.2\lvgl\src\lv_objx/lv_preload.c **** 
 106:..\..\..\lvgl\version_6.1.2\lvgl\src\lv_objx/lv_preload.c ****     }
 107:..\..\..\lvgl\version_6.1.2\lvgl\src\lv_objx/lv_preload.c ****     /*Copy an existing pre loader*/
 108:..\..\..\lvgl\version_6.1.2\lvgl\src\lv_objx/lv_preload.c ****     else {
 109:..\..\..\lvgl\version_6.1.2\lvgl\src\lv_objx/lv_preload.c ****         lv_preload_ext_t * copy_ext = lv_obj_get_ext_attr(copy);
 110:..\..\..\lvgl\version_6.1.2\lvgl\src\lv_objx/lv_preload.c ****         ext->arc_length             = copy_ext->arc_length;
 111:..\..\..\lvgl\version_6.1.2\lvgl\src\lv_objx/lv_preload.c ****         ext->time                   = copy_ext->time;
 112:..\..\..\lvgl\version_6.1.2\lvgl\src\lv_objx/lv_preload.c ****         ext->anim_dir               = copy_ext->anim_dir;
 113:..\..\..\lvgl\version_6.1.2\lvgl\src\lv_objx/lv_preload.c ****         /*Refresh the style with new signal function*/
 114:..\..\..\lvgl\version_6.1.2\lvgl\src\lv_objx/lv_preload.c ****         lv_obj_refresh_style(new_preload);
 115:..\..\..\lvgl\version_6.1.2\lvgl\src\lv_objx/lv_preload.c ****     }
 116:..\..\..\lvgl\version_6.1.2\lvgl\src\lv_objx/lv_preload.c **** 
 117:..\..\..\lvgl\version_6.1.2\lvgl\src\lv_objx/lv_preload.c ****     lv_preload_set_type(new_preload, ext->anim_type);
 118:..\..\..\lvgl\version_6.1.2\lvgl\src\lv_objx/lv_preload.c **** 
 119:..\..\..\lvgl\version_6.1.2\lvgl\src\lv_objx/lv_preload.c ****     LV_LOG_INFO("preload created");
 120:..\..\..\lvgl\version_6.1.2\lvgl\src\lv_objx/lv_preload.c **** 
 121:..\..\..\lvgl\version_6.1.2\lvgl\src\lv_objx/lv_preload.c ****     return new_preload;
 122:..\..\..\lvgl\version_6.1.2\lvgl\src\lv_objx/lv_preload.c **** }
 123:..\..\..\lvgl\version_6.1.2\lvgl\src\lv_objx/lv_preload.c **** 
 124:..\..\..\lvgl\version_6.1.2\lvgl\src\lv_objx/lv_preload.c **** /*======================
 125:..\..\..\lvgl\version_6.1.2\lvgl\src\lv_objx/lv_preload.c ****  * Add/remove functions
 126:..\..\..\lvgl\version_6.1.2\lvgl\src\lv_objx/lv_preload.c ****  *=====================*/
 127:..\..\..\lvgl\version_6.1.2\lvgl\src\lv_objx/lv_preload.c **** 
 128:..\..\..\lvgl\version_6.1.2\lvgl\src\lv_objx/lv_preload.c **** /**
 129:..\..\..\lvgl\version_6.1.2\lvgl\src\lv_objx/lv_preload.c ****  * Set the length of the spinning  arc in degrees
 130:..\..\..\lvgl\version_6.1.2\lvgl\src\lv_objx/lv_preload.c ****  * @param preload pointer to a preload object
 131:..\..\..\lvgl\version_6.1.2\lvgl\src\lv_objx/lv_preload.c ****  * @param deg length of the arc
 132:..\..\..\lvgl\version_6.1.2\lvgl\src\lv_objx/lv_preload.c ****  */
 133:..\..\..\lvgl\version_6.1.2\lvgl\src\lv_objx/lv_preload.c **** void lv_preload_set_arc_length(lv_obj_t * preload, lv_anim_value_t deg)
 134:..\..\..\lvgl\version_6.1.2\lvgl\src\lv_objx/lv_preload.c **** {
  29              		.loc 1 134 0
  30              		.cfi_startproc
  31              		@ args = 0, pretend = 0, frame = 0
  32              		@ frame_needed = 0, uses_anonymous_args = 0
  33              	.LVL0:
  34 0000 10B5     		push	{r4, lr}
  35              		.cfi_def_cfa_offset 8
  36              		.cfi_offset 4, -8
  37              		.cfi_offset 14, -4
ARM GAS  C:\Users\pearlstl\AppData\Local\Temp\ccH1AW89.s 			page 4


  38              		.loc 1 134 0
  39 0002 0C46     		mov	r4, r1
 135:..\..\..\lvgl\version_6.1.2\lvgl\src\lv_objx/lv_preload.c ****     LV_ASSERT_OBJ(preload, LV_OBJX_NAME);
 136:..\..\..\lvgl\version_6.1.2\lvgl\src\lv_objx/lv_preload.c **** 
 137:..\..\..\lvgl\version_6.1.2\lvgl\src\lv_objx/lv_preload.c ****     lv_preload_ext_t * ext = lv_obj_get_ext_attr(preload);
  40              		.loc 1 137 0
  41 0004 FFF7FEFF 		bl	lv_obj_get_ext_attr
  42              	.LVL1:
 138:..\..\..\lvgl\version_6.1.2\lvgl\src\lv_objx/lv_preload.c **** 
 139:..\..\..\lvgl\version_6.1.2\lvgl\src\lv_objx/lv_preload.c ****     ext->arc_length = deg;
  43              		.loc 1 139 0
  44 0008 8480     		strh	r4, [r0, #4]	@ movhi
  45 000a 10BD     		pop	{r4, pc}
  46              		.cfi_endproc
  47              	.LFE32:
  48              		.size	lv_preload_set_arc_length, .-lv_preload_set_arc_length
  49              		.section	.text.lv_preload_spinner_anim,"ax",%progbits
  50              		.align	2
  51              		.global	lv_preload_spinner_anim
  52              		.thumb
  53              		.thumb_func
  54              		.type	lv_preload_spinner_anim, %function
  55              	lv_preload_spinner_anim:
  56              	.LFB42:
 140:..\..\..\lvgl\version_6.1.2\lvgl\src\lv_objx/lv_preload.c **** }
 141:..\..\..\lvgl\version_6.1.2\lvgl\src\lv_objx/lv_preload.c **** 
 142:..\..\..\lvgl\version_6.1.2\lvgl\src\lv_objx/lv_preload.c **** /**
 143:..\..\..\lvgl\version_6.1.2\lvgl\src\lv_objx/lv_preload.c ****  * Set the spin time of the arc
 144:..\..\..\lvgl\version_6.1.2\lvgl\src\lv_objx/lv_preload.c ****  * @param preload pointer to a preload object
 145:..\..\..\lvgl\version_6.1.2\lvgl\src\lv_objx/lv_preload.c ****  * @param time time of one round in milliseconds
 146:..\..\..\lvgl\version_6.1.2\lvgl\src\lv_objx/lv_preload.c ****  */
 147:..\..\..\lvgl\version_6.1.2\lvgl\src\lv_objx/lv_preload.c **** void lv_preload_set_spin_time(lv_obj_t * preload, uint16_t time)
 148:..\..\..\lvgl\version_6.1.2\lvgl\src\lv_objx/lv_preload.c **** {
 149:..\..\..\lvgl\version_6.1.2\lvgl\src\lv_objx/lv_preload.c ****     LV_ASSERT_OBJ(preload, LV_OBJX_NAME);
 150:..\..\..\lvgl\version_6.1.2\lvgl\src\lv_objx/lv_preload.c **** 
 151:..\..\..\lvgl\version_6.1.2\lvgl\src\lv_objx/lv_preload.c ****     lv_preload_ext_t * ext = lv_obj_get_ext_attr(preload);
 152:..\..\..\lvgl\version_6.1.2\lvgl\src\lv_objx/lv_preload.c **** 
 153:..\..\..\lvgl\version_6.1.2\lvgl\src\lv_objx/lv_preload.c ****     ext->time = time;
 154:..\..\..\lvgl\version_6.1.2\lvgl\src\lv_objx/lv_preload.c ****     lv_preload_set_type(preload, ext->anim_type);
 155:..\..\..\lvgl\version_6.1.2\lvgl\src\lv_objx/lv_preload.c **** }
 156:..\..\..\lvgl\version_6.1.2\lvgl\src\lv_objx/lv_preload.c **** /*=====================
 157:..\..\..\lvgl\version_6.1.2\lvgl\src\lv_objx/lv_preload.c ****  * Setter functions
 158:..\..\..\lvgl\version_6.1.2\lvgl\src\lv_objx/lv_preload.c ****  *====================*/
 159:..\..\..\lvgl\version_6.1.2\lvgl\src\lv_objx/lv_preload.c **** 
 160:..\..\..\lvgl\version_6.1.2\lvgl\src\lv_objx/lv_preload.c **** /**
 161:..\..\..\lvgl\version_6.1.2\lvgl\src\lv_objx/lv_preload.c ****  * Set a style of a pre loader.
 162:..\..\..\lvgl\version_6.1.2\lvgl\src\lv_objx/lv_preload.c ****  * @param preload pointer to pre loader object
 163:..\..\..\lvgl\version_6.1.2\lvgl\src\lv_objx/lv_preload.c ****  * @param type which style should be set
 164:..\..\..\lvgl\version_6.1.2\lvgl\src\lv_objx/lv_preload.c ****  * @param style pointer to a style
 165:..\..\..\lvgl\version_6.1.2\lvgl\src\lv_objx/lv_preload.c ****  *  */
 166:..\..\..\lvgl\version_6.1.2\lvgl\src\lv_objx/lv_preload.c **** void lv_preload_set_style(lv_obj_t * preload, lv_preload_style_t type, const lv_style_t * style)
 167:..\..\..\lvgl\version_6.1.2\lvgl\src\lv_objx/lv_preload.c **** {
 168:..\..\..\lvgl\version_6.1.2\lvgl\src\lv_objx/lv_preload.c ****     LV_ASSERT_OBJ(preload, LV_OBJX_NAME);
 169:..\..\..\lvgl\version_6.1.2\lvgl\src\lv_objx/lv_preload.c **** 
 170:..\..\..\lvgl\version_6.1.2\lvgl\src\lv_objx/lv_preload.c ****     switch(type) {
 171:..\..\..\lvgl\version_6.1.2\lvgl\src\lv_objx/lv_preload.c ****         case LV_PRELOAD_STYLE_MAIN: lv_arc_set_style(preload, LV_ARC_STYLE_MAIN, style); break;
 172:..\..\..\lvgl\version_6.1.2\lvgl\src\lv_objx/lv_preload.c ****     }
ARM GAS  C:\Users\pearlstl\AppData\Local\Temp\ccH1AW89.s 			page 5


 173:..\..\..\lvgl\version_6.1.2\lvgl\src\lv_objx/lv_preload.c **** }
 174:..\..\..\lvgl\version_6.1.2\lvgl\src\lv_objx/lv_preload.c **** 
 175:..\..\..\lvgl\version_6.1.2\lvgl\src\lv_objx/lv_preload.c **** /**
 176:..\..\..\lvgl\version_6.1.2\lvgl\src\lv_objx/lv_preload.c ****  * Set the animation type of a preloadeer.
 177:..\..\..\lvgl\version_6.1.2\lvgl\src\lv_objx/lv_preload.c ****  * @param preload pointer to pre loader object
 178:..\..\..\lvgl\version_6.1.2\lvgl\src\lv_objx/lv_preload.c ****  * @param type animation type of the preload
 179:..\..\..\lvgl\version_6.1.2\lvgl\src\lv_objx/lv_preload.c ****  *  */
 180:..\..\..\lvgl\version_6.1.2\lvgl\src\lv_objx/lv_preload.c **** void lv_preload_set_type(lv_obj_t * preload, lv_preload_type_t type)
 181:..\..\..\lvgl\version_6.1.2\lvgl\src\lv_objx/lv_preload.c **** {
 182:..\..\..\lvgl\version_6.1.2\lvgl\src\lv_objx/lv_preload.c ****     LV_ASSERT_OBJ(preload, LV_OBJX_NAME);
 183:..\..\..\lvgl\version_6.1.2\lvgl\src\lv_objx/lv_preload.c **** 
 184:..\..\..\lvgl\version_6.1.2\lvgl\src\lv_objx/lv_preload.c ****     lv_preload_ext_t * ext = lv_obj_get_ext_attr(preload);
 185:..\..\..\lvgl\version_6.1.2\lvgl\src\lv_objx/lv_preload.c **** 
 186:..\..\..\lvgl\version_6.1.2\lvgl\src\lv_objx/lv_preload.c ****     /*delete previous animation*/
 187:..\..\..\lvgl\version_6.1.2\lvgl\src\lv_objx/lv_preload.c ****     lv_anim_del(preload, NULL);
 188:..\..\..\lvgl\version_6.1.2\lvgl\src\lv_objx/lv_preload.c ****     switch(type) {
 189:..\..\..\lvgl\version_6.1.2\lvgl\src\lv_objx/lv_preload.c ****         case LV_PRELOAD_TYPE_FILLSPIN_ARC: {
 190:..\..\..\lvgl\version_6.1.2\lvgl\src\lv_objx/lv_preload.c ****             ext->anim_type = LV_PRELOAD_TYPE_FILLSPIN_ARC;
 191:..\..\..\lvgl\version_6.1.2\lvgl\src\lv_objx/lv_preload.c ****             lv_anim_t a;
 192:..\..\..\lvgl\version_6.1.2\lvgl\src\lv_objx/lv_preload.c ****             a.var = preload;
 193:..\..\..\lvgl\version_6.1.2\lvgl\src\lv_objx/lv_preload.c ****             if(ext->anim_dir == LV_PRELOAD_DIR_FORWARD) {
 194:..\..\..\lvgl\version_6.1.2\lvgl\src\lv_objx/lv_preload.c ****                 /* Clockwise */
 195:..\..\..\lvgl\version_6.1.2\lvgl\src\lv_objx/lv_preload.c ****                 a.start = 360;
 196:..\..\..\lvgl\version_6.1.2\lvgl\src\lv_objx/lv_preload.c ****                 a.end   = 0;
 197:..\..\..\lvgl\version_6.1.2\lvgl\src\lv_objx/lv_preload.c ****             } else {
 198:..\..\..\lvgl\version_6.1.2\lvgl\src\lv_objx/lv_preload.c ****                 a.start = 0;
 199:..\..\..\lvgl\version_6.1.2\lvgl\src\lv_objx/lv_preload.c ****                 a.end   = 360;
 200:..\..\..\lvgl\version_6.1.2\lvgl\src\lv_objx/lv_preload.c ****             }
 201:..\..\..\lvgl\version_6.1.2\lvgl\src\lv_objx/lv_preload.c ****             a.exec_cb        = (lv_anim_exec_xcb_t)lv_preload_spinner_anim;
 202:..\..\..\lvgl\version_6.1.2\lvgl\src\lv_objx/lv_preload.c ****             a.path_cb        = lv_anim_path_ease_in_out;
 203:..\..\..\lvgl\version_6.1.2\lvgl\src\lv_objx/lv_preload.c ****             a.ready_cb       = NULL;
 204:..\..\..\lvgl\version_6.1.2\lvgl\src\lv_objx/lv_preload.c ****             a.act_time       = 0;
 205:..\..\..\lvgl\version_6.1.2\lvgl\src\lv_objx/lv_preload.c ****             a.time           = ext->time;
 206:..\..\..\lvgl\version_6.1.2\lvgl\src\lv_objx/lv_preload.c ****             a.playback       = 0;
 207:..\..\..\lvgl\version_6.1.2\lvgl\src\lv_objx/lv_preload.c ****             a.playback_pause = 0;
 208:..\..\..\lvgl\version_6.1.2\lvgl\src\lv_objx/lv_preload.c ****             a.repeat         = 1;
 209:..\..\..\lvgl\version_6.1.2\lvgl\src\lv_objx/lv_preload.c ****             a.repeat_pause   = 0;
 210:..\..\..\lvgl\version_6.1.2\lvgl\src\lv_objx/lv_preload.c ****             lv_anim_create(&a);
 211:..\..\..\lvgl\version_6.1.2\lvgl\src\lv_objx/lv_preload.c **** 
 212:..\..\..\lvgl\version_6.1.2\lvgl\src\lv_objx/lv_preload.c ****             lv_anim_t b;
 213:..\..\..\lvgl\version_6.1.2\lvgl\src\lv_objx/lv_preload.c ****             b.var = preload;
 214:..\..\..\lvgl\version_6.1.2\lvgl\src\lv_objx/lv_preload.c ****             if(ext->anim_dir == LV_PRELOAD_DIR_FORWARD) {
 215:..\..\..\lvgl\version_6.1.2\lvgl\src\lv_objx/lv_preload.c ****                 /* Clockwise */
 216:..\..\..\lvgl\version_6.1.2\lvgl\src\lv_objx/lv_preload.c ****                 b.start = 360 - ext->arc_length;
 217:..\..\..\lvgl\version_6.1.2\lvgl\src\lv_objx/lv_preload.c ****                 b.end   = ext->arc_length;
 218:..\..\..\lvgl\version_6.1.2\lvgl\src\lv_objx/lv_preload.c ****             } else {
 219:..\..\..\lvgl\version_6.1.2\lvgl\src\lv_objx/lv_preload.c ****                 b.start = ext->arc_length;
 220:..\..\..\lvgl\version_6.1.2\lvgl\src\lv_objx/lv_preload.c ****                 b.end   = 360 - ext->arc_length;
 221:..\..\..\lvgl\version_6.1.2\lvgl\src\lv_objx/lv_preload.c ****             }
 222:..\..\..\lvgl\version_6.1.2\lvgl\src\lv_objx/lv_preload.c ****             b.exec_cb        = (lv_anim_exec_xcb_t)lv_preload_set_arc_length;
 223:..\..\..\lvgl\version_6.1.2\lvgl\src\lv_objx/lv_preload.c ****             b.path_cb        = lv_anim_path_ease_in_out;
 224:..\..\..\lvgl\version_6.1.2\lvgl\src\lv_objx/lv_preload.c ****             b.ready_cb       = NULL;
 225:..\..\..\lvgl\version_6.1.2\lvgl\src\lv_objx/lv_preload.c ****             b.act_time       = 0;
 226:..\..\..\lvgl\version_6.1.2\lvgl\src\lv_objx/lv_preload.c ****             b.time           = ext->time;
 227:..\..\..\lvgl\version_6.1.2\lvgl\src\lv_objx/lv_preload.c ****             b.playback       = 1;
 228:..\..\..\lvgl\version_6.1.2\lvgl\src\lv_objx/lv_preload.c ****             b.playback_pause = 0;
 229:..\..\..\lvgl\version_6.1.2\lvgl\src\lv_objx/lv_preload.c ****             b.repeat         = 1;
ARM GAS  C:\Users\pearlstl\AppData\Local\Temp\ccH1AW89.s 			page 6


 230:..\..\..\lvgl\version_6.1.2\lvgl\src\lv_objx/lv_preload.c ****             b.repeat_pause   = 0;
 231:..\..\..\lvgl\version_6.1.2\lvgl\src\lv_objx/lv_preload.c ****             lv_anim_create(&b);
 232:..\..\..\lvgl\version_6.1.2\lvgl\src\lv_objx/lv_preload.c ****             break;
 233:..\..\..\lvgl\version_6.1.2\lvgl\src\lv_objx/lv_preload.c ****         }
 234:..\..\..\lvgl\version_6.1.2\lvgl\src\lv_objx/lv_preload.c ****         case LV_PRELOAD_TYPE_CONSTANT_ARC:
 235:..\..\..\lvgl\version_6.1.2\lvgl\src\lv_objx/lv_preload.c ****         case LV_PRELOAD_TYPE_SPINNING_ARC:
 236:..\..\..\lvgl\version_6.1.2\lvgl\src\lv_objx/lv_preload.c ****         default: {
 237:..\..\..\lvgl\version_6.1.2\lvgl\src\lv_objx/lv_preload.c ****             ext->anim_type = type;
 238:..\..\..\lvgl\version_6.1.2\lvgl\src\lv_objx/lv_preload.c ****             lv_anim_t a;
 239:..\..\..\lvgl\version_6.1.2\lvgl\src\lv_objx/lv_preload.c ****             a.var = preload;
 240:..\..\..\lvgl\version_6.1.2\lvgl\src\lv_objx/lv_preload.c ****             if(ext->anim_dir == LV_PRELOAD_DIR_FORWARD) {
 241:..\..\..\lvgl\version_6.1.2\lvgl\src\lv_objx/lv_preload.c ****                 /* Clockwise */
 242:..\..\..\lvgl\version_6.1.2\lvgl\src\lv_objx/lv_preload.c ****                 a.start = 360;
 243:..\..\..\lvgl\version_6.1.2\lvgl\src\lv_objx/lv_preload.c ****                 a.end   = 0;
 244:..\..\..\lvgl\version_6.1.2\lvgl\src\lv_objx/lv_preload.c ****             } else {
 245:..\..\..\lvgl\version_6.1.2\lvgl\src\lv_objx/lv_preload.c ****                 a.start = 0;
 246:..\..\..\lvgl\version_6.1.2\lvgl\src\lv_objx/lv_preload.c ****                 a.end   = 360;
 247:..\..\..\lvgl\version_6.1.2\lvgl\src\lv_objx/lv_preload.c ****             }
 248:..\..\..\lvgl\version_6.1.2\lvgl\src\lv_objx/lv_preload.c ****             a.exec_cb        = (lv_anim_exec_xcb_t)lv_preload_spinner_anim;
 249:..\..\..\lvgl\version_6.1.2\lvgl\src\lv_objx/lv_preload.c ****             a.path_cb        = (LV_PRELOAD_TYPE_CONSTANT_ARC == type ?
 250:..\..\..\lvgl\version_6.1.2\lvgl\src\lv_objx/lv_preload.c ****                                 lv_anim_path_linear : lv_anim_path_ease_in_out);
 251:..\..\..\lvgl\version_6.1.2\lvgl\src\lv_objx/lv_preload.c ****             a.ready_cb       = NULL;
 252:..\..\..\lvgl\version_6.1.2\lvgl\src\lv_objx/lv_preload.c ****             a.act_time       = 0;
 253:..\..\..\lvgl\version_6.1.2\lvgl\src\lv_objx/lv_preload.c ****             a.time           = ext->time;
 254:..\..\..\lvgl\version_6.1.2\lvgl\src\lv_objx/lv_preload.c ****             a.playback       = 0;
 255:..\..\..\lvgl\version_6.1.2\lvgl\src\lv_objx/lv_preload.c ****             a.playback_pause = 0;
 256:..\..\..\lvgl\version_6.1.2\lvgl\src\lv_objx/lv_preload.c ****             a.repeat         = 1;
 257:..\..\..\lvgl\version_6.1.2\lvgl\src\lv_objx/lv_preload.c ****             a.repeat_pause   = 0;
 258:..\..\..\lvgl\version_6.1.2\lvgl\src\lv_objx/lv_preload.c ****             lv_anim_create(&a);
 259:..\..\..\lvgl\version_6.1.2\lvgl\src\lv_objx/lv_preload.c ****             break;
 260:..\..\..\lvgl\version_6.1.2\lvgl\src\lv_objx/lv_preload.c ****         }
 261:..\..\..\lvgl\version_6.1.2\lvgl\src\lv_objx/lv_preload.c ****     }
 262:..\..\..\lvgl\version_6.1.2\lvgl\src\lv_objx/lv_preload.c **** }
 263:..\..\..\lvgl\version_6.1.2\lvgl\src\lv_objx/lv_preload.c **** 
 264:..\..\..\lvgl\version_6.1.2\lvgl\src\lv_objx/lv_preload.c **** void lv_preload_set_dir(lv_obj_t * preload, lv_preload_dir_t dir)
 265:..\..\..\lvgl\version_6.1.2\lvgl\src\lv_objx/lv_preload.c **** {
 266:..\..\..\lvgl\version_6.1.2\lvgl\src\lv_objx/lv_preload.c ****     LV_ASSERT_OBJ(preload, LV_OBJX_NAME);
 267:..\..\..\lvgl\version_6.1.2\lvgl\src\lv_objx/lv_preload.c **** 
 268:..\..\..\lvgl\version_6.1.2\lvgl\src\lv_objx/lv_preload.c ****     lv_preload_ext_t * ext = lv_obj_get_ext_attr(preload);
 269:..\..\..\lvgl\version_6.1.2\lvgl\src\lv_objx/lv_preload.c **** 
 270:..\..\..\lvgl\version_6.1.2\lvgl\src\lv_objx/lv_preload.c ****     ext->anim_dir = dir;
 271:..\..\..\lvgl\version_6.1.2\lvgl\src\lv_objx/lv_preload.c ****     lv_preload_set_type(preload, ext->anim_type);
 272:..\..\..\lvgl\version_6.1.2\lvgl\src\lv_objx/lv_preload.c **** }
 273:..\..\..\lvgl\version_6.1.2\lvgl\src\lv_objx/lv_preload.c **** 
 274:..\..\..\lvgl\version_6.1.2\lvgl\src\lv_objx/lv_preload.c **** /*=====================
 275:..\..\..\lvgl\version_6.1.2\lvgl\src\lv_objx/lv_preload.c ****  * Getter functions
 276:..\..\..\lvgl\version_6.1.2\lvgl\src\lv_objx/lv_preload.c ****  *====================*/
 277:..\..\..\lvgl\version_6.1.2\lvgl\src\lv_objx/lv_preload.c **** 
 278:..\..\..\lvgl\version_6.1.2\lvgl\src\lv_objx/lv_preload.c **** /**
 279:..\..\..\lvgl\version_6.1.2\lvgl\src\lv_objx/lv_preload.c ****  * Get the arc length [degree] of the a pre loader
 280:..\..\..\lvgl\version_6.1.2\lvgl\src\lv_objx/lv_preload.c ****  * @param preload pointer to a pre loader object
 281:..\..\..\lvgl\version_6.1.2\lvgl\src\lv_objx/lv_preload.c ****  */
 282:..\..\..\lvgl\version_6.1.2\lvgl\src\lv_objx/lv_preload.c **** lv_anim_value_t lv_preload_get_arc_length(const lv_obj_t * preload)
 283:..\..\..\lvgl\version_6.1.2\lvgl\src\lv_objx/lv_preload.c **** {
 284:..\..\..\lvgl\version_6.1.2\lvgl\src\lv_objx/lv_preload.c ****     LV_ASSERT_OBJ(preload, LV_OBJX_NAME);
 285:..\..\..\lvgl\version_6.1.2\lvgl\src\lv_objx/lv_preload.c **** 
 286:..\..\..\lvgl\version_6.1.2\lvgl\src\lv_objx/lv_preload.c ****     lv_preload_ext_t * ext = lv_obj_get_ext_attr(preload);
ARM GAS  C:\Users\pearlstl\AppData\Local\Temp\ccH1AW89.s 			page 7


 287:..\..\..\lvgl\version_6.1.2\lvgl\src\lv_objx/lv_preload.c ****     return ext->arc_length;
 288:..\..\..\lvgl\version_6.1.2\lvgl\src\lv_objx/lv_preload.c **** }
 289:..\..\..\lvgl\version_6.1.2\lvgl\src\lv_objx/lv_preload.c **** 
 290:..\..\..\lvgl\version_6.1.2\lvgl\src\lv_objx/lv_preload.c **** /**
 291:..\..\..\lvgl\version_6.1.2\lvgl\src\lv_objx/lv_preload.c ****  * Get the spin time of the arc
 292:..\..\..\lvgl\version_6.1.2\lvgl\src\lv_objx/lv_preload.c ****  * @param preload pointer to a pre loader object [milliseconds]
 293:..\..\..\lvgl\version_6.1.2\lvgl\src\lv_objx/lv_preload.c ****  */
 294:..\..\..\lvgl\version_6.1.2\lvgl\src\lv_objx/lv_preload.c **** uint16_t lv_preload_get_spin_time(const lv_obj_t * preload)
 295:..\..\..\lvgl\version_6.1.2\lvgl\src\lv_objx/lv_preload.c **** {
 296:..\..\..\lvgl\version_6.1.2\lvgl\src\lv_objx/lv_preload.c ****     LV_ASSERT_OBJ(preload, LV_OBJX_NAME);
 297:..\..\..\lvgl\version_6.1.2\lvgl\src\lv_objx/lv_preload.c **** 
 298:..\..\..\lvgl\version_6.1.2\lvgl\src\lv_objx/lv_preload.c ****     lv_preload_ext_t * ext = lv_obj_get_ext_attr(preload);
 299:..\..\..\lvgl\version_6.1.2\lvgl\src\lv_objx/lv_preload.c ****     return ext->time;
 300:..\..\..\lvgl\version_6.1.2\lvgl\src\lv_objx/lv_preload.c **** }
 301:..\..\..\lvgl\version_6.1.2\lvgl\src\lv_objx/lv_preload.c **** 
 302:..\..\..\lvgl\version_6.1.2\lvgl\src\lv_objx/lv_preload.c **** /**
 303:..\..\..\lvgl\version_6.1.2\lvgl\src\lv_objx/lv_preload.c ****  * Get style of a pre loader.
 304:..\..\..\lvgl\version_6.1.2\lvgl\src\lv_objx/lv_preload.c ****  * @param preload pointer to pre loader object
 305:..\..\..\lvgl\version_6.1.2\lvgl\src\lv_objx/lv_preload.c ****  * @param type which style should be get
 306:..\..\..\lvgl\version_6.1.2\lvgl\src\lv_objx/lv_preload.c ****  * @return style pointer to the style
 307:..\..\..\lvgl\version_6.1.2\lvgl\src\lv_objx/lv_preload.c ****  *  */
 308:..\..\..\lvgl\version_6.1.2\lvgl\src\lv_objx/lv_preload.c **** const lv_style_t * lv_preload_get_style(const lv_obj_t * preload, lv_preload_style_t type)
 309:..\..\..\lvgl\version_6.1.2\lvgl\src\lv_objx/lv_preload.c **** {
 310:..\..\..\lvgl\version_6.1.2\lvgl\src\lv_objx/lv_preload.c ****     LV_ASSERT_OBJ(preload, LV_OBJX_NAME);
 311:..\..\..\lvgl\version_6.1.2\lvgl\src\lv_objx/lv_preload.c **** 
 312:..\..\..\lvgl\version_6.1.2\lvgl\src\lv_objx/lv_preload.c ****     const lv_style_t * style = NULL;
 313:..\..\..\lvgl\version_6.1.2\lvgl\src\lv_objx/lv_preload.c **** 
 314:..\..\..\lvgl\version_6.1.2\lvgl\src\lv_objx/lv_preload.c ****     switch(type) {
 315:..\..\..\lvgl\version_6.1.2\lvgl\src\lv_objx/lv_preload.c ****         case LV_PRELOAD_STYLE_MAIN: style = lv_arc_get_style(preload, LV_ARC_STYLE_MAIN); break;
 316:..\..\..\lvgl\version_6.1.2\lvgl\src\lv_objx/lv_preload.c ****         default: style = NULL; break;
 317:..\..\..\lvgl\version_6.1.2\lvgl\src\lv_objx/lv_preload.c ****     }
 318:..\..\..\lvgl\version_6.1.2\lvgl\src\lv_objx/lv_preload.c **** 
 319:..\..\..\lvgl\version_6.1.2\lvgl\src\lv_objx/lv_preload.c ****     return style;
 320:..\..\..\lvgl\version_6.1.2\lvgl\src\lv_objx/lv_preload.c **** }
 321:..\..\..\lvgl\version_6.1.2\lvgl\src\lv_objx/lv_preload.c **** 
 322:..\..\..\lvgl\version_6.1.2\lvgl\src\lv_objx/lv_preload.c **** /**
 323:..\..\..\lvgl\version_6.1.2\lvgl\src\lv_objx/lv_preload.c ****  * Get the animation type of a preloadeer.
 324:..\..\..\lvgl\version_6.1.2\lvgl\src\lv_objx/lv_preload.c ****  * @param preload pointer to pre loader object
 325:..\..\..\lvgl\version_6.1.2\lvgl\src\lv_objx/lv_preload.c ****  * @return animation type
 326:..\..\..\lvgl\version_6.1.2\lvgl\src\lv_objx/lv_preload.c ****  *  */
 327:..\..\..\lvgl\version_6.1.2\lvgl\src\lv_objx/lv_preload.c **** lv_preload_type_t lv_preload_get_type(lv_obj_t * preload)
 328:..\..\..\lvgl\version_6.1.2\lvgl\src\lv_objx/lv_preload.c **** {
 329:..\..\..\lvgl\version_6.1.2\lvgl\src\lv_objx/lv_preload.c ****     LV_ASSERT_OBJ(preload, LV_OBJX_NAME);
 330:..\..\..\lvgl\version_6.1.2\lvgl\src\lv_objx/lv_preload.c **** 
 331:..\..\..\lvgl\version_6.1.2\lvgl\src\lv_objx/lv_preload.c ****     lv_preload_ext_t * ext = lv_obj_get_ext_attr(preload);
 332:..\..\..\lvgl\version_6.1.2\lvgl\src\lv_objx/lv_preload.c ****     return ext->anim_type;
 333:..\..\..\lvgl\version_6.1.2\lvgl\src\lv_objx/lv_preload.c **** }
 334:..\..\..\lvgl\version_6.1.2\lvgl\src\lv_objx/lv_preload.c **** 
 335:..\..\..\lvgl\version_6.1.2\lvgl\src\lv_objx/lv_preload.c **** lv_preload_dir_t lv_preload_get_dir(lv_obj_t * preload)
 336:..\..\..\lvgl\version_6.1.2\lvgl\src\lv_objx/lv_preload.c **** {
 337:..\..\..\lvgl\version_6.1.2\lvgl\src\lv_objx/lv_preload.c ****     lv_preload_ext_t * ext = lv_obj_get_ext_attr(preload);
 338:..\..\..\lvgl\version_6.1.2\lvgl\src\lv_objx/lv_preload.c ****     return ext->anim_dir;
 339:..\..\..\lvgl\version_6.1.2\lvgl\src\lv_objx/lv_preload.c **** }
 340:..\..\..\lvgl\version_6.1.2\lvgl\src\lv_objx/lv_preload.c **** 
 341:..\..\..\lvgl\version_6.1.2\lvgl\src\lv_objx/lv_preload.c **** /*=====================
 342:..\..\..\lvgl\version_6.1.2\lvgl\src\lv_objx/lv_preload.c ****  * Other functions
 343:..\..\..\lvgl\version_6.1.2\lvgl\src\lv_objx/lv_preload.c ****  *====================*/
ARM GAS  C:\Users\pearlstl\AppData\Local\Temp\ccH1AW89.s 			page 8


 344:..\..\..\lvgl\version_6.1.2\lvgl\src\lv_objx/lv_preload.c **** 
 345:..\..\..\lvgl\version_6.1.2\lvgl\src\lv_objx/lv_preload.c **** /**
 346:..\..\..\lvgl\version_6.1.2\lvgl\src\lv_objx/lv_preload.c ****  * Animator function  (exec_cb) to rotate the arc of spinner.
 347:..\..\..\lvgl\version_6.1.2\lvgl\src\lv_objx/lv_preload.c ****  * @param ptr pointer to preloader
 348:..\..\..\lvgl\version_6.1.2\lvgl\src\lv_objx/lv_preload.c ****  * @param val the current desired value [0..360]
 349:..\..\..\lvgl\version_6.1.2\lvgl\src\lv_objx/lv_preload.c ****  */
 350:..\..\..\lvgl\version_6.1.2\lvgl\src\lv_objx/lv_preload.c **** void lv_preload_spinner_anim(void * ptr, lv_anim_value_t val)
 351:..\..\..\lvgl\version_6.1.2\lvgl\src\lv_objx/lv_preload.c **** {
  57              		.loc 1 351 0
  58              		.cfi_startproc
  59              		@ args = 0, pretend = 0, frame = 0
  60              		@ frame_needed = 0, uses_anonymous_args = 0
  61              	.LVL2:
  62 0000 2DE9F843 		push	{r3, r4, r5, r6, r7, r8, r9, lr}
  63              		.cfi_def_cfa_offset 32
  64              		.cfi_offset 3, -32
  65              		.cfi_offset 4, -28
  66              		.cfi_offset 5, -24
  67              		.cfi_offset 6, -20
  68              		.cfi_offset 7, -16
  69              		.cfi_offset 8, -12
  70              		.cfi_offset 9, -8
  71              		.cfi_offset 14, -4
  72              		.loc 1 351 0
  73 0004 0C46     		mov	r4, r1
  74 0006 0546     		mov	r5, r0
  75              	.LVL3:
 352:..\..\..\lvgl\version_6.1.2\lvgl\src\lv_objx/lv_preload.c ****     lv_obj_t * preload     = ptr;
 353:..\..\..\lvgl\version_6.1.2\lvgl\src\lv_objx/lv_preload.c ****     lv_preload_ext_t * ext = lv_obj_get_ext_attr(preload);
  76              		.loc 1 353 0
  77 0008 FFF7FEFF 		bl	lv_obj_get_ext_attr
  78              	.LVL4:
 354:..\..\..\lvgl\version_6.1.2\lvgl\src\lv_objx/lv_preload.c **** 
 355:..\..\..\lvgl\version_6.1.2\lvgl\src\lv_objx/lv_preload.c ****     int16_t angle_start = val - ext->arc_length / 2 + 180;
  79              		.loc 1 355 0
  80 000c B0F90400 		ldrsh	r0, [r0, #4]
  81              	.LVL5:
 356:..\..\..\lvgl\version_6.1.2\lvgl\src\lv_objx/lv_preload.c ****     int16_t angle_end   = angle_start + ext->arc_length;
 357:..\..\..\lvgl\version_6.1.2\lvgl\src\lv_objx/lv_preload.c **** 
 358:..\..\..\lvgl\version_6.1.2\lvgl\src\lv_objx/lv_preload.c ****     angle_start = angle_start % 360;
 359:..\..\..\lvgl\version_6.1.2\lvgl\src\lv_objx/lv_preload.c ****     angle_end   = angle_end % 360;
 360:..\..\..\lvgl\version_6.1.2\lvgl\src\lv_objx/lv_preload.c **** 
 361:..\..\..\lvgl\version_6.1.2\lvgl\src\lv_objx/lv_preload.c ****     lv_arc_set_angles(preload, angle_start, angle_end);
  82              		.loc 1 361 0
  83 0010 124E     		ldr	r6, .L5
 355:..\..\..\lvgl\version_6.1.2\lvgl\src\lv_objx/lv_preload.c ****     int16_t angle_end   = angle_start + ext->arc_length;
  84              		.loc 1 355 0
  85 0012 00EBD073 		add	r3, r0, r0, lsr #31
  86 0016 5B10     		asrs	r3, r3, #1
  87 0018 C3F1B403 		rsb	r3, r3, #180
  88 001c 2344     		add	r3, r3, r4
  89 001e 9BB2     		uxth	r3, r3
 356:..\..\..\lvgl\version_6.1.2\lvgl\src\lv_objx/lv_preload.c ****     int16_t angle_end   = angle_start + ext->arc_length;
  90              		.loc 1 356 0
  91 0020 1844     		add	r0, r0, r3
  92 0022 00B2     		sxth	r0, r0
 355:..\..\..\lvgl\version_6.1.2\lvgl\src\lv_objx/lv_preload.c ****     int16_t angle_end   = angle_start + ext->arc_length;
ARM GAS  C:\Users\pearlstl\AppData\Local\Temp\ccH1AW89.s 			page 9


  93              		.loc 1 355 0
  94 0024 1BB2     		sxth	r3, r3
  95              	.LVL6:
  96              		.loc 1 361 0
  97 0026 80FB0689 		smull	r8, r9, r0, r6
  98 002a 83FB0667 		smull	r6, r7, r3, r6
  99 002e C217     		asrs	r2, r0, #31
 100 0030 00EB0906 		add	r6, r0, r9
 101 0034 D919     		adds	r1, r3, r7
 102 0036 DC17     		asrs	r4, r3, #31
 103 0038 C2EB2622 		rsb	r2, r2, r6, asr #8
 104 003c C4EB2121 		rsb	r1, r4, r1, asr #8
 105 0040 4FF4B476 		mov	r6, #360
 106 0044 06FB1202 		mls	r2, r6, r2, r0
 107 0048 06FB1131 		mls	r1, r6, r1, r3
 108 004c 2846     		mov	r0, r5
 109              	.LVL7:
 110 004e 92B2     		uxth	r2, r2
 111 0050 89B2     		uxth	r1, r1
 362:..\..\..\lvgl\version_6.1.2\lvgl\src\lv_objx/lv_preload.c **** }
 112              		.loc 1 362 0
 113 0052 BDE8F843 		pop	{r3, r4, r5, r6, r7, r8, r9, lr}
 114              		.cfi_restore 14
 115              		.cfi_restore 9
 116              		.cfi_restore 8
 117              		.cfi_restore 7
 118              		.cfi_restore 6
 119              		.cfi_restore 5
 120              		.cfi_restore 4
 121              		.cfi_restore 3
 122              		.cfi_def_cfa_offset 0
 123              	.LVL8:
 361:..\..\..\lvgl\version_6.1.2\lvgl\src\lv_objx/lv_preload.c **** }
 124              		.loc 1 361 0
 125 0056 FFF7FEBF 		b	lv_arc_set_angles
 126              	.LVL9:
 127              	.L6:
 128 005a 00BF     		.align	2
 129              	.L5:
 130 005c B7600BB6 		.word	-1240768329
 131              		.cfi_endproc
 132              	.LFE42:
 133              		.size	lv_preload_spinner_anim, .-lv_preload_spinner_anim
 134              		.section	.text.lv_preload_design,"ax",%progbits
 135              		.align	2
 136              		.thumb
 137              		.thumb_func
 138              		.type	lv_preload_design, %function
 139              	lv_preload_design:
 140              	.LFB43:
 363:..\..\..\lvgl\version_6.1.2\lvgl\src\lv_objx/lv_preload.c **** 
 364:..\..\..\lvgl\version_6.1.2\lvgl\src\lv_objx/lv_preload.c **** /**********************
 365:..\..\..\lvgl\version_6.1.2\lvgl\src\lv_objx/lv_preload.c ****  *   STATIC FUNCTIONS
 366:..\..\..\lvgl\version_6.1.2\lvgl\src\lv_objx/lv_preload.c ****  **********************/
 367:..\..\..\lvgl\version_6.1.2\lvgl\src\lv_objx/lv_preload.c **** 
 368:..\..\..\lvgl\version_6.1.2\lvgl\src\lv_objx/lv_preload.c **** /**
 369:..\..\..\lvgl\version_6.1.2\lvgl\src\lv_objx/lv_preload.c ****  * Handle the drawing related tasks of the pre loaders
ARM GAS  C:\Users\pearlstl\AppData\Local\Temp\ccH1AW89.s 			page 10


 370:..\..\..\lvgl\version_6.1.2\lvgl\src\lv_objx/lv_preload.c ****  * @param preload pointer to an object
 371:..\..\..\lvgl\version_6.1.2\lvgl\src\lv_objx/lv_preload.c ****  * @param mask the object will be drawn only in this area
 372:..\..\..\lvgl\version_6.1.2\lvgl\src\lv_objx/lv_preload.c ****  * @param mode LV_DESIGN_COVER_CHK: only check if the object fully covers the 'mask_p' area
 373:..\..\..\lvgl\version_6.1.2\lvgl\src\lv_objx/lv_preload.c ****  *                                  (return 'true' if yes)
 374:..\..\..\lvgl\version_6.1.2\lvgl\src\lv_objx/lv_preload.c ****  *             LV_DESIGN_DRAW: draw the object (always return 'true')
 375:..\..\..\lvgl\version_6.1.2\lvgl\src\lv_objx/lv_preload.c ****  *             LV_DESIGN_DRAW_POST: drawing after every children are drawn
 376:..\..\..\lvgl\version_6.1.2\lvgl\src\lv_objx/lv_preload.c ****  * @param return true/false, depends on 'mode'
 377:..\..\..\lvgl\version_6.1.2\lvgl\src\lv_objx/lv_preload.c ****  */
 378:..\..\..\lvgl\version_6.1.2\lvgl\src\lv_objx/lv_preload.c **** static bool lv_preload_design(lv_obj_t * preload, const lv_area_t * mask, lv_design_mode_t mode)
 379:..\..\..\lvgl\version_6.1.2\lvgl\src\lv_objx/lv_preload.c **** {
 141              		.loc 1 379 0
 142              		.cfi_startproc
 143              		@ args = 0, pretend = 0, frame = 88
 144              		@ frame_needed = 0, uses_anonymous_args = 0
 145              	.LVL10:
 380:..\..\..\lvgl\version_6.1.2\lvgl\src\lv_objx/lv_preload.c ****     /*Return false if the object is not covers the mask_p area*/
 381:..\..\..\lvgl\version_6.1.2\lvgl\src\lv_objx/lv_preload.c ****     if(mode == LV_DESIGN_COVER_CHK) {
 146              		.loc 1 381 0
 147 0000 022A     		cmp	r2, #2
 148 0002 6ED0     		beq	.L12
 382:..\..\..\lvgl\version_6.1.2\lvgl\src\lv_objx/lv_preload.c ****         return false;
 383:..\..\..\lvgl\version_6.1.2\lvgl\src\lv_objx/lv_preload.c ****     }
 384:..\..\..\lvgl\version_6.1.2\lvgl\src\lv_objx/lv_preload.c ****     /*Draw the object*/
 385:..\..\..\lvgl\version_6.1.2\lvgl\src\lv_objx/lv_preload.c ****     else if(mode == LV_DESIGN_DRAW_MAIN) {
 149              		.loc 1 385 0
 150 0004 0AB1     		cbz	r2, .L17
 386:..\..\..\lvgl\version_6.1.2\lvgl\src\lv_objx/lv_preload.c **** 
 387:..\..\..\lvgl\version_6.1.2\lvgl\src\lv_objx/lv_preload.c ****         /*Draw a circle as background*/
 388:..\..\..\lvgl\version_6.1.2\lvgl\src\lv_objx/lv_preload.c ****         const lv_style_t * style = lv_arc_get_style(preload, LV_ARC_STYLE_MAIN);
 389:..\..\..\lvgl\version_6.1.2\lvgl\src\lv_objx/lv_preload.c ****         if(style->body.border.width > 0) {
 390:..\..\..\lvgl\version_6.1.2\lvgl\src\lv_objx/lv_preload.c ****             lv_coord_t r = (LV_MATH_MIN(lv_obj_get_width(preload), lv_obj_get_height(preload))) / 2
 391:..\..\..\lvgl\version_6.1.2\lvgl\src\lv_objx/lv_preload.c ****             r -= LV_MATH_MIN(style->body.padding.left, style->body.padding.top);
 392:..\..\..\lvgl\version_6.1.2\lvgl\src\lv_objx/lv_preload.c **** 
 393:..\..\..\lvgl\version_6.1.2\lvgl\src\lv_objx/lv_preload.c ****             lv_coord_t x = preload->coords.x1 + lv_obj_get_width(preload) / 2;
 394:..\..\..\lvgl\version_6.1.2\lvgl\src\lv_objx/lv_preload.c ****             lv_coord_t y = preload->coords.y1 + lv_obj_get_height(preload) / 2;
 395:..\..\..\lvgl\version_6.1.2\lvgl\src\lv_objx/lv_preload.c **** 
 396:..\..\..\lvgl\version_6.1.2\lvgl\src\lv_objx/lv_preload.c ****             lv_style_t bg_style;
 397:..\..\..\lvgl\version_6.1.2\lvgl\src\lv_objx/lv_preload.c ****             lv_style_copy(&bg_style, &lv_style_plain);
 398:..\..\..\lvgl\version_6.1.2\lvgl\src\lv_objx/lv_preload.c ****             bg_style.body.opa          = LV_OPA_TRANSP;
 399:..\..\..\lvgl\version_6.1.2\lvgl\src\lv_objx/lv_preload.c ****             bg_style.body.radius       = LV_RADIUS_CIRCLE;
 400:..\..\..\lvgl\version_6.1.2\lvgl\src\lv_objx/lv_preload.c ****             bg_style.body.border.color = style->body.border.color;
 401:..\..\..\lvgl\version_6.1.2\lvgl\src\lv_objx/lv_preload.c ****             bg_style.body.border.width = style->body.border.width;
 402:..\..\..\lvgl\version_6.1.2\lvgl\src\lv_objx/lv_preload.c **** 
 403:..\..\..\lvgl\version_6.1.2\lvgl\src\lv_objx/lv_preload.c ****             lv_area_t bg_area;
 404:..\..\..\lvgl\version_6.1.2\lvgl\src\lv_objx/lv_preload.c ****             bg_area.x1 = x - r;
 405:..\..\..\lvgl\version_6.1.2\lvgl\src\lv_objx/lv_preload.c ****             bg_area.y1 = y - r;
 406:..\..\..\lvgl\version_6.1.2\lvgl\src\lv_objx/lv_preload.c ****             bg_area.x2 = x + r;
 407:..\..\..\lvgl\version_6.1.2\lvgl\src\lv_objx/lv_preload.c ****             bg_area.y2 = y + r;
 408:..\..\..\lvgl\version_6.1.2\lvgl\src\lv_objx/lv_preload.c **** 
 409:..\..\..\lvgl\version_6.1.2\lvgl\src\lv_objx/lv_preload.c ****             lv_draw_rect(&bg_area, mask, &bg_style, lv_obj_get_opa_scale(preload));
 410:..\..\..\lvgl\version_6.1.2\lvgl\src\lv_objx/lv_preload.c ****         }
 411:..\..\..\lvgl\version_6.1.2\lvgl\src\lv_objx/lv_preload.c ****         /*Draw the arc above the background circle */
 412:..\..\..\lvgl\version_6.1.2\lvgl\src\lv_objx/lv_preload.c ****         ancestor_design(preload, mask, mode);
 413:..\..\..\lvgl\version_6.1.2\lvgl\src\lv_objx/lv_preload.c ****     }
 414:..\..\..\lvgl\version_6.1.2\lvgl\src\lv_objx/lv_preload.c ****     /*Post draw when the children are drawn*/
 415:..\..\..\lvgl\version_6.1.2\lvgl\src\lv_objx/lv_preload.c ****     else if(mode == LV_DESIGN_DRAW_POST) {
 416:..\..\..\lvgl\version_6.1.2\lvgl\src\lv_objx/lv_preload.c ****     }
ARM GAS  C:\Users\pearlstl\AppData\Local\Temp\ccH1AW89.s 			page 11


 417:..\..\..\lvgl\version_6.1.2\lvgl\src\lv_objx/lv_preload.c **** 
 418:..\..\..\lvgl\version_6.1.2\lvgl\src\lv_objx/lv_preload.c ****     return true;
 151              		.loc 1 418 0
 152 0006 0120     		movs	r0, #1
 153              	.LVL11:
 154 0008 7047     		bx	lr
 155              	.LVL12:
 156              	.L17:
 379:..\..\..\lvgl\version_6.1.2\lvgl\src\lv_objx/lv_preload.c ****     /*Return false if the object is not covers the mask_p area*/
 157              		.loc 1 379 0
 158 000a 2DE9F043 		push	{r4, r5, r6, r7, r8, r9, lr}
 159              		.cfi_def_cfa_offset 28
 160              		.cfi_offset 4, -28
 161              		.cfi_offset 5, -24
 162              		.cfi_offset 6, -20
 163              		.cfi_offset 7, -16
 164              		.cfi_offset 8, -12
 165              		.cfi_offset 9, -8
 166              		.cfi_offset 14, -4
 167 000e 0D46     		mov	r5, r1
 168 0010 97B0     		sub	sp, sp, #92
 169              		.cfi_def_cfa_offset 120
 170 0012 1146     		mov	r1, r2
 171              	.LVL13:
 172 0014 0446     		mov	r4, r0
 173              	.LVL14:
 174              	.LBB12:
 175              	.LBB13:
 388:..\..\..\lvgl\version_6.1.2\lvgl\src\lv_objx/lv_preload.c ****         if(style->body.border.width > 0) {
 176              		.loc 1 388 0
 177 0016 FFF7FEFF 		bl	lv_arc_get_style
 178              	.LVL15:
 389:..\..\..\lvgl\version_6.1.2\lvgl\src\lv_objx/lv_preload.c ****             lv_coord_t r = (LV_MATH_MIN(lv_obj_get_width(preload), lv_obj_get_height(preload))) / 2
 179              		.loc 1 389 0
 180 001a B0F91430 		ldrsh	r3, [r0, #20]
 181 001e 002B     		cmp	r3, #0
 388:..\..\..\lvgl\version_6.1.2\lvgl\src\lv_objx/lv_preload.c ****         if(style->body.border.width > 0) {
 182              		.loc 1 388 0
 183 0020 8146     		mov	r9, r0
 184              	.LVL16:
 389:..\..\..\lvgl\version_6.1.2\lvgl\src\lv_objx/lv_preload.c ****             lv_coord_t r = (LV_MATH_MIN(lv_obj_get_width(preload), lv_obj_get_height(preload))) / 2
 185              		.loc 1 389 0
 186 0022 54DD     		ble	.L9
 187              	.LBB14:
 390:..\..\..\lvgl\version_6.1.2\lvgl\src\lv_objx/lv_preload.c ****             r -= LV_MATH_MIN(style->body.padding.left, style->body.padding.top);
 188              		.loc 1 390 0
 189 0024 2046     		mov	r0, r4
 190              	.LVL17:
 191 0026 FFF7FEFF 		bl	lv_obj_get_width
 192              	.LVL18:
 193 002a 0646     		mov	r6, r0
 194 002c 2046     		mov	r0, r4
 195 002e FFF7FEFF 		bl	lv_obj_get_height
 196              	.LVL19:
 197 0032 8642     		cmp	r6, r0
 198 0034 2046     		mov	r0, r4
 199 0036 56DA     		bge	.L10
ARM GAS  C:\Users\pearlstl\AppData\Local\Temp\ccH1AW89.s 			page 12


 200              	.LVL20:
 201 0038 FFF7FEFF 		bl	lv_obj_get_width
 202              	.LVL21:
 203 003c 00EBD070 		add	r0, r0, r0, lsr #31
 204 0040 40F34F00 		sbfx	r0, r0, #1, #16
 205              	.L11:
 206              	.LVL22:
 391:..\..\..\lvgl\version_6.1.2\lvgl\src\lv_objx/lv_preload.c **** 
 207              		.loc 1 391 0
 208 0044 B9F92430 		ldrsh	r3, [r9, #36]
 209 0048 B9F92060 		ldrsh	r6, [r9, #32]
 393:..\..\..\lvgl\version_6.1.2\lvgl\src\lv_objx/lv_preload.c ****             lv_coord_t y = preload->coords.y1 + lv_obj_get_height(preload) / 2;
 210              		.loc 1 393 0
 211 004c 278A     		ldrh	r7, [r4, #16]
 391:..\..\..\lvgl\version_6.1.2\lvgl\src\lv_objx/lv_preload.c **** 
 212              		.loc 1 391 0
 213 004e 9E42     		cmp	r6, r3
 214 0050 CCBF     		ite	gt
 215 0052 C61A     		subgt	r6, r0, r3
 216 0054 861B     		suble	r6, r0, r6
 393:..\..\..\lvgl\version_6.1.2\lvgl\src\lv_objx/lv_preload.c ****             lv_coord_t y = preload->coords.y1 + lv_obj_get_height(preload) / 2;
 217              		.loc 1 393 0
 218 0056 2046     		mov	r0, r4
 219              	.LVL23:
 220 0058 FFF7FEFF 		bl	lv_obj_get_width
 221              	.LVL24:
 222 005c 00EBD070 		add	r0, r0, r0, lsr #31
 223 0060 07EB6008 		add	r8, r7, r0, asr #1
 394:..\..\..\lvgl\version_6.1.2\lvgl\src\lv_objx/lv_preload.c **** 
 224              		.loc 1 394 0
 225 0064 2046     		mov	r0, r4
 226 0066 678A     		ldrh	r7, [r4, #18]
 227 0068 FFF7FEFF 		bl	lv_obj_get_height
 228              	.LVL25:
 229 006c 00EBD070 		add	r0, r0, r0, lsr #31
 391:..\..\..\lvgl\version_6.1.2\lvgl\src\lv_objx/lv_preload.c **** 
 230              		.loc 1 391 0
 231 0070 B6B2     		uxth	r6, r6
 232              	.LVL26:
 393:..\..\..\lvgl\version_6.1.2\lvgl\src\lv_objx/lv_preload.c ****             lv_coord_t y = preload->coords.y1 + lv_obj_get_height(preload) / 2;
 233              		.loc 1 393 0
 234 0072 1FFA88F8 		uxth	r8, r8
 235              	.LVL27:
 394:..\..\..\lvgl\version_6.1.2\lvgl\src\lv_objx/lv_preload.c **** 
 236              		.loc 1 394 0
 237 0076 07EB6007 		add	r7, r7, r0, asr #1
 397:..\..\..\lvgl\version_6.1.2\lvgl\src\lv_objx/lv_preload.c ****             bg_style.body.opa          = LV_OPA_TRANSP;
 238              		.loc 1 397 0
 239 007a 1E49     		ldr	r1, .L18
 240 007c 02A8     		add	r0, sp, #8
 241 007e FFF7FEFF 		bl	lv_style_copy
 242              	.LVL28:
 394:..\..\..\lvgl\version_6.1.2\lvgl\src\lv_objx/lv_preload.c **** 
 243              		.loc 1 394 0
 244 0082 BFB2     		uxth	r7, r7
 245              	.LVL29:
 404:..\..\..\lvgl\version_6.1.2\lvgl\src\lv_objx/lv_preload.c ****             bg_area.y1 = y - r;
ARM GAS  C:\Users\pearlstl\AppData\Local\Temp\ccH1AW89.s 			page 13


 246              		.loc 1 404 0
 247 0084 C6EB0803 		rsb	r3, r6, r8
 405:..\..\..\lvgl\version_6.1.2\lvgl\src\lv_objx/lv_preload.c ****             bg_area.x2 = x + r;
 248              		.loc 1 405 0
 249 0088 C6EB070E 		rsb	lr, r6, r7
 400:..\..\..\lvgl\version_6.1.2\lvgl\src\lv_objx/lv_preload.c ****             bg_style.body.border.width = style->body.border.width;
 250              		.loc 1 400 0
 251 008c D9F81020 		ldr	r2, [r9, #16]
 404:..\..\..\lvgl\version_6.1.2\lvgl\src\lv_objx/lv_preload.c ****             bg_area.y1 = y - r;
 252              		.loc 1 404 0
 253 0090 ADF80030 		strh	r3, [sp]	@ movhi
 399:..\..\..\lvgl\version_6.1.2\lvgl\src\lv_objx/lv_preload.c ****             bg_style.body.border.color = style->body.border.color;
 254              		.loc 1 399 0
 255 0094 47F61841 		movw	r1, #31768
 401:..\..\..\lvgl\version_6.1.2\lvgl\src\lv_objx/lv_preload.c **** 
 256              		.loc 1 401 0
 257 0098 B9F91430 		ldrsh	r3, [r9, #20]
 399:..\..\..\lvgl\version_6.1.2\lvgl\src\lv_objx/lv_preload.c ****             bg_style.body.border.color = style->body.border.color;
 258              		.loc 1 399 0
 259 009c ADF81410 		strh	r1, [sp, #20]	@ movhi
 406:..\..\..\lvgl\version_6.1.2\lvgl\src\lv_objx/lv_preload.c ****             bg_area.y2 = y + r;
 260              		.loc 1 406 0
 261 00a0 B044     		add	r8, r8, r6
 262              	.LVL30:
 409:..\..\..\lvgl\version_6.1.2\lvgl\src\lv_objx/lv_preload.c ****         }
 263              		.loc 1 409 0
 264 00a2 2046     		mov	r0, r4
 407:..\..\..\lvgl\version_6.1.2\lvgl\src\lv_objx/lv_preload.c **** 
 265              		.loc 1 407 0
 266 00a4 3E44     		add	r6, r6, r7
 267              	.LVL31:
 398:..\..\..\lvgl\version_6.1.2\lvgl\src\lv_objx/lv_preload.c ****             bg_style.body.radius       = LV_RADIUS_CIRCLE;
 268              		.loc 1 398 0
 269 00a6 0027     		movs	r7, #0
 270              	.LVL32:
 400:..\..\..\lvgl\version_6.1.2\lvgl\src\lv_objx/lv_preload.c ****             bg_style.body.border.width = style->body.border.width;
 271              		.loc 1 400 0
 272 00a8 0692     		str	r2, [sp, #24]
 401:..\..\..\lvgl\version_6.1.2\lvgl\src\lv_objx/lv_preload.c **** 
 273              		.loc 1 401 0
 274 00aa ADF81C30 		strh	r3, [sp, #28]	@ movhi
 406:..\..\..\lvgl\version_6.1.2\lvgl\src\lv_objx/lv_preload.c ****             bg_area.y2 = y + r;
 275              		.loc 1 406 0
 276 00ae ADF80480 		strh	r8, [sp, #4]	@ movhi
 405:..\..\..\lvgl\version_6.1.2\lvgl\src\lv_objx/lv_preload.c ****             bg_area.x2 = x + r;
 277              		.loc 1 405 0
 278 00b2 ADF802E0 		strh	lr, [sp, #2]	@ movhi
 407:..\..\..\lvgl\version_6.1.2\lvgl\src\lv_objx/lv_preload.c **** 
 279              		.loc 1 407 0
 280 00b6 ADF80660 		strh	r6, [sp, #6]	@ movhi
 398:..\..\..\lvgl\version_6.1.2\lvgl\src\lv_objx/lv_preload.c ****             bg_style.body.radius       = LV_RADIUS_CIRCLE;
 281              		.loc 1 398 0
 282 00ba 8DF81670 		strb	r7, [sp, #22]
 409:..\..\..\lvgl\version_6.1.2\lvgl\src\lv_objx/lv_preload.c ****         }
 283              		.loc 1 409 0
 284 00be FFF7FEFF 		bl	lv_obj_get_opa_scale
 285              	.LVL33:
ARM GAS  C:\Users\pearlstl\AppData\Local\Temp\ccH1AW89.s 			page 14


 286 00c2 02AA     		add	r2, sp, #8
 287 00c4 0346     		mov	r3, r0
 288 00c6 2946     		mov	r1, r5
 289 00c8 6846     		mov	r0, sp
 290 00ca FFF7FEFF 		bl	lv_draw_rect
 291              	.LVL34:
 292              	.L9:
 293              	.LBE14:
 412:..\..\..\lvgl\version_6.1.2\lvgl\src\lv_objx/lv_preload.c ****     }
 294              		.loc 1 412 0
 295 00ce 0A4B     		ldr	r3, .L18+4
 296 00d0 2946     		mov	r1, r5
 297 00d2 2046     		mov	r0, r4
 298 00d4 1B68     		ldr	r3, [r3]
 299 00d6 0022     		movs	r2, #0
 300 00d8 9847     		blx	r3
 301              	.LVL35:
 302 00da 0120     		movs	r0, #1
 303              	.LBE13:
 304              	.LBE12:
 419:..\..\..\lvgl\version_6.1.2\lvgl\src\lv_objx/lv_preload.c **** }
 305              		.loc 1 419 0
 306 00dc 17B0     		add	sp, sp, #92
 307              		.cfi_def_cfa_offset 28
 308              		@ sp needed
 309 00de BDE8F083 		pop	{r4, r5, r6, r7, r8, r9, pc}
 310              	.LVL36:
 311              	.L12:
 312              		.cfi_def_cfa_offset 0
 313              		.cfi_restore 4
 314              		.cfi_restore 5
 315              		.cfi_restore 6
 316              		.cfi_restore 7
 317              		.cfi_restore 8
 318              		.cfi_restore 9
 319              		.cfi_restore 14
 382:..\..\..\lvgl\version_6.1.2\lvgl\src\lv_objx/lv_preload.c ****     }
 320              		.loc 1 382 0
 321 00e2 0020     		movs	r0, #0
 322              	.LVL37:
 323 00e4 7047     		bx	lr
 324              	.LVL38:
 325              	.L10:
 326              		.cfi_def_cfa_offset 120
 327              		.cfi_offset 4, -28
 328              		.cfi_offset 5, -24
 329              		.cfi_offset 6, -20
 330              		.cfi_offset 7, -16
 331              		.cfi_offset 8, -12
 332              		.cfi_offset 9, -8
 333              		.cfi_offset 14, -4
 334              	.LBB17:
 335              	.LBB16:
 336              	.LBB15:
 390:..\..\..\lvgl\version_6.1.2\lvgl\src\lv_objx/lv_preload.c ****             r -= LV_MATH_MIN(style->body.padding.left, style->body.padding.top);
 337              		.loc 1 390 0
 338 00e6 FFF7FEFF 		bl	lv_obj_get_height
ARM GAS  C:\Users\pearlstl\AppData\Local\Temp\ccH1AW89.s 			page 15


 339              	.LVL39:
 340 00ea 00EBD070 		add	r0, r0, r0, lsr #31
 341 00ee 40F34F00 		sbfx	r0, r0, #1, #16
 342 00f2 A7E7     		b	.L11
 343              	.L19:
 344              		.align	2
 345              	.L18:
 346 00f4 00000000 		.word	lv_style_plain
 347 00f8 00000000 		.word	.LANCHOR0
 348              	.LBE15:
 349              	.LBE16:
 350              	.LBE17:
 351              		.cfi_endproc
 352              	.LFE43:
 353              		.size	lv_preload_design, .-lv_preload_design
 354              		.section	.text.lv_preload_signal,"ax",%progbits
 355              		.align	2
 356              		.thumb
 357              		.thumb_func
 358              		.type	lv_preload_signal, %function
 359              	lv_preload_signal:
 360              	.LFB44:
 420:..\..\..\lvgl\version_6.1.2\lvgl\src\lv_objx/lv_preload.c **** 
 421:..\..\..\lvgl\version_6.1.2\lvgl\src\lv_objx/lv_preload.c **** /**
 422:..\..\..\lvgl\version_6.1.2\lvgl\src\lv_objx/lv_preload.c ****  * Signal function of the pre loader
 423:..\..\..\lvgl\version_6.1.2\lvgl\src\lv_objx/lv_preload.c ****  * @param preload pointer to a pre loader object
 424:..\..\..\lvgl\version_6.1.2\lvgl\src\lv_objx/lv_preload.c ****  * @param sign a signal type from lv_signal_t enum
 425:..\..\..\lvgl\version_6.1.2\lvgl\src\lv_objx/lv_preload.c ****  * @param param pointer to a signal specific variable
 426:..\..\..\lvgl\version_6.1.2\lvgl\src\lv_objx/lv_preload.c ****  * @return LV_RES_OK: the object is not deleted in the function; LV_RES_INV: the object is deleted
 427:..\..\..\lvgl\version_6.1.2\lvgl\src\lv_objx/lv_preload.c ****  */
 428:..\..\..\lvgl\version_6.1.2\lvgl\src\lv_objx/lv_preload.c **** static lv_res_t lv_preload_signal(lv_obj_t * preload, lv_signal_t sign, void * param)
 429:..\..\..\lvgl\version_6.1.2\lvgl\src\lv_objx/lv_preload.c **** {
 361              		.loc 1 429 0
 362              		.cfi_startproc
 363              		@ args = 0, pretend = 0, frame = 0
 364              		@ frame_needed = 0, uses_anonymous_args = 0
 365              	.LVL40:
 366 0000 38B5     		push	{r3, r4, r5, lr}
 367              		.cfi_def_cfa_offset 16
 368              		.cfi_offset 3, -16
 369              		.cfi_offset 4, -12
 370              		.cfi_offset 5, -8
 371              		.cfi_offset 14, -4
 430:..\..\..\lvgl\version_6.1.2\lvgl\src\lv_objx/lv_preload.c ****     lv_res_t res;
 431:..\..\..\lvgl\version_6.1.2\lvgl\src\lv_objx/lv_preload.c **** 
 432:..\..\..\lvgl\version_6.1.2\lvgl\src\lv_objx/lv_preload.c ****     /* Include the ancient signal function */
 433:..\..\..\lvgl\version_6.1.2\lvgl\src\lv_objx/lv_preload.c ****     res = ancestor_signal(preload, sign, param);
 372              		.loc 1 433 0
 373 0002 084B     		ldr	r3, .L26
 374 0004 5B68     		ldr	r3, [r3, #4]
 429:..\..\..\lvgl\version_6.1.2\lvgl\src\lv_objx/lv_preload.c ****     lv_res_t res;
 375              		.loc 1 429 0
 376 0006 0C46     		mov	r4, r1
 377 0008 1546     		mov	r5, r2
 378              		.loc 1 433 0
 379 000a 9847     		blx	r3
 380              	.LVL41:
ARM GAS  C:\Users\pearlstl\AppData\Local\Temp\ccH1AW89.s 			page 16


 434:..\..\..\lvgl\version_6.1.2\lvgl\src\lv_objx/lv_preload.c ****     if(res != LV_RES_OK) return res;
 381              		.loc 1 434 0
 382 000c 0128     		cmp	r0, #1
 383 000e 00D0     		beq	.L25
 384              	.L21:
 435:..\..\..\lvgl\version_6.1.2\lvgl\src\lv_objx/lv_preload.c ****     if(sign == LV_SIGNAL_GET_TYPE) return lv_obj_handle_get_type_signal(param, LV_OBJX_NAME);
 436:..\..\..\lvgl\version_6.1.2\lvgl\src\lv_objx/lv_preload.c **** 
 437:..\..\..\lvgl\version_6.1.2\lvgl\src\lv_objx/lv_preload.c ****     if(sign == LV_SIGNAL_CLEANUP) {
 438:..\..\..\lvgl\version_6.1.2\lvgl\src\lv_objx/lv_preload.c ****         /*Nothing to cleanup. (No dynamically allocated memory in 'ext')*/
 439:..\..\..\lvgl\version_6.1.2\lvgl\src\lv_objx/lv_preload.c ****     }
 440:..\..\..\lvgl\version_6.1.2\lvgl\src\lv_objx/lv_preload.c **** 
 441:..\..\..\lvgl\version_6.1.2\lvgl\src\lv_objx/lv_preload.c ****     return res;
 442:..\..\..\lvgl\version_6.1.2\lvgl\src\lv_objx/lv_preload.c **** }
 385              		.loc 1 442 0
 386 0010 38BD     		pop	{r3, r4, r5, pc}
 387              	.LVL42:
 388              	.L25:
 435:..\..\..\lvgl\version_6.1.2\lvgl\src\lv_objx/lv_preload.c ****     if(sign == LV_SIGNAL_GET_TYPE) return lv_obj_handle_get_type_signal(param, LV_OBJX_NAME);
 389              		.loc 1 435 0
 390 0012 072C     		cmp	r4, #7
 391 0014 FCD1     		bne	.L21
 392              	.LVL43:
 393              	.LBB20:
 394              	.LBB21:
 395 0016 2846     		mov	r0, r5
 396              	.LVL44:
 397 0018 0349     		ldr	r1, .L26+4
 398              	.LBE21:
 399              	.LBE20:
 400              		.loc 1 442 0
 401 001a BDE83840 		pop	{r3, r4, r5, lr}
 402              		.cfi_restore 14
 403              		.cfi_restore 5
 404              		.cfi_restore 4
 405              		.cfi_restore 3
 406              		.cfi_def_cfa_offset 0
 407              	.LVL45:
 408              	.LBB23:
 409              	.LBB22:
 435:..\..\..\lvgl\version_6.1.2\lvgl\src\lv_objx/lv_preload.c ****     if(sign == LV_SIGNAL_GET_TYPE) return lv_obj_handle_get_type_signal(param, LV_OBJX_NAME);
 410              		.loc 1 435 0
 411 001e FFF7FEBF 		b	lv_obj_handle_get_type_signal
 412              	.LVL46:
 413              	.L27:
 414 0022 00BF     		.align	2
 415              	.L26:
 416 0024 00000000 		.word	.LANCHOR0
 417 0028 00000000 		.word	.LC0
 418              	.LBE22:
 419              	.LBE23:
 420              		.cfi_endproc
 421              	.LFE44:
 422              		.size	lv_preload_signal, .-lv_preload_signal
 423              		.section	.text.lv_preload_set_spin_time,"ax",%progbits
 424              		.align	2
 425              		.global	lv_preload_set_spin_time
 426              		.thumb
ARM GAS  C:\Users\pearlstl\AppData\Local\Temp\ccH1AW89.s 			page 17


 427              		.thumb_func
 428              		.type	lv_preload_set_spin_time, %function
 429              	lv_preload_set_spin_time:
 430              	.LFB33:
 148:..\..\..\lvgl\version_6.1.2\lvgl\src\lv_objx/lv_preload.c ****     LV_ASSERT_OBJ(preload, LV_OBJX_NAME);
 431              		.loc 1 148 0
 432              		.cfi_startproc
 433              		@ args = 0, pretend = 0, frame = 72
 434              		@ frame_needed = 0, uses_anonymous_args = 0
 435              	.LVL47:
 436 0000 F0B5     		push	{r4, r5, r6, r7, lr}
 437              		.cfi_def_cfa_offset 20
 438              		.cfi_offset 4, -20
 439              		.cfi_offset 5, -16
 440              		.cfi_offset 6, -12
 441              		.cfi_offset 7, -8
 442              		.cfi_offset 14, -4
 443 0002 93B0     		sub	sp, sp, #76
 444              		.cfi_def_cfa_offset 96
 148:..\..\..\lvgl\version_6.1.2\lvgl\src\lv_objx/lv_preload.c ****     LV_ASSERT_OBJ(preload, LV_OBJX_NAME);
 445              		.loc 1 148 0
 446 0004 0C46     		mov	r4, r1
 447 0006 0646     		mov	r6, r0
 151:..\..\..\lvgl\version_6.1.2\lvgl\src\lv_objx/lv_preload.c **** 
 448              		.loc 1 151 0
 449 0008 FFF7FEFF 		bl	lv_obj_get_ext_attr
 450              	.LVL48:
 451 000c 0346     		mov	r3, r0
 452              	.LVL49:
 453              	.LBB28:
 454              	.LBB29:
 184:..\..\..\lvgl\version_6.1.2\lvgl\src\lv_objx/lv_preload.c **** 
 455              		.loc 1 184 0
 456 000e 3046     		mov	r0, r6
 457              	.LVL50:
 458              	.LBE29:
 459              	.LBE28:
 153:..\..\..\lvgl\version_6.1.2\lvgl\src\lv_objx/lv_preload.c ****     lv_preload_set_type(preload, ext->anim_type);
 460              		.loc 1 153 0
 461 0010 DC80     		strh	r4, [r3, #6]	@ movhi
 154:..\..\..\lvgl\version_6.1.2\lvgl\src\lv_objx/lv_preload.c **** }
 462              		.loc 1 154 0
 463 0012 1D7A     		ldrb	r5, [r3, #8]	@ zero_extendqisi2
 464              	.LBB35:
 465              	.LBB32:
 184:..\..\..\lvgl\version_6.1.2\lvgl\src\lv_objx/lv_preload.c **** 
 466              		.loc 1 184 0
 467 0014 FFF7FEFF 		bl	lv_obj_get_ext_attr
 468              	.LVL51:
 469              	.LBE32:
 470              	.LBE35:
 154:..\..\..\lvgl\version_6.1.2\lvgl\src\lv_objx/lv_preload.c **** }
 471              		.loc 1 154 0
 472 0018 05F00305 		and	r5, r5, #3
 473              	.LVL52:
 474              	.LBB36:
 475              	.LBB33:
ARM GAS  C:\Users\pearlstl\AppData\Local\Temp\ccH1AW89.s 			page 18


 184:..\..\..\lvgl\version_6.1.2\lvgl\src\lv_objx/lv_preload.c **** 
 476              		.loc 1 184 0
 477 001c 0446     		mov	r4, r0
 478              	.LVL53:
 187:..\..\..\lvgl\version_6.1.2\lvgl\src\lv_objx/lv_preload.c ****     switch(type) {
 479              		.loc 1 187 0
 480 001e 0021     		movs	r1, #0
 481 0020 3046     		mov	r0, r6
 482              	.LVL54:
 483 0022 FFF7FEFF 		bl	lv_anim_del
 484              	.LVL55:
 188:..\..\..\lvgl\version_6.1.2\lvgl\src\lv_objx/lv_preload.c ****         case LV_PRELOAD_TYPE_FILLSPIN_ARC: {
 485              		.loc 1 188 0
 486 0026 012D     		cmp	r5, #1
 487 0028 54D1     		bne	.L40
 488              	.LBB30:
 190:..\..\..\lvgl\version_6.1.2\lvgl\src\lv_objx/lv_preload.c ****             lv_anim_t a;
 489              		.loc 1 190 0
 490 002a 227A     		ldrb	r2, [r4, #8]	@ zero_extendqisi2
 206:..\..\..\lvgl\version_6.1.2\lvgl\src\lv_objx/lv_preload.c ****             a.playback_pause = 0;
 491              		.loc 1 206 0
 492 002c 9DF82030 		ldrb	r3, [sp, #32]	@ zero_extendqisi2
 205:..\..\..\lvgl\version_6.1.2\lvgl\src\lv_objx/lv_preload.c ****             a.playback       = 0;
 493              		.loc 1 205 0
 494 0030 E788     		ldrh	r7, [r4, #6]
 201:..\..\..\lvgl\version_6.1.2\lvgl\src\lv_objx/lv_preload.c ****             a.path_cb        = lv_anim_path_ease_in_out;
 495              		.loc 1 201 0
 496 0032 4249     		ldr	r1, .L42
 497 0034 0191     		str	r1, [sp, #4]
 190:..\..\..\lvgl\version_6.1.2\lvgl\src\lv_objx/lv_preload.c ****             lv_anim_t a;
 498              		.loc 1 190 0
 499 0036 65F30102 		bfi	r2, r5, #0, #2
 193:..\..\..\lvgl\version_6.1.2\lvgl\src\lv_objx/lv_preload.c ****                 /* Clockwise */
 500              		.loc 1 193 0
 501 003a 02F00400 		and	r0, r2, #4
 199:..\..\..\lvgl\version_6.1.2\lvgl\src\lv_objx/lv_preload.c ****             }
 502              		.loc 1 199 0
 503 003e 0028     		cmp	r0, #0
 190:..\..\..\lvgl\version_6.1.2\lvgl\src\lv_objx/lv_preload.c ****             lv_anim_t a;
 504              		.loc 1 190 0
 505 0040 2272     		strb	r2, [r4, #8]
 199:..\..\..\lvgl\version_6.1.2\lvgl\src\lv_objx/lv_preload.c ****             }
 506              		.loc 1 199 0
 507 0042 07BF     		ittee	eq
 508 0044 4FF4B470 		moveq	r0, #360
 509 0048 0022     		moveq	r2, #0
 510 004a 4FF4B472 		movne	r2, #360
 511 004e 0020     		movne	r0, #0
 208:..\..\..\lvgl\version_6.1.2\lvgl\src\lv_objx/lv_preload.c ****             a.repeat_pause   = 0;
 512              		.loc 1 208 0
 513 0050 03F0FE03 		and	r3, r3, #254
 514 0054 43F00203 		orr	r3, r3, #2
 202:..\..\..\lvgl\version_6.1.2\lvgl\src\lv_objx/lv_preload.c ****             a.ready_cb       = NULL;
 515              		.loc 1 202 0
 516 0058 394D     		ldr	r5, .L42+4
 517 005a 0592     		str	r2, [sp, #20]
 518 005c 0490     		str	r0, [sp, #16]
ARM GAS  C:\Users\pearlstl\AppData\Local\Temp\ccH1AW89.s 			page 19


 203:..\..\..\lvgl\version_6.1.2\lvgl\src\lv_objx/lv_preload.c ****             a.act_time       = 0;
 519              		.loc 1 203 0
 520 005e 0022     		movs	r2, #0
 210:..\..\..\lvgl\version_6.1.2\lvgl\src\lv_objx/lv_preload.c **** 
 521              		.loc 1 210 0
 522 0060 6846     		mov	r0, sp
 192:..\..\..\lvgl\version_6.1.2\lvgl\src\lv_objx/lv_preload.c ****             if(ext->anim_dir == LV_PRELOAD_DIR_FORWARD) {
 523              		.loc 1 192 0
 524 0062 0096     		str	r6, [sp]
 208:..\..\..\lvgl\version_6.1.2\lvgl\src\lv_objx/lv_preload.c ****             a.repeat_pause   = 0;
 525              		.loc 1 208 0
 526 0064 8DF82030 		strb	r3, [sp, #32]
 203:..\..\..\lvgl\version_6.1.2\lvgl\src\lv_objx/lv_preload.c ****             a.act_time       = 0;
 527              		.loc 1 203 0
 528 0068 0392     		str	r2, [sp, #12]
 204:..\..\..\lvgl\version_6.1.2\lvgl\src\lv_objx/lv_preload.c ****             a.time           = ext->time;
 529              		.loc 1 204 0
 530 006a ADF81A20 		strh	r2, [sp, #26]	@ movhi
 207:..\..\..\lvgl\version_6.1.2\lvgl\src\lv_objx/lv_preload.c ****             a.repeat         = 1;
 531              		.loc 1 207 0
 532 006e ADF81C20 		strh	r2, [sp, #28]	@ movhi
 209:..\..\..\lvgl\version_6.1.2\lvgl\src\lv_objx/lv_preload.c ****             lv_anim_create(&a);
 533              		.loc 1 209 0
 534 0072 ADF81E20 		strh	r2, [sp, #30]	@ movhi
 205:..\..\..\lvgl\version_6.1.2\lvgl\src\lv_objx/lv_preload.c ****             a.playback       = 0;
 535              		.loc 1 205 0
 536 0076 ADF81870 		strh	r7, [sp, #24]	@ movhi
 202:..\..\..\lvgl\version_6.1.2\lvgl\src\lv_objx/lv_preload.c ****             a.ready_cb       = NULL;
 537              		.loc 1 202 0
 538 007a 0295     		str	r5, [sp, #8]
 210:..\..\..\lvgl\version_6.1.2\lvgl\src\lv_objx/lv_preload.c **** 
 539              		.loc 1 210 0
 540 007c FFF7FEFF 		bl	lv_anim_create
 541              	.LVL56:
 214:..\..\..\lvgl\version_6.1.2\lvgl\src\lv_objx/lv_preload.c ****                 /* Clockwise */
 542              		.loc 1 214 0
 543 0080 237A     		ldrb	r3, [r4, #8]	@ zero_extendqisi2
 227:..\..\..\lvgl\version_6.1.2\lvgl\src\lv_objx/lv_preload.c ****             b.playback_pause = 0;
 544              		.loc 1 227 0
 545 0082 9DF84420 		ldrb	r2, [sp, #68]	@ zero_extendqisi2
 213:..\..\..\lvgl\version_6.1.2\lvgl\src\lv_objx/lv_preload.c ****             if(ext->anim_dir == LV_PRELOAD_DIR_FORWARD) {
 546              		.loc 1 213 0
 547 0086 0996     		str	r6, [sp, #36]
 214:..\..\..\lvgl\version_6.1.2\lvgl\src\lv_objx/lv_preload.c ****                 /* Clockwise */
 548              		.loc 1 214 0
 549 0088 5B07     		lsls	r3, r3, #29
 216:..\..\..\lvgl\version_6.1.2\lvgl\src\lv_objx/lv_preload.c ****                 b.end   = ext->arc_length;
 550              		.loc 1 216 0
 551 008a 54BF     		ite	pl
 552 008c B4F90410 		ldrshpl	r1, [r4, #4]
 219:..\..\..\lvgl\version_6.1.2\lvgl\src\lv_objx/lv_preload.c ****                 b.end   = 360 - ext->arc_length;
 553              		.loc 1 219 0
 554 0090 B4F90460 		ldrshmi	r6, [r4, #4]
 555              	.LVL57:
 226:..\..\..\lvgl\version_6.1.2\lvgl\src\lv_objx/lv_preload.c ****             b.playback       = 1;
 556              		.loc 1 226 0
 557 0094 E388     		ldrh	r3, [r4, #6]
ARM GAS  C:\Users\pearlstl\AppData\Local\Temp\ccH1AW89.s 			page 20


 558 0096 ADF83C30 		strh	r3, [sp, #60]	@ movhi
 216:..\..\..\lvgl\version_6.1.2\lvgl\src\lv_objx/lv_preload.c ****                 b.end   = ext->arc_length;
 559              		.loc 1 216 0
 560 009a 58BF     		it	pl
 561 009c C1F5B476 		rsbpl	r6, r1, #360
 224:..\..\..\lvgl\version_6.1.2\lvgl\src\lv_objx/lv_preload.c ****             b.act_time       = 0;
 562              		.loc 1 224 0
 563 00a0 4FF00003 		mov	r3, #0
 220:..\..\..\lvgl\version_6.1.2\lvgl\src\lv_objx/lv_preload.c ****             }
 564              		.loc 1 220 0
 565 00a4 48BF     		it	mi
 566 00a6 C6F5B471 		rsbmi	r1, r6, #360
 229:..\..\..\lvgl\version_6.1.2\lvgl\src\lv_objx/lv_preload.c ****             b.repeat_pause   = 0;
 567              		.loc 1 229 0
 568 00aa 42F00302 		orr	r2, r2, #3
 222:..\..\..\lvgl\version_6.1.2\lvgl\src\lv_objx/lv_preload.c ****             b.path_cb        = lv_anim_path_ease_in_out;
 569              		.loc 1 222 0
 570 00ae 254C     		ldr	r4, .L42+8
 571              	.LVL58:
 572 00b0 0E91     		str	r1, [sp, #56]
 231:..\..\..\lvgl\version_6.1.2\lvgl\src\lv_objx/lv_preload.c ****             break;
 573              		.loc 1 231 0
 574 00b2 09A8     		add	r0, sp, #36
 575              	.LVL59:
 576 00b4 0D96     		str	r6, [sp, #52]
 223:..\..\..\lvgl\version_6.1.2\lvgl\src\lv_objx/lv_preload.c ****             b.ready_cb       = NULL;
 577              		.loc 1 223 0
 578 00b6 0B95     		str	r5, [sp, #44]
 229:..\..\..\lvgl\version_6.1.2\lvgl\src\lv_objx/lv_preload.c ****             b.repeat_pause   = 0;
 579              		.loc 1 229 0
 580 00b8 8DF84420 		strb	r2, [sp, #68]
 222:..\..\..\lvgl\version_6.1.2\lvgl\src\lv_objx/lv_preload.c ****             b.path_cb        = lv_anim_path_ease_in_out;
 581              		.loc 1 222 0
 582 00bc 0A94     		str	r4, [sp, #40]
 224:..\..\..\lvgl\version_6.1.2\lvgl\src\lv_objx/lv_preload.c ****             b.act_time       = 0;
 583              		.loc 1 224 0
 584 00be 0C93     		str	r3, [sp, #48]
 225:..\..\..\lvgl\version_6.1.2\lvgl\src\lv_objx/lv_preload.c ****             b.time           = ext->time;
 585              		.loc 1 225 0
 586 00c0 ADF83E30 		strh	r3, [sp, #62]	@ movhi
 228:..\..\..\lvgl\version_6.1.2\lvgl\src\lv_objx/lv_preload.c ****             b.repeat         = 1;
 587              		.loc 1 228 0
 588 00c4 ADF84030 		strh	r3, [sp, #64]	@ movhi
 230:..\..\..\lvgl\version_6.1.2\lvgl\src\lv_objx/lv_preload.c ****             lv_anim_create(&b);
 589              		.loc 1 230 0
 590 00c8 ADF84230 		strh	r3, [sp, #66]	@ movhi
 231:..\..\..\lvgl\version_6.1.2\lvgl\src\lv_objx/lv_preload.c ****             break;
 591              		.loc 1 231 0
 592 00cc FFF7FEFF 		bl	lv_anim_create
 593              	.LVL60:
 594              	.LBE30:
 595              	.LBE33:
 596              	.LBE36:
 155:..\..\..\lvgl\version_6.1.2\lvgl\src\lv_objx/lv_preload.c **** /*=====================
 597              		.loc 1 155 0
 598 00d0 13B0     		add	sp, sp, #76
 599              		.cfi_remember_state
ARM GAS  C:\Users\pearlstl\AppData\Local\Temp\ccH1AW89.s 			page 21


 600              		.cfi_def_cfa_offset 20
 601              		@ sp needed
 602 00d2 F0BD     		pop	{r4, r5, r6, r7, pc}
 603              	.LVL61:
 604              	.L40:
 605              		.cfi_restore_state
 606              	.LBB37:
 607              	.LBB34:
 608              	.LBB31:
 237:..\..\..\lvgl\version_6.1.2\lvgl\src\lv_objx/lv_preload.c ****             lv_anim_t a;
 609              		.loc 1 237 0
 610 00d4 217A     		ldrb	r1, [r4, #8]	@ zero_extendqisi2
 254:..\..\..\lvgl\version_6.1.2\lvgl\src\lv_objx/lv_preload.c ****             a.playback_pause = 0;
 611              		.loc 1 254 0
 612 00d6 9DF84430 		ldrb	r3, [sp, #68]	@ zero_extendqisi2
 249:..\..\..\lvgl\version_6.1.2\lvgl\src\lv_objx/lv_preload.c ****                                 lv_anim_path_linear : lv_anim_path_ease_in_out);
 613              		.loc 1 249 0
 614 00da 1B4A     		ldr	r2, .L42+12
 615 00dc 184F     		ldr	r7, .L42+4
 253:..\..\..\lvgl\version_6.1.2\lvgl\src\lv_objx/lv_preload.c ****             a.playback       = 0;
 616              		.loc 1 253 0
 617 00de E088     		ldrh	r0, [r4, #6]
 237:..\..\..\lvgl\version_6.1.2\lvgl\src\lv_objx/lv_preload.c ****             lv_anim_t a;
 618              		.loc 1 237 0
 619 00e0 65F30101 		bfi	r1, r5, #0, #2
 620 00e4 2172     		strb	r1, [r4, #8]
 240:..\..\..\lvgl\version_6.1.2\lvgl\src\lv_objx/lv_preload.c ****                 /* Clockwise */
 621              		.loc 1 240 0
 622 00e6 C9B2     		uxtb	r1, r1
 623 00e8 01F00401 		and	r1, r1, #4
 246:..\..\..\lvgl\version_6.1.2\lvgl\src\lv_objx/lv_preload.c ****             }
 624              		.loc 1 246 0
 625 00ec 0029     		cmp	r1, #0
 256:..\..\..\lvgl\version_6.1.2\lvgl\src\lv_objx/lv_preload.c ****             a.repeat_pause   = 0;
 626              		.loc 1 256 0
 627 00ee 03F0FE03 		and	r3, r3, #254
 239:..\..\..\lvgl\version_6.1.2\lvgl\src\lv_objx/lv_preload.c ****             if(ext->anim_dir == LV_PRELOAD_DIR_FORWARD) {
 628              		.loc 1 239 0
 629 00f2 0996     		str	r6, [sp, #36]
 246:..\..\..\lvgl\version_6.1.2\lvgl\src\lv_objx/lv_preload.c ****             }
 630              		.loc 1 246 0
 631 00f4 07BF     		ittee	eq
 632 00f6 4FF4B474 		moveq	r4, #360
 633              	.LVL62:
 634 00fa 0026     		moveq	r6, #0
 635              	.LVL63:
 636 00fc 4FF4B476 		movne	r6, #360
 637 0100 0024     		movne	r4, #0
 256:..\..\..\lvgl\version_6.1.2\lvgl\src\lv_objx/lv_preload.c ****             a.repeat_pause   = 0;
 638              		.loc 1 256 0
 639 0102 43F00203 		orr	r3, r3, #2
 249:..\..\..\lvgl\version_6.1.2\lvgl\src\lv_objx/lv_preload.c ****                                 lv_anim_path_linear : lv_anim_path_ease_in_out);
 640              		.loc 1 249 0
 641 0106 022D     		cmp	r5, #2
 642 0108 0CBF     		ite	eq
 643 010a 1546     		moveq	r5, r2
 644 010c 3D46     		movne	r5, r7
ARM GAS  C:\Users\pearlstl\AppData\Local\Temp\ccH1AW89.s 			page 22


 248:..\..\..\lvgl\version_6.1.2\lvgl\src\lv_objx/lv_preload.c ****             a.path_cb        = (LV_PRELOAD_TYPE_CONSTANT_ARC == type ?
 645              		.loc 1 248 0
 646 010e 0B49     		ldr	r1, .L42
 253:..\..\..\lvgl\version_6.1.2\lvgl\src\lv_objx/lv_preload.c ****             a.playback       = 0;
 647              		.loc 1 253 0
 648 0110 ADF83C00 		strh	r0, [sp, #60]	@ movhi
 251:..\..\..\lvgl\version_6.1.2\lvgl\src\lv_objx/lv_preload.c ****             a.act_time       = 0;
 649              		.loc 1 251 0
 650 0114 0022     		movs	r2, #0
 258:..\..\..\lvgl\version_6.1.2\lvgl\src\lv_objx/lv_preload.c ****             break;
 651              		.loc 1 258 0
 652 0116 09A8     		add	r0, sp, #36
 653              	.LVL64:
 654 0118 0E96     		str	r6, [sp, #56]
 655 011a 0D94     		str	r4, [sp, #52]
 256:..\..\..\lvgl\version_6.1.2\lvgl\src\lv_objx/lv_preload.c ****             a.repeat_pause   = 0;
 656              		.loc 1 256 0
 657 011c 8DF84430 		strb	r3, [sp, #68]
 249:..\..\..\lvgl\version_6.1.2\lvgl\src\lv_objx/lv_preload.c ****                                 lv_anim_path_linear : lv_anim_path_ease_in_out);
 658              		.loc 1 249 0
 659 0120 0B95     		str	r5, [sp, #44]
 248:..\..\..\lvgl\version_6.1.2\lvgl\src\lv_objx/lv_preload.c ****             a.path_cb        = (LV_PRELOAD_TYPE_CONSTANT_ARC == type ?
 660              		.loc 1 248 0
 661 0122 0A91     		str	r1, [sp, #40]
 251:..\..\..\lvgl\version_6.1.2\lvgl\src\lv_objx/lv_preload.c ****             a.act_time       = 0;
 662              		.loc 1 251 0
 663 0124 0C92     		str	r2, [sp, #48]
 252:..\..\..\lvgl\version_6.1.2\lvgl\src\lv_objx/lv_preload.c ****             a.time           = ext->time;
 664              		.loc 1 252 0
 665 0126 ADF83E20 		strh	r2, [sp, #62]	@ movhi
 255:..\..\..\lvgl\version_6.1.2\lvgl\src\lv_objx/lv_preload.c ****             a.repeat         = 1;
 666              		.loc 1 255 0
 667 012a ADF84020 		strh	r2, [sp, #64]	@ movhi
 257:..\..\..\lvgl\version_6.1.2\lvgl\src\lv_objx/lv_preload.c ****             lv_anim_create(&a);
 668              		.loc 1 257 0
 669 012e ADF84220 		strh	r2, [sp, #66]	@ movhi
 258:..\..\..\lvgl\version_6.1.2\lvgl\src\lv_objx/lv_preload.c ****             break;
 670              		.loc 1 258 0
 671 0132 FFF7FEFF 		bl	lv_anim_create
 672              	.LVL65:
 673              	.LBE31:
 674              	.LBE34:
 675              	.LBE37:
 155:..\..\..\lvgl\version_6.1.2\lvgl\src\lv_objx/lv_preload.c **** /*=====================
 676              		.loc 1 155 0
 677 0136 13B0     		add	sp, sp, #76
 678              		.cfi_def_cfa_offset 20
 679              		@ sp needed
 680 0138 F0BD     		pop	{r4, r5, r6, r7, pc}
 681              	.L43:
 682 013a 00BF     		.align	2
 683              	.L42:
 684 013c 00000000 		.word	lv_preload_spinner_anim
 685 0140 00000000 		.word	lv_anim_path_ease_in_out
 686 0144 00000000 		.word	lv_preload_set_arc_length
 687 0148 00000000 		.word	lv_anim_path_linear
 688              		.cfi_endproc
ARM GAS  C:\Users\pearlstl\AppData\Local\Temp\ccH1AW89.s 			page 23


 689              	.LFE33:
 690              		.size	lv_preload_set_spin_time, .-lv_preload_set_spin_time
 691              		.section	.text.lv_preload_set_style,"ax",%progbits
 692              		.align	2
 693              		.global	lv_preload_set_style
 694              		.thumb
 695              		.thumb_func
 696              		.type	lv_preload_set_style, %function
 697              	lv_preload_set_style:
 698              	.LFB34:
 167:..\..\..\lvgl\version_6.1.2\lvgl\src\lv_objx/lv_preload.c ****     LV_ASSERT_OBJ(preload, LV_OBJX_NAME);
 699              		.loc 1 167 0
 700              		.cfi_startproc
 701              		@ args = 0, pretend = 0, frame = 0
 702              		@ frame_needed = 0, uses_anonymous_args = 0
 703              		@ link register save eliminated.
 704              	.LVL66:
 170:..\..\..\lvgl\version_6.1.2\lvgl\src\lv_objx/lv_preload.c ****         case LV_PRELOAD_STYLE_MAIN: lv_arc_set_style(preload, LV_ARC_STYLE_MAIN, style); break;
 705              		.loc 1 170 0
 706 0000 01B1     		cbz	r1, .L48
 707 0002 7047     		bx	lr
 708              	.L48:
 171:..\..\..\lvgl\version_6.1.2\lvgl\src\lv_objx/lv_preload.c ****     }
 709              		.loc 1 171 0
 710 0004 FFF7FEBF 		b	lv_arc_set_style
 711              	.LVL67:
 712              		.cfi_endproc
 713              	.LFE34:
 714              		.size	lv_preload_set_style, .-lv_preload_set_style
 715              		.section	.text.lv_preload_set_type,"ax",%progbits
 716              		.align	2
 717              		.global	lv_preload_set_type
 718              		.thumb
 719              		.thumb_func
 720              		.type	lv_preload_set_type, %function
 721              	lv_preload_set_type:
 722              	.LFB35:
 181:..\..\..\lvgl\version_6.1.2\lvgl\src\lv_objx/lv_preload.c ****     LV_ASSERT_OBJ(preload, LV_OBJX_NAME);
 723              		.loc 1 181 0
 724              		.cfi_startproc
 725              		@ args = 0, pretend = 0, frame = 72
 726              		@ frame_needed = 0, uses_anonymous_args = 0
 727              	.LVL68:
 728 0000 F0B5     		push	{r4, r5, r6, r7, lr}
 729              		.cfi_def_cfa_offset 20
 730              		.cfi_offset 4, -20
 731              		.cfi_offset 5, -16
 732              		.cfi_offset 6, -12
 733              		.cfi_offset 7, -8
 734              		.cfi_offset 14, -4
 735 0002 93B0     		sub	sp, sp, #76
 736              		.cfi_def_cfa_offset 96
 181:..\..\..\lvgl\version_6.1.2\lvgl\src\lv_objx/lv_preload.c ****     LV_ASSERT_OBJ(preload, LV_OBJX_NAME);
 737              		.loc 1 181 0
 738 0004 0D46     		mov	r5, r1
 739 0006 0646     		mov	r6, r0
 184:..\..\..\lvgl\version_6.1.2\lvgl\src\lv_objx/lv_preload.c **** 
ARM GAS  C:\Users\pearlstl\AppData\Local\Temp\ccH1AW89.s 			page 24


 740              		.loc 1 184 0
 741 0008 FFF7FEFF 		bl	lv_obj_get_ext_attr
 742              	.LVL69:
 187:..\..\..\lvgl\version_6.1.2\lvgl\src\lv_objx/lv_preload.c ****     switch(type) {
 743              		.loc 1 187 0
 744 000c 0021     		movs	r1, #0
 184:..\..\..\lvgl\version_6.1.2\lvgl\src\lv_objx/lv_preload.c **** 
 745              		.loc 1 184 0
 746 000e 0446     		mov	r4, r0
 747              	.LVL70:
 187:..\..\..\lvgl\version_6.1.2\lvgl\src\lv_objx/lv_preload.c ****     switch(type) {
 748              		.loc 1 187 0
 749 0010 3046     		mov	r0, r6
 750              	.LVL71:
 751 0012 FFF7FEFF 		bl	lv_anim_del
 752              	.LVL72:
 188:..\..\..\lvgl\version_6.1.2\lvgl\src\lv_objx/lv_preload.c ****         case LV_PRELOAD_TYPE_FILLSPIN_ARC: {
 753              		.loc 1 188 0
 754 0016 012D     		cmp	r5, #1
 755 0018 54D1     		bne	.L61
 756              	.LBB40:
 190:..\..\..\lvgl\version_6.1.2\lvgl\src\lv_objx/lv_preload.c ****             lv_anim_t a;
 757              		.loc 1 190 0
 758 001a 227A     		ldrb	r2, [r4, #8]	@ zero_extendqisi2
 206:..\..\..\lvgl\version_6.1.2\lvgl\src\lv_objx/lv_preload.c ****             a.playback_pause = 0;
 759              		.loc 1 206 0
 760 001c 9DF82030 		ldrb	r3, [sp, #32]	@ zero_extendqisi2
 205:..\..\..\lvgl\version_6.1.2\lvgl\src\lv_objx/lv_preload.c ****             a.playback       = 0;
 761              		.loc 1 205 0
 762 0020 E788     		ldrh	r7, [r4, #6]
 201:..\..\..\lvgl\version_6.1.2\lvgl\src\lv_objx/lv_preload.c ****             a.path_cb        = lv_anim_path_ease_in_out;
 763              		.loc 1 201 0
 764 0022 4249     		ldr	r1, .L63
 765 0024 0191     		str	r1, [sp, #4]
 190:..\..\..\lvgl\version_6.1.2\lvgl\src\lv_objx/lv_preload.c ****             lv_anim_t a;
 766              		.loc 1 190 0
 767 0026 65F30102 		bfi	r2, r5, #0, #2
 193:..\..\..\lvgl\version_6.1.2\lvgl\src\lv_objx/lv_preload.c ****                 /* Clockwise */
 768              		.loc 1 193 0
 769 002a 02F00400 		and	r0, r2, #4
 199:..\..\..\lvgl\version_6.1.2\lvgl\src\lv_objx/lv_preload.c ****             }
 770              		.loc 1 199 0
 771 002e 0028     		cmp	r0, #0
 190:..\..\..\lvgl\version_6.1.2\lvgl\src\lv_objx/lv_preload.c ****             lv_anim_t a;
 772              		.loc 1 190 0
 773 0030 2272     		strb	r2, [r4, #8]
 199:..\..\..\lvgl\version_6.1.2\lvgl\src\lv_objx/lv_preload.c ****             }
 774              		.loc 1 199 0
 775 0032 07BF     		ittee	eq
 776 0034 4FF4B470 		moveq	r0, #360
 777 0038 0022     		moveq	r2, #0
 778 003a 4FF4B472 		movne	r2, #360
 779 003e 0020     		movne	r0, #0
 208:..\..\..\lvgl\version_6.1.2\lvgl\src\lv_objx/lv_preload.c ****             a.repeat_pause   = 0;
 780              		.loc 1 208 0
 781 0040 03F0FE03 		and	r3, r3, #254
 782 0044 43F00203 		orr	r3, r3, #2
ARM GAS  C:\Users\pearlstl\AppData\Local\Temp\ccH1AW89.s 			page 25


 202:..\..\..\lvgl\version_6.1.2\lvgl\src\lv_objx/lv_preload.c ****             a.ready_cb       = NULL;
 783              		.loc 1 202 0
 784 0048 394D     		ldr	r5, .L63+4
 785 004a 0592     		str	r2, [sp, #20]
 786 004c 0490     		str	r0, [sp, #16]
 203:..\..\..\lvgl\version_6.1.2\lvgl\src\lv_objx/lv_preload.c ****             a.act_time       = 0;
 787              		.loc 1 203 0
 788 004e 0022     		movs	r2, #0
 210:..\..\..\lvgl\version_6.1.2\lvgl\src\lv_objx/lv_preload.c **** 
 789              		.loc 1 210 0
 790 0050 6846     		mov	r0, sp
 192:..\..\..\lvgl\version_6.1.2\lvgl\src\lv_objx/lv_preload.c ****             if(ext->anim_dir == LV_PRELOAD_DIR_FORWARD) {
 791              		.loc 1 192 0
 792 0052 0096     		str	r6, [sp]
 208:..\..\..\lvgl\version_6.1.2\lvgl\src\lv_objx/lv_preload.c ****             a.repeat_pause   = 0;
 793              		.loc 1 208 0
 794 0054 8DF82030 		strb	r3, [sp, #32]
 203:..\..\..\lvgl\version_6.1.2\lvgl\src\lv_objx/lv_preload.c ****             a.act_time       = 0;
 795              		.loc 1 203 0
 796 0058 0392     		str	r2, [sp, #12]
 204:..\..\..\lvgl\version_6.1.2\lvgl\src\lv_objx/lv_preload.c ****             a.time           = ext->time;
 797              		.loc 1 204 0
 798 005a ADF81A20 		strh	r2, [sp, #26]	@ movhi
 207:..\..\..\lvgl\version_6.1.2\lvgl\src\lv_objx/lv_preload.c ****             a.repeat         = 1;
 799              		.loc 1 207 0
 800 005e ADF81C20 		strh	r2, [sp, #28]	@ movhi
 209:..\..\..\lvgl\version_6.1.2\lvgl\src\lv_objx/lv_preload.c ****             lv_anim_create(&a);
 801              		.loc 1 209 0
 802 0062 ADF81E20 		strh	r2, [sp, #30]	@ movhi
 205:..\..\..\lvgl\version_6.1.2\lvgl\src\lv_objx/lv_preload.c ****             a.playback       = 0;
 803              		.loc 1 205 0
 804 0066 ADF81870 		strh	r7, [sp, #24]	@ movhi
 202:..\..\..\lvgl\version_6.1.2\lvgl\src\lv_objx/lv_preload.c ****             a.ready_cb       = NULL;
 805              		.loc 1 202 0
 806 006a 0295     		str	r5, [sp, #8]
 210:..\..\..\lvgl\version_6.1.2\lvgl\src\lv_objx/lv_preload.c **** 
 807              		.loc 1 210 0
 808 006c FFF7FEFF 		bl	lv_anim_create
 809              	.LVL73:
 214:..\..\..\lvgl\version_6.1.2\lvgl\src\lv_objx/lv_preload.c ****                 /* Clockwise */
 810              		.loc 1 214 0
 811 0070 237A     		ldrb	r3, [r4, #8]	@ zero_extendqisi2
 227:..\..\..\lvgl\version_6.1.2\lvgl\src\lv_objx/lv_preload.c ****             b.playback_pause = 0;
 812              		.loc 1 227 0
 813 0072 9DF84420 		ldrb	r2, [sp, #68]	@ zero_extendqisi2
 213:..\..\..\lvgl\version_6.1.2\lvgl\src\lv_objx/lv_preload.c ****             if(ext->anim_dir == LV_PRELOAD_DIR_FORWARD) {
 814              		.loc 1 213 0
 815 0076 0996     		str	r6, [sp, #36]
 214:..\..\..\lvgl\version_6.1.2\lvgl\src\lv_objx/lv_preload.c ****                 /* Clockwise */
 816              		.loc 1 214 0
 817 0078 5B07     		lsls	r3, r3, #29
 216:..\..\..\lvgl\version_6.1.2\lvgl\src\lv_objx/lv_preload.c ****                 b.end   = ext->arc_length;
 818              		.loc 1 216 0
 819 007a 54BF     		ite	pl
 820 007c B4F90410 		ldrshpl	r1, [r4, #4]
 219:..\..\..\lvgl\version_6.1.2\lvgl\src\lv_objx/lv_preload.c ****                 b.end   = 360 - ext->arc_length;
 821              		.loc 1 219 0
ARM GAS  C:\Users\pearlstl\AppData\Local\Temp\ccH1AW89.s 			page 26


 822 0080 B4F90460 		ldrshmi	r6, [r4, #4]
 823              	.LVL74:
 226:..\..\..\lvgl\version_6.1.2\lvgl\src\lv_objx/lv_preload.c ****             b.playback       = 1;
 824              		.loc 1 226 0
 825 0084 E388     		ldrh	r3, [r4, #6]
 826 0086 ADF83C30 		strh	r3, [sp, #60]	@ movhi
 216:..\..\..\lvgl\version_6.1.2\lvgl\src\lv_objx/lv_preload.c ****                 b.end   = ext->arc_length;
 827              		.loc 1 216 0
 828 008a 58BF     		it	pl
 829 008c C1F5B476 		rsbpl	r6, r1, #360
 224:..\..\..\lvgl\version_6.1.2\lvgl\src\lv_objx/lv_preload.c ****             b.act_time       = 0;
 830              		.loc 1 224 0
 831 0090 4FF00003 		mov	r3, #0
 220:..\..\..\lvgl\version_6.1.2\lvgl\src\lv_objx/lv_preload.c ****             }
 832              		.loc 1 220 0
 833 0094 48BF     		it	mi
 834 0096 C6F5B471 		rsbmi	r1, r6, #360
 229:..\..\..\lvgl\version_6.1.2\lvgl\src\lv_objx/lv_preload.c ****             b.repeat_pause   = 0;
 835              		.loc 1 229 0
 836 009a 42F00302 		orr	r2, r2, #3
 222:..\..\..\lvgl\version_6.1.2\lvgl\src\lv_objx/lv_preload.c ****             b.path_cb        = lv_anim_path_ease_in_out;
 837              		.loc 1 222 0
 838 009e 254C     		ldr	r4, .L63+8
 839              	.LVL75:
 840 00a0 0E91     		str	r1, [sp, #56]
 231:..\..\..\lvgl\version_6.1.2\lvgl\src\lv_objx/lv_preload.c ****             break;
 841              		.loc 1 231 0
 842 00a2 09A8     		add	r0, sp, #36
 843              	.LVL76:
 844 00a4 0D96     		str	r6, [sp, #52]
 223:..\..\..\lvgl\version_6.1.2\lvgl\src\lv_objx/lv_preload.c ****             b.ready_cb       = NULL;
 845              		.loc 1 223 0
 846 00a6 0B95     		str	r5, [sp, #44]
 229:..\..\..\lvgl\version_6.1.2\lvgl\src\lv_objx/lv_preload.c ****             b.repeat_pause   = 0;
 847              		.loc 1 229 0
 848 00a8 8DF84420 		strb	r2, [sp, #68]
 222:..\..\..\lvgl\version_6.1.2\lvgl\src\lv_objx/lv_preload.c ****             b.path_cb        = lv_anim_path_ease_in_out;
 849              		.loc 1 222 0
 850 00ac 0A94     		str	r4, [sp, #40]
 224:..\..\..\lvgl\version_6.1.2\lvgl\src\lv_objx/lv_preload.c ****             b.act_time       = 0;
 851              		.loc 1 224 0
 852 00ae 0C93     		str	r3, [sp, #48]
 225:..\..\..\lvgl\version_6.1.2\lvgl\src\lv_objx/lv_preload.c ****             b.time           = ext->time;
 853              		.loc 1 225 0
 854 00b0 ADF83E30 		strh	r3, [sp, #62]	@ movhi
 228:..\..\..\lvgl\version_6.1.2\lvgl\src\lv_objx/lv_preload.c ****             b.repeat         = 1;
 855              		.loc 1 228 0
 856 00b4 ADF84030 		strh	r3, [sp, #64]	@ movhi
 230:..\..\..\lvgl\version_6.1.2\lvgl\src\lv_objx/lv_preload.c ****             lv_anim_create(&b);
 857              		.loc 1 230 0
 858 00b8 ADF84230 		strh	r3, [sp, #66]	@ movhi
 231:..\..\..\lvgl\version_6.1.2\lvgl\src\lv_objx/lv_preload.c ****             break;
 859              		.loc 1 231 0
 860 00bc FFF7FEFF 		bl	lv_anim_create
 861              	.LVL77:
 862              	.LBE40:
 262:..\..\..\lvgl\version_6.1.2\lvgl\src\lv_objx/lv_preload.c **** 
ARM GAS  C:\Users\pearlstl\AppData\Local\Temp\ccH1AW89.s 			page 27


 863              		.loc 1 262 0
 864 00c0 13B0     		add	sp, sp, #76
 865              		.cfi_remember_state
 866              		.cfi_def_cfa_offset 20
 867              		@ sp needed
 868 00c2 F0BD     		pop	{r4, r5, r6, r7, pc}
 869              	.LVL78:
 870              	.L61:
 871              		.cfi_restore_state
 872              	.LBB41:
 237:..\..\..\lvgl\version_6.1.2\lvgl\src\lv_objx/lv_preload.c ****             lv_anim_t a;
 873              		.loc 1 237 0
 874 00c4 217A     		ldrb	r1, [r4, #8]	@ zero_extendqisi2
 254:..\..\..\lvgl\version_6.1.2\lvgl\src\lv_objx/lv_preload.c ****             a.playback_pause = 0;
 875              		.loc 1 254 0
 876 00c6 9DF84430 		ldrb	r3, [sp, #68]	@ zero_extendqisi2
 249:..\..\..\lvgl\version_6.1.2\lvgl\src\lv_objx/lv_preload.c ****                                 lv_anim_path_linear : lv_anim_path_ease_in_out);
 877              		.loc 1 249 0
 878 00ca 1B4A     		ldr	r2, .L63+12
 879 00cc 184F     		ldr	r7, .L63+4
 253:..\..\..\lvgl\version_6.1.2\lvgl\src\lv_objx/lv_preload.c ****             a.playback       = 0;
 880              		.loc 1 253 0
 881 00ce E088     		ldrh	r0, [r4, #6]
 237:..\..\..\lvgl\version_6.1.2\lvgl\src\lv_objx/lv_preload.c ****             lv_anim_t a;
 882              		.loc 1 237 0
 883 00d0 65F30101 		bfi	r1, r5, #0, #2
 884 00d4 2172     		strb	r1, [r4, #8]
 240:..\..\..\lvgl\version_6.1.2\lvgl\src\lv_objx/lv_preload.c ****                 /* Clockwise */
 885              		.loc 1 240 0
 886 00d6 C9B2     		uxtb	r1, r1
 887 00d8 01F00401 		and	r1, r1, #4
 246:..\..\..\lvgl\version_6.1.2\lvgl\src\lv_objx/lv_preload.c ****             }
 888              		.loc 1 246 0
 889 00dc 0029     		cmp	r1, #0
 256:..\..\..\lvgl\version_6.1.2\lvgl\src\lv_objx/lv_preload.c ****             a.repeat_pause   = 0;
 890              		.loc 1 256 0
 891 00de 03F0FE03 		and	r3, r3, #254
 239:..\..\..\lvgl\version_6.1.2\lvgl\src\lv_objx/lv_preload.c ****             if(ext->anim_dir == LV_PRELOAD_DIR_FORWARD) {
 892              		.loc 1 239 0
 893 00e2 0996     		str	r6, [sp, #36]
 246:..\..\..\lvgl\version_6.1.2\lvgl\src\lv_objx/lv_preload.c ****             }
 894              		.loc 1 246 0
 895 00e4 07BF     		ittee	eq
 896 00e6 4FF4B474 		moveq	r4, #360
 897              	.LVL79:
 898 00ea 0026     		moveq	r6, #0
 899              	.LVL80:
 900 00ec 4FF4B476 		movne	r6, #360
 901 00f0 0024     		movne	r4, #0
 256:..\..\..\lvgl\version_6.1.2\lvgl\src\lv_objx/lv_preload.c ****             a.repeat_pause   = 0;
 902              		.loc 1 256 0
 903 00f2 43F00203 		orr	r3, r3, #2
 249:..\..\..\lvgl\version_6.1.2\lvgl\src\lv_objx/lv_preload.c ****                                 lv_anim_path_linear : lv_anim_path_ease_in_out);
 904              		.loc 1 249 0
 905 00f6 022D     		cmp	r5, #2
 906 00f8 0CBF     		ite	eq
 907 00fa 1546     		moveq	r5, r2
ARM GAS  C:\Users\pearlstl\AppData\Local\Temp\ccH1AW89.s 			page 28


 908 00fc 3D46     		movne	r5, r7
 248:..\..\..\lvgl\version_6.1.2\lvgl\src\lv_objx/lv_preload.c ****             a.path_cb        = (LV_PRELOAD_TYPE_CONSTANT_ARC == type ?
 909              		.loc 1 248 0
 910 00fe 0B49     		ldr	r1, .L63
 253:..\..\..\lvgl\version_6.1.2\lvgl\src\lv_objx/lv_preload.c ****             a.playback       = 0;
 911              		.loc 1 253 0
 912 0100 ADF83C00 		strh	r0, [sp, #60]	@ movhi
 251:..\..\..\lvgl\version_6.1.2\lvgl\src\lv_objx/lv_preload.c ****             a.act_time       = 0;
 913              		.loc 1 251 0
 914 0104 0022     		movs	r2, #0
 258:..\..\..\lvgl\version_6.1.2\lvgl\src\lv_objx/lv_preload.c ****             break;
 915              		.loc 1 258 0
 916 0106 09A8     		add	r0, sp, #36
 917              	.LVL81:
 918 0108 0E96     		str	r6, [sp, #56]
 919 010a 0D94     		str	r4, [sp, #52]
 256:..\..\..\lvgl\version_6.1.2\lvgl\src\lv_objx/lv_preload.c ****             a.repeat_pause   = 0;
 920              		.loc 1 256 0
 921 010c 8DF84430 		strb	r3, [sp, #68]
 249:..\..\..\lvgl\version_6.1.2\lvgl\src\lv_objx/lv_preload.c ****                                 lv_anim_path_linear : lv_anim_path_ease_in_out);
 922              		.loc 1 249 0
 923 0110 0B95     		str	r5, [sp, #44]
 248:..\..\..\lvgl\version_6.1.2\lvgl\src\lv_objx/lv_preload.c ****             a.path_cb        = (LV_PRELOAD_TYPE_CONSTANT_ARC == type ?
 924              		.loc 1 248 0
 925 0112 0A91     		str	r1, [sp, #40]
 251:..\..\..\lvgl\version_6.1.2\lvgl\src\lv_objx/lv_preload.c ****             a.act_time       = 0;
 926              		.loc 1 251 0
 927 0114 0C92     		str	r2, [sp, #48]
 252:..\..\..\lvgl\version_6.1.2\lvgl\src\lv_objx/lv_preload.c ****             a.time           = ext->time;
 928              		.loc 1 252 0
 929 0116 ADF83E20 		strh	r2, [sp, #62]	@ movhi
 255:..\..\..\lvgl\version_6.1.2\lvgl\src\lv_objx/lv_preload.c ****             a.repeat         = 1;
 930              		.loc 1 255 0
 931 011a ADF84020 		strh	r2, [sp, #64]	@ movhi
 257:..\..\..\lvgl\version_6.1.2\lvgl\src\lv_objx/lv_preload.c ****             lv_anim_create(&a);
 932              		.loc 1 257 0
 933 011e ADF84220 		strh	r2, [sp, #66]	@ movhi
 258:..\..\..\lvgl\version_6.1.2\lvgl\src\lv_objx/lv_preload.c ****             break;
 934              		.loc 1 258 0
 935 0122 FFF7FEFF 		bl	lv_anim_create
 936              	.LVL82:
 937              	.LBE41:
 262:..\..\..\lvgl\version_6.1.2\lvgl\src\lv_objx/lv_preload.c **** 
 938              		.loc 1 262 0
 939 0126 13B0     		add	sp, sp, #76
 940              		.cfi_def_cfa_offset 20
 941              		@ sp needed
 942 0128 F0BD     		pop	{r4, r5, r6, r7, pc}
 943              	.L64:
 944 012a 00BF     		.align	2
 945              	.L63:
 946 012c 00000000 		.word	lv_preload_spinner_anim
 947 0130 00000000 		.word	lv_anim_path_ease_in_out
 948 0134 00000000 		.word	lv_preload_set_arc_length
 949 0138 00000000 		.word	lv_anim_path_linear
 950              		.cfi_endproc
 951              	.LFE35:
ARM GAS  C:\Users\pearlstl\AppData\Local\Temp\ccH1AW89.s 			page 29


 952              		.size	lv_preload_set_type, .-lv_preload_set_type
 953              		.section	.text.lv_preload_create,"ax",%progbits
 954              		.align	2
 955              		.global	lv_preload_create
 956              		.thumb
 957              		.thumb_func
 958              		.type	lv_preload_create, %function
 959              	lv_preload_create:
 960              	.LFB31:
  67:..\..\..\lvgl\version_6.1.2\lvgl\src\lv_objx/lv_preload.c ****     LV_LOG_TRACE("preload create started");
 961              		.loc 1 67 0
 962              		.cfi_startproc
 963              		@ args = 0, pretend = 0, frame = 0
 964              		@ frame_needed = 0, uses_anonymous_args = 0
 965              	.LVL83:
 966 0000 F8B5     		push	{r3, r4, r5, r6, r7, lr}
 967              		.cfi_def_cfa_offset 24
 968              		.cfi_offset 3, -24
 969              		.cfi_offset 4, -20
 970              		.cfi_offset 5, -16
 971              		.cfi_offset 6, -12
 972              		.cfi_offset 7, -8
 973              		.cfi_offset 14, -4
  67:..\..\..\lvgl\version_6.1.2\lvgl\src\lv_objx/lv_preload.c ****     LV_LOG_TRACE("preload create started");
 974              		.loc 1 67 0
 975 0002 0F46     		mov	r7, r1
  71:..\..\..\lvgl\version_6.1.2\lvgl\src\lv_objx/lv_preload.c ****     LV_ASSERT_MEM(new_preload);
 976              		.loc 1 71 0
 977 0004 FFF7FEFF 		bl	lv_arc_create
 978              	.LVL84:
  73:..\..\..\lvgl\version_6.1.2\lvgl\src\lv_objx/lv_preload.c **** 
 979              		.loc 1 73 0
 980 0008 0028     		cmp	r0, #0
 981 000a 4AD0     		beq	.L68
  76:..\..\..\lvgl\version_6.1.2\lvgl\src\lv_objx/lv_preload.c ****     LV_ASSERT_MEM(ext);
 982              		.loc 1 76 0
 983 000c 0A21     		movs	r1, #10
 984 000e 0546     		mov	r5, r0
 985 0010 FFF7FEFF 		bl	lv_obj_allocate_ext_attr
 986              	.LVL85:
  78:..\..\..\lvgl\version_6.1.2\lvgl\src\lv_objx/lv_preload.c **** 
 987              		.loc 1 78 0
 988 0014 0446     		mov	r4, r0
 989 0016 0028     		cmp	r0, #0
 990 0018 43D0     		beq	.L68
  80:..\..\..\lvgl\version_6.1.2\lvgl\src\lv_objx/lv_preload.c ****     if(ancestor_design == NULL) ancestor_design = lv_obj_get_design_cb(new_preload);
 991              		.loc 1 80 0
 992 001a 2A4E     		ldr	r6, .L82
 993 001c 7368     		ldr	r3, [r6, #4]
 994 001e 002B     		cmp	r3, #0
 995 0020 41D0     		beq	.L79
 996              	.LVL86:
 997              	.L69:
  81:..\..\..\lvgl\version_6.1.2\lvgl\src\lv_objx/lv_preload.c **** 
 998              		.loc 1 81 0
 999 0022 3368     		ldr	r3, [r6]
 1000 0024 274E     		ldr	r6, .L82
ARM GAS  C:\Users\pearlstl\AppData\Local\Temp\ccH1AW89.s 			page 30


 1001 0026 002B     		cmp	r3, #0
 1002 0028 42D0     		beq	.L80
 1003              	.L70:
  85:..\..\..\lvgl\version_6.1.2\lvgl\src\lv_objx/lv_preload.c ****     ext->anim_dir   = LV_PRELOAD_DIR_FORWARD;
 1004              		.loc 1 85 0
 1005 002a 237A     		ldrb	r3, [r4, #8]	@ zero_extendqisi2
  89:..\..\..\lvgl\version_6.1.2\lvgl\src\lv_objx/lv_preload.c ****     lv_obj_set_design_cb(new_preload, lv_preload_design);
 1006              		.loc 1 89 0
 1007 002c 2649     		ldr	r1, .L82+4
  86:..\..\..\lvgl\version_6.1.2\lvgl\src\lv_objx/lv_preload.c **** 
 1008              		.loc 1 86 0
 1009 002e 03F0FC03 		and	r3, r3, #252
 1010 0032 6FF38203 		bfc	r3, #2, #1
  84:..\..\..\lvgl\version_6.1.2\lvgl\src\lv_objx/lv_preload.c ****     ext->anim_type  = LV_PRELOAD_DEF_ANIM;
 1011              		.loc 1 84 0
 1012 0036 3C22     		movs	r2, #60
  89:..\..\..\lvgl\version_6.1.2\lvgl\src\lv_objx/lv_preload.c ****     lv_obj_set_design_cb(new_preload, lv_preload_design);
 1013              		.loc 1 89 0
 1014 0038 2846     		mov	r0, r5
  86:..\..\..\lvgl\version_6.1.2\lvgl\src\lv_objx/lv_preload.c **** 
 1015              		.loc 1 86 0
 1016 003a 2372     		strb	r3, [r4, #8]
  84:..\..\..\lvgl\version_6.1.2\lvgl\src\lv_objx/lv_preload.c ****     ext->anim_type  = LV_PRELOAD_DEF_ANIM;
 1017              		.loc 1 84 0
 1018 003c A280     		strh	r2, [r4, #4]	@ movhi
  89:..\..\..\lvgl\version_6.1.2\lvgl\src\lv_objx/lv_preload.c ****     lv_obj_set_design_cb(new_preload, lv_preload_design);
 1019              		.loc 1 89 0
 1020 003e FFF7FEFF 		bl	lv_obj_set_signal_cb
 1021              	.LVL87:
  90:..\..\..\lvgl\version_6.1.2\lvgl\src\lv_objx/lv_preload.c **** 
 1022              		.loc 1 90 0
 1023 0042 2249     		ldr	r1, .L82+8
 1024 0044 2846     		mov	r0, r5
 1025 0046 FFF7FEFF 		bl	lv_obj_set_design_cb
 1026              	.LVL88:
  93:..\..\..\lvgl\version_6.1.2\lvgl\src\lv_objx/lv_preload.c ****         lv_obj_set_size(new_preload, LV_DPI / 2, LV_DPI / 2);
 1027              		.loc 1 93 0
 1028 004a CFB1     		cbz	r7, .L81
 1029              	.LBB42:
 109:..\..\..\lvgl\version_6.1.2\lvgl\src\lv_objx/lv_preload.c ****         ext->arc_length             = copy_ext->arc_length;
 1030              		.loc 1 109 0
 1031 004c 3846     		mov	r0, r7
 1032 004e FFF7FEFF 		bl	lv_obj_get_ext_attr
 1033              	.LVL89:
 112:..\..\..\lvgl\version_6.1.2\lvgl\src\lv_objx/lv_preload.c ****         /*Refresh the style with new signal function*/
 1034              		.loc 1 112 0
 1035 0052 037A     		ldrb	r3, [r0, #8]	@ zero_extendqisi2
 1036 0054 227A     		ldrb	r2, [r4, #8]	@ zero_extendqisi2
 110:..\..\..\lvgl\version_6.1.2\lvgl\src\lv_objx/lv_preload.c ****         ext->time                   = copy_ext->time;
 1037              		.loc 1 110 0
 1038 0056 B0F90460 		ldrsh	r6, [r0, #4]
 111:..\..\..\lvgl\version_6.1.2\lvgl\src\lv_objx/lv_preload.c ****         ext->anim_dir               = copy_ext->anim_dir;
 1039              		.loc 1 111 0
 1040 005a C188     		ldrh	r1, [r0, #6]
 1041 005c E180     		strh	r1, [r4, #6]	@ movhi
 112:..\..\..\lvgl\version_6.1.2\lvgl\src\lv_objx/lv_preload.c ****         /*Refresh the style with new signal function*/
 1042              		.loc 1 112 0
ARM GAS  C:\Users\pearlstl\AppData\Local\Temp\ccH1AW89.s 			page 31


 1043 005e C3F38003 		ubfx	r3, r3, #2, #1
 1044 0062 63F38202 		bfi	r2, r3, #2, #1
 110:..\..\..\lvgl\version_6.1.2\lvgl\src\lv_objx/lv_preload.c ****         ext->time                   = copy_ext->time;
 1045              		.loc 1 110 0
 1046 0066 A680     		strh	r6, [r4, #4]	@ movhi
 112:..\..\..\lvgl\version_6.1.2\lvgl\src\lv_objx/lv_preload.c ****         /*Refresh the style with new signal function*/
 1047              		.loc 1 112 0
 1048 0068 2272     		strb	r2, [r4, #8]
 114:..\..\..\lvgl\version_6.1.2\lvgl\src\lv_objx/lv_preload.c ****     }
 1049              		.loc 1 114 0
 1050 006a 2846     		mov	r0, r5
 1051              	.LVL90:
 1052 006c FFF7FEFF 		bl	lv_obj_refresh_style
 1053              	.LVL91:
 1054              	.L74:
 1055              	.LBE42:
 117:..\..\..\lvgl\version_6.1.2\lvgl\src\lv_objx/lv_preload.c **** 
 1056              		.loc 1 117 0
 1057 0070 217A     		ldrb	r1, [r4, #8]	@ zero_extendqisi2
 1058 0072 2846     		mov	r0, r5
 1059 0074 01F00301 		and	r1, r1, #3
 1060 0078 FFF7FEFF 		bl	lv_preload_set_type
 1061              	.LVL92:
 121:..\..\..\lvgl\version_6.1.2\lvgl\src\lv_objx/lv_preload.c **** }
 1062              		.loc 1 121 0
 1063 007c 2846     		mov	r0, r5
 122:..\..\..\lvgl\version_6.1.2\lvgl\src\lv_objx/lv_preload.c **** 
 1064              		.loc 1 122 0
 1065 007e F8BD     		pop	{r3, r4, r5, r6, r7, pc}
 1066              	.LVL93:
 1067              	.L81:
 1068              	.LBB43:
  94:..\..\..\lvgl\version_6.1.2\lvgl\src\lv_objx/lv_preload.c **** 
 1069              		.loc 1 94 0
 1070 0080 4B22     		movs	r2, #75
 1071 0082 1146     		mov	r1, r2
 1072 0084 2846     		mov	r0, r5
 1073 0086 FFF7FEFF 		bl	lv_obj_set_size
 1074              	.LVL94:
  97:..\..\..\lvgl\version_6.1.2\lvgl\src\lv_objx/lv_preload.c ****         if(th) {
 1075              		.loc 1 97 0
 1076 008a FFF7FEFF 		bl	lv_theme_get_current
 1077              	.LVL95:
  98:..\..\..\lvgl\version_6.1.2\lvgl\src\lv_objx/lv_preload.c ****             lv_preload_set_style(new_preload, LV_PRELOAD_STYLE_MAIN, th->style.preload);
 1078              		.loc 1 98 0
 1079 008e A0B1     		cbz	r0, .L72
 1080              	.LVL96:
 1081              	.LBB44:
 1082              	.LBB45:
 171:..\..\..\lvgl\version_6.1.2\lvgl\src\lv_objx/lv_preload.c ****     }
 1083              		.loc 1 171 0
 1084 0090 426F     		ldr	r2, [r0, #116]
 1085 0092 3946     		mov	r1, r7
 1086 0094 2846     		mov	r0, r5
 1087              	.LVL97:
 1088 0096 FFF7FEFF 		bl	lv_arc_set_style
 1089              	.LVL98:
ARM GAS  C:\Users\pearlstl\AppData\Local\Temp\ccH1AW89.s 			page 32


 1090              	.L73:
 1091              	.LBE45:
 1092              	.LBE44:
 104:..\..\..\lvgl\version_6.1.2\lvgl\src\lv_objx/lv_preload.c **** 
 1093              		.loc 1 104 0
 1094 009a 4FF47A73 		mov	r3, #1000
 1095 009e E380     		strh	r3, [r4, #6]	@ movhi
 1096              	.LBE43:
 1097 00a0 E6E7     		b	.L74
 1098              	.LVL99:
 1099              	.L68:
  73:..\..\..\lvgl\version_6.1.2\lvgl\src\lv_objx/lv_preload.c **** 
 1100              		.loc 1 73 0
 1101 00a2 0020     		movs	r0, #0
 1102 00a4 F8BD     		pop	{r3, r4, r5, r6, r7, pc}
 1103              	.LVL100:
 1104              	.L79:
  80:..\..\..\lvgl\version_6.1.2\lvgl\src\lv_objx/lv_preload.c ****     if(ancestor_design == NULL) ancestor_design = lv_obj_get_design_cb(new_preload);
 1105              		.loc 1 80 0 discriminator 1
 1106 00a6 2846     		mov	r0, r5
 1107              	.LVL101:
 1108 00a8 FFF7FEFF 		bl	lv_obj_get_signal_cb
 1109              	.LVL102:
 1110 00ac 7060     		str	r0, [r6, #4]
 1111 00ae B8E7     		b	.L69
 1112              	.L80:
  81:..\..\..\lvgl\version_6.1.2\lvgl\src\lv_objx/lv_preload.c **** 
 1113              		.loc 1 81 0 discriminator 1
 1114 00b0 2846     		mov	r0, r5
 1115 00b2 FFF7FEFF 		bl	lv_obj_get_design_cb
 1116              	.LVL103:
 1117 00b6 3060     		str	r0, [r6]
 1118 00b8 B7E7     		b	.L70
 1119              	.LVL104:
 1120              	.L72:
 1121              	.LBB46:
 101:..\..\..\lvgl\version_6.1.2\lvgl\src\lv_objx/lv_preload.c ****         }
 1122              		.loc 1 101 0
 1123 00ba 0549     		ldr	r1, .L82+12
 1124 00bc 2846     		mov	r0, r5
 1125              	.LVL105:
 1126 00be FFF7FEFF 		bl	lv_obj_set_style
 1127              	.LVL106:
 1128 00c2 EAE7     		b	.L73
 1129              	.L83:
 1130              		.align	2
 1131              	.L82:
 1132 00c4 00000000 		.word	.LANCHOR0
 1133 00c8 00000000 		.word	lv_preload_signal
 1134 00cc 00000000 		.word	lv_preload_design
 1135 00d0 00000000 		.word	lv_style_pretty_color
 1136              	.LBE46:
 1137              		.cfi_endproc
 1138              	.LFE31:
 1139              		.size	lv_preload_create, .-lv_preload_create
 1140              		.section	.text.lv_preload_set_dir,"ax",%progbits
 1141              		.align	2
ARM GAS  C:\Users\pearlstl\AppData\Local\Temp\ccH1AW89.s 			page 33


 1142              		.global	lv_preload_set_dir
 1143              		.thumb
 1144              		.thumb_func
 1145              		.type	lv_preload_set_dir, %function
 1146              	lv_preload_set_dir:
 1147              	.LFB36:
 265:..\..\..\lvgl\version_6.1.2\lvgl\src\lv_objx/lv_preload.c ****     LV_ASSERT_OBJ(preload, LV_OBJX_NAME);
 1148              		.loc 1 265 0
 1149              		.cfi_startproc
 1150              		@ args = 0, pretend = 0, frame = 72
 1151              		@ frame_needed = 0, uses_anonymous_args = 0
 1152              	.LVL107:
 1153 0000 F0B5     		push	{r4, r5, r6, r7, lr}
 1154              		.cfi_def_cfa_offset 20
 1155              		.cfi_offset 4, -20
 1156              		.cfi_offset 5, -16
 1157              		.cfi_offset 6, -12
 1158              		.cfi_offset 7, -8
 1159              		.cfi_offset 14, -4
 1160 0002 93B0     		sub	sp, sp, #76
 1161              		.cfi_def_cfa_offset 96
 265:..\..\..\lvgl\version_6.1.2\lvgl\src\lv_objx/lv_preload.c ****     LV_ASSERT_OBJ(preload, LV_OBJX_NAME);
 1162              		.loc 1 265 0
 1163 0004 0C46     		mov	r4, r1
 1164 0006 0646     		mov	r6, r0
 268:..\..\..\lvgl\version_6.1.2\lvgl\src\lv_objx/lv_preload.c **** 
 1165              		.loc 1 268 0
 1166 0008 FFF7FEFF 		bl	lv_obj_get_ext_attr
 1167              	.LVL108:
 1168 000c 0246     		mov	r2, r0
 1169              	.LVL109:
 1170              	.LBB51:
 1171              	.LBB52:
 184:..\..\..\lvgl\version_6.1.2\lvgl\src\lv_objx/lv_preload.c **** 
 1172              		.loc 1 184 0
 1173 000e 3046     		mov	r0, r6
 1174              	.LVL110:
 1175              	.LBE52:
 1176              	.LBE51:
 270:..\..\..\lvgl\version_6.1.2\lvgl\src\lv_objx/lv_preload.c ****     lv_preload_set_type(preload, ext->anim_type);
 1177              		.loc 1 270 0
 1178 0010 137A     		ldrb	r3, [r2, #8]	@ zero_extendqisi2
 1179 0012 64F38203 		bfi	r3, r4, #2, #1
 1180 0016 1372     		strb	r3, [r2, #8]
 271:..\..\..\lvgl\version_6.1.2\lvgl\src\lv_objx/lv_preload.c **** }
 1181              		.loc 1 271 0
 1182 0018 03F00304 		and	r4, r3, #3
 1183              	.LVL111:
 1184              	.LBB57:
 1185              	.LBB55:
 184:..\..\..\lvgl\version_6.1.2\lvgl\src\lv_objx/lv_preload.c **** 
 1186              		.loc 1 184 0
 1187 001c FFF7FEFF 		bl	lv_obj_get_ext_attr
 1188              	.LVL112:
 187:..\..\..\lvgl\version_6.1.2\lvgl\src\lv_objx/lv_preload.c ****     switch(type) {
 1189              		.loc 1 187 0
 1190 0020 0021     		movs	r1, #0
ARM GAS  C:\Users\pearlstl\AppData\Local\Temp\ccH1AW89.s 			page 34


 184:..\..\..\lvgl\version_6.1.2\lvgl\src\lv_objx/lv_preload.c **** 
 1191              		.loc 1 184 0
 1192 0022 0546     		mov	r5, r0
 1193              	.LVL113:
 187:..\..\..\lvgl\version_6.1.2\lvgl\src\lv_objx/lv_preload.c ****     switch(type) {
 1194              		.loc 1 187 0
 1195 0024 3046     		mov	r0, r6
 1196              	.LVL114:
 1197 0026 FFF7FEFF 		bl	lv_anim_del
 1198              	.LVL115:
 188:..\..\..\lvgl\version_6.1.2\lvgl\src\lv_objx/lv_preload.c ****         case LV_PRELOAD_TYPE_FILLSPIN_ARC: {
 1199              		.loc 1 188 0
 1200 002a 012C     		cmp	r4, #1
 1201 002c 54D1     		bne	.L96
 1202              	.LBB53:
 190:..\..\..\lvgl\version_6.1.2\lvgl\src\lv_objx/lv_preload.c ****             lv_anim_t a;
 1203              		.loc 1 190 0
 1204 002e 2A7A     		ldrb	r2, [r5, #8]	@ zero_extendqisi2
 206:..\..\..\lvgl\version_6.1.2\lvgl\src\lv_objx/lv_preload.c ****             a.playback_pause = 0;
 1205              		.loc 1 206 0
 1206 0030 9DF82030 		ldrb	r3, [sp, #32]	@ zero_extendqisi2
 205:..\..\..\lvgl\version_6.1.2\lvgl\src\lv_objx/lv_preload.c ****             a.playback       = 0;
 1207              		.loc 1 205 0
 1208 0034 EF88     		ldrh	r7, [r5, #6]
 201:..\..\..\lvgl\version_6.1.2\lvgl\src\lv_objx/lv_preload.c ****             a.path_cb        = lv_anim_path_ease_in_out;
 1209              		.loc 1 201 0
 1210 0036 4249     		ldr	r1, .L98
 1211 0038 0191     		str	r1, [sp, #4]
 190:..\..\..\lvgl\version_6.1.2\lvgl\src\lv_objx/lv_preload.c ****             lv_anim_t a;
 1212              		.loc 1 190 0
 1213 003a 64F30102 		bfi	r2, r4, #0, #2
 193:..\..\..\lvgl\version_6.1.2\lvgl\src\lv_objx/lv_preload.c ****                 /* Clockwise */
 1214              		.loc 1 193 0
 1215 003e 02F00400 		and	r0, r2, #4
 199:..\..\..\lvgl\version_6.1.2\lvgl\src\lv_objx/lv_preload.c ****             }
 1216              		.loc 1 199 0
 1217 0042 0028     		cmp	r0, #0
 190:..\..\..\lvgl\version_6.1.2\lvgl\src\lv_objx/lv_preload.c ****             lv_anim_t a;
 1218              		.loc 1 190 0
 1219 0044 2A72     		strb	r2, [r5, #8]
 199:..\..\..\lvgl\version_6.1.2\lvgl\src\lv_objx/lv_preload.c ****             }
 1220              		.loc 1 199 0
 1221 0046 07BF     		ittee	eq
 1222 0048 4FF4B470 		moveq	r0, #360
 1223 004c 0022     		moveq	r2, #0
 1224 004e 4FF4B472 		movne	r2, #360
 1225 0052 0020     		movne	r0, #0
 208:..\..\..\lvgl\version_6.1.2\lvgl\src\lv_objx/lv_preload.c ****             a.repeat_pause   = 0;
 1226              		.loc 1 208 0
 1227 0054 03F0FE03 		and	r3, r3, #254
 1228 0058 43F00203 		orr	r3, r3, #2
 202:..\..\..\lvgl\version_6.1.2\lvgl\src\lv_objx/lv_preload.c ****             a.ready_cb       = NULL;
 1229              		.loc 1 202 0
 1230 005c 394C     		ldr	r4, .L98+4
 1231 005e 0592     		str	r2, [sp, #20]
 1232 0060 0490     		str	r0, [sp, #16]
 203:..\..\..\lvgl\version_6.1.2\lvgl\src\lv_objx/lv_preload.c ****             a.act_time       = 0;
ARM GAS  C:\Users\pearlstl\AppData\Local\Temp\ccH1AW89.s 			page 35


 1233              		.loc 1 203 0
 1234 0062 0022     		movs	r2, #0
 210:..\..\..\lvgl\version_6.1.2\lvgl\src\lv_objx/lv_preload.c **** 
 1235              		.loc 1 210 0
 1236 0064 6846     		mov	r0, sp
 192:..\..\..\lvgl\version_6.1.2\lvgl\src\lv_objx/lv_preload.c ****             if(ext->anim_dir == LV_PRELOAD_DIR_FORWARD) {
 1237              		.loc 1 192 0
 1238 0066 0096     		str	r6, [sp]
 208:..\..\..\lvgl\version_6.1.2\lvgl\src\lv_objx/lv_preload.c ****             a.repeat_pause   = 0;
 1239              		.loc 1 208 0
 1240 0068 8DF82030 		strb	r3, [sp, #32]
 203:..\..\..\lvgl\version_6.1.2\lvgl\src\lv_objx/lv_preload.c ****             a.act_time       = 0;
 1241              		.loc 1 203 0
 1242 006c 0392     		str	r2, [sp, #12]
 204:..\..\..\lvgl\version_6.1.2\lvgl\src\lv_objx/lv_preload.c ****             a.time           = ext->time;
 1243              		.loc 1 204 0
 1244 006e ADF81A20 		strh	r2, [sp, #26]	@ movhi
 207:..\..\..\lvgl\version_6.1.2\lvgl\src\lv_objx/lv_preload.c ****             a.repeat         = 1;
 1245              		.loc 1 207 0
 1246 0072 ADF81C20 		strh	r2, [sp, #28]	@ movhi
 209:..\..\..\lvgl\version_6.1.2\lvgl\src\lv_objx/lv_preload.c ****             lv_anim_create(&a);
 1247              		.loc 1 209 0
 1248 0076 ADF81E20 		strh	r2, [sp, #30]	@ movhi
 205:..\..\..\lvgl\version_6.1.2\lvgl\src\lv_objx/lv_preload.c ****             a.playback       = 0;
 1249              		.loc 1 205 0
 1250 007a ADF81870 		strh	r7, [sp, #24]	@ movhi
 202:..\..\..\lvgl\version_6.1.2\lvgl\src\lv_objx/lv_preload.c ****             a.ready_cb       = NULL;
 1251              		.loc 1 202 0
 1252 007e 0294     		str	r4, [sp, #8]
 210:..\..\..\lvgl\version_6.1.2\lvgl\src\lv_objx/lv_preload.c **** 
 1253              		.loc 1 210 0
 1254 0080 FFF7FEFF 		bl	lv_anim_create
 1255              	.LVL116:
 214:..\..\..\lvgl\version_6.1.2\lvgl\src\lv_objx/lv_preload.c ****                 /* Clockwise */
 1256              		.loc 1 214 0
 1257 0084 2B7A     		ldrb	r3, [r5, #8]	@ zero_extendqisi2
 227:..\..\..\lvgl\version_6.1.2\lvgl\src\lv_objx/lv_preload.c ****             b.playback_pause = 0;
 1258              		.loc 1 227 0
 1259 0086 9DF84420 		ldrb	r2, [sp, #68]	@ zero_extendqisi2
 213:..\..\..\lvgl\version_6.1.2\lvgl\src\lv_objx/lv_preload.c ****             if(ext->anim_dir == LV_PRELOAD_DIR_FORWARD) {
 1260              		.loc 1 213 0
 1261 008a 0996     		str	r6, [sp, #36]
 214:..\..\..\lvgl\version_6.1.2\lvgl\src\lv_objx/lv_preload.c ****                 /* Clockwise */
 1262              		.loc 1 214 0
 1263 008c 5B07     		lsls	r3, r3, #29
 216:..\..\..\lvgl\version_6.1.2\lvgl\src\lv_objx/lv_preload.c ****                 b.end   = ext->arc_length;
 1264              		.loc 1 216 0
 1265 008e 54BF     		ite	pl
 1266 0090 B5F90410 		ldrshpl	r1, [r5, #4]
 219:..\..\..\lvgl\version_6.1.2\lvgl\src\lv_objx/lv_preload.c ****                 b.end   = 360 - ext->arc_length;
 1267              		.loc 1 219 0
 1268 0094 B5F90460 		ldrshmi	r6, [r5, #4]
 1269              	.LVL117:
 226:..\..\..\lvgl\version_6.1.2\lvgl\src\lv_objx/lv_preload.c ****             b.playback       = 1;
 1270              		.loc 1 226 0
 1271 0098 EB88     		ldrh	r3, [r5, #6]
 1272 009a ADF83C30 		strh	r3, [sp, #60]	@ movhi
ARM GAS  C:\Users\pearlstl\AppData\Local\Temp\ccH1AW89.s 			page 36


 216:..\..\..\lvgl\version_6.1.2\lvgl\src\lv_objx/lv_preload.c ****                 b.end   = ext->arc_length;
 1273              		.loc 1 216 0
 1274 009e 58BF     		it	pl
 1275 00a0 C1F5B476 		rsbpl	r6, r1, #360
 224:..\..\..\lvgl\version_6.1.2\lvgl\src\lv_objx/lv_preload.c ****             b.act_time       = 0;
 1276              		.loc 1 224 0
 1277 00a4 4FF00003 		mov	r3, #0
 220:..\..\..\lvgl\version_6.1.2\lvgl\src\lv_objx/lv_preload.c ****             }
 1278              		.loc 1 220 0
 1279 00a8 48BF     		it	mi
 1280 00aa C6F5B471 		rsbmi	r1, r6, #360
 229:..\..\..\lvgl\version_6.1.2\lvgl\src\lv_objx/lv_preload.c ****             b.repeat_pause   = 0;
 1281              		.loc 1 229 0
 1282 00ae 42F00302 		orr	r2, r2, #3
 222:..\..\..\lvgl\version_6.1.2\lvgl\src\lv_objx/lv_preload.c ****             b.path_cb        = lv_anim_path_ease_in_out;
 1283              		.loc 1 222 0
 1284 00b2 254D     		ldr	r5, .L98+8
 1285              	.LVL118:
 1286 00b4 0E91     		str	r1, [sp, #56]
 231:..\..\..\lvgl\version_6.1.2\lvgl\src\lv_objx/lv_preload.c ****             break;
 1287              		.loc 1 231 0
 1288 00b6 09A8     		add	r0, sp, #36
 1289              	.LVL119:
 1290 00b8 0D96     		str	r6, [sp, #52]
 223:..\..\..\lvgl\version_6.1.2\lvgl\src\lv_objx/lv_preload.c ****             b.ready_cb       = NULL;
 1291              		.loc 1 223 0
 1292 00ba 0B94     		str	r4, [sp, #44]
 229:..\..\..\lvgl\version_6.1.2\lvgl\src\lv_objx/lv_preload.c ****             b.repeat_pause   = 0;
 1293              		.loc 1 229 0
 1294 00bc 8DF84420 		strb	r2, [sp, #68]
 222:..\..\..\lvgl\version_6.1.2\lvgl\src\lv_objx/lv_preload.c ****             b.path_cb        = lv_anim_path_ease_in_out;
 1295              		.loc 1 222 0
 1296 00c0 0A95     		str	r5, [sp, #40]
 224:..\..\..\lvgl\version_6.1.2\lvgl\src\lv_objx/lv_preload.c ****             b.act_time       = 0;
 1297              		.loc 1 224 0
 1298 00c2 0C93     		str	r3, [sp, #48]
 225:..\..\..\lvgl\version_6.1.2\lvgl\src\lv_objx/lv_preload.c ****             b.time           = ext->time;
 1299              		.loc 1 225 0
 1300 00c4 ADF83E30 		strh	r3, [sp, #62]	@ movhi
 228:..\..\..\lvgl\version_6.1.2\lvgl\src\lv_objx/lv_preload.c ****             b.repeat         = 1;
 1301              		.loc 1 228 0
 1302 00c8 ADF84030 		strh	r3, [sp, #64]	@ movhi
 230:..\..\..\lvgl\version_6.1.2\lvgl\src\lv_objx/lv_preload.c ****             lv_anim_create(&b);
 1303              		.loc 1 230 0
 1304 00cc ADF84230 		strh	r3, [sp, #66]	@ movhi
 231:..\..\..\lvgl\version_6.1.2\lvgl\src\lv_objx/lv_preload.c ****             break;
 1305              		.loc 1 231 0
 1306 00d0 FFF7FEFF 		bl	lv_anim_create
 1307              	.LVL120:
 1308              	.LBE53:
 1309              	.LBE55:
 1310              	.LBE57:
 272:..\..\..\lvgl\version_6.1.2\lvgl\src\lv_objx/lv_preload.c **** 
 1311              		.loc 1 272 0
 1312 00d4 13B0     		add	sp, sp, #76
 1313              		.cfi_remember_state
 1314              		.cfi_def_cfa_offset 20
ARM GAS  C:\Users\pearlstl\AppData\Local\Temp\ccH1AW89.s 			page 37


 1315              		@ sp needed
 1316 00d6 F0BD     		pop	{r4, r5, r6, r7, pc}
 1317              	.LVL121:
 1318              	.L96:
 1319              		.cfi_restore_state
 1320              	.LBB58:
 1321              	.LBB56:
 1322              	.LBB54:
 237:..\..\..\lvgl\version_6.1.2\lvgl\src\lv_objx/lv_preload.c ****             lv_anim_t a;
 1323              		.loc 1 237 0
 1324 00d8 297A     		ldrb	r1, [r5, #8]	@ zero_extendqisi2
 254:..\..\..\lvgl\version_6.1.2\lvgl\src\lv_objx/lv_preload.c ****             a.playback_pause = 0;
 1325              		.loc 1 254 0
 1326 00da 9DF84420 		ldrb	r2, [sp, #68]	@ zero_extendqisi2
 249:..\..\..\lvgl\version_6.1.2\lvgl\src\lv_objx/lv_preload.c ****                                 lv_anim_path_linear : lv_anim_path_ease_in_out);
 1327              		.loc 1 249 0
 1328 00de 194F     		ldr	r7, .L98+4
 1329 00e0 1A4B     		ldr	r3, .L98+12
 253:..\..\..\lvgl\version_6.1.2\lvgl\src\lv_objx/lv_preload.c ****             a.playback       = 0;
 1330              		.loc 1 253 0
 1331 00e2 E888     		ldrh	r0, [r5, #6]
 237:..\..\..\lvgl\version_6.1.2\lvgl\src\lv_objx/lv_preload.c ****             lv_anim_t a;
 1332              		.loc 1 237 0
 1333 00e4 64F30101 		bfi	r1, r4, #0, #2
 1334 00e8 2972     		strb	r1, [r5, #8]
 240:..\..\..\lvgl\version_6.1.2\lvgl\src\lv_objx/lv_preload.c ****                 /* Clockwise */
 1335              		.loc 1 240 0
 1336 00ea C9B2     		uxtb	r1, r1
 1337 00ec 01F00401 		and	r1, r1, #4
 246:..\..\..\lvgl\version_6.1.2\lvgl\src\lv_objx/lv_preload.c ****             }
 1338              		.loc 1 246 0
 1339 00f0 0029     		cmp	r1, #0
 256:..\..\..\lvgl\version_6.1.2\lvgl\src\lv_objx/lv_preload.c ****             a.repeat_pause   = 0;
 1340              		.loc 1 256 0
 1341 00f2 02F0FE02 		and	r2, r2, #254
 251:..\..\..\lvgl\version_6.1.2\lvgl\src\lv_objx/lv_preload.c ****             a.act_time       = 0;
 1342              		.loc 1 251 0
 1343 00f6 4FF00001 		mov	r1, #0
 239:..\..\..\lvgl\version_6.1.2\lvgl\src\lv_objx/lv_preload.c ****             if(ext->anim_dir == LV_PRELOAD_DIR_FORWARD) {
 1344              		.loc 1 239 0
 1345 00fa 0996     		str	r6, [sp, #36]
 246:..\..\..\lvgl\version_6.1.2\lvgl\src\lv_objx/lv_preload.c ****             }
 1346              		.loc 1 246 0
 1347 00fc 07BF     		ittee	eq
 1348 00fe 4FF4B475 		moveq	r5, #360
 1349              	.LVL122:
 1350 0102 0026     		moveq	r6, #0
 1351              	.LVL123:
 1352 0104 4FF4B476 		movne	r6, #360
 1353 0108 0025     		movne	r5, #0
 256:..\..\..\lvgl\version_6.1.2\lvgl\src\lv_objx/lv_preload.c ****             a.repeat_pause   = 0;
 1354              		.loc 1 256 0
 1355 010a 42F00202 		orr	r2, r2, #2
 249:..\..\..\lvgl\version_6.1.2\lvgl\src\lv_objx/lv_preload.c ****                                 lv_anim_path_linear : lv_anim_path_ease_in_out);
 1356              		.loc 1 249 0
 1357 010e 022C     		cmp	r4, #2
 1358 0110 18BF     		it	ne
ARM GAS  C:\Users\pearlstl\AppData\Local\Temp\ccH1AW89.s 			page 38


 1359 0112 3B46     		movne	r3, r7
 253:..\..\..\lvgl\version_6.1.2\lvgl\src\lv_objx/lv_preload.c ****             a.playback       = 0;
 1360              		.loc 1 253 0
 1361 0114 ADF83C00 		strh	r0, [sp, #60]	@ movhi
 248:..\..\..\lvgl\version_6.1.2\lvgl\src\lv_objx/lv_preload.c ****             a.path_cb        = (LV_PRELOAD_TYPE_CONSTANT_ARC == type ?
 1362              		.loc 1 248 0
 1363 0118 094C     		ldr	r4, .L98
 1364 011a 0E96     		str	r6, [sp, #56]
 258:..\..\..\lvgl\version_6.1.2\lvgl\src\lv_objx/lv_preload.c ****             break;
 1365              		.loc 1 258 0
 1366 011c 09A8     		add	r0, sp, #36
 1367              	.LVL124:
 1368 011e 0D95     		str	r5, [sp, #52]
 256:..\..\..\lvgl\version_6.1.2\lvgl\src\lv_objx/lv_preload.c ****             a.repeat_pause   = 0;
 1369              		.loc 1 256 0
 1370 0120 8DF84420 		strb	r2, [sp, #68]
 249:..\..\..\lvgl\version_6.1.2\lvgl\src\lv_objx/lv_preload.c ****                                 lv_anim_path_linear : lv_anim_path_ease_in_out);
 1371              		.loc 1 249 0
 1372 0124 0B93     		str	r3, [sp, #44]
 248:..\..\..\lvgl\version_6.1.2\lvgl\src\lv_objx/lv_preload.c ****             a.path_cb        = (LV_PRELOAD_TYPE_CONSTANT_ARC == type ?
 1373              		.loc 1 248 0
 1374 0126 0A94     		str	r4, [sp, #40]
 251:..\..\..\lvgl\version_6.1.2\lvgl\src\lv_objx/lv_preload.c ****             a.act_time       = 0;
 1375              		.loc 1 251 0
 1376 0128 0C91     		str	r1, [sp, #48]
 252:..\..\..\lvgl\version_6.1.2\lvgl\src\lv_objx/lv_preload.c ****             a.time           = ext->time;
 1377              		.loc 1 252 0
 1378 012a ADF83E10 		strh	r1, [sp, #62]	@ movhi
 255:..\..\..\lvgl\version_6.1.2\lvgl\src\lv_objx/lv_preload.c ****             a.repeat         = 1;
 1379              		.loc 1 255 0
 1380 012e ADF84010 		strh	r1, [sp, #64]	@ movhi
 257:..\..\..\lvgl\version_6.1.2\lvgl\src\lv_objx/lv_preload.c ****             lv_anim_create(&a);
 1381              		.loc 1 257 0
 1382 0132 ADF84210 		strh	r1, [sp, #66]	@ movhi
 258:..\..\..\lvgl\version_6.1.2\lvgl\src\lv_objx/lv_preload.c ****             break;
 1383              		.loc 1 258 0
 1384 0136 FFF7FEFF 		bl	lv_anim_create
 1385              	.LVL125:
 1386              	.LBE54:
 1387              	.LBE56:
 1388              	.LBE58:
 272:..\..\..\lvgl\version_6.1.2\lvgl\src\lv_objx/lv_preload.c **** 
 1389              		.loc 1 272 0
 1390 013a 13B0     		add	sp, sp, #76
 1391              		.cfi_def_cfa_offset 20
 1392              		@ sp needed
 1393 013c F0BD     		pop	{r4, r5, r6, r7, pc}
 1394              	.L99:
 1395 013e 00BF     		.align	2
 1396              	.L98:
 1397 0140 00000000 		.word	lv_preload_spinner_anim
 1398 0144 00000000 		.word	lv_anim_path_ease_in_out
 1399 0148 00000000 		.word	lv_preload_set_arc_length
 1400 014c 00000000 		.word	lv_anim_path_linear
 1401              		.cfi_endproc
 1402              	.LFE36:
 1403              		.size	lv_preload_set_dir, .-lv_preload_set_dir
ARM GAS  C:\Users\pearlstl\AppData\Local\Temp\ccH1AW89.s 			page 39


 1404              		.section	.text.lv_preload_get_arc_length,"ax",%progbits
 1405              		.align	2
 1406              		.global	lv_preload_get_arc_length
 1407              		.thumb
 1408              		.thumb_func
 1409              		.type	lv_preload_get_arc_length, %function
 1410              	lv_preload_get_arc_length:
 1411              	.LFB37:
 283:..\..\..\lvgl\version_6.1.2\lvgl\src\lv_objx/lv_preload.c ****     LV_ASSERT_OBJ(preload, LV_OBJX_NAME);
 1412              		.loc 1 283 0
 1413              		.cfi_startproc
 1414              		@ args = 0, pretend = 0, frame = 0
 1415              		@ frame_needed = 0, uses_anonymous_args = 0
 1416              	.LVL126:
 1417 0000 08B5     		push	{r3, lr}
 1418              		.cfi_def_cfa_offset 8
 1419              		.cfi_offset 3, -8
 1420              		.cfi_offset 14, -4
 286:..\..\..\lvgl\version_6.1.2\lvgl\src\lv_objx/lv_preload.c ****     return ext->arc_length;
 1421              		.loc 1 286 0
 1422 0002 FFF7FEFF 		bl	lv_obj_get_ext_attr
 1423              	.LVL127:
 288:..\..\..\lvgl\version_6.1.2\lvgl\src\lv_objx/lv_preload.c **** 
 1424              		.loc 1 288 0
 1425 0006 B0F90400 		ldrsh	r0, [r0, #4]
 1426              	.LVL128:
 1427 000a 08BD     		pop	{r3, pc}
 1428              		.cfi_endproc
 1429              	.LFE37:
 1430              		.size	lv_preload_get_arc_length, .-lv_preload_get_arc_length
 1431              		.section	.text.lv_preload_get_spin_time,"ax",%progbits
 1432              		.align	2
 1433              		.global	lv_preload_get_spin_time
 1434              		.thumb
 1435              		.thumb_func
 1436              		.type	lv_preload_get_spin_time, %function
 1437              	lv_preload_get_spin_time:
 1438              	.LFB38:
 295:..\..\..\lvgl\version_6.1.2\lvgl\src\lv_objx/lv_preload.c ****     LV_ASSERT_OBJ(preload, LV_OBJX_NAME);
 1439              		.loc 1 295 0
 1440              		.cfi_startproc
 1441              		@ args = 0, pretend = 0, frame = 0
 1442              		@ frame_needed = 0, uses_anonymous_args = 0
 1443              	.LVL129:
 1444 0000 08B5     		push	{r3, lr}
 1445              		.cfi_def_cfa_offset 8
 1446              		.cfi_offset 3, -8
 1447              		.cfi_offset 14, -4
 298:..\..\..\lvgl\version_6.1.2\lvgl\src\lv_objx/lv_preload.c ****     return ext->time;
 1448              		.loc 1 298 0
 1449 0002 FFF7FEFF 		bl	lv_obj_get_ext_attr
 1450              	.LVL130:
 300:..\..\..\lvgl\version_6.1.2\lvgl\src\lv_objx/lv_preload.c **** 
 1451              		.loc 1 300 0
 1452 0006 C088     		ldrh	r0, [r0, #6]
 1453              	.LVL131:
 1454 0008 08BD     		pop	{r3, pc}
ARM GAS  C:\Users\pearlstl\AppData\Local\Temp\ccH1AW89.s 			page 40


 1455              		.cfi_endproc
 1456              	.LFE38:
 1457              		.size	lv_preload_get_spin_time, .-lv_preload_get_spin_time
 1458 000a 00BF     		.section	.text.lv_preload_get_style,"ax",%progbits
 1459              		.align	2
 1460              		.global	lv_preload_get_style
 1461              		.thumb
 1462              		.thumb_func
 1463              		.type	lv_preload_get_style, %function
 1464              	lv_preload_get_style:
 1465              	.LFB39:
 309:..\..\..\lvgl\version_6.1.2\lvgl\src\lv_objx/lv_preload.c ****     LV_ASSERT_OBJ(preload, LV_OBJX_NAME);
 1466              		.loc 1 309 0
 1467              		.cfi_startproc
 1468              		@ args = 0, pretend = 0, frame = 0
 1469              		@ frame_needed = 0, uses_anonymous_args = 0
 1470              		@ link register save eliminated.
 1471              	.LVL132:
 314:..\..\..\lvgl\version_6.1.2\lvgl\src\lv_objx/lv_preload.c ****         case LV_PRELOAD_STYLE_MAIN: style = lv_arc_get_style(preload, LV_ARC_STYLE_MAIN); break;
 1472              		.loc 1 314 0
 1473 0000 09B9     		cbnz	r1, .L107
 315:..\..\..\lvgl\version_6.1.2\lvgl\src\lv_objx/lv_preload.c ****         default: style = NULL; break;
 1474              		.loc 1 315 0
 1475 0002 FFF7FEBF 		b	lv_arc_get_style
 1476              	.LVL133:
 1477              	.L107:
 320:..\..\..\lvgl\version_6.1.2\lvgl\src\lv_objx/lv_preload.c **** 
 1478              		.loc 1 320 0
 1479 0006 0020     		movs	r0, #0
 1480              	.LVL134:
 1481 0008 7047     		bx	lr
 1482              		.cfi_endproc
 1483              	.LFE39:
 1484              		.size	lv_preload_get_style, .-lv_preload_get_style
 1485 000a 00BF     		.section	.text.lv_preload_get_type,"ax",%progbits
 1486              		.align	2
 1487              		.global	lv_preload_get_type
 1488              		.thumb
 1489              		.thumb_func
 1490              		.type	lv_preload_get_type, %function
 1491              	lv_preload_get_type:
 1492              	.LFB40:
 328:..\..\..\lvgl\version_6.1.2\lvgl\src\lv_objx/lv_preload.c ****     LV_ASSERT_OBJ(preload, LV_OBJX_NAME);
 1493              		.loc 1 328 0
 1494              		.cfi_startproc
 1495              		@ args = 0, pretend = 0, frame = 0
 1496              		@ frame_needed = 0, uses_anonymous_args = 0
 1497              	.LVL135:
 1498 0000 08B5     		push	{r3, lr}
 1499              		.cfi_def_cfa_offset 8
 1500              		.cfi_offset 3, -8
 1501              		.cfi_offset 14, -4
 331:..\..\..\lvgl\version_6.1.2\lvgl\src\lv_objx/lv_preload.c ****     return ext->anim_type;
 1502              		.loc 1 331 0
 1503 0002 FFF7FEFF 		bl	lv_obj_get_ext_attr
 1504              	.LVL136:
 332:..\..\..\lvgl\version_6.1.2\lvgl\src\lv_objx/lv_preload.c **** }
ARM GAS  C:\Users\pearlstl\AppData\Local\Temp\ccH1AW89.s 			page 41


 1505              		.loc 1 332 0
 1506 0006 007A     		ldrb	r0, [r0, #8]	@ zero_extendqisi2
 1507              	.LVL137:
 333:..\..\..\lvgl\version_6.1.2\lvgl\src\lv_objx/lv_preload.c **** 
 1508              		.loc 1 333 0
 1509 0008 00F00300 		and	r0, r0, #3
 1510 000c 08BD     		pop	{r3, pc}
 1511              		.cfi_endproc
 1512              	.LFE40:
 1513              		.size	lv_preload_get_type, .-lv_preload_get_type
 1514 000e 00BF     		.section	.text.lv_preload_get_dir,"ax",%progbits
 1515              		.align	2
 1516              		.global	lv_preload_get_dir
 1517              		.thumb
 1518              		.thumb_func
 1519              		.type	lv_preload_get_dir, %function
 1520              	lv_preload_get_dir:
 1521              	.LFB41:
 336:..\..\..\lvgl\version_6.1.2\lvgl\src\lv_objx/lv_preload.c ****     lv_preload_ext_t * ext = lv_obj_get_ext_attr(preload);
 1522              		.loc 1 336 0
 1523              		.cfi_startproc
 1524              		@ args = 0, pretend = 0, frame = 0
 1525              		@ frame_needed = 0, uses_anonymous_args = 0
 1526              	.LVL138:
 1527 0000 08B5     		push	{r3, lr}
 1528              		.cfi_def_cfa_offset 8
 1529              		.cfi_offset 3, -8
 1530              		.cfi_offset 14, -4
 337:..\..\..\lvgl\version_6.1.2\lvgl\src\lv_objx/lv_preload.c ****     return ext->anim_dir;
 1531              		.loc 1 337 0
 1532 0002 FFF7FEFF 		bl	lv_obj_get_ext_attr
 1533              	.LVL139:
 338:..\..\..\lvgl\version_6.1.2\lvgl\src\lv_objx/lv_preload.c **** }
 1534              		.loc 1 338 0
 1535 0006 007A     		ldrb	r0, [r0, #8]	@ zero_extendqisi2
 1536              	.LVL140:
 339:..\..\..\lvgl\version_6.1.2\lvgl\src\lv_objx/lv_preload.c **** 
 1537              		.loc 1 339 0
 1538 0008 C0F38000 		ubfx	r0, r0, #2, #1
 1539 000c 08BD     		pop	{r3, pc}
 1540              		.cfi_endproc
 1541              	.LFE41:
 1542              		.size	lv_preload_get_dir, .-lv_preload_get_dir
 1543 000e 00BF     		.section	.rodata.str1.4,"aMS",%progbits,1
 1544              		.align	2
 1545              	.LC0:
 1546 0000 6C765F70 		.ascii	"lv_preloader\000"
 1546      72656C6F 
 1546      61646572 
 1546      00
 1547              		.bss
 1548              		.align	2
 1549              		.set	.LANCHOR0,. + 0
 1550              		.type	ancestor_design, %object
 1551              		.size	ancestor_design, 4
 1552              	ancestor_design:
 1553 0000 00000000 		.space	4
ARM GAS  C:\Users\pearlstl\AppData\Local\Temp\ccH1AW89.s 			page 42


 1554              		.type	ancestor_signal, %object
 1555              		.size	ancestor_signal, 4
 1556              	ancestor_signal:
 1557 0004 00000000 		.space	4
 1558              		.text
 1559              	.Letext0:
 1560              		.file 2 "c:\\program files (x86)\\cypress\\psoc creator\\4.2\\psoc creator\\import\\gnu\\arm\\5.4.
 1561              		.file 3 "c:\\program files (x86)\\cypress\\psoc creator\\4.2\\psoc creator\\import\\gnu\\arm\\5.4.
 1562              		.file 4 "..\\..\\..\\lvgl\\version_6.1.2\\lvgl\\src\\lv_objx\\../../../lv_conf.h"
 1563              		.file 5 "..\\..\\..\\lvgl\\version_6.1.2\\lvgl\\src\\lv_objx\\../lv_core/../lv_font/lv_font.h"
 1564              		.file 6 "..\\..\\..\\lvgl\\version_6.1.2\\lvgl\\src\\lv_objx\\../lv_core/../lv_misc/lv_color.h"
 1565              		.file 7 "..\\..\\..\\lvgl\\version_6.1.2\\lvgl\\src\\lv_objx\\../lv_core/../lv_misc/lv_area.h"
 1566              		.file 8 "..\\..\\..\\lvgl\\version_6.1.2\\lvgl\\src\\lv_objx\\../lv_core/../lv_misc/lv_anim.h"
 1567              		.file 9 "..\\..\\..\\lvgl\\version_6.1.2\\lvgl\\src\\lv_objx\\../lv_core/lv_style.h"
 1568              		.file 10 "..\\..\\..\\lvgl\\version_6.1.2\\lvgl\\src\\lv_objx\\../lv_core/../lv_misc/lv_types.h"
 1569              		.file 11 "..\\..\\..\\lvgl\\version_6.1.2\\lvgl\\src\\lv_objx\\../lv_core/../lv_misc/lv_ll.h"
 1570              		.file 12 "..\\..\\..\\lvgl\\version_6.1.2\\lvgl\\src\\lv_objx\\../lv_core/../lv_misc/lv_bidi.h"
 1571              		.file 13 "..\\..\\..\\lvgl\\version_6.1.2\\lvgl\\src\\lv_objx\\../lv_core/lv_obj.h"
 1572              		.file 14 "..\\..\\..\\lvgl\\version_6.1.2\\lvgl\\src\\lv_objx\\lv_arc.h"
 1573              		.file 15 "..\\..\\..\\lvgl\\version_6.1.2\\lvgl\\src\\lv_objx\\lv_preload.h"
 1574              		.file 16 "..\\..\\..\\lvgl\\version_6.1.2\\lvgl\\src\\lv_objx\\../lv_themes/lv_theme.h"
 1575              		.file 17 "..\\..\\..\\lvgl\\version_6.1.2\\lvgl\\src\\lv_objx\\../lv_draw/lv_draw_rect.h"