ARM GAS  C:\Users\pearlstl\AppData\Local\Temp\ccbpFzqf.s 			page 1


   1              		.syntax unified
   2              		.cpu cortex-m4
   3              		.eabi_attribute 27, 1
   4              		.fpu fpv4-sp-d16
   5              		.eabi_attribute 20, 1
   6              		.eabi_attribute 21, 1
   7              		.eabi_attribute 23, 3
   8              		.eabi_attribute 24, 1
   9              		.eabi_attribute 25, 1
  10              		.eabi_attribute 26, 1
  11              		.eabi_attribute 30, 2
  12              		.eabi_attribute 34, 1
  13              		.eabi_attribute 18, 4
  14              		.thumb
  15              		.syntax unified
  16              		.file	"lv_printf.c"
  17              		.text
  18              	.Ltext0:
  19              		.cfi_sections	.debug_frame
  20              		.section	.text._out_buffer,"ax",%progbits
  21              		.align	2
  22              		.thumb
  23              		.thumb_func
  24              		.type	_out_buffer, %function
  25              	_out_buffer:
  26              	.LFB0:
  27              		.file 1 "..\\..\\..\\lvgl\\version_6.1.2\\lvgl\\src\\lv_misc\\lv_printf.c"
   1:..\..\..\lvgl\version_6.1.2\lvgl\src\lv_misc/lv_printf.c **** ///////////////////////////////////////////////////////////////////////////////
   2:..\..\..\lvgl\version_6.1.2\lvgl\src\lv_misc/lv_printf.c **** // \author (c) Marco Paland (info@paland.com)
   3:..\..\..\lvgl\version_6.1.2\lvgl\src\lv_misc/lv_printf.c **** //             2014-2019, PALANDesign Hannover, Germany
   4:..\..\..\lvgl\version_6.1.2\lvgl\src\lv_misc/lv_printf.c **** //
   5:..\..\..\lvgl\version_6.1.2\lvgl\src\lv_misc/lv_printf.c **** // \license The MIT License (MIT)
   6:..\..\..\lvgl\version_6.1.2\lvgl\src\lv_misc/lv_printf.c **** //
   7:..\..\..\lvgl\version_6.1.2\lvgl\src\lv_misc/lv_printf.c **** // Permission is hereby granted, free of charge, to any person obtaining a copy
   8:..\..\..\lvgl\version_6.1.2\lvgl\src\lv_misc/lv_printf.c **** // of this software and associated documentation files (the "Software"), to deal
   9:..\..\..\lvgl\version_6.1.2\lvgl\src\lv_misc/lv_printf.c **** // in the Software without restriction, including without limitation the rights
  10:..\..\..\lvgl\version_6.1.2\lvgl\src\lv_misc/lv_printf.c **** // to use, copy, modify, merge, publish, distribute, sublicense, and/or sell
  11:..\..\..\lvgl\version_6.1.2\lvgl\src\lv_misc/lv_printf.c **** // copies of the Software, and to permit persons to whom the Software is
  12:..\..\..\lvgl\version_6.1.2\lvgl\src\lv_misc/lv_printf.c **** // furnished to do so, subject to the following conditions:
  13:..\..\..\lvgl\version_6.1.2\lvgl\src\lv_misc/lv_printf.c **** //
  14:..\..\..\lvgl\version_6.1.2\lvgl\src\lv_misc/lv_printf.c **** // The above copyright notice and this permission notice shall be included in
  15:..\..\..\lvgl\version_6.1.2\lvgl\src\lv_misc/lv_printf.c **** // all copies or substantial portions of the Software.
  16:..\..\..\lvgl\version_6.1.2\lvgl\src\lv_misc/lv_printf.c **** //
  17:..\..\..\lvgl\version_6.1.2\lvgl\src\lv_misc/lv_printf.c **** // THE SOFTWARE IS PROVIDED "AS IS", WITHOUT WARRANTY OF ANY KIND, EXPRESS OR
  18:..\..\..\lvgl\version_6.1.2\lvgl\src\lv_misc/lv_printf.c **** // IMPLIED, INCLUDING BUT NOT LIMITED TO THE WARRANTIES OF MERCHANTABILITY,
  19:..\..\..\lvgl\version_6.1.2\lvgl\src\lv_misc/lv_printf.c **** // FITNESS FOR A PARTICULAR PURPOSE AND NONINFRINGEMENT. IN NO EVENT SHALL THE
  20:..\..\..\lvgl\version_6.1.2\lvgl\src\lv_misc/lv_printf.c **** // AUTHORS OR COPYRIGHT HOLDERS BE LIABLE FOR ANY CLAIM, DAMAGES OR OTHER
  21:..\..\..\lvgl\version_6.1.2\lvgl\src\lv_misc/lv_printf.c **** // LIABILITY, WHETHER IN AN ACTION OF CONTRACT, TORT OR OTHERWISE, ARISING FROM,
  22:..\..\..\lvgl\version_6.1.2\lvgl\src\lv_misc/lv_printf.c **** // OUT OF OR IN CONNECTION WITH THE SOFTWARE OR THE USE OR OTHER DEALINGS IN
  23:..\..\..\lvgl\version_6.1.2\lvgl\src\lv_misc/lv_printf.c **** // THE SOFTWARE.
  24:..\..\..\lvgl\version_6.1.2\lvgl\src\lv_misc/lv_printf.c **** //
  25:..\..\..\lvgl\version_6.1.2\lvgl\src\lv_misc/lv_printf.c **** // \brief Tiny printf, sprintf and (v)snprintf implementation, optimized for speed on
  26:..\..\..\lvgl\version_6.1.2\lvgl\src\lv_misc/lv_printf.c **** //        embedded systems with a very limited resources. These routines are thread
  27:..\..\..\lvgl\version_6.1.2\lvgl\src\lv_misc/lv_printf.c **** //        safe and reentrant!
  28:..\..\..\lvgl\version_6.1.2\lvgl\src\lv_misc/lv_printf.c **** //        Use this instead of the bloated standard/newlib printf cause these use
  29:..\..\..\lvgl\version_6.1.2\lvgl\src\lv_misc/lv_printf.c **** //        malloc for printf (and may not be thread safe).
  30:..\..\..\lvgl\version_6.1.2\lvgl\src\lv_misc/lv_printf.c **** //
ARM GAS  C:\Users\pearlstl\AppData\Local\Temp\ccbpFzqf.s 			page 2


  31:..\..\..\lvgl\version_6.1.2\lvgl\src\lv_misc/lv_printf.c **** ///////////////////////////////////////////////////////////////////////////////
  32:..\..\..\lvgl\version_6.1.2\lvgl\src\lv_misc/lv_printf.c **** 
  33:..\..\..\lvgl\version_6.1.2\lvgl\src\lv_misc/lv_printf.c **** #include "lv_printf.h"
  34:..\..\..\lvgl\version_6.1.2\lvgl\src\lv_misc/lv_printf.c **** 
  35:..\..\..\lvgl\version_6.1.2\lvgl\src\lv_misc/lv_printf.c **** #if LV_SPRINTF_CUSTOM == 0
  36:..\..\..\lvgl\version_6.1.2\lvgl\src\lv_misc/lv_printf.c **** 
  37:..\..\..\lvgl\version_6.1.2\lvgl\src\lv_misc/lv_printf.c **** #include <stdbool.h>
  38:..\..\..\lvgl\version_6.1.2\lvgl\src\lv_misc/lv_printf.c **** #include <stdint.h>
  39:..\..\..\lvgl\version_6.1.2\lvgl\src\lv_misc/lv_printf.c **** 
  40:..\..\..\lvgl\version_6.1.2\lvgl\src\lv_misc/lv_printf.c **** 
  41:..\..\..\lvgl\version_6.1.2\lvgl\src\lv_misc/lv_printf.c **** // 'ntoa' conversion buffer size, this must be big enough to hold one converted
  42:..\..\..\lvgl\version_6.1.2\lvgl\src\lv_misc/lv_printf.c **** // numeric number including padded zeros (dynamically created on stack)
  43:..\..\..\lvgl\version_6.1.2\lvgl\src\lv_misc/lv_printf.c **** // default: 32 byte
  44:..\..\..\lvgl\version_6.1.2\lvgl\src\lv_misc/lv_printf.c **** #ifndef PRINTF_NTOA_BUFFER_SIZE
  45:..\..\..\lvgl\version_6.1.2\lvgl\src\lv_misc/lv_printf.c **** #define PRINTF_NTOA_BUFFER_SIZE    32U
  46:..\..\..\lvgl\version_6.1.2\lvgl\src\lv_misc/lv_printf.c **** #endif
  47:..\..\..\lvgl\version_6.1.2\lvgl\src\lv_misc/lv_printf.c **** 
  48:..\..\..\lvgl\version_6.1.2\lvgl\src\lv_misc/lv_printf.c **** // 'ftoa' conversion buffer size, this must be big enough to hold one converted
  49:..\..\..\lvgl\version_6.1.2\lvgl\src\lv_misc/lv_printf.c **** // float number including padded zeros (dynamically created on stack)
  50:..\..\..\lvgl\version_6.1.2\lvgl\src\lv_misc/lv_printf.c **** // default: 32 byte
  51:..\..\..\lvgl\version_6.1.2\lvgl\src\lv_misc/lv_printf.c **** #ifndef PRINTF_FTOA_BUFFER_SIZE
  52:..\..\..\lvgl\version_6.1.2\lvgl\src\lv_misc/lv_printf.c **** #define PRINTF_FTOA_BUFFER_SIZE    32U
  53:..\..\..\lvgl\version_6.1.2\lvgl\src\lv_misc/lv_printf.c **** #endif
  54:..\..\..\lvgl\version_6.1.2\lvgl\src\lv_misc/lv_printf.c **** 
  55:..\..\..\lvgl\version_6.1.2\lvgl\src\lv_misc/lv_printf.c **** // support for the floating point type (%f)
  56:..\..\..\lvgl\version_6.1.2\lvgl\src\lv_misc/lv_printf.c **** // default: activated
  57:..\..\..\lvgl\version_6.1.2\lvgl\src\lv_misc/lv_printf.c **** #ifndef PRINTF_DISABLE_SUPPORT_FLOAT
  58:..\..\..\lvgl\version_6.1.2\lvgl\src\lv_misc/lv_printf.c **** #define PRINTF_SUPPORT_FLOAT
  59:..\..\..\lvgl\version_6.1.2\lvgl\src\lv_misc/lv_printf.c **** #endif
  60:..\..\..\lvgl\version_6.1.2\lvgl\src\lv_misc/lv_printf.c **** 
  61:..\..\..\lvgl\version_6.1.2\lvgl\src\lv_misc/lv_printf.c **** // support for exponential floating point notation (%e/%g)
  62:..\..\..\lvgl\version_6.1.2\lvgl\src\lv_misc/lv_printf.c **** // default: activated
  63:..\..\..\lvgl\version_6.1.2\lvgl\src\lv_misc/lv_printf.c **** #ifndef PRINTF_DISABLE_SUPPORT_EXPONENTIAL
  64:..\..\..\lvgl\version_6.1.2\lvgl\src\lv_misc/lv_printf.c **** #define PRINTF_SUPPORT_EXPONENTIAL
  65:..\..\..\lvgl\version_6.1.2\lvgl\src\lv_misc/lv_printf.c **** #endif
  66:..\..\..\lvgl\version_6.1.2\lvgl\src\lv_misc/lv_printf.c **** 
  67:..\..\..\lvgl\version_6.1.2\lvgl\src\lv_misc/lv_printf.c **** // define the default floating point precision
  68:..\..\..\lvgl\version_6.1.2\lvgl\src\lv_misc/lv_printf.c **** // default: 6 digits
  69:..\..\..\lvgl\version_6.1.2\lvgl\src\lv_misc/lv_printf.c **** #ifndef PRINTF_DEFAULT_FLOAT_PRECISION
  70:..\..\..\lvgl\version_6.1.2\lvgl\src\lv_misc/lv_printf.c **** #define PRINTF_DEFAULT_FLOAT_PRECISION  6U
  71:..\..\..\lvgl\version_6.1.2\lvgl\src\lv_misc/lv_printf.c **** #endif
  72:..\..\..\lvgl\version_6.1.2\lvgl\src\lv_misc/lv_printf.c **** 
  73:..\..\..\lvgl\version_6.1.2\lvgl\src\lv_misc/lv_printf.c **** // define the largest float suitable to print with %f
  74:..\..\..\lvgl\version_6.1.2\lvgl\src\lv_misc/lv_printf.c **** // default: 1e9
  75:..\..\..\lvgl\version_6.1.2\lvgl\src\lv_misc/lv_printf.c **** #ifndef PRINTF_MAX_FLOAT
  76:..\..\..\lvgl\version_6.1.2\lvgl\src\lv_misc/lv_printf.c **** #define PRINTF_MAX_FLOAT  1e9
  77:..\..\..\lvgl\version_6.1.2\lvgl\src\lv_misc/lv_printf.c **** #endif
  78:..\..\..\lvgl\version_6.1.2\lvgl\src\lv_misc/lv_printf.c **** 
  79:..\..\..\lvgl\version_6.1.2\lvgl\src\lv_misc/lv_printf.c **** // support for the long long types (%llu or %p)
  80:..\..\..\lvgl\version_6.1.2\lvgl\src\lv_misc/lv_printf.c **** // default: activated
  81:..\..\..\lvgl\version_6.1.2\lvgl\src\lv_misc/lv_printf.c **** #ifndef PRINTF_DISABLE_SUPPORT_LONG_LONG
  82:..\..\..\lvgl\version_6.1.2\lvgl\src\lv_misc/lv_printf.c **** #define PRINTF_SUPPORT_LONG_LONG
  83:..\..\..\lvgl\version_6.1.2\lvgl\src\lv_misc/lv_printf.c **** #endif
  84:..\..\..\lvgl\version_6.1.2\lvgl\src\lv_misc/lv_printf.c **** 
  85:..\..\..\lvgl\version_6.1.2\lvgl\src\lv_misc/lv_printf.c **** // support for the ptrdiff_t type (%t)
  86:..\..\..\lvgl\version_6.1.2\lvgl\src\lv_misc/lv_printf.c **** // ptrdiff_t is normally defined in <stddef.h> as long or long long type
  87:..\..\..\lvgl\version_6.1.2\lvgl\src\lv_misc/lv_printf.c **** // default: activated
ARM GAS  C:\Users\pearlstl\AppData\Local\Temp\ccbpFzqf.s 			page 3


  88:..\..\..\lvgl\version_6.1.2\lvgl\src\lv_misc/lv_printf.c **** #ifndef PRINTF_DISABLE_SUPPORT_PTRDIFF_T
  89:..\..\..\lvgl\version_6.1.2\lvgl\src\lv_misc/lv_printf.c **** #define PRINTF_SUPPORT_PTRDIFF_T
  90:..\..\..\lvgl\version_6.1.2\lvgl\src\lv_misc/lv_printf.c **** #endif
  91:..\..\..\lvgl\version_6.1.2\lvgl\src\lv_misc/lv_printf.c **** 
  92:..\..\..\lvgl\version_6.1.2\lvgl\src\lv_misc/lv_printf.c **** ///////////////////////////////////////////////////////////////////////////////
  93:..\..\..\lvgl\version_6.1.2\lvgl\src\lv_misc/lv_printf.c **** 
  94:..\..\..\lvgl\version_6.1.2\lvgl\src\lv_misc/lv_printf.c **** // internal flag definitions
  95:..\..\..\lvgl\version_6.1.2\lvgl\src\lv_misc/lv_printf.c **** #define FLAGS_ZEROPAD   (1U <<  0U)
  96:..\..\..\lvgl\version_6.1.2\lvgl\src\lv_misc/lv_printf.c **** #define FLAGS_LEFT      (1U <<  1U)
  97:..\..\..\lvgl\version_6.1.2\lvgl\src\lv_misc/lv_printf.c **** #define FLAGS_PLUS      (1U <<  2U)
  98:..\..\..\lvgl\version_6.1.2\lvgl\src\lv_misc/lv_printf.c **** #define FLAGS_SPACE     (1U <<  3U)
  99:..\..\..\lvgl\version_6.1.2\lvgl\src\lv_misc/lv_printf.c **** #define FLAGS_HASH      (1U <<  4U)
 100:..\..\..\lvgl\version_6.1.2\lvgl\src\lv_misc/lv_printf.c **** #define FLAGS_UPPERCASE (1U <<  5U)
 101:..\..\..\lvgl\version_6.1.2\lvgl\src\lv_misc/lv_printf.c **** #define FLAGS_CHAR      (1U <<  6U)
 102:..\..\..\lvgl\version_6.1.2\lvgl\src\lv_misc/lv_printf.c **** #define FLAGS_SHORT     (1U <<  7U)
 103:..\..\..\lvgl\version_6.1.2\lvgl\src\lv_misc/lv_printf.c **** #define FLAGS_LONG      (1U <<  8U)
 104:..\..\..\lvgl\version_6.1.2\lvgl\src\lv_misc/lv_printf.c **** #define FLAGS_LONG_LONG (1U <<  9U)
 105:..\..\..\lvgl\version_6.1.2\lvgl\src\lv_misc/lv_printf.c **** #define FLAGS_PRECISION (1U << 10U)
 106:..\..\..\lvgl\version_6.1.2\lvgl\src\lv_misc/lv_printf.c **** #define FLAGS_ADAPT_EXP (1U << 11U)
 107:..\..\..\lvgl\version_6.1.2\lvgl\src\lv_misc/lv_printf.c **** 
 108:..\..\..\lvgl\version_6.1.2\lvgl\src\lv_misc/lv_printf.c **** 
 109:..\..\..\lvgl\version_6.1.2\lvgl\src\lv_misc/lv_printf.c **** // import float.h for DBL_MAX
 110:..\..\..\lvgl\version_6.1.2\lvgl\src\lv_misc/lv_printf.c **** #if defined(PRINTF_SUPPORT_FLOAT)
 111:..\..\..\lvgl\version_6.1.2\lvgl\src\lv_misc/lv_printf.c **** #include <float.h>
 112:..\..\..\lvgl\version_6.1.2\lvgl\src\lv_misc/lv_printf.c **** #endif
 113:..\..\..\lvgl\version_6.1.2\lvgl\src\lv_misc/lv_printf.c **** 
 114:..\..\..\lvgl\version_6.1.2\lvgl\src\lv_misc/lv_printf.c **** 
 115:..\..\..\lvgl\version_6.1.2\lvgl\src\lv_misc/lv_printf.c **** // output function type
 116:..\..\..\lvgl\version_6.1.2\lvgl\src\lv_misc/lv_printf.c **** typedef void (*out_fct_type)(char character, void* buffer, size_t idx, size_t maxlen);
 117:..\..\..\lvgl\version_6.1.2\lvgl\src\lv_misc/lv_printf.c **** 
 118:..\..\..\lvgl\version_6.1.2\lvgl\src\lv_misc/lv_printf.c **** 
 119:..\..\..\lvgl\version_6.1.2\lvgl\src\lv_misc/lv_printf.c **** // wrapper (used as buffer) for output function type
 120:..\..\..\lvgl\version_6.1.2\lvgl\src\lv_misc/lv_printf.c **** typedef struct {
 121:..\..\..\lvgl\version_6.1.2\lvgl\src\lv_misc/lv_printf.c ****   void  (*fct)(char character, void* arg);
 122:..\..\..\lvgl\version_6.1.2\lvgl\src\lv_misc/lv_printf.c ****   void* arg;
 123:..\..\..\lvgl\version_6.1.2\lvgl\src\lv_misc/lv_printf.c **** } out_fct_wrap_type;
 124:..\..\..\lvgl\version_6.1.2\lvgl\src\lv_misc/lv_printf.c **** 
 125:..\..\..\lvgl\version_6.1.2\lvgl\src\lv_misc/lv_printf.c **** 
 126:..\..\..\lvgl\version_6.1.2\lvgl\src\lv_misc/lv_printf.c **** // internal buffer output
 127:..\..\..\lvgl\version_6.1.2\lvgl\src\lv_misc/lv_printf.c **** static inline void _out_buffer(char character, void* buffer, size_t idx, size_t maxlen)
 128:..\..\..\lvgl\version_6.1.2\lvgl\src\lv_misc/lv_printf.c **** {
  28              		.loc 1 128 0
  29              		.cfi_startproc
  30              		@ args = 0, pretend = 0, frame = 0
  31              		@ frame_needed = 0, uses_anonymous_args = 0
  32              		@ link register save eliminated.
  33              	.LVL0:
 129:..\..\..\lvgl\version_6.1.2\lvgl\src\lv_misc/lv_printf.c ****   if (idx < maxlen) {
  34              		.loc 1 129 0
  35 0000 9A42     		cmp	r2, r3
 130:..\..\..\lvgl\version_6.1.2\lvgl\src\lv_misc/lv_printf.c ****     ((char*)buffer)[idx] = character;
  36              		.loc 1 130 0
  37 0002 38BF     		it	cc
  38 0004 8854     		strbcc	r0, [r1, r2]
  39 0006 7047     		bx	lr
  40              		.cfi_endproc
  41              	.LFE0:
ARM GAS  C:\Users\pearlstl\AppData\Local\Temp\ccbpFzqf.s 			page 4


  42              		.size	_out_buffer, .-_out_buffer
  43              		.section	.text._out_null,"ax",%progbits
  44              		.align	2
  45              		.thumb
  46              		.thumb_func
  47              		.type	_out_null, %function
  48              	_out_null:
  49              	.LFB1:
 131:..\..\..\lvgl\version_6.1.2\lvgl\src\lv_misc/lv_printf.c ****   }
 132:..\..\..\lvgl\version_6.1.2\lvgl\src\lv_misc/lv_printf.c **** }
 133:..\..\..\lvgl\version_6.1.2\lvgl\src\lv_misc/lv_printf.c **** 
 134:..\..\..\lvgl\version_6.1.2\lvgl\src\lv_misc/lv_printf.c **** 
 135:..\..\..\lvgl\version_6.1.2\lvgl\src\lv_misc/lv_printf.c **** // internal null output
 136:..\..\..\lvgl\version_6.1.2\lvgl\src\lv_misc/lv_printf.c **** static inline void _out_null(char character, void* buffer, size_t idx, size_t maxlen)
 137:..\..\..\lvgl\version_6.1.2\lvgl\src\lv_misc/lv_printf.c **** {
  50              		.loc 1 137 0
  51              		.cfi_startproc
  52              		@ args = 0, pretend = 0, frame = 0
  53              		@ frame_needed = 0, uses_anonymous_args = 0
  54              		@ link register save eliminated.
  55              	.LVL1:
  56 0000 7047     		bx	lr
  57              		.cfi_endproc
  58              	.LFE1:
  59              		.size	_out_null, .-_out_null
  60 0002 00BF     		.section	.text._ntoa_format,"ax",%progbits
  61              		.align	2
  62              		.thumb
  63              		.thumb_func
  64              		.type	_ntoa_format, %function
  65              	_ntoa_format:
  66              	.LFB6:
 138:..\..\..\lvgl\version_6.1.2\lvgl\src\lv_misc/lv_printf.c ****   (void)character; (void)buffer; (void)idx; (void)maxlen;
 139:..\..\..\lvgl\version_6.1.2\lvgl\src\lv_misc/lv_printf.c **** }
 140:..\..\..\lvgl\version_6.1.2\lvgl\src\lv_misc/lv_printf.c **** 
 141:..\..\..\lvgl\version_6.1.2\lvgl\src\lv_misc/lv_printf.c **** 
 142:..\..\..\lvgl\version_6.1.2\lvgl\src\lv_misc/lv_printf.c **** 
 143:..\..\..\lvgl\version_6.1.2\lvgl\src\lv_misc/lv_printf.c **** // internal secure strlen
 144:..\..\..\lvgl\version_6.1.2\lvgl\src\lv_misc/lv_printf.c **** // \return The length of the string (excluding the terminating 0) limited by 'maxsize'
 145:..\..\..\lvgl\version_6.1.2\lvgl\src\lv_misc/lv_printf.c **** static inline unsigned int _strnlen_s(const char* str, size_t maxsize)
 146:..\..\..\lvgl\version_6.1.2\lvgl\src\lv_misc/lv_printf.c **** {
 147:..\..\..\lvgl\version_6.1.2\lvgl\src\lv_misc/lv_printf.c ****   const char* s;
 148:..\..\..\lvgl\version_6.1.2\lvgl\src\lv_misc/lv_printf.c ****   for (s = str; *s && maxsize--; ++s);
 149:..\..\..\lvgl\version_6.1.2\lvgl\src\lv_misc/lv_printf.c ****   return (unsigned int)(s - str);
 150:..\..\..\lvgl\version_6.1.2\lvgl\src\lv_misc/lv_printf.c **** }
 151:..\..\..\lvgl\version_6.1.2\lvgl\src\lv_misc/lv_printf.c **** 
 152:..\..\..\lvgl\version_6.1.2\lvgl\src\lv_misc/lv_printf.c **** 
 153:..\..\..\lvgl\version_6.1.2\lvgl\src\lv_misc/lv_printf.c **** // internal test if char is a digit (0-9)
 154:..\..\..\lvgl\version_6.1.2\lvgl\src\lv_misc/lv_printf.c **** // \return true if char is a digit
 155:..\..\..\lvgl\version_6.1.2\lvgl\src\lv_misc/lv_printf.c **** static inline bool _is_digit(char ch)
 156:..\..\..\lvgl\version_6.1.2\lvgl\src\lv_misc/lv_printf.c **** {
 157:..\..\..\lvgl\version_6.1.2\lvgl\src\lv_misc/lv_printf.c ****   return (ch >= '0') && (ch <= '9');
 158:..\..\..\lvgl\version_6.1.2\lvgl\src\lv_misc/lv_printf.c **** }
 159:..\..\..\lvgl\version_6.1.2\lvgl\src\lv_misc/lv_printf.c **** 
 160:..\..\..\lvgl\version_6.1.2\lvgl\src\lv_misc/lv_printf.c **** 
 161:..\..\..\lvgl\version_6.1.2\lvgl\src\lv_misc/lv_printf.c **** // internal ASCII string to unsigned int conversion
 162:..\..\..\lvgl\version_6.1.2\lvgl\src\lv_misc/lv_printf.c **** static unsigned int _atoi(const char** str)
ARM GAS  C:\Users\pearlstl\AppData\Local\Temp\ccbpFzqf.s 			page 5


 163:..\..\..\lvgl\version_6.1.2\lvgl\src\lv_misc/lv_printf.c **** {
 164:..\..\..\lvgl\version_6.1.2\lvgl\src\lv_misc/lv_printf.c ****   unsigned int i = 0U;
 165:..\..\..\lvgl\version_6.1.2\lvgl\src\lv_misc/lv_printf.c ****   while (_is_digit(**str)) {
 166:..\..\..\lvgl\version_6.1.2\lvgl\src\lv_misc/lv_printf.c ****     i = i * 10U + (unsigned int)(*((*str)++) - '0');
 167:..\..\..\lvgl\version_6.1.2\lvgl\src\lv_misc/lv_printf.c ****   }
 168:..\..\..\lvgl\version_6.1.2\lvgl\src\lv_misc/lv_printf.c ****   return i;
 169:..\..\..\lvgl\version_6.1.2\lvgl\src\lv_misc/lv_printf.c **** }
 170:..\..\..\lvgl\version_6.1.2\lvgl\src\lv_misc/lv_printf.c **** 
 171:..\..\..\lvgl\version_6.1.2\lvgl\src\lv_misc/lv_printf.c **** 
 172:..\..\..\lvgl\version_6.1.2\lvgl\src\lv_misc/lv_printf.c **** // output the specified string in reverse, taking care of any zero-padding
 173:..\..\..\lvgl\version_6.1.2\lvgl\src\lv_misc/lv_printf.c **** static size_t _out_rev(out_fct_type out, char* buffer, size_t idx, size_t maxlen, const char* buf, 
 174:..\..\..\lvgl\version_6.1.2\lvgl\src\lv_misc/lv_printf.c **** {
 175:..\..\..\lvgl\version_6.1.2\lvgl\src\lv_misc/lv_printf.c ****   const size_t start_idx = idx;
 176:..\..\..\lvgl\version_6.1.2\lvgl\src\lv_misc/lv_printf.c **** 
 177:..\..\..\lvgl\version_6.1.2\lvgl\src\lv_misc/lv_printf.c ****   // pad spaces up to given width
 178:..\..\..\lvgl\version_6.1.2\lvgl\src\lv_misc/lv_printf.c ****   if (!(flags & FLAGS_LEFT) && !(flags & FLAGS_ZEROPAD)) {
 179:..\..\..\lvgl\version_6.1.2\lvgl\src\lv_misc/lv_printf.c ****       size_t i;
 180:..\..\..\lvgl\version_6.1.2\lvgl\src\lv_misc/lv_printf.c ****       for (i = len; i < width; i++) {
 181:..\..\..\lvgl\version_6.1.2\lvgl\src\lv_misc/lv_printf.c ****       out(' ', buffer, idx++, maxlen);
 182:..\..\..\lvgl\version_6.1.2\lvgl\src\lv_misc/lv_printf.c ****     }
 183:..\..\..\lvgl\version_6.1.2\lvgl\src\lv_misc/lv_printf.c ****   }
 184:..\..\..\lvgl\version_6.1.2\lvgl\src\lv_misc/lv_printf.c **** 
 185:..\..\..\lvgl\version_6.1.2\lvgl\src\lv_misc/lv_printf.c ****   // reverse string
 186:..\..\..\lvgl\version_6.1.2\lvgl\src\lv_misc/lv_printf.c ****   while (len) {
 187:..\..\..\lvgl\version_6.1.2\lvgl\src\lv_misc/lv_printf.c ****     out(buf[--len], buffer, idx++, maxlen);
 188:..\..\..\lvgl\version_6.1.2\lvgl\src\lv_misc/lv_printf.c ****   }
 189:..\..\..\lvgl\version_6.1.2\lvgl\src\lv_misc/lv_printf.c **** 
 190:..\..\..\lvgl\version_6.1.2\lvgl\src\lv_misc/lv_printf.c ****   // append pad spaces up to given width
 191:..\..\..\lvgl\version_6.1.2\lvgl\src\lv_misc/lv_printf.c ****   if (flags & FLAGS_LEFT) {
 192:..\..\..\lvgl\version_6.1.2\lvgl\src\lv_misc/lv_printf.c ****     while (idx - start_idx < width) {
 193:..\..\..\lvgl\version_6.1.2\lvgl\src\lv_misc/lv_printf.c ****       out(' ', buffer, idx++, maxlen);
 194:..\..\..\lvgl\version_6.1.2\lvgl\src\lv_misc/lv_printf.c ****     }
 195:..\..\..\lvgl\version_6.1.2\lvgl\src\lv_misc/lv_printf.c ****   }
 196:..\..\..\lvgl\version_6.1.2\lvgl\src\lv_misc/lv_printf.c **** 
 197:..\..\..\lvgl\version_6.1.2\lvgl\src\lv_misc/lv_printf.c ****   return idx;
 198:..\..\..\lvgl\version_6.1.2\lvgl\src\lv_misc/lv_printf.c **** }
 199:..\..\..\lvgl\version_6.1.2\lvgl\src\lv_misc/lv_printf.c **** 
 200:..\..\..\lvgl\version_6.1.2\lvgl\src\lv_misc/lv_printf.c **** 
 201:..\..\..\lvgl\version_6.1.2\lvgl\src\lv_misc/lv_printf.c **** // internal itoa format
 202:..\..\..\lvgl\version_6.1.2\lvgl\src\lv_misc/lv_printf.c **** static size_t _ntoa_format(out_fct_type out, char* buffer, size_t idx, size_t maxlen, char* buf, si
 203:..\..\..\lvgl\version_6.1.2\lvgl\src\lv_misc/lv_printf.c **** {
  67              		.loc 1 203 0
  68              		.cfi_startproc
  69              		@ args = 28, pretend = 0, frame = 8
  70              		@ frame_needed = 0, uses_anonymous_args = 0
  71              	.LVL2:
  72              		.loc 1 203 0
  73 0000 2DE9F04F 		push	{r4, r5, r6, r7, r8, r9, r10, fp, lr}
  74              		.cfi_def_cfa_offset 36
  75              		.cfi_offset 4, -36
  76              		.cfi_offset 5, -32
  77              		.cfi_offset 6, -28
  78              		.cfi_offset 7, -24
  79              		.cfi_offset 8, -20
  80              		.cfi_offset 9, -16
  81              		.cfi_offset 10, -12
  82              		.cfi_offset 11, -8
ARM GAS  C:\Users\pearlstl\AppData\Local\Temp\ccbpFzqf.s 			page 6


  83              		.cfi_offset 14, -4
  84 0004 83B0     		sub	sp, sp, #12
  85              		.cfi_def_cfa_offset 48
  86              		.loc 1 203 0
  87 0006 9946     		mov	r9, r3
  88 0008 129D     		ldr	r5, [sp, #72]
  89 000a DDF830A0 		ldr	r10, [sp, #48]
  90 000e 0D9C     		ldr	r4, [sp, #52]
  91 0010 9DF838E0 		ldrb	lr, [sp, #56]	@ zero_extendqisi2
  92 0014 109E     		ldr	r6, [sp, #64]
  93 0016 0092     		str	r2, [sp]
 204:..\..\..\lvgl\version_6.1.2\lvgl\src\lv_misc/lv_printf.c ****   // pad leading zeros
 205:..\..\..\lvgl\version_6.1.2\lvgl\src\lv_misc/lv_printf.c ****   if (!(flags & FLAGS_LEFT)) {
  94              		.loc 1 205 0
  95 0018 15F00203 		ands	r3, r5, #2
  96              	.LVL3:
 203:..\..\..\lvgl\version_6.1.2\lvgl\src\lv_misc/lv_printf.c ****   // pad leading zeros
  97              		.loc 1 203 0
  98 001c 0746     		mov	r7, r0
  99 001e 8846     		mov	r8, r1
 100              		.loc 1 205 0
 101 0020 0193     		str	r3, [sp, #4]
 102 0022 2BD1     		bne	.L6
 206:..\..\..\lvgl\version_6.1.2\lvgl\src\lv_misc/lv_printf.c ****     if (width && (flags & FLAGS_ZEROPAD) && (negative || (flags & (FLAGS_PLUS | FLAGS_SPACE)))) {
 103              		.loc 1 206 0
 104 0024 119B     		ldr	r3, [sp, #68]
 105 0026 002B     		cmp	r3, #0
 106 0028 40F08A80 		bne	.L84
 107              	.LVL4:
 207:..\..\..\lvgl\version_6.1.2\lvgl\src\lv_misc/lv_printf.c ****       width--;
 208:..\..\..\lvgl\version_6.1.2\lvgl\src\lv_misc/lv_printf.c ****     }
 209:..\..\..\lvgl\version_6.1.2\lvgl\src\lv_misc/lv_printf.c ****     while ((len < prec) && (len < PRINTF_NTOA_BUFFER_SIZE)) {
 108              		.loc 1 209 0
 109 002c B442     		cmp	r4, r6
 110 002e 25D2     		bcs	.L6
 111 0030 1F2C     		cmp	r4, #31
 112 0032 05F00101 		and	r1, r5, #1
 113              	.LVL5:
 114 0036 21D8     		bhi	.L6
 115              	.LVL6:
 116              	.L41:
 117 0038 0AEB0403 		add	r3, r10, r4
 210:..\..\..\lvgl\version_6.1.2\lvgl\src\lv_misc/lv_printf.c ****       buf[len++] = '0';
 118              		.loc 1 210 0
 119 003c 3022     		movs	r2, #48
 120              	.LVL7:
 121 003e 01E0     		b	.L14
 122              	.L11:
 209:..\..\..\lvgl\version_6.1.2\lvgl\src\lv_misc/lv_printf.c ****       buf[len++] = '0';
 123              		.loc 1 209 0 discriminator 1
 124 0040 202C     		cmp	r4, #32
 125 0042 04D0     		beq	.L15
 126              	.L14:
 127              		.loc 1 210 0
 128 0044 0134     		adds	r4, r4, #1
 129              	.LVL8:
 209:..\..\..\lvgl\version_6.1.2\lvgl\src\lv_misc/lv_printf.c ****       buf[len++] = '0';
ARM GAS  C:\Users\pearlstl\AppData\Local\Temp\ccbpFzqf.s 			page 7


 130              		.loc 1 209 0
 131 0046 A642     		cmp	r6, r4
 132              		.loc 1 210 0
 133 0048 03F8012B 		strb	r2, [r3], #1
 209:..\..\..\lvgl\version_6.1.2\lvgl\src\lv_misc/lv_printf.c ****       buf[len++] = '0';
 134              		.loc 1 209 0
 135 004c F8D8     		bhi	.L11
 136              	.L15:
 211:..\..\..\lvgl\version_6.1.2\lvgl\src\lv_misc/lv_printf.c ****     }
 212:..\..\..\lvgl\version_6.1.2\lvgl\src\lv_misc/lv_printf.c ****     while ((flags & FLAGS_ZEROPAD) && (len < width) && (len < PRINTF_NTOA_BUFFER_SIZE)) {
 137              		.loc 1 212 0
 138 004e A9B1     		cbz	r1, .L6
 139              	.L37:
 140 0050 119B     		ldr	r3, [sp, #68]
 141 0052 A342     		cmp	r3, r4
 142 0054 12D9     		bls	.L6
 143 0056 1F2C     		cmp	r4, #31
 144 0058 00F2AE80 		bhi	.L52
 213:..\..\..\lvgl\version_6.1.2\lvgl\src\lv_misc/lv_printf.c ****       buf[len++] = '0';
 145              		.loc 1 213 0
 146 005c 3022     		movs	r2, #48
 147 005e 1946     		mov	r1, r3
 148 0060 0AF80420 		strb	r2, [r10, r4]
 149 0064 631C     		adds	r3, r4, #1
 150              	.LVL9:
 151 0066 5444     		add	r4, r4, r10
 152 0068 05E0     		b	.L40
 153              	.L85:
 212:..\..\..\lvgl\version_6.1.2\lvgl\src\lv_misc/lv_printf.c ****       buf[len++] = '0';
 154              		.loc 1 212 0 discriminator 2
 155 006a 202B     		cmp	r3, #32
 156 006c 00F0A580 		beq	.L13
 157              		.loc 1 213 0
 158 0070 04F8012F 		strb	r2, [r4, #1]!
 159 0074 0133     		adds	r3, r3, #1
 160              	.LVL10:
 161              	.L40:
 212:..\..\..\lvgl\version_6.1.2\lvgl\src\lv_misc/lv_printf.c ****       buf[len++] = '0';
 162              		.loc 1 212 0 discriminator 1
 163 0076 9942     		cmp	r1, r3
 164 0078 F7D1     		bne	.L85
 165 007a 119C     		ldr	r4, [sp, #68]
 166              	.LVL11:
 167              	.L6:
 214:..\..\..\lvgl\version_6.1.2\lvgl\src\lv_misc/lv_printf.c ****     }
 215:..\..\..\lvgl\version_6.1.2\lvgl\src\lv_misc/lv_printf.c ****   }
 216:..\..\..\lvgl\version_6.1.2\lvgl\src\lv_misc/lv_printf.c **** 
 217:..\..\..\lvgl\version_6.1.2\lvgl\src\lv_misc/lv_printf.c ****   // handle hash
 218:..\..\..\lvgl\version_6.1.2\lvgl\src\lv_misc/lv_printf.c ****   if (flags & FLAGS_HASH) {
 168              		.loc 1 218 0
 169 007c E806     		lsls	r0, r5, #27
 170              	.LVL12:
 171 007e 10D5     		bpl	.L17
 219:..\..\..\lvgl\version_6.1.2\lvgl\src\lv_misc/lv_printf.c ****     if (!(flags & FLAGS_PRECISION) && len && ((len == prec) || (len == width))) {
 172              		.loc 1 219 0
 173 0080 6905     		lsls	r1, r5, #21
 174 0082 01D4     		bmi	.L18
ARM GAS  C:\Users\pearlstl\AppData\Local\Temp\ccbpFzqf.s 			page 8


 175              		.loc 1 219 0 is_stmt 0 discriminator 1
 176 0084 002C     		cmp	r4, #0
 177 0086 7CD1     		bne	.L43
 178              	.L18:
 220:..\..\..\lvgl\version_6.1.2\lvgl\src\lv_misc/lv_printf.c ****       len--;
 221:..\..\..\lvgl\version_6.1.2\lvgl\src\lv_misc/lv_printf.c ****       if (len && (base == 16U)) {
 222:..\..\..\lvgl\version_6.1.2\lvgl\src\lv_misc/lv_printf.c ****         len--;
 223:..\..\..\lvgl\version_6.1.2\lvgl\src\lv_misc/lv_printf.c ****       }
 224:..\..\..\lvgl\version_6.1.2\lvgl\src\lv_misc/lv_printf.c ****     }
 225:..\..\..\lvgl\version_6.1.2\lvgl\src\lv_misc/lv_printf.c ****     if ((base == 16U) && !(flags & FLAGS_UPPERCASE) && (len < PRINTF_NTOA_BUFFER_SIZE)) {
 179              		.loc 1 225 0 is_stmt 1
 180 0088 0F9B     		ldr	r3, [sp, #60]
 181 008a 102B     		cmp	r3, #16
 182 008c 00F0A280 		beq	.L21
 183              	.L20:
 226:..\..\..\lvgl\version_6.1.2\lvgl\src\lv_misc/lv_printf.c ****       buf[len++] = 'x';
 227:..\..\..\lvgl\version_6.1.2\lvgl\src\lv_misc/lv_printf.c ****     }
 228:..\..\..\lvgl\version_6.1.2\lvgl\src\lv_misc/lv_printf.c ****     else if ((base == 16U) && (flags & FLAGS_UPPERCASE) && (len < PRINTF_NTOA_BUFFER_SIZE)) {
 229:..\..\..\lvgl\version_6.1.2\lvgl\src\lv_misc/lv_printf.c ****       buf[len++] = 'X';
 230:..\..\..\lvgl\version_6.1.2\lvgl\src\lv_misc/lv_printf.c ****     }
 231:..\..\..\lvgl\version_6.1.2\lvgl\src\lv_misc/lv_printf.c ****     else if ((base == 2U) && (len < PRINTF_NTOA_BUFFER_SIZE)) {
 184              		.loc 1 231 0
 185 0090 022B     		cmp	r3, #2
 186 0092 00F0A980 		beq	.L86
 187              	.LVL13:
 188              	.L24:
 232:..\..\..\lvgl\version_6.1.2\lvgl\src\lv_misc/lv_printf.c ****       buf[len++] = 'b';
 233:..\..\..\lvgl\version_6.1.2\lvgl\src\lv_misc/lv_printf.c ****     }
 234:..\..\..\lvgl\version_6.1.2\lvgl\src\lv_misc/lv_printf.c ****     if (len < PRINTF_NTOA_BUFFER_SIZE) {
 189              		.loc 1 234 0
 190 0096 1F2C     		cmp	r4, #31
 191 0098 11D8     		bhi	.L25
 192              	.LVL14:
 235:..\..\..\lvgl\version_6.1.2\lvgl\src\lv_misc/lv_printf.c ****       buf[len++] = '0';
 193              		.loc 1 235 0
 194 009a 3023     		movs	r3, #48
 195 009c 0AF80430 		strb	r3, [r10, r4]
 196 00a0 0134     		adds	r4, r4, #1
 197              	.LVL15:
 198              	.L17:
 236:..\..\..\lvgl\version_6.1.2\lvgl\src\lv_misc/lv_printf.c ****     }
 237:..\..\..\lvgl\version_6.1.2\lvgl\src\lv_misc/lv_printf.c ****   }
 238:..\..\..\lvgl\version_6.1.2\lvgl\src\lv_misc/lv_printf.c **** 
 239:..\..\..\lvgl\version_6.1.2\lvgl\src\lv_misc/lv_printf.c ****   if (len < PRINTF_NTOA_BUFFER_SIZE) {
 199              		.loc 1 239 0
 200 00a2 1F2C     		cmp	r4, #31
 201 00a4 0BD8     		bhi	.L25
 240:..\..\..\lvgl\version_6.1.2\lvgl\src\lv_misc/lv_printf.c ****     if (negative) {
 202              		.loc 1 240 0
 203 00a6 BEF1000F 		cmp	lr, #0
 204 00aa 59D1     		bne	.L87
 241:..\..\..\lvgl\version_6.1.2\lvgl\src\lv_misc/lv_printf.c ****       buf[len++] = '-';
 242:..\..\..\lvgl\version_6.1.2\lvgl\src\lv_misc/lv_printf.c ****     }
 243:..\..\..\lvgl\version_6.1.2\lvgl\src\lv_misc/lv_printf.c ****     else if (flags & FLAGS_PLUS) {
 205              		.loc 1 243 0
 206 00ac 6B07     		lsls	r3, r5, #29
 207 00ae 00F18880 		bmi	.L88
ARM GAS  C:\Users\pearlstl\AppData\Local\Temp\ccbpFzqf.s 			page 9


 244:..\..\..\lvgl\version_6.1.2\lvgl\src\lv_misc/lv_printf.c ****       buf[len++] = '+';  // ignore the space if the '+' exists
 245:..\..\..\lvgl\version_6.1.2\lvgl\src\lv_misc/lv_printf.c ****     }
 246:..\..\..\lvgl\version_6.1.2\lvgl\src\lv_misc/lv_printf.c ****     else if (flags & FLAGS_SPACE) {
 208              		.loc 1 246 0
 209 00b2 2E07     		lsls	r6, r5, #28
 210 00b4 2BD5     		bpl	.L28
 211              	.LVL16:
 247:..\..\..\lvgl\version_6.1.2\lvgl\src\lv_misc/lv_printf.c ****       buf[len++] = ' ';
 212              		.loc 1 247 0
 213 00b6 2023     		movs	r3, #32
 214 00b8 0AF80430 		strb	r3, [r10, r4]
 215 00bc 0134     		adds	r4, r4, #1
 216              	.LVL17:
 217              	.L25:
 218              	.LBB56:
 219              	.LBB57:
 178:..\..\..\lvgl\version_6.1.2\lvgl\src\lv_misc/lv_printf.c ****       size_t i;
 220              		.loc 1 178 0
 221 00be AB07     		lsls	r3, r5, #30
 222 00c0 27D0     		beq	.L44
 223              	.L90:
 224 00c2 009D     		ldr	r5, [sp]
 225              	.LVL18:
 226              	.L45:
 227 00c4 A244     		add	r10, r10, r4
 228              	.LVL19:
 229 00c6 2A46     		mov	r2, r5
 230 00c8 2646     		mov	r6, r4
 231              	.LVL20:
 232              	.L32:
 187:..\..\..\lvgl\version_6.1.2\lvgl\src\lv_misc/lv_printf.c ****   }
 233              		.loc 1 187 0
 234 00ca 02F1010B 		add	fp, r2, #1
 235 00ce 4B46     		mov	r3, r9
 236 00d0 4146     		mov	r1, r8
 237 00d2 1AF8010D 		ldrb	r0, [r10, #-1]!	@ zero_extendqisi2
 238 00d6 013E     		subs	r6, r6, #1
 239              	.LVL21:
 240 00d8 B847     		blx	r7
 241              	.LVL22:
 242 00da 5A46     		mov	r2, fp
 186:..\..\..\lvgl\version_6.1.2\lvgl\src\lv_misc/lv_printf.c ****     out(buf[--len], buffer, idx++, maxlen);
 243              		.loc 1 186 0
 244 00dc 002E     		cmp	r6, #0
 245 00de F4D1     		bne	.L32
 246 00e0 2544     		add	r5, r5, r4
 247              	.LVL23:
 248              	.L31:
 191:..\..\..\lvgl\version_6.1.2\lvgl\src\lv_misc/lv_printf.c ****     while (idx - start_idx < width) {
 249              		.loc 1 191 0
 250 00e2 019B     		ldr	r3, [sp, #4]
 251 00e4 7BB1     		cbz	r3, .L61
 252              	.LVL24:
 192:..\..\..\lvgl\version_6.1.2\lvgl\src\lv_misc/lv_printf.c ****       out(' ', buffer, idx++, maxlen);
 253              		.loc 1 192 0
 254 00e6 009C     		ldr	r4, [sp]
 255              	.LVL25:
ARM GAS  C:\Users\pearlstl\AppData\Local\Temp\ccbpFzqf.s 			page 10


 256 00e8 119A     		ldr	r2, [sp, #68]
 257 00ea 2B1B     		subs	r3, r5, r4
 258 00ec 9342     		cmp	r3, r2
 259 00ee 0AD2     		bcs	.L61
 260 00f0 1646     		mov	r6, r2
 261 00f2 2A46     		mov	r2, r5
 262              	.LVL26:
 263              	.L34:
 193:..\..\..\lvgl\version_6.1.2\lvgl\src\lv_misc/lv_printf.c ****     }
 264              		.loc 1 193 0
 265 00f4 0135     		adds	r5, r5, #1
 266              	.LVL27:
 267 00f6 4B46     		mov	r3, r9
 268 00f8 4146     		mov	r1, r8
 269 00fa 2020     		movs	r0, #32
 270 00fc B847     		blx	r7
 271              	.LVL28:
 192:..\..\..\lvgl\version_6.1.2\lvgl\src\lv_misc/lv_printf.c ****       out(' ', buffer, idx++, maxlen);
 272              		.loc 1 192 0
 273 00fe 2B1B     		subs	r3, r5, r4
 274 0100 B342     		cmp	r3, r6
 193:..\..\..\lvgl\version_6.1.2\lvgl\src\lv_misc/lv_printf.c ****     }
 275              		.loc 1 193 0
 276 0102 2A46     		mov	r2, r5
 192:..\..\..\lvgl\version_6.1.2\lvgl\src\lv_misc/lv_printf.c ****       out(' ', buffer, idx++, maxlen);
 277              		.loc 1 192 0
 278 0104 F6D3     		bcc	.L34
 279              	.LVL29:
 280              	.L61:
 281              	.LBE57:
 282              	.LBE56:
 248:..\..\..\lvgl\version_6.1.2\lvgl\src\lv_misc/lv_printf.c ****     }
 249:..\..\..\lvgl\version_6.1.2\lvgl\src\lv_misc/lv_printf.c ****   }
 250:..\..\..\lvgl\version_6.1.2\lvgl\src\lv_misc/lv_printf.c **** 
 251:..\..\..\lvgl\version_6.1.2\lvgl\src\lv_misc/lv_printf.c ****   return _out_rev(out, buffer, idx, maxlen, buf, len, width, flags);
 252:..\..\..\lvgl\version_6.1.2\lvgl\src\lv_misc/lv_printf.c **** }
 283              		.loc 1 252 0
 284 0106 2846     		mov	r0, r5
 285 0108 03B0     		add	sp, sp, #12
 286              		.cfi_remember_state
 287              		.cfi_def_cfa_offset 36
 288              	.LVL30:
 289              		@ sp needed
 290 010a BDE8F08F 		pop	{r4, r5, r6, r7, r8, r9, r10, fp, pc}
 291              	.LVL31:
 292              	.L28:
 293              		.cfi_restore_state
 294              	.LBB66:
 295              	.LBB60:
 178:..\..\..\lvgl\version_6.1.2\lvgl\src\lv_misc/lv_printf.c ****       size_t i;
 296              		.loc 1 178 0
 297 010e A807     		lsls	r0, r5, #30
 298 0110 45D1     		bne	.L50
 299              	.L44:
 300              	.LVL32:
 301              	.LBB58:
 180:..\..\..\lvgl\version_6.1.2\lvgl\src\lv_misc/lv_printf.c ****       out(' ', buffer, idx++, maxlen);
ARM GAS  C:\Users\pearlstl\AppData\Local\Temp\ccbpFzqf.s 			page 11


 302              		.loc 1 180 0
 303 0112 119B     		ldr	r3, [sp, #68]
 304 0114 9C42     		cmp	r4, r3
 305 0116 42D2     		bcs	.L50
 306 0118 9B46     		mov	fp, r3
 307 011a 009B     		ldr	r3, [sp]
 308 011c 1A46     		mov	r2, r3
 309 011e E61A     		subs	r6, r4, r3
 310              	.LVL33:
 311              	.L30:
 181:..\..\..\lvgl\version_6.1.2\lvgl\src\lv_misc/lv_printf.c ****     }
 312              		.loc 1 181 0
 313 0120 551C     		adds	r5, r2, #1
 314              	.LVL34:
 315 0122 4B46     		mov	r3, r9
 316 0124 4146     		mov	r1, r8
 317 0126 2020     		movs	r0, #32
 318 0128 B847     		blx	r7
 319              	.LVL35:
 180:..\..\..\lvgl\version_6.1.2\lvgl\src\lv_misc/lv_printf.c ****       out(' ', buffer, idx++, maxlen);
 320              		.loc 1 180 0
 321 012a AB19     		adds	r3, r5, r6
 322 012c 5B45     		cmp	r3, fp
 181:..\..\..\lvgl\version_6.1.2\lvgl\src\lv_misc/lv_printf.c ****     }
 323              		.loc 1 181 0
 324 012e 2A46     		mov	r2, r5
 180:..\..\..\lvgl\version_6.1.2\lvgl\src\lv_misc/lv_printf.c ****       out(' ', buffer, idx++, maxlen);
 325              		.loc 1 180 0
 326 0130 F6D3     		bcc	.L30
 327 0132 009B     		ldr	r3, [sp]
 328 0134 119A     		ldr	r2, [sp, #68]
 329 0136 9D18     		adds	r5, r3, r2
 330              	.LVL36:
 331 0138 2D1B     		subs	r5, r5, r4
 332              	.LVL37:
 333              	.LBE58:
 186:..\..\..\lvgl\version_6.1.2\lvgl\src\lv_misc/lv_printf.c ****     out(buf[--len], buffer, idx++, maxlen);
 334              		.loc 1 186 0
 335 013a 002C     		cmp	r4, #0
 336 013c C2D1     		bne	.L45
 337 013e D0E7     		b	.L31
 338              	.LVL38:
 339              	.L84:
 340              	.LBE60:
 341              	.LBE66:
 206:..\..\..\lvgl\version_6.1.2\lvgl\src\lv_misc/lv_printf.c ****       width--;
 342              		.loc 1 206 0 discriminator 1
 343 0140 15F00101 		ands	r1, r5, #1
 344              	.LVL39:
 345 0144 14D0     		beq	.L8
 206:..\..\..\lvgl\version_6.1.2\lvgl\src\lv_misc/lv_printf.c ****       width--;
 346              		.loc 1 206 0 is_stmt 0 discriminator 2
 347 0146 BEF1000F 		cmp	lr, #0
 348 014a 2CD1     		bne	.L9
 206:..\..\..\lvgl\version_6.1.2\lvgl\src\lv_misc/lv_printf.c ****       width--;
 349              		.loc 1 206 0 discriminator 3
 350 014c 15F00C0F 		tst	r5, #12
ARM GAS  C:\Users\pearlstl\AppData\Local\Temp\ccbpFzqf.s 			page 12


 351 0150 29D1     		bne	.L9
 352              	.L10:
 353              	.LVL40:
 209:..\..\..\lvgl\version_6.1.2\lvgl\src\lv_misc/lv_printf.c ****       buf[len++] = '0';
 354              		.loc 1 209 0 is_stmt 1
 355 0152 B442     		cmp	r4, r6
 356 0154 BFF47CAF 		bcs	.L37
 357 0158 1F2C     		cmp	r4, #31
 358 015a 29D8     		bhi	.L89
 359 015c 0121     		movs	r1, #1
 360 015e 6BE7     		b	.L41
 361              	.LVL41:
 362              	.L87:
 241:..\..\..\lvgl\version_6.1.2\lvgl\src\lv_misc/lv_printf.c ****     }
 363              		.loc 1 241 0
 364 0160 2D23     		movs	r3, #45
 365 0162 0AF80430 		strb	r3, [r10, r4]
 366              	.LBB67:
 367              	.LBB61:
 178:..\..\..\lvgl\version_6.1.2\lvgl\src\lv_misc/lv_printf.c ****       size_t i;
 368              		.loc 1 178 0
 369 0166 AB07     		lsls	r3, r5, #30
 370              	.LBE61:
 371              	.LBE67:
 241:..\..\..\lvgl\version_6.1.2\lvgl\src\lv_misc/lv_printf.c ****     }
 372              		.loc 1 241 0
 373 0168 04F10104 		add	r4, r4, #1
 374              	.LVL42:
 375              	.LBB68:
 376              	.LBB62:
 178:..\..\..\lvgl\version_6.1.2\lvgl\src\lv_misc/lv_printf.c ****       size_t i;
 377              		.loc 1 178 0
 378 016c D1D0     		beq	.L44
 379 016e A8E7     		b	.L90
 380              	.LVL43:
 381              	.L8:
 382              	.LBE62:
 383              	.LBE68:
 209:..\..\..\lvgl\version_6.1.2\lvgl\src\lv_misc/lv_printf.c ****       buf[len++] = '0';
 384              		.loc 1 209 0
 385 0170 B442     		cmp	r4, r6
 386 0172 83D2     		bcs	.L6
 387 0174 1F2C     		cmp	r4, #31
 388 0176 7FF65FAF 		bls	.L41
 389 017a 7FE7     		b	.L6
 390              	.LVL44:
 391              	.L38:
 219:..\..\..\lvgl\version_6.1.2\lvgl\src\lv_misc/lv_printf.c ****       len--;
 392              		.loc 1 219 0
 393 017c 6A05     		lsls	r2, r5, #21
 394 017e 15D4     		bmi	.L47
 395 0180 1C46     		mov	r4, r3
 396              	.LVL45:
 397              	.L43:
 219:..\..\..\lvgl\version_6.1.2\lvgl\src\lv_misc/lv_printf.c ****       len--;
 398              		.loc 1 219 0 is_stmt 0 discriminator 2
 399 0182 A642     		cmp	r6, r4
ARM GAS  C:\Users\pearlstl\AppData\Local\Temp\ccbpFzqf.s 			page 13


 400 0184 03D0     		beq	.L19
 219:..\..\..\lvgl\version_6.1.2\lvgl\src\lv_misc/lv_printf.c ****       len--;
 401              		.loc 1 219 0 discriminator 3
 402 0186 119B     		ldr	r3, [sp, #68]
 403 0188 A342     		cmp	r3, r4
 404 018a 7FF47DAF 		bne	.L18
 405              	.L19:
 406              	.LVL46:
 221:..\..\..\lvgl\version_6.1.2\lvgl\src\lv_misc/lv_printf.c ****         len--;
 407              		.loc 1 221 0 is_stmt 1
 408 018e 631E     		subs	r3, r4, #1
 409              	.LVL47:
 410 0190 0CD0     		beq	.L47
 221:..\..\..\lvgl\version_6.1.2\lvgl\src\lv_misc/lv_printf.c ****         len--;
 411              		.loc 1 221 0 is_stmt 0 discriminator 1
 412 0192 0F9A     		ldr	r2, [sp, #60]
 413 0194 102A     		cmp	r2, #16
 414 0196 1CD0     		beq	.L91
 415 0198 1C46     		mov	r4, r3
 416 019a 1346     		mov	r3, r2
 417              	.LVL48:
 418 019c 78E7     		b	.L20
 419              	.LVL49:
 420              	.L50:
 421              	.LBB69:
 422              	.LBB63:
 423              	.LBB59:
 180:..\..\..\lvgl\version_6.1.2\lvgl\src\lv_misc/lv_printf.c ****       out(' ', buffer, idx++, maxlen);
 424              		.loc 1 180 0 is_stmt 1
 425 019e 009D     		ldr	r5, [sp]
 426              	.LVL50:
 427              	.LBE59:
 186:..\..\..\lvgl\version_6.1.2\lvgl\src\lv_misc/lv_printf.c ****     out(buf[--len], buffer, idx++, maxlen);
 428              		.loc 1 186 0
 429 01a0 002C     		cmp	r4, #0
 430 01a2 8FD1     		bne	.L45
 431 01a4 9DE7     		b	.L31
 432              	.LVL51:
 433              	.L9:
 434              	.LBE63:
 435              	.LBE69:
 207:..\..\..\lvgl\version_6.1.2\lvgl\src\lv_misc/lv_printf.c ****     }
 436              		.loc 1 207 0
 437 01a6 013B     		subs	r3, r3, #1
 438 01a8 1193     		str	r3, [sp, #68]
 439              	.LVL52:
 440 01aa D2E7     		b	.L10
 441              	.LVL53:
 442              	.L47:
 443 01ac 1C46     		mov	r4, r3
 444 01ae 6BE7     		b	.L18
 445              	.LVL54:
 446              	.L89:
 212:..\..\..\lvgl\version_6.1.2\lvgl\src\lv_misc/lv_printf.c ****       buf[len++] = '0';
 447              		.loc 1 212 0
 448 01b0 119B     		ldr	r3, [sp, #68]
 449 01b2 A342     		cmp	r3, r4
ARM GAS  C:\Users\pearlstl\AppData\Local\Temp\ccbpFzqf.s 			page 14


 450 01b4 7FF662AF 		bls	.L6
 451              	.LVL55:
 452              	.L52:
 453 01b8 2346     		mov	r3, r4
 454              	.LVL56:
 455              	.L13:
 218:..\..\..\lvgl\version_6.1.2\lvgl\src\lv_misc/lv_printf.c ****     if (!(flags & FLAGS_PRECISION) && len && ((len == prec) || (len == width))) {
 456              		.loc 1 218 0
 457 01ba E906     		lsls	r1, r5, #27
 458 01bc DED4     		bmi	.L38
 459 01be 1C46     		mov	r4, r3
 460 01c0 7DE7     		b	.L25
 461              	.LVL57:
 462              	.L88:
 244:..\..\..\lvgl\version_6.1.2\lvgl\src\lv_misc/lv_printf.c ****     }
 463              		.loc 1 244 0
 464 01c2 2B23     		movs	r3, #43
 465 01c4 0AF80430 		strb	r3, [r10, r4]
 466              	.LBB70:
 467              	.LBB64:
 178:..\..\..\lvgl\version_6.1.2\lvgl\src\lv_misc/lv_printf.c ****       size_t i;
 468              		.loc 1 178 0
 469 01c8 AB07     		lsls	r3, r5, #30
 470              	.LBE64:
 471              	.LBE70:
 244:..\..\..\lvgl\version_6.1.2\lvgl\src\lv_misc/lv_printf.c ****     }
 472              		.loc 1 244 0
 473 01ca 04F10104 		add	r4, r4, #1
 474              	.LVL58:
 475              	.LBB71:
 476              	.LBB65:
 178:..\..\..\lvgl\version_6.1.2\lvgl\src\lv_misc/lv_printf.c ****       size_t i;
 477              		.loc 1 178 0
 478 01ce A0D0     		beq	.L44
 479 01d0 77E7     		b	.L90
 480              	.LVL59:
 481              	.L91:
 482              	.LBE65:
 483              	.LBE71:
 222:..\..\..\lvgl\version_6.1.2\lvgl\src\lv_misc/lv_printf.c ****       }
 484              		.loc 1 222 0
 485 01d2 023C     		subs	r4, r4, #2
 486              	.LVL60:
 487              	.L21:
 225:..\..\..\lvgl\version_6.1.2\lvgl\src\lv_misc/lv_printf.c ****       buf[len++] = 'x';
 488              		.loc 1 225 0 discriminator 1
 489 01d4 AA06     		lsls	r2, r5, #26
 490 01d6 0FD4     		bmi	.L22
 225:..\..\..\lvgl\version_6.1.2\lvgl\src\lv_misc/lv_printf.c ****       buf[len++] = 'x';
 491              		.loc 1 225 0 is_stmt 0 discriminator 2
 492 01d8 1F2C     		cmp	r4, #31
 493 01da 3FF670AF 		bhi	.L25
 494              	.LVL61:
 226:..\..\..\lvgl\version_6.1.2\lvgl\src\lv_misc/lv_printf.c ****     }
 495              		.loc 1 226 0 is_stmt 1
 496 01de 7823     		movs	r3, #120
 497 01e0 0AF80430 		strb	r3, [r10, r4]
ARM GAS  C:\Users\pearlstl\AppData\Local\Temp\ccbpFzqf.s 			page 15


 498              	.LVL62:
 499 01e4 0134     		adds	r4, r4, #1
 500              	.LVL63:
 501 01e6 56E7     		b	.L24
 502              	.LVL64:
 503              	.L86:
 231:..\..\..\lvgl\version_6.1.2\lvgl\src\lv_misc/lv_printf.c ****       buf[len++] = 'b';
 504              		.loc 1 231 0 discriminator 1
 505 01e8 1F2C     		cmp	r4, #31
 506 01ea 3FF668AF 		bhi	.L25
 507              	.LVL65:
 232:..\..\..\lvgl\version_6.1.2\lvgl\src\lv_misc/lv_printf.c ****     }
 508              		.loc 1 232 0
 509 01ee 6223     		movs	r3, #98
 510 01f0 0AF80430 		strb	r3, [r10, r4]
 511              	.LVL66:
 512 01f4 0134     		adds	r4, r4, #1
 513              	.LVL67:
 514 01f6 4EE7     		b	.L24
 515              	.LVL68:
 516              	.L22:
 228:..\..\..\lvgl\version_6.1.2\lvgl\src\lv_misc/lv_printf.c ****       buf[len++] = 'X';
 517              		.loc 1 228 0
 518 01f8 1F2C     		cmp	r4, #31
 519 01fa 3FF660AF 		bhi	.L25
 520              	.LVL69:
 229:..\..\..\lvgl\version_6.1.2\lvgl\src\lv_misc/lv_printf.c ****     }
 521              		.loc 1 229 0
 522 01fe 5823     		movs	r3, #88
 523 0200 0AF80430 		strb	r3, [r10, r4]
 524              	.LVL70:
 525 0204 0134     		adds	r4, r4, #1
 526              	.LVL71:
 527 0206 46E7     		b	.L24
 528              		.cfi_endproc
 529              	.LFE6:
 530              		.size	_ntoa_format, .-_ntoa_format
 531              		.global	__aeabi_dcmpeq
 532              		.global	__aeabi_dcmpgt
 533              		.global	__aeabi_dcmplt
 534              		.global	__aeabi_i2d
 535              		.global	__aeabi_dmul
 536              		.global	__aeabi_dadd
 537              		.global	__aeabi_dsub
 538              		.global	__aeabi_d2iz
 539              		.global	__aeabi_ddiv
 540              		.global	__aeabi_dcmpge
 541              		.section	.text._etoa,"ax",%progbits
 542              		.align	2
 543              		.thumb
 544              		.thumb_func
 545              		.type	_etoa, %function
 546              	_etoa:
 547              	.LFB10:
 253:..\..\..\lvgl\version_6.1.2\lvgl\src\lv_misc/lv_printf.c **** 
 254:..\..\..\lvgl\version_6.1.2\lvgl\src\lv_misc/lv_printf.c **** 
 255:..\..\..\lvgl\version_6.1.2\lvgl\src\lv_misc/lv_printf.c **** // internal itoa for 'long' type
ARM GAS  C:\Users\pearlstl\AppData\Local\Temp\ccbpFzqf.s 			page 16


 256:..\..\..\lvgl\version_6.1.2\lvgl\src\lv_misc/lv_printf.c **** static size_t _ntoa_long(out_fct_type out, char* buffer, size_t idx, size_t maxlen, unsigned long v
 257:..\..\..\lvgl\version_6.1.2\lvgl\src\lv_misc/lv_printf.c **** {
 258:..\..\..\lvgl\version_6.1.2\lvgl\src\lv_misc/lv_printf.c ****   char buf[PRINTF_NTOA_BUFFER_SIZE];
 259:..\..\..\lvgl\version_6.1.2\lvgl\src\lv_misc/lv_printf.c ****   size_t len = 0U;
 260:..\..\..\lvgl\version_6.1.2\lvgl\src\lv_misc/lv_printf.c **** 
 261:..\..\..\lvgl\version_6.1.2\lvgl\src\lv_misc/lv_printf.c ****   // no hash for 0 values
 262:..\..\..\lvgl\version_6.1.2\lvgl\src\lv_misc/lv_printf.c ****   if (!value) {
 263:..\..\..\lvgl\version_6.1.2\lvgl\src\lv_misc/lv_printf.c ****     flags &= ~FLAGS_HASH;
 264:..\..\..\lvgl\version_6.1.2\lvgl\src\lv_misc/lv_printf.c ****   }
 265:..\..\..\lvgl\version_6.1.2\lvgl\src\lv_misc/lv_printf.c **** 
 266:..\..\..\lvgl\version_6.1.2\lvgl\src\lv_misc/lv_printf.c ****   // write if precision != 0 and value is != 0
 267:..\..\..\lvgl\version_6.1.2\lvgl\src\lv_misc/lv_printf.c ****   if (!(flags & FLAGS_PRECISION) || value) {
 268:..\..\..\lvgl\version_6.1.2\lvgl\src\lv_misc/lv_printf.c ****     do {
 269:..\..\..\lvgl\version_6.1.2\lvgl\src\lv_misc/lv_printf.c ****       const char digit = (char)(value % base);
 270:..\..\..\lvgl\version_6.1.2\lvgl\src\lv_misc/lv_printf.c ****       buf[len++] = digit < 10 ? '0' + digit : (flags & FLAGS_UPPERCASE ? 'A' : 'a') + digit - 10;
 271:..\..\..\lvgl\version_6.1.2\lvgl\src\lv_misc/lv_printf.c ****       value /= base;
 272:..\..\..\lvgl\version_6.1.2\lvgl\src\lv_misc/lv_printf.c ****     } while (value && (len < PRINTF_NTOA_BUFFER_SIZE));
 273:..\..\..\lvgl\version_6.1.2\lvgl\src\lv_misc/lv_printf.c ****   }
 274:..\..\..\lvgl\version_6.1.2\lvgl\src\lv_misc/lv_printf.c **** 
 275:..\..\..\lvgl\version_6.1.2\lvgl\src\lv_misc/lv_printf.c ****   return _ntoa_format(out, buffer, idx, maxlen, buf, len, negative, (unsigned int)base, prec, width
 276:..\..\..\lvgl\version_6.1.2\lvgl\src\lv_misc/lv_printf.c **** }
 277:..\..\..\lvgl\version_6.1.2\lvgl\src\lv_misc/lv_printf.c **** 
 278:..\..\..\lvgl\version_6.1.2\lvgl\src\lv_misc/lv_printf.c **** 
 279:..\..\..\lvgl\version_6.1.2\lvgl\src\lv_misc/lv_printf.c **** // internal itoa for 'long long' type
 280:..\..\..\lvgl\version_6.1.2\lvgl\src\lv_misc/lv_printf.c **** #if defined(PRINTF_SUPPORT_LONG_LONG)
 281:..\..\..\lvgl\version_6.1.2\lvgl\src\lv_misc/lv_printf.c **** static size_t _ntoa_long_long(out_fct_type out, char* buffer, size_t idx, size_t maxlen, unsigned l
 282:..\..\..\lvgl\version_6.1.2\lvgl\src\lv_misc/lv_printf.c **** {
 283:..\..\..\lvgl\version_6.1.2\lvgl\src\lv_misc/lv_printf.c ****   char buf[PRINTF_NTOA_BUFFER_SIZE];
 284:..\..\..\lvgl\version_6.1.2\lvgl\src\lv_misc/lv_printf.c ****   size_t len = 0U;
 285:..\..\..\lvgl\version_6.1.2\lvgl\src\lv_misc/lv_printf.c **** 
 286:..\..\..\lvgl\version_6.1.2\lvgl\src\lv_misc/lv_printf.c ****   // no hash for 0 values
 287:..\..\..\lvgl\version_6.1.2\lvgl\src\lv_misc/lv_printf.c ****   if (!value) {
 288:..\..\..\lvgl\version_6.1.2\lvgl\src\lv_misc/lv_printf.c ****     flags &= ~FLAGS_HASH;
 289:..\..\..\lvgl\version_6.1.2\lvgl\src\lv_misc/lv_printf.c ****   }
 290:..\..\..\lvgl\version_6.1.2\lvgl\src\lv_misc/lv_printf.c **** 
 291:..\..\..\lvgl\version_6.1.2\lvgl\src\lv_misc/lv_printf.c ****   // write if precision != 0 and value is != 0
 292:..\..\..\lvgl\version_6.1.2\lvgl\src\lv_misc/lv_printf.c ****   if (!(flags & FLAGS_PRECISION) || value) {
 293:..\..\..\lvgl\version_6.1.2\lvgl\src\lv_misc/lv_printf.c ****     do {
 294:..\..\..\lvgl\version_6.1.2\lvgl\src\lv_misc/lv_printf.c ****       const char digit = (char)(value % base);
 295:..\..\..\lvgl\version_6.1.2\lvgl\src\lv_misc/lv_printf.c ****       buf[len++] = digit < 10 ? '0' + digit : (flags & FLAGS_UPPERCASE ? 'A' : 'a') + digit - 10;
 296:..\..\..\lvgl\version_6.1.2\lvgl\src\lv_misc/lv_printf.c ****       value /= base;
 297:..\..\..\lvgl\version_6.1.2\lvgl\src\lv_misc/lv_printf.c ****     } while (value && (len < PRINTF_NTOA_BUFFER_SIZE));
 298:..\..\..\lvgl\version_6.1.2\lvgl\src\lv_misc/lv_printf.c ****   }
 299:..\..\..\lvgl\version_6.1.2\lvgl\src\lv_misc/lv_printf.c **** 
 300:..\..\..\lvgl\version_6.1.2\lvgl\src\lv_misc/lv_printf.c ****   return _ntoa_format(out, buffer, idx, maxlen, buf, len, negative, (unsigned int)base, prec, width
 301:..\..\..\lvgl\version_6.1.2\lvgl\src\lv_misc/lv_printf.c **** }
 302:..\..\..\lvgl\version_6.1.2\lvgl\src\lv_misc/lv_printf.c **** #endif  // PRINTF_SUPPORT_LONG_LONG
 303:..\..\..\lvgl\version_6.1.2\lvgl\src\lv_misc/lv_printf.c **** 
 304:..\..\..\lvgl\version_6.1.2\lvgl\src\lv_misc/lv_printf.c **** 
 305:..\..\..\lvgl\version_6.1.2\lvgl\src\lv_misc/lv_printf.c **** #if defined(PRINTF_SUPPORT_FLOAT)
 306:..\..\..\lvgl\version_6.1.2\lvgl\src\lv_misc/lv_printf.c **** 
 307:..\..\..\lvgl\version_6.1.2\lvgl\src\lv_misc/lv_printf.c **** #if defined(PRINTF_SUPPORT_EXPONENTIAL)
 308:..\..\..\lvgl\version_6.1.2\lvgl\src\lv_misc/lv_printf.c **** // forward declaration so that _ftoa can switch to exp notation for values > PRINTF_MAX_FLOAT
 309:..\..\..\lvgl\version_6.1.2\lvgl\src\lv_misc/lv_printf.c **** static size_t _etoa(out_fct_type out, char* buffer, size_t idx, size_t maxlen, double value, unsign
 310:..\..\..\lvgl\version_6.1.2\lvgl\src\lv_misc/lv_printf.c **** #endif
 311:..\..\..\lvgl\version_6.1.2\lvgl\src\lv_misc/lv_printf.c **** 
 312:..\..\..\lvgl\version_6.1.2\lvgl\src\lv_misc/lv_printf.c **** 
ARM GAS  C:\Users\pearlstl\AppData\Local\Temp\ccbpFzqf.s 			page 17


 313:..\..\..\lvgl\version_6.1.2\lvgl\src\lv_misc/lv_printf.c **** // internal ftoa for fixed decimal floating point
 314:..\..\..\lvgl\version_6.1.2\lvgl\src\lv_misc/lv_printf.c **** static size_t _ftoa(out_fct_type out, char* buffer, size_t idx, size_t maxlen, double value, unsign
 315:..\..\..\lvgl\version_6.1.2\lvgl\src\lv_misc/lv_printf.c **** {
 316:..\..\..\lvgl\version_6.1.2\lvgl\src\lv_misc/lv_printf.c ****   char buf[PRINTF_FTOA_BUFFER_SIZE];
 317:..\..\..\lvgl\version_6.1.2\lvgl\src\lv_misc/lv_printf.c ****   size_t len  = 0U;
 318:..\..\..\lvgl\version_6.1.2\lvgl\src\lv_misc/lv_printf.c ****   double diff = 0.0;
 319:..\..\..\lvgl\version_6.1.2\lvgl\src\lv_misc/lv_printf.c **** 
 320:..\..\..\lvgl\version_6.1.2\lvgl\src\lv_misc/lv_printf.c ****   // powers of 10
 321:..\..\..\lvgl\version_6.1.2\lvgl\src\lv_misc/lv_printf.c ****   static const double pow10[] = { 1, 10, 100, 1000, 10000, 100000, 1000000, 10000000, 100000000, 10
 322:..\..\..\lvgl\version_6.1.2\lvgl\src\lv_misc/lv_printf.c **** 
 323:..\..\..\lvgl\version_6.1.2\lvgl\src\lv_misc/lv_printf.c ****   // test for special values
 324:..\..\..\lvgl\version_6.1.2\lvgl\src\lv_misc/lv_printf.c ****   if (value != value)
 325:..\..\..\lvgl\version_6.1.2\lvgl\src\lv_misc/lv_printf.c ****     return _out_rev(out, buffer, idx, maxlen, "nan", 3, width, flags);
 326:..\..\..\lvgl\version_6.1.2\lvgl\src\lv_misc/lv_printf.c ****   if (value < -DBL_MAX)
 327:..\..\..\lvgl\version_6.1.2\lvgl\src\lv_misc/lv_printf.c ****     return _out_rev(out, buffer, idx, maxlen, "fni-", 4, width, flags);
 328:..\..\..\lvgl\version_6.1.2\lvgl\src\lv_misc/lv_printf.c ****   if (value > DBL_MAX)
 329:..\..\..\lvgl\version_6.1.2\lvgl\src\lv_misc/lv_printf.c ****     return _out_rev(out, buffer, idx, maxlen, (flags & FLAGS_PLUS) ? "fni+" : "fni", (flags & FLAGS
 330:..\..\..\lvgl\version_6.1.2\lvgl\src\lv_misc/lv_printf.c **** 
 331:..\..\..\lvgl\version_6.1.2\lvgl\src\lv_misc/lv_printf.c ****   // test for very large values
 332:..\..\..\lvgl\version_6.1.2\lvgl\src\lv_misc/lv_printf.c ****   // standard printf behavior is to print EVERY whole number digit -- which could be 100s of charac
 333:..\..\..\lvgl\version_6.1.2\lvgl\src\lv_misc/lv_printf.c ****   if ((value > PRINTF_MAX_FLOAT) || (value < -PRINTF_MAX_FLOAT)) {
 334:..\..\..\lvgl\version_6.1.2\lvgl\src\lv_misc/lv_printf.c **** #if defined(PRINTF_SUPPORT_EXPONENTIAL)
 335:..\..\..\lvgl\version_6.1.2\lvgl\src\lv_misc/lv_printf.c ****     return _etoa(out, buffer, idx, maxlen, value, prec, width, flags);
 336:..\..\..\lvgl\version_6.1.2\lvgl\src\lv_misc/lv_printf.c **** #else
 337:..\..\..\lvgl\version_6.1.2\lvgl\src\lv_misc/lv_printf.c ****     return 0U;
 338:..\..\..\lvgl\version_6.1.2\lvgl\src\lv_misc/lv_printf.c **** #endif
 339:..\..\..\lvgl\version_6.1.2\lvgl\src\lv_misc/lv_printf.c ****   }
 340:..\..\..\lvgl\version_6.1.2\lvgl\src\lv_misc/lv_printf.c **** 
 341:..\..\..\lvgl\version_6.1.2\lvgl\src\lv_misc/lv_printf.c ****   // test for negative
 342:..\..\..\lvgl\version_6.1.2\lvgl\src\lv_misc/lv_printf.c ****   bool negative = false;
 343:..\..\..\lvgl\version_6.1.2\lvgl\src\lv_misc/lv_printf.c ****   if (value < 0) {
 344:..\..\..\lvgl\version_6.1.2\lvgl\src\lv_misc/lv_printf.c ****     negative = true;
 345:..\..\..\lvgl\version_6.1.2\lvgl\src\lv_misc/lv_printf.c ****     value = 0 - value;
 346:..\..\..\lvgl\version_6.1.2\lvgl\src\lv_misc/lv_printf.c ****   }
 347:..\..\..\lvgl\version_6.1.2\lvgl\src\lv_misc/lv_printf.c **** 
 348:..\..\..\lvgl\version_6.1.2\lvgl\src\lv_misc/lv_printf.c ****   // set default precision, if not set explicitly
 349:..\..\..\lvgl\version_6.1.2\lvgl\src\lv_misc/lv_printf.c ****   if (!(flags & FLAGS_PRECISION)) {
 350:..\..\..\lvgl\version_6.1.2\lvgl\src\lv_misc/lv_printf.c ****     prec = PRINTF_DEFAULT_FLOAT_PRECISION;
 351:..\..\..\lvgl\version_6.1.2\lvgl\src\lv_misc/lv_printf.c ****   }
 352:..\..\..\lvgl\version_6.1.2\lvgl\src\lv_misc/lv_printf.c ****   // limit precision to 9, cause a prec >= 10 can lead to overflow errors
 353:..\..\..\lvgl\version_6.1.2\lvgl\src\lv_misc/lv_printf.c ****   while ((len < PRINTF_FTOA_BUFFER_SIZE) && (prec > 9U)) {
 354:..\..\..\lvgl\version_6.1.2\lvgl\src\lv_misc/lv_printf.c ****     buf[len++] = '0';
 355:..\..\..\lvgl\version_6.1.2\lvgl\src\lv_misc/lv_printf.c ****     prec--;
 356:..\..\..\lvgl\version_6.1.2\lvgl\src\lv_misc/lv_printf.c ****   }
 357:..\..\..\lvgl\version_6.1.2\lvgl\src\lv_misc/lv_printf.c **** 
 358:..\..\..\lvgl\version_6.1.2\lvgl\src\lv_misc/lv_printf.c ****   int whole = (int)value;
 359:..\..\..\lvgl\version_6.1.2\lvgl\src\lv_misc/lv_printf.c ****   double tmp = (value - whole) * pow10[prec];
 360:..\..\..\lvgl\version_6.1.2\lvgl\src\lv_misc/lv_printf.c ****   unsigned long frac = (unsigned long)tmp;
 361:..\..\..\lvgl\version_6.1.2\lvgl\src\lv_misc/lv_printf.c ****   diff = tmp - frac;
 362:..\..\..\lvgl\version_6.1.2\lvgl\src\lv_misc/lv_printf.c **** 
 363:..\..\..\lvgl\version_6.1.2\lvgl\src\lv_misc/lv_printf.c ****   if (diff > 0.5) {
 364:..\..\..\lvgl\version_6.1.2\lvgl\src\lv_misc/lv_printf.c ****     ++frac;
 365:..\..\..\lvgl\version_6.1.2\lvgl\src\lv_misc/lv_printf.c ****     // handle rollover, e.g. case 0.99 with prec 1 is 1.0
 366:..\..\..\lvgl\version_6.1.2\lvgl\src\lv_misc/lv_printf.c ****     if (frac >= pow10[prec]) {
 367:..\..\..\lvgl\version_6.1.2\lvgl\src\lv_misc/lv_printf.c ****       frac = 0;
 368:..\..\..\lvgl\version_6.1.2\lvgl\src\lv_misc/lv_printf.c ****       ++whole;
 369:..\..\..\lvgl\version_6.1.2\lvgl\src\lv_misc/lv_printf.c ****     }
ARM GAS  C:\Users\pearlstl\AppData\Local\Temp\ccbpFzqf.s 			page 18


 370:..\..\..\lvgl\version_6.1.2\lvgl\src\lv_misc/lv_printf.c ****   }
 371:..\..\..\lvgl\version_6.1.2\lvgl\src\lv_misc/lv_printf.c ****   else if (diff < 0.5) {
 372:..\..\..\lvgl\version_6.1.2\lvgl\src\lv_misc/lv_printf.c ****   }
 373:..\..\..\lvgl\version_6.1.2\lvgl\src\lv_misc/lv_printf.c ****   else if ((frac == 0U) || (frac & 1U)) {
 374:..\..\..\lvgl\version_6.1.2\lvgl\src\lv_misc/lv_printf.c ****     // if halfway, round up if odd OR if last digit is 0
 375:..\..\..\lvgl\version_6.1.2\lvgl\src\lv_misc/lv_printf.c ****     ++frac;
 376:..\..\..\lvgl\version_6.1.2\lvgl\src\lv_misc/lv_printf.c ****   }
 377:..\..\..\lvgl\version_6.1.2\lvgl\src\lv_misc/lv_printf.c **** 
 378:..\..\..\lvgl\version_6.1.2\lvgl\src\lv_misc/lv_printf.c ****   if (prec == 0U) {
 379:..\..\..\lvgl\version_6.1.2\lvgl\src\lv_misc/lv_printf.c ****     diff = value - (double)whole;
 380:..\..\..\lvgl\version_6.1.2\lvgl\src\lv_misc/lv_printf.c ****     if ((!(diff < 0.5) || (diff > 0.5)) && (whole & 1)) {
 381:..\..\..\lvgl\version_6.1.2\lvgl\src\lv_misc/lv_printf.c ****       // exactly 0.5 and ODD, then round up
 382:..\..\..\lvgl\version_6.1.2\lvgl\src\lv_misc/lv_printf.c ****       // 1.5 -> 2, but 2.5 -> 2
 383:..\..\..\lvgl\version_6.1.2\lvgl\src\lv_misc/lv_printf.c ****       ++whole;
 384:..\..\..\lvgl\version_6.1.2\lvgl\src\lv_misc/lv_printf.c ****     }
 385:..\..\..\lvgl\version_6.1.2\lvgl\src\lv_misc/lv_printf.c ****   }
 386:..\..\..\lvgl\version_6.1.2\lvgl\src\lv_misc/lv_printf.c ****   else {
 387:..\..\..\lvgl\version_6.1.2\lvgl\src\lv_misc/lv_printf.c ****     unsigned int count = prec;
 388:..\..\..\lvgl\version_6.1.2\lvgl\src\lv_misc/lv_printf.c ****     // now do fractional part, as an unsigned number
 389:..\..\..\lvgl\version_6.1.2\lvgl\src\lv_misc/lv_printf.c ****     while (len < PRINTF_FTOA_BUFFER_SIZE) {
 390:..\..\..\lvgl\version_6.1.2\lvgl\src\lv_misc/lv_printf.c ****       --count;
 391:..\..\..\lvgl\version_6.1.2\lvgl\src\lv_misc/lv_printf.c ****       buf[len++] = (char)(48U + (frac % 10U));
 392:..\..\..\lvgl\version_6.1.2\lvgl\src\lv_misc/lv_printf.c ****       if (!(frac /= 10U)) {
 393:..\..\..\lvgl\version_6.1.2\lvgl\src\lv_misc/lv_printf.c ****         break;
 394:..\..\..\lvgl\version_6.1.2\lvgl\src\lv_misc/lv_printf.c ****       }
 395:..\..\..\lvgl\version_6.1.2\lvgl\src\lv_misc/lv_printf.c ****     }
 396:..\..\..\lvgl\version_6.1.2\lvgl\src\lv_misc/lv_printf.c ****     // add extra 0s
 397:..\..\..\lvgl\version_6.1.2\lvgl\src\lv_misc/lv_printf.c ****     while ((len < PRINTF_FTOA_BUFFER_SIZE) && (count-- > 0U)) {
 398:..\..\..\lvgl\version_6.1.2\lvgl\src\lv_misc/lv_printf.c ****       buf[len++] = '0';
 399:..\..\..\lvgl\version_6.1.2\lvgl\src\lv_misc/lv_printf.c ****     }
 400:..\..\..\lvgl\version_6.1.2\lvgl\src\lv_misc/lv_printf.c ****     if (len < PRINTF_FTOA_BUFFER_SIZE) {
 401:..\..\..\lvgl\version_6.1.2\lvgl\src\lv_misc/lv_printf.c ****       // add decimal
 402:..\..\..\lvgl\version_6.1.2\lvgl\src\lv_misc/lv_printf.c ****       buf[len++] = '.';
 403:..\..\..\lvgl\version_6.1.2\lvgl\src\lv_misc/lv_printf.c ****     }
 404:..\..\..\lvgl\version_6.1.2\lvgl\src\lv_misc/lv_printf.c ****   }
 405:..\..\..\lvgl\version_6.1.2\lvgl\src\lv_misc/lv_printf.c **** 
 406:..\..\..\lvgl\version_6.1.2\lvgl\src\lv_misc/lv_printf.c ****   // do whole part, number is reversed
 407:..\..\..\lvgl\version_6.1.2\lvgl\src\lv_misc/lv_printf.c ****   while (len < PRINTF_FTOA_BUFFER_SIZE) {
 408:..\..\..\lvgl\version_6.1.2\lvgl\src\lv_misc/lv_printf.c ****     buf[len++] = (char)(48 + (whole % 10));
 409:..\..\..\lvgl\version_6.1.2\lvgl\src\lv_misc/lv_printf.c ****     if (!(whole /= 10)) {
 410:..\..\..\lvgl\version_6.1.2\lvgl\src\lv_misc/lv_printf.c ****       break;
 411:..\..\..\lvgl\version_6.1.2\lvgl\src\lv_misc/lv_printf.c ****     }
 412:..\..\..\lvgl\version_6.1.2\lvgl\src\lv_misc/lv_printf.c ****   }
 413:..\..\..\lvgl\version_6.1.2\lvgl\src\lv_misc/lv_printf.c **** 
 414:..\..\..\lvgl\version_6.1.2\lvgl\src\lv_misc/lv_printf.c ****   // pad leading zeros
 415:..\..\..\lvgl\version_6.1.2\lvgl\src\lv_misc/lv_printf.c ****   if (!(flags & FLAGS_LEFT) && (flags & FLAGS_ZEROPAD)) {
 416:..\..\..\lvgl\version_6.1.2\lvgl\src\lv_misc/lv_printf.c ****     if (width && (negative || (flags & (FLAGS_PLUS | FLAGS_SPACE)))) {
 417:..\..\..\lvgl\version_6.1.2\lvgl\src\lv_misc/lv_printf.c ****       width--;
 418:..\..\..\lvgl\version_6.1.2\lvgl\src\lv_misc/lv_printf.c ****     }
 419:..\..\..\lvgl\version_6.1.2\lvgl\src\lv_misc/lv_printf.c ****     while ((len < width) && (len < PRINTF_FTOA_BUFFER_SIZE)) {
 420:..\..\..\lvgl\version_6.1.2\lvgl\src\lv_misc/lv_printf.c ****       buf[len++] = '0';
 421:..\..\..\lvgl\version_6.1.2\lvgl\src\lv_misc/lv_printf.c ****     }
 422:..\..\..\lvgl\version_6.1.2\lvgl\src\lv_misc/lv_printf.c ****   }
 423:..\..\..\lvgl\version_6.1.2\lvgl\src\lv_misc/lv_printf.c **** 
 424:..\..\..\lvgl\version_6.1.2\lvgl\src\lv_misc/lv_printf.c ****   if (len < PRINTF_FTOA_BUFFER_SIZE) {
 425:..\..\..\lvgl\version_6.1.2\lvgl\src\lv_misc/lv_printf.c ****     if (negative) {
 426:..\..\..\lvgl\version_6.1.2\lvgl\src\lv_misc/lv_printf.c ****       buf[len++] = '-';
ARM GAS  C:\Users\pearlstl\AppData\Local\Temp\ccbpFzqf.s 			page 19


 427:..\..\..\lvgl\version_6.1.2\lvgl\src\lv_misc/lv_printf.c ****     }
 428:..\..\..\lvgl\version_6.1.2\lvgl\src\lv_misc/lv_printf.c ****     else if (flags & FLAGS_PLUS) {
 429:..\..\..\lvgl\version_6.1.2\lvgl\src\lv_misc/lv_printf.c ****       buf[len++] = '+';  // ignore the space if the '+' exists
 430:..\..\..\lvgl\version_6.1.2\lvgl\src\lv_misc/lv_printf.c ****     }
 431:..\..\..\lvgl\version_6.1.2\lvgl\src\lv_misc/lv_printf.c ****     else if (flags & FLAGS_SPACE) {
 432:..\..\..\lvgl\version_6.1.2\lvgl\src\lv_misc/lv_printf.c ****       buf[len++] = ' ';
 433:..\..\..\lvgl\version_6.1.2\lvgl\src\lv_misc/lv_printf.c ****     }
 434:..\..\..\lvgl\version_6.1.2\lvgl\src\lv_misc/lv_printf.c ****   }
 435:..\..\..\lvgl\version_6.1.2\lvgl\src\lv_misc/lv_printf.c **** 
 436:..\..\..\lvgl\version_6.1.2\lvgl\src\lv_misc/lv_printf.c ****   return _out_rev(out, buffer, idx, maxlen, buf, len, width, flags);
 437:..\..\..\lvgl\version_6.1.2\lvgl\src\lv_misc/lv_printf.c **** }
 438:..\..\..\lvgl\version_6.1.2\lvgl\src\lv_misc/lv_printf.c **** 
 439:..\..\..\lvgl\version_6.1.2\lvgl\src\lv_misc/lv_printf.c **** 
 440:..\..\..\lvgl\version_6.1.2\lvgl\src\lv_misc/lv_printf.c **** #if defined(PRINTF_SUPPORT_EXPONENTIAL)
 441:..\..\..\lvgl\version_6.1.2\lvgl\src\lv_misc/lv_printf.c **** // internal ftoa variant for exponential floating-point type, contributed by Martijn Jasperse <m.ja
 442:..\..\..\lvgl\version_6.1.2\lvgl\src\lv_misc/lv_printf.c **** static size_t _etoa(out_fct_type out, char* buffer, size_t idx, size_t maxlen, double value, unsign
 443:..\..\..\lvgl\version_6.1.2\lvgl\src\lv_misc/lv_printf.c **** {
 548              		.loc 1 443 0
 549              		.cfi_startproc
 550              		@ args = 20, pretend = 0, frame = 64
 551              		@ frame_needed = 0, uses_anonymous_args = 0
 552              	.LVL72:
 553 0000 2DE9F04F 		push	{r4, r5, r6, r7, r8, r9, r10, fp, lr}
 554              		.cfi_def_cfa_offset 36
 555              		.cfi_offset 4, -36
 556              		.cfi_offset 5, -32
 557              		.cfi_offset 6, -28
 558              		.cfi_offset 7, -24
 559              		.cfi_offset 8, -20
 560              		.cfi_offset 9, -16
 561              		.cfi_offset 10, -12
 562              		.cfi_offset 11, -8
 563              		.cfi_offset 14, -4
 564 0004 99B0     		sub	sp, sp, #100
 565              		.cfi_def_cfa_offset 136
 566              		.loc 1 443 0
 567 0006 0546     		mov	r5, r0
 568 0008 0E46     		mov	r6, r1
 444:..\..\..\lvgl\version_6.1.2\lvgl\src\lv_misc/lv_printf.c ****   // check for NaN and special values
 445:..\..\..\lvgl\version_6.1.2\lvgl\src\lv_misc/lv_printf.c ****   if ((value != value) || (value > DBL_MAX) || (value < -DBL_MAX)) {
 569              		.loc 1 445 0
 570 000a DDE92201 		ldrd	r0, [sp, #136]
 571              	.LVL73:
 443:..\..\..\lvgl\version_6.1.2\lvgl\src\lv_misc/lv_printf.c ****   // check for NaN and special values
 572              		.loc 1 443 0
 573 000e 9246     		mov	r10, r2
 574 0010 1F46     		mov	r7, r3
 575              		.loc 1 445 0
 576 0012 0246     		mov	r2, r0
 577              	.LVL74:
 578 0014 0B46     		mov	r3, r1
 579              	.LVL75:
 580 0016 FFF7FEFF 		bl	__aeabi_dcmpeq
 581              	.LVL76:
 582 001a 0028     		cmp	r0, #0
 583 001c 00F00282 		beq	.L93
 584              		.loc 1 445 0 is_stmt 0 discriminator 1
ARM GAS  C:\Users\pearlstl\AppData\Local\Temp\ccbpFzqf.s 			page 20


 585 0020 4FF0FF32 		mov	r2, #-1
 586 0024 C24B     		ldr	r3, .L223+64
 587 0026 DDE92201 		ldrd	r0, [sp, #136]
 588 002a FFF7FEFF 		bl	__aeabi_dcmpgt
 589              	.LVL77:
 590              	.LBB93:
 591              	.LBB94:
 326:..\..\..\lvgl\version_6.1.2\lvgl\src\lv_misc/lv_printf.c ****     return _out_rev(out, buffer, idx, maxlen, "fni-", 4, width, flags);
 592              		.loc 1 326 0 is_stmt 1 discriminator 1
 593 002e 4FF0FF32 		mov	r2, #-1
 594 0032 6FF48013 		mvn	r3, #1048576
 595              	.LBE94:
 596              	.LBE93:
 597              		.loc 1 445 0 discriminator 1
 598 0036 0028     		cmp	r0, #0
 599 0038 40F0CB81 		bne	.L94
 600              		.loc 1 445 0 is_stmt 0 discriminator 2
 601 003c DDE92201 		ldrd	r0, [sp, #136]
 602 0040 FFF7FEFF 		bl	__aeabi_dcmplt
 603              	.LVL78:
 604 0044 0028     		cmp	r0, #0
 605 0046 40F02582 		bne	.L95
 606              	.LVL79:
 607              	.LBB110:
 608              	.LBB111:
 446:..\..\..\lvgl\version_6.1.2\lvgl\src\lv_misc/lv_printf.c ****     return _ftoa(out, buffer, idx, maxlen, value, prec, width, flags);
 447:..\..\..\lvgl\version_6.1.2\lvgl\src\lv_misc/lv_printf.c ****   }
 448:..\..\..\lvgl\version_6.1.2\lvgl\src\lv_misc/lv_printf.c **** 
 449:..\..\..\lvgl\version_6.1.2\lvgl\src\lv_misc/lv_printf.c ****   // determine the sign
 450:..\..\..\lvgl\version_6.1.2\lvgl\src\lv_misc/lv_printf.c ****   const bool negative = value < 0;
 451:..\..\..\lvgl\version_6.1.2\lvgl\src\lv_misc/lv_printf.c ****   if (negative) {
 609              		.loc 1 451 0 is_stmt 1
 610 004a 0022     		movs	r2, #0
 611 004c 0023     		movs	r3, #0
 612 004e DDE92201 		ldrd	r0, [sp, #136]
 613 0052 FFF7FEFF 		bl	__aeabi_dcmplt
 614              	.LVL80:
 615 0056 0028     		cmp	r0, #0
 616 0058 40F05682 		bne	.L216
 617 005c 9DED227B 		vldr.64	d7, [sp, #136]
 618 0060 8DED087B 		vstr.64	d7, [sp, #32]
 619 0064 0998     		ldr	r0, [sp, #36]
 620              	.LVL81:
 621              	.L108:
 452:..\..\..\lvgl\version_6.1.2\lvgl\src\lv_misc/lv_printf.c ****     value = -value;
 453:..\..\..\lvgl\version_6.1.2\lvgl\src\lv_misc/lv_printf.c ****   }
 454:..\..\..\lvgl\version_6.1.2\lvgl\src\lv_misc/lv_printf.c **** 
 455:..\..\..\lvgl\version_6.1.2\lvgl\src\lv_misc/lv_printf.c ****   // default precision
 456:..\..\..\lvgl\version_6.1.2\lvgl\src\lv_misc/lv_printf.c ****   if (!(flags & FLAGS_PRECISION)) {
 457:..\..\..\lvgl\version_6.1.2\lvgl\src\lv_misc/lv_printf.c ****     prec = PRINTF_DEFAULT_FLOAT_PRECISION;
 622              		.loc 1 457 0
 623 0066 269B     		ldr	r3, [sp, #152]
 458:..\..\..\lvgl\version_6.1.2\lvgl\src\lv_misc/lv_printf.c ****   }
 459:..\..\..\lvgl\version_6.1.2\lvgl\src\lv_misc/lv_printf.c **** 
 460:..\..\..\lvgl\version_6.1.2\lvgl\src\lv_misc/lv_printf.c ****   // determine the decimal exponent
 461:..\..\..\lvgl\version_6.1.2\lvgl\src\lv_misc/lv_printf.c ****   // based on the algorithm by David Gay (https://www.ampl.com/netlib/fp/dtoa.c)
 462:..\..\..\lvgl\version_6.1.2\lvgl\src\lv_misc/lv_printf.c ****   union {
ARM GAS  C:\Users\pearlstl\AppData\Local\Temp\ccbpFzqf.s 			page 21


 463:..\..\..\lvgl\version_6.1.2\lvgl\src\lv_misc/lv_printf.c ****     uint64_t U;
 464:..\..\..\lvgl\version_6.1.2\lvgl\src\lv_misc/lv_printf.c ****     double   F;
 465:..\..\..\lvgl\version_6.1.2\lvgl\src\lv_misc/lv_printf.c ****   } conv;
 466:..\..\..\lvgl\version_6.1.2\lvgl\src\lv_misc/lv_printf.c **** 
 467:..\..\..\lvgl\version_6.1.2\lvgl\src\lv_misc/lv_printf.c ****   conv.F = value;
 468:..\..\..\lvgl\version_6.1.2\lvgl\src\lv_misc/lv_printf.c ****   int exp2 = (int)((conv.U >> 52U) & 0x07FFU) - 1023;           // effectively log2
 469:..\..\..\lvgl\version_6.1.2\lvgl\src\lv_misc/lv_printf.c ****   conv.U = (conv.U & ((1ULL << 52U) - 1U)) | (1023ULL << 52U);  // drop the exponent so conv.F is n
 470:..\..\..\lvgl\version_6.1.2\lvgl\src\lv_misc/lv_printf.c ****   // now approximate log10 from the log2 integer part and an expansion of ln around 1.5
 471:..\..\..\lvgl\version_6.1.2\lvgl\src\lv_misc/lv_printf.c ****   int expval = (int)(0.1760912590558 + exp2 * 0.301029995663981 + (conv.F - 1.5) * 0.28952965460216
 624              		.loc 1 471 0
 625 0068 C0F30A50 		ubfx	r0, r0, #20, #11
 457:..\..\..\lvgl\version_6.1.2\lvgl\src\lv_misc/lv_printf.c ****   }
 626              		.loc 1 457 0
 627 006c 13F48063 		ands	r3, r3, #1024
 628 0070 0F93     		str	r3, [sp, #60]
 629              		.loc 1 471 0
 630 0072 A0F2FF30 		subw	r0, r0, #1023
 457:..\..\..\lvgl\version_6.1.2\lvgl\src\lv_misc/lv_printf.c ****   }
 631              		.loc 1 457 0
 632 0076 249B     		ldr	r3, [sp, #144]
 633 0078 08BF     		it	eq
 634 007a 0623     		moveq	r3, #6
 635 007c 2493     		str	r3, [sp, #144]
 636              	.LVL82:
 637              		.loc 1 471 0
 638 007e FFF7FEFF 		bl	__aeabi_i2d
 639              	.LVL83:
 640 0082 9BA3     		adr	r3, .L223
 641 0084 D3E90023 		ldrd	r2, [r3]
 642 0088 FFF7FEFF 		bl	__aeabi_dmul
 643              	.LVL84:
 644 008c 9AA3     		adr	r3, .L223+8
 645 008e D3E90023 		ldrd	r2, [r3]
 646 0092 FFF7FEFF 		bl	__aeabi_dadd
 647              	.LVL85:
 469:..\..\..\lvgl\version_6.1.2\lvgl\src\lv_misc/lv_printf.c ****   // now approximate log10 from the log2 integer part and an expansion of ln around 1.5
 648              		.loc 1 469 0
 649 0096 DDE908BC 		ldrd	fp, [sp, #32]
 650 009a A64B     		ldr	r3, .L223+68
 651 009c 4FF0FF32 		mov	r2, #-1
 652 00a0 0CEA030C 		and	ip, ip, r3
 653              		.loc 1 471 0
 654 00a4 8946     		mov	r9, r1
 469:..\..\..\lvgl\version_6.1.2\lvgl\src\lv_misc/lv_printf.c ****   // now approximate log10 from the log2 integer part and an expansion of ln around 1.5
 655              		.loc 1 469 0
 656 00a6 0BEA020B 		and	fp, fp, r2
 657 00aa A349     		ldr	r1, .L223+72
 658 00ac 6346     		mov	r3, ip
 659              		.loc 1 471 0
 660 00ae 8046     		mov	r8, r0
 469:..\..\..\lvgl\version_6.1.2\lvgl\src\lv_misc/lv_printf.c ****   // now approximate log10 from the log2 integer part and an expansion of ln around 1.5
 661              		.loc 1 469 0
 662 00b0 5A46     		mov	r2, fp
 663 00b2 0020     		movs	r0, #0
 664              		.loc 1 471 0
 665 00b4 1043     		orrs	r0, r0, r2
 666 00b6 1943     		orrs	r1, r1, r3
ARM GAS  C:\Users\pearlstl\AppData\Local\Temp\ccbpFzqf.s 			page 22


 667 00b8 0022     		movs	r2, #0
 668 00ba A04B     		ldr	r3, .L223+76
 669 00bc FFF7FEFF 		bl	__aeabi_dsub
 670              	.LVL86:
 671 00c0 8FA3     		adr	r3, .L223+16
 672 00c2 D3E90023 		ldrd	r2, [r3]
 673 00c6 FFF7FEFF 		bl	__aeabi_dmul
 674              	.LVL87:
 675 00ca 0246     		mov	r2, r0
 676 00cc 0B46     		mov	r3, r1
 677 00ce 4046     		mov	r0, r8
 678 00d0 4946     		mov	r1, r9
 679 00d2 FFF7FEFF 		bl	__aeabi_dadd
 680              	.LVL88:
 681 00d6 FFF7FEFF 		bl	__aeabi_d2iz
 682              	.LVL89:
 683 00da 8346     		mov	fp, r0
 684              	.LVL90:
 472:..\..\..\lvgl\version_6.1.2\lvgl\src\lv_misc/lv_printf.c ****   // now we want to compute 10^expval but we want to be sure it won't overflow
 473:..\..\..\lvgl\version_6.1.2\lvgl\src\lv_misc/lv_printf.c ****   exp2 = (int)(expval * 3.321928094887362 + 0.5);
 685              		.loc 1 473 0
 686 00dc FFF7FEFF 		bl	__aeabi_i2d
 687              	.LVL91:
 688 00e0 89A3     		adr	r3, .L223+24
 689 00e2 D3E90023 		ldrd	r2, [r3]
 690 00e6 8046     		mov	r8, r0
 691 00e8 8946     		mov	r9, r1
 692 00ea FFF7FEFF 		bl	__aeabi_dmul
 693              	.LVL92:
 694 00ee 0022     		movs	r2, #0
 695 00f0 934B     		ldr	r3, .L223+80
 696 00f2 FFF7FEFF 		bl	__aeabi_dadd
 697              	.LVL93:
 698 00f6 FFF7FEFF 		bl	__aeabi_d2iz
 699              	.LVL94:
 474:..\..\..\lvgl\version_6.1.2\lvgl\src\lv_misc/lv_printf.c ****   const double z  = expval * 2.302585092994046 - exp2 * 0.6931471805599453;
 700              		.loc 1 474 0
 701 00fa 85A3     		adr	r3, .L223+32
 702 00fc D3E90023 		ldrd	r2, [r3]
 473:..\..\..\lvgl\version_6.1.2\lvgl\src\lv_misc/lv_printf.c ****   const double z  = expval * 2.302585092994046 - exp2 * 0.6931471805599453;
 703              		.loc 1 473 0
 704 0100 0446     		mov	r4, r0
 705              	.LVL95:
 706              		.loc 1 474 0
 707 0102 4946     		mov	r1, r9
 708 0104 4046     		mov	r0, r8
 709              	.LVL96:
 710 0106 FFF7FEFF 		bl	__aeabi_dmul
 711              	.LVL97:
 712 010a 8046     		mov	r8, r0
 713 010c 2046     		mov	r0, r4
 714 010e 8946     		mov	r9, r1
 715 0110 FFF7FEFF 		bl	__aeabi_i2d
 716              	.LVL98:
 717 0114 80A3     		adr	r3, .L223+40
 718 0116 D3E90023 		ldrd	r2, [r3]
 719 011a FFF7FEFF 		bl	__aeabi_dmul
ARM GAS  C:\Users\pearlstl\AppData\Local\Temp\ccbpFzqf.s 			page 23


 720              	.LVL99:
 721 011e 0246     		mov	r2, r0
 722 0120 0B46     		mov	r3, r1
 723 0122 4046     		mov	r0, r8
 724 0124 4946     		mov	r1, r9
 725 0126 FFF7FEFF 		bl	__aeabi_dsub
 726              	.LVL100:
 727 012a 0246     		mov	r2, r0
 728 012c 0B46     		mov	r3, r1
 729              	.LVL101:
 475:..\..\..\lvgl\version_6.1.2\lvgl\src\lv_misc/lv_printf.c ****   const double z2 = z * z;
 730              		.loc 1 475 0
 731 012e CDE90A23 		strd	r2, [sp, #40]
 732 0132 FFF7FEFF 		bl	__aeabi_dmul
 733              	.LVL102:
 734 0136 8046     		mov	r8, r0
 735 0138 8946     		mov	r9, r1
 736              	.LVL103:
 476:..\..\..\lvgl\version_6.1.2\lvgl\src\lv_misc/lv_printf.c ****   conv.U = (uint64_t)(exp2 + 1023) << 52U;
 477:..\..\..\lvgl\version_6.1.2\lvgl\src\lv_misc/lv_printf.c ****   // compute exp(z) using continued fractions, see https://en.wikipedia.org/wiki/Exponential_functi
 478:..\..\..\lvgl\version_6.1.2\lvgl\src\lv_misc/lv_printf.c ****   conv.F *= 1 + 2 * z / (2 - z + (z2 / (6 + (z2 / (10 + z2 / 14)))));
 737              		.loc 1 478 0
 738 013a DDE90A01 		ldrd	r0, [sp, #40]
 739 013e 0246     		mov	r2, r0
 740 0140 0B46     		mov	r3, r1
 741 0142 FFF7FEFF 		bl	__aeabi_dadd
 742              	.LVL104:
 743 0146 0022     		movs	r2, #0
 744 0148 CDE90C01 		strd	r0, [sp, #48]
 745 014c 7D4B     		ldr	r3, .L223+84
 746 014e 4046     		mov	r0, r8
 747 0150 4946     		mov	r1, r9
 748 0152 FFF7FEFF 		bl	__aeabi_ddiv
 749              	.LVL105:
 750 0156 0022     		movs	r2, #0
 751 0158 7B4B     		ldr	r3, .L223+88
 752 015a FFF7FEFF 		bl	__aeabi_dadd
 753              	.LVL106:
 754 015e 0246     		mov	r2, r0
 755 0160 0B46     		mov	r3, r1
 756 0162 4046     		mov	r0, r8
 757 0164 4946     		mov	r1, r9
 758 0166 FFF7FEFF 		bl	__aeabi_ddiv
 759              	.LVL107:
 760 016a 0022     		movs	r2, #0
 761 016c 774B     		ldr	r3, .L223+92
 762 016e FFF7FEFF 		bl	__aeabi_dadd
 763              	.LVL108:
 764 0172 0246     		mov	r2, r0
 765 0174 0B46     		mov	r3, r1
 766 0176 4046     		mov	r0, r8
 767 0178 4946     		mov	r1, r9
 768 017a FFF7FEFF 		bl	__aeabi_ddiv
 769              	.LVL109:
 770 017e DDE90A23 		ldrd	r2, [sp, #40]
 771 0182 8046     		mov	r8, r0
 772              	.LVL110:
ARM GAS  C:\Users\pearlstl\AppData\Local\Temp\ccbpFzqf.s 			page 24


 773 0184 8946     		mov	r9, r1
 774 0186 0020     		movs	r0, #0
 775 0188 4FF08041 		mov	r1, #1073741824
 776 018c FFF7FEFF 		bl	__aeabi_dsub
 777              	.LVL111:
 778 0190 0246     		mov	r2, r0
 779 0192 0B46     		mov	r3, r1
 780 0194 4046     		mov	r0, r8
 781 0196 4946     		mov	r1, r9
 782 0198 FFF7FEFF 		bl	__aeabi_dadd
 783              	.LVL112:
 784 019c 0246     		mov	r2, r0
 785 019e 0B46     		mov	r3, r1
 786 01a0 DDE90C01 		ldrd	r0, [sp, #48]
 787 01a4 FFF7FEFF 		bl	__aeabi_ddiv
 788              	.LVL113:
 476:..\..\..\lvgl\version_6.1.2\lvgl\src\lv_misc/lv_printf.c ****   conv.U = (uint64_t)(exp2 + 1023) << 52U;
 789              		.loc 1 476 0
 790 01a8 04F2FF34 		addw	r4, r4, #1023
 791              	.LVL114:
 792              		.loc 1 478 0
 793 01ac 0022     		movs	r2, #0
 794 01ae 624B     		ldr	r3, .L223+72
 795 01b0 FFF7FEFF 		bl	__aeabi_dadd
 796              	.LVL115:
 476:..\..\..\lvgl\version_6.1.2\lvgl\src\lv_misc/lv_printf.c ****   conv.U = (uint64_t)(exp2 + 1023) << 52U;
 797              		.loc 1 476 0
 798 01b4 0022     		movs	r2, #0
 799 01b6 2305     		lsls	r3, r4, #20
 800              		.loc 1 478 0
 801 01b8 FFF7FEFF 		bl	__aeabi_dmul
 802              	.LVL116:
 803 01bc 8046     		mov	r8, r0
 804 01be 8946     		mov	r9, r1
 805              	.LVL117:
 479:..\..\..\lvgl\version_6.1.2\lvgl\src\lv_misc/lv_printf.c ****   // correct for rounding errors
 480:..\..\..\lvgl\version_6.1.2\lvgl\src\lv_misc/lv_printf.c ****   if (value < conv.F) {
 806              		.loc 1 480 0
 807 01c0 0246     		mov	r2, r0
 808 01c2 0B46     		mov	r3, r1
 809 01c4 DDE90801 		ldrd	r0, [sp, #32]
 810 01c8 FFF7FEFF 		bl	__aeabi_dcmplt
 811              	.LVL118:
 812 01cc 48B1     		cbz	r0, .L111
 481:..\..\..\lvgl\version_6.1.2\lvgl\src\lv_misc/lv_printf.c ****     expval--;
 482:..\..\..\lvgl\version_6.1.2\lvgl\src\lv_misc/lv_printf.c ****     conv.F /= 10;
 813              		.loc 1 482 0
 814 01ce 4046     		mov	r0, r8
 815 01d0 4946     		mov	r1, r9
 816 01d2 0022     		movs	r2, #0
 817 01d4 5C4B     		ldr	r3, .L223+88
 818 01d6 FFF7FEFF 		bl	__aeabi_ddiv
 819              	.LVL119:
 481:..\..\..\lvgl\version_6.1.2\lvgl\src\lv_misc/lv_printf.c ****     expval--;
 820              		.loc 1 481 0
 821 01da 0BF1FF3B 		add	fp, fp, #-1
 822              	.LVL120:
ARM GAS  C:\Users\pearlstl\AppData\Local\Temp\ccbpFzqf.s 			page 25


 823              		.loc 1 482 0
 824 01de 8046     		mov	r8, r0
 825              	.LVL121:
 826 01e0 8946     		mov	r9, r1
 827              	.LVL122:
 828              	.L111:
 483:..\..\..\lvgl\version_6.1.2\lvgl\src\lv_misc/lv_printf.c ****   }
 484:..\..\..\lvgl\version_6.1.2\lvgl\src\lv_misc/lv_printf.c **** 
 485:..\..\..\lvgl\version_6.1.2\lvgl\src\lv_misc/lv_printf.c ****   // the exponent format is "%+03d" and largest value is "307", so set aside 4-5 characters
 486:..\..\..\lvgl\version_6.1.2\lvgl\src\lv_misc/lv_printf.c ****   unsigned int minwidth = ((expval < 100) && (expval > -100)) ? 4U : 5U;
 829              		.loc 1 486 0
 830 01e2 0BF16303 		add	r3, fp, #99
 831 01e6 C72B     		cmp	r3, #199
 832 01e8 34BF     		ite	cc
 833 01ea 0423     		movcc	r3, #4
 834 01ec 0523     		movcs	r3, #5
 835 01ee 0A93     		str	r3, [sp, #40]
 836              	.LVL123:
 487:..\..\..\lvgl\version_6.1.2\lvgl\src\lv_misc/lv_printf.c **** 
 488:..\..\..\lvgl\version_6.1.2\lvgl\src\lv_misc/lv_printf.c ****   // in "%g" mode, "prec" is the number of *significant figures* not decimals
 489:..\..\..\lvgl\version_6.1.2\lvgl\src\lv_misc/lv_printf.c ****   if (flags & FLAGS_ADAPT_EXP) {
 837              		.loc 1 489 0
 838 01f0 269B     		ldr	r3, [sp, #152]
 839              	.LVL124:
 840 01f2 1905     		lsls	r1, r3, #20
 841 01f4 18D5     		bpl	.L114
 490:..\..\..\lvgl\version_6.1.2\lvgl\src\lv_misc/lv_printf.c ****     // do we want to fall-back to "%f" mode?
 491:..\..\..\lvgl\version_6.1.2\lvgl\src\lv_misc/lv_printf.c ****     if ((value >= 1e-4) && (value < 1e6)) {
 842              		.loc 1 491 0
 843 01f6 4AA3     		adr	r3, .L223+48
 844 01f8 D3E90023 		ldrd	r2, [r3]
 845 01fc DDE90801 		ldrd	r0, [sp, #32]
 846 0200 FFF7FEFF 		bl	__aeabi_dcmpge
 847              	.LVL125:
 848 0204 48B1     		cbz	r0, .L115
 849 0206 48A3     		adr	r3, .L223+56
 850 0208 D3E90023 		ldrd	r2, [r3]
 851 020c DDE90801 		ldrd	r0, [sp, #32]
 852 0210 FFF7FEFF 		bl	__aeabi_dcmplt
 853              	.LVL126:
 854 0214 0028     		cmp	r0, #0
 855 0216 40F0D381 		bne	.L217
 856              	.L115:
 492:..\..\..\lvgl\version_6.1.2\lvgl\src\lv_misc/lv_printf.c ****       if ((int)prec > expval) {
 493:..\..\..\lvgl\version_6.1.2\lvgl\src\lv_misc/lv_printf.c ****         prec = (unsigned)((int)prec - expval - 1);
 494:..\..\..\lvgl\version_6.1.2\lvgl\src\lv_misc/lv_printf.c ****       }
 495:..\..\..\lvgl\version_6.1.2\lvgl\src\lv_misc/lv_printf.c ****       else {
 496:..\..\..\lvgl\version_6.1.2\lvgl\src\lv_misc/lv_printf.c ****         prec = 0;
 497:..\..\..\lvgl\version_6.1.2\lvgl\src\lv_misc/lv_printf.c ****       }
 498:..\..\..\lvgl\version_6.1.2\lvgl\src\lv_misc/lv_printf.c ****       flags |= FLAGS_PRECISION;   // make sure _ftoa respects precision
 499:..\..\..\lvgl\version_6.1.2\lvgl\src\lv_misc/lv_printf.c ****       // no characters in exponent
 500:..\..\..\lvgl\version_6.1.2\lvgl\src\lv_misc/lv_printf.c ****       minwidth = 0U;
 501:..\..\..\lvgl\version_6.1.2\lvgl\src\lv_misc/lv_printf.c ****       expval   = 0;
 502:..\..\..\lvgl\version_6.1.2\lvgl\src\lv_misc/lv_printf.c ****     }
 503:..\..\..\lvgl\version_6.1.2\lvgl\src\lv_misc/lv_printf.c ****     else {
 504:..\..\..\lvgl\version_6.1.2\lvgl\src\lv_misc/lv_printf.c ****       // we use one sigfig for the whole part
 505:..\..\..\lvgl\version_6.1.2\lvgl\src\lv_misc/lv_printf.c ****       if ((prec > 0) && (flags & FLAGS_PRECISION)) {
ARM GAS  C:\Users\pearlstl\AppData\Local\Temp\ccbpFzqf.s 			page 26


 857              		.loc 1 505 0
 858 021a 249B     		ldr	r3, [sp, #144]
 859 021c 23B1     		cbz	r3, .L114
 860 021e 0F9B     		ldr	r3, [sp, #60]
 861 0220 13B1     		cbz	r3, .L114
 862              	.LVL127:
 506:..\..\..\lvgl\version_6.1.2\lvgl\src\lv_misc/lv_printf.c ****         --prec;
 863              		.loc 1 506 0
 864 0222 249B     		ldr	r3, [sp, #144]
 865 0224 013B     		subs	r3, r3, #1
 866              	.LVL128:
 867 0226 2493     		str	r3, [sp, #144]
 868              	.LVL129:
 869              	.L114:
 507:..\..\..\lvgl\version_6.1.2\lvgl\src\lv_misc/lv_printf.c ****       }
 508:..\..\..\lvgl\version_6.1.2\lvgl\src\lv_misc/lv_printf.c ****     }
 509:..\..\..\lvgl\version_6.1.2\lvgl\src\lv_misc/lv_printf.c ****   }
 510:..\..\..\lvgl\version_6.1.2\lvgl\src\lv_misc/lv_printf.c **** 
 511:..\..\..\lvgl\version_6.1.2\lvgl\src\lv_misc/lv_printf.c ****   // will everything fit?
 512:..\..\..\lvgl\version_6.1.2\lvgl\src\lv_misc/lv_printf.c ****   unsigned int fwidth = width;
 513:..\..\..\lvgl\version_6.1.2\lvgl\src\lv_misc/lv_printf.c ****   if (width > minwidth) {
 870              		.loc 1 513 0
 871 0228 259B     		ldr	r3, [sp, #148]
 872 022a 0A9A     		ldr	r2, [sp, #40]
 873 022c 1946     		mov	r1, r3
 514:..\..\..\lvgl\version_6.1.2\lvgl\src\lv_misc/lv_printf.c ****     // we didn't fall-back so subtract the characters required for the exponent
 515:..\..\..\lvgl\version_6.1.2\lvgl\src\lv_misc/lv_printf.c ****     fwidth -= minwidth;
 516:..\..\..\lvgl\version_6.1.2\lvgl\src\lv_misc/lv_printf.c ****   } else {
 517:..\..\..\lvgl\version_6.1.2\lvgl\src\lv_misc/lv_printf.c ****     // not enough characters, so go back to default sizing
 518:..\..\..\lvgl\version_6.1.2\lvgl\src\lv_misc/lv_printf.c ****     fwidth = 0U;
 519:..\..\..\lvgl\version_6.1.2\lvgl\src\lv_misc/lv_printf.c ****   }
 520:..\..\..\lvgl\version_6.1.2\lvgl\src\lv_misc/lv_printf.c ****   if ((flags & FLAGS_LEFT) && minwidth) {
 874              		.loc 1 520 0
 875 022e 269B     		ldr	r3, [sp, #152]
 513:..\..\..\lvgl\version_6.1.2\lvgl\src\lv_misc/lv_printf.c ****     // we didn't fall-back so subtract the characters required for the exponent
 876              		.loc 1 513 0
 877 0230 9142     		cmp	r1, r2
 515:..\..\..\lvgl\version_6.1.2\lvgl\src\lv_misc/lv_printf.c ****   } else {
 878              		.loc 1 515 0
 879 0232 8CBF     		ite	hi
 880 0234 8C1A     		subhi	r4, r1, r2
 881              	.LVL130:
 518:..\..\..\lvgl\version_6.1.2\lvgl\src\lv_misc/lv_printf.c ****   }
 882              		.loc 1 518 0
 883 0236 0024     		movls	r4, #0
 884              	.LVL131:
 885              		.loc 1 520 0
 886 0238 13F00203 		ands	r3, r3, #2
 887 023c 0C93     		str	r3, [sp, #48]
 888 023e 03D0     		beq	.L120
 521:..\..\..\lvgl\version_6.1.2\lvgl\src\lv_misc/lv_printf.c ****     // if we're padding on the right, DON'T pad the floating part
 522:..\..\..\lvgl\version_6.1.2\lvgl\src\lv_misc/lv_printf.c ****     fwidth = 0U;
 889              		.loc 1 522 0
 890 0240 0A9B     		ldr	r3, [sp, #40]
 891 0242 002B     		cmp	r3, #0
 892 0244 18BF     		it	ne
 893 0246 0024     		movne	r4, #0
ARM GAS  C:\Users\pearlstl\AppData\Local\Temp\ccbpFzqf.s 			page 27


 894              	.LVL132:
 895              	.L120:
 523:..\..\..\lvgl\version_6.1.2\lvgl\src\lv_misc/lv_printf.c ****   }
 524:..\..\..\lvgl\version_6.1.2\lvgl\src\lv_misc/lv_printf.c **** 
 525:..\..\..\lvgl\version_6.1.2\lvgl\src\lv_misc/lv_printf.c ****   // rescale the float value
 526:..\..\..\lvgl\version_6.1.2\lvgl\src\lv_misc/lv_printf.c ****   if (expval) {
 896              		.loc 1 526 0
 897 0248 BBF1000F 		cmp	fp, #0
 898 024c 40F0DC80 		bne	.L218
 899              	.LVL133:
 900              	.L121:
 527:..\..\..\lvgl\version_6.1.2\lvgl\src\lv_misc/lv_printf.c ****     value /= conv.F;
 528:..\..\..\lvgl\version_6.1.2\lvgl\src\lv_misc/lv_printf.c ****   }
 529:..\..\..\lvgl\version_6.1.2\lvgl\src\lv_misc/lv_printf.c **** 
 530:..\..\..\lvgl\version_6.1.2\lvgl\src\lv_misc/lv_printf.c ****   // output the floating part
 531:..\..\..\lvgl\version_6.1.2\lvgl\src\lv_misc/lv_printf.c ****   const size_t start_idx = idx;
 532:..\..\..\lvgl\version_6.1.2\lvgl\src\lv_misc/lv_printf.c ****   idx = _ftoa(out, buffer, idx, maxlen, negative ? -value : value, prec, fwidth, flags & ~FLAGS_ADA
 901              		.loc 1 532 0
 902 0250 0022     		movs	r2, #0
 903 0252 0023     		movs	r3, #0
 904 0254 DDE92201 		ldrd	r0, [sp, #136]
 905 0258 FFF7FEFF 		bl	__aeabi_dcmplt
 906              	.LVL134:
 907 025c 0028     		cmp	r0, #0
 908 025e 40F05B81 		bne	.L219
 909 0262 DDE90889 		ldrd	r8, [sp, #32]
 910              	.LVL135:
 911              	.L122:
 912              	.LBB112:
 913              	.LBB113:
 324:..\..\..\lvgl\version_6.1.2\lvgl\src\lv_misc/lv_printf.c ****     return _out_rev(out, buffer, idx, maxlen, "nan", 3, width, flags);
 914              		.loc 1 324 0
 915 0266 4246     		mov	r2, r8
 916 0268 4B46     		mov	r3, r9
 917 026a 4046     		mov	r0, r8
 918 026c 4946     		mov	r1, r9
 919 026e FFF7FEFF 		bl	__aeabi_dcmpeq
 920              	.LVL136:
 921 0272 0028     		cmp	r0, #0
 922 0274 00F05881 		beq	.L220
 326:..\..\..\lvgl\version_6.1.2\lvgl\src\lv_misc/lv_printf.c ****     return _out_rev(out, buffer, idx, maxlen, "fni-", 4, width, flags);
 923              		.loc 1 326 0
 924 0278 6FF48013 		mvn	r3, #1048576
 925 027c 4FF0FF32 		mov	r2, #-1
 926 0280 4046     		mov	r0, r8
 927 0282 4946     		mov	r1, r9
 928 0284 FFF7FEFF 		bl	__aeabi_dcmplt
 929              	.LVL137:
 930              	.LBB114:
 931              	.LBB115:
 178:..\..\..\lvgl\version_6.1.2\lvgl\src\lv_misc/lv_printf.c ****       size_t i;
 932              		.loc 1 178 0
 933 0288 269B     		ldr	r3, [sp, #152]
 934              	.LBE115:
 935              	.LBE114:
 326:..\..\..\lvgl\version_6.1.2\lvgl\src\lv_misc/lv_printf.c ****     return _out_rev(out, buffer, idx, maxlen, "fni-", 4, width, flags);
 936              		.loc 1 326 0
ARM GAS  C:\Users\pearlstl\AppData\Local\Temp\ccbpFzqf.s 			page 28


 937 028a 0028     		cmp	r0, #0
 938 028c 40F06281 		bne	.L221
 939 0290 249A     		ldr	r2, [sp, #144]
 940 0292 0394     		str	r4, [sp, #12]
 941 0294 23F40063 		bic	r3, r3, #2048
 942              	.LVL138:
 943 0298 0292     		str	r2, [sp, #8]
 944 029a 0493     		str	r3, [sp, #16]
 945 029c CDE90089 		strd	r8, [sp]
 946 02a0 3B46     		mov	r3, r7
 947              	.LVL139:
 948 02a2 5246     		mov	r2, r10
 949 02a4 3146     		mov	r1, r6
 950 02a6 2846     		mov	r0, r5
 951 02a8 FFF7FEFF 		bl	_ftoa.part.1
 952              	.LVL140:
 953 02ac 0446     		mov	r4, r0
 954              	.LVL141:
 955              	.L129:
 956              	.LBE113:
 957              	.LBE112:
 533:..\..\..\lvgl\version_6.1.2\lvgl\src\lv_misc/lv_printf.c **** 
 534:..\..\..\lvgl\version_6.1.2\lvgl\src\lv_misc/lv_printf.c ****   // output the exponent part
 535:..\..\..\lvgl\version_6.1.2\lvgl\src\lv_misc/lv_printf.c ****   if (minwidth) {
 958              		.loc 1 535 0
 959 02ae 0A9B     		ldr	r3, [sp, #40]
 960 02b0 002B     		cmp	r3, #0
 961 02b2 00F0A580 		beq	.L100
 536:..\..\..\lvgl\version_6.1.2\lvgl\src\lv_misc/lv_printf.c ****     // output the exponential symbol
 537:..\..\..\lvgl\version_6.1.2\lvgl\src\lv_misc/lv_printf.c ****     out((flags & FLAGS_UPPERCASE) ? 'E' : 'e', buffer, idx++, maxlen);
 962              		.loc 1 537 0
 963 02b6 269A     		ldr	r2, [sp, #152]
 964 02b8 12F0200F 		tst	r2, #32
 965 02bc 14BF     		ite	ne
 966 02be 4520     		movne	r0, #69
 967 02c0 6520     		moveq	r0, #101
 968 02c2 3B46     		mov	r3, r7
 969 02c4 2246     		mov	r2, r4
 970 02c6 3146     		mov	r1, r6
 971 02c8 A847     		blx	r5
 972              	.LVL142:
 538:..\..\..\lvgl\version_6.1.2\lvgl\src\lv_misc/lv_printf.c ****     // output the exponent value
 539:..\..\..\lvgl\version_6.1.2\lvgl\src\lv_misc/lv_printf.c ****     idx = _ntoa_long(out, buffer, idx, maxlen, (expval < 0) ? -expval : expval, expval < 0, 10, 0, 
 973              		.loc 1 539 0
 974 02ca 0A9B     		ldr	r3, [sp, #40]
 975              	.LBB130:
 976              	.LBB131:
 977              	.LBB132:
 270:..\..\..\lvgl\version_6.1.2\lvgl\src\lv_misc/lv_printf.c ****       value /= base;
 978              		.loc 1 270 0
 979 02cc DFF880C0 		ldr	ip, .L223+96
 980              	.LBE132:
 981              	.LBE131:
 982              	.LBE130:
 983              		.loc 1 539 0
 984 02d0 03F1FF38 		add	r8, r3, #-1
 985 02d4 8BEAEB73 		eor	r3, fp, fp, asr #31
ARM GAS  C:\Users\pearlstl\AppData\Local\Temp\ccbpFzqf.s 			page 29


 537:..\..\..\lvgl\version_6.1.2\lvgl\src\lv_misc/lv_printf.c ****     // output the exponent value
 986              		.loc 1 537 0
 987 02d8 0134     		adds	r4, r4, #1
 988              	.LVL143:
 989              		.loc 1 539 0
 990 02da A3EBEB73 		sub	r3, r3, fp, asr #31
 991              	.LVL144:
 992 02de 4FEADB79 		lsr	r9, fp, #31
 993              	.LVL145:
 994 02e2 0DF13F0E 		add	lr, sp, #63
 995 02e6 0020     		movs	r0, #0
 996 02e8 36E0     		b	.L139
 997              	.L224:
 998 02ea 00BFAFF3 		.align	3
 998      0080
 999              	.L223:
 1000 02f0 FB799F50 		.word	1352628731
 1001 02f4 1344D33F 		.word	1070810131
 1002 02f8 B3C8608B 		.word	-1956591437
 1003 02fc 288AC63F 		.word	1069976104
 1004 0300 61436F63 		.word	1668236129
 1005 0304 A787D23F 		.word	1070761895
 1006 0308 71A37909 		.word	158966641
 1007 030c 4F930A40 		.word	1074434895
 1008 0310 1655B5BB 		.word	-1145744106
 1009 0314 B16B0240 		.word	1073900465
 1010 0318 EF39FAFE 		.word	-17155601
 1011 031c 422EE63F 		.word	1072049730
 1012 0320 2D431CEB 		.word	-350469331
 1013 0324 E2361A3F 		.word	1058682594
 1014 0328 00000000 		.word	0
 1015 032c 80842E41 		.word	1093567616
 1016 0330 FFFFEF7F 		.word	2146435071
 1017 0334 FFFF0F00 		.word	1048575
 1018 0338 0000F03F 		.word	1072693248
 1019 033c 0000F83F 		.word	1073217536
 1020 0340 0000E03F 		.word	1071644672
 1021 0344 00002C40 		.word	1076625408
 1022 0348 00002440 		.word	1076101120
 1023 034c 00001840 		.word	1075314688
 1024 0350 CDCCCCCC 		.word	-858993459
 1025              	.LVL146:
 1026              	.L222:
 1027              	.LBB136:
 1028              	.LBB134:
 272:..\..\..\lvgl\version_6.1.2\lvgl\src\lv_misc/lv_printf.c ****   }
 1029              		.loc 1 272 0
 1030 0354 2028     		cmp	r0, #32
 1031 0356 0DD0     		beq	.L138
 1032              	.LVL147:
 1033              	.L139:
 1034              	.LBB133:
 270:..\..\..\lvgl\version_6.1.2\lvgl\src\lv_misc/lv_printf.c ****       value /= base;
 1035              		.loc 1 270 0
 1036 0358 ACFB0312 		umull	r1, r2, ip, r3
 1037 035c D208     		lsrs	r2, r2, #3
 1038 035e 02EB8201 		add	r1, r2, r2, lsl #2
ARM GAS  C:\Users\pearlstl\AppData\Local\Temp\ccbpFzqf.s 			page 30


 1039 0362 A3EB4103 		sub	r3, r3, r1, lsl #1
 1040              	.LVL148:
 1041 0366 3033     		adds	r3, r3, #48
 1042 0368 0EF8013F 		strb	r3, [lr, #1]!
 1043 036c 0130     		adds	r0, r0, #1
 1044              	.LVL149:
 1045              	.LBE133:
 272:..\..\..\lvgl\version_6.1.2\lvgl\src\lv_misc/lv_printf.c ****   }
 1046              		.loc 1 272 0
 1047 036e 1346     		mov	r3, r2
 1048 0370 002A     		cmp	r2, #0
 1049 0372 EFD1     		bne	.L222
 1050              	.L138:
 275:..\..\..\lvgl\version_6.1.2\lvgl\src\lv_misc/lv_printf.c **** }
 1051              		.loc 1 275 0
 1052 0374 4FF0050E 		mov	lr, #5
 1053 0378 4FF0000C 		mov	ip, #0
 1054 037c 0A21     		movs	r1, #10
 1055 037e 10AB     		add	r3, sp, #64
 1056 0380 0190     		str	r0, [sp, #4]
 1057 0382 2246     		mov	r2, r4
 1058              	.LVL150:
 1059 0384 0391     		str	r1, [sp, #12]
 1060 0386 0093     		str	r3, [sp]
 1061 0388 CDF81480 		str	r8, [sp, #20]
 1062 038c 3B46     		mov	r3, r7
 1063 038e CDF80890 		str	r9, [sp, #8]
 1064 0392 CDF818E0 		str	lr, [sp, #24]
 1065 0396 CDF810C0 		str	ip, [sp, #16]
 1066 039a 3146     		mov	r1, r6
 1067 039c 2846     		mov	r0, r5
 1068              	.LVL151:
 1069 039e FFF7FEFF 		bl	_ntoa_format
 1070              	.LVL152:
 1071              	.LBE134:
 1072              	.LBE136:
 540:..\..\..\lvgl\version_6.1.2\lvgl\src\lv_misc/lv_printf.c ****     // might need to right-pad spaces
 541:..\..\..\lvgl\version_6.1.2\lvgl\src\lv_misc/lv_printf.c ****     if (flags & FLAGS_LEFT) {
 1073              		.loc 1 541 0
 1074 03a2 0C9B     		ldr	r3, [sp, #48]
 1075              	.LBB137:
 1076              	.LBB135:
 275:..\..\..\lvgl\version_6.1.2\lvgl\src\lv_misc/lv_printf.c **** }
 1077              		.loc 1 275 0
 1078 03a4 0246     		mov	r2, r0
 1079              	.LVL153:
 1080              	.LBE135:
 1081              	.LBE137:
 1082              		.loc 1 541 0
 1083 03a6 002B     		cmp	r3, #0
 1084 03a8 37D0     		beq	.L164
 1085              	.LVL154:
 542:..\..\..\lvgl\version_6.1.2\lvgl\src\lv_misc/lv_printf.c ****       while (idx - start_idx < width) out(' ', buffer, idx++, maxlen);
 1086              		.loc 1 542 0
 1087 03aa 2599     		ldr	r1, [sp, #148]
 1088 03ac CAEB0003 		rsb	r3, r10, r0
 1089 03b0 9942     		cmp	r1, r3
ARM GAS  C:\Users\pearlstl\AppData\Local\Temp\ccbpFzqf.s 			page 31


 1090 03b2 32D9     		bls	.L164
 1091 03b4 8846     		mov	r8, r1
 1092              	.LVL155:
 1093              	.L140:
 1094 03b6 541C     		adds	r4, r2, #1
 1095              	.LVL156:
 1096 03b8 3B46     		mov	r3, r7
 1097 03ba 3146     		mov	r1, r6
 1098 03bc 2020     		movs	r0, #32
 1099 03be A847     		blx	r5
 1100              	.LVL157:
 1101 03c0 CAEB0403 		rsb	r3, r10, r4
 1102 03c4 9845     		cmp	r8, r3
 1103 03c6 2246     		mov	r2, r4
 1104 03c8 F5D8     		bhi	.L140
 1105              	.LVL158:
 1106              	.LBE111:
 1107              	.LBE110:
 543:..\..\..\lvgl\version_6.1.2\lvgl\src\lv_misc/lv_printf.c ****     }
 544:..\..\..\lvgl\version_6.1.2\lvgl\src\lv_misc/lv_printf.c ****   }
 545:..\..\..\lvgl\version_6.1.2\lvgl\src\lv_misc/lv_printf.c ****   return idx;
 546:..\..\..\lvgl\version_6.1.2\lvgl\src\lv_misc/lv_printf.c **** }
 1108              		.loc 1 546 0
 1109 03ca 2046     		mov	r0, r4
 1110 03cc 19B0     		add	sp, sp, #100
 1111              		.cfi_remember_state
 1112              		.cfi_def_cfa_offset 36
 1113              		@ sp needed
 1114 03ce BDE8F08F 		pop	{r4, r5, r6, r7, r8, r9, r10, fp, pc}
 1115              	.LVL159:
 1116              	.L94:
 1117              		.cfi_restore_state
 1118              	.LBB143:
 1119              	.LBB107:
 326:..\..\..\lvgl\version_6.1.2\lvgl\src\lv_misc/lv_printf.c ****     return _out_rev(out, buffer, idx, maxlen, "fni-", 4, width, flags);
 1120              		.loc 1 326 0
 1121 03d2 DDE92201 		ldrd	r0, [sp, #136]
 1122 03d6 FFF7FEFF 		bl	__aeabi_dcmplt
 1123              	.LVL160:
 1124 03da 0028     		cmp	r0, #0
 1125 03dc 5AD1     		bne	.L95
 1126 03de 269B     		ldr	r3, [sp, #152]
 1127 03e0 0493     		str	r3, [sp, #16]
 1128 03e2 9DED227B 		vldr.64	d7, [sp, #136]
 1129 03e6 259B     		ldr	r3, [sp, #148]
 1130 03e8 0393     		str	r3, [sp, #12]
 1131 03ea 249B     		ldr	r3, [sp, #144]
 1132 03ec 0293     		str	r3, [sp, #8]
 1133 03ee 8DED007B 		vstr.64	d7, [sp]
 1134 03f2 3B46     		mov	r3, r7
 1135 03f4 5246     		mov	r2, r10
 1136 03f6 3146     		mov	r1, r6
 1137 03f8 2846     		mov	r0, r5
 1138 03fa FFF7FEFF 		bl	_ftoa.part.1
 1139              	.LVL161:
 1140 03fe 0446     		mov	r4, r0
 1141              	.LVL162:
ARM GAS  C:\Users\pearlstl\AppData\Local\Temp\ccbpFzqf.s 			page 32


 1142              	.L100:
 1143              	.LBE107:
 1144              	.LBE143:
 1145              		.loc 1 546 0
 1146 0400 2046     		mov	r0, r4
 1147 0402 19B0     		add	sp, sp, #100
 1148              		.cfi_remember_state
 1149              		.cfi_def_cfa_offset 36
 1150              		@ sp needed
 1151 0404 BDE8F08F 		pop	{r4, r5, r6, r7, r8, r9, r10, fp, pc}
 1152              	.LVL163:
 1153              	.L218:
 1154              		.cfi_restore_state
 1155              	.LBB144:
 1156              	.LBB140:
 527:..\..\..\lvgl\version_6.1.2\lvgl\src\lv_misc/lv_printf.c ****   }
 1157              		.loc 1 527 0
 1158 0408 DDE90801 		ldrd	r0, [sp, #32]
 1159 040c 4246     		mov	r2, r8
 1160              	.LVL164:
 1161 040e 4B46     		mov	r3, r9
 1162 0410 FFF7FEFF 		bl	__aeabi_ddiv
 1163              	.LVL165:
 1164 0414 CDE90801 		strd	r0, [sp, #32]
 1165              	.LVL166:
 1166 0418 1AE7     		b	.L121
 1167              	.LVL167:
 1168              	.L164:
 542:..\..\..\lvgl\version_6.1.2\lvgl\src\lv_misc/lv_printf.c ****     }
 1169              		.loc 1 542 0
 1170 041a 1446     		mov	r4, r2
 1171              	.LBE140:
 1172              	.LBE144:
 1173              		.loc 1 546 0
 1174 041c 2046     		mov	r0, r4
 1175 041e 19B0     		add	sp, sp, #100
 1176              		.cfi_remember_state
 1177              		.cfi_def_cfa_offset 36
 1178              		@ sp needed
 1179 0420 BDE8F08F 		pop	{r4, r5, r6, r7, r8, r9, r10, fp, pc}
 1180              	.LVL168:
 1181              	.L93:
 1182              		.cfi_restore_state
 1183              	.LBB145:
 1184              	.LBB108:
 1185              	.LBB95:
 1186              	.LBB96:
 178:..\..\..\lvgl\version_6.1.2\lvgl\src\lv_misc/lv_printf.c ****       size_t i;
 1187              		.loc 1 178 0
 1188 0424 269B     		ldr	r3, [sp, #152]
 1189 0426 9A07     		lsls	r2, r3, #30
 1190 0428 6CD1     		bne	.L142
 1191              	.LVL169:
 1192              	.LBB97:
 180:..\..\..\lvgl\version_6.1.2\lvgl\src\lv_misc/lv_printf.c ****       out(' ', buffer, idx++, maxlen);
 1193              		.loc 1 180 0
 1194 042a 259B     		ldr	r3, [sp, #148]
ARM GAS  C:\Users\pearlstl\AppData\Local\Temp\ccbpFzqf.s 			page 33


 1195 042c 032B     		cmp	r3, #3
 1196 042e 69D9     		bls	.L142
 1197 0430 AAF10304 		sub	r4, r10, #3
 1198 0434 1C44     		add	r4, r4, r3
 1199 0436 5246     		mov	r2, r10
 1200              	.LVL170:
 1201              	.L98:
 181:..\..\..\lvgl\version_6.1.2\lvgl\src\lv_misc/lv_printf.c ****     }
 1202              		.loc 1 181 0
 1203 0438 02F10108 		add	r8, r2, #1
 1204              	.LVL171:
 1205 043c 3B46     		mov	r3, r7
 1206 043e 3146     		mov	r1, r6
 1207 0440 2020     		movs	r0, #32
 1208 0442 A847     		blx	r5
 1209              	.LVL172:
 180:..\..\..\lvgl\version_6.1.2\lvgl\src\lv_misc/lv_printf.c ****       out(' ', buffer, idx++, maxlen);
 1210              		.loc 1 180 0
 1211 0444 A045     		cmp	r8, r4
 1212 0446 4246     		mov	r2, r8
 1213 0448 F6D1     		bne	.L98
 1214              	.LVL173:
 1215              	.L97:
 1216 044a DFF8F481 		ldr	r8, .L225+8
 1217              	.LBE97:
 178:..\..\..\lvgl\version_6.1.2\lvgl\src\lv_misc/lv_printf.c ****       size_t i;
 1218              		.loc 1 178 0
 1219 044e 2246     		mov	r2, r4
 1220 0450 A8F1030B 		sub	fp, r8, #3
 1221              	.LVL174:
 1222              	.L99:
 187:..\..\..\lvgl\version_6.1.2\lvgl\src\lv_misc/lv_printf.c ****   }
 1223              		.loc 1 187 0
 1224 0454 18F8010D 		ldrb	r0, [r8, #-1]!	@ zero_extendqisi2
 1225              	.LVL175:
 1226 0458 3B46     		mov	r3, r7
 1227 045a 3146     		mov	r1, r6
 1228 045c 02F10109 		add	r9, r2, #1
 1229              	.LVL176:
 1230 0460 A847     		blx	r5
 1231              	.LVL177:
 186:..\..\..\lvgl\version_6.1.2\lvgl\src\lv_misc/lv_printf.c ****     out(buf[--len], buffer, idx++, maxlen);
 1232              		.loc 1 186 0
 1233 0462 C345     		cmp	fp, r8
 187:..\..\..\lvgl\version_6.1.2\lvgl\src\lv_misc/lv_printf.c ****   }
 1234              		.loc 1 187 0
 1235 0464 4A46     		mov	r2, r9
 186:..\..\..\lvgl\version_6.1.2\lvgl\src\lv_misc/lv_printf.c ****     out(buf[--len], buffer, idx++, maxlen);
 1236              		.loc 1 186 0
 1237 0466 F5D1     		bne	.L99
 191:..\..\..\lvgl\version_6.1.2\lvgl\src\lv_misc/lv_printf.c ****     while (idx - start_idx < width) {
 1238              		.loc 1 191 0
 1239 0468 269B     		ldr	r3, [sp, #152]
 1240 046a 9B07     		lsls	r3, r3, #30
 1241 046c 04F10302 		add	r2, r4, #3
 1242 0470 D3D5     		bpl	.L164
 1243              	.LVL178:
ARM GAS  C:\Users\pearlstl\AppData\Local\Temp\ccbpFzqf.s 			page 34


 192:..\..\..\lvgl\version_6.1.2\lvgl\src\lv_misc/lv_printf.c ****       out(' ', buffer, idx++, maxlen);
 1244              		.loc 1 192 0
 1245 0472 2599     		ldr	r1, [sp, #148]
 1246 0474 CAEB0203 		rsb	r3, r10, r2
 1247 0478 9942     		cmp	r1, r3
 1248 047a CED9     		bls	.L164
 1249 047c 8846     		mov	r8, r1
 1250              	.LVL179:
 1251              	.L101:
 193:..\..\..\lvgl\version_6.1.2\lvgl\src\lv_misc/lv_printf.c ****     }
 1252              		.loc 1 193 0
 1253 047e 541C     		adds	r4, r2, #1
 1254              	.LVL180:
 1255 0480 3B46     		mov	r3, r7
 1256 0482 3146     		mov	r1, r6
 1257 0484 2020     		movs	r0, #32
 1258 0486 A847     		blx	r5
 1259              	.LVL181:
 192:..\..\..\lvgl\version_6.1.2\lvgl\src\lv_misc/lv_printf.c ****       out(' ', buffer, idx++, maxlen);
 1260              		.loc 1 192 0
 1261 0488 CAEB0403 		rsb	r3, r10, r4
 1262 048c 9845     		cmp	r8, r3
 193:..\..\..\lvgl\version_6.1.2\lvgl\src\lv_misc/lv_printf.c ****     }
 1263              		.loc 1 193 0
 1264 048e 2246     		mov	r2, r4
 192:..\..\..\lvgl\version_6.1.2\lvgl\src\lv_misc/lv_printf.c ****       out(' ', buffer, idx++, maxlen);
 1265              		.loc 1 192 0
 1266 0490 F5D8     		bhi	.L101
 1267 0492 B5E7     		b	.L100
 1268              	.LVL182:
 1269              	.L95:
 1270              	.LBE96:
 1271              	.LBE95:
 1272              	.LBB100:
 1273              	.LBB101:
 178:..\..\..\lvgl\version_6.1.2\lvgl\src\lv_misc/lv_printf.c ****       size_t i;
 1274              		.loc 1 178 0
 1275 0494 269B     		ldr	r3, [sp, #152]
 1276 0496 9C07     		lsls	r4, r3, #30
 1277 0498 44D1     		bne	.L146
 1278              	.LVL183:
 1279              	.LBB102:
 180:..\..\..\lvgl\version_6.1.2\lvgl\src\lv_misc/lv_printf.c ****       out(' ', buffer, idx++, maxlen);
 1280              		.loc 1 180 0
 1281 049a 259B     		ldr	r3, [sp, #148]
 1282 049c 042B     		cmp	r3, #4
 1283 049e 41D9     		bls	.L146
 1284 04a0 AAF10404 		sub	r4, r10, #4
 1285 04a4 1C44     		add	r4, r4, r3
 1286 04a6 5246     		mov	r2, r10
 1287              	.LVL184:
 1288              	.L105:
 181:..\..\..\lvgl\version_6.1.2\lvgl\src\lv_misc/lv_printf.c ****     }
 1289              		.loc 1 181 0
 1290 04a8 02F10108 		add	r8, r2, #1
 1291              	.LVL185:
 1292 04ac 3B46     		mov	r3, r7
ARM GAS  C:\Users\pearlstl\AppData\Local\Temp\ccbpFzqf.s 			page 35


 1293 04ae 3146     		mov	r1, r6
 1294 04b0 2020     		movs	r0, #32
 1295 04b2 A847     		blx	r5
 1296              	.LVL186:
 180:..\..\..\lvgl\version_6.1.2\lvgl\src\lv_misc/lv_printf.c ****       out(' ', buffer, idx++, maxlen);
 1297              		.loc 1 180 0
 1298 04b4 A045     		cmp	r8, r4
 1299 04b6 4246     		mov	r2, r8
 1300 04b8 F6D1     		bne	.L105
 1301              	.LVL187:
 1302              	.L104:
 1303 04ba DFF88881 		ldr	r8, .L225+12
 1304              	.LBE102:
 178:..\..\..\lvgl\version_6.1.2\lvgl\src\lv_misc/lv_printf.c ****       size_t i;
 1305              		.loc 1 178 0
 1306 04be 2246     		mov	r2, r4
 1307 04c0 A8F1040B 		sub	fp, r8, #4
 1308              	.LVL188:
 1309              	.L106:
 187:..\..\..\lvgl\version_6.1.2\lvgl\src\lv_misc/lv_printf.c ****   }
 1310              		.loc 1 187 0
 1311 04c4 18F8010D 		ldrb	r0, [r8, #-1]!	@ zero_extendqisi2
 1312              	.LVL189:
 1313 04c8 3B46     		mov	r3, r7
 1314 04ca 3146     		mov	r1, r6
 1315 04cc 02F10109 		add	r9, r2, #1
 1316              	.LVL190:
 1317 04d0 A847     		blx	r5
 1318              	.LVL191:
 186:..\..\..\lvgl\version_6.1.2\lvgl\src\lv_misc/lv_printf.c ****     out(buf[--len], buffer, idx++, maxlen);
 1319              		.loc 1 186 0
 1320 04d2 D845     		cmp	r8, fp
 187:..\..\..\lvgl\version_6.1.2\lvgl\src\lv_misc/lv_printf.c ****   }
 1321              		.loc 1 187 0
 1322 04d4 4A46     		mov	r2, r9
 186:..\..\..\lvgl\version_6.1.2\lvgl\src\lv_misc/lv_printf.c ****     out(buf[--len], buffer, idx++, maxlen);
 1323              		.loc 1 186 0
 1324 04d6 F5D1     		bne	.L106
 191:..\..\..\lvgl\version_6.1.2\lvgl\src\lv_misc/lv_printf.c ****     while (idx - start_idx < width) {
 1325              		.loc 1 191 0
 1326 04d8 269B     		ldr	r3, [sp, #152]
 1327 04da 9807     		lsls	r0, r3, #30
 1328 04dc 04F10402 		add	r2, r4, #4
 1329 04e0 9BD5     		bpl	.L164
 1330              	.LVL192:
 192:..\..\..\lvgl\version_6.1.2\lvgl\src\lv_misc/lv_printf.c ****       out(' ', buffer, idx++, maxlen);
 1331              		.loc 1 192 0
 1332 04e2 2599     		ldr	r1, [sp, #148]
 1333 04e4 CAEB0203 		rsb	r3, r10, r2
 1334 04e8 9942     		cmp	r1, r3
 1335 04ea 96D9     		bls	.L164
 1336 04ec 8846     		mov	r8, r1
 1337              	.LVL193:
 1338              	.L107:
 193:..\..\..\lvgl\version_6.1.2\lvgl\src\lv_misc/lv_printf.c ****     }
 1339              		.loc 1 193 0
 1340 04ee 541C     		adds	r4, r2, #1
ARM GAS  C:\Users\pearlstl\AppData\Local\Temp\ccbpFzqf.s 			page 36


 1341              	.LVL194:
 1342 04f0 3B46     		mov	r3, r7
 1343 04f2 3146     		mov	r1, r6
 1344 04f4 2020     		movs	r0, #32
 1345 04f6 A847     		blx	r5
 1346              	.LVL195:
 192:..\..\..\lvgl\version_6.1.2\lvgl\src\lv_misc/lv_printf.c ****       out(' ', buffer, idx++, maxlen);
 1347              		.loc 1 192 0
 1348 04f8 CAEB0403 		rsb	r3, r10, r4
 1349 04fc 9845     		cmp	r8, r3
 193:..\..\..\lvgl\version_6.1.2\lvgl\src\lv_misc/lv_printf.c ****     }
 1350              		.loc 1 193 0
 1351 04fe 2246     		mov	r2, r4
 192:..\..\..\lvgl\version_6.1.2\lvgl\src\lv_misc/lv_printf.c ****       out(' ', buffer, idx++, maxlen);
 1352              		.loc 1 192 0
 1353 0500 F5D8     		bhi	.L107
 1354 0502 7DE7     		b	.L100
 1355              	.LVL196:
 1356              	.L142:
 1357              	.LBE101:
 1358              	.LBE100:
 1359              	.LBB105:
 1360              	.LBB99:
 1361              	.LBB98:
 180:..\..\..\lvgl\version_6.1.2\lvgl\src\lv_misc/lv_printf.c ****       out(' ', buffer, idx++, maxlen);
 1362              		.loc 1 180 0
 1363 0504 5446     		mov	r4, r10
 1364 0506 A0E7     		b	.L97
 1365              	.LVL197:
 1366              	.L216:
 1367              	.LBE98:
 1368              	.LBE99:
 1369              	.LBE105:
 1370              	.LBE108:
 1371              	.LBE145:
 1372              	.LBB146:
 1373              	.LBB141:
 452:..\..\..\lvgl\version_6.1.2\lvgl\src\lv_misc/lv_printf.c ****   }
 1374              		.loc 1 452 0
 1375 0508 229B     		ldr	r3, [sp, #136]
 1376 050a 0893     		str	r3, [sp, #32]
 1377 050c 239B     		ldr	r3, [sp, #140]
 1378 050e 03F10043 		add	r3, r3, #-2147483648
 1379 0512 0993     		str	r3, [sp, #36]
 1380              	.LVL198:
 1381 0514 1846     		mov	r0, r3
 1382 0516 A6E5     		b	.L108
 1383              	.LVL199:
 1384              	.L219:
 532:..\..\..\lvgl\version_6.1.2\lvgl\src\lv_misc/lv_printf.c **** 
 1385              		.loc 1 532 0
 1386 0518 DDE90823 		ldrd	r2, [sp, #32]
 1387 051c 9046     		mov	r8, r2
 1388              	.LVL200:
 1389 051e 03F10049 		add	r9, r3, #-2147483648
 1390 0522 A0E6     		b	.L122
 1391              	.LVL201:
ARM GAS  C:\Users\pearlstl\AppData\Local\Temp\ccbpFzqf.s 			page 37


 1392              	.L146:
 1393              	.LBE141:
 1394              	.LBE146:
 1395              	.LBB147:
 1396              	.LBB109:
 1397              	.LBB106:
 1398              	.LBB104:
 1399              	.LBB103:
 180:..\..\..\lvgl\version_6.1.2\lvgl\src\lv_misc/lv_printf.c ****       out(' ', buffer, idx++, maxlen);
 1400              		.loc 1 180 0
 1401 0524 5446     		mov	r4, r10
 1402 0526 C8E7     		b	.L104
 1403              	.LVL202:
 1404              	.L220:
 1405              	.LBE103:
 1406              	.LBE104:
 1407              	.LBE106:
 1408              	.LBE109:
 1409              	.LBE147:
 1410              	.LBB148:
 1411              	.LBB142:
 1412              	.LBB138:
 1413              	.LBB128:
 1414              	.LBB120:
 1415              	.LBB121:
 178:..\..\..\lvgl\version_6.1.2\lvgl\src\lv_misc/lv_printf.c ****       size_t i;
 1416              		.loc 1 178 0
 1417 0528 269B     		ldr	r3, [sp, #152]
 1418 052a 9A07     		lsls	r2, r3, #30
 1419 052c 59D1     		bne	.L155
 1420              	.LVL203:
 1421              	.LBB122:
 180:..\..\..\lvgl\version_6.1.2\lvgl\src\lv_misc/lv_printf.c ****       out(' ', buffer, idx++, maxlen);
 1422              		.loc 1 180 0
 1423 052e 032C     		cmp	r4, #3
 1424 0530 57D9     		bls	.L155
 1425 0532 AAF10303 		sub	r3, r10, #3
 1426 0536 E318     		adds	r3, r4, r3
 1427 0538 0893     		str	r3, [sp, #32]
 1428              	.LVL204:
 1429 053a 5246     		mov	r2, r10
 1430 053c 9946     		mov	r9, r3
 1431              	.LVL205:
 1432              	.L127:
 181:..\..\..\lvgl\version_6.1.2\lvgl\src\lv_misc/lv_printf.c ****     }
 1433              		.loc 1 181 0
 1434 053e 02F10108 		add	r8, r2, #1
 1435              	.LVL206:
 1436 0542 3B46     		mov	r3, r7
 1437 0544 3146     		mov	r1, r6
 1438 0546 2020     		movs	r0, #32
 1439 0548 A847     		blx	r5
 1440              	.LVL207:
 180:..\..\..\lvgl\version_6.1.2\lvgl\src\lv_misc/lv_printf.c ****       out(' ', buffer, idx++, maxlen);
 1441              		.loc 1 180 0
 1442 054a C845     		cmp	r8, r9
 1443 054c 4246     		mov	r2, r8
ARM GAS  C:\Users\pearlstl\AppData\Local\Temp\ccbpFzqf.s 			page 38


 1444 054e F6D1     		bne	.L127
 1445 0550 089A     		ldr	r2, [sp, #32]
 1446 0552 49E0     		b	.L126
 1447              	.LVL208:
 1448              	.L221:
 1449              	.LBE122:
 1450              	.LBE121:
 1451              	.LBE120:
 1452              	.LBB125:
 1453              	.LBB118:
 178:..\..\..\lvgl\version_6.1.2\lvgl\src\lv_misc/lv_printf.c ****       size_t i;
 1454              		.loc 1 178 0
 1455 0554 9B07     		lsls	r3, r3, #30
 1456              	.LVL209:
 1457 0556 6AD1     		bne	.L159
 1458              	.LVL210:
 1459              	.LBB116:
 180:..\..\..\lvgl\version_6.1.2\lvgl\src\lv_misc/lv_printf.c ****       out(' ', buffer, idx++, maxlen);
 1460              		.loc 1 180 0
 1461 0558 042C     		cmp	r4, #4
 1462 055a 68D9     		bls	.L159
 1463 055c AAF10403 		sub	r3, r10, #4
 1464 0560 E318     		adds	r3, r4, r3
 1465 0562 0893     		str	r3, [sp, #32]
 1466              	.LVL211:
 1467 0564 5246     		mov	r2, r10
 1468 0566 9946     		mov	r9, r3
 1469              	.LVL212:
 1470              	.L134:
 181:..\..\..\lvgl\version_6.1.2\lvgl\src\lv_misc/lv_printf.c ****     }
 1471              		.loc 1 181 0
 1472 0568 02F10108 		add	r8, r2, #1
 1473              	.LVL213:
 1474 056c 3B46     		mov	r3, r7
 1475 056e 3146     		mov	r1, r6
 1476 0570 2020     		movs	r0, #32
 1477 0572 A847     		blx	r5
 1478              	.LVL214:
 180:..\..\..\lvgl\version_6.1.2\lvgl\src\lv_misc/lv_printf.c ****       out(' ', buffer, idx++, maxlen);
 1479              		.loc 1 180 0
 1480 0574 C845     		cmp	r8, r9
 1481 0576 4246     		mov	r2, r8
 1482 0578 F6D1     		bne	.L134
 1483 057a 089A     		ldr	r2, [sp, #32]
 1484              	.LVL215:
 1485              	.L133:
 1486 057c DFF8C480 		ldr	r8, .L225+12
 1487              	.LVL216:
 1488              	.L135:
 1489              	.LBE116:
 187:..\..\..\lvgl\version_6.1.2\lvgl\src\lv_misc/lv_printf.c ****   }
 1490              		.loc 1 187 0
 1491 0580 18F8010D 		ldrb	r0, [r8, #-1]!	@ zero_extendqisi2
 1492              	.LVL217:
 1493 0584 3B46     		mov	r3, r7
 1494 0586 3146     		mov	r1, r6
 1495 0588 02F10109 		add	r9, r2, #1
ARM GAS  C:\Users\pearlstl\AppData\Local\Temp\ccbpFzqf.s 			page 39


 1496              	.LVL218:
 1497 058c A847     		blx	r5
 1498              	.LVL219:
 186:..\..\..\lvgl\version_6.1.2\lvgl\src\lv_misc/lv_printf.c ****     out(buf[--len], buffer, idx++, maxlen);
 1499              		.loc 1 186 0
 1500 058e 2A4B     		ldr	r3, .L225
 1501 0590 9845     		cmp	r8, r3
 187:..\..\..\lvgl\version_6.1.2\lvgl\src\lv_misc/lv_printf.c ****   }
 1502              		.loc 1 187 0
 1503 0592 4A46     		mov	r2, r9
 186:..\..\..\lvgl\version_6.1.2\lvgl\src\lv_misc/lv_printf.c ****     out(buf[--len], buffer, idx++, maxlen);
 1504              		.loc 1 186 0
 1505 0594 F4D1     		bne	.L135
 1506 0596 089A     		ldr	r2, [sp, #32]
 191:..\..\..\lvgl\version_6.1.2\lvgl\src\lv_misc/lv_printf.c ****     while (idx - start_idx < width) {
 1507              		.loc 1 191 0
 1508 0598 0C9B     		ldr	r3, [sp, #48]
 1509 059a 0432     		adds	r2, r2, #4
 1510 059c 73B1     		cbz	r3, .L161
 1511              	.LVL220:
 192:..\..\..\lvgl\version_6.1.2\lvgl\src\lv_misc/lv_printf.c ****       out(' ', buffer, idx++, maxlen);
 1512              		.loc 1 192 0
 1513 059e CAEB0203 		rsb	r3, r10, r2
 1514 05a2 9C42     		cmp	r4, r3
 1515 05a4 0AD9     		bls	.L161
 1516              	.LVL221:
 1517              	.L136:
 193:..\..\..\lvgl\version_6.1.2\lvgl\src\lv_misc/lv_printf.c ****     }
 1518              		.loc 1 193 0
 1519 05a6 02F10108 		add	r8, r2, #1
 1520              	.LVL222:
 1521 05aa 3B46     		mov	r3, r7
 1522 05ac 3146     		mov	r1, r6
 1523 05ae 2020     		movs	r0, #32
 1524 05b0 A847     		blx	r5
 1525              	.LVL223:
 192:..\..\..\lvgl\version_6.1.2\lvgl\src\lv_misc/lv_printf.c ****       out(' ', buffer, idx++, maxlen);
 1526              		.loc 1 192 0
 1527 05b2 CAEB0803 		rsb	r3, r10, r8
 1528 05b6 9C42     		cmp	r4, r3
 193:..\..\..\lvgl\version_6.1.2\lvgl\src\lv_misc/lv_printf.c ****     }
 1529              		.loc 1 193 0
 1530 05b8 4246     		mov	r2, r8
 192:..\..\..\lvgl\version_6.1.2\lvgl\src\lv_misc/lv_printf.c ****       out(' ', buffer, idx++, maxlen);
 1531              		.loc 1 192 0
 1532 05ba F4D8     		bhi	.L136
 1533              	.LVL224:
 1534              	.L161:
 187:..\..\..\lvgl\version_6.1.2\lvgl\src\lv_misc/lv_printf.c ****   }
 1535              		.loc 1 187 0
 1536 05bc 1446     		mov	r4, r2
 1537              	.LVL225:
 1538 05be 76E6     		b	.L129
 1539              	.LVL226:
 1540              	.L217:
 1541              	.LBE118:
 1542              	.LBE125:
ARM GAS  C:\Users\pearlstl\AppData\Local\Temp\ccbpFzqf.s 			page 40


 1543              	.LBE128:
 1544              	.LBE138:
 492:..\..\..\lvgl\version_6.1.2\lvgl\src\lv_misc/lv_printf.c ****         prec = (unsigned)((int)prec - expval - 1);
 1545              		.loc 1 492 0
 1546 05c0 249B     		ldr	r3, [sp, #144]
 498:..\..\..\lvgl\version_6.1.2\lvgl\src\lv_misc/lv_printf.c ****       // no characters in exponent
 1547              		.loc 1 498 0
 1548 05c2 269A     		ldr	r2, [sp, #152]
 492:..\..\..\lvgl\version_6.1.2\lvgl\src\lv_misc/lv_printf.c ****         prec = (unsigned)((int)prec - expval - 1);
 1549              		.loc 1 492 0
 1550 05c4 9B45     		cmp	fp, r3
 493:..\..\..\lvgl\version_6.1.2\lvgl\src\lv_misc/lv_printf.c ****       }
 1551              		.loc 1 493 0
 1552 05c6 BABF     		itte	lt
 1553 05c8 CBEB030B 		rsblt	fp, fp, r3
 1554              	.LVL227:
 1555 05cc 0BF1FF33 		addlt	r3, fp, #-1
 1556              	.LVL228:
 496:..\..\..\lvgl\version_6.1.2\lvgl\src\lv_misc/lv_printf.c ****       }
 1557              		.loc 1 496 0
 1558 05d0 0023     		movge	r3, #0
 1559 05d2 2493     		str	r3, [sp, #144]
 498:..\..\..\lvgl\version_6.1.2\lvgl\src\lv_misc/lv_printf.c ****       // no characters in exponent
 1560              		.loc 1 498 0
 1561 05d4 42F48062 		orr	r2, r2, #1024
 500:..\..\..\lvgl\version_6.1.2\lvgl\src\lv_misc/lv_printf.c ****       expval   = 0;
 1562              		.loc 1 500 0
 1563 05d8 0023     		movs	r3, #0
 1564 05da 0A93     		str	r3, [sp, #40]
 1565              	.LVL229:
 498:..\..\..\lvgl\version_6.1.2\lvgl\src\lv_misc/lv_printf.c ****       // no characters in exponent
 1566              		.loc 1 498 0
 1567 05dc 2692     		str	r2, [sp, #152]
 1568              	.LVL230:
 501:..\..\..\lvgl\version_6.1.2\lvgl\src\lv_misc/lv_printf.c ****     }
 1569              		.loc 1 501 0
 1570 05de 9B46     		mov	fp, r3
 1571 05e0 22E6     		b	.L114
 1572              	.LVL231:
 1573              	.L155:
 1574              	.LBB139:
 1575              	.LBB129:
 1576              	.LBB126:
 1577              	.LBB124:
 1578              	.LBB123:
 180:..\..\..\lvgl\version_6.1.2\lvgl\src\lv_misc/lv_printf.c ****       out(' ', buffer, idx++, maxlen);
 1579              		.loc 1 180 0
 1580 05e2 CDF820A0 		str	r10, [sp, #32]
 1581              	.LVL232:
 1582 05e6 5246     		mov	r2, r10
 1583              	.LVL233:
 1584              	.L126:
 1585 05e8 DFF85480 		ldr	r8, .L225+8
 1586              	.LVL234:
 1587              	.L128:
 1588              	.LBE123:
 187:..\..\..\lvgl\version_6.1.2\lvgl\src\lv_misc/lv_printf.c ****   }
ARM GAS  C:\Users\pearlstl\AppData\Local\Temp\ccbpFzqf.s 			page 41


 1589              		.loc 1 187 0
 1590 05ec 18F8010D 		ldrb	r0, [r8, #-1]!	@ zero_extendqisi2
 1591              	.LVL235:
 1592 05f0 3B46     		mov	r3, r7
 1593 05f2 3146     		mov	r1, r6
 1594 05f4 02F10109 		add	r9, r2, #1
 1595              	.LVL236:
 1596 05f8 A847     		blx	r5
 1597              	.LVL237:
 186:..\..\..\lvgl\version_6.1.2\lvgl\src\lv_misc/lv_printf.c ****     out(buf[--len], buffer, idx++, maxlen);
 1598              		.loc 1 186 0
 1599 05fa 104B     		ldr	r3, .L225+4
 1600 05fc 4345     		cmp	r3, r8
 187:..\..\..\lvgl\version_6.1.2\lvgl\src\lv_misc/lv_printf.c ****   }
 1601              		.loc 1 187 0
 1602 05fe 4A46     		mov	r2, r9
 186:..\..\..\lvgl\version_6.1.2\lvgl\src\lv_misc/lv_printf.c ****     out(buf[--len], buffer, idx++, maxlen);
 1603              		.loc 1 186 0
 1604 0600 F4D1     		bne	.L128
 1605 0602 089A     		ldr	r2, [sp, #32]
 191:..\..\..\lvgl\version_6.1.2\lvgl\src\lv_misc/lv_printf.c ****     while (idx - start_idx < width) {
 1606              		.loc 1 191 0
 1607 0604 0C9B     		ldr	r3, [sp, #48]
 1608 0606 0332     		adds	r2, r2, #3
 1609 0608 002B     		cmp	r3, #0
 1610 060a D7D0     		beq	.L161
 1611              	.LVL238:
 192:..\..\..\lvgl\version_6.1.2\lvgl\src\lv_misc/lv_printf.c ****       out(' ', buffer, idx++, maxlen);
 1612              		.loc 1 192 0
 1613 060c CAEB0203 		rsb	r3, r10, r2
 1614 0610 9C42     		cmp	r4, r3
 1615 0612 D3D9     		bls	.L161
 1616              	.LVL239:
 1617              	.L130:
 193:..\..\..\lvgl\version_6.1.2\lvgl\src\lv_misc/lv_printf.c ****     }
 1618              		.loc 1 193 0
 1619 0614 02F10108 		add	r8, r2, #1
 1620              	.LVL240:
 1621 0618 3B46     		mov	r3, r7
 1622 061a 3146     		mov	r1, r6
 1623 061c 2020     		movs	r0, #32
 1624 061e A847     		blx	r5
 1625              	.LVL241:
 192:..\..\..\lvgl\version_6.1.2\lvgl\src\lv_misc/lv_printf.c ****       out(' ', buffer, idx++, maxlen);
 1626              		.loc 1 192 0
 1627 0620 CAEB0803 		rsb	r3, r10, r8
 1628 0624 9C42     		cmp	r4, r3
 193:..\..\..\lvgl\version_6.1.2\lvgl\src\lv_misc/lv_printf.c ****     }
 1629              		.loc 1 193 0
 1630 0626 4246     		mov	r2, r8
 192:..\..\..\lvgl\version_6.1.2\lvgl\src\lv_misc/lv_printf.c ****       out(' ', buffer, idx++, maxlen);
 1631              		.loc 1 192 0
 1632 0628 F4D8     		bhi	.L130
 1633              	.LBE124:
 1634              	.LBE126:
 1635              	.LBB127:
 1636              	.LBB119:
ARM GAS  C:\Users\pearlstl\AppData\Local\Temp\ccbpFzqf.s 			page 42


 187:..\..\..\lvgl\version_6.1.2\lvgl\src\lv_misc/lv_printf.c ****   }
 1637              		.loc 1 187 0
 1638 062a 1446     		mov	r4, r2
 1639              	.LVL242:
 1640 062c 3FE6     		b	.L129
 1641              	.LVL243:
 1642              	.L159:
 1643              	.LBB117:
 180:..\..\..\lvgl\version_6.1.2\lvgl\src\lv_misc/lv_printf.c ****       out(' ', buffer, idx++, maxlen);
 1644              		.loc 1 180 0
 1645 062e CDF820A0 		str	r10, [sp, #32]
 1646              	.LVL244:
 1647 0632 5246     		mov	r2, r10
 1648 0634 A2E7     		b	.L133
 1649              	.L226:
 1650 0636 00BF     		.align	2
 1651              	.L225:
 1652 0638 04000000 		.word	.LC1
 1653 063c 00000000 		.word	.LC0
 1654 0640 03000000 		.word	.LC0+3
 1655 0644 04000000 		.word	.LC1+4
 1656              	.LBE117:
 1657              	.LBE119:
 1658              	.LBE127:
 1659              	.LBE129:
 1660              	.LBE139:
 1661              	.LBE142:
 1662              	.LBE148:
 1663              		.cfi_endproc
 1664              	.LFE10:
 1665              		.size	_etoa, .-_etoa
 1666              		.global	__aeabi_d2uiz
 1667              		.global	__aeabi_ui2d
 1668              		.section	.text._ftoa.part.1,"ax",%progbits
 1669              		.align	2
 1670              		.thumb
 1671              		.thumb_func
 1672              		.type	_ftoa.part.1, %function
 1673              	_ftoa.part.1:
 1674              	.LFB15:
 314:..\..\..\lvgl\version_6.1.2\lvgl\src\lv_misc/lv_printf.c **** {
 1675              		.loc 1 314 0
 1676              		.cfi_startproc
 1677              		@ args = 20, pretend = 0, frame = 72
 1678              		@ frame_needed = 0, uses_anonymous_args = 0
 1679              	.LVL245:
 1680 0000 2DE9F04F 		push	{r4, r5, r6, r7, r8, r9, r10, fp, lr}
 1681              		.cfi_def_cfa_offset 36
 1682              		.cfi_offset 4, -36
 1683              		.cfi_offset 5, -32
 1684              		.cfi_offset 6, -28
 1685              		.cfi_offset 7, -24
 1686              		.cfi_offset 8, -20
 1687              		.cfi_offset 9, -16
 1688              		.cfi_offset 10, -12
 1689              		.cfi_offset 11, -8
 1690              		.cfi_offset 14, -4
ARM GAS  C:\Users\pearlstl\AppData\Local\Temp\ccbpFzqf.s 			page 43


 1691 0004 93B0     		sub	sp, sp, #76
 1692              		.cfi_def_cfa_offset 112
 314:..\..\..\lvgl\version_6.1.2\lvgl\src\lv_misc/lv_printf.c **** {
 1693              		.loc 1 314 0
 1694 0006 9DED1C7B 		vldr.64	d7, [sp, #112]
 1695 000a 0546     		mov	r5, r0
 1696 000c 0E46     		mov	r6, r1
 1697 000e 9246     		mov	r10, r2
 1698 0010 0392     		str	r2, [sp, #12]
 1699 0012 1F46     		mov	r7, r3
 1700 0014 209C     		ldr	r4, [sp, #128]
 328:..\..\..\lvgl\version_6.1.2\lvgl\src\lv_misc/lv_printf.c ****     return _out_rev(out, buffer, idx, maxlen, (flags & FLAGS_PLUS) ? "fni+" : "fni", (flags & FLAGS
 1701              		.loc 1 328 0
 1702 0016 C44B     		ldr	r3, .L382+24
 1703              	.LVL246:
 314:..\..\..\lvgl\version_6.1.2\lvgl\src\lv_misc/lv_printf.c **** {
 1704              		.loc 1 314 0
 1705 0018 DDF87880 		ldr	r8, [sp, #120]
 1706 001c DDF87CB0 		ldr	fp, [sp, #124]
 1707 0020 0294     		str	r4, [sp, #8]
 328:..\..\..\lvgl\version_6.1.2\lvgl\src\lv_misc/lv_printf.c ****     return _out_rev(out, buffer, idx, maxlen, (flags & FLAGS_PLUS) ? "fni+" : "fni", (flags & FLAGS
 1708              		.loc 1 328 0
 1709 0022 51EC170B 		vmov	r0, r1, d7
 1710              	.LVL247:
 1711 0026 4FF0FF32 		mov	r2, #-1
 1712              	.LVL248:
 314:..\..\..\lvgl\version_6.1.2\lvgl\src\lv_misc/lv_printf.c **** {
 1713              		.loc 1 314 0
 1714 002a 8DED007B 		vstr.64	d7, [sp]
 328:..\..\..\lvgl\version_6.1.2\lvgl\src\lv_misc/lv_printf.c ****     return _out_rev(out, buffer, idx, maxlen, (flags & FLAGS_PLUS) ? "fni+" : "fni", (flags & FLAGS
 1715              		.loc 1 328 0
 1716 002e FFF7FEFF 		bl	__aeabi_dcmpgt
 1717              	.LVL249:
 1718 0032 0028     		cmp	r0, #0
 1719 0034 44D0     		beq	.L360
 329:..\..\..\lvgl\version_6.1.2\lvgl\src\lv_misc/lv_printf.c **** 
 1720              		.loc 1 329 0
 1721 0036 04F00403 		and	r3, r4, #4
 1722 003a 2146     		mov	r1, r4
 1723 003c BB4A     		ldr	r2, .L382+28
 1724 003e BC4C     		ldr	r4, .L382+32
 1725 0040 002B     		cmp	r3, #0
 1726              	.LBB157:
 1727              	.LBB158:
 178:..\..\..\lvgl\version_6.1.2\lvgl\src\lv_misc/lv_printf.c ****       size_t i;
 1728              		.loc 1 178 0
 1729 0042 0B46     		mov	r3, r1
 1730              	.LBE158:
 1731              	.LBE157:
 329:..\..\..\lvgl\version_6.1.2\lvgl\src\lv_misc/lv_printf.c **** 
 1732              		.loc 1 329 0
 1733 0044 0ABF     		itet	eq
 1734 0046 1446     		moveq	r4, r2
 1735 0048 4FF00409 		movne	r9, #4
 1736 004c 4FF00309 		moveq	r9, #3
 1737              	.LVL250:
 1738              	.LBB162:
ARM GAS  C:\Users\pearlstl\AppData\Local\Temp\ccbpFzqf.s 			page 44


 1739              	.LBB160:
 178:..\..\..\lvgl\version_6.1.2\lvgl\src\lv_misc/lv_printf.c ****       size_t i;
 1740              		.loc 1 178 0
 1741 0050 9B07     		lsls	r3, r3, #30
 1742 0052 0ED1     		bne	.L231
 1743              	.LVL251:
 1744              	.LBB159:
 180:..\..\..\lvgl\version_6.1.2\lvgl\src\lv_misc/lv_printf.c ****       out(' ', buffer, idx++, maxlen);
 1745              		.loc 1 180 0
 1746 0054 D945     		cmp	r9, fp
 1747 0056 0CD2     		bcs	.L231
 1748 0058 5246     		mov	r2, r10
 1749 005a DA44     		add	r10, r10, fp
 1750              	.LVL252:
 1751 005c C9EB0A0A 		rsb	r10, r9, r10
 1752              	.LVL253:
 1753              	.L232:
 181:..\..\..\lvgl\version_6.1.2\lvgl\src\lv_misc/lv_printf.c ****     }
 1754              		.loc 1 181 0
 1755 0060 02F10108 		add	r8, r2, #1
 1756              	.LVL254:
 1757 0064 3B46     		mov	r3, r7
 1758 0066 3146     		mov	r1, r6
 1759 0068 2020     		movs	r0, #32
 1760 006a A847     		blx	r5
 1761              	.LVL255:
 180:..\..\..\lvgl\version_6.1.2\lvgl\src\lv_misc/lv_printf.c ****       out(' ', buffer, idx++, maxlen);
 1762              		.loc 1 180 0
 1763 006c D045     		cmp	r8, r10
 1764 006e 4246     		mov	r2, r8
 1765 0070 F6D1     		bne	.L232
 1766              	.LVL256:
 1767              	.L231:
 1768 0072 4C44     		add	r4, r4, r9
 1769 0074 D144     		add	r9, r9, r10
 1770              	.LVL257:
 1771              	.L233:
 1772              	.LBE159:
 187:..\..\..\lvgl\version_6.1.2\lvgl\src\lv_misc/lv_printf.c ****   }
 1773              		.loc 1 187 0
 1774 0076 0AF10101 		add	r1, r10, #1
 1775              	.LVL258:
 1776 007a 5246     		mov	r2, r10
 1777 007c 3B46     		mov	r3, r7
 1778 007e 8A46     		mov	r10, r1
 1779 0080 14F8010D 		ldrb	r0, [r4, #-1]!	@ zero_extendqisi2
 1780 0084 3146     		mov	r1, r6
 1781              	.LVL259:
 1782 0086 A847     		blx	r5
 1783              	.LVL260:
 186:..\..\..\lvgl\version_6.1.2\lvgl\src\lv_misc/lv_printf.c ****     out(buf[--len], buffer, idx++, maxlen);
 1784              		.loc 1 186 0
 1785 0088 CA45     		cmp	r10, r9
 1786 008a F4D1     		bne	.L233
 191:..\..\..\lvgl\version_6.1.2\lvgl\src\lv_misc/lv_printf.c ****     while (idx - start_idx < width) {
 1787              		.loc 1 191 0
 1788 008c 029B     		ldr	r3, [sp, #8]
ARM GAS  C:\Users\pearlstl\AppData\Local\Temp\ccbpFzqf.s 			page 45


 1789 008e 9C07     		lsls	r4, r3, #30
 1790 0090 40F11981 		bpl	.L291
 1791              	.LVL261:
 192:..\..\..\lvgl\version_6.1.2\lvgl\src\lv_misc/lv_printf.c ****       out(' ', buffer, idx++, maxlen);
 1792              		.loc 1 192 0
 1793 0094 039C     		ldr	r4, [sp, #12]
 1794 0096 C4EB0903 		rsb	r3, r4, r9
 1795 009a 9B45     		cmp	fp, r3
 1796 009c 40F21381 		bls	.L291
 1797              	.LVL262:
 1798              	.L235:
 193:..\..\..\lvgl\version_6.1.2\lvgl\src\lv_misc/lv_printf.c ****     }
 1799              		.loc 1 193 0
 1800 00a0 09F10101 		add	r1, r9, #1
 1801              	.LVL263:
 1802 00a4 4A46     		mov	r2, r9
 1803 00a6 3B46     		mov	r3, r7
 1804 00a8 8946     		mov	r9, r1
 1805 00aa 2020     		movs	r0, #32
 1806 00ac 3146     		mov	r1, r6
 1807              	.LVL264:
 1808 00ae A847     		blx	r5
 1809              	.LVL265:
 192:..\..\..\lvgl\version_6.1.2\lvgl\src\lv_misc/lv_printf.c ****       out(' ', buffer, idx++, maxlen);
 1810              		.loc 1 192 0
 1811 00b0 C4EB0903 		rsb	r3, r4, r9
 1812 00b4 9B45     		cmp	fp, r3
 1813 00b6 F3D8     		bhi	.L235
 193:..\..\..\lvgl\version_6.1.2\lvgl\src\lv_misc/lv_printf.c ****     }
 1814              		.loc 1 193 0
 1815 00b8 4846     		mov	r0, r9
 1816              	.LBE160:
 1817              	.LBE162:
 437:..\..\..\lvgl\version_6.1.2\lvgl\src\lv_misc/lv_printf.c **** 
 1818              		.loc 1 437 0
 1819 00ba 13B0     		add	sp, sp, #76
 1820              		.cfi_remember_state
 1821              		.cfi_def_cfa_offset 36
 1822              		@ sp needed
 1823 00bc BDE8F08F 		pop	{r4, r5, r6, r7, r8, r9, r10, fp, pc}
 1824              	.LVL266:
 1825              	.L360:
 1826              		.cfi_restore_state
 333:..\..\..\lvgl\version_6.1.2\lvgl\src\lv_misc/lv_printf.c **** #if defined(PRINTF_SUPPORT_EXPONENTIAL)
 1827              		.loc 1 333 0
 1828 00c0 DDE9009A 		ldrd	r9, [sp]
 1829 00c4 92A3     		adr	r3, .L382
 1830 00c6 D3E90023 		ldrd	r2, [r3]
 1831 00ca 4846     		mov	r0, r9
 1832 00cc 5146     		mov	r1, r10
 1833 00ce FFF7FEFF 		bl	__aeabi_dcmpgt
 1834              	.LVL267:
 1835 00d2 0028     		cmp	r0, #0
 1836 00d4 40F0FB80 		bne	.L236
 1837 00d8 8FA3     		adr	r3, .L382+8
 1838 00da D3E90023 		ldrd	r2, [r3]
 1839 00de 4846     		mov	r0, r9
ARM GAS  C:\Users\pearlstl\AppData\Local\Temp\ccbpFzqf.s 			page 46


 1840 00e0 5146     		mov	r1, r10
 1841 00e2 FFF7FEFF 		bl	__aeabi_dcmplt
 1842              	.LVL268:
 1843 00e6 0028     		cmp	r0, #0
 1844 00e8 40F0F180 		bne	.L236
 1845              	.LVL269:
 1846 00ec 4846     		mov	r0, r9
 1847 00ee 5146     		mov	r1, r10
 343:..\..\..\lvgl\version_6.1.2\lvgl\src\lv_misc/lv_printf.c ****     negative = true;
 1848              		.loc 1 343 0
 1849 00f0 0022     		movs	r2, #0
 1850 00f2 0023     		movs	r3, #0
 1851 00f4 FFF7FEFF 		bl	__aeabi_dcmplt
 1852              	.LVL270:
 1853 00f8 0028     		cmp	r0, #0
 1854 00fa 40F0FB80 		bne	.L374
 342:..\..\..\lvgl\version_6.1.2\lvgl\src\lv_misc/lv_printf.c ****   if (value < 0) {
 1855              		.loc 1 342 0
 1856 00fe 0990     		str	r0, [sp, #36]
 1857 0100 2346     		mov	r3, r4
 1858              	.LVL271:
 1859              	.L239:
 349:..\..\..\lvgl\version_6.1.2\lvgl\src\lv_misc/lv_printf.c ****     prec = PRINTF_DEFAULT_FLOAT_PRECISION;
 1860              		.loc 1 349 0
 1861 0102 13F48069 		ands	r9, r3, #1024
 1862 0106 40F06881 		bne	.L375
 1863 010a 9FED857B 		vldr.64	d7, .L382+16
 1864 010e 8DED047B 		vstr.64	d7, [sp, #16]
 350:..\..\..\lvgl\version_6.1.2\lvgl\src\lv_misc/lv_printf.c ****   }
 1865              		.loc 1 350 0
 1866 0112 0624     		movs	r4, #6
 1867 0114 0DF1280A 		add	r10, sp, #40
 1868              	.LVL272:
 1869              	.L241:
 358:..\..\..\lvgl\version_6.1.2\lvgl\src\lv_misc/lv_printf.c ****   double tmp = (value - whole) * pow10[prec];
 1870              		.loc 1 358 0
 1871 0118 DDE90001 		ldrd	r0, [sp]
 1872 011c FFF7FEFF 		bl	__aeabi_d2iz
 1873              	.LVL273:
 1874 0120 0890     		str	r0, [sp, #32]
 1875              	.LVL274:
 359:..\..\..\lvgl\version_6.1.2\lvgl\src\lv_misc/lv_printf.c ****   unsigned long frac = (unsigned long)tmp;
 1876              		.loc 1 359 0
 1877 0122 FFF7FEFF 		bl	__aeabi_i2d
 1878              	.LVL275:
 1879 0126 0246     		mov	r2, r0
 1880 0128 0B46     		mov	r3, r1
 1881 012a DDE90001 		ldrd	r0, [sp]
 1882 012e FFF7FEFF 		bl	__aeabi_dsub
 1883              	.LVL276:
 1884 0132 DDE90423 		ldrd	r2, [sp, #16]
 1885 0136 FFF7FEFF 		bl	__aeabi_dmul
 1886              	.LVL277:
 1887 013a CDE90601 		strd	r0, [sp, #24]
 1888              	.LVL278:
 360:..\..\..\lvgl\version_6.1.2\lvgl\src\lv_misc/lv_printf.c ****   diff = tmp - frac;
 1889              		.loc 1 360 0
ARM GAS  C:\Users\pearlstl\AppData\Local\Temp\ccbpFzqf.s 			page 47


 1890 013e FFF7FEFF 		bl	__aeabi_d2uiz
 1891              	.LVL279:
 1892 0142 8046     		mov	r8, r0
 1893              	.LVL280:
 361:..\..\..\lvgl\version_6.1.2\lvgl\src\lv_misc/lv_printf.c **** 
 1894              		.loc 1 361 0
 1895 0144 FFF7FEFF 		bl	__aeabi_ui2d
 1896              	.LVL281:
 1897 0148 0246     		mov	r2, r0
 1898 014a 0B46     		mov	r3, r1
 1899 014c DDE90601 		ldrd	r0, [sp, #24]
 1900 0150 FFF7FEFF 		bl	__aeabi_dsub
 1901              	.LVL282:
 363:..\..\..\lvgl\version_6.1.2\lvgl\src\lv_misc/lv_printf.c ****     ++frac;
 1902              		.loc 1 363 0
 1903 0154 0022     		movs	r2, #0
 1904 0156 774B     		ldr	r3, .L382+36
 361:..\..\..\lvgl\version_6.1.2\lvgl\src\lv_misc/lv_printf.c **** 
 1905              		.loc 1 361 0
 1906 0158 CDE90601 		strd	r0, [sp, #24]
 1907              	.LVL283:
 363:..\..\..\lvgl\version_6.1.2\lvgl\src\lv_misc/lv_printf.c ****     ++frac;
 1908              		.loc 1 363 0
 1909 015c FFF7FEFF 		bl	__aeabi_dcmpgt
 1910              	.LVL284:
 1911 0160 0028     		cmp	r0, #0
 1912 0162 00F02B81 		beq	.L365
 364:..\..\..\lvgl\version_6.1.2\lvgl\src\lv_misc/lv_printf.c ****     // handle rollover, e.g. case 0.99 with prec 1 is 1.0
 1913              		.loc 1 364 0
 1914 0166 08F10108 		add	r8, r8, #1
 1915              	.LVL285:
 366:..\..\..\lvgl\version_6.1.2\lvgl\src\lv_misc/lv_printf.c ****       frac = 0;
 1916              		.loc 1 366 0
 1917 016a 4046     		mov	r0, r8
 1918 016c FFF7FEFF 		bl	__aeabi_ui2d
 1919              	.LVL286:
 1920 0170 DDE90423 		ldrd	r2, [sp, #16]
 1921 0174 FFF7FEFF 		bl	__aeabi_dcmpge
 1922              	.LVL287:
 1923 0178 20B1     		cbz	r0, .L247
 1924              	.LVL288:
 368:..\..\..\lvgl\version_6.1.2\lvgl\src\lv_misc/lv_printf.c ****     }
 1925              		.loc 1 368 0
 1926 017a 089B     		ldr	r3, [sp, #32]
 1927 017c 0133     		adds	r3, r3, #1
 1928 017e 0893     		str	r3, [sp, #32]
 1929              	.LVL289:
 367:..\..\..\lvgl\version_6.1.2\lvgl\src\lv_misc/lv_printf.c ****       ++whole;
 1930              		.loc 1 367 0
 1931 0180 4FF00008 		mov	r8, #0
 1932              	.LVL290:
 1933              	.L247:
 378:..\..\..\lvgl\version_6.1.2\lvgl\src\lv_misc/lv_printf.c ****     diff = value - (double)whole;
 1934              		.loc 1 378 0
 1935 0184 002C     		cmp	r4, #0
 1936 0186 40F0E180 		bne	.L250
 379:..\..\..\lvgl\version_6.1.2\lvgl\src\lv_misc/lv_printf.c ****     if ((!(diff < 0.5) || (diff > 0.5)) && (whole & 1)) {
ARM GAS  C:\Users\pearlstl\AppData\Local\Temp\ccbpFzqf.s 			page 48


 1937              		.loc 1 379 0
 1938 018a 0898     		ldr	r0, [sp, #32]
 1939 018c FFF7FEFF 		bl	__aeabi_i2d
 1940              	.LVL291:
 1941 0190 0246     		mov	r2, r0
 1942 0192 0B46     		mov	r3, r1
 1943 0194 DDE90001 		ldrd	r0, [sp]
 1944 0198 FFF7FEFF 		bl	__aeabi_dsub
 1945              	.LVL292:
 380:..\..\..\lvgl\version_6.1.2\lvgl\src\lv_misc/lv_printf.c ****       // exactly 0.5 and ODD, then round up
 1946              		.loc 1 380 0
 1947 019c 0022     		movs	r2, #0
 1948 019e 654B     		ldr	r3, .L382+36
 379:..\..\..\lvgl\version_6.1.2\lvgl\src\lv_misc/lv_printf.c ****     if ((!(diff < 0.5) || (diff > 0.5)) && (whole & 1)) {
 1949              		.loc 1 379 0
 1950 01a0 CDE90001 		strd	r0, [sp]
 1951              	.LVL293:
 380:..\..\..\lvgl\version_6.1.2\lvgl\src\lv_misc/lv_printf.c ****       // exactly 0.5 and ODD, then round up
 1952              		.loc 1 380 0
 1953 01a4 FFF7FEFF 		bl	__aeabi_dcmplt
 1954              	.LVL294:
 1955 01a8 0028     		cmp	r0, #0
 1956 01aa 00F0C780 		beq	.L251
 1957 01ae DDE90001 		ldrd	r0, [sp]
 1958 01b2 0022     		movs	r2, #0
 1959 01b4 5F4B     		ldr	r3, .L382+36
 1960 01b6 FFF7FEFF 		bl	__aeabi_dcmpgt
 1961              	.LVL295:
 1962 01ba 0028     		cmp	r0, #0
 1963 01bc 40F0BE80 		bne	.L251
 1964              	.LVL296:
 1965              	.L253:
 407:..\..\..\lvgl\version_6.1.2\lvgl\src\lv_misc/lv_printf.c ****     buf[len++] = (char)(48 + (whole % 10));
 1966              		.loc 1 407 0
 1967 01c0 B9F1200F 		cmp	r9, #32
 1968 01c4 00F0EF80 		beq	.L266
 408:..\..\..\lvgl\version_6.1.2\lvgl\src\lv_misc/lv_printf.c ****     if (!(whole /= 10)) {
 1969              		.loc 1 408 0
 1970 01c8 0898     		ldr	r0, [sp, #32]
 1971 01ca 5B4A     		ldr	r2, .L382+40
 1972 01cc C317     		asrs	r3, r0, #31
 1973 01ce 82FB0041 		smull	r4, r1, r2, r0
 1974 01d2 C3EBA103 		rsb	r3, r3, r1, asr #2
 1975 01d6 03EB8301 		add	r1, r3, r3, lsl #2
 1976 01da A0EB4101 		sub	r1, r0, r1, lsl #1
 1977 01de 12A8     		add	r0, sp, #72
 1978 01e0 4844     		add	r0, r0, r9
 1979 01e2 3031     		adds	r1, r1, #48
 1980 01e4 09F10108 		add	r8, r9, #1
 1981              	.LVL297:
 1982 01e8 00F8201C 		strb	r1, [r0, #-32]
 1983 01ec D144     		add	r9, r9, r10
 409:..\..\..\lvgl\version_6.1.2\lvgl\src\lv_misc/lv_printf.c ****       break;
 1984              		.loc 1 409 0
 1985 01ee ABB1     		cbz	r3, .L263
 1986              	.L264:
 408:..\..\..\lvgl\version_6.1.2\lvgl\src\lv_misc/lv_printf.c ****     if (!(whole /= 10)) {
ARM GAS  C:\Users\pearlstl\AppData\Local\Temp\ccbpFzqf.s 			page 49


 1987              		.loc 1 408 0
 1988 01f0 82FB0310 		smull	r1, r0, r2, r3
 1989 01f4 D917     		asrs	r1, r3, #31
 1990 01f6 C1EBA001 		rsb	r1, r1, r0, asr #2
 1991 01fa 01EB8100 		add	r0, r1, r1, lsl #2
 1992 01fe A3EB4003 		sub	r3, r3, r0, lsl #1
 1993              	.LVL298:
 407:..\..\..\lvgl\version_6.1.2\lvgl\src\lv_misc/lv_printf.c ****     buf[len++] = (char)(48 + (whole % 10));
 1994              		.loc 1 407 0
 1995 0202 B8F1200F 		cmp	r8, #32
 408:..\..\..\lvgl\version_6.1.2\lvgl\src\lv_misc/lv_printf.c ****     if (!(whole /= 10)) {
 1996              		.loc 1 408 0
 1997 0206 03F13003 		add	r3, r3, #48
 407:..\..\..\lvgl\version_6.1.2\lvgl\src\lv_misc/lv_printf.c ****     buf[len++] = (char)(48 + (whole % 10));
 1998              		.loc 1 407 0
 1999 020a 00F0CC80 		beq	.L266
 408:..\..\..\lvgl\version_6.1.2\lvgl\src\lv_misc/lv_printf.c ****     if (!(whole /= 10)) {
 2000              		.loc 1 408 0
 2001 020e 09F8013F 		strb	r3, [r9, #1]!
 2002 0212 08F10108 		add	r8, r8, #1
 2003              	.LVL299:
 409:..\..\..\lvgl\version_6.1.2\lvgl\src\lv_misc/lv_printf.c ****       break;
 2004              		.loc 1 409 0
 2005 0216 0B46     		mov	r3, r1
 2006 0218 0029     		cmp	r1, #0
 2007 021a E9D1     		bne	.L264
 2008              	.LVL300:
 2009              	.L263:
 415:..\..\..\lvgl\version_6.1.2\lvgl\src\lv_misc/lv_printf.c ****     if (width && (negative || (flags & (FLAGS_PLUS | FLAGS_SPACE)))) {
 2010              		.loc 1 415 0
 2011 021c 029B     		ldr	r3, [sp, #8]
 2012              	.LVL301:
 2013 021e 03F00303 		and	r3, r3, #3
 2014 0222 012B     		cmp	r3, #1
 2015 0224 00F05E81 		beq	.L376
 2016              	.LVL302:
 424:..\..\..\lvgl\version_6.1.2\lvgl\src\lv_misc/lv_printf.c ****     if (negative) {
 2017              		.loc 1 424 0
 2018 0228 B8F1200F 		cmp	r8, #32
 2019 022c 0AD0     		beq	.L274
 2020              	.L284:
 425:..\..\..\lvgl\version_6.1.2\lvgl\src\lv_misc/lv_printf.c ****       buf[len++] = '-';
 2021              		.loc 1 425 0
 2022 022e 099A     		ldr	r2, [sp, #36]
 2023 0230 002A     		cmp	r2, #0
 2024 0232 00F02081 		beq	.L275
 426:..\..\..\lvgl\version_6.1.2\lvgl\src\lv_misc/lv_printf.c ****     }
 2025              		.loc 1 426 0
 2026 0236 12AA     		add	r2, sp, #72
 2027 0238 4244     		add	r2, r2, r8
 2028 023a 2D21     		movs	r1, #45
 2029 023c 08F10108 		add	r8, r8, #1
 2030              	.LVL303:
 2031 0240 02F8201C 		strb	r1, [r2, #-32]
 2032              	.L274:
 2033              	.LVL304:
 2034              	.LBB163:
ARM GAS  C:\Users\pearlstl\AppData\Local\Temp\ccbpFzqf.s 			page 50


 2035              	.LBB164:
 178:..\..\..\lvgl\version_6.1.2\lvgl\src\lv_misc/lv_printf.c ****       size_t i;
 2036              		.loc 1 178 0
 2037 0244 002B     		cmp	r3, #0
 2038 0246 40F00981 		bne	.L295
 2039              	.LVL305:
 2040              	.L286:
 2041              	.LBB165:
 180:..\..\..\lvgl\version_6.1.2\lvgl\src\lv_misc/lv_printf.c ****       out(' ', buffer, idx++, maxlen);
 2042              		.loc 1 180 0
 2043 024a C345     		cmp	fp, r8
 2044 024c 039B     		ldr	r3, [sp, #12]
 2045 024e 40F20681 		bls	.L371
 2046 0252 1A46     		mov	r2, r3
 2047 0254 C3EB0809 		rsb	r9, r3, r8
 2048              	.LVL306:
 2049              	.L278:
 181:..\..\..\lvgl\version_6.1.2\lvgl\src\lv_misc/lv_printf.c ****     }
 2050              		.loc 1 181 0
 2051 0258 541C     		adds	r4, r2, #1
 2052              	.LVL307:
 2053 025a 3B46     		mov	r3, r7
 2054 025c 3146     		mov	r1, r6
 2055 025e 2020     		movs	r0, #32
 2056 0260 A847     		blx	r5
 2057              	.LVL308:
 180:..\..\..\lvgl\version_6.1.2\lvgl\src\lv_misc/lv_printf.c ****       out(' ', buffer, idx++, maxlen);
 2058              		.loc 1 180 0
 2059 0262 09EB0403 		add	r3, r9, r4
 2060 0266 5B45     		cmp	r3, fp
 181:..\..\..\lvgl\version_6.1.2\lvgl\src\lv_misc/lv_printf.c ****     }
 2061              		.loc 1 181 0
 2062 0268 2246     		mov	r2, r4
 180:..\..\..\lvgl\version_6.1.2\lvgl\src\lv_misc/lv_printf.c ****       out(' ', buffer, idx++, maxlen);
 2063              		.loc 1 180 0
 2064 026a F5D3     		bcc	.L278
 2065 026c 039B     		ldr	r3, [sp, #12]
 2066 026e 03EB0B04 		add	r4, r3, fp
 2067              	.LVL309:
 2068 0272 C8EB0403 		rsb	r3, r8, r4
 2069 0276 0093     		str	r3, [sp]
 2070 0278 1A46     		mov	r2, r3
 2071              	.LVL310:
 2072              	.L272:
 2073 027a C244     		add	r10, r10, r8
 2074              	.LBE165:
 2075              	.LBE164:
 2076              	.LBE163:
 419:..\..\..\lvgl\version_6.1.2\lvgl\src\lv_misc/lv_printf.c ****       buf[len++] = '0';
 2077              		.loc 1 419 0
 2078 027c 4446     		mov	r4, r8
 2079              	.LVL311:
 2080              	.L279:
 2081              	.LBB169:
 2082              	.LBB166:
 187:..\..\..\lvgl\version_6.1.2\lvgl\src\lv_misc/lv_printf.c ****   }
 2083              		.loc 1 187 0
ARM GAS  C:\Users\pearlstl\AppData\Local\Temp\ccbpFzqf.s 			page 51


 2084 027e 02F10109 		add	r9, r2, #1
 2085 0282 3B46     		mov	r3, r7
 2086 0284 3146     		mov	r1, r6
 2087 0286 1AF8010D 		ldrb	r0, [r10, #-1]!	@ zero_extendqisi2
 2088 028a 013C     		subs	r4, r4, #1
 2089              	.LVL312:
 2090 028c A847     		blx	r5
 2091              	.LVL313:
 2092 028e 4A46     		mov	r2, r9
 186:..\..\..\lvgl\version_6.1.2\lvgl\src\lv_misc/lv_printf.c ****     out(buf[--len], buffer, idx++, maxlen);
 2093              		.loc 1 186 0
 2094 0290 002C     		cmp	r4, #0
 2095 0292 F4D1     		bne	.L279
 2096 0294 009B     		ldr	r3, [sp]
 2097 0296 4344     		add	r3, r3, r8
 2098 0298 1A46     		mov	r2, r3
 191:..\..\..\lvgl\version_6.1.2\lvgl\src\lv_misc/lv_printf.c ****     while (idx - start_idx < width) {
 2099              		.loc 1 191 0
 2100 029a 029B     		ldr	r3, [sp, #8]
 2101 029c 9B07     		lsls	r3, r3, #30
 2102 029e 0ED5     		bpl	.L301
 2103              	.LVL314:
 192:..\..\..\lvgl\version_6.1.2\lvgl\src\lv_misc/lv_printf.c ****       out(' ', buffer, idx++, maxlen);
 2104              		.loc 1 192 0
 2105 02a0 0399     		ldr	r1, [sp, #12]
 2106 02a2 531A     		subs	r3, r2, r1
 2107 02a4 9B45     		cmp	fp, r3
 2108 02a6 0AD9     		bls	.L301
 2109 02a8 8846     		mov	r8, r1
 2110              	.LVL315:
 2111              	.L280:
 193:..\..\..\lvgl\version_6.1.2\lvgl\src\lv_misc/lv_printf.c ****     }
 2112              		.loc 1 193 0
 2113 02aa 541C     		adds	r4, r2, #1
 2114              	.LVL316:
 2115 02ac 3B46     		mov	r3, r7
 2116 02ae 3146     		mov	r1, r6
 2117 02b0 2020     		movs	r0, #32
 2118 02b2 A847     		blx	r5
 2119              	.LVL317:
 192:..\..\..\lvgl\version_6.1.2\lvgl\src\lv_misc/lv_printf.c ****       out(' ', buffer, idx++, maxlen);
 2120              		.loc 1 192 0
 2121 02b4 C8EB0403 		rsb	r3, r8, r4
 2122 02b8 9B45     		cmp	fp, r3
 193:..\..\..\lvgl\version_6.1.2\lvgl\src\lv_misc/lv_printf.c ****     }
 2123              		.loc 1 193 0
 2124 02ba 2246     		mov	r2, r4
 192:..\..\..\lvgl\version_6.1.2\lvgl\src\lv_misc/lv_printf.c ****       out(' ', buffer, idx++, maxlen);
 2125              		.loc 1 192 0
 2126 02bc F5D8     		bhi	.L280
 2127              	.LVL318:
 2128              	.L301:
 2129 02be 1046     		mov	r0, r2
 2130              	.LBE166:
 2131              	.LBE169:
 437:..\..\..\lvgl\version_6.1.2\lvgl\src\lv_misc/lv_printf.c **** 
 2132              		.loc 1 437 0
ARM GAS  C:\Users\pearlstl\AppData\Local\Temp\ccbpFzqf.s 			page 52


 2133 02c0 13B0     		add	sp, sp, #76
 2134              		.cfi_remember_state
 2135              		.cfi_def_cfa_offset 36
 2136              		@ sp needed
 2137 02c2 BDE8F08F 		pop	{r4, r5, r6, r7, r8, r9, r10, fp, pc}
 2138              	.LVL319:
 2139              	.L291:
 2140              		.cfi_restore_state
 2141              	.LBB170:
 2142              	.LBB161:
 192:..\..\..\lvgl\version_6.1.2\lvgl\src\lv_misc/lv_printf.c ****       out(' ', buffer, idx++, maxlen);
 2143              		.loc 1 192 0
 2144 02c6 5046     		mov	r0, r10
 2145              	.LBE161:
 2146              	.LBE170:
 437:..\..\..\lvgl\version_6.1.2\lvgl\src\lv_misc/lv_printf.c **** 
 2147              		.loc 1 437 0
 2148 02c8 13B0     		add	sp, sp, #76
 2149              		.cfi_remember_state
 2150              		.cfi_def_cfa_offset 36
 2151              		@ sp needed
 2152 02ca BDE8F08F 		pop	{r4, r5, r6, r7, r8, r9, r10, fp, pc}
 2153              	.LVL320:
 2154              	.L236:
 2155              		.cfi_restore_state
 335:..\..\..\lvgl\version_6.1.2\lvgl\src\lv_misc/lv_printf.c **** #else
 2156              		.loc 1 335 0
 2157 02ce 9DED007B 		vldr.64	d7, [sp]
 2158 02d2 029B     		ldr	r3, [sp, #8]
 2159 02d4 039A     		ldr	r2, [sp, #12]
 2160 02d6 2093     		str	r3, [sp, #128]
 2161 02d8 3146     		mov	r1, r6
 2162 02da 3B46     		mov	r3, r7
 2163 02dc 2846     		mov	r0, r5
 2164 02de CDF87CB0 		str	fp, [sp, #124]
 2165 02e2 CDF87880 		str	r8, [sp, #120]
 2166 02e6 8DED1C7B 		vstr.64	d7, [sp, #112]
 437:..\..\..\lvgl\version_6.1.2\lvgl\src\lv_misc/lv_printf.c **** 
 2167              		.loc 1 437 0
 2168 02ea 13B0     		add	sp, sp, #76
 2169              		.cfi_remember_state
 2170              		.cfi_def_cfa_offset 36
 2171              		@ sp needed
 2172 02ec BDE8F04F 		pop	{r4, r5, r6, r7, r8, r9, r10, fp, lr}
 2173              		.cfi_restore 14
 2174              		.cfi_restore 11
 2175              		.cfi_restore 10
 2176              		.cfi_restore 9
 2177              		.cfi_restore 8
 2178              		.cfi_restore 7
 2179              		.cfi_restore 6
 2180              		.cfi_restore 5
 2181              		.cfi_restore 4
 2182              		.cfi_def_cfa_offset 0
 2183              	.LVL321:
 335:..\..\..\lvgl\version_6.1.2\lvgl\src\lv_misc/lv_printf.c **** #else
 2184              		.loc 1 335 0
ARM GAS  C:\Users\pearlstl\AppData\Local\Temp\ccbpFzqf.s 			page 53


 2185 02f0 FFF7FEBF 		b	_etoa
 2186              	.LVL322:
 2187              	.L374:
 2188              		.cfi_restore_state
 345:..\..\..\lvgl\version_6.1.2\lvgl\src\lv_misc/lv_printf.c ****   }
 2189              		.loc 1 345 0
 2190 02f4 DDE90023 		ldrd	r2, [sp]
 2191 02f8 0020     		movs	r0, #0
 2192 02fa 0021     		movs	r1, #0
 2193 02fc FFF7FEFF 		bl	__aeabi_dsub
 2194              	.LVL323:
 344:..\..\..\lvgl\version_6.1.2\lvgl\src\lv_misc/lv_printf.c ****     value = 0 - value;
 2195              		.loc 1 344 0
 2196 0300 0123     		movs	r3, #1
 2197 0302 0993     		str	r3, [sp, #36]
 345:..\..\..\lvgl\version_6.1.2\lvgl\src\lv_misc/lv_printf.c ****   }
 2198              		.loc 1 345 0
 2199 0304 CDE90001 		strd	r0, [sp]
 2200              	.LVL324:
 2201 0308 2346     		mov	r3, r4
 2202 030a FAE6     		b	.L239
 2203              	.L383:
 2204 030c AFF30080 		.align	3
 2205              	.L382:
 2206 0310 00000000 		.word	0
 2207 0314 65CDCD41 		.word	1104006501
 2208 0318 00000000 		.word	0
 2209 031c 65CDCDC1 		.word	-1043477147
 2210 0320 00000000 		.word	0
 2211 0324 80842E41 		.word	1093567616
 2212 0328 FFFFEF7F 		.word	2146435071
 2213 032c 14000000 		.word	.LC3
 2214 0330 0C000000 		.word	.LC2
 2215 0334 0000E03F 		.word	1071644672
 2216 0338 67666666 		.word	1717986919
 2217              	.LVL325:
 2218              	.L251:
 380:..\..\..\lvgl\version_6.1.2\lvgl\src\lv_misc/lv_printf.c ****       // exactly 0.5 and ODD, then round up
 2219              		.loc 1 380 0
 2220 033c 089A     		ldr	r2, [sp, #32]
 2221 033e D007     		lsls	r0, r2, #31
 2222 0340 1346     		mov	r3, r2
 2223 0342 7FF53DAF 		bpl	.L253
 383:..\..\..\lvgl\version_6.1.2\lvgl\src\lv_misc/lv_printf.c ****     }
 2224              		.loc 1 383 0
 2225 0346 0133     		adds	r3, r3, #1
 2226 0348 0893     		str	r3, [sp, #32]
 2227              	.LVL326:
 2228 034a 39E7     		b	.L253
 2229              	.LVL327:
 2230              	.L250:
 2231              	.LBB171:
 389:..\..\..\lvgl\version_6.1.2\lvgl\src\lv_misc/lv_printf.c ****       --count;
 2232              		.loc 1 389 0
 2233 034c B9F1200F 		cmp	r9, #32
 2234 0350 29D0     		beq	.L266
 391:..\..\..\lvgl\version_6.1.2\lvgl\src\lv_misc/lv_printf.c ****       if (!(frac /= 10U)) {
ARM GAS  C:\Users\pearlstl\AppData\Local\Temp\ccbpFzqf.s 			page 54


 2235              		.loc 1 391 0
 2236 0352 7149     		ldr	r1, .L384
 2237 0354 A1FB0823 		umull	r2, r3, r1, r8
 2238 0358 DB08     		lsrs	r3, r3, #3
 2239 035a 03EB8302 		add	r2, r3, r3, lsl #2
 2240 035e A8EB4208 		sub	r8, r8, r2, lsl #1
 2241              	.LVL328:
 2242 0362 12AA     		add	r2, sp, #72
 2243 0364 4A44     		add	r2, r2, r9
 2244 0366 08F13008 		add	r8, r8, #48
 2245 036a 02F8208C 		strb	r8, [r2, #-32]
 390:..\..\..\lvgl\version_6.1.2\lvgl\src\lv_misc/lv_printf.c ****       buf[len++] = (char)(48U + (frac % 10U));
 2246              		.loc 1 390 0
 2247 036e 013C     		subs	r4, r4, #1
 2248              	.LVL329:
 391:..\..\..\lvgl\version_6.1.2\lvgl\src\lv_misc/lv_printf.c ****       if (!(frac /= 10U)) {
 2249              		.loc 1 391 0
 2250 0370 09F10102 		add	r2, r9, #1
 2251              	.LVL330:
 392:..\..\..\lvgl\version_6.1.2\lvgl\src\lv_misc/lv_printf.c ****         break;
 2252              		.loc 1 392 0
 2253 0374 002B     		cmp	r3, #0
 2254 0376 00F08C80 		beq	.L255
 2255 037a D144     		add	r9, r9, r10
 391:..\..\..\lvgl\version_6.1.2\lvgl\src\lv_misc/lv_printf.c ****       if (!(frac /= 10U)) {
 2256              		.loc 1 391 0
 2257 037c 8E46     		mov	lr, r1
 2258 037e 07E0     		b	.L256
 2259              	.LVL331:
 2260              	.L257:
 2261 0380 09F8013F 		strb	r3, [r9, #1]!
 390:..\..\..\lvgl\version_6.1.2\lvgl\src\lv_misc/lv_printf.c ****       buf[len++] = (char)(48U + (frac % 10U));
 2262              		.loc 1 390 0
 2263 0384 013C     		subs	r4, r4, #1
 2264              	.LVL332:
 391:..\..\..\lvgl\version_6.1.2\lvgl\src\lv_misc/lv_printf.c ****       if (!(frac /= 10U)) {
 2265              		.loc 1 391 0
 2266 0386 0132     		adds	r2, r2, #1
 2267              	.LVL333:
 392:..\..\..\lvgl\version_6.1.2\lvgl\src\lv_misc/lv_printf.c ****         break;
 2268              		.loc 1 392 0
 2269 0388 0B46     		mov	r3, r1
 2270 038a 0029     		cmp	r1, #0
 2271 038c 00F08180 		beq	.L255
 2272              	.LVL334:
 2273              	.L256:
 391:..\..\..\lvgl\version_6.1.2\lvgl\src\lv_misc/lv_printf.c ****       if (!(frac /= 10U)) {
 2274              		.loc 1 391 0
 2275 0390 AEFB0301 		umull	r0, r1, lr, r3
 2276 0394 C908     		lsrs	r1, r1, #3
 2277 0396 01EB8100 		add	r0, r1, r1, lsl #2
 2278 039a A3EB4003 		sub	r3, r3, r0, lsl #1
 2279              	.LVL335:
 389:..\..\..\lvgl\version_6.1.2\lvgl\src\lv_misc/lv_printf.c ****       --count;
 2280              		.loc 1 389 0
 2281 039e 202A     		cmp	r2, #32
 391:..\..\..\lvgl\version_6.1.2\lvgl\src\lv_misc/lv_printf.c ****       if (!(frac /= 10U)) {
ARM GAS  C:\Users\pearlstl\AppData\Local\Temp\ccbpFzqf.s 			page 55


 2282              		.loc 1 391 0
 2283 03a0 03F13003 		add	r3, r3, #48
 389:..\..\..\lvgl\version_6.1.2\lvgl\src\lv_misc/lv_printf.c ****       --count;
 2284              		.loc 1 389 0
 2285 03a4 ECD1     		bne	.L257
 2286              	.LVL336:
 2287              	.L266:
 2288              	.LBE171:
 415:..\..\..\lvgl\version_6.1.2\lvgl\src\lv_misc/lv_printf.c ****     if (width && (negative || (flags & (FLAGS_PLUS | FLAGS_SPACE)))) {
 2289              		.loc 1 415 0
 2290 03a6 029B     		ldr	r3, [sp, #8]
 2291 03a8 03F00303 		and	r3, r3, #3
 2292 03ac 012B     		cmp	r3, #1
 2293 03ae 36D0     		beq	.L377
 2294              	.LVL337:
 2295              	.LBB172:
 2296              	.LBB167:
 178:..\..\..\lvgl\version_6.1.2\lvgl\src\lv_misc/lv_printf.c ****       size_t i;
 2297              		.loc 1 178 0
 2298 03b0 002B     		cmp	r3, #0
 2299 03b2 40F09180 		bne	.L370
 2300 03b6 4FF02008 		mov	r8, #32
 2301 03ba 46E7     		b	.L286
 2302              	.LVL338:
 2303              	.L365:
 2304              	.LBE167:
 2305              	.LBE172:
 371:..\..\..\lvgl\version_6.1.2\lvgl\src\lv_misc/lv_printf.c ****   }
 2306              		.loc 1 371 0
 2307 03bc DDE90601 		ldrd	r0, [sp, #24]
 2308 03c0 0022     		movs	r2, #0
 2309 03c2 564B     		ldr	r3, .L384+4
 2310 03c4 FFF7FEFF 		bl	__aeabi_dcmplt
 2311              	.LVL339:
 2312 03c8 0028     		cmp	r0, #0
 2313 03ca 7FF4DBAE 		bne	.L247
 373:..\..\..\lvgl\version_6.1.2\lvgl\src\lv_misc/lv_printf.c ****     // if halfway, round up if odd OR if last digit is 0
 2314              		.loc 1 373 0
 2315 03ce B8F1000F 		cmp	r8, #0
 2316 03d2 74D1     		bne	.L378
 2317              	.L249:
 375:..\..\..\lvgl\version_6.1.2\lvgl\src\lv_misc/lv_printf.c ****   }
 2318              		.loc 1 375 0
 2319 03d4 08F10108 		add	r8, r8, #1
 2320              	.LVL340:
 2321 03d8 D4E6     		b	.L247
 2322              	.LVL341:
 2323              	.L375:
 353:..\..\..\lvgl\version_6.1.2\lvgl\src\lv_misc/lv_printf.c ****     buf[len++] = '0';
 2324              		.loc 1 353 0
 2325 03da B8F1090F 		cmp	r8, #9
 2326 03de 40F28D80 		bls	.L379
 2327              	.LVL342:
 354:..\..\..\lvgl\version_6.1.2\lvgl\src\lv_misc/lv_printf.c ****     prec--;
 2328              		.loc 1 354 0
 2329 03e2 0DF1480A 		add	r10, sp, #72
 2330              	.LVL343:
ARM GAS  C:\Users\pearlstl\AppData\Local\Temp\ccbpFzqf.s 			page 56


 2331 03e6 3021     		movs	r1, #48
 2332 03e8 0AF8201D 		strb	r1, [r10, #-32]!
 355:..\..\..\lvgl\version_6.1.2\lvgl\src\lv_misc/lv_printf.c ****   }
 2333              		.loc 1 355 0
 2334 03ec 08F1FF34 		add	r4, r8, #-1
 2335              	.LVL344:
 2336 03f0 5246     		mov	r2, r10
 2337 03f2 A8F10909 		sub	r9, r8, #9
 2338 03f6 0123     		movs	r3, #1
 2339 03f8 05E0     		b	.L243
 2340              	.LVL345:
 2341              	.L244:
 353:..\..\..\lvgl\version_6.1.2\lvgl\src\lv_misc/lv_printf.c ****     buf[len++] = '0';
 2342              		.loc 1 353 0
 2343 03fa 202B     		cmp	r3, #32
 354:..\..\..\lvgl\version_6.1.2\lvgl\src\lv_misc/lv_printf.c ****     prec--;
 2344              		.loc 1 354 0
 2345 03fc 02F8011F 		strb	r1, [r2, #1]!
 355:..\..\..\lvgl\version_6.1.2\lvgl\src\lv_misc/lv_printf.c ****   }
 2346              		.loc 1 355 0
 2347 0400 04F1FF34 		add	r4, r4, #-1
 2348              	.LVL346:
 353:..\..\..\lvgl\version_6.1.2\lvgl\src\lv_misc/lv_printf.c ****     buf[len++] = '0';
 2349              		.loc 1 353 0
 2350 0404 2ED0     		beq	.L380
 2351              	.LVL347:
 2352              	.L243:
 2353 0406 4B45     		cmp	r3, r9
 354:..\..\..\lvgl\version_6.1.2\lvgl\src\lv_misc/lv_printf.c ****     prec--;
 2354              		.loc 1 354 0
 2355 0408 03F10103 		add	r3, r3, #1
 2356              	.LVL348:
 353:..\..\..\lvgl\version_6.1.2\lvgl\src\lv_misc/lv_printf.c ****     buf[len++] = '0';
 2357              		.loc 1 353 0
 2358 040c F5D1     		bne	.L244
 2359 040e 444B     		ldr	r3, .L384+8
 2360              	.LVL349:
 2361 0410 03EBC403 		add	r3, r3, r4, lsl #3
 2362 0414 93ED007B 		vldr.64	d7, [r3]
 2363 0418 8DED047B 		vstr.64	d7, [sp, #16]
 2364 041c 7CE6     		b	.L241
 2365              	.LVL350:
 2366              	.L377:
 416:..\..\..\lvgl\version_6.1.2\lvgl\src\lv_misc/lv_printf.c ****       width--;
 2367              		.loc 1 416 0
 2368 041e 4FF02008 		mov	r8, #32
 2369 0422 BBF1000F 		cmp	fp, #0
 2370 0426 57D0     		beq	.L370
 2371              	.LVL351:
 2372              	.L285:
 2373 0428 099B     		ldr	r3, [sp, #36]
 2374 042a 1BB9     		cbnz	r3, .L270
 2375 042c 029B     		ldr	r3, [sp, #8]
 2376 042e 13F00C0F 		tst	r3, #12
 2377 0432 01D0     		beq	.L271
 2378              	.L270:
 417:..\..\..\lvgl\version_6.1.2\lvgl\src\lv_misc/lv_printf.c ****     }
ARM GAS  C:\Users\pearlstl\AppData\Local\Temp\ccbpFzqf.s 			page 57


 2379              		.loc 1 417 0
 2380 0434 0BF1FF3B 		add	fp, fp, #-1
 2381              	.LVL352:
 2382              	.L271:
 419:..\..\..\lvgl\version_6.1.2\lvgl\src\lv_misc/lv_printf.c ****       buf[len++] = '0';
 2383              		.loc 1 419 0
 2384 0438 C345     		cmp	fp, r8
 2385 043a 56D9     		bls	.L269
 2386 043c B8F1200F 		cmp	r8, #32
 2387 0440 0CD0     		beq	.L295
 2388 0442 08F1FF33 		add	r3, r8, #-1
 2389 0446 5344     		add	r3, r3, r10
 420:..\..\..\lvgl\version_6.1.2\lvgl\src\lv_misc/lv_printf.c ****     }
 2390              		.loc 1 420 0
 2391 0448 3022     		movs	r2, #48
 2392              	.L273:
 2393 044a 08F10108 		add	r8, r8, #1
 2394              	.LVL353:
 419:..\..\..\lvgl\version_6.1.2\lvgl\src\lv_misc/lv_printf.c ****       buf[len++] = '0';
 2395              		.loc 1 419 0
 2396 044e D845     		cmp	r8, fp
 420:..\..\..\lvgl\version_6.1.2\lvgl\src\lv_misc/lv_printf.c ****     }
 2397              		.loc 1 420 0
 2398 0450 03F8012F 		strb	r2, [r3, #1]!
 419:..\..\..\lvgl\version_6.1.2\lvgl\src\lv_misc/lv_printf.c ****       buf[len++] = '0';
 2399              		.loc 1 419 0
 2400 0454 50D0     		beq	.L296
 2401 0456 B8F1200F 		cmp	r8, #32
 2402 045a F6D1     		bne	.L273
 2403              	.L295:
 2404 045c 039B     		ldr	r3, [sp, #12]
 2405              	.LVL354:
 2406              	.L371:
 2407 045e 0093     		str	r3, [sp]
 2408 0460 1A46     		mov	r2, r3
 2409 0462 0AE7     		b	.L272
 2410              	.LVL355:
 2411              	.L380:
 2412 0464 2E4A     		ldr	r2, .L384+8
 2413 0466 02EBC402 		add	r2, r2, r4, lsl #3
 2414 046a 92ED007B 		vldr.64	d7, [r2]
 353:..\..\..\lvgl\version_6.1.2\lvgl\src\lv_misc/lv_printf.c ****     buf[len++] = '0';
 2415              		.loc 1 353 0
 2416 046e 9946     		mov	r9, r3
 2417 0470 8DED047B 		vstr.64	d7, [sp, #16]
 2418 0474 50E6     		b	.L241
 2419              	.LVL356:
 2420              	.L275:
 428:..\..\..\lvgl\version_6.1.2\lvgl\src\lv_misc/lv_printf.c ****       buf[len++] = '+';  // ignore the space if the '+' exists
 2421              		.loc 1 428 0
 2422 0476 029A     		ldr	r2, [sp, #8]
 2423 0478 5107     		lsls	r1, r2, #29
 2424 047a 25D4     		bmi	.L381
 431:..\..\..\lvgl\version_6.1.2\lvgl\src\lv_misc/lv_printf.c ****       buf[len++] = ' ';
 2425              		.loc 1 431 0
 2426 047c 1207     		lsls	r2, r2, #28
 2427 047e 7FF5E1AE 		bpl	.L274
ARM GAS  C:\Users\pearlstl\AppData\Local\Temp\ccbpFzqf.s 			page 58


 432:..\..\..\lvgl\version_6.1.2\lvgl\src\lv_misc/lv_printf.c ****     }
 2428              		.loc 1 432 0
 2429 0482 12AA     		add	r2, sp, #72
 2430 0484 4244     		add	r2, r2, r8
 2431 0486 2021     		movs	r1, #32
 2432 0488 08F10108 		add	r8, r8, #1
 2433              	.LVL357:
 2434 048c 02F8201C 		strb	r1, [r2, #-32]
 2435 0490 D8E6     		b	.L274
 2436              	.LVL358:
 2437              	.L255:
 2438              	.LBB173:
 397:..\..\..\lvgl\version_6.1.2\lvgl\src\lv_misc/lv_printf.c ****       buf[len++] = '0';
 2439              		.loc 1 397 0
 2440 0492 202A     		cmp	r2, #32
 2441 0494 87D0     		beq	.L266
 2442              	.LVL359:
 2443 0496 54B1     		cbz	r4, .L260
 2444 0498 531E     		subs	r3, r2, #1
 2445              	.LVL360:
 2446 049a 5344     		add	r3, r3, r10
 398:..\..\..\lvgl\version_6.1.2\lvgl\src\lv_misc/lv_printf.c ****     }
 2447              		.loc 1 398 0
 2448 049c 3021     		movs	r1, #48
 2449              	.LVL361:
 2450              	.L262:
 2451 049e 0132     		adds	r2, r2, #1
 2452              	.LVL362:
 397:..\..\..\lvgl\version_6.1.2\lvgl\src\lv_misc/lv_printf.c ****       buf[len++] = '0';
 2453              		.loc 1 397 0
 2454 04a0 202A     		cmp	r2, #32
 398:..\..\..\lvgl\version_6.1.2\lvgl\src\lv_misc/lv_printf.c ****     }
 2455              		.loc 1 398 0
 2456 04a2 03F8011F 		strb	r1, [r3, #1]!
 2457              	.LVL363:
 397:..\..\..\lvgl\version_6.1.2\lvgl\src\lv_misc/lv_printf.c ****       buf[len++] = '0';
 2458              		.loc 1 397 0
 2459 04a6 3FF47EAF 		beq	.L266
 2460 04aa 013C     		subs	r4, r4, #1
 2461              	.LVL364:
 2462 04ac F7D1     		bne	.L262
 2463              	.LVL365:
 2464              	.L260:
 402:..\..\..\lvgl\version_6.1.2\lvgl\src\lv_misc/lv_printf.c ****     }
 2465              		.loc 1 402 0
 2466 04ae 12AB     		add	r3, sp, #72
 2467 04b0 1344     		add	r3, r3, r2
 2468 04b2 2E21     		movs	r1, #46
 2469 04b4 02F10109 		add	r9, r2, #1
 2470              	.LVL366:
 2471 04b8 03F8201C 		strb	r1, [r3, #-32]
 2472 04bc 80E6     		b	.L253
 2473              	.LVL367:
 2474              	.L378:
 2475              	.LBE173:
 373:..\..\..\lvgl\version_6.1.2\lvgl\src\lv_misc/lv_printf.c ****     // if halfway, round up if odd OR if last digit is 0
 2476              		.loc 1 373 0
ARM GAS  C:\Users\pearlstl\AppData\Local\Temp\ccbpFzqf.s 			page 59


 2477 04be 18F0010F 		tst	r8, #1
 2478 04c2 3FF45FAE 		beq	.L247
 2479 04c6 85E7     		b	.L249
 2480              	.LVL368:
 2481              	.L381:
 429:..\..\..\lvgl\version_6.1.2\lvgl\src\lv_misc/lv_printf.c ****     }
 2482              		.loc 1 429 0
 2483 04c8 12AA     		add	r2, sp, #72
 2484 04ca 4244     		add	r2, r2, r8
 2485 04cc 2B21     		movs	r1, #43
 2486 04ce 08F10108 		add	r8, r8, #1
 2487              	.LVL369:
 2488 04d2 02F8201C 		strb	r1, [r2, #-32]
 2489 04d6 B5E6     		b	.L274
 2490              	.LVL370:
 2491              	.L370:
 2492              	.LBB174:
 2493              	.LBB168:
 178:..\..\..\lvgl\version_6.1.2\lvgl\src\lv_misc/lv_printf.c ****       size_t i;
 2494              		.loc 1 178 0
 2495 04d8 039B     		ldr	r3, [sp, #12]
 2496 04da 0093     		str	r3, [sp]
 2497 04dc 4FF02008 		mov	r8, #32
 2498 04e0 1A46     		mov	r2, r3
 2499 04e2 CAE6     		b	.L272
 2500              	.LVL371:
 2501              	.L376:
 2502              	.LBE168:
 2503              	.LBE174:
 416:..\..\..\lvgl\version_6.1.2\lvgl\src\lv_misc/lv_printf.c ****       width--;
 2504              		.loc 1 416 0
 2505 04e4 BBF1000F 		cmp	fp, #0
 2506 04e8 9ED1     		bne	.L285
 2507              	.LVL372:
 2508              	.L269:
 424:..\..\..\lvgl\version_6.1.2\lvgl\src\lv_misc/lv_printf.c ****     if (negative) {
 2509              		.loc 1 424 0
 2510 04ea B8F1200F 		cmp	r8, #32
 2511 04ee 18BF     		it	ne
 2512 04f0 0123     		movne	r3, #1
 2513 04f2 7FF49CAE 		bne	.L284
 2514 04f6 B1E7     		b	.L295
 2515              	.L296:
 419:..\..\..\lvgl\version_6.1.2\lvgl\src\lv_misc/lv_printf.c ****       buf[len++] = '0';
 2516              		.loc 1 419 0
 2517 04f8 D846     		mov	r8, fp
 2518              	.LVL373:
 2519 04fa F6E7     		b	.L269
 2520              	.LVL374:
 2521              	.L379:
 2522 04fc 084B     		ldr	r3, .L384+8
 2523 04fe 03EBC803 		add	r3, r3, r8, lsl #3
 2524 0502 93ED007B 		vldr.64	d7, [r3]
 353:..\..\..\lvgl\version_6.1.2\lvgl\src\lv_misc/lv_printf.c ****     buf[len++] = '0';
 2525              		.loc 1 353 0
 2526 0506 4446     		mov	r4, r8
 2527 0508 8DED047B 		vstr.64	d7, [sp, #16]
ARM GAS  C:\Users\pearlstl\AppData\Local\Temp\ccbpFzqf.s 			page 60


 2528 050c 4FF00009 		mov	r9, #0
 2529 0510 0DF1280A 		add	r10, sp, #40
 2530              	.LVL375:
 2531 0514 00E6     		b	.L241
 2532              	.L385:
 2533 0516 00BF     		.align	2
 2534              	.L384:
 2535 0518 CDCCCCCC 		.word	-858993459
 2536 051c 0000E03F 		.word	1071644672
 2537 0520 00000000 		.word	.LANCHOR0
 2538              		.cfi_endproc
 2539              	.LFE15:
 2540              		.size	_ftoa.part.1, .-_ftoa.part.1
 2541              		.global	__aeabi_uldivmod
 2542              		.section	.text._vsnprintf.constprop.2,"ax",%progbits
 2543              		.align	2
 2544              		.thumb
 2545              		.thumb_func
 2546              		.type	_vsnprintf.constprop.2, %function
 2547              	_vsnprintf.constprop.2:
 2548              	.LFB16:
 547:..\..\..\lvgl\version_6.1.2\lvgl\src\lv_misc/lv_printf.c **** #endif  // PRINTF_SUPPORT_EXPONENTIAL
 548:..\..\..\lvgl\version_6.1.2\lvgl\src\lv_misc/lv_printf.c **** #endif  // PRINTF_SUPPORT_FLOAT
 549:..\..\..\lvgl\version_6.1.2\lvgl\src\lv_misc/lv_printf.c **** 
 550:..\..\..\lvgl\version_6.1.2\lvgl\src\lv_misc/lv_printf.c **** 
 551:..\..\..\lvgl\version_6.1.2\lvgl\src\lv_misc/lv_printf.c **** // internal vsnprintf
 552:..\..\..\lvgl\version_6.1.2\lvgl\src\lv_misc/lv_printf.c **** static int _vsnprintf(out_fct_type out, char* buffer, const size_t maxlen, const char* format, va_l
 2549              		.loc 1 552 0
 2550              		.cfi_startproc
 2551              		@ args = 0, pretend = 0, frame = 80
 2552              		@ frame_needed = 0, uses_anonymous_args = 0
 2553              	.LVL376:
 2554 0000 2DE9F04F 		push	{r4, r5, r6, r7, r8, r9, r10, fp, lr}
 2555              		.cfi_def_cfa_offset 36
 2556              		.cfi_offset 4, -36
 2557              		.cfi_offset 5, -32
 2558              		.cfi_offset 6, -28
 2559              		.cfi_offset 7, -24
 2560              		.cfi_offset 8, -20
 2561              		.cfi_offset 9, -16
 2562              		.cfi_offset 10, -12
 2563              		.cfi_offset 11, -8
 2564              		.cfi_offset 14, -4
 553:..\..\..\lvgl\version_6.1.2\lvgl\src\lv_misc/lv_printf.c **** {
 554:..\..\..\lvgl\version_6.1.2\lvgl\src\lv_misc/lv_printf.c ****   unsigned int flags, width, precision, n;
 555:..\..\..\lvgl\version_6.1.2\lvgl\src\lv_misc/lv_printf.c ****   size_t idx = 0U;
 556:..\..\..\lvgl\version_6.1.2\lvgl\src\lv_misc/lv_printf.c **** 
 557:..\..\..\lvgl\version_6.1.2\lvgl\src\lv_misc/lv_printf.c ****   if (!buffer) {
 2565              		.loc 1 557 0
 2566 0004 8B4E     		ldr	r6, .L830
 2567 0006 8C4D     		ldr	r5, .L830+4
 552:..\..\..\lvgl\version_6.1.2\lvgl\src\lv_misc/lv_printf.c **** {
 2568              		.loc 1 552 0
 2569 0008 9DB0     		sub	sp, sp, #116
 2570              		.cfi_def_cfa_offset 152
 552:..\..\..\lvgl\version_6.1.2\lvgl\src\lv_misc/lv_printf.c **** {
 2571              		.loc 1 552 0
ARM GAS  C:\Users\pearlstl\AppData\Local\Temp\ccbpFzqf.s 			page 61


 2572 000a 1446     		mov	r4, r2
 2573 000c 0C93     		str	r3, [sp, #48]
 2574              	.LVL377:
 2575              		.loc 1 557 0
 2576 000e 3346     		mov	r3, r6
 2577              	.LVL378:
 2578 0010 0028     		cmp	r0, #0
 2579 0012 18BF     		it	ne
 2580 0014 2B46     		movne	r3, r5
 2581 0016 0893     		str	r3, [sp, #32]
 2582              	.LBB237:
 558:..\..\..\lvgl\version_6.1.2\lvgl\src\lv_misc/lv_printf.c ****     // use null output function
 559:..\..\..\lvgl\version_6.1.2\lvgl\src\lv_misc/lv_printf.c ****     out = _out_null;
 560:..\..\..\lvgl\version_6.1.2\lvgl\src\lv_misc/lv_printf.c ****   }
 561:..\..\..\lvgl\version_6.1.2\lvgl\src\lv_misc/lv_printf.c **** 
 562:..\..\..\lvgl\version_6.1.2\lvgl\src\lv_misc/lv_printf.c ****   while (*format)
 563:..\..\..\lvgl\version_6.1.2\lvgl\src\lv_misc/lv_printf.c ****   {
 564:..\..\..\lvgl\version_6.1.2\lvgl\src\lv_misc/lv_printf.c ****     // format specifier?  %[flags][width][.precision][length]
 565:..\..\..\lvgl\version_6.1.2\lvgl\src\lv_misc/lv_printf.c ****     if (*format != '%') {
 566:..\..\..\lvgl\version_6.1.2\lvgl\src\lv_misc/lv_printf.c ****       // no
 567:..\..\..\lvgl\version_6.1.2\lvgl\src\lv_misc/lv_printf.c ****       out(*format, buffer, idx++, maxlen);
 568:..\..\..\lvgl\version_6.1.2\lvgl\src\lv_misc/lv_printf.c ****       format++;
 569:..\..\..\lvgl\version_6.1.2\lvgl\src\lv_misc/lv_printf.c ****       continue;
 570:..\..\..\lvgl\version_6.1.2\lvgl\src\lv_misc/lv_printf.c ****     }
 571:..\..\..\lvgl\version_6.1.2\lvgl\src\lv_misc/lv_printf.c ****     else {
 572:..\..\..\lvgl\version_6.1.2\lvgl\src\lv_misc/lv_printf.c ****       // yes, evaluate it
 573:..\..\..\lvgl\version_6.1.2\lvgl\src\lv_misc/lv_printf.c ****       format++;
 574:..\..\..\lvgl\version_6.1.2\lvgl\src\lv_misc/lv_printf.c ****     }
 575:..\..\..\lvgl\version_6.1.2\lvgl\src\lv_misc/lv_printf.c **** 
 576:..\..\..\lvgl\version_6.1.2\lvgl\src\lv_misc/lv_printf.c ****     // evaluate flags
 577:..\..\..\lvgl\version_6.1.2\lvgl\src\lv_misc/lv_printf.c ****     flags = 0U;
 578:..\..\..\lvgl\version_6.1.2\lvgl\src\lv_misc/lv_printf.c ****     do {
 579:..\..\..\lvgl\version_6.1.2\lvgl\src\lv_misc/lv_printf.c ****       switch (*format) {
 580:..\..\..\lvgl\version_6.1.2\lvgl\src\lv_misc/lv_printf.c ****         case '0': flags |= FLAGS_ZEROPAD; format++; n = 1U; break;
 581:..\..\..\lvgl\version_6.1.2\lvgl\src\lv_misc/lv_printf.c ****         case '-': flags |= FLAGS_LEFT;    format++; n = 1U; break;
 582:..\..\..\lvgl\version_6.1.2\lvgl\src\lv_misc/lv_printf.c ****         case '+': flags |= FLAGS_PLUS;    format++; n = 1U; break;
 583:..\..\..\lvgl\version_6.1.2\lvgl\src\lv_misc/lv_printf.c ****         case ' ': flags |= FLAGS_SPACE;   format++; n = 1U; break;
 584:..\..\..\lvgl\version_6.1.2\lvgl\src\lv_misc/lv_printf.c ****         case '#': flags |= FLAGS_HASH;    format++; n = 1U; break;
 585:..\..\..\lvgl\version_6.1.2\lvgl\src\lv_misc/lv_printf.c ****         default :                                   n = 0U; break;
 586:..\..\..\lvgl\version_6.1.2\lvgl\src\lv_misc/lv_printf.c ****       }
 587:..\..\..\lvgl\version_6.1.2\lvgl\src\lv_misc/lv_printf.c ****     } while (n);
 588:..\..\..\lvgl\version_6.1.2\lvgl\src\lv_misc/lv_printf.c **** 
 589:..\..\..\lvgl\version_6.1.2\lvgl\src\lv_misc/lv_printf.c ****     // evaluate width field
 590:..\..\..\lvgl\version_6.1.2\lvgl\src\lv_misc/lv_printf.c ****     width = 0U;
 591:..\..\..\lvgl\version_6.1.2\lvgl\src\lv_misc/lv_printf.c ****     if (_is_digit(*format)) {
 592:..\..\..\lvgl\version_6.1.2\lvgl\src\lv_misc/lv_printf.c ****       width = _atoi(&format);
 593:..\..\..\lvgl\version_6.1.2\lvgl\src\lv_misc/lv_printf.c ****     }
 594:..\..\..\lvgl\version_6.1.2\lvgl\src\lv_misc/lv_printf.c ****     else if (*format == '*') {
 595:..\..\..\lvgl\version_6.1.2\lvgl\src\lv_misc/lv_printf.c ****       const int w = va_arg(va, int);
 596:..\..\..\lvgl\version_6.1.2\lvgl\src\lv_misc/lv_printf.c ****       if (w < 0) {
 597:..\..\..\lvgl\version_6.1.2\lvgl\src\lv_misc/lv_printf.c ****         flags |= FLAGS_LEFT;    // reverse padding
 598:..\..\..\lvgl\version_6.1.2\lvgl\src\lv_misc/lv_printf.c ****         width = (unsigned int)-w;
 599:..\..\..\lvgl\version_6.1.2\lvgl\src\lv_misc/lv_printf.c ****       }
 600:..\..\..\lvgl\version_6.1.2\lvgl\src\lv_misc/lv_printf.c ****       else {
 601:..\..\..\lvgl\version_6.1.2\lvgl\src\lv_misc/lv_printf.c ****         width = (unsigned int)w;
 602:..\..\..\lvgl\version_6.1.2\lvgl\src\lv_misc/lv_printf.c ****       }
 603:..\..\..\lvgl\version_6.1.2\lvgl\src\lv_misc/lv_printf.c ****       format++;
ARM GAS  C:\Users\pearlstl\AppData\Local\Temp\ccbpFzqf.s 			page 62


 604:..\..\..\lvgl\version_6.1.2\lvgl\src\lv_misc/lv_printf.c ****     }
 605:..\..\..\lvgl\version_6.1.2\lvgl\src\lv_misc/lv_printf.c **** 
 606:..\..\..\lvgl\version_6.1.2\lvgl\src\lv_misc/lv_printf.c ****     // evaluate precision field
 607:..\..\..\lvgl\version_6.1.2\lvgl\src\lv_misc/lv_printf.c ****     precision = 0U;
 608:..\..\..\lvgl\version_6.1.2\lvgl\src\lv_misc/lv_printf.c ****     if (*format == '.') {
 609:..\..\..\lvgl\version_6.1.2\lvgl\src\lv_misc/lv_printf.c ****       flags |= FLAGS_PRECISION;
 610:..\..\..\lvgl\version_6.1.2\lvgl\src\lv_misc/lv_printf.c ****       format++;
 611:..\..\..\lvgl\version_6.1.2\lvgl\src\lv_misc/lv_printf.c ****       if (_is_digit(*format)) {
 612:..\..\..\lvgl\version_6.1.2\lvgl\src\lv_misc/lv_printf.c ****         precision = _atoi(&format);
 613:..\..\..\lvgl\version_6.1.2\lvgl\src\lv_misc/lv_printf.c ****       }
 614:..\..\..\lvgl\version_6.1.2\lvgl\src\lv_misc/lv_printf.c ****       else if (*format == '*') {
 615:..\..\..\lvgl\version_6.1.2\lvgl\src\lv_misc/lv_printf.c ****         const int prec = (int)va_arg(va, int);
 616:..\..\..\lvgl\version_6.1.2\lvgl\src\lv_misc/lv_printf.c ****         precision = prec > 0 ? (unsigned int)prec : 0U;
 617:..\..\..\lvgl\version_6.1.2\lvgl\src\lv_misc/lv_printf.c ****         format++;
 618:..\..\..\lvgl\version_6.1.2\lvgl\src\lv_misc/lv_printf.c ****       }
 619:..\..\..\lvgl\version_6.1.2\lvgl\src\lv_misc/lv_printf.c ****     }
 620:..\..\..\lvgl\version_6.1.2\lvgl\src\lv_misc/lv_printf.c **** 
 621:..\..\..\lvgl\version_6.1.2\lvgl\src\lv_misc/lv_printf.c ****     // evaluate length field
 622:..\..\..\lvgl\version_6.1.2\lvgl\src\lv_misc/lv_printf.c ****     switch (*format) {
 623:..\..\..\lvgl\version_6.1.2\lvgl\src\lv_misc/lv_printf.c ****       case 'l' :
 624:..\..\..\lvgl\version_6.1.2\lvgl\src\lv_misc/lv_printf.c ****         flags |= FLAGS_LONG;
 625:..\..\..\lvgl\version_6.1.2\lvgl\src\lv_misc/lv_printf.c ****         format++;
 626:..\..\..\lvgl\version_6.1.2\lvgl\src\lv_misc/lv_printf.c ****         if (*format == 'l') {
 627:..\..\..\lvgl\version_6.1.2\lvgl\src\lv_misc/lv_printf.c ****           flags |= FLAGS_LONG_LONG;
 628:..\..\..\lvgl\version_6.1.2\lvgl\src\lv_misc/lv_printf.c ****           format++;
 629:..\..\..\lvgl\version_6.1.2\lvgl\src\lv_misc/lv_printf.c ****         }
 630:..\..\..\lvgl\version_6.1.2\lvgl\src\lv_misc/lv_printf.c ****         break;
 631:..\..\..\lvgl\version_6.1.2\lvgl\src\lv_misc/lv_printf.c ****       case 'h' :
 632:..\..\..\lvgl\version_6.1.2\lvgl\src\lv_misc/lv_printf.c ****         flags |= FLAGS_SHORT;
 633:..\..\..\lvgl\version_6.1.2\lvgl\src\lv_misc/lv_printf.c ****         format++;
 634:..\..\..\lvgl\version_6.1.2\lvgl\src\lv_misc/lv_printf.c ****         if (*format == 'h') {
 635:..\..\..\lvgl\version_6.1.2\lvgl\src\lv_misc/lv_printf.c ****           flags |= FLAGS_CHAR;
 636:..\..\..\lvgl\version_6.1.2\lvgl\src\lv_misc/lv_printf.c ****           format++;
 637:..\..\..\lvgl\version_6.1.2\lvgl\src\lv_misc/lv_printf.c ****         }
 638:..\..\..\lvgl\version_6.1.2\lvgl\src\lv_misc/lv_printf.c ****         break;
 639:..\..\..\lvgl\version_6.1.2\lvgl\src\lv_misc/lv_printf.c **** #if defined(PRINTF_SUPPORT_PTRDIFF_T)
 640:..\..\..\lvgl\version_6.1.2\lvgl\src\lv_misc/lv_printf.c ****       case 't' :
 641:..\..\..\lvgl\version_6.1.2\lvgl\src\lv_misc/lv_printf.c ****         flags |= (sizeof(ptrdiff_t) == sizeof(long) ? FLAGS_LONG : FLAGS_LONG_LONG);
 642:..\..\..\lvgl\version_6.1.2\lvgl\src\lv_misc/lv_printf.c ****         format++;
 643:..\..\..\lvgl\version_6.1.2\lvgl\src\lv_misc/lv_printf.c ****         break;
 644:..\..\..\lvgl\version_6.1.2\lvgl\src\lv_misc/lv_printf.c **** #endif
 645:..\..\..\lvgl\version_6.1.2\lvgl\src\lv_misc/lv_printf.c ****       case 'j' :
 646:..\..\..\lvgl\version_6.1.2\lvgl\src\lv_misc/lv_printf.c ****         flags |= (sizeof(intmax_t) == sizeof(long) ? FLAGS_LONG : FLAGS_LONG_LONG);
 647:..\..\..\lvgl\version_6.1.2\lvgl\src\lv_misc/lv_printf.c ****         format++;
 648:..\..\..\lvgl\version_6.1.2\lvgl\src\lv_misc/lv_printf.c ****         break;
 649:..\..\..\lvgl\version_6.1.2\lvgl\src\lv_misc/lv_printf.c ****       case 'z' :
 650:..\..\..\lvgl\version_6.1.2\lvgl\src\lv_misc/lv_printf.c ****         flags |= (sizeof(size_t) == sizeof(long) ? FLAGS_LONG : FLAGS_LONG_LONG);
 651:..\..\..\lvgl\version_6.1.2\lvgl\src\lv_misc/lv_printf.c ****         format++;
 652:..\..\..\lvgl\version_6.1.2\lvgl\src\lv_misc/lv_printf.c ****         break;
 653:..\..\..\lvgl\version_6.1.2\lvgl\src\lv_misc/lv_printf.c ****       default :
 654:..\..\..\lvgl\version_6.1.2\lvgl\src\lv_misc/lv_printf.c ****         break;
 655:..\..\..\lvgl\version_6.1.2\lvgl\src\lv_misc/lv_printf.c ****     }
 656:..\..\..\lvgl\version_6.1.2\lvgl\src\lv_misc/lv_printf.c **** 
 657:..\..\..\lvgl\version_6.1.2\lvgl\src\lv_misc/lv_printf.c ****     // evaluate specifier
 658:..\..\..\lvgl\version_6.1.2\lvgl\src\lv_misc/lv_printf.c ****     switch (*format) {
 659:..\..\..\lvgl\version_6.1.2\lvgl\src\lv_misc/lv_printf.c ****       case 'd' :
 660:..\..\..\lvgl\version_6.1.2\lvgl\src\lv_misc/lv_printf.c ****       case 'i' :
ARM GAS  C:\Users\pearlstl\AppData\Local\Temp\ccbpFzqf.s 			page 63


 661:..\..\..\lvgl\version_6.1.2\lvgl\src\lv_misc/lv_printf.c ****       case 'u' :
 662:..\..\..\lvgl\version_6.1.2\lvgl\src\lv_misc/lv_printf.c ****       case 'x' :
 663:..\..\..\lvgl\version_6.1.2\lvgl\src\lv_misc/lv_printf.c ****       case 'X' :
 664:..\..\..\lvgl\version_6.1.2\lvgl\src\lv_misc/lv_printf.c ****       case 'o' :
 665:..\..\..\lvgl\version_6.1.2\lvgl\src\lv_misc/lv_printf.c ****       case 'b' : {
 666:..\..\..\lvgl\version_6.1.2\lvgl\src\lv_misc/lv_printf.c ****         // set the base
 667:..\..\..\lvgl\version_6.1.2\lvgl\src\lv_misc/lv_printf.c ****         unsigned int base;
 668:..\..\..\lvgl\version_6.1.2\lvgl\src\lv_misc/lv_printf.c ****         if (*format == 'x' || *format == 'X') {
 669:..\..\..\lvgl\version_6.1.2\lvgl\src\lv_misc/lv_printf.c ****           base = 16U;
 670:..\..\..\lvgl\version_6.1.2\lvgl\src\lv_misc/lv_printf.c ****         }
 671:..\..\..\lvgl\version_6.1.2\lvgl\src\lv_misc/lv_printf.c ****         else if (*format == 'o') {
 672:..\..\..\lvgl\version_6.1.2\lvgl\src\lv_misc/lv_printf.c ****           base =  8U;
 673:..\..\..\lvgl\version_6.1.2\lvgl\src\lv_misc/lv_printf.c ****         }
 674:..\..\..\lvgl\version_6.1.2\lvgl\src\lv_misc/lv_printf.c ****         else if (*format == 'b') {
 675:..\..\..\lvgl\version_6.1.2\lvgl\src\lv_misc/lv_printf.c ****           base =  2U;
 676:..\..\..\lvgl\version_6.1.2\lvgl\src\lv_misc/lv_printf.c ****         }
 677:..\..\..\lvgl\version_6.1.2\lvgl\src\lv_misc/lv_printf.c ****         else {
 678:..\..\..\lvgl\version_6.1.2\lvgl\src\lv_misc/lv_printf.c ****           base = 10U;
 679:..\..\..\lvgl\version_6.1.2\lvgl\src\lv_misc/lv_printf.c ****           flags &= ~FLAGS_HASH;   // no hash for dec format
 680:..\..\..\lvgl\version_6.1.2\lvgl\src\lv_misc/lv_printf.c ****         }
 681:..\..\..\lvgl\version_6.1.2\lvgl\src\lv_misc/lv_printf.c ****         // uppercase
 682:..\..\..\lvgl\version_6.1.2\lvgl\src\lv_misc/lv_printf.c ****         if (*format == 'X') {
 683:..\..\..\lvgl\version_6.1.2\lvgl\src\lv_misc/lv_printf.c ****           flags |= FLAGS_UPPERCASE;
 684:..\..\..\lvgl\version_6.1.2\lvgl\src\lv_misc/lv_printf.c ****         }
 685:..\..\..\lvgl\version_6.1.2\lvgl\src\lv_misc/lv_printf.c **** 
 686:..\..\..\lvgl\version_6.1.2\lvgl\src\lv_misc/lv_printf.c ****         // no plus or space flag for u, x, X, o, b
 687:..\..\..\lvgl\version_6.1.2\lvgl\src\lv_misc/lv_printf.c ****         if ((*format != 'i') && (*format != 'd')) {
 688:..\..\..\lvgl\version_6.1.2\lvgl\src\lv_misc/lv_printf.c ****           flags &= ~(FLAGS_PLUS | FLAGS_SPACE);
 689:..\..\..\lvgl\version_6.1.2\lvgl\src\lv_misc/lv_printf.c ****         }
 690:..\..\..\lvgl\version_6.1.2\lvgl\src\lv_misc/lv_printf.c **** 
 691:..\..\..\lvgl\version_6.1.2\lvgl\src\lv_misc/lv_printf.c ****         // ignore '0' flag when precision is given
 692:..\..\..\lvgl\version_6.1.2\lvgl\src\lv_misc/lv_printf.c ****         if (flags & FLAGS_PRECISION) {
 693:..\..\..\lvgl\version_6.1.2\lvgl\src\lv_misc/lv_printf.c ****           flags &= ~FLAGS_ZEROPAD;
 694:..\..\..\lvgl\version_6.1.2\lvgl\src\lv_misc/lv_printf.c ****         }
 695:..\..\..\lvgl\version_6.1.2\lvgl\src\lv_misc/lv_printf.c **** 
 696:..\..\..\lvgl\version_6.1.2\lvgl\src\lv_misc/lv_printf.c ****         // convert the integer
 697:..\..\..\lvgl\version_6.1.2\lvgl\src\lv_misc/lv_printf.c ****         if ((*format == 'i') || (*format == 'd')) {
 698:..\..\..\lvgl\version_6.1.2\lvgl\src\lv_misc/lv_printf.c ****           // signed
 699:..\..\..\lvgl\version_6.1.2\lvgl\src\lv_misc/lv_printf.c ****           if (flags & FLAGS_LONG_LONG) {
 700:..\..\..\lvgl\version_6.1.2\lvgl\src\lv_misc/lv_printf.c **** #if defined(PRINTF_SUPPORT_LONG_LONG)
 701:..\..\..\lvgl\version_6.1.2\lvgl\src\lv_misc/lv_printf.c ****             const long long value = va_arg(va, long long);
 702:..\..\..\lvgl\version_6.1.2\lvgl\src\lv_misc/lv_printf.c ****             idx = _ntoa_long_long(out, buffer, idx, maxlen, (unsigned long long)(value > 0 ? value 
 703:..\..\..\lvgl\version_6.1.2\lvgl\src\lv_misc/lv_printf.c **** #endif
 704:..\..\..\lvgl\version_6.1.2\lvgl\src\lv_misc/lv_printf.c ****           }
 705:..\..\..\lvgl\version_6.1.2\lvgl\src\lv_misc/lv_printf.c ****           else if (flags & FLAGS_LONG) {
 706:..\..\..\lvgl\version_6.1.2\lvgl\src\lv_misc/lv_printf.c ****             const long value = va_arg(va, long);
 707:..\..\..\lvgl\version_6.1.2\lvgl\src\lv_misc/lv_printf.c ****             idx = _ntoa_long(out, buffer, idx, maxlen, (unsigned long)(value > 0 ? value : 0 - valu
 708:..\..\..\lvgl\version_6.1.2\lvgl\src\lv_misc/lv_printf.c ****           }
 709:..\..\..\lvgl\version_6.1.2\lvgl\src\lv_misc/lv_printf.c ****           else {
 710:..\..\..\lvgl\version_6.1.2\lvgl\src\lv_misc/lv_printf.c ****             const int value = (flags & FLAGS_CHAR) ? (char)va_arg(va, int) : (flags & FLAGS_SHORT) 
 711:..\..\..\lvgl\version_6.1.2\lvgl\src\lv_misc/lv_printf.c ****             idx = _ntoa_long(out, buffer, idx, maxlen, (unsigned int)(value > 0 ? value : 0 - value
 712:..\..\..\lvgl\version_6.1.2\lvgl\src\lv_misc/lv_printf.c ****           }
 713:..\..\..\lvgl\version_6.1.2\lvgl\src\lv_misc/lv_printf.c ****         }
 714:..\..\..\lvgl\version_6.1.2\lvgl\src\lv_misc/lv_printf.c ****         else {
 715:..\..\..\lvgl\version_6.1.2\lvgl\src\lv_misc/lv_printf.c ****           // unsigned
 716:..\..\..\lvgl\version_6.1.2\lvgl\src\lv_misc/lv_printf.c ****           if (flags & FLAGS_LONG_LONG) {
 717:..\..\..\lvgl\version_6.1.2\lvgl\src\lv_misc/lv_printf.c **** #if defined(PRINTF_SUPPORT_LONG_LONG)
ARM GAS  C:\Users\pearlstl\AppData\Local\Temp\ccbpFzqf.s 			page 64


 718:..\..\..\lvgl\version_6.1.2\lvgl\src\lv_misc/lv_printf.c ****             idx = _ntoa_long_long(out, buffer, idx, maxlen, va_arg(va, unsigned long long), false, 
 719:..\..\..\lvgl\version_6.1.2\lvgl\src\lv_misc/lv_printf.c **** #endif
 720:..\..\..\lvgl\version_6.1.2\lvgl\src\lv_misc/lv_printf.c ****           }
 721:..\..\..\lvgl\version_6.1.2\lvgl\src\lv_misc/lv_printf.c ****           else if (flags & FLAGS_LONG) {
 722:..\..\..\lvgl\version_6.1.2\lvgl\src\lv_misc/lv_printf.c ****             idx = _ntoa_long(out, buffer, idx, maxlen, va_arg(va, unsigned long), false, base, prec
 723:..\..\..\lvgl\version_6.1.2\lvgl\src\lv_misc/lv_printf.c ****           }
 724:..\..\..\lvgl\version_6.1.2\lvgl\src\lv_misc/lv_printf.c ****           else {
 725:..\..\..\lvgl\version_6.1.2\lvgl\src\lv_misc/lv_printf.c ****             const unsigned int value = (flags & FLAGS_CHAR) ? (unsigned char)va_arg(va, unsigned in
 726:..\..\..\lvgl\version_6.1.2\lvgl\src\lv_misc/lv_printf.c ****             idx = _ntoa_long(out, buffer, idx, maxlen, value, false, base, precision, width, flags)
 727:..\..\..\lvgl\version_6.1.2\lvgl\src\lv_misc/lv_printf.c ****           }
 728:..\..\..\lvgl\version_6.1.2\lvgl\src\lv_misc/lv_printf.c ****         }
 729:..\..\..\lvgl\version_6.1.2\lvgl\src\lv_misc/lv_printf.c ****         format++;
 730:..\..\..\lvgl\version_6.1.2\lvgl\src\lv_misc/lv_printf.c ****         break;
 731:..\..\..\lvgl\version_6.1.2\lvgl\src\lv_misc/lv_printf.c ****       }
 732:..\..\..\lvgl\version_6.1.2\lvgl\src\lv_misc/lv_printf.c **** #if defined(PRINTF_SUPPORT_FLOAT)
 733:..\..\..\lvgl\version_6.1.2\lvgl\src\lv_misc/lv_printf.c ****       case 'f' :
 734:..\..\..\lvgl\version_6.1.2\lvgl\src\lv_misc/lv_printf.c ****       case 'F' :
 735:..\..\..\lvgl\version_6.1.2\lvgl\src\lv_misc/lv_printf.c ****         if (*format == 'F') flags |= FLAGS_UPPERCASE;
 736:..\..\..\lvgl\version_6.1.2\lvgl\src\lv_misc/lv_printf.c ****         idx = _ftoa(out, buffer, idx, maxlen, va_arg(va, double), precision, width, flags);
 737:..\..\..\lvgl\version_6.1.2\lvgl\src\lv_misc/lv_printf.c ****         format++;
 738:..\..\..\lvgl\version_6.1.2\lvgl\src\lv_misc/lv_printf.c ****         break;
 739:..\..\..\lvgl\version_6.1.2\lvgl\src\lv_misc/lv_printf.c **** #if defined(PRINTF_SUPPORT_EXPONENTIAL)
 740:..\..\..\lvgl\version_6.1.2\lvgl\src\lv_misc/lv_printf.c ****       case 'e':
 741:..\..\..\lvgl\version_6.1.2\lvgl\src\lv_misc/lv_printf.c ****       case 'E':
 742:..\..\..\lvgl\version_6.1.2\lvgl\src\lv_misc/lv_printf.c ****       case 'g':
 743:..\..\..\lvgl\version_6.1.2\lvgl\src\lv_misc/lv_printf.c ****       case 'G':
 744:..\..\..\lvgl\version_6.1.2\lvgl\src\lv_misc/lv_printf.c ****         if ((*format == 'g')||(*format == 'G')) flags |= FLAGS_ADAPT_EXP;
 745:..\..\..\lvgl\version_6.1.2\lvgl\src\lv_misc/lv_printf.c ****         if ((*format == 'E')||(*format == 'G')) flags |= FLAGS_UPPERCASE;
 746:..\..\..\lvgl\version_6.1.2\lvgl\src\lv_misc/lv_printf.c ****         idx = _etoa(out, buffer, idx, maxlen, va_arg(va, double), precision, width, flags);
 747:..\..\..\lvgl\version_6.1.2\lvgl\src\lv_misc/lv_printf.c ****         format++;
 748:..\..\..\lvgl\version_6.1.2\lvgl\src\lv_misc/lv_printf.c ****         break;
 749:..\..\..\lvgl\version_6.1.2\lvgl\src\lv_misc/lv_printf.c **** #endif  // PRINTF_SUPPORT_EXPONENTIAL
 750:..\..\..\lvgl\version_6.1.2\lvgl\src\lv_misc/lv_printf.c **** #endif  // PRINTF_SUPPORT_FLOAT
 751:..\..\..\lvgl\version_6.1.2\lvgl\src\lv_misc/lv_printf.c ****       case 'c' : {
 752:..\..\..\lvgl\version_6.1.2\lvgl\src\lv_misc/lv_printf.c ****         unsigned int l = 1U;
 753:..\..\..\lvgl\version_6.1.2\lvgl\src\lv_misc/lv_printf.c ****         // pre padding
 754:..\..\..\lvgl\version_6.1.2\lvgl\src\lv_misc/lv_printf.c ****         if (!(flags & FLAGS_LEFT)) {
 755:..\..\..\lvgl\version_6.1.2\lvgl\src\lv_misc/lv_printf.c ****           while (l++ < width) {
 756:..\..\..\lvgl\version_6.1.2\lvgl\src\lv_misc/lv_printf.c ****             out(' ', buffer, idx++, maxlen);
 757:..\..\..\lvgl\version_6.1.2\lvgl\src\lv_misc/lv_printf.c ****           }
 758:..\..\..\lvgl\version_6.1.2\lvgl\src\lv_misc/lv_printf.c ****         }
 759:..\..\..\lvgl\version_6.1.2\lvgl\src\lv_misc/lv_printf.c ****         // char output
 760:..\..\..\lvgl\version_6.1.2\lvgl\src\lv_misc/lv_printf.c ****         out((char)va_arg(va, int), buffer, idx++, maxlen);
 761:..\..\..\lvgl\version_6.1.2\lvgl\src\lv_misc/lv_printf.c ****         // post padding
 762:..\..\..\lvgl\version_6.1.2\lvgl\src\lv_misc/lv_printf.c ****         if (flags & FLAGS_LEFT) {
 763:..\..\..\lvgl\version_6.1.2\lvgl\src\lv_misc/lv_printf.c ****           while (l++ < width) {
 764:..\..\..\lvgl\version_6.1.2\lvgl\src\lv_misc/lv_printf.c ****             out(' ', buffer, idx++, maxlen);
 765:..\..\..\lvgl\version_6.1.2\lvgl\src\lv_misc/lv_printf.c ****           }
 766:..\..\..\lvgl\version_6.1.2\lvgl\src\lv_misc/lv_printf.c ****         }
 767:..\..\..\lvgl\version_6.1.2\lvgl\src\lv_misc/lv_printf.c ****         format++;
 768:..\..\..\lvgl\version_6.1.2\lvgl\src\lv_misc/lv_printf.c ****         break;
 769:..\..\..\lvgl\version_6.1.2\lvgl\src\lv_misc/lv_printf.c ****       }
 770:..\..\..\lvgl\version_6.1.2\lvgl\src\lv_misc/lv_printf.c **** 
 771:..\..\..\lvgl\version_6.1.2\lvgl\src\lv_misc/lv_printf.c ****       case 's' : {
 772:..\..\..\lvgl\version_6.1.2\lvgl\src\lv_misc/lv_printf.c ****         const char* p = va_arg(va, char*);
 2583              		.loc 1 772 0
 2584 0018 4FF0000A 		mov	r10, #0
ARM GAS  C:\Users\pearlstl\AppData\Local\Temp\ccbpFzqf.s 			page 65


 2585 001c 0990     		str	r0, [sp, #36]
 2586 001e 8B46     		mov	fp, r1
 2587              	.LVL379:
 2588              	.L388:
 2589              	.LBE237:
 562:..\..\..\lvgl\version_6.1.2\lvgl\src\lv_misc/lv_printf.c ****   {
 2590              		.loc 1 562 0
 2591 0020 2078     		ldrb	r0, [r4]	@ zero_extendqisi2
 2592 0022 60B1     		cbz	r0, .L793
 2593              	.L571:
 565:..\..\..\lvgl\version_6.1.2\lvgl\src\lv_misc/lv_printf.c ****       // no
 2594              		.loc 1 565 0
 2595 0024 2528     		cmp	r0, #37
 2596 0026 1AD0     		beq	.L389
 568:..\..\..\lvgl\version_6.1.2\lvgl\src\lv_misc/lv_printf.c ****       continue;
 2597              		.loc 1 568 0
 2598 0028 0134     		adds	r4, r4, #1
 2599              	.LVL380:
 567:..\..\..\lvgl\version_6.1.2\lvgl\src\lv_misc/lv_printf.c ****       format++;
 2600              		.loc 1 567 0
 2601 002a 5246     		mov	r2, r10
 2602 002c 5B46     		mov	r3, fp
 2603 002e 0999     		ldr	r1, [sp, #36]
 2604 0030 089D     		ldr	r5, [sp, #32]
 2605 0032 A847     		blx	r5
 2606              	.LVL381:
 562:..\..\..\lvgl\version_6.1.2\lvgl\src\lv_misc/lv_printf.c ****   {
 2607              		.loc 1 562 0
 2608 0034 2078     		ldrb	r0, [r4]	@ zero_extendqisi2
 567:..\..\..\lvgl\version_6.1.2\lvgl\src\lv_misc/lv_printf.c ****       format++;
 2609              		.loc 1 567 0
 2610 0036 0AF1010A 		add	r10, r10, #1
 2611              	.LVL382:
 562:..\..\..\lvgl\version_6.1.2\lvgl\src\lv_misc/lv_printf.c ****   {
 2612              		.loc 1 562 0
 2613 003a 0028     		cmp	r0, #0
 2614 003c F2D1     		bne	.L571
 2615              	.LVL383:
 2616              	.L793:
 2617 003e DDF82480 		ldr	r8, [sp, #36]
 773:..\..\..\lvgl\version_6.1.2\lvgl\src\lv_misc/lv_printf.c ****         unsigned int l = _strnlen_s(p, precision ? precision : (size_t)-1);
 774:..\..\..\lvgl\version_6.1.2\lvgl\src\lv_misc/lv_printf.c ****         // pre padding
 775:..\..\..\lvgl\version_6.1.2\lvgl\src\lv_misc/lv_printf.c ****         if (flags & FLAGS_PRECISION) {
 776:..\..\..\lvgl\version_6.1.2\lvgl\src\lv_misc/lv_printf.c ****           l = (l < precision ? l : precision);
 777:..\..\..\lvgl\version_6.1.2\lvgl\src\lv_misc/lv_printf.c ****         }
 778:..\..\..\lvgl\version_6.1.2\lvgl\src\lv_misc/lv_printf.c ****         if (!(flags & FLAGS_LEFT)) {
 779:..\..\..\lvgl\version_6.1.2\lvgl\src\lv_misc/lv_printf.c ****           while (l++ < width) {
 780:..\..\..\lvgl\version_6.1.2\lvgl\src\lv_misc/lv_printf.c ****             out(' ', buffer, idx++, maxlen);
 781:..\..\..\lvgl\version_6.1.2\lvgl\src\lv_misc/lv_printf.c ****           }
 782:..\..\..\lvgl\version_6.1.2\lvgl\src\lv_misc/lv_printf.c ****         }
 783:..\..\..\lvgl\version_6.1.2\lvgl\src\lv_misc/lv_printf.c ****         // string output
 784:..\..\..\lvgl\version_6.1.2\lvgl\src\lv_misc/lv_printf.c ****         while ((*p != 0) && (!(flags & FLAGS_PRECISION) || precision--)) {
 785:..\..\..\lvgl\version_6.1.2\lvgl\src\lv_misc/lv_printf.c ****           out(*(p++), buffer, idx++, maxlen);
 786:..\..\..\lvgl\version_6.1.2\lvgl\src\lv_misc/lv_printf.c ****         }
 787:..\..\..\lvgl\version_6.1.2\lvgl\src\lv_misc/lv_printf.c ****         // post padding
 788:..\..\..\lvgl\version_6.1.2\lvgl\src\lv_misc/lv_printf.c ****         if (flags & FLAGS_LEFT) {
 789:..\..\..\lvgl\version_6.1.2\lvgl\src\lv_misc/lv_printf.c ****           while (l++ < width) {
ARM GAS  C:\Users\pearlstl\AppData\Local\Temp\ccbpFzqf.s 			page 66


 790:..\..\..\lvgl\version_6.1.2\lvgl\src\lv_misc/lv_printf.c ****             out(' ', buffer, idx++, maxlen);
 791:..\..\..\lvgl\version_6.1.2\lvgl\src\lv_misc/lv_printf.c ****           }
 792:..\..\..\lvgl\version_6.1.2\lvgl\src\lv_misc/lv_printf.c ****         }
 793:..\..\..\lvgl\version_6.1.2\lvgl\src\lv_misc/lv_printf.c ****         format++;
 794:..\..\..\lvgl\version_6.1.2\lvgl\src\lv_misc/lv_printf.c ****         break;
 795:..\..\..\lvgl\version_6.1.2\lvgl\src\lv_misc/lv_printf.c ****       }
 796:..\..\..\lvgl\version_6.1.2\lvgl\src\lv_misc/lv_printf.c **** 
 797:..\..\..\lvgl\version_6.1.2\lvgl\src\lv_misc/lv_printf.c ****       case 'p' : {
 798:..\..\..\lvgl\version_6.1.2\lvgl\src\lv_misc/lv_printf.c ****         width = sizeof(void*) * 2U;
 799:..\..\..\lvgl\version_6.1.2\lvgl\src\lv_misc/lv_printf.c ****         flags |= FLAGS_ZEROPAD | FLAGS_UPPERCASE;
 800:..\..\..\lvgl\version_6.1.2\lvgl\src\lv_misc/lv_printf.c **** #if defined(PRINTF_SUPPORT_LONG_LONG)
 801:..\..\..\lvgl\version_6.1.2\lvgl\src\lv_misc/lv_printf.c ****         const bool is_ll = sizeof(uintptr_t) == sizeof(long long);
 802:..\..\..\lvgl\version_6.1.2\lvgl\src\lv_misc/lv_printf.c ****         if (is_ll) {
 803:..\..\..\lvgl\version_6.1.2\lvgl\src\lv_misc/lv_printf.c ****           idx = _ntoa_long_long(out, buffer, idx, maxlen, (uintptr_t)va_arg(va, void*), false, 16U,
 804:..\..\..\lvgl\version_6.1.2\lvgl\src\lv_misc/lv_printf.c ****         }
 805:..\..\..\lvgl\version_6.1.2\lvgl\src\lv_misc/lv_printf.c ****         else {
 806:..\..\..\lvgl\version_6.1.2\lvgl\src\lv_misc/lv_printf.c **** #endif
 807:..\..\..\lvgl\version_6.1.2\lvgl\src\lv_misc/lv_printf.c ****           idx = _ntoa_long(out, buffer, idx, maxlen, (unsigned long)((uintptr_t)va_arg(va, void*)),
 808:..\..\..\lvgl\version_6.1.2\lvgl\src\lv_misc/lv_printf.c **** #if defined(PRINTF_SUPPORT_LONG_LONG)
 809:..\..\..\lvgl\version_6.1.2\lvgl\src\lv_misc/lv_printf.c ****         }
 810:..\..\..\lvgl\version_6.1.2\lvgl\src\lv_misc/lv_printf.c **** #endif
 811:..\..\..\lvgl\version_6.1.2\lvgl\src\lv_misc/lv_printf.c ****         format++;
 812:..\..\..\lvgl\version_6.1.2\lvgl\src\lv_misc/lv_printf.c ****         break;
 813:..\..\..\lvgl\version_6.1.2\lvgl\src\lv_misc/lv_printf.c ****       }
 814:..\..\..\lvgl\version_6.1.2\lvgl\src\lv_misc/lv_printf.c **** 
 815:..\..\..\lvgl\version_6.1.2\lvgl\src\lv_misc/lv_printf.c ****       case '%' :
 816:..\..\..\lvgl\version_6.1.2\lvgl\src\lv_misc/lv_printf.c ****         out('%', buffer, idx++, maxlen);
 817:..\..\..\lvgl\version_6.1.2\lvgl\src\lv_misc/lv_printf.c ****         format++;
 818:..\..\..\lvgl\version_6.1.2\lvgl\src\lv_misc/lv_printf.c ****         break;
 819:..\..\..\lvgl\version_6.1.2\lvgl\src\lv_misc/lv_printf.c **** 
 820:..\..\..\lvgl\version_6.1.2\lvgl\src\lv_misc/lv_printf.c ****       default :
 821:..\..\..\lvgl\version_6.1.2\lvgl\src\lv_misc/lv_printf.c ****         out(*format, buffer, idx++, maxlen);
 822:..\..\..\lvgl\version_6.1.2\lvgl\src\lv_misc/lv_printf.c ****         format++;
 823:..\..\..\lvgl\version_6.1.2\lvgl\src\lv_misc/lv_printf.c ****         break;
 824:..\..\..\lvgl\version_6.1.2\lvgl\src\lv_misc/lv_printf.c ****     }
 825:..\..\..\lvgl\version_6.1.2\lvgl\src\lv_misc/lv_printf.c ****   }
 826:..\..\..\lvgl\version_6.1.2\lvgl\src\lv_misc/lv_printf.c **** 
 827:..\..\..\lvgl\version_6.1.2\lvgl\src\lv_misc/lv_printf.c ****   // termination
 828:..\..\..\lvgl\version_6.1.2\lvgl\src\lv_misc/lv_printf.c ****   out((char)0, buffer, idx < maxlen ? idx : maxlen - 1U, maxlen);
 2618              		.loc 1 828 0
 2619 0042 089C     		ldr	r4, [sp, #32]
 2620              	.LVL384:
 2621 0044 DA45     		cmp	r10, fp
 2622 0046 2CBF     		ite	cs
 2623 0048 0BF1FF32 		addcs	r2, fp, #-1
 2624 004c 5246     		movcc	r2, r10
 2625 004e 5B46     		mov	r3, fp
 2626 0050 4146     		mov	r1, r8
 2627 0052 0020     		movs	r0, #0
 2628 0054 A047     		blx	r4
 2629              	.LVL385:
 829:..\..\..\lvgl\version_6.1.2\lvgl\src\lv_misc/lv_printf.c **** 
 830:..\..\..\lvgl\version_6.1.2\lvgl\src\lv_misc/lv_printf.c ****   // return written chars without terminating \0
 831:..\..\..\lvgl\version_6.1.2\lvgl\src\lv_misc/lv_printf.c ****   return (int)idx;
 832:..\..\..\lvgl\version_6.1.2\lvgl\src\lv_misc/lv_printf.c **** }
 2630              		.loc 1 832 0
 2631 0056 5046     		mov	r0, r10
ARM GAS  C:\Users\pearlstl\AppData\Local\Temp\ccbpFzqf.s 			page 67


 2632 0058 1DB0     		add	sp, sp, #116
 2633              		.cfi_remember_state
 2634              		.cfi_def_cfa_offset 36
 2635              		@ sp needed
 2636 005a BDE8F08F 		pop	{r4, r5, r6, r7, r8, r9, r10, fp, pc}
 2637              	.LVL386:
 2638              	.L389:
 2639              		.cfi_restore_state
 2640 005e 631C     		adds	r3, r4, #1
 2641              	.LVL387:
 577:..\..\..\lvgl\version_6.1.2\lvgl\src\lv_misc/lv_printf.c ****     do {
 2642              		.loc 1 577 0
 2643 0060 0025     		movs	r5, #0
 2644              	.LVL388:
 2645              	.L575:
 2646 0062 1C46     		mov	r4, r3
 2647              	.LVL389:
 579:..\..\..\lvgl\version_6.1.2\lvgl\src\lv_misc/lv_printf.c ****         case '0': flags |= FLAGS_ZEROPAD; format++; n = 1U; break;
 2648              		.loc 1 579 0
 2649 0064 13F8010B 		ldrb	r0, [r3], #1	@ zero_extendqisi2
 2650              	.LVL390:
 2651 0068 A0F12002 		sub	r2, r0, #32
 2652 006c 102A     		cmp	r2, #16
 2653 006e 19D8     		bhi	.L391
 2654 0070 DFE802F0 		tbb	[pc, r2]
 2655              	.L393:
 2656 0074 15       		.byte	(.L392-.L393)/2
 2657 0075 18       		.byte	(.L391-.L393)/2
 2658 0076 18       		.byte	(.L391-.L393)/2
 2659 0077 12       		.byte	(.L394-.L393)/2
 2660 0078 18       		.byte	(.L391-.L393)/2
 2661 0079 18       		.byte	(.L391-.L393)/2
 2662 007a 18       		.byte	(.L391-.L393)/2
 2663 007b 18       		.byte	(.L391-.L393)/2
 2664 007c 18       		.byte	(.L391-.L393)/2
 2665 007d 18       		.byte	(.L391-.L393)/2
 2666 007e 18       		.byte	(.L391-.L393)/2
 2667 007f 0F       		.byte	(.L395-.L393)/2
 2668 0080 18       		.byte	(.L391-.L393)/2
 2669 0081 0C       		.byte	(.L396-.L393)/2
 2670 0082 18       		.byte	(.L391-.L393)/2
 2671 0083 18       		.byte	(.L391-.L393)/2
 2672 0084 09       		.byte	(.L397-.L393)/2
 2673 0085 00       		.p2align 1
 2674              	.L397:
 580:..\..\..\lvgl\version_6.1.2\lvgl\src\lv_misc/lv_printf.c ****         case '-': flags |= FLAGS_LEFT;    format++; n = 1U; break;
 2675              		.loc 1 580 0
 2676 0086 45F00105 		orr	r5, r5, #1
 2677              	.LVL391:
 2678 008a EAE7     		b	.L575
 2679              	.LVL392:
 2680              	.L396:
 581:..\..\..\lvgl\version_6.1.2\lvgl\src\lv_misc/lv_printf.c ****         case '+': flags |= FLAGS_PLUS;    format++; n = 1U; break;
 2681              		.loc 1 581 0
 2682 008c 45F00205 		orr	r5, r5, #2
 2683              	.LVL393:
 2684 0090 E7E7     		b	.L575
ARM GAS  C:\Users\pearlstl\AppData\Local\Temp\ccbpFzqf.s 			page 68


 2685              	.LVL394:
 2686              	.L395:
 582:..\..\..\lvgl\version_6.1.2\lvgl\src\lv_misc/lv_printf.c ****         case ' ': flags |= FLAGS_SPACE;   format++; n = 1U; break;
 2687              		.loc 1 582 0
 2688 0092 45F00405 		orr	r5, r5, #4
 2689              	.LVL395:
 2690 0096 E4E7     		b	.L575
 2691              	.LVL396:
 2692              	.L394:
 584:..\..\..\lvgl\version_6.1.2\lvgl\src\lv_misc/lv_printf.c ****         default :                                   n = 0U; break;
 2693              		.loc 1 584 0
 2694 0098 45F01005 		orr	r5, r5, #16
 2695              	.LVL397:
 2696 009c E1E7     		b	.L575
 2697              	.LVL398:
 2698              	.L392:
 583:..\..\..\lvgl\version_6.1.2\lvgl\src\lv_misc/lv_printf.c ****         case '#': flags |= FLAGS_HASH;    format++; n = 1U; break;
 2699              		.loc 1 583 0
 2700 009e 45F00805 		orr	r5, r5, #8
 2701              	.LVL399:
 2702 00a2 DEE7     		b	.L575
 2703              	.LVL400:
 2704              	.L391:
 591:..\..\..\lvgl\version_6.1.2\lvgl\src\lv_misc/lv_printf.c ****       width = _atoi(&format);
 2705              		.loc 1 591 0
 2706 00a4 A0F13003 		sub	r3, r0, #48
 2707 00a8 092B     		cmp	r3, #9
 2708 00aa 40F21082 		bls	.L573
 594:..\..\..\lvgl\version_6.1.2\lvgl\src\lv_misc/lv_printf.c ****       const int w = va_arg(va, int);
 2709              		.loc 1 594 0
 2710 00ae 2A28     		cmp	r0, #42
 2711 00b0 00F03782 		beq	.L794
 590:..\..\..\lvgl\version_6.1.2\lvgl\src\lv_misc/lv_printf.c ****     if (_is_digit(*format)) {
 2712              		.loc 1 590 0
 2713 00b4 4FF00008 		mov	r8, #0
 2714              	.LVL401:
 2715              	.L400:
 608:..\..\..\lvgl\version_6.1.2\lvgl\src\lv_misc/lv_printf.c ****       flags |= FLAGS_PRECISION;
 2716              		.loc 1 608 0
 2717 00b8 2E28     		cmp	r0, #46
 2718 00ba 00F01982 		beq	.L795
 2719              	.L778:
 607:..\..\..\lvgl\version_6.1.2\lvgl\src\lv_misc/lv_printf.c ****     if (*format == '.') {
 2720              		.loc 1 607 0
 2721 00be 4FF00009 		mov	r9, #0
 2722              	.LVL402:
 2723              	.L403:
 622:..\..\..\lvgl\version_6.1.2\lvgl\src\lv_misc/lv_printf.c ****       case 'l' :
 2724              		.loc 1 622 0
 2725 00c2 A0F16803 		sub	r3, r0, #104
 2726 00c6 122B     		cmp	r3, #18
 2727 00c8 0FD8     		bhi	.L406
 2728 00ca DFE803F0 		tbb	[pc, r3]
 2729              	.L408:
 2730 00ce 6E       		.byte	(.L407-.L408)/2
 2731 00cf 0E       		.byte	(.L406-.L408)/2
 2732 00d0 69       		.byte	(.L409-.L408)/2
ARM GAS  C:\Users\pearlstl\AppData\Local\Temp\ccbpFzqf.s 			page 69


 2733 00d1 0E       		.byte	(.L406-.L408)/2
 2734 00d2 76       		.byte	(.L410-.L408)/2
 2735 00d3 0E       		.byte	(.L406-.L408)/2
 2736 00d4 0E       		.byte	(.L406-.L408)/2
 2737 00d5 0E       		.byte	(.L406-.L408)/2
 2738 00d6 0E       		.byte	(.L406-.L408)/2
 2739 00d7 0E       		.byte	(.L406-.L408)/2
 2740 00d8 0E       		.byte	(.L406-.L408)/2
 2741 00d9 0E       		.byte	(.L406-.L408)/2
 2742 00da 0A       		.byte	(.L412-.L408)/2
 2743 00db 0E       		.byte	(.L406-.L408)/2
 2744 00dc 0E       		.byte	(.L406-.L408)/2
 2745 00dd 0E       		.byte	(.L406-.L408)/2
 2746 00de 0E       		.byte	(.L406-.L408)/2
 2747 00df 0E       		.byte	(.L406-.L408)/2
 2748 00e0 0A       		.byte	(.L412-.L408)/2
 2749 00e1 00       		.p2align 1
 2750              	.L412:
 2751 00e2 6078     		ldrb	r0, [r4, #1]	@ zero_extendqisi2
 650:..\..\..\lvgl\version_6.1.2\lvgl\src\lv_misc/lv_printf.c ****         format++;
 2752              		.loc 1 650 0
 2753 00e4 45F48075 		orr	r5, r5, #256
 2754              	.LVL403:
 651:..\..\..\lvgl\version_6.1.2\lvgl\src\lv_misc/lv_printf.c ****         break;
 2755              		.loc 1 651 0
 2756 00e8 0134     		adds	r4, r4, #1
 2757              	.LVL404:
 2758              	.L406:
 658:..\..\..\lvgl\version_6.1.2\lvgl\src\lv_misc/lv_printf.c ****       case 'd' :
 2759              		.loc 1 658 0
 2760 00ea A0F12503 		sub	r3, r0, #37
 2761 00ee 532B     		cmp	r3, #83
 2762 00f0 00F2E481 		bhi	.L415
 2763 00f4 DFE813F0 		tbh	[pc, r3, lsl #1]
 2764              	.L417:
 2765 00f8 7F01     		.2byte	(.L416-.L417)/2
 2766 00fa E201     		.2byte	(.L415-.L417)/2
 2767 00fc E201     		.2byte	(.L415-.L417)/2
 2768 00fe E201     		.2byte	(.L415-.L417)/2
 2769 0100 E201     		.2byte	(.L415-.L417)/2
 2770 0102 E201     		.2byte	(.L415-.L417)/2
 2771 0104 E201     		.2byte	(.L415-.L417)/2
 2772 0106 E201     		.2byte	(.L415-.L417)/2
 2773 0108 E201     		.2byte	(.L415-.L417)/2
 2774 010a E201     		.2byte	(.L415-.L417)/2
 2775 010c E201     		.2byte	(.L415-.L417)/2
 2776 010e E201     		.2byte	(.L415-.L417)/2
 2777 0110 E201     		.2byte	(.L415-.L417)/2
 2778 0112 E201     		.2byte	(.L415-.L417)/2
 2779 0114 E201     		.2byte	(.L415-.L417)/2
 2780 0116 E201     		.2byte	(.L415-.L417)/2
 2781 0118 E201     		.2byte	(.L415-.L417)/2
 2782 011a E201     		.2byte	(.L415-.L417)/2
 2783 011c E201     		.2byte	(.L415-.L417)/2
 2784 011e E201     		.2byte	(.L415-.L417)/2
 2785 0120 E201     		.2byte	(.L415-.L417)/2
 2786 0122 E201     		.2byte	(.L415-.L417)/2
ARM GAS  C:\Users\pearlstl\AppData\Local\Temp\ccbpFzqf.s 			page 70


 2787 0124 E201     		.2byte	(.L415-.L417)/2
 2788 0126 E201     		.2byte	(.L415-.L417)/2
 2789 0128 E201     		.2byte	(.L415-.L417)/2
 2790 012a E201     		.2byte	(.L415-.L417)/2
 2791 012c E201     		.2byte	(.L415-.L417)/2
 2792 012e E201     		.2byte	(.L415-.L417)/2
 2793 0130 E201     		.2byte	(.L415-.L417)/2
 2794 0132 E201     		.2byte	(.L415-.L417)/2
 2795 0134 E201     		.2byte	(.L415-.L417)/2
 2796 0136 E201     		.2byte	(.L415-.L417)/2
 2797 0138 2A02     		.2byte	(.L418-.L417)/2
 2798 013a 8A01     		.2byte	(.L419-.L417)/2
 2799 013c 2A02     		.2byte	(.L418-.L417)/2
 2800 013e E201     		.2byte	(.L415-.L417)/2
 2801 0140 E201     		.2byte	(.L415-.L417)/2
 2802 0142 E201     		.2byte	(.L415-.L417)/2
 2803 0144 E201     		.2byte	(.L415-.L417)/2
 2804 0146 E201     		.2byte	(.L415-.L417)/2
 2805 0148 E201     		.2byte	(.L415-.L417)/2
 2806 014a E201     		.2byte	(.L415-.L417)/2
 2807 014c E201     		.2byte	(.L415-.L417)/2
 2808 014e E201     		.2byte	(.L415-.L417)/2
 2809 0150 E201     		.2byte	(.L415-.L417)/2
 2810 0152 E201     		.2byte	(.L415-.L417)/2
 2811 0154 E201     		.2byte	(.L415-.L417)/2
 2812 0156 E201     		.2byte	(.L415-.L417)/2
 2813 0158 E201     		.2byte	(.L415-.L417)/2
 2814 015a E201     		.2byte	(.L415-.L417)/2
 2815 015c E201     		.2byte	(.L415-.L417)/2
 2816 015e 2201     		.2byte	(.L420-.L417)/2
 2817 0160 E201     		.2byte	(.L415-.L417)/2
 2818 0162 E201     		.2byte	(.L415-.L417)/2
 2819 0164 E201     		.2byte	(.L415-.L417)/2
 2820 0166 E201     		.2byte	(.L415-.L417)/2
 2821 0168 E201     		.2byte	(.L415-.L417)/2
 2822 016a E201     		.2byte	(.L415-.L417)/2
 2823 016c E201     		.2byte	(.L415-.L417)/2
 2824 016e E201     		.2byte	(.L415-.L417)/2
 2825 0170 E201     		.2byte	(.L415-.L417)/2
 2826 0172 2201     		.2byte	(.L420-.L417)/2
 2827 0174 A200     		.2byte	(.L421-.L417)/2
 2828 0176 2201     		.2byte	(.L420-.L417)/2
 2829 0178 2A02     		.2byte	(.L418-.L417)/2
 2830 017a 8A01     		.2byte	(.L419-.L417)/2
 2831 017c 2A02     		.2byte	(.L418-.L417)/2
 2832 017e E201     		.2byte	(.L415-.L417)/2
 2833 0180 2201     		.2byte	(.L420-.L417)/2
 2834 0182 E201     		.2byte	(.L415-.L417)/2
 2835 0184 E201     		.2byte	(.L415-.L417)/2
 2836 0186 E201     		.2byte	(.L415-.L417)/2
 2837 0188 E201     		.2byte	(.L415-.L417)/2
 2838 018a E201     		.2byte	(.L415-.L417)/2
 2839 018c 2201     		.2byte	(.L420-.L417)/2
 2840 018e 6900     		.2byte	(.L422-.L417)/2
 2841 0190 E201     		.2byte	(.L415-.L417)/2
 2842 0192 E201     		.2byte	(.L415-.L417)/2
 2843 0194 C400     		.2byte	(.L423-.L417)/2
ARM GAS  C:\Users\pearlstl\AppData\Local\Temp\ccbpFzqf.s 			page 71


 2844 0196 E201     		.2byte	(.L415-.L417)/2
 2845 0198 2201     		.2byte	(.L420-.L417)/2
 2846 019a E201     		.2byte	(.L415-.L417)/2
 2847 019c E201     		.2byte	(.L415-.L417)/2
 2848 019e 2201     		.2byte	(.L420-.L417)/2
 2849              		.p2align 1
 2850              	.L409:
 2851 01a0 6078     		ldrb	r0, [r4, #1]	@ zero_extendqisi2
 646:..\..\..\lvgl\version_6.1.2\lvgl\src\lv_misc/lv_printf.c ****         format++;
 2852              		.loc 1 646 0
 2853 01a2 45F40075 		orr	r5, r5, #512
 2854              	.LVL405:
 647:..\..\..\lvgl\version_6.1.2\lvgl\src\lv_misc/lv_printf.c ****         break;
 2855              		.loc 1 647 0
 2856 01a6 0134     		adds	r4, r4, #1
 2857              	.LVL406:
 2858 01a8 9FE7     		b	.L406
 2859              	.L407:
 2860              	.LVL407:
 634:..\..\..\lvgl\version_6.1.2\lvgl\src\lv_misc/lv_printf.c ****           flags |= FLAGS_CHAR;
 2861              		.loc 1 634 0
 2862 01aa 6078     		ldrb	r0, [r4, #1]	@ zero_extendqisi2
 2863 01ac 6828     		cmp	r0, #104
 2864 01ae 00F05E82 		beq	.L414
 632:..\..\..\lvgl\version_6.1.2\lvgl\src\lv_misc/lv_printf.c ****         format++;
 2865              		.loc 1 632 0
 2866 01b2 45F08005 		orr	r5, r5, #128
 2867              	.LVL408:
 633:..\..\..\lvgl\version_6.1.2\lvgl\src\lv_misc/lv_printf.c ****         if (*format == 'h') {
 2868              		.loc 1 633 0
 2869 01b6 0134     		adds	r4, r4, #1
 2870              	.LVL409:
 2871 01b8 97E7     		b	.L406
 2872              	.L410:
 2873              	.LVL410:
 626:..\..\..\lvgl\version_6.1.2\lvgl\src\lv_misc/lv_printf.c ****           flags |= FLAGS_LONG_LONG;
 2874              		.loc 1 626 0
 2875 01ba 6078     		ldrb	r0, [r4, #1]	@ zero_extendqisi2
 2876 01bc 6C28     		cmp	r0, #108
 2877 01be 00F05182 		beq	.L413
 624:..\..\..\lvgl\version_6.1.2\lvgl\src\lv_misc/lv_printf.c ****         format++;
 2878              		.loc 1 624 0
 2879 01c2 45F48075 		orr	r5, r5, #256
 2880              	.LVL411:
 625:..\..\..\lvgl\version_6.1.2\lvgl\src\lv_misc/lv_printf.c ****         if (*format == 'l') {
 2881              		.loc 1 625 0
 2882 01c6 0134     		adds	r4, r4, #1
 2883              	.LVL412:
 2884 01c8 8FE7     		b	.L406
 2885              	.L422:
 2886              	.LVL413:
 2887              	.LBB244:
 807:..\..\..\lvgl\version_6.1.2\lvgl\src\lv_misc/lv_printf.c **** #if defined(PRINTF_SUPPORT_LONG_LONG)
 2888              		.loc 1 807 0
 2889 01ca 0C99     		ldr	r1, [sp, #48]
 2890 01cc 0A68     		ldr	r2, [r1]
 2891 01ce 01F1040E 		add	lr, r1, #4
ARM GAS  C:\Users\pearlstl\AppData\Local\Temp\ccbpFzqf.s 			page 72


 2892              	.LVL414:
 2893              	.LBB245:
 2894              	.LBB246:
 262:..\..\..\lvgl\version_6.1.2\lvgl\src\lv_misc/lv_printf.c ****     flags &= ~FLAGS_HASH;
 2895              		.loc 1 262 0
 2896 01d2 002A     		cmp	r2, #0
 2897 01d4 00F03982 		beq	.L565
 2898              	.LBE246:
 2899              	.LBE245:
 799:..\..\..\lvgl\version_6.1.2\lvgl\src\lv_misc/lv_printf.c **** #if defined(PRINTF_SUPPORT_LONG_LONG)
 2900              		.loc 1 799 0
 2901 01d8 45F02100 		orr	r0, r5, #33
 2902              	.LVL415:
 2903              	.L566:
 2904 01dc 0DF14F05 		add	r5, sp, #79
 2905              	.LVL416:
 2906              	.LBE244:
 2907              	.LBB257:
 789:..\..\..\lvgl\version_6.1.2\lvgl\src\lv_misc/lv_printf.c ****             out(' ', buffer, idx++, maxlen);
 2908              		.loc 1 789 0
 2909 01e0 0021     		movs	r1, #0
 2910 01e2 01E0     		b	.L570
 2911              	.LVL417:
 2912              	.L796:
 2913              	.LBE257:
 2914              	.LBB258:
 2915              	.LBB253:
 2916              	.LBB249:
 272:..\..\..\lvgl\version_6.1.2\lvgl\src\lv_misc/lv_printf.c ****   }
 2917              		.loc 1 272 0
 2918 01e4 2029     		cmp	r1, #32
 2919 01e6 0ED0     		beq	.L567
 2920              	.LVL418:
 2921              	.L570:
 2922              	.LBB247:
 269:..\..\..\lvgl\version_6.1.2\lvgl\src\lv_misc/lv_printf.c ****       buf[len++] = digit < 10 ? '0' + digit : (flags & FLAGS_UPPERCASE ? 'A' : 'a') + digit - 10;
 2923              		.loc 1 269 0
 2924 01e8 02F00F03 		and	r3, r2, #15
 270:..\..\..\lvgl\version_6.1.2\lvgl\src\lv_misc/lv_printf.c ****       value /= base;
 2925              		.loc 1 270 0
 2926 01ec 092B     		cmp	r3, #9
 269:..\..\..\lvgl\version_6.1.2\lvgl\src\lv_misc/lv_printf.c ****       buf[len++] = digit < 10 ? '0' + digit : (flags & FLAGS_UPPERCASE ? 'A' : 'a') + digit - 10;
 2927              		.loc 1 269 0
 2928 01ee DEB2     		uxtb	r6, r3
 2929              	.LVL419:
 270:..\..\..\lvgl\version_6.1.2\lvgl\src\lv_misc/lv_printf.c ****       value /= base;
 2930              		.loc 1 270 0
 2931 01f0 94BF     		ite	ls
 2932 01f2 06F13003 		addls	r3, r6, #48
 2933 01f6 06F13703 		addhi	r3, r6, #55
 2934              	.LBE247:
 272:..\..\..\lvgl\version_6.1.2\lvgl\src\lv_misc/lv_printf.c ****   }
 2935              		.loc 1 272 0
 2936 01fa 1209     		lsrs	r2, r2, #4
 2937              	.LVL420:
 2938              	.LBB248:
 270:..\..\..\lvgl\version_6.1.2\lvgl\src\lv_misc/lv_printf.c ****       value /= base;
ARM GAS  C:\Users\pearlstl\AppData\Local\Temp\ccbpFzqf.s 			page 73


 2939              		.loc 1 270 0
 2940 01fc 01F10101 		add	r1, r1, #1
 2941              	.LVL421:
 2942 0200 05F8013F 		strb	r3, [r5, #1]!
 2943              	.LBE248:
 272:..\..\..\lvgl\version_6.1.2\lvgl\src\lv_misc/lv_printf.c ****   }
 2944              		.loc 1 272 0
 2945 0204 EED1     		bne	.L796
 2946              	.LVL422:
 2947              	.L567:
 275:..\..\..\lvgl\version_6.1.2\lvgl\src\lv_misc/lv_printf.c **** }
 2948              		.loc 1 275 0
 2949 0206 0690     		str	r0, [sp, #24]
 2950 0208 14AB     		add	r3, sp, #80
 2951 020a 0020     		movs	r0, #0
 2952 020c 0826     		movs	r6, #8
 2953 020e 1025     		movs	r5, #16
 2954 0210 0191     		str	r1, [sp, #4]
 2955 0212 5246     		mov	r2, r10
 2956 0214 0290     		str	r0, [sp, #8]
 2957 0216 0093     		str	r3, [sp]
 2958 0218 CDF81090 		str	r9, [sp, #16]
 2959 021c 0596     		str	r6, [sp, #20]
 2960 021e 0395     		str	r5, [sp, #12]
 2961 0220 5B46     		mov	r3, fp
 2962 0222 0999     		ldr	r1, [sp, #36]
 2963              	.LVL423:
 2964 0224 0898     		ldr	r0, [sp, #32]
 2965              	.LBE249:
 2966              	.LBE253:
 807:..\..\..\lvgl\version_6.1.2\lvgl\src\lv_misc/lv_printf.c **** #if defined(PRINTF_SUPPORT_LONG_LONG)
 2967              		.loc 1 807 0
 2968 0226 CDF830E0 		str	lr, [sp, #48]
 2969              	.LBB254:
 2970              	.LBB250:
 275:..\..\..\lvgl\version_6.1.2\lvgl\src\lv_misc/lv_printf.c **** }
 2971              		.loc 1 275 0
 2972 022a FFF7FEFF 		bl	_ntoa_format
 2973              	.LVL424:
 2974              	.LBE250:
 2975              	.LBE254:
 811:..\..\..\lvgl\version_6.1.2\lvgl\src\lv_misc/lv_printf.c ****         break;
 2976              		.loc 1 811 0
 2977 022e 0134     		adds	r4, r4, #1
 2978              	.LVL425:
 2979              	.LBB255:
 2980              	.LBB251:
 275:..\..\..\lvgl\version_6.1.2\lvgl\src\lv_misc/lv_printf.c **** }
 2981              		.loc 1 275 0
 2982 0230 8246     		mov	r10, r0
 2983              	.LVL426:
 2984 0232 F5E6     		b	.L388
 2985              	.L831:
 2986              		.align	2
 2987              	.L830:
 2988 0234 00000000 		.word	_out_null
 2989 0238 00000000 		.word	_out_buffer
ARM GAS  C:\Users\pearlstl\AppData\Local\Temp\ccbpFzqf.s 			page 74


 2990              	.LVL427:
 2991              	.L421:
 2992              	.LBE251:
 2993              	.LBE255:
 2994              	.LBE258:
 2995              	.LBB259:
 754:..\..\..\lvgl\version_6.1.2\lvgl\src\lv_misc/lv_printf.c ****           while (l++ < width) {
 2996              		.loc 1 754 0
 2997 023c A807     		lsls	r0, r5, #30
 2998 023e 00F1E581 		bmi	.L546
 2999              	.LVL428:
 755:..\..\..\lvgl\version_6.1.2\lvgl\src\lv_misc/lv_printf.c ****             out(' ', buffer, idx++, maxlen);
 3000              		.loc 1 755 0
 3001 0242 B8F1010F 		cmp	r8, #1
 3002 0246 40F2CA86 		bls	.L624
 3003 024a 0AF1FF35 		add	r5, r10, #-1
 3004              	.LVL429:
 3005 024e 089E     		ldr	r6, [sp, #32]
 3006 0250 099F     		ldr	r7, [sp, #36]
 3007 0252 4544     		add	r5, r5, r8
 3008              	.LVL430:
 3009              	.L548:
 756:..\..\..\lvgl\version_6.1.2\lvgl\src\lv_misc/lv_printf.c ****           }
 3010              		.loc 1 756 0
 3011 0254 0AF10101 		add	r1, r10, #1
 3012              	.LVL431:
 3013 0258 5246     		mov	r2, r10
 3014 025a 5B46     		mov	r3, fp
 3015 025c 8A46     		mov	r10, r1
 3016 025e 2020     		movs	r0, #32
 3017 0260 3946     		mov	r1, r7
 3018              	.LVL432:
 3019 0262 B047     		blx	r6
 3020              	.LVL433:
 755:..\..\..\lvgl\version_6.1.2\lvgl\src\lv_misc/lv_printf.c ****             out(' ', buffer, idx++, maxlen);
 3021              		.loc 1 755 0
 3022 0264 AA45     		cmp	r10, r5
 3023 0266 F5D1     		bne	.L548
 3024              	.LVL434:
 3025              	.L547:
 760:..\..\..\lvgl\version_6.1.2\lvgl\src\lv_misc/lv_printf.c ****         // post padding
 3026              		.loc 1 760 0
 3027 0268 0C9B     		ldr	r3, [sp, #48]
 3028 026a 0999     		ldr	r1, [sp, #36]
 3029 026c 1878     		ldrb	r0, [r3]	@ zero_extendqisi2
 3030 026e 1E1D     		adds	r6, r3, #4
 3031 0270 2A46     		mov	r2, r5
 3032 0272 05F1010A 		add	r10, r5, #1
 3033              	.LVL435:
 3034 0276 5B46     		mov	r3, fp
 3035 0278 0C96     		str	r6, [sp, #48]
 3036 027a 089D     		ldr	r5, [sp, #32]
 3037 027c A847     		blx	r5
 3038              	.LVL436:
 3039 027e 24E1     		b	.L788
 3040              	.LVL437:
 3041              	.L423:
ARM GAS  C:\Users\pearlstl\AppData\Local\Temp\ccbpFzqf.s 			page 75


 3042              	.LBE259:
 3043              	.LBB260:
 772:..\..\..\lvgl\version_6.1.2\lvgl\src\lv_misc/lv_printf.c ****         unsigned int l = _strnlen_s(p, precision ? precision : (size_t)-1);
 3044              		.loc 1 772 0
 3045 0280 0C99     		ldr	r1, [sp, #48]
 3046 0282 0B68     		ldr	r3, [r1]
 3047 0284 0C93     		str	r3, [sp, #48]
 3048              	.LBB238:
 3049              	.LBB239:
 148:..\..\..\lvgl\version_6.1.2\lvgl\src\lv_misc/lv_printf.c ****   return (unsigned int)(s - str);
 3050              		.loc 1 148 0
 3051 0286 1878     		ldrb	r0, [r3]	@ zero_extendqisi2
 3052              	.LBE239:
 3053              	.LBE238:
 772:..\..\..\lvgl\version_6.1.2\lvgl\src\lv_misc/lv_printf.c ****         unsigned int l = _strnlen_s(p, precision ? precision : (size_t)-1);
 3054              		.loc 1 772 0
 3055 0288 0A46     		mov	r2, r1
 773:..\..\..\lvgl\version_6.1.2\lvgl\src\lv_misc/lv_printf.c ****         // pre padding
 3056              		.loc 1 773 0
 3057 028a B9F1000F 		cmp	r9, #0
 772:..\..\..\lvgl\version_6.1.2\lvgl\src\lv_misc/lv_printf.c ****         unsigned int l = _strnlen_s(p, precision ? precision : (size_t)-1);
 3058              		.loc 1 772 0
 3059 028e 02F10402 		add	r2, r2, #4
 3060 0292 1F46     		mov	r7, r3
 3061 0294 0A92     		str	r2, [sp, #40]
 773:..\..\..\lvgl\version_6.1.2\lvgl\src\lv_misc/lv_printf.c ****         // pre padding
 3062              		.loc 1 773 0
 3063 0296 14BF     		ite	ne
 3064 0298 4B46     		movne	r3, r9
 3065 029a 4FF0FF33 		moveq	r3, #-1
 3066              	.LVL438:
 3067              	.LBB242:
 3068              	.LBB240:
 148:..\..\..\lvgl\version_6.1.2\lvgl\src\lv_misc/lv_printf.c ****   return (unsigned int)(s - str);
 3069              		.loc 1 148 0
 3070 029e 18B9     		cbnz	r0, .L553
 3071 02a0 00F0A0BD 		b	.L764
 3072              	.LVL439:
 3073              	.L797:
 3074 02a4 013B     		subs	r3, r3, #1
 3075              	.LVL440:
 3076 02a6 03D0     		beq	.L787
 3077              	.LVL441:
 3078              	.L553:
 3079 02a8 17F8012F 		ldrb	r2, [r7, #1]!	@ zero_extendqisi2
 3080              	.LVL442:
 3081 02ac 002A     		cmp	r2, #0
 3082 02ae F9D1     		bne	.L797
 3083              	.LVL443:
 3084              	.L787:
 3085 02b0 0C9B     		ldr	r3, [sp, #48]
 3086 02b2 FF1A     		subs	r7, r7, r3
 3087              	.LVL444:
 3088              	.L552:
 3089              	.LBE240:
 3090              	.LBE242:
 775:..\..\..\lvgl\version_6.1.2\lvgl\src\lv_misc/lv_printf.c ****           l = (l < precision ? l : precision);
ARM GAS  C:\Users\pearlstl\AppData\Local\Temp\ccbpFzqf.s 			page 76


 3091              		.loc 1 775 0
 3092 02b4 15F48063 		ands	r3, r5, #1024
 3093 02b8 0D93     		str	r3, [sp, #52]
 3094 02ba 02D0     		beq	.L554
 776:..\..\..\lvgl\version_6.1.2\lvgl\src\lv_misc/lv_printf.c ****         }
 3095              		.loc 1 776 0
 3096 02bc 4F45     		cmp	r7, r9
 3097 02be 28BF     		it	cs
 3098 02c0 4F46     		movcs	r7, r9
 3099              	.LVL445:
 3100              	.L554:
 778:..\..\..\lvgl\version_6.1.2\lvgl\src\lv_misc/lv_printf.c ****           while (l++ < width) {
 3101              		.loc 1 778 0
 3102 02c2 15F00203 		ands	r3, r5, #2
 3103 02c6 0E93     		str	r3, [sp, #56]
 3104 02c8 00F06781 		beq	.L798
 784:..\..\..\lvgl\version_6.1.2\lvgl\src\lv_misc/lv_printf.c ****           out(*(p++), buffer, idx++, maxlen);
 3105              		.loc 1 784 0
 3106 02cc C8B1     		cbz	r0, .L585
 3107 02ce 0D9B     		ldr	r3, [sp, #52]
 3108 02d0 0C9E     		ldr	r6, [sp, #48]
 3109 02d2 002B     		cmp	r3, #0
 3110 02d4 00F08A81 		beq	.L559
 3111              	.LVL446:
 3112              	.L808:
 3113 02d8 0C94     		str	r4, [sp, #48]
 3114 02da D144     		add	r9, r9, r10
 3115 02dc 089D     		ldr	r5, [sp, #32]
 3116 02de 099C     		ldr	r4, [sp, #36]
 3117 02e0 07E0     		b	.L560
 3118              	.LVL447:
 3119              	.L800:
 785:..\..\..\lvgl\version_6.1.2\lvgl\src\lv_misc/lv_printf.c ****         }
 3120              		.loc 1 785 0
 3121 02e2 A847     		blx	r5
 3122              	.LVL448:
 784:..\..\..\lvgl\version_6.1.2\lvgl\src\lv_misc/lv_printf.c ****           out(*(p++), buffer, idx++, maxlen);
 3123              		.loc 1 784 0
 3124 02e4 16F8010F 		ldrb	r0, [r6, #1]!	@ zero_extendqisi2
 785:..\..\..\lvgl\version_6.1.2\lvgl\src\lv_misc/lv_printf.c ****         }
 3125              		.loc 1 785 0
 3126 02e8 0AF1010A 		add	r10, r10, #1
 3127              	.LVL449:
 784:..\..\..\lvgl\version_6.1.2\lvgl\src\lv_misc/lv_printf.c ****           out(*(p++), buffer, idx++, maxlen);
 3128              		.loc 1 784 0
 3129 02ec 0028     		cmp	r0, #0
 3130 02ee 00F0B581 		beq	.L799
 3131              	.LVL450:
 3132              	.L560:
 3133 02f2 D145     		cmp	r9, r10
 785:..\..\..\lvgl\version_6.1.2\lvgl\src\lv_misc/lv_printf.c ****         }
 3134              		.loc 1 785 0
 3135 02f4 5246     		mov	r2, r10
 3136 02f6 5B46     		mov	r3, fp
 3137 02f8 2146     		mov	r1, r4
 784:..\..\..\lvgl\version_6.1.2\lvgl\src\lv_misc/lv_printf.c ****           out(*(p++), buffer, idx++, maxlen);
 3138              		.loc 1 784 0
ARM GAS  C:\Users\pearlstl\AppData\Local\Temp\ccbpFzqf.s 			page 77


 3139 02fa F2D1     		bne	.L800
 3140              	.LVL451:
 3141 02fc 0C9C     		ldr	r4, [sp, #48]
 3142              	.LVL452:
 3143              	.L558:
 788:..\..\..\lvgl\version_6.1.2\lvgl\src\lv_misc/lv_printf.c ****           while (l++ < width) {
 3144              		.loc 1 788 0
 3145 02fe 0E9B     		ldr	r3, [sp, #56]
 3146 0300 C3B1     		cbz	r3, .L563
 3147              	.L585:
 3148              	.LVL453:
 789:..\..\..\lvgl\version_6.1.2\lvgl\src\lv_misc/lv_printf.c ****             out(' ', buffer, idx++, maxlen);
 3149              		.loc 1 789 0
 3150 0302 B845     		cmp	r8, r7
 3151 0304 16D9     		bls	.L563
 3152 0306 5246     		mov	r2, r10
 3153 0308 CAEB0705 		rsb	r5, r10, r7
 3154 030c CDF830A0 		str	r10, [sp, #48]
 3155 0310 DDF82090 		ldr	r9, [sp, #32]
 3156 0314 DDF824A0 		ldr	r10, [sp, #36]
 3157              	.LVL454:
 3158              	.L564:
 790:..\..\..\lvgl\version_6.1.2\lvgl\src\lv_misc/lv_printf.c ****           }
 3159              		.loc 1 790 0
 3160 0318 561C     		adds	r6, r2, #1
 3161              	.LVL455:
 3162 031a 5B46     		mov	r3, fp
 3163 031c 5146     		mov	r1, r10
 3164 031e 2020     		movs	r0, #32
 3165 0320 C847     		blx	r9
 3166              	.LVL456:
 789:..\..\..\lvgl\version_6.1.2\lvgl\src\lv_misc/lv_printf.c ****             out(' ', buffer, idx++, maxlen);
 3167              		.loc 1 789 0
 3168 0322 7319     		adds	r3, r6, r5
 3169 0324 9845     		cmp	r8, r3
 790:..\..\..\lvgl\version_6.1.2\lvgl\src\lv_misc/lv_printf.c ****           }
 3170              		.loc 1 790 0
 3171 0326 3246     		mov	r2, r6
 789:..\..\..\lvgl\version_6.1.2\lvgl\src\lv_misc/lv_printf.c ****             out(' ', buffer, idx++, maxlen);
 3172              		.loc 1 789 0
 3173 0328 F6D8     		bhi	.L564
 3174 032a DDF830A0 		ldr	r10, [sp, #48]
 3175 032e C244     		add	r10, r10, r8
 3176 0330 C7EB0A0A 		rsb	r10, r7, r10
 3177              	.LVL457:
 3178              	.L563:
 772:..\..\..\lvgl\version_6.1.2\lvgl\src\lv_misc/lv_printf.c ****         unsigned int l = _strnlen_s(p, precision ? precision : (size_t)-1);
 3179              		.loc 1 772 0
 3180 0334 0A9B     		ldr	r3, [sp, #40]
 3181 0336 0C93     		str	r3, [sp, #48]
 793:..\..\..\lvgl\version_6.1.2\lvgl\src\lv_misc/lv_printf.c ****         break;
 3182              		.loc 1 793 0
 3183 0338 0134     		adds	r4, r4, #1
 3184              	.LVL458:
 3185 033a 71E6     		b	.L388
 3186              	.LVL459:
 3187              	.L420:
ARM GAS  C:\Users\pearlstl\AppData\Local\Temp\ccbpFzqf.s 			page 78


 3188              	.LBE260:
 3189              	.LBB261:
 668:..\..\..\lvgl\version_6.1.2\lvgl\src\lv_misc/lv_printf.c ****           base = 16U;
 3190              		.loc 1 668 0
 3191 033c 7828     		cmp	r0, #120
 3192 033e 00F09B81 		beq	.L593
 3193 0342 5828     		cmp	r0, #88
 3194 0344 00F06F83 		beq	.L425
 671:..\..\..\lvgl\version_6.1.2\lvgl\src\lv_misc/lv_printf.c ****           base =  8U;
 3195              		.loc 1 671 0
 3196 0348 6F28     		cmp	r0, #111
 3197 034a 00F04B84 		beq	.L594
 674:..\..\..\lvgl\version_6.1.2\lvgl\src\lv_misc/lv_printf.c ****           base =  2U;
 3198              		.loc 1 674 0
 3199 034e 6228     		cmp	r0, #98
 3200 0350 00F03882 		beq	.L595
 3201              	.LVL460:
 679:..\..\..\lvgl\version_6.1.2\lvgl\src\lv_misc/lv_printf.c ****         }
 3202              		.loc 1 679 0
 3203 0354 25F01003 		bic	r3, r5, #16
 687:..\..\..\lvgl\version_6.1.2\lvgl\src\lv_misc/lv_printf.c ****           flags &= ~(FLAGS_PLUS | FLAGS_SPACE);
 3204              		.loc 1 687 0
 3205 0358 6928     		cmp	r0, #105
 679:..\..\..\lvgl\version_6.1.2\lvgl\src\lv_misc/lv_printf.c ****         }
 3206              		.loc 1 679 0
 3207 035a 0A93     		str	r3, [sp, #40]
 3208              	.LVL461:
 687:..\..\..\lvgl\version_6.1.2\lvgl\src\lv_misc/lv_printf.c ****           flags &= ~(FLAGS_PLUS | FLAGS_SPACE);
 3209              		.loc 1 687 0
 3210 035c 40F08286 		bne	.L801
 692:..\..\..\lvgl\version_6.1.2\lvgl\src\lv_misc/lv_printf.c ****           flags &= ~FLAGS_ZEROPAD;
 3211              		.loc 1 692 0
 3212 0360 6905     		lsls	r1, r5, #21
 678:..\..\..\lvgl\version_6.1.2\lvgl\src\lv_misc/lv_printf.c ****           flags &= ~FLAGS_HASH;   // no hash for dec format
 3213              		.loc 1 678 0
 3214 0362 4FF00A07 		mov	r7, #10
 692:..\..\..\lvgl\version_6.1.2\lvgl\src\lv_misc/lv_printf.c ****           flags &= ~FLAGS_ZEROPAD;
 3215              		.loc 1 692 0
 3216 0366 00F18D81 		bmi	.L580
 3217              	.LVL462:
 3218              	.L430:
 699:..\..\..\lvgl\version_6.1.2\lvgl\src\lv_misc/lv_printf.c **** #if defined(PRINTF_SUPPORT_LONG_LONG)
 3219              		.loc 1 699 0
 3220 036a 0A9B     		ldr	r3, [sp, #40]
 3221 036c 9D05     		lsls	r5, r3, #22
 3222 036e 00F13B84 		bmi	.L802
 705:..\..\..\lvgl\version_6.1.2\lvgl\src\lv_misc/lv_printf.c ****             const long value = va_arg(va, long);
 3223              		.loc 1 705 0
 3224 0372 D905     		lsls	r1, r3, #23
 3225              	.LBB262:
 706:..\..\..\lvgl\version_6.1.2\lvgl\src\lv_misc/lv_printf.c ****             idx = _ntoa_long(out, buffer, idx, maxlen, (unsigned long)(value > 0 ? value : 0 - valu
 3226              		.loc 1 706 0
 3227 0374 0C9A     		ldr	r2, [sp, #48]
 3228              	.LBE262:
 705:..\..\..\lvgl\version_6.1.2\lvgl\src\lv_misc/lv_printf.c ****             const long value = va_arg(va, long);
 3229              		.loc 1 705 0
 3230 0376 00F1F184 		bmi	.L803
ARM GAS  C:\Users\pearlstl\AppData\Local\Temp\ccbpFzqf.s 			page 79


 3231              	.LBB271:
 710:..\..\..\lvgl\version_6.1.2\lvgl\src\lv_misc/lv_printf.c ****             idx = _ntoa_long(out, buffer, idx, maxlen, (unsigned int)(value > 0 ? value : 0 - value
 3232              		.loc 1 710 0
 3233 037a 5D06     		lsls	r5, r3, #25
 3234 037c 40F1A584 		bpl	.L446
 3235 0380 1378     		ldrb	r3, [r2]	@ zero_extendqisi2
 3236 0382 0432     		adds	r2, r2, #4
 3237 0384 0C92     		str	r2, [sp, #48]
 3238              	.L447:
 3239              	.LVL463:
 711:..\..\..\lvgl\version_6.1.2\lvgl\src\lv_misc/lv_printf.c ****           }
 3240              		.loc 1 711 0
 3241 0386 83EAE371 		eor	r1, r3, r3, asr #31
 3242 038a A1EBE371 		sub	r1, r1, r3, asr #31
 3243 038e 4FEAD37E 		lsr	lr, r3, #31
 3244              	.LVL464:
 3245              	.LBB272:
 3246              	.LBB273:
 262:..\..\..\lvgl\version_6.1.2\lvgl\src\lv_misc/lv_printf.c ****     flags &= ~FLAGS_HASH;
 3247              		.loc 1 262 0
 3248 0392 0B46     		mov	r3, r1
 3249              	.LVL465:
 3250 0394 29B9     		cbnz	r1, .L449
 263:..\..\..\lvgl\version_6.1.2\lvgl\src\lv_misc/lv_printf.c ****   }
 3251              		.loc 1 263 0
 3252 0396 0A98     		ldr	r0, [sp, #40]
 3253 0398 20F01002 		bic	r2, r0, #16
 3254              	.LVL466:
 267:..\..\..\lvgl\version_6.1.2\lvgl\src\lv_misc/lv_printf.c ****     do {
 3255              		.loc 1 267 0
 3256 039c 4005     		lsls	r0, r0, #21
 263:..\..\..\lvgl\version_6.1.2\lvgl\src\lv_misc/lv_printf.c ****   }
 3257              		.loc 1 263 0
 3258 039e 0A92     		str	r2, [sp, #40]
 267:..\..\..\lvgl\version_6.1.2\lvgl\src\lv_misc/lv_printf.c ****     do {
 3259              		.loc 1 267 0
 3260 03a0 1CD4     		bmi	.L450
 3261              	.LVL467:
 3262              	.L449:
 3263 03a2 0A9A     		ldr	r2, [sp, #40]
 3264 03a4 12F0200F 		tst	r2, #32
 3265              	.LBB274:
 270:..\..\..\lvgl\version_6.1.2\lvgl\src\lv_misc/lv_printf.c ****       value /= base;
 3266              		.loc 1 270 0
 3267 03a8 14BF     		ite	ne
 3268 03aa 3726     		movne	r6, #55
 3269 03ac 5726     		moveq	r6, #87
 3270 03ae 0DF14F05 		add	r5, sp, #79
 3271 03b2 0021     		movs	r1, #0
 3272              	.LVL468:
 3273 03b4 01E0     		b	.L453
 3274              	.LVL469:
 3275              	.L804:
 3276              	.LBE274:
 272:..\..\..\lvgl\version_6.1.2\lvgl\src\lv_misc/lv_printf.c ****   }
 3277              		.loc 1 272 0
 3278 03b6 2029     		cmp	r1, #32
ARM GAS  C:\Users\pearlstl\AppData\Local\Temp\ccbpFzqf.s 			page 80


 3279 03b8 10D0     		beq	.L450
 3280              	.LVL470:
 3281              	.L453:
 3282              	.LBB275:
 269:..\..\..\lvgl\version_6.1.2\lvgl\src\lv_misc/lv_printf.c ****       buf[len++] = digit < 10 ? '0' + digit : (flags & FLAGS_UPPERCASE ? 'A' : 'a') + digit - 10;
 3283              		.loc 1 269 0
 3284 03ba B3FBF7F0 		udiv	r0, r3, r7
 3285 03be 07FB1033 		mls	r3, r7, r0, r3
 3286              	.LVL471:
 3287 03c2 DAB2     		uxtb	r2, r3
 3288              	.LVL472:
 270:..\..\..\lvgl\version_6.1.2\lvgl\src\lv_misc/lv_printf.c ****       value /= base;
 3289              		.loc 1 270 0
 3290 03c4 092B     		cmp	r3, #9
 3291 03c6 02F13003 		add	r3, r2, #48
 3292 03ca 88BF     		it	hi
 3293 03cc 9319     		addhi	r3, r2, r6
 3294 03ce DBB2     		uxtb	r3, r3
 3295 03d0 05F8013F 		strb	r3, [r5, #1]!
 3296 03d4 0131     		adds	r1, r1, #1
 3297              	.LVL473:
 3298              	.LBE275:
 272:..\..\..\lvgl\version_6.1.2\lvgl\src\lv_misc/lv_printf.c ****   }
 3299              		.loc 1 272 0
 3300 03d6 0346     		mov	r3, r0
 3301 03d8 0028     		cmp	r0, #0
 3302 03da ECD1     		bne	.L804
 3303              	.LVL474:
 3304              	.L450:
 275:..\..\..\lvgl\version_6.1.2\lvgl\src\lv_misc/lv_printf.c **** }
 3305              		.loc 1 275 0
 3306 03dc 0A9A     		ldr	r2, [sp, #40]
 3307 03de 0692     		str	r2, [sp, #24]
 3308 03e0 14AB     		add	r3, sp, #80
 3309              	.LVL475:
 3310 03e2 CDF81480 		str	r8, [sp, #20]
 3311 03e6 CDF81090 		str	r9, [sp, #16]
 3312 03ea 0397     		str	r7, [sp, #12]
 3313 03ec CDF808E0 		str	lr, [sp, #8]
 3314 03f0 0191     		str	r1, [sp, #4]
 3315 03f2 5246     		mov	r2, r10
 3316 03f4 8EE1     		b	.L783
 3317              	.LVL476:
 3318              	.L416:
 3319              	.LBE273:
 3320              	.LBE272:
 3321              	.LBE271:
 3322              	.LBE261:
 816:..\..\..\lvgl\version_6.1.2\lvgl\src\lv_misc/lv_printf.c ****         format++;
 3323              		.loc 1 816 0
 3324 03f6 0AF10105 		add	r5, r10, #1
 3325              	.LVL477:
 3326 03fa 5246     		mov	r2, r10
 3327 03fc 5B46     		mov	r3, fp
 3328 03fe AA46     		mov	r10, r5
 3329 0400 0999     		ldr	r1, [sp, #36]
 3330 0402 089D     		ldr	r5, [sp, #32]
ARM GAS  C:\Users\pearlstl\AppData\Local\Temp\ccbpFzqf.s 			page 81


 3331              	.LVL478:
 3332 0404 2520     		movs	r0, #37
 817:..\..\..\lvgl\version_6.1.2\lvgl\src\lv_misc/lv_printf.c ****         break;
 3333              		.loc 1 817 0
 3334 0406 0134     		adds	r4, r4, #1
 3335              	.LVL479:
 816:..\..\..\lvgl\version_6.1.2\lvgl\src\lv_misc/lv_printf.c ****         format++;
 3336              		.loc 1 816 0
 3337 0408 A847     		blx	r5
 3338              	.LVL480:
 3339 040a 09E6     		b	.L388
 3340              	.LVL481:
 3341              	.L419:
 736:..\..\..\lvgl\version_6.1.2\lvgl\src\lv_misc/lv_printf.c ****         format++;
 3342              		.loc 1 736 0
 3343 040c 0C9B     		ldr	r3, [sp, #48]
 3344 040e 03F1070E 		add	lr, r3, #7
 3345 0412 2EF0070E 		bic	lr, lr, #7
 3346 0416 9EED007B 		vldr.64	d7, [lr]
 735:..\..\..\lvgl\version_6.1.2\lvgl\src\lv_misc/lv_printf.c ****         idx = _ftoa(out, buffer, idx, maxlen, va_arg(va, double), precision, width, flags);
 3347              		.loc 1 735 0
 3348 041a 4628     		cmp	r0, #70
 3349              	.LBB317:
 3350              	.LBB318:
 324:..\..\..\lvgl\version_6.1.2\lvgl\src\lv_misc/lv_printf.c ****     return _out_rev(out, buffer, idx, maxlen, "nan", 3, width, flags);
 3351              		.loc 1 324 0
 3352 041c 51EC170B 		vmov	r0, r1, d7
 3353              	.LBE318:
 3354              	.LBE317:
 736:..\..\..\lvgl\version_6.1.2\lvgl\src\lv_misc/lv_printf.c ****         format++;
 3355              		.loc 1 736 0
 3356 0420 0EF10806 		add	r6, lr, #8
 3357              	.LBB388:
 3358              	.LBB375:
 324:..\..\..\lvgl\version_6.1.2\lvgl\src\lv_misc/lv_printf.c ****     return _out_rev(out, buffer, idx, maxlen, "nan", 3, width, flags);
 3359              		.loc 1 324 0
 3360 0424 17EE102A 		vmov	r2, s14	@ int
 3361 0428 0B46     		mov	r3, r1
 3362              	.LBE375:
 3363              	.LBE388:
 735:..\..\..\lvgl\version_6.1.2\lvgl\src\lv_misc/lv_printf.c ****         idx = _ftoa(out, buffer, idx, maxlen, va_arg(va, double), precision, width, flags);
 3364              		.loc 1 735 0
 3365 042a 08BF     		it	eq
 3366 042c 45F02005 		orreq	r5, r5, #32
 3367              	.LVL482:
 736:..\..\..\lvgl\version_6.1.2\lvgl\src\lv_misc/lv_printf.c ****         format++;
 3368              		.loc 1 736 0
 3369 0430 8DED0A7B 		vstr.64	d7, [sp, #40]
 3370 0434 0C96     		str	r6, [sp, #48]
 3371              	.LVL483:
 3372              	.LBB389:
 3373              	.LBB376:
 324:..\..\..\lvgl\version_6.1.2\lvgl\src\lv_misc/lv_printf.c ****     return _out_rev(out, buffer, idx, maxlen, "nan", 3, width, flags);
 3374              		.loc 1 324 0
 3375 0436 FFF7FEFF 		bl	__aeabi_dcmpeq
 3376              	.LVL484:
 3377 043a 0028     		cmp	r0, #0
ARM GAS  C:\Users\pearlstl\AppData\Local\Temp\ccbpFzqf.s 			page 82


 3378 043c 00F01283 		beq	.L805
 326:..\..\..\lvgl\version_6.1.2\lvgl\src\lv_misc/lv_printf.c ****     return _out_rev(out, buffer, idx, maxlen, "fni-", 4, width, flags);
 3379              		.loc 1 326 0
 3380 0440 4FF0FF32 		mov	r2, #-1
 3381 0444 6FF48013 		mvn	r3, #1048576
 3382 0448 DDE90A01 		ldrd	r0, [sp, #40]
 3383 044c FFF7FEFF 		bl	__aeabi_dcmplt
 3384              	.LVL485:
 3385 0450 0028     		cmp	r0, #0
 3386 0452 40F09A81 		bne	.L806
 3387              	.LVL486:
 3388              	.LBB319:
 3389              	.LBB320:
 328:..\..\..\lvgl\version_6.1.2\lvgl\src\lv_misc/lv_printf.c ****     return _out_rev(out, buffer, idx, maxlen, (flags & FLAGS_PLUS) ? "fni+" : "fni", (flags & FLAGS
 3390              		.loc 1 328 0
 3391 0456 4FF0FF32 		mov	r2, #-1
 3392 045a B24B     		ldr	r3, .L832
 3393 045c DDE90A01 		ldrd	r0, [sp, #40]
 3394 0460 FFF7FEFF 		bl	__aeabi_dcmpgt
 3395              	.LVL487:
 3396 0464 0028     		cmp	r0, #0
 3397 0466 00F0E881 		beq	.L758
 329:..\..\..\lvgl\version_6.1.2\lvgl\src\lv_misc/lv_printf.c **** 
 3398              		.loc 1 329 0
 3399 046a 05F00403 		and	r3, r5, #4
 3400 046e AE4A     		ldr	r2, .L832+4
 3401 0470 AE49     		ldr	r1, .L832+8
 3402 0472 002B     		cmp	r3, #0
 3403 0474 0DBF     		iteet	eq
 3404 0476 0323     		moveq	r3, #3
 3405 0478 0423     		movne	r3, #4
 3406 047a 9146     		movne	r9, r2
 3407 047c 8946     		moveq	r9, r1
 3408              	.LBB321:
 3409              	.LBB322:
 178:..\..\..\lvgl\version_6.1.2\lvgl\src\lv_misc/lv_printf.c ****       size_t i;
 3410              		.loc 1 178 0
 3411 047e AE07     		lsls	r6, r5, #30
 3412              	.LBE322:
 3413              	.LBE321:
 329:..\..\..\lvgl\version_6.1.2\lvgl\src\lv_misc/lv_printf.c **** 
 3414              		.loc 1 329 0
 3415 0480 1A46     		mov	r2, r3
 3416 0482 0A93     		str	r3, [sp, #40]
 3417              	.LVL488:
 3418              	.LBB327:
 3419              	.LBB325:
 178:..\..\..\lvgl\version_6.1.2\lvgl\src\lv_misc/lv_printf.c ****       size_t i;
 3420              		.loc 1 178 0
 3421 0484 40F05481 		bne	.L612
 3422              	.LVL489:
 3423              	.LBB323:
 180:..\..\..\lvgl\version_6.1.2\lvgl\src\lv_misc/lv_printf.c ****       out(' ', buffer, idx++, maxlen);
 3424              		.loc 1 180 0
 3425 0488 9845     		cmp	r8, r3
 3426 048a 40F25181 		bls	.L612
 3427 048e 0AEB0806 		add	r6, r10, r8
ARM GAS  C:\Users\pearlstl\AppData\Local\Temp\ccbpFzqf.s 			page 83


 3428 0492 5246     		mov	r2, r10
 3429              	.LVL490:
 3430 0494 CDF834A0 		str	r10, [sp, #52]
 3431 0498 089F     		ldr	r7, [sp, #32]
 3432 049a DDF824A0 		ldr	r10, [sp, #36]
 3433 049e 0E94     		str	r4, [sp, #56]
 3434 04a0 F61A     		subs	r6, r6, r3
 3435              	.LVL491:
 3436              	.L492:
 181:..\..\..\lvgl\version_6.1.2\lvgl\src\lv_misc/lv_printf.c ****     }
 3437              		.loc 1 181 0
 3438 04a2 541C     		adds	r4, r2, #1
 3439              	.LVL492:
 3440 04a4 5B46     		mov	r3, fp
 3441 04a6 5146     		mov	r1, r10
 3442 04a8 2020     		movs	r0, #32
 3443 04aa B847     		blx	r7
 3444              	.LVL493:
 180:..\..\..\lvgl\version_6.1.2\lvgl\src\lv_misc/lv_printf.c ****       out(' ', buffer, idx++, maxlen);
 3445              		.loc 1 180 0
 3446 04ac B442     		cmp	r4, r6
 3447 04ae 2246     		mov	r2, r4
 3448 04b0 F7D1     		bne	.L492
 3449 04b2 DDF834A0 		ldr	r10, [sp, #52]
 3450 04b6 0E9C     		ldr	r4, [sp, #56]
 3451              	.LVL494:
 3452 04b8 0A9A     		ldr	r2, [sp, #40]
 3453              	.LVL495:
 3454 04ba 3AE1     		b	.L491
 3455              	.LVL496:
 3456              	.L415:
 3457              	.LBE323:
 3458              	.LBE325:
 3459              	.LBE327:
 3460              	.LBE320:
 3461              	.LBE319:
 3462              	.LBE376:
 3463              	.LBE389:
 821:..\..\..\lvgl\version_6.1.2\lvgl\src\lv_misc/lv_printf.c ****         format++;
 3464              		.loc 1 821 0
 3465 04bc 5246     		mov	r2, r10
 3466 04be 5B46     		mov	r3, fp
 3467 04c0 0999     		ldr	r1, [sp, #36]
 3468 04c2 089D     		ldr	r5, [sp, #32]
 3469              	.LVL497:
 3470 04c4 A847     		blx	r5
 3471              	.LVL498:
 3472 04c6 0AF1010A 		add	r10, r10, #1
 3473              	.LVL499:
 3474              	.L788:
 822:..\..\..\lvgl\version_6.1.2\lvgl\src\lv_misc/lv_printf.c ****         break;
 3475              		.loc 1 822 0
 3476 04ca 0134     		adds	r4, r4, #1
 3477              	.LVL500:
 3478 04cc A8E5     		b	.L388
 3479              	.LVL501:
 3480              	.L573:
ARM GAS  C:\Users\pearlstl\AppData\Local\Temp\ccbpFzqf.s 			page 84


 591:..\..\..\lvgl\version_6.1.2\lvgl\src\lv_misc/lv_printf.c ****       width = _atoi(&format);
 3481              		.loc 1 591 0
 3482 04ce 4FF00008 		mov	r8, #0
 3483              	.LVL502:
 3484              	.L399:
 3485              	.LBB390:
 3486              	.LBB391:
 166:..\..\..\lvgl\version_6.1.2\lvgl\src\lv_misc/lv_printf.c ****   }
 3487              		.loc 1 166 0
 3488 04d2 08EB8808 		add	r8, r8, r8, lsl #2
 3489 04d6 00EB4808 		add	r8, r0, r8, lsl #1
 3490              	.LVL503:
 165:..\..\..\lvgl\version_6.1.2\lvgl\src\lv_misc/lv_printf.c ****     i = i * 10U + (unsigned int)(*((*str)++) - '0');
 3491              		.loc 1 165 0
 3492 04da 14F8010F 		ldrb	r0, [r4, #1]!	@ zero_extendqisi2
 3493              	.LVL504:
 3494 04de A0F13003 		sub	r3, r0, #48
 3495 04e2 092B     		cmp	r3, #9
 166:..\..\..\lvgl\version_6.1.2\lvgl\src\lv_misc/lv_printf.c ****   }
 3496              		.loc 1 166 0
 3497 04e4 A8F13008 		sub	r8, r8, #48
 3498              	.LVL505:
 165:..\..\..\lvgl\version_6.1.2\lvgl\src\lv_misc/lv_printf.c ****     i = i * 10U + (unsigned int)(*((*str)++) - '0');
 3499              		.loc 1 165 0
 3500 04e8 F3D9     		bls	.L399
 3501              	.LVL506:
 3502              	.LBE391:
 3503              	.LBE390:
 608:..\..\..\lvgl\version_6.1.2\lvgl\src\lv_misc/lv_printf.c ****       flags |= FLAGS_PRECISION;
 3504              		.loc 1 608 0
 3505 04ea 2E28     		cmp	r0, #46
 3506 04ec 7FF4E7AD 		bne	.L778
 3507              	.LVL507:
 3508              	.L795:
 611:..\..\..\lvgl\version_6.1.2\lvgl\src\lv_misc/lv_printf.c ****         precision = _atoi(&format);
 3509              		.loc 1 611 0
 3510 04f0 6078     		ldrb	r0, [r4, #1]	@ zero_extendqisi2
 3511 04f2 A0F13003 		sub	r3, r0, #48
 3512 04f6 092B     		cmp	r3, #9
 609:..\..\..\lvgl\version_6.1.2\lvgl\src\lv_misc/lv_printf.c ****       format++;
 3513              		.loc 1 609 0
 3514 04f8 45F48065 		orr	r5, r5, #1024
 3515              	.LVL508:
 610:..\..\..\lvgl\version_6.1.2\lvgl\src\lv_misc/lv_printf.c ****       if (_is_digit(*format)) {
 3516              		.loc 1 610 0
 3517 04fc 04F10102 		add	r2, r4, #1
 3518              	.LVL509:
 611:..\..\..\lvgl\version_6.1.2\lvgl\src\lv_misc/lv_printf.c ****         precision = _atoi(&format);
 3519              		.loc 1 611 0
 3520 0500 1FD8     		bhi	.L404
 3521 0502 1446     		mov	r4, r2
 3522 0504 4FF00009 		mov	r9, #0
 3523              	.LVL510:
 3524              	.L405:
 3525              	.LBB392:
 3526              	.LBB393:
 166:..\..\..\lvgl\version_6.1.2\lvgl\src\lv_misc/lv_printf.c ****   }
ARM GAS  C:\Users\pearlstl\AppData\Local\Temp\ccbpFzqf.s 			page 85


 3527              		.loc 1 166 0
 3528 0508 09EB8909 		add	r9, r9, r9, lsl #2
 3529 050c 00EB4909 		add	r9, r0, r9, lsl #1
 3530              	.LVL511:
 165:..\..\..\lvgl\version_6.1.2\lvgl\src\lv_misc/lv_printf.c ****     i = i * 10U + (unsigned int)(*((*str)++) - '0');
 3531              		.loc 1 165 0
 3532 0510 14F8010F 		ldrb	r0, [r4, #1]!	@ zero_extendqisi2
 3533              	.LVL512:
 3534 0514 A0F13003 		sub	r3, r0, #48
 3535 0518 092B     		cmp	r3, #9
 166:..\..\..\lvgl\version_6.1.2\lvgl\src\lv_misc/lv_printf.c ****   }
 3536              		.loc 1 166 0
 3537 051a A9F13009 		sub	r9, r9, #48
 3538              	.LVL513:
 165:..\..\..\lvgl\version_6.1.2\lvgl\src\lv_misc/lv_printf.c ****     i = i * 10U + (unsigned int)(*((*str)++) - '0');
 3539              		.loc 1 165 0
 3540 051e F3D9     		bls	.L405
 3541 0520 CFE5     		b	.L403
 3542              	.LVL514:
 3543              	.L794:
 3544              	.LBE393:
 3545              	.LBE392:
 3546              	.LBB394:
 595:..\..\..\lvgl\version_6.1.2\lvgl\src\lv_misc/lv_printf.c ****       if (w < 0) {
 3547              		.loc 1 595 0
 3548 0522 0C9A     		ldr	r2, [sp, #48]
 3549 0524 6078     		ldrb	r0, [r4, #1]	@ zero_extendqisi2
 3550 0526 1368     		ldr	r3, [r2]
 3551 0528 02F1040E 		add	lr, r2, #4
 3552              	.LVL515:
 596:..\..\..\lvgl\version_6.1.2\lvgl\src\lv_misc/lv_printf.c ****         flags |= FLAGS_LEFT;    // reverse padding
 3553              		.loc 1 596 0
 3554 052c 002B     		cmp	r3, #0
 597:..\..\..\lvgl\version_6.1.2\lvgl\src\lv_misc/lv_printf.c ****         width = (unsigned int)-w;
 3555              		.loc 1 597 0
 3556 052e BABF     		itte	lt
 3557 0530 45F00205 		orrlt	r5, r5, #2
 3558              	.LVL516:
 598:..\..\..\lvgl\version_6.1.2\lvgl\src\lv_misc/lv_printf.c ****       }
 3559              		.loc 1 598 0
 3560 0534 C3F10008 		rsblt	r8, r3, #0
 3561              	.LVL517:
 601:..\..\..\lvgl\version_6.1.2\lvgl\src\lv_misc/lv_printf.c ****       }
 3562              		.loc 1 601 0
 3563 0538 9846     		movge	r8, r3
 3564              	.LVL518:
 595:..\..\..\lvgl\version_6.1.2\lvgl\src\lv_misc/lv_printf.c ****       if (w < 0) {
 3565              		.loc 1 595 0
 3566 053a CDF830E0 		str	lr, [sp, #48]
 603:..\..\..\lvgl\version_6.1.2\lvgl\src\lv_misc/lv_printf.c ****     }
 3567              		.loc 1 603 0
 3568 053e 0134     		adds	r4, r4, #1
 3569              	.LVL519:
 3570 0540 BAE5     		b	.L400
 3571              	.LVL520:
 3572              	.L404:
 3573              	.LBE394:
ARM GAS  C:\Users\pearlstl\AppData\Local\Temp\ccbpFzqf.s 			page 86


 614:..\..\..\lvgl\version_6.1.2\lvgl\src\lv_misc/lv_printf.c ****         const int prec = (int)va_arg(va, int);
 3574              		.loc 1 614 0
 3575 0542 2A28     		cmp	r0, #42
 3576 0544 00F06F81 		beq	.L807
 610:..\..\..\lvgl\version_6.1.2\lvgl\src\lv_misc/lv_printf.c ****       if (_is_digit(*format)) {
 3577              		.loc 1 610 0
 3578 0548 1446     		mov	r4, r2
 3579 054a B8E5     		b	.L778
 3580              	.LVL521:
 3581              	.L418:
 744:..\..\..\lvgl\version_6.1.2\lvgl\src\lv_misc/lv_printf.c ****         if ((*format == 'E')||(*format == 'G')) flags |= FLAGS_UPPERCASE;
 3582              		.loc 1 744 0
 3583 054c 00F0DF03 		and	r3, r0, #223
 3584 0550 472B     		cmp	r3, #71
 745:..\..\..\lvgl\version_6.1.2\lvgl\src\lv_misc/lv_printf.c ****         idx = _etoa(out, buffer, idx, maxlen, va_arg(va, double), precision, width, flags);
 3585              		.loc 1 745 0
 3586 0552 08BF     		it	eq
 3587 0554 00F0FD00 		andeq	r0, r0, #253
 746:..\..\..\lvgl\version_6.1.2\lvgl\src\lv_misc/lv_printf.c ****         format++;
 3588              		.loc 1 746 0
 3589 0558 0C9B     		ldr	r3, [sp, #48]
 3590 055a CDF80C80 		str	r8, [sp, #12]
 744:..\..\..\lvgl\version_6.1.2\lvgl\src\lv_misc/lv_printf.c ****         if ((*format == 'E')||(*format == 'G')) flags |= FLAGS_UPPERCASE;
 3591              		.loc 1 744 0
 3592 055e 08BF     		it	eq
 3593 0560 45F40065 		orreq	r5, r5, #2048
 3594              	.LVL522:
 745:..\..\..\lvgl\version_6.1.2\lvgl\src\lv_misc/lv_printf.c ****         idx = _etoa(out, buffer, idx, maxlen, va_arg(va, double), precision, width, flags);
 3595              		.loc 1 745 0
 3596 0564 4528     		cmp	r0, #69
 3597 0566 08BF     		it	eq
 3598 0568 45F02005 		orreq	r5, r5, #32
 3599              	.LVL523:
 746:..\..\..\lvgl\version_6.1.2\lvgl\src\lv_misc/lv_printf.c ****         format++;
 3600              		.loc 1 746 0
 3601 056c 03F1070E 		add	lr, r3, #7
 3602 0570 2EF0070E 		bic	lr, lr, #7
 3603 0574 0495     		str	r5, [sp, #16]
 3604 0576 CDF80890 		str	r9, [sp, #8]
 3605 057a DEE90001 		ldrd	r0, [lr]
 3606 057e 5246     		mov	r2, r10
 3607 0580 CDE90001 		strd	r0, [sp]
 3608 0584 0EF10805 		add	r5, lr, #8
 3609              	.LVL524:
 3610 0588 5B46     		mov	r3, fp
 3611 058a 0999     		ldr	r1, [sp, #36]
 3612 058c 0898     		ldr	r0, [sp, #32]
 3613 058e 0C95     		str	r5, [sp, #48]
 3614 0590 FFF7FEFF 		bl	_etoa
 3615              	.LVL525:
 747:..\..\..\lvgl\version_6.1.2\lvgl\src\lv_misc/lv_printf.c ****         break;
 3616              		.loc 1 747 0
 3617 0594 0134     		adds	r4, r4, #1
 3618              	.LVL526:
 746:..\..\..\lvgl\version_6.1.2\lvgl\src\lv_misc/lv_printf.c ****         format++;
 3619              		.loc 1 746 0
 3620 0596 8246     		mov	r10, r0
ARM GAS  C:\Users\pearlstl\AppData\Local\Temp\ccbpFzqf.s 			page 87


 3621              	.LVL527:
 3622 0598 42E5     		b	.L388
 3623              	.LVL528:
 3624              	.L798:
 3625              	.LBB395:
 779:..\..\..\lvgl\version_6.1.2\lvgl\src\lv_misc/lv_printf.c ****             out(' ', buffer, idx++, maxlen);
 3626              		.loc 1 779 0
 3627 059a B845     		cmp	r8, r7
 3628 059c 07F10103 		add	r3, r7, #1
 3629              	.LVL529:
 3630 05a0 40F21385 		bls	.L626
 3631 05a4 5246     		mov	r2, r10
 3632 05a6 CAEB0705 		rsb	r5, r10, r7
 3633              	.LVL530:
 3634 05aa CDF83CA0 		str	r10, [sp, #60]
 3635 05ae 089E     		ldr	r6, [sp, #32]
 3636 05b0 DDF824A0 		ldr	r10, [sp, #36]
 3637 05b4 1094     		str	r4, [sp, #64]
 3638              	.LVL531:
 3639              	.L557:
 780:..\..\..\lvgl\version_6.1.2\lvgl\src\lv_misc/lv_printf.c ****           }
 3640              		.loc 1 780 0
 3641 05b6 541C     		adds	r4, r2, #1
 3642              	.LVL532:
 3643 05b8 5B46     		mov	r3, fp
 3644 05ba 5146     		mov	r1, r10
 3645 05bc 2020     		movs	r0, #32
 3646 05be B047     		blx	r6
 3647              	.LVL533:
 779:..\..\..\lvgl\version_6.1.2\lvgl\src\lv_misc/lv_printf.c ****             out(' ', buffer, idx++, maxlen);
 3648              		.loc 1 779 0
 3649 05c0 6319     		adds	r3, r4, r5
 3650 05c2 9845     		cmp	r8, r3
 780:..\..\..\lvgl\version_6.1.2\lvgl\src\lv_misc/lv_printf.c ****           }
 3651              		.loc 1 780 0
 3652 05c4 2246     		mov	r2, r4
 779:..\..\..\lvgl\version_6.1.2\lvgl\src\lv_misc/lv_printf.c ****             out(' ', buffer, idx++, maxlen);
 3653              		.loc 1 779 0
 3654 05c6 F6D8     		bhi	.L557
 3655 05c8 0C9B     		ldr	r3, [sp, #48]
 3656 05ca DDF83CA0 		ldr	r10, [sp, #60]
 3657 05ce 1878     		ldrb	r0, [r3]	@ zero_extendqisi2
 3658 05d0 109C     		ldr	r4, [sp, #64]
 3659              	.LVL534:
 3660 05d2 C244     		add	r10, r10, r8
 3661 05d4 C7EB0A0A 		rsb	r10, r7, r10
 3662 05d8 08F10107 		add	r7, r8, #1
 3663              	.LVL535:
 784:..\..\..\lvgl\version_6.1.2\lvgl\src\lv_misc/lv_printf.c ****           out(*(p++), buffer, idx++, maxlen);
 3664              		.loc 1 784 0
 3665 05dc 0028     		cmp	r0, #0
 3666 05de 3FF4A9AE 		beq	.L563
 3667              	.LVL536:
 3668              	.L792:
 3669 05e2 0D9B     		ldr	r3, [sp, #52]
 3670 05e4 0C9E     		ldr	r6, [sp, #48]
 3671 05e6 002B     		cmp	r3, #0
ARM GAS  C:\Users\pearlstl\AppData\Local\Temp\ccbpFzqf.s 			page 88


 3672 05e8 7FF476AE 		bne	.L808
 3673              	.L559:
 3674 05ec 089D     		ldr	r5, [sp, #32]
 3675 05ee DDF82490 		ldr	r9, [sp, #36]
 3676              	.LVL537:
 3677              	.L562:
 785:..\..\..\lvgl\version_6.1.2\lvgl\src\lv_misc/lv_printf.c ****         }
 3678              		.loc 1 785 0
 3679 05f2 5B46     		mov	r3, fp
 3680 05f4 5246     		mov	r2, r10
 3681 05f6 4946     		mov	r1, r9
 3682 05f8 A847     		blx	r5
 3683              	.LVL538:
 784:..\..\..\lvgl\version_6.1.2\lvgl\src\lv_misc/lv_printf.c ****           out(*(p++), buffer, idx++, maxlen);
 3684              		.loc 1 784 0
 3685 05fa 16F8010F 		ldrb	r0, [r6, #1]!	@ zero_extendqisi2
 785:..\..\..\lvgl\version_6.1.2\lvgl\src\lv_misc/lv_printf.c ****         }
 3686              		.loc 1 785 0
 3687 05fe 0AF10103 		add	r3, r10, #1
 3688              	.LVL539:
 3689 0602 9A46     		mov	r10, r3
 784:..\..\..\lvgl\version_6.1.2\lvgl\src\lv_misc/lv_printf.c ****           out(*(p++), buffer, idx++, maxlen);
 3690              		.loc 1 784 0
 3691 0604 0028     		cmp	r0, #0
 3692 0606 F4D1     		bne	.L562
 785:..\..\..\lvgl\version_6.1.2\lvgl\src\lv_misc/lv_printf.c ****         }
 3693              		.loc 1 785 0
 3694 0608 9A46     		mov	r10, r3
 3695 060a 78E6     		b	.L558
 3696              	.LVL540:
 3697              	.L546:
 3698              	.LBE395:
 3699              	.LBB396:
 760:..\..\..\lvgl\version_6.1.2\lvgl\src\lv_misc/lv_printf.c ****         // post padding
 3700              		.loc 1 760 0
 3701 060c 0C9D     		ldr	r5, [sp, #48]
 3702              	.LVL541:
 3703 060e 0999     		ldr	r1, [sp, #36]
 3704 0610 2878     		ldrb	r0, [r5]	@ zero_extendqisi2
 3705 0612 089F     		ldr	r7, [sp, #32]
 3706 0614 5B46     		mov	r3, fp
 3707 0616 5246     		mov	r2, r10
 3708 0618 B847     		blx	r7
 3709              	.LVL542:
 763:..\..\..\lvgl\version_6.1.2\lvgl\src\lv_misc/lv_printf.c ****             out(' ', buffer, idx++, maxlen);
 3710              		.loc 1 763 0
 3711 061a B8F1010F 		cmp	r8, #1
 760:..\..\..\lvgl\version_6.1.2\lvgl\src\lv_misc/lv_printf.c ****         // post padding
 3712              		.loc 1 760 0
 3713 061e 05F10406 		add	r6, r5, #4
 3714 0622 0AF10105 		add	r5, r10, #1
 3715              	.LVL543:
 763:..\..\..\lvgl\version_6.1.2\lvgl\src\lv_misc/lv_printf.c ****             out(' ', buffer, idx++, maxlen);
 3716              		.loc 1 763 0
 3717 0626 40F2D684 		bls	.L809
 3718 062a C244     		add	r10, r10, r8
 3719 062c 089F     		ldr	r7, [sp, #32]
ARM GAS  C:\Users\pearlstl\AppData\Local\Temp\ccbpFzqf.s 			page 89


 3720 062e DDF82480 		ldr	r8, [sp, #36]
 3721              	.LVL544:
 3722              	.L549:
 764:..\..\..\lvgl\version_6.1.2\lvgl\src\lv_misc/lv_printf.c ****           }
 3723              		.loc 1 764 0
 3724 0632 691C     		adds	r1, r5, #1
 3725              	.LVL545:
 3726 0634 2A46     		mov	r2, r5
 3727 0636 5B46     		mov	r3, fp
 3728 0638 0D46     		mov	r5, r1
 3729 063a 2020     		movs	r0, #32
 3730 063c 4146     		mov	r1, r8
 3731              	.LVL546:
 3732 063e B847     		blx	r7
 3733              	.LVL547:
 763:..\..\..\lvgl\version_6.1.2\lvgl\src\lv_misc/lv_printf.c ****             out(' ', buffer, idx++, maxlen);
 3734              		.loc 1 763 0
 3735 0640 5545     		cmp	r5, r10
 3736 0642 F6D1     		bne	.L549
 3737 0644 AA46     		mov	r10, r5
 760:..\..\..\lvgl\version_6.1.2\lvgl\src\lv_misc/lv_printf.c ****         // post padding
 3738              		.loc 1 760 0
 3739 0646 0C96     		str	r6, [sp, #48]
 3740              	.LVL548:
 3741 0648 3FE7     		b	.L788
 3742              	.LVL549:
 3743              	.L565:
 3744              	.LBE396:
 3745              	.LBB397:
 3746              	.LBB256:
 3747              	.LBB252:
 263:..\..\..\lvgl\version_6.1.2\lvgl\src\lv_misc/lv_printf.c ****   }
 3748              		.loc 1 263 0
 3749 064a 25F01000 		bic	r0, r5, #16
 267:..\..\..\lvgl\version_6.1.2\lvgl\src\lv_misc/lv_printf.c ****     do {
 3750              		.loc 1 267 0
 3751 064e 6905     		lsls	r1, r5, #21
 263:..\..\..\lvgl\version_6.1.2\lvgl\src\lv_misc/lv_printf.c ****   }
 3752              		.loc 1 263 0
 3753 0650 40F02100 		orr	r0, r0, #33
 3754              	.LVL550:
 267:..\..\..\lvgl\version_6.1.2\lvgl\src\lv_misc/lv_printf.c ****     do {
 3755              		.loc 1 267 0
 3756 0654 7FF5C2AD 		bpl	.L566
 259:..\..\..\lvgl\version_6.1.2\lvgl\src\lv_misc/lv_printf.c **** 
 3757              		.loc 1 259 0
 3758 0658 1146     		mov	r1, r2
 3759 065a D4E5     		b	.L567
 3760              	.LVL551:
 3761              	.L799:
 3762 065c 5346     		mov	r3, r10
 3763 065e 0C9C     		ldr	r4, [sp, #48]
 3764              	.LBE252:
 3765              	.LBE256:
 3766              	.LBE397:
 3767              	.LBB398:
 785:..\..\..\lvgl\version_6.1.2\lvgl\src\lv_misc/lv_printf.c ****         }
ARM GAS  C:\Users\pearlstl\AppData\Local\Temp\ccbpFzqf.s 			page 90


 3768              		.loc 1 785 0
 3769 0660 9A46     		mov	r10, r3
 3770              	.LVL552:
 3771 0662 4CE6     		b	.L558
 3772              	.LVL553:
 3773              	.L413:
 3774 0664 A078     		ldrb	r0, [r4, #2]	@ zero_extendqisi2
 3775              	.LBE398:
 627:..\..\..\lvgl\version_6.1.2\lvgl\src\lv_misc/lv_printf.c ****           format++;
 3776              		.loc 1 627 0
 3777 0666 45F44075 		orr	r5, r5, #768
 3778              	.LVL554:
 628:..\..\..\lvgl\version_6.1.2\lvgl\src\lv_misc/lv_printf.c ****         }
 3779              		.loc 1 628 0
 3780 066a 0234     		adds	r4, r4, #2
 3781              	.LVL555:
 3782 066c 3DE5     		b	.L406
 3783              	.LVL556:
 3784              	.L414:
 3785 066e A078     		ldrb	r0, [r4, #2]	@ zero_extendqisi2
 635:..\..\..\lvgl\version_6.1.2\lvgl\src\lv_misc/lv_printf.c ****           format++;
 3786              		.loc 1 635 0
 3787 0670 45F0C005 		orr	r5, r5, #192
 3788              	.LVL557:
 636:..\..\..\lvgl\version_6.1.2\lvgl\src\lv_misc/lv_printf.c ****         }
 3789              		.loc 1 636 0
 3790 0674 0234     		adds	r4, r4, #2
 3791              	.LVL558:
 3792 0676 38E5     		b	.L406
 3793              	.L593:
 3794              	.LBB399:
 669:..\..\..\lvgl\version_6.1.2\lvgl\src\lv_misc/lv_printf.c ****         }
 3795              		.loc 1 669 0
 3796 0678 1027     		movs	r7, #16
 3797              	.LVL559:
 3798              	.L424:
 688:..\..\..\lvgl\version_6.1.2\lvgl\src\lv_misc/lv_printf.c ****         }
 3799              		.loc 1 688 0
 3800 067a 25F00C03 		bic	r3, r5, #12
 692:..\..\..\lvgl\version_6.1.2\lvgl\src\lv_misc/lv_printf.c ****           flags &= ~FLAGS_ZEROPAD;
 3801              		.loc 1 692 0
 3802 067e 6A05     		lsls	r2, r5, #21
 688:..\..\..\lvgl\version_6.1.2\lvgl\src\lv_misc/lv_printf.c ****         }
 3803              		.loc 1 688 0
 3804 0680 0A93     		str	r3, [sp, #40]
 3805              	.LVL560:
 692:..\..\..\lvgl\version_6.1.2\lvgl\src\lv_misc/lv_printf.c ****           flags &= ~FLAGS_ZEROPAD;
 3806              		.loc 1 692 0
 3807 0682 02D5     		bpl	.L429
 3808              	.LVL561:
 3809              	.L580:
 693:..\..\..\lvgl\version_6.1.2\lvgl\src\lv_misc/lv_printf.c ****         }
 3810              		.loc 1 693 0
 3811 0684 23F00103 		bic	r3, r3, #1
 3812 0688 0A93     		str	r3, [sp, #40]
 3813              	.L429:
 697:..\..\..\lvgl\version_6.1.2\lvgl\src\lv_misc/lv_printf.c ****           // signed
ARM GAS  C:\Users\pearlstl\AppData\Local\Temp\ccbpFzqf.s 			page 91


 3814              		.loc 1 697 0
 3815 068a 6928     		cmp	r0, #105
 3816 068c 3FF46DAE 		beq	.L430
 3817 0690 6428     		cmp	r0, #100
 3818 0692 3FF46AAE 		beq	.L430
 3819              	.L431:
 716:..\..\..\lvgl\version_6.1.2\lvgl\src\lv_misc/lv_printf.c **** #if defined(PRINTF_SUPPORT_LONG_LONG)
 3820              		.loc 1 716 0
 3821 0696 0A9B     		ldr	r3, [sp, #40]
 3822 0698 9A05     		lsls	r2, r3, #22
 3823 069a 00F14082 		bmi	.L810
 721:..\..\..\lvgl\version_6.1.2\lvgl\src\lv_misc/lv_printf.c ****             idx = _ntoa_long(out, buffer, idx, maxlen, va_arg(va, unsigned long), false, base, prec
 3824              		.loc 1 721 0
 3825 069e D905     		lsls	r1, r3, #23
 722:..\..\..\lvgl\version_6.1.2\lvgl\src\lv_misc/lv_printf.c ****           }
 3826              		.loc 1 722 0
 3827 06a0 0C9A     		ldr	r2, [sp, #48]
 721:..\..\..\lvgl\version_6.1.2\lvgl\src\lv_misc/lv_printf.c ****             idx = _ntoa_long(out, buffer, idx, maxlen, va_arg(va, unsigned long), false, base, prec
 3828              		.loc 1 721 0
 3829 06a2 00F12183 		bmi	.L811
 3830              	.LBB276:
 725:..\..\..\lvgl\version_6.1.2\lvgl\src\lv_misc/lv_printf.c ****             idx = _ntoa_long(out, buffer, idx, maxlen, value, false, base, precision, width, flags)
 3831              		.loc 1 725 0
 3832 06a6 5906     		lsls	r1, r3, #25
 3833 06a8 40F10683 		bpl	.L466
 3834 06ac 1378     		ldrb	r3, [r2]	@ zero_extendqisi2
 3835 06ae 0432     		adds	r2, r2, #4
 3836 06b0 0C92     		str	r2, [sp, #48]
 3837              	.L467:
 3838              	.LVL562:
 3839              	.LBB277:
 3840              	.LBB278:
 262:..\..\..\lvgl\version_6.1.2\lvgl\src\lv_misc/lv_printf.c ****     flags &= ~FLAGS_HASH;
 3841              		.loc 1 262 0
 3842 06b2 33B9     		cbnz	r3, .L469
 263:..\..\..\lvgl\version_6.1.2\lvgl\src\lv_misc/lv_printf.c ****   }
 3843              		.loc 1 263 0
 3844 06b4 0A99     		ldr	r1, [sp, #40]
 3845 06b6 21F01002 		bic	r2, r1, #16
 3846              	.LVL563:
 3847 06ba 0A92     		str	r2, [sp, #40]
 267:..\..\..\lvgl\version_6.1.2\lvgl\src\lv_misc/lv_printf.c ****     do {
 3848              		.loc 1 267 0
 3849 06bc 4A05     		lsls	r2, r1, #21
 3850              	.LVL564:
 3851 06be 00F16A84 		bmi	.L601
 3852              	.LVL565:
 3853              	.L469:
 3854 06c2 0A9A     		ldr	r2, [sp, #40]
 3855 06c4 12F0200F 		tst	r2, #32
 3856              	.LBB279:
 270:..\..\..\lvgl\version_6.1.2\lvgl\src\lv_misc/lv_printf.c ****       value /= base;
 3857              		.loc 1 270 0
 3858 06c8 14BF     		ite	ne
 3859 06ca 3725     		movne	r5, #55
 3860 06cc 5725     		moveq	r5, #87
 3861 06ce 0DF14F00 		add	r0, sp, #79
ARM GAS  C:\Users\pearlstl\AppData\Local\Temp\ccbpFzqf.s 			page 92


 3862 06d2 0022     		movs	r2, #0
 3863 06d4 01E0     		b	.L473
 3864              	.LVL566:
 3865              	.L812:
 3866              	.LBE279:
 272:..\..\..\lvgl\version_6.1.2\lvgl\src\lv_misc/lv_printf.c ****   }
 3867              		.loc 1 272 0
 3868 06d6 202A     		cmp	r2, #32
 3869 06d8 10D0     		beq	.L470
 3870              	.LVL567:
 3871              	.L473:
 3872              	.LBB280:
 269:..\..\..\lvgl\version_6.1.2\lvgl\src\lv_misc/lv_printf.c ****       buf[len++] = digit < 10 ? '0' + digit : (flags & FLAGS_UPPERCASE ? 'A' : 'a') + digit - 10;
 3873              		.loc 1 269 0
 3874 06da B3FBF7F6 		udiv	r6, r3, r7
 3875 06de 07FB1633 		mls	r3, r7, r6, r3
 3876              	.LVL568:
 3877 06e2 D9B2     		uxtb	r1, r3
 3878              	.LVL569:
 270:..\..\..\lvgl\version_6.1.2\lvgl\src\lv_misc/lv_printf.c ****       value /= base;
 3879              		.loc 1 270 0
 3880 06e4 092B     		cmp	r3, #9
 3881 06e6 01F13003 		add	r3, r1, #48
 3882 06ea 88BF     		it	hi
 3883 06ec 4B19     		addhi	r3, r1, r5
 3884 06ee DBB2     		uxtb	r3, r3
 3885 06f0 00F8013F 		strb	r3, [r0, #1]!
 3886 06f4 0132     		adds	r2, r2, #1
 3887              	.LVL570:
 3888              	.LBE280:
 272:..\..\..\lvgl\version_6.1.2\lvgl\src\lv_misc/lv_printf.c ****   }
 3889              		.loc 1 272 0
 3890 06f6 3346     		mov	r3, r6
 3891 06f8 002E     		cmp	r6, #0
 3892 06fa ECD1     		bne	.L812
 3893              	.LVL571:
 3894              	.L470:
 275:..\..\..\lvgl\version_6.1.2\lvgl\src\lv_misc/lv_printf.c **** }
 3895              		.loc 1 275 0
 3896 06fc 0A9B     		ldr	r3, [sp, #40]
 3897              	.LVL572:
 3898 06fe 0693     		str	r3, [sp, #24]
 3899 0700 0021     		movs	r1, #0
 3900 0702 14AB     		add	r3, sp, #80
 3901 0704 CDF81480 		str	r8, [sp, #20]
 3902 0708 CDF81090 		str	r9, [sp, #16]
 3903 070c 0397     		str	r7, [sp, #12]
 3904 070e 0192     		str	r2, [sp, #4]
 3905              	.LVL573:
 3906              	.L784:
 3907 0710 5246     		mov	r2, r10
 3908 0712 0291     		str	r1, [sp, #8]
 3909              	.L783:
 3910 0714 0093     		str	r3, [sp]
 3911 0716 0999     		ldr	r1, [sp, #36]
 3912 0718 0898     		ldr	r0, [sp, #32]
 3913 071a 5B46     		mov	r3, fp
ARM GAS  C:\Users\pearlstl\AppData\Local\Temp\ccbpFzqf.s 			page 93


 3914 071c FFF7FEFF 		bl	_ntoa_format
 3915              	.LVL574:
 3916 0720 8246     		mov	r10, r0
 3917              	.LVL575:
 3918 0722 D2E6     		b	.L788
 3919              	.L833:
 3920              		.align	2
 3921              	.L832:
 3922 0724 FFFFEF7F 		.word	2146435071
 3923 0728 0C000000 		.word	.LC2
 3924 072c 14000000 		.word	.LC3
 3925              	.LVL576:
 3926              	.L612:
 3927              	.LBE278:
 3928              	.LBE277:
 3929              	.LBE276:
 3930              	.LBE399:
 3931              	.LBB400:
 3932              	.LBB377:
 3933              	.LBB352:
 3934              	.LBB343:
 3935              	.LBB328:
 3936              	.LBB326:
 3937              	.LBB324:
 180:..\..\..\lvgl\version_6.1.2\lvgl\src\lv_misc/lv_printf.c ****       out(' ', buffer, idx++, maxlen);
 3938              		.loc 1 180 0
 3939 0730 5646     		mov	r6, r10
 3940              	.LVL577:
 3941              	.L491:
 3942 0732 CDF828A0 		str	r10, [sp, #40]
 3943              	.LVL578:
 3944 0736 0D94     		str	r4, [sp, #52]
 3945 0738 DDF824A0 		ldr	r10, [sp, #36]
 3946 073c 089C     		ldr	r4, [sp, #32]
 3947 073e 9144     		add	r9, r9, r2
 3948 0740 9719     		adds	r7, r2, r6
 3949              	.LVL579:
 3950              	.L493:
 3951              	.LBE324:
 187:..\..\..\lvgl\version_6.1.2\lvgl\src\lv_misc/lv_printf.c ****   }
 3952              		.loc 1 187 0
 3953 0742 711C     		adds	r1, r6, #1
 3954              	.LVL580:
 3955 0744 3246     		mov	r2, r6
 3956 0746 5B46     		mov	r3, fp
 3957 0748 0E46     		mov	r6, r1
 3958 074a 19F8010D 		ldrb	r0, [r9, #-1]!	@ zero_extendqisi2
 3959 074e 5146     		mov	r1, r10
 3960              	.LVL581:
 3961 0750 A047     		blx	r4
 3962              	.LVL582:
 186:..\..\..\lvgl\version_6.1.2\lvgl\src\lv_misc/lv_printf.c ****     out(buf[--len], buffer, idx++, maxlen);
 3963              		.loc 1 186 0
 3964 0752 BE42     		cmp	r6, r7
 3965 0754 F5D1     		bne	.L493
 191:..\..\..\lvgl\version_6.1.2\lvgl\src\lv_misc/lv_printf.c ****     while (idx - start_idx < width) {
 3966              		.loc 1 191 0
ARM GAS  C:\Users\pearlstl\AppData\Local\Temp\ccbpFzqf.s 			page 94


 3967 0756 AD07     		lsls	r5, r5, #30
 3968              	.LVL583:
 3969 0758 DDF828A0 		ldr	r10, [sp, #40]
 3970 075c 0D9C     		ldr	r4, [sp, #52]
 3971 075e 40F16081 		bpl	.L623
 3972              	.LVL584:
 192:..\..\..\lvgl\version_6.1.2\lvgl\src\lv_misc/lv_printf.c ****       out(' ', buffer, idx++, maxlen);
 3973              		.loc 1 192 0
 3974 0762 CAEB0703 		rsb	r3, r10, r7
 3975 0766 9845     		cmp	r8, r3
 3976 0768 40F25B81 		bls	.L623
 3977 076c 089D     		ldr	r5, [sp, #32]
 3978 076e 099E     		ldr	r6, [sp, #36]
 3979              	.LVL585:
 3980              	.L495:
 193:..\..\..\lvgl\version_6.1.2\lvgl\src\lv_misc/lv_printf.c ****     }
 3981              		.loc 1 193 0
 3982 0770 791C     		adds	r1, r7, #1
 3983              	.LVL586:
 3984 0772 3A46     		mov	r2, r7
 3985 0774 5B46     		mov	r3, fp
 3986 0776 0F46     		mov	r7, r1
 3987 0778 2020     		movs	r0, #32
 3988 077a 3146     		mov	r1, r6
 3989              	.LVL587:
 3990 077c A847     		blx	r5
 3991              	.LVL588:
 192:..\..\..\lvgl\version_6.1.2\lvgl\src\lv_misc/lv_printf.c ****       out(' ', buffer, idx++, maxlen);
 3992              		.loc 1 192 0
 3993 077e CAEB0703 		rsb	r3, r10, r7
 3994 0782 9845     		cmp	r8, r3
 3995 0784 F4D8     		bhi	.L495
 3996              	.LVL589:
 193:..\..\..\lvgl\version_6.1.2\lvgl\src\lv_misc/lv_printf.c ****     }
 3997              		.loc 1 193 0
 3998 0786 BA46     		mov	r10, r7
 3999 0788 9FE6     		b	.L788
 4000              	.LVL590:
 4001              	.L806:
 4002              	.LBE326:
 4003              	.LBE328:
 4004              	.LBE343:
 4005              	.LBE352:
 4006              	.LBB353:
 4007              	.LBB354:
 178:..\..\..\lvgl\version_6.1.2\lvgl\src\lv_misc/lv_printf.c ****       size_t i;
 4008              		.loc 1 178 0
 4009 078a AB07     		lsls	r3, r5, #30
 4010 078c 1CD1     		bne	.L607
 4011              	.LVL591:
 4012              	.LBB355:
 180:..\..\..\lvgl\version_6.1.2\lvgl\src\lv_misc/lv_printf.c ****       out(' ', buffer, idx++, maxlen);
 4013              		.loc 1 180 0
 4014 078e B8F1040F 		cmp	r8, #4
 4015 0792 19D9     		bls	.L607
 4016 0794 AAF10409 		sub	r9, r10, #4
 4017 0798 08EB0903 		add	r3, r8, r9
ARM GAS  C:\Users\pearlstl\AppData\Local\Temp\ccbpFzqf.s 			page 95


 4018 079c 5246     		mov	r2, r10
 4019 079e CDF834A0 		str	r10, [sp, #52]
 4020 07a2 089F     		ldr	r7, [sp, #32]
 4021 07a4 DDF824A0 		ldr	r10, [sp, #36]
 4022 07a8 0A93     		str	r3, [sp, #40]
 4023              	.LVL592:
 4024 07aa 9946     		mov	r9, r3
 4025              	.LVL593:
 4026              	.L485:
 181:..\..\..\lvgl\version_6.1.2\lvgl\src\lv_misc/lv_printf.c ****     }
 4027              		.loc 1 181 0
 4028 07ac 561C     		adds	r6, r2, #1
 4029              	.LVL594:
 4030 07ae 5B46     		mov	r3, fp
 4031 07b0 5146     		mov	r1, r10
 4032 07b2 2020     		movs	r0, #32
 4033 07b4 B847     		blx	r7
 4034              	.LVL595:
 180:..\..\..\lvgl\version_6.1.2\lvgl\src\lv_misc/lv_printf.c ****       out(' ', buffer, idx++, maxlen);
 4035              		.loc 1 180 0
 4036 07b6 4E45     		cmp	r6, r9
 4037 07b8 3246     		mov	r2, r6
 4038 07ba F7D1     		bne	.L485
 4039 07bc DDF834A0 		ldr	r10, [sp, #52]
 4040 07c0 0A9A     		ldr	r2, [sp, #40]
 4041 07c2 04E0     		b	.L484
 4042              	.LVL596:
 4043              	.L595:
 4044              	.LBE355:
 4045              	.LBE354:
 4046              	.LBE353:
 4047              	.LBE377:
 4048              	.LBE400:
 4049              	.LBB401:
 675:..\..\..\lvgl\version_6.1.2\lvgl\src\lv_misc/lv_printf.c ****         }
 4050              		.loc 1 675 0
 4051 07c4 0227     		movs	r7, #2
 4052              	.LVL597:
 4053 07c6 58E7     		b	.L424
 4054              	.LVL598:
 4055              	.L607:
 4056              	.LBE401:
 4057              	.LBB402:
 4058              	.LBB378:
 4059              	.LBB359:
 4060              	.LBB357:
 4061              	.LBB356:
 180:..\..\..\lvgl\version_6.1.2\lvgl\src\lv_misc/lv_printf.c ****       out(' ', buffer, idx++, maxlen);
 4062              		.loc 1 180 0
 4063 07c8 CDF828A0 		str	r10, [sp, #40]
 4064              	.LVL599:
 4065 07cc 5246     		mov	r2, r10
 4066              	.L484:
 4067              	.LVL600:
 4068 07ce A24E     		ldr	r6, .L834+24
 4069 07d0 CDF834A0 		str	r10, [sp, #52]
 4070 07d4 089F     		ldr	r7, [sp, #32]
ARM GAS  C:\Users\pearlstl\AppData\Local\Temp\ccbpFzqf.s 			page 96


 4071 07d6 DDF824A0 		ldr	r10, [sp, #36]
 4072 07da 0E94     		str	r4, [sp, #56]
 4073 07dc A6F10409 		sub	r9, r6, #4
 4074              	.LVL601:
 4075              	.L486:
 4076              	.LBE356:
 187:..\..\..\lvgl\version_6.1.2\lvgl\src\lv_misc/lv_printf.c ****   }
 4077              		.loc 1 187 0
 4078 07e0 16F8010D 		ldrb	r0, [r6, #-1]!	@ zero_extendqisi2
 4079              	.LVL602:
 4080 07e4 5B46     		mov	r3, fp
 4081 07e6 5146     		mov	r1, r10
 4082 07e8 541C     		adds	r4, r2, #1
 4083              	.LVL603:
 4084 07ea B847     		blx	r7
 4085              	.LVL604:
 186:..\..\..\lvgl\version_6.1.2\lvgl\src\lv_misc/lv_printf.c ****     out(buf[--len], buffer, idx++, maxlen);
 4086              		.loc 1 186 0
 4087 07ec 4E45     		cmp	r6, r9
 187:..\..\..\lvgl\version_6.1.2\lvgl\src\lv_misc/lv_printf.c ****   }
 4088              		.loc 1 187 0
 4089 07ee 2246     		mov	r2, r4
 186:..\..\..\lvgl\version_6.1.2\lvgl\src\lv_misc/lv_printf.c ****     out(buf[--len], buffer, idx++, maxlen);
 4090              		.loc 1 186 0
 4091 07f0 F6D1     		bne	.L486
 4092 07f2 0A9A     		ldr	r2, [sp, #40]
 4093 07f4 DDF834A0 		ldr	r10, [sp, #52]
 4094 07f8 0E9C     		ldr	r4, [sp, #56]
 4095              	.LVL605:
 191:..\..\..\lvgl\version_6.1.2\lvgl\src\lv_misc/lv_printf.c ****     while (idx - start_idx < width) {
 4096              		.loc 1 191 0
 4097 07fa AF07     		lsls	r7, r5, #30
 4098 07fc 02F10402 		add	r2, r2, #4
 4099 0800 0FD5     		bpl	.L609
 4100              	.LVL606:
 192:..\..\..\lvgl\version_6.1.2\lvgl\src\lv_misc/lv_printf.c ****       out(' ', buffer, idx++, maxlen);
 4101              		.loc 1 192 0
 4102 0802 CAEB0203 		rsb	r3, r10, r2
 4103 0806 9845     		cmp	r8, r3
 4104 0808 0BD9     		bls	.L609
 4105 080a 089D     		ldr	r5, [sp, #32]
 4106              	.LVL607:
 4107 080c 099E     		ldr	r6, [sp, #36]
 4108              	.LVL608:
 4109              	.L487:
 193:..\..\..\lvgl\version_6.1.2\lvgl\src\lv_misc/lv_printf.c ****     }
 4110              		.loc 1 193 0
 4111 080e 571C     		adds	r7, r2, #1
 4112              	.LVL609:
 4113 0810 5B46     		mov	r3, fp
 4114 0812 3146     		mov	r1, r6
 4115 0814 2020     		movs	r0, #32
 4116 0816 A847     		blx	r5
 4117              	.LVL610:
 192:..\..\..\lvgl\version_6.1.2\lvgl\src\lv_misc/lv_printf.c ****       out(' ', buffer, idx++, maxlen);
 4118              		.loc 1 192 0
 4119 0818 CAEB0703 		rsb	r3, r10, r7
ARM GAS  C:\Users\pearlstl\AppData\Local\Temp\ccbpFzqf.s 			page 97


 4120 081c 9845     		cmp	r8, r3
 193:..\..\..\lvgl\version_6.1.2\lvgl\src\lv_misc/lv_printf.c ****     }
 4121              		.loc 1 193 0
 4122 081e 3A46     		mov	r2, r7
 192:..\..\..\lvgl\version_6.1.2\lvgl\src\lv_misc/lv_printf.c ****       out(' ', buffer, idx++, maxlen);
 4123              		.loc 1 192 0
 4124 0820 F5D8     		bhi	.L487
 4125              	.LVL611:
 4126              	.L609:
 187:..\..\..\lvgl\version_6.1.2\lvgl\src\lv_misc/lv_printf.c ****   }
 4127              		.loc 1 187 0
 4128 0822 9246     		mov	r10, r2
 4129              	.LVL612:
 4130 0824 51E6     		b	.L788
 4131              	.LVL613:
 4132              	.L807:
 4133              	.LBE357:
 4134              	.LBE359:
 4135              	.LBE378:
 4136              	.LBE402:
 4137              	.LBB403:
 616:..\..\..\lvgl\version_6.1.2\lvgl\src\lv_misc/lv_printf.c ****         format++;
 4138              		.loc 1 616 0
 4139 0826 0C9A     		ldr	r2, [sp, #48]
 4140              	.LVL614:
 4141 0828 A078     		ldrb	r0, [r4, #2]	@ zero_extendqisi2
 4142 082a 1368     		ldr	r3, [r2]
 4143 082c 23EAE379 		bic	r9, r3, r3, asr #31
 4144              	.LVL615:
 615:..\..\..\lvgl\version_6.1.2\lvgl\src\lv_misc/lv_printf.c ****         precision = prec > 0 ? (unsigned int)prec : 0U;
 4145              		.loc 1 615 0
 4146 0830 1346     		mov	r3, r2
 4147 0832 0433     		adds	r3, r3, #4
 4148 0834 0C93     		str	r3, [sp, #48]
 4149              	.LVL616:
 617:..\..\..\lvgl\version_6.1.2\lvgl\src\lv_misc/lv_printf.c ****       }
 4150              		.loc 1 617 0
 4151 0836 0234     		adds	r4, r4, #2
 4152              	.LVL617:
 4153 0838 43E4     		b	.L403
 4154              	.LVL618:
 4155              	.L758:
 4156              	.LBE403:
 4157              	.LBB404:
 4158              	.LBB379:
 4159              	.LBB360:
 4160              	.LBB344:
 333:..\..\..\lvgl\version_6.1.2\lvgl\src\lv_misc/lv_printf.c **** #if defined(PRINTF_SUPPORT_EXPONENTIAL)
 4161              		.loc 1 333 0
 4162 083a DDE90A67 		ldrd	r6, [sp, #40]
 4163 083e 80A3     		adr	r3, .L834
 4164 0840 D3E90023 		ldrd	r2, [r3]
 4165 0844 3046     		mov	r0, r6
 4166 0846 3946     		mov	r1, r7
 4167 0848 FFF7FEFF 		bl	__aeabi_dcmpgt
 4168              	.LVL619:
 4169 084c 0028     		cmp	r0, #0
ARM GAS  C:\Users\pearlstl\AppData\Local\Temp\ccbpFzqf.s 			page 98


 4170 084e 40F05581 		bne	.L496
 4171 0852 7DA3     		adr	r3, .L834+8
 4172 0854 D3E90023 		ldrd	r2, [r3]
 4173 0858 3046     		mov	r0, r6
 4174 085a 3946     		mov	r1, r7
 4175 085c FFF7FEFF 		bl	__aeabi_dcmplt
 4176              	.LVL620:
 4177 0860 0028     		cmp	r0, #0
 4178 0862 40F04B81 		bne	.L496
 4179              	.LVL621:
 4180 0866 3046     		mov	r0, r6
 4181 0868 3946     		mov	r1, r7
 343:..\..\..\lvgl\version_6.1.2\lvgl\src\lv_misc/lv_printf.c ****     negative = true;
 4182              		.loc 1 343 0
 4183 086a 0022     		movs	r2, #0
 4184 086c 0023     		movs	r3, #0
 4185 086e FFF7FEFF 		bl	__aeabi_dcmplt
 4186              	.LVL622:
 4187 0872 0028     		cmp	r0, #0
 4188 0874 40F09E83 		bne	.L813
 342:..\..\..\lvgl\version_6.1.2\lvgl\src\lv_misc/lv_printf.c ****   if (value < 0) {
 4189              		.loc 1 342 0
 4190 0878 1090     		str	r0, [sp, #64]
 4191              	.LVL623:
 4192              	.L499:
 349:..\..\..\lvgl\version_6.1.2\lvgl\src\lv_misc/lv_printf.c ****     prec = PRINTF_DEFAULT_FLOAT_PRECISION;
 4193              		.loc 1 349 0
 4194 087a 15F48063 		ands	r3, r5, #1024
 4195 087e 40F01A83 		bne	.L814
 4196 0882 9FED737B 		vldr.64	d7, .L834+16
 4197 0886 9946     		mov	r9, r3
 4198 0888 57EC176B 		vmov	r6, r7, d7
 350:..\..\..\lvgl\version_6.1.2\lvgl\src\lv_misc/lv_printf.c ****   }
 4199              		.loc 1 350 0
 4200 088c 0623     		movs	r3, #6
 4201 088e 0F93     		str	r3, [sp, #60]
 4202              	.LVL624:
 4203              	.L501:
 358:..\..\..\lvgl\version_6.1.2\lvgl\src\lv_misc/lv_printf.c ****   double tmp = (value - whole) * pow10[prec];
 4204              		.loc 1 358 0
 4205 0890 DDE90A01 		ldrd	r0, [sp, #40]
 4206 0894 FFF7FEFF 		bl	__aeabi_d2iz
 4207              	.LVL625:
 4208 0898 0E90     		str	r0, [sp, #56]
 4209              	.LVL626:
 359:..\..\..\lvgl\version_6.1.2\lvgl\src\lv_misc/lv_printf.c ****   unsigned long frac = (unsigned long)tmp;
 4210              		.loc 1 359 0
 4211 089a FFF7FEFF 		bl	__aeabi_i2d
 4212              	.LVL627:
 4213 089e 0246     		mov	r2, r0
 4214 08a0 0B46     		mov	r3, r1
 4215 08a2 DDE90A01 		ldrd	r0, [sp, #40]
 4216 08a6 FFF7FEFF 		bl	__aeabi_dsub
 4217              	.LVL628:
 4218 08aa 3246     		mov	r2, r6
 4219 08ac 3B46     		mov	r3, r7
 4220 08ae FFF7FEFF 		bl	__aeabi_dmul
ARM GAS  C:\Users\pearlstl\AppData\Local\Temp\ccbpFzqf.s 			page 99


 4221              	.LVL629:
 4222 08b2 CDE91201 		strd	r0, [sp, #72]
 4223              	.LVL630:
 360:..\..\..\lvgl\version_6.1.2\lvgl\src\lv_misc/lv_printf.c ****   diff = tmp - frac;
 4224              		.loc 1 360 0
 4225 08b6 FFF7FEFF 		bl	__aeabi_d2uiz
 4226              	.LVL631:
 4227 08ba 0D90     		str	r0, [sp, #52]
 4228              	.LVL632:
 361:..\..\..\lvgl\version_6.1.2\lvgl\src\lv_misc/lv_printf.c **** 
 4229              		.loc 1 361 0
 4230 08bc FFF7FEFF 		bl	__aeabi_ui2d
 4231              	.LVL633:
 4232 08c0 0246     		mov	r2, r0
 4233 08c2 0B46     		mov	r3, r1
 4234 08c4 DDE91201 		ldrd	r0, [sp, #72]
 4235 08c8 FFF7FEFF 		bl	__aeabi_dsub
 4236              	.LVL634:
 363:..\..\..\lvgl\version_6.1.2\lvgl\src\lv_misc/lv_printf.c ****     ++frac;
 4237              		.loc 1 363 0
 4238 08cc 0022     		movs	r2, #0
 4239 08ce 634B     		ldr	r3, .L834+28
 361:..\..\..\lvgl\version_6.1.2\lvgl\src\lv_misc/lv_printf.c **** 
 4240              		.loc 1 361 0
 4241 08d0 CDE91201 		strd	r0, [sp, #72]
 4242              	.LVL635:
 363:..\..\..\lvgl\version_6.1.2\lvgl\src\lv_misc/lv_printf.c ****     ++frac;
 4243              		.loc 1 363 0
 4244 08d4 FFF7FEFF 		bl	__aeabi_dcmpgt
 4245              	.LVL636:
 4246 08d8 0028     		cmp	r0, #0
 4247 08da 00F0DB82 		beq	.L762
 364:..\..\..\lvgl\version_6.1.2\lvgl\src\lv_misc/lv_printf.c ****     // handle rollover, e.g. case 0.99 with prec 1 is 1.0
 4248              		.loc 1 364 0
 4249 08de 0D9B     		ldr	r3, [sp, #52]
 4250 08e0 0133     		adds	r3, r3, #1
 366:..\..\..\lvgl\version_6.1.2\lvgl\src\lv_misc/lv_printf.c ****       frac = 0;
 4251              		.loc 1 366 0
 4252 08e2 1846     		mov	r0, r3
 364:..\..\..\lvgl\version_6.1.2\lvgl\src\lv_misc/lv_printf.c ****     // handle rollover, e.g. case 0.99 with prec 1 is 1.0
 4253              		.loc 1 364 0
 4254 08e4 0D93     		str	r3, [sp, #52]
 4255              	.LVL637:
 366:..\..\..\lvgl\version_6.1.2\lvgl\src\lv_misc/lv_printf.c ****       frac = 0;
 4256              		.loc 1 366 0
 4257 08e6 FFF7FEFF 		bl	__aeabi_ui2d
 4258              	.LVL638:
 4259 08ea 3246     		mov	r2, r6
 4260 08ec 3B46     		mov	r3, r7
 4261 08ee FFF7FEFF 		bl	__aeabi_dcmpge
 4262              	.LVL639:
 4263 08f2 0028     		cmp	r0, #0
 4264 08f4 40F02A83 		bne	.L815
 4265              	.LVL640:
 4266              	.L507:
 378:..\..\..\lvgl\version_6.1.2\lvgl\src\lv_misc/lv_printf.c ****     diff = value - (double)whole;
 4267              		.loc 1 378 0
ARM GAS  C:\Users\pearlstl\AppData\Local\Temp\ccbpFzqf.s 			page 100


 4268 08f8 0F9B     		ldr	r3, [sp, #60]
 4269 08fa 002B     		cmp	r3, #0
 4270 08fc 40F07582 		bne	.L510
 379:..\..\..\lvgl\version_6.1.2\lvgl\src\lv_misc/lv_printf.c ****     if ((!(diff < 0.5) || (diff > 0.5)) && (whole & 1)) {
 4271              		.loc 1 379 0
 4272 0900 0E98     		ldr	r0, [sp, #56]
 4273 0902 FFF7FEFF 		bl	__aeabi_i2d
 4274              	.LVL641:
 4275 0906 0246     		mov	r2, r0
 4276 0908 0B46     		mov	r3, r1
 4277 090a DDE90A01 		ldrd	r0, [sp, #40]
 4278 090e FFF7FEFF 		bl	__aeabi_dsub
 4279              	.LVL642:
 380:..\..\..\lvgl\version_6.1.2\lvgl\src\lv_misc/lv_printf.c ****       // exactly 0.5 and ODD, then round up
 4280              		.loc 1 380 0
 4281 0912 0022     		movs	r2, #0
 4282 0914 514B     		ldr	r3, .L834+28
 379:..\..\..\lvgl\version_6.1.2\lvgl\src\lv_misc/lv_printf.c ****     if ((!(diff < 0.5) || (diff > 0.5)) && (whole & 1)) {
 4283              		.loc 1 379 0
 4284 0916 0646     		mov	r6, r0
 4285 0918 0F46     		mov	r7, r1
 4286              	.LVL643:
 380:..\..\..\lvgl\version_6.1.2\lvgl\src\lv_misc/lv_printf.c ****       // exactly 0.5 and ODD, then round up
 4287              		.loc 1 380 0
 4288 091a FFF7FEFF 		bl	__aeabi_dcmplt
 4289              	.LVL644:
 4290 091e 0028     		cmp	r0, #0
 4291 0920 40F00A83 		bne	.L816
 4292              	.L511:
 4293 0924 0E9A     		ldr	r2, [sp, #56]
 4294 0926 D107     		lsls	r1, r2, #31
 4295 0928 1346     		mov	r3, r2
 4296 092a 01D5     		bpl	.L513
 383:..\..\..\lvgl\version_6.1.2\lvgl\src\lv_misc/lv_printf.c ****     }
 4297              		.loc 1 383 0
 4298 092c 0133     		adds	r3, r3, #1
 4299 092e 0E93     		str	r3, [sp, #56]
 4300              	.LVL645:
 4301              	.L513:
 407:..\..\..\lvgl\version_6.1.2\lvgl\src\lv_misc/lv_printf.c ****     buf[len++] = (char)(48 + (whole % 10));
 4302              		.loc 1 407 0
 4303 0930 B9F1200F 		cmp	r9, #32
 4304 0934 00F08882 		beq	.L526
 408:..\..\..\lvgl\version_6.1.2\lvgl\src\lv_misc/lv_printf.c ****     if (!(whole /= 10)) {
 4305              		.loc 1 408 0
 4306 0938 0E99     		ldr	r1, [sp, #56]
 4307 093a 4948     		ldr	r0, .L834+32
 4308 093c CB17     		asrs	r3, r1, #31
 4309 093e 80FB0162 		smull	r6, r2, r0, r1
 4310 0942 C3EBA202 		rsb	r2, r3, r2, asr #2
 4311 0946 02EB8203 		add	r3, r2, r2, lsl #2
 4312 094a A1EB4303 		sub	r3, r1, r3, lsl #1
 4313 094e 1CA9     		add	r1, sp, #112
 4314 0950 4944     		add	r1, r1, r9
 4315 0952 3033     		adds	r3, r3, #48
 4316 0954 01F8203C 		strb	r3, [r1, #-32]
 4317 0958 09F10107 		add	r7, r9, #1
ARM GAS  C:\Users\pearlstl\AppData\Local\Temp\ccbpFzqf.s 			page 101


 4318              	.LVL646:
 409:..\..\..\lvgl\version_6.1.2\lvgl\src\lv_misc/lv_printf.c ****       break;
 4319              		.loc 1 409 0
 4320 095c AAB1     		cbz	r2, .L523
 4321 095e 14AB     		add	r3, sp, #80
 4322 0960 9944     		add	r9, r9, r3
 4323              	.L524:
 408:..\..\..\lvgl\version_6.1.2\lvgl\src\lv_misc/lv_printf.c ****     if (!(whole /= 10)) {
 4324              		.loc 1 408 0
 4325 0962 80FB0231 		smull	r3, r1, r0, r2
 4326 0966 D317     		asrs	r3, r2, #31
 4327 0968 C3EBA103 		rsb	r3, r3, r1, asr #2
 4328 096c 03EB8301 		add	r1, r3, r3, lsl #2
 4329 0970 A2EB4102 		sub	r2, r2, r1, lsl #1
 4330              	.LVL647:
 407:..\..\..\lvgl\version_6.1.2\lvgl\src\lv_misc/lv_printf.c ****     buf[len++] = (char)(48 + (whole % 10));
 4331              		.loc 1 407 0
 4332 0974 202F     		cmp	r7, #32
 408:..\..\..\lvgl\version_6.1.2\lvgl\src\lv_misc/lv_printf.c ****     if (!(whole /= 10)) {
 4333              		.loc 1 408 0
 4334 0976 02F13002 		add	r2, r2, #48
 407:..\..\..\lvgl\version_6.1.2\lvgl\src\lv_misc/lv_printf.c ****     buf[len++] = (char)(48 + (whole % 10));
 4335              		.loc 1 407 0
 4336 097a 00F06582 		beq	.L526
 408:..\..\..\lvgl\version_6.1.2\lvgl\src\lv_misc/lv_printf.c ****     if (!(whole /= 10)) {
 4337              		.loc 1 408 0
 4338 097e 09F8012F 		strb	r2, [r9, #1]!
 4339 0982 0137     		adds	r7, r7, #1
 4340              	.LVL648:
 409:..\..\..\lvgl\version_6.1.2\lvgl\src\lv_misc/lv_printf.c ****       break;
 4341              		.loc 1 409 0
 4342 0984 1A46     		mov	r2, r3
 4343 0986 002B     		cmp	r3, #0
 4344 0988 EBD1     		bne	.L524
 4345              	.LVL649:
 4346              	.L523:
 415:..\..\..\lvgl\version_6.1.2\lvgl\src\lv_misc/lv_printf.c ****     if (width && (negative || (flags & (FLAGS_PLUS | FLAGS_SPACE)))) {
 4347              		.loc 1 415 0
 4348 098a 05F00303 		and	r3, r5, #3
 4349 098e 012B     		cmp	r3, #1
 4350 0990 00F06283 		beq	.L817
 424:..\..\..\lvgl\version_6.1.2\lvgl\src\lv_misc/lv_printf.c ****     if (negative) {
 4351              		.loc 1 424 0
 4352 0994 202F     		cmp	r7, #32
 4353 0996 09D0     		beq	.L535
 4354              	.LVL650:
 4355              	.L582:
 425:..\..\..\lvgl\version_6.1.2\lvgl\src\lv_misc/lv_printf.c ****       buf[len++] = '-';
 4356              		.loc 1 425 0
 4357 0998 109A     		ldr	r2, [sp, #64]
 4358 099a 002A     		cmp	r2, #0
 4359 099c 00F02283 		beq	.L536
 426:..\..\..\lvgl\version_6.1.2\lvgl\src\lv_misc/lv_printf.c ****     }
 4360              		.loc 1 426 0
 4361 09a0 1CAA     		add	r2, sp, #112
 4362 09a2 3A44     		add	r2, r2, r7
 4363 09a4 2D21     		movs	r1, #45
ARM GAS  C:\Users\pearlstl\AppData\Local\Temp\ccbpFzqf.s 			page 102


 4364 09a6 0137     		adds	r7, r7, #1
 4365              	.LVL651:
 4366 09a8 02F8201C 		strb	r1, [r2, #-32]
 4367              	.L535:
 4368              	.LVL652:
 4369              	.LBB329:
 4370              	.LBB330:
 178:..\..\..\lvgl\version_6.1.2\lvgl\src\lv_misc/lv_printf.c ****       size_t i;
 4371              		.loc 1 178 0
 4372 09ac 002B     		cmp	r3, #0
 4373 09ae 00F05482 		beq	.L587
 4374              	.LVL653:
 4375              	.L532:
 4376              	.LBE330:
 4377              	.LBE329:
 419:..\..\..\lvgl\version_6.1.2\lvgl\src\lv_misc/lv_printf.c ****       buf[len++] = '0';
 4378              		.loc 1 419 0
 4379 09b2 5646     		mov	r6, r10
 4380 09b4 14AB     		add	r3, sp, #80
 4381 09b6 05E0     		b	.L534
 4382              	.LVL654:
 4383              	.L538:
 4384              	.LBB337:
 4385              	.LBB333:
 178:..\..\..\lvgl\version_6.1.2\lvgl\src\lv_misc/lv_printf.c ****       size_t i;
 4386              		.loc 1 178 0
 4387 09b8 002B     		cmp	r3, #0
 4388 09ba 00F04E82 		beq	.L587
 4389              	.LVL655:
 4390              	.L621:
 4391              	.LBB331:
 180:..\..\..\lvgl\version_6.1.2\lvgl\src\lv_misc/lv_printf.c ****       out(' ', buffer, idx++, maxlen);
 4392              		.loc 1 180 0
 4393 09be 5646     		mov	r6, r10
 4394              	.LVL656:
 4395              	.L539:
 4396              	.LBE331:
 186:..\..\..\lvgl\version_6.1.2\lvgl\src\lv_misc/lv_printf.c ****     out(buf[--len], buffer, idx++, maxlen);
 4397              		.loc 1 186 0
 4398 09c0 E7B1     		cbz	r7, .L541
 4399 09c2 14AB     		add	r3, sp, #80
 4400              	.LVL657:
 4401              	.L534:
 4402 09c4 3B44     		add	r3, r3, r7
 4403              	.LBE333:
 4404              	.LBE337:
 419:..\..\..\lvgl\version_6.1.2\lvgl\src\lv_misc/lv_printf.c ****       buf[len++] = '0';
 4405              		.loc 1 419 0
 4406 09c6 CDF828A0 		str	r10, [sp, #40]
 4407 09ca DDF82090 		ldr	r9, [sp, #32]
 4408 09ce DDF824A0 		ldr	r10, [sp, #36]
 4409 09d2 0D94     		str	r4, [sp, #52]
 4410 09d4 0E95     		str	r5, [sp, #56]
 4411 09d6 3246     		mov	r2, r6
 4412 09d8 0F96     		str	r6, [sp, #60]
 4413 09da 1D46     		mov	r5, r3
 4414              	.LVL658:
ARM GAS  C:\Users\pearlstl\AppData\Local\Temp\ccbpFzqf.s 			page 103


 4415 09dc 3C46     		mov	r4, r7
 4416              	.LVL659:
 4417              	.L542:
 4418              	.LBB338:
 4419              	.LBB334:
 187:..\..\..\lvgl\version_6.1.2\lvgl\src\lv_misc/lv_printf.c ****   }
 4420              		.loc 1 187 0
 4421 09de 561C     		adds	r6, r2, #1
 4422 09e0 5B46     		mov	r3, fp
 4423 09e2 5146     		mov	r1, r10
 4424 09e4 15F8010D 		ldrb	r0, [r5, #-1]!	@ zero_extendqisi2
 4425 09e8 013C     		subs	r4, r4, #1
 4426              	.LVL660:
 4427 09ea C847     		blx	r9
 4428              	.LVL661:
 4429 09ec 3246     		mov	r2, r6
 186:..\..\..\lvgl\version_6.1.2\lvgl\src\lv_misc/lv_printf.c ****     out(buf[--len], buffer, idx++, maxlen);
 4430              		.loc 1 186 0
 4431 09ee 002C     		cmp	r4, #0
 4432 09f0 F5D1     		bne	.L542
 4433 09f2 0DAC     		add	r4, sp, #52
 4434              	.LVL662:
 4435 09f4 70CC     		ldmia	r4, {r4, r5, r6}
 4436              	.LVL663:
 4437 09f6 DDF828A0 		ldr	r10, [sp, #40]
 4438 09fa 3E44     		add	r6, r6, r7
 4439              	.LVL664:
 4440              	.L541:
 191:..\..\..\lvgl\version_6.1.2\lvgl\src\lv_misc/lv_printf.c ****     while (idx - start_idx < width) {
 4441              		.loc 1 191 0
 4442 09fc AD07     		lsls	r5, r5, #30
 4443 09fe 10D5     		bpl	.L623
 4444              	.LVL665:
 192:..\..\..\lvgl\version_6.1.2\lvgl\src\lv_misc/lv_printf.c ****       out(' ', buffer, idx++, maxlen);
 4445              		.loc 1 192 0
 4446 0a00 CAEB0603 		rsb	r3, r10, r6
 4447 0a04 9845     		cmp	r8, r3
 4448 0a06 0CD9     		bls	.L623
 4449 0a08 089D     		ldr	r5, [sp, #32]
 4450 0a0a 099F     		ldr	r7, [sp, #36]
 4451              	.LVL666:
 4452              	.L543:
 193:..\..\..\lvgl\version_6.1.2\lvgl\src\lv_misc/lv_printf.c ****     }
 4453              		.loc 1 193 0
 4454 0a0c 711C     		adds	r1, r6, #1
 4455              	.LVL667:
 4456 0a0e 3246     		mov	r2, r6
 4457 0a10 5B46     		mov	r3, fp
 4458 0a12 0E46     		mov	r6, r1
 4459 0a14 2020     		movs	r0, #32
 4460 0a16 3946     		mov	r1, r7
 4461              	.LVL668:
 4462 0a18 A847     		blx	r5
 4463              	.LVL669:
 192:..\..\..\lvgl\version_6.1.2\lvgl\src\lv_misc/lv_printf.c ****       out(' ', buffer, idx++, maxlen);
 4464              		.loc 1 192 0
 4465 0a1a CAEB0603 		rsb	r3, r10, r6
ARM GAS  C:\Users\pearlstl\AppData\Local\Temp\ccbpFzqf.s 			page 104


 4466 0a1e 9845     		cmp	r8, r3
 4467 0a20 F4D8     		bhi	.L543
 4468              	.LVL670:
 4469              	.L623:
 4470 0a22 B246     		mov	r10, r6
 4471              	.LVL671:
 4472 0a24 51E5     		b	.L788
 4473              	.LVL672:
 4474              	.L425:
 4475 0a26 25F00C03 		bic	r3, r5, #12
 4476              	.LBE334:
 4477              	.LBE338:
 4478              	.LBE344:
 4479              	.LBE360:
 4480              	.LBE379:
 4481              	.LBE404:
 4482              	.LBB405:
 688:..\..\..\lvgl\version_6.1.2\lvgl\src\lv_misc/lv_printf.c ****         }
 4483              		.loc 1 688 0
 4484 0a2a 43F02003 		orr	r3, r3, #32
 692:..\..\..\lvgl\version_6.1.2\lvgl\src\lv_misc/lv_printf.c ****           flags &= ~FLAGS_ZEROPAD;
 4485              		.loc 1 692 0
 4486 0a2e 6A05     		lsls	r2, r5, #21
 688:..\..\..\lvgl\version_6.1.2\lvgl\src\lv_misc/lv_printf.c ****         }
 4487              		.loc 1 688 0
 4488 0a30 0A93     		str	r3, [sp, #40]
 4489              	.LVL673:
 669:..\..\..\lvgl\version_6.1.2\lvgl\src\lv_misc/lv_printf.c ****         }
 4490              		.loc 1 669 0
 4491 0a32 4FF01007 		mov	r7, #16
 692:..\..\..\lvgl\version_6.1.2\lvgl\src\lv_misc/lv_printf.c ****           flags &= ~FLAGS_ZEROPAD;
 4492              		.loc 1 692 0
 4493 0a36 3FF525AE 		bmi	.L580
 4494 0a3a 2CE6     		b	.L431
 4495              	.L835:
 4496 0a3c AFF30080 		.align	3
 4497              	.L834:
 4498 0a40 00000000 		.word	0
 4499 0a44 65CDCD41 		.word	1104006501
 4500 0a48 00000000 		.word	0
 4501 0a4c 65CDCDC1 		.word	-1043477147
 4502 0a50 00000000 		.word	0
 4503 0a54 80842E41 		.word	1093567616
 4504 0a58 04000000 		.word	.LC1+4
 4505 0a5c 0000E03F 		.word	1071644672
 4506 0a60 67666666 		.word	1717986919
 4507              	.LVL674:
 4508              	.L805:
 4509              	.LBE405:
 4510              	.LBB406:
 4511              	.LBB380:
 4512              	.LBB361:
 4513              	.LBB362:
 178:..\..\..\lvgl\version_6.1.2\lvgl\src\lv_misc/lv_printf.c ****       size_t i;
 4514              		.loc 1 178 0
 4515 0a64 A807     		lsls	r0, r5, #30
 4516 0a66 40F03B81 		bne	.L603
ARM GAS  C:\Users\pearlstl\AppData\Local\Temp\ccbpFzqf.s 			page 105


 4517              	.LVL675:
 4518              	.LBB363:
 180:..\..\..\lvgl\version_6.1.2\lvgl\src\lv_misc/lv_printf.c ****       out(' ', buffer, idx++, maxlen);
 4519              		.loc 1 180 0
 4520 0a6a B8F1030F 		cmp	r8, #3
 4521 0a6e 40F23781 		bls	.L603
 4522 0a72 AAF10306 		sub	r6, r10, #3
 4523 0a76 08EB0603 		add	r3, r8, r6
 4524 0a7a 5246     		mov	r2, r10
 4525 0a7c CDF834A0 		str	r10, [sp, #52]
 4526 0a80 089F     		ldr	r7, [sp, #32]
 4527 0a82 DDF824A0 		ldr	r10, [sp, #36]
 4528 0a86 0A93     		str	r3, [sp, #40]
 4529              	.LVL676:
 4530 0a88 9946     		mov	r9, r3
 4531              	.LVL677:
 4532              	.L478:
 181:..\..\..\lvgl\version_6.1.2\lvgl\src\lv_misc/lv_printf.c ****     }
 4533              		.loc 1 181 0
 4534 0a8a 561C     		adds	r6, r2, #1
 4535              	.LVL678:
 4536 0a8c 5B46     		mov	r3, fp
 4537 0a8e 5146     		mov	r1, r10
 4538 0a90 2020     		movs	r0, #32
 4539 0a92 B847     		blx	r7
 4540              	.LVL679:
 180:..\..\..\lvgl\version_6.1.2\lvgl\src\lv_misc/lv_printf.c ****       out(' ', buffer, idx++, maxlen);
 4541              		.loc 1 180 0
 4542 0a94 4E45     		cmp	r6, r9
 4543 0a96 3246     		mov	r2, r6
 4544 0a98 F7D1     		bne	.L478
 4545 0a9a DDF834A0 		ldr	r10, [sp, #52]
 4546 0a9e 0A9A     		ldr	r2, [sp, #40]
 4547              	.LVL680:
 4548              	.L477:
 4549 0aa0 BA4F     		ldr	r7, .L836
 4550 0aa2 CDF834A0 		str	r10, [sp, #52]
 4551 0aa6 089E     		ldr	r6, [sp, #32]
 4552 0aa8 DDF824A0 		ldr	r10, [sp, #36]
 4553 0aac 0E94     		str	r4, [sp, #56]
 4554 0aae A7F10309 		sub	r9, r7, #3
 4555              	.LVL681:
 4556              	.L479:
 4557              	.LBE363:
 187:..\..\..\lvgl\version_6.1.2\lvgl\src\lv_misc/lv_printf.c ****   }
 4558              		.loc 1 187 0
 4559 0ab2 17F8010D 		ldrb	r0, [r7, #-1]!	@ zero_extendqisi2
 4560              	.LVL682:
 4561 0ab6 5B46     		mov	r3, fp
 4562 0ab8 5146     		mov	r1, r10
 4563 0aba 541C     		adds	r4, r2, #1
 4564              	.LVL683:
 4565 0abc B047     		blx	r6
 4566              	.LVL684:
 186:..\..\..\lvgl\version_6.1.2\lvgl\src\lv_misc/lv_printf.c ****     out(buf[--len], buffer, idx++, maxlen);
 4567              		.loc 1 186 0
 4568 0abe 4F45     		cmp	r7, r9
ARM GAS  C:\Users\pearlstl\AppData\Local\Temp\ccbpFzqf.s 			page 106


 187:..\..\..\lvgl\version_6.1.2\lvgl\src\lv_misc/lv_printf.c ****   }
 4569              		.loc 1 187 0
 4570 0ac0 2246     		mov	r2, r4
 186:..\..\..\lvgl\version_6.1.2\lvgl\src\lv_misc/lv_printf.c ****     out(buf[--len], buffer, idx++, maxlen);
 4571              		.loc 1 186 0
 4572 0ac2 F6D1     		bne	.L479
 4573 0ac4 0A9A     		ldr	r2, [sp, #40]
 4574 0ac6 DDF834A0 		ldr	r10, [sp, #52]
 4575 0aca 0E9C     		ldr	r4, [sp, #56]
 4576              	.LVL685:
 191:..\..\..\lvgl\version_6.1.2\lvgl\src\lv_misc/lv_printf.c ****     while (idx - start_idx < width) {
 4577              		.loc 1 191 0
 4578 0acc A907     		lsls	r1, r5, #30
 4579 0ace 02F10302 		add	r2, r2, #3
 4580 0ad2 7FF5A6AE 		bpl	.L609
 4581              	.LVL686:
 192:..\..\..\lvgl\version_6.1.2\lvgl\src\lv_misc/lv_printf.c ****       out(' ', buffer, idx++, maxlen);
 4582              		.loc 1 192 0
 4583 0ad6 CAEB0203 		rsb	r3, r10, r2
 4584 0ada 9845     		cmp	r8, r3
 4585 0adc 7FF6A1AE 		bls	.L609
 4586 0ae0 089D     		ldr	r5, [sp, #32]
 4587              	.LVL687:
 4588 0ae2 099E     		ldr	r6, [sp, #36]
 4589              	.LVL688:
 4590              	.L481:
 193:..\..\..\lvgl\version_6.1.2\lvgl\src\lv_misc/lv_printf.c ****     }
 4591              		.loc 1 193 0
 4592 0ae4 571C     		adds	r7, r2, #1
 4593              	.LVL689:
 4594 0ae6 5B46     		mov	r3, fp
 4595 0ae8 3146     		mov	r1, r6
 4596 0aea 2020     		movs	r0, #32
 4597 0aec A847     		blx	r5
 4598              	.LVL690:
 192:..\..\..\lvgl\version_6.1.2\lvgl\src\lv_misc/lv_printf.c ****       out(' ', buffer, idx++, maxlen);
 4599              		.loc 1 192 0
 4600 0aee CAEB0703 		rsb	r3, r10, r7
 4601 0af2 9845     		cmp	r8, r3
 193:..\..\..\lvgl\version_6.1.2\lvgl\src\lv_misc/lv_printf.c ****     }
 4602              		.loc 1 193 0
 4603 0af4 3A46     		mov	r2, r7
 192:..\..\..\lvgl\version_6.1.2\lvgl\src\lv_misc/lv_printf.c ****       out(' ', buffer, idx++, maxlen);
 4604              		.loc 1 192 0
 4605 0af6 F5D8     		bhi	.L481
 4606              	.LVL691:
 4607              	.LBE362:
 4608              	.LBE361:
 4609              	.LBB366:
 4610              	.LBB358:
 187:..\..\..\lvgl\version_6.1.2\lvgl\src\lv_misc/lv_printf.c ****   }
 4611              		.loc 1 187 0
 4612 0af8 9246     		mov	r10, r2
 4613              	.LVL692:
 4614 0afa E6E4     		b	.L788
 4615              	.LVL693:
 4616              	.L496:
ARM GAS  C:\Users\pearlstl\AppData\Local\Temp\ccbpFzqf.s 			page 107


 4617              	.LBE358:
 4618              	.LBE366:
 4619              	.LBB367:
 4620              	.LBB345:
 335:..\..\..\lvgl\version_6.1.2\lvgl\src\lv_misc/lv_printf.c **** #else
 4621              		.loc 1 335 0
 4622 0afc 9DED0A7B 		vldr.64	d7, [sp, #40]
 4623 0b00 5246     		mov	r2, r10
 4624 0b02 0495     		str	r5, [sp, #16]
 4625 0b04 CDF80C80 		str	r8, [sp, #12]
 4626 0b08 CDF80890 		str	r9, [sp, #8]
 4627 0b0c 8DED007B 		vstr.64	d7, [sp]
 4628 0b10 5B46     		mov	r3, fp
 4629 0b12 0999     		ldr	r1, [sp, #36]
 4630 0b14 0898     		ldr	r0, [sp, #32]
 4631 0b16 FFF7FEFF 		bl	_etoa
 4632              	.LVL694:
 4633 0b1a 8246     		mov	r10, r0
 4634 0b1c D5E4     		b	.L788
 4635              	.LVL695:
 4636              	.L810:
 4637              	.LBE345:
 4638              	.LBE367:
 4639              	.LBE380:
 4640              	.LBE406:
 4641              	.LBB407:
 718:..\..\..\lvgl\version_6.1.2\lvgl\src\lv_misc/lv_printf.c **** #endif
 4642              		.loc 1 718 0
 4643 0b1e 0C9B     		ldr	r3, [sp, #48]
 4644 0b20 03F1070E 		add	lr, r3, #7
 4645 0b24 2EF0070E 		bic	lr, lr, #7
 4646 0b28 DEE90023 		ldrd	r2, [lr]
 4647 0b2c 1146     		mov	r1, r2
 4648 0b2e 1A46     		mov	r2, r3
 4649 0b30 0EF10803 		add	r3, lr, #8
 4650 0b34 CDE91012 		strd	r1, [sp, #64]
 4651 0b38 0C93     		str	r3, [sp, #48]
 4652              	.LVL696:
 4653              	.LBB283:
 4654              	.LBB284:
 287:..\..\..\lvgl\version_6.1.2\lvgl\src\lv_misc/lv_printf.c ****     flags &= ~FLAGS_HASH;
 4655              		.loc 1 287 0
 4656 0b3a 1346     		mov	r3, r2
 4657 0b3c 0A46     		mov	r2, r1
 4658 0b3e 1343     		orrs	r3, r2, r3
 4659 0b40 06D1     		bne	.L455
 288:..\..\..\lvgl\version_6.1.2\lvgl\src\lv_misc/lv_printf.c ****   }
 4660              		.loc 1 288 0
 4661 0b42 0A9A     		ldr	r2, [sp, #40]
 4662 0b44 22F01003 		bic	r3, r2, #16
 4663              	.LVL697:
 292:..\..\..\lvgl\version_6.1.2\lvgl\src\lv_misc/lv_printf.c ****     do {
 4664              		.loc 1 292 0
 4665 0b48 5005     		lsls	r0, r2, #21
 288:..\..\..\lvgl\version_6.1.2\lvgl\src\lv_misc/lv_printf.c ****   }
 4666              		.loc 1 288 0
 4667 0b4a 0A93     		str	r3, [sp, #40]
ARM GAS  C:\Users\pearlstl\AppData\Local\Temp\ccbpFzqf.s 			page 108


 292:..\..\..\lvgl\version_6.1.2\lvgl\src\lv_misc/lv_printf.c ****     do {
 4668              		.loc 1 292 0
 4669 0b4c 00F12182 		bmi	.L599
 4670              	.LVL698:
 4671              	.L455:
 4672 0b50 0A9B     		ldr	r3, [sp, #40]
 4673              	.LBB285:
 295:..\..\..\lvgl\version_6.1.2\lvgl\src\lv_misc/lv_printf.c ****       value /= base;
 4674              		.loc 1 295 0
 4675 0b52 CDF834A0 		str	r10, [sp, #52]
 4676 0b56 13F0200F 		tst	r3, #32
 4677 0b5a 4FF00005 		mov	r5, #0
 4678 0b5e 14BF     		ite	ne
 4679 0b60 3723     		movne	r3, #55
 4680 0b62 5723     		moveq	r3, #87
 4681 0b64 0E94     		str	r4, [sp, #56]
 4682 0b66 CDF83C80 		str	r8, [sp, #60]
 4683 0b6a 0DF14F06 		add	r6, sp, #79
 4684 0b6e A846     		mov	r8, r5
 4685 0b70 9A46     		mov	r10, r3
 4686 0b72 DDE91045 		ldrd	r4, [sp, #64]
 4687              	.LVL699:
 4688 0b76 02E0     		b	.L459
 4689              	.LVL700:
 4690              	.L818:
 4691              	.LBE285:
 297:..\..\..\lvgl\version_6.1.2\lvgl\src\lv_misc/lv_printf.c ****   }
 4692              		.loc 1 297 0
 4693 0b78 B8F1200F 		cmp	r8, #32
 4694 0b7c 21D0     		beq	.L771
 4695              	.LVL701:
 4696              	.L459:
 4697              	.LBB286:
 294:..\..\..\lvgl\version_6.1.2\lvgl\src\lv_misc/lv_printf.c ****       buf[len++] = digit < 10 ? '0' + digit : (flags & FLAGS_UPPERCASE ? 'A' : 'a') + digit - 10;
 4698              		.loc 1 294 0
 4699 0b7e 2046     		mov	r0, r4
 4700 0b80 2946     		mov	r1, r5
 4701 0b82 3A46     		mov	r2, r7
 4702 0b84 0023     		movs	r3, #0
 4703 0b86 FFF7FEFF 		bl	__aeabi_uldivmod
 4704              	.LVL702:
 4705 0b8a 1946     		mov	r1, r3
 295:..\..\..\lvgl\version_6.1.2\lvgl\src\lv_misc/lv_printf.c ****       value /= base;
 4706              		.loc 1 295 0
 4707 0b8c 0029     		cmp	r1, #0
 4708 0b8e 08BF     		it	eq
 4709 0b90 0A2A     		cmpeq	r2, #10
 294:..\..\..\lvgl\version_6.1.2\lvgl\src\lv_misc/lv_printf.c ****       buf[len++] = digit < 10 ? '0' + digit : (flags & FLAGS_UPPERCASE ? 'A' : 'a') + digit - 10;
 4710              		.loc 1 294 0
 4711 0b92 D3B2     		uxtb	r3, r2
 4712              	.LVL703:
 295:..\..\..\lvgl\version_6.1.2\lvgl\src\lv_misc/lv_printf.c ****       value /= base;
 4713              		.loc 1 295 0
 4714 0b94 03F1300E 		add	lr, r3, #48
 4715 0b98 26BF     		itte	cs
 4716 0b9a 5344     		addcs	r3, r3, r10
 4717              	.LVL704:
ARM GAS  C:\Users\pearlstl\AppData\Local\Temp\ccbpFzqf.s 			page 109


 4718 0b9c 5FFA83FE 		uxtbcs	lr, r3
 4719              	.LVL705:
 4720 0ba0 5FFA8EFE 		uxtbcc	lr, lr
 296:..\..\..\lvgl\version_6.1.2\lvgl\src\lv_misc/lv_printf.c ****     } while (value && (len < PRINTF_NTOA_BUFFER_SIZE));
 4721              		.loc 1 296 0
 4722 0ba4 0023     		movs	r3, #0
 4723 0ba6 2046     		mov	r0, r4
 4724 0ba8 2946     		mov	r1, r5
 4725 0baa 3A46     		mov	r2, r7
 4726              	.LVL706:
 295:..\..\..\lvgl\version_6.1.2\lvgl\src\lv_misc/lv_printf.c ****       value /= base;
 4727              		.loc 1 295 0
 4728 0bac 06F801EF 		strb	lr, [r6, #1]!
 296:..\..\..\lvgl\version_6.1.2\lvgl\src\lv_misc/lv_printf.c ****     } while (value && (len < PRINTF_NTOA_BUFFER_SIZE));
 4729              		.loc 1 296 0
 4730 0bb0 FFF7FEFF 		bl	__aeabi_uldivmod
 4731              	.LVL707:
 4732 0bb4 0446     		mov	r4, r0
 4733              	.LVL708:
 4734 0bb6 0D46     		mov	r5, r1
 4735              	.LBE286:
 297:..\..\..\lvgl\version_6.1.2\lvgl\src\lv_misc/lv_printf.c ****   }
 4736              		.loc 1 297 0
 4737 0bb8 54EA0503 		orrs	r3, r4, r5
 4738              	.LBB287:
 295:..\..\..\lvgl\version_6.1.2\lvgl\src\lv_misc/lv_printf.c ****       value /= base;
 4739              		.loc 1 295 0
 4740 0bbc 08F10108 		add	r8, r8, #1
 4741              	.LVL709:
 4742              	.LBE287:
 297:..\..\..\lvgl\version_6.1.2\lvgl\src\lv_misc/lv_printf.c ****   }
 4743              		.loc 1 297 0
 4744 0bc0 DAD1     		bne	.L818
 4745              	.L771:
 4746 0bc2 4546     		mov	r5, r8
 4747 0bc4 DDF834A0 		ldr	r10, [sp, #52]
 4748 0bc8 0E9C     		ldr	r4, [sp, #56]
 4749              	.LVL710:
 4750 0bca DDF83C80 		ldr	r8, [sp, #60]
 4751              	.LVL711:
 4752 0bce 0A9B     		ldr	r3, [sp, #40]
 4753              	.LVL712:
 4754              	.L456:
 300:..\..\..\lvgl\version_6.1.2\lvgl\src\lv_misc/lv_printf.c **** }
 4755              		.loc 1 300 0
 4756 0bd0 0693     		str	r3, [sp, #24]
 4757 0bd2 0021     		movs	r1, #0
 4758 0bd4 14AB     		add	r3, sp, #80
 4759 0bd6 CDF81480 		str	r8, [sp, #20]
 4760 0bda CDF81090 		str	r9, [sp, #16]
 4761 0bde 0397     		str	r7, [sp, #12]
 4762 0be0 0195     		str	r5, [sp, #4]
 4763 0be2 95E5     		b	.L784
 4764              	.LVL713:
 4765              	.L594:
 4766              	.LBE284:
 4767              	.LBE283:
ARM GAS  C:\Users\pearlstl\AppData\Local\Temp\ccbpFzqf.s 			page 110


 672:..\..\..\lvgl\version_6.1.2\lvgl\src\lv_misc/lv_printf.c ****         }
 4768              		.loc 1 672 0
 4769 0be4 0827     		movs	r7, #8
 4770 0be6 48E5     		b	.L424
 4771              	.LVL714:
 4772              	.L802:
 4773              	.LBB289:
 701:..\..\..\lvgl\version_6.1.2\lvgl\src\lv_misc/lv_printf.c ****             idx = _ntoa_long_long(out, buffer, idx, maxlen, (unsigned long long)(value > 0 ? value 
 4774              		.loc 1 701 0
 4775 0be8 0C9B     		ldr	r3, [sp, #48]
 4776 0bea 03F1070E 		add	lr, r3, #7
 4777 0bee 2EF0070E 		bic	lr, lr, #7
 4778 0bf2 0EF10800 		add	r0, lr, #8
 702:..\..\..\lvgl\version_6.1.2\lvgl\src\lv_misc/lv_printf.c **** #endif
 4779              		.loc 1 702 0
 4780 0bf6 DEF80020 		ldr	r2, [lr]
 701:..\..\..\lvgl\version_6.1.2\lvgl\src\lv_misc/lv_printf.c ****             idx = _ntoa_long_long(out, buffer, idx, maxlen, (unsigned long long)(value > 0 ? value 
 4781              		.loc 1 701 0
 4782 0bfa DEF80410 		ldr	r1, [lr, #4]
 4783 0bfe 0C90     		str	r0, [sp, #48]
 702:..\..\..\lvgl\version_6.1.2\lvgl\src\lv_misc/lv_printf.c **** #endif
 4784              		.loc 1 702 0
 4785 0c00 002A     		cmp	r2, #0
 4786 0c02 71F10000 		sbcs	r0, r1, #0
 4787 0c06 0B46     		mov	r3, r1
 4788              	.LVL715:
 4789 0c08 C0F21882 		blt	.L819
 4790              	.L433:
 4791 0c0c 1E46     		mov	r6, r3
 4792 0c0e CB0F     		lsrs	r3, r1, #31
 4793 0c10 1093     		str	r3, [sp, #64]
 4794              	.LBB290:
 4795              	.LBB291:
 287:..\..\..\lvgl\version_6.1.2\lvgl\src\lv_misc/lv_printf.c ****     flags &= ~FLAGS_HASH;
 4796              		.loc 1 287 0
 4797 0c12 3346     		mov	r3, r6
 4798              	.LBE291:
 4799              	.LBE290:
 702:..\..\..\lvgl\version_6.1.2\lvgl\src\lv_misc/lv_printf.c **** #endif
 4800              		.loc 1 702 0
 4801 0c14 1546     		mov	r5, r2
 4802              	.LVL716:
 4803              	.LBB298:
 4804              	.LBB295:
 287:..\..\..\lvgl\version_6.1.2\lvgl\src\lv_misc/lv_printf.c ****     flags &= ~FLAGS_HASH;
 4805              		.loc 1 287 0
 4806 0c16 1343     		orrs	r3, r2, r3
 4807              	.LBE295:
 4808              	.LBE298:
 702:..\..\..\lvgl\version_6.1.2\lvgl\src\lv_misc/lv_printf.c **** #endif
 4809              		.loc 1 702 0
 4810 0c18 CDE91256 		strd	r5, [sp, #72]
 4811              	.LBB299:
 4812              	.LBB296:
 287:..\..\..\lvgl\version_6.1.2\lvgl\src\lv_misc/lv_printf.c ****     flags &= ~FLAGS_HASH;
 4813              		.loc 1 287 0
 4814 0c1c 00F07181 		beq	.L820
ARM GAS  C:\Users\pearlstl\AppData\Local\Temp\ccbpFzqf.s 			page 111


 4815              	.L434:
 4816 0c20 0A9B     		ldr	r3, [sp, #40]
 4817              	.LBB292:
 295:..\..\..\lvgl\version_6.1.2\lvgl\src\lv_misc/lv_printf.c ****       value /= base;
 4818              		.loc 1 295 0
 4819 0c22 CDF834A0 		str	r10, [sp, #52]
 4820 0c26 13F0200F 		tst	r3, #32
 4821 0c2a 4FF00005 		mov	r5, #0
 4822 0c2e 14BF     		ite	ne
 4823 0c30 3723     		movne	r3, #55
 4824 0c32 5723     		moveq	r3, #87
 4825 0c34 0E94     		str	r4, [sp, #56]
 4826 0c36 CDF83C80 		str	r8, [sp, #60]
 4827 0c3a 0DF14F06 		add	r6, sp, #79
 4828 0c3e A846     		mov	r8, r5
 4829 0c40 9A46     		mov	r10, r3
 4830 0c42 DDE91245 		ldrd	r4, [sp, #72]
 4831              	.LVL717:
 4832 0c46 02E0     		b	.L438
 4833              	.LVL718:
 4834              	.L821:
 4835              	.LBE292:
 297:..\..\..\lvgl\version_6.1.2\lvgl\src\lv_misc/lv_printf.c ****   }
 4836              		.loc 1 297 0
 4837 0c48 B8F1200F 		cmp	r8, #32
 4838 0c4c 21D0     		beq	.L768
 4839              	.LVL719:
 4840              	.L438:
 4841              	.LBB293:
 294:..\..\..\lvgl\version_6.1.2\lvgl\src\lv_misc/lv_printf.c ****       buf[len++] = digit < 10 ? '0' + digit : (flags & FLAGS_UPPERCASE ? 'A' : 'a') + digit - 10;
 4842              		.loc 1 294 0
 4843 0c4e 2046     		mov	r0, r4
 4844 0c50 2946     		mov	r1, r5
 4845 0c52 3A46     		mov	r2, r7
 4846 0c54 0023     		movs	r3, #0
 4847 0c56 FFF7FEFF 		bl	__aeabi_uldivmod
 4848              	.LVL720:
 4849 0c5a 1946     		mov	r1, r3
 295:..\..\..\lvgl\version_6.1.2\lvgl\src\lv_misc/lv_printf.c ****       value /= base;
 4850              		.loc 1 295 0
 4851 0c5c 0029     		cmp	r1, #0
 4852 0c5e 08BF     		it	eq
 4853 0c60 0A2A     		cmpeq	r2, #10
 294:..\..\..\lvgl\version_6.1.2\lvgl\src\lv_misc/lv_printf.c ****       buf[len++] = digit < 10 ? '0' + digit : (flags & FLAGS_UPPERCASE ? 'A' : 'a') + digit - 10;
 4854              		.loc 1 294 0
 4855 0c62 D3B2     		uxtb	r3, r2
 4856              	.LVL721:
 295:..\..\..\lvgl\version_6.1.2\lvgl\src\lv_misc/lv_printf.c ****       value /= base;
 4857              		.loc 1 295 0
 4858 0c64 03F1300E 		add	lr, r3, #48
 4859 0c68 26BF     		itte	cs
 4860 0c6a 5344     		addcs	r3, r3, r10
 4861              	.LVL722:
 4862 0c6c 5FFA83FE 		uxtbcs	lr, r3
 4863              	.LVL723:
 4864 0c70 5FFA8EFE 		uxtbcc	lr, lr
 296:..\..\..\lvgl\version_6.1.2\lvgl\src\lv_misc/lv_printf.c ****     } while (value && (len < PRINTF_NTOA_BUFFER_SIZE));
ARM GAS  C:\Users\pearlstl\AppData\Local\Temp\ccbpFzqf.s 			page 112


 4865              		.loc 1 296 0
 4866 0c74 0023     		movs	r3, #0
 4867 0c76 2046     		mov	r0, r4
 4868 0c78 2946     		mov	r1, r5
 4869 0c7a 3A46     		mov	r2, r7
 4870              	.LVL724:
 295:..\..\..\lvgl\version_6.1.2\lvgl\src\lv_misc/lv_printf.c ****       value /= base;
 4871              		.loc 1 295 0
 4872 0c7c 06F801EF 		strb	lr, [r6, #1]!
 296:..\..\..\lvgl\version_6.1.2\lvgl\src\lv_misc/lv_printf.c ****     } while (value && (len < PRINTF_NTOA_BUFFER_SIZE));
 4873              		.loc 1 296 0
 4874 0c80 FFF7FEFF 		bl	__aeabi_uldivmod
 4875              	.LVL725:
 4876 0c84 0446     		mov	r4, r0
 4877              	.LVL726:
 4878 0c86 0D46     		mov	r5, r1
 4879              	.LBE293:
 297:..\..\..\lvgl\version_6.1.2\lvgl\src\lv_misc/lv_printf.c ****   }
 4880              		.loc 1 297 0
 4881 0c88 54EA0503 		orrs	r3, r4, r5
 4882              	.LBB294:
 295:..\..\..\lvgl\version_6.1.2\lvgl\src\lv_misc/lv_printf.c ****       value /= base;
 4883              		.loc 1 295 0
 4884 0c8c 08F10108 		add	r8, r8, #1
 4885              	.LVL727:
 4886              	.LBE294:
 297:..\..\..\lvgl\version_6.1.2\lvgl\src\lv_misc/lv_printf.c ****   }
 4887              		.loc 1 297 0
 4888 0c90 DAD1     		bne	.L821
 4889              	.L768:
 4890 0c92 4546     		mov	r5, r8
 4891 0c94 DDF834A0 		ldr	r10, [sp, #52]
 4892 0c98 0E9C     		ldr	r4, [sp, #56]
 4893              	.LVL728:
 4894 0c9a DDF83C80 		ldr	r8, [sp, #60]
 4895              	.LVL729:
 4896 0c9e 0A9A     		ldr	r2, [sp, #40]
 4897              	.LVL730:
 4898              	.L435:
 300:..\..\..\lvgl\version_6.1.2\lvgl\src\lv_misc/lv_printf.c **** }
 4899              		.loc 1 300 0
 4900 0ca0 0692     		str	r2, [sp, #24]
 4901 0ca2 109A     		ldr	r2, [sp, #64]
 4902 0ca4 0292     		str	r2, [sp, #8]
 4903 0ca6 14AB     		add	r3, sp, #80
 4904 0ca8 CDF81480 		str	r8, [sp, #20]
 4905 0cac CDF81090 		str	r9, [sp, #16]
 4906 0cb0 0397     		str	r7, [sp, #12]
 4907 0cb2 0195     		str	r5, [sp, #4]
 4908 0cb4 5246     		mov	r2, r10
 4909 0cb6 2DE5     		b	.L783
 4910              	.LVL731:
 4911              	.L466:
 4912              	.LBE296:
 4913              	.LBE299:
 4914              	.LBE289:
 4915              	.LBB301:
ARM GAS  C:\Users\pearlstl\AppData\Local\Temp\ccbpFzqf.s 			page 113


 725:..\..\..\lvgl\version_6.1.2\lvgl\src\lv_misc/lv_printf.c ****             idx = _ntoa_long(out, buffer, idx, maxlen, value, false, base, precision, width, flags)
 4916              		.loc 1 725 0
 4917 0cb8 13F0800F 		tst	r3, #128
 4918 0cbc 1346     		mov	r3, r2
 4919 0cbe 14BF     		ite	ne
 4920 0cc0 1388     		ldrhne	r3, [r2]
 4921 0cc2 1B68     		ldreq	r3, [r3]
 4922 0cc4 0432     		adds	r2, r2, #4
 4923 0cc6 0C92     		str	r2, [sp, #48]
 4924 0cc8 F3E4     		b	.L467
 4925              	.L446:
 4926              	.LBE301:
 4927              	.LBB302:
 710:..\..\..\lvgl\version_6.1.2\lvgl\src\lv_misc/lv_printf.c ****             idx = _ntoa_long(out, buffer, idx, maxlen, (unsigned int)(value > 0 ? value : 0 - value
 4928              		.loc 1 710 0
 4929 0cca 13F0800F 		tst	r3, #128
 4930 0cce 1346     		mov	r3, r2
 4931 0cd0 14BF     		ite	ne
 4932 0cd2 B2F90030 		ldrshne	r3, [r2]
 4933 0cd6 1B68     		ldreq	r3, [r3]
 4934 0cd8 0432     		adds	r2, r2, #4
 4935 0cda 0C92     		str	r2, [sp, #48]
 4936 0cdc FFF753BB 		b	.L447
 4937              	.LVL732:
 4938              	.L603:
 4939              	.LBE302:
 4940              	.LBE407:
 4941              	.LBB408:
 4942              	.LBB381:
 4943              	.LBB368:
 4944              	.LBB365:
 4945              	.LBB364:
 180:..\..\..\lvgl\version_6.1.2\lvgl\src\lv_misc/lv_printf.c ****       out(' ', buffer, idx++, maxlen);
 4946              		.loc 1 180 0
 4947 0ce0 CDF828A0 		str	r10, [sp, #40]
 4948              	.LVL733:
 4949 0ce4 5246     		mov	r2, r10
 4950 0ce6 DBE6     		b	.L477
 4951              	.LVL734:
 4952              	.L811:
 4953              	.LBE364:
 4954              	.LBE365:
 4955              	.LBE368:
 4956              	.LBE381:
 4957              	.LBE408:
 4958              	.LBB409:
 722:..\..\..\lvgl\version_6.1.2\lvgl\src\lv_misc/lv_printf.c ****           }
 4959              		.loc 1 722 0
 4960 0ce8 1368     		ldr	r3, [r2]
 4961 0cea 02F1040E 		add	lr, r2, #4
 4962              	.LVL735:
 4963              	.LBB303:
 4964              	.LBB304:
 262:..\..\..\lvgl\version_6.1.2\lvgl\src\lv_misc/lv_printf.c ****     flags &= ~FLAGS_HASH;
 4965              		.loc 1 262 0
 4966 0cee 002B     		cmp	r3, #0
 4967 0cf0 00F01981 		beq	.L822
ARM GAS  C:\Users\pearlstl\AppData\Local\Temp\ccbpFzqf.s 			page 114


 4968              	.L461:
 4969 0cf4 0A9A     		ldr	r2, [sp, #40]
 4970 0cf6 12F0200F 		tst	r2, #32
 4971              	.LBB305:
 270:..\..\..\lvgl\version_6.1.2\lvgl\src\lv_misc/lv_printf.c ****       value /= base;
 4972              		.loc 1 270 0
 4973 0cfa 14BF     		ite	ne
 4974 0cfc 3726     		movne	r6, #55
 4975 0cfe 5726     		moveq	r6, #87
 4976 0d00 0DF14F05 		add	r5, sp, #79
 4977 0d04 0021     		movs	r1, #0
 4978 0d06 01E0     		b	.L465
 4979              	.LVL736:
 4980              	.L823:
 4981              	.LBE305:
 272:..\..\..\lvgl\version_6.1.2\lvgl\src\lv_misc/lv_printf.c ****   }
 4982              		.loc 1 272 0
 4983 0d08 2029     		cmp	r1, #32
 4984 0d0a 10D0     		beq	.L462
 4985              	.LVL737:
 4986              	.L465:
 4987              	.LBB306:
 269:..\..\..\lvgl\version_6.1.2\lvgl\src\lv_misc/lv_printf.c ****       buf[len++] = digit < 10 ? '0' + digit : (flags & FLAGS_UPPERCASE ? 'A' : 'a') + digit - 10;
 4988              		.loc 1 269 0
 4989 0d0c B3FBF7F0 		udiv	r0, r3, r7
 4990 0d10 07FB1033 		mls	r3, r7, r0, r3
 4991              	.LVL738:
 4992 0d14 DAB2     		uxtb	r2, r3
 4993              	.LVL739:
 270:..\..\..\lvgl\version_6.1.2\lvgl\src\lv_misc/lv_printf.c ****       value /= base;
 4994              		.loc 1 270 0
 4995 0d16 092B     		cmp	r3, #9
 4996 0d18 02F13003 		add	r3, r2, #48
 4997 0d1c 88BF     		it	hi
 4998 0d1e 9319     		addhi	r3, r2, r6
 4999 0d20 DBB2     		uxtb	r3, r3
 5000 0d22 05F8013F 		strb	r3, [r5, #1]!
 5001 0d26 0131     		adds	r1, r1, #1
 5002              	.LVL740:
 5003              	.LBE306:
 272:..\..\..\lvgl\version_6.1.2\lvgl\src\lv_misc/lv_printf.c ****   }
 5004              		.loc 1 272 0
 5005 0d28 0346     		mov	r3, r0
 5006 0d2a 0028     		cmp	r0, #0
 5007 0d2c ECD1     		bne	.L823
 5008              	.LVL741:
 5009              	.L462:
 275:..\..\..\lvgl\version_6.1.2\lvgl\src\lv_misc/lv_printf.c **** }
 5010              		.loc 1 275 0
 5011 0d2e 0A9B     		ldr	r3, [sp, #40]
 5012              	.LVL742:
 5013 0d30 0693     		str	r3, [sp, #24]
 5014 0d32 0020     		movs	r0, #0
 5015 0d34 14AB     		add	r3, sp, #80
 5016 0d36 0191     		str	r1, [sp, #4]
 5017 0d38 5246     		mov	r2, r10
 5018 0d3a 0290     		str	r0, [sp, #8]
ARM GAS  C:\Users\pearlstl\AppData\Local\Temp\ccbpFzqf.s 			page 115


 5019 0d3c 0093     		str	r3, [sp]
 5020 0d3e CDF81480 		str	r8, [sp, #20]
 5021 0d42 CDF81090 		str	r9, [sp, #16]
 5022 0d46 0397     		str	r7, [sp, #12]
 5023 0d48 5B46     		mov	r3, fp
 5024 0d4a 0999     		ldr	r1, [sp, #36]
 5025              	.LVL743:
 5026 0d4c 0898     		ldr	r0, [sp, #32]
 5027              	.LBE304:
 5028              	.LBE303:
 722:..\..\..\lvgl\version_6.1.2\lvgl\src\lv_misc/lv_printf.c ****           }
 5029              		.loc 1 722 0
 5030 0d4e CDF830E0 		str	lr, [sp, #48]
 5031              	.LBB309:
 5032              	.LBB307:
 275:..\..\..\lvgl\version_6.1.2\lvgl\src\lv_misc/lv_printf.c **** }
 5033              		.loc 1 275 0
 5034 0d52 FFF7FEFF 		bl	_ntoa_format
 5035              	.LVL744:
 5036 0d56 8246     		mov	r10, r0
 5037              	.LVL745:
 5038 0d58 FFF7B7BB 		b	.L788
 5039              	.L803:
 5040              	.LBE307:
 5041              	.LBE309:
 5042              	.LBB310:
 706:..\..\..\lvgl\version_6.1.2\lvgl\src\lv_misc/lv_printf.c ****             idx = _ntoa_long(out, buffer, idx, maxlen, (unsigned long)(value > 0 ? value : 0 - valu
 5043              		.loc 1 706 0
 5044 0d5c 1368     		ldr	r3, [r2]
 707:..\..\..\lvgl\version_6.1.2\lvgl\src\lv_misc/lv_printf.c ****           }
 5045              		.loc 1 707 0
 5046 0d5e 83EAE371 		eor	r1, r3, r3, asr #31
 5047 0d62 A1EBE371 		sub	r1, r1, r3, asr #31
 5048 0d66 4FEAD37E 		lsr	lr, r3, #31
 706:..\..\..\lvgl\version_6.1.2\lvgl\src\lv_misc/lv_printf.c ****             idx = _ntoa_long(out, buffer, idx, maxlen, (unsigned long)(value > 0 ? value : 0 - valu
 5049              		.loc 1 706 0
 5050 0d6a 02F1040C 		add	ip, r2, #4
 5051              	.LVL746:
 5052              	.LBB263:
 5053              	.LBB264:
 262:..\..\..\lvgl\version_6.1.2\lvgl\src\lv_misc/lv_printf.c ****     flags &= ~FLAGS_HASH;
 5054              		.loc 1 262 0
 5055 0d6e 0B46     		mov	r3, r1
 5056              	.LVL747:
 5057 0d70 0029     		cmp	r1, #0
 5058 0d72 00F0D080 		beq	.L824
 5059              	.LVL748:
 5060              	.L441:
 5061 0d76 0A9A     		ldr	r2, [sp, #40]
 5062 0d78 12F0200F 		tst	r2, #32
 5063              	.LBB265:
 270:..\..\..\lvgl\version_6.1.2\lvgl\src\lv_misc/lv_printf.c ****       value /= base;
 5064              		.loc 1 270 0
 5065 0d7c 14BF     		ite	ne
 5066 0d7e 3726     		movne	r6, #55
 5067 0d80 5726     		moveq	r6, #87
 5068 0d82 0DF14F05 		add	r5, sp, #79
ARM GAS  C:\Users\pearlstl\AppData\Local\Temp\ccbpFzqf.s 			page 116


 5069 0d86 0021     		movs	r1, #0
 5070              	.LVL749:
 5071 0d88 04E0     		b	.L445
 5072              	.L837:
 5073 0d8a 00BF     		.align	2
 5074              	.L836:
 5075 0d8c 03000000 		.word	.LC0+3
 5076              	.LVL750:
 5077              	.L825:
 5078              	.LBE265:
 272:..\..\..\lvgl\version_6.1.2\lvgl\src\lv_misc/lv_printf.c ****   }
 5079              		.loc 1 272 0
 5080 0d90 2029     		cmp	r1, #32
 5081 0d92 10D0     		beq	.L442
 5082              	.LVL751:
 5083              	.L445:
 5084              	.LBB266:
 269:..\..\..\lvgl\version_6.1.2\lvgl\src\lv_misc/lv_printf.c ****       buf[len++] = digit < 10 ? '0' + digit : (flags & FLAGS_UPPERCASE ? 'A' : 'a') + digit - 10;
 5085              		.loc 1 269 0
 5086 0d94 B3FBF7F2 		udiv	r2, r3, r7
 5087 0d98 07FB1233 		mls	r3, r7, r2, r3
 5088              	.LVL752:
 5089 0d9c D8B2     		uxtb	r0, r3
 5090              	.LVL753:
 270:..\..\..\lvgl\version_6.1.2\lvgl\src\lv_misc/lv_printf.c ****       value /= base;
 5091              		.loc 1 270 0
 5092 0d9e 092B     		cmp	r3, #9
 5093 0da0 00F13003 		add	r3, r0, #48
 5094 0da4 88BF     		it	hi
 5095 0da6 8319     		addhi	r3, r0, r6
 5096 0da8 DBB2     		uxtb	r3, r3
 5097 0daa 05F8013F 		strb	r3, [r5, #1]!
 5098 0dae 0131     		adds	r1, r1, #1
 5099              	.LVL754:
 5100              	.LBE266:
 272:..\..\..\lvgl\version_6.1.2\lvgl\src\lv_misc/lv_printf.c ****   }
 5101              		.loc 1 272 0
 5102 0db0 1346     		mov	r3, r2
 5103 0db2 002A     		cmp	r2, #0
 5104 0db4 ECD1     		bne	.L825
 5105              	.LVL755:
 5106              	.L442:
 275:..\..\..\lvgl\version_6.1.2\lvgl\src\lv_misc/lv_printf.c **** }
 5107              		.loc 1 275 0
 5108 0db6 0A9A     		ldr	r2, [sp, #40]
 5109 0db8 0692     		str	r2, [sp, #24]
 5110              	.LVL756:
 5111 0dba 14AB     		add	r3, sp, #80
 5112              	.LVL757:
 5113 0dbc 0191     		str	r1, [sp, #4]
 5114 0dbe 5246     		mov	r2, r10
 5115 0dc0 0093     		str	r3, [sp]
 5116 0dc2 CDF81480 		str	r8, [sp, #20]
 5117 0dc6 CDF81090 		str	r9, [sp, #16]
 5118 0dca 0397     		str	r7, [sp, #12]
 5119 0dcc CDF808E0 		str	lr, [sp, #8]
 5120 0dd0 5B46     		mov	r3, fp
ARM GAS  C:\Users\pearlstl\AppData\Local\Temp\ccbpFzqf.s 			page 117


 5121 0dd2 0999     		ldr	r1, [sp, #36]
 5122              	.LVL758:
 5123 0dd4 0898     		ldr	r0, [sp, #32]
 5124              	.LBE264:
 5125              	.LBE263:
 706:..\..\..\lvgl\version_6.1.2\lvgl\src\lv_misc/lv_printf.c ****             idx = _ntoa_long(out, buffer, idx, maxlen, (unsigned long)(value > 0 ? value : 0 - valu
 5126              		.loc 1 706 0
 5127 0dd6 CDF830C0 		str	ip, [sp, #48]
 5128              	.LBB269:
 5129              	.LBB267:
 275:..\..\..\lvgl\version_6.1.2\lvgl\src\lv_misc/lv_printf.c **** }
 5130              		.loc 1 275 0
 5131 0dda FFF7FEFF 		bl	_ntoa_format
 5132              	.LVL759:
 5133 0dde 8246     		mov	r10, r0
 5134              	.LVL760:
 5135 0de0 FFF773BB 		b	.L788
 5136              	.LVL761:
 5137              	.L764:
 5138              	.LBE267:
 5139              	.LBE269:
 5140              	.LBE310:
 5141              	.LBE409:
 5142              	.LBB410:
 5143              	.LBB243:
 5144              	.LBB241:
 148:..\..\..\lvgl\version_6.1.2\lvgl\src\lv_misc/lv_printf.c ****   return (unsigned int)(s - str);
 5145              		.loc 1 148 0
 5146 0de4 0746     		mov	r7, r0
 5147 0de6 FFF765BA 		b	.L552
 5148              	.LVL762:
 5149              	.L510:
 5150              	.LBE241:
 5151              	.LBE243:
 5152              	.LBE410:
 5153              	.LBB411:
 5154              	.LBB382:
 5155              	.LBB369:
 5156              	.LBB346:
 5157              	.LBB339:
 389:..\..\..\lvgl\version_6.1.2\lvgl\src\lv_misc/lv_printf.c ****       --count;
 5158              		.loc 1 389 0
 5159 0dea B9F1200F 		cmp	r9, #32
 5160 0dee 2BD0     		beq	.L526
 391:..\..\..\lvgl\version_6.1.2\lvgl\src\lv_misc/lv_printf.c ****       if (!(frac /= 10U)) {
 5161              		.loc 1 391 0
 5162 0df0 0D99     		ldr	r1, [sp, #52]
 5163 0df2 A84F     		ldr	r7, .L838
 5164 0df4 0B46     		mov	r3, r1
 5165 0df6 A7FB0332 		umull	r3, r2, r7, r3
 5166 0dfa D208     		lsrs	r2, r2, #3
 5167 0dfc 02EB8203 		add	r3, r2, r2, lsl #2
 5168 0e00 A1EB4303 		sub	r3, r1, r3, lsl #1
 390:..\..\..\lvgl\version_6.1.2\lvgl\src\lv_misc/lv_printf.c ****       buf[len++] = (char)(48U + (frac % 10U));
 5169              		.loc 1 390 0
 5170 0e04 0F99     		ldr	r1, [sp, #60]
 5171 0e06 4E1E     		subs	r6, r1, #1
ARM GAS  C:\Users\pearlstl\AppData\Local\Temp\ccbpFzqf.s 			page 118


 5172              	.LVL763:
 391:..\..\..\lvgl\version_6.1.2\lvgl\src\lv_misc/lv_printf.c ****       if (!(frac /= 10U)) {
 5173              		.loc 1 391 0
 5174 0e08 1CA9     		add	r1, sp, #112
 5175 0e0a 4944     		add	r1, r1, r9
 5176 0e0c 3033     		adds	r3, r3, #48
 5177 0e0e 01F8203C 		strb	r3, [r1, #-32]
 5178 0e12 09F10101 		add	r1, r9, #1
 5179              	.LVL764:
 392:..\..\..\lvgl\version_6.1.2\lvgl\src\lv_misc/lv_printf.c ****         break;
 5180              		.loc 1 392 0
 5181 0e16 002A     		cmp	r2, #0
 5182 0e18 00F0ED80 		beq	.L515
 5183 0e1c 14AB     		add	r3, sp, #80
 5184 0e1e 9944     		add	r9, r9, r3
 5185 0e20 07E0     		b	.L516
 5186              	.L517:
 390:..\..\..\lvgl\version_6.1.2\lvgl\src\lv_misc/lv_printf.c ****       buf[len++] = (char)(48U + (frac % 10U));
 5187              		.loc 1 390 0
 5188 0e22 013E     		subs	r6, r6, #1
 5189              	.LVL765:
 391:..\..\..\lvgl\version_6.1.2\lvgl\src\lv_misc/lv_printf.c ****       if (!(frac /= 10U)) {
 5190              		.loc 1 391 0
 5191 0e24 0131     		adds	r1, r1, #1
 5192              	.LVL766:
 5193 0e26 09F8013F 		strb	r3, [r9, #1]!
 392:..\..\..\lvgl\version_6.1.2\lvgl\src\lv_misc/lv_printf.c ****         break;
 5194              		.loc 1 392 0
 5195 0e2a 0246     		mov	r2, r0
 5196 0e2c 0028     		cmp	r0, #0
 5197 0e2e 00F0E280 		beq	.L515
 5198              	.LVL767:
 5199              	.L516:
 391:..\..\..\lvgl\version_6.1.2\lvgl\src\lv_misc/lv_printf.c ****       if (!(frac /= 10U)) {
 5200              		.loc 1 391 0
 5201 0e32 A7FB0230 		umull	r3, r0, r7, r2
 5202 0e36 C008     		lsrs	r0, r0, #3
 5203 0e38 00EB8003 		add	r3, r0, r0, lsl #2
 5204 0e3c A2EB4303 		sub	r3, r2, r3, lsl #1
 389:..\..\..\lvgl\version_6.1.2\lvgl\src\lv_misc/lv_printf.c ****       --count;
 5205              		.loc 1 389 0
 5206 0e40 2029     		cmp	r1, #32
 391:..\..\..\lvgl\version_6.1.2\lvgl\src\lv_misc/lv_printf.c ****       if (!(frac /= 10U)) {
 5207              		.loc 1 391 0
 5208 0e42 03F13003 		add	r3, r3, #48
 389:..\..\..\lvgl\version_6.1.2\lvgl\src\lv_misc/lv_printf.c ****       --count;
 5209              		.loc 1 389 0
 5210 0e46 ECD1     		bne	.L517
 5211              	.LVL768:
 5212              	.L526:
 5213              	.LBE339:
 415:..\..\..\lvgl\version_6.1.2\lvgl\src\lv_misc/lv_printf.c ****     if (width && (negative || (flags & (FLAGS_PLUS | FLAGS_SPACE)))) {
 5214              		.loc 1 415 0
 5215 0e48 05F00303 		and	r3, r5, #3
 5216 0e4c 012B     		cmp	r3, #1
 5217 0e4e 00F08380 		beq	.L826
 5218              	.LVL769:
ARM GAS  C:\Users\pearlstl\AppData\Local\Temp\ccbpFzqf.s 			page 119


 5219              	.LBB340:
 5220              	.LBB335:
 178:..\..\..\lvgl\version_6.1.2\lvgl\src\lv_misc/lv_printf.c ****       size_t i;
 5221              		.loc 1 178 0
 5222 0e52 002B     		cmp	r3, #0
 5223 0e54 40F0E780 		bne	.L827
 5224 0e58 2027     		movs	r7, #32
 5225              	.LVL770:
 5226              	.L587:
 5227              	.LBB332:
 180:..\..\..\lvgl\version_6.1.2\lvgl\src\lv_misc/lv_printf.c ****       out(' ', buffer, idx++, maxlen);
 5228              		.loc 1 180 0
 5229 0e5a B845     		cmp	r8, r7
 5230 0e5c 7FF6AFAD 		bls	.L621
 5231 0e60 5246     		mov	r2, r10
 5232 0e62 CAEB0709 		rsb	r9, r10, r7
 5233 0e66 CDF828A0 		str	r10, [sp, #40]
 5234 0e6a 089E     		ldr	r6, [sp, #32]
 5235 0e6c DDF824A0 		ldr	r10, [sp, #36]
 5236 0e70 0D94     		str	r4, [sp, #52]
 5237              	.LVL771:
 5238              	.L540:
 181:..\..\..\lvgl\version_6.1.2\lvgl\src\lv_misc/lv_printf.c ****     }
 5239              		.loc 1 181 0
 5240 0e72 541C     		adds	r4, r2, #1
 5241              	.LVL772:
 5242 0e74 5B46     		mov	r3, fp
 5243 0e76 5146     		mov	r1, r10
 5244 0e78 2020     		movs	r0, #32
 5245 0e7a B047     		blx	r6
 5246              	.LVL773:
 180:..\..\..\lvgl\version_6.1.2\lvgl\src\lv_misc/lv_printf.c ****       out(' ', buffer, idx++, maxlen);
 5247              		.loc 1 180 0
 5248 0e7c 04EB0903 		add	r3, r4, r9
 5249 0e80 9845     		cmp	r8, r3
 181:..\..\..\lvgl\version_6.1.2\lvgl\src\lv_misc/lv_printf.c ****     }
 5250              		.loc 1 181 0
 5251 0e82 2246     		mov	r2, r4
 180:..\..\..\lvgl\version_6.1.2\lvgl\src\lv_misc/lv_printf.c ****       out(' ', buffer, idx++, maxlen);
 5252              		.loc 1 180 0
 5253 0e84 F5D8     		bhi	.L540
 5254 0e86 DDF828A0 		ldr	r10, [sp, #40]
 5255 0e8a 0D9C     		ldr	r4, [sp, #52]
 5256              	.LVL774:
 5257 0e8c 0AEB0803 		add	r3, r10, r8
 5258 0e90 DE1B     		subs	r6, r3, r7
 5259 0e92 95E5     		b	.L539
 5260              	.LVL775:
 5261              	.L762:
 5262              	.LBE332:
 5263              	.LBE335:
 5264              	.LBE340:
 371:..\..\..\lvgl\version_6.1.2\lvgl\src\lv_misc/lv_printf.c ****   }
 5265              		.loc 1 371 0
 5266 0e94 DDE91201 		ldrd	r0, [sp, #72]
 5267 0e98 0022     		movs	r2, #0
 5268 0e9a 7F4B     		ldr	r3, .L838+4
ARM GAS  C:\Users\pearlstl\AppData\Local\Temp\ccbpFzqf.s 			page 120


 5269 0e9c FFF7FEFF 		bl	__aeabi_dcmplt
 5270              	.LVL776:
 5271 0ea0 0028     		cmp	r0, #0
 5272 0ea2 7FF429AD 		bne	.L507
 373:..\..\..\lvgl\version_6.1.2\lvgl\src\lv_misc/lv_printf.c ****     // if halfway, round up if odd OR if last digit is 0
 5273              		.loc 1 373 0
 5274 0ea6 0D9B     		ldr	r3, [sp, #52]
 5275 0ea8 13B1     		cbz	r3, .L509
 5276 0eaa D807     		lsls	r0, r3, #31
 5277 0eac 7FF524AD 		bpl	.L507
 5278              	.L509:
 375:..\..\..\lvgl\version_6.1.2\lvgl\src\lv_misc/lv_printf.c ****   }
 5279              		.loc 1 375 0
 5280 0eb0 0133     		adds	r3, r3, #1
 5281 0eb2 0D93     		str	r3, [sp, #52]
 5282              	.LVL777:
 5283 0eb4 20E5     		b	.L507
 5284              	.LVL778:
 5285              	.L814:
 353:..\..\..\lvgl\version_6.1.2\lvgl\src\lv_misc/lv_printf.c ****     buf[len++] = '0';
 5286              		.loc 1 353 0
 5287 0eb6 B9F1090F 		cmp	r9, #9
 5288 0eba 40F2DE80 		bls	.L828
 5289              	.LVL779:
 354:..\..\..\lvgl\version_6.1.2\lvgl\src\lv_misc/lv_printf.c ****     prec--;
 5290              		.loc 1 354 0
 5291 0ebe 1CAA     		add	r2, sp, #112
 355:..\..\..\lvgl\version_6.1.2\lvgl\src\lv_misc/lv_printf.c ****   }
 5292              		.loc 1 355 0
 5293 0ec0 09F1FF33 		add	r3, r9, #-1
 354:..\..\..\lvgl\version_6.1.2\lvgl\src\lv_misc/lv_printf.c ****     prec--;
 5294              		.loc 1 354 0
 5295 0ec4 3021     		movs	r1, #48
 355:..\..\..\lvgl\version_6.1.2\lvgl\src\lv_misc/lv_printf.c ****   }
 5296              		.loc 1 355 0
 5297 0ec6 1846     		mov	r0, r3
 5298              	.LVL780:
 354:..\..\..\lvgl\version_6.1.2\lvgl\src\lv_misc/lv_printf.c ****     prec--;
 5299              		.loc 1 354 0
 5300 0ec8 02F8201D 		strb	r1, [r2, #-32]!
 5301 0ecc A9F10909 		sub	r9, r9, #9
 355:..\..\..\lvgl\version_6.1.2\lvgl\src\lv_misc/lv_printf.c ****   }
 5302              		.loc 1 355 0
 5303 0ed0 0123     		movs	r3, #1
 5304 0ed2 DDE90A67 		ldrd	r6, [sp, #40]
 5305 0ed6 05E0     		b	.L503
 5306              	.LVL781:
 5307              	.L504:
 353:..\..\..\lvgl\version_6.1.2\lvgl\src\lv_misc/lv_printf.c ****     buf[len++] = '0';
 5308              		.loc 1 353 0
 5309 0ed8 202B     		cmp	r3, #32
 354:..\..\..\lvgl\version_6.1.2\lvgl\src\lv_misc/lv_printf.c ****     prec--;
 5310              		.loc 1 354 0
 5311 0eda 02F8011F 		strb	r1, [r2, #1]!
 355:..\..\..\lvgl\version_6.1.2\lvgl\src\lv_misc/lv_printf.c ****   }
 5312              		.loc 1 355 0
 5313 0ede 00F1FF30 		add	r0, r0, #-1
ARM GAS  C:\Users\pearlstl\AppData\Local\Temp\ccbpFzqf.s 			page 121


 5314              	.LVL782:
 353:..\..\..\lvgl\version_6.1.2\lvgl\src\lv_misc/lv_printf.c ****     buf[len++] = '0';
 5315              		.loc 1 353 0
 5316 0ee2 5BD0     		beq	.L829
 5317              	.LVL783:
 5318              	.L503:
 5319 0ee4 9945     		cmp	r9, r3
 354:..\..\..\lvgl\version_6.1.2\lvgl\src\lv_misc/lv_printf.c ****     prec--;
 5320              		.loc 1 354 0
 5321 0ee6 03F10103 		add	r3, r3, #1
 5322              	.LVL784:
 353:..\..\..\lvgl\version_6.1.2\lvgl\src\lv_misc/lv_printf.c ****     buf[len++] = '0';
 5323              		.loc 1 353 0
 5324 0eea F5D1     		bne	.L504
 5325 0eec 6B4B     		ldr	r3, .L838+8
 5326              	.LVL785:
 5327 0eee 0F90     		str	r0, [sp, #60]
 5328 0ef0 03EBC003 		add	r3, r3, r0, lsl #3
 5329 0ef4 93ED007B 		vldr.64	d7, [r3]
 5330 0ef8 CDE90A67 		strd	r6, [sp, #40]
 5331              	.LVL786:
 5332 0efc 57EC176B 		vmov	r6, r7, d7
 5333 0f00 C6E4     		b	.L501
 5334              	.LVL787:
 5335              	.L820:
 5336              	.LBE346:
 5337              	.LBE369:
 5338              	.LBE382:
 5339              	.LBE411:
 5340              	.LBB412:
 5341              	.LBB311:
 5342              	.LBB300:
 5343              	.LBB297:
 288:..\..\..\lvgl\version_6.1.2\lvgl\src\lv_misc/lv_printf.c ****   }
 5344              		.loc 1 288 0
 5345 0f02 0A9A     		ldr	r2, [sp, #40]
 5346 0f04 22F01003 		bic	r3, r2, #16
 5347              	.LVL788:
 292:..\..\..\lvgl\version_6.1.2\lvgl\src\lv_misc/lv_printf.c ****     do {
 5348              		.loc 1 292 0
 5349 0f08 5005     		lsls	r0, r2, #21
 288:..\..\..\lvgl\version_6.1.2\lvgl\src\lv_misc/lv_printf.c ****   }
 5350              		.loc 1 288 0
 5351 0f0a 0A93     		str	r3, [sp, #40]
 292:..\..\..\lvgl\version_6.1.2\lvgl\src\lv_misc/lv_printf.c ****     do {
 5352              		.loc 1 292 0
 5353 0f0c 7FF588AE 		bpl	.L434
 284:..\..\..\lvgl\version_6.1.2\lvgl\src\lv_misc/lv_printf.c **** 
 5354              		.loc 1 284 0
 5355 0f10 0025     		movs	r5, #0
 5356 0f12 1A46     		mov	r2, r3
 5357 0f14 C4E6     		b	.L435
 5358              	.LVL789:
 5359              	.L824:
 5360              	.LBE297:
 5361              	.LBE300:
 5362              	.LBE311:
ARM GAS  C:\Users\pearlstl\AppData\Local\Temp\ccbpFzqf.s 			page 122


 5363              	.LBB312:
 5364              	.LBB270:
 5365              	.LBB268:
 263:..\..\..\lvgl\version_6.1.2\lvgl\src\lv_misc/lv_printf.c ****   }
 5366              		.loc 1 263 0
 5367 0f16 0A98     		ldr	r0, [sp, #40]
 5368 0f18 20F01002 		bic	r2, r0, #16
 5369              	.LVL790:
 5370 0f1c 0A92     		str	r2, [sp, #40]
 267:..\..\..\lvgl\version_6.1.2\lvgl\src\lv_misc/lv_printf.c ****     do {
 5371              		.loc 1 267 0
 5372 0f1e 4205     		lsls	r2, r0, #21
 5373              	.LVL791:
 5374 0f20 3FF549AF 		bmi	.L442
 5375 0f24 27E7     		b	.L441
 5376              	.LVL792:
 5377              	.L822:
 5378              	.LBE268:
 5379              	.LBE270:
 5380              	.LBE312:
 5381              	.LBB313:
 5382              	.LBB308:
 263:..\..\..\lvgl\version_6.1.2\lvgl\src\lv_misc/lv_printf.c ****   }
 5383              		.loc 1 263 0
 5384 0f26 0A99     		ldr	r1, [sp, #40]
 5385 0f28 21F01002 		bic	r2, r1, #16
 5386              	.LVL793:
 267:..\..\..\lvgl\version_6.1.2\lvgl\src\lv_misc/lv_printf.c ****     do {
 5387              		.loc 1 267 0
 5388 0f2c 4805     		lsls	r0, r1, #21
 263:..\..\..\lvgl\version_6.1.2\lvgl\src\lv_misc/lv_printf.c ****   }
 5389              		.loc 1 263 0
 5390 0f2e 0A92     		str	r2, [sp, #40]
 267:..\..\..\lvgl\version_6.1.2\lvgl\src\lv_misc/lv_printf.c ****     do {
 5391              		.loc 1 267 0
 5392 0f30 7FF5E0AE 		bpl	.L461
 259:..\..\..\lvgl\version_6.1.2\lvgl\src\lv_misc/lv_printf.c **** 
 5393              		.loc 1 259 0
 5394 0f34 1946     		mov	r1, r3
 5395 0f36 FAE6     		b	.L462
 5396              	.LVL794:
 5397              	.L816:
 5398              	.LBE308:
 5399              	.LBE313:
 5400              	.LBE412:
 5401              	.LBB413:
 5402              	.LBB383:
 5403              	.LBB370:
 5404              	.LBB347:
 380:..\..\..\lvgl\version_6.1.2\lvgl\src\lv_misc/lv_printf.c ****       // exactly 0.5 and ODD, then round up
 5405              		.loc 1 380 0
 5406 0f38 3046     		mov	r0, r6
 5407 0f3a 3946     		mov	r1, r7
 5408 0f3c 0022     		movs	r2, #0
 5409 0f3e 564B     		ldr	r3, .L838+4
 5410 0f40 FFF7FEFF 		bl	__aeabi_dcmpgt
 5411              	.LVL795:
ARM GAS  C:\Users\pearlstl\AppData\Local\Temp\ccbpFzqf.s 			page 123


 5412 0f44 0028     		cmp	r0, #0
 5413 0f46 3FF4F3AC 		beq	.L513
 5414 0f4a EBE4     		b	.L511
 5415              	.LVL796:
 5416              	.L815:
 368:..\..\..\lvgl\version_6.1.2\lvgl\src\lv_misc/lv_printf.c ****     }
 5417              		.loc 1 368 0
 5418 0f4c 0E9B     		ldr	r3, [sp, #56]
 5419 0f4e 0133     		adds	r3, r3, #1
 5420 0f50 0E93     		str	r3, [sp, #56]
 5421              	.LVL797:
 367:..\..\..\lvgl\version_6.1.2\lvgl\src\lv_misc/lv_printf.c ****       ++whole;
 5422              		.loc 1 367 0
 5423 0f52 0023     		movs	r3, #0
 5424              	.LVL798:
 5425 0f54 0D93     		str	r3, [sp, #52]
 5426 0f56 CFE4     		b	.L507
 5427              	.LVL799:
 5428              	.L826:
 416:..\..\..\lvgl\version_6.1.2\lvgl\src\lv_misc/lv_printf.c ****       width--;
 5429              		.loc 1 416 0
 5430 0f58 2027     		movs	r7, #32
 5431 0f5a B8F1000F 		cmp	r8, #0
 5432 0f5e 3FF428AD 		beq	.L532
 5433              	.LVL800:
 5434              	.L586:
 5435 0f62 109B     		ldr	r3, [sp, #64]
 5436 0f64 13B9     		cbnz	r3, .L530
 5437 0f66 15F00C0F 		tst	r5, #12
 5438 0f6a 01D0     		beq	.L531
 5439              	.L530:
 5440              	.LVL801:
 417:..\..\..\lvgl\version_6.1.2\lvgl\src\lv_misc/lv_printf.c ****     }
 5441              		.loc 1 417 0
 5442 0f6c 08F1FF38 		add	r8, r8, #-1
 5443              	.LVL802:
 5444              	.L531:
 419:..\..\..\lvgl\version_6.1.2\lvgl\src\lv_misc/lv_printf.c ****       buf[len++] = '0';
 5445              		.loc 1 419 0
 5446 0f70 4745     		cmp	r7, r8
 5447 0f72 5DD2     		bcs	.L529
 5448 0f74 1F2F     		cmp	r7, #31
 5449 0f76 73D8     		bhi	.L617
 5450 0f78 14AB     		add	r3, sp, #80
 5451 0f7a 7A1E     		subs	r2, r7, #1
 5452 0f7c 1A44     		add	r2, r2, r3
 420:..\..\..\lvgl\version_6.1.2\lvgl\src\lv_misc/lv_printf.c ****     }
 5453              		.loc 1 420 0
 5454 0f7e 3021     		movs	r1, #48
 5455              	.L533:
 5456 0f80 0137     		adds	r7, r7, #1
 5457              	.LVL803:
 419:..\..\..\lvgl\version_6.1.2\lvgl\src\lv_misc/lv_printf.c ****       buf[len++] = '0';
 5458              		.loc 1 419 0
 5459 0f82 4745     		cmp	r7, r8
 420:..\..\..\lvgl\version_6.1.2\lvgl\src\lv_misc/lv_printf.c ****     }
 5460              		.loc 1 420 0
ARM GAS  C:\Users\pearlstl\AppData\Local\Temp\ccbpFzqf.s 			page 124


 5461 0f84 02F8011F 		strb	r1, [r2, #1]!
 419:..\..\..\lvgl\version_6.1.2\lvgl\src\lv_misc/lv_printf.c ****       buf[len++] = '0';
 5462              		.loc 1 419 0
 5463 0f88 51D0     		beq	.L618
 5464 0f8a 202F     		cmp	r7, #32
 5465 0f8c F8D1     		bne	.L533
 5466 0f8e 5646     		mov	r6, r10
 5467 0f90 18E5     		b	.L534
 5468              	.LVL804:
 5469              	.L599:
 5470              	.LBE347:
 5471              	.LBE370:
 5472              	.LBE383:
 5473              	.LBE413:
 5474              	.LBB414:
 5475              	.LBB314:
 5476              	.LBB288:
 284:..\..\..\lvgl\version_6.1.2\lvgl\src\lv_misc/lv_printf.c **** 
 5477              		.loc 1 284 0
 5478 0f92 0025     		movs	r5, #0
 5479 0f94 1CE6     		b	.L456
 5480              	.LVL805:
 5481              	.L601:
 5482              	.LBE288:
 5483              	.LBE314:
 5484              	.LBB315:
 5485              	.LBB282:
 5486              	.LBB281:
 259:..\..\..\lvgl\version_6.1.2\lvgl\src\lv_misc/lv_printf.c **** 
 5487              		.loc 1 259 0
 5488 0f96 1A46     		mov	r2, r3
 5489 0f98 FFF7B0BB 		b	.L470
 5490              	.LVL806:
 5491              	.L829:
 5492 0f9c 3F4A     		ldr	r2, .L838+8
 5493 0f9e 0F90     		str	r0, [sp, #60]
 5494 0fa0 02EBC002 		add	r2, r2, r0, lsl #3
 5495 0fa4 92ED007B 		vldr.64	d7, [r2]
 5496 0fa8 CDE90A67 		strd	r6, [sp, #40]
 5497              	.LVL807:
 5498              	.LBE281:
 5499              	.LBE282:
 5500              	.LBE315:
 5501              	.LBE414:
 5502              	.LBB415:
 5503              	.LBB384:
 5504              	.LBB371:
 5505              	.LBB348:
 353:..\..\..\lvgl\version_6.1.2\lvgl\src\lv_misc/lv_printf.c ****     buf[len++] = '0';
 5506              		.loc 1 353 0
 5507 0fac 9946     		mov	r9, r3
 5508 0fae 57EC176B 		vmov	r6, r7, d7
 5509 0fb2 6DE4     		b	.L501
 5510              	.LVL808:
 5511              	.L813:
 345:..\..\..\lvgl\version_6.1.2\lvgl\src\lv_misc/lv_printf.c ****   }
 5512              		.loc 1 345 0
ARM GAS  C:\Users\pearlstl\AppData\Local\Temp\ccbpFzqf.s 			page 125


 5513 0fb4 DDE90A23 		ldrd	r2, [sp, #40]
 5514 0fb8 0020     		movs	r0, #0
 5515 0fba 0021     		movs	r1, #0
 5516 0fbc FFF7FEFF 		bl	__aeabi_dsub
 5517              	.LVL809:
 344:..\..\..\lvgl\version_6.1.2\lvgl\src\lv_misc/lv_printf.c ****     value = 0 - value;
 5518              		.loc 1 344 0
 5519 0fc0 0123     		movs	r3, #1
 345:..\..\..\lvgl\version_6.1.2\lvgl\src\lv_misc/lv_printf.c ****   }
 5520              		.loc 1 345 0
 5521 0fc2 CDE90A01 		strd	r0, [sp, #40]
 5522              	.LVL810:
 344:..\..\..\lvgl\version_6.1.2\lvgl\src\lv_misc/lv_printf.c ****     value = 0 - value;
 5523              		.loc 1 344 0
 5524 0fc6 1093     		str	r3, [sp, #64]
 5525 0fc8 57E4     		b	.L499
 5526              	.LVL811:
 5527              	.L626:
 5528              	.LBE348:
 5529              	.LBE371:
 5530              	.LBE384:
 5531              	.LBE415:
 5532              	.LBB416:
 779:..\..\..\lvgl\version_6.1.2\lvgl\src\lv_misc/lv_printf.c ****             out(' ', buffer, idx++, maxlen);
 5533              		.loc 1 779 0
 5534 0fca 1F46     		mov	r7, r3
 5535              	.LVL812:
 784:..\..\..\lvgl\version_6.1.2\lvgl\src\lv_misc/lv_printf.c ****           out(*(p++), buffer, idx++, maxlen);
 5536              		.loc 1 784 0
 5537 0fcc 0028     		cmp	r0, #0
 5538 0fce 7FF408AB 		bne	.L792
 5539              	.LVL813:
 5540 0fd2 FFF7AFB9 		b	.L563
 5541              	.LVL814:
 5542              	.L809:
 5543              	.LBE416:
 5544              	.LBB417:
 760:..\..\..\lvgl\version_6.1.2\lvgl\src\lv_misc/lv_printf.c ****         // post padding
 5545              		.loc 1 760 0
 5546 0fd6 0C96     		str	r6, [sp, #48]
 5547 0fd8 AA46     		mov	r10, r5
 5548 0fda FFF776BA 		b	.L788
 5549              	.LVL815:
 5550              	.L624:
 755:..\..\..\lvgl\version_6.1.2\lvgl\src\lv_misc/lv_printf.c ****             out(' ', buffer, idx++, maxlen);
 5551              		.loc 1 755 0
 5552 0fde 5546     		mov	r5, r10
 5553              	.LVL816:
 5554 0fe0 FFF742B9 		b	.L547
 5555              	.LVL817:
 5556              	.L536:
 5557              	.LBE417:
 5558              	.LBB418:
 5559              	.LBB385:
 5560              	.LBB372:
 5561              	.LBB349:
 428:..\..\..\lvgl\version_6.1.2\lvgl\src\lv_misc/lv_printf.c ****       buf[len++] = '+';  // ignore the space if the '+' exists
ARM GAS  C:\Users\pearlstl\AppData\Local\Temp\ccbpFzqf.s 			page 126


 5562              		.loc 1 428 0
 5563 0fe4 6A07     		lsls	r2, r5, #29
 5564 0fe6 2DD5     		bpl	.L537
 429:..\..\..\lvgl\version_6.1.2\lvgl\src\lv_misc/lv_printf.c ****     }
 5565              		.loc 1 429 0
 5566 0fe8 1CAA     		add	r2, sp, #112
 5567 0fea 3A44     		add	r2, r2, r7
 5568 0fec 2B21     		movs	r1, #43
 5569 0fee 0137     		adds	r7, r7, #1
 5570              	.LVL818:
 5571 0ff0 02F8201C 		strb	r1, [r2, #-32]
 5572 0ff4 DAE4     		b	.L535
 5573              	.LVL819:
 5574              	.L515:
 5575              	.LBB341:
 397:..\..\..\lvgl\version_6.1.2\lvgl\src\lv_misc/lv_printf.c ****       buf[len++] = '0';
 5576              		.loc 1 397 0
 5577 0ff6 2029     		cmp	r1, #32
 5578 0ff8 3FF426AF 		beq	.L526
 5579              	.LVL820:
 5580 0ffc 5EB1     		cbz	r6, .L520
 5581 0ffe 1CAB     		add	r3, sp, #112
 5582 1000 0B44     		add	r3, r3, r1
 5583 1002 213B     		subs	r3, r3, #33
 398:..\..\..\lvgl\version_6.1.2\lvgl\src\lv_misc/lv_printf.c ****     }
 5584              		.loc 1 398 0
 5585 1004 3022     		movs	r2, #48
 5586              	.LVL821:
 5587              	.L522:
 5588 1006 0131     		adds	r1, r1, #1
 5589              	.LVL822:
 397:..\..\..\lvgl\version_6.1.2\lvgl\src\lv_misc/lv_printf.c ****       buf[len++] = '0';
 5590              		.loc 1 397 0
 5591 1008 2029     		cmp	r1, #32
 398:..\..\..\lvgl\version_6.1.2\lvgl\src\lv_misc/lv_printf.c ****     }
 5592              		.loc 1 398 0
 5593 100a 03F8012F 		strb	r2, [r3, #1]!
 5594              	.LVL823:
 397:..\..\..\lvgl\version_6.1.2\lvgl\src\lv_misc/lv_printf.c ****       buf[len++] = '0';
 5595              		.loc 1 397 0
 5596 100e 3FF41BAF 		beq	.L526
 5597 1012 013E     		subs	r6, r6, #1
 5598              	.LVL824:
 5599 1014 F7D1     		bne	.L522
 5600              	.LVL825:
 5601              	.L520:
 402:..\..\..\lvgl\version_6.1.2\lvgl\src\lv_misc/lv_printf.c ****     }
 5602              		.loc 1 402 0
 5603 1016 1CAB     		add	r3, sp, #112
 5604 1018 0B44     		add	r3, r3, r1
 5605 101a 2E22     		movs	r2, #46
 5606 101c 01F10109 		add	r9, r1, #1
 5607              	.LVL826:
 5608 1020 03F8202C 		strb	r2, [r3, #-32]
 5609 1024 84E4     		b	.L513
 5610              	.LVL827:
 5611              	.L827:
ARM GAS  C:\Users\pearlstl\AppData\Local\Temp\ccbpFzqf.s 			page 127


 5612              	.LBE341:
 5613              	.LBB342:
 5614              	.LBB336:
 178:..\..\..\lvgl\version_6.1.2\lvgl\src\lv_misc/lv_printf.c ****       size_t i;
 5615              		.loc 1 178 0
 5616 1026 5646     		mov	r6, r10
 5617 1028 2027     		movs	r7, #32
 5618 102a 14AB     		add	r3, sp, #80
 5619              	.LVL828:
 5620 102c CAE4     		b	.L534
 5621              	.LVL829:
 5622              	.L618:
 5623              	.LBE336:
 5624              	.LBE342:
 419:..\..\..\lvgl\version_6.1.2\lvgl\src\lv_misc/lv_printf.c ****       buf[len++] = '0';
 5625              		.loc 1 419 0
 5626 102e 4746     		mov	r7, r8
 5627              	.LVL830:
 5628              	.L529:
 424:..\..\..\lvgl\version_6.1.2\lvgl\src\lv_misc/lv_printf.c ****     if (negative) {
 5629              		.loc 1 424 0
 5630 1030 1F2F     		cmp	r7, #31
 5631 1032 98BF     		it	ls
 5632 1034 0123     		movls	r3, #1
 5633 1036 7FF6AFAC 		bls	.L582
 5634 103a BAE4     		b	.L532
 5635              	.LVL831:
 5636              	.L819:
 5637              	.LBE349:
 5638              	.LBE372:
 5639              	.LBE385:
 5640              	.LBE418:
 5641              	.LBB419:
 5642              	.LBB316:
 702:..\..\..\lvgl\version_6.1.2\lvgl\src\lv_misc/lv_printf.c **** #endif
 5643              		.loc 1 702 0
 5644 103c 5242     		rsbs	r2, r2, #0
 5645 103e 61EB4103 		sbc	r3, r1, r1, lsl #1
 5646 1042 E3E5     		b	.L433
 5647              	.LVL832:
 5648              	.L537:
 5649              	.LBE316:
 5650              	.LBE419:
 5651              	.LBB420:
 5652              	.LBB386:
 5653              	.LBB373:
 5654              	.LBB350:
 431:..\..\..\lvgl\version_6.1.2\lvgl\src\lv_misc/lv_printf.c ****       buf[len++] = ' ';
 5655              		.loc 1 431 0
 5656 1044 2E07     		lsls	r6, r5, #28
 5657 1046 7FF5B7AC 		bpl	.L538
 432:..\..\..\lvgl\version_6.1.2\lvgl\src\lv_misc/lv_printf.c ****     }
 5658              		.loc 1 432 0
 5659 104a 1CAA     		add	r2, sp, #112
 5660 104c 3A44     		add	r2, r2, r7
 5661 104e 2021     		movs	r1, #32
 5662 1050 0137     		adds	r7, r7, #1
ARM GAS  C:\Users\pearlstl\AppData\Local\Temp\ccbpFzqf.s 			page 128


 5663              	.LVL833:
 5664 1052 02F8201C 		strb	r1, [r2, #-32]
 5665 1056 A9E4     		b	.L535
 5666              	.LVL834:
 5667              	.L817:
 416:..\..\..\lvgl\version_6.1.2\lvgl\src\lv_misc/lv_printf.c ****       width--;
 5668              		.loc 1 416 0
 5669 1058 B8F1000F 		cmp	r8, #0
 5670 105c E8D0     		beq	.L529
 5671 105e 80E7     		b	.L586
 5672              	.LVL835:
 5673              	.L617:
 419:..\..\..\lvgl\version_6.1.2\lvgl\src\lv_misc/lv_printf.c ****       buf[len++] = '0';
 5674              		.loc 1 419 0
 5675 1060 2027     		movs	r7, #32
 5676              	.LVL836:
 5677 1062 A6E4     		b	.L532
 5678              	.LVL837:
 5679              	.L801:
 5680              	.LBE350:
 5681              	.LBE373:
 5682              	.LBE386:
 5683              	.LBE420:
 5684              	.LBB421:
 687:..\..\..\lvgl\version_6.1.2\lvgl\src\lv_misc/lv_printf.c ****           flags &= ~(FLAGS_PLUS | FLAGS_SPACE);
 5685              		.loc 1 687 0
 5686 1064 6428     		cmp	r0, #100
 679:..\..\..\lvgl\version_6.1.2\lvgl\src\lv_misc/lv_printf.c ****         }
 5687              		.loc 1 679 0
 5688 1066 1D46     		mov	r5, r3
 678:..\..\..\lvgl\version_6.1.2\lvgl\src\lv_misc/lv_printf.c ****           flags &= ~FLAGS_HASH;   // no hash for dec format
 5689              		.loc 1 678 0
 5690 1068 4FF00A07 		mov	r7, #10
 687:..\..\..\lvgl\version_6.1.2\lvgl\src\lv_misc/lv_printf.c ****           flags &= ~(FLAGS_PLUS | FLAGS_SPACE);
 5691              		.loc 1 687 0
 5692 106c 7FF405AB 		bne	.L424
 692:..\..\..\lvgl\version_6.1.2\lvgl\src\lv_misc/lv_printf.c ****           flags &= ~FLAGS_ZEROPAD;
 5693              		.loc 1 692 0
 5694 1070 5A05     		lsls	r2, r3, #21
 5695 1072 3FF507AB 		bmi	.L580
 5696 1076 FFF778B9 		b	.L430
 5697              	.LVL838:
 5698              	.L828:
 5699 107a 084B     		ldr	r3, .L838+8
 5700              	.LBE421:
 5701              	.LBB422:
 5702              	.LBB387:
 5703              	.LBB374:
 5704              	.LBB351:
 353:..\..\..\lvgl\version_6.1.2\lvgl\src\lv_misc/lv_printf.c ****     buf[len++] = '0';
 5705              		.loc 1 353 0
 5706 107c CDF83C90 		str	r9, [sp, #60]
 5707 1080 03EBC903 		add	r3, r3, r9, lsl #3
 5708 1084 93ED007B 		vldr.64	d7, [r3]
 5709 1088 4FF00009 		mov	r9, #0
 5710 108c 57EC176B 		vmov	r6, r7, d7
 5711 1090 FFF7FEBB 		b	.L501
ARM GAS  C:\Users\pearlstl\AppData\Local\Temp\ccbpFzqf.s 			page 129


 5712              	.L839:
 5713              		.align	2
 5714              	.L838:
 5715 1094 CDCCCCCC 		.word	-858993459
 5716 1098 0000E03F 		.word	1071644672
 5717 109c 00000000 		.word	.LANCHOR0
 5718              	.LBE351:
 5719              	.LBE374:
 5720              	.LBE387:
 5721              	.LBE422:
 5722              		.cfi_endproc
 5723              	.LFE16:
 5724              		.size	_vsnprintf.constprop.2, .-_vsnprintf.constprop.2
 5725              		.section	.text.lv_snprintf,"ax",%progbits
 5726              		.align	2
 5727              		.global	lv_snprintf
 5728              		.thumb
 5729              		.thumb_func
 5730              		.type	lv_snprintf, %function
 5731              	lv_snprintf:
 5732              	.LFB12:
 833:..\..\..\lvgl\version_6.1.2\lvgl\src\lv_misc/lv_printf.c **** 
 834:..\..\..\lvgl\version_6.1.2\lvgl\src\lv_misc/lv_printf.c **** 
 835:..\..\..\lvgl\version_6.1.2\lvgl\src\lv_misc/lv_printf.c **** ///////////////////////////////////////////////////////////////////////////////
 836:..\..\..\lvgl\version_6.1.2\lvgl\src\lv_misc/lv_printf.c **** 
 837:..\..\..\lvgl\version_6.1.2\lvgl\src\lv_misc/lv_printf.c **** int lv_snprintf(char* buffer, size_t count, const char* format, ...)
 838:..\..\..\lvgl\version_6.1.2\lvgl\src\lv_misc/lv_printf.c **** {
 5733              		.loc 1 838 0
 5734              		.cfi_startproc
 5735              		@ args = 4, pretend = 8, frame = 8
 5736              		@ frame_needed = 0, uses_anonymous_args = 1
 5737              	.LVL839:
 5738 0000 0CB4     		push	{r2, r3}
 5739              		.cfi_def_cfa_offset 8
 5740              		.cfi_offset 2, -8
 5741              		.cfi_offset 3, -4
 5742 0002 00B5     		push	{lr}
 5743              		.cfi_def_cfa_offset 12
 5744              		.cfi_offset 14, -12
 5745 0004 83B0     		sub	sp, sp, #12
 5746              		.cfi_def_cfa_offset 24
 5747              		.loc 1 838 0
 5748 0006 04AB     		add	r3, sp, #16
 5749 0008 53F8042B 		ldr	r2, [r3], #4
 839:..\..\..\lvgl\version_6.1.2\lvgl\src\lv_misc/lv_printf.c ****   va_list va;
 840:..\..\..\lvgl\version_6.1.2\lvgl\src\lv_misc/lv_printf.c ****   va_start(va, format);
 5750              		.loc 1 840 0
 5751 000c 0193     		str	r3, [sp, #4]
 841:..\..\..\lvgl\version_6.1.2\lvgl\src\lv_misc/lv_printf.c ****   const int ret = _vsnprintf(_out_buffer, buffer, count, format, va);
 5752              		.loc 1 841 0
 5753 000e FFF7FEFF 		bl	_vsnprintf.constprop.2
 5754              	.LVL840:
 842:..\..\..\lvgl\version_6.1.2\lvgl\src\lv_misc/lv_printf.c ****   va_end(va);
 843:..\..\..\lvgl\version_6.1.2\lvgl\src\lv_misc/lv_printf.c ****   return ret;
 844:..\..\..\lvgl\version_6.1.2\lvgl\src\lv_misc/lv_printf.c **** }
 5755              		.loc 1 844 0
 5756 0012 03B0     		add	sp, sp, #12
ARM GAS  C:\Users\pearlstl\AppData\Local\Temp\ccbpFzqf.s 			page 130


 5757              		.cfi_def_cfa_offset 12
 5758              		@ sp needed
 5759 0014 5DF804EB 		ldr	lr, [sp], #4
 5760              		.cfi_restore 14
 5761              		.cfi_def_cfa_offset 8
 5762 0018 02B0     		add	sp, sp, #8
 5763              		.cfi_restore 3
 5764              		.cfi_restore 2
 5765              		.cfi_def_cfa_offset 0
 5766 001a 7047     		bx	lr
 5767              		.cfi_endproc
 5768              	.LFE12:
 5769              		.size	lv_snprintf, .-lv_snprintf
 5770              		.section	.text.lv_vsnprintf,"ax",%progbits
 5771              		.align	2
 5772              		.global	lv_vsnprintf
 5773              		.thumb
 5774              		.thumb_func
 5775              		.type	lv_vsnprintf, %function
 5776              	lv_vsnprintf:
 5777              	.LFB13:
 845:..\..\..\lvgl\version_6.1.2\lvgl\src\lv_misc/lv_printf.c **** 
 846:..\..\..\lvgl\version_6.1.2\lvgl\src\lv_misc/lv_printf.c **** int lv_vsnprintf(char* buffer, size_t count, const char* format, va_list va)
 847:..\..\..\lvgl\version_6.1.2\lvgl\src\lv_misc/lv_printf.c **** {
 5778              		.loc 1 847 0
 5779              		.cfi_startproc
 5780              		@ args = 0, pretend = 0, frame = 0
 5781              		@ frame_needed = 0, uses_anonymous_args = 0
 5782              		@ link register save eliminated.
 5783              	.LVL841:
 848:..\..\..\lvgl\version_6.1.2\lvgl\src\lv_misc/lv_printf.c ****   return _vsnprintf(_out_buffer, buffer, count, format, va);
 5784              		.loc 1 848 0
 5785 0000 FFF7FEBF 		b	_vsnprintf.constprop.2
 5786              	.LVL842:
 5787              		.cfi_endproc
 5788              	.LFE13:
 5789              		.size	lv_vsnprintf, .-lv_vsnprintf
 5790              		.section	.rodata
 5791              		.align	3
 5792              		.set	.LANCHOR0,. + 0
 5793              		.type	pow10.4373, %object
 5794              		.size	pow10.4373, 80
 5795              	pow10.4373:
 5796 0000 00000000 		.word	0
 5797 0004 0000F03F 		.word	1072693248
 5798 0008 00000000 		.word	0
 5799 000c 00002440 		.word	1076101120
 5800 0010 00000000 		.word	0
 5801 0014 00005940 		.word	1079574528
 5802 0018 00000000 		.word	0
 5803 001c 00408F40 		.word	1083129856
 5804 0020 00000000 		.word	0
 5805 0024 0088C340 		.word	1086556160
 5806 0028 00000000 		.word	0
 5807 002c 006AF840 		.word	1090021888
 5808 0030 00000000 		.word	0
 5809 0034 80842E41 		.word	1093567616
ARM GAS  C:\Users\pearlstl\AppData\Local\Temp\ccbpFzqf.s 			page 131


 5810 0038 00000000 		.word	0
 5811 003c D0126341 		.word	1097011920
 5812 0040 00000000 		.word	0
 5813 0044 84D79741 		.word	1100470148
 5814 0048 00000000 		.word	0
 5815 004c 65CDCD41 		.word	1104006501
 5816              		.section	.rodata.str1.4,"aMS",%progbits,1
 5817              		.align	2
 5818              	.LC0:
 5819 0000 6E616E00 		.ascii	"nan\000"
 5820              	.LC1:
 5821 0004 666E692D 		.ascii	"fni-\000"
 5821      00
 5822 0009 000000   		.space	3
 5823              	.LC2:
 5824 000c 666E692B 		.ascii	"fni+\000"
 5824      00
 5825 0011 000000   		.space	3
 5826              	.LC3:
 5827 0014 666E6900 		.ascii	"fni\000"
 5828              		.text
 5829              	.Letext0:
 5830              		.file 2 "c:\\program files (x86)\\cypress\\psoc creator\\4.2\\psoc creator\\import\\gnu\\arm\\5.4.
 5831              		.file 3 "c:\\program files (x86)\\cypress\\psoc creator\\4.2\\psoc creator\\import\\gnu\\arm\\5.4.
 5832              		.file 4 "c:\\program files (x86)\\cypress\\psoc creator\\4.2\\psoc creator\\import\\gnu\\arm\\5.4.
 5833              		.file 5 "c:\\program files (x86)\\cypress\\psoc creator\\4.2\\psoc creator\\import\\gnu\\arm\\5.4.
 5834              		.file 6 "<built-in>"
 5835              		.section	.debug_info,"",%progbits
 5836              	.Ldebug_info0:
 5837 0000 BB200000 		.4byte	0x20bb
 5838 0004 0400     		.2byte	0x4
 5839 0006 00000000 		.4byte	.Ldebug_abbrev0
 5840 000a 04       		.byte	0x4
 5841 000b 01       		.uleb128 0x1
 5842 000c 3A020000 		.4byte	.LASF59
 5843 0010 0C       		.byte	0xc
 5844 0011 2E010000 		.4byte	.LASF60
 5845 0015 00000000 		.4byte	.LASF61
 5846 0019 E8060000 		.4byte	.Ldebug_ranges0+0x6e8
 5847 001d 00000000 		.4byte	0
 5848 0021 00000000 		.4byte	.Ldebug_line0
 5849 0025 02       		.uleb128 0x2
 5850 0026 08       		.byte	0x8
 5851 0027 04       		.byte	0x4
 5852 0028 49030000 		.4byte	.LASF0
 5853 002c 02       		.uleb128 0x2
 5854 002d 08       		.byte	0x8
 5855 002e 07       		.byte	0x7
 5856 002f D8010000 		.4byte	.LASF1
 5857 0033 03       		.uleb128 0x3
 5858 0034 04       		.byte	0x4
 5859 0035 05       		.byte	0x5
 5860 0036 696E7400 		.ascii	"int\000"
 5861 003a 02       		.uleb128 0x2
 5862 003b 04       		.byte	0x4
 5863 003c 07       		.byte	0x7
 5864 003d EF010000 		.4byte	.LASF2
ARM GAS  C:\Users\pearlstl\AppData\Local\Temp\ccbpFzqf.s 			page 132


 5865 0041 02       		.uleb128 0x2
 5866 0042 01       		.byte	0x1
 5867 0043 06       		.byte	0x6
 5868 0044 C6010000 		.4byte	.LASF3
 5869 0048 02       		.uleb128 0x2
 5870 0049 01       		.byte	0x1
 5871 004a 08       		.byte	0x8
 5872 004b AD010000 		.4byte	.LASF4
 5873 004f 02       		.uleb128 0x2
 5874 0050 02       		.byte	0x2
 5875 0051 05       		.byte	0x5
 5876 0052 A2000000 		.4byte	.LASF5
 5877 0056 02       		.uleb128 0x2
 5878 0057 02       		.byte	0x2
 5879 0058 07       		.byte	0x7
 5880 0059 03020000 		.4byte	.LASF6
 5881 005d 02       		.uleb128 0x2
 5882 005e 04       		.byte	0x4
 5883 005f 05       		.byte	0x5
 5884 0060 31020000 		.4byte	.LASF7
 5885 0064 02       		.uleb128 0x2
 5886 0065 04       		.byte	0x4
 5887 0066 07       		.byte	0x7
 5888 0067 37030000 		.4byte	.LASF8
 5889 006b 02       		.uleb128 0x2
 5890 006c 08       		.byte	0x8
 5891 006d 05       		.byte	0x5
 5892 006e 16010000 		.4byte	.LASF9
 5893 0072 04       		.uleb128 0x4
 5894 0073 F3020000 		.4byte	.LASF10
 5895 0077 02       		.byte	0x2
 5896 0078 5B       		.byte	0x5b
 5897 0079 2C000000 		.4byte	0x2c
 5898 007d 04       		.uleb128 0x4
 5899 007e 63030000 		.4byte	.LASF11
 5900 0082 02       		.byte	0x2
 5901 0083 CA       		.byte	0xca
 5902 0084 3A000000 		.4byte	0x3a
 5903 0088 04       		.uleb128 0x4
 5904 0089 99000000 		.4byte	.LASF12
 5905 008d 03       		.byte	0x3
 5906 008e 3C       		.byte	0x3c
 5907 008f 72000000 		.4byte	0x72
 5908 0093 04       		.uleb128 0x4
 5909 0094 EB000000 		.4byte	.LASF13
 5910 0098 03       		.byte	0x3
 5911 0099 48       		.byte	0x48
 5912 009a 7D000000 		.4byte	0x7d
 5913 009e 05       		.uleb128 0x5
 5914 009f 04       		.byte	0x4
 5915 00a0 04       		.uleb128 0x4
 5916 00a1 89030000 		.4byte	.LASF14
 5917 00a5 04       		.byte	0x4
 5918 00a6 28       		.byte	0x28
 5919 00a7 AB000000 		.4byte	0xab
 5920 00ab 06       		.uleb128 0x6
 5921 00ac 24010000 		.4byte	.LASF62
ARM GAS  C:\Users\pearlstl\AppData\Local\Temp\ccbpFzqf.s 			page 133


 5922 00b0 04       		.byte	0x4
 5923 00b1 06       		.byte	0x6
 5924 00b2 00       		.byte	0
 5925 00b3 C2000000 		.4byte	0xc2
 5926 00b7 07       		.uleb128 0x7
 5927 00b8 27020000 		.4byte	.LASF29
 5928 00bc 9E000000 		.4byte	0x9e
 5929 00c0 00       		.byte	0
 5930 00c1 00       		.byte	0
 5931 00c2 04       		.uleb128 0x4
 5932 00c3 D1000000 		.4byte	.LASF15
 5933 00c7 04       		.byte	0x4
 5934 00c8 62       		.byte	0x62
 5935 00c9 A0000000 		.4byte	0xa0
 5936 00cd 04       		.uleb128 0x4
 5937 00ce AC000000 		.4byte	.LASF16
 5938 00d2 05       		.byte	0x5
 5939 00d3 D8       		.byte	0xd8
 5940 00d4 3A000000 		.4byte	0x3a
 5941 00d8 02       		.uleb128 0x2
 5942 00d9 08       		.byte	0x8
 5943 00da 04       		.byte	0x4
 5944 00db A1010000 		.4byte	.LASF17
 5945 00df 04       		.uleb128 0x4
 5946 00e0 94010000 		.4byte	.LASF18
 5947 00e4 01       		.byte	0x1
 5948 00e5 74       		.byte	0x74
 5949 00e6 EA000000 		.4byte	0xea
 5950 00ea 08       		.uleb128 0x8
 5951 00eb 04       		.byte	0x4
 5952 00ec F0000000 		.4byte	0xf0
 5953 00f0 09       		.uleb128 0x9
 5954 00f1 0A010000 		.4byte	0x10a
 5955 00f5 0A       		.uleb128 0xa
 5956 00f6 0A010000 		.4byte	0x10a
 5957 00fa 0A       		.uleb128 0xa
 5958 00fb 9E000000 		.4byte	0x9e
 5959 00ff 0A       		.uleb128 0xa
 5960 0100 CD000000 		.4byte	0xcd
 5961 0104 0A       		.uleb128 0xa
 5962 0105 CD000000 		.4byte	0xcd
 5963 0109 00       		.byte	0
 5964 010a 02       		.uleb128 0x2
 5965 010b 01       		.byte	0x1
 5966 010c 08       		.byte	0x8
 5967 010d 2C020000 		.4byte	.LASF19
 5968 0111 0B       		.uleb128 0xb
 5969 0112 FE020000 		.4byte	.LASF21
 5970 0116 01       		.byte	0x1
 5971 0117 9B       		.byte	0x9b
 5972 0118 2C010000 		.4byte	0x12c
 5973 011c 03       		.byte	0x3
 5974 011d 2C010000 		.4byte	0x12c
 5975 0121 0C       		.uleb128 0xc
 5976 0122 636800   		.ascii	"ch\000"
 5977 0125 01       		.byte	0x1
 5978 0126 9B       		.byte	0x9b
ARM GAS  C:\Users\pearlstl\AppData\Local\Temp\ccbpFzqf.s 			page 134


 5979 0127 0A010000 		.4byte	0x10a
 5980 012b 00       		.byte	0
 5981 012c 02       		.uleb128 0x2
 5982 012d 01       		.byte	0x1
 5983 012e 02       		.byte	0x2
 5984 012f ED020000 		.4byte	.LASF20
 5985 0133 0D       		.uleb128 0xd
 5986 0134 CB000000 		.4byte	.LASF22
 5987 0138 01       		.byte	0x1
 5988 0139 BA01     		.2byte	0x1ba
 5989 013b CD000000 		.4byte	0xcd
 5990 013f 01       		.byte	0x1
 5991 0140 2C020000 		.4byte	0x22c
 5992 0144 0E       		.uleb128 0xe
 5993 0145 6F757400 		.ascii	"out\000"
 5994 0149 01       		.byte	0x1
 5995 014a BA01     		.2byte	0x1ba
 5996 014c DF000000 		.4byte	0xdf
 5997 0150 0F       		.uleb128 0xf
 5998 0151 08030000 		.4byte	.LASF23
 5999 0155 01       		.byte	0x1
 6000 0156 BA01     		.2byte	0x1ba
 6001 0158 2C020000 		.4byte	0x22c
 6002 015c 0E       		.uleb128 0xe
 6003 015d 69647800 		.ascii	"idx\000"
 6004 0161 01       		.byte	0x1
 6005 0162 BA01     		.2byte	0x1ba
 6006 0164 CD000000 		.4byte	0xcd
 6007 0168 0F       		.uleb128 0xf
 6008 0169 FC010000 		.4byte	.LASF24
 6009 016d 01       		.byte	0x1
 6010 016e BA01     		.2byte	0x1ba
 6011 0170 CD000000 		.4byte	0xcd
 6012 0174 0F       		.uleb128 0xf
 6013 0175 E5000000 		.4byte	.LASF25
 6014 0179 01       		.byte	0x1
 6015 017a BA01     		.2byte	0x1ba
 6016 017c 25000000 		.4byte	0x25
 6017 0180 0F       		.uleb128 0xf
 6018 0181 7D030000 		.4byte	.LASF26
 6019 0185 01       		.byte	0x1
 6020 0186 BA01     		.2byte	0x1ba
 6021 0188 3A000000 		.4byte	0x3a
 6022 018c 0F       		.uleb128 0xf
 6023 018d 0B010000 		.4byte	.LASF27
 6024 0191 01       		.byte	0x1
 6025 0192 BA01     		.2byte	0x1ba
 6026 0194 3A000000 		.4byte	0x3a
 6027 0198 0F       		.uleb128 0xf
 6028 0199 D2010000 		.4byte	.LASF28
 6029 019d 01       		.byte	0x1
 6030 019e BA01     		.2byte	0x1ba
 6031 01a0 3A000000 		.4byte	0x3a
 6032 01a4 10       		.uleb128 0x10
 6033 01a5 7A010000 		.4byte	.LASF30
 6034 01a9 01       		.byte	0x1
 6035 01aa C201     		.2byte	0x1c2
ARM GAS  C:\Users\pearlstl\AppData\Local\Temp\ccbpFzqf.s 			page 135


 6036 01ac 32020000 		.4byte	0x232
 6037 01b0 11       		.uleb128 0x11
 6038 01b1 08       		.byte	0x8
 6039 01b2 01       		.byte	0x1
 6040 01b3 CE01     		.2byte	0x1ce
 6041 01b5 CE010000 		.4byte	0x1ce
 6042 01b9 12       		.uleb128 0x12
 6043 01ba 5500     		.ascii	"U\000"
 6044 01bc 01       		.byte	0x1
 6045 01bd CF01     		.2byte	0x1cf
 6046 01bf 88000000 		.4byte	0x88
 6047 01c3 12       		.uleb128 0x12
 6048 01c4 4600     		.ascii	"F\000"
 6049 01c6 01       		.byte	0x1
 6050 01c7 D001     		.2byte	0x1d0
 6051 01c9 25000000 		.4byte	0x25
 6052 01cd 00       		.byte	0
 6053 01ce 10       		.uleb128 0x10
 6054 01cf 11010000 		.4byte	.LASF31
 6055 01d3 01       		.byte	0x1
 6056 01d4 D101     		.2byte	0x1d1
 6057 01d6 B0010000 		.4byte	0x1b0
 6058 01da 10       		.uleb128 0x10
 6059 01db 83000000 		.4byte	.LASF32
 6060 01df 01       		.byte	0x1
 6061 01e0 D401     		.2byte	0x1d4
 6062 01e2 33000000 		.4byte	0x33
 6063 01e6 10       		.uleb128 0x10
 6064 01e7 8D010000 		.4byte	.LASF33
 6065 01eb 01       		.byte	0x1
 6066 01ec D701     		.2byte	0x1d7
 6067 01ee 33000000 		.4byte	0x33
 6068 01f2 13       		.uleb128 0x13
 6069 01f3 7A00     		.ascii	"z\000"
 6070 01f5 01       		.byte	0x1
 6071 01f6 DA01     		.2byte	0x1da
 6072 01f8 37020000 		.4byte	0x237
 6073 01fc 13       		.uleb128 0x13
 6074 01fd 7A3200   		.ascii	"z2\000"
 6075 0200 01       		.byte	0x1
 6076 0201 DB01     		.2byte	0x1db
 6077 0203 37020000 		.4byte	0x237
 6078 0207 10       		.uleb128 0x10
 6079 0208 B3000000 		.4byte	.LASF34
 6080 020c 01       		.byte	0x1
 6081 020d E601     		.2byte	0x1e6
 6082 020f 3A000000 		.4byte	0x3a
 6083 0213 10       		.uleb128 0x10
 6084 0214 82030000 		.4byte	.LASF35
 6085 0218 01       		.byte	0x1
 6086 0219 0002     		.2byte	0x200
 6087 021b 3A000000 		.4byte	0x3a
 6088 021f 10       		.uleb128 0x10
 6089 0220 F5000000 		.4byte	.LASF36
 6090 0224 01       		.byte	0x1
 6091 0225 1302     		.2byte	0x213
 6092 0227 3C020000 		.4byte	0x23c
ARM GAS  C:\Users\pearlstl\AppData\Local\Temp\ccbpFzqf.s 			page 136


 6093 022b 00       		.byte	0
 6094 022c 08       		.uleb128 0x8
 6095 022d 04       		.byte	0x4
 6096 022e 0A010000 		.4byte	0x10a
 6097 0232 14       		.uleb128 0x14
 6098 0233 2C010000 		.4byte	0x12c
 6099 0237 14       		.uleb128 0x14
 6100 0238 25000000 		.4byte	0x25
 6101 023c 14       		.uleb128 0x14
 6102 023d CD000000 		.4byte	0xcd
 6103 0241 0D       		.uleb128 0xd
 6104 0242 74010000 		.4byte	.LASF37
 6105 0246 01       		.byte	0x1
 6106 0247 3A01     		.2byte	0x13a
 6107 0249 CD000000 		.4byte	0xcd
 6108 024d 01       		.byte	0x1
 6109 024e 72030000 		.4byte	0x372
 6110 0252 0E       		.uleb128 0xe
 6111 0253 6F757400 		.ascii	"out\000"
 6112 0257 01       		.byte	0x1
 6113 0258 3A01     		.2byte	0x13a
 6114 025a DF000000 		.4byte	0xdf
 6115 025e 0F       		.uleb128 0xf
 6116 025f 08030000 		.4byte	.LASF23
 6117 0263 01       		.byte	0x1
 6118 0264 3A01     		.2byte	0x13a
 6119 0266 2C020000 		.4byte	0x22c
 6120 026a 0E       		.uleb128 0xe
 6121 026b 69647800 		.ascii	"idx\000"
 6122 026f 01       		.byte	0x1
 6123 0270 3A01     		.2byte	0x13a
 6124 0272 CD000000 		.4byte	0xcd
 6125 0276 0F       		.uleb128 0xf
 6126 0277 FC010000 		.4byte	.LASF24
 6127 027b 01       		.byte	0x1
 6128 027c 3A01     		.2byte	0x13a
 6129 027e CD000000 		.4byte	0xcd
 6130 0282 0F       		.uleb128 0xf
 6131 0283 E5000000 		.4byte	.LASF25
 6132 0287 01       		.byte	0x1
 6133 0288 3A01     		.2byte	0x13a
 6134 028a 25000000 		.4byte	0x25
 6135 028e 0F       		.uleb128 0xf
 6136 028f 7D030000 		.4byte	.LASF26
 6137 0293 01       		.byte	0x1
 6138 0294 3A01     		.2byte	0x13a
 6139 0296 3A000000 		.4byte	0x3a
 6140 029a 0F       		.uleb128 0xf
 6141 029b 0B010000 		.4byte	.LASF27
 6142 029f 01       		.byte	0x1
 6143 02a0 3A01     		.2byte	0x13a
 6144 02a2 3A000000 		.4byte	0x3a
 6145 02a6 0F       		.uleb128 0xf
 6146 02a7 D2010000 		.4byte	.LASF28
 6147 02ab 01       		.byte	0x1
 6148 02ac 3A01     		.2byte	0x13a
 6149 02ae 3A000000 		.4byte	0x3a
ARM GAS  C:\Users\pearlstl\AppData\Local\Temp\ccbpFzqf.s 			page 137


 6150 02b2 13       		.uleb128 0x13
 6151 02b3 62756600 		.ascii	"buf\000"
 6152 02b7 01       		.byte	0x1
 6153 02b8 3C01     		.2byte	0x13c
 6154 02ba 72030000 		.4byte	0x372
 6155 02be 13       		.uleb128 0x13
 6156 02bf 6C656E00 		.ascii	"len\000"
 6157 02c3 01       		.byte	0x1
 6158 02c4 3D01     		.2byte	0x13d
 6159 02c6 CD000000 		.4byte	0xcd
 6160 02ca 10       		.uleb128 0x10
 6161 02cb 88000000 		.4byte	.LASF38
 6162 02cf 01       		.byte	0x1
 6163 02d0 3E01     		.2byte	0x13e
 6164 02d2 25000000 		.4byte	0x25
 6165 02d6 15       		.uleb128 0x15
 6166 02d7 A9030000 		.4byte	.LASF58
 6167 02db 01       		.byte	0x1
 6168 02dc 4101     		.2byte	0x141
 6169 02de 99030000 		.4byte	0x399
 6170 02e2 50       		.byte	0x50
 6171 02e3 00       		.byte	0
 6172 02e4 00       		.byte	0
 6173 02e5 00       		.byte	0
 6174 02e6 00       		.byte	0
 6175 02e7 00       		.byte	0
 6176 02e8 00       		.byte	0
 6177 02e9 F0       		.byte	0xf0
 6178 02ea 3F       		.byte	0x3f
 6179 02eb 00       		.byte	0
 6180 02ec 00       		.byte	0
 6181 02ed 00       		.byte	0
 6182 02ee 00       		.byte	0
 6183 02ef 00       		.byte	0
 6184 02f0 00       		.byte	0
 6185 02f1 24       		.byte	0x24
 6186 02f2 40       		.byte	0x40
 6187 02f3 00       		.byte	0
 6188 02f4 00       		.byte	0
 6189 02f5 00       		.byte	0
 6190 02f6 00       		.byte	0
 6191 02f7 00       		.byte	0
 6192 02f8 00       		.byte	0
 6193 02f9 59       		.byte	0x59
 6194 02fa 40       		.byte	0x40
 6195 02fb 00       		.byte	0
 6196 02fc 00       		.byte	0
 6197 02fd 00       		.byte	0
 6198 02fe 00       		.byte	0
 6199 02ff 00       		.byte	0
 6200 0300 40       		.byte	0x40
 6201 0301 8F       		.byte	0x8f
 6202 0302 40       		.byte	0x40
 6203 0303 00       		.byte	0
 6204 0304 00       		.byte	0
 6205 0305 00       		.byte	0
 6206 0306 00       		.byte	0
ARM GAS  C:\Users\pearlstl\AppData\Local\Temp\ccbpFzqf.s 			page 138


 6207 0307 00       		.byte	0
 6208 0308 88       		.byte	0x88
 6209 0309 C3       		.byte	0xc3
 6210 030a 40       		.byte	0x40
 6211 030b 00       		.byte	0
 6212 030c 00       		.byte	0
 6213 030d 00       		.byte	0
 6214 030e 00       		.byte	0
 6215 030f 00       		.byte	0
 6216 0310 6A       		.byte	0x6a
 6217 0311 F8       		.byte	0xf8
 6218 0312 40       		.byte	0x40
 6219 0313 00       		.byte	0
 6220 0314 00       		.byte	0
 6221 0315 00       		.byte	0
 6222 0316 00       		.byte	0
 6223 0317 80       		.byte	0x80
 6224 0318 84       		.byte	0x84
 6225 0319 2E       		.byte	0x2e
 6226 031a 41       		.byte	0x41
 6227 031b 00       		.byte	0
 6228 031c 00       		.byte	0
 6229 031d 00       		.byte	0
 6230 031e 00       		.byte	0
 6231 031f D0       		.byte	0xd0
 6232 0320 12       		.byte	0x12
 6233 0321 63       		.byte	0x63
 6234 0322 41       		.byte	0x41
 6235 0323 00       		.byte	0
 6236 0324 00       		.byte	0
 6237 0325 00       		.byte	0
 6238 0326 00       		.byte	0
 6239 0327 84       		.byte	0x84
 6240 0328 D7       		.byte	0xd7
 6241 0329 97       		.byte	0x97
 6242 032a 41       		.byte	0x41
 6243 032b 00       		.byte	0
 6244 032c 00       		.byte	0
 6245 032d 00       		.byte	0
 6246 032e 00       		.byte	0
 6247 032f 65       		.byte	0x65
 6248 0330 CD       		.byte	0xcd
 6249 0331 CD       		.byte	0xcd
 6250 0332 41       		.byte	0x41
 6251 0333 10       		.uleb128 0x10
 6252 0334 7A010000 		.4byte	.LASF30
 6253 0338 01       		.byte	0x1
 6254 0339 5601     		.2byte	0x156
 6255 033b 2C010000 		.4byte	0x12c
 6256 033f 10       		.uleb128 0x10
 6257 0340 21020000 		.4byte	.LASF39
 6258 0344 01       		.byte	0x1
 6259 0345 6601     		.2byte	0x166
 6260 0347 33000000 		.4byte	0x33
 6261 034b 13       		.uleb128 0x13
 6262 034c 746D7000 		.ascii	"tmp\000"
 6263 0350 01       		.byte	0x1
ARM GAS  C:\Users\pearlstl\AppData\Local\Temp\ccbpFzqf.s 			page 139


 6264 0351 6701     		.2byte	0x167
 6265 0353 25000000 		.4byte	0x25
 6266 0357 10       		.uleb128 0x10
 6267 0358 E0000000 		.4byte	.LASF40
 6268 035c 01       		.byte	0x1
 6269 035d 6801     		.2byte	0x168
 6270 035f 64000000 		.4byte	0x64
 6271 0363 16       		.uleb128 0x16
 6272 0364 10       		.uleb128 0x10
 6273 0365 6F030000 		.4byte	.LASF41
 6274 0369 01       		.byte	0x1
 6275 036a 8301     		.2byte	0x183
 6276 036c 3A000000 		.4byte	0x3a
 6277 0370 00       		.byte	0
 6278 0371 00       		.byte	0
 6279 0372 17       		.uleb128 0x17
 6280 0373 0A010000 		.4byte	0x10a
 6281 0377 82030000 		.4byte	0x382
 6282 037b 18       		.uleb128 0x18
 6283 037c 82030000 		.4byte	0x382
 6284 0380 1F       		.byte	0x1f
 6285 0381 00       		.byte	0
 6286 0382 02       		.uleb128 0x2
 6287 0383 04       		.byte	0x4
 6288 0384 07       		.byte	0x7
 6289 0385 BC000000 		.4byte	.LASF42
 6290 0389 17       		.uleb128 0x17
 6291 038a 37020000 		.4byte	0x237
 6292 038e 99030000 		.4byte	0x399
 6293 0392 18       		.uleb128 0x18
 6294 0393 82030000 		.4byte	0x382
 6295 0397 09       		.byte	0x9
 6296 0398 00       		.byte	0
 6297 0399 14       		.uleb128 0x14
 6298 039a 89030000 		.4byte	0x389
 6299 039e 0B       		.uleb128 0xb
 6300 039f C5000000 		.4byte	.LASF43
 6301 03a3 01       		.byte	0x1
 6302 03a4 A2       		.byte	0xa2
 6303 03a5 3A000000 		.4byte	0x3a
 6304 03a9 01       		.byte	0x1
 6305 03aa C3030000 		.4byte	0x3c3
 6306 03ae 0C       		.uleb128 0xc
 6307 03af 73747200 		.ascii	"str\000"
 6308 03b3 01       		.byte	0x1
 6309 03b4 A2       		.byte	0xa2
 6310 03b5 C3030000 		.4byte	0x3c3
 6311 03b9 19       		.uleb128 0x19
 6312 03ba 6900     		.ascii	"i\000"
 6313 03bc 01       		.byte	0x1
 6314 03bd A4       		.byte	0xa4
 6315 03be 3A000000 		.4byte	0x3a
 6316 03c2 00       		.byte	0
 6317 03c3 08       		.uleb128 0x8
 6318 03c4 04       		.byte	0x4
 6319 03c5 C9030000 		.4byte	0x3c9
 6320 03c9 08       		.uleb128 0x8
ARM GAS  C:\Users\pearlstl\AppData\Local\Temp\ccbpFzqf.s 			page 140


 6321 03ca 04       		.byte	0x4
 6322 03cb CF030000 		.4byte	0x3cf
 6323 03cf 14       		.uleb128 0x14
 6324 03d0 0A010000 		.4byte	0x10a
 6325 03d4 0B       		.uleb128 0xb
 6326 03d5 16020000 		.4byte	.LASF44
 6327 03d9 01       		.byte	0x1
 6328 03da 91       		.byte	0x91
 6329 03db 3A000000 		.4byte	0x3a
 6330 03df 03       		.byte	0x3
 6331 03e0 04040000 		.4byte	0x404
 6332 03e4 0C       		.uleb128 0xc
 6333 03e5 73747200 		.ascii	"str\000"
 6334 03e9 01       		.byte	0x1
 6335 03ea 91       		.byte	0x91
 6336 03eb C9030000 		.4byte	0x3c9
 6337 03ef 1A       		.uleb128 0x1a
 6338 03f0 75030000 		.4byte	.LASF45
 6339 03f4 01       		.byte	0x1
 6340 03f5 91       		.byte	0x91
 6341 03f6 CD000000 		.4byte	0xcd
 6342 03fa 19       		.uleb128 0x19
 6343 03fb 7300     		.ascii	"s\000"
 6344 03fd 01       		.byte	0x1
 6345 03fe 93       		.byte	0x93
 6346 03ff C9030000 		.4byte	0x3c9
 6347 0403 00       		.byte	0
 6348 0404 0D       		.uleb128 0xd
 6349 0405 0F030000 		.4byte	.LASF46
 6350 0409 01       		.byte	0x1
 6351 040a 2802     		.2byte	0x228
 6352 040c 33000000 		.4byte	0x33
 6353 0410 01       		.byte	0x1
 6354 0411 3B050000 		.4byte	0x53b
 6355 0415 0E       		.uleb128 0xe
 6356 0416 6F757400 		.ascii	"out\000"
 6357 041a 01       		.byte	0x1
 6358 041b 2802     		.2byte	0x228
 6359 041d DF000000 		.4byte	0xdf
 6360 0421 0F       		.uleb128 0xf
 6361 0422 08030000 		.4byte	.LASF23
 6362 0426 01       		.byte	0x1
 6363 0427 2802     		.2byte	0x228
 6364 0429 2C020000 		.4byte	0x22c
 6365 042d 0F       		.uleb128 0xf
 6366 042e FC010000 		.4byte	.LASF24
 6367 0432 01       		.byte	0x1
 6368 0433 2802     		.2byte	0x228
 6369 0435 3C020000 		.4byte	0x23c
 6370 0439 0F       		.uleb128 0xf
 6371 043a D9000000 		.4byte	.LASF47
 6372 043e 01       		.byte	0x1
 6373 043f 2802     		.2byte	0x228
 6374 0441 C9030000 		.4byte	0x3c9
 6375 0445 0E       		.uleb128 0xe
 6376 0446 766100   		.ascii	"va\000"
 6377 0449 01       		.byte	0x1
ARM GAS  C:\Users\pearlstl\AppData\Local\Temp\ccbpFzqf.s 			page 141


 6378 044a 2802     		.2byte	0x228
 6379 044c C2000000 		.4byte	0xc2
 6380 0450 10       		.uleb128 0x10
 6381 0451 D2010000 		.4byte	.LASF28
 6382 0455 01       		.byte	0x1
 6383 0456 2A02     		.2byte	0x22a
 6384 0458 3A000000 		.4byte	0x3a
 6385 045c 10       		.uleb128 0x10
 6386 045d 0B010000 		.4byte	.LASF27
 6387 0461 01       		.byte	0x1
 6388 0462 2A02     		.2byte	0x22a
 6389 0464 3A000000 		.4byte	0x3a
 6390 0468 10       		.uleb128 0x10
 6391 0469 AF030000 		.4byte	.LASF48
 6392 046d 01       		.byte	0x1
 6393 046e 2A02     		.2byte	0x22a
 6394 0470 3A000000 		.4byte	0x3a
 6395 0474 13       		.uleb128 0x13
 6396 0475 6E00     		.ascii	"n\000"
 6397 0477 01       		.byte	0x1
 6398 0478 2A02     		.2byte	0x22a
 6399 047a 3A000000 		.4byte	0x3a
 6400 047e 13       		.uleb128 0x13
 6401 047f 69647800 		.ascii	"idx\000"
 6402 0483 01       		.byte	0x1
 6403 0484 2B02     		.2byte	0x22b
 6404 0486 CD000000 		.4byte	0xcd
 6405 048a 1B       		.uleb128 0x1b
 6406 048b 9A040000 		.4byte	0x49a
 6407 048f 13       		.uleb128 0x13
 6408 0490 7700     		.ascii	"w\000"
 6409 0492 01       		.byte	0x1
 6410 0493 5302     		.2byte	0x253
 6411 0495 3B050000 		.4byte	0x53b
 6412 0499 00       		.byte	0
 6413 049a 1B       		.uleb128 0x1b
 6414 049b AC040000 		.4byte	0x4ac
 6415 049f 10       		.uleb128 0x10
 6416 04a0 7D030000 		.4byte	.LASF26
 6417 04a4 01       		.byte	0x1
 6418 04a5 6702     		.2byte	0x267
 6419 04a7 3B050000 		.4byte	0x53b
 6420 04ab 00       		.byte	0
 6421 04ac 1B       		.uleb128 0x1b
 6422 04ad 02050000 		.4byte	0x502
 6423 04b1 10       		.uleb128 0x10
 6424 04b2 A4030000 		.4byte	.LASF49
 6425 04b6 01       		.byte	0x1
 6426 04b7 9B02     		.2byte	0x29b
 6427 04b9 3A000000 		.4byte	0x3a
 6428 04bd 1B       		.uleb128 0x1b
 6429 04be CF040000 		.4byte	0x4cf
 6430 04c2 10       		.uleb128 0x10
 6431 04c3 E5000000 		.4byte	.LASF25
 6432 04c7 01       		.byte	0x1
 6433 04c8 BD02     		.2byte	0x2bd
 6434 04ca 40050000 		.4byte	0x540
ARM GAS  C:\Users\pearlstl\AppData\Local\Temp\ccbpFzqf.s 			page 142


 6435 04ce 00       		.byte	0
 6436 04cf 1B       		.uleb128 0x1b
 6437 04d0 E1040000 		.4byte	0x4e1
 6438 04d4 10       		.uleb128 0x10
 6439 04d5 E5000000 		.4byte	.LASF25
 6440 04d9 01       		.byte	0x1
 6441 04da C202     		.2byte	0x2c2
 6442 04dc 45050000 		.4byte	0x545
 6443 04e0 00       		.byte	0
 6444 04e1 1B       		.uleb128 0x1b
 6445 04e2 F3040000 		.4byte	0x4f3
 6446 04e6 10       		.uleb128 0x10
 6447 04e7 E5000000 		.4byte	.LASF25
 6448 04eb 01       		.byte	0x1
 6449 04ec C602     		.2byte	0x2c6
 6450 04ee 3B050000 		.4byte	0x53b
 6451 04f2 00       		.byte	0
 6452 04f3 16       		.uleb128 0x16
 6453 04f4 10       		.uleb128 0x10
 6454 04f5 E5000000 		.4byte	.LASF25
 6455 04f9 01       		.byte	0x1
 6456 04fa D502     		.2byte	0x2d5
 6457 04fc 4A050000 		.4byte	0x54a
 6458 0500 00       		.byte	0
 6459 0501 00       		.byte	0
 6460 0502 1B       		.uleb128 0x1b
 6461 0503 12050000 		.4byte	0x512
 6462 0507 13       		.uleb128 0x13
 6463 0508 6C00     		.ascii	"l\000"
 6464 050a 01       		.byte	0x1
 6465 050b F002     		.2byte	0x2f0
 6466 050d 3A000000 		.4byte	0x3a
 6467 0511 00       		.byte	0
 6468 0512 1B       		.uleb128 0x1b
 6469 0513 2C050000 		.4byte	0x52c
 6470 0517 13       		.uleb128 0x13
 6471 0518 7000     		.ascii	"p\000"
 6472 051a 01       		.byte	0x1
 6473 051b 0403     		.2byte	0x304
 6474 051d C9030000 		.4byte	0x3c9
 6475 0521 13       		.uleb128 0x13
 6476 0522 6C00     		.ascii	"l\000"
 6477 0524 01       		.byte	0x1
 6478 0525 0503     		.2byte	0x305
 6479 0527 3A000000 		.4byte	0x3a
 6480 052b 00       		.byte	0
 6481 052c 16       		.uleb128 0x16
 6482 052d 10       		.uleb128 0x10
 6483 052e 9E030000 		.4byte	.LASF50
 6484 0532 01       		.byte	0x1
 6485 0533 2103     		.2byte	0x321
 6486 0535 32020000 		.4byte	0x232
 6487 0539 00       		.byte	0
 6488 053a 00       		.byte	0
 6489 053b 14       		.uleb128 0x14
 6490 053c 33000000 		.4byte	0x33
 6491 0540 14       		.uleb128 0x14
ARM GAS  C:\Users\pearlstl\AppData\Local\Temp\ccbpFzqf.s 			page 143


 6492 0541 6B000000 		.4byte	0x6b
 6493 0545 14       		.uleb128 0x14
 6494 0546 5D000000 		.4byte	0x5d
 6495 054a 14       		.uleb128 0x14
 6496 054b 3A000000 		.4byte	0x3a
 6497 054f 1C       		.uleb128 0x1c
 6498 0550 8D000000 		.4byte	.LASF52
 6499 0554 01       		.byte	0x1
 6500 0555 7F       		.byte	0x7f
 6501 0556 00000000 		.4byte	.LFB0
 6502 055a 08000000 		.4byte	.LFE0-.LFB0
 6503 055e 01       		.uleb128 0x1
 6504 055f 9C       		.byte	0x9c
 6505 0560 99050000 		.4byte	0x599
 6506 0564 1D       		.uleb128 0x1d
 6507 0565 50030000 		.4byte	.LASF51
 6508 0569 01       		.byte	0x1
 6509 056a 7F       		.byte	0x7f
 6510 056b 0A010000 		.4byte	0x10a
 6511 056f 01       		.uleb128 0x1
 6512 0570 50       		.byte	0x50
 6513 0571 1D       		.uleb128 0x1d
 6514 0572 08030000 		.4byte	.LASF23
 6515 0576 01       		.byte	0x1
 6516 0577 7F       		.byte	0x7f
 6517 0578 9E000000 		.4byte	0x9e
 6518 057c 01       		.uleb128 0x1
 6519 057d 51       		.byte	0x51
 6520 057e 1E       		.uleb128 0x1e
 6521 057f 69647800 		.ascii	"idx\000"
 6522 0583 01       		.byte	0x1
 6523 0584 7F       		.byte	0x7f
 6524 0585 CD000000 		.4byte	0xcd
 6525 0589 01       		.uleb128 0x1
 6526 058a 52       		.byte	0x52
 6527 058b 1D       		.uleb128 0x1d
 6528 058c FC010000 		.4byte	.LASF24
 6529 0590 01       		.byte	0x1
 6530 0591 7F       		.byte	0x7f
 6531 0592 CD000000 		.4byte	0xcd
 6532 0596 01       		.uleb128 0x1
 6533 0597 53       		.byte	0x53
 6534 0598 00       		.byte	0
 6535 0599 1C       		.uleb128 0x1c
 6536 059a 83010000 		.4byte	.LASF53
 6537 059e 01       		.byte	0x1
 6538 059f 88       		.byte	0x88
 6539 05a0 00000000 		.4byte	.LFB1
 6540 05a4 02000000 		.4byte	.LFE1-.LFB1
 6541 05a8 01       		.uleb128 0x1
 6542 05a9 9C       		.byte	0x9c
 6543 05aa E3050000 		.4byte	0x5e3
 6544 05ae 1D       		.uleb128 0x1d
 6545 05af 50030000 		.4byte	.LASF51
 6546 05b3 01       		.byte	0x1
 6547 05b4 88       		.byte	0x88
 6548 05b5 0A010000 		.4byte	0x10a
ARM GAS  C:\Users\pearlstl\AppData\Local\Temp\ccbpFzqf.s 			page 144


 6549 05b9 01       		.uleb128 0x1
 6550 05ba 50       		.byte	0x50
 6551 05bb 1D       		.uleb128 0x1d
 6552 05bc 08030000 		.4byte	.LASF23
 6553 05c0 01       		.byte	0x1
 6554 05c1 88       		.byte	0x88
 6555 05c2 9E000000 		.4byte	0x9e
 6556 05c6 01       		.uleb128 0x1
 6557 05c7 51       		.byte	0x51
 6558 05c8 1E       		.uleb128 0x1e
 6559 05c9 69647800 		.ascii	"idx\000"
 6560 05cd 01       		.byte	0x1
 6561 05ce 88       		.byte	0x88
 6562 05cf CD000000 		.4byte	0xcd
 6563 05d3 01       		.uleb128 0x1
 6564 05d4 52       		.byte	0x52
 6565 05d5 1D       		.uleb128 0x1d
 6566 05d6 FC010000 		.4byte	.LASF24
 6567 05da 01       		.byte	0x1
 6568 05db 88       		.byte	0x88
 6569 05dc CD000000 		.4byte	0xcd
 6570 05e0 01       		.uleb128 0x1
 6571 05e1 53       		.byte	0x53
 6572 05e2 00       		.byte	0
 6573 05e3 0B       		.uleb128 0xb
 6574 05e4 5A030000 		.4byte	.LASF54
 6575 05e8 01       		.byte	0x1
 6576 05e9 AD       		.byte	0xad
 6577 05ea CD000000 		.4byte	0xcd
 6578 05ee 01       		.byte	0x1
 6579 05ef 62060000 		.4byte	0x662
 6580 05f3 0C       		.uleb128 0xc
 6581 05f4 6F757400 		.ascii	"out\000"
 6582 05f8 01       		.byte	0x1
 6583 05f9 AD       		.byte	0xad
 6584 05fa DF000000 		.4byte	0xdf
 6585 05fe 1A       		.uleb128 0x1a
 6586 05ff 08030000 		.4byte	.LASF23
 6587 0603 01       		.byte	0x1
 6588 0604 AD       		.byte	0xad
 6589 0605 2C020000 		.4byte	0x22c
 6590 0609 0C       		.uleb128 0xc
 6591 060a 69647800 		.ascii	"idx\000"
 6592 060e 01       		.byte	0x1
 6593 060f AD       		.byte	0xad
 6594 0610 CD000000 		.4byte	0xcd
 6595 0614 1A       		.uleb128 0x1a
 6596 0615 FC010000 		.4byte	.LASF24
 6597 0619 01       		.byte	0x1
 6598 061a AD       		.byte	0xad
 6599 061b CD000000 		.4byte	0xcd
 6600 061f 0C       		.uleb128 0xc
 6601 0620 62756600 		.ascii	"buf\000"
 6602 0624 01       		.byte	0x1
 6603 0625 AD       		.byte	0xad
 6604 0626 C9030000 		.4byte	0x3c9
 6605 062a 0C       		.uleb128 0xc
ARM GAS  C:\Users\pearlstl\AppData\Local\Temp\ccbpFzqf.s 			page 145


 6606 062b 6C656E00 		.ascii	"len\000"
 6607 062f 01       		.byte	0x1
 6608 0630 AD       		.byte	0xad
 6609 0631 CD000000 		.4byte	0xcd
 6610 0635 1A       		.uleb128 0x1a
 6611 0636 0B010000 		.4byte	.LASF27
 6612 063a 01       		.byte	0x1
 6613 063b AD       		.byte	0xad
 6614 063c 3A000000 		.4byte	0x3a
 6615 0640 1A       		.uleb128 0x1a
 6616 0641 D2010000 		.4byte	.LASF28
 6617 0645 01       		.byte	0x1
 6618 0646 AD       		.byte	0xad
 6619 0647 3A000000 		.4byte	0x3a
 6620 064b 1F       		.uleb128 0x1f
 6621 064c F5000000 		.4byte	.LASF36
 6622 0650 01       		.byte	0x1
 6623 0651 AF       		.byte	0xaf
 6624 0652 3C020000 		.4byte	0x23c
 6625 0656 16       		.uleb128 0x16
 6626 0657 19       		.uleb128 0x19
 6627 0658 6900     		.ascii	"i\000"
 6628 065a 01       		.byte	0x1
 6629 065b B3       		.byte	0xb3
 6630 065c CD000000 		.4byte	0xcd
 6631 0660 00       		.byte	0
 6632 0661 00       		.byte	0
 6633 0662 20       		.uleb128 0x20
 6634 0663 67010000 		.4byte	.LASF63
 6635 0667 01       		.byte	0x1
 6636 0668 CA       		.byte	0xca
 6637 0669 CD000000 		.4byte	0xcd
 6638 066d 00000000 		.4byte	.LFB6
 6639 0671 08020000 		.4byte	.LFE6-.LFB6
 6640 0675 01       		.uleb128 0x1
 6641 0676 9C       		.byte	0x9c
 6642 0677 ED070000 		.4byte	0x7ed
 6643 067b 21       		.uleb128 0x21
 6644 067c 6F757400 		.ascii	"out\000"
 6645 0680 01       		.byte	0x1
 6646 0681 CA       		.byte	0xca
 6647 0682 DF000000 		.4byte	0xdf
 6648 0686 00000000 		.4byte	.LLST0
 6649 068a 22       		.uleb128 0x22
 6650 068b 08030000 		.4byte	.LASF23
 6651 068f 01       		.byte	0x1
 6652 0690 CA       		.byte	0xca
 6653 0691 2C020000 		.4byte	0x22c
 6654 0695 76000000 		.4byte	.LLST1
 6655 0699 21       		.uleb128 0x21
 6656 069a 69647800 		.ascii	"idx\000"
 6657 069e 01       		.byte	0x1
 6658 069f CA       		.byte	0xca
 6659 06a0 CD000000 		.4byte	0xcd
 6660 06a4 AA000000 		.4byte	.LLST2
 6661 06a8 22       		.uleb128 0x22
 6662 06a9 FC010000 		.4byte	.LASF24
ARM GAS  C:\Users\pearlstl\AppData\Local\Temp\ccbpFzqf.s 			page 146


 6663 06ad 01       		.byte	0x1
 6664 06ae CA       		.byte	0xca
 6665 06af CD000000 		.4byte	0xcd
 6666 06b3 9F010000 		.4byte	.LLST3
 6667 06b7 21       		.uleb128 0x21
 6668 06b8 62756600 		.ascii	"buf\000"
 6669 06bc 01       		.byte	0x1
 6670 06bd CA       		.byte	0xca
 6671 06be 2C020000 		.4byte	0x22c
 6672 06c2 BD010000 		.4byte	.LLST4
 6673 06c6 21       		.uleb128 0x21
 6674 06c7 6C656E00 		.ascii	"len\000"
 6675 06cb 01       		.byte	0x1
 6676 06cc CA       		.byte	0xca
 6677 06cd CD000000 		.4byte	0xcd
 6678 06d1 19020000 		.4byte	.LLST5
 6679 06d5 22       		.uleb128 0x22
 6680 06d6 7A010000 		.4byte	.LASF30
 6681 06da 01       		.byte	0x1
 6682 06db CA       		.byte	0xca
 6683 06dc 2C010000 		.4byte	0x12c
 6684 06e0 94030000 		.4byte	.LLST6
 6685 06e4 22       		.uleb128 0x22
 6686 06e5 A4030000 		.4byte	.LASF49
 6687 06e9 01       		.byte	0x1
 6688 06ea CA       		.byte	0xca
 6689 06eb 3A000000 		.4byte	0x3a
 6690 06ef F0030000 		.4byte	.LLST7
 6691 06f3 22       		.uleb128 0x22
 6692 06f4 7D030000 		.4byte	.LASF26
 6693 06f8 01       		.byte	0x1
 6694 06f9 CA       		.byte	0xca
 6695 06fa 3A000000 		.4byte	0x3a
 6696 06fe 4C040000 		.4byte	.LLST8
 6697 0702 22       		.uleb128 0x22
 6698 0703 0B010000 		.4byte	.LASF27
 6699 0707 01       		.byte	0x1
 6700 0708 CA       		.byte	0xca
 6701 0709 3A000000 		.4byte	0x3a
 6702 070d A8040000 		.4byte	.LLST9
 6703 0711 22       		.uleb128 0x22
 6704 0712 D2010000 		.4byte	.LASF28
 6705 0716 01       		.byte	0x1
 6706 0717 CA       		.byte	0xca
 6707 0718 3A000000 		.4byte	0x3a
 6708 071c F7040000 		.4byte	.LLST10
 6709 0720 23       		.uleb128 0x23
 6710 0721 E3050000 		.4byte	0x5e3
 6711 0725 BE000000 		.4byte	.LBB56
 6712 0729 00000000 		.4byte	.Ldebug_ranges0+0
 6713 072d 01       		.byte	0x1
 6714 072e FB       		.byte	0xfb
 6715 072f 24       		.uleb128 0x24
 6716 0730 40060000 		.4byte	0x640
 6717 0734 53050000 		.4byte	.LLST11
 6718 0738 24       		.uleb128 0x24
 6719 0739 35060000 		.4byte	0x635
ARM GAS  C:\Users\pearlstl\AppData\Local\Temp\ccbpFzqf.s 			page 147


 6720 073d 92050000 		.4byte	.LLST12
 6721 0741 24       		.uleb128 0x24
 6722 0742 2A060000 		.4byte	0x62a
 6723 0746 CA050000 		.4byte	.LLST13
 6724 074a 24       		.uleb128 0x24
 6725 074b 1F060000 		.4byte	0x61f
 6726 074f 14060000 		.4byte	.LLST14
 6727 0753 24       		.uleb128 0x24
 6728 0754 14060000 		.4byte	0x614
 6729 0758 53060000 		.4byte	.LLST15
 6730 075c 24       		.uleb128 0x24
 6731 075d 09060000 		.4byte	0x609
 6732 0761 87060000 		.4byte	.LLST16
 6733 0765 24       		.uleb128 0x24
 6734 0766 FE050000 		.4byte	0x5fe
 6735 076a 39070000 		.4byte	.LLST17
 6736 076e 24       		.uleb128 0x24
 6737 076f F3050000 		.4byte	0x5f3
 6738 0773 6D070000 		.4byte	.LLST18
 6739 0777 25       		.uleb128 0x25
 6740 0778 00000000 		.4byte	.Ldebug_ranges0+0
 6741 077c 26       		.uleb128 0x26
 6742 077d 4B060000 		.4byte	0x64b
 6743 0781 A1070000 		.4byte	.LLST19
 6744 0785 27       		.uleb128 0x27
 6745 0786 40000000 		.4byte	.Ldebug_ranges0+0x40
 6746 078a B6070000 		.4byte	0x7b6
 6747 078e 26       		.uleb128 0x26
 6748 078f 57060000 		.4byte	0x657
 6749 0793 F1070000 		.4byte	.LLST20
 6750 0797 28       		.uleb128 0x28
 6751 0798 2A010000 		.4byte	.LVL35
 6752 079c 29       		.uleb128 0x29
 6753 079d 01       		.uleb128 0x1
 6754 079e 50       		.byte	0x50
 6755 079f 02       		.uleb128 0x2
 6756 07a0 08       		.byte	0x8
 6757 07a1 20       		.byte	0x20
 6758 07a2 29       		.uleb128 0x29
 6759 07a3 01       		.uleb128 0x1
 6760 07a4 51       		.byte	0x51
 6761 07a5 02       		.uleb128 0x2
 6762 07a6 78       		.byte	0x78
 6763 07a7 00       		.sleb128 0
 6764 07a8 29       		.uleb128 0x29
 6765 07a9 01       		.uleb128 0x1
 6766 07aa 52       		.byte	0x52
 6767 07ab 02       		.uleb128 0x2
 6768 07ac 75       		.byte	0x75
 6769 07ad 7F       		.sleb128 -1
 6770 07ae 29       		.uleb128 0x29
 6771 07af 01       		.uleb128 0x1
 6772 07b0 53       		.byte	0x53
 6773 07b1 02       		.uleb128 0x2
 6774 07b2 79       		.byte	0x79
 6775 07b3 00       		.sleb128 0
 6776 07b4 00       		.byte	0
ARM GAS  C:\Users\pearlstl\AppData\Local\Temp\ccbpFzqf.s 			page 148


 6777 07b5 00       		.byte	0
 6778 07b6 2A       		.uleb128 0x2a
 6779 07b7 DA000000 		.4byte	.LVL22
 6780 07bb D2070000 		.4byte	0x7d2
 6781 07bf 29       		.uleb128 0x29
 6782 07c0 01       		.uleb128 0x1
 6783 07c1 51       		.byte	0x51
 6784 07c2 02       		.uleb128 0x2
 6785 07c3 78       		.byte	0x78
 6786 07c4 00       		.sleb128 0
 6787 07c5 29       		.uleb128 0x29
 6788 07c6 01       		.uleb128 0x1
 6789 07c7 52       		.byte	0x52
 6790 07c8 02       		.uleb128 0x2
 6791 07c9 7B       		.byte	0x7b
 6792 07ca 7F       		.sleb128 -1
 6793 07cb 29       		.uleb128 0x29
 6794 07cc 01       		.uleb128 0x1
 6795 07cd 53       		.byte	0x53
 6796 07ce 02       		.uleb128 0x2
 6797 07cf 79       		.byte	0x79
 6798 07d0 00       		.sleb128 0
 6799 07d1 00       		.byte	0
 6800 07d2 28       		.uleb128 0x28
 6801 07d3 FE000000 		.4byte	.LVL28
 6802 07d7 29       		.uleb128 0x29
 6803 07d8 01       		.uleb128 0x1
 6804 07d9 50       		.byte	0x50
 6805 07da 02       		.uleb128 0x2
 6806 07db 08       		.byte	0x8
 6807 07dc 20       		.byte	0x20
 6808 07dd 29       		.uleb128 0x29
 6809 07de 01       		.uleb128 0x1
 6810 07df 51       		.byte	0x51
 6811 07e0 02       		.uleb128 0x2
 6812 07e1 78       		.byte	0x78
 6813 07e2 00       		.sleb128 0
 6814 07e3 29       		.uleb128 0x29
 6815 07e4 01       		.uleb128 0x1
 6816 07e5 53       		.byte	0x53
 6817 07e6 02       		.uleb128 0x2
 6818 07e7 79       		.byte	0x79
 6819 07e8 00       		.sleb128 0
 6820 07e9 00       		.byte	0
 6821 07ea 00       		.byte	0
 6822 07eb 00       		.byte	0
 6823 07ec 00       		.byte	0
 6824 07ed 0D       		.uleb128 0xd
 6825 07ee BB010000 		.4byte	.LASF55
 6826 07f2 01       		.byte	0x1
 6827 07f3 0001     		.2byte	0x100
 6828 07f5 CD000000 		.4byte	0xcd
 6829 07f9 01       		.byte	0x1
 6830 07fa 9D080000 		.4byte	0x89d
 6831 07fe 0E       		.uleb128 0xe
 6832 07ff 6F757400 		.ascii	"out\000"
 6833 0803 01       		.byte	0x1
ARM GAS  C:\Users\pearlstl\AppData\Local\Temp\ccbpFzqf.s 			page 149


 6834 0804 0001     		.2byte	0x100
 6835 0806 DF000000 		.4byte	0xdf
 6836 080a 0F       		.uleb128 0xf
 6837 080b 08030000 		.4byte	.LASF23
 6838 080f 01       		.byte	0x1
 6839 0810 0001     		.2byte	0x100
 6840 0812 2C020000 		.4byte	0x22c
 6841 0816 0E       		.uleb128 0xe
 6842 0817 69647800 		.ascii	"idx\000"
 6843 081b 01       		.byte	0x1
 6844 081c 0001     		.2byte	0x100
 6845 081e CD000000 		.4byte	0xcd
 6846 0822 0F       		.uleb128 0xf
 6847 0823 FC010000 		.4byte	.LASF24
 6848 0827 01       		.byte	0x1
 6849 0828 0001     		.2byte	0x100
 6850 082a CD000000 		.4byte	0xcd
 6851 082e 0F       		.uleb128 0xf
 6852 082f E5000000 		.4byte	.LASF25
 6853 0833 01       		.byte	0x1
 6854 0834 0001     		.2byte	0x100
 6855 0836 64000000 		.4byte	0x64
 6856 083a 0F       		.uleb128 0xf
 6857 083b 7A010000 		.4byte	.LASF30
 6858 083f 01       		.byte	0x1
 6859 0840 0001     		.2byte	0x100
 6860 0842 2C010000 		.4byte	0x12c
 6861 0846 0F       		.uleb128 0xf
 6862 0847 A4030000 		.4byte	.LASF49
 6863 084b 01       		.byte	0x1
 6864 084c 0001     		.2byte	0x100
 6865 084e 64000000 		.4byte	0x64
 6866 0852 0F       		.uleb128 0xf
 6867 0853 7D030000 		.4byte	.LASF26
 6868 0857 01       		.byte	0x1
 6869 0858 0001     		.2byte	0x100
 6870 085a 3A000000 		.4byte	0x3a
 6871 085e 0F       		.uleb128 0xf
 6872 085f 0B010000 		.4byte	.LASF27
 6873 0863 01       		.byte	0x1
 6874 0864 0001     		.2byte	0x100
 6875 0866 3A000000 		.4byte	0x3a
 6876 086a 0F       		.uleb128 0xf
 6877 086b D2010000 		.4byte	.LASF28
 6878 086f 01       		.byte	0x1
 6879 0870 0001     		.2byte	0x100
 6880 0872 3A000000 		.4byte	0x3a
 6881 0876 13       		.uleb128 0x13
 6882 0877 62756600 		.ascii	"buf\000"
 6883 087b 01       		.byte	0x1
 6884 087c 0201     		.2byte	0x102
 6885 087e 72030000 		.4byte	0x372
 6886 0882 13       		.uleb128 0x13
 6887 0883 6C656E00 		.ascii	"len\000"
 6888 0887 01       		.byte	0x1
 6889 0888 0301     		.2byte	0x103
 6890 088a CD000000 		.4byte	0xcd
ARM GAS  C:\Users\pearlstl\AppData\Local\Temp\ccbpFzqf.s 			page 150


 6891 088e 16       		.uleb128 0x16
 6892 088f 10       		.uleb128 0x10
 6893 0890 98030000 		.4byte	.LASF56
 6894 0894 01       		.byte	0x1
 6895 0895 0D01     		.2byte	0x10d
 6896 0897 CF030000 		.4byte	0x3cf
 6897 089b 00       		.byte	0
 6898 089c 00       		.byte	0
 6899 089d 2B       		.uleb128 0x2b
 6900 089e 33010000 		.4byte	0x133
 6901 08a2 00000000 		.4byte	.LFB10
 6902 08a6 48060000 		.4byte	.LFE10-.LFB10
 6903 08aa 01       		.uleb128 0x1
 6904 08ab 9C       		.byte	0x9c
 6905 08ac FC0F0000 		.4byte	0xffc
 6906 08b0 24       		.uleb128 0x24
 6907 08b1 44010000 		.4byte	0x144
 6908 08b5 04080000 		.4byte	.LLST21
 6909 08b9 24       		.uleb128 0x24
 6910 08ba 50010000 		.4byte	0x150
 6911 08be 22080000 		.4byte	.LLST22
 6912 08c2 24       		.uleb128 0x24
 6913 08c3 5C010000 		.4byte	0x15c
 6914 08c7 40080000 		.4byte	.LLST23
 6915 08cb 24       		.uleb128 0x24
 6916 08cc 68010000 		.4byte	0x168
 6917 08d0 5E080000 		.4byte	.LLST24
 6918 08d4 24       		.uleb128 0x24
 6919 08d5 74010000 		.4byte	0x174
 6920 08d9 7C080000 		.4byte	.LLST25
 6921 08dd 24       		.uleb128 0x24
 6922 08de 80010000 		.4byte	0x180
 6923 08e2 9C080000 		.4byte	.LLST26
 6924 08e6 24       		.uleb128 0x24
 6925 08e7 8C010000 		.4byte	0x18c
 6926 08eb BC080000 		.4byte	.LLST27
 6927 08ef 24       		.uleb128 0x24
 6928 08f0 98010000 		.4byte	0x198
 6929 08f4 DC080000 		.4byte	.LLST28
 6930 08f8 2C       		.uleb128 0x2c
 6931 08f9 A4010000 		.4byte	0x1a4
 6932 08fd 2C       		.uleb128 0x2c
 6933 08fe CE010000 		.4byte	0x1ce
 6934 0902 2C       		.uleb128 0x2c
 6935 0903 DA010000 		.4byte	0x1da
 6936 0907 2C       		.uleb128 0x2c
 6937 0908 E6010000 		.4byte	0x1e6
 6938 090c 2C       		.uleb128 0x2c
 6939 090d F2010000 		.4byte	0x1f2
 6940 0911 2C       		.uleb128 0x2c
 6941 0912 FC010000 		.4byte	0x1fc
 6942 0916 2C       		.uleb128 0x2c
 6943 0917 07020000 		.4byte	0x207
 6944 091b 2C       		.uleb128 0x2c
 6945 091c 13020000 		.4byte	0x213
 6946 0920 2C       		.uleb128 0x2c
 6947 0921 1F020000 		.4byte	0x21f
ARM GAS  C:\Users\pearlstl\AppData\Local\Temp\ccbpFzqf.s 			page 151


 6948 0925 2D       		.uleb128 0x2d
 6949 0926 41020000 		.4byte	0x241
 6950 092a 2E000000 		.4byte	.LBB93
 6951 092e 58000000 		.4byte	.Ldebug_ranges0+0x58
 6952 0932 01       		.byte	0x1
 6953 0933 BE01     		.2byte	0x1be
 6954 0935 B00B0000 		.4byte	0xbb0
 6955 0939 24       		.uleb128 0x24
 6956 093a A6020000 		.4byte	0x2a6
 6957 093e FC080000 		.4byte	.LLST29
 6958 0942 24       		.uleb128 0x24
 6959 0943 9A020000 		.4byte	0x29a
 6960 0947 28090000 		.4byte	.LLST30
 6961 094b 24       		.uleb128 0x24
 6962 094c 8E020000 		.4byte	0x28e
 6963 0950 54090000 		.4byte	.LLST31
 6964 0954 24       		.uleb128 0x24
 6965 0955 82020000 		.4byte	0x282
 6966 0959 80090000 		.4byte	.LLST32
 6967 095d 24       		.uleb128 0x24
 6968 095e 76020000 		.4byte	0x276
 6969 0962 AC090000 		.4byte	.LLST33
 6970 0966 24       		.uleb128 0x24
 6971 0967 6A020000 		.4byte	0x26a
 6972 096b D5090000 		.4byte	.LLST34
 6973 096f 24       		.uleb128 0x24
 6974 0970 5E020000 		.4byte	0x25e
 6975 0974 FE090000 		.4byte	.LLST35
 6976 0978 24       		.uleb128 0x24
 6977 0979 52020000 		.4byte	0x252
 6978 097d 270A0000 		.4byte	.LLST36
 6979 0981 25       		.uleb128 0x25
 6980 0982 58000000 		.4byte	.Ldebug_ranges0+0x58
 6981 0986 2C       		.uleb128 0x2c
 6982 0987 B2020000 		.4byte	0x2b2
 6983 098b 26       		.uleb128 0x26
 6984 098c BE020000 		.4byte	0x2be
 6985 0990 500A0000 		.4byte	.LLST37
 6986 0994 26       		.uleb128 0x26
 6987 0995 CA020000 		.4byte	0x2ca
 6988 0999 7C0A0000 		.4byte	.LLST38
 6989 099d 2C       		.uleb128 0x2c
 6990 099e 33030000 		.4byte	0x333
 6991 09a2 2C       		.uleb128 0x2c
 6992 09a3 3F030000 		.4byte	0x33f
 6993 09a7 2C       		.uleb128 0x2c
 6994 09a8 4B030000 		.4byte	0x34b
 6995 09ac 2C       		.uleb128 0x2c
 6996 09ad 57030000 		.4byte	0x357
 6997 09b1 2E       		.uleb128 0x2e
 6998 09b2 D6020000 		.4byte	0x2d6
 6999 09b6 05       		.uleb128 0x5
 7000 09b7 03       		.byte	0x3
 7001 09b8 00000000 		.4byte	pow10.4373
 7002 09bc 2D       		.uleb128 0x2d
 7003 09bd E3050000 		.4byte	0x5e3
 7004 09c1 24040000 		.4byte	.LBB95
ARM GAS  C:\Users\pearlstl\AppData\Local\Temp\ccbpFzqf.s 			page 152


 7005 09c5 80000000 		.4byte	.Ldebug_ranges0+0x80
 7006 09c9 01       		.byte	0x1
 7007 09ca 4501     		.2byte	0x145
 7008 09cc 930A0000 		.4byte	0xa93
 7009 09d0 24       		.uleb128 0x24
 7010 09d1 40060000 		.4byte	0x640
 7011 09d5 C00A0000 		.4byte	.LLST39
 7012 09d9 24       		.uleb128 0x24
 7013 09da 35060000 		.4byte	0x635
 7014 09de E00A0000 		.4byte	.LLST40
 7015 09e2 24       		.uleb128 0x24
 7016 09e3 2A060000 		.4byte	0x62a
 7017 09e7 000B0000 		.4byte	.LLST41
 7018 09eb 24       		.uleb128 0x24
 7019 09ec 1F060000 		.4byte	0x61f
 7020 09f0 470B0000 		.4byte	.LLST42
 7021 09f4 24       		.uleb128 0x24
 7022 09f5 14060000 		.4byte	0x614
 7023 09f9 6F0B0000 		.4byte	.LLST43
 7024 09fd 24       		.uleb128 0x24
 7025 09fe 09060000 		.4byte	0x609
 7026 0a02 8D0B0000 		.4byte	.LLST44
 7027 0a06 24       		.uleb128 0x24
 7028 0a07 FE050000 		.4byte	0x5fe
 7029 0a0b F80B0000 		.4byte	.LLST45
 7030 0a0f 24       		.uleb128 0x24
 7031 0a10 F3050000 		.4byte	0x5f3
 7032 0a14 160C0000 		.4byte	.LLST46
 7033 0a18 25       		.uleb128 0x25
 7034 0a19 80000000 		.4byte	.Ldebug_ranges0+0x80
 7035 0a1d 26       		.uleb128 0x26
 7036 0a1e 4B060000 		.4byte	0x64b
 7037 0a22 340C0000 		.4byte	.LLST47
 7038 0a26 27       		.uleb128 0x27
 7039 0a27 98000000 		.4byte	.Ldebug_ranges0+0x98
 7040 0a2b 570A0000 		.4byte	0xa57
 7041 0a2f 26       		.uleb128 0x26
 7042 0a30 57060000 		.4byte	0x657
 7043 0a34 520C0000 		.4byte	.LLST48
 7044 0a38 28       		.uleb128 0x28
 7045 0a39 44040000 		.4byte	.LVL172
 7046 0a3d 29       		.uleb128 0x29
 7047 0a3e 01       		.uleb128 0x1
 7048 0a3f 50       		.byte	0x50
 7049 0a40 02       		.uleb128 0x2
 7050 0a41 08       		.byte	0x8
 7051 0a42 20       		.byte	0x20
 7052 0a43 29       		.uleb128 0x29
 7053 0a44 01       		.uleb128 0x1
 7054 0a45 51       		.byte	0x51
 7055 0a46 02       		.uleb128 0x2
 7056 0a47 76       		.byte	0x76
 7057 0a48 00       		.sleb128 0
 7058 0a49 29       		.uleb128 0x29
 7059 0a4a 01       		.uleb128 0x1
 7060 0a4b 52       		.byte	0x52
 7061 0a4c 02       		.uleb128 0x2
ARM GAS  C:\Users\pearlstl\AppData\Local\Temp\ccbpFzqf.s 			page 153


 7062 0a4d 78       		.byte	0x78
 7063 0a4e 7F       		.sleb128 -1
 7064 0a4f 29       		.uleb128 0x29
 7065 0a50 01       		.uleb128 0x1
 7066 0a51 53       		.byte	0x53
 7067 0a52 02       		.uleb128 0x2
 7068 0a53 77       		.byte	0x77
 7069 0a54 00       		.sleb128 0
 7070 0a55 00       		.byte	0
 7071 0a56 00       		.byte	0
 7072 0a57 2A       		.uleb128 0x2a
 7073 0a58 62040000 		.4byte	.LVL177
 7074 0a5c 730A0000 		.4byte	0xa73
 7075 0a60 29       		.uleb128 0x29
 7076 0a61 01       		.uleb128 0x1
 7077 0a62 51       		.byte	0x51
 7078 0a63 02       		.uleb128 0x2
 7079 0a64 76       		.byte	0x76
 7080 0a65 00       		.sleb128 0
 7081 0a66 29       		.uleb128 0x29
 7082 0a67 01       		.uleb128 0x1
 7083 0a68 52       		.byte	0x52
 7084 0a69 02       		.uleb128 0x2
 7085 0a6a 79       		.byte	0x79
 7086 0a6b 7F       		.sleb128 -1
 7087 0a6c 29       		.uleb128 0x29
 7088 0a6d 01       		.uleb128 0x1
 7089 0a6e 53       		.byte	0x53
 7090 0a6f 02       		.uleb128 0x2
 7091 0a70 77       		.byte	0x77
 7092 0a71 00       		.sleb128 0
 7093 0a72 00       		.byte	0
 7094 0a73 28       		.uleb128 0x28
 7095 0a74 88040000 		.4byte	.LVL181
 7096 0a78 29       		.uleb128 0x29
 7097 0a79 01       		.uleb128 0x1
 7098 0a7a 50       		.byte	0x50
 7099 0a7b 02       		.uleb128 0x2
 7100 0a7c 08       		.byte	0x8
 7101 0a7d 20       		.byte	0x20
 7102 0a7e 29       		.uleb128 0x29
 7103 0a7f 01       		.uleb128 0x1
 7104 0a80 51       		.byte	0x51
 7105 0a81 02       		.uleb128 0x2
 7106 0a82 76       		.byte	0x76
 7107 0a83 00       		.sleb128 0
 7108 0a84 29       		.uleb128 0x29
 7109 0a85 01       		.uleb128 0x1
 7110 0a86 52       		.byte	0x52
 7111 0a87 02       		.uleb128 0x2
 7112 0a88 74       		.byte	0x74
 7113 0a89 7F       		.sleb128 -1
 7114 0a8a 29       		.uleb128 0x29
 7115 0a8b 01       		.uleb128 0x1
 7116 0a8c 53       		.byte	0x53
 7117 0a8d 02       		.uleb128 0x2
 7118 0a8e 77       		.byte	0x77
ARM GAS  C:\Users\pearlstl\AppData\Local\Temp\ccbpFzqf.s 			page 154


 7119 0a8f 00       		.sleb128 0
 7120 0a90 00       		.byte	0
 7121 0a91 00       		.byte	0
 7122 0a92 00       		.byte	0
 7123 0a93 2D       		.uleb128 0x2d
 7124 0a94 E3050000 		.4byte	0x5e3
 7125 0a98 94040000 		.4byte	.LBB100
 7126 0a9c B0000000 		.4byte	.Ldebug_ranges0+0xb0
 7127 0aa0 01       		.byte	0x1
 7128 0aa1 4701     		.2byte	0x147
 7129 0aa3 6A0B0000 		.4byte	0xb6a
 7130 0aa7 24       		.uleb128 0x24
 7131 0aa8 40060000 		.4byte	0x640
 7132 0aac 660C0000 		.4byte	.LLST49
 7133 0ab0 24       		.uleb128 0x24
 7134 0ab1 35060000 		.4byte	0x635
 7135 0ab5 860C0000 		.4byte	.LLST50
 7136 0ab9 24       		.uleb128 0x24
 7137 0aba 2A060000 		.4byte	0x62a
 7138 0abe A60C0000 		.4byte	.LLST51
 7139 0ac2 24       		.uleb128 0x24
 7140 0ac3 1F060000 		.4byte	0x61f
 7141 0ac7 ED0C0000 		.4byte	.LLST52
 7142 0acb 24       		.uleb128 0x24
 7143 0acc 14060000 		.4byte	0x614
 7144 0ad0 150D0000 		.4byte	.LLST53
 7145 0ad4 24       		.uleb128 0x24
 7146 0ad5 09060000 		.4byte	0x609
 7147 0ad9 330D0000 		.4byte	.LLST54
 7148 0add 24       		.uleb128 0x24
 7149 0ade FE050000 		.4byte	0x5fe
 7150 0ae2 9E0D0000 		.4byte	.LLST55
 7151 0ae6 24       		.uleb128 0x24
 7152 0ae7 F3050000 		.4byte	0x5f3
 7153 0aeb BC0D0000 		.4byte	.LLST56
 7154 0aef 25       		.uleb128 0x25
 7155 0af0 B0000000 		.4byte	.Ldebug_ranges0+0xb0
 7156 0af4 26       		.uleb128 0x26
 7157 0af5 4B060000 		.4byte	0x64b
 7158 0af9 DA0D0000 		.4byte	.LLST57
 7159 0afd 27       		.uleb128 0x27
 7160 0afe C8000000 		.4byte	.Ldebug_ranges0+0xc8
 7161 0b02 2E0B0000 		.4byte	0xb2e
 7162 0b06 26       		.uleb128 0x26
 7163 0b07 57060000 		.4byte	0x657
 7164 0b0b F80D0000 		.4byte	.LLST58
 7165 0b0f 28       		.uleb128 0x28
 7166 0b10 B4040000 		.4byte	.LVL186
 7167 0b14 29       		.uleb128 0x29
 7168 0b15 01       		.uleb128 0x1
 7169 0b16 50       		.byte	0x50
 7170 0b17 02       		.uleb128 0x2
 7171 0b18 08       		.byte	0x8
 7172 0b19 20       		.byte	0x20
 7173 0b1a 29       		.uleb128 0x29
 7174 0b1b 01       		.uleb128 0x1
 7175 0b1c 51       		.byte	0x51
ARM GAS  C:\Users\pearlstl\AppData\Local\Temp\ccbpFzqf.s 			page 155


 7176 0b1d 02       		.uleb128 0x2
 7177 0b1e 76       		.byte	0x76
 7178 0b1f 00       		.sleb128 0
 7179 0b20 29       		.uleb128 0x29
 7180 0b21 01       		.uleb128 0x1
 7181 0b22 52       		.byte	0x52
 7182 0b23 02       		.uleb128 0x2
 7183 0b24 78       		.byte	0x78
 7184 0b25 7F       		.sleb128 -1
 7185 0b26 29       		.uleb128 0x29
 7186 0b27 01       		.uleb128 0x1
 7187 0b28 53       		.byte	0x53
 7188 0b29 02       		.uleb128 0x2
 7189 0b2a 77       		.byte	0x77
 7190 0b2b 00       		.sleb128 0
 7191 0b2c 00       		.byte	0
 7192 0b2d 00       		.byte	0
 7193 0b2e 2A       		.uleb128 0x2a
 7194 0b2f D2040000 		.4byte	.LVL191
 7195 0b33 4A0B0000 		.4byte	0xb4a
 7196 0b37 29       		.uleb128 0x29
 7197 0b38 01       		.uleb128 0x1
 7198 0b39 51       		.byte	0x51
 7199 0b3a 02       		.uleb128 0x2
 7200 0b3b 76       		.byte	0x76
 7201 0b3c 00       		.sleb128 0
 7202 0b3d 29       		.uleb128 0x29
 7203 0b3e 01       		.uleb128 0x1
 7204 0b3f 52       		.byte	0x52
 7205 0b40 02       		.uleb128 0x2
 7206 0b41 79       		.byte	0x79
 7207 0b42 7F       		.sleb128 -1
 7208 0b43 29       		.uleb128 0x29
 7209 0b44 01       		.uleb128 0x1
 7210 0b45 53       		.byte	0x53
 7211 0b46 02       		.uleb128 0x2
 7212 0b47 77       		.byte	0x77
 7213 0b48 00       		.sleb128 0
 7214 0b49 00       		.byte	0
 7215 0b4a 28       		.uleb128 0x28
 7216 0b4b F8040000 		.4byte	.LVL195
 7217 0b4f 29       		.uleb128 0x29
 7218 0b50 01       		.uleb128 0x1
 7219 0b51 50       		.byte	0x50
 7220 0b52 02       		.uleb128 0x2
 7221 0b53 08       		.byte	0x8
 7222 0b54 20       		.byte	0x20
 7223 0b55 29       		.uleb128 0x29
 7224 0b56 01       		.uleb128 0x1
 7225 0b57 51       		.byte	0x51
 7226 0b58 02       		.uleb128 0x2
 7227 0b59 76       		.byte	0x76
 7228 0b5a 00       		.sleb128 0
 7229 0b5b 29       		.uleb128 0x29
 7230 0b5c 01       		.uleb128 0x1
 7231 0b5d 52       		.byte	0x52
 7232 0b5e 02       		.uleb128 0x2
ARM GAS  C:\Users\pearlstl\AppData\Local\Temp\ccbpFzqf.s 			page 156


 7233 0b5f 74       		.byte	0x74
 7234 0b60 7F       		.sleb128 -1
 7235 0b61 29       		.uleb128 0x29
 7236 0b62 01       		.uleb128 0x1
 7237 0b63 53       		.byte	0x53
 7238 0b64 02       		.uleb128 0x2
 7239 0b65 77       		.byte	0x77
 7240 0b66 00       		.sleb128 0
 7241 0b67 00       		.byte	0
 7242 0b68 00       		.byte	0
 7243 0b69 00       		.byte	0
 7244 0b6a 2F       		.uleb128 0x2f
 7245 0b6b FE030000 		.4byte	.LVL161
 7246 0b6f FC0F0000 		.4byte	0xffc
 7247 0b73 29       		.uleb128 0x29
 7248 0b74 01       		.uleb128 0x1
 7249 0b75 50       		.byte	0x50
 7250 0b76 02       		.uleb128 0x2
 7251 0b77 75       		.byte	0x75
 7252 0b78 00       		.sleb128 0
 7253 0b79 29       		.uleb128 0x29
 7254 0b7a 01       		.uleb128 0x1
 7255 0b7b 51       		.byte	0x51
 7256 0b7c 02       		.uleb128 0x2
 7257 0b7d 76       		.byte	0x76
 7258 0b7e 00       		.sleb128 0
 7259 0b7f 29       		.uleb128 0x29
 7260 0b80 01       		.uleb128 0x1
 7261 0b81 52       		.byte	0x52
 7262 0b82 02       		.uleb128 0x2
 7263 0b83 7A       		.byte	0x7a
 7264 0b84 00       		.sleb128 0
 7265 0b85 29       		.uleb128 0x29
 7266 0b86 01       		.uleb128 0x1
 7267 0b87 53       		.byte	0x53
 7268 0b88 02       		.uleb128 0x2
 7269 0b89 77       		.byte	0x77
 7270 0b8a 00       		.sleb128 0
 7271 0b8b 29       		.uleb128 0x29
 7272 0b8c 02       		.uleb128 0x2
 7273 0b8d 7D       		.byte	0x7d
 7274 0b8e 00       		.sleb128 0
 7275 0b8f 05       		.uleb128 0x5
 7276 0b90 91       		.byte	0x91
 7277 0b91 00       		.sleb128 0
 7278 0b92 F6       		.byte	0xf6
 7279 0b93 08       		.byte	0x8
 7280 0b94 25       		.uleb128 0x25
 7281 0b95 29       		.uleb128 0x29
 7282 0b96 02       		.uleb128 0x2
 7283 0b97 7D       		.byte	0x7d
 7284 0b98 08       		.sleb128 8
 7285 0b99 03       		.uleb128 0x3
 7286 0b9a 91       		.byte	0x91
 7287 0b9b 08       		.sleb128 8
 7288 0b9c 06       		.byte	0x6
 7289 0b9d 29       		.uleb128 0x29
ARM GAS  C:\Users\pearlstl\AppData\Local\Temp\ccbpFzqf.s 			page 157


 7290 0b9e 02       		.uleb128 0x2
 7291 0b9f 7D       		.byte	0x7d
 7292 0ba0 0C       		.sleb128 12
 7293 0ba1 03       		.uleb128 0x3
 7294 0ba2 91       		.byte	0x91
 7295 0ba3 0C       		.sleb128 12
 7296 0ba4 06       		.byte	0x6
 7297 0ba5 29       		.uleb128 0x29
 7298 0ba6 02       		.uleb128 0x2
 7299 0ba7 7D       		.byte	0x7d
 7300 0ba8 10       		.sleb128 16
 7301 0ba9 03       		.uleb128 0x3
 7302 0baa 91       		.byte	0x91
 7303 0bab 10       		.sleb128 16
 7304 0bac 06       		.byte	0x6
 7305 0bad 00       		.byte	0
 7306 0bae 00       		.byte	0
 7307 0baf 00       		.byte	0
 7308 0bb0 25       		.uleb128 0x25
 7309 0bb1 E0000000 		.4byte	.Ldebug_ranges0+0xe0
 7310 0bb5 24       		.uleb128 0x24
 7311 0bb6 98010000 		.4byte	0x198
 7312 0bba 0C0E0000 		.4byte	.LLST59
 7313 0bbe 24       		.uleb128 0x24
 7314 0bbf 8C010000 		.4byte	0x18c
 7315 0bc3 5B0E0000 		.4byte	.LLST60
 7316 0bc7 24       		.uleb128 0x24
 7317 0bc8 80010000 		.4byte	0x180
 7318 0bcc 930E0000 		.4byte	.LLST61
 7319 0bd0 24       		.uleb128 0x24
 7320 0bd1 74010000 		.4byte	0x174
 7321 0bd5 E70E0000 		.4byte	.LLST62
 7322 0bd9 24       		.uleb128 0x24
 7323 0bda 68010000 		.4byte	0x168
 7324 0bde 720F0000 		.4byte	.LLST63
 7325 0be2 24       		.uleb128 0x24
 7326 0be3 5C010000 		.4byte	0x15c
 7327 0be7 A60F0000 		.4byte	.LLST64
 7328 0beb 24       		.uleb128 0x24
 7329 0bec 50010000 		.4byte	0x150
 7330 0bf0 06100000 		.4byte	.LLST65
 7331 0bf4 24       		.uleb128 0x24
 7332 0bf5 44010000 		.4byte	0x144
 7333 0bf9 3A100000 		.4byte	.LLST66
 7334 0bfd 25       		.uleb128 0x25
 7335 0bfe E0000000 		.4byte	.Ldebug_ranges0+0xe0
 7336 0c02 26       		.uleb128 0x26
 7337 0c03 A4010000 		.4byte	0x1a4
 7338 0c07 6E100000 		.4byte	.LLST67
 7339 0c0b 26       		.uleb128 0x26
 7340 0c0c CE010000 		.4byte	0x1ce
 7341 0c10 E6100000 		.4byte	.LLST68
 7342 0c14 26       		.uleb128 0x26
 7343 0c15 DA010000 		.4byte	0x1da
 7344 0c19 A0110000 		.4byte	.LLST69
 7345 0c1d 26       		.uleb128 0x26
 7346 0c1e E6010000 		.4byte	0x1e6
ARM GAS  C:\Users\pearlstl\AppData\Local\Temp\ccbpFzqf.s 			page 158


 7347 0c22 FA110000 		.4byte	.LLST70
 7348 0c26 26       		.uleb128 0x26
 7349 0c27 F2010000 		.4byte	0x1f2
 7350 0c2b 50120000 		.4byte	.LLST71
 7351 0c2f 26       		.uleb128 0x26
 7352 0c30 FC010000 		.4byte	0x1fc
 7353 0c34 75120000 		.4byte	.LLST72
 7354 0c38 26       		.uleb128 0x26
 7355 0c39 07020000 		.4byte	0x207
 7356 0c3d 8D120000 		.4byte	.LLST73
 7357 0c41 26       		.uleb128 0x26
 7358 0c42 13020000 		.4byte	0x213
 7359 0c46 10130000 		.4byte	.LLST74
 7360 0c4a 26       		.uleb128 0x26
 7361 0c4b 1F020000 		.4byte	0x21f
 7362 0c4f 66130000 		.4byte	.LLST75
 7363 0c53 2D       		.uleb128 0x2d
 7364 0c54 41020000 		.4byte	0x241
 7365 0c58 66020000 		.4byte	.LBB112
 7366 0c5c 08010000 		.4byte	.Ldebug_ranges0+0x108
 7367 0c60 01       		.byte	0x1
 7368 0c61 1402     		.2byte	0x214
 7369 0c63 DB0E0000 		.4byte	0xedb
 7370 0c67 24       		.uleb128 0x24
 7371 0c68 A6020000 		.4byte	0x2a6
 7372 0c6c 9A130000 		.4byte	.LLST76
 7373 0c70 24       		.uleb128 0x24
 7374 0c71 9A020000 		.4byte	0x29a
 7375 0c75 25140000 		.4byte	.LLST77
 7376 0c79 30       		.uleb128 0x30
 7377 0c7a 8E020000 		.4byte	0x28e
 7378 0c7e 24       		.uleb128 0x24
 7379 0c7f 82020000 		.4byte	0x282
 7380 0c83 59140000 		.4byte	.LLST78
 7381 0c87 24       		.uleb128 0x24
 7382 0c88 76020000 		.4byte	0x276
 7383 0c8c B1140000 		.4byte	.LLST79
 7384 0c90 24       		.uleb128 0x24
 7385 0c91 6A020000 		.4byte	0x26a
 7386 0c95 DA140000 		.4byte	.LLST80
 7387 0c99 24       		.uleb128 0x24
 7388 0c9a 5E020000 		.4byte	0x25e
 7389 0c9e 03150000 		.4byte	.LLST81
 7390 0ca2 24       		.uleb128 0x24
 7391 0ca3 52020000 		.4byte	0x252
 7392 0ca7 2C150000 		.4byte	.LLST82
 7393 0cab 25       		.uleb128 0x25
 7394 0cac 08010000 		.4byte	.Ldebug_ranges0+0x108
 7395 0cb0 2C       		.uleb128 0x2c
 7396 0cb1 B2020000 		.4byte	0x2b2
 7397 0cb5 26       		.uleb128 0x26
 7398 0cb6 BE020000 		.4byte	0x2be
 7399 0cba 55150000 		.4byte	.LLST83
 7400 0cbe 26       		.uleb128 0x26
 7401 0cbf CA020000 		.4byte	0x2ca
 7402 0cc3 81150000 		.4byte	.LLST84
 7403 0cc7 2C       		.uleb128 0x2c
ARM GAS  C:\Users\pearlstl\AppData\Local\Temp\ccbpFzqf.s 			page 159


 7404 0cc8 33030000 		.4byte	0x333
 7405 0ccc 2C       		.uleb128 0x2c
 7406 0ccd 3F030000 		.4byte	0x33f
 7407 0cd1 2C       		.uleb128 0x2c
 7408 0cd2 4B030000 		.4byte	0x34b
 7409 0cd6 2C       		.uleb128 0x2c
 7410 0cd7 57030000 		.4byte	0x357
 7411 0cdb 2E       		.uleb128 0x2e
 7412 0cdc D6020000 		.4byte	0x2d6
 7413 0ce0 05       		.uleb128 0x5
 7414 0ce1 03       		.byte	0x3
 7415 0ce2 00000000 		.4byte	pow10.4373
 7416 0ce6 2D       		.uleb128 0x2d
 7417 0ce7 E3050000 		.4byte	0x5e3
 7418 0ceb 88020000 		.4byte	.LBB114
 7419 0cef 28010000 		.4byte	.Ldebug_ranges0+0x128
 7420 0cf3 01       		.byte	0x1
 7421 0cf4 4701     		.2byte	0x147
 7422 0cf6 BD0D0000 		.4byte	0xdbd
 7423 0cfa 24       		.uleb128 0x24
 7424 0cfb 40060000 		.4byte	0x640
 7425 0cff C5150000 		.4byte	.LLST85
 7426 0d03 24       		.uleb128 0x24
 7427 0d04 35060000 		.4byte	0x635
 7428 0d08 02160000 		.4byte	.LLST86
 7429 0d0c 24       		.uleb128 0x24
 7430 0d0d 2A060000 		.4byte	0x62a
 7431 0d11 20160000 		.4byte	.LLST87
 7432 0d15 24       		.uleb128 0x24
 7433 0d16 1F060000 		.4byte	0x61f
 7434 0d1a 67160000 		.4byte	.LLST88
 7435 0d1e 24       		.uleb128 0x24
 7436 0d1f 14060000 		.4byte	0x614
 7437 0d23 8F160000 		.4byte	.LLST89
 7438 0d27 24       		.uleb128 0x24
 7439 0d28 09060000 		.4byte	0x609
 7440 0d2c AD160000 		.4byte	.LLST90
 7441 0d30 24       		.uleb128 0x24
 7442 0d31 FE050000 		.4byte	0x5fe
 7443 0d35 1A170000 		.4byte	.LLST91
 7444 0d39 24       		.uleb128 0x24
 7445 0d3a F3050000 		.4byte	0x5f3
 7446 0d3e 38170000 		.4byte	.LLST92
 7447 0d42 25       		.uleb128 0x25
 7448 0d43 28010000 		.4byte	.Ldebug_ranges0+0x128
 7449 0d47 26       		.uleb128 0x26
 7450 0d48 4B060000 		.4byte	0x64b
 7451 0d4c 56170000 		.4byte	.LLST93
 7452 0d50 27       		.uleb128 0x27
 7453 0d51 48010000 		.4byte	.Ldebug_ranges0+0x148
 7454 0d55 810D0000 		.4byte	0xd81
 7455 0d59 26       		.uleb128 0x26
 7456 0d5a 57060000 		.4byte	0x657
 7457 0d5e 74170000 		.4byte	.LLST94
 7458 0d62 28       		.uleb128 0x28
 7459 0d63 74050000 		.4byte	.LVL214
 7460 0d67 29       		.uleb128 0x29
ARM GAS  C:\Users\pearlstl\AppData\Local\Temp\ccbpFzqf.s 			page 160


 7461 0d68 01       		.uleb128 0x1
 7462 0d69 50       		.byte	0x50
 7463 0d6a 02       		.uleb128 0x2
 7464 0d6b 08       		.byte	0x8
 7465 0d6c 20       		.byte	0x20
 7466 0d6d 29       		.uleb128 0x29
 7467 0d6e 01       		.uleb128 0x1
 7468 0d6f 51       		.byte	0x51
 7469 0d70 02       		.uleb128 0x2
 7470 0d71 76       		.byte	0x76
 7471 0d72 00       		.sleb128 0
 7472 0d73 29       		.uleb128 0x29
 7473 0d74 01       		.uleb128 0x1
 7474 0d75 52       		.byte	0x52
 7475 0d76 02       		.uleb128 0x2
 7476 0d77 78       		.byte	0x78
 7477 0d78 7F       		.sleb128 -1
 7478 0d79 29       		.uleb128 0x29
 7479 0d7a 01       		.uleb128 0x1
 7480 0d7b 53       		.byte	0x53
 7481 0d7c 02       		.uleb128 0x2
 7482 0d7d 77       		.byte	0x77
 7483 0d7e 00       		.sleb128 0
 7484 0d7f 00       		.byte	0
 7485 0d80 00       		.byte	0
 7486 0d81 2A       		.uleb128 0x2a
 7487 0d82 8E050000 		.4byte	.LVL219
 7488 0d86 9D0D0000 		.4byte	0xd9d
 7489 0d8a 29       		.uleb128 0x29
 7490 0d8b 01       		.uleb128 0x1
 7491 0d8c 51       		.byte	0x51
 7492 0d8d 02       		.uleb128 0x2
 7493 0d8e 76       		.byte	0x76
 7494 0d8f 00       		.sleb128 0
 7495 0d90 29       		.uleb128 0x29
 7496 0d91 01       		.uleb128 0x1
 7497 0d92 52       		.byte	0x52
 7498 0d93 02       		.uleb128 0x2
 7499 0d94 79       		.byte	0x79
 7500 0d95 7F       		.sleb128 -1
 7501 0d96 29       		.uleb128 0x29
 7502 0d97 01       		.uleb128 0x1
 7503 0d98 53       		.byte	0x53
 7504 0d99 02       		.uleb128 0x2
 7505 0d9a 77       		.byte	0x77
 7506 0d9b 00       		.sleb128 0
 7507 0d9c 00       		.byte	0
 7508 0d9d 28       		.uleb128 0x28
 7509 0d9e B2050000 		.4byte	.LVL223
 7510 0da2 29       		.uleb128 0x29
 7511 0da3 01       		.uleb128 0x1
 7512 0da4 50       		.byte	0x50
 7513 0da5 02       		.uleb128 0x2
 7514 0da6 08       		.byte	0x8
 7515 0da7 20       		.byte	0x20
 7516 0da8 29       		.uleb128 0x29
 7517 0da9 01       		.uleb128 0x1
ARM GAS  C:\Users\pearlstl\AppData\Local\Temp\ccbpFzqf.s 			page 161


 7518 0daa 51       		.byte	0x51
 7519 0dab 02       		.uleb128 0x2
 7520 0dac 76       		.byte	0x76
 7521 0dad 00       		.sleb128 0
 7522 0dae 29       		.uleb128 0x29
 7523 0daf 01       		.uleb128 0x1
 7524 0db0 52       		.byte	0x52
 7525 0db1 02       		.uleb128 0x2
 7526 0db2 78       		.byte	0x78
 7527 0db3 7F       		.sleb128 -1
 7528 0db4 29       		.uleb128 0x29
 7529 0db5 01       		.uleb128 0x1
 7530 0db6 53       		.byte	0x53
 7531 0db7 02       		.uleb128 0x2
 7532 0db8 77       		.byte	0x77
 7533 0db9 00       		.sleb128 0
 7534 0dba 00       		.byte	0
 7535 0dbb 00       		.byte	0
 7536 0dbc 00       		.byte	0
 7537 0dbd 2D       		.uleb128 0x2d
 7538 0dbe E3050000 		.4byte	0x5e3
 7539 0dc2 28050000 		.4byte	.LBB120
 7540 0dc6 60010000 		.4byte	.Ldebug_ranges0+0x160
 7541 0dca 01       		.byte	0x1
 7542 0dcb 4501     		.2byte	0x145
 7543 0dcd 940E0000 		.4byte	0xe94
 7544 0dd1 24       		.uleb128 0x24
 7545 0dd2 40060000 		.4byte	0x640
 7546 0dd6 88170000 		.4byte	.LLST95
 7547 0dda 24       		.uleb128 0x24
 7548 0ddb 35060000 		.4byte	0x635
 7549 0ddf B4170000 		.4byte	.LLST96
 7550 0de3 24       		.uleb128 0x24
 7551 0de4 2A060000 		.4byte	0x62a
 7552 0de8 D2170000 		.4byte	.LLST97
 7553 0dec 24       		.uleb128 0x24
 7554 0ded 1F060000 		.4byte	0x61f
 7555 0df1 19180000 		.4byte	.LLST98
 7556 0df5 24       		.uleb128 0x24
 7557 0df6 14060000 		.4byte	0x614
 7558 0dfa 41180000 		.4byte	.LLST99
 7559 0dfe 24       		.uleb128 0x24
 7560 0dff 09060000 		.4byte	0x609
 7561 0e03 5F180000 		.4byte	.LLST100
 7562 0e07 24       		.uleb128 0x24
 7563 0e08 FE050000 		.4byte	0x5fe
 7564 0e0c CC180000 		.4byte	.LLST101
 7565 0e10 24       		.uleb128 0x24
 7566 0e11 F3050000 		.4byte	0x5f3
 7567 0e15 EA180000 		.4byte	.LLST102
 7568 0e19 25       		.uleb128 0x25
 7569 0e1a 60010000 		.4byte	.Ldebug_ranges0+0x160
 7570 0e1e 26       		.uleb128 0x26
 7571 0e1f 4B060000 		.4byte	0x64b
 7572 0e23 08190000 		.4byte	.LLST103
 7573 0e27 27       		.uleb128 0x27
 7574 0e28 78010000 		.4byte	.Ldebug_ranges0+0x178
ARM GAS  C:\Users\pearlstl\AppData\Local\Temp\ccbpFzqf.s 			page 162


 7575 0e2c 580E0000 		.4byte	0xe58
 7576 0e30 26       		.uleb128 0x26
 7577 0e31 57060000 		.4byte	0x657
 7578 0e35 26190000 		.4byte	.LLST104
 7579 0e39 28       		.uleb128 0x28
 7580 0e3a 4A050000 		.4byte	.LVL207
 7581 0e3e 29       		.uleb128 0x29
 7582 0e3f 01       		.uleb128 0x1
 7583 0e40 50       		.byte	0x50
 7584 0e41 02       		.uleb128 0x2
 7585 0e42 08       		.byte	0x8
 7586 0e43 20       		.byte	0x20
 7587 0e44 29       		.uleb128 0x29
 7588 0e45 01       		.uleb128 0x1
 7589 0e46 51       		.byte	0x51
 7590 0e47 02       		.uleb128 0x2
 7591 0e48 76       		.byte	0x76
 7592 0e49 00       		.sleb128 0
 7593 0e4a 29       		.uleb128 0x29
 7594 0e4b 01       		.uleb128 0x1
 7595 0e4c 52       		.byte	0x52
 7596 0e4d 02       		.uleb128 0x2
 7597 0e4e 78       		.byte	0x78
 7598 0e4f 7F       		.sleb128 -1
 7599 0e50 29       		.uleb128 0x29
 7600 0e51 01       		.uleb128 0x1
 7601 0e52 53       		.byte	0x53
 7602 0e53 02       		.uleb128 0x2
 7603 0e54 77       		.byte	0x77
 7604 0e55 00       		.sleb128 0
 7605 0e56 00       		.byte	0
 7606 0e57 00       		.byte	0
 7607 0e58 2A       		.uleb128 0x2a
 7608 0e59 FA050000 		.4byte	.LVL237
 7609 0e5d 740E0000 		.4byte	0xe74
 7610 0e61 29       		.uleb128 0x29
 7611 0e62 01       		.uleb128 0x1
 7612 0e63 51       		.byte	0x51
 7613 0e64 02       		.uleb128 0x2
 7614 0e65 76       		.byte	0x76
 7615 0e66 00       		.sleb128 0
 7616 0e67 29       		.uleb128 0x29
 7617 0e68 01       		.uleb128 0x1
 7618 0e69 52       		.byte	0x52
 7619 0e6a 02       		.uleb128 0x2
 7620 0e6b 79       		.byte	0x79
 7621 0e6c 7F       		.sleb128 -1
 7622 0e6d 29       		.uleb128 0x29
 7623 0e6e 01       		.uleb128 0x1
 7624 0e6f 53       		.byte	0x53
 7625 0e70 02       		.uleb128 0x2
 7626 0e71 77       		.byte	0x77
 7627 0e72 00       		.sleb128 0
 7628 0e73 00       		.byte	0
 7629 0e74 28       		.uleb128 0x28
 7630 0e75 20060000 		.4byte	.LVL241
 7631 0e79 29       		.uleb128 0x29
ARM GAS  C:\Users\pearlstl\AppData\Local\Temp\ccbpFzqf.s 			page 163


 7632 0e7a 01       		.uleb128 0x1
 7633 0e7b 50       		.byte	0x50
 7634 0e7c 02       		.uleb128 0x2
 7635 0e7d 08       		.byte	0x8
 7636 0e7e 20       		.byte	0x20
 7637 0e7f 29       		.uleb128 0x29
 7638 0e80 01       		.uleb128 0x1
 7639 0e81 51       		.byte	0x51
 7640 0e82 02       		.uleb128 0x2
 7641 0e83 76       		.byte	0x76
 7642 0e84 00       		.sleb128 0
 7643 0e85 29       		.uleb128 0x29
 7644 0e86 01       		.uleb128 0x1
 7645 0e87 52       		.byte	0x52
 7646 0e88 02       		.uleb128 0x2
 7647 0e89 78       		.byte	0x78
 7648 0e8a 7F       		.sleb128 -1
 7649 0e8b 29       		.uleb128 0x29
 7650 0e8c 01       		.uleb128 0x1
 7651 0e8d 53       		.byte	0x53
 7652 0e8e 02       		.uleb128 0x2
 7653 0e8f 77       		.byte	0x77
 7654 0e90 00       		.sleb128 0
 7655 0e91 00       		.byte	0
 7656 0e92 00       		.byte	0
 7657 0e93 00       		.byte	0
 7658 0e94 2F       		.uleb128 0x2f
 7659 0e95 AC020000 		.4byte	.LVL140
 7660 0e99 FC0F0000 		.4byte	0xffc
 7661 0e9d 29       		.uleb128 0x29
 7662 0e9e 01       		.uleb128 0x1
 7663 0e9f 50       		.byte	0x50
 7664 0ea0 02       		.uleb128 0x2
 7665 0ea1 75       		.byte	0x75
 7666 0ea2 00       		.sleb128 0
 7667 0ea3 29       		.uleb128 0x29
 7668 0ea4 01       		.uleb128 0x1
 7669 0ea5 51       		.byte	0x51
 7670 0ea6 02       		.uleb128 0x2
 7671 0ea7 76       		.byte	0x76
 7672 0ea8 00       		.sleb128 0
 7673 0ea9 29       		.uleb128 0x29
 7674 0eaa 01       		.uleb128 0x1
 7675 0eab 52       		.byte	0x52
 7676 0eac 02       		.uleb128 0x2
 7677 0ead 7A       		.byte	0x7a
 7678 0eae 00       		.sleb128 0
 7679 0eaf 29       		.uleb128 0x29
 7680 0eb0 01       		.uleb128 0x1
 7681 0eb1 53       		.byte	0x53
 7682 0eb2 02       		.uleb128 0x2
 7683 0eb3 77       		.byte	0x77
 7684 0eb4 00       		.sleb128 0
 7685 0eb5 29       		.uleb128 0x29
 7686 0eb6 02       		.uleb128 0x2
 7687 0eb7 7D       		.byte	0x7d
 7688 0eb8 00       		.sleb128 0
ARM GAS  C:\Users\pearlstl\AppData\Local\Temp\ccbpFzqf.s 			page 164


 7689 0eb9 03       		.uleb128 0x3
 7690 0eba F5       		.byte	0xf5
 7691 0ebb 08       		.uleb128 0x8
 7692 0ebc 25       		.uleb128 0x25
 7693 0ebd 29       		.uleb128 0x29
 7694 0ebe 02       		.uleb128 0x2
 7695 0ebf 7D       		.byte	0x7d
 7696 0ec0 08       		.sleb128 8
 7697 0ec1 03       		.uleb128 0x3
 7698 0ec2 91       		.byte	0x91
 7699 0ec3 08       		.sleb128 8
 7700 0ec4 06       		.byte	0x6
 7701 0ec5 29       		.uleb128 0x29
 7702 0ec6 02       		.uleb128 0x2
 7703 0ec7 7D       		.byte	0x7d
 7704 0ec8 0C       		.sleb128 12
 7705 0ec9 02       		.uleb128 0x2
 7706 0eca 74       		.byte	0x74
 7707 0ecb 00       		.sleb128 0
 7708 0ecc 29       		.uleb128 0x29
 7709 0ecd 02       		.uleb128 0x2
 7710 0ece 7D       		.byte	0x7d
 7711 0ecf 10       		.sleb128 16
 7712 0ed0 07       		.uleb128 0x7
 7713 0ed1 91       		.byte	0x91
 7714 0ed2 10       		.sleb128 16
 7715 0ed3 06       		.byte	0x6
 7716 0ed4 0B       		.byte	0xb
 7717 0ed5 FFF7     		.2byte	0xf7ff
 7718 0ed7 1A       		.byte	0x1a
 7719 0ed8 00       		.byte	0
 7720 0ed9 00       		.byte	0
 7721 0eda 00       		.byte	0
 7722 0edb 2D       		.uleb128 0x2d
 7723 0edc ED070000 		.4byte	0x7ed
 7724 0ee0 CC020000 		.4byte	.LBB130
 7725 0ee4 90010000 		.4byte	.Ldebug_ranges0+0x190
 7726 0ee8 01       		.byte	0x1
 7727 0ee9 1B02     		.2byte	0x21b
 7728 0eeb BF0F0000 		.4byte	0xfbf
 7729 0eef 24       		.uleb128 0x24
 7730 0ef0 6A080000 		.4byte	0x86a
 7731 0ef4 3A190000 		.4byte	.LLST105
 7732 0ef8 24       		.uleb128 0x24
 7733 0ef9 5E080000 		.4byte	0x85e
 7734 0efd 4E190000 		.4byte	.LLST106
 7735 0f01 24       		.uleb128 0x24
 7736 0f02 52080000 		.4byte	0x852
 7737 0f06 61190000 		.4byte	.LLST107
 7738 0f0a 24       		.uleb128 0x24
 7739 0f0b 46080000 		.4byte	0x846
 7740 0f0f 75190000 		.4byte	.LLST108
 7741 0f13 24       		.uleb128 0x24
 7742 0f14 3A080000 		.4byte	0x83a
 7743 0f18 89190000 		.4byte	.LLST109
 7744 0f1c 24       		.uleb128 0x24
 7745 0f1d 2E080000 		.4byte	0x82e
ARM GAS  C:\Users\pearlstl\AppData\Local\Temp\ccbpFzqf.s 			page 165


 7746 0f21 9C190000 		.4byte	.LLST110
 7747 0f25 24       		.uleb128 0x24
 7748 0f26 22080000 		.4byte	0x822
 7749 0f2a D0190000 		.4byte	.LLST111
 7750 0f2e 24       		.uleb128 0x24
 7751 0f2f 16080000 		.4byte	0x816
 7752 0f33 E3190000 		.4byte	.LLST112
 7753 0f37 24       		.uleb128 0x24
 7754 0f38 0A080000 		.4byte	0x80a
 7755 0f3c F6190000 		.4byte	.LLST113
 7756 0f40 24       		.uleb128 0x24
 7757 0f41 FE070000 		.4byte	0x7fe
 7758 0f45 091A0000 		.4byte	.LLST114
 7759 0f49 25       		.uleb128 0x25
 7760 0f4a 90010000 		.4byte	.Ldebug_ranges0+0x190
 7761 0f4e 2E       		.uleb128 0x2e
 7762 0f4f 76080000 		.4byte	0x876
 7763 0f53 03       		.uleb128 0x3
 7764 0f54 91       		.byte	0x91
 7765 0f55 B87F     		.sleb128 -72
 7766 0f57 26       		.uleb128 0x26
 7767 0f58 82080000 		.4byte	0x882
 7768 0f5c 1C1A0000 		.4byte	.LLST115
 7769 0f60 27       		.uleb128 0x27
 7770 0f61 B0010000 		.4byte	.Ldebug_ranges0+0x1b0
 7771 0f65 730F0000 		.4byte	0xf73
 7772 0f69 26       		.uleb128 0x26
 7773 0f6a 8F080000 		.4byte	0x88f
 7774 0f6e 481A0000 		.4byte	.LLST116
 7775 0f72 00       		.byte	0
 7776 0f73 2F       		.uleb128 0x2f
 7777 0f74 A2030000 		.4byte	.LVL152
 7778 0f78 62060000 		.4byte	0x662
 7779 0f7c 29       		.uleb128 0x29
 7780 0f7d 01       		.uleb128 0x1
 7781 0f7e 50       		.byte	0x50
 7782 0f7f 02       		.uleb128 0x2
 7783 0f80 75       		.byte	0x75
 7784 0f81 00       		.sleb128 0
 7785 0f82 29       		.uleb128 0x29
 7786 0f83 01       		.uleb128 0x1
 7787 0f84 51       		.byte	0x51
 7788 0f85 02       		.uleb128 0x2
 7789 0f86 76       		.byte	0x76
 7790 0f87 00       		.sleb128 0
 7791 0f88 29       		.uleb128 0x29
 7792 0f89 01       		.uleb128 0x1
 7793 0f8a 52       		.byte	0x52
 7794 0f8b 02       		.uleb128 0x2
 7795 0f8c 74       		.byte	0x74
 7796 0f8d 00       		.sleb128 0
 7797 0f8e 29       		.uleb128 0x29
 7798 0f8f 01       		.uleb128 0x1
 7799 0f90 53       		.byte	0x53
 7800 0f91 02       		.uleb128 0x2
 7801 0f92 77       		.byte	0x77
 7802 0f93 00       		.sleb128 0
ARM GAS  C:\Users\pearlstl\AppData\Local\Temp\ccbpFzqf.s 			page 166


 7803 0f94 29       		.uleb128 0x29
 7804 0f95 02       		.uleb128 0x2
 7805 0f96 7D       		.byte	0x7d
 7806 0f97 00       		.sleb128 0
 7807 0f98 03       		.uleb128 0x3
 7808 0f99 91       		.byte	0x91
 7809 0f9a B87F     		.sleb128 -72
 7810 0f9c 29       		.uleb128 0x29
 7811 0f9d 02       		.uleb128 0x2
 7812 0f9e 7D       		.byte	0x7d
 7813 0f9f 08       		.sleb128 8
 7814 0fa0 02       		.uleb128 0x2
 7815 0fa1 79       		.byte	0x79
 7816 0fa2 00       		.sleb128 0
 7817 0fa3 29       		.uleb128 0x29
 7818 0fa4 02       		.uleb128 0x2
 7819 0fa5 7D       		.byte	0x7d
 7820 0fa6 0C       		.sleb128 12
 7821 0fa7 01       		.uleb128 0x1
 7822 0fa8 3A       		.byte	0x3a
 7823 0fa9 29       		.uleb128 0x29
 7824 0faa 02       		.uleb128 0x2
 7825 0fab 7D       		.byte	0x7d
 7826 0fac 10       		.sleb128 16
 7827 0fad 01       		.uleb128 0x1
 7828 0fae 30       		.byte	0x30
 7829 0faf 29       		.uleb128 0x29
 7830 0fb0 02       		.uleb128 0x2
 7831 0fb1 7D       		.byte	0x7d
 7832 0fb2 14       		.sleb128 20
 7833 0fb3 02       		.uleb128 0x2
 7834 0fb4 78       		.byte	0x78
 7835 0fb5 00       		.sleb128 0
 7836 0fb6 29       		.uleb128 0x29
 7837 0fb7 02       		.uleb128 0x2
 7838 0fb8 7D       		.byte	0x7d
 7839 0fb9 18       		.sleb128 24
 7840 0fba 01       		.uleb128 0x1
 7841 0fbb 35       		.byte	0x35
 7842 0fbc 00       		.byte	0
 7843 0fbd 00       		.byte	0
 7844 0fbe 00       		.byte	0
 7845 0fbf 2A       		.uleb128 0x2a
 7846 0fc0 CA020000 		.4byte	.LVL142
 7847 0fc4 DB0F0000 		.4byte	0xfdb
 7848 0fc8 29       		.uleb128 0x29
 7849 0fc9 01       		.uleb128 0x1
 7850 0fca 51       		.byte	0x51
 7851 0fcb 02       		.uleb128 0x2
 7852 0fcc 76       		.byte	0x76
 7853 0fcd 00       		.sleb128 0
 7854 0fce 29       		.uleb128 0x29
 7855 0fcf 01       		.uleb128 0x1
 7856 0fd0 52       		.byte	0x52
 7857 0fd1 02       		.uleb128 0x2
 7858 0fd2 74       		.byte	0x74
 7859 0fd3 00       		.sleb128 0
ARM GAS  C:\Users\pearlstl\AppData\Local\Temp\ccbpFzqf.s 			page 167


 7860 0fd4 29       		.uleb128 0x29
 7861 0fd5 01       		.uleb128 0x1
 7862 0fd6 53       		.byte	0x53
 7863 0fd7 02       		.uleb128 0x2
 7864 0fd8 77       		.byte	0x77
 7865 0fd9 00       		.sleb128 0
 7866 0fda 00       		.byte	0
 7867 0fdb 28       		.uleb128 0x28
 7868 0fdc C0030000 		.4byte	.LVL157
 7869 0fe0 29       		.uleb128 0x29
 7870 0fe1 01       		.uleb128 0x1
 7871 0fe2 50       		.byte	0x50
 7872 0fe3 02       		.uleb128 0x2
 7873 0fe4 08       		.byte	0x8
 7874 0fe5 20       		.byte	0x20
 7875 0fe6 29       		.uleb128 0x29
 7876 0fe7 01       		.uleb128 0x1
 7877 0fe8 51       		.byte	0x51
 7878 0fe9 02       		.uleb128 0x2
 7879 0fea 76       		.byte	0x76
 7880 0feb 00       		.sleb128 0
 7881 0fec 29       		.uleb128 0x29
 7882 0fed 01       		.uleb128 0x1
 7883 0fee 52       		.byte	0x52
 7884 0fef 02       		.uleb128 0x2
 7885 0ff0 74       		.byte	0x74
 7886 0ff1 7F       		.sleb128 -1
 7887 0ff2 29       		.uleb128 0x29
 7888 0ff3 01       		.uleb128 0x1
 7889 0ff4 53       		.byte	0x53
 7890 0ff5 02       		.uleb128 0x2
 7891 0ff6 77       		.byte	0x77
 7892 0ff7 00       		.sleb128 0
 7893 0ff8 00       		.byte	0
 7894 0ff9 00       		.byte	0
 7895 0ffa 00       		.byte	0
 7896 0ffb 00       		.byte	0
 7897 0ffc 2B       		.uleb128 0x2b
 7898 0ffd 41020000 		.4byte	0x241
 7899 1001 00000000 		.4byte	.LFB15
 7900 1005 24050000 		.4byte	.LFE15-.LFB15
 7901 1009 01       		.uleb128 0x1
 7902 100a 9C       		.byte	0x9c
 7903 100b A2120000 		.4byte	0x12a2
 7904 100f 24       		.uleb128 0x24
 7905 1010 52020000 		.4byte	0x252
 7906 1014 5F1A0000 		.4byte	.LLST117
 7907 1018 24       		.uleb128 0x24
 7908 1019 5E020000 		.4byte	0x25e
 7909 101d A11A0000 		.4byte	.LLST118
 7910 1021 24       		.uleb128 0x24
 7911 1022 6A020000 		.4byte	0x26a
 7912 1026 E31A0000 		.4byte	.LLST119
 7913 102a 24       		.uleb128 0x24
 7914 102b 76020000 		.4byte	0x276
 7915 102f 911B0000 		.4byte	.LLST120
 7916 1033 24       		.uleb128 0x24
ARM GAS  C:\Users\pearlstl\AppData\Local\Temp\ccbpFzqf.s 			page 168


 7917 1034 82020000 		.4byte	0x282
 7918 1038 D31B0000 		.4byte	.LLST121
 7919 103c 24       		.uleb128 0x24
 7920 103d 8E020000 		.4byte	0x28e
 7921 1041 6F1C0000 		.4byte	.LLST122
 7922 1045 24       		.uleb128 0x24
 7923 1046 9A020000 		.4byte	0x29a
 7924 104a DF1C0000 		.4byte	.LLST123
 7925 104e 24       		.uleb128 0x24
 7926 104f A6020000 		.4byte	0x2a6
 7927 1053 8A1D0000 		.4byte	.LLST124
 7928 1057 2E       		.uleb128 0x2e
 7929 1058 B2020000 		.4byte	0x2b2
 7930 105c 03       		.uleb128 0x3
 7931 105d 91       		.byte	0x91
 7932 105e B87F     		.sleb128 -72
 7933 1060 26       		.uleb128 0x26
 7934 1061 BE020000 		.4byte	0x2be
 7935 1065 C21D0000 		.4byte	.LLST125
 7936 1069 26       		.uleb128 0x26
 7937 106a CA020000 		.4byte	0x2ca
 7938 106e 991E0000 		.4byte	.LLST126
 7939 1072 26       		.uleb128 0x26
 7940 1073 33030000 		.4byte	0x333
 7941 1077 F11E0000 		.4byte	.LLST127
 7942 107b 26       		.uleb128 0x26
 7943 107c 3F030000 		.4byte	0x33f
 7944 1080 2B1F0000 		.4byte	.LLST128
 7945 1084 26       		.uleb128 0x26
 7946 1085 4B030000 		.4byte	0x34b
 7947 1089 AB1F0000 		.4byte	.LLST129
 7948 108d 26       		.uleb128 0x26
 7949 108e 57030000 		.4byte	0x357
 7950 1092 C01F0000 		.4byte	.LLST130
 7951 1096 2E       		.uleb128 0x2e
 7952 1097 D6020000 		.4byte	0x2d6
 7953 109b 05       		.uleb128 0x5
 7954 109c 03       		.byte	0x3
 7955 109d 00000000 		.4byte	pow10.4373
 7956 10a1 2D       		.uleb128 0x2d
 7957 10a2 E3050000 		.4byte	0x5e3
 7958 10a6 42000000 		.4byte	.LBB157
 7959 10aa C8010000 		.4byte	.Ldebug_ranges0+0x1c8
 7960 10ae 01       		.byte	0x1
 7961 10af 4901     		.2byte	0x149
 7962 10b1 78110000 		.4byte	0x1178
 7963 10b5 24       		.uleb128 0x24
 7964 10b6 40060000 		.4byte	0x640
 7965 10ba 42200000 		.4byte	.LLST131
 7966 10be 24       		.uleb128 0x24
 7967 10bf 35060000 		.4byte	0x635
 7968 10c3 6D200000 		.4byte	.LLST132
 7969 10c7 24       		.uleb128 0x24
 7970 10c8 2A060000 		.4byte	0x62a
 7971 10cc 8B200000 		.4byte	.LLST133
 7972 10d0 30       		.uleb128 0x30
 7973 10d1 1F060000 		.4byte	0x61f
ARM GAS  C:\Users\pearlstl\AppData\Local\Temp\ccbpFzqf.s 			page 169


 7974 10d5 24       		.uleb128 0x24
 7975 10d6 14060000 		.4byte	0x614
 7976 10da 9E200000 		.4byte	.LLST134
 7977 10de 24       		.uleb128 0x24
 7978 10df 09060000 		.4byte	0x609
 7979 10e3 BC200000 		.4byte	.LLST135
 7980 10e7 24       		.uleb128 0x24
 7981 10e8 FE050000 		.4byte	0x5fe
 7982 10ec 27210000 		.4byte	.LLST136
 7983 10f0 24       		.uleb128 0x24
 7984 10f1 F3050000 		.4byte	0x5f3
 7985 10f5 45210000 		.4byte	.LLST137
 7986 10f9 25       		.uleb128 0x25
 7987 10fa C8010000 		.4byte	.Ldebug_ranges0+0x1c8
 7988 10fe 26       		.uleb128 0x26
 7989 10ff 4B060000 		.4byte	0x64b
 7990 1103 63210000 		.4byte	.LLST138
 7991 1107 31       		.uleb128 0x31
 7992 1108 54000000 		.4byte	.LBB159
 7993 110c 22000000 		.4byte	.LBE159-.LBB159
 7994 1110 3C110000 		.4byte	0x113c
 7995 1114 26       		.uleb128 0x26
 7996 1115 57060000 		.4byte	0x657
 7997 1119 9B210000 		.4byte	.LLST139
 7998 111d 28       		.uleb128 0x28
 7999 111e 6C000000 		.4byte	.LVL255
 8000 1122 29       		.uleb128 0x29
 8001 1123 01       		.uleb128 0x1
 8002 1124 50       		.byte	0x50
 8003 1125 02       		.uleb128 0x2
 8004 1126 08       		.byte	0x8
 8005 1127 20       		.byte	0x20
 8006 1128 29       		.uleb128 0x29
 8007 1129 01       		.uleb128 0x1
 8008 112a 51       		.byte	0x51
 8009 112b 02       		.uleb128 0x2
 8010 112c 76       		.byte	0x76
 8011 112d 00       		.sleb128 0
 8012 112e 29       		.uleb128 0x29
 8013 112f 01       		.uleb128 0x1
 8014 1130 52       		.byte	0x52
 8015 1131 02       		.uleb128 0x2
 8016 1132 78       		.byte	0x78
 8017 1133 7F       		.sleb128 -1
 8018 1134 29       		.uleb128 0x29
 8019 1135 01       		.uleb128 0x1
 8020 1136 53       		.byte	0x53
 8021 1137 02       		.uleb128 0x2
 8022 1138 77       		.byte	0x77
 8023 1139 00       		.sleb128 0
 8024 113a 00       		.byte	0
 8025 113b 00       		.byte	0
 8026 113c 2A       		.uleb128 0x2a
 8027 113d 88000000 		.4byte	.LVL260
 8028 1141 58110000 		.4byte	0x1158
 8029 1145 29       		.uleb128 0x29
 8030 1146 01       		.uleb128 0x1
ARM GAS  C:\Users\pearlstl\AppData\Local\Temp\ccbpFzqf.s 			page 170


 8031 1147 51       		.byte	0x51
 8032 1148 02       		.uleb128 0x2
 8033 1149 76       		.byte	0x76
 8034 114a 00       		.sleb128 0
 8035 114b 29       		.uleb128 0x29
 8036 114c 01       		.uleb128 0x1
 8037 114d 52       		.byte	0x52
 8038 114e 02       		.uleb128 0x2
 8039 114f 7A       		.byte	0x7a
 8040 1150 7F       		.sleb128 -1
 8041 1151 29       		.uleb128 0x29
 8042 1152 01       		.uleb128 0x1
 8043 1153 53       		.byte	0x53
 8044 1154 02       		.uleb128 0x2
 8045 1155 77       		.byte	0x77
 8046 1156 00       		.sleb128 0
 8047 1157 00       		.byte	0
 8048 1158 28       		.uleb128 0x28
 8049 1159 B0000000 		.4byte	.LVL265
 8050 115d 29       		.uleb128 0x29
 8051 115e 01       		.uleb128 0x1
 8052 115f 50       		.byte	0x50
 8053 1160 02       		.uleb128 0x2
 8054 1161 08       		.byte	0x8
 8055 1162 20       		.byte	0x20
 8056 1163 29       		.uleb128 0x29
 8057 1164 01       		.uleb128 0x1
 8058 1165 51       		.byte	0x51
 8059 1166 02       		.uleb128 0x2
 8060 1167 76       		.byte	0x76
 8061 1168 00       		.sleb128 0
 8062 1169 29       		.uleb128 0x29
 8063 116a 01       		.uleb128 0x1
 8064 116b 52       		.byte	0x52
 8065 116c 02       		.uleb128 0x2
 8066 116d 79       		.byte	0x79
 8067 116e 7F       		.sleb128 -1
 8068 116f 29       		.uleb128 0x29
 8069 1170 01       		.uleb128 0x1
 8070 1171 53       		.byte	0x53
 8071 1172 02       		.uleb128 0x2
 8072 1173 77       		.byte	0x77
 8073 1174 00       		.sleb128 0
 8074 1175 00       		.byte	0
 8075 1176 00       		.byte	0
 8076 1177 00       		.byte	0
 8077 1178 2D       		.uleb128 0x2d
 8078 1179 E3050000 		.4byte	0x5e3
 8079 117d 44020000 		.4byte	.LBB163
 8080 1181 E8010000 		.4byte	.Ldebug_ranges0+0x1e8
 8081 1185 01       		.byte	0x1
 8082 1186 B401     		.2byte	0x1b4
 8083 1188 53120000 		.4byte	0x1253
 8084 118c 24       		.uleb128 0x24
 8085 118d 40060000 		.4byte	0x640
 8086 1191 AE210000 		.4byte	.LLST140
 8087 1195 24       		.uleb128 0x24
ARM GAS  C:\Users\pearlstl\AppData\Local\Temp\ccbpFzqf.s 			page 171


 8088 1196 35060000 		.4byte	0x635
 8089 119a D0210000 		.4byte	.LLST141
 8090 119e 24       		.uleb128 0x24
 8091 119f 2A060000 		.4byte	0x62a
 8092 11a3 EE210000 		.4byte	.LLST142
 8093 11a7 24       		.uleb128 0x24
 8094 11a8 1F060000 		.4byte	0x61f
 8095 11ac 24220000 		.4byte	.LLST143
 8096 11b0 24       		.uleb128 0x24
 8097 11b1 14060000 		.4byte	0x614
 8098 11b5 48220000 		.4byte	.LLST144
 8099 11b9 24       		.uleb128 0x24
 8100 11ba 09060000 		.4byte	0x609
 8101 11be 66220000 		.4byte	.LLST145
 8102 11c2 24       		.uleb128 0x24
 8103 11c3 FE050000 		.4byte	0x5fe
 8104 11c7 E1220000 		.4byte	.LLST146
 8105 11cb 24       		.uleb128 0x24
 8106 11cc F3050000 		.4byte	0x5f3
 8107 11d0 FF220000 		.4byte	.LLST147
 8108 11d4 25       		.uleb128 0x25
 8109 11d5 E8010000 		.4byte	.Ldebug_ranges0+0x1e8
 8110 11d9 26       		.uleb128 0x26
 8111 11da 4B060000 		.4byte	0x64b
 8112 11de 1D230000 		.4byte	.LLST148
 8113 11e2 31       		.uleb128 0x31
 8114 11e3 4A020000 		.4byte	.LBB165
 8115 11e7 32000000 		.4byte	.LBE165-.LBB165
 8116 11eb 17120000 		.4byte	0x1217
 8117 11ef 26       		.uleb128 0x26
 8118 11f0 57060000 		.4byte	0x657
 8119 11f4 3F230000 		.4byte	.LLST149
 8120 11f8 28       		.uleb128 0x28
 8121 11f9 62020000 		.4byte	.LVL308
 8122 11fd 29       		.uleb128 0x29
 8123 11fe 01       		.uleb128 0x1
 8124 11ff 50       		.byte	0x50
 8125 1200 02       		.uleb128 0x2
 8126 1201 08       		.byte	0x8
 8127 1202 20       		.byte	0x20
 8128 1203 29       		.uleb128 0x29
 8129 1204 01       		.uleb128 0x1
 8130 1205 51       		.byte	0x51
 8131 1206 02       		.uleb128 0x2
 8132 1207 76       		.byte	0x76
 8133 1208 00       		.sleb128 0
 8134 1209 29       		.uleb128 0x29
 8135 120a 01       		.uleb128 0x1
 8136 120b 52       		.byte	0x52
 8137 120c 02       		.uleb128 0x2
 8138 120d 74       		.byte	0x74
 8139 120e 7F       		.sleb128 -1
 8140 120f 29       		.uleb128 0x29
 8141 1210 01       		.uleb128 0x1
 8142 1211 53       		.byte	0x53
 8143 1212 02       		.uleb128 0x2
 8144 1213 77       		.byte	0x77
ARM GAS  C:\Users\pearlstl\AppData\Local\Temp\ccbpFzqf.s 			page 172


 8145 1214 00       		.sleb128 0
 8146 1215 00       		.byte	0
 8147 1216 00       		.byte	0
 8148 1217 2A       		.uleb128 0x2a
 8149 1218 8E020000 		.4byte	.LVL313
 8150 121c 33120000 		.4byte	0x1233
 8151 1220 29       		.uleb128 0x29
 8152 1221 01       		.uleb128 0x1
 8153 1222 51       		.byte	0x51
 8154 1223 02       		.uleb128 0x2
 8155 1224 76       		.byte	0x76
 8156 1225 00       		.sleb128 0
 8157 1226 29       		.uleb128 0x29
 8158 1227 01       		.uleb128 0x1
 8159 1228 52       		.byte	0x52
 8160 1229 02       		.uleb128 0x2
 8161 122a 79       		.byte	0x79
 8162 122b 7F       		.sleb128 -1
 8163 122c 29       		.uleb128 0x29
 8164 122d 01       		.uleb128 0x1
 8165 122e 53       		.byte	0x53
 8166 122f 02       		.uleb128 0x2
 8167 1230 77       		.byte	0x77
 8168 1231 00       		.sleb128 0
 8169 1232 00       		.byte	0
 8170 1233 28       		.uleb128 0x28
 8171 1234 B4020000 		.4byte	.LVL317
 8172 1238 29       		.uleb128 0x29
 8173 1239 01       		.uleb128 0x1
 8174 123a 50       		.byte	0x50
 8175 123b 02       		.uleb128 0x2
 8176 123c 08       		.byte	0x8
 8177 123d 20       		.byte	0x20
 8178 123e 29       		.uleb128 0x29
 8179 123f 01       		.uleb128 0x1
 8180 1240 51       		.byte	0x51
 8181 1241 02       		.uleb128 0x2
 8182 1242 76       		.byte	0x76
 8183 1243 00       		.sleb128 0
 8184 1244 29       		.uleb128 0x29
 8185 1245 01       		.uleb128 0x1
 8186 1246 52       		.byte	0x52
 8187 1247 02       		.uleb128 0x2
 8188 1248 74       		.byte	0x74
 8189 1249 7F       		.sleb128 -1
 8190 124a 29       		.uleb128 0x29
 8191 124b 01       		.uleb128 0x1
 8192 124c 53       		.byte	0x53
 8193 124d 02       		.uleb128 0x2
 8194 124e 77       		.byte	0x77
 8195 124f 00       		.sleb128 0
 8196 1250 00       		.byte	0
 8197 1251 00       		.byte	0
 8198 1252 00       		.byte	0
 8199 1253 27       		.uleb128 0x27
 8200 1254 10020000 		.4byte	.Ldebug_ranges0+0x210
 8201 1258 66120000 		.4byte	0x1266
ARM GAS  C:\Users\pearlstl\AppData\Local\Temp\ccbpFzqf.s 			page 173


 8202 125c 26       		.uleb128 0x26
 8203 125d 64030000 		.4byte	0x364
 8204 1261 52230000 		.4byte	.LLST150
 8205 1265 00       		.byte	0
 8206 1266 32       		.uleb128 0x32
 8207 1267 F4020000 		.4byte	.LVL322
 8208 126b 33010000 		.4byte	0x133
 8209 126f 29       		.uleb128 0x29
 8210 1270 01       		.uleb128 0x1
 8211 1271 50       		.byte	0x50
 8212 1272 03       		.uleb128 0x3
 8213 1273 F3       		.byte	0xf3
 8214 1274 01       		.uleb128 0x1
 8215 1275 50       		.byte	0x50
 8216 1276 29       		.uleb128 0x29
 8217 1277 01       		.uleb128 0x1
 8218 1278 51       		.byte	0x51
 8219 1279 03       		.uleb128 0x3
 8220 127a F3       		.byte	0xf3
 8221 127b 01       		.uleb128 0x1
 8222 127c 51       		.byte	0x51
 8223 127d 29       		.uleb128 0x29
 8224 127e 01       		.uleb128 0x1
 8225 127f 52       		.byte	0x52
 8226 1280 04       		.uleb128 0x4
 8227 1281 7D       		.byte	0x7d
 8228 1282 9C7F     		.sleb128 -100
 8229 1284 06       		.byte	0x6
 8230 1285 29       		.uleb128 0x29
 8231 1286 01       		.uleb128 0x1
 8232 1287 53       		.byte	0x53
 8233 1288 03       		.uleb128 0x3
 8234 1289 F3       		.byte	0xf3
 8235 128a 01       		.uleb128 0x1
 8236 128b 53       		.byte	0x53
 8237 128c 29       		.uleb128 0x29
 8238 128d 02       		.uleb128 0x2
 8239 128e 91       		.byte	0x91
 8240 128f 00       		.sleb128 0
 8241 1290 06       		.uleb128 0x6
 8242 1291 7D       		.byte	0x7d
 8243 1292 907F     		.sleb128 -112
 8244 1294 F6       		.byte	0xf6
 8245 1295 08       		.byte	0x8
 8246 1296 25       		.uleb128 0x25
 8247 1297 29       		.uleb128 0x29
 8248 1298 02       		.uleb128 0x2
 8249 1299 91       		.byte	0x91
 8250 129a 10       		.sleb128 16
 8251 129b 04       		.uleb128 0x4
 8252 129c 7D       		.byte	0x7d
 8253 129d 987F     		.sleb128 -104
 8254 129f 06       		.byte	0x6
 8255 12a0 00       		.byte	0
 8256 12a1 00       		.byte	0
 8257 12a2 0D       		.uleb128 0xd
 8258 12a3 27030000 		.4byte	.LASF57
ARM GAS  C:\Users\pearlstl\AppData\Local\Temp\ccbpFzqf.s 			page 174


 8259 12a7 01       		.byte	0x1
 8260 12a8 1901     		.2byte	0x119
 8261 12aa CD000000 		.4byte	0xcd
 8262 12ae 01       		.byte	0x1
 8263 12af 52130000 		.4byte	0x1352
 8264 12b3 0E       		.uleb128 0xe
 8265 12b4 6F757400 		.ascii	"out\000"
 8266 12b8 01       		.byte	0x1
 8267 12b9 1901     		.2byte	0x119
 8268 12bb DF000000 		.4byte	0xdf
 8269 12bf 0F       		.uleb128 0xf
 8270 12c0 08030000 		.4byte	.LASF23
 8271 12c4 01       		.byte	0x1
 8272 12c5 1901     		.2byte	0x119
 8273 12c7 2C020000 		.4byte	0x22c
 8274 12cb 0E       		.uleb128 0xe
 8275 12cc 69647800 		.ascii	"idx\000"
 8276 12d0 01       		.byte	0x1
 8277 12d1 1901     		.2byte	0x119
 8278 12d3 CD000000 		.4byte	0xcd
 8279 12d7 0F       		.uleb128 0xf
 8280 12d8 FC010000 		.4byte	.LASF24
 8281 12dc 01       		.byte	0x1
 8282 12dd 1901     		.2byte	0x119
 8283 12df CD000000 		.4byte	0xcd
 8284 12e3 0F       		.uleb128 0xf
 8285 12e4 E5000000 		.4byte	.LASF25
 8286 12e8 01       		.byte	0x1
 8287 12e9 1901     		.2byte	0x119
 8288 12eb 2C000000 		.4byte	0x2c
 8289 12ef 0F       		.uleb128 0xf
 8290 12f0 7A010000 		.4byte	.LASF30
 8291 12f4 01       		.byte	0x1
 8292 12f5 1901     		.2byte	0x119
 8293 12f7 2C010000 		.4byte	0x12c
 8294 12fb 0F       		.uleb128 0xf
 8295 12fc A4030000 		.4byte	.LASF49
 8296 1300 01       		.byte	0x1
 8297 1301 1901     		.2byte	0x119
 8298 1303 2C000000 		.4byte	0x2c
 8299 1307 0F       		.uleb128 0xf
 8300 1308 7D030000 		.4byte	.LASF26
 8301 130c 01       		.byte	0x1
 8302 130d 1901     		.2byte	0x119
 8303 130f 3A000000 		.4byte	0x3a
 8304 1313 0F       		.uleb128 0xf
 8305 1314 0B010000 		.4byte	.LASF27
 8306 1318 01       		.byte	0x1
 8307 1319 1901     		.2byte	0x119
 8308 131b 3A000000 		.4byte	0x3a
 8309 131f 0F       		.uleb128 0xf
 8310 1320 D2010000 		.4byte	.LASF28
 8311 1324 01       		.byte	0x1
 8312 1325 1901     		.2byte	0x119
 8313 1327 3A000000 		.4byte	0x3a
 8314 132b 13       		.uleb128 0x13
 8315 132c 62756600 		.ascii	"buf\000"
ARM GAS  C:\Users\pearlstl\AppData\Local\Temp\ccbpFzqf.s 			page 175


 8316 1330 01       		.byte	0x1
 8317 1331 1B01     		.2byte	0x11b
 8318 1333 72030000 		.4byte	0x372
 8319 1337 13       		.uleb128 0x13
 8320 1338 6C656E00 		.ascii	"len\000"
 8321 133c 01       		.byte	0x1
 8322 133d 1C01     		.2byte	0x11c
 8323 133f CD000000 		.4byte	0xcd
 8324 1343 16       		.uleb128 0x16
 8325 1344 10       		.uleb128 0x10
 8326 1345 98030000 		.4byte	.LASF56
 8327 1349 01       		.byte	0x1
 8328 134a 2601     		.2byte	0x126
 8329 134c CF030000 		.4byte	0x3cf
 8330 1350 00       		.byte	0
 8331 1351 00       		.byte	0
 8332 1352 2B       		.uleb128 0x2b
 8333 1353 04040000 		.4byte	0x404
 8334 1357 00000000 		.4byte	.LFB16
 8335 135b A0100000 		.4byte	.LFE16-.LFB16
 8336 135f 01       		.uleb128 0x1
 8337 1360 9C       		.byte	0x9c
 8338 1361 BD1F0000 		.4byte	0x1fbd
 8339 1365 24       		.uleb128 0x24
 8340 1366 21040000 		.4byte	0x421
 8341 136a A2230000 		.4byte	.LLST151
 8342 136e 24       		.uleb128 0x24
 8343 136f 2D040000 		.4byte	0x42d
 8344 1373 C2230000 		.4byte	.LLST152
 8345 1377 24       		.uleb128 0x24
 8346 1378 39040000 		.4byte	0x439
 8347 137c 0C240000 		.4byte	.LLST153
 8348 1380 24       		.uleb128 0x24
 8349 1381 45040000 		.4byte	0x445
 8350 1385 3D270000 		.4byte	.LLST154
 8351 1389 26       		.uleb128 0x26
 8352 138a 50040000 		.4byte	0x450
 8353 138e 50270000 		.4byte	.LLST155
 8354 1392 26       		.uleb128 0x26
 8355 1393 5C040000 		.4byte	0x45c
 8356 1397 50290000 		.4byte	.LLST156
 8357 139b 26       		.uleb128 0x26
 8358 139c 68040000 		.4byte	0x468
 8359 13a0 B7290000 		.4byte	.LLST157
 8360 13a4 26       		.uleb128 0x26
 8361 13a5 74040000 		.4byte	0x474
 8362 13a9 FA290000 		.4byte	.LLST158
 8363 13ad 26       		.uleb128 0x26
 8364 13ae 7E040000 		.4byte	0x47e
 8365 13b2 4A2A0000 		.4byte	.LLST159
 8366 13b6 24       		.uleb128 0x24
 8367 13b7 15040000 		.4byte	0x415
 8368 13bb B32B0000 		.4byte	.LLST160
 8369 13bf 27       		.uleb128 0x27
 8370 13c0 28020000 		.4byte	.Ldebug_ranges0+0x228
 8371 13c4 69140000 		.4byte	0x1469
 8372 13c8 26       		.uleb128 0x26
ARM GAS  C:\Users\pearlstl\AppData\Local\Temp\ccbpFzqf.s 			page 176


 8373 13c9 17050000 		.4byte	0x517
 8374 13cd CB2B0000 		.4byte	.LLST161
 8375 13d1 26       		.uleb128 0x26
 8376 13d2 21050000 		.4byte	0x521
 8377 13d6 032C0000 		.4byte	.LLST162
 8378 13da 2D       		.uleb128 0x2d
 8379 13db D4030000 		.4byte	0x3d4
 8380 13df 86020000 		.4byte	.LBB238
 8381 13e3 68020000 		.4byte	.Ldebug_ranges0+0x268
 8382 13e7 01       		.byte	0x1
 8383 13e8 0503     		.2byte	0x305
 8384 13ea 0C140000 		.4byte	0x140c
 8385 13ee 24       		.uleb128 0x24
 8386 13ef EF030000 		.4byte	0x3ef
 8387 13f3 652C0000 		.4byte	.LLST163
 8388 13f7 30       		.uleb128 0x30
 8389 13f8 E4030000 		.4byte	0x3e4
 8390 13fc 25       		.uleb128 0x25
 8391 13fd 68020000 		.4byte	.Ldebug_ranges0+0x268
 8392 1401 26       		.uleb128 0x26
 8393 1402 FA030000 		.4byte	0x3fa
 8394 1406 AA2C0000 		.4byte	.LLST164
 8395 140a 00       		.byte	0
 8396 140b 00       		.byte	0
 8397 140c 2A       		.uleb128 0x2a
 8398 140d 22030000 		.4byte	.LVL456
 8399 1411 2E140000 		.4byte	0x142e
 8400 1415 29       		.uleb128 0x29
 8401 1416 01       		.uleb128 0x1
 8402 1417 50       		.byte	0x50
 8403 1418 02       		.uleb128 0x2
 8404 1419 08       		.byte	0x8
 8405 141a 20       		.byte	0x20
 8406 141b 29       		.uleb128 0x29
 8407 141c 01       		.uleb128 0x1
 8408 141d 51       		.byte	0x51
 8409 141e 02       		.uleb128 0x2
 8410 141f 7A       		.byte	0x7a
 8411 1420 00       		.sleb128 0
 8412 1421 29       		.uleb128 0x29
 8413 1422 01       		.uleb128 0x1
 8414 1423 52       		.byte	0x52
 8415 1424 02       		.uleb128 0x2
 8416 1425 76       		.byte	0x76
 8417 1426 7F       		.sleb128 -1
 8418 1427 29       		.uleb128 0x29
 8419 1428 01       		.uleb128 0x1
 8420 1429 53       		.byte	0x53
 8421 142a 02       		.uleb128 0x2
 8422 142b 7B       		.byte	0x7b
 8423 142c 00       		.sleb128 0
 8424 142d 00       		.byte	0
 8425 142e 2A       		.uleb128 0x2a
 8426 142f C0050000 		.4byte	.LVL533
 8427 1433 50140000 		.4byte	0x1450
 8428 1437 29       		.uleb128 0x29
 8429 1438 01       		.uleb128 0x1
ARM GAS  C:\Users\pearlstl\AppData\Local\Temp\ccbpFzqf.s 			page 177


 8430 1439 50       		.byte	0x50
 8431 143a 02       		.uleb128 0x2
 8432 143b 08       		.byte	0x8
 8433 143c 20       		.byte	0x20
 8434 143d 29       		.uleb128 0x29
 8435 143e 01       		.uleb128 0x1
 8436 143f 51       		.byte	0x51
 8437 1440 02       		.uleb128 0x2
 8438 1441 7A       		.byte	0x7a
 8439 1442 00       		.sleb128 0
 8440 1443 29       		.uleb128 0x29
 8441 1444 01       		.uleb128 0x1
 8442 1445 52       		.byte	0x52
 8443 1446 02       		.uleb128 0x2
 8444 1447 74       		.byte	0x74
 8445 1448 7F       		.sleb128 -1
 8446 1449 29       		.uleb128 0x29
 8447 144a 01       		.uleb128 0x1
 8448 144b 53       		.byte	0x53
 8449 144c 02       		.uleb128 0x2
 8450 144d 7B       		.byte	0x7b
 8451 144e 00       		.sleb128 0
 8452 144f 00       		.byte	0
 8453 1450 28       		.uleb128 0x28
 8454 1451 FA050000 		.4byte	.LVL538
 8455 1455 29       		.uleb128 0x29
 8456 1456 01       		.uleb128 0x1
 8457 1457 51       		.byte	0x51
 8458 1458 02       		.uleb128 0x2
 8459 1459 79       		.byte	0x79
 8460 145a 00       		.sleb128 0
 8461 145b 29       		.uleb128 0x29
 8462 145c 01       		.uleb128 0x1
 8463 145d 52       		.byte	0x52
 8464 145e 02       		.uleb128 0x2
 8465 145f 7A       		.byte	0x7a
 8466 1460 00       		.sleb128 0
 8467 1461 29       		.uleb128 0x29
 8468 1462 01       		.uleb128 0x1
 8469 1463 53       		.byte	0x53
 8470 1464 02       		.uleb128 0x2
 8471 1465 7B       		.byte	0x7b
 8472 1466 00       		.sleb128 0
 8473 1467 00       		.byte	0
 8474 1468 00       		.byte	0
 8475 1469 27       		.uleb128 0x27
 8476 146a 88020000 		.4byte	.Ldebug_ranges0+0x288
 8477 146e 4B150000 		.4byte	0x154b
 8478 1472 26       		.uleb128 0x26
 8479 1473 2D050000 		.4byte	0x52d
 8480 1477 EF2C0000 		.4byte	.LLST165
 8481 147b 33       		.uleb128 0x33
 8482 147c ED070000 		.4byte	0x7ed
 8483 1480 D2010000 		.4byte	.LBB245
 8484 1484 A8020000 		.4byte	.Ldebug_ranges0+0x2a8
 8485 1488 01       		.byte	0x1
 8486 1489 2703     		.2byte	0x327
ARM GAS  C:\Users\pearlstl\AppData\Local\Temp\ccbpFzqf.s 			page 178


 8487 148b 24       		.uleb128 0x24
 8488 148c 6A080000 		.4byte	0x86a
 8489 1490 0F2D0000 		.4byte	.LLST166
 8490 1494 24       		.uleb128 0x24
 8491 1495 5E080000 		.4byte	0x85e
 8492 1499 422D0000 		.4byte	.LLST167
 8493 149d 30       		.uleb128 0x30
 8494 149e 52080000 		.4byte	0x852
 8495 14a2 24       		.uleb128 0x24
 8496 14a3 46080000 		.4byte	0x846
 8497 14a7 622D0000 		.4byte	.LLST168
 8498 14ab 24       		.uleb128 0x24
 8499 14ac 3A080000 		.4byte	0x83a
 8500 14b0 822D0000 		.4byte	.LLST169
 8501 14b4 24       		.uleb128 0x24
 8502 14b5 2E080000 		.4byte	0x82e
 8503 14b9 A22D0000 		.4byte	.LLST170
 8504 14bd 30       		.uleb128 0x30
 8505 14be 22080000 		.4byte	0x822
 8506 14c2 24       		.uleb128 0x24
 8507 14c3 16080000 		.4byte	0x816
 8508 14c7 CB2D0000 		.4byte	.LLST171
 8509 14cb 30       		.uleb128 0x30
 8510 14cc 0A080000 		.4byte	0x80a
 8511 14d0 30       		.uleb128 0x30
 8512 14d1 FE070000 		.4byte	0x7fe
 8513 14d5 25       		.uleb128 0x25
 8514 14d6 A8020000 		.4byte	.Ldebug_ranges0+0x2a8
 8515 14da 2E       		.uleb128 0x2e
 8516 14db 76080000 		.4byte	0x876
 8517 14df 03       		.uleb128 0x3
 8518 14e0 91       		.byte	0x91
 8519 14e1 B87F     		.sleb128 -72
 8520 14e3 26       		.uleb128 0x26
 8521 14e4 82080000 		.4byte	0x882
 8522 14e8 DE2D0000 		.4byte	.LLST172
 8523 14ec 27       		.uleb128 0x27
 8524 14ed D8020000 		.4byte	.Ldebug_ranges0+0x2d8
 8525 14f1 FF140000 		.4byte	0x14ff
 8526 14f5 26       		.uleb128 0x26
 8527 14f6 8F080000 		.4byte	0x88f
 8528 14fa 162E0000 		.4byte	.LLST173
 8529 14fe 00       		.byte	0
 8530 14ff 2F       		.uleb128 0x2f
 8531 1500 2E020000 		.4byte	.LVL424
 8532 1504 62060000 		.4byte	0x662
 8533 1508 29       		.uleb128 0x29
 8534 1509 01       		.uleb128 0x1
 8535 150a 50       		.byte	0x50
 8536 150b 04       		.uleb128 0x4
 8537 150c 91       		.byte	0x91
 8538 150d 887F     		.sleb128 -120
 8539 150f 06       		.byte	0x6
 8540 1510 29       		.uleb128 0x29
 8541 1511 01       		.uleb128 0x1
 8542 1512 51       		.byte	0x51
 8543 1513 04       		.uleb128 0x4
ARM GAS  C:\Users\pearlstl\AppData\Local\Temp\ccbpFzqf.s 			page 179


 8544 1514 91       		.byte	0x91
 8545 1515 8C7F     		.sleb128 -116
 8546 1517 06       		.byte	0x6
 8547 1518 29       		.uleb128 0x29
 8548 1519 01       		.uleb128 0x1
 8549 151a 52       		.byte	0x52
 8550 151b 02       		.uleb128 0x2
 8551 151c 7A       		.byte	0x7a
 8552 151d 00       		.sleb128 0
 8553 151e 29       		.uleb128 0x29
 8554 151f 01       		.uleb128 0x1
 8555 1520 53       		.byte	0x53
 8556 1521 02       		.uleb128 0x2
 8557 1522 7B       		.byte	0x7b
 8558 1523 00       		.sleb128 0
 8559 1524 29       		.uleb128 0x29
 8560 1525 02       		.uleb128 0x2
 8561 1526 7D       		.byte	0x7d
 8562 1527 00       		.sleb128 0
 8563 1528 03       		.uleb128 0x3
 8564 1529 91       		.byte	0x91
 8565 152a B87F     		.sleb128 -72
 8566 152c 29       		.uleb128 0x29
 8567 152d 02       		.uleb128 0x2
 8568 152e 7D       		.byte	0x7d
 8569 152f 08       		.sleb128 8
 8570 1530 01       		.uleb128 0x1
 8571 1531 30       		.byte	0x30
 8572 1532 29       		.uleb128 0x29
 8573 1533 02       		.uleb128 0x2
 8574 1534 7D       		.byte	0x7d
 8575 1535 0C       		.sleb128 12
 8576 1536 02       		.uleb128 0x2
 8577 1537 75       		.byte	0x75
 8578 1538 00       		.sleb128 0
 8579 1539 29       		.uleb128 0x29
 8580 153a 02       		.uleb128 0x2
 8581 153b 7D       		.byte	0x7d
 8582 153c 10       		.sleb128 16
 8583 153d 02       		.uleb128 0x2
 8584 153e 79       		.byte	0x79
 8585 153f 00       		.sleb128 0
 8586 1540 29       		.uleb128 0x29
 8587 1541 02       		.uleb128 0x2
 8588 1542 7D       		.byte	0x7d
 8589 1543 14       		.sleb128 20
 8590 1544 02       		.uleb128 0x2
 8591 1545 76       		.byte	0x76
 8592 1546 00       		.sleb128 0
 8593 1547 00       		.byte	0
 8594 1548 00       		.byte	0
 8595 1549 00       		.byte	0
 8596 154a 00       		.byte	0
 8597 154b 27       		.uleb128 0x27
 8598 154c F0020000 		.4byte	.Ldebug_ranges0+0x2f0
 8599 1550 E0150000 		.4byte	0x15e0
 8600 1554 26       		.uleb128 0x26
ARM GAS  C:\Users\pearlstl\AppData\Local\Temp\ccbpFzqf.s 			page 180


 8601 1555 07050000 		.4byte	0x507
 8602 1559 342E0000 		.4byte	.LLST174
 8603 155d 2A       		.uleb128 0x2a
 8604 155e 64020000 		.4byte	.LVL433
 8605 1562 7F150000 		.4byte	0x157f
 8606 1566 29       		.uleb128 0x29
 8607 1567 01       		.uleb128 0x1
 8608 1568 50       		.byte	0x50
 8609 1569 02       		.uleb128 0x2
 8610 156a 08       		.byte	0x8
 8611 156b 20       		.byte	0x20
 8612 156c 29       		.uleb128 0x29
 8613 156d 01       		.uleb128 0x1
 8614 156e 51       		.byte	0x51
 8615 156f 02       		.uleb128 0x2
 8616 1570 77       		.byte	0x77
 8617 1571 00       		.sleb128 0
 8618 1572 29       		.uleb128 0x29
 8619 1573 01       		.uleb128 0x1
 8620 1574 52       		.byte	0x52
 8621 1575 02       		.uleb128 0x2
 8622 1576 7A       		.byte	0x7a
 8623 1577 7F       		.sleb128 -1
 8624 1578 29       		.uleb128 0x29
 8625 1579 01       		.uleb128 0x1
 8626 157a 53       		.byte	0x53
 8627 157b 02       		.uleb128 0x2
 8628 157c 7B       		.byte	0x7b
 8629 157d 00       		.sleb128 0
 8630 157e 00       		.byte	0
 8631 157f 34       		.uleb128 0x34
 8632 1580 7E020000 		.4byte	.LVL436
 8633 1584 02       		.uleb128 0x2
 8634 1585 75       		.byte	0x75
 8635 1586 00       		.sleb128 0
 8636 1587 A0150000 		.4byte	0x15a0
 8637 158b 29       		.uleb128 0x29
 8638 158c 01       		.uleb128 0x1
 8639 158d 51       		.byte	0x51
 8640 158e 04       		.uleb128 0x4
 8641 158f 91       		.byte	0x91
 8642 1590 8C7F     		.sleb128 -116
 8643 1592 06       		.byte	0x6
 8644 1593 29       		.uleb128 0x29
 8645 1594 01       		.uleb128 0x1
 8646 1595 52       		.byte	0x52
 8647 1596 02       		.uleb128 0x2
 8648 1597 7A       		.byte	0x7a
 8649 1598 7F       		.sleb128 -1
 8650 1599 29       		.uleb128 0x29
 8651 159a 01       		.uleb128 0x1
 8652 159b 53       		.byte	0x53
 8653 159c 02       		.uleb128 0x2
 8654 159d 7B       		.byte	0x7b
 8655 159e 00       		.sleb128 0
 8656 159f 00       		.byte	0
 8657 15a0 34       		.uleb128 0x34
ARM GAS  C:\Users\pearlstl\AppData\Local\Temp\ccbpFzqf.s 			page 181


 8658 15a1 1A060000 		.4byte	.LVL542
 8659 15a5 02       		.uleb128 0x2
 8660 15a6 77       		.byte	0x77
 8661 15a7 00       		.sleb128 0
 8662 15a8 C1150000 		.4byte	0x15c1
 8663 15ac 29       		.uleb128 0x29
 8664 15ad 01       		.uleb128 0x1
 8665 15ae 51       		.byte	0x51
 8666 15af 04       		.uleb128 0x4
 8667 15b0 91       		.byte	0x91
 8668 15b1 8C7F     		.sleb128 -116
 8669 15b3 06       		.byte	0x6
 8670 15b4 29       		.uleb128 0x29
 8671 15b5 01       		.uleb128 0x1
 8672 15b6 52       		.byte	0x52
 8673 15b7 02       		.uleb128 0x2
 8674 15b8 7A       		.byte	0x7a
 8675 15b9 00       		.sleb128 0
 8676 15ba 29       		.uleb128 0x29
 8677 15bb 01       		.uleb128 0x1
 8678 15bc 53       		.byte	0x53
 8679 15bd 02       		.uleb128 0x2
 8680 15be 7B       		.byte	0x7b
 8681 15bf 00       		.sleb128 0
 8682 15c0 00       		.byte	0
 8683 15c1 28       		.uleb128 0x28
 8684 15c2 40060000 		.4byte	.LVL547
 8685 15c6 29       		.uleb128 0x29
 8686 15c7 01       		.uleb128 0x1
 8687 15c8 50       		.byte	0x50
 8688 15c9 02       		.uleb128 0x2
 8689 15ca 08       		.byte	0x8
 8690 15cb 20       		.byte	0x20
 8691 15cc 29       		.uleb128 0x29
 8692 15cd 01       		.uleb128 0x1
 8693 15ce 51       		.byte	0x51
 8694 15cf 02       		.uleb128 0x2
 8695 15d0 78       		.byte	0x78
 8696 15d1 00       		.sleb128 0
 8697 15d2 29       		.uleb128 0x29
 8698 15d3 01       		.uleb128 0x1
 8699 15d4 52       		.byte	0x52
 8700 15d5 02       		.uleb128 0x2
 8701 15d6 75       		.byte	0x75
 8702 15d7 7F       		.sleb128 -1
 8703 15d8 29       		.uleb128 0x29
 8704 15d9 01       		.uleb128 0x1
 8705 15da 53       		.byte	0x53
 8706 15db 02       		.uleb128 0x2
 8707 15dc 7B       		.byte	0x7b
 8708 15dd 00       		.sleb128 0
 8709 15de 00       		.byte	0
 8710 15df 00       		.byte	0
 8711 15e0 27       		.uleb128 0x27
 8712 15e1 10030000 		.4byte	.Ldebug_ranges0+0x310
 8713 15e5 F5190000 		.4byte	0x19f5
 8714 15e9 26       		.uleb128 0x26
ARM GAS  C:\Users\pearlstl\AppData\Local\Temp\ccbpFzqf.s 			page 182


 8715 15ea B1040000 		.4byte	0x4b1
 8716 15ee 782E0000 		.4byte	.LLST175
 8717 15f2 27       		.uleb128 0x27
 8718 15f3 68030000 		.4byte	.Ldebug_ranges0+0x368
 8719 15f7 D3160000 		.4byte	0x16d3
 8720 15fb 26       		.uleb128 0x26
 8721 15fc D4040000 		.4byte	0x4d4
 8722 1600 B02E0000 		.4byte	.LLST176
 8723 1604 33       		.uleb128 0x33
 8724 1605 ED070000 		.4byte	0x7ed
 8725 1609 6E0D0000 		.4byte	.LBB263
 8726 160d 88030000 		.4byte	.Ldebug_ranges0+0x388
 8727 1611 01       		.byte	0x1
 8728 1612 C302     		.2byte	0x2c3
 8729 1614 24       		.uleb128 0x24
 8730 1615 6A080000 		.4byte	0x86a
 8731 1619 F72E0000 		.4byte	.LLST177
 8732 161d 30       		.uleb128 0x30
 8733 161e 5E080000 		.4byte	0x85e
 8734 1622 30       		.uleb128 0x30
 8735 1623 52080000 		.4byte	0x852
 8736 1627 24       		.uleb128 0x24
 8737 1628 46080000 		.4byte	0x846
 8738 162c 172F0000 		.4byte	.LLST178
 8739 1630 24       		.uleb128 0x24
 8740 1631 3A080000 		.4byte	0x83a
 8741 1635 352F0000 		.4byte	.LLST179
 8742 1639 24       		.uleb128 0x24
 8743 163a 2E080000 		.4byte	0x82e
 8744 163e 532F0000 		.4byte	.LLST180
 8745 1642 30       		.uleb128 0x30
 8746 1643 22080000 		.4byte	0x822
 8747 1647 24       		.uleb128 0x24
 8748 1648 16080000 		.4byte	0x816
 8749 164c A82F0000 		.4byte	.LLST181
 8750 1650 30       		.uleb128 0x30
 8751 1651 0A080000 		.4byte	0x80a
 8752 1655 30       		.uleb128 0x30
 8753 1656 FE070000 		.4byte	0x7fe
 8754 165a 25       		.uleb128 0x25
 8755 165b 88030000 		.4byte	.Ldebug_ranges0+0x388
 8756 165f 2E       		.uleb128 0x2e
 8757 1660 76080000 		.4byte	0x876
 8758 1664 03       		.uleb128 0x3
 8759 1665 91       		.byte	0x91
 8760 1666 B87F     		.sleb128 -72
 8761 1668 26       		.uleb128 0x26
 8762 1669 82080000 		.4byte	0x882
 8763 166d BB2F0000 		.4byte	.LLST182
 8764 1671 27       		.uleb128 0x27
 8765 1672 A8030000 		.4byte	.Ldebug_ranges0+0x3a8
 8766 1676 84160000 		.4byte	0x1684
 8767 167a 26       		.uleb128 0x26
 8768 167b 8F080000 		.4byte	0x88f
 8769 167f F32F0000 		.4byte	.LLST183
 8770 1683 00       		.byte	0
 8771 1684 2F       		.uleb128 0x2f
ARM GAS  C:\Users\pearlstl\AppData\Local\Temp\ccbpFzqf.s 			page 183


 8772 1685 DE0D0000 		.4byte	.LVL759
 8773 1689 62060000 		.4byte	0x662
 8774 168d 29       		.uleb128 0x29
 8775 168e 01       		.uleb128 0x1
 8776 168f 50       		.byte	0x50
 8777 1690 04       		.uleb128 0x4
 8778 1691 91       		.byte	0x91
 8779 1692 887F     		.sleb128 -120
 8780 1694 06       		.byte	0x6
 8781 1695 29       		.uleb128 0x29
 8782 1696 01       		.uleb128 0x1
 8783 1697 51       		.byte	0x51
 8784 1698 04       		.uleb128 0x4
 8785 1699 91       		.byte	0x91
 8786 169a 8C7F     		.sleb128 -116
 8787 169c 06       		.byte	0x6
 8788 169d 29       		.uleb128 0x29
 8789 169e 01       		.uleb128 0x1
 8790 169f 52       		.byte	0x52
 8791 16a0 02       		.uleb128 0x2
 8792 16a1 7A       		.byte	0x7a
 8793 16a2 00       		.sleb128 0
 8794 16a3 29       		.uleb128 0x29
 8795 16a4 01       		.uleb128 0x1
 8796 16a5 53       		.byte	0x53
 8797 16a6 02       		.uleb128 0x2
 8798 16a7 7B       		.byte	0x7b
 8799 16a8 00       		.sleb128 0
 8800 16a9 29       		.uleb128 0x29
 8801 16aa 02       		.uleb128 0x2
 8802 16ab 7D       		.byte	0x7d
 8803 16ac 00       		.sleb128 0
 8804 16ad 03       		.uleb128 0x3
 8805 16ae 91       		.byte	0x91
 8806 16af B87F     		.sleb128 -72
 8807 16b1 29       		.uleb128 0x29
 8808 16b2 02       		.uleb128 0x2
 8809 16b3 7D       		.byte	0x7d
 8810 16b4 0C       		.sleb128 12
 8811 16b5 02       		.uleb128 0x2
 8812 16b6 77       		.byte	0x77
 8813 16b7 00       		.sleb128 0
 8814 16b8 29       		.uleb128 0x29
 8815 16b9 02       		.uleb128 0x2
 8816 16ba 7D       		.byte	0x7d
 8817 16bb 10       		.sleb128 16
 8818 16bc 02       		.uleb128 0x2
 8819 16bd 79       		.byte	0x79
 8820 16be 00       		.sleb128 0
 8821 16bf 29       		.uleb128 0x29
 8822 16c0 02       		.uleb128 0x2
 8823 16c1 7D       		.byte	0x7d
 8824 16c2 14       		.sleb128 20
 8825 16c3 02       		.uleb128 0x2
 8826 16c4 78       		.byte	0x78
 8827 16c5 00       		.sleb128 0
 8828 16c6 29       		.uleb128 0x29
ARM GAS  C:\Users\pearlstl\AppData\Local\Temp\ccbpFzqf.s 			page 184


 8829 16c7 02       		.uleb128 0x2
 8830 16c8 7D       		.byte	0x7d
 8831 16c9 18       		.sleb128 24
 8832 16ca 04       		.uleb128 0x4
 8833 16cb 91       		.byte	0x91
 8834 16cc 907F     		.sleb128 -112
 8835 16ce 06       		.byte	0x6
 8836 16cf 00       		.byte	0
 8837 16d0 00       		.byte	0
 8838 16d1 00       		.byte	0
 8839 16d2 00       		.byte	0
 8840 16d3 27       		.uleb128 0x27
 8841 16d4 C0030000 		.4byte	.Ldebug_ranges0+0x3c0
 8842 16d8 64170000 		.4byte	0x1764
 8843 16dc 26       		.uleb128 0x26
 8844 16dd E6040000 		.4byte	0x4e6
 8845 16e1 11300000 		.4byte	.LLST184
 8846 16e5 35       		.uleb128 0x35
 8847 16e6 ED070000 		.4byte	0x7ed
 8848 16ea 92030000 		.4byte	.LBB272
 8849 16ee 64000000 		.4byte	.LBE272-.LBB272
 8850 16f2 01       		.byte	0x1
 8851 16f3 C702     		.2byte	0x2c7
 8852 16f5 24       		.uleb128 0x24
 8853 16f6 6A080000 		.4byte	0x86a
 8854 16fa 24300000 		.4byte	.LLST185
 8855 16fe 30       		.uleb128 0x30
 8856 16ff 5E080000 		.4byte	0x85e
 8857 1703 30       		.uleb128 0x30
 8858 1704 52080000 		.4byte	0x852
 8859 1708 24       		.uleb128 0x24
 8860 1709 46080000 		.4byte	0x846
 8861 170d 37300000 		.4byte	.LLST186
 8862 1711 24       		.uleb128 0x24
 8863 1712 3A080000 		.4byte	0x83a
 8864 1716 4A300000 		.4byte	.LLST187
 8865 171a 24       		.uleb128 0x24
 8866 171b 2E080000 		.4byte	0x82e
 8867 171f 5D300000 		.4byte	.LLST188
 8868 1723 30       		.uleb128 0x30
 8869 1724 22080000 		.4byte	0x822
 8870 1728 30       		.uleb128 0x30
 8871 1729 16080000 		.4byte	0x816
 8872 172d 30       		.uleb128 0x30
 8873 172e 0A080000 		.4byte	0x80a
 8874 1732 30       		.uleb128 0x30
 8875 1733 FE070000 		.4byte	0x7fe
 8876 1737 36       		.uleb128 0x36
 8877 1738 92030000 		.4byte	.LBB273
 8878 173c 64000000 		.4byte	.LBE273-.LBB273
 8879 1740 2E       		.uleb128 0x2e
 8880 1741 76080000 		.4byte	0x876
 8881 1745 03       		.uleb128 0x3
 8882 1746 91       		.byte	0x91
 8883 1747 B87F     		.sleb128 -72
 8884 1749 26       		.uleb128 0x26
 8885 174a 82080000 		.4byte	0x882
ARM GAS  C:\Users\pearlstl\AppData\Local\Temp\ccbpFzqf.s 			page 185


 8886 174e A7300000 		.4byte	.LLST189
 8887 1752 25       		.uleb128 0x25
 8888 1753 D8030000 		.4byte	.Ldebug_ranges0+0x3d8
 8889 1757 26       		.uleb128 0x26
 8890 1758 8F080000 		.4byte	0x88f
 8891 175c C6300000 		.4byte	.LLST190
 8892 1760 00       		.byte	0
 8893 1761 00       		.byte	0
 8894 1762 00       		.byte	0
 8895 1763 00       		.byte	0
 8896 1764 27       		.uleb128 0x27
 8897 1765 F0030000 		.4byte	.Ldebug_ranges0+0x3f0
 8898 1769 1D180000 		.4byte	0x181d
 8899 176d 26       		.uleb128 0x26
 8900 176e F4040000 		.4byte	0x4f4
 8901 1772 E4300000 		.4byte	.LLST191
 8902 1776 33       		.uleb128 0x33
 8903 1777 ED070000 		.4byte	0x7ed
 8904 177b B2060000 		.4byte	.LBB277
 8905 177f 10040000 		.4byte	.Ldebug_ranges0+0x410
 8906 1783 01       		.byte	0x1
 8907 1784 D602     		.2byte	0x2d6
 8908 1786 24       		.uleb128 0x24
 8909 1787 6A080000 		.4byte	0x86a
 8910 178b 02310000 		.4byte	.LLST192
 8911 178f 30       		.uleb128 0x30
 8912 1790 5E080000 		.4byte	0x85e
 8913 1794 30       		.uleb128 0x30
 8914 1795 52080000 		.4byte	0x852
 8915 1799 24       		.uleb128 0x24
 8916 179a 46080000 		.4byte	0x846
 8917 179e 2F310000 		.4byte	.LLST193
 8918 17a2 24       		.uleb128 0x24
 8919 17a3 3A080000 		.4byte	0x83a
 8920 17a7 4D310000 		.4byte	.LLST194
 8921 17ab 24       		.uleb128 0x24
 8922 17ac 2E080000 		.4byte	0x82e
 8923 17b0 6D310000 		.4byte	.LLST195
 8924 17b4 30       		.uleb128 0x30
 8925 17b5 22080000 		.4byte	0x822
 8926 17b9 30       		.uleb128 0x30
 8927 17ba 16080000 		.4byte	0x816
 8928 17be 30       		.uleb128 0x30
 8929 17bf 0A080000 		.4byte	0x80a
 8930 17c3 30       		.uleb128 0x30
 8931 17c4 FE070000 		.4byte	0x7fe
 8932 17c8 25       		.uleb128 0x25
 8933 17c9 10040000 		.4byte	.Ldebug_ranges0+0x410
 8934 17cd 2E       		.uleb128 0x2e
 8935 17ce 76080000 		.4byte	0x876
 8936 17d2 03       		.uleb128 0x3
 8937 17d3 91       		.byte	0x91
 8938 17d4 B87F     		.sleb128 -72
 8939 17d6 26       		.uleb128 0x26
 8940 17d7 82080000 		.4byte	0x882
 8941 17db A1310000 		.4byte	.LLST196
 8942 17df 27       		.uleb128 0x27
ARM GAS  C:\Users\pearlstl\AppData\Local\Temp\ccbpFzqf.s 			page 186


 8943 17e0 28040000 		.4byte	.Ldebug_ranges0+0x428
 8944 17e4 F2170000 		.4byte	0x17f2
 8945 17e8 26       		.uleb128 0x26
 8946 17e9 8F080000 		.4byte	0x88f
 8947 17ed CC310000 		.4byte	.LLST197
 8948 17f1 00       		.byte	0
 8949 17f2 2F       		.uleb128 0x2f
 8950 17f3 20070000 		.4byte	.LVL574
 8951 17f7 62060000 		.4byte	0x662
 8952 17fb 29       		.uleb128 0x29
 8953 17fc 01       		.uleb128 0x1
 8954 17fd 50       		.byte	0x50
 8955 17fe 04       		.uleb128 0x4
 8956 17ff 91       		.byte	0x91
 8957 1800 887F     		.sleb128 -120
 8958 1802 06       		.byte	0x6
 8959 1803 29       		.uleb128 0x29
 8960 1804 01       		.uleb128 0x1
 8961 1805 51       		.byte	0x51
 8962 1806 04       		.uleb128 0x4
 8963 1807 91       		.byte	0x91
 8964 1808 8C7F     		.sleb128 -116
 8965 180a 06       		.byte	0x6
 8966 180b 29       		.uleb128 0x29
 8967 180c 01       		.uleb128 0x1
 8968 180d 53       		.byte	0x53
 8969 180e 02       		.uleb128 0x2
 8970 180f 7B       		.byte	0x7b
 8971 1810 00       		.sleb128 0
 8972 1811 29       		.uleb128 0x29
 8973 1812 02       		.uleb128 0x2
 8974 1813 7D       		.byte	0x7d
 8975 1814 00       		.sleb128 0
 8976 1815 03       		.uleb128 0x3
 8977 1816 91       		.byte	0x91
 8978 1817 B87F     		.sleb128 -72
 8979 1819 00       		.byte	0
 8980 181a 00       		.byte	0
 8981 181b 00       		.byte	0
 8982 181c 00       		.byte	0
 8983 181d 2D       		.uleb128 0x2d
 8984 181e A2120000 		.4byte	0x12a2
 8985 1822 3A0B0000 		.4byte	.LBB283
 8986 1826 40040000 		.4byte	.Ldebug_ranges0+0x440
 8987 182a 01       		.byte	0x1
 8988 182b CE02     		.2byte	0x2ce
 8989 182d 97180000 		.4byte	0x1897
 8990 1831 24       		.uleb128 0x24
 8991 1832 1F130000 		.4byte	0x131f
 8992 1836 EA310000 		.4byte	.LLST198
 8993 183a 30       		.uleb128 0x30
 8994 183b 13130000 		.4byte	0x1313
 8995 183f 30       		.uleb128 0x30
 8996 1840 07130000 		.4byte	0x1307
 8997 1844 30       		.uleb128 0x30
 8998 1845 FB120000 		.4byte	0x12fb
 8999 1849 24       		.uleb128 0x24
ARM GAS  C:\Users\pearlstl\AppData\Local\Temp\ccbpFzqf.s 			page 187


 9000 184a EF120000 		.4byte	0x12ef
 9001 184e 08320000 		.4byte	.LLST199
 9002 1852 24       		.uleb128 0x24
 9003 1853 E3120000 		.4byte	0x12e3
 9004 1857 28320000 		.4byte	.LLST200
 9005 185b 30       		.uleb128 0x30
 9006 185c D7120000 		.4byte	0x12d7
 9007 1860 30       		.uleb128 0x30
 9008 1861 CB120000 		.4byte	0x12cb
 9009 1865 30       		.uleb128 0x30
 9010 1866 BF120000 		.4byte	0x12bf
 9011 186a 30       		.uleb128 0x30
 9012 186b B3120000 		.4byte	0x12b3
 9013 186f 25       		.uleb128 0x25
 9014 1870 40040000 		.4byte	.Ldebug_ranges0+0x440
 9015 1874 2E       		.uleb128 0x2e
 9016 1875 2B130000 		.4byte	0x132b
 9017 1879 03       		.uleb128 0x3
 9018 187a 91       		.byte	0x91
 9019 187b B87F     		.sleb128 -72
 9020 187d 26       		.uleb128 0x26
 9021 187e 37130000 		.4byte	0x1337
 9022 1882 70320000 		.4byte	.LLST201
 9023 1886 25       		.uleb128 0x25
 9024 1887 58040000 		.4byte	.Ldebug_ranges0+0x458
 9025 188b 26       		.uleb128 0x26
 9026 188c 44130000 		.4byte	0x1344
 9027 1890 A6320000 		.4byte	.LLST202
 9028 1894 00       		.byte	0
 9029 1895 00       		.byte	0
 9030 1896 00       		.byte	0
 9031 1897 27       		.uleb128 0x27
 9032 1898 78040000 		.4byte	.Ldebug_ranges0+0x478
 9033 189c 20190000 		.4byte	0x1920
 9034 18a0 26       		.uleb128 0x26
 9035 18a1 C2040000 		.4byte	0x4c2
 9036 18a5 D1320000 		.4byte	.LLST203
 9037 18a9 33       		.uleb128 0x33
 9038 18aa A2120000 		.4byte	0x12a2
 9039 18ae 120C0000 		.4byte	.LBB290
 9040 18b2 98040000 		.4byte	.Ldebug_ranges0+0x498
 9041 18b6 01       		.byte	0x1
 9042 18b7 BE02     		.2byte	0x2be
 9043 18b9 24       		.uleb128 0x24
 9044 18ba 1F130000 		.4byte	0x131f
 9045 18be 0C330000 		.4byte	.LLST204
 9046 18c2 30       		.uleb128 0x30
 9047 18c3 13130000 		.4byte	0x1313
 9048 18c7 30       		.uleb128 0x30
 9049 18c8 07130000 		.4byte	0x1307
 9050 18cc 30       		.uleb128 0x30
 9051 18cd FB120000 		.4byte	0x12fb
 9052 18d1 24       		.uleb128 0x24
 9053 18d2 EF120000 		.4byte	0x12ef
 9054 18d6 1F330000 		.4byte	.LLST205
 9055 18da 24       		.uleb128 0x24
 9056 18db E3120000 		.4byte	0x12e3
ARM GAS  C:\Users\pearlstl\AppData\Local\Temp\ccbpFzqf.s 			page 188


 9057 18df 41330000 		.4byte	.LLST206
 9058 18e3 30       		.uleb128 0x30
 9059 18e4 D7120000 		.4byte	0x12d7
 9060 18e8 30       		.uleb128 0x30
 9061 18e9 CB120000 		.4byte	0x12cb
 9062 18ed 30       		.uleb128 0x30
 9063 18ee BF120000 		.4byte	0x12bf
 9064 18f2 30       		.uleb128 0x30
 9065 18f3 B3120000 		.4byte	0x12b3
 9066 18f7 25       		.uleb128 0x25
 9067 18f8 98040000 		.4byte	.Ldebug_ranges0+0x498
 9068 18fc 2E       		.uleb128 0x2e
 9069 18fd 2B130000 		.4byte	0x132b
 9070 1901 03       		.uleb128 0x3
 9071 1902 91       		.byte	0x91
 9072 1903 B87F     		.sleb128 -72
 9073 1905 26       		.uleb128 0x26
 9074 1906 37130000 		.4byte	0x1337
 9075 190a 69330000 		.4byte	.LLST207
 9076 190e 25       		.uleb128 0x25
 9077 190f C0040000 		.4byte	.Ldebug_ranges0+0x4c0
 9078 1913 26       		.uleb128 0x26
 9079 1914 44130000 		.4byte	0x1344
 9080 1918 9F330000 		.4byte	.LLST208
 9081 191c 00       		.byte	0
 9082 191d 00       		.byte	0
 9083 191e 00       		.byte	0
 9084 191f 00       		.byte	0
 9085 1920 33       		.uleb128 0x33
 9086 1921 ED070000 		.4byte	0x7ed
 9087 1925 EE0C0000 		.4byte	.LBB303
 9088 1929 E0040000 		.4byte	.Ldebug_ranges0+0x4e0
 9089 192d 01       		.byte	0x1
 9090 192e D202     		.2byte	0x2d2
 9091 1930 24       		.uleb128 0x24
 9092 1931 6A080000 		.4byte	0x86a
 9093 1935 CA330000 		.4byte	.LLST209
 9094 1939 30       		.uleb128 0x30
 9095 193a 5E080000 		.4byte	0x85e
 9096 193e 30       		.uleb128 0x30
 9097 193f 52080000 		.4byte	0x852
 9098 1943 24       		.uleb128 0x24
 9099 1944 46080000 		.4byte	0x846
 9100 1948 DD330000 		.4byte	.LLST210
 9101 194c 24       		.uleb128 0x24
 9102 194d 3A080000 		.4byte	0x83a
 9103 1951 FB330000 		.4byte	.LLST211
 9104 1955 24       		.uleb128 0x24
 9105 1956 2E080000 		.4byte	0x82e
 9106 195a 1B340000 		.4byte	.LLST212
 9107 195e 30       		.uleb128 0x30
 9108 195f 22080000 		.4byte	0x822
 9109 1963 24       		.uleb128 0x24
 9110 1964 16080000 		.4byte	0x816
 9111 1968 65340000 		.4byte	.LLST213
 9112 196c 30       		.uleb128 0x30
 9113 196d 0A080000 		.4byte	0x80a
ARM GAS  C:\Users\pearlstl\AppData\Local\Temp\ccbpFzqf.s 			page 189


 9114 1971 30       		.uleb128 0x30
 9115 1972 FE070000 		.4byte	0x7fe
 9116 1976 25       		.uleb128 0x25
 9117 1977 E0040000 		.4byte	.Ldebug_ranges0+0x4e0
 9118 197b 2E       		.uleb128 0x2e
 9119 197c 76080000 		.4byte	0x876
 9120 1980 03       		.uleb128 0x3
 9121 1981 91       		.byte	0x91
 9122 1982 B87F     		.sleb128 -72
 9123 1984 26       		.uleb128 0x26
 9124 1985 82080000 		.4byte	0x882
 9125 1989 78340000 		.4byte	.LLST214
 9126 198d 27       		.uleb128 0x27
 9127 198e 00050000 		.4byte	.Ldebug_ranges0+0x500
 9128 1992 A0190000 		.4byte	0x19a0
 9129 1996 26       		.uleb128 0x26
 9130 1997 8F080000 		.4byte	0x88f
 9131 199b B0340000 		.4byte	.LLST215
 9132 199f 00       		.byte	0
 9133 19a0 2F       		.uleb128 0x2f
 9134 19a1 560D0000 		.4byte	.LVL744
 9135 19a5 62060000 		.4byte	0x662
 9136 19a9 29       		.uleb128 0x29
 9137 19aa 01       		.uleb128 0x1
 9138 19ab 50       		.byte	0x50
 9139 19ac 04       		.uleb128 0x4
 9140 19ad 91       		.byte	0x91
 9141 19ae 887F     		.sleb128 -120
 9142 19b0 06       		.byte	0x6
 9143 19b1 29       		.uleb128 0x29
 9144 19b2 01       		.uleb128 0x1
 9145 19b3 51       		.byte	0x51
 9146 19b4 04       		.uleb128 0x4
 9147 19b5 91       		.byte	0x91
 9148 19b6 8C7F     		.sleb128 -116
 9149 19b8 06       		.byte	0x6
 9150 19b9 29       		.uleb128 0x29
 9151 19ba 01       		.uleb128 0x1
 9152 19bb 52       		.byte	0x52
 9153 19bc 02       		.uleb128 0x2
 9154 19bd 7A       		.byte	0x7a
 9155 19be 00       		.sleb128 0
 9156 19bf 29       		.uleb128 0x29
 9157 19c0 01       		.uleb128 0x1
 9158 19c1 53       		.byte	0x53
 9159 19c2 02       		.uleb128 0x2
 9160 19c3 7B       		.byte	0x7b
 9161 19c4 00       		.sleb128 0
 9162 19c5 29       		.uleb128 0x29
 9163 19c6 02       		.uleb128 0x2
 9164 19c7 7D       		.byte	0x7d
 9165 19c8 00       		.sleb128 0
 9166 19c9 03       		.uleb128 0x3
 9167 19ca 91       		.byte	0x91
 9168 19cb B87F     		.sleb128 -72
 9169 19cd 29       		.uleb128 0x29
 9170 19ce 02       		.uleb128 0x2
ARM GAS  C:\Users\pearlstl\AppData\Local\Temp\ccbpFzqf.s 			page 190


 9171 19cf 7D       		.byte	0x7d
 9172 19d0 08       		.sleb128 8
 9173 19d1 01       		.uleb128 0x1
 9174 19d2 30       		.byte	0x30
 9175 19d3 29       		.uleb128 0x29
 9176 19d4 02       		.uleb128 0x2
 9177 19d5 7D       		.byte	0x7d
 9178 19d6 0C       		.sleb128 12
 9179 19d7 02       		.uleb128 0x2
 9180 19d8 77       		.byte	0x77
 9181 19d9 00       		.sleb128 0
 9182 19da 29       		.uleb128 0x29
 9183 19db 02       		.uleb128 0x2
 9184 19dc 7D       		.byte	0x7d
 9185 19dd 10       		.sleb128 16
 9186 19de 02       		.uleb128 0x2
 9187 19df 79       		.byte	0x79
 9188 19e0 00       		.sleb128 0
 9189 19e1 29       		.uleb128 0x29
 9190 19e2 02       		.uleb128 0x2
 9191 19e3 7D       		.byte	0x7d
 9192 19e4 14       		.sleb128 20
 9193 19e5 02       		.uleb128 0x2
 9194 19e6 78       		.byte	0x78
 9195 19e7 00       		.sleb128 0
 9196 19e8 29       		.uleb128 0x29
 9197 19e9 02       		.uleb128 0x2
 9198 19ea 7D       		.byte	0x7d
 9199 19eb 18       		.sleb128 24
 9200 19ec 04       		.uleb128 0x4
 9201 19ed 91       		.byte	0x91
 9202 19ee 907F     		.sleb128 -112
 9203 19f0 06       		.byte	0x6
 9204 19f1 00       		.byte	0
 9205 19f2 00       		.byte	0
 9206 19f3 00       		.byte	0
 9207 19f4 00       		.byte	0
 9208 19f5 2D       		.uleb128 0x2d
 9209 19f6 41020000 		.4byte	0x241
 9210 19fa 1C040000 		.4byte	.LBB317
 9211 19fe 18050000 		.4byte	.Ldebug_ranges0+0x518
 9212 1a02 01       		.byte	0x1
 9213 1a03 E002     		.2byte	0x2e0
 9214 1a05 791E0000 		.4byte	0x1e79
 9215 1a09 24       		.uleb128 0x24
 9216 1a0a A6020000 		.4byte	0x2a6
 9217 1a0e CE340000 		.4byte	.LLST216
 9218 1a12 24       		.uleb128 0x24
 9219 1a13 9A020000 		.4byte	0x29a
 9220 1a17 7D350000 		.4byte	.LLST217
 9221 1a1b 30       		.uleb128 0x30
 9222 1a1c 8E020000 		.4byte	0x28e
 9223 1a20 24       		.uleb128 0x24
 9224 1a21 82020000 		.4byte	0x282
 9225 1a25 92350000 		.4byte	.LLST218
 9226 1a29 30       		.uleb128 0x30
 9227 1a2a 76020000 		.4byte	0x276
ARM GAS  C:\Users\pearlstl\AppData\Local\Temp\ccbpFzqf.s 			page 191


 9228 1a2e 24       		.uleb128 0x24
 9229 1a2f 6A020000 		.4byte	0x26a
 9230 1a33 12360000 		.4byte	.LLST219
 9231 1a37 30       		.uleb128 0x30
 9232 1a38 5E020000 		.4byte	0x25e
 9233 1a3c 30       		.uleb128 0x30
 9234 1a3d 52020000 		.4byte	0x252
 9235 1a41 25       		.uleb128 0x25
 9236 1a42 18050000 		.4byte	.Ldebug_ranges0+0x518
 9237 1a46 2C       		.uleb128 0x2c
 9238 1a47 B2020000 		.4byte	0x2b2
 9239 1a4b 26       		.uleb128 0x26
 9240 1a4c BE020000 		.4byte	0x2be
 9241 1a50 46360000 		.4byte	.LLST220
 9242 1a54 26       		.uleb128 0x26
 9243 1a55 CA020000 		.4byte	0x2ca
 9244 1a59 DE360000 		.4byte	.LLST221
 9245 1a5d 2C       		.uleb128 0x2c
 9246 1a5e 33030000 		.4byte	0x333
 9247 1a62 2C       		.uleb128 0x2c
 9248 1a63 3F030000 		.4byte	0x33f
 9249 1a67 2C       		.uleb128 0x2c
 9250 1a68 4B030000 		.4byte	0x34b
 9251 1a6c 2C       		.uleb128 0x2c
 9252 1a6d 57030000 		.4byte	0x357
 9253 1a71 2E       		.uleb128 0x2e
 9254 1a72 D6020000 		.4byte	0x2d6
 9255 1a76 05       		.uleb128 0x5
 9256 1a77 03       		.byte	0x3
 9257 1a78 00000000 		.4byte	pow10.4373
 9258 1a7c 27       		.uleb128 0x27
 9259 1a7d 90050000 		.4byte	.Ldebug_ranges0+0x590
 9260 1a81 F11C0000 		.4byte	0x1cf1
 9261 1a85 24       		.uleb128 0x24
 9262 1a86 A6020000 		.4byte	0x2a6
 9263 1a8a D6370000 		.4byte	.LLST222
 9264 1a8e 24       		.uleb128 0x24
 9265 1a8f 9A020000 		.4byte	0x29a
 9266 1a93 7D350000 		.4byte	.LLST217
 9267 1a97 24       		.uleb128 0x24
 9268 1a98 8E020000 		.4byte	0x28e
 9269 1a9c 59380000 		.4byte	.LLST224
 9270 1aa0 24       		.uleb128 0x24
 9271 1aa1 82020000 		.4byte	0x282
 9272 1aa5 77380000 		.4byte	.LLST225
 9273 1aa9 30       		.uleb128 0x30
 9274 1aaa 76020000 		.4byte	0x276
 9275 1aae 24       		.uleb128 0x24
 9276 1aaf 6A020000 		.4byte	0x26a
 9277 1ab3 EA380000 		.4byte	.LLST226
 9278 1ab7 30       		.uleb128 0x30
 9279 1ab8 5E020000 		.4byte	0x25e
 9280 1abc 30       		.uleb128 0x30
 9281 1abd 52020000 		.4byte	0x252
 9282 1ac1 25       		.uleb128 0x25
 9283 1ac2 90050000 		.4byte	.Ldebug_ranges0+0x590
 9284 1ac6 2E       		.uleb128 0x2e
ARM GAS  C:\Users\pearlstl\AppData\Local\Temp\ccbpFzqf.s 			page 192


 9285 1ac7 B2020000 		.4byte	0x2b2
 9286 1acb 03       		.uleb128 0x3
 9287 1acc 91       		.byte	0x91
 9288 1acd B87F     		.sleb128 -72
 9289 1acf 26       		.uleb128 0x26
 9290 1ad0 BE020000 		.4byte	0x2be
 9291 1ad4 08390000 		.4byte	.LLST227
 9292 1ad8 26       		.uleb128 0x26
 9293 1ad9 CA020000 		.4byte	0x2ca
 9294 1add EA390000 		.4byte	.LLST228
 9295 1ae1 26       		.uleb128 0x26
 9296 1ae2 33030000 		.4byte	0x333
 9297 1ae6 633A0000 		.4byte	.LLST229
 9298 1aea 26       		.uleb128 0x26
 9299 1aeb 3F030000 		.4byte	0x33f
 9300 1aef DE3A0000 		.4byte	.LLST230
 9301 1af3 26       		.uleb128 0x26
 9302 1af4 4B030000 		.4byte	0x34b
 9303 1af8 6B3B0000 		.4byte	.LLST231
 9304 1afc 26       		.uleb128 0x26
 9305 1afd 57030000 		.4byte	0x357
 9306 1b01 803B0000 		.4byte	.LLST232
 9307 1b05 2E       		.uleb128 0x2e
 9308 1b06 D6020000 		.4byte	0x2d6
 9309 1b0a 05       		.uleb128 0x5
 9310 1b0b 03       		.byte	0x3
 9311 1b0c 00000000 		.4byte	pow10.4373
 9312 1b10 2D       		.uleb128 0x2d
 9313 1b11 E3050000 		.4byte	0x5e3
 9314 1b15 7E040000 		.4byte	.LBB321
 9315 1b19 E8050000 		.4byte	.Ldebug_ranges0+0x5e8
 9316 1b1d 01       		.byte	0x1
 9317 1b1e 4901     		.2byte	0x149
 9318 1b20 D31B0000 		.4byte	0x1bd3
 9319 1b24 24       		.uleb128 0x24
 9320 1b25 40060000 		.4byte	0x640
 9321 1b29 0A3C0000 		.4byte	.LLST233
 9322 1b2d 30       		.uleb128 0x30
 9323 1b2e 35060000 		.4byte	0x635
 9324 1b32 24       		.uleb128 0x24
 9325 1b33 2A060000 		.4byte	0x62a
 9326 1b37 283C0000 		.4byte	.LLST234
 9327 1b3b 30       		.uleb128 0x30
 9328 1b3c 1F060000 		.4byte	0x61f
 9329 1b40 30       		.uleb128 0x30
 9330 1b41 14060000 		.4byte	0x614
 9331 1b45 24       		.uleb128 0x24
 9332 1b46 09060000 		.4byte	0x609
 9333 1b4a 6B3C0000 		.4byte	.LLST235
 9334 1b4e 30       		.uleb128 0x30
 9335 1b4f FE050000 		.4byte	0x5fe
 9336 1b53 30       		.uleb128 0x30
 9337 1b54 F3050000 		.4byte	0x5f3
 9338 1b58 25       		.uleb128 0x25
 9339 1b59 E8050000 		.4byte	.Ldebug_ranges0+0x5e8
 9340 1b5d 26       		.uleb128 0x26
 9341 1b5e 4B060000 		.4byte	0x64b
ARM GAS  C:\Users\pearlstl\AppData\Local\Temp\ccbpFzqf.s 			page 193


 9342 1b62 D63C0000 		.4byte	.LLST236
 9343 1b66 27       		.uleb128 0x27
 9344 1b67 08060000 		.4byte	.Ldebug_ranges0+0x608
 9345 1b6b 971B0000 		.4byte	0x1b97
 9346 1b6f 26       		.uleb128 0x26
 9347 1b70 57060000 		.4byte	0x657
 9348 1b74 E93C0000 		.4byte	.LLST237
 9349 1b78 28       		.uleb128 0x28
 9350 1b79 AC040000 		.4byte	.LVL493
 9351 1b7d 29       		.uleb128 0x29
 9352 1b7e 01       		.uleb128 0x1
 9353 1b7f 50       		.byte	0x50
 9354 1b80 02       		.uleb128 0x2
 9355 1b81 08       		.byte	0x8
 9356 1b82 20       		.byte	0x20
 9357 1b83 29       		.uleb128 0x29
 9358 1b84 01       		.uleb128 0x1
 9359 1b85 51       		.byte	0x51
 9360 1b86 02       		.uleb128 0x2
 9361 1b87 7A       		.byte	0x7a
 9362 1b88 00       		.sleb128 0
 9363 1b89 29       		.uleb128 0x29
 9364 1b8a 01       		.uleb128 0x1
 9365 1b8b 52       		.byte	0x52
 9366 1b8c 02       		.uleb128 0x2
 9367 1b8d 74       		.byte	0x74
 9368 1b8e 7F       		.sleb128 -1
 9369 1b8f 29       		.uleb128 0x29
 9370 1b90 01       		.uleb128 0x1
 9371 1b91 53       		.byte	0x53
 9372 1b92 02       		.uleb128 0x2
 9373 1b93 7B       		.byte	0x7b
 9374 1b94 00       		.sleb128 0
 9375 1b95 00       		.byte	0
 9376 1b96 00       		.byte	0
 9377 1b97 2A       		.uleb128 0x2a
 9378 1b98 52070000 		.4byte	.LVL582
 9379 1b9c B31B0000 		.4byte	0x1bb3
 9380 1ba0 29       		.uleb128 0x29
 9381 1ba1 01       		.uleb128 0x1
 9382 1ba2 51       		.byte	0x51
 9383 1ba3 02       		.uleb128 0x2
 9384 1ba4 7A       		.byte	0x7a
 9385 1ba5 00       		.sleb128 0
 9386 1ba6 29       		.uleb128 0x29
 9387 1ba7 01       		.uleb128 0x1
 9388 1ba8 52       		.byte	0x52
 9389 1ba9 02       		.uleb128 0x2
 9390 1baa 76       		.byte	0x76
 9391 1bab 7F       		.sleb128 -1
 9392 1bac 29       		.uleb128 0x29
 9393 1bad 01       		.uleb128 0x1
 9394 1bae 53       		.byte	0x53
 9395 1baf 02       		.uleb128 0x2
 9396 1bb0 7B       		.byte	0x7b
 9397 1bb1 00       		.sleb128 0
 9398 1bb2 00       		.byte	0
ARM GAS  C:\Users\pearlstl\AppData\Local\Temp\ccbpFzqf.s 			page 194


 9399 1bb3 28       		.uleb128 0x28
 9400 1bb4 7E070000 		.4byte	.LVL588
 9401 1bb8 29       		.uleb128 0x29
 9402 1bb9 01       		.uleb128 0x1
 9403 1bba 50       		.byte	0x50
 9404 1bbb 02       		.uleb128 0x2
 9405 1bbc 08       		.byte	0x8
 9406 1bbd 20       		.byte	0x20
 9407 1bbe 29       		.uleb128 0x29
 9408 1bbf 01       		.uleb128 0x1
 9409 1bc0 51       		.byte	0x51
 9410 1bc1 02       		.uleb128 0x2
 9411 1bc2 76       		.byte	0x76
 9412 1bc3 00       		.sleb128 0
 9413 1bc4 29       		.uleb128 0x29
 9414 1bc5 01       		.uleb128 0x1
 9415 1bc6 52       		.byte	0x52
 9416 1bc7 02       		.uleb128 0x2
 9417 1bc8 77       		.byte	0x77
 9418 1bc9 7F       		.sleb128 -1
 9419 1bca 29       		.uleb128 0x29
 9420 1bcb 01       		.uleb128 0x1
 9421 1bcc 53       		.byte	0x53
 9422 1bcd 02       		.uleb128 0x2
 9423 1bce 7B       		.byte	0x7b
 9424 1bcf 00       		.sleb128 0
 9425 1bd0 00       		.byte	0
 9426 1bd1 00       		.byte	0
 9427 1bd2 00       		.byte	0
 9428 1bd3 2D       		.uleb128 0x2d
 9429 1bd4 E3050000 		.4byte	0x5e3
 9430 1bd8 AC090000 		.4byte	.LBB329
 9431 1bdc 20060000 		.4byte	.Ldebug_ranges0+0x620
 9432 1be0 01       		.byte	0x1
 9433 1be1 B401     		.2byte	0x1b4
 9434 1be3 961C0000 		.4byte	0x1c96
 9435 1be7 24       		.uleb128 0x24
 9436 1be8 40060000 		.4byte	0x640
 9437 1bec 073D0000 		.4byte	.LLST238
 9438 1bf0 30       		.uleb128 0x30
 9439 1bf1 35060000 		.4byte	0x635
 9440 1bf5 24       		.uleb128 0x24
 9441 1bf6 2A060000 		.4byte	0x62a
 9442 1bfa 3B3D0000 		.4byte	.LLST239
 9443 1bfe 24       		.uleb128 0x24
 9444 1bff 1F060000 		.4byte	0x61f
 9445 1c03 7E3D0000 		.4byte	.LLST240
 9446 1c07 30       		.uleb128 0x30
 9447 1c08 14060000 		.4byte	0x614
 9448 1c0c 24       		.uleb128 0x24
 9449 1c0d 09060000 		.4byte	0x609
 9450 1c11 C93D0000 		.4byte	.LLST241
 9451 1c15 30       		.uleb128 0x30
 9452 1c16 FE050000 		.4byte	0x5fe
 9453 1c1a 30       		.uleb128 0x30
 9454 1c1b F3050000 		.4byte	0x5f3
 9455 1c1f 25       		.uleb128 0x25
ARM GAS  C:\Users\pearlstl\AppData\Local\Temp\ccbpFzqf.s 			page 195


 9456 1c20 20060000 		.4byte	.Ldebug_ranges0+0x620
 9457 1c24 2C       		.uleb128 0x2c
 9458 1c25 4B060000 		.4byte	0x64b
 9459 1c29 27       		.uleb128 0x27
 9460 1c2a 50060000 		.4byte	.Ldebug_ranges0+0x650
 9461 1c2e 5A1C0000 		.4byte	0x1c5a
 9462 1c32 26       		.uleb128 0x26
 9463 1c33 57060000 		.4byte	0x657
 9464 1c37 3F3E0000 		.4byte	.LLST242
 9465 1c3b 28       		.uleb128 0x28
 9466 1c3c 7C0E0000 		.4byte	.LVL773
 9467 1c40 29       		.uleb128 0x29
 9468 1c41 01       		.uleb128 0x1
 9469 1c42 50       		.byte	0x50
 9470 1c43 02       		.uleb128 0x2
 9471 1c44 08       		.byte	0x8
 9472 1c45 20       		.byte	0x20
 9473 1c46 29       		.uleb128 0x29
 9474 1c47 01       		.uleb128 0x1
 9475 1c48 51       		.byte	0x51
 9476 1c49 02       		.uleb128 0x2
 9477 1c4a 7A       		.byte	0x7a
 9478 1c4b 00       		.sleb128 0
 9479 1c4c 29       		.uleb128 0x29
 9480 1c4d 01       		.uleb128 0x1
 9481 1c4e 52       		.byte	0x52
 9482 1c4f 02       		.uleb128 0x2
 9483 1c50 74       		.byte	0x74
 9484 1c51 7F       		.sleb128 -1
 9485 1c52 29       		.uleb128 0x29
 9486 1c53 01       		.uleb128 0x1
 9487 1c54 53       		.byte	0x53
 9488 1c55 02       		.uleb128 0x2
 9489 1c56 7B       		.byte	0x7b
 9490 1c57 00       		.sleb128 0
 9491 1c58 00       		.byte	0
 9492 1c59 00       		.byte	0
 9493 1c5a 2A       		.uleb128 0x2a
 9494 1c5b EC090000 		.4byte	.LVL661
 9495 1c5f 761C0000 		.4byte	0x1c76
 9496 1c63 29       		.uleb128 0x29
 9497 1c64 01       		.uleb128 0x1
 9498 1c65 51       		.byte	0x51
 9499 1c66 02       		.uleb128 0x2
 9500 1c67 7A       		.byte	0x7a
 9501 1c68 00       		.sleb128 0
 9502 1c69 29       		.uleb128 0x29
 9503 1c6a 01       		.uleb128 0x1
 9504 1c6b 52       		.byte	0x52
 9505 1c6c 02       		.uleb128 0x2
 9506 1c6d 76       		.byte	0x76
 9507 1c6e 7F       		.sleb128 -1
 9508 1c6f 29       		.uleb128 0x29
 9509 1c70 01       		.uleb128 0x1
 9510 1c71 53       		.byte	0x53
 9511 1c72 02       		.uleb128 0x2
 9512 1c73 7B       		.byte	0x7b
ARM GAS  C:\Users\pearlstl\AppData\Local\Temp\ccbpFzqf.s 			page 196


 9513 1c74 00       		.sleb128 0
 9514 1c75 00       		.byte	0
 9515 1c76 28       		.uleb128 0x28
 9516 1c77 1A0A0000 		.4byte	.LVL669
 9517 1c7b 29       		.uleb128 0x29
 9518 1c7c 01       		.uleb128 0x1
 9519 1c7d 50       		.byte	0x50
 9520 1c7e 02       		.uleb128 0x2
 9521 1c7f 08       		.byte	0x8
 9522 1c80 20       		.byte	0x20
 9523 1c81 29       		.uleb128 0x29
 9524 1c82 01       		.uleb128 0x1
 9525 1c83 51       		.byte	0x51
 9526 1c84 02       		.uleb128 0x2
 9527 1c85 77       		.byte	0x77
 9528 1c86 00       		.sleb128 0
 9529 1c87 29       		.uleb128 0x29
 9530 1c88 01       		.uleb128 0x1
 9531 1c89 52       		.byte	0x52
 9532 1c8a 02       		.uleb128 0x2
 9533 1c8b 76       		.byte	0x76
 9534 1c8c 7F       		.sleb128 -1
 9535 1c8d 29       		.uleb128 0x29
 9536 1c8e 01       		.uleb128 0x1
 9537 1c8f 53       		.byte	0x53
 9538 1c90 02       		.uleb128 0x2
 9539 1c91 7B       		.byte	0x7b
 9540 1c92 00       		.sleb128 0
 9541 1c93 00       		.byte	0
 9542 1c94 00       		.byte	0
 9543 1c95 00       		.byte	0
 9544 1c96 27       		.uleb128 0x27
 9545 1c97 68060000 		.4byte	.Ldebug_ranges0+0x668
 9546 1c9b A91C0000 		.4byte	0x1ca9
 9547 1c9f 26       		.uleb128 0x26
 9548 1ca0 64030000 		.4byte	0x364
 9549 1ca4 523E0000 		.4byte	.LLST243
 9550 1ca8 00       		.byte	0
 9551 1ca9 2F       		.uleb128 0x2f
 9552 1caa 1A0B0000 		.4byte	.LVL694
 9553 1cae 33010000 		.4byte	0x133
 9554 1cb2 29       		.uleb128 0x29
 9555 1cb3 01       		.uleb128 0x1
 9556 1cb4 50       		.byte	0x50
 9557 1cb5 04       		.uleb128 0x4
 9558 1cb6 91       		.byte	0x91
 9559 1cb7 887F     		.sleb128 -120
 9560 1cb9 06       		.byte	0x6
 9561 1cba 29       		.uleb128 0x29
 9562 1cbb 01       		.uleb128 0x1
 9563 1cbc 51       		.byte	0x51
 9564 1cbd 04       		.uleb128 0x4
 9565 1cbe 91       		.byte	0x91
 9566 1cbf 8C7F     		.sleb128 -116
 9567 1cc1 06       		.byte	0x6
 9568 1cc2 29       		.uleb128 0x29
 9569 1cc3 01       		.uleb128 0x1
ARM GAS  C:\Users\pearlstl\AppData\Local\Temp\ccbpFzqf.s 			page 197


 9570 1cc4 52       		.byte	0x52
 9571 1cc5 02       		.uleb128 0x2
 9572 1cc6 7A       		.byte	0x7a
 9573 1cc7 00       		.sleb128 0
 9574 1cc8 29       		.uleb128 0x29
 9575 1cc9 01       		.uleb128 0x1
 9576 1cca 53       		.byte	0x53
 9577 1ccb 02       		.uleb128 0x2
 9578 1ccc 7B       		.byte	0x7b
 9579 1ccd 00       		.sleb128 0
 9580 1cce 29       		.uleb128 0x29
 9581 1ccf 02       		.uleb128 0x2
 9582 1cd0 7D       		.byte	0x7d
 9583 1cd1 00       		.sleb128 0
 9584 1cd2 06       		.uleb128 0x6
 9585 1cd3 91       		.byte	0x91
 9586 1cd4 907F     		.sleb128 -112
 9587 1cd6 F6       		.byte	0xf6
 9588 1cd7 08       		.byte	0x8
 9589 1cd8 25       		.uleb128 0x25
 9590 1cd9 29       		.uleb128 0x29
 9591 1cda 02       		.uleb128 0x2
 9592 1cdb 7D       		.byte	0x7d
 9593 1cdc 08       		.sleb128 8
 9594 1cdd 02       		.uleb128 0x2
 9595 1cde 79       		.byte	0x79
 9596 1cdf 00       		.sleb128 0
 9597 1ce0 29       		.uleb128 0x29
 9598 1ce1 02       		.uleb128 0x2
 9599 1ce2 7D       		.byte	0x7d
 9600 1ce3 0C       		.sleb128 12
 9601 1ce4 02       		.uleb128 0x2
 9602 1ce5 78       		.byte	0x78
 9603 1ce6 00       		.sleb128 0
 9604 1ce7 29       		.uleb128 0x29
 9605 1ce8 02       		.uleb128 0x2
 9606 1ce9 7D       		.byte	0x7d
 9607 1cea 10       		.sleb128 16
 9608 1ceb 02       		.uleb128 0x2
 9609 1cec 75       		.byte	0x75
 9610 1ced 00       		.sleb128 0
 9611 1cee 00       		.byte	0
 9612 1cef 00       		.byte	0
 9613 1cf0 00       		.byte	0
 9614 1cf1 2D       		.uleb128 0x2d
 9615 1cf2 E3050000 		.4byte	0x5e3
 9616 1cf6 8A070000 		.4byte	.LBB353
 9617 1cfa 80060000 		.4byte	.Ldebug_ranges0+0x680
 9618 1cfe 01       		.byte	0x1
 9619 1cff 4701     		.2byte	0x147
 9620 1d01 B41D0000 		.4byte	0x1db4
 9621 1d05 24       		.uleb128 0x24
 9622 1d06 40060000 		.4byte	0x640
 9623 1d0a AF3E0000 		.4byte	.LLST244
 9624 1d0e 30       		.uleb128 0x30
 9625 1d0f 35060000 		.4byte	0x635
 9626 1d13 24       		.uleb128 0x24
ARM GAS  C:\Users\pearlstl\AppData\Local\Temp\ccbpFzqf.s 			page 198


 9627 1d14 2A060000 		.4byte	0x62a
 9628 1d18 CD3E0000 		.4byte	.LLST245
 9629 1d1c 24       		.uleb128 0x24
 9630 1d1d 1F060000 		.4byte	0x61f
 9631 1d21 143F0000 		.4byte	.LLST246
 9632 1d25 30       		.uleb128 0x30
 9633 1d26 14060000 		.4byte	0x614
 9634 1d2a 24       		.uleb128 0x24
 9635 1d2b 09060000 		.4byte	0x609
 9636 1d2f 3C3F0000 		.4byte	.LLST247
 9637 1d33 30       		.uleb128 0x30
 9638 1d34 FE050000 		.4byte	0x5fe
 9639 1d38 30       		.uleb128 0x30
 9640 1d39 F3050000 		.4byte	0x5f3
 9641 1d3d 25       		.uleb128 0x25
 9642 1d3e 80060000 		.4byte	.Ldebug_ranges0+0x680
 9643 1d42 2C       		.uleb128 0x2c
 9644 1d43 4B060000 		.4byte	0x64b
 9645 1d47 27       		.uleb128 0x27
 9646 1d48 A0060000 		.4byte	.Ldebug_ranges0+0x6a0
 9647 1d4c 781D0000 		.4byte	0x1d78
 9648 1d50 26       		.uleb128 0x26
 9649 1d51 57060000 		.4byte	0x657
 9650 1d55 933F0000 		.4byte	.LLST248
 9651 1d59 28       		.uleb128 0x28
 9652 1d5a B6070000 		.4byte	.LVL595
 9653 1d5e 29       		.uleb128 0x29
 9654 1d5f 01       		.uleb128 0x1
 9655 1d60 50       		.byte	0x50
 9656 1d61 02       		.uleb128 0x2
 9657 1d62 08       		.byte	0x8
 9658 1d63 20       		.byte	0x20
 9659 1d64 29       		.uleb128 0x29
 9660 1d65 01       		.uleb128 0x1
 9661 1d66 51       		.byte	0x51
 9662 1d67 02       		.uleb128 0x2
 9663 1d68 7A       		.byte	0x7a
 9664 1d69 00       		.sleb128 0
 9665 1d6a 29       		.uleb128 0x29
 9666 1d6b 01       		.uleb128 0x1
 9667 1d6c 52       		.byte	0x52
 9668 1d6d 02       		.uleb128 0x2
 9669 1d6e 76       		.byte	0x76
 9670 1d6f 7F       		.sleb128 -1
 9671 1d70 29       		.uleb128 0x29
 9672 1d71 01       		.uleb128 0x1
 9673 1d72 53       		.byte	0x53
 9674 1d73 02       		.uleb128 0x2
 9675 1d74 7B       		.byte	0x7b
 9676 1d75 00       		.sleb128 0
 9677 1d76 00       		.byte	0
 9678 1d77 00       		.byte	0
 9679 1d78 2A       		.uleb128 0x2a
 9680 1d79 EC070000 		.4byte	.LVL604
 9681 1d7d 941D0000 		.4byte	0x1d94
 9682 1d81 29       		.uleb128 0x29
 9683 1d82 01       		.uleb128 0x1
ARM GAS  C:\Users\pearlstl\AppData\Local\Temp\ccbpFzqf.s 			page 199


 9684 1d83 51       		.byte	0x51
 9685 1d84 02       		.uleb128 0x2
 9686 1d85 7A       		.byte	0x7a
 9687 1d86 00       		.sleb128 0
 9688 1d87 29       		.uleb128 0x29
 9689 1d88 01       		.uleb128 0x1
 9690 1d89 52       		.byte	0x52
 9691 1d8a 02       		.uleb128 0x2
 9692 1d8b 74       		.byte	0x74
 9693 1d8c 7F       		.sleb128 -1
 9694 1d8d 29       		.uleb128 0x29
 9695 1d8e 01       		.uleb128 0x1
 9696 1d8f 53       		.byte	0x53
 9697 1d90 02       		.uleb128 0x2
 9698 1d91 7B       		.byte	0x7b
 9699 1d92 00       		.sleb128 0
 9700 1d93 00       		.byte	0
 9701 1d94 28       		.uleb128 0x28
 9702 1d95 18080000 		.4byte	.LVL610
 9703 1d99 29       		.uleb128 0x29
 9704 1d9a 01       		.uleb128 0x1
 9705 1d9b 50       		.byte	0x50
 9706 1d9c 02       		.uleb128 0x2
 9707 1d9d 08       		.byte	0x8
 9708 1d9e 20       		.byte	0x20
 9709 1d9f 29       		.uleb128 0x29
 9710 1da0 01       		.uleb128 0x1
 9711 1da1 51       		.byte	0x51
 9712 1da2 02       		.uleb128 0x2
 9713 1da3 76       		.byte	0x76
 9714 1da4 00       		.sleb128 0
 9715 1da5 29       		.uleb128 0x29
 9716 1da6 01       		.uleb128 0x1
 9717 1da7 52       		.byte	0x52
 9718 1da8 02       		.uleb128 0x2
 9719 1da9 77       		.byte	0x77
 9720 1daa 7F       		.sleb128 -1
 9721 1dab 29       		.uleb128 0x29
 9722 1dac 01       		.uleb128 0x1
 9723 1dad 53       		.byte	0x53
 9724 1dae 02       		.uleb128 0x2
 9725 1daf 7B       		.byte	0x7b
 9726 1db0 00       		.sleb128 0
 9727 1db1 00       		.byte	0
 9728 1db2 00       		.byte	0
 9729 1db3 00       		.byte	0
 9730 1db4 33       		.uleb128 0x33
 9731 1db5 E3050000 		.4byte	0x5e3
 9732 1db9 640A0000 		.4byte	.LBB361
 9733 1dbd B8060000 		.4byte	.Ldebug_ranges0+0x6b8
 9734 1dc1 01       		.byte	0x1
 9735 1dc2 4501     		.2byte	0x145
 9736 1dc4 24       		.uleb128 0x24
 9737 1dc5 40060000 		.4byte	0x640
 9738 1dc9 A73F0000 		.4byte	.LLST249
 9739 1dcd 30       		.uleb128 0x30
 9740 1dce 35060000 		.4byte	0x635
ARM GAS  C:\Users\pearlstl\AppData\Local\Temp\ccbpFzqf.s 			page 200


 9741 1dd2 24       		.uleb128 0x24
 9742 1dd3 2A060000 		.4byte	0x62a
 9743 1dd7 C53F0000 		.4byte	.LLST250
 9744 1ddb 24       		.uleb128 0x24
 9745 1ddc 1F060000 		.4byte	0x61f
 9746 1de0 0C400000 		.4byte	.LLST251
 9747 1de4 30       		.uleb128 0x30
 9748 1de5 14060000 		.4byte	0x614
 9749 1de9 24       		.uleb128 0x24
 9750 1dea 09060000 		.4byte	0x609
 9751 1dee 34400000 		.4byte	.LLST252
 9752 1df2 30       		.uleb128 0x30
 9753 1df3 FE050000 		.4byte	0x5fe
 9754 1df7 30       		.uleb128 0x30
 9755 1df8 F3050000 		.4byte	0x5f3
 9756 1dfc 25       		.uleb128 0x25
 9757 1dfd B8060000 		.4byte	.Ldebug_ranges0+0x6b8
 9758 1e01 26       		.uleb128 0x26
 9759 1e02 4B060000 		.4byte	0x64b
 9760 1e06 8B400000 		.4byte	.LLST253
 9761 1e0a 27       		.uleb128 0x27
 9762 1e0b D0060000 		.4byte	.Ldebug_ranges0+0x6d0
 9763 1e0f 3B1E0000 		.4byte	0x1e3b
 9764 1e13 26       		.uleb128 0x26
 9765 1e14 57060000 		.4byte	0x657
 9766 1e18 9E400000 		.4byte	.LLST254
 9767 1e1c 28       		.uleb128 0x28
 9768 1e1d 940A0000 		.4byte	.LVL679
 9769 1e21 29       		.uleb128 0x29
 9770 1e22 01       		.uleb128 0x1
 9771 1e23 50       		.byte	0x50
 9772 1e24 02       		.uleb128 0x2
 9773 1e25 08       		.byte	0x8
 9774 1e26 20       		.byte	0x20
 9775 1e27 29       		.uleb128 0x29
 9776 1e28 01       		.uleb128 0x1
 9777 1e29 51       		.byte	0x51
 9778 1e2a 02       		.uleb128 0x2
 9779 1e2b 7A       		.byte	0x7a
 9780 1e2c 00       		.sleb128 0
 9781 1e2d 29       		.uleb128 0x29
 9782 1e2e 01       		.uleb128 0x1
 9783 1e2f 52       		.byte	0x52
 9784 1e30 02       		.uleb128 0x2
 9785 1e31 76       		.byte	0x76
 9786 1e32 7F       		.sleb128 -1
 9787 1e33 29       		.uleb128 0x29
 9788 1e34 01       		.uleb128 0x1
 9789 1e35 53       		.byte	0x53
 9790 1e36 02       		.uleb128 0x2
 9791 1e37 7B       		.byte	0x7b
 9792 1e38 00       		.sleb128 0
 9793 1e39 00       		.byte	0
 9794 1e3a 00       		.byte	0
 9795 1e3b 2A       		.uleb128 0x2a
 9796 1e3c BE0A0000 		.4byte	.LVL684
 9797 1e40 571E0000 		.4byte	0x1e57
ARM GAS  C:\Users\pearlstl\AppData\Local\Temp\ccbpFzqf.s 			page 201


 9798 1e44 29       		.uleb128 0x29
 9799 1e45 01       		.uleb128 0x1
 9800 1e46 51       		.byte	0x51
 9801 1e47 02       		.uleb128 0x2
 9802 1e48 7A       		.byte	0x7a
 9803 1e49 00       		.sleb128 0
 9804 1e4a 29       		.uleb128 0x29
 9805 1e4b 01       		.uleb128 0x1
 9806 1e4c 52       		.byte	0x52
 9807 1e4d 02       		.uleb128 0x2
 9808 1e4e 74       		.byte	0x74
 9809 1e4f 7F       		.sleb128 -1
 9810 1e50 29       		.uleb128 0x29
 9811 1e51 01       		.uleb128 0x1
 9812 1e52 53       		.byte	0x53
 9813 1e53 02       		.uleb128 0x2
 9814 1e54 7B       		.byte	0x7b
 9815 1e55 00       		.sleb128 0
 9816 1e56 00       		.byte	0
 9817 1e57 28       		.uleb128 0x28
 9818 1e58 EE0A0000 		.4byte	.LVL690
 9819 1e5c 29       		.uleb128 0x29
 9820 1e5d 01       		.uleb128 0x1
 9821 1e5e 50       		.byte	0x50
 9822 1e5f 02       		.uleb128 0x2
 9823 1e60 08       		.byte	0x8
 9824 1e61 20       		.byte	0x20
 9825 1e62 29       		.uleb128 0x29
 9826 1e63 01       		.uleb128 0x1
 9827 1e64 51       		.byte	0x51
 9828 1e65 02       		.uleb128 0x2
 9829 1e66 76       		.byte	0x76
 9830 1e67 00       		.sleb128 0
 9831 1e68 29       		.uleb128 0x29
 9832 1e69 01       		.uleb128 0x1
 9833 1e6a 52       		.byte	0x52
 9834 1e6b 02       		.uleb128 0x2
 9835 1e6c 77       		.byte	0x77
 9836 1e6d 7F       		.sleb128 -1
 9837 1e6e 29       		.uleb128 0x29
 9838 1e6f 01       		.uleb128 0x1
 9839 1e70 53       		.byte	0x53
 9840 1e71 02       		.uleb128 0x2
 9841 1e72 7B       		.byte	0x7b
 9842 1e73 00       		.sleb128 0
 9843 1e74 00       		.byte	0
 9844 1e75 00       		.byte	0
 9845 1e76 00       		.byte	0
 9846 1e77 00       		.byte	0
 9847 1e78 00       		.byte	0
 9848 1e79 37       		.uleb128 0x37
 9849 1e7a 9E030000 		.4byte	0x39e
 9850 1e7e D2040000 		.4byte	.LBB390
 9851 1e82 18000000 		.4byte	.LBE390-.LBB390
 9852 1e86 01       		.byte	0x1
 9853 1e87 5002     		.2byte	0x250
 9854 1e89 A61E0000 		.4byte	0x1ea6
ARM GAS  C:\Users\pearlstl\AppData\Local\Temp\ccbpFzqf.s 			page 202


 9855 1e8d 30       		.uleb128 0x30
 9856 1e8e AE030000 		.4byte	0x3ae
 9857 1e92 36       		.uleb128 0x36
 9858 1e93 D2040000 		.4byte	.LBB391
 9859 1e97 18000000 		.4byte	.LBE391-.LBB391
 9860 1e9b 26       		.uleb128 0x26
 9861 1e9c B9030000 		.4byte	0x3b9
 9862 1ea0 B2400000 		.4byte	.LLST255
 9863 1ea4 00       		.byte	0
 9864 1ea5 00       		.byte	0
 9865 1ea6 37       		.uleb128 0x37
 9866 1ea7 9E030000 		.4byte	0x39e
 9867 1eab 08050000 		.4byte	.LBB392
 9868 1eaf 1A000000 		.4byte	.LBE392-.LBB392
 9869 1eb3 01       		.byte	0x1
 9870 1eb4 6402     		.2byte	0x264
 9871 1eb6 D31E0000 		.4byte	0x1ed3
 9872 1eba 30       		.uleb128 0x30
 9873 1ebb AE030000 		.4byte	0x3ae
 9874 1ebf 36       		.uleb128 0x36
 9875 1ec0 08050000 		.4byte	.LBB393
 9876 1ec4 1A000000 		.4byte	.LBE393-.LBB393
 9877 1ec8 26       		.uleb128 0x26
 9878 1ec9 B9030000 		.4byte	0x3b9
 9879 1ecd D2400000 		.4byte	.LLST256
 9880 1ed1 00       		.byte	0
 9881 1ed2 00       		.byte	0
 9882 1ed3 31       		.uleb128 0x31
 9883 1ed4 22050000 		.4byte	.LBB394
 9884 1ed8 20000000 		.4byte	.LBE394-.LBB394
 9885 1edc EA1E0000 		.4byte	0x1eea
 9886 1ee0 26       		.uleb128 0x26
 9887 1ee1 8F040000 		.4byte	0x48f
 9888 1ee5 F2400000 		.4byte	.LLST257
 9889 1ee9 00       		.byte	0
 9890 1eea 31       		.uleb128 0x31
 9891 1eeb 26080000 		.4byte	.LBB403
 9892 1eef 14000000 		.4byte	.LBE403-.LBB403
 9893 1ef3 011F0000 		.4byte	0x1f01
 9894 1ef7 26       		.uleb128 0x26
 9895 1ef8 9F040000 		.4byte	0x49f
 9896 1efc 06410000 		.4byte	.LLST258
 9897 1f00 00       		.byte	0
 9898 1f01 34       		.uleb128 0x34
 9899 1f02 34000000 		.4byte	.LVL381
 9900 1f06 02       		.uleb128 0x2
 9901 1f07 75       		.byte	0x75
 9902 1f08 00       		.sleb128 0
 9903 1f09 221F0000 		.4byte	0x1f22
 9904 1f0d 29       		.uleb128 0x29
 9905 1f0e 01       		.uleb128 0x1
 9906 1f0f 51       		.byte	0x51
 9907 1f10 04       		.uleb128 0x4
 9908 1f11 91       		.byte	0x91
 9909 1f12 8C7F     		.sleb128 -116
 9910 1f14 06       		.byte	0x6
 9911 1f15 29       		.uleb128 0x29
ARM GAS  C:\Users\pearlstl\AppData\Local\Temp\ccbpFzqf.s 			page 203


 9912 1f16 01       		.uleb128 0x1
 9913 1f17 52       		.byte	0x52
 9914 1f18 02       		.uleb128 0x2
 9915 1f19 7A       		.byte	0x7a
 9916 1f1a 00       		.sleb128 0
 9917 1f1b 29       		.uleb128 0x29
 9918 1f1c 01       		.uleb128 0x1
 9919 1f1d 53       		.byte	0x53
 9920 1f1e 02       		.uleb128 0x2
 9921 1f1f 7B       		.byte	0x7b
 9922 1f20 00       		.sleb128 0
 9923 1f21 00       		.byte	0
 9924 1f22 34       		.uleb128 0x34
 9925 1f23 56000000 		.4byte	.LVL385
 9926 1f27 02       		.uleb128 0x2
 9927 1f28 74       		.byte	0x74
 9928 1f29 00       		.sleb128 0
 9929 1f2a 401F0000 		.4byte	0x1f40
 9930 1f2e 29       		.uleb128 0x29
 9931 1f2f 01       		.uleb128 0x1
 9932 1f30 50       		.byte	0x50
 9933 1f31 01       		.uleb128 0x1
 9934 1f32 30       		.byte	0x30
 9935 1f33 29       		.uleb128 0x29
 9936 1f34 01       		.uleb128 0x1
 9937 1f35 51       		.byte	0x51
 9938 1f36 02       		.uleb128 0x2
 9939 1f37 78       		.byte	0x78
 9940 1f38 00       		.sleb128 0
 9941 1f39 29       		.uleb128 0x29
 9942 1f3a 01       		.uleb128 0x1
 9943 1f3b 53       		.byte	0x53
 9944 1f3c 02       		.uleb128 0x2
 9945 1f3d 7B       		.byte	0x7b
 9946 1f3e 00       		.sleb128 0
 9947 1f3f 00       		.byte	0
 9948 1f40 34       		.uleb128 0x34
 9949 1f41 0A040000 		.4byte	.LVL480
 9950 1f45 02       		.uleb128 0x2
 9951 1f46 75       		.byte	0x75
 9952 1f47 00       		.sleb128 0
 9953 1f48 671F0000 		.4byte	0x1f67
 9954 1f4c 29       		.uleb128 0x29
 9955 1f4d 01       		.uleb128 0x1
 9956 1f4e 50       		.byte	0x50
 9957 1f4f 02       		.uleb128 0x2
 9958 1f50 08       		.byte	0x8
 9959 1f51 25       		.byte	0x25
 9960 1f52 29       		.uleb128 0x29
 9961 1f53 01       		.uleb128 0x1
 9962 1f54 51       		.byte	0x51
 9963 1f55 04       		.uleb128 0x4
 9964 1f56 91       		.byte	0x91
 9965 1f57 8C7F     		.sleb128 -116
 9966 1f59 06       		.byte	0x6
 9967 1f5a 29       		.uleb128 0x29
 9968 1f5b 01       		.uleb128 0x1
ARM GAS  C:\Users\pearlstl\AppData\Local\Temp\ccbpFzqf.s 			page 204


 9969 1f5c 52       		.byte	0x52
 9970 1f5d 02       		.uleb128 0x2
 9971 1f5e 7A       		.byte	0x7a
 9972 1f5f 7F       		.sleb128 -1
 9973 1f60 29       		.uleb128 0x29
 9974 1f61 01       		.uleb128 0x1
 9975 1f62 53       		.byte	0x53
 9976 1f63 02       		.uleb128 0x2
 9977 1f64 7B       		.byte	0x7b
 9978 1f65 00       		.sleb128 0
 9979 1f66 00       		.byte	0
 9980 1f67 34       		.uleb128 0x34
 9981 1f68 C6040000 		.4byte	.LVL498
 9982 1f6c 02       		.uleb128 0x2
 9983 1f6d 75       		.byte	0x75
 9984 1f6e 00       		.sleb128 0
 9985 1f6f 881F0000 		.4byte	0x1f88
 9986 1f73 29       		.uleb128 0x29
 9987 1f74 01       		.uleb128 0x1
 9988 1f75 51       		.byte	0x51
 9989 1f76 04       		.uleb128 0x4
 9990 1f77 91       		.byte	0x91
 9991 1f78 8C7F     		.sleb128 -116
 9992 1f7a 06       		.byte	0x6
 9993 1f7b 29       		.uleb128 0x29
 9994 1f7c 01       		.uleb128 0x1
 9995 1f7d 52       		.byte	0x52
 9996 1f7e 02       		.uleb128 0x2
 9997 1f7f 7A       		.byte	0x7a
 9998 1f80 00       		.sleb128 0
 9999 1f81 29       		.uleb128 0x29
 10000 1f82 01       		.uleb128 0x1
 10001 1f83 53       		.byte	0x53
 10002 1f84 02       		.uleb128 0x2
 10003 1f85 7B       		.byte	0x7b
 10004 1f86 00       		.sleb128 0
 10005 1f87 00       		.byte	0
 10006 1f88 2F       		.uleb128 0x2f
 10007 1f89 94050000 		.4byte	.LVL525
 10008 1f8d 33010000 		.4byte	0x133
 10009 1f91 29       		.uleb128 0x29
 10010 1f92 01       		.uleb128 0x1
 10011 1f93 50       		.byte	0x50
 10012 1f94 04       		.uleb128 0x4
 10013 1f95 91       		.byte	0x91
 10014 1f96 887F     		.sleb128 -120
 10015 1f98 06       		.byte	0x6
 10016 1f99 29       		.uleb128 0x29
 10017 1f9a 01       		.uleb128 0x1
 10018 1f9b 51       		.byte	0x51
 10019 1f9c 04       		.uleb128 0x4
 10020 1f9d 91       		.byte	0x91
 10021 1f9e 8C7F     		.sleb128 -116
 10022 1fa0 06       		.byte	0x6
 10023 1fa1 29       		.uleb128 0x29
 10024 1fa2 01       		.uleb128 0x1
 10025 1fa3 52       		.byte	0x52
ARM GAS  C:\Users\pearlstl\AppData\Local\Temp\ccbpFzqf.s 			page 205


 10026 1fa4 02       		.uleb128 0x2
 10027 1fa5 7A       		.byte	0x7a
 10028 1fa6 00       		.sleb128 0
 10029 1fa7 29       		.uleb128 0x29
 10030 1fa8 01       		.uleb128 0x1
 10031 1fa9 53       		.byte	0x53
 10032 1faa 02       		.uleb128 0x2
 10033 1fab 7B       		.byte	0x7b
 10034 1fac 00       		.sleb128 0
 10035 1fad 29       		.uleb128 0x29
 10036 1fae 02       		.uleb128 0x2
 10037 1faf 7D       		.byte	0x7d
 10038 1fb0 08       		.sleb128 8
 10039 1fb1 02       		.uleb128 0x2
 10040 1fb2 79       		.byte	0x79
 10041 1fb3 00       		.sleb128 0
 10042 1fb4 29       		.uleb128 0x29
 10043 1fb5 02       		.uleb128 0x2
 10044 1fb6 7D       		.byte	0x7d
 10045 1fb7 0C       		.sleb128 12
 10046 1fb8 02       		.uleb128 0x2
 10047 1fb9 78       		.byte	0x78
 10048 1fba 00       		.sleb128 0
 10049 1fbb 00       		.byte	0
 10050 1fbc 00       		.byte	0
 10051 1fbd 38       		.uleb128 0x38
 10052 1fbe FF000000 		.4byte	.LASF64
 10053 1fc2 01       		.byte	0x1
 10054 1fc3 4503     		.2byte	0x345
 10055 1fc5 33000000 		.4byte	0x33
 10056 1fc9 00000000 		.4byte	.LFB12
 10057 1fcd 1C000000 		.4byte	.LFE12-.LFB12
 10058 1fd1 01       		.uleb128 0x1
 10059 1fd2 9C       		.byte	0x9c
 10060 1fd3 49200000 		.4byte	0x2049
 10061 1fd7 39       		.uleb128 0x39
 10062 1fd8 08030000 		.4byte	.LASF23
 10063 1fdc 01       		.byte	0x1
 10064 1fdd 4503     		.2byte	0x345
 10065 1fdf 2C020000 		.4byte	0x22c
 10066 1fe3 28410000 		.4byte	.LLST259
 10067 1fe7 39       		.uleb128 0x39
 10068 1fe8 6F030000 		.4byte	.LASF41
 10069 1fec 01       		.byte	0x1
 10070 1fed 4503     		.2byte	0x345
 10071 1fef CD000000 		.4byte	0xcd
 10072 1ff3 49410000 		.4byte	.LLST260
 10073 1ff7 3A       		.uleb128 0x3a
 10074 1ff8 D9000000 		.4byte	.LASF47
 10075 1ffc 01       		.byte	0x1
 10076 1ffd 4503     		.2byte	0x345
 10077 1fff C9030000 		.4byte	0x3c9
 10078 2003 02       		.uleb128 0x2
 10079 2004 91       		.byte	0x91
 10080 2005 78       		.sleb128 -8
 10081 2006 3B       		.uleb128 0x3b
 10082 2007 3C       		.uleb128 0x3c
ARM GAS  C:\Users\pearlstl\AppData\Local\Temp\ccbpFzqf.s 			page 206


 10083 2008 766100   		.ascii	"va\000"
 10084 200b 01       		.byte	0x1
 10085 200c 4703     		.2byte	0x347
 10086 200e C2000000 		.4byte	0xc2
 10087 2012 02       		.uleb128 0x2
 10088 2013 91       		.byte	0x91
 10089 2014 6C       		.sleb128 -20
 10090 2015 3C       		.uleb128 0x3c
 10091 2016 72657400 		.ascii	"ret\000"
 10092 201a 01       		.byte	0x1
 10093 201b 4903     		.2byte	0x349
 10094 201d 3B050000 		.4byte	0x53b
 10095 2021 01       		.uleb128 0x1
 10096 2022 50       		.byte	0x50
 10097 2023 2F       		.uleb128 0x2f
 10098 2024 12000000 		.4byte	.LVL840
 10099 2028 52130000 		.4byte	0x1352
 10100 202c 29       		.uleb128 0x29
 10101 202d 01       		.uleb128 0x1
 10102 202e 50       		.byte	0x50
 10103 202f 03       		.uleb128 0x3
 10104 2030 F3       		.byte	0xf3
 10105 2031 01       		.uleb128 0x1
 10106 2032 50       		.byte	0x50
 10107 2033 29       		.uleb128 0x29
 10108 2034 01       		.uleb128 0x1
 10109 2035 51       		.byte	0x51
 10110 2036 03       		.uleb128 0x3
 10111 2037 F3       		.byte	0xf3
 10112 2038 01       		.uleb128 0x1
 10113 2039 51       		.byte	0x51
 10114 203a 29       		.uleb128 0x29
 10115 203b 01       		.uleb128 0x1
 10116 203c 52       		.byte	0x52
 10117 203d 03       		.uleb128 0x3
 10118 203e 91       		.byte	0x91
 10119 203f 68       		.sleb128 -24
 10120 2040 06       		.byte	0x6
 10121 2041 29       		.uleb128 0x29
 10122 2042 01       		.uleb128 0x1
 10123 2043 53       		.byte	0x53
 10124 2044 02       		.uleb128 0x2
 10125 2045 91       		.byte	0x91
 10126 2046 6C       		.sleb128 -20
 10127 2047 00       		.byte	0
 10128 2048 00       		.byte	0
 10129 2049 3D       		.uleb128 0x3d
 10130 204a 1A030000 		.4byte	.LASF65
 10131 204e 01       		.byte	0x1
 10132 204f 4E03     		.2byte	0x34e
 10133 2051 33000000 		.4byte	0x33
 10134 2055 00000000 		.4byte	.LFB13
 10135 2059 04000000 		.4byte	.LFE13-.LFB13
 10136 205d 01       		.uleb128 0x1
 10137 205e 9C       		.byte	0x9c
 10138 205f 39       		.uleb128 0x39
 10139 2060 08030000 		.4byte	.LASF23
ARM GAS  C:\Users\pearlstl\AppData\Local\Temp\ccbpFzqf.s 			page 207


 10140 2064 01       		.byte	0x1
 10141 2065 4E03     		.2byte	0x34e
 10142 2067 2C020000 		.4byte	0x22c
 10143 206b 6A410000 		.4byte	.LLST261
 10144 206f 39       		.uleb128 0x39
 10145 2070 6F030000 		.4byte	.LASF41
 10146 2074 01       		.byte	0x1
 10147 2075 4E03     		.2byte	0x34e
 10148 2077 CD000000 		.4byte	0xcd
 10149 207b 8B410000 		.4byte	.LLST262
 10150 207f 39       		.uleb128 0x39
 10151 2080 D9000000 		.4byte	.LASF47
 10152 2084 01       		.byte	0x1
 10153 2085 4E03     		.2byte	0x34e
 10154 2087 C9030000 		.4byte	0x3c9
 10155 208b AC410000 		.4byte	.LLST263
 10156 208f 3E       		.uleb128 0x3e
 10157 2090 766100   		.ascii	"va\000"
 10158 2093 01       		.byte	0x1
 10159 2094 4E03     		.2byte	0x34e
 10160 2096 C2000000 		.4byte	0xc2
 10161 209a CD410000 		.4byte	.LLST264
 10162 209e 32       		.uleb128 0x32
 10163 209f 04000000 		.4byte	.LVL842
 10164 20a3 52130000 		.4byte	0x1352
 10165 20a7 29       		.uleb128 0x29
 10166 20a8 01       		.uleb128 0x1
 10167 20a9 50       		.byte	0x50
 10168 20aa 03       		.uleb128 0x3
 10169 20ab F3       		.byte	0xf3
 10170 20ac 01       		.uleb128 0x1
 10171 20ad 50       		.byte	0x50
 10172 20ae 29       		.uleb128 0x29
 10173 20af 01       		.uleb128 0x1
 10174 20b0 51       		.byte	0x51
 10175 20b1 03       		.uleb128 0x3
 10176 20b2 F3       		.byte	0xf3
 10177 20b3 01       		.uleb128 0x1
 10178 20b4 51       		.byte	0x51
 10179 20b5 29       		.uleb128 0x29
 10180 20b6 01       		.uleb128 0x1
 10181 20b7 52       		.byte	0x52
 10182 20b8 03       		.uleb128 0x3
 10183 20b9 F3       		.byte	0xf3
 10184 20ba 01       		.uleb128 0x1
 10185 20bb 52       		.byte	0x52
 10186 20bc 00       		.byte	0
 10187 20bd 00       		.byte	0
 10188 20be 00       		.byte	0
 10189              		.section	.debug_abbrev,"",%progbits
 10190              	.Ldebug_abbrev0:
 10191 0000 01       		.uleb128 0x1
 10192 0001 11       		.uleb128 0x11
 10193 0002 01       		.byte	0x1
 10194 0003 25       		.uleb128 0x25
 10195 0004 0E       		.uleb128 0xe
 10196 0005 13       		.uleb128 0x13
ARM GAS  C:\Users\pearlstl\AppData\Local\Temp\ccbpFzqf.s 			page 208


 10197 0006 0B       		.uleb128 0xb
 10198 0007 03       		.uleb128 0x3
 10199 0008 0E       		.uleb128 0xe
 10200 0009 1B       		.uleb128 0x1b
 10201 000a 0E       		.uleb128 0xe
 10202 000b 55       		.uleb128 0x55
 10203 000c 17       		.uleb128 0x17
 10204 000d 11       		.uleb128 0x11
 10205 000e 01       		.uleb128 0x1
 10206 000f 10       		.uleb128 0x10
 10207 0010 17       		.uleb128 0x17
 10208 0011 00       		.byte	0
 10209 0012 00       		.byte	0
 10210 0013 02       		.uleb128 0x2
 10211 0014 24       		.uleb128 0x24
 10212 0015 00       		.byte	0
 10213 0016 0B       		.uleb128 0xb
 10214 0017 0B       		.uleb128 0xb
 10215 0018 3E       		.uleb128 0x3e
 10216 0019 0B       		.uleb128 0xb
 10217 001a 03       		.uleb128 0x3
 10218 001b 0E       		.uleb128 0xe
 10219 001c 00       		.byte	0
 10220 001d 00       		.byte	0
 10221 001e 03       		.uleb128 0x3
 10222 001f 24       		.uleb128 0x24
 10223 0020 00       		.byte	0
 10224 0021 0B       		.uleb128 0xb
 10225 0022 0B       		.uleb128 0xb
 10226 0023 3E       		.uleb128 0x3e
 10227 0024 0B       		.uleb128 0xb
 10228 0025 03       		.uleb128 0x3
 10229 0026 08       		.uleb128 0x8
 10230 0027 00       		.byte	0
 10231 0028 00       		.byte	0
 10232 0029 04       		.uleb128 0x4
 10233 002a 16       		.uleb128 0x16
 10234 002b 00       		.byte	0
 10235 002c 03       		.uleb128 0x3
 10236 002d 0E       		.uleb128 0xe
 10237 002e 3A       		.uleb128 0x3a
 10238 002f 0B       		.uleb128 0xb
 10239 0030 3B       		.uleb128 0x3b
 10240 0031 0B       		.uleb128 0xb
 10241 0032 49       		.uleb128 0x49
 10242 0033 13       		.uleb128 0x13
 10243 0034 00       		.byte	0
 10244 0035 00       		.byte	0
 10245 0036 05       		.uleb128 0x5
 10246 0037 0F       		.uleb128 0xf
 10247 0038 00       		.byte	0
 10248 0039 0B       		.uleb128 0xb
 10249 003a 0B       		.uleb128 0xb
 10250 003b 00       		.byte	0
 10251 003c 00       		.byte	0
 10252 003d 06       		.uleb128 0x6
 10253 003e 13       		.uleb128 0x13
ARM GAS  C:\Users\pearlstl\AppData\Local\Temp\ccbpFzqf.s 			page 209


 10254 003f 01       		.byte	0x1
 10255 0040 03       		.uleb128 0x3
 10256 0041 0E       		.uleb128 0xe
 10257 0042 0B       		.uleb128 0xb
 10258 0043 0B       		.uleb128 0xb
 10259 0044 3A       		.uleb128 0x3a
 10260 0045 0B       		.uleb128 0xb
 10261 0046 3B       		.uleb128 0x3b
 10262 0047 0B       		.uleb128 0xb
 10263 0048 01       		.uleb128 0x1
 10264 0049 13       		.uleb128 0x13
 10265 004a 00       		.byte	0
 10266 004b 00       		.byte	0
 10267 004c 07       		.uleb128 0x7
 10268 004d 0D       		.uleb128 0xd
 10269 004e 00       		.byte	0
 10270 004f 03       		.uleb128 0x3
 10271 0050 0E       		.uleb128 0xe
 10272 0051 49       		.uleb128 0x49
 10273 0052 13       		.uleb128 0x13
 10274 0053 38       		.uleb128 0x38
 10275 0054 0B       		.uleb128 0xb
 10276 0055 34       		.uleb128 0x34
 10277 0056 19       		.uleb128 0x19
 10278 0057 00       		.byte	0
 10279 0058 00       		.byte	0
 10280 0059 08       		.uleb128 0x8
 10281 005a 0F       		.uleb128 0xf
 10282 005b 00       		.byte	0
 10283 005c 0B       		.uleb128 0xb
 10284 005d 0B       		.uleb128 0xb
 10285 005e 49       		.uleb128 0x49
 10286 005f 13       		.uleb128 0x13
 10287 0060 00       		.byte	0
 10288 0061 00       		.byte	0
 10289 0062 09       		.uleb128 0x9
 10290 0063 15       		.uleb128 0x15
 10291 0064 01       		.byte	0x1
 10292 0065 27       		.uleb128 0x27
 10293 0066 19       		.uleb128 0x19
 10294 0067 01       		.uleb128 0x1
 10295 0068 13       		.uleb128 0x13
 10296 0069 00       		.byte	0
 10297 006a 00       		.byte	0
 10298 006b 0A       		.uleb128 0xa
 10299 006c 05       		.uleb128 0x5
 10300 006d 00       		.byte	0
 10301 006e 49       		.uleb128 0x49
 10302 006f 13       		.uleb128 0x13
 10303 0070 00       		.byte	0
 10304 0071 00       		.byte	0
 10305 0072 0B       		.uleb128 0xb
 10306 0073 2E       		.uleb128 0x2e
 10307 0074 01       		.byte	0x1
 10308 0075 03       		.uleb128 0x3
 10309 0076 0E       		.uleb128 0xe
 10310 0077 3A       		.uleb128 0x3a
ARM GAS  C:\Users\pearlstl\AppData\Local\Temp\ccbpFzqf.s 			page 210


 10311 0078 0B       		.uleb128 0xb
 10312 0079 3B       		.uleb128 0x3b
 10313 007a 0B       		.uleb128 0xb
 10314 007b 27       		.uleb128 0x27
 10315 007c 19       		.uleb128 0x19
 10316 007d 49       		.uleb128 0x49
 10317 007e 13       		.uleb128 0x13
 10318 007f 20       		.uleb128 0x20
 10319 0080 0B       		.uleb128 0xb
 10320 0081 01       		.uleb128 0x1
 10321 0082 13       		.uleb128 0x13
 10322 0083 00       		.byte	0
 10323 0084 00       		.byte	0
 10324 0085 0C       		.uleb128 0xc
 10325 0086 05       		.uleb128 0x5
 10326 0087 00       		.byte	0
 10327 0088 03       		.uleb128 0x3
 10328 0089 08       		.uleb128 0x8
 10329 008a 3A       		.uleb128 0x3a
 10330 008b 0B       		.uleb128 0xb
 10331 008c 3B       		.uleb128 0x3b
 10332 008d 0B       		.uleb128 0xb
 10333 008e 49       		.uleb128 0x49
 10334 008f 13       		.uleb128 0x13
 10335 0090 00       		.byte	0
 10336 0091 00       		.byte	0
 10337 0092 0D       		.uleb128 0xd
 10338 0093 2E       		.uleb128 0x2e
 10339 0094 01       		.byte	0x1
 10340 0095 03       		.uleb128 0x3
 10341 0096 0E       		.uleb128 0xe
 10342 0097 3A       		.uleb128 0x3a
 10343 0098 0B       		.uleb128 0xb
 10344 0099 3B       		.uleb128 0x3b
 10345 009a 05       		.uleb128 0x5
 10346 009b 27       		.uleb128 0x27
 10347 009c 19       		.uleb128 0x19
 10348 009d 49       		.uleb128 0x49
 10349 009e 13       		.uleb128 0x13
 10350 009f 20       		.uleb128 0x20
 10351 00a0 0B       		.uleb128 0xb
 10352 00a1 01       		.uleb128 0x1
 10353 00a2 13       		.uleb128 0x13
 10354 00a3 00       		.byte	0
 10355 00a4 00       		.byte	0
 10356 00a5 0E       		.uleb128 0xe
 10357 00a6 05       		.uleb128 0x5
 10358 00a7 00       		.byte	0
 10359 00a8 03       		.uleb128 0x3
 10360 00a9 08       		.uleb128 0x8
 10361 00aa 3A       		.uleb128 0x3a
 10362 00ab 0B       		.uleb128 0xb
 10363 00ac 3B       		.uleb128 0x3b
 10364 00ad 05       		.uleb128 0x5
 10365 00ae 49       		.uleb128 0x49
 10366 00af 13       		.uleb128 0x13
 10367 00b0 00       		.byte	0
ARM GAS  C:\Users\pearlstl\AppData\Local\Temp\ccbpFzqf.s 			page 211


 10368 00b1 00       		.byte	0
 10369 00b2 0F       		.uleb128 0xf
 10370 00b3 05       		.uleb128 0x5
 10371 00b4 00       		.byte	0
 10372 00b5 03       		.uleb128 0x3
 10373 00b6 0E       		.uleb128 0xe
 10374 00b7 3A       		.uleb128 0x3a
 10375 00b8 0B       		.uleb128 0xb
 10376 00b9 3B       		.uleb128 0x3b
 10377 00ba 05       		.uleb128 0x5
 10378 00bb 49       		.uleb128 0x49
 10379 00bc 13       		.uleb128 0x13
 10380 00bd 00       		.byte	0
 10381 00be 00       		.byte	0
 10382 00bf 10       		.uleb128 0x10
 10383 00c0 34       		.uleb128 0x34
 10384 00c1 00       		.byte	0
 10385 00c2 03       		.uleb128 0x3
 10386 00c3 0E       		.uleb128 0xe
 10387 00c4 3A       		.uleb128 0x3a
 10388 00c5 0B       		.uleb128 0xb
 10389 00c6 3B       		.uleb128 0x3b
 10390 00c7 05       		.uleb128 0x5
 10391 00c8 49       		.uleb128 0x49
 10392 00c9 13       		.uleb128 0x13
 10393 00ca 00       		.byte	0
 10394 00cb 00       		.byte	0
 10395 00cc 11       		.uleb128 0x11
 10396 00cd 17       		.uleb128 0x17
 10397 00ce 01       		.byte	0x1
 10398 00cf 0B       		.uleb128 0xb
 10399 00d0 0B       		.uleb128 0xb
 10400 00d1 3A       		.uleb128 0x3a
 10401 00d2 0B       		.uleb128 0xb
 10402 00d3 3B       		.uleb128 0x3b
 10403 00d4 05       		.uleb128 0x5
 10404 00d5 01       		.uleb128 0x1
 10405 00d6 13       		.uleb128 0x13
 10406 00d7 00       		.byte	0
 10407 00d8 00       		.byte	0
 10408 00d9 12       		.uleb128 0x12
 10409 00da 0D       		.uleb128 0xd
 10410 00db 00       		.byte	0
 10411 00dc 03       		.uleb128 0x3
 10412 00dd 08       		.uleb128 0x8
 10413 00de 3A       		.uleb128 0x3a
 10414 00df 0B       		.uleb128 0xb
 10415 00e0 3B       		.uleb128 0x3b
 10416 00e1 05       		.uleb128 0x5
 10417 00e2 49       		.uleb128 0x49
 10418 00e3 13       		.uleb128 0x13
 10419 00e4 00       		.byte	0
 10420 00e5 00       		.byte	0
 10421 00e6 13       		.uleb128 0x13
 10422 00e7 34       		.uleb128 0x34
 10423 00e8 00       		.byte	0
 10424 00e9 03       		.uleb128 0x3
ARM GAS  C:\Users\pearlstl\AppData\Local\Temp\ccbpFzqf.s 			page 212


 10425 00ea 08       		.uleb128 0x8
 10426 00eb 3A       		.uleb128 0x3a
 10427 00ec 0B       		.uleb128 0xb
 10428 00ed 3B       		.uleb128 0x3b
 10429 00ee 05       		.uleb128 0x5
 10430 00ef 49       		.uleb128 0x49
 10431 00f0 13       		.uleb128 0x13
 10432 00f1 00       		.byte	0
 10433 00f2 00       		.byte	0
 10434 00f3 14       		.uleb128 0x14
 10435 00f4 26       		.uleb128 0x26
 10436 00f5 00       		.byte	0
 10437 00f6 49       		.uleb128 0x49
 10438 00f7 13       		.uleb128 0x13
 10439 00f8 00       		.byte	0
 10440 00f9 00       		.byte	0
 10441 00fa 15       		.uleb128 0x15
 10442 00fb 34       		.uleb128 0x34
 10443 00fc 00       		.byte	0
 10444 00fd 03       		.uleb128 0x3
 10445 00fe 0E       		.uleb128 0xe
 10446 00ff 3A       		.uleb128 0x3a
 10447 0100 0B       		.uleb128 0xb
 10448 0101 3B       		.uleb128 0x3b
 10449 0102 05       		.uleb128 0x5
 10450 0103 49       		.uleb128 0x49
 10451 0104 13       		.uleb128 0x13
 10452 0105 1C       		.uleb128 0x1c
 10453 0106 0A       		.uleb128 0xa
 10454 0107 00       		.byte	0
 10455 0108 00       		.byte	0
 10456 0109 16       		.uleb128 0x16
 10457 010a 0B       		.uleb128 0xb
 10458 010b 01       		.byte	0x1
 10459 010c 00       		.byte	0
 10460 010d 00       		.byte	0
 10461 010e 17       		.uleb128 0x17
 10462 010f 01       		.uleb128 0x1
 10463 0110 01       		.byte	0x1
 10464 0111 49       		.uleb128 0x49
 10465 0112 13       		.uleb128 0x13
 10466 0113 01       		.uleb128 0x1
 10467 0114 13       		.uleb128 0x13
 10468 0115 00       		.byte	0
 10469 0116 00       		.byte	0
 10470 0117 18       		.uleb128 0x18
 10471 0118 21       		.uleb128 0x21
 10472 0119 00       		.byte	0
 10473 011a 49       		.uleb128 0x49
 10474 011b 13       		.uleb128 0x13
 10475 011c 2F       		.uleb128 0x2f
 10476 011d 0B       		.uleb128 0xb
 10477 011e 00       		.byte	0
 10478 011f 00       		.byte	0
 10479 0120 19       		.uleb128 0x19
 10480 0121 34       		.uleb128 0x34
 10481 0122 00       		.byte	0
ARM GAS  C:\Users\pearlstl\AppData\Local\Temp\ccbpFzqf.s 			page 213


 10482 0123 03       		.uleb128 0x3
 10483 0124 08       		.uleb128 0x8
 10484 0125 3A       		.uleb128 0x3a
 10485 0126 0B       		.uleb128 0xb
 10486 0127 3B       		.uleb128 0x3b
 10487 0128 0B       		.uleb128 0xb
 10488 0129 49       		.uleb128 0x49
 10489 012a 13       		.uleb128 0x13
 10490 012b 00       		.byte	0
 10491 012c 00       		.byte	0
 10492 012d 1A       		.uleb128 0x1a
 10493 012e 05       		.uleb128 0x5
 10494 012f 00       		.byte	0
 10495 0130 03       		.uleb128 0x3
 10496 0131 0E       		.uleb128 0xe
 10497 0132 3A       		.uleb128 0x3a
 10498 0133 0B       		.uleb128 0xb
 10499 0134 3B       		.uleb128 0x3b
 10500 0135 0B       		.uleb128 0xb
 10501 0136 49       		.uleb128 0x49
 10502 0137 13       		.uleb128 0x13
 10503 0138 00       		.byte	0
 10504 0139 00       		.byte	0
 10505 013a 1B       		.uleb128 0x1b
 10506 013b 0B       		.uleb128 0xb
 10507 013c 01       		.byte	0x1
 10508 013d 01       		.uleb128 0x1
 10509 013e 13       		.uleb128 0x13
 10510 013f 00       		.byte	0
 10511 0140 00       		.byte	0
 10512 0141 1C       		.uleb128 0x1c
 10513 0142 2E       		.uleb128 0x2e
 10514 0143 01       		.byte	0x1
 10515 0144 03       		.uleb128 0x3
 10516 0145 0E       		.uleb128 0xe
 10517 0146 3A       		.uleb128 0x3a
 10518 0147 0B       		.uleb128 0xb
 10519 0148 3B       		.uleb128 0x3b
 10520 0149 0B       		.uleb128 0xb
 10521 014a 27       		.uleb128 0x27
 10522 014b 19       		.uleb128 0x19
 10523 014c 11       		.uleb128 0x11
 10524 014d 01       		.uleb128 0x1
 10525 014e 12       		.uleb128 0x12
 10526 014f 06       		.uleb128 0x6
 10527 0150 40       		.uleb128 0x40
 10528 0151 18       		.uleb128 0x18
 10529 0152 9742     		.uleb128 0x2117
 10530 0154 19       		.uleb128 0x19
 10531 0155 01       		.uleb128 0x1
 10532 0156 13       		.uleb128 0x13
 10533 0157 00       		.byte	0
 10534 0158 00       		.byte	0
 10535 0159 1D       		.uleb128 0x1d
 10536 015a 05       		.uleb128 0x5
 10537 015b 00       		.byte	0
 10538 015c 03       		.uleb128 0x3
ARM GAS  C:\Users\pearlstl\AppData\Local\Temp\ccbpFzqf.s 			page 214


 10539 015d 0E       		.uleb128 0xe
 10540 015e 3A       		.uleb128 0x3a
 10541 015f 0B       		.uleb128 0xb
 10542 0160 3B       		.uleb128 0x3b
 10543 0161 0B       		.uleb128 0xb
 10544 0162 49       		.uleb128 0x49
 10545 0163 13       		.uleb128 0x13
 10546 0164 02       		.uleb128 0x2
 10547 0165 18       		.uleb128 0x18
 10548 0166 00       		.byte	0
 10549 0167 00       		.byte	0
 10550 0168 1E       		.uleb128 0x1e
 10551 0169 05       		.uleb128 0x5
 10552 016a 00       		.byte	0
 10553 016b 03       		.uleb128 0x3
 10554 016c 08       		.uleb128 0x8
 10555 016d 3A       		.uleb128 0x3a
 10556 016e 0B       		.uleb128 0xb
 10557 016f 3B       		.uleb128 0x3b
 10558 0170 0B       		.uleb128 0xb
 10559 0171 49       		.uleb128 0x49
 10560 0172 13       		.uleb128 0x13
 10561 0173 02       		.uleb128 0x2
 10562 0174 18       		.uleb128 0x18
 10563 0175 00       		.byte	0
 10564 0176 00       		.byte	0
 10565 0177 1F       		.uleb128 0x1f
 10566 0178 34       		.uleb128 0x34
 10567 0179 00       		.byte	0
 10568 017a 03       		.uleb128 0x3
 10569 017b 0E       		.uleb128 0xe
 10570 017c 3A       		.uleb128 0x3a
 10571 017d 0B       		.uleb128 0xb
 10572 017e 3B       		.uleb128 0x3b
 10573 017f 0B       		.uleb128 0xb
 10574 0180 49       		.uleb128 0x49
 10575 0181 13       		.uleb128 0x13
 10576 0182 00       		.byte	0
 10577 0183 00       		.byte	0
 10578 0184 20       		.uleb128 0x20
 10579 0185 2E       		.uleb128 0x2e
 10580 0186 01       		.byte	0x1
 10581 0187 03       		.uleb128 0x3
 10582 0188 0E       		.uleb128 0xe
 10583 0189 3A       		.uleb128 0x3a
 10584 018a 0B       		.uleb128 0xb
 10585 018b 3B       		.uleb128 0x3b
 10586 018c 0B       		.uleb128 0xb
 10587 018d 27       		.uleb128 0x27
 10588 018e 19       		.uleb128 0x19
 10589 018f 49       		.uleb128 0x49
 10590 0190 13       		.uleb128 0x13
 10591 0191 11       		.uleb128 0x11
 10592 0192 01       		.uleb128 0x1
 10593 0193 12       		.uleb128 0x12
 10594 0194 06       		.uleb128 0x6
 10595 0195 40       		.uleb128 0x40
ARM GAS  C:\Users\pearlstl\AppData\Local\Temp\ccbpFzqf.s 			page 215


 10596 0196 18       		.uleb128 0x18
 10597 0197 9742     		.uleb128 0x2117
 10598 0199 19       		.uleb128 0x19
 10599 019a 01       		.uleb128 0x1
 10600 019b 13       		.uleb128 0x13
 10601 019c 00       		.byte	0
 10602 019d 00       		.byte	0
 10603 019e 21       		.uleb128 0x21
 10604 019f 05       		.uleb128 0x5
 10605 01a0 00       		.byte	0
 10606 01a1 03       		.uleb128 0x3
 10607 01a2 08       		.uleb128 0x8
 10608 01a3 3A       		.uleb128 0x3a
 10609 01a4 0B       		.uleb128 0xb
 10610 01a5 3B       		.uleb128 0x3b
 10611 01a6 0B       		.uleb128 0xb
 10612 01a7 49       		.uleb128 0x49
 10613 01a8 13       		.uleb128 0x13
 10614 01a9 02       		.uleb128 0x2
 10615 01aa 17       		.uleb128 0x17
 10616 01ab 00       		.byte	0
 10617 01ac 00       		.byte	0
 10618 01ad 22       		.uleb128 0x22
 10619 01ae 05       		.uleb128 0x5
 10620 01af 00       		.byte	0
 10621 01b0 03       		.uleb128 0x3
 10622 01b1 0E       		.uleb128 0xe
 10623 01b2 3A       		.uleb128 0x3a
 10624 01b3 0B       		.uleb128 0xb
 10625 01b4 3B       		.uleb128 0x3b
 10626 01b5 0B       		.uleb128 0xb
 10627 01b6 49       		.uleb128 0x49
 10628 01b7 13       		.uleb128 0x13
 10629 01b8 02       		.uleb128 0x2
 10630 01b9 17       		.uleb128 0x17
 10631 01ba 00       		.byte	0
 10632 01bb 00       		.byte	0
 10633 01bc 23       		.uleb128 0x23
 10634 01bd 1D       		.uleb128 0x1d
 10635 01be 01       		.byte	0x1
 10636 01bf 31       		.uleb128 0x31
 10637 01c0 13       		.uleb128 0x13
 10638 01c1 52       		.uleb128 0x52
 10639 01c2 01       		.uleb128 0x1
 10640 01c3 55       		.uleb128 0x55
 10641 01c4 17       		.uleb128 0x17
 10642 01c5 58       		.uleb128 0x58
 10643 01c6 0B       		.uleb128 0xb
 10644 01c7 59       		.uleb128 0x59
 10645 01c8 0B       		.uleb128 0xb
 10646 01c9 00       		.byte	0
 10647 01ca 00       		.byte	0
 10648 01cb 24       		.uleb128 0x24
 10649 01cc 05       		.uleb128 0x5
 10650 01cd 00       		.byte	0
 10651 01ce 31       		.uleb128 0x31
 10652 01cf 13       		.uleb128 0x13
ARM GAS  C:\Users\pearlstl\AppData\Local\Temp\ccbpFzqf.s 			page 216


 10653 01d0 02       		.uleb128 0x2
 10654 01d1 17       		.uleb128 0x17
 10655 01d2 00       		.byte	0
 10656 01d3 00       		.byte	0
 10657 01d4 25       		.uleb128 0x25
 10658 01d5 0B       		.uleb128 0xb
 10659 01d6 01       		.byte	0x1
 10660 01d7 55       		.uleb128 0x55
 10661 01d8 17       		.uleb128 0x17
 10662 01d9 00       		.byte	0
 10663 01da 00       		.byte	0
 10664 01db 26       		.uleb128 0x26
 10665 01dc 34       		.uleb128 0x34
 10666 01dd 00       		.byte	0
 10667 01de 31       		.uleb128 0x31
 10668 01df 13       		.uleb128 0x13
 10669 01e0 02       		.uleb128 0x2
 10670 01e1 17       		.uleb128 0x17
 10671 01e2 00       		.byte	0
 10672 01e3 00       		.byte	0
 10673 01e4 27       		.uleb128 0x27
 10674 01e5 0B       		.uleb128 0xb
 10675 01e6 01       		.byte	0x1
 10676 01e7 55       		.uleb128 0x55
 10677 01e8 17       		.uleb128 0x17
 10678 01e9 01       		.uleb128 0x1
 10679 01ea 13       		.uleb128 0x13
 10680 01eb 00       		.byte	0
 10681 01ec 00       		.byte	0
 10682 01ed 28       		.uleb128 0x28
 10683 01ee 898201   		.uleb128 0x4109
 10684 01f1 01       		.byte	0x1
 10685 01f2 11       		.uleb128 0x11
 10686 01f3 01       		.uleb128 0x1
 10687 01f4 00       		.byte	0
 10688 01f5 00       		.byte	0
 10689 01f6 29       		.uleb128 0x29
 10690 01f7 8A8201   		.uleb128 0x410a
 10691 01fa 00       		.byte	0
 10692 01fb 02       		.uleb128 0x2
 10693 01fc 18       		.uleb128 0x18
 10694 01fd 9142     		.uleb128 0x2111
 10695 01ff 18       		.uleb128 0x18
 10696 0200 00       		.byte	0
 10697 0201 00       		.byte	0
 10698 0202 2A       		.uleb128 0x2a
 10699 0203 898201   		.uleb128 0x4109
 10700 0206 01       		.byte	0x1
 10701 0207 11       		.uleb128 0x11
 10702 0208 01       		.uleb128 0x1
 10703 0209 01       		.uleb128 0x1
 10704 020a 13       		.uleb128 0x13
 10705 020b 00       		.byte	0
 10706 020c 00       		.byte	0
 10707 020d 2B       		.uleb128 0x2b
 10708 020e 2E       		.uleb128 0x2e
 10709 020f 01       		.byte	0x1
ARM GAS  C:\Users\pearlstl\AppData\Local\Temp\ccbpFzqf.s 			page 217


 10710 0210 31       		.uleb128 0x31
 10711 0211 13       		.uleb128 0x13
 10712 0212 11       		.uleb128 0x11
 10713 0213 01       		.uleb128 0x1
 10714 0214 12       		.uleb128 0x12
 10715 0215 06       		.uleb128 0x6
 10716 0216 40       		.uleb128 0x40
 10717 0217 18       		.uleb128 0x18
 10718 0218 9642     		.uleb128 0x2116
 10719 021a 19       		.uleb128 0x19
 10720 021b 01       		.uleb128 0x1
 10721 021c 13       		.uleb128 0x13
 10722 021d 00       		.byte	0
 10723 021e 00       		.byte	0
 10724 021f 2C       		.uleb128 0x2c
 10725 0220 34       		.uleb128 0x34
 10726 0221 00       		.byte	0
 10727 0222 31       		.uleb128 0x31
 10728 0223 13       		.uleb128 0x13
 10729 0224 00       		.byte	0
 10730 0225 00       		.byte	0
 10731 0226 2D       		.uleb128 0x2d
 10732 0227 1D       		.uleb128 0x1d
 10733 0228 01       		.byte	0x1
 10734 0229 31       		.uleb128 0x31
 10735 022a 13       		.uleb128 0x13
 10736 022b 52       		.uleb128 0x52
 10737 022c 01       		.uleb128 0x1
 10738 022d 55       		.uleb128 0x55
 10739 022e 17       		.uleb128 0x17
 10740 022f 58       		.uleb128 0x58
 10741 0230 0B       		.uleb128 0xb
 10742 0231 59       		.uleb128 0x59
 10743 0232 05       		.uleb128 0x5
 10744 0233 01       		.uleb128 0x1
 10745 0234 13       		.uleb128 0x13
 10746 0235 00       		.byte	0
 10747 0236 00       		.byte	0
 10748 0237 2E       		.uleb128 0x2e
 10749 0238 34       		.uleb128 0x34
 10750 0239 00       		.byte	0
 10751 023a 31       		.uleb128 0x31
 10752 023b 13       		.uleb128 0x13
 10753 023c 02       		.uleb128 0x2
 10754 023d 18       		.uleb128 0x18
 10755 023e 00       		.byte	0
 10756 023f 00       		.byte	0
 10757 0240 2F       		.uleb128 0x2f
 10758 0241 898201   		.uleb128 0x4109
 10759 0244 01       		.byte	0x1
 10760 0245 11       		.uleb128 0x11
 10761 0246 01       		.uleb128 0x1
 10762 0247 31       		.uleb128 0x31
 10763 0248 13       		.uleb128 0x13
 10764 0249 00       		.byte	0
 10765 024a 00       		.byte	0
 10766 024b 30       		.uleb128 0x30
ARM GAS  C:\Users\pearlstl\AppData\Local\Temp\ccbpFzqf.s 			page 218


 10767 024c 05       		.uleb128 0x5
 10768 024d 00       		.byte	0
 10769 024e 31       		.uleb128 0x31
 10770 024f 13       		.uleb128 0x13
 10771 0250 00       		.byte	0
 10772 0251 00       		.byte	0
 10773 0252 31       		.uleb128 0x31
 10774 0253 0B       		.uleb128 0xb
 10775 0254 01       		.byte	0x1
 10776 0255 11       		.uleb128 0x11
 10777 0256 01       		.uleb128 0x1
 10778 0257 12       		.uleb128 0x12
 10779 0258 06       		.uleb128 0x6
 10780 0259 01       		.uleb128 0x1
 10781 025a 13       		.uleb128 0x13
 10782 025b 00       		.byte	0
 10783 025c 00       		.byte	0
 10784 025d 32       		.uleb128 0x32
 10785 025e 898201   		.uleb128 0x4109
 10786 0261 01       		.byte	0x1
 10787 0262 11       		.uleb128 0x11
 10788 0263 01       		.uleb128 0x1
 10789 0264 9542     		.uleb128 0x2115
 10790 0266 19       		.uleb128 0x19
 10791 0267 31       		.uleb128 0x31
 10792 0268 13       		.uleb128 0x13
 10793 0269 00       		.byte	0
 10794 026a 00       		.byte	0
 10795 026b 33       		.uleb128 0x33
 10796 026c 1D       		.uleb128 0x1d
 10797 026d 01       		.byte	0x1
 10798 026e 31       		.uleb128 0x31
 10799 026f 13       		.uleb128 0x13
 10800 0270 52       		.uleb128 0x52
 10801 0271 01       		.uleb128 0x1
 10802 0272 55       		.uleb128 0x55
 10803 0273 17       		.uleb128 0x17
 10804 0274 58       		.uleb128 0x58
 10805 0275 0B       		.uleb128 0xb
 10806 0276 59       		.uleb128 0x59
 10807 0277 05       		.uleb128 0x5
 10808 0278 00       		.byte	0
 10809 0279 00       		.byte	0
 10810 027a 34       		.uleb128 0x34
 10811 027b 898201   		.uleb128 0x4109
 10812 027e 01       		.byte	0x1
 10813 027f 11       		.uleb128 0x11
 10814 0280 01       		.uleb128 0x1
 10815 0281 9342     		.uleb128 0x2113
 10816 0283 18       		.uleb128 0x18
 10817 0284 01       		.uleb128 0x1
 10818 0285 13       		.uleb128 0x13
 10819 0286 00       		.byte	0
 10820 0287 00       		.byte	0
 10821 0288 35       		.uleb128 0x35
 10822 0289 1D       		.uleb128 0x1d
 10823 028a 01       		.byte	0x1
ARM GAS  C:\Users\pearlstl\AppData\Local\Temp\ccbpFzqf.s 			page 219


 10824 028b 31       		.uleb128 0x31
 10825 028c 13       		.uleb128 0x13
 10826 028d 11       		.uleb128 0x11
 10827 028e 01       		.uleb128 0x1
 10828 028f 12       		.uleb128 0x12
 10829 0290 06       		.uleb128 0x6
 10830 0291 58       		.uleb128 0x58
 10831 0292 0B       		.uleb128 0xb
 10832 0293 59       		.uleb128 0x59
 10833 0294 05       		.uleb128 0x5
 10834 0295 00       		.byte	0
 10835 0296 00       		.byte	0
 10836 0297 36       		.uleb128 0x36
 10837 0298 0B       		.uleb128 0xb
 10838 0299 01       		.byte	0x1
 10839 029a 11       		.uleb128 0x11
 10840 029b 01       		.uleb128 0x1
 10841 029c 12       		.uleb128 0x12
 10842 029d 06       		.uleb128 0x6
 10843 029e 00       		.byte	0
 10844 029f 00       		.byte	0
 10845 02a0 37       		.uleb128 0x37
 10846 02a1 1D       		.uleb128 0x1d
 10847 02a2 01       		.byte	0x1
 10848 02a3 31       		.uleb128 0x31
 10849 02a4 13       		.uleb128 0x13
 10850 02a5 11       		.uleb128 0x11
 10851 02a6 01       		.uleb128 0x1
 10852 02a7 12       		.uleb128 0x12
 10853 02a8 06       		.uleb128 0x6
 10854 02a9 58       		.uleb128 0x58
 10855 02aa 0B       		.uleb128 0xb
 10856 02ab 59       		.uleb128 0x59
 10857 02ac 05       		.uleb128 0x5
 10858 02ad 01       		.uleb128 0x1
 10859 02ae 13       		.uleb128 0x13
 10860 02af 00       		.byte	0
 10861 02b0 00       		.byte	0
 10862 02b1 38       		.uleb128 0x38
 10863 02b2 2E       		.uleb128 0x2e
 10864 02b3 01       		.byte	0x1
 10865 02b4 3F       		.uleb128 0x3f
 10866 02b5 19       		.uleb128 0x19
 10867 02b6 03       		.uleb128 0x3
 10868 02b7 0E       		.uleb128 0xe
 10869 02b8 3A       		.uleb128 0x3a
 10870 02b9 0B       		.uleb128 0xb
 10871 02ba 3B       		.uleb128 0x3b
 10872 02bb 05       		.uleb128 0x5
 10873 02bc 27       		.uleb128 0x27
 10874 02bd 19       		.uleb128 0x19
 10875 02be 49       		.uleb128 0x49
 10876 02bf 13       		.uleb128 0x13
 10877 02c0 11       		.uleb128 0x11
 10878 02c1 01       		.uleb128 0x1
 10879 02c2 12       		.uleb128 0x12
 10880 02c3 06       		.uleb128 0x6
ARM GAS  C:\Users\pearlstl\AppData\Local\Temp\ccbpFzqf.s 			page 220


 10881 02c4 40       		.uleb128 0x40
 10882 02c5 18       		.uleb128 0x18
 10883 02c6 9742     		.uleb128 0x2117
 10884 02c8 19       		.uleb128 0x19
 10885 02c9 01       		.uleb128 0x1
 10886 02ca 13       		.uleb128 0x13
 10887 02cb 00       		.byte	0
 10888 02cc 00       		.byte	0
 10889 02cd 39       		.uleb128 0x39
 10890 02ce 05       		.uleb128 0x5
 10891 02cf 00       		.byte	0
 10892 02d0 03       		.uleb128 0x3
 10893 02d1 0E       		.uleb128 0xe
 10894 02d2 3A       		.uleb128 0x3a
 10895 02d3 0B       		.uleb128 0xb
 10896 02d4 3B       		.uleb128 0x3b
 10897 02d5 05       		.uleb128 0x5
 10898 02d6 49       		.uleb128 0x49
 10899 02d7 13       		.uleb128 0x13
 10900 02d8 02       		.uleb128 0x2
 10901 02d9 17       		.uleb128 0x17
 10902 02da 00       		.byte	0
 10903 02db 00       		.byte	0
 10904 02dc 3A       		.uleb128 0x3a
 10905 02dd 05       		.uleb128 0x5
 10906 02de 00       		.byte	0
 10907 02df 03       		.uleb128 0x3
 10908 02e0 0E       		.uleb128 0xe
 10909 02e1 3A       		.uleb128 0x3a
 10910 02e2 0B       		.uleb128 0xb
 10911 02e3 3B       		.uleb128 0x3b
 10912 02e4 05       		.uleb128 0x5
 10913 02e5 49       		.uleb128 0x49
 10914 02e6 13       		.uleb128 0x13
 10915 02e7 02       		.uleb128 0x2
 10916 02e8 18       		.uleb128 0x18
 10917 02e9 00       		.byte	0
 10918 02ea 00       		.byte	0
 10919 02eb 3B       		.uleb128 0x3b
 10920 02ec 18       		.uleb128 0x18
 10921 02ed 00       		.byte	0
 10922 02ee 00       		.byte	0
 10923 02ef 00       		.byte	0
 10924 02f0 3C       		.uleb128 0x3c
 10925 02f1 34       		.uleb128 0x34
 10926 02f2 00       		.byte	0
 10927 02f3 03       		.uleb128 0x3
 10928 02f4 08       		.uleb128 0x8
 10929 02f5 3A       		.uleb128 0x3a
 10930 02f6 0B       		.uleb128 0xb
 10931 02f7 3B       		.uleb128 0x3b
 10932 02f8 05       		.uleb128 0x5
 10933 02f9 49       		.uleb128 0x49
 10934 02fa 13       		.uleb128 0x13
 10935 02fb 02       		.uleb128 0x2
 10936 02fc 18       		.uleb128 0x18
 10937 02fd 00       		.byte	0
ARM GAS  C:\Users\pearlstl\AppData\Local\Temp\ccbpFzqf.s 			page 221


 10938 02fe 00       		.byte	0
 10939 02ff 3D       		.uleb128 0x3d
 10940 0300 2E       		.uleb128 0x2e
 10941 0301 01       		.byte	0x1
 10942 0302 3F       		.uleb128 0x3f
 10943 0303 19       		.uleb128 0x19
 10944 0304 03       		.uleb128 0x3
 10945 0305 0E       		.uleb128 0xe
 10946 0306 3A       		.uleb128 0x3a
 10947 0307 0B       		.uleb128 0xb
 10948 0308 3B       		.uleb128 0x3b
 10949 0309 05       		.uleb128 0x5
 10950 030a 27       		.uleb128 0x27
 10951 030b 19       		.uleb128 0x19
 10952 030c 49       		.uleb128 0x49
 10953 030d 13       		.uleb128 0x13
 10954 030e 11       		.uleb128 0x11
 10955 030f 01       		.uleb128 0x1
 10956 0310 12       		.uleb128 0x12
 10957 0311 06       		.uleb128 0x6
 10958 0312 40       		.uleb128 0x40
 10959 0313 18       		.uleb128 0x18
 10960 0314 9742     		.uleb128 0x2117
 10961 0316 19       		.uleb128 0x19
 10962 0317 00       		.byte	0
 10963 0318 00       		.byte	0
 10964 0319 3E       		.uleb128 0x3e
 10965 031a 05       		.uleb128 0x5
 10966 031b 00       		.byte	0
 10967 031c 03       		.uleb128 0x3
 10968 031d 08       		.uleb128 0x8
 10969 031e 3A       		.uleb128 0x3a
 10970 031f 0B       		.uleb128 0xb
 10971 0320 3B       		.uleb128 0x3b
 10972 0321 05       		.uleb128 0x5
 10973 0322 49       		.uleb128 0x49
 10974 0323 13       		.uleb128 0x13
 10975 0324 02       		.uleb128 0x2
 10976 0325 17       		.uleb128 0x17
 10977 0326 00       		.byte	0
 10978 0327 00       		.byte	0
 10979 0328 00       		.byte	0
 10980              		.section	.debug_loc,"",%progbits
 10981              	.Ldebug_loc0:
 10982              	.LLST0:
 10983 0000 00000000 		.4byte	.LVL2
 10984 0004 7E000000 		.4byte	.LVL12
 10985 0008 0100     		.2byte	0x1
 10986 000a 50       		.byte	0x50
 10987 000b 7E000000 		.4byte	.LVL12
 10988 000f 40010000 		.4byte	.LVL38
 10989 0013 0100     		.2byte	0x1
 10990 0015 57       		.byte	0x57
 10991 0016 40010000 		.4byte	.LVL38
 10992 001a 60010000 		.4byte	.LVL41
 10993 001e 0100     		.2byte	0x1
 10994 0020 50       		.byte	0x50
ARM GAS  C:\Users\pearlstl\AppData\Local\Temp\ccbpFzqf.s 			page 222


 10995 0021 60010000 		.4byte	.LVL41
 10996 0025 70010000 		.4byte	.LVL43
 10997 0029 0100     		.2byte	0x1
 10998 002b 57       		.byte	0x57
 10999 002c 70010000 		.4byte	.LVL43
 11000 0030 82010000 		.4byte	.LVL45
 11001 0034 0100     		.2byte	0x1
 11002 0036 50       		.byte	0x50
 11003 0037 82010000 		.4byte	.LVL45
 11004 003b A6010000 		.4byte	.LVL51
 11005 003f 0100     		.2byte	0x1
 11006 0041 57       		.byte	0x57
 11007 0042 A6010000 		.4byte	.LVL51
 11008 0046 AC010000 		.4byte	.LVL53
 11009 004a 0100     		.2byte	0x1
 11010 004c 50       		.byte	0x50
 11011 004d AC010000 		.4byte	.LVL53
 11012 0051 B0010000 		.4byte	.LVL54
 11013 0055 0100     		.2byte	0x1
 11014 0057 57       		.byte	0x57
 11015 0058 B0010000 		.4byte	.LVL54
 11016 005c C2010000 		.4byte	.LVL57
 11017 0060 0100     		.2byte	0x1
 11018 0062 50       		.byte	0x50
 11019 0063 C2010000 		.4byte	.LVL57
 11020 0067 08020000 		.4byte	.LFE6
 11021 006b 0100     		.2byte	0x1
 11022 006d 57       		.byte	0x57
 11023 006e 00000000 		.4byte	0
 11024 0072 00000000 		.4byte	0
 11025              	.LLST1:
 11026 0076 00000000 		.4byte	.LVL2
 11027 007a 36000000 		.4byte	.LVL5
 11028 007e 0100     		.2byte	0x1
 11029 0080 51       		.byte	0x51
 11030 0081 36000000 		.4byte	.LVL5
 11031 0085 40010000 		.4byte	.LVL38
 11032 0089 0100     		.2byte	0x1
 11033 008b 58       		.byte	0x58
 11034 008c 40010000 		.4byte	.LVL38
 11035 0090 44010000 		.4byte	.LVL39
 11036 0094 0100     		.2byte	0x1
 11037 0096 51       		.byte	0x51
 11038 0097 44010000 		.4byte	.LVL39
 11039 009b 08020000 		.4byte	.LFE6
 11040 009f 0100     		.2byte	0x1
 11041 00a1 58       		.byte	0x58
 11042 00a2 00000000 		.4byte	0
 11043 00a6 00000000 		.4byte	0
 11044              	.LLST2:
 11045 00aa 00000000 		.4byte	.LVL2
 11046 00ae 3E000000 		.4byte	.LVL7
 11047 00b2 0100     		.2byte	0x1
 11048 00b4 52       		.byte	0x52
 11049 00b5 3E000000 		.4byte	.LVL7
 11050 00b9 96000000 		.4byte	.LVL13
 11051 00bd 0200     		.2byte	0x2
ARM GAS  C:\Users\pearlstl\AppData\Local\Temp\ccbpFzqf.s 			page 223


 11052 00bf 7D       		.byte	0x7d
 11053 00c0 00       		.sleb128 0
 11054 00c1 96000000 		.4byte	.LVL13
 11055 00c5 40010000 		.4byte	.LVL38
 11056 00c9 0400     		.2byte	0x4
 11057 00cb F3       		.byte	0xf3
 11058 00cc 01       		.uleb128 0x1
 11059 00cd 52       		.byte	0x52
 11060 00ce 9F       		.byte	0x9f
 11061 00cf 40010000 		.4byte	.LVL38
 11062 00d3 60010000 		.4byte	.LVL41
 11063 00d7 0100     		.2byte	0x1
 11064 00d9 52       		.byte	0x52
 11065 00da 60010000 		.4byte	.LVL41
 11066 00de 70010000 		.4byte	.LVL43
 11067 00e2 0400     		.2byte	0x4
 11068 00e4 F3       		.byte	0xf3
 11069 00e5 01       		.uleb128 0x1
 11070 00e6 52       		.byte	0x52
 11071 00e7 9F       		.byte	0x9f
 11072 00e8 70010000 		.4byte	.LVL43
 11073 00ec 7C010000 		.4byte	.LVL44
 11074 00f0 0100     		.2byte	0x1
 11075 00f2 52       		.byte	0x52
 11076 00f3 7C010000 		.4byte	.LVL44
 11077 00f7 9E010000 		.4byte	.LVL49
 11078 00fb 0200     		.2byte	0x2
 11079 00fd 7D       		.byte	0x7d
 11080 00fe 00       		.sleb128 0
 11081 00ff 9E010000 		.4byte	.LVL49
 11082 0103 A6010000 		.4byte	.LVL51
 11083 0107 0400     		.2byte	0x4
 11084 0109 F3       		.byte	0xf3
 11085 010a 01       		.uleb128 0x1
 11086 010b 52       		.byte	0x52
 11087 010c 9F       		.byte	0x9f
 11088 010d A6010000 		.4byte	.LVL51
 11089 0111 AC010000 		.4byte	.LVL53
 11090 0115 0100     		.2byte	0x1
 11091 0117 52       		.byte	0x52
 11092 0118 AC010000 		.4byte	.LVL53
 11093 011c B0010000 		.4byte	.LVL54
 11094 0120 0200     		.2byte	0x2
 11095 0122 7D       		.byte	0x7d
 11096 0123 00       		.sleb128 0
 11097 0124 B0010000 		.4byte	.LVL54
 11098 0128 B8010000 		.4byte	.LVL55
 11099 012c 0100     		.2byte	0x1
 11100 012e 52       		.byte	0x52
 11101 012f B8010000 		.4byte	.LVL55
 11102 0133 C2010000 		.4byte	.LVL57
 11103 0137 0200     		.2byte	0x2
 11104 0139 7D       		.byte	0x7d
 11105 013a 00       		.sleb128 0
 11106 013b C2010000 		.4byte	.LVL57
 11107 013f D2010000 		.4byte	.LVL59
 11108 0143 0400     		.2byte	0x4
ARM GAS  C:\Users\pearlstl\AppData\Local\Temp\ccbpFzqf.s 			page 224


 11109 0145 F3       		.byte	0xf3
 11110 0146 01       		.uleb128 0x1
 11111 0147 52       		.byte	0x52
 11112 0148 9F       		.byte	0x9f
 11113 0149 D2010000 		.4byte	.LVL59
 11114 014d E4010000 		.4byte	.LVL62
 11115 0151 0200     		.2byte	0x2
 11116 0153 7D       		.byte	0x7d
 11117 0154 00       		.sleb128 0
 11118 0155 E4010000 		.4byte	.LVL62
 11119 0159 E8010000 		.4byte	.LVL64
 11120 015d 0400     		.2byte	0x4
 11121 015f F3       		.byte	0xf3
 11122 0160 01       		.uleb128 0x1
 11123 0161 52       		.byte	0x52
 11124 0162 9F       		.byte	0x9f
 11125 0163 E8010000 		.4byte	.LVL64
 11126 0167 F4010000 		.4byte	.LVL66
 11127 016b 0200     		.2byte	0x2
 11128 016d 7D       		.byte	0x7d
 11129 016e 00       		.sleb128 0
 11130 016f F4010000 		.4byte	.LVL66
 11131 0173 F8010000 		.4byte	.LVL68
 11132 0177 0400     		.2byte	0x4
 11133 0179 F3       		.byte	0xf3
 11134 017a 01       		.uleb128 0x1
 11135 017b 52       		.byte	0x52
 11136 017c 9F       		.byte	0x9f
 11137 017d F8010000 		.4byte	.LVL68
 11138 0181 04020000 		.4byte	.LVL70
 11139 0185 0200     		.2byte	0x2
 11140 0187 7D       		.byte	0x7d
 11141 0188 00       		.sleb128 0
 11142 0189 04020000 		.4byte	.LVL70
 11143 018d 08020000 		.4byte	.LFE6
 11144 0191 0400     		.2byte	0x4
 11145 0193 F3       		.byte	0xf3
 11146 0194 01       		.uleb128 0x1
 11147 0195 52       		.byte	0x52
 11148 0196 9F       		.byte	0x9f
 11149 0197 00000000 		.4byte	0
 11150 019b 00000000 		.4byte	0
 11151              	.LLST3:
 11152 019f 00000000 		.4byte	.LVL2
 11153 01a3 1C000000 		.4byte	.LVL3
 11154 01a7 0100     		.2byte	0x1
 11155 01a9 53       		.byte	0x53
 11156 01aa 1C000000 		.4byte	.LVL3
 11157 01ae 08020000 		.4byte	.LFE6
 11158 01b2 0100     		.2byte	0x1
 11159 01b4 59       		.byte	0x59
 11160 01b5 00000000 		.4byte	0
 11161 01b9 00000000 		.4byte	0
 11162              	.LLST4:
 11163 01bd 00000000 		.4byte	.LVL2
 11164 01c1 96000000 		.4byte	.LVL13
 11165 01c5 0200     		.2byte	0x2
ARM GAS  C:\Users\pearlstl\AppData\Local\Temp\ccbpFzqf.s 			page 225


 11166 01c7 91       		.byte	0x91
 11167 01c8 00       		.sleb128 0
 11168 01c9 40010000 		.4byte	.LVL38
 11169 01cd 60010000 		.4byte	.LVL41
 11170 01d1 0200     		.2byte	0x2
 11171 01d3 91       		.byte	0x91
 11172 01d4 00       		.sleb128 0
 11173 01d5 70010000 		.4byte	.LVL43
 11174 01d9 9E010000 		.4byte	.LVL49
 11175 01dd 0200     		.2byte	0x2
 11176 01df 91       		.byte	0x91
 11177 01e0 00       		.sleb128 0
 11178 01e1 A6010000 		.4byte	.LVL51
 11179 01e5 C2010000 		.4byte	.LVL57
 11180 01e9 0200     		.2byte	0x2
 11181 01eb 91       		.byte	0x91
 11182 01ec 00       		.sleb128 0
 11183 01ed D2010000 		.4byte	.LVL59
 11184 01f1 E4010000 		.4byte	.LVL62
 11185 01f5 0200     		.2byte	0x2
 11186 01f7 91       		.byte	0x91
 11187 01f8 00       		.sleb128 0
 11188 01f9 E8010000 		.4byte	.LVL64
 11189 01fd F4010000 		.4byte	.LVL66
 11190 0201 0200     		.2byte	0x2
 11191 0203 91       		.byte	0x91
 11192 0204 00       		.sleb128 0
 11193 0205 F8010000 		.4byte	.LVL68
 11194 0209 04020000 		.4byte	.LVL70
 11195 020d 0200     		.2byte	0x2
 11196 020f 91       		.byte	0x91
 11197 0210 00       		.sleb128 0
 11198 0211 00000000 		.4byte	0
 11199 0215 00000000 		.4byte	0
 11200              	.LLST5:
 11201 0219 00000000 		.4byte	.LVL2
 11202 021d 2C000000 		.4byte	.LVL4
 11203 0221 0200     		.2byte	0x2
 11204 0223 91       		.byte	0x91
 11205 0224 04       		.sleb128 4
 11206 0225 2C000000 		.4byte	.LVL4
 11207 0229 66000000 		.4byte	.LVL9
 11208 022d 0100     		.2byte	0x1
 11209 022f 54       		.byte	0x54
 11210 0230 66000000 		.4byte	.LVL9
 11211 0234 7C000000 		.4byte	.LVL11
 11212 0238 0100     		.2byte	0x1
 11213 023a 53       		.byte	0x53
 11214 023b 7C000000 		.4byte	.LVL11
 11215 023f 9A000000 		.4byte	.LVL14
 11216 0243 0100     		.2byte	0x1
 11217 0245 54       		.byte	0x54
 11218 0246 9A000000 		.4byte	.LVL14
 11219 024a A2000000 		.4byte	.LVL15
 11220 024e 0300     		.2byte	0x3
 11221 0250 74       		.byte	0x74
 11222 0251 01       		.sleb128 1
ARM GAS  C:\Users\pearlstl\AppData\Local\Temp\ccbpFzqf.s 			page 226


 11223 0252 9F       		.byte	0x9f
 11224 0253 A2000000 		.4byte	.LVL15
 11225 0257 B6000000 		.4byte	.LVL16
 11226 025b 0100     		.2byte	0x1
 11227 025d 54       		.byte	0x54
 11228 025e B6000000 		.4byte	.LVL16
 11229 0262 BE000000 		.4byte	.LVL17
 11230 0266 0300     		.2byte	0x3
 11231 0268 74       		.byte	0x74
 11232 0269 01       		.sleb128 1
 11233 026a 9F       		.byte	0x9f
 11234 026b BE000000 		.4byte	.LVL17
 11235 026f E8000000 		.4byte	.LVL25
 11236 0273 0100     		.2byte	0x1
 11237 0275 54       		.byte	0x54
 11238 0276 0E010000 		.4byte	.LVL31
 11239 027a 40010000 		.4byte	.LVL38
 11240 027e 0100     		.2byte	0x1
 11241 0280 54       		.byte	0x54
 11242 0281 40010000 		.4byte	.LVL38
 11243 0285 52010000 		.4byte	.LVL40
 11244 0289 0200     		.2byte	0x2
 11245 028b 91       		.byte	0x91
 11246 028c 04       		.sleb128 4
 11247 028d 52010000 		.4byte	.LVL40
 11248 0291 60010000 		.4byte	.LVL41
 11249 0295 0100     		.2byte	0x1
 11250 0297 54       		.byte	0x54
 11251 0298 60010000 		.4byte	.LVL41
 11252 029c 6C010000 		.4byte	.LVL42
 11253 02a0 0300     		.2byte	0x3
 11254 02a2 74       		.byte	0x74
 11255 02a3 01       		.sleb128 1
 11256 02a4 9F       		.byte	0x9f
 11257 02a5 6C010000 		.4byte	.LVL42
 11258 02a9 7C010000 		.4byte	.LVL44
 11259 02ad 0100     		.2byte	0x1
 11260 02af 54       		.byte	0x54
 11261 02b0 7C010000 		.4byte	.LVL44
 11262 02b4 82010000 		.4byte	.LVL45
 11263 02b8 0100     		.2byte	0x1
 11264 02ba 53       		.byte	0x53
 11265 02bb 82010000 		.4byte	.LVL45
 11266 02bf 8E010000 		.4byte	.LVL46
 11267 02c3 0100     		.2byte	0x1
 11268 02c5 54       		.byte	0x54
 11269 02c6 8E010000 		.4byte	.LVL46
 11270 02ca 90010000 		.4byte	.LVL47
 11271 02ce 0300     		.2byte	0x3
 11272 02d0 74       		.byte	0x74
 11273 02d1 7F       		.sleb128 -1
 11274 02d2 9F       		.byte	0x9f
 11275 02d3 90010000 		.4byte	.LVL47
 11276 02d7 9C010000 		.4byte	.LVL48
 11277 02db 0100     		.2byte	0x1
 11278 02dd 53       		.byte	0x53
 11279 02de 9C010000 		.4byte	.LVL48
ARM GAS  C:\Users\pearlstl\AppData\Local\Temp\ccbpFzqf.s 			page 227


 11280 02e2 A6010000 		.4byte	.LVL51
 11281 02e6 0100     		.2byte	0x1
 11282 02e8 54       		.byte	0x54
 11283 02e9 A6010000 		.4byte	.LVL51
 11284 02ed AC010000 		.4byte	.LVL53
 11285 02f1 0200     		.2byte	0x2
 11286 02f3 91       		.byte	0x91
 11287 02f4 04       		.sleb128 4
 11288 02f5 AC010000 		.4byte	.LVL53
 11289 02f9 B0010000 		.4byte	.LVL54
 11290 02fd 0100     		.2byte	0x1
 11291 02ff 53       		.byte	0x53
 11292 0300 B0010000 		.4byte	.LVL54
 11293 0304 BA010000 		.4byte	.LVL56
 11294 0308 0100     		.2byte	0x1
 11295 030a 54       		.byte	0x54
 11296 030b BA010000 		.4byte	.LVL56
 11297 030f C2010000 		.4byte	.LVL57
 11298 0313 0100     		.2byte	0x1
 11299 0315 53       		.byte	0x53
 11300 0316 C2010000 		.4byte	.LVL57
 11301 031a CE010000 		.4byte	.LVL58
 11302 031e 0300     		.2byte	0x3
 11303 0320 74       		.byte	0x74
 11304 0321 01       		.sleb128 1
 11305 0322 9F       		.byte	0x9f
 11306 0323 CE010000 		.4byte	.LVL58
 11307 0327 D2010000 		.4byte	.LVL59
 11308 032b 0100     		.2byte	0x1
 11309 032d 54       		.byte	0x54
 11310 032e D2010000 		.4byte	.LVL59
 11311 0332 D4010000 		.4byte	.LVL60
 11312 0336 0100     		.2byte	0x1
 11313 0338 53       		.byte	0x53
 11314 0339 D4010000 		.4byte	.LVL60
 11315 033d DE010000 		.4byte	.LVL61
 11316 0341 0100     		.2byte	0x1
 11317 0343 54       		.byte	0x54
 11318 0344 DE010000 		.4byte	.LVL61
 11319 0348 E6010000 		.4byte	.LVL63
 11320 034c 0300     		.2byte	0x3
 11321 034e 74       		.byte	0x74
 11322 034f 01       		.sleb128 1
 11323 0350 9F       		.byte	0x9f
 11324 0351 E6010000 		.4byte	.LVL63
 11325 0355 EE010000 		.4byte	.LVL65
 11326 0359 0100     		.2byte	0x1
 11327 035b 54       		.byte	0x54
 11328 035c EE010000 		.4byte	.LVL65
 11329 0360 F6010000 		.4byte	.LVL67
 11330 0364 0300     		.2byte	0x3
 11331 0366 74       		.byte	0x74
 11332 0367 01       		.sleb128 1
 11333 0368 9F       		.byte	0x9f
 11334 0369 F6010000 		.4byte	.LVL67
 11335 036d FE010000 		.4byte	.LVL69
 11336 0371 0100     		.2byte	0x1
ARM GAS  C:\Users\pearlstl\AppData\Local\Temp\ccbpFzqf.s 			page 228


 11337 0373 54       		.byte	0x54
 11338 0374 FE010000 		.4byte	.LVL69
 11339 0378 06020000 		.4byte	.LVL71
 11340 037c 0300     		.2byte	0x3
 11341 037e 74       		.byte	0x74
 11342 037f 01       		.sleb128 1
 11343 0380 9F       		.byte	0x9f
 11344 0381 06020000 		.4byte	.LVL71
 11345 0385 08020000 		.4byte	.LFE6
 11346 0389 0100     		.2byte	0x1
 11347 038b 54       		.byte	0x54
 11348 038c 00000000 		.4byte	0
 11349 0390 00000000 		.4byte	0
 11350              	.LLST6:
 11351 0394 00000000 		.4byte	.LVL2
 11352 0398 96000000 		.4byte	.LVL13
 11353 039c 0200     		.2byte	0x2
 11354 039e 91       		.byte	0x91
 11355 039f 08       		.sleb128 8
 11356 03a0 40010000 		.4byte	.LVL38
 11357 03a4 60010000 		.4byte	.LVL41
 11358 03a8 0200     		.2byte	0x2
 11359 03aa 91       		.byte	0x91
 11360 03ab 08       		.sleb128 8
 11361 03ac 70010000 		.4byte	.LVL43
 11362 03b0 9E010000 		.4byte	.LVL49
 11363 03b4 0200     		.2byte	0x2
 11364 03b6 91       		.byte	0x91
 11365 03b7 08       		.sleb128 8
 11366 03b8 A6010000 		.4byte	.LVL51
 11367 03bc C2010000 		.4byte	.LVL57
 11368 03c0 0200     		.2byte	0x2
 11369 03c2 91       		.byte	0x91
 11370 03c3 08       		.sleb128 8
 11371 03c4 D2010000 		.4byte	.LVL59
 11372 03c8 E4010000 		.4byte	.LVL62
 11373 03cc 0200     		.2byte	0x2
 11374 03ce 91       		.byte	0x91
 11375 03cf 08       		.sleb128 8
 11376 03d0 E8010000 		.4byte	.LVL64
 11377 03d4 F4010000 		.4byte	.LVL66
 11378 03d8 0200     		.2byte	0x2
 11379 03da 91       		.byte	0x91
 11380 03db 08       		.sleb128 8
 11381 03dc F8010000 		.4byte	.LVL68
 11382 03e0 04020000 		.4byte	.LVL70
 11383 03e4 0200     		.2byte	0x2
 11384 03e6 91       		.byte	0x91
 11385 03e7 08       		.sleb128 8
 11386 03e8 00000000 		.4byte	0
 11387 03ec 00000000 		.4byte	0
 11388              	.LLST7:
 11389 03f0 00000000 		.4byte	.LVL2
 11390 03f4 96000000 		.4byte	.LVL13
 11391 03f8 0200     		.2byte	0x2
 11392 03fa 91       		.byte	0x91
 11393 03fb 0C       		.sleb128 12
ARM GAS  C:\Users\pearlstl\AppData\Local\Temp\ccbpFzqf.s 			page 229


 11394 03fc 40010000 		.4byte	.LVL38
 11395 0400 60010000 		.4byte	.LVL41
 11396 0404 0200     		.2byte	0x2
 11397 0406 91       		.byte	0x91
 11398 0407 0C       		.sleb128 12
 11399 0408 70010000 		.4byte	.LVL43
 11400 040c 9E010000 		.4byte	.LVL49
 11401 0410 0200     		.2byte	0x2
 11402 0412 91       		.byte	0x91
 11403 0413 0C       		.sleb128 12
 11404 0414 A6010000 		.4byte	.LVL51
 11405 0418 C2010000 		.4byte	.LVL57
 11406 041c 0200     		.2byte	0x2
 11407 041e 91       		.byte	0x91
 11408 041f 0C       		.sleb128 12
 11409 0420 D2010000 		.4byte	.LVL59
 11410 0424 E4010000 		.4byte	.LVL62
 11411 0428 0200     		.2byte	0x2
 11412 042a 91       		.byte	0x91
 11413 042b 0C       		.sleb128 12
 11414 042c E8010000 		.4byte	.LVL64
 11415 0430 F4010000 		.4byte	.LVL66
 11416 0434 0200     		.2byte	0x2
 11417 0436 91       		.byte	0x91
 11418 0437 0C       		.sleb128 12
 11419 0438 F8010000 		.4byte	.LVL68
 11420 043c 04020000 		.4byte	.LVL70
 11421 0440 0200     		.2byte	0x2
 11422 0442 91       		.byte	0x91
 11423 0443 0C       		.sleb128 12
 11424 0444 00000000 		.4byte	0
 11425 0448 00000000 		.4byte	0
 11426              	.LLST8:
 11427 044c 00000000 		.4byte	.LVL2
 11428 0450 96000000 		.4byte	.LVL13
 11429 0454 0200     		.2byte	0x2
 11430 0456 91       		.byte	0x91
 11431 0457 10       		.sleb128 16
 11432 0458 40010000 		.4byte	.LVL38
 11433 045c 60010000 		.4byte	.LVL41
 11434 0460 0200     		.2byte	0x2
 11435 0462 91       		.byte	0x91
 11436 0463 10       		.sleb128 16
 11437 0464 70010000 		.4byte	.LVL43
 11438 0468 9E010000 		.4byte	.LVL49
 11439 046c 0200     		.2byte	0x2
 11440 046e 91       		.byte	0x91
 11441 046f 10       		.sleb128 16
 11442 0470 A6010000 		.4byte	.LVL51
 11443 0474 C2010000 		.4byte	.LVL57
 11444 0478 0200     		.2byte	0x2
 11445 047a 91       		.byte	0x91
 11446 047b 10       		.sleb128 16
 11447 047c D2010000 		.4byte	.LVL59
 11448 0480 E4010000 		.4byte	.LVL62
 11449 0484 0200     		.2byte	0x2
 11450 0486 91       		.byte	0x91
ARM GAS  C:\Users\pearlstl\AppData\Local\Temp\ccbpFzqf.s 			page 230


 11451 0487 10       		.sleb128 16
 11452 0488 E8010000 		.4byte	.LVL64
 11453 048c F4010000 		.4byte	.LVL66
 11454 0490 0200     		.2byte	0x2
 11455 0492 91       		.byte	0x91
 11456 0493 10       		.sleb128 16
 11457 0494 F8010000 		.4byte	.LVL68
 11458 0498 04020000 		.4byte	.LVL70
 11459 049c 0200     		.2byte	0x2
 11460 049e 91       		.byte	0x91
 11461 049f 10       		.sleb128 16
 11462 04a0 00000000 		.4byte	0
 11463 04a4 00000000 		.4byte	0
 11464              	.LLST9:
 11465 04a8 00000000 		.4byte	.LVL2
 11466 04ac 2C000000 		.4byte	.LVL4
 11467 04b0 0200     		.2byte	0x2
 11468 04b2 91       		.byte	0x91
 11469 04b3 14       		.sleb128 20
 11470 04b4 2C000000 		.4byte	.LVL4
 11471 04b8 38000000 		.4byte	.LVL6
 11472 04bc 0200     		.2byte	0x2
 11473 04be 30       		.byte	0x30
 11474 04bf 9F       		.byte	0x9f
 11475 04c0 7C000000 		.4byte	.LVL11
 11476 04c4 AA010000 		.4byte	.LVL52
 11477 04c8 0200     		.2byte	0x2
 11478 04ca 91       		.byte	0x91
 11479 04cb 14       		.sleb128 20
 11480 04cc AA010000 		.4byte	.LVL52
 11481 04d0 AC010000 		.4byte	.LVL53
 11482 04d4 0100     		.2byte	0x1
 11483 04d6 53       		.byte	0x53
 11484 04d7 AC010000 		.4byte	.LVL53
 11485 04db B8010000 		.4byte	.LVL55
 11486 04df 0200     		.2byte	0x2
 11487 04e1 91       		.byte	0x91
 11488 04e2 14       		.sleb128 20
 11489 04e3 BA010000 		.4byte	.LVL56
 11490 04e7 08020000 		.4byte	.LFE6
 11491 04eb 0200     		.2byte	0x2
 11492 04ed 91       		.byte	0x91
 11493 04ee 14       		.sleb128 20
 11494 04ef 00000000 		.4byte	0
 11495 04f3 00000000 		.4byte	0
 11496              	.LLST10:
 11497 04f7 00000000 		.4byte	.LVL2
 11498 04fb 96000000 		.4byte	.LVL13
 11499 04ff 0200     		.2byte	0x2
 11500 0501 91       		.byte	0x91
 11501 0502 18       		.sleb128 24
 11502 0503 40010000 		.4byte	.LVL38
 11503 0507 60010000 		.4byte	.LVL41
 11504 050b 0200     		.2byte	0x2
 11505 050d 91       		.byte	0x91
 11506 050e 18       		.sleb128 24
 11507 050f 70010000 		.4byte	.LVL43
ARM GAS  C:\Users\pearlstl\AppData\Local\Temp\ccbpFzqf.s 			page 231


 11508 0513 9E010000 		.4byte	.LVL49
 11509 0517 0200     		.2byte	0x2
 11510 0519 91       		.byte	0x91
 11511 051a 18       		.sleb128 24
 11512 051b A6010000 		.4byte	.LVL51
 11513 051f C2010000 		.4byte	.LVL57
 11514 0523 0200     		.2byte	0x2
 11515 0525 91       		.byte	0x91
 11516 0526 18       		.sleb128 24
 11517 0527 D2010000 		.4byte	.LVL59
 11518 052b E4010000 		.4byte	.LVL62
 11519 052f 0200     		.2byte	0x2
 11520 0531 91       		.byte	0x91
 11521 0532 18       		.sleb128 24
 11522 0533 E8010000 		.4byte	.LVL64
 11523 0537 F4010000 		.4byte	.LVL66
 11524 053b 0200     		.2byte	0x2
 11525 053d 91       		.byte	0x91
 11526 053e 18       		.sleb128 24
 11527 053f F8010000 		.4byte	.LVL68
 11528 0543 04020000 		.4byte	.LVL70
 11529 0547 0200     		.2byte	0x2
 11530 0549 91       		.byte	0x91
 11531 054a 18       		.sleb128 24
 11532 054b 00000000 		.4byte	0
 11533 054f 00000000 		.4byte	0
 11534              	.LLST11:
 11535 0553 BE000000 		.4byte	.LVL17
 11536 0557 C4000000 		.4byte	.LVL18
 11537 055b 0100     		.2byte	0x1
 11538 055d 55       		.byte	0x55
 11539 055e 0E010000 		.4byte	.LVL31
 11540 0562 20010000 		.4byte	.LVL33
 11541 0566 0100     		.2byte	0x1
 11542 0568 55       		.byte	0x55
 11543 0569 6C010000 		.4byte	.LVL42
 11544 056d 70010000 		.4byte	.LVL43
 11545 0571 0100     		.2byte	0x1
 11546 0573 55       		.byte	0x55
 11547 0574 9E010000 		.4byte	.LVL49
 11548 0578 A0010000 		.4byte	.LVL50
 11549 057c 0100     		.2byte	0x1
 11550 057e 55       		.byte	0x55
 11551 057f CE010000 		.4byte	.LVL58
 11552 0583 D2010000 		.4byte	.LVL59
 11553 0587 0100     		.2byte	0x1
 11554 0589 55       		.byte	0x55
 11555 058a 00000000 		.4byte	0
 11556 058e 00000000 		.4byte	0
 11557              	.LLST12:
 11558 0592 BE000000 		.4byte	.LVL17
 11559 0596 40010000 		.4byte	.LVL38
 11560 059a 0200     		.2byte	0x2
 11561 059c 91       		.byte	0x91
 11562 059d 14       		.sleb128 20
 11563 059e 6C010000 		.4byte	.LVL42
 11564 05a2 70010000 		.4byte	.LVL43
ARM GAS  C:\Users\pearlstl\AppData\Local\Temp\ccbpFzqf.s 			page 232


 11565 05a6 0200     		.2byte	0x2
 11566 05a8 91       		.byte	0x91
 11567 05a9 14       		.sleb128 20
 11568 05aa 9E010000 		.4byte	.LVL49
 11569 05ae A6010000 		.4byte	.LVL51
 11570 05b2 0200     		.2byte	0x2
 11571 05b4 91       		.byte	0x91
 11572 05b5 14       		.sleb128 20
 11573 05b6 CE010000 		.4byte	.LVL58
 11574 05ba D2010000 		.4byte	.LVL59
 11575 05be 0200     		.2byte	0x2
 11576 05c0 91       		.byte	0x91
 11577 05c1 14       		.sleb128 20
 11578 05c2 00000000 		.4byte	0
 11579 05c6 00000000 		.4byte	0
 11580              	.LLST13:
 11581 05ca BE000000 		.4byte	.LVL17
 11582 05ce CA000000 		.4byte	.LVL20
 11583 05d2 0100     		.2byte	0x1
 11584 05d4 54       		.byte	0x54
 11585 05d5 CA000000 		.4byte	.LVL20
 11586 05d9 E2000000 		.4byte	.LVL23
 11587 05dd 0100     		.2byte	0x1
 11588 05df 56       		.byte	0x56
 11589 05e0 0E010000 		.4byte	.LVL31
 11590 05e4 40010000 		.4byte	.LVL38
 11591 05e8 0100     		.2byte	0x1
 11592 05ea 54       		.byte	0x54
 11593 05eb 6C010000 		.4byte	.LVL42
 11594 05ef 70010000 		.4byte	.LVL43
 11595 05f3 0100     		.2byte	0x1
 11596 05f5 54       		.byte	0x54
 11597 05f6 9E010000 		.4byte	.LVL49
 11598 05fa A6010000 		.4byte	.LVL51
 11599 05fe 0100     		.2byte	0x1
 11600 0600 54       		.byte	0x54
 11601 0601 CE010000 		.4byte	.LVL58
 11602 0605 D2010000 		.4byte	.LVL59
 11603 0609 0100     		.2byte	0x1
 11604 060b 54       		.byte	0x54
 11605 060c 00000000 		.4byte	0
 11606 0610 00000000 		.4byte	0
 11607              	.LLST14:
 11608 0614 BE000000 		.4byte	.LVL17
 11609 0618 C6000000 		.4byte	.LVL19
 11610 061c 0100     		.2byte	0x1
 11611 061e 5A       		.byte	0x5a
 11612 061f 0E010000 		.4byte	.LVL31
 11613 0623 40010000 		.4byte	.LVL38
 11614 0627 0100     		.2byte	0x1
 11615 0629 5A       		.byte	0x5a
 11616 062a 6C010000 		.4byte	.LVL42
 11617 062e 70010000 		.4byte	.LVL43
 11618 0632 0100     		.2byte	0x1
 11619 0634 5A       		.byte	0x5a
 11620 0635 9E010000 		.4byte	.LVL49
 11621 0639 A6010000 		.4byte	.LVL51
ARM GAS  C:\Users\pearlstl\AppData\Local\Temp\ccbpFzqf.s 			page 233


 11622 063d 0100     		.2byte	0x1
 11623 063f 5A       		.byte	0x5a
 11624 0640 CE010000 		.4byte	.LVL58
 11625 0644 D2010000 		.4byte	.LVL59
 11626 0648 0100     		.2byte	0x1
 11627 064a 5A       		.byte	0x5a
 11628 064b 00000000 		.4byte	0
 11629 064f 00000000 		.4byte	0
 11630              	.LLST15:
 11631 0653 BE000000 		.4byte	.LVL17
 11632 0657 40010000 		.4byte	.LVL38
 11633 065b 0100     		.2byte	0x1
 11634 065d 59       		.byte	0x59
 11635 065e 6C010000 		.4byte	.LVL42
 11636 0662 70010000 		.4byte	.LVL43
 11637 0666 0100     		.2byte	0x1
 11638 0668 59       		.byte	0x59
 11639 0669 9E010000 		.4byte	.LVL49
 11640 066d A6010000 		.4byte	.LVL51
 11641 0671 0100     		.2byte	0x1
 11642 0673 59       		.byte	0x59
 11643 0674 CE010000 		.4byte	.LVL58
 11644 0678 D2010000 		.4byte	.LVL59
 11645 067c 0100     		.2byte	0x1
 11646 067e 59       		.byte	0x59
 11647 067f 00000000 		.4byte	0
 11648 0683 00000000 		.4byte	0
 11649              	.LLST16:
 11650 0687 BE000000 		.4byte	.LVL17
 11651 068b C4000000 		.4byte	.LVL18
 11652 068f 0200     		.2byte	0x2
 11653 0691 7D       		.byte	0x7d
 11654 0692 00       		.sleb128 0
 11655 0693 C4000000 		.4byte	.LVL18
 11656 0697 CA000000 		.4byte	.LVL20
 11657 069b 0100     		.2byte	0x1
 11658 069d 55       		.byte	0x55
 11659 069e CA000000 		.4byte	.LVL20
 11660 06a2 D8000000 		.4byte	.LVL21
 11661 06a6 0100     		.2byte	0x1
 11662 06a8 52       		.byte	0x52
 11663 06a9 D8000000 		.4byte	.LVL21
 11664 06ad E2000000 		.4byte	.LVL23
 11665 06b1 0100     		.2byte	0x1
 11666 06b3 5B       		.byte	0x5b
 11667 06b4 E6000000 		.4byte	.LVL24
 11668 06b8 F4000000 		.4byte	.LVL26
 11669 06bc 0100     		.2byte	0x1
 11670 06be 55       		.byte	0x55
 11671 06bf F4000000 		.4byte	.LVL26
 11672 06c3 F6000000 		.4byte	.LVL27
 11673 06c7 0100     		.2byte	0x1
 11674 06c9 52       		.byte	0x52
 11675 06ca F6000000 		.4byte	.LVL27
 11676 06ce 06010000 		.4byte	.LVL29
 11677 06d2 0100     		.2byte	0x1
 11678 06d4 55       		.byte	0x55
ARM GAS  C:\Users\pearlstl\AppData\Local\Temp\ccbpFzqf.s 			page 234


 11679 06d5 0E010000 		.4byte	.LVL31
 11680 06d9 20010000 		.4byte	.LVL33
 11681 06dd 0200     		.2byte	0x2
 11682 06df 7D       		.byte	0x7d
 11683 06e0 00       		.sleb128 0
 11684 06e1 20010000 		.4byte	.LVL33
 11685 06e5 22010000 		.4byte	.LVL34
 11686 06e9 0100     		.2byte	0x1
 11687 06eb 52       		.byte	0x52
 11688 06ec 22010000 		.4byte	.LVL34
 11689 06f0 38010000 		.4byte	.LVL36
 11690 06f4 0100     		.2byte	0x1
 11691 06f6 55       		.byte	0x55
 11692 06f7 3A010000 		.4byte	.LVL37
 11693 06fb 40010000 		.4byte	.LVL38
 11694 06ff 0100     		.2byte	0x1
 11695 0701 55       		.byte	0x55
 11696 0702 6C010000 		.4byte	.LVL42
 11697 0706 70010000 		.4byte	.LVL43
 11698 070a 0200     		.2byte	0x2
 11699 070c 7D       		.byte	0x7d
 11700 070d 00       		.sleb128 0
 11701 070e 9E010000 		.4byte	.LVL49
 11702 0712 A0010000 		.4byte	.LVL50
 11703 0716 0200     		.2byte	0x2
 11704 0718 7D       		.byte	0x7d
 11705 0719 00       		.sleb128 0
 11706 071a A0010000 		.4byte	.LVL50
 11707 071e A6010000 		.4byte	.LVL51
 11708 0722 0100     		.2byte	0x1
 11709 0724 55       		.byte	0x55
 11710 0725 CE010000 		.4byte	.LVL58
 11711 0729 D2010000 		.4byte	.LVL59
 11712 072d 0200     		.2byte	0x2
 11713 072f 7D       		.byte	0x7d
 11714 0730 00       		.sleb128 0
 11715 0731 00000000 		.4byte	0
 11716 0735 00000000 		.4byte	0
 11717              	.LLST17:
 11718 0739 BE000000 		.4byte	.LVL17
 11719 073d 40010000 		.4byte	.LVL38
 11720 0741 0100     		.2byte	0x1
 11721 0743 58       		.byte	0x58
 11722 0744 6C010000 		.4byte	.LVL42
 11723 0748 70010000 		.4byte	.LVL43
 11724 074c 0100     		.2byte	0x1
 11725 074e 58       		.byte	0x58
 11726 074f 9E010000 		.4byte	.LVL49
 11727 0753 A6010000 		.4byte	.LVL51
 11728 0757 0100     		.2byte	0x1
 11729 0759 58       		.byte	0x58
 11730 075a CE010000 		.4byte	.LVL58
 11731 075e D2010000 		.4byte	.LVL59
 11732 0762 0100     		.2byte	0x1
 11733 0764 58       		.byte	0x58
 11734 0765 00000000 		.4byte	0
 11735 0769 00000000 		.4byte	0
ARM GAS  C:\Users\pearlstl\AppData\Local\Temp\ccbpFzqf.s 			page 235


 11736              	.LLST18:
 11737 076d BE000000 		.4byte	.LVL17
 11738 0771 40010000 		.4byte	.LVL38
 11739 0775 0100     		.2byte	0x1
 11740 0777 57       		.byte	0x57
 11741 0778 6C010000 		.4byte	.LVL42
 11742 077c 70010000 		.4byte	.LVL43
 11743 0780 0100     		.2byte	0x1
 11744 0782 57       		.byte	0x57
 11745 0783 9E010000 		.4byte	.LVL49
 11746 0787 A6010000 		.4byte	.LVL51
 11747 078b 0100     		.2byte	0x1
 11748 078d 57       		.byte	0x57
 11749 078e CE010000 		.4byte	.LVL58
 11750 0792 D2010000 		.4byte	.LVL59
 11751 0796 0100     		.2byte	0x1
 11752 0798 57       		.byte	0x57
 11753 0799 00000000 		.4byte	0
 11754 079d 00000000 		.4byte	0
 11755              	.LLST19:
 11756 07a1 BE000000 		.4byte	.LVL17
 11757 07a5 0A010000 		.4byte	.LVL30
 11758 07a9 0200     		.2byte	0x2
 11759 07ab 7D       		.byte	0x7d
 11760 07ac 00       		.sleb128 0
 11761 07ad 0A010000 		.4byte	.LVL30
 11762 07b1 0E010000 		.4byte	.LVL31
 11763 07b5 0200     		.2byte	0x2
 11764 07b7 91       		.byte	0x91
 11765 07b8 50       		.sleb128 -48
 11766 07b9 0E010000 		.4byte	.LVL31
 11767 07bd 40010000 		.4byte	.LVL38
 11768 07c1 0200     		.2byte	0x2
 11769 07c3 7D       		.byte	0x7d
 11770 07c4 00       		.sleb128 0
 11771 07c5 6C010000 		.4byte	.LVL42
 11772 07c9 70010000 		.4byte	.LVL43
 11773 07cd 0200     		.2byte	0x2
 11774 07cf 7D       		.byte	0x7d
 11775 07d0 00       		.sleb128 0
 11776 07d1 9E010000 		.4byte	.LVL49
 11777 07d5 A6010000 		.4byte	.LVL51
 11778 07d9 0200     		.2byte	0x2
 11779 07db 7D       		.byte	0x7d
 11780 07dc 00       		.sleb128 0
 11781 07dd CE010000 		.4byte	.LVL58
 11782 07e1 D2010000 		.4byte	.LVL59
 11783 07e5 0200     		.2byte	0x2
 11784 07e7 7D       		.byte	0x7d
 11785 07e8 00       		.sleb128 0
 11786 07e9 00000000 		.4byte	0
 11787 07ed 00000000 		.4byte	0
 11788              	.LLST20:
 11789 07f1 12010000 		.4byte	.LVL32
 11790 07f5 20010000 		.4byte	.LVL33
 11791 07f9 0100     		.2byte	0x1
 11792 07fb 54       		.byte	0x54
ARM GAS  C:\Users\pearlstl\AppData\Local\Temp\ccbpFzqf.s 			page 236


 11793 07fc 00000000 		.4byte	0
 11794 0800 00000000 		.4byte	0
 11795              	.LLST21:
 11796 0804 00000000 		.4byte	.LVL72
 11797 0808 0E000000 		.4byte	.LVL73
 11798 080c 0100     		.2byte	0x1
 11799 080e 50       		.byte	0x50
 11800 080f 0E000000 		.4byte	.LVL73
 11801 0813 48060000 		.4byte	.LFE10
 11802 0817 0100     		.2byte	0x1
 11803 0819 55       		.byte	0x55
 11804 081a 00000000 		.4byte	0
 11805 081e 00000000 		.4byte	0
 11806              	.LLST22:
 11807 0822 00000000 		.4byte	.LVL72
 11808 0826 19000000 		.4byte	.LVL76-1
 11809 082a 0100     		.2byte	0x1
 11810 082c 51       		.byte	0x51
 11811 082d 19000000 		.4byte	.LVL76-1
 11812 0831 48060000 		.4byte	.LFE10
 11813 0835 0100     		.2byte	0x1
 11814 0837 56       		.byte	0x56
 11815 0838 00000000 		.4byte	0
 11816 083c 00000000 		.4byte	0
 11817              	.LLST23:
 11818 0840 00000000 		.4byte	.LVL72
 11819 0844 14000000 		.4byte	.LVL74
 11820 0848 0100     		.2byte	0x1
 11821 084a 52       		.byte	0x52
 11822 084b 14000000 		.4byte	.LVL74
 11823 084f 48060000 		.4byte	.LFE10
 11824 0853 0100     		.2byte	0x1
 11825 0855 5A       		.byte	0x5a
 11826 0856 00000000 		.4byte	0
 11827 085a 00000000 		.4byte	0
 11828              	.LLST24:
 11829 085e 00000000 		.4byte	.LVL72
 11830 0862 16000000 		.4byte	.LVL75
 11831 0866 0100     		.2byte	0x1
 11832 0868 53       		.byte	0x53
 11833 0869 16000000 		.4byte	.LVL75
 11834 086d 48060000 		.4byte	.LFE10
 11835 0871 0100     		.2byte	0x1
 11836 0873 57       		.byte	0x57
 11837 0874 00000000 		.4byte	0
 11838 0878 00000000 		.4byte	0
 11839              	.LLST25:
 11840 087c 00000000 		.4byte	.LVL72
 11841 0880 D2030000 		.4byte	.LVL159
 11842 0884 0200     		.2byte	0x2
 11843 0886 91       		.byte	0x91
 11844 0887 00       		.sleb128 0
 11845 0888 D2030000 		.4byte	.LVL159
 11846 088c 48060000 		.4byte	.LFE10
 11847 0890 0200     		.2byte	0x2
 11848 0892 91       		.byte	0x91
 11849 0893 00       		.sleb128 0
ARM GAS  C:\Users\pearlstl\AppData\Local\Temp\ccbpFzqf.s 			page 237


 11850 0894 00000000 		.4byte	0
 11851 0898 00000000 		.4byte	0
 11852              	.LLST26:
 11853 089c 00000000 		.4byte	.LVL72
 11854 08a0 D2030000 		.4byte	.LVL159
 11855 08a4 0200     		.2byte	0x2
 11856 08a6 91       		.byte	0x91
 11857 08a7 08       		.sleb128 8
 11858 08a8 D2030000 		.4byte	.LVL159
 11859 08ac 48060000 		.4byte	.LFE10
 11860 08b0 0200     		.2byte	0x2
 11861 08b2 91       		.byte	0x91
 11862 08b3 08       		.sleb128 8
 11863 08b4 00000000 		.4byte	0
 11864 08b8 00000000 		.4byte	0
 11865              	.LLST27:
 11866 08bc 00000000 		.4byte	.LVL72
 11867 08c0 D2030000 		.4byte	.LVL159
 11868 08c4 0200     		.2byte	0x2
 11869 08c6 91       		.byte	0x91
 11870 08c7 0C       		.sleb128 12
 11871 08c8 D2030000 		.4byte	.LVL159
 11872 08cc 48060000 		.4byte	.LFE10
 11873 08d0 0200     		.2byte	0x2
 11874 08d2 91       		.byte	0x91
 11875 08d3 0C       		.sleb128 12
 11876 08d4 00000000 		.4byte	0
 11877 08d8 00000000 		.4byte	0
 11878              	.LLST28:
 11879 08dc 00000000 		.4byte	.LVL72
 11880 08e0 D2030000 		.4byte	.LVL159
 11881 08e4 0200     		.2byte	0x2
 11882 08e6 91       		.byte	0x91
 11883 08e7 10       		.sleb128 16
 11884 08e8 D2030000 		.4byte	.LVL159
 11885 08ec 48060000 		.4byte	.LFE10
 11886 08f0 0200     		.2byte	0x2
 11887 08f2 91       		.byte	0x91
 11888 08f3 10       		.sleb128 16
 11889 08f4 00000000 		.4byte	0
 11890 08f8 00000000 		.4byte	0
 11891              	.LLST29:
 11892 08fc D2030000 		.4byte	.LVL159
 11893 0900 00040000 		.4byte	.LVL162
 11894 0904 0200     		.2byte	0x2
 11895 0906 91       		.byte	0x91
 11896 0907 10       		.sleb128 16
 11897 0908 24040000 		.4byte	.LVL168
 11898 090c 08050000 		.4byte	.LVL197
 11899 0910 0200     		.2byte	0x2
 11900 0912 91       		.byte	0x91
 11901 0913 10       		.sleb128 16
 11902 0914 24050000 		.4byte	.LVL201
 11903 0918 28050000 		.4byte	.LVL202
 11904 091c 0200     		.2byte	0x2
 11905 091e 91       		.byte	0x91
 11906 091f 10       		.sleb128 16
ARM GAS  C:\Users\pearlstl\AppData\Local\Temp\ccbpFzqf.s 			page 238


 11907 0920 00000000 		.4byte	0
 11908 0924 00000000 		.4byte	0
 11909              	.LLST30:
 11910 0928 D2030000 		.4byte	.LVL159
 11911 092c 00040000 		.4byte	.LVL162
 11912 0930 0200     		.2byte	0x2
 11913 0932 91       		.byte	0x91
 11914 0933 0C       		.sleb128 12
 11915 0934 24040000 		.4byte	.LVL168
 11916 0938 08050000 		.4byte	.LVL197
 11917 093c 0200     		.2byte	0x2
 11918 093e 91       		.byte	0x91
 11919 093f 0C       		.sleb128 12
 11920 0940 24050000 		.4byte	.LVL201
 11921 0944 28050000 		.4byte	.LVL202
 11922 0948 0200     		.2byte	0x2
 11923 094a 91       		.byte	0x91
 11924 094b 0C       		.sleb128 12
 11925 094c 00000000 		.4byte	0
 11926 0950 00000000 		.4byte	0
 11927              	.LLST31:
 11928 0954 D2030000 		.4byte	.LVL159
 11929 0958 00040000 		.4byte	.LVL162
 11930 095c 0200     		.2byte	0x2
 11931 095e 91       		.byte	0x91
 11932 095f 08       		.sleb128 8
 11933 0960 24040000 		.4byte	.LVL168
 11934 0964 08050000 		.4byte	.LVL197
 11935 0968 0200     		.2byte	0x2
 11936 096a 91       		.byte	0x91
 11937 096b 08       		.sleb128 8
 11938 096c 24050000 		.4byte	.LVL201
 11939 0970 28050000 		.4byte	.LVL202
 11940 0974 0200     		.2byte	0x2
 11941 0976 91       		.byte	0x91
 11942 0977 08       		.sleb128 8
 11943 0978 00000000 		.4byte	0
 11944 097c 00000000 		.4byte	0
 11945              	.LLST32:
 11946 0980 D2030000 		.4byte	.LVL159
 11947 0984 00040000 		.4byte	.LVL162
 11948 0988 0200     		.2byte	0x2
 11949 098a 91       		.byte	0x91
 11950 098b 00       		.sleb128 0
 11951 098c 24040000 		.4byte	.LVL168
 11952 0990 08050000 		.4byte	.LVL197
 11953 0994 0200     		.2byte	0x2
 11954 0996 91       		.byte	0x91
 11955 0997 00       		.sleb128 0
 11956 0998 24050000 		.4byte	.LVL201
 11957 099c 28050000 		.4byte	.LVL202
 11958 09a0 0200     		.2byte	0x2
 11959 09a2 91       		.byte	0x91
 11960 09a3 00       		.sleb128 0
 11961 09a4 00000000 		.4byte	0
 11962 09a8 00000000 		.4byte	0
 11963              	.LLST33:
ARM GAS  C:\Users\pearlstl\AppData\Local\Temp\ccbpFzqf.s 			page 239


 11964 09ac D2030000 		.4byte	.LVL159
 11965 09b0 00040000 		.4byte	.LVL162
 11966 09b4 0100     		.2byte	0x1
 11967 09b6 57       		.byte	0x57
 11968 09b7 24040000 		.4byte	.LVL168
 11969 09bb 08050000 		.4byte	.LVL197
 11970 09bf 0100     		.2byte	0x1
 11971 09c1 57       		.byte	0x57
 11972 09c2 24050000 		.4byte	.LVL201
 11973 09c6 28050000 		.4byte	.LVL202
 11974 09ca 0100     		.2byte	0x1
 11975 09cc 57       		.byte	0x57
 11976 09cd 00000000 		.4byte	0
 11977 09d1 00000000 		.4byte	0
 11978              	.LLST34:
 11979 09d5 D2030000 		.4byte	.LVL159
 11980 09d9 00040000 		.4byte	.LVL162
 11981 09dd 0100     		.2byte	0x1
 11982 09df 5A       		.byte	0x5a
 11983 09e0 24040000 		.4byte	.LVL168
 11984 09e4 08050000 		.4byte	.LVL197
 11985 09e8 0100     		.2byte	0x1
 11986 09ea 5A       		.byte	0x5a
 11987 09eb 24050000 		.4byte	.LVL201
 11988 09ef 28050000 		.4byte	.LVL202
 11989 09f3 0100     		.2byte	0x1
 11990 09f5 5A       		.byte	0x5a
 11991 09f6 00000000 		.4byte	0
 11992 09fa 00000000 		.4byte	0
 11993              	.LLST35:
 11994 09fe D2030000 		.4byte	.LVL159
 11995 0a02 00040000 		.4byte	.LVL162
 11996 0a06 0100     		.2byte	0x1
 11997 0a08 56       		.byte	0x56
 11998 0a09 24040000 		.4byte	.LVL168
 11999 0a0d 08050000 		.4byte	.LVL197
 12000 0a11 0100     		.2byte	0x1
 12001 0a13 56       		.byte	0x56
 12002 0a14 24050000 		.4byte	.LVL201
 12003 0a18 28050000 		.4byte	.LVL202
 12004 0a1c 0100     		.2byte	0x1
 12005 0a1e 56       		.byte	0x56
 12006 0a1f 00000000 		.4byte	0
 12007 0a23 00000000 		.4byte	0
 12008              	.LLST36:
 12009 0a27 D2030000 		.4byte	.LVL159
 12010 0a2b 00040000 		.4byte	.LVL162
 12011 0a2f 0100     		.2byte	0x1
 12012 0a31 55       		.byte	0x55
 12013 0a32 24040000 		.4byte	.LVL168
 12014 0a36 08050000 		.4byte	.LVL197
 12015 0a3a 0100     		.2byte	0x1
 12016 0a3c 55       		.byte	0x55
 12017 0a3d 24050000 		.4byte	.LVL201
 12018 0a41 28050000 		.4byte	.LVL202
 12019 0a45 0100     		.2byte	0x1
 12020 0a47 55       		.byte	0x55
ARM GAS  C:\Users\pearlstl\AppData\Local\Temp\ccbpFzqf.s 			page 240


 12021 0a48 00000000 		.4byte	0
 12022 0a4c 00000000 		.4byte	0
 12023              	.LLST37:
 12024 0a50 D2030000 		.4byte	.LVL159
 12025 0a54 00040000 		.4byte	.LVL162
 12026 0a58 0200     		.2byte	0x2
 12027 0a5a 30       		.byte	0x30
 12028 0a5b 9F       		.byte	0x9f
 12029 0a5c 24040000 		.4byte	.LVL168
 12030 0a60 08050000 		.4byte	.LVL197
 12031 0a64 0200     		.2byte	0x2
 12032 0a66 30       		.byte	0x30
 12033 0a67 9F       		.byte	0x9f
 12034 0a68 24050000 		.4byte	.LVL201
 12035 0a6c 28050000 		.4byte	.LVL202
 12036 0a70 0200     		.2byte	0x2
 12037 0a72 30       		.byte	0x30
 12038 0a73 9F       		.byte	0x9f
 12039 0a74 00000000 		.4byte	0
 12040 0a78 00000000 		.4byte	0
 12041              	.LLST38:
 12042 0a7c D2030000 		.4byte	.LVL159
 12043 0a80 00040000 		.4byte	.LVL162
 12044 0a84 0A00     		.2byte	0xa
 12045 0a86 9E       		.byte	0x9e
 12046 0a87 08       		.uleb128 0x8
 12047 0a88 00000000 		.4byte	0
 12048 0a8c 00000000 		.4byte	0
 12049 0a90 24040000 		.4byte	.LVL168
 12050 0a94 08050000 		.4byte	.LVL197
 12051 0a98 0A00     		.2byte	0xa
 12052 0a9a 9E       		.byte	0x9e
 12053 0a9b 08       		.uleb128 0x8
 12054 0a9c 00000000 		.4byte	0
 12055 0aa0 00000000 		.4byte	0
 12056 0aa4 24050000 		.4byte	.LVL201
 12057 0aa8 28050000 		.4byte	.LVL202
 12058 0aac 0A00     		.2byte	0xa
 12059 0aae 9E       		.byte	0x9e
 12060 0aaf 08       		.uleb128 0x8
 12061 0ab0 00000000 		.4byte	0
 12062 0ab4 00000000 		.4byte	0
 12063 0ab8 00000000 		.4byte	0
 12064 0abc 00000000 		.4byte	0
 12065              	.LLST39:
 12066 0ac0 24040000 		.4byte	.LVL168
 12067 0ac4 94040000 		.4byte	.LVL182
 12068 0ac8 0200     		.2byte	0x2
 12069 0aca 91       		.byte	0x91
 12070 0acb 10       		.sleb128 16
 12071 0acc 04050000 		.4byte	.LVL196
 12072 0ad0 08050000 		.4byte	.LVL197
 12073 0ad4 0200     		.2byte	0x2
 12074 0ad6 91       		.byte	0x91
 12075 0ad7 10       		.sleb128 16
 12076 0ad8 00000000 		.4byte	0
 12077 0adc 00000000 		.4byte	0
ARM GAS  C:\Users\pearlstl\AppData\Local\Temp\ccbpFzqf.s 			page 241


 12078              	.LLST40:
 12079 0ae0 24040000 		.4byte	.LVL168
 12080 0ae4 94040000 		.4byte	.LVL182
 12081 0ae8 0200     		.2byte	0x2
 12082 0aea 91       		.byte	0x91
 12083 0aeb 0C       		.sleb128 12
 12084 0aec 04050000 		.4byte	.LVL196
 12085 0af0 08050000 		.4byte	.LVL197
 12086 0af4 0200     		.2byte	0x2
 12087 0af6 91       		.byte	0x91
 12088 0af7 0C       		.sleb128 12
 12089 0af8 00000000 		.4byte	0
 12090 0afc 00000000 		.4byte	0
 12091              	.LLST41:
 12092 0b00 24040000 		.4byte	.LVL168
 12093 0b04 54040000 		.4byte	.LVL174
 12094 0b08 0200     		.2byte	0x2
 12095 0b0a 33       		.byte	0x33
 12096 0b0b 9F       		.byte	0x9f
 12097 0b0c 54040000 		.4byte	.LVL174
 12098 0b10 58040000 		.4byte	.LVL175
 12099 0b14 0A00     		.2byte	0xa
 12100 0b16 03       		.byte	0x3
 12101 0b17 00000000 		.4byte	.LC0
 12102 0b1b 20       		.byte	0x20
 12103 0b1c 78       		.byte	0x78
 12104 0b1d 00       		.sleb128 0
 12105 0b1e 22       		.byte	0x22
 12106 0b1f 9F       		.byte	0x9f
 12107 0b20 58040000 		.4byte	.LVL175
 12108 0b24 7E040000 		.4byte	.LVL179
 12109 0b28 0900     		.2byte	0x9
 12110 0b2a 78       		.byte	0x78
 12111 0b2b 00       		.sleb128 0
 12112 0b2c 03       		.byte	0x3
 12113 0b2d 00000000 		.4byte	.LC0
 12114 0b31 1C       		.byte	0x1c
 12115 0b32 9F       		.byte	0x9f
 12116 0b33 04050000 		.4byte	.LVL196
 12117 0b37 08050000 		.4byte	.LVL197
 12118 0b3b 0200     		.2byte	0x2
 12119 0b3d 33       		.byte	0x33
 12120 0b3e 9F       		.byte	0x9f
 12121 0b3f 00000000 		.4byte	0
 12122 0b43 00000000 		.4byte	0
 12123              	.LLST42:
 12124 0b47 24040000 		.4byte	.LVL168
 12125 0b4b 94040000 		.4byte	.LVL182
 12126 0b4f 0600     		.2byte	0x6
 12127 0b51 03       		.byte	0x3
 12128 0b52 00000000 		.4byte	.LC0
 12129 0b56 9F       		.byte	0x9f
 12130 0b57 04050000 		.4byte	.LVL196
 12131 0b5b 08050000 		.4byte	.LVL197
 12132 0b5f 0600     		.2byte	0x6
 12133 0b61 03       		.byte	0x3
 12134 0b62 00000000 		.4byte	.LC0
ARM GAS  C:\Users\pearlstl\AppData\Local\Temp\ccbpFzqf.s 			page 242


 12135 0b66 9F       		.byte	0x9f
 12136 0b67 00000000 		.4byte	0
 12137 0b6b 00000000 		.4byte	0
 12138              	.LLST43:
 12139 0b6f 24040000 		.4byte	.LVL168
 12140 0b73 94040000 		.4byte	.LVL182
 12141 0b77 0100     		.2byte	0x1
 12142 0b79 57       		.byte	0x57
 12143 0b7a 04050000 		.4byte	.LVL196
 12144 0b7e 08050000 		.4byte	.LVL197
 12145 0b82 0100     		.2byte	0x1
 12146 0b84 57       		.byte	0x57
 12147 0b85 00000000 		.4byte	0
 12148 0b89 00000000 		.4byte	0
 12149              	.LLST44:
 12150 0b8d 24040000 		.4byte	.LVL168
 12151 0b91 38040000 		.4byte	.LVL170
 12152 0b95 0100     		.2byte	0x1
 12153 0b97 5A       		.byte	0x5a
 12154 0b98 38040000 		.4byte	.LVL170
 12155 0b9c 3C040000 		.4byte	.LVL171
 12156 0ba0 0100     		.2byte	0x1
 12157 0ba2 52       		.byte	0x52
 12158 0ba3 3C040000 		.4byte	.LVL171
 12159 0ba7 4A040000 		.4byte	.LVL173
 12160 0bab 0100     		.2byte	0x1
 12161 0bad 58       		.byte	0x58
 12162 0bae 4A040000 		.4byte	.LVL173
 12163 0bb2 54040000 		.4byte	.LVL174
 12164 0bb6 0100     		.2byte	0x1
 12165 0bb8 54       		.byte	0x54
 12166 0bb9 54040000 		.4byte	.LVL174
 12167 0bbd 60040000 		.4byte	.LVL176
 12168 0bc1 0100     		.2byte	0x1
 12169 0bc3 52       		.byte	0x52
 12170 0bc4 60040000 		.4byte	.LVL176
 12171 0bc8 72040000 		.4byte	.LVL178
 12172 0bcc 0100     		.2byte	0x1
 12173 0bce 59       		.byte	0x59
 12174 0bcf 72040000 		.4byte	.LVL178
 12175 0bd3 80040000 		.4byte	.LVL180
 12176 0bd7 0100     		.2byte	0x1
 12177 0bd9 52       		.byte	0x52
 12178 0bda 80040000 		.4byte	.LVL180
 12179 0bde 94040000 		.4byte	.LVL182
 12180 0be2 0100     		.2byte	0x1
 12181 0be4 54       		.byte	0x54
 12182 0be5 04050000 		.4byte	.LVL196
 12183 0be9 08050000 		.4byte	.LVL197
 12184 0bed 0100     		.2byte	0x1
 12185 0bef 5A       		.byte	0x5a
 12186 0bf0 00000000 		.4byte	0
 12187 0bf4 00000000 		.4byte	0
 12188              	.LLST45:
 12189 0bf8 24040000 		.4byte	.LVL168
 12190 0bfc 94040000 		.4byte	.LVL182
 12191 0c00 0100     		.2byte	0x1
ARM GAS  C:\Users\pearlstl\AppData\Local\Temp\ccbpFzqf.s 			page 243


 12192 0c02 56       		.byte	0x56
 12193 0c03 04050000 		.4byte	.LVL196
 12194 0c07 08050000 		.4byte	.LVL197
 12195 0c0b 0100     		.2byte	0x1
 12196 0c0d 56       		.byte	0x56
 12197 0c0e 00000000 		.4byte	0
 12198 0c12 00000000 		.4byte	0
 12199              	.LLST46:
 12200 0c16 24040000 		.4byte	.LVL168
 12201 0c1a 94040000 		.4byte	.LVL182
 12202 0c1e 0100     		.2byte	0x1
 12203 0c20 55       		.byte	0x55
 12204 0c21 04050000 		.4byte	.LVL196
 12205 0c25 08050000 		.4byte	.LVL197
 12206 0c29 0100     		.2byte	0x1
 12207 0c2b 55       		.byte	0x55
 12208 0c2c 00000000 		.4byte	0
 12209 0c30 00000000 		.4byte	0
 12210              	.LLST47:
 12211 0c34 24040000 		.4byte	.LVL168
 12212 0c38 94040000 		.4byte	.LVL182
 12213 0c3c 0100     		.2byte	0x1
 12214 0c3e 5A       		.byte	0x5a
 12215 0c3f 04050000 		.4byte	.LVL196
 12216 0c43 08050000 		.4byte	.LVL197
 12217 0c47 0100     		.2byte	0x1
 12218 0c49 5A       		.byte	0x5a
 12219 0c4a 00000000 		.4byte	0
 12220 0c4e 00000000 		.4byte	0
 12221              	.LLST48:
 12222 0c52 2A040000 		.4byte	.LVL169
 12223 0c56 38040000 		.4byte	.LVL170
 12224 0c5a 0200     		.2byte	0x2
 12225 0c5c 33       		.byte	0x33
 12226 0c5d 9F       		.byte	0x9f
 12227 0c5e 00000000 		.4byte	0
 12228 0c62 00000000 		.4byte	0
 12229              	.LLST49:
 12230 0c66 94040000 		.4byte	.LVL182
 12231 0c6a 04050000 		.4byte	.LVL196
 12232 0c6e 0200     		.2byte	0x2
 12233 0c70 91       		.byte	0x91
 12234 0c71 10       		.sleb128 16
 12235 0c72 24050000 		.4byte	.LVL201
 12236 0c76 28050000 		.4byte	.LVL202
 12237 0c7a 0200     		.2byte	0x2
 12238 0c7c 91       		.byte	0x91
 12239 0c7d 10       		.sleb128 16
 12240 0c7e 00000000 		.4byte	0
 12241 0c82 00000000 		.4byte	0
 12242              	.LLST50:
 12243 0c86 94040000 		.4byte	.LVL182
 12244 0c8a 04050000 		.4byte	.LVL196
 12245 0c8e 0200     		.2byte	0x2
 12246 0c90 91       		.byte	0x91
 12247 0c91 0C       		.sleb128 12
 12248 0c92 24050000 		.4byte	.LVL201
ARM GAS  C:\Users\pearlstl\AppData\Local\Temp\ccbpFzqf.s 			page 244


 12249 0c96 28050000 		.4byte	.LVL202
 12250 0c9a 0200     		.2byte	0x2
 12251 0c9c 91       		.byte	0x91
 12252 0c9d 0C       		.sleb128 12
 12253 0c9e 00000000 		.4byte	0
 12254 0ca2 00000000 		.4byte	0
 12255              	.LLST51:
 12256 0ca6 94040000 		.4byte	.LVL182
 12257 0caa C4040000 		.4byte	.LVL188
 12258 0cae 0200     		.2byte	0x2
 12259 0cb0 34       		.byte	0x34
 12260 0cb1 9F       		.byte	0x9f
 12261 0cb2 C4040000 		.4byte	.LVL188
 12262 0cb6 C8040000 		.4byte	.LVL189
 12263 0cba 0A00     		.2byte	0xa
 12264 0cbc 03       		.byte	0x3
 12265 0cbd 04000000 		.4byte	.LC1
 12266 0cc1 20       		.byte	0x20
 12267 0cc2 78       		.byte	0x78
 12268 0cc3 00       		.sleb128 0
 12269 0cc4 22       		.byte	0x22
 12270 0cc5 9F       		.byte	0x9f
 12271 0cc6 C8040000 		.4byte	.LVL189
 12272 0cca EE040000 		.4byte	.LVL193
 12273 0cce 0900     		.2byte	0x9
 12274 0cd0 78       		.byte	0x78
 12275 0cd1 00       		.sleb128 0
 12276 0cd2 03       		.byte	0x3
 12277 0cd3 04000000 		.4byte	.LC1
 12278 0cd7 1C       		.byte	0x1c
 12279 0cd8 9F       		.byte	0x9f
 12280 0cd9 24050000 		.4byte	.LVL201
 12281 0cdd 28050000 		.4byte	.LVL202
 12282 0ce1 0200     		.2byte	0x2
 12283 0ce3 34       		.byte	0x34
 12284 0ce4 9F       		.byte	0x9f
 12285 0ce5 00000000 		.4byte	0
 12286 0ce9 00000000 		.4byte	0
 12287              	.LLST52:
 12288 0ced 94040000 		.4byte	.LVL182
 12289 0cf1 04050000 		.4byte	.LVL196
 12290 0cf5 0600     		.2byte	0x6
 12291 0cf7 03       		.byte	0x3
 12292 0cf8 04000000 		.4byte	.LC1
 12293 0cfc 9F       		.byte	0x9f
 12294 0cfd 24050000 		.4byte	.LVL201
 12295 0d01 28050000 		.4byte	.LVL202
 12296 0d05 0600     		.2byte	0x6
 12297 0d07 03       		.byte	0x3
 12298 0d08 04000000 		.4byte	.LC1
 12299 0d0c 9F       		.byte	0x9f
 12300 0d0d 00000000 		.4byte	0
 12301 0d11 00000000 		.4byte	0
 12302              	.LLST53:
 12303 0d15 94040000 		.4byte	.LVL182
 12304 0d19 04050000 		.4byte	.LVL196
 12305 0d1d 0100     		.2byte	0x1
ARM GAS  C:\Users\pearlstl\AppData\Local\Temp\ccbpFzqf.s 			page 245


 12306 0d1f 57       		.byte	0x57
 12307 0d20 24050000 		.4byte	.LVL201
 12308 0d24 28050000 		.4byte	.LVL202
 12309 0d28 0100     		.2byte	0x1
 12310 0d2a 57       		.byte	0x57
 12311 0d2b 00000000 		.4byte	0
 12312 0d2f 00000000 		.4byte	0
 12313              	.LLST54:
 12314 0d33 94040000 		.4byte	.LVL182
 12315 0d37 A8040000 		.4byte	.LVL184
 12316 0d3b 0100     		.2byte	0x1
 12317 0d3d 5A       		.byte	0x5a
 12318 0d3e A8040000 		.4byte	.LVL184
 12319 0d42 AC040000 		.4byte	.LVL185
 12320 0d46 0100     		.2byte	0x1
 12321 0d48 52       		.byte	0x52
 12322 0d49 AC040000 		.4byte	.LVL185
 12323 0d4d BA040000 		.4byte	.LVL187
 12324 0d51 0100     		.2byte	0x1
 12325 0d53 58       		.byte	0x58
 12326 0d54 BA040000 		.4byte	.LVL187
 12327 0d58 C4040000 		.4byte	.LVL188
 12328 0d5c 0100     		.2byte	0x1
 12329 0d5e 54       		.byte	0x54
 12330 0d5f C4040000 		.4byte	.LVL188
 12331 0d63 D0040000 		.4byte	.LVL190
 12332 0d67 0100     		.2byte	0x1
 12333 0d69 52       		.byte	0x52
 12334 0d6a D0040000 		.4byte	.LVL190
 12335 0d6e E2040000 		.4byte	.LVL192
 12336 0d72 0100     		.2byte	0x1
 12337 0d74 59       		.byte	0x59
 12338 0d75 E2040000 		.4byte	.LVL192
 12339 0d79 F0040000 		.4byte	.LVL194
 12340 0d7d 0100     		.2byte	0x1
 12341 0d7f 52       		.byte	0x52
 12342 0d80 F0040000 		.4byte	.LVL194
 12343 0d84 04050000 		.4byte	.LVL196
 12344 0d88 0100     		.2byte	0x1
 12345 0d8a 54       		.byte	0x54
 12346 0d8b 24050000 		.4byte	.LVL201
 12347 0d8f 28050000 		.4byte	.LVL202
 12348 0d93 0100     		.2byte	0x1
 12349 0d95 5A       		.byte	0x5a
 12350 0d96 00000000 		.4byte	0
 12351 0d9a 00000000 		.4byte	0
 12352              	.LLST55:
 12353 0d9e 94040000 		.4byte	.LVL182
 12354 0da2 04050000 		.4byte	.LVL196
 12355 0da6 0100     		.2byte	0x1
 12356 0da8 56       		.byte	0x56
 12357 0da9 24050000 		.4byte	.LVL201
 12358 0dad 28050000 		.4byte	.LVL202
 12359 0db1 0100     		.2byte	0x1
 12360 0db3 56       		.byte	0x56
 12361 0db4 00000000 		.4byte	0
 12362 0db8 00000000 		.4byte	0
ARM GAS  C:\Users\pearlstl\AppData\Local\Temp\ccbpFzqf.s 			page 246


 12363              	.LLST56:
 12364 0dbc 94040000 		.4byte	.LVL182
 12365 0dc0 04050000 		.4byte	.LVL196
 12366 0dc4 0100     		.2byte	0x1
 12367 0dc6 55       		.byte	0x55
 12368 0dc7 24050000 		.4byte	.LVL201
 12369 0dcb 28050000 		.4byte	.LVL202
 12370 0dcf 0100     		.2byte	0x1
 12371 0dd1 55       		.byte	0x55
 12372 0dd2 00000000 		.4byte	0
 12373 0dd6 00000000 		.4byte	0
 12374              	.LLST57:
 12375 0dda 94040000 		.4byte	.LVL182
 12376 0dde 04050000 		.4byte	.LVL196
 12377 0de2 0100     		.2byte	0x1
 12378 0de4 5A       		.byte	0x5a
 12379 0de5 24050000 		.4byte	.LVL201
 12380 0de9 28050000 		.4byte	.LVL202
 12381 0ded 0100     		.2byte	0x1
 12382 0def 5A       		.byte	0x5a
 12383 0df0 00000000 		.4byte	0
 12384 0df4 00000000 		.4byte	0
 12385              	.LLST58:
 12386 0df8 9A040000 		.4byte	.LVL183
 12387 0dfc A8040000 		.4byte	.LVL184
 12388 0e00 0200     		.2byte	0x2
 12389 0e02 34       		.byte	0x34
 12390 0e03 9F       		.byte	0x9f
 12391 0e04 00000000 		.4byte	0
 12392 0e08 00000000 		.4byte	0
 12393              	.LLST59:
 12394 0e0c 4A000000 		.4byte	.LVL79
 12395 0e10 D2030000 		.4byte	.LVL159
 12396 0e14 0200     		.2byte	0x2
 12397 0e16 91       		.byte	0x91
 12398 0e17 10       		.sleb128 16
 12399 0e18 08040000 		.4byte	.LVL163
 12400 0e1c 1A040000 		.4byte	.LVL167
 12401 0e20 0200     		.2byte	0x2
 12402 0e22 91       		.byte	0x91
 12403 0e23 10       		.sleb128 16
 12404 0e24 08050000 		.4byte	.LVL197
 12405 0e28 24050000 		.4byte	.LVL201
 12406 0e2c 0200     		.2byte	0x2
 12407 0e2e 91       		.byte	0x91
 12408 0e2f 10       		.sleb128 16
 12409 0e30 28050000 		.4byte	.LVL202
 12410 0e34 DE050000 		.4byte	.LVL230
 12411 0e38 0200     		.2byte	0x2
 12412 0e3a 91       		.byte	0x91
 12413 0e3b 10       		.sleb128 16
 12414 0e3c DE050000 		.4byte	.LVL230
 12415 0e40 E2050000 		.4byte	.LVL231
 12416 0e44 0100     		.2byte	0x1
 12417 0e46 52       		.byte	0x52
 12418 0e47 E2050000 		.4byte	.LVL231
 12419 0e4b 48060000 		.4byte	.LFE10
ARM GAS  C:\Users\pearlstl\AppData\Local\Temp\ccbpFzqf.s 			page 247


 12420 0e4f 0200     		.2byte	0x2
 12421 0e51 91       		.byte	0x91
 12422 0e52 10       		.sleb128 16
 12423 0e53 00000000 		.4byte	0
 12424 0e57 00000000 		.4byte	0
 12425              	.LLST60:
 12426 0e5b 4A000000 		.4byte	.LVL79
 12427 0e5f D2030000 		.4byte	.LVL159
 12428 0e63 0200     		.2byte	0x2
 12429 0e65 91       		.byte	0x91
 12430 0e66 0C       		.sleb128 12
 12431 0e67 08040000 		.4byte	.LVL163
 12432 0e6b 1A040000 		.4byte	.LVL167
 12433 0e6f 0200     		.2byte	0x2
 12434 0e71 91       		.byte	0x91
 12435 0e72 0C       		.sleb128 12
 12436 0e73 08050000 		.4byte	.LVL197
 12437 0e77 24050000 		.4byte	.LVL201
 12438 0e7b 0200     		.2byte	0x2
 12439 0e7d 91       		.byte	0x91
 12440 0e7e 0C       		.sleb128 12
 12441 0e7f 28050000 		.4byte	.LVL202
 12442 0e83 48060000 		.4byte	.LFE10
 12443 0e87 0200     		.2byte	0x2
 12444 0e89 91       		.byte	0x91
 12445 0e8a 0C       		.sleb128 12
 12446 0e8b 00000000 		.4byte	0
 12447 0e8f 00000000 		.4byte	0
 12448              	.LLST61:
 12449 0e93 4A000000 		.4byte	.LVL79
 12450 0e97 7E000000 		.4byte	.LVL82
 12451 0e9b 0200     		.2byte	0x2
 12452 0e9d 91       		.byte	0x91
 12453 0e9e 08       		.sleb128 8
 12454 0e9f 22020000 		.4byte	.LVL127
 12455 0ea3 26020000 		.4byte	.LVL128
 12456 0ea7 0600     		.2byte	0x6
 12457 0ea9 91       		.byte	0x91
 12458 0eaa 08       		.sleb128 8
 12459 0eab 06       		.byte	0x6
 12460 0eac 31       		.byte	0x31
 12461 0ead 1C       		.byte	0x1c
 12462 0eae 9F       		.byte	0x9f
 12463 0eaf 26020000 		.4byte	.LVL128
 12464 0eb3 28020000 		.4byte	.LVL129
 12465 0eb7 0100     		.2byte	0x1
 12466 0eb9 53       		.byte	0x53
 12467 0eba 08050000 		.4byte	.LVL197
 12468 0ebe 18050000 		.4byte	.LVL199
 12469 0ec2 0200     		.2byte	0x2
 12470 0ec4 91       		.byte	0x91
 12471 0ec5 08       		.sleb128 8
 12472 0ec6 CC050000 		.4byte	.LVL227
 12473 0eca D0050000 		.4byte	.LVL228
 12474 0ece 0300     		.2byte	0x3
 12475 0ed0 7B       		.byte	0x7b
 12476 0ed1 7F       		.sleb128 -1
ARM GAS  C:\Users\pearlstl\AppData\Local\Temp\ccbpFzqf.s 			page 248


 12477 0ed2 9F       		.byte	0x9f
 12478 0ed3 D0050000 		.4byte	.LVL228
 12479 0ed7 E2050000 		.4byte	.LVL231
 12480 0edb 0200     		.2byte	0x2
 12481 0edd 30       		.byte	0x30
 12482 0ede 9F       		.byte	0x9f
 12483 0edf 00000000 		.4byte	0
 12484 0ee3 00000000 		.4byte	0
 12485              	.LLST62:
 12486 0ee7 4A000000 		.4byte	.LVL79
 12487 0eeb 66000000 		.4byte	.LVL81
 12488 0eef 0200     		.2byte	0x2
 12489 0ef1 91       		.byte	0x91
 12490 0ef2 00       		.sleb128 0
 12491 0ef3 66000000 		.4byte	.LVL81
 12492 0ef7 AE020000 		.4byte	.LVL141
 12493 0efb 0300     		.2byte	0x3
 12494 0efd 91       		.byte	0x91
 12495 0efe 987F     		.sleb128 -104
 12496 0f00 08040000 		.4byte	.LVL163
 12497 0f04 18040000 		.4byte	.LVL166
 12498 0f08 0300     		.2byte	0x3
 12499 0f0a 91       		.byte	0x91
 12500 0f0b 987F     		.sleb128 -104
 12501 0f0d 18040000 		.4byte	.LVL166
 12502 0f11 1A040000 		.4byte	.LVL167
 12503 0f15 0600     		.2byte	0x6
 12504 0f17 50       		.byte	0x50
 12505 0f18 93       		.byte	0x93
 12506 0f19 04       		.uleb128 0x4
 12507 0f1a 51       		.byte	0x51
 12508 0f1b 93       		.byte	0x93
 12509 0f1c 04       		.uleb128 0x4
 12510 0f1d 08050000 		.4byte	.LVL197
 12511 0f21 14050000 		.4byte	.LVL198
 12512 0f25 0200     		.2byte	0x2
 12513 0f27 91       		.byte	0x91
 12514 0f28 00       		.sleb128 0
 12515 0f29 14050000 		.4byte	.LVL198
 12516 0f2d 24050000 		.4byte	.LVL201
 12517 0f31 0300     		.2byte	0x3
 12518 0f33 91       		.byte	0x91
 12519 0f34 987F     		.sleb128 -104
 12520 0f36 28050000 		.4byte	.LVL202
 12521 0f3a 3A050000 		.4byte	.LVL204
 12522 0f3e 0300     		.2byte	0x3
 12523 0f40 91       		.byte	0x91
 12524 0f41 987F     		.sleb128 -104
 12525 0f43 54050000 		.4byte	.LVL208
 12526 0f47 64050000 		.4byte	.LVL211
 12527 0f4b 0300     		.2byte	0x3
 12528 0f4d 91       		.byte	0x91
 12529 0f4e 987F     		.sleb128 -104
 12530 0f50 C0050000 		.4byte	.LVL226
 12531 0f54 E6050000 		.4byte	.LVL232
 12532 0f58 0300     		.2byte	0x3
 12533 0f5a 91       		.byte	0x91
ARM GAS  C:\Users\pearlstl\AppData\Local\Temp\ccbpFzqf.s 			page 249


 12534 0f5b 987F     		.sleb128 -104
 12535 0f5d 2E060000 		.4byte	.LVL243
 12536 0f61 32060000 		.4byte	.LVL244
 12537 0f65 0300     		.2byte	0x3
 12538 0f67 91       		.byte	0x91
 12539 0f68 987F     		.sleb128 -104
 12540 0f6a 00000000 		.4byte	0
 12541 0f6e 00000000 		.4byte	0
 12542              	.LLST63:
 12543 0f72 4A000000 		.4byte	.LVL79
 12544 0f76 D2030000 		.4byte	.LVL159
 12545 0f7a 0100     		.2byte	0x1
 12546 0f7c 57       		.byte	0x57
 12547 0f7d 08040000 		.4byte	.LVL163
 12548 0f81 1A040000 		.4byte	.LVL167
 12549 0f85 0100     		.2byte	0x1
 12550 0f87 57       		.byte	0x57
 12551 0f88 08050000 		.4byte	.LVL197
 12552 0f8c 24050000 		.4byte	.LVL201
 12553 0f90 0100     		.2byte	0x1
 12554 0f92 57       		.byte	0x57
 12555 0f93 28050000 		.4byte	.LVL202
 12556 0f97 48060000 		.4byte	.LFE10
 12557 0f9b 0100     		.2byte	0x1
 12558 0f9d 57       		.byte	0x57
 12559 0f9e 00000000 		.4byte	0
 12560 0fa2 00000000 		.4byte	0
 12561              	.LLST64:
 12562 0fa6 4A000000 		.4byte	.LVL79
 12563 0faa AE020000 		.4byte	.LVL141
 12564 0fae 0100     		.2byte	0x1
 12565 0fb0 5A       		.byte	0x5a
 12566 0fb1 DA020000 		.4byte	.LVL143
 12567 0fb5 A6030000 		.4byte	.LVL153
 12568 0fb9 0100     		.2byte	0x1
 12569 0fbb 54       		.byte	0x54
 12570 0fbc AA030000 		.4byte	.LVL154
 12571 0fc0 B6030000 		.4byte	.LVL155
 12572 0fc4 0100     		.2byte	0x1
 12573 0fc6 50       		.byte	0x50
 12574 0fc7 B6030000 		.4byte	.LVL155
 12575 0fcb B8030000 		.4byte	.LVL156
 12576 0fcf 0100     		.2byte	0x1
 12577 0fd1 52       		.byte	0x52
 12578 0fd2 B8030000 		.4byte	.LVL156
 12579 0fd6 D2030000 		.4byte	.LVL159
 12580 0fda 0100     		.2byte	0x1
 12581 0fdc 54       		.byte	0x54
 12582 0fdd 08040000 		.4byte	.LVL163
 12583 0fe1 1A040000 		.4byte	.LVL167
 12584 0fe5 0100     		.2byte	0x1
 12585 0fe7 5A       		.byte	0x5a
 12586 0fe8 08050000 		.4byte	.LVL197
 12587 0fec 24050000 		.4byte	.LVL201
 12588 0ff0 0100     		.2byte	0x1
 12589 0ff2 5A       		.byte	0x5a
 12590 0ff3 28050000 		.4byte	.LVL202
ARM GAS  C:\Users\pearlstl\AppData\Local\Temp\ccbpFzqf.s 			page 250


 12591 0ff7 48060000 		.4byte	.LFE10
 12592 0ffb 0100     		.2byte	0x1
 12593 0ffd 5A       		.byte	0x5a
 12594 0ffe 00000000 		.4byte	0
 12595 1002 00000000 		.4byte	0
 12596              	.LLST65:
 12597 1006 4A000000 		.4byte	.LVL79
 12598 100a D2030000 		.4byte	.LVL159
 12599 100e 0100     		.2byte	0x1
 12600 1010 56       		.byte	0x56
 12601 1011 08040000 		.4byte	.LVL163
 12602 1015 1A040000 		.4byte	.LVL167
 12603 1019 0100     		.2byte	0x1
 12604 101b 56       		.byte	0x56
 12605 101c 08050000 		.4byte	.LVL197
 12606 1020 24050000 		.4byte	.LVL201
 12607 1024 0100     		.2byte	0x1
 12608 1026 56       		.byte	0x56
 12609 1027 28050000 		.4byte	.LVL202
 12610 102b 48060000 		.4byte	.LFE10
 12611 102f 0100     		.2byte	0x1
 12612 1031 56       		.byte	0x56
 12613 1032 00000000 		.4byte	0
 12614 1036 00000000 		.4byte	0
 12615              	.LLST66:
 12616 103a 4A000000 		.4byte	.LVL79
 12617 103e D2030000 		.4byte	.LVL159
 12618 1042 0100     		.2byte	0x1
 12619 1044 55       		.byte	0x55
 12620 1045 08040000 		.4byte	.LVL163
 12621 1049 1A040000 		.4byte	.LVL167
 12622 104d 0100     		.2byte	0x1
 12623 104f 55       		.byte	0x55
 12624 1050 08050000 		.4byte	.LVL197
 12625 1054 24050000 		.4byte	.LVL201
 12626 1058 0100     		.2byte	0x1
 12627 105a 55       		.byte	0x55
 12628 105b 28050000 		.4byte	.LVL202
 12629 105f 48060000 		.4byte	.LFE10
 12630 1063 0100     		.2byte	0x1
 12631 1065 55       		.byte	0x55
 12632 1066 00000000 		.4byte	0
 12633 106a 00000000 		.4byte	0
 12634              	.LLST67:
 12635 106e 4A000000 		.4byte	.LVL79
 12636 1072 D2030000 		.4byte	.LVL159
 12637 1076 1200     		.2byte	0x12
 12638 1078 91       		.byte	0x91
 12639 1079 00       		.sleb128 0
 12640 107a F6       		.byte	0xf6
 12641 107b 08       		.byte	0x8
 12642 107c 25       		.uleb128 0x25
 12643 107d F4       		.byte	0xf4
 12644 107e 25       		.uleb128 0x25
 12645 107f 08       		.byte	0x8
 12646 1080 00000000 		.4byte	0
 12647 1084 00000000 		.4byte	0
ARM GAS  C:\Users\pearlstl\AppData\Local\Temp\ccbpFzqf.s 			page 251


 12648 1088 2D       		.byte	0x2d
 12649 1089 9F       		.byte	0x9f
 12650 108a 08040000 		.4byte	.LVL163
 12651 108e 1A040000 		.4byte	.LVL167
 12652 1092 1200     		.2byte	0x12
 12653 1094 91       		.byte	0x91
 12654 1095 00       		.sleb128 0
 12655 1096 F6       		.byte	0xf6
 12656 1097 08       		.byte	0x8
 12657 1098 25       		.uleb128 0x25
 12658 1099 F4       		.byte	0xf4
 12659 109a 25       		.uleb128 0x25
 12660 109b 08       		.byte	0x8
 12661 109c 00000000 		.4byte	0
 12662 10a0 00000000 		.4byte	0
 12663 10a4 2D       		.byte	0x2d
 12664 10a5 9F       		.byte	0x9f
 12665 10a6 08050000 		.4byte	.LVL197
 12666 10aa 24050000 		.4byte	.LVL201
 12667 10ae 1200     		.2byte	0x12
 12668 10b0 91       		.byte	0x91
 12669 10b1 00       		.sleb128 0
 12670 10b2 F6       		.byte	0xf6
 12671 10b3 08       		.byte	0x8
 12672 10b4 25       		.uleb128 0x25
 12673 10b5 F4       		.byte	0xf4
 12674 10b6 25       		.uleb128 0x25
 12675 10b7 08       		.byte	0x8
 12676 10b8 00000000 		.4byte	0
 12677 10bc 00000000 		.4byte	0
 12678 10c0 2D       		.byte	0x2d
 12679 10c1 9F       		.byte	0x9f
 12680 10c2 28050000 		.4byte	.LVL202
 12681 10c6 48060000 		.4byte	.LFE10
 12682 10ca 1200     		.2byte	0x12
 12683 10cc 91       		.byte	0x91
 12684 10cd 00       		.sleb128 0
 12685 10ce F6       		.byte	0xf6
 12686 10cf 08       		.byte	0x8
 12687 10d0 25       		.uleb128 0x25
 12688 10d1 F4       		.byte	0xf4
 12689 10d2 25       		.uleb128 0x25
 12690 10d3 08       		.byte	0x8
 12691 10d4 00000000 		.4byte	0
 12692 10d8 00000000 		.4byte	0
 12693 10dc 2D       		.byte	0x2d
 12694 10dd 9F       		.byte	0x9f
 12695 10de 00000000 		.4byte	0
 12696 10e2 00000000 		.4byte	0
 12697              	.LLST68:
 12698 10e6 7E000000 		.4byte	.LVL82
 12699 10ea 3A010000 		.4byte	.LVL103
 12700 10ee 2300     		.2byte	0x23
 12701 10f0 91       		.byte	0x91
 12702 10f1 987F     		.sleb128 -104
 12703 10f3 F6       		.byte	0xf6
 12704 10f4 08       		.byte	0x8
ARM GAS  C:\Users\pearlstl\AppData\Local\Temp\ccbpFzqf.s 			page 252


 12705 10f5 2C       		.uleb128 0x2c
 12706 10f6 F4       		.byte	0xf4
 12707 10f7 2C       		.uleb128 0x2c
 12708 10f8 08       		.byte	0x8
 12709 10f9 FFFFFFFF 		.8byte	0xfffffffffffff
 12709      FFFF0F00 
 12710 1101 1A       		.byte	0x1a
 12711 1102 F4       		.byte	0xf4
 12712 1103 2C       		.uleb128 0x2c
 12713 1104 08       		.byte	0x8
 12714 1105 00000000 		.8byte	0x3ff0000000000000
 12714      0000F03F 
 12715 110d 21       		.byte	0x21
 12716 110e F9       		.byte	0xf9
 12717 110f 25       		.uleb128 0x25
 12718 1110 9F       		.byte	0x9f
 12719 1111 93       		.byte	0x93
 12720 1112 08       		.uleb128 0x8
 12721 1113 3A010000 		.4byte	.LVL103
 12722 1117 AC010000 		.4byte	.LVL114
 12723 111b 1100     		.2byte	0x11
 12724 111d 74       		.byte	0x74
 12725 111e FF07     		.sleb128 1023
 12726 1120 F7       		.byte	0xf7
 12727 1121 33       		.uleb128 0x33
 12728 1122 F7       		.byte	0xf7
 12729 1123 2C       		.uleb128 0x2c
 12730 1124 08       		.byte	0x8
 12731 1125 34       		.byte	0x34
 12732 1126 F7       		.byte	0xf7
 12733 1127 2C       		.uleb128 0x2c
 12734 1128 24       		.byte	0x24
 12735 1129 F9       		.byte	0xf9
 12736 112a 25       		.uleb128 0x25
 12737 112b 9F       		.byte	0x9f
 12738 112c 93       		.byte	0x93
 12739 112d 08       		.uleb128 0x8
 12740 112e AC010000 		.4byte	.LVL114
 12741 1132 C0010000 		.4byte	.LVL117
 12742 1136 1000     		.2byte	0x10
 12743 1138 74       		.byte	0x74
 12744 1139 00       		.sleb128 0
 12745 113a F7       		.byte	0xf7
 12746 113b 33       		.uleb128 0x33
 12747 113c F7       		.byte	0xf7
 12748 113d 2C       		.uleb128 0x2c
 12749 113e 08       		.byte	0x8
 12750 113f 34       		.byte	0x34
 12751 1140 F7       		.byte	0xf7
 12752 1141 2C       		.uleb128 0x2c
 12753 1142 24       		.byte	0x24
 12754 1143 F9       		.byte	0xf9
 12755 1144 25       		.uleb128 0x25
 12756 1145 9F       		.byte	0x9f
 12757 1146 93       		.byte	0x93
 12758 1147 08       		.uleb128 0x8
 12759 1148 C0010000 		.4byte	.LVL117
ARM GAS  C:\Users\pearlstl\AppData\Local\Temp\ccbpFzqf.s 			page 253


 12760 114c E0010000 		.4byte	.LVL121
 12761 1150 0600     		.2byte	0x6
 12762 1152 58       		.byte	0x58
 12763 1153 93       		.byte	0x93
 12764 1154 04       		.uleb128 0x4
 12765 1155 59       		.byte	0x59
 12766 1156 93       		.byte	0x93
 12767 1157 04       		.uleb128 0x4
 12768 1158 E2010000 		.4byte	.LVL122
 12769 115c 66020000 		.4byte	.LVL135
 12770 1160 0600     		.2byte	0x6
 12771 1162 58       		.byte	0x58
 12772 1163 93       		.byte	0x93
 12773 1164 04       		.uleb128 0x4
 12774 1165 59       		.byte	0x59
 12775 1166 93       		.byte	0x93
 12776 1167 04       		.uleb128 0x4
 12777 1168 08040000 		.4byte	.LVL163
 12778 116c 1A040000 		.4byte	.LVL167
 12779 1170 0600     		.2byte	0x6
 12780 1172 58       		.byte	0x58
 12781 1173 93       		.byte	0x93
 12782 1174 04       		.uleb128 0x4
 12783 1175 59       		.byte	0x59
 12784 1176 93       		.byte	0x93
 12785 1177 04       		.uleb128 0x4
 12786 1178 18050000 		.4byte	.LVL199
 12787 117c 1E050000 		.4byte	.LVL200
 12788 1180 0600     		.2byte	0x6
 12789 1182 58       		.byte	0x58
 12790 1183 93       		.byte	0x93
 12791 1184 04       		.uleb128 0x4
 12792 1185 59       		.byte	0x59
 12793 1186 93       		.byte	0x93
 12794 1187 04       		.uleb128 0x4
 12795 1188 C0050000 		.4byte	.LVL226
 12796 118c E2050000 		.4byte	.LVL231
 12797 1190 0600     		.2byte	0x6
 12798 1192 58       		.byte	0x58
 12799 1193 93       		.byte	0x93
 12800 1194 04       		.uleb128 0x4
 12801 1195 59       		.byte	0x59
 12802 1196 93       		.byte	0x93
 12803 1197 04       		.uleb128 0x4
 12804 1198 00000000 		.4byte	0
 12805 119c 00000000 		.4byte	0
 12806              	.LLST69:
 12807 11a0 7E000000 		.4byte	.LVL82
 12808 11a4 02010000 		.4byte	.LVL95
 12809 11a8 1600     		.2byte	0x16
 12810 11aa 91       		.byte	0x91
 12811 11ab 987F     		.sleb128 -104
 12812 11ad F6       		.byte	0xf6
 12813 11ae 08       		.byte	0x8
 12814 11af 2C       		.uleb128 0x2c
 12815 11b0 08       		.byte	0x8
 12816 11b1 34       		.byte	0x34
ARM GAS  C:\Users\pearlstl\AppData\Local\Temp\ccbpFzqf.s 			page 254


 12817 11b2 F7       		.byte	0xf7
 12818 11b3 2C       		.uleb128 0x2c
 12819 11b4 25       		.byte	0x25
 12820 11b5 F7       		.byte	0xf7
 12821 11b6 3A       		.uleb128 0x3a
 12822 11b7 0A       		.byte	0xa
 12823 11b8 FF07     		.2byte	0x7ff
 12824 11ba 1A       		.byte	0x1a
 12825 11bb 0A       		.byte	0xa
 12826 11bc FF03     		.2byte	0x3ff
 12827 11be 1C       		.byte	0x1c
 12828 11bf 9F       		.byte	0x9f
 12829 11c0 02010000 		.4byte	.LVL95
 12830 11c4 06010000 		.4byte	.LVL96
 12831 11c8 0100     		.2byte	0x1
 12832 11ca 50       		.byte	0x50
 12833 11cb 06010000 		.4byte	.LVL96
 12834 11cf AC010000 		.4byte	.LVL114
 12835 11d3 0100     		.2byte	0x1
 12836 11d5 54       		.byte	0x54
 12837 11d6 AC010000 		.4byte	.LVL114
 12838 11da 36020000 		.4byte	.LVL130
 12839 11de 0400     		.2byte	0x4
 12840 11e0 74       		.byte	0x74
 12841 11e1 8178     		.sleb128 -1023
 12842 11e3 9F       		.byte	0x9f
 12843 11e4 C0050000 		.4byte	.LVL226
 12844 11e8 E2050000 		.4byte	.LVL231
 12845 11ec 0400     		.2byte	0x4
 12846 11ee 74       		.byte	0x74
 12847 11ef 8178     		.sleb128 -1023
 12848 11f1 9F       		.byte	0x9f
 12849 11f2 00000000 		.4byte	0
 12850 11f6 00000000 		.4byte	0
 12851              	.LLST70:
 12852 11fa DC000000 		.4byte	.LVL90
 12853 11fe DF000000 		.4byte	.LVL91-1
 12854 1202 0100     		.2byte	0x1
 12855 1204 50       		.byte	0x50
 12856 1205 DF000000 		.4byte	.LVL91-1
 12857 1209 D2030000 		.4byte	.LVL159
 12858 120d 0100     		.2byte	0x1
 12859 120f 5B       		.byte	0x5b
 12860 1210 08040000 		.4byte	.LVL163
 12861 1214 1A040000 		.4byte	.LVL167
 12862 1218 0100     		.2byte	0x1
 12863 121a 5B       		.byte	0x5b
 12864 121b 18050000 		.4byte	.LVL199
 12865 121f 24050000 		.4byte	.LVL201
 12866 1223 0100     		.2byte	0x1
 12867 1225 5B       		.byte	0x5b
 12868 1226 28050000 		.4byte	.LVL202
 12869 122a CC050000 		.4byte	.LVL227
 12870 122e 0100     		.2byte	0x1
 12871 1230 5B       		.byte	0x5b
 12872 1231 DE050000 		.4byte	.LVL230
 12873 1235 E2050000 		.4byte	.LVL231
ARM GAS  C:\Users\pearlstl\AppData\Local\Temp\ccbpFzqf.s 			page 255


 12874 1239 0200     		.2byte	0x2
 12875 123b 30       		.byte	0x30
 12876 123c 9F       		.byte	0x9f
 12877 123d E2050000 		.4byte	.LVL231
 12878 1241 48060000 		.4byte	.LFE10
 12879 1245 0100     		.2byte	0x1
 12880 1247 5B       		.byte	0x5b
 12881 1248 00000000 		.4byte	0
 12882 124c 00000000 		.4byte	0
 12883              	.LLST71:
 12884 1250 2E010000 		.4byte	.LVL101
 12885 1254 35010000 		.4byte	.LVL102-1
 12886 1258 0600     		.2byte	0x6
 12887 125a 52       		.byte	0x52
 12888 125b 93       		.byte	0x93
 12889 125c 04       		.uleb128 0x4
 12890 125d 53       		.byte	0x53
 12891 125e 93       		.byte	0x93
 12892 125f 04       		.uleb128 0x4
 12893 1260 35010000 		.4byte	.LVL102-1
 12894 1264 F0010000 		.4byte	.LVL123
 12895 1268 0300     		.2byte	0x3
 12896 126a 91       		.byte	0x91
 12897 126b A07F     		.sleb128 -96
 12898 126d 00000000 		.4byte	0
 12899 1271 00000000 		.4byte	0
 12900              	.LLST72:
 12901 1275 3A010000 		.4byte	.LVL103
 12902 1279 84010000 		.4byte	.LVL110
 12903 127d 0600     		.2byte	0x6
 12904 127f 58       		.byte	0x58
 12905 1280 93       		.byte	0x93
 12906 1281 04       		.uleb128 0x4
 12907 1282 59       		.byte	0x59
 12908 1283 93       		.byte	0x93
 12909 1284 04       		.uleb128 0x4
 12910 1285 00000000 		.4byte	0
 12911 1289 00000000 		.4byte	0
 12912              	.LLST73:
 12913 128d F0010000 		.4byte	.LVL123
 12914 1291 F2010000 		.4byte	.LVL124
 12915 1295 0100     		.2byte	0x1
 12916 1297 53       		.byte	0x53
 12917 1298 F2010000 		.4byte	.LVL124
 12918 129c 48020000 		.4byte	.LVL132
 12919 12a0 0300     		.2byte	0x3
 12920 12a2 91       		.byte	0x91
 12921 12a3 A07F     		.sleb128 -96
 12922 12a5 48020000 		.4byte	.LVL132
 12923 12a9 50020000 		.4byte	.LVL133
 12924 12ad 0100     		.2byte	0x1
 12925 12af 52       		.byte	0x52
 12926 12b0 50020000 		.4byte	.LVL133
 12927 12b4 D2030000 		.4byte	.LVL159
 12928 12b8 0300     		.2byte	0x3
 12929 12ba 91       		.byte	0x91
 12930 12bb A07F     		.sleb128 -96
ARM GAS  C:\Users\pearlstl\AppData\Local\Temp\ccbpFzqf.s 			page 256


 12931 12bd 08040000 		.4byte	.LVL163
 12932 12c1 0E040000 		.4byte	.LVL164
 12933 12c5 0100     		.2byte	0x1
 12934 12c7 52       		.byte	0x52
 12935 12c8 0E040000 		.4byte	.LVL164
 12936 12cc 1A040000 		.4byte	.LVL167
 12937 12d0 0300     		.2byte	0x3
 12938 12d2 91       		.byte	0x91
 12939 12d3 A07F     		.sleb128 -96
 12940 12d5 18050000 		.4byte	.LVL199
 12941 12d9 24050000 		.4byte	.LVL201
 12942 12dd 0300     		.2byte	0x3
 12943 12df 91       		.byte	0x91
 12944 12e0 A07F     		.sleb128 -96
 12945 12e2 28050000 		.4byte	.LVL202
 12946 12e6 DC050000 		.4byte	.LVL229
 12947 12ea 0300     		.2byte	0x3
 12948 12ec 91       		.byte	0x91
 12949 12ed A07F     		.sleb128 -96
 12950 12ef DE050000 		.4byte	.LVL230
 12951 12f3 E2050000 		.4byte	.LVL231
 12952 12f7 0200     		.2byte	0x2
 12953 12f9 30       		.byte	0x30
 12954 12fa 9F       		.byte	0x9f
 12955 12fb E2050000 		.4byte	.LVL231
 12956 12ff 48060000 		.4byte	.LFE10
 12957 1303 0300     		.2byte	0x3
 12958 1305 91       		.byte	0x91
 12959 1306 A07F     		.sleb128 -96
 12960 1308 00000000 		.4byte	0
 12961 130c 00000000 		.4byte	0
 12962              	.LLST74:
 12963 1310 28020000 		.4byte	.LVL129
 12964 1314 36020000 		.4byte	.LVL130
 12965 1318 0200     		.2byte	0x2
 12966 131a 91       		.byte	0x91
 12967 131b 0C       		.sleb128 12
 12968 131c 36020000 		.4byte	.LVL130
 12969 1320 AE020000 		.4byte	.LVL141
 12970 1324 0100     		.2byte	0x1
 12971 1326 54       		.byte	0x54
 12972 1327 08040000 		.4byte	.LVL163
 12973 132b 1A040000 		.4byte	.LVL167
 12974 132f 0100     		.2byte	0x1
 12975 1331 54       		.byte	0x54
 12976 1332 18050000 		.4byte	.LVL199
 12977 1336 24050000 		.4byte	.LVL201
 12978 133a 0100     		.2byte	0x1
 12979 133c 54       		.byte	0x54
 12980 133d 28050000 		.4byte	.LVL202
 12981 1341 BE050000 		.4byte	.LVL225
 12982 1345 0100     		.2byte	0x1
 12983 1347 54       		.byte	0x54
 12984 1348 E2050000 		.4byte	.LVL231
 12985 134c 2C060000 		.4byte	.LVL242
 12986 1350 0100     		.2byte	0x1
 12987 1352 54       		.byte	0x54
ARM GAS  C:\Users\pearlstl\AppData\Local\Temp\ccbpFzqf.s 			page 257


 12988 1353 2E060000 		.4byte	.LVL243
 12989 1357 48060000 		.4byte	.LFE10
 12990 135b 0100     		.2byte	0x1
 12991 135d 54       		.byte	0x54
 12992 135e 00000000 		.4byte	0
 12993 1362 00000000 		.4byte	0
 12994              	.LLST75:
 12995 1366 50020000 		.4byte	.LVL133
 12996 136a D2030000 		.4byte	.LVL159
 12997 136e 0100     		.2byte	0x1
 12998 1370 5A       		.byte	0x5a
 12999 1371 18050000 		.4byte	.LVL199
 13000 1375 24050000 		.4byte	.LVL201
 13001 1379 0100     		.2byte	0x1
 13002 137b 5A       		.byte	0x5a
 13003 137c 28050000 		.4byte	.LVL202
 13004 1380 C0050000 		.4byte	.LVL226
 13005 1384 0100     		.2byte	0x1
 13006 1386 5A       		.byte	0x5a
 13007 1387 E2050000 		.4byte	.LVL231
 13008 138b 48060000 		.4byte	.LFE10
 13009 138f 0100     		.2byte	0x1
 13010 1391 5A       		.byte	0x5a
 13011 1392 00000000 		.4byte	0
 13012 1396 00000000 		.4byte	0
 13013              	.LLST76:
 13014 139a 66020000 		.4byte	.LVL135
 13015 139e 98020000 		.4byte	.LVL138
 13016 13a2 0800     		.2byte	0x8
 13017 13a4 91       		.byte	0x91
 13018 13a5 10       		.sleb128 16
 13019 13a6 06       		.byte	0x6
 13020 13a7 0B       		.byte	0xb
 13021 13a8 FFF7     		.2byte	0xf7ff
 13022 13aa 1A       		.byte	0x1a
 13023 13ab 9F       		.byte	0x9f
 13024 13ac 98020000 		.4byte	.LVL138
 13025 13b0 A2020000 		.4byte	.LVL139
 13026 13b4 0100     		.2byte	0x1
 13027 13b6 53       		.byte	0x53
 13028 13b7 A2020000 		.4byte	.LVL139
 13029 13bb AB020000 		.4byte	.LVL140-1
 13030 13bf 0300     		.2byte	0x3
 13031 13c1 91       		.byte	0x91
 13032 13c2 887F     		.sleb128 -120
 13033 13c4 AB020000 		.4byte	.LVL140-1
 13034 13c8 AE020000 		.4byte	.LVL141
 13035 13cc 0800     		.2byte	0x8
 13036 13ce 91       		.byte	0x91
 13037 13cf 10       		.sleb128 16
 13038 13d0 06       		.byte	0x6
 13039 13d1 0B       		.byte	0xb
 13040 13d2 FFF7     		.2byte	0xf7ff
 13041 13d4 1A       		.byte	0x1a
 13042 13d5 9F       		.byte	0x9f
 13043 13d6 28050000 		.4byte	.LVL202
 13044 13da 54050000 		.4byte	.LVL208
ARM GAS  C:\Users\pearlstl\AppData\Local\Temp\ccbpFzqf.s 			page 258


 13045 13de 0800     		.2byte	0x8
 13046 13e0 91       		.byte	0x91
 13047 13e1 10       		.sleb128 16
 13048 13e2 06       		.byte	0x6
 13049 13e3 0B       		.byte	0xb
 13050 13e4 FFF7     		.2byte	0xf7ff
 13051 13e6 1A       		.byte	0x1a
 13052 13e7 9F       		.byte	0x9f
 13053 13e8 54050000 		.4byte	.LVL208
 13054 13ec 56050000 		.4byte	.LVL209
 13055 13f0 0700     		.2byte	0x7
 13056 13f2 73       		.byte	0x73
 13057 13f3 00       		.sleb128 0
 13058 13f4 0B       		.byte	0xb
 13059 13f5 FFF7     		.2byte	0xf7ff
 13060 13f7 1A       		.byte	0x1a
 13061 13f8 9F       		.byte	0x9f
 13062 13f9 56050000 		.4byte	.LVL209
 13063 13fd C0050000 		.4byte	.LVL226
 13064 1401 0800     		.2byte	0x8
 13065 1403 91       		.byte	0x91
 13066 1404 10       		.sleb128 16
 13067 1405 06       		.byte	0x6
 13068 1406 0B       		.byte	0xb
 13069 1407 FFF7     		.2byte	0xf7ff
 13070 1409 1A       		.byte	0x1a
 13071 140a 9F       		.byte	0x9f
 13072 140b E2050000 		.4byte	.LVL231
 13073 140f 48060000 		.4byte	.LFE10
 13074 1413 0800     		.2byte	0x8
 13075 1415 91       		.byte	0x91
 13076 1416 10       		.sleb128 16
 13077 1417 06       		.byte	0x6
 13078 1418 0B       		.byte	0xb
 13079 1419 FFF7     		.2byte	0xf7ff
 13080 141b 1A       		.byte	0x1a
 13081 141c 9F       		.byte	0x9f
 13082 141d 00000000 		.4byte	0
 13083 1421 00000000 		.4byte	0
 13084              	.LLST77:
 13085 1425 66020000 		.4byte	.LVL135
 13086 1429 AE020000 		.4byte	.LVL141
 13087 142d 0100     		.2byte	0x1
 13088 142f 54       		.byte	0x54
 13089 1430 28050000 		.4byte	.LVL202
 13090 1434 BE050000 		.4byte	.LVL225
 13091 1438 0100     		.2byte	0x1
 13092 143a 54       		.byte	0x54
 13093 143b E2050000 		.4byte	.LVL231
 13094 143f 2C060000 		.4byte	.LVL242
 13095 1443 0100     		.2byte	0x1
 13096 1445 54       		.byte	0x54
 13097 1446 2E060000 		.4byte	.LVL243
 13098 144a 48060000 		.4byte	.LFE10
 13099 144e 0100     		.2byte	0x1
 13100 1450 54       		.byte	0x54
 13101 1451 00000000 		.4byte	0
ARM GAS  C:\Users\pearlstl\AppData\Local\Temp\ccbpFzqf.s 			page 259


 13102 1455 00000000 		.4byte	0
 13103              	.LLST78:
 13104 1459 66020000 		.4byte	.LVL135
 13105 145d AE020000 		.4byte	.LVL141
 13106 1461 0600     		.2byte	0x6
 13107 1463 58       		.byte	0x58
 13108 1464 93       		.byte	0x93
 13109 1465 04       		.uleb128 0x4
 13110 1466 59       		.byte	0x59
 13111 1467 93       		.byte	0x93
 13112 1468 04       		.uleb128 0x4
 13113 1469 28050000 		.4byte	.LVL202
 13114 146d 3E050000 		.4byte	.LVL205
 13115 1471 0600     		.2byte	0x6
 13116 1473 58       		.byte	0x58
 13117 1474 93       		.byte	0x93
 13118 1475 04       		.uleb128 0x4
 13119 1476 59       		.byte	0x59
 13120 1477 93       		.byte	0x93
 13121 1478 04       		.uleb128 0x4
 13122 1479 54050000 		.4byte	.LVL208
 13123 147d 68050000 		.4byte	.LVL212
 13124 1481 0600     		.2byte	0x6
 13125 1483 58       		.byte	0x58
 13126 1484 93       		.byte	0x93
 13127 1485 04       		.uleb128 0x4
 13128 1486 59       		.byte	0x59
 13129 1487 93       		.byte	0x93
 13130 1488 04       		.uleb128 0x4
 13131 1489 E2050000 		.4byte	.LVL231
 13132 148d E8050000 		.4byte	.LVL233
 13133 1491 0600     		.2byte	0x6
 13134 1493 58       		.byte	0x58
 13135 1494 93       		.byte	0x93
 13136 1495 04       		.uleb128 0x4
 13137 1496 59       		.byte	0x59
 13138 1497 93       		.byte	0x93
 13139 1498 04       		.uleb128 0x4
 13140 1499 2E060000 		.4byte	.LVL243
 13141 149d 48060000 		.4byte	.LFE10
 13142 14a1 0600     		.2byte	0x6
 13143 14a3 58       		.byte	0x58
 13144 14a4 93       		.byte	0x93
 13145 14a5 04       		.uleb128 0x4
 13146 14a6 59       		.byte	0x59
 13147 14a7 93       		.byte	0x93
 13148 14a8 04       		.uleb128 0x4
 13149 14a9 00000000 		.4byte	0
 13150 14ad 00000000 		.4byte	0
 13151              	.LLST79:
 13152 14b1 66020000 		.4byte	.LVL135
 13153 14b5 AE020000 		.4byte	.LVL141
 13154 14b9 0100     		.2byte	0x1
 13155 14bb 57       		.byte	0x57
 13156 14bc 28050000 		.4byte	.LVL202
 13157 14c0 C0050000 		.4byte	.LVL226
 13158 14c4 0100     		.2byte	0x1
ARM GAS  C:\Users\pearlstl\AppData\Local\Temp\ccbpFzqf.s 			page 260


 13159 14c6 57       		.byte	0x57
 13160 14c7 E2050000 		.4byte	.LVL231
 13161 14cb 48060000 		.4byte	.LFE10
 13162 14cf 0100     		.2byte	0x1
 13163 14d1 57       		.byte	0x57
 13164 14d2 00000000 		.4byte	0
 13165 14d6 00000000 		.4byte	0
 13166              	.LLST80:
 13167 14da 66020000 		.4byte	.LVL135
 13168 14de AE020000 		.4byte	.LVL141
 13169 14e2 0100     		.2byte	0x1
 13170 14e4 5A       		.byte	0x5a
 13171 14e5 28050000 		.4byte	.LVL202
 13172 14e9 C0050000 		.4byte	.LVL226
 13173 14ed 0100     		.2byte	0x1
 13174 14ef 5A       		.byte	0x5a
 13175 14f0 E2050000 		.4byte	.LVL231
 13176 14f4 48060000 		.4byte	.LFE10
 13177 14f8 0100     		.2byte	0x1
 13178 14fa 5A       		.byte	0x5a
 13179 14fb 00000000 		.4byte	0
 13180 14ff 00000000 		.4byte	0
 13181              	.LLST81:
 13182 1503 66020000 		.4byte	.LVL135
 13183 1507 AE020000 		.4byte	.LVL141
 13184 150b 0100     		.2byte	0x1
 13185 150d 56       		.byte	0x56
 13186 150e 28050000 		.4byte	.LVL202
 13187 1512 C0050000 		.4byte	.LVL226
 13188 1516 0100     		.2byte	0x1
 13189 1518 56       		.byte	0x56
 13190 1519 E2050000 		.4byte	.LVL231
 13191 151d 48060000 		.4byte	.LFE10
 13192 1521 0100     		.2byte	0x1
 13193 1523 56       		.byte	0x56
 13194 1524 00000000 		.4byte	0
 13195 1528 00000000 		.4byte	0
 13196              	.LLST82:
 13197 152c 66020000 		.4byte	.LVL135
 13198 1530 AE020000 		.4byte	.LVL141
 13199 1534 0100     		.2byte	0x1
 13200 1536 55       		.byte	0x55
 13201 1537 28050000 		.4byte	.LVL202
 13202 153b C0050000 		.4byte	.LVL226
 13203 153f 0100     		.2byte	0x1
 13204 1541 55       		.byte	0x55
 13205 1542 E2050000 		.4byte	.LVL231
 13206 1546 48060000 		.4byte	.LFE10
 13207 154a 0100     		.2byte	0x1
 13208 154c 55       		.byte	0x55
 13209 154d 00000000 		.4byte	0
 13210 1551 00000000 		.4byte	0
 13211              	.LLST83:
 13212 1555 66020000 		.4byte	.LVL135
 13213 1559 D2030000 		.4byte	.LVL159
 13214 155d 0200     		.2byte	0x2
 13215 155f 30       		.byte	0x30
ARM GAS  C:\Users\pearlstl\AppData\Local\Temp\ccbpFzqf.s 			page 261


 13216 1560 9F       		.byte	0x9f
 13217 1561 28050000 		.4byte	.LVL202
 13218 1565 C0050000 		.4byte	.LVL226
 13219 1569 0200     		.2byte	0x2
 13220 156b 30       		.byte	0x30
 13221 156c 9F       		.byte	0x9f
 13222 156d E2050000 		.4byte	.LVL231
 13223 1571 48060000 		.4byte	.LFE10
 13224 1575 0200     		.2byte	0x2
 13225 1577 30       		.byte	0x30
 13226 1578 9F       		.byte	0x9f
 13227 1579 00000000 		.4byte	0
 13228 157d 00000000 		.4byte	0
 13229              	.LLST84:
 13230 1581 66020000 		.4byte	.LVL135
 13231 1585 D2030000 		.4byte	.LVL159
 13232 1589 0A00     		.2byte	0xa
 13233 158b 9E       		.byte	0x9e
 13234 158c 08       		.uleb128 0x8
 13235 158d 00000000 		.4byte	0
 13236 1591 00000000 		.4byte	0
 13237 1595 28050000 		.4byte	.LVL202
 13238 1599 C0050000 		.4byte	.LVL226
 13239 159d 0A00     		.2byte	0xa
 13240 159f 9E       		.byte	0x9e
 13241 15a0 08       		.uleb128 0x8
 13242 15a1 00000000 		.4byte	0
 13243 15a5 00000000 		.4byte	0
 13244 15a9 E2050000 		.4byte	.LVL231
 13245 15ad 48060000 		.4byte	.LFE10
 13246 15b1 0A00     		.2byte	0xa
 13247 15b3 9E       		.byte	0x9e
 13248 15b4 08       		.uleb128 0x8
 13249 15b5 00000000 		.4byte	0
 13250 15b9 00000000 		.4byte	0
 13251 15bd 00000000 		.4byte	0
 13252 15c1 00000000 		.4byte	0
 13253              	.LLST85:
 13254 15c5 54050000 		.4byte	.LVL208
 13255 15c9 56050000 		.4byte	.LVL209
 13256 15cd 0700     		.2byte	0x7
 13257 15cf 73       		.byte	0x73
 13258 15d0 00       		.sleb128 0
 13259 15d1 0B       		.byte	0xb
 13260 15d2 FFF7     		.2byte	0xf7ff
 13261 15d4 1A       		.byte	0x1a
 13262 15d5 9F       		.byte	0x9f
 13263 15d6 56050000 		.4byte	.LVL209
 13264 15da BC050000 		.4byte	.LVL224
 13265 15de 0800     		.2byte	0x8
 13266 15e0 91       		.byte	0x91
 13267 15e1 10       		.sleb128 16
 13268 15e2 06       		.byte	0x6
 13269 15e3 0B       		.byte	0xb
 13270 15e4 FFF7     		.2byte	0xf7ff
 13271 15e6 1A       		.byte	0x1a
 13272 15e7 9F       		.byte	0x9f
ARM GAS  C:\Users\pearlstl\AppData\Local\Temp\ccbpFzqf.s 			page 262


 13273 15e8 2E060000 		.4byte	.LVL243
 13274 15ec 48060000 		.4byte	.LFE10
 13275 15f0 0800     		.2byte	0x8
 13276 15f2 91       		.byte	0x91
 13277 15f3 10       		.sleb128 16
 13278 15f4 06       		.byte	0x6
 13279 15f5 0B       		.byte	0xb
 13280 15f6 FFF7     		.2byte	0xf7ff
 13281 15f8 1A       		.byte	0x1a
 13282 15f9 9F       		.byte	0x9f
 13283 15fa 00000000 		.4byte	0
 13284 15fe 00000000 		.4byte	0
 13285              	.LLST86:
 13286 1602 54050000 		.4byte	.LVL208
 13287 1606 BC050000 		.4byte	.LVL224
 13288 160a 0100     		.2byte	0x1
 13289 160c 54       		.byte	0x54
 13290 160d 2E060000 		.4byte	.LVL243
 13291 1611 48060000 		.4byte	.LFE10
 13292 1615 0100     		.2byte	0x1
 13293 1617 54       		.byte	0x54
 13294 1618 00000000 		.4byte	0
 13295 161c 00000000 		.4byte	0
 13296              	.LLST87:
 13297 1620 54050000 		.4byte	.LVL208
 13298 1624 80050000 		.4byte	.LVL216
 13299 1628 0200     		.2byte	0x2
 13300 162a 34       		.byte	0x34
 13301 162b 9F       		.byte	0x9f
 13302 162c 80050000 		.4byte	.LVL216
 13303 1630 84050000 		.4byte	.LVL217
 13304 1634 0A00     		.2byte	0xa
 13305 1636 03       		.byte	0x3
 13306 1637 04000000 		.4byte	.LC1
 13307 163b 20       		.byte	0x20
 13308 163c 78       		.byte	0x78
 13309 163d 00       		.sleb128 0
 13310 163e 22       		.byte	0x22
 13311 163f 9F       		.byte	0x9f
 13312 1640 84050000 		.4byte	.LVL217
 13313 1644 A6050000 		.4byte	.LVL221
 13314 1648 0900     		.2byte	0x9
 13315 164a 78       		.byte	0x78
 13316 164b 00       		.sleb128 0
 13317 164c 03       		.byte	0x3
 13318 164d 04000000 		.4byte	.LC1
 13319 1651 1C       		.byte	0x1c
 13320 1652 9F       		.byte	0x9f
 13321 1653 2E060000 		.4byte	.LVL243
 13322 1657 48060000 		.4byte	.LFE10
 13323 165b 0200     		.2byte	0x2
 13324 165d 34       		.byte	0x34
 13325 165e 9F       		.byte	0x9f
 13326 165f 00000000 		.4byte	0
 13327 1663 00000000 		.4byte	0
 13328              	.LLST88:
 13329 1667 54050000 		.4byte	.LVL208
ARM GAS  C:\Users\pearlstl\AppData\Local\Temp\ccbpFzqf.s 			page 263


 13330 166b BC050000 		.4byte	.LVL224
 13331 166f 0600     		.2byte	0x6
 13332 1671 03       		.byte	0x3
 13333 1672 04000000 		.4byte	.LC1
 13334 1676 9F       		.byte	0x9f
 13335 1677 2E060000 		.4byte	.LVL243
 13336 167b 48060000 		.4byte	.LFE10
 13337 167f 0600     		.2byte	0x6
 13338 1681 03       		.byte	0x3
 13339 1682 04000000 		.4byte	.LC1
 13340 1686 9F       		.byte	0x9f
 13341 1687 00000000 		.4byte	0
 13342 168b 00000000 		.4byte	0
 13343              	.LLST89:
 13344 168f 54050000 		.4byte	.LVL208
 13345 1693 BC050000 		.4byte	.LVL224
 13346 1697 0100     		.2byte	0x1
 13347 1699 57       		.byte	0x57
 13348 169a 2E060000 		.4byte	.LVL243
 13349 169e 48060000 		.4byte	.LFE10
 13350 16a2 0100     		.2byte	0x1
 13351 16a4 57       		.byte	0x57
 13352 16a5 00000000 		.4byte	0
 13353 16a9 00000000 		.4byte	0
 13354              	.LLST90:
 13355 16ad 54050000 		.4byte	.LVL208
 13356 16b1 68050000 		.4byte	.LVL212
 13357 16b5 0100     		.2byte	0x1
 13358 16b7 5A       		.byte	0x5a
 13359 16b8 68050000 		.4byte	.LVL212
 13360 16bc 6C050000 		.4byte	.LVL213
 13361 16c0 0100     		.2byte	0x1
 13362 16c2 52       		.byte	0x52
 13363 16c3 6C050000 		.4byte	.LVL213
 13364 16c7 7C050000 		.4byte	.LVL215
 13365 16cb 0100     		.2byte	0x1
 13366 16cd 58       		.byte	0x58
 13367 16ce 7C050000 		.4byte	.LVL215
 13368 16d2 80050000 		.4byte	.LVL216
 13369 16d6 0300     		.2byte	0x3
 13370 16d8 91       		.byte	0x91
 13371 16d9 987F     		.sleb128 -104
 13372 16db 80050000 		.4byte	.LVL216
 13373 16df 8C050000 		.4byte	.LVL218
 13374 16e3 0100     		.2byte	0x1
 13375 16e5 52       		.byte	0x52
 13376 16e6 8C050000 		.4byte	.LVL218
 13377 16ea 9E050000 		.4byte	.LVL220
 13378 16ee 0100     		.2byte	0x1
 13379 16f0 59       		.byte	0x59
 13380 16f1 9E050000 		.4byte	.LVL220
 13381 16f5 AA050000 		.4byte	.LVL222
 13382 16f9 0100     		.2byte	0x1
 13383 16fb 52       		.byte	0x52
 13384 16fc AA050000 		.4byte	.LVL222
 13385 1700 BC050000 		.4byte	.LVL224
 13386 1704 0100     		.2byte	0x1
ARM GAS  C:\Users\pearlstl\AppData\Local\Temp\ccbpFzqf.s 			page 264


 13387 1706 58       		.byte	0x58
 13388 1707 2E060000 		.4byte	.LVL243
 13389 170b 48060000 		.4byte	.LFE10
 13390 170f 0100     		.2byte	0x1
 13391 1711 5A       		.byte	0x5a
 13392 1712 00000000 		.4byte	0
 13393 1716 00000000 		.4byte	0
 13394              	.LLST91:
 13395 171a 54050000 		.4byte	.LVL208
 13396 171e BC050000 		.4byte	.LVL224
 13397 1722 0100     		.2byte	0x1
 13398 1724 56       		.byte	0x56
 13399 1725 2E060000 		.4byte	.LVL243
 13400 1729 48060000 		.4byte	.LFE10
 13401 172d 0100     		.2byte	0x1
 13402 172f 56       		.byte	0x56
 13403 1730 00000000 		.4byte	0
 13404 1734 00000000 		.4byte	0
 13405              	.LLST92:
 13406 1738 54050000 		.4byte	.LVL208
 13407 173c BC050000 		.4byte	.LVL224
 13408 1740 0100     		.2byte	0x1
 13409 1742 55       		.byte	0x55
 13410 1743 2E060000 		.4byte	.LVL243
 13411 1747 48060000 		.4byte	.LFE10
 13412 174b 0100     		.2byte	0x1
 13413 174d 55       		.byte	0x55
 13414 174e 00000000 		.4byte	0
 13415 1752 00000000 		.4byte	0
 13416              	.LLST93:
 13417 1756 54050000 		.4byte	.LVL208
 13418 175a BC050000 		.4byte	.LVL224
 13419 175e 0100     		.2byte	0x1
 13420 1760 5A       		.byte	0x5a
 13421 1761 2E060000 		.4byte	.LVL243
 13422 1765 48060000 		.4byte	.LFE10
 13423 1769 0100     		.2byte	0x1
 13424 176b 5A       		.byte	0x5a
 13425 176c 00000000 		.4byte	0
 13426 1770 00000000 		.4byte	0
 13427              	.LLST94:
 13428 1774 58050000 		.4byte	.LVL210
 13429 1778 68050000 		.4byte	.LVL212
 13430 177c 0200     		.2byte	0x2
 13431 177e 34       		.byte	0x34
 13432 177f 9F       		.byte	0x9f
 13433 1780 00000000 		.4byte	0
 13434 1784 00000000 		.4byte	0
 13435              	.LLST95:
 13436 1788 28050000 		.4byte	.LVL202
 13437 178c 54050000 		.4byte	.LVL208
 13438 1790 0800     		.2byte	0x8
 13439 1792 91       		.byte	0x91
 13440 1793 10       		.sleb128 16
 13441 1794 06       		.byte	0x6
 13442 1795 0B       		.byte	0xb
 13443 1796 FFF7     		.2byte	0xf7ff
ARM GAS  C:\Users\pearlstl\AppData\Local\Temp\ccbpFzqf.s 			page 265


 13444 1798 1A       		.byte	0x1a
 13445 1799 9F       		.byte	0x9f
 13446 179a E2050000 		.4byte	.LVL231
 13447 179e 2E060000 		.4byte	.LVL243
 13448 17a2 0800     		.2byte	0x8
 13449 17a4 91       		.byte	0x91
 13450 17a5 10       		.sleb128 16
 13451 17a6 06       		.byte	0x6
 13452 17a7 0B       		.byte	0xb
 13453 17a8 FFF7     		.2byte	0xf7ff
 13454 17aa 1A       		.byte	0x1a
 13455 17ab 9F       		.byte	0x9f
 13456 17ac 00000000 		.4byte	0
 13457 17b0 00000000 		.4byte	0
 13458              	.LLST96:
 13459 17b4 28050000 		.4byte	.LVL202
 13460 17b8 54050000 		.4byte	.LVL208
 13461 17bc 0100     		.2byte	0x1
 13462 17be 54       		.byte	0x54
 13463 17bf E2050000 		.4byte	.LVL231
 13464 17c3 2C060000 		.4byte	.LVL242
 13465 17c7 0100     		.2byte	0x1
 13466 17c9 54       		.byte	0x54
 13467 17ca 00000000 		.4byte	0
 13468 17ce 00000000 		.4byte	0
 13469              	.LLST97:
 13470 17d2 28050000 		.4byte	.LVL202
 13471 17d6 54050000 		.4byte	.LVL208
 13472 17da 0200     		.2byte	0x2
 13473 17dc 33       		.byte	0x33
 13474 17dd 9F       		.byte	0x9f
 13475 17de E2050000 		.4byte	.LVL231
 13476 17e2 EC050000 		.4byte	.LVL234
 13477 17e6 0200     		.2byte	0x2
 13478 17e8 33       		.byte	0x33
 13479 17e9 9F       		.byte	0x9f
 13480 17ea EC050000 		.4byte	.LVL234
 13481 17ee F0050000 		.4byte	.LVL235
 13482 17f2 0A00     		.2byte	0xa
 13483 17f4 03       		.byte	0x3
 13484 17f5 00000000 		.4byte	.LC0
 13485 17f9 20       		.byte	0x20
 13486 17fa 78       		.byte	0x78
 13487 17fb 00       		.sleb128 0
 13488 17fc 22       		.byte	0x22
 13489 17fd 9F       		.byte	0x9f
 13490 17fe F0050000 		.4byte	.LVL235
 13491 1802 14060000 		.4byte	.LVL239
 13492 1806 0900     		.2byte	0x9
 13493 1808 78       		.byte	0x78
 13494 1809 00       		.sleb128 0
 13495 180a 03       		.byte	0x3
 13496 180b 00000000 		.4byte	.LC0
 13497 180f 1C       		.byte	0x1c
 13498 1810 9F       		.byte	0x9f
 13499 1811 00000000 		.4byte	0
 13500 1815 00000000 		.4byte	0
ARM GAS  C:\Users\pearlstl\AppData\Local\Temp\ccbpFzqf.s 			page 266


 13501              	.LLST98:
 13502 1819 28050000 		.4byte	.LVL202
 13503 181d 54050000 		.4byte	.LVL208
 13504 1821 0600     		.2byte	0x6
 13505 1823 03       		.byte	0x3
 13506 1824 00000000 		.4byte	.LC0
 13507 1828 9F       		.byte	0x9f
 13508 1829 E2050000 		.4byte	.LVL231
 13509 182d 2E060000 		.4byte	.LVL243
 13510 1831 0600     		.2byte	0x6
 13511 1833 03       		.byte	0x3
 13512 1834 00000000 		.4byte	.LC0
 13513 1838 9F       		.byte	0x9f
 13514 1839 00000000 		.4byte	0
 13515 183d 00000000 		.4byte	0
 13516              	.LLST99:
 13517 1841 28050000 		.4byte	.LVL202
 13518 1845 54050000 		.4byte	.LVL208
 13519 1849 0100     		.2byte	0x1
 13520 184b 57       		.byte	0x57
 13521 184c E2050000 		.4byte	.LVL231
 13522 1850 2E060000 		.4byte	.LVL243
 13523 1854 0100     		.2byte	0x1
 13524 1856 57       		.byte	0x57
 13525 1857 00000000 		.4byte	0
 13526 185b 00000000 		.4byte	0
 13527              	.LLST100:
 13528 185f 28050000 		.4byte	.LVL202
 13529 1863 3E050000 		.4byte	.LVL205
 13530 1867 0100     		.2byte	0x1
 13531 1869 5A       		.byte	0x5a
 13532 186a 3E050000 		.4byte	.LVL205
 13533 186e 42050000 		.4byte	.LVL206
 13534 1872 0100     		.2byte	0x1
 13535 1874 52       		.byte	0x52
 13536 1875 42050000 		.4byte	.LVL206
 13537 1879 54050000 		.4byte	.LVL208
 13538 187d 0100     		.2byte	0x1
 13539 187f 58       		.byte	0x58
 13540 1880 E2050000 		.4byte	.LVL231
 13541 1884 E8050000 		.4byte	.LVL233
 13542 1888 0100     		.2byte	0x1
 13543 188a 5A       		.byte	0x5a
 13544 188b E8050000 		.4byte	.LVL233
 13545 188f EC050000 		.4byte	.LVL234
 13546 1893 0300     		.2byte	0x3
 13547 1895 91       		.byte	0x91
 13548 1896 987F     		.sleb128 -104
 13549 1898 EC050000 		.4byte	.LVL234
 13550 189c F8050000 		.4byte	.LVL236
 13551 18a0 0100     		.2byte	0x1
 13552 18a2 52       		.byte	0x52
 13553 18a3 F8050000 		.4byte	.LVL236
 13554 18a7 0C060000 		.4byte	.LVL238
 13555 18ab 0100     		.2byte	0x1
 13556 18ad 59       		.byte	0x59
 13557 18ae 0C060000 		.4byte	.LVL238
ARM GAS  C:\Users\pearlstl\AppData\Local\Temp\ccbpFzqf.s 			page 267


 13558 18b2 18060000 		.4byte	.LVL240
 13559 18b6 0100     		.2byte	0x1
 13560 18b8 52       		.byte	0x52
 13561 18b9 18060000 		.4byte	.LVL240
 13562 18bd 2E060000 		.4byte	.LVL243
 13563 18c1 0100     		.2byte	0x1
 13564 18c3 58       		.byte	0x58
 13565 18c4 00000000 		.4byte	0
 13566 18c8 00000000 		.4byte	0
 13567              	.LLST101:
 13568 18cc 28050000 		.4byte	.LVL202
 13569 18d0 54050000 		.4byte	.LVL208
 13570 18d4 0100     		.2byte	0x1
 13571 18d6 56       		.byte	0x56
 13572 18d7 E2050000 		.4byte	.LVL231
 13573 18db 2E060000 		.4byte	.LVL243
 13574 18df 0100     		.2byte	0x1
 13575 18e1 56       		.byte	0x56
 13576 18e2 00000000 		.4byte	0
 13577 18e6 00000000 		.4byte	0
 13578              	.LLST102:
 13579 18ea 28050000 		.4byte	.LVL202
 13580 18ee 54050000 		.4byte	.LVL208
 13581 18f2 0100     		.2byte	0x1
 13582 18f4 55       		.byte	0x55
 13583 18f5 E2050000 		.4byte	.LVL231
 13584 18f9 2E060000 		.4byte	.LVL243
 13585 18fd 0100     		.2byte	0x1
 13586 18ff 55       		.byte	0x55
 13587 1900 00000000 		.4byte	0
 13588 1904 00000000 		.4byte	0
 13589              	.LLST103:
 13590 1908 28050000 		.4byte	.LVL202
 13591 190c 54050000 		.4byte	.LVL208
 13592 1910 0100     		.2byte	0x1
 13593 1912 5A       		.byte	0x5a
 13594 1913 E2050000 		.4byte	.LVL231
 13595 1917 2E060000 		.4byte	.LVL243
 13596 191b 0100     		.2byte	0x1
 13597 191d 5A       		.byte	0x5a
 13598 191e 00000000 		.4byte	0
 13599 1922 00000000 		.4byte	0
 13600              	.LLST104:
 13601 1926 2E050000 		.4byte	.LVL203
 13602 192a 3E050000 		.4byte	.LVL205
 13603 192e 0200     		.2byte	0x2
 13604 1930 33       		.byte	0x33
 13605 1931 9F       		.byte	0x9f
 13606 1932 00000000 		.4byte	0
 13607 1936 00000000 		.4byte	0
 13608              	.LLST105:
 13609 193a E2020000 		.4byte	.LVL145
 13610 193e A6030000 		.4byte	.LVL153
 13611 1942 0200     		.2byte	0x2
 13612 1944 35       		.byte	0x35
 13613 1945 9F       		.byte	0x9f
 13614 1946 00000000 		.4byte	0
ARM GAS  C:\Users\pearlstl\AppData\Local\Temp\ccbpFzqf.s 			page 268


 13615 194a 00000000 		.4byte	0
 13616              	.LLST106:
 13617 194e E2020000 		.4byte	.LVL145
 13618 1952 A6030000 		.4byte	.LVL153
 13619 1956 0100     		.2byte	0x1
 13620 1958 58       		.byte	0x58
 13621 1959 00000000 		.4byte	0
 13622 195d 00000000 		.4byte	0
 13623              	.LLST107:
 13624 1961 E2020000 		.4byte	.LVL145
 13625 1965 A6030000 		.4byte	.LVL153
 13626 1969 0200     		.2byte	0x2
 13627 196b 30       		.byte	0x30
 13628 196c 9F       		.byte	0x9f
 13629 196d 00000000 		.4byte	0
 13630 1971 00000000 		.4byte	0
 13631              	.LLST108:
 13632 1975 E2020000 		.4byte	.LVL145
 13633 1979 A6030000 		.4byte	.LVL153
 13634 197d 0200     		.2byte	0x2
 13635 197f 3A       		.byte	0x3a
 13636 1980 9F       		.byte	0x9f
 13637 1981 00000000 		.4byte	0
 13638 1985 00000000 		.4byte	0
 13639              	.LLST109:
 13640 1989 E2020000 		.4byte	.LVL145
 13641 198d A6030000 		.4byte	.LVL153
 13642 1991 0100     		.2byte	0x1
 13643 1993 59       		.byte	0x59
 13644 1994 00000000 		.4byte	0
 13645 1998 00000000 		.4byte	0
 13646              	.LLST110:
 13647 199c DE020000 		.4byte	.LVL144
 13648 19a0 54030000 		.4byte	.LVL146
 13649 19a4 0100     		.2byte	0x1
 13650 19a6 53       		.byte	0x53
 13651 19a7 54030000 		.4byte	.LVL146
 13652 19ab 58030000 		.4byte	.LVL147
 13653 19af 0100     		.2byte	0x1
 13654 19b1 52       		.byte	0x52
 13655 19b2 58030000 		.4byte	.LVL147
 13656 19b6 66030000 		.4byte	.LVL148
 13657 19ba 0100     		.2byte	0x1
 13658 19bc 53       		.byte	0x53
 13659 19bd 6E030000 		.4byte	.LVL149
 13660 19c1 84030000 		.4byte	.LVL150
 13661 19c5 0100     		.2byte	0x1
 13662 19c7 52       		.byte	0x52
 13663 19c8 00000000 		.4byte	0
 13664 19cc 00000000 		.4byte	0
 13665              	.LLST111:
 13666 19d0 DA020000 		.4byte	.LVL143
 13667 19d4 A6030000 		.4byte	.LVL153
 13668 19d8 0100     		.2byte	0x1
 13669 19da 57       		.byte	0x57
 13670 19db 00000000 		.4byte	0
 13671 19df 00000000 		.4byte	0
ARM GAS  C:\Users\pearlstl\AppData\Local\Temp\ccbpFzqf.s 			page 269


 13672              	.LLST112:
 13673 19e3 DA020000 		.4byte	.LVL143
 13674 19e7 A6030000 		.4byte	.LVL153
 13675 19eb 0100     		.2byte	0x1
 13676 19ed 54       		.byte	0x54
 13677 19ee 00000000 		.4byte	0
 13678 19f2 00000000 		.4byte	0
 13679              	.LLST113:
 13680 19f6 DA020000 		.4byte	.LVL143
 13681 19fa A6030000 		.4byte	.LVL153
 13682 19fe 0100     		.2byte	0x1
 13683 1a00 56       		.byte	0x56
 13684 1a01 00000000 		.4byte	0
 13685 1a05 00000000 		.4byte	0
 13686              	.LLST114:
 13687 1a09 DA020000 		.4byte	.LVL143
 13688 1a0d A6030000 		.4byte	.LVL153
 13689 1a11 0100     		.2byte	0x1
 13690 1a13 55       		.byte	0x55
 13691 1a14 00000000 		.4byte	0
 13692 1a18 00000000 		.4byte	0
 13693              	.LLST115:
 13694 1a1c E2020000 		.4byte	.LVL145
 13695 1a20 54030000 		.4byte	.LVL146
 13696 1a24 0200     		.2byte	0x2
 13697 1a26 30       		.byte	0x30
 13698 1a27 9F       		.byte	0x9f
 13699 1a28 54030000 		.4byte	.LVL146
 13700 1a2c 9E030000 		.4byte	.LVL151
 13701 1a30 0100     		.2byte	0x1
 13702 1a32 50       		.byte	0x50
 13703 1a33 9E030000 		.4byte	.LVL151
 13704 1a37 A1030000 		.4byte	.LVL152-1
 13705 1a3b 0300     		.2byte	0x3
 13706 1a3d 91       		.byte	0x91
 13707 1a3e FC7E     		.sleb128 -132
 13708 1a40 00000000 		.4byte	0
 13709 1a44 00000000 		.4byte	0
 13710              	.LLST116:
 13711 1a48 58030000 		.4byte	.LVL147
 13712 1a4c 66030000 		.4byte	.LVL148
 13713 1a50 0500     		.2byte	0x5
 13714 1a52 73       		.byte	0x73
 13715 1a53 00       		.sleb128 0
 13716 1a54 3A       		.byte	0x3a
 13717 1a55 1D       		.byte	0x1d
 13718 1a56 9F       		.byte	0x9f
 13719 1a57 00000000 		.4byte	0
 13720 1a5b 00000000 		.4byte	0
 13721              	.LLST117:
 13722 1a5f 00000000 		.4byte	.LVL245
 13723 1a63 26000000 		.4byte	.LVL247
 13724 1a67 0100     		.2byte	0x1
 13725 1a69 50       		.byte	0x50
 13726 1a6a 26000000 		.4byte	.LVL247
 13727 1a6e F0020000 		.4byte	.LVL321
 13728 1a72 0100     		.2byte	0x1
ARM GAS  C:\Users\pearlstl\AppData\Local\Temp\ccbpFzqf.s 			page 270


 13729 1a74 55       		.byte	0x55
 13730 1a75 F0020000 		.4byte	.LVL321
 13731 1a79 F3020000 		.4byte	.LVL322-1
 13732 1a7d 0100     		.2byte	0x1
 13733 1a7f 50       		.byte	0x50
 13734 1a80 F3020000 		.4byte	.LVL322-1
 13735 1a84 F4020000 		.4byte	.LVL322
 13736 1a88 0400     		.2byte	0x4
 13737 1a8a F3       		.byte	0xf3
 13738 1a8b 01       		.uleb128 0x1
 13739 1a8c 50       		.byte	0x50
 13740 1a8d 9F       		.byte	0x9f
 13741 1a8e F4020000 		.4byte	.LVL322
 13742 1a92 24050000 		.4byte	.LFE15
 13743 1a96 0100     		.2byte	0x1
 13744 1a98 55       		.byte	0x55
 13745 1a99 00000000 		.4byte	0
 13746 1a9d 00000000 		.4byte	0
 13747              	.LLST118:
 13748 1aa1 00000000 		.4byte	.LVL245
 13749 1aa5 31000000 		.4byte	.LVL249-1
 13750 1aa9 0100     		.2byte	0x1
 13751 1aab 51       		.byte	0x51
 13752 1aac 31000000 		.4byte	.LVL249-1
 13753 1ab0 F0020000 		.4byte	.LVL321
 13754 1ab4 0100     		.2byte	0x1
 13755 1ab6 56       		.byte	0x56
 13756 1ab7 F0020000 		.4byte	.LVL321
 13757 1abb F3020000 		.4byte	.LVL322-1
 13758 1abf 0100     		.2byte	0x1
 13759 1ac1 51       		.byte	0x51
 13760 1ac2 F3020000 		.4byte	.LVL322-1
 13761 1ac6 F4020000 		.4byte	.LVL322
 13762 1aca 0400     		.2byte	0x4
 13763 1acc F3       		.byte	0xf3
 13764 1acd 01       		.uleb128 0x1
 13765 1ace 51       		.byte	0x51
 13766 1acf 9F       		.byte	0x9f
 13767 1ad0 F4020000 		.4byte	.LVL322
 13768 1ad4 24050000 		.4byte	.LFE15
 13769 1ad8 0100     		.2byte	0x1
 13770 1ada 56       		.byte	0x56
 13771 1adb 00000000 		.4byte	0
 13772 1adf 00000000 		.4byte	0
 13773              	.LLST119:
 13774 1ae3 00000000 		.4byte	.LVL245
 13775 1ae7 2A000000 		.4byte	.LVL248
 13776 1aeb 0100     		.2byte	0x1
 13777 1aed 52       		.byte	0x52
 13778 1aee 2A000000 		.4byte	.LVL248
 13779 1af2 5C000000 		.4byte	.LVL252
 13780 1af6 0100     		.2byte	0x1
 13781 1af8 5A       		.byte	0x5a
 13782 1af9 5C000000 		.4byte	.LVL252
 13783 1afd 60000000 		.4byte	.LVL253
 13784 1b01 0100     		.2byte	0x1
 13785 1b03 52       		.byte	0x52
ARM GAS  C:\Users\pearlstl\AppData\Local\Temp\ccbpFzqf.s 			page 271


 13786 1b04 60000000 		.4byte	.LVL253
 13787 1b08 C0000000 		.4byte	.LVL266
 13788 1b0c 0300     		.2byte	0x3
 13789 1b0e 91       		.byte	0x91
 13790 1b0f 9C7F     		.sleb128 -100
 13791 1b11 C0000000 		.4byte	.LVL266
 13792 1b15 18010000 		.4byte	.LVL272
 13793 1b19 0100     		.2byte	0x1
 13794 1b1b 5A       		.byte	0x5a
 13795 1b1c 18010000 		.4byte	.LVL272
 13796 1b20 CE020000 		.4byte	.LVL320
 13797 1b24 0300     		.2byte	0x3
 13798 1b26 91       		.byte	0x91
 13799 1b27 9C7F     		.sleb128 -100
 13800 1b29 CE020000 		.4byte	.LVL320
 13801 1b2d F0020000 		.4byte	.LVL321
 13802 1b31 0100     		.2byte	0x1
 13803 1b33 5A       		.byte	0x5a
 13804 1b34 F0020000 		.4byte	.LVL321
 13805 1b38 F4020000 		.4byte	.LVL322
 13806 1b3c 0300     		.2byte	0x3
 13807 1b3e 7D       		.byte	0x7d
 13808 1b3f 9C7F     		.sleb128 -100
 13809 1b41 F4020000 		.4byte	.LVL322
 13810 1b45 3C030000 		.4byte	.LVL325
 13811 1b49 0100     		.2byte	0x1
 13812 1b4b 5A       		.byte	0x5a
 13813 1b4c 3C030000 		.4byte	.LVL325
 13814 1b50 DA030000 		.4byte	.LVL341
 13815 1b54 0300     		.2byte	0x3
 13816 1b56 91       		.byte	0x91
 13817 1b57 9C7F     		.sleb128 -100
 13818 1b59 DA030000 		.4byte	.LVL341
 13819 1b5d E6030000 		.4byte	.LVL343
 13820 1b61 0100     		.2byte	0x1
 13821 1b63 5A       		.byte	0x5a
 13822 1b64 E6030000 		.4byte	.LVL343
 13823 1b68 FC040000 		.4byte	.LVL374
 13824 1b6c 0300     		.2byte	0x3
 13825 1b6e 91       		.byte	0x91
 13826 1b6f 9C7F     		.sleb128 -100
 13827 1b71 FC040000 		.4byte	.LVL374
 13828 1b75 14050000 		.4byte	.LVL375
 13829 1b79 0100     		.2byte	0x1
 13830 1b7b 5A       		.byte	0x5a
 13831 1b7c 14050000 		.4byte	.LVL375
 13832 1b80 24050000 		.4byte	.LFE15
 13833 1b84 0300     		.2byte	0x3
 13834 1b86 91       		.byte	0x91
 13835 1b87 9C7F     		.sleb128 -100
 13836 1b89 00000000 		.4byte	0
 13837 1b8d 00000000 		.4byte	0
 13838              	.LLST120:
 13839 1b91 00000000 		.4byte	.LVL245
 13840 1b95 18000000 		.4byte	.LVL246
 13841 1b99 0100     		.2byte	0x1
 13842 1b9b 53       		.byte	0x53
ARM GAS  C:\Users\pearlstl\AppData\Local\Temp\ccbpFzqf.s 			page 272


 13843 1b9c 18000000 		.4byte	.LVL246
 13844 1ba0 F0020000 		.4byte	.LVL321
 13845 1ba4 0100     		.2byte	0x1
 13846 1ba6 57       		.byte	0x57
 13847 1ba7 F0020000 		.4byte	.LVL321
 13848 1bab F3020000 		.4byte	.LVL322-1
 13849 1baf 0100     		.2byte	0x1
 13850 1bb1 53       		.byte	0x53
 13851 1bb2 F3020000 		.4byte	.LVL322-1
 13852 1bb6 F4020000 		.4byte	.LVL322
 13853 1bba 0400     		.2byte	0x4
 13854 1bbc F3       		.byte	0xf3
 13855 1bbd 01       		.uleb128 0x1
 13856 1bbe 53       		.byte	0x53
 13857 1bbf 9F       		.byte	0x9f
 13858 1bc0 F4020000 		.4byte	.LVL322
 13859 1bc4 24050000 		.4byte	.LFE15
 13860 1bc8 0100     		.2byte	0x1
 13861 1bca 57       		.byte	0x57
 13862 1bcb 00000000 		.4byte	0
 13863 1bcf 00000000 		.4byte	0
 13864              	.LLST121:
 13865 1bd3 00000000 		.4byte	.LVL245
 13866 1bd7 C0000000 		.4byte	.LVL266
 13867 1bdb 0200     		.2byte	0x2
 13868 1bdd 91       		.byte	0x91
 13869 1bde 00       		.sleb128 0
 13870 1bdf C0000000 		.4byte	.LVL266
 13871 1be3 02010000 		.4byte	.LVL271
 13872 1be7 0200     		.2byte	0x2
 13873 1be9 91       		.byte	0x91
 13874 1bea 00       		.sleb128 0
 13875 1beb 02010000 		.4byte	.LVL271
 13876 1bef A4010000 		.4byte	.LVL293
 13877 1bf3 0200     		.2byte	0x2
 13878 1bf5 7D       		.byte	0x7d
 13879 1bf6 00       		.sleb128 0
 13880 1bf7 C6020000 		.4byte	.LVL319
 13881 1bfb F0020000 		.4byte	.LVL321
 13882 1bff 0200     		.2byte	0x2
 13883 1c01 91       		.byte	0x91
 13884 1c02 00       		.sleb128 0
 13885 1c03 F0020000 		.4byte	.LVL321
 13886 1c07 F4020000 		.4byte	.LVL322
 13887 1c0b 0200     		.2byte	0x2
 13888 1c0d 7D       		.byte	0x7d
 13889 1c0e 00       		.sleb128 0
 13890 1c0f F4020000 		.4byte	.LVL322
 13891 1c13 08030000 		.4byte	.LVL324
 13892 1c17 0200     		.2byte	0x2
 13893 1c19 91       		.byte	0x91
 13894 1c1a 00       		.sleb128 0
 13895 1c1b 08030000 		.4byte	.LVL324
 13896 1c1f 3C030000 		.4byte	.LVL325
 13897 1c23 0600     		.2byte	0x6
 13898 1c25 50       		.byte	0x50
 13899 1c26 93       		.byte	0x93
ARM GAS  C:\Users\pearlstl\AppData\Local\Temp\ccbpFzqf.s 			page 273


 13900 1c27 04       		.uleb128 0x4
 13901 1c28 51       		.byte	0x51
 13902 1c29 93       		.byte	0x93
 13903 1c2a 04       		.uleb128 0x4
 13904 1c2b 4C030000 		.4byte	.LVL327
 13905 1c2f A6030000 		.4byte	.LVL336
 13906 1c33 0200     		.2byte	0x2
 13907 1c35 7D       		.byte	0x7d
 13908 1c36 00       		.sleb128 0
 13909 1c37 BC030000 		.4byte	.LVL338
 13910 1c3b 1E040000 		.4byte	.LVL350
 13911 1c3f 0200     		.2byte	0x2
 13912 1c41 7D       		.byte	0x7d
 13913 1c42 00       		.sleb128 0
 13914 1c43 64040000 		.4byte	.LVL355
 13915 1c47 76040000 		.4byte	.LVL356
 13916 1c4b 0200     		.2byte	0x2
 13917 1c4d 7D       		.byte	0x7d
 13918 1c4e 00       		.sleb128 0
 13919 1c4f 92040000 		.4byte	.LVL358
 13920 1c53 C8040000 		.4byte	.LVL368
 13921 1c57 0200     		.2byte	0x2
 13922 1c59 7D       		.byte	0x7d
 13923 1c5a 00       		.sleb128 0
 13924 1c5b FC040000 		.4byte	.LVL374
 13925 1c5f 24050000 		.4byte	.LFE15
 13926 1c63 0200     		.2byte	0x2
 13927 1c65 7D       		.byte	0x7d
 13928 1c66 00       		.sleb128 0
 13929 1c67 00000000 		.4byte	0
 13930 1c6b 00000000 		.4byte	0
 13931              	.LLST122:
 13932 1c6f 00000000 		.4byte	.LVL245
 13933 1c73 C0000000 		.4byte	.LVL266
 13934 1c77 0200     		.2byte	0x2
 13935 1c79 91       		.byte	0x91
 13936 1c7a 08       		.sleb128 8
 13937 1c7b C0000000 		.4byte	.LVL266
 13938 1c7f 18010000 		.4byte	.LVL272
 13939 1c83 0200     		.2byte	0x2
 13940 1c85 91       		.byte	0x91
 13941 1c86 08       		.sleb128 8
 13942 1c87 C6020000 		.4byte	.LVL319
 13943 1c8b F0020000 		.4byte	.LVL321
 13944 1c8f 0200     		.2byte	0x2
 13945 1c91 91       		.byte	0x91
 13946 1c92 08       		.sleb128 8
 13947 1c93 F0020000 		.4byte	.LVL321
 13948 1c97 F4020000 		.4byte	.LVL322
 13949 1c9b 0200     		.2byte	0x2
 13950 1c9d 7D       		.byte	0x7d
 13951 1c9e 08       		.sleb128 8
 13952 1c9f F4020000 		.4byte	.LVL322
 13953 1ca3 3C030000 		.4byte	.LVL325
 13954 1ca7 0200     		.2byte	0x2
 13955 1ca9 91       		.byte	0x91
 13956 1caa 08       		.sleb128 8
ARM GAS  C:\Users\pearlstl\AppData\Local\Temp\ccbpFzqf.s 			page 274


 13957 1cab DA030000 		.4byte	.LVL341
 13958 1caf F0030000 		.4byte	.LVL344
 13959 1cb3 0100     		.2byte	0x1
 13960 1cb5 58       		.byte	0x58
 13961 1cb6 F0030000 		.4byte	.LVL344
 13962 1cba 1E040000 		.4byte	.LVL350
 13963 1cbe 0100     		.2byte	0x1
 13964 1cc0 54       		.byte	0x54
 13965 1cc1 64040000 		.4byte	.LVL355
 13966 1cc5 76040000 		.4byte	.LVL356
 13967 1cc9 0100     		.2byte	0x1
 13968 1ccb 54       		.byte	0x54
 13969 1ccc FC040000 		.4byte	.LVL374
 13970 1cd0 24050000 		.4byte	.LFE15
 13971 1cd4 0100     		.2byte	0x1
 13972 1cd6 58       		.byte	0x58
 13973 1cd7 00000000 		.4byte	0
 13974 1cdb 00000000 		.4byte	0
 13975              	.LLST123:
 13976 1cdf 00000000 		.4byte	.LVL245
 13977 1ce3 C0000000 		.4byte	.LVL266
 13978 1ce7 0200     		.2byte	0x2
 13979 1ce9 91       		.byte	0x91
 13980 1cea 0C       		.sleb128 12
 13981 1ceb C0000000 		.4byte	.LVL266
 13982 1cef 28020000 		.4byte	.LVL302
 13983 1cf3 0200     		.2byte	0x2
 13984 1cf5 91       		.byte	0x91
 13985 1cf6 0C       		.sleb128 12
 13986 1cf7 28020000 		.4byte	.LVL302
 13987 1cfb 4A020000 		.4byte	.LVL305
 13988 1cff 0100     		.2byte	0x1
 13989 1d01 5B       		.byte	0x5b
 13990 1d02 C6020000 		.4byte	.LVL319
 13991 1d06 F0020000 		.4byte	.LVL321
 13992 1d0a 0200     		.2byte	0x2
 13993 1d0c 91       		.byte	0x91
 13994 1d0d 0C       		.sleb128 12
 13995 1d0e F0020000 		.4byte	.LVL321
 13996 1d12 F4020000 		.4byte	.LVL322
 13997 1d16 0200     		.2byte	0x2
 13998 1d18 7D       		.byte	0x7d
 13999 1d19 0C       		.sleb128 12
 14000 1d1a F4020000 		.4byte	.LVL322
 14001 1d1e 38040000 		.4byte	.LVL352
 14002 1d22 0200     		.2byte	0x2
 14003 1d24 91       		.byte	0x91
 14004 1d25 0C       		.sleb128 12
 14005 1d26 38040000 		.4byte	.LVL352
 14006 1d2a 5E040000 		.4byte	.LVL354
 14007 1d2e 0100     		.2byte	0x1
 14008 1d30 5B       		.byte	0x5b
 14009 1d31 64040000 		.4byte	.LVL355
 14010 1d35 76040000 		.4byte	.LVL356
 14011 1d39 0200     		.2byte	0x2
 14012 1d3b 91       		.byte	0x91
 14013 1d3c 0C       		.sleb128 12
ARM GAS  C:\Users\pearlstl\AppData\Local\Temp\ccbpFzqf.s 			page 275


 14014 1d3d 76040000 		.4byte	.LVL356
 14015 1d41 92040000 		.4byte	.LVL358
 14016 1d45 0100     		.2byte	0x1
 14017 1d47 5B       		.byte	0x5b
 14018 1d48 92040000 		.4byte	.LVL358
 14019 1d4c C8040000 		.4byte	.LVL368
 14020 1d50 0200     		.2byte	0x2
 14021 1d52 91       		.byte	0x91
 14022 1d53 0C       		.sleb128 12
 14023 1d54 C8040000 		.4byte	.LVL368
 14024 1d58 D8040000 		.4byte	.LVL370
 14025 1d5c 0100     		.2byte	0x1
 14026 1d5e 5B       		.byte	0x5b
 14027 1d5f D8040000 		.4byte	.LVL370
 14028 1d63 EA040000 		.4byte	.LVL372
 14029 1d67 0200     		.2byte	0x2
 14030 1d69 91       		.byte	0x91
 14031 1d6a 0C       		.sleb128 12
 14032 1d6b EA040000 		.4byte	.LVL372
 14033 1d6f FC040000 		.4byte	.LVL374
 14034 1d73 0100     		.2byte	0x1
 14035 1d75 5B       		.byte	0x5b
 14036 1d76 FC040000 		.4byte	.LVL374
 14037 1d7a 24050000 		.4byte	.LFE15
 14038 1d7e 0200     		.2byte	0x2
 14039 1d80 91       		.byte	0x91
 14040 1d81 0C       		.sleb128 12
 14041 1d82 00000000 		.4byte	0
 14042 1d86 00000000 		.4byte	0
 14043              	.LLST124:
 14044 1d8a 00000000 		.4byte	.LVL245
 14045 1d8e C0000000 		.4byte	.LVL266
 14046 1d92 0200     		.2byte	0x2
 14047 1d94 91       		.byte	0x91
 14048 1d95 10       		.sleb128 16
 14049 1d96 C0000000 		.4byte	.LVL266
 14050 1d9a F0020000 		.4byte	.LVL321
 14051 1d9e 0200     		.2byte	0x2
 14052 1da0 91       		.byte	0x91
 14053 1da1 10       		.sleb128 16
 14054 1da2 F0020000 		.4byte	.LVL321
 14055 1da6 F4020000 		.4byte	.LVL322
 14056 1daa 0200     		.2byte	0x2
 14057 1dac 7D       		.byte	0x7d
 14058 1dad 10       		.sleb128 16
 14059 1dae F4020000 		.4byte	.LVL322
 14060 1db2 24050000 		.4byte	.LFE15
 14061 1db6 0200     		.2byte	0x2
 14062 1db8 91       		.byte	0x91
 14063 1db9 10       		.sleb128 16
 14064 1dba 00000000 		.4byte	0
 14065 1dbe 00000000 		.4byte	0
 14066              	.LLST125:
 14067 1dc2 C0010000 		.4byte	.LVL296
 14068 1dc6 E8010000 		.4byte	.LVL297
 14069 1dca 0100     		.2byte	0x1
 14070 1dcc 59       		.byte	0x59
ARM GAS  C:\Users\pearlstl\AppData\Local\Temp\ccbpFzqf.s 			page 276


 14071 1dcd E8010000 		.4byte	.LVL297
 14072 1dd1 4A020000 		.4byte	.LVL305
 14073 1dd5 0100     		.2byte	0x1
 14074 1dd7 58       		.byte	0x58
 14075 1dd8 4C030000 		.4byte	.LVL327
 14076 1ddc 74030000 		.4byte	.LVL330
 14077 1de0 0100     		.2byte	0x1
 14078 1de2 59       		.byte	0x59
 14079 1de3 74030000 		.4byte	.LVL330
 14080 1de7 A6030000 		.4byte	.LVL336
 14081 1deb 0100     		.2byte	0x1
 14082 1ded 52       		.byte	0x52
 14083 1dee A6030000 		.4byte	.LVL336
 14084 1df2 BC030000 		.4byte	.LVL338
 14085 1df6 0300     		.2byte	0x3
 14086 1df8 08       		.byte	0x8
 14087 1df9 20       		.byte	0x20
 14088 1dfa 9F       		.byte	0x9f
 14089 1dfb DA030000 		.4byte	.LVL341
 14090 1dff E2030000 		.4byte	.LVL342
 14091 1e03 0200     		.2byte	0x2
 14092 1e05 30       		.byte	0x30
 14093 1e06 9F       		.byte	0x9f
 14094 1e07 E2030000 		.4byte	.LVL342
 14095 1e0b FA030000 		.4byte	.LVL345
 14096 1e0f 0200     		.2byte	0x2
 14097 1e11 31       		.byte	0x31
 14098 1e12 9F       		.byte	0x9f
 14099 1e13 FA030000 		.4byte	.LVL345
 14100 1e17 10040000 		.4byte	.LVL349
 14101 1e1b 0100     		.2byte	0x1
 14102 1e1d 53       		.byte	0x53
 14103 1e1e 1E040000 		.4byte	.LVL350
 14104 1e22 28040000 		.4byte	.LVL351
 14105 1e26 0300     		.2byte	0x3
 14106 1e28 08       		.byte	0x8
 14107 1e29 20       		.byte	0x20
 14108 1e2a 9F       		.byte	0x9f
 14109 1e2b 38040000 		.4byte	.LVL352
 14110 1e2f 5E040000 		.4byte	.LVL354
 14111 1e33 0100     		.2byte	0x1
 14112 1e35 58       		.byte	0x58
 14113 1e36 64040000 		.4byte	.LVL355
 14114 1e3a 76040000 		.4byte	.LVL356
 14115 1e3e 0100     		.2byte	0x1
 14116 1e40 53       		.byte	0x53
 14117 1e41 76040000 		.4byte	.LVL356
 14118 1e45 92040000 		.4byte	.LVL358
 14119 1e49 0100     		.2byte	0x1
 14120 1e4b 58       		.byte	0x58
 14121 1e4c 92040000 		.4byte	.LVL358
 14122 1e50 B8040000 		.4byte	.LVL366
 14123 1e54 0100     		.2byte	0x1
 14124 1e56 52       		.byte	0x52
 14125 1e57 B8040000 		.4byte	.LVL366
 14126 1e5b BE040000 		.4byte	.LVL367
 14127 1e5f 0100     		.2byte	0x1
ARM GAS  C:\Users\pearlstl\AppData\Local\Temp\ccbpFzqf.s 			page 277


 14128 1e61 59       		.byte	0x59
 14129 1e62 C8040000 		.4byte	.LVL368
 14130 1e66 D8040000 		.4byte	.LVL370
 14131 1e6a 0100     		.2byte	0x1
 14132 1e6c 58       		.byte	0x58
 14133 1e6d D8040000 		.4byte	.LVL370
 14134 1e71 E4040000 		.4byte	.LVL371
 14135 1e75 0300     		.2byte	0x3
 14136 1e77 08       		.byte	0x8
 14137 1e78 20       		.byte	0x20
 14138 1e79 9F       		.byte	0x9f
 14139 1e7a E4040000 		.4byte	.LVL371
 14140 1e7e FA040000 		.4byte	.LVL373
 14141 1e82 0100     		.2byte	0x1
 14142 1e84 58       		.byte	0x58
 14143 1e85 FC040000 		.4byte	.LVL374
 14144 1e89 24050000 		.4byte	.LFE15
 14145 1e8d 0200     		.2byte	0x2
 14146 1e8f 30       		.byte	0x30
 14147 1e90 9F       		.byte	0x9f
 14148 1e91 00000000 		.4byte	0
 14149 1e95 00000000 		.4byte	0
 14150              	.LLST126:
 14151 1e99 5C010000 		.4byte	.LVL283
 14152 1e9d 5F010000 		.4byte	.LVL284-1
 14153 1ea1 0600     		.2byte	0x6
 14154 1ea3 50       		.byte	0x50
 14155 1ea4 93       		.byte	0x93
 14156 1ea5 04       		.uleb128 0x4
 14157 1ea6 51       		.byte	0x51
 14158 1ea7 93       		.byte	0x93
 14159 1ea8 04       		.uleb128 0x4
 14160 1ea9 5F010000 		.4byte	.LVL284-1
 14161 1ead 9C010000 		.4byte	.LVL292
 14162 1eb1 0300     		.2byte	0x3
 14163 1eb3 91       		.byte	0x91
 14164 1eb4 A87F     		.sleb128 -88
 14165 1eb6 9C010000 		.4byte	.LVL292
 14166 1eba A4010000 		.4byte	.LVL293
 14167 1ebe 0200     		.2byte	0x2
 14168 1ec0 7D       		.byte	0x7d
 14169 1ec1 00       		.sleb128 0
 14170 1ec2 4C030000 		.4byte	.LVL327
 14171 1ec6 A6030000 		.4byte	.LVL336
 14172 1eca 0300     		.2byte	0x3
 14173 1ecc 91       		.byte	0x91
 14174 1ecd A87F     		.sleb128 -88
 14175 1ecf BC030000 		.4byte	.LVL338
 14176 1ed3 DA030000 		.4byte	.LVL341
 14177 1ed7 0300     		.2byte	0x3
 14178 1ed9 91       		.byte	0x91
 14179 1eda A87F     		.sleb128 -88
 14180 1edc 92040000 		.4byte	.LVL358
 14181 1ee0 C8040000 		.4byte	.LVL368
 14182 1ee4 0300     		.2byte	0x3
 14183 1ee6 91       		.byte	0x91
 14184 1ee7 A87F     		.sleb128 -88
ARM GAS  C:\Users\pearlstl\AppData\Local\Temp\ccbpFzqf.s 			page 278


 14185 1ee9 00000000 		.4byte	0
 14186 1eed 00000000 		.4byte	0
 14187              	.LLST127:
 14188 1ef1 EC000000 		.4byte	.LVL269
 14189 1ef5 02010000 		.4byte	.LVL271
 14190 1ef9 0200     		.2byte	0x2
 14191 1efb 30       		.byte	0x30
 14192 1efc 9F       		.byte	0x9f
 14193 1efd 02010000 		.4byte	.LVL271
 14194 1f01 C6020000 		.4byte	.LVL319
 14195 1f05 0300     		.2byte	0x3
 14196 1f07 91       		.byte	0x91
 14197 1f08 B47F     		.sleb128 -76
 14198 1f0a F4020000 		.4byte	.LVL322
 14199 1f0e 3C030000 		.4byte	.LVL325
 14200 1f12 0200     		.2byte	0x2
 14201 1f14 31       		.byte	0x31
 14202 1f15 9F       		.byte	0x9f
 14203 1f16 3C030000 		.4byte	.LVL325
 14204 1f1a 24050000 		.4byte	.LFE15
 14205 1f1e 0300     		.2byte	0x3
 14206 1f20 91       		.byte	0x91
 14207 1f21 B47F     		.sleb128 -76
 14208 1f23 00000000 		.4byte	0
 14209 1f27 00000000 		.4byte	0
 14210              	.LLST128:
 14211 1f2b 20010000 		.4byte	.LVL273
 14212 1f2f 22010000 		.4byte	.LVL274
 14213 1f33 0300     		.2byte	0x3
 14214 1f35 91       		.byte	0x91
 14215 1f36 B07F     		.sleb128 -80
 14216 1f38 80010000 		.4byte	.LVL289
 14217 1f3c 84010000 		.4byte	.LVL290
 14218 1f40 0100     		.2byte	0x1
 14219 1f42 53       		.byte	0x53
 14220 1f43 84010000 		.4byte	.LVL290
 14221 1f47 E8010000 		.4byte	.LVL297
 14222 1f4b 0300     		.2byte	0x3
 14223 1f4d 91       		.byte	0x91
 14224 1f4e B07F     		.sleb128 -80
 14225 1f50 E8010000 		.4byte	.LVL297
 14226 1f54 02020000 		.4byte	.LVL298
 14227 1f58 0100     		.2byte	0x1
 14228 1f5a 53       		.byte	0x53
 14229 1f5b 16020000 		.4byte	.LVL299
 14230 1f5f 1C020000 		.4byte	.LVL300
 14231 1f63 0100     		.2byte	0x1
 14232 1f65 51       		.byte	0x51
 14233 1f66 1C020000 		.4byte	.LVL300
 14234 1f6a 1E020000 		.4byte	.LVL301
 14235 1f6e 0100     		.2byte	0x1
 14236 1f70 53       		.byte	0x53
 14237 1f71 3C030000 		.4byte	.LVL325
 14238 1f75 4A030000 		.4byte	.LVL326
 14239 1f79 0300     		.2byte	0x3
 14240 1f7b 91       		.byte	0x91
 14241 1f7c B07F     		.sleb128 -80
ARM GAS  C:\Users\pearlstl\AppData\Local\Temp\ccbpFzqf.s 			page 279


 14242 1f7e 4A030000 		.4byte	.LVL326
 14243 1f82 4C030000 		.4byte	.LVL327
 14244 1f86 0100     		.2byte	0x1
 14245 1f88 53       		.byte	0x53
 14246 1f89 4C030000 		.4byte	.LVL327
 14247 1f8d A6030000 		.4byte	.LVL336
 14248 1f91 0300     		.2byte	0x3
 14249 1f93 91       		.byte	0x91
 14250 1f94 B07F     		.sleb128 -80
 14251 1f96 92040000 		.4byte	.LVL358
 14252 1f9a BE040000 		.4byte	.LVL367
 14253 1f9e 0300     		.2byte	0x3
 14254 1fa0 91       		.byte	0x91
 14255 1fa1 B07F     		.sleb128 -80
 14256 1fa3 00000000 		.4byte	0
 14257 1fa7 00000000 		.4byte	0
 14258              	.LLST129:
 14259 1fab 3A010000 		.4byte	.LVL277
 14260 1faf 3E010000 		.4byte	.LVL278
 14261 1fb3 0300     		.2byte	0x3
 14262 1fb5 91       		.byte	0x91
 14263 1fb6 A87F     		.sleb128 -88
 14264 1fb8 00000000 		.4byte	0
 14265 1fbc 00000000 		.4byte	0
 14266              	.LLST130:
 14267 1fc0 44010000 		.4byte	.LVL280
 14268 1fc4 47010000 		.4byte	.LVL281-1
 14269 1fc8 0100     		.2byte	0x1
 14270 1fca 50       		.byte	0x50
 14271 1fcb 47010000 		.4byte	.LVL281-1
 14272 1fcf 7A010000 		.4byte	.LVL288
 14273 1fd3 0100     		.2byte	0x1
 14274 1fd5 58       		.byte	0x58
 14275 1fd6 7A010000 		.4byte	.LVL288
 14276 1fda 84010000 		.4byte	.LVL290
 14277 1fde 0200     		.2byte	0x2
 14278 1fe0 30       		.byte	0x30
 14279 1fe1 9F       		.byte	0x9f
 14280 1fe2 84010000 		.4byte	.LVL290
 14281 1fe6 C0010000 		.4byte	.LVL296
 14282 1fea 0100     		.2byte	0x1
 14283 1fec 58       		.byte	0x58
 14284 1fed 3C030000 		.4byte	.LVL325
 14285 1ff1 62030000 		.4byte	.LVL328
 14286 1ff5 0100     		.2byte	0x1
 14287 1ff7 58       		.byte	0x58
 14288 1ff8 74030000 		.4byte	.LVL330
 14289 1ffc 80030000 		.4byte	.LVL331
 14290 2000 0100     		.2byte	0x1
 14291 2002 53       		.byte	0x53
 14292 2003 88030000 		.4byte	.LVL333
 14293 2007 90030000 		.4byte	.LVL334
 14294 200b 0100     		.2byte	0x1
 14295 200d 51       		.byte	0x51
 14296 200e 90030000 		.4byte	.LVL334
 14297 2012 9E030000 		.4byte	.LVL335
 14298 2016 0100     		.2byte	0x1
ARM GAS  C:\Users\pearlstl\AppData\Local\Temp\ccbpFzqf.s 			page 280


 14299 2018 53       		.byte	0x53
 14300 2019 BC030000 		.4byte	.LVL338
 14301 201d DA030000 		.4byte	.LVL341
 14302 2021 0100     		.2byte	0x1
 14303 2023 58       		.byte	0x58
 14304 2024 92040000 		.4byte	.LVL358
 14305 2028 9A040000 		.4byte	.LVL360
 14306 202c 0100     		.2byte	0x1
 14307 202e 53       		.byte	0x53
 14308 202f BE040000 		.4byte	.LVL367
 14309 2033 C8040000 		.4byte	.LVL368
 14310 2037 0100     		.2byte	0x1
 14311 2039 58       		.byte	0x58
 14312 203a 00000000 		.4byte	0
 14313 203e 00000000 		.4byte	0
 14314              	.LLST131:
 14315 2042 50000000 		.4byte	.LVL250
 14316 2046 60000000 		.4byte	.LVL253
 14317 204a 0100     		.2byte	0x1
 14318 204c 51       		.byte	0x51
 14319 204d 60000000 		.4byte	.LVL253
 14320 2051 C0000000 		.4byte	.LVL266
 14321 2055 0200     		.2byte	0x2
 14322 2057 91       		.byte	0x91
 14323 2058 10       		.sleb128 16
 14324 2059 C6020000 		.4byte	.LVL319
 14325 205d CE020000 		.4byte	.LVL320
 14326 2061 0200     		.2byte	0x2
 14327 2063 91       		.byte	0x91
 14328 2064 10       		.sleb128 16
 14329 2065 00000000 		.4byte	0
 14330 2069 00000000 		.4byte	0
 14331              	.LLST132:
 14332 206d 50000000 		.4byte	.LVL250
 14333 2071 C0000000 		.4byte	.LVL266
 14334 2075 0100     		.2byte	0x1
 14335 2077 5B       		.byte	0x5b
 14336 2078 C6020000 		.4byte	.LVL319
 14337 207c CE020000 		.4byte	.LVL320
 14338 2080 0100     		.2byte	0x1
 14339 2082 5B       		.byte	0x5b
 14340 2083 00000000 		.4byte	0
 14341 2087 00000000 		.4byte	0
 14342              	.LLST133:
 14343 208b 50000000 		.4byte	.LVL250
 14344 208f 76000000 		.4byte	.LVL257
 14345 2093 0100     		.2byte	0x1
 14346 2095 59       		.byte	0x59
 14347 2096 00000000 		.4byte	0
 14348 209a 00000000 		.4byte	0
 14349              	.LLST134:
 14350 209e 50000000 		.4byte	.LVL250
 14351 20a2 C0000000 		.4byte	.LVL266
 14352 20a6 0100     		.2byte	0x1
 14353 20a8 57       		.byte	0x57
 14354 20a9 C6020000 		.4byte	.LVL319
 14355 20ad CE020000 		.4byte	.LVL320
ARM GAS  C:\Users\pearlstl\AppData\Local\Temp\ccbpFzqf.s 			page 281


 14356 20b1 0100     		.2byte	0x1
 14357 20b3 57       		.byte	0x57
 14358 20b4 00000000 		.4byte	0
 14359 20b8 00000000 		.4byte	0
 14360              	.LLST135:
 14361 20bc 50000000 		.4byte	.LVL250
 14362 20c0 5C000000 		.4byte	.LVL252
 14363 20c4 0100     		.2byte	0x1
 14364 20c6 5A       		.byte	0x5a
 14365 20c7 5C000000 		.4byte	.LVL252
 14366 20cb 64000000 		.4byte	.LVL254
 14367 20cf 0100     		.2byte	0x1
 14368 20d1 52       		.byte	0x52
 14369 20d2 64000000 		.4byte	.LVL254
 14370 20d6 72000000 		.4byte	.LVL256
 14371 20da 0100     		.2byte	0x1
 14372 20dc 58       		.byte	0x58
 14373 20dd 72000000 		.4byte	.LVL256
 14374 20e1 7A000000 		.4byte	.LVL258
 14375 20e5 0100     		.2byte	0x1
 14376 20e7 5A       		.byte	0x5a
 14377 20e8 7A000000 		.4byte	.LVL258
 14378 20ec 86000000 		.4byte	.LVL259
 14379 20f0 0100     		.2byte	0x1
 14380 20f2 51       		.byte	0x51
 14381 20f3 86000000 		.4byte	.LVL259
 14382 20f7 94000000 		.4byte	.LVL261
 14383 20fb 0100     		.2byte	0x1
 14384 20fd 5A       		.byte	0x5a
 14385 20fe 94000000 		.4byte	.LVL261
 14386 2102 A4000000 		.4byte	.LVL263
 14387 2106 0100     		.2byte	0x1
 14388 2108 59       		.byte	0x59
 14389 2109 A4000000 		.4byte	.LVL263
 14390 210d AE000000 		.4byte	.LVL264
 14391 2111 0100     		.2byte	0x1
 14392 2113 51       		.byte	0x51
 14393 2114 AE000000 		.4byte	.LVL264
 14394 2118 C0000000 		.4byte	.LVL266
 14395 211c 0100     		.2byte	0x1
 14396 211e 59       		.byte	0x59
 14397 211f 00000000 		.4byte	0
 14398 2123 00000000 		.4byte	0
 14399              	.LLST136:
 14400 2127 50000000 		.4byte	.LVL250
 14401 212b C0000000 		.4byte	.LVL266
 14402 212f 0100     		.2byte	0x1
 14403 2131 56       		.byte	0x56
 14404 2132 C6020000 		.4byte	.LVL319
 14405 2136 CE020000 		.4byte	.LVL320
 14406 213a 0100     		.2byte	0x1
 14407 213c 56       		.byte	0x56
 14408 213d 00000000 		.4byte	0
 14409 2141 00000000 		.4byte	0
 14410              	.LLST137:
 14411 2145 50000000 		.4byte	.LVL250
 14412 2149 C0000000 		.4byte	.LVL266
ARM GAS  C:\Users\pearlstl\AppData\Local\Temp\ccbpFzqf.s 			page 282


 14413 214d 0100     		.2byte	0x1
 14414 214f 55       		.byte	0x55
 14415 2150 C6020000 		.4byte	.LVL319
 14416 2154 CE020000 		.4byte	.LVL320
 14417 2158 0100     		.2byte	0x1
 14418 215a 55       		.byte	0x55
 14419 215b 00000000 		.4byte	0
 14420 215f 00000000 		.4byte	0
 14421              	.LLST138:
 14422 2163 50000000 		.4byte	.LVL250
 14423 2167 5C000000 		.4byte	.LVL252
 14424 216b 0100     		.2byte	0x1
 14425 216d 5A       		.byte	0x5a
 14426 216e 5C000000 		.4byte	.LVL252
 14427 2172 60000000 		.4byte	.LVL253
 14428 2176 0100     		.2byte	0x1
 14429 2178 52       		.byte	0x52
 14430 2179 60000000 		.4byte	.LVL253
 14431 217d C0000000 		.4byte	.LVL266
 14432 2181 0300     		.2byte	0x3
 14433 2183 91       		.byte	0x91
 14434 2184 9C7F     		.sleb128 -100
 14435 2186 C6020000 		.4byte	.LVL319
 14436 218a CE020000 		.4byte	.LVL320
 14437 218e 0300     		.2byte	0x3
 14438 2190 91       		.byte	0x91
 14439 2191 9C7F     		.sleb128 -100
 14440 2193 00000000 		.4byte	0
 14441 2197 00000000 		.4byte	0
 14442              	.LLST139:
 14443 219b 54000000 		.4byte	.LVL251
 14444 219f 60000000 		.4byte	.LVL253
 14445 21a3 0100     		.2byte	0x1
 14446 21a5 59       		.byte	0x59
 14447 21a6 00000000 		.4byte	0
 14448 21aa 00000000 		.4byte	0
 14449              	.LLST140:
 14450 21ae 44020000 		.4byte	.LVL304
 14451 21b2 7A020000 		.4byte	.LVL310
 14452 21b6 0300     		.2byte	0x3
 14453 21b8 91       		.byte	0x91
 14454 21b9 987F     		.sleb128 -104
 14455 21bb B0030000 		.4byte	.LVL337
 14456 21bf BC030000 		.4byte	.LVL338
 14457 21c3 0300     		.2byte	0x3
 14458 21c5 91       		.byte	0x91
 14459 21c6 987F     		.sleb128 -104
 14460 21c8 00000000 		.4byte	0
 14461 21cc 00000000 		.4byte	0
 14462              	.LLST141:
 14463 21d0 44020000 		.4byte	.LVL304
 14464 21d4 7A020000 		.4byte	.LVL310
 14465 21d8 0100     		.2byte	0x1
 14466 21da 5B       		.byte	0x5b
 14467 21db B0030000 		.4byte	.LVL337
 14468 21df BC030000 		.4byte	.LVL338
 14469 21e3 0100     		.2byte	0x1
ARM GAS  C:\Users\pearlstl\AppData\Local\Temp\ccbpFzqf.s 			page 283


 14470 21e5 5B       		.byte	0x5b
 14471 21e6 00000000 		.4byte	0
 14472 21ea 00000000 		.4byte	0
 14473              	.LLST142:
 14474 21ee 44020000 		.4byte	.LVL304
 14475 21f2 4A020000 		.4byte	.LVL305
 14476 21f6 0100     		.2byte	0x1
 14477 21f8 58       		.byte	0x58
 14478 21f9 7A020000 		.4byte	.LVL310
 14479 21fd 7E020000 		.4byte	.LVL311
 14480 2201 0100     		.2byte	0x1
 14481 2203 58       		.byte	0x58
 14482 2204 7E020000 		.4byte	.LVL311
 14483 2208 AA020000 		.4byte	.LVL315
 14484 220c 0100     		.2byte	0x1
 14485 220e 54       		.byte	0x54
 14486 220f B0030000 		.4byte	.LVL337
 14487 2213 BC030000 		.4byte	.LVL338
 14488 2217 0300     		.2byte	0x3
 14489 2219 08       		.byte	0x8
 14490 221a 20       		.byte	0x20
 14491 221b 9F       		.byte	0x9f
 14492 221c 00000000 		.4byte	0
 14493 2220 00000000 		.4byte	0
 14494              	.LLST143:
 14495 2224 44020000 		.4byte	.LVL304
 14496 2228 7A020000 		.4byte	.LVL310
 14497 222c 0400     		.2byte	0x4
 14498 222e 91       		.byte	0x91
 14499 222f B87F     		.sleb128 -72
 14500 2231 9F       		.byte	0x9f
 14501 2232 B0030000 		.4byte	.LVL337
 14502 2236 BC030000 		.4byte	.LVL338
 14503 223a 0400     		.2byte	0x4
 14504 223c 91       		.byte	0x91
 14505 223d B87F     		.sleb128 -72
 14506 223f 9F       		.byte	0x9f
 14507 2240 00000000 		.4byte	0
 14508 2244 00000000 		.4byte	0
 14509              	.LLST144:
 14510 2248 44020000 		.4byte	.LVL304
 14511 224c 7A020000 		.4byte	.LVL310
 14512 2250 0100     		.2byte	0x1
 14513 2252 57       		.byte	0x57
 14514 2253 B0030000 		.4byte	.LVL337
 14515 2257 BC030000 		.4byte	.LVL338
 14516 225b 0100     		.2byte	0x1
 14517 225d 57       		.byte	0x57
 14518 225e 00000000 		.4byte	0
 14519 2262 00000000 		.4byte	0
 14520              	.LLST145:
 14521 2266 44020000 		.4byte	.LVL304
 14522 226a 58020000 		.4byte	.LVL306
 14523 226e 0300     		.2byte	0x3
 14524 2270 91       		.byte	0x91
 14525 2271 9C7F     		.sleb128 -100
 14526 2273 58020000 		.4byte	.LVL306
ARM GAS  C:\Users\pearlstl\AppData\Local\Temp\ccbpFzqf.s 			page 284


 14527 2277 5A020000 		.4byte	.LVL307
 14528 227b 0100     		.2byte	0x1
 14529 227d 52       		.byte	0x52
 14530 227e 5A020000 		.4byte	.LVL307
 14531 2282 72020000 		.4byte	.LVL309
 14532 2286 0100     		.2byte	0x1
 14533 2288 54       		.byte	0x54
 14534 2289 72020000 		.4byte	.LVL309
 14535 228d 7A020000 		.4byte	.LVL310
 14536 2291 0100     		.2byte	0x1
 14537 2293 52       		.byte	0x52
 14538 2294 7A020000 		.4byte	.LVL310
 14539 2298 7E020000 		.4byte	.LVL311
 14540 229c 0200     		.2byte	0x2
 14541 229e 7D       		.byte	0x7d
 14542 229f 00       		.sleb128 0
 14543 22a0 7E020000 		.4byte	.LVL311
 14544 22a4 8C020000 		.4byte	.LVL312
 14545 22a8 0100     		.2byte	0x1
 14546 22aa 52       		.byte	0x52
 14547 22ab 8C020000 		.4byte	.LVL312
 14548 22af A0020000 		.4byte	.LVL314
 14549 22b3 0100     		.2byte	0x1
 14550 22b5 59       		.byte	0x59
 14551 22b6 A0020000 		.4byte	.LVL314
 14552 22ba AC020000 		.4byte	.LVL316
 14553 22be 0100     		.2byte	0x1
 14554 22c0 52       		.byte	0x52
 14555 22c1 AC020000 		.4byte	.LVL316
 14556 22c5 BE020000 		.4byte	.LVL318
 14557 22c9 0100     		.2byte	0x1
 14558 22cb 54       		.byte	0x54
 14559 22cc B0030000 		.4byte	.LVL337
 14560 22d0 BC030000 		.4byte	.LVL338
 14561 22d4 0300     		.2byte	0x3
 14562 22d6 91       		.byte	0x91
 14563 22d7 9C7F     		.sleb128 -100
 14564 22d9 00000000 		.4byte	0
 14565 22dd 00000000 		.4byte	0
 14566              	.LLST146:
 14567 22e1 44020000 		.4byte	.LVL304
 14568 22e5 7A020000 		.4byte	.LVL310
 14569 22e9 0100     		.2byte	0x1
 14570 22eb 56       		.byte	0x56
 14571 22ec B0030000 		.4byte	.LVL337
 14572 22f0 BC030000 		.4byte	.LVL338
 14573 22f4 0100     		.2byte	0x1
 14574 22f6 56       		.byte	0x56
 14575 22f7 00000000 		.4byte	0
 14576 22fb 00000000 		.4byte	0
 14577              	.LLST147:
 14578 22ff 44020000 		.4byte	.LVL304
 14579 2303 7A020000 		.4byte	.LVL310
 14580 2307 0100     		.2byte	0x1
 14581 2309 55       		.byte	0x55
 14582 230a B0030000 		.4byte	.LVL337
 14583 230e BC030000 		.4byte	.LVL338
ARM GAS  C:\Users\pearlstl\AppData\Local\Temp\ccbpFzqf.s 			page 285


 14584 2312 0100     		.2byte	0x1
 14585 2314 55       		.byte	0x55
 14586 2315 00000000 		.4byte	0
 14587 2319 00000000 		.4byte	0
 14588              	.LLST148:
 14589 231d 44020000 		.4byte	.LVL304
 14590 2321 7A020000 		.4byte	.LVL310
 14591 2325 0300     		.2byte	0x3
 14592 2327 91       		.byte	0x91
 14593 2328 9C7F     		.sleb128 -100
 14594 232a B0030000 		.4byte	.LVL337
 14595 232e BC030000 		.4byte	.LVL338
 14596 2332 0300     		.2byte	0x3
 14597 2334 91       		.byte	0x91
 14598 2335 9C7F     		.sleb128 -100
 14599 2337 00000000 		.4byte	0
 14600 233b 00000000 		.4byte	0
 14601              	.LLST149:
 14602 233f 4A020000 		.4byte	.LVL305
 14603 2343 58020000 		.4byte	.LVL306
 14604 2347 0100     		.2byte	0x1
 14605 2349 58       		.byte	0x58
 14606 234a 00000000 		.4byte	0
 14607 234e 00000000 		.4byte	0
 14608              	.LLST150:
 14609 2352 4C030000 		.4byte	.LVL327
 14610 2356 A6030000 		.4byte	.LVL336
 14611 235a 0100     		.2byte	0x1
 14612 235c 54       		.byte	0x54
 14613 235d 92040000 		.4byte	.LVL358
 14614 2361 96040000 		.4byte	.LVL359
 14615 2365 0100     		.2byte	0x1
 14616 2367 54       		.byte	0x54
 14617 2368 96040000 		.4byte	.LVL359
 14618 236c 9E040000 		.4byte	.LVL361
 14619 2370 0300     		.2byte	0x3
 14620 2372 74       		.byte	0x74
 14621 2373 7F       		.sleb128 -1
 14622 2374 9F       		.byte	0x9f
 14623 2375 9E040000 		.4byte	.LVL361
 14624 2379 A6040000 		.4byte	.LVL363
 14625 237d 0300     		.2byte	0x3
 14626 237f 74       		.byte	0x74
 14627 2380 7E       		.sleb128 -2
 14628 2381 9F       		.byte	0x9f
 14629 2382 A6040000 		.4byte	.LVL363
 14630 2386 AC040000 		.4byte	.LVL364
 14631 238a 0300     		.2byte	0x3
 14632 238c 74       		.byte	0x74
 14633 238d 7F       		.sleb128 -1
 14634 238e 9F       		.byte	0x9f
 14635 238f AC040000 		.4byte	.LVL364
 14636 2393 AE040000 		.4byte	.LVL365
 14637 2397 0100     		.2byte	0x1
 14638 2399 54       		.byte	0x54
 14639 239a 00000000 		.4byte	0
 14640 239e 00000000 		.4byte	0
ARM GAS  C:\Users\pearlstl\AppData\Local\Temp\ccbpFzqf.s 			page 286


 14641              	.LLST151:
 14642 23a2 00000000 		.4byte	.LVL376
 14643 23a6 20000000 		.4byte	.LVL379
 14644 23aa 0100     		.2byte	0x1
 14645 23ac 50       		.byte	0x50
 14646 23ad 20000000 		.4byte	.LVL379
 14647 23b1 A0100000 		.4byte	.LFE16
 14648 23b5 0300     		.2byte	0x3
 14649 23b7 91       		.byte	0x91
 14650 23b8 8C7F     		.sleb128 -116
 14651 23ba 00000000 		.4byte	0
 14652 23be 00000000 		.4byte	0
 14653              	.LLST152:
 14654 23c2 00000000 		.4byte	.LVL376
 14655 23c6 20000000 		.4byte	.LVL379
 14656 23ca 0100     		.2byte	0x1
 14657 23cc 51       		.byte	0x51
 14658 23cd 20000000 		.4byte	.LVL379
 14659 23d1 E2020000 		.4byte	.LVL447
 14660 23d5 0100     		.2byte	0x1
 14661 23d7 5B       		.byte	0x5b
 14662 23d8 E2020000 		.4byte	.LVL447
 14663 23dc E3020000 		.4byte	.LVL448-1
 14664 23e0 0100     		.2byte	0x1
 14665 23e2 53       		.byte	0x53
 14666 23e3 E3020000 		.4byte	.LVL448-1
 14667 23e7 FC020000 		.4byte	.LVL451
 14668 23eb 0100     		.2byte	0x1
 14669 23ed 5B       		.byte	0x5b
 14670 23ee FC020000 		.4byte	.LVL451
 14671 23f2 FE020000 		.4byte	.LVL452
 14672 23f6 0100     		.2byte	0x1
 14673 23f8 53       		.byte	0x53
 14674 23f9 FE020000 		.4byte	.LVL452
 14675 23fd A0100000 		.4byte	.LFE16
 14676 2401 0100     		.2byte	0x1
 14677 2403 5B       		.byte	0x5b
 14678 2404 00000000 		.4byte	0
 14679 2408 00000000 		.4byte	0
 14680              	.LLST153:
 14681 240c 00000000 		.4byte	.LVL376
 14682 2410 20000000 		.4byte	.LVL379
 14683 2414 0100     		.2byte	0x1
 14684 2416 52       		.byte	0x52
 14685 2417 20000000 		.4byte	.LVL379
 14686 241b 2A000000 		.4byte	.LVL380
 14687 241f 0100     		.2byte	0x1
 14688 2421 54       		.byte	0x54
 14689 2422 2A000000 		.4byte	.LVL380
 14690 2426 3A000000 		.4byte	.LVL382
 14691 242a 0300     		.2byte	0x3
 14692 242c 74       		.byte	0x74
 14693 242d 7F       		.sleb128 -1
 14694 242e 9F       		.byte	0x9f
 14695 242f 3A000000 		.4byte	.LVL382
 14696 2433 44000000 		.4byte	.LVL384
 14697 2437 0100     		.2byte	0x1
ARM GAS  C:\Users\pearlstl\AppData\Local\Temp\ccbpFzqf.s 			page 287


 14698 2439 54       		.byte	0x54
 14699 243a 5E000000 		.4byte	.LVL386
 14700 243e 60000000 		.4byte	.LVL387
 14701 2442 0300     		.2byte	0x3
 14702 2444 74       		.byte	0x74
 14703 2445 01       		.sleb128 1
 14704 2446 9F       		.byte	0x9f
 14705 2447 60000000 		.4byte	.LVL387
 14706 244b 62000000 		.4byte	.LVL388
 14707 244f 0100     		.2byte	0x1
 14708 2451 53       		.byte	0x53
 14709 2452 64000000 		.4byte	.LVL389
 14710 2456 68000000 		.4byte	.LVL390
 14711 245a 0100     		.2byte	0x1
 14712 245c 53       		.byte	0x53
 14713 245d 68000000 		.4byte	.LVL390
 14714 2461 8A000000 		.4byte	.LVL391
 14715 2465 0100     		.2byte	0x1
 14716 2467 54       		.byte	0x54
 14717 2468 8A000000 		.4byte	.LVL391
 14718 246c 8C000000 		.4byte	.LVL392
 14719 2470 0100     		.2byte	0x1
 14720 2472 53       		.byte	0x53
 14721 2473 8C000000 		.4byte	.LVL392
 14722 2477 90000000 		.4byte	.LVL393
 14723 247b 0100     		.2byte	0x1
 14724 247d 54       		.byte	0x54
 14725 247e 90000000 		.4byte	.LVL393
 14726 2482 92000000 		.4byte	.LVL394
 14727 2486 0100     		.2byte	0x1
 14728 2488 53       		.byte	0x53
 14729 2489 92000000 		.4byte	.LVL394
 14730 248d 96000000 		.4byte	.LVL395
 14731 2491 0100     		.2byte	0x1
 14732 2493 54       		.byte	0x54
 14733 2494 96000000 		.4byte	.LVL395
 14734 2498 98000000 		.4byte	.LVL396
 14735 249c 0100     		.2byte	0x1
 14736 249e 53       		.byte	0x53
 14737 249f 98000000 		.4byte	.LVL396
 14738 24a3 9C000000 		.4byte	.LVL397
 14739 24a7 0100     		.2byte	0x1
 14740 24a9 54       		.byte	0x54
 14741 24aa 9E000000 		.4byte	.LVL398
 14742 24ae A2000000 		.4byte	.LVL399
 14743 24b2 0100     		.2byte	0x1
 14744 24b4 54       		.byte	0x54
 14745 24b5 A2000000 		.4byte	.LVL399
 14746 24b9 A4000000 		.4byte	.LVL400
 14747 24bd 0100     		.2byte	0x1
 14748 24bf 53       		.byte	0x53
 14749 24c0 A4000000 		.4byte	.LVL400
 14750 24c4 E8000000 		.4byte	.LVL403
 14751 24c8 0100     		.2byte	0x1
 14752 24ca 54       		.byte	0x54
 14753 24cb E8000000 		.4byte	.LVL403
 14754 24cf EA000000 		.4byte	.LVL404
ARM GAS  C:\Users\pearlstl\AppData\Local\Temp\ccbpFzqf.s 			page 288


 14755 24d3 0300     		.2byte	0x3
 14756 24d5 74       		.byte	0x74
 14757 24d6 01       		.sleb128 1
 14758 24d7 9F       		.byte	0x9f
 14759 24d8 EA000000 		.4byte	.LVL404
 14760 24dc A6010000 		.4byte	.LVL405
 14761 24e0 0100     		.2byte	0x1
 14762 24e2 54       		.byte	0x54
 14763 24e3 A6010000 		.4byte	.LVL405
 14764 24e7 A8010000 		.4byte	.LVL406
 14765 24eb 0300     		.2byte	0x3
 14766 24ed 74       		.byte	0x74
 14767 24ee 01       		.sleb128 1
 14768 24ef 9F       		.byte	0x9f
 14769 24f0 A8010000 		.4byte	.LVL406
 14770 24f4 AA010000 		.4byte	.LVL407
 14771 24f8 0100     		.2byte	0x1
 14772 24fa 54       		.byte	0x54
 14773 24fb AA010000 		.4byte	.LVL407
 14774 24ff B8010000 		.4byte	.LVL409
 14775 2503 0300     		.2byte	0x3
 14776 2505 74       		.byte	0x74
 14777 2506 01       		.sleb128 1
 14778 2507 9F       		.byte	0x9f
 14779 2508 B8010000 		.4byte	.LVL409
 14780 250c BA010000 		.4byte	.LVL410
 14781 2510 0100     		.2byte	0x1
 14782 2512 54       		.byte	0x54
 14783 2513 BA010000 		.4byte	.LVL410
 14784 2517 C8010000 		.4byte	.LVL412
 14785 251b 0300     		.2byte	0x3
 14786 251d 74       		.byte	0x74
 14787 251e 01       		.sleb128 1
 14788 251f 9F       		.byte	0x9f
 14789 2520 C8010000 		.4byte	.LVL412
 14790 2524 30020000 		.4byte	.LVL425
 14791 2528 0100     		.2byte	0x1
 14792 252a 54       		.byte	0x54
 14793 252b 30020000 		.4byte	.LVL425
 14794 252f 32020000 		.4byte	.LVL426
 14795 2533 0300     		.2byte	0x3
 14796 2535 74       		.byte	0x74
 14797 2536 7F       		.sleb128 -1
 14798 2537 9F       		.byte	0x9f
 14799 2538 32020000 		.4byte	.LVL426
 14800 253c D8020000 		.4byte	.LVL446
 14801 2540 0100     		.2byte	0x1
 14802 2542 54       		.byte	0x54
 14803 2543 3A030000 		.4byte	.LVL458
 14804 2547 08040000 		.4byte	.LVL479
 14805 254b 0100     		.2byte	0x1
 14806 254d 54       		.byte	0x54
 14807 254e 08040000 		.4byte	.LVL479
 14808 2552 0A040000 		.4byte	.LVL480
 14809 2556 0300     		.2byte	0x3
 14810 2558 74       		.byte	0x74
 14811 2559 7F       		.sleb128 -1
ARM GAS  C:\Users\pearlstl\AppData\Local\Temp\ccbpFzqf.s 			page 289


 14812 255a 9F       		.byte	0x9f
 14813 255b 0A040000 		.4byte	.LVL480
 14814 255f A2040000 		.4byte	.LVL491
 14815 2563 0100     		.2byte	0x1
 14816 2565 54       		.byte	0x54
 14817 2566 A2040000 		.4byte	.LVL491
 14818 256a BC040000 		.4byte	.LVL496
 14819 256e 0300     		.2byte	0x3
 14820 2570 91       		.byte	0x91
 14821 2571 A07F     		.sleb128 -96
 14822 2573 BC040000 		.4byte	.LVL496
 14823 2577 CA040000 		.4byte	.LVL499
 14824 257b 0100     		.2byte	0x1
 14825 257d 54       		.byte	0x54
 14826 257e CC040000 		.4byte	.LVL500
 14827 2582 DE040000 		.4byte	.LVL504
 14828 2586 0100     		.2byte	0x1
 14829 2588 54       		.byte	0x54
 14830 2589 DE040000 		.4byte	.LVL504
 14831 258d E8040000 		.4byte	.LVL505
 14832 2591 0300     		.2byte	0x3
 14833 2593 74       		.byte	0x74
 14834 2594 7F       		.sleb128 -1
 14835 2595 9F       		.byte	0x9f
 14836 2596 EA040000 		.4byte	.LVL506
 14837 259a 00050000 		.4byte	.LVL509
 14838 259e 0100     		.2byte	0x1
 14839 25a0 54       		.byte	0x54
 14840 25a1 00050000 		.4byte	.LVL509
 14841 25a5 08050000 		.4byte	.LVL510
 14842 25a9 0100     		.2byte	0x1
 14843 25ab 52       		.byte	0x52
 14844 25ac 08050000 		.4byte	.LVL510
 14845 25b0 14050000 		.4byte	.LVL512
 14846 25b4 0100     		.2byte	0x1
 14847 25b6 54       		.byte	0x54
 14848 25b7 14050000 		.4byte	.LVL512
 14849 25bb 1E050000 		.4byte	.LVL513
 14850 25bf 0300     		.2byte	0x3
 14851 25c1 74       		.byte	0x74
 14852 25c2 7F       		.sleb128 -1
 14853 25c3 9F       		.byte	0x9f
 14854 25c4 22050000 		.4byte	.LVL514
 14855 25c8 3A050000 		.4byte	.LVL518
 14856 25cc 0100     		.2byte	0x1
 14857 25ce 54       		.byte	0x54
 14858 25cf 3A050000 		.4byte	.LVL518
 14859 25d3 40050000 		.4byte	.LVL519
 14860 25d7 0300     		.2byte	0x3
 14861 25d9 74       		.byte	0x74
 14862 25da 01       		.sleb128 1
 14863 25db 9F       		.byte	0x9f
 14864 25dc 40050000 		.4byte	.LVL519
 14865 25e0 42050000 		.4byte	.LVL520
 14866 25e4 0100     		.2byte	0x1
 14867 25e6 54       		.byte	0x54
 14868 25e7 42050000 		.4byte	.LVL520
ARM GAS  C:\Users\pearlstl\AppData\Local\Temp\ccbpFzqf.s 			page 290


 14869 25eb 4C050000 		.4byte	.LVL521
 14870 25ef 0100     		.2byte	0x1
 14871 25f1 52       		.byte	0x52
 14872 25f2 4C050000 		.4byte	.LVL521
 14873 25f6 96050000 		.4byte	.LVL526
 14874 25fa 0100     		.2byte	0x1
 14875 25fc 54       		.byte	0x54
 14876 25fd 96050000 		.4byte	.LVL526
 14877 2601 98050000 		.4byte	.LVL527
 14878 2605 0300     		.2byte	0x3
 14879 2607 74       		.byte	0x74
 14880 2608 7F       		.sleb128 -1
 14881 2609 9F       		.byte	0x9f
 14882 260a 98050000 		.4byte	.LVL527
 14883 260e B6050000 		.4byte	.LVL531
 14884 2612 0100     		.2byte	0x1
 14885 2614 54       		.byte	0x54
 14886 2615 B6050000 		.4byte	.LVL531
 14887 2619 E2050000 		.4byte	.LVL536
 14888 261d 0300     		.2byte	0x3
 14889 261f 91       		.byte	0x91
 14890 2620 A87F     		.sleb128 -88
 14891 2622 0C060000 		.4byte	.LVL540
 14892 2626 5C060000 		.4byte	.LVL551
 14893 262a 0100     		.2byte	0x1
 14894 262c 54       		.byte	0x54
 14895 262d 64060000 		.4byte	.LVL553
 14896 2631 6A060000 		.4byte	.LVL554
 14897 2635 0300     		.2byte	0x3
 14898 2637 74       		.byte	0x74
 14899 2638 01       		.sleb128 1
 14900 2639 9F       		.byte	0x9f
 14901 263a 6A060000 		.4byte	.LVL554
 14902 263e 6C060000 		.4byte	.LVL555
 14903 2642 0300     		.2byte	0x3
 14904 2644 74       		.byte	0x74
 14905 2645 02       		.sleb128 2
 14906 2646 9F       		.byte	0x9f
 14907 2647 6C060000 		.4byte	.LVL555
 14908 264b 6E060000 		.4byte	.LVL556
 14909 264f 0100     		.2byte	0x1
 14910 2651 54       		.byte	0x54
 14911 2652 6E060000 		.4byte	.LVL556
 14912 2656 74060000 		.4byte	.LVL557
 14913 265a 0300     		.2byte	0x3
 14914 265c 74       		.byte	0x74
 14915 265d 01       		.sleb128 1
 14916 265e 9F       		.byte	0x9f
 14917 265f 74060000 		.4byte	.LVL557
 14918 2663 76060000 		.4byte	.LVL558
 14919 2667 0300     		.2byte	0x3
 14920 2669 74       		.byte	0x74
 14921 266a 02       		.sleb128 2
 14922 266b 9F       		.byte	0x9f
 14923 266c 76060000 		.4byte	.LVL558
 14924 2670 10070000 		.4byte	.LVL573
 14925 2674 0100     		.2byte	0x1
ARM GAS  C:\Users\pearlstl\AppData\Local\Temp\ccbpFzqf.s 			page 291


 14926 2676 54       		.byte	0x54
 14927 2677 30070000 		.4byte	.LVL576
 14928 267b 32070000 		.4byte	.LVL577
 14929 267f 0100     		.2byte	0x1
 14930 2681 54       		.byte	0x54
 14931 2682 8A070000 		.4byte	.LVL590
 14932 2686 E0070000 		.4byte	.LVL601
 14933 268a 0100     		.2byte	0x1
 14934 268c 54       		.byte	0x54
 14935 268d E0070000 		.4byte	.LVL601
 14936 2691 26080000 		.4byte	.LVL613
 14937 2695 0300     		.2byte	0x3
 14938 2697 91       		.byte	0x91
 14939 2698 A07F     		.sleb128 -96
 14940 269a 26080000 		.4byte	.LVL613
 14941 269e 28080000 		.4byte	.LVL614
 14942 26a2 0100     		.2byte	0x1
 14943 26a4 52       		.byte	0x52
 14944 26a5 28080000 		.4byte	.LVL614
 14945 26a9 30080000 		.4byte	.LVL615
 14946 26ad 0300     		.2byte	0x3
 14947 26af 74       		.byte	0x74
 14948 26b0 01       		.sleb128 1
 14949 26b1 9F       		.byte	0x9f
 14950 26b2 30080000 		.4byte	.LVL615
 14951 26b6 38080000 		.4byte	.LVL617
 14952 26ba 0300     		.2byte	0x3
 14953 26bc 74       		.byte	0x74
 14954 26bd 02       		.sleb128 2
 14955 26be 9F       		.byte	0x9f
 14956 26bf 38080000 		.4byte	.LVL617
 14957 26c3 C0090000 		.4byte	.LVL656
 14958 26c7 0100     		.2byte	0x1
 14959 26c9 54       		.byte	0x54
 14960 26ca 260A0000 		.4byte	.LVL672
 14961 26ce B20A0000 		.4byte	.LVL681
 14962 26d2 0100     		.2byte	0x1
 14963 26d4 54       		.byte	0x54
 14964 26d5 B20A0000 		.4byte	.LVL681
 14965 26d9 FC0A0000 		.4byte	.LVL693
 14966 26dd 0300     		.2byte	0x3
 14967 26df 91       		.byte	0x91
 14968 26e0 A07F     		.sleb128 -96
 14969 26e2 FC0A0000 		.4byte	.LVL693
 14970 26e6 760B0000 		.4byte	.LVL699
 14971 26ea 0100     		.2byte	0x1
 14972 26ec 54       		.byte	0x54
 14973 26ed 760B0000 		.4byte	.LVL699
 14974 26f1 D00B0000 		.4byte	.LVL712
 14975 26f5 0300     		.2byte	0x3
 14976 26f7 91       		.byte	0x91
 14977 26f8 A07F     		.sleb128 -96
 14978 26fa E40B0000 		.4byte	.LVL713
 14979 26fe 460C0000 		.4byte	.LVL717
 14980 2702 0100     		.2byte	0x1
 14981 2704 54       		.byte	0x54
 14982 2705 460C0000 		.4byte	.LVL717
ARM GAS  C:\Users\pearlstl\AppData\Local\Temp\ccbpFzqf.s 			page 292


 14983 2709 A00C0000 		.4byte	.LVL730
 14984 270d 0300     		.2byte	0x3
 14985 270f 91       		.byte	0x91
 14986 2710 A07F     		.sleb128 -96
 14987 2712 B80C0000 		.4byte	.LVL731
 14988 2716 720E0000 		.4byte	.LVL771
 14989 271a 0100     		.2byte	0x1
 14990 271c 54       		.byte	0x54
 14991 271d 720E0000 		.4byte	.LVL771
 14992 2721 940E0000 		.4byte	.LVL775
 14993 2725 0300     		.2byte	0x3
 14994 2727 91       		.byte	0x91
 14995 2728 9C7F     		.sleb128 -100
 14996 272a 940E0000 		.4byte	.LVL775
 14997 272e A0100000 		.4byte	.LFE16
 14998 2732 0100     		.2byte	0x1
 14999 2734 54       		.byte	0x54
 15000 2735 00000000 		.4byte	0
 15001 2739 00000000 		.4byte	0
 15002              	.LLST154:
 15003 273d 00000000 		.4byte	.LVL376
 15004 2741 10000000 		.4byte	.LVL378
 15005 2745 0100     		.2byte	0x1
 15006 2747 53       		.byte	0x53
 15007 2748 00000000 		.4byte	0
 15008 274c 00000000 		.4byte	0
 15009              	.LLST155:
 15010 2750 5E000000 		.4byte	.LVL386
 15011 2754 62000000 		.4byte	.LVL388
 15012 2758 0200     		.2byte	0x2
 15013 275a 30       		.byte	0x30
 15014 275b 9F       		.byte	0x9f
 15015 275c 64000000 		.4byte	.LVL389
 15016 2760 AA010000 		.4byte	.LVL407
 15017 2764 0100     		.2byte	0x1
 15018 2766 55       		.byte	0x55
 15019 2767 AA010000 		.4byte	.LVL407
 15020 276b B6010000 		.4byte	.LVL408
 15021 276f 0600     		.2byte	0x6
 15022 2771 75       		.byte	0x75
 15023 2772 00       		.sleb128 0
 15024 2773 08       		.byte	0x8
 15025 2774 80       		.byte	0x80
 15026 2775 21       		.byte	0x21
 15027 2776 9F       		.byte	0x9f
 15028 2777 B6010000 		.4byte	.LVL408
 15029 277b BA010000 		.4byte	.LVL410
 15030 277f 0100     		.2byte	0x1
 15031 2781 55       		.byte	0x55
 15032 2782 BA010000 		.4byte	.LVL410
 15033 2786 C6010000 		.4byte	.LVL411
 15034 278a 0700     		.2byte	0x7
 15035 278c 75       		.byte	0x75
 15036 278d 00       		.sleb128 0
 15037 278e 0A       		.byte	0xa
 15038 278f 0001     		.2byte	0x100
 15039 2791 21       		.byte	0x21
ARM GAS  C:\Users\pearlstl\AppData\Local\Temp\ccbpFzqf.s 			page 293


 15040 2792 9F       		.byte	0x9f
 15041 2793 C6010000 		.4byte	.LVL411
 15042 2797 CA010000 		.4byte	.LVL413
 15043 279b 0100     		.2byte	0x1
 15044 279d 55       		.byte	0x55
 15045 279e CA010000 		.4byte	.LVL413
 15046 27a2 E0010000 		.4byte	.LVL416
 15047 27a6 0600     		.2byte	0x6
 15048 27a8 75       		.byte	0x75
 15049 27a9 00       		.sleb128 0
 15050 27aa 08       		.byte	0x8
 15051 27ab 21       		.byte	0x21
 15052 27ac 21       		.byte	0x21
 15053 27ad 9F       		.byte	0x9f
 15054 27ae 3C020000 		.4byte	.LVL427
 15055 27b2 4E020000 		.4byte	.LVL429
 15056 27b6 0100     		.2byte	0x1
 15057 27b8 55       		.byte	0x55
 15058 27b9 80020000 		.4byte	.LVL437
 15059 27bd D8020000 		.4byte	.LVL446
 15060 27c1 0100     		.2byte	0x1
 15061 27c3 55       		.byte	0x55
 15062 27c4 3C030000 		.4byte	.LVL459
 15063 27c8 5C030000 		.4byte	.LVL461
 15064 27cc 0100     		.2byte	0x1
 15065 27ce 55       		.byte	0x55
 15066 27cf 5C030000 		.4byte	.LVL461
 15067 27d3 6A030000 		.4byte	.LVL462
 15068 27d7 0100     		.2byte	0x1
 15069 27d9 53       		.byte	0x53
 15070 27da F6030000 		.4byte	.LVL476
 15071 27de FA030000 		.4byte	.LVL477
 15072 27e2 0100     		.2byte	0x1
 15073 27e4 55       		.byte	0x55
 15074 27e5 0C040000 		.4byte	.LVL481
 15075 27e9 C4040000 		.4byte	.LVL497
 15076 27ed 0100     		.2byte	0x1
 15077 27ef 55       		.byte	0x55
 15078 27f0 CE040000 		.4byte	.LVL501
 15079 27f4 88050000 		.4byte	.LVL524
 15080 27f8 0100     		.2byte	0x1
 15081 27fa 55       		.byte	0x55
 15082 27fb 88050000 		.4byte	.LVL524
 15083 27ff 93050000 		.4byte	.LVL525-1
 15084 2803 0300     		.2byte	0x3
 15085 2805 91       		.byte	0x91
 15086 2806 F87E     		.sleb128 -136
 15087 2808 9A050000 		.4byte	.LVL528
 15088 280c AA050000 		.4byte	.LVL530
 15089 2810 0100     		.2byte	0x1
 15090 2812 55       		.byte	0x55
 15091 2813 0C060000 		.4byte	.LVL540
 15092 2817 0E060000 		.4byte	.LVL541
 15093 281b 0100     		.2byte	0x1
 15094 281d 55       		.byte	0x55
 15095 281e 4A060000 		.4byte	.LVL549
 15096 2822 5C060000 		.4byte	.LVL551
ARM GAS  C:\Users\pearlstl\AppData\Local\Temp\ccbpFzqf.s 			page 294


 15097 2826 0600     		.2byte	0x6
 15098 2828 75       		.byte	0x75
 15099 2829 00       		.sleb128 0
 15100 282a 08       		.byte	0x8
 15101 282b 21       		.byte	0x21
 15102 282c 21       		.byte	0x21
 15103 282d 9F       		.byte	0x9f
 15104 282e 64060000 		.4byte	.LVL553
 15105 2832 6A060000 		.4byte	.LVL554
 15106 2836 0700     		.2byte	0x7
 15107 2838 75       		.byte	0x75
 15108 2839 00       		.sleb128 0
 15109 283a 0A       		.byte	0xa
 15110 283b 0001     		.2byte	0x100
 15111 283d 21       		.byte	0x21
 15112 283e 9F       		.byte	0x9f
 15113 283f 6A060000 		.4byte	.LVL554
 15114 2843 6E060000 		.4byte	.LVL556
 15115 2847 0100     		.2byte	0x1
 15116 2849 55       		.byte	0x55
 15117 284a 6E060000 		.4byte	.LVL556
 15118 284e 74060000 		.4byte	.LVL557
 15119 2852 0600     		.2byte	0x6
 15120 2854 75       		.byte	0x75
 15121 2855 00       		.sleb128 0
 15122 2856 08       		.byte	0x8
 15123 2857 80       		.byte	0x80
 15124 2858 21       		.byte	0x21
 15125 2859 9F       		.byte	0x9f
 15126 285a 74060000 		.4byte	.LVL557
 15127 285e 82060000 		.4byte	.LVL560
 15128 2862 0100     		.2byte	0x1
 15129 2864 55       		.byte	0x55
 15130 2865 82060000 		.4byte	.LVL560
 15131 2869 84060000 		.4byte	.LVL561
 15132 286d 0100     		.2byte	0x1
 15133 286f 53       		.byte	0x53
 15134 2870 30070000 		.4byte	.LVL576
 15135 2874 58070000 		.4byte	.LVL583
 15136 2878 0100     		.2byte	0x1
 15137 287a 55       		.byte	0x55
 15138 287b 8A070000 		.4byte	.LVL590
 15139 287f 0C080000 		.4byte	.LVL607
 15140 2883 0100     		.2byte	0x1
 15141 2885 55       		.byte	0x55
 15142 2886 26080000 		.4byte	.LVL613
 15143 288a DC090000 		.4byte	.LVL658
 15144 288e 0100     		.2byte	0x1
 15145 2890 55       		.byte	0x55
 15146 2891 DC090000 		.4byte	.LVL658
 15147 2895 FC090000 		.4byte	.LVL664
 15148 2899 0300     		.2byte	0x3
 15149 289b 91       		.byte	0x91
 15150 289c A07F     		.sleb128 -96
 15151 289e 260A0000 		.4byte	.LVL672
 15152 28a2 320A0000 		.4byte	.LVL673
 15153 28a6 0600     		.2byte	0x6
ARM GAS  C:\Users\pearlstl\AppData\Local\Temp\ccbpFzqf.s 			page 295


 15154 28a8 75       		.byte	0x75
 15155 28a9 00       		.sleb128 0
 15156 28aa 08       		.byte	0x8
 15157 28ab 20       		.byte	0x20
 15158 28ac 21       		.byte	0x21
 15159 28ad 9F       		.byte	0x9f
 15160 28ae 320A0000 		.4byte	.LVL673
 15161 28b2 640A0000 		.4byte	.LVL674
 15162 28b6 0100     		.2byte	0x1
 15163 28b8 53       		.byte	0x53
 15164 28b9 640A0000 		.4byte	.LVL674
 15165 28bd E20A0000 		.4byte	.LVL687
 15166 28c1 0100     		.2byte	0x1
 15167 28c3 55       		.byte	0x55
 15168 28c4 FC0A0000 		.4byte	.LVL693
 15169 28c8 1E0B0000 		.4byte	.LVL695
 15170 28cc 0100     		.2byte	0x1
 15171 28ce 55       		.byte	0x55
 15172 28cf E40B0000 		.4byte	.LVL713
 15173 28d3 E80B0000 		.4byte	.LVL714
 15174 28d7 0100     		.2byte	0x1
 15175 28d9 55       		.byte	0x55
 15176 28da E00C0000 		.4byte	.LVL732
 15177 28de E80C0000 		.4byte	.LVL734
 15178 28e2 0100     		.2byte	0x1
 15179 28e4 55       		.byte	0x55
 15180 28e5 E40D0000 		.4byte	.LVL761
 15181 28e9 020F0000 		.4byte	.LVL787
 15182 28ed 0100     		.2byte	0x1
 15183 28ef 55       		.byte	0x55
 15184 28f0 380F0000 		.4byte	.LVL794
 15185 28f4 920F0000 		.4byte	.LVL804
 15186 28f8 0100     		.2byte	0x1
 15187 28fa 55       		.byte	0x55
 15188 28fb 920F0000 		.4byte	.LVL804
 15189 28ff 960F0000 		.4byte	.LVL805
 15190 2903 0100     		.2byte	0x1
 15191 2905 53       		.byte	0x53
 15192 2906 9C0F0000 		.4byte	.LVL806
 15193 290a D60F0000 		.4byte	.LVL814
 15194 290e 0100     		.2byte	0x1
 15195 2910 55       		.byte	0x55
 15196 2911 DE0F0000 		.4byte	.LVL815
 15197 2915 E00F0000 		.4byte	.LVL816
 15198 2919 0100     		.2byte	0x1
 15199 291b 55       		.byte	0x55
 15200 291c E40F0000 		.4byte	.LVL817
 15201 2920 3C100000 		.4byte	.LVL831
 15202 2924 0100     		.2byte	0x1
 15203 2926 55       		.byte	0x55
 15204 2927 44100000 		.4byte	.LVL832
 15205 292b 64100000 		.4byte	.LVL837
 15206 292f 0100     		.2byte	0x1
 15207 2931 55       		.byte	0x55
 15208 2932 64100000 		.4byte	.LVL837
 15209 2936 7A100000 		.4byte	.LVL838
 15210 293a 0100     		.2byte	0x1
ARM GAS  C:\Users\pearlstl\AppData\Local\Temp\ccbpFzqf.s 			page 296


 15211 293c 53       		.byte	0x53
 15212 293d 7A100000 		.4byte	.LVL838
 15213 2941 A0100000 		.4byte	.LFE16
 15214 2945 0100     		.2byte	0x1
 15215 2947 55       		.byte	0x55
 15216 2948 00000000 		.4byte	0
 15217 294c 00000000 		.4byte	0
 15218              	.LLST156:
 15219 2950 A4000000 		.4byte	.LVL400
 15220 2954 B8000000 		.4byte	.LVL401
 15221 2958 0200     		.2byte	0x2
 15222 295a 30       		.byte	0x30
 15223 295b 9F       		.byte	0x9f
 15224 295c CA010000 		.4byte	.LVL413
 15225 2960 3C020000 		.4byte	.LVL427
 15226 2964 0200     		.2byte	0x2
 15227 2966 38       		.byte	0x38
 15228 2967 9F       		.byte	0x9f
 15229 2968 CE040000 		.4byte	.LVL501
 15230 296c EA040000 		.4byte	.LVL506
 15231 2970 0200     		.2byte	0x2
 15232 2972 30       		.byte	0x30
 15233 2973 9F       		.byte	0x9f
 15234 2974 EA040000 		.4byte	.LVL506
 15235 2978 F0040000 		.4byte	.LVL507
 15236 297c 0100     		.2byte	0x1
 15237 297e 58       		.byte	0x58
 15238 297f 22050000 		.4byte	.LVL514
 15239 2983 38050000 		.4byte	.LVL517
 15240 2987 0200     		.2byte	0x2
 15241 2989 30       		.byte	0x30
 15242 298a 9F       		.byte	0x9f
 15243 298b 38050000 		.4byte	.LVL517
 15244 298f 42050000 		.4byte	.LVL520
 15245 2993 0100     		.2byte	0x1
 15246 2995 53       		.byte	0x53
 15247 2996 4A060000 		.4byte	.LVL549
 15248 299a 5C060000 		.4byte	.LVL551
 15249 299e 0200     		.2byte	0x2
 15250 29a0 38       		.byte	0x38
 15251 29a1 9F       		.byte	0x9f
 15252 29a2 6C0F0000 		.4byte	.LVL801
 15253 29a6 700F0000 		.4byte	.LVL802
 15254 29aa 0300     		.2byte	0x3
 15255 29ac 78       		.byte	0x78
 15256 29ad 7F       		.sleb128 -1
 15257 29ae 9F       		.byte	0x9f
 15258 29af 00000000 		.4byte	0
 15259 29b3 00000000 		.4byte	0
 15260              	.LLST157:
 15261 29b7 B8000000 		.4byte	.LVL401
 15262 29bb C2000000 		.4byte	.LVL402
 15263 29bf 0200     		.2byte	0x2
 15264 29c1 30       		.byte	0x30
 15265 29c2 9F       		.byte	0x9f
 15266 29c3 EA040000 		.4byte	.LVL506
 15267 29c7 22050000 		.4byte	.LVL514
ARM GAS  C:\Users\pearlstl\AppData\Local\Temp\ccbpFzqf.s 			page 297


 15268 29cb 0200     		.2byte	0x2
 15269 29cd 30       		.byte	0x30
 15270 29ce 9F       		.byte	0x9f
 15271 29cf 42050000 		.4byte	.LVL520
 15272 29d3 4C050000 		.4byte	.LVL521
 15273 29d7 0200     		.2byte	0x2
 15274 29d9 30       		.byte	0x30
 15275 29da 9F       		.byte	0x9f
 15276 29db 26080000 		.4byte	.LVL613
 15277 29df 30080000 		.4byte	.LVL615
 15278 29e3 0200     		.2byte	0x2
 15279 29e5 30       		.byte	0x30
 15280 29e6 9F       		.byte	0x9f
 15281 29e7 30080000 		.4byte	.LVL615
 15282 29eb 3A080000 		.4byte	.LVL618
 15283 29ef 0100     		.2byte	0x1
 15284 29f1 59       		.byte	0x59
 15285 29f2 00000000 		.4byte	0
 15286 29f6 00000000 		.4byte	0
 15287              	.LLST158:
 15288 29fa 8A000000 		.4byte	.LVL391
 15289 29fe 8C000000 		.4byte	.LVL392
 15290 2a02 0200     		.2byte	0x2
 15291 2a04 31       		.byte	0x31
 15292 2a05 9F       		.byte	0x9f
 15293 2a06 90000000 		.4byte	.LVL393
 15294 2a0a 92000000 		.4byte	.LVL394
 15295 2a0e 0200     		.2byte	0x2
 15296 2a10 31       		.byte	0x31
 15297 2a11 9F       		.byte	0x9f
 15298 2a12 96000000 		.4byte	.LVL395
 15299 2a16 98000000 		.4byte	.LVL396
 15300 2a1a 0200     		.2byte	0x2
 15301 2a1c 31       		.byte	0x31
 15302 2a1d 9F       		.byte	0x9f
 15303 2a1e 9C000000 		.4byte	.LVL397
 15304 2a22 9E000000 		.4byte	.LVL398
 15305 2a26 0200     		.2byte	0x2
 15306 2a28 31       		.byte	0x31
 15307 2a29 9F       		.byte	0x9f
 15308 2a2a A2000000 		.4byte	.LVL399
 15309 2a2e A4000000 		.4byte	.LVL400
 15310 2a32 0200     		.2byte	0x2
 15311 2a34 31       		.byte	0x31
 15312 2a35 9F       		.byte	0x9f
 15313 2a36 A4000000 		.4byte	.LVL400
 15314 2a3a A0100000 		.4byte	.LFE16
 15315 2a3e 0200     		.2byte	0x2
 15316 2a40 30       		.byte	0x30
 15317 2a41 9F       		.byte	0x9f
 15318 2a42 00000000 		.4byte	0
 15319 2a46 00000000 		.4byte	0
 15320              	.LLST159:
 15321 2a4a 0E000000 		.4byte	.LVL377
 15322 2a4e 20000000 		.4byte	.LVL379
 15323 2a52 0200     		.2byte	0x2
 15324 2a54 30       		.byte	0x30
ARM GAS  C:\Users\pearlstl\AppData\Local\Temp\ccbpFzqf.s 			page 298


 15325 2a55 9F       		.byte	0x9f
 15326 2a56 3A000000 		.4byte	.LVL382
 15327 2a5a 3E000000 		.4byte	.LVL383
 15328 2a5e 0100     		.2byte	0x1
 15329 2a60 5A       		.byte	0x5a
 15330 2a61 2E020000 		.4byte	.LVL424
 15331 2a65 32020000 		.4byte	.LVL426
 15332 2a69 0100     		.2byte	0x1
 15333 2a6b 50       		.byte	0x50
 15334 2a6c 58020000 		.4byte	.LVL431
 15335 2a70 62020000 		.4byte	.LVL432
 15336 2a74 0100     		.2byte	0x1
 15337 2a76 51       		.byte	0x51
 15338 2a77 62020000 		.4byte	.LVL432
 15339 2a7b 68020000 		.4byte	.LVL434
 15340 2a7f 0100     		.2byte	0x1
 15341 2a81 5A       		.byte	0x5a
 15342 2a82 68020000 		.4byte	.LVL434
 15343 2a86 76020000 		.4byte	.LVL435
 15344 2a8a 0100     		.2byte	0x1
 15345 2a8c 55       		.byte	0x55
 15346 2a8d 76020000 		.4byte	.LVL435
 15347 2a91 80020000 		.4byte	.LVL437
 15348 2a95 0100     		.2byte	0x1
 15349 2a97 5A       		.byte	0x5a
 15350 2a98 EC020000 		.4byte	.LVL449
 15351 2a9c F2020000 		.4byte	.LVL450
 15352 2aa0 0100     		.2byte	0x1
 15353 2aa2 5A       		.byte	0x5a
 15354 2aa3 18030000 		.4byte	.LVL454
 15355 2aa7 1A030000 		.4byte	.LVL455
 15356 2aab 0100     		.2byte	0x1
 15357 2aad 52       		.byte	0x52
 15358 2aae 1A030000 		.4byte	.LVL455
 15359 2ab2 34030000 		.4byte	.LVL457
 15360 2ab6 0100     		.2byte	0x1
 15361 2ab8 56       		.byte	0x56
 15362 2ab9 FA030000 		.4byte	.LVL477
 15363 2abd 04040000 		.4byte	.LVL478
 15364 2ac1 0100     		.2byte	0x1
 15365 2ac3 55       		.byte	0x55
 15366 2ac4 04040000 		.4byte	.LVL478
 15367 2ac8 0C040000 		.4byte	.LVL481
 15368 2acc 0100     		.2byte	0x1
 15369 2ace 5A       		.byte	0x5a
 15370 2acf CA040000 		.4byte	.LVL499
 15371 2ad3 CE040000 		.4byte	.LVL501
 15372 2ad7 0100     		.2byte	0x1
 15373 2ad9 5A       		.byte	0x5a
 15374 2ada 94050000 		.4byte	.LVL525
 15375 2ade 9A050000 		.4byte	.LVL528
 15376 2ae2 0100     		.2byte	0x1
 15377 2ae4 50       		.byte	0x50
 15378 2ae5 B6050000 		.4byte	.LVL531
 15379 2ae9 B8050000 		.4byte	.LVL532
 15380 2aed 0100     		.2byte	0x1
 15381 2aef 52       		.byte	0x52
ARM GAS  C:\Users\pearlstl\AppData\Local\Temp\ccbpFzqf.s 			page 299


 15382 2af0 B8050000 		.4byte	.LVL532
 15383 2af4 D2050000 		.4byte	.LVL534
 15384 2af8 0100     		.2byte	0x1
 15385 2afa 54       		.byte	0x54
 15386 2afb D2050000 		.4byte	.LVL534
 15387 2aff DC050000 		.4byte	.LVL535
 15388 2b03 0100     		.2byte	0x1
 15389 2b05 52       		.byte	0x52
 15390 2b06 DC050000 		.4byte	.LVL535
 15391 2b0a E2050000 		.4byte	.LVL536
 15392 2b0e 0100     		.2byte	0x1
 15393 2b10 5A       		.byte	0x5a
 15394 2b11 02060000 		.4byte	.LVL539
 15395 2b15 0C060000 		.4byte	.LVL540
 15396 2b19 0100     		.2byte	0x1
 15397 2b1b 53       		.byte	0x53
 15398 2b1c 26060000 		.4byte	.LVL543
 15399 2b20 34060000 		.4byte	.LVL545
 15400 2b24 0100     		.2byte	0x1
 15401 2b26 55       		.byte	0x55
 15402 2b27 34060000 		.4byte	.LVL545
 15403 2b2b 3E060000 		.4byte	.LVL546
 15404 2b2f 0100     		.2byte	0x1
 15405 2b31 51       		.byte	0x51
 15406 2b32 3E060000 		.4byte	.LVL546
 15407 2b36 48060000 		.4byte	.LVL548
 15408 2b3a 0100     		.2byte	0x1
 15409 2b3c 55       		.byte	0x55
 15410 2b3d 5C060000 		.4byte	.LVL551
 15411 2b41 62060000 		.4byte	.LVL552
 15412 2b45 0100     		.2byte	0x1
 15413 2b47 5A       		.byte	0x5a
 15414 2b48 62060000 		.4byte	.LVL552
 15415 2b4c 64060000 		.4byte	.LVL553
 15416 2b50 0100     		.2byte	0x1
 15417 2b52 53       		.byte	0x53
 15418 2b53 20070000 		.4byte	.LVL574
 15419 2b57 30070000 		.4byte	.LVL576
 15420 2b5b 0100     		.2byte	0x1
 15421 2b5d 50       		.byte	0x50
 15422 2b5e 86070000 		.4byte	.LVL589
 15423 2b62 8A070000 		.4byte	.LVL590
 15424 2b66 0100     		.2byte	0x1
 15425 2b68 57       		.byte	0x57
 15426 2b69 22080000 		.4byte	.LVL611
 15427 2b6d 24080000 		.4byte	.LVL612
 15428 2b71 0100     		.2byte	0x1
 15429 2b73 52       		.byte	0x52
 15430 2b74 220A0000 		.4byte	.LVL670
 15431 2b78 260A0000 		.4byte	.LVL672
 15432 2b7c 0100     		.2byte	0x1
 15433 2b7e 56       		.byte	0x56
 15434 2b7f F80A0000 		.4byte	.LVL691
 15435 2b83 FA0A0000 		.4byte	.LVL692
 15436 2b87 0100     		.2byte	0x1
 15437 2b89 57       		.byte	0x57
 15438 2b8a 560D0000 		.4byte	.LVL744
ARM GAS  C:\Users\pearlstl\AppData\Local\Temp\ccbpFzqf.s 			page 300


 15439 2b8e 580D0000 		.4byte	.LVL745
 15440 2b92 0100     		.2byte	0x1
 15441 2b94 50       		.byte	0x50
 15442 2b95 DE0D0000 		.4byte	.LVL759
 15443 2b99 E00D0000 		.4byte	.LVL760
 15444 2b9d 0100     		.2byte	0x1
 15445 2b9f 50       		.byte	0x50
 15446 2ba0 D60F0000 		.4byte	.LVL814
 15447 2ba4 DE0F0000 		.4byte	.LVL815
 15448 2ba8 0100     		.2byte	0x1
 15449 2baa 55       		.byte	0x55
 15450 2bab 00000000 		.4byte	0
 15451 2baf 00000000 		.4byte	0
 15452              	.LLST160:
 15453 2bb3 0E000000 		.4byte	.LVL377
 15454 2bb7 20000000 		.4byte	.LVL379
 15455 2bbb 0600     		.2byte	0x6
 15456 2bbd 03       		.byte	0x3
 15457 2bbe 00000000 		.4byte	_out_buffer
 15458 2bc2 9F       		.byte	0x9f
 15459 2bc3 00000000 		.4byte	0
 15460 2bc7 00000000 		.4byte	0
 15461              	.LLST161:
 15462 2bcb 9E020000 		.4byte	.LVL438
 15463 2bcf D8020000 		.4byte	.LVL446
 15464 2bd3 0200     		.2byte	0x2
 15465 2bd5 71       		.byte	0x71
 15466 2bd6 00       		.sleb128 0
 15467 2bd7 9A050000 		.4byte	.LVL528
 15468 2bdb B6050000 		.4byte	.LVL531
 15469 2bdf 0200     		.2byte	0x2
 15470 2be1 71       		.byte	0x71
 15471 2be2 00       		.sleb128 0
 15472 2be3 E40D0000 		.4byte	.LVL761
 15473 2be7 EA0D0000 		.4byte	.LVL762
 15474 2beb 0200     		.2byte	0x2
 15475 2bed 71       		.byte	0x71
 15476 2bee 00       		.sleb128 0
 15477 2bef CA0F0000 		.4byte	.LVL811
 15478 2bf3 D60F0000 		.4byte	.LVL814
 15479 2bf7 0200     		.2byte	0x2
 15480 2bf9 71       		.byte	0x71
 15481 2bfa 00       		.sleb128 0
 15482 2bfb 00000000 		.4byte	0
 15483 2bff 00000000 		.4byte	0
 15484              	.LLST162:
 15485 2c03 C2020000 		.4byte	.LVL445
 15486 2c07 E2020000 		.4byte	.LVL447
 15487 2c0b 0100     		.2byte	0x1
 15488 2c0d 57       		.byte	0x57
 15489 2c0e 02030000 		.4byte	.LVL453
 15490 2c12 18030000 		.4byte	.LVL454
 15491 2c16 0300     		.2byte	0x3
 15492 2c18 77       		.byte	0x77
 15493 2c19 01       		.sleb128 1
 15494 2c1a 9F       		.byte	0x9f
 15495 2c1b 9A050000 		.4byte	.LVL528
ARM GAS  C:\Users\pearlstl\AppData\Local\Temp\ccbpFzqf.s 			page 301


 15496 2c1f A0050000 		.4byte	.LVL529
 15497 2c23 0100     		.2byte	0x1
 15498 2c25 57       		.byte	0x57
 15499 2c26 A0050000 		.4byte	.LVL529
 15500 2c2a B6050000 		.4byte	.LVL531
 15501 2c2e 0100     		.2byte	0x1
 15502 2c30 53       		.byte	0x53
 15503 2c31 DC050000 		.4byte	.LVL535
 15504 2c35 F2050000 		.4byte	.LVL537
 15505 2c39 0100     		.2byte	0x1
 15506 2c3b 57       		.byte	0x57
 15507 2c3c CA0F0000 		.4byte	.LVL811
 15508 2c40 CC0F0000 		.4byte	.LVL812
 15509 2c44 0100     		.2byte	0x1
 15510 2c46 53       		.byte	0x53
 15511 2c47 CC0F0000 		.4byte	.LVL812
 15512 2c4b D20F0000 		.4byte	.LVL813
 15513 2c4f 0100     		.2byte	0x1
 15514 2c51 57       		.byte	0x57
 15515 2c52 D20F0000 		.4byte	.LVL813
 15516 2c56 D60F0000 		.4byte	.LVL814
 15517 2c5a 0100     		.2byte	0x1
 15518 2c5c 53       		.byte	0x53
 15519 2c5d 00000000 		.4byte	0
 15520 2c61 00000000 		.4byte	0
 15521              	.LLST163:
 15522 2c65 9E020000 		.4byte	.LVL438
 15523 2c69 A4020000 		.4byte	.LVL439
 15524 2c6d 0100     		.2byte	0x1
 15525 2c6f 53       		.byte	0x53
 15526 2c70 A4020000 		.4byte	.LVL439
 15527 2c74 A6020000 		.4byte	.LVL440
 15528 2c78 0300     		.2byte	0x3
 15529 2c7a 73       		.byte	0x73
 15530 2c7b 7E       		.sleb128 -2
 15531 2c7c 9F       		.byte	0x9f
 15532 2c7d A6020000 		.4byte	.LVL440
 15533 2c81 A8020000 		.4byte	.LVL441
 15534 2c85 0300     		.2byte	0x3
 15535 2c87 73       		.byte	0x73
 15536 2c88 7F       		.sleb128 -1
 15537 2c89 9F       		.byte	0x9f
 15538 2c8a A8020000 		.4byte	.LVL441
 15539 2c8e B0020000 		.4byte	.LVL443
 15540 2c92 0300     		.2byte	0x3
 15541 2c94 73       		.byte	0x73
 15542 2c95 7E       		.sleb128 -2
 15543 2c96 9F       		.byte	0x9f
 15544 2c97 E40D0000 		.4byte	.LVL761
 15545 2c9b EA0D0000 		.4byte	.LVL762
 15546 2c9f 0100     		.2byte	0x1
 15547 2ca1 53       		.byte	0x53
 15548 2ca2 00000000 		.4byte	0
 15549 2ca6 00000000 		.4byte	0
 15550              	.LLST164:
 15551 2caa 9E020000 		.4byte	.LVL438
 15552 2cae A4020000 		.4byte	.LVL439
ARM GAS  C:\Users\pearlstl\AppData\Local\Temp\ccbpFzqf.s 			page 302


 15553 2cb2 0200     		.2byte	0x2
 15554 2cb4 71       		.byte	0x71
 15555 2cb5 00       		.sleb128 0
 15556 2cb6 A4020000 		.4byte	.LVL439
 15557 2cba A8020000 		.4byte	.LVL441
 15558 2cbe 0300     		.2byte	0x3
 15559 2cc0 77       		.byte	0x77
 15560 2cc1 7F       		.sleb128 -1
 15561 2cc2 9F       		.byte	0x9f
 15562 2cc3 A8020000 		.4byte	.LVL441
 15563 2cc7 AC020000 		.4byte	.LVL442
 15564 2ccb 0100     		.2byte	0x1
 15565 2ccd 57       		.byte	0x57
 15566 2cce AC020000 		.4byte	.LVL442
 15567 2cd2 B4020000 		.4byte	.LVL444
 15568 2cd6 0300     		.2byte	0x3
 15569 2cd8 77       		.byte	0x77
 15570 2cd9 7F       		.sleb128 -1
 15571 2cda 9F       		.byte	0x9f
 15572 2cdb E40D0000 		.4byte	.LVL761
 15573 2cdf EA0D0000 		.4byte	.LVL762
 15574 2ce3 0200     		.2byte	0x2
 15575 2ce5 71       		.byte	0x71
 15576 2ce6 00       		.sleb128 0
 15577 2ce7 00000000 		.4byte	0
 15578 2ceb 00000000 		.4byte	0
 15579              	.LLST165:
 15580 2cef CA010000 		.4byte	.LVL413
 15581 2cf3 3C020000 		.4byte	.LVL427
 15582 2cf7 0200     		.2byte	0x2
 15583 2cf9 30       		.byte	0x30
 15584 2cfa 9F       		.byte	0x9f
 15585 2cfb 4A060000 		.4byte	.LVL549
 15586 2cff 5C060000 		.4byte	.LVL551
 15587 2d03 0200     		.2byte	0x2
 15588 2d05 30       		.byte	0x30
 15589 2d06 9F       		.byte	0x9f
 15590 2d07 00000000 		.4byte	0
 15591 2d0b 00000000 		.4byte	0
 15592              	.LLST166:
 15593 2d0f D2010000 		.4byte	.LVL414
 15594 2d13 DC010000 		.4byte	.LVL415
 15595 2d17 0600     		.2byte	0x6
 15596 2d19 75       		.byte	0x75
 15597 2d1a 00       		.sleb128 0
 15598 2d1b 08       		.byte	0x8
 15599 2d1c 21       		.byte	0x21
 15600 2d1d 21       		.byte	0x21
 15601 2d1e 9F       		.byte	0x9f
 15602 2d1f 4A060000 		.4byte	.LVL549
 15603 2d23 54060000 		.4byte	.LVL550
 15604 2d27 0600     		.2byte	0x6
 15605 2d29 75       		.byte	0x75
 15606 2d2a 00       		.sleb128 0
 15607 2d2b 08       		.byte	0x8
 15608 2d2c 21       		.byte	0x21
 15609 2d2d 21       		.byte	0x21
ARM GAS  C:\Users\pearlstl\AppData\Local\Temp\ccbpFzqf.s 			page 303


 15610 2d2e 9F       		.byte	0x9f
 15611 2d2f 54060000 		.4byte	.LVL550
 15612 2d33 5C060000 		.4byte	.LVL551
 15613 2d37 0100     		.2byte	0x1
 15614 2d39 50       		.byte	0x50
 15615 2d3a 00000000 		.4byte	0
 15616 2d3e 00000000 		.4byte	0
 15617              	.LLST167:
 15618 2d42 D2010000 		.4byte	.LVL414
 15619 2d46 32020000 		.4byte	.LVL426
 15620 2d4a 0200     		.2byte	0x2
 15621 2d4c 38       		.byte	0x38
 15622 2d4d 9F       		.byte	0x9f
 15623 2d4e 4A060000 		.4byte	.LVL549
 15624 2d52 5C060000 		.4byte	.LVL551
 15625 2d56 0200     		.2byte	0x2
 15626 2d58 38       		.byte	0x38
 15627 2d59 9F       		.byte	0x9f
 15628 2d5a 00000000 		.4byte	0
 15629 2d5e 00000000 		.4byte	0
 15630              	.LLST168:
 15631 2d62 D2010000 		.4byte	.LVL414
 15632 2d66 32020000 		.4byte	.LVL426
 15633 2d6a 0200     		.2byte	0x2
 15634 2d6c 40       		.byte	0x40
 15635 2d6d 9F       		.byte	0x9f
 15636 2d6e 4A060000 		.4byte	.LVL549
 15637 2d72 5C060000 		.4byte	.LVL551
 15638 2d76 0200     		.2byte	0x2
 15639 2d78 40       		.byte	0x40
 15640 2d79 9F       		.byte	0x9f
 15641 2d7a 00000000 		.4byte	0
 15642 2d7e 00000000 		.4byte	0
 15643              	.LLST169:
 15644 2d82 D2010000 		.4byte	.LVL414
 15645 2d86 32020000 		.4byte	.LVL426
 15646 2d8a 0200     		.2byte	0x2
 15647 2d8c 30       		.byte	0x30
 15648 2d8d 9F       		.byte	0x9f
 15649 2d8e 4A060000 		.4byte	.LVL549
 15650 2d92 5C060000 		.4byte	.LVL551
 15651 2d96 0200     		.2byte	0x2
 15652 2d98 30       		.byte	0x30
 15653 2d99 9F       		.byte	0x9f
 15654 2d9a 00000000 		.4byte	0
 15655 2d9e 00000000 		.4byte	0
 15656              	.LLST170:
 15657 2da2 D2010000 		.4byte	.LVL414
 15658 2da6 E4010000 		.4byte	.LVL417
 15659 2daa 0100     		.2byte	0x1
 15660 2dac 52       		.byte	0x52
 15661 2dad E8010000 		.4byte	.LVL418
 15662 2db1 FC010000 		.4byte	.LVL420
 15663 2db5 0100     		.2byte	0x1
 15664 2db7 52       		.byte	0x52
 15665 2db8 4A060000 		.4byte	.LVL549
 15666 2dbc 5C060000 		.4byte	.LVL551
ARM GAS  C:\Users\pearlstl\AppData\Local\Temp\ccbpFzqf.s 			page 304


 15667 2dc0 0100     		.2byte	0x1
 15668 2dc2 52       		.byte	0x52
 15669 2dc3 00000000 		.4byte	0
 15670 2dc7 00000000 		.4byte	0
 15671              	.LLST171:
 15672 2dcb 2E020000 		.4byte	.LVL424
 15673 2dcf 32020000 		.4byte	.LVL426
 15674 2dd3 0100     		.2byte	0x1
 15675 2dd5 50       		.byte	0x50
 15676 2dd6 00000000 		.4byte	0
 15677 2dda 00000000 		.4byte	0
 15678              	.LLST172:
 15679 2dde D2010000 		.4byte	.LVL414
 15680 2de2 E4010000 		.4byte	.LVL417
 15681 2de6 0200     		.2byte	0x2
 15682 2de8 30       		.byte	0x30
 15683 2de9 9F       		.byte	0x9f
 15684 2dea E4010000 		.4byte	.LVL417
 15685 2dee 24020000 		.4byte	.LVL423
 15686 2df2 0100     		.2byte	0x1
 15687 2df4 51       		.byte	0x51
 15688 2df5 24020000 		.4byte	.LVL423
 15689 2df9 2D020000 		.4byte	.LVL424-1
 15690 2dfd 0300     		.2byte	0x3
 15691 2dff 91       		.byte	0x91
 15692 2e00 EC7E     		.sleb128 -148
 15693 2e02 4A060000 		.4byte	.LVL549
 15694 2e06 5C060000 		.4byte	.LVL551
 15695 2e0a 0200     		.2byte	0x2
 15696 2e0c 30       		.byte	0x30
 15697 2e0d 9F       		.byte	0x9f
 15698 2e0e 00000000 		.4byte	0
 15699 2e12 00000000 		.4byte	0
 15700              	.LLST173:
 15701 2e16 E4010000 		.4byte	.LVL417
 15702 2e1a E8010000 		.4byte	.LVL418
 15703 2e1e 0100     		.2byte	0x1
 15704 2e20 56       		.byte	0x56
 15705 2e21 F0010000 		.4byte	.LVL419
 15706 2e25 06020000 		.4byte	.LVL422
 15707 2e29 0100     		.2byte	0x1
 15708 2e2b 56       		.byte	0x56
 15709 2e2c 00000000 		.4byte	0
 15710 2e30 00000000 		.4byte	0
 15711              	.LLST174:
 15712 2e34 3C020000 		.4byte	.LVL427
 15713 2e38 42020000 		.4byte	.LVL428
 15714 2e3c 0200     		.2byte	0x2
 15715 2e3e 31       		.byte	0x31
 15716 2e3f 9F       		.byte	0x9f
 15717 2e40 42020000 		.4byte	.LVL428
 15718 2e44 80020000 		.4byte	.LVL437
 15719 2e48 0200     		.2byte	0x2
 15720 2e4a 32       		.byte	0x32
 15721 2e4b 9F       		.byte	0x9f
 15722 2e4c 0C060000 		.4byte	.LVL540
 15723 2e50 26060000 		.4byte	.LVL543
ARM GAS  C:\Users\pearlstl\AppData\Local\Temp\ccbpFzqf.s 			page 305


 15724 2e54 0200     		.2byte	0x2
 15725 2e56 31       		.byte	0x31
 15726 2e57 9F       		.byte	0x9f
 15727 2e58 26060000 		.4byte	.LVL543
 15728 2e5c 32060000 		.4byte	.LVL544
 15729 2e60 0200     		.2byte	0x2
 15730 2e62 32       		.byte	0x32
 15731 2e63 9F       		.byte	0x9f
 15732 2e64 D60F0000 		.4byte	.LVL814
 15733 2e68 E40F0000 		.4byte	.LVL817
 15734 2e6c 0200     		.2byte	0x2
 15735 2e6e 32       		.byte	0x32
 15736 2e6f 9F       		.byte	0x9f
 15737 2e70 00000000 		.4byte	0
 15738 2e74 00000000 		.4byte	0
 15739              	.LLST175:
 15740 2e78 54030000 		.4byte	.LVL460
 15741 2e7c 6A030000 		.4byte	.LVL462
 15742 2e80 0200     		.2byte	0x2
 15743 2e82 3A       		.byte	0x3a
 15744 2e83 9F       		.byte	0x9f
 15745 2e84 C6070000 		.4byte	.LVL597
 15746 2e88 C8070000 		.4byte	.LVL598
 15747 2e8c 0200     		.2byte	0x2
 15748 2e8e 32       		.byte	0x32
 15749 2e8f 9F       		.byte	0x9f
 15750 2e90 260A0000 		.4byte	.LVL672
 15751 2e94 640A0000 		.4byte	.LVL674
 15752 2e98 0200     		.2byte	0x2
 15753 2e9a 40       		.byte	0x40
 15754 2e9b 9F       		.byte	0x9f
 15755 2e9c 64100000 		.4byte	.LVL837
 15756 2ea0 7A100000 		.4byte	.LVL838
 15757 2ea4 0200     		.2byte	0x2
 15758 2ea6 3A       		.byte	0x3a
 15759 2ea7 9F       		.byte	0x9f
 15760 2ea8 00000000 		.4byte	0
 15761 2eac 00000000 		.4byte	0
 15762              	.LLST176:
 15763 2eb0 6E0D0000 		.4byte	.LVL746
 15764 2eb4 700D0000 		.4byte	.LVL747
 15765 2eb8 0100     		.2byte	0x1
 15766 2eba 53       		.byte	0x53
 15767 2ebb 700D0000 		.4byte	.LVL747
 15768 2ebf 760D0000 		.4byte	.LVL748
 15769 2ec3 0200     		.2byte	0x2
 15770 2ec5 72       		.byte	0x72
 15771 2ec6 00       		.sleb128 0
 15772 2ec7 760D0000 		.4byte	.LVL748
 15773 2ecb BA0D0000 		.4byte	.LVL756
 15774 2ecf 0400     		.2byte	0x4
 15775 2ed1 91       		.byte	0x91
 15776 2ed2 987F     		.sleb128 -104
 15777 2ed4 06       		.byte	0x6
 15778 2ed5 160F0000 		.4byte	.LVL789
 15779 2ed9 1C0F0000 		.4byte	.LVL790
 15780 2edd 0200     		.2byte	0x2
ARM GAS  C:\Users\pearlstl\AppData\Local\Temp\ccbpFzqf.s 			page 306


 15781 2edf 72       		.byte	0x72
 15782 2ee0 00       		.sleb128 0
 15783 2ee1 1C0F0000 		.4byte	.LVL790
 15784 2ee5 260F0000 		.4byte	.LVL792
 15785 2ee9 0400     		.2byte	0x4
 15786 2eeb 91       		.byte	0x91
 15787 2eec 987F     		.sleb128 -104
 15788 2eee 06       		.byte	0x6
 15789 2eef 00000000 		.4byte	0
 15790 2ef3 00000000 		.4byte	0
 15791              	.LLST177:
 15792 2ef7 1C0F0000 		.4byte	.LVL790
 15793 2efb 200F0000 		.4byte	.LVL791
 15794 2eff 0100     		.2byte	0x1
 15795 2f01 52       		.byte	0x52
 15796 2f02 200F0000 		.4byte	.LVL791
 15797 2f06 260F0000 		.4byte	.LVL792
 15798 2f0a 0300     		.2byte	0x3
 15799 2f0c 91       		.byte	0x91
 15800 2f0d 907F     		.sleb128 -112
 15801 2f0f 00000000 		.4byte	0
 15802 2f13 00000000 		.4byte	0
 15803              	.LLST178:
 15804 2f17 6E0D0000 		.4byte	.LVL746
 15805 2f1b E00D0000 		.4byte	.LVL760
 15806 2f1f 0100     		.2byte	0x1
 15807 2f21 57       		.byte	0x57
 15808 2f22 160F0000 		.4byte	.LVL789
 15809 2f26 260F0000 		.4byte	.LVL792
 15810 2f2a 0100     		.2byte	0x1
 15811 2f2c 57       		.byte	0x57
 15812 2f2d 00000000 		.4byte	0
 15813 2f31 00000000 		.4byte	0
 15814              	.LLST179:
 15815 2f35 6E0D0000 		.4byte	.LVL746
 15816 2f39 DD0D0000 		.4byte	.LVL759-1
 15817 2f3d 0100     		.2byte	0x1
 15818 2f3f 5E       		.byte	0x5e
 15819 2f40 160F0000 		.4byte	.LVL789
 15820 2f44 260F0000 		.4byte	.LVL792
 15821 2f48 0100     		.2byte	0x1
 15822 2f4a 5E       		.byte	0x5e
 15823 2f4b 00000000 		.4byte	0
 15824 2f4f 00000000 		.4byte	0
 15825              	.LLST180:
 15826 2f53 6E0D0000 		.4byte	.LVL746
 15827 2f57 880D0000 		.4byte	.LVL749
 15828 2f5b 0100     		.2byte	0x1
 15829 2f5d 51       		.byte	0x51
 15830 2f5e 880D0000 		.4byte	.LVL749
 15831 2f62 900D0000 		.4byte	.LVL750
 15832 2f66 0100     		.2byte	0x1
 15833 2f68 53       		.byte	0x53
 15834 2f69 900D0000 		.4byte	.LVL750
 15835 2f6d 940D0000 		.4byte	.LVL751
 15836 2f71 0100     		.2byte	0x1
 15837 2f73 52       		.byte	0x52
ARM GAS  C:\Users\pearlstl\AppData\Local\Temp\ccbpFzqf.s 			page 307


 15838 2f74 940D0000 		.4byte	.LVL751
 15839 2f78 9C0D0000 		.4byte	.LVL752
 15840 2f7c 0100     		.2byte	0x1
 15841 2f7e 53       		.byte	0x53
 15842 2f7f B00D0000 		.4byte	.LVL754
 15843 2f83 B60D0000 		.4byte	.LVL755
 15844 2f87 0100     		.2byte	0x1
 15845 2f89 52       		.byte	0x52
 15846 2f8a B60D0000 		.4byte	.LVL755
 15847 2f8e BC0D0000 		.4byte	.LVL757
 15848 2f92 0100     		.2byte	0x1
 15849 2f94 53       		.byte	0x53
 15850 2f95 160F0000 		.4byte	.LVL789
 15851 2f99 260F0000 		.4byte	.LVL792
 15852 2f9d 0100     		.2byte	0x1
 15853 2f9f 51       		.byte	0x51
 15854 2fa0 00000000 		.4byte	0
 15855 2fa4 00000000 		.4byte	0
 15856              	.LLST181:
 15857 2fa8 DE0D0000 		.4byte	.LVL759
 15858 2fac E00D0000 		.4byte	.LVL760
 15859 2fb0 0100     		.2byte	0x1
 15860 2fb2 50       		.byte	0x50
 15861 2fb3 00000000 		.4byte	0
 15862 2fb7 00000000 		.4byte	0
 15863              	.LLST182:
 15864 2fbb 6E0D0000 		.4byte	.LVL746
 15865 2fbf 900D0000 		.4byte	.LVL750
 15866 2fc3 0200     		.2byte	0x2
 15867 2fc5 30       		.byte	0x30
 15868 2fc6 9F       		.byte	0x9f
 15869 2fc7 900D0000 		.4byte	.LVL750
 15870 2fcb D40D0000 		.4byte	.LVL758
 15871 2fcf 0100     		.2byte	0x1
 15872 2fd1 51       		.byte	0x51
 15873 2fd2 D40D0000 		.4byte	.LVL758
 15874 2fd6 DD0D0000 		.4byte	.LVL759-1
 15875 2fda 0300     		.2byte	0x3
 15876 2fdc 91       		.byte	0x91
 15877 2fdd EC7E     		.sleb128 -148
 15878 2fdf 160F0000 		.4byte	.LVL789
 15879 2fe3 260F0000 		.4byte	.LVL792
 15880 2fe7 0200     		.2byte	0x2
 15881 2fe9 30       		.byte	0x30
 15882 2fea 9F       		.byte	0x9f
 15883 2feb 00000000 		.4byte	0
 15884 2fef 00000000 		.4byte	0
 15885              	.LLST183:
 15886 2ff3 900D0000 		.4byte	.LVL750
 15887 2ff7 940D0000 		.4byte	.LVL751
 15888 2ffb 0100     		.2byte	0x1
 15889 2ffd 50       		.byte	0x50
 15890 2ffe 9E0D0000 		.4byte	.LVL753
 15891 3002 B60D0000 		.4byte	.LVL755
 15892 3006 0100     		.2byte	0x1
 15893 3008 50       		.byte	0x50
 15894 3009 00000000 		.4byte	0
ARM GAS  C:\Users\pearlstl\AppData\Local\Temp\ccbpFzqf.s 			page 308


 15895 300d 00000000 		.4byte	0
 15896              	.LLST184:
 15897 3011 86030000 		.4byte	.LVL463
 15898 3015 94030000 		.4byte	.LVL465
 15899 3019 0100     		.2byte	0x1
 15900 301b 53       		.byte	0x53
 15901 301c 00000000 		.4byte	0
 15902 3020 00000000 		.4byte	0
 15903              	.LLST185:
 15904 3024 9C030000 		.4byte	.LVL466
 15905 3028 A2030000 		.4byte	.LVL467
 15906 302c 0100     		.2byte	0x1
 15907 302e 52       		.byte	0x52
 15908 302f 00000000 		.4byte	0
 15909 3033 00000000 		.4byte	0
 15910              	.LLST186:
 15911 3037 92030000 		.4byte	.LVL464
 15912 303b F6030000 		.4byte	.LVL476
 15913 303f 0100     		.2byte	0x1
 15914 3041 57       		.byte	0x57
 15915 3042 00000000 		.4byte	0
 15916 3046 00000000 		.4byte	0
 15917              	.LLST187:
 15918 304a 92030000 		.4byte	.LVL464
 15919 304e F6030000 		.4byte	.LVL476
 15920 3052 0100     		.2byte	0x1
 15921 3054 5E       		.byte	0x5e
 15922 3055 00000000 		.4byte	0
 15923 3059 00000000 		.4byte	0
 15924              	.LLST188:
 15925 305d 92030000 		.4byte	.LVL464
 15926 3061 B4030000 		.4byte	.LVL468
 15927 3065 0100     		.2byte	0x1
 15928 3067 51       		.byte	0x51
 15929 3068 B4030000 		.4byte	.LVL468
 15930 306c B6030000 		.4byte	.LVL469
 15931 3070 0100     		.2byte	0x1
 15932 3072 53       		.byte	0x53
 15933 3073 B6030000 		.4byte	.LVL469
 15934 3077 BA030000 		.4byte	.LVL470
 15935 307b 0100     		.2byte	0x1
 15936 307d 50       		.byte	0x50
 15937 307e BA030000 		.4byte	.LVL470
 15938 3082 C2030000 		.4byte	.LVL471
 15939 3086 0100     		.2byte	0x1
 15940 3088 53       		.byte	0x53
 15941 3089 D6030000 		.4byte	.LVL473
 15942 308d DC030000 		.4byte	.LVL474
 15943 3091 0100     		.2byte	0x1
 15944 3093 50       		.byte	0x50
 15945 3094 DC030000 		.4byte	.LVL474
 15946 3098 E2030000 		.4byte	.LVL475
 15947 309c 0100     		.2byte	0x1
 15948 309e 53       		.byte	0x53
 15949 309f 00000000 		.4byte	0
 15950 30a3 00000000 		.4byte	0
 15951              	.LLST189:
ARM GAS  C:\Users\pearlstl\AppData\Local\Temp\ccbpFzqf.s 			page 309


 15952 30a7 92030000 		.4byte	.LVL464
 15953 30ab B6030000 		.4byte	.LVL469
 15954 30af 0200     		.2byte	0x2
 15955 30b1 30       		.byte	0x30
 15956 30b2 9F       		.byte	0x9f
 15957 30b3 B6030000 		.4byte	.LVL469
 15958 30b7 F6030000 		.4byte	.LVL476
 15959 30bb 0100     		.2byte	0x1
 15960 30bd 51       		.byte	0x51
 15961 30be 00000000 		.4byte	0
 15962 30c2 00000000 		.4byte	0
 15963              	.LLST190:
 15964 30c6 B6030000 		.4byte	.LVL469
 15965 30ca BA030000 		.4byte	.LVL470
 15966 30ce 0100     		.2byte	0x1
 15967 30d0 52       		.byte	0x52
 15968 30d1 C4030000 		.4byte	.LVL472
 15969 30d5 DC030000 		.4byte	.LVL474
 15970 30d9 0100     		.2byte	0x1
 15971 30db 52       		.byte	0x52
 15972 30dc 00000000 		.4byte	0
 15973 30e0 00000000 		.4byte	0
 15974              	.LLST191:
 15975 30e4 B2060000 		.4byte	.LVL562
 15976 30e8 D6060000 		.4byte	.LVL566
 15977 30ec 0100     		.2byte	0x1
 15978 30ee 53       		.byte	0x53
 15979 30ef 960F0000 		.4byte	.LVL805
 15980 30f3 9C0F0000 		.4byte	.LVL806
 15981 30f7 0100     		.2byte	0x1
 15982 30f9 53       		.byte	0x53
 15983 30fa 00000000 		.4byte	0
 15984 30fe 00000000 		.4byte	0
 15985              	.LLST192:
 15986 3102 BA060000 		.4byte	.LVL563
 15987 3106 BE060000 		.4byte	.LVL564
 15988 310a 0100     		.2byte	0x1
 15989 310c 52       		.byte	0x52
 15990 310d BE060000 		.4byte	.LVL564
 15991 3111 C2060000 		.4byte	.LVL565
 15992 3115 0300     		.2byte	0x3
 15993 3117 91       		.byte	0x91
 15994 3118 907F     		.sleb128 -112
 15995 311a 960F0000 		.4byte	.LVL805
 15996 311e 9C0F0000 		.4byte	.LVL806
 15997 3122 0300     		.2byte	0x3
 15998 3124 91       		.byte	0x91
 15999 3125 907F     		.sleb128 -112
 16000 3127 00000000 		.4byte	0
 16001 312b 00000000 		.4byte	0
 16002              	.LLST193:
 16003 312f B2060000 		.4byte	.LVL562
 16004 3133 10070000 		.4byte	.LVL573
 16005 3137 0100     		.2byte	0x1
 16006 3139 57       		.byte	0x57
 16007 313a 960F0000 		.4byte	.LVL805
 16008 313e 9C0F0000 		.4byte	.LVL806
ARM GAS  C:\Users\pearlstl\AppData\Local\Temp\ccbpFzqf.s 			page 310


 16009 3142 0100     		.2byte	0x1
 16010 3144 57       		.byte	0x57
 16011 3145 00000000 		.4byte	0
 16012 3149 00000000 		.4byte	0
 16013              	.LLST194:
 16014 314d B2060000 		.4byte	.LVL562
 16015 3151 10070000 		.4byte	.LVL573
 16016 3155 0200     		.2byte	0x2
 16017 3157 30       		.byte	0x30
 16018 3158 9F       		.byte	0x9f
 16019 3159 960F0000 		.4byte	.LVL805
 16020 315d 9C0F0000 		.4byte	.LVL806
 16021 3161 0200     		.2byte	0x2
 16022 3163 30       		.byte	0x30
 16023 3164 9F       		.byte	0x9f
 16024 3165 00000000 		.4byte	0
 16025 3169 00000000 		.4byte	0
 16026              	.LLST195:
 16027 316d B2060000 		.4byte	.LVL562
 16028 3171 E2060000 		.4byte	.LVL568
 16029 3175 0100     		.2byte	0x1
 16030 3177 53       		.byte	0x53
 16031 3178 F6060000 		.4byte	.LVL570
 16032 317c FC060000 		.4byte	.LVL571
 16033 3180 0100     		.2byte	0x1
 16034 3182 56       		.byte	0x56
 16035 3183 FC060000 		.4byte	.LVL571
 16036 3187 FE060000 		.4byte	.LVL572
 16037 318b 0100     		.2byte	0x1
 16038 318d 53       		.byte	0x53
 16039 318e 960F0000 		.4byte	.LVL805
 16040 3192 9C0F0000 		.4byte	.LVL806
 16041 3196 0100     		.2byte	0x1
 16042 3198 53       		.byte	0x53
 16043 3199 00000000 		.4byte	0
 16044 319d 00000000 		.4byte	0
 16045              	.LLST196:
 16046 31a1 B2060000 		.4byte	.LVL562
 16047 31a5 D6060000 		.4byte	.LVL566
 16048 31a9 0200     		.2byte	0x2
 16049 31ab 30       		.byte	0x30
 16050 31ac 9F       		.byte	0x9f
 16051 31ad D6060000 		.4byte	.LVL566
 16052 31b1 10070000 		.4byte	.LVL573
 16053 31b5 0100     		.2byte	0x1
 16054 31b7 52       		.byte	0x52
 16055 31b8 960F0000 		.4byte	.LVL805
 16056 31bc 9C0F0000 		.4byte	.LVL806
 16057 31c0 0200     		.2byte	0x2
 16058 31c2 30       		.byte	0x30
 16059 31c3 9F       		.byte	0x9f
 16060 31c4 00000000 		.4byte	0
 16061 31c8 00000000 		.4byte	0
 16062              	.LLST197:
 16063 31cc D6060000 		.4byte	.LVL566
 16064 31d0 DA060000 		.4byte	.LVL567
 16065 31d4 0100     		.2byte	0x1
ARM GAS  C:\Users\pearlstl\AppData\Local\Temp\ccbpFzqf.s 			page 311


 16066 31d6 51       		.byte	0x51
 16067 31d7 E4060000 		.4byte	.LVL569
 16068 31db FC060000 		.4byte	.LVL571
 16069 31df 0100     		.2byte	0x1
 16070 31e1 51       		.byte	0x51
 16071 31e2 00000000 		.4byte	0
 16072 31e6 00000000 		.4byte	0
 16073              	.LLST198:
 16074 31ea 480B0000 		.4byte	.LVL697
 16075 31ee 500B0000 		.4byte	.LVL698
 16076 31f2 0100     		.2byte	0x1
 16077 31f4 53       		.byte	0x53
 16078 31f5 920F0000 		.4byte	.LVL804
 16079 31f9 960F0000 		.4byte	.LVL805
 16080 31fd 0100     		.2byte	0x1
 16081 31ff 53       		.byte	0x53
 16082 3200 00000000 		.4byte	0
 16083 3204 00000000 		.4byte	0
 16084              	.LLST199:
 16085 3208 3A0B0000 		.4byte	.LVL696
 16086 320c E40B0000 		.4byte	.LVL713
 16087 3210 0200     		.2byte	0x2
 16088 3212 30       		.byte	0x30
 16089 3213 9F       		.byte	0x9f
 16090 3214 920F0000 		.4byte	.LVL804
 16091 3218 960F0000 		.4byte	.LVL805
 16092 321c 0200     		.2byte	0x2
 16093 321e 30       		.byte	0x30
 16094 321f 9F       		.byte	0x9f
 16095 3220 00000000 		.4byte	0
 16096 3224 00000000 		.4byte	0
 16097              	.LLST200:
 16098 3228 3A0B0000 		.4byte	.LVL696
 16099 322c 780B0000 		.4byte	.LVL700
 16100 3230 0600     		.2byte	0x6
 16101 3232 51       		.byte	0x51
 16102 3233 93       		.byte	0x93
 16103 3234 04       		.uleb128 0x4
 16104 3235 52       		.byte	0x52
 16105 3236 93       		.byte	0x93
 16106 3237 04       		.uleb128 0x4
 16107 3238 780B0000 		.4byte	.LVL700
 16108 323c B60B0000 		.4byte	.LVL708
 16109 3240 0600     		.2byte	0x6
 16110 3242 54       		.byte	0x54
 16111 3243 93       		.byte	0x93
 16112 3244 04       		.uleb128 0x4
 16113 3245 55       		.byte	0x55
 16114 3246 93       		.byte	0x93
 16115 3247 04       		.uleb128 0x4
 16116 3248 C00B0000 		.4byte	.LVL709
 16117 324c CA0B0000 		.4byte	.LVL710
 16118 3250 0600     		.2byte	0x6
 16119 3252 54       		.byte	0x54
 16120 3253 93       		.byte	0x93
 16121 3254 04       		.uleb128 0x4
 16122 3255 55       		.byte	0x55
ARM GAS  C:\Users\pearlstl\AppData\Local\Temp\ccbpFzqf.s 			page 312


 16123 3256 93       		.byte	0x93
 16124 3257 04       		.uleb128 0x4
 16125 3258 920F0000 		.4byte	.LVL804
 16126 325c 960F0000 		.4byte	.LVL805
 16127 3260 0600     		.2byte	0x6
 16128 3262 51       		.byte	0x51
 16129 3263 93       		.byte	0x93
 16130 3264 04       		.uleb128 0x4
 16131 3265 52       		.byte	0x52
 16132 3266 93       		.byte	0x93
 16133 3267 04       		.uleb128 0x4
 16134 3268 00000000 		.4byte	0
 16135 326c 00000000 		.4byte	0
 16136              	.LLST201:
 16137 3270 3A0B0000 		.4byte	.LVL696
 16138 3274 780B0000 		.4byte	.LVL700
 16139 3278 0200     		.2byte	0x2
 16140 327a 30       		.byte	0x30
 16141 327b 9F       		.byte	0x9f
 16142 327c 780B0000 		.4byte	.LVL700
 16143 3280 CE0B0000 		.4byte	.LVL711
 16144 3284 0100     		.2byte	0x1
 16145 3286 58       		.byte	0x58
 16146 3287 CE0B0000 		.4byte	.LVL711
 16147 328b E40B0000 		.4byte	.LVL713
 16148 328f 0100     		.2byte	0x1
 16149 3291 55       		.byte	0x55
 16150 3292 920F0000 		.4byte	.LVL804
 16151 3296 960F0000 		.4byte	.LVL805
 16152 329a 0200     		.2byte	0x2
 16153 329c 30       		.byte	0x30
 16154 329d 9F       		.byte	0x9f
 16155 329e 00000000 		.4byte	0
 16156 32a2 00000000 		.4byte	0
 16157              	.LLST202:
 16158 32a6 940B0000 		.4byte	.LVL703
 16159 32aa 9C0B0000 		.4byte	.LVL704
 16160 32ae 0100     		.2byte	0x1
 16161 32b0 53       		.byte	0x53
 16162 32b1 9C0B0000 		.4byte	.LVL704
 16163 32b5 A00B0000 		.4byte	.LVL705
 16164 32b9 0300     		.2byte	0x3
 16165 32bb 7E       		.byte	0x7e
 16166 32bc 50       		.sleb128 -48
 16167 32bd 9F       		.byte	0x9f
 16168 32be A00B0000 		.4byte	.LVL705
 16169 32c2 AC0B0000 		.4byte	.LVL706
 16170 32c6 0100     		.2byte	0x1
 16171 32c8 52       		.byte	0x52
 16172 32c9 00000000 		.4byte	0
 16173 32cd 00000000 		.4byte	0
 16174              	.LLST203:
 16175 32d1 080C0000 		.4byte	.LVL715
 16176 32d5 480C0000 		.4byte	.LVL718
 16177 32d9 0700     		.2byte	0x7
 16178 32db 7E       		.byte	0x7e
 16179 32dc 00       		.sleb128 0
ARM GAS  C:\Users\pearlstl\AppData\Local\Temp\ccbpFzqf.s 			page 313


 16180 32dd 93       		.byte	0x93
 16181 32de 04       		.uleb128 0x4
 16182 32df 51       		.byte	0x51
 16183 32e0 93       		.byte	0x93
 16184 32e1 04       		.uleb128 0x4
 16185 32e2 020F0000 		.4byte	.LVL787
 16186 32e6 160F0000 		.4byte	.LVL789
 16187 32ea 0700     		.2byte	0x7
 16188 32ec 7E       		.byte	0x7e
 16189 32ed 00       		.sleb128 0
 16190 32ee 93       		.byte	0x93
 16191 32ef 04       		.uleb128 0x4
 16192 32f0 51       		.byte	0x51
 16193 32f1 93       		.byte	0x93
 16194 32f2 04       		.uleb128 0x4
 16195 32f3 3C100000 		.4byte	.LVL831
 16196 32f7 44100000 		.4byte	.LVL832
 16197 32fb 0700     		.2byte	0x7
 16198 32fd 7E       		.byte	0x7e
 16199 32fe 00       		.sleb128 0
 16200 32ff 93       		.byte	0x93
 16201 3300 04       		.uleb128 0x4
 16202 3301 51       		.byte	0x51
 16203 3302 93       		.byte	0x93
 16204 3303 04       		.uleb128 0x4
 16205 3304 00000000 		.4byte	0
 16206 3308 00000000 		.4byte	0
 16207              	.LLST204:
 16208 330c 080F0000 		.4byte	.LVL788
 16209 3310 160F0000 		.4byte	.LVL789
 16210 3314 0100     		.2byte	0x1
 16211 3316 53       		.byte	0x53
 16212 3317 00000000 		.4byte	0
 16213 331b 00000000 		.4byte	0
 16214              	.LLST205:
 16215 331f 160C0000 		.4byte	.LVL716
 16216 3323 B80C0000 		.4byte	.LVL731
 16217 3327 0300     		.2byte	0x3
 16218 3329 91       		.byte	0x91
 16219 332a A87F     		.sleb128 -88
 16220 332c 020F0000 		.4byte	.LVL787
 16221 3330 160F0000 		.4byte	.LVL789
 16222 3334 0300     		.2byte	0x3
 16223 3336 91       		.byte	0x91
 16224 3337 A87F     		.sleb128 -88
 16225 3339 00000000 		.4byte	0
 16226 333d 00000000 		.4byte	0
 16227              	.LLST206:
 16228 3341 480C0000 		.4byte	.LVL718
 16229 3345 860C0000 		.4byte	.LVL726
 16230 3349 0600     		.2byte	0x6
 16231 334b 54       		.byte	0x54
 16232 334c 93       		.byte	0x93
 16233 334d 04       		.uleb128 0x4
 16234 334e 55       		.byte	0x55
 16235 334f 93       		.byte	0x93
 16236 3350 04       		.uleb128 0x4
ARM GAS  C:\Users\pearlstl\AppData\Local\Temp\ccbpFzqf.s 			page 314


 16237 3351 900C0000 		.4byte	.LVL727
 16238 3355 9A0C0000 		.4byte	.LVL728
 16239 3359 0600     		.2byte	0x6
 16240 335b 54       		.byte	0x54
 16241 335c 93       		.byte	0x93
 16242 335d 04       		.uleb128 0x4
 16243 335e 55       		.byte	0x55
 16244 335f 93       		.byte	0x93
 16245 3360 04       		.uleb128 0x4
 16246 3361 00000000 		.4byte	0
 16247 3365 00000000 		.4byte	0
 16248              	.LLST207:
 16249 3369 160C0000 		.4byte	.LVL716
 16250 336d 480C0000 		.4byte	.LVL718
 16251 3371 0200     		.2byte	0x2
 16252 3373 30       		.byte	0x30
 16253 3374 9F       		.byte	0x9f
 16254 3375 480C0000 		.4byte	.LVL718
 16255 3379 9E0C0000 		.4byte	.LVL729
 16256 337d 0100     		.2byte	0x1
 16257 337f 58       		.byte	0x58
 16258 3380 9E0C0000 		.4byte	.LVL729
 16259 3384 B80C0000 		.4byte	.LVL731
 16260 3388 0100     		.2byte	0x1
 16261 338a 55       		.byte	0x55
 16262 338b 020F0000 		.4byte	.LVL787
 16263 338f 160F0000 		.4byte	.LVL789
 16264 3393 0200     		.2byte	0x2
 16265 3395 30       		.byte	0x30
 16266 3396 9F       		.byte	0x9f
 16267 3397 00000000 		.4byte	0
 16268 339b 00000000 		.4byte	0
 16269              	.LLST208:
 16270 339f 640C0000 		.4byte	.LVL721
 16271 33a3 6C0C0000 		.4byte	.LVL722
 16272 33a7 0100     		.2byte	0x1
 16273 33a9 53       		.byte	0x53
 16274 33aa 6C0C0000 		.4byte	.LVL722
 16275 33ae 700C0000 		.4byte	.LVL723
 16276 33b2 0300     		.2byte	0x3
 16277 33b4 7E       		.byte	0x7e
 16278 33b5 50       		.sleb128 -48
 16279 33b6 9F       		.byte	0x9f
 16280 33b7 700C0000 		.4byte	.LVL723
 16281 33bb 7C0C0000 		.4byte	.LVL724
 16282 33bf 0100     		.2byte	0x1
 16283 33c1 52       		.byte	0x52
 16284 33c2 00000000 		.4byte	0
 16285 33c6 00000000 		.4byte	0
 16286              	.LLST209:
 16287 33ca 2C0F0000 		.4byte	.LVL793
 16288 33ce 380F0000 		.4byte	.LVL794
 16289 33d2 0100     		.2byte	0x1
 16290 33d4 52       		.byte	0x52
 16291 33d5 00000000 		.4byte	0
 16292 33d9 00000000 		.4byte	0
 16293              	.LLST210:
ARM GAS  C:\Users\pearlstl\AppData\Local\Temp\ccbpFzqf.s 			page 315


 16294 33dd EE0C0000 		.4byte	.LVL735
 16295 33e1 580D0000 		.4byte	.LVL745
 16296 33e5 0100     		.2byte	0x1
 16297 33e7 57       		.byte	0x57
 16298 33e8 260F0000 		.4byte	.LVL792
 16299 33ec 380F0000 		.4byte	.LVL794
 16300 33f0 0100     		.2byte	0x1
 16301 33f2 57       		.byte	0x57
 16302 33f3 00000000 		.4byte	0
 16303 33f7 00000000 		.4byte	0
 16304              	.LLST211:
 16305 33fb EE0C0000 		.4byte	.LVL735
 16306 33ff 580D0000 		.4byte	.LVL745
 16307 3403 0200     		.2byte	0x2
 16308 3405 30       		.byte	0x30
 16309 3406 9F       		.byte	0x9f
 16310 3407 260F0000 		.4byte	.LVL792
 16311 340b 380F0000 		.4byte	.LVL794
 16312 340f 0200     		.2byte	0x2
 16313 3411 30       		.byte	0x30
 16314 3412 9F       		.byte	0x9f
 16315 3413 00000000 		.4byte	0
 16316 3417 00000000 		.4byte	0
 16317              	.LLST212:
 16318 341b EE0C0000 		.4byte	.LVL735
 16319 341f 080D0000 		.4byte	.LVL736
 16320 3423 0100     		.2byte	0x1
 16321 3425 53       		.byte	0x53
 16322 3426 080D0000 		.4byte	.LVL736
 16323 342a 0C0D0000 		.4byte	.LVL737
 16324 342e 0100     		.2byte	0x1
 16325 3430 50       		.byte	0x50
 16326 3431 0C0D0000 		.4byte	.LVL737
 16327 3435 140D0000 		.4byte	.LVL738
 16328 3439 0100     		.2byte	0x1
 16329 343b 53       		.byte	0x53
 16330 343c 280D0000 		.4byte	.LVL740
 16331 3440 2E0D0000 		.4byte	.LVL741
 16332 3444 0100     		.2byte	0x1
 16333 3446 50       		.byte	0x50
 16334 3447 2E0D0000 		.4byte	.LVL741
 16335 344b 300D0000 		.4byte	.LVL742
 16336 344f 0100     		.2byte	0x1
 16337 3451 53       		.byte	0x53
 16338 3452 260F0000 		.4byte	.LVL792
 16339 3456 380F0000 		.4byte	.LVL794
 16340 345a 0100     		.2byte	0x1
 16341 345c 53       		.byte	0x53
 16342 345d 00000000 		.4byte	0
 16343 3461 00000000 		.4byte	0
 16344              	.LLST213:
 16345 3465 560D0000 		.4byte	.LVL744
 16346 3469 580D0000 		.4byte	.LVL745
 16347 346d 0100     		.2byte	0x1
 16348 346f 50       		.byte	0x50
 16349 3470 00000000 		.4byte	0
 16350 3474 00000000 		.4byte	0
ARM GAS  C:\Users\pearlstl\AppData\Local\Temp\ccbpFzqf.s 			page 316


 16351              	.LLST214:
 16352 3478 EE0C0000 		.4byte	.LVL735
 16353 347c 080D0000 		.4byte	.LVL736
 16354 3480 0200     		.2byte	0x2
 16355 3482 30       		.byte	0x30
 16356 3483 9F       		.byte	0x9f
 16357 3484 080D0000 		.4byte	.LVL736
 16358 3488 4C0D0000 		.4byte	.LVL743
 16359 348c 0100     		.2byte	0x1
 16360 348e 51       		.byte	0x51
 16361 348f 4C0D0000 		.4byte	.LVL743
 16362 3493 550D0000 		.4byte	.LVL744-1
 16363 3497 0300     		.2byte	0x3
 16364 3499 91       		.byte	0x91
 16365 349a EC7E     		.sleb128 -148
 16366 349c 260F0000 		.4byte	.LVL792
 16367 34a0 380F0000 		.4byte	.LVL794
 16368 34a4 0200     		.2byte	0x2
 16369 34a6 30       		.byte	0x30
 16370 34a7 9F       		.byte	0x9f
 16371 34a8 00000000 		.4byte	0
 16372 34ac 00000000 		.4byte	0
 16373              	.LLST215:
 16374 34b0 080D0000 		.4byte	.LVL736
 16375 34b4 0C0D0000 		.4byte	.LVL737
 16376 34b8 0100     		.2byte	0x1
 16377 34ba 52       		.byte	0x52
 16378 34bb 160D0000 		.4byte	.LVL739
 16379 34bf 2E0D0000 		.4byte	.LVL741
 16380 34c3 0100     		.2byte	0x1
 16381 34c5 52       		.byte	0x52
 16382 34c6 00000000 		.4byte	0
 16383 34ca 00000000 		.4byte	0
 16384              	.LLST216:
 16385 34ce 36040000 		.4byte	.LVL483
 16386 34d2 BC040000 		.4byte	.LVL496
 16387 34d6 0100     		.2byte	0x1
 16388 34d8 55       		.byte	0x55
 16389 34d9 30070000 		.4byte	.LVL576
 16390 34dd 58070000 		.4byte	.LVL583
 16391 34e1 0100     		.2byte	0x1
 16392 34e3 55       		.byte	0x55
 16393 34e4 8A070000 		.4byte	.LVL590
 16394 34e8 C4070000 		.4byte	.LVL596
 16395 34ec 0100     		.2byte	0x1
 16396 34ee 55       		.byte	0x55
 16397 34ef C8070000 		.4byte	.LVL598
 16398 34f3 0C080000 		.4byte	.LVL607
 16399 34f7 0100     		.2byte	0x1
 16400 34f9 55       		.byte	0x55
 16401 34fa 3A080000 		.4byte	.LVL618
 16402 34fe DC090000 		.4byte	.LVL658
 16403 3502 0100     		.2byte	0x1
 16404 3504 55       		.byte	0x55
 16405 3505 DC090000 		.4byte	.LVL658
 16406 3509 FC090000 		.4byte	.LVL664
 16407 350d 0300     		.2byte	0x3
ARM GAS  C:\Users\pearlstl\AppData\Local\Temp\ccbpFzqf.s 			page 317


 16408 350f 91       		.byte	0x91
 16409 3510 A07F     		.sleb128 -96
 16410 3512 640A0000 		.4byte	.LVL674
 16411 3516 E20A0000 		.4byte	.LVL687
 16412 351a 0100     		.2byte	0x1
 16413 351c 55       		.byte	0x55
 16414 351d FC0A0000 		.4byte	.LVL693
 16415 3521 1E0B0000 		.4byte	.LVL695
 16416 3525 0100     		.2byte	0x1
 16417 3527 55       		.byte	0x55
 16418 3528 E00C0000 		.4byte	.LVL732
 16419 352c E80C0000 		.4byte	.LVL734
 16420 3530 0100     		.2byte	0x1
 16421 3532 55       		.byte	0x55
 16422 3533 EA0D0000 		.4byte	.LVL762
 16423 3537 020F0000 		.4byte	.LVL787
 16424 353b 0100     		.2byte	0x1
 16425 353d 55       		.byte	0x55
 16426 353e 380F0000 		.4byte	.LVL794
 16427 3542 920F0000 		.4byte	.LVL804
 16428 3546 0100     		.2byte	0x1
 16429 3548 55       		.byte	0x55
 16430 3549 9C0F0000 		.4byte	.LVL806
 16431 354d CA0F0000 		.4byte	.LVL811
 16432 3551 0100     		.2byte	0x1
 16433 3553 55       		.byte	0x55
 16434 3554 E40F0000 		.4byte	.LVL817
 16435 3558 3C100000 		.4byte	.LVL831
 16436 355c 0100     		.2byte	0x1
 16437 355e 55       		.byte	0x55
 16438 355f 44100000 		.4byte	.LVL832
 16439 3563 64100000 		.4byte	.LVL837
 16440 3567 0100     		.2byte	0x1
 16441 3569 55       		.byte	0x55
 16442 356a 7A100000 		.4byte	.LVL838
 16443 356e A0100000 		.4byte	.LFE16
 16444 3572 0100     		.2byte	0x1
 16445 3574 55       		.byte	0x55
 16446 3575 00000000 		.4byte	0
 16447 3579 00000000 		.4byte	0
 16448              	.LLST217:
 16449 357d 6C0F0000 		.4byte	.LVL801
 16450 3581 700F0000 		.4byte	.LVL802
 16451 3585 0300     		.2byte	0x3
 16452 3587 78       		.byte	0x78
 16453 3588 7F       		.sleb128 -1
 16454 3589 9F       		.byte	0x9f
 16455 358a 00000000 		.4byte	0
 16456 358e 00000000 		.4byte	0
 16457              	.LLST218:
 16458 3592 36040000 		.4byte	.LVL483
 16459 3596 39040000 		.4byte	.LVL484-1
 16460 359a 0600     		.2byte	0x6
 16461 359c 50       		.byte	0x50
 16462 359d 93       		.byte	0x93
 16463 359e 04       		.uleb128 0x4
 16464 359f 51       		.byte	0x51
ARM GAS  C:\Users\pearlstl\AppData\Local\Temp\ccbpFzqf.s 			page 318


 16465 35a0 93       		.byte	0x93
 16466 35a1 04       		.uleb128 0x4
 16467 35a2 39040000 		.4byte	.LVL484-1
 16468 35a6 84040000 		.4byte	.LVL488
 16469 35aa 0300     		.2byte	0x3
 16470 35ac 91       		.byte	0x91
 16471 35ad 907F     		.sleb128 -112
 16472 35af 8A070000 		.4byte	.LVL590
 16473 35b3 AA070000 		.4byte	.LVL592
 16474 35b7 0300     		.2byte	0x3
 16475 35b9 91       		.byte	0x91
 16476 35ba 907F     		.sleb128 -112
 16477 35bc C8070000 		.4byte	.LVL598
 16478 35c0 CC070000 		.4byte	.LVL599
 16479 35c4 0300     		.2byte	0x3
 16480 35c6 91       		.byte	0x91
 16481 35c7 907F     		.sleb128 -112
 16482 35c9 3A080000 		.4byte	.LVL618
 16483 35cd 7A080000 		.4byte	.LVL623
 16484 35d1 0300     		.2byte	0x3
 16485 35d3 91       		.byte	0x91
 16486 35d4 907F     		.sleb128 -112
 16487 35d6 640A0000 		.4byte	.LVL674
 16488 35da 880A0000 		.4byte	.LVL676
 16489 35de 0300     		.2byte	0x3
 16490 35e0 91       		.byte	0x91
 16491 35e1 907F     		.sleb128 -112
 16492 35e3 FC0A0000 		.4byte	.LVL693
 16493 35e7 1E0B0000 		.4byte	.LVL695
 16494 35eb 0300     		.2byte	0x3
 16495 35ed 91       		.byte	0x91
 16496 35ee 907F     		.sleb128 -112
 16497 35f0 E00C0000 		.4byte	.LVL732
 16498 35f4 E40C0000 		.4byte	.LVL733
 16499 35f8 0300     		.2byte	0x3
 16500 35fa 91       		.byte	0x91
 16501 35fb 907F     		.sleb128 -112
 16502 35fd B40F0000 		.4byte	.LVL808
 16503 3601 C60F0000 		.4byte	.LVL810
 16504 3605 0300     		.2byte	0x3
 16505 3607 91       		.byte	0x91
 16506 3608 907F     		.sleb128 -112
 16507 360a 00000000 		.4byte	0
 16508 360e 00000000 		.4byte	0
 16509              	.LLST219:
 16510 3612 86070000 		.4byte	.LVL589
 16511 3616 8A070000 		.4byte	.LVL590
 16512 361a 0100     		.2byte	0x1
 16513 361c 57       		.byte	0x57
 16514 361d 22080000 		.4byte	.LVL611
 16515 3621 24080000 		.4byte	.LVL612
 16516 3625 0100     		.2byte	0x1
 16517 3627 52       		.byte	0x52
 16518 3628 220A0000 		.4byte	.LVL670
 16519 362c 260A0000 		.4byte	.LVL672
 16520 3630 0100     		.2byte	0x1
 16521 3632 56       		.byte	0x56
ARM GAS  C:\Users\pearlstl\AppData\Local\Temp\ccbpFzqf.s 			page 319


 16522 3633 F80A0000 		.4byte	.LVL691
 16523 3637 FA0A0000 		.4byte	.LVL692
 16524 363b 0100     		.2byte	0x1
 16525 363d 57       		.byte	0x57
 16526 363e 00000000 		.4byte	0
 16527 3642 00000000 		.4byte	0
 16528              	.LLST220:
 16529 3646 36040000 		.4byte	.LVL483
 16530 364a BC040000 		.4byte	.LVL496
 16531 364e 0200     		.2byte	0x2
 16532 3650 30       		.byte	0x30
 16533 3651 9F       		.byte	0x9f
 16534 3652 30070000 		.4byte	.LVL576
 16535 3656 C4070000 		.4byte	.LVL596
 16536 365a 0200     		.2byte	0x2
 16537 365c 30       		.byte	0x30
 16538 365d 9F       		.byte	0x9f
 16539 365e C8070000 		.4byte	.LVL598
 16540 3662 26080000 		.4byte	.LVL613
 16541 3666 0200     		.2byte	0x2
 16542 3668 30       		.byte	0x30
 16543 3669 9F       		.byte	0x9f
 16544 366a 3A080000 		.4byte	.LVL618
 16545 366e 260A0000 		.4byte	.LVL672
 16546 3672 0200     		.2byte	0x2
 16547 3674 30       		.byte	0x30
 16548 3675 9F       		.byte	0x9f
 16549 3676 640A0000 		.4byte	.LVL674
 16550 367a 1E0B0000 		.4byte	.LVL695
 16551 367e 0200     		.2byte	0x2
 16552 3680 30       		.byte	0x30
 16553 3681 9F       		.byte	0x9f
 16554 3682 E00C0000 		.4byte	.LVL732
 16555 3686 E80C0000 		.4byte	.LVL734
 16556 368a 0200     		.2byte	0x2
 16557 368c 30       		.byte	0x30
 16558 368d 9F       		.byte	0x9f
 16559 368e EA0D0000 		.4byte	.LVL762
 16560 3692 020F0000 		.4byte	.LVL787
 16561 3696 0200     		.2byte	0x2
 16562 3698 30       		.byte	0x30
 16563 3699 9F       		.byte	0x9f
 16564 369a 380F0000 		.4byte	.LVL794
 16565 369e 920F0000 		.4byte	.LVL804
 16566 36a2 0200     		.2byte	0x2
 16567 36a4 30       		.byte	0x30
 16568 36a5 9F       		.byte	0x9f
 16569 36a6 9C0F0000 		.4byte	.LVL806
 16570 36aa CA0F0000 		.4byte	.LVL811
 16571 36ae 0200     		.2byte	0x2
 16572 36b0 30       		.byte	0x30
 16573 36b1 9F       		.byte	0x9f
 16574 36b2 E40F0000 		.4byte	.LVL817
 16575 36b6 3C100000 		.4byte	.LVL831
 16576 36ba 0200     		.2byte	0x2
 16577 36bc 30       		.byte	0x30
 16578 36bd 9F       		.byte	0x9f
ARM GAS  C:\Users\pearlstl\AppData\Local\Temp\ccbpFzqf.s 			page 320


 16579 36be 44100000 		.4byte	.LVL832
 16580 36c2 64100000 		.4byte	.LVL837
 16581 36c6 0200     		.2byte	0x2
 16582 36c8 30       		.byte	0x30
 16583 36c9 9F       		.byte	0x9f
 16584 36ca 7A100000 		.4byte	.LVL838
 16585 36ce A0100000 		.4byte	.LFE16
 16586 36d2 0200     		.2byte	0x2
 16587 36d4 30       		.byte	0x30
 16588 36d5 9F       		.byte	0x9f
 16589 36d6 00000000 		.4byte	0
 16590 36da 00000000 		.4byte	0
 16591              	.LLST221:
 16592 36de 36040000 		.4byte	.LVL483
 16593 36e2 BC040000 		.4byte	.LVL496
 16594 36e6 0A00     		.2byte	0xa
 16595 36e8 9E       		.byte	0x9e
 16596 36e9 08       		.uleb128 0x8
 16597 36ea 00000000 		.4byte	0
 16598 36ee 00000000 		.4byte	0
 16599 36f2 30070000 		.4byte	.LVL576
 16600 36f6 C4070000 		.4byte	.LVL596
 16601 36fa 0A00     		.2byte	0xa
 16602 36fc 9E       		.byte	0x9e
 16603 36fd 08       		.uleb128 0x8
 16604 36fe 00000000 		.4byte	0
 16605 3702 00000000 		.4byte	0
 16606 3706 C8070000 		.4byte	.LVL598
 16607 370a 26080000 		.4byte	.LVL613
 16608 370e 0A00     		.2byte	0xa
 16609 3710 9E       		.byte	0x9e
 16610 3711 08       		.uleb128 0x8
 16611 3712 00000000 		.4byte	0
 16612 3716 00000000 		.4byte	0
 16613 371a 3A080000 		.4byte	.LVL618
 16614 371e 260A0000 		.4byte	.LVL672
 16615 3722 0A00     		.2byte	0xa
 16616 3724 9E       		.byte	0x9e
 16617 3725 08       		.uleb128 0x8
 16618 3726 00000000 		.4byte	0
 16619 372a 00000000 		.4byte	0
 16620 372e 640A0000 		.4byte	.LVL674
 16621 3732 1E0B0000 		.4byte	.LVL695
 16622 3736 0A00     		.2byte	0xa
 16623 3738 9E       		.byte	0x9e
 16624 3739 08       		.uleb128 0x8
 16625 373a 00000000 		.4byte	0
 16626 373e 00000000 		.4byte	0
 16627 3742 E00C0000 		.4byte	.LVL732
 16628 3746 E80C0000 		.4byte	.LVL734
 16629 374a 0A00     		.2byte	0xa
 16630 374c 9E       		.byte	0x9e
 16631 374d 08       		.uleb128 0x8
 16632 374e 00000000 		.4byte	0
 16633 3752 00000000 		.4byte	0
 16634 3756 EA0D0000 		.4byte	.LVL762
 16635 375a 020F0000 		.4byte	.LVL787
ARM GAS  C:\Users\pearlstl\AppData\Local\Temp\ccbpFzqf.s 			page 321


 16636 375e 0A00     		.2byte	0xa
 16637 3760 9E       		.byte	0x9e
 16638 3761 08       		.uleb128 0x8
 16639 3762 00000000 		.4byte	0
 16640 3766 00000000 		.4byte	0
 16641 376a 380F0000 		.4byte	.LVL794
 16642 376e 920F0000 		.4byte	.LVL804
 16643 3772 0A00     		.2byte	0xa
 16644 3774 9E       		.byte	0x9e
 16645 3775 08       		.uleb128 0x8
 16646 3776 00000000 		.4byte	0
 16647 377a 00000000 		.4byte	0
 16648 377e 9C0F0000 		.4byte	.LVL806
 16649 3782 CA0F0000 		.4byte	.LVL811
 16650 3786 0A00     		.2byte	0xa
 16651 3788 9E       		.byte	0x9e
 16652 3789 08       		.uleb128 0x8
 16653 378a 00000000 		.4byte	0
 16654 378e 00000000 		.4byte	0
 16655 3792 E40F0000 		.4byte	.LVL817
 16656 3796 3C100000 		.4byte	.LVL831
 16657 379a 0A00     		.2byte	0xa
 16658 379c 9E       		.byte	0x9e
 16659 379d 08       		.uleb128 0x8
 16660 379e 00000000 		.4byte	0
 16661 37a2 00000000 		.4byte	0
 16662 37a6 44100000 		.4byte	.LVL832
 16663 37aa 64100000 		.4byte	.LVL837
 16664 37ae 0A00     		.2byte	0xa
 16665 37b0 9E       		.byte	0x9e
 16666 37b1 08       		.uleb128 0x8
 16667 37b2 00000000 		.4byte	0
 16668 37b6 00000000 		.4byte	0
 16669 37ba 7A100000 		.4byte	.LVL838
 16670 37be A0100000 		.4byte	.LFE16
 16671 37c2 0A00     		.2byte	0xa
 16672 37c4 9E       		.byte	0x9e
 16673 37c5 08       		.uleb128 0x8
 16674 37c6 00000000 		.4byte	0
 16675 37ca 00000000 		.4byte	0
 16676 37ce 00000000 		.4byte	0
 16677 37d2 00000000 		.4byte	0
 16678              	.LLST222:
 16679 37d6 56040000 		.4byte	.LVL486
 16680 37da BC040000 		.4byte	.LVL496
 16681 37de 0100     		.2byte	0x1
 16682 37e0 55       		.byte	0x55
 16683 37e1 30070000 		.4byte	.LVL576
 16684 37e5 58070000 		.4byte	.LVL583
 16685 37e9 0100     		.2byte	0x1
 16686 37eb 55       		.byte	0x55
 16687 37ec 3A080000 		.4byte	.LVL618
 16688 37f0 DC090000 		.4byte	.LVL658
 16689 37f4 0100     		.2byte	0x1
 16690 37f6 55       		.byte	0x55
 16691 37f7 DC090000 		.4byte	.LVL658
 16692 37fb FC090000 		.4byte	.LVL664
ARM GAS  C:\Users\pearlstl\AppData\Local\Temp\ccbpFzqf.s 			page 322


 16693 37ff 0300     		.2byte	0x3
 16694 3801 91       		.byte	0x91
 16695 3802 A07F     		.sleb128 -96
 16696 3804 FC0A0000 		.4byte	.LVL693
 16697 3808 1E0B0000 		.4byte	.LVL695
 16698 380c 0100     		.2byte	0x1
 16699 380e 55       		.byte	0x55
 16700 380f EA0D0000 		.4byte	.LVL762
 16701 3813 020F0000 		.4byte	.LVL787
 16702 3817 0100     		.2byte	0x1
 16703 3819 55       		.byte	0x55
 16704 381a 380F0000 		.4byte	.LVL794
 16705 381e 920F0000 		.4byte	.LVL804
 16706 3822 0100     		.2byte	0x1
 16707 3824 55       		.byte	0x55
 16708 3825 9C0F0000 		.4byte	.LVL806
 16709 3829 CA0F0000 		.4byte	.LVL811
 16710 382d 0100     		.2byte	0x1
 16711 382f 55       		.byte	0x55
 16712 3830 E40F0000 		.4byte	.LVL817
 16713 3834 3C100000 		.4byte	.LVL831
 16714 3838 0100     		.2byte	0x1
 16715 383a 55       		.byte	0x55
 16716 383b 44100000 		.4byte	.LVL832
 16717 383f 64100000 		.4byte	.LVL837
 16718 3843 0100     		.2byte	0x1
 16719 3845 55       		.byte	0x55
 16720 3846 7A100000 		.4byte	.LVL838
 16721 384a A0100000 		.4byte	.LFE16
 16722 384e 0100     		.2byte	0x1
 16723 3850 55       		.byte	0x55
 16724 3851 00000000 		.4byte	0
 16725 3855 00000000 		.4byte	0
 16726              	.LLST224:
 16727 3859 C80E0000 		.4byte	.LVL780
 16728 385d 020F0000 		.4byte	.LVL787
 16729 3861 0100     		.2byte	0x1
 16730 3863 50       		.byte	0x50
 16731 3864 9C0F0000 		.4byte	.LVL806
 16732 3868 B40F0000 		.4byte	.LVL808
 16733 386c 0100     		.2byte	0x1
 16734 386e 50       		.byte	0x50
 16735 386f 00000000 		.4byte	0
 16736 3873 00000000 		.4byte	0
 16737              	.LLST225:
 16738 3877 56040000 		.4byte	.LVL486
 16739 387b 84040000 		.4byte	.LVL488
 16740 387f 0300     		.2byte	0x3
 16741 3881 91       		.byte	0x91
 16742 3882 907F     		.sleb128 -112
 16743 3884 3A080000 		.4byte	.LVL618
 16744 3888 90080000 		.4byte	.LVL624
 16745 388c 0300     		.2byte	0x3
 16746 388e 91       		.byte	0x91
 16747 388f 907F     		.sleb128 -112
 16748 3891 FC0A0000 		.4byte	.LVL693
 16749 3895 1E0B0000 		.4byte	.LVL695
ARM GAS  C:\Users\pearlstl\AppData\Local\Temp\ccbpFzqf.s 			page 323


 16750 3899 0300     		.2byte	0x3
 16751 389b 91       		.byte	0x91
 16752 389c 907F     		.sleb128 -112
 16753 389e B60E0000 		.4byte	.LVL778
 16754 38a2 FC0E0000 		.4byte	.LVL786
 16755 38a6 0300     		.2byte	0x3
 16756 38a8 91       		.byte	0x91
 16757 38a9 907F     		.sleb128 -112
 16758 38ab 9C0F0000 		.4byte	.LVL806
 16759 38af AC0F0000 		.4byte	.LVL807
 16760 38b3 0300     		.2byte	0x3
 16761 38b5 91       		.byte	0x91
 16762 38b6 907F     		.sleb128 -112
 16763 38b8 B40F0000 		.4byte	.LVL808
 16764 38bc C60F0000 		.4byte	.LVL810
 16765 38c0 0300     		.2byte	0x3
 16766 38c2 91       		.byte	0x91
 16767 38c3 907F     		.sleb128 -112
 16768 38c5 C60F0000 		.4byte	.LVL810
 16769 38c9 CA0F0000 		.4byte	.LVL811
 16770 38cd 0600     		.2byte	0x6
 16771 38cf 50       		.byte	0x50
 16772 38d0 93       		.byte	0x93
 16773 38d1 04       		.uleb128 0x4
 16774 38d2 51       		.byte	0x51
 16775 38d3 93       		.byte	0x93
 16776 38d4 04       		.uleb128 0x4
 16777 38d5 7A100000 		.4byte	.LVL838
 16778 38d9 A0100000 		.4byte	.LFE16
 16779 38dd 0300     		.2byte	0x3
 16780 38df 91       		.byte	0x91
 16781 38e0 907F     		.sleb128 -112
 16782 38e2 00000000 		.4byte	0
 16783 38e6 00000000 		.4byte	0
 16784              	.LLST226:
 16785 38ea 86070000 		.4byte	.LVL589
 16786 38ee 8A070000 		.4byte	.LVL590
 16787 38f2 0100     		.2byte	0x1
 16788 38f4 57       		.byte	0x57
 16789 38f5 220A0000 		.4byte	.LVL670
 16790 38f9 240A0000 		.4byte	.LVL671
 16791 38fd 0100     		.2byte	0x1
 16792 38ff 56       		.byte	0x56
 16793 3900 00000000 		.4byte	0
 16794 3904 00000000 		.4byte	0
 16795              	.LLST227:
 16796 3908 30090000 		.4byte	.LVL645
 16797 390c 5C090000 		.4byte	.LVL646
 16798 3910 0100     		.2byte	0x1
 16799 3912 59       		.byte	0x59
 16800 3913 5C090000 		.4byte	.LVL646
 16801 3917 B2090000 		.4byte	.LVL653
 16802 391b 0100     		.2byte	0x1
 16803 391d 57       		.byte	0x57
 16804 391e B8090000 		.4byte	.LVL654
 16805 3922 BE090000 		.4byte	.LVL655
 16806 3926 0100     		.2byte	0x1
ARM GAS  C:\Users\pearlstl\AppData\Local\Temp\ccbpFzqf.s 			page 324


 16807 3928 57       		.byte	0x57
 16808 3929 EA0D0000 		.4byte	.LVL762
 16809 392d 160E0000 		.4byte	.LVL764
 16810 3931 0100     		.2byte	0x1
 16811 3933 59       		.byte	0x59
 16812 3934 160E0000 		.4byte	.LVL764
 16813 3938 480E0000 		.4byte	.LVL768
 16814 393c 0100     		.2byte	0x1
 16815 393e 51       		.byte	0x51
 16816 393f 480E0000 		.4byte	.LVL768
 16817 3943 5A0E0000 		.4byte	.LVL770
 16818 3947 0300     		.2byte	0x3
 16819 3949 08       		.byte	0x8
 16820 394a 20       		.byte	0x20
 16821 394b 9F       		.byte	0x9f
 16822 394c B60E0000 		.4byte	.LVL778
 16823 3950 BE0E0000 		.4byte	.LVL779
 16824 3954 0200     		.2byte	0x2
 16825 3956 30       		.byte	0x30
 16826 3957 9F       		.byte	0x9f
 16827 3958 BE0E0000 		.4byte	.LVL779
 16828 395c D80E0000 		.4byte	.LVL781
 16829 3960 0200     		.2byte	0x2
 16830 3962 31       		.byte	0x31
 16831 3963 9F       		.byte	0x9f
 16832 3964 D80E0000 		.4byte	.LVL781
 16833 3968 EE0E0000 		.4byte	.LVL785
 16834 396c 0100     		.2byte	0x1
 16835 396e 53       		.byte	0x53
 16836 396f 580F0000 		.4byte	.LVL799
 16837 3973 620F0000 		.4byte	.LVL800
 16838 3977 0300     		.2byte	0x3
 16839 3979 08       		.byte	0x8
 16840 397a 20       		.byte	0x20
 16841 397b 9F       		.byte	0x9f
 16842 397c 700F0000 		.4byte	.LVL802
 16843 3980 920F0000 		.4byte	.LVL804
 16844 3984 0100     		.2byte	0x1
 16845 3986 57       		.byte	0x57
 16846 3987 9C0F0000 		.4byte	.LVL806
 16847 398b B40F0000 		.4byte	.LVL808
 16848 398f 0100     		.2byte	0x1
 16849 3991 53       		.byte	0x53
 16850 3992 E40F0000 		.4byte	.LVL817
 16851 3996 F60F0000 		.4byte	.LVL819
 16852 399a 0100     		.2byte	0x1
 16853 399c 57       		.byte	0x57
 16854 399d F60F0000 		.4byte	.LVL819
 16855 39a1 20100000 		.4byte	.LVL826
 16856 39a5 0100     		.2byte	0x1
 16857 39a7 51       		.byte	0x51
 16858 39a8 20100000 		.4byte	.LVL826
 16859 39ac 26100000 		.4byte	.LVL827
 16860 39b0 0100     		.2byte	0x1
 16861 39b2 59       		.byte	0x59
 16862 39b3 26100000 		.4byte	.LVL827
 16863 39b7 2E100000 		.4byte	.LVL829
ARM GAS  C:\Users\pearlstl\AppData\Local\Temp\ccbpFzqf.s 			page 325


 16864 39bb 0300     		.2byte	0x3
 16865 39bd 08       		.byte	0x8
 16866 39be 20       		.byte	0x20
 16867 39bf 9F       		.byte	0x9f
 16868 39c0 2E100000 		.4byte	.LVL829
 16869 39c4 3C100000 		.4byte	.LVL831
 16870 39c8 0100     		.2byte	0x1
 16871 39ca 57       		.byte	0x57
 16872 39cb 44100000 		.4byte	.LVL832
 16873 39cf 62100000 		.4byte	.LVL836
 16874 39d3 0100     		.2byte	0x1
 16875 39d5 57       		.byte	0x57
 16876 39d6 7A100000 		.4byte	.LVL838
 16877 39da A0100000 		.4byte	.LFE16
 16878 39de 0200     		.2byte	0x2
 16879 39e0 30       		.byte	0x30
 16880 39e1 9F       		.byte	0x9f
 16881 39e2 00000000 		.4byte	0
 16882 39e6 00000000 		.4byte	0
 16883              	.LLST228:
 16884 39ea D4080000 		.4byte	.LVL635
 16885 39ee D7080000 		.4byte	.LVL636-1
 16886 39f2 0600     		.2byte	0x6
 16887 39f4 50       		.byte	0x50
 16888 39f5 93       		.byte	0x93
 16889 39f6 04       		.uleb128 0x4
 16890 39f7 51       		.byte	0x51
 16891 39f8 93       		.byte	0x93
 16892 39f9 04       		.uleb128 0x4
 16893 39fa D7080000 		.4byte	.LVL636-1
 16894 39fe 1A090000 		.4byte	.LVL643
 16895 3a02 0300     		.2byte	0x3
 16896 3a04 91       		.byte	0x91
 16897 3a05 B07F     		.sleb128 -80
 16898 3a07 1A090000 		.4byte	.LVL643
 16899 3a0b 30090000 		.4byte	.LVL645
 16900 3a0f 0600     		.2byte	0x6
 16901 3a11 56       		.byte	0x56
 16902 3a12 93       		.byte	0x93
 16903 3a13 04       		.uleb128 0x4
 16904 3a14 57       		.byte	0x57
 16905 3a15 93       		.byte	0x93
 16906 3a16 04       		.uleb128 0x4
 16907 3a17 EA0D0000 		.4byte	.LVL762
 16908 3a1b 480E0000 		.4byte	.LVL768
 16909 3a1f 0300     		.2byte	0x3
 16910 3a21 91       		.byte	0x91
 16911 3a22 B07F     		.sleb128 -80
 16912 3a24 940E0000 		.4byte	.LVL775
 16913 3a28 B60E0000 		.4byte	.LVL778
 16914 3a2c 0300     		.2byte	0x3
 16915 3a2e 91       		.byte	0x91
 16916 3a2f B07F     		.sleb128 -80
 16917 3a31 380F0000 		.4byte	.LVL794
 16918 3a35 4C0F0000 		.4byte	.LVL796
 16919 3a39 0600     		.2byte	0x6
 16920 3a3b 56       		.byte	0x56
ARM GAS  C:\Users\pearlstl\AppData\Local\Temp\ccbpFzqf.s 			page 326


 16921 3a3c 93       		.byte	0x93
 16922 3a3d 04       		.uleb128 0x4
 16923 3a3e 57       		.byte	0x57
 16924 3a3f 93       		.byte	0x93
 16925 3a40 04       		.uleb128 0x4
 16926 3a41 4C0F0000 		.4byte	.LVL796
 16927 3a45 580F0000 		.4byte	.LVL799
 16928 3a49 0300     		.2byte	0x3
 16929 3a4b 91       		.byte	0x91
 16930 3a4c B07F     		.sleb128 -80
 16931 3a4e F60F0000 		.4byte	.LVL819
 16932 3a52 26100000 		.4byte	.LVL827
 16933 3a56 0300     		.2byte	0x3
 16934 3a58 91       		.byte	0x91
 16935 3a59 B07F     		.sleb128 -80
 16936 3a5b 00000000 		.4byte	0
 16937 3a5f 00000000 		.4byte	0
 16938              	.LLST229:
 16939 3a63 66080000 		.4byte	.LVL621
 16940 3a67 7A080000 		.4byte	.LVL623
 16941 3a6b 0200     		.2byte	0x2
 16942 3a6d 30       		.byte	0x30
 16943 3a6e 9F       		.byte	0x9f
 16944 3a6f 7A080000 		.4byte	.LVL623
 16945 3a73 220A0000 		.4byte	.LVL670
 16946 3a77 0300     		.2byte	0x3
 16947 3a79 91       		.byte	0x91
 16948 3a7a A87F     		.sleb128 -88
 16949 3a7c EA0D0000 		.4byte	.LVL762
 16950 3a80 020F0000 		.4byte	.LVL787
 16951 3a84 0300     		.2byte	0x3
 16952 3a86 91       		.byte	0x91
 16953 3a87 A87F     		.sleb128 -88
 16954 3a89 380F0000 		.4byte	.LVL794
 16955 3a8d 920F0000 		.4byte	.LVL804
 16956 3a91 0300     		.2byte	0x3
 16957 3a93 91       		.byte	0x91
 16958 3a94 A87F     		.sleb128 -88
 16959 3a96 9C0F0000 		.4byte	.LVL806
 16960 3a9a B40F0000 		.4byte	.LVL808
 16961 3a9e 0300     		.2byte	0x3
 16962 3aa0 91       		.byte	0x91
 16963 3aa1 A87F     		.sleb128 -88
 16964 3aa3 B40F0000 		.4byte	.LVL808
 16965 3aa7 CA0F0000 		.4byte	.LVL811
 16966 3aab 0200     		.2byte	0x2
 16967 3aad 31       		.byte	0x31
 16968 3aae 9F       		.byte	0x9f
 16969 3aaf E40F0000 		.4byte	.LVL817
 16970 3ab3 3C100000 		.4byte	.LVL831
 16971 3ab7 0300     		.2byte	0x3
 16972 3ab9 91       		.byte	0x91
 16973 3aba A87F     		.sleb128 -88
 16974 3abc 44100000 		.4byte	.LVL832
 16975 3ac0 64100000 		.4byte	.LVL837
 16976 3ac4 0300     		.2byte	0x3
 16977 3ac6 91       		.byte	0x91
ARM GAS  C:\Users\pearlstl\AppData\Local\Temp\ccbpFzqf.s 			page 327


 16978 3ac7 A87F     		.sleb128 -88
 16979 3ac9 7A100000 		.4byte	.LVL838
 16980 3acd A0100000 		.4byte	.LFE16
 16981 3ad1 0300     		.2byte	0x3
 16982 3ad3 91       		.byte	0x91
 16983 3ad4 A87F     		.sleb128 -88
 16984 3ad6 00000000 		.4byte	0
 16985 3ada 00000000 		.4byte	0
 16986              	.LLST230:
 16987 3ade 98080000 		.4byte	.LVL625
 16988 3ae2 9A080000 		.4byte	.LVL626
 16989 3ae6 0300     		.2byte	0x3
 16990 3ae8 91       		.byte	0x91
 16991 3ae9 A07F     		.sleb128 -96
 16992 3aeb F8080000 		.4byte	.LVL640
 16993 3aef 5C090000 		.4byte	.LVL646
 16994 3af3 0300     		.2byte	0x3
 16995 3af5 91       		.byte	0x91
 16996 3af6 A07F     		.sleb128 -96
 16997 3af8 5C090000 		.4byte	.LVL646
 16998 3afc 74090000 		.4byte	.LVL647
 16999 3b00 0100     		.2byte	0x1
 17000 3b02 52       		.byte	0x52
 17001 3b03 84090000 		.4byte	.LVL648
 17002 3b07 8A090000 		.4byte	.LVL649
 17003 3b0b 0100     		.2byte	0x1
 17004 3b0d 53       		.byte	0x53
 17005 3b0e 8A090000 		.4byte	.LVL649
 17006 3b12 98090000 		.4byte	.LVL650
 17007 3b16 0100     		.2byte	0x1
 17008 3b18 52       		.byte	0x52
 17009 3b19 EA0D0000 		.4byte	.LVL762
 17010 3b1d 480E0000 		.4byte	.LVL768
 17011 3b21 0300     		.2byte	0x3
 17012 3b23 91       		.byte	0x91
 17013 3b24 A07F     		.sleb128 -96
 17014 3b26 380F0000 		.4byte	.LVL794
 17015 3b2a 4C0F0000 		.4byte	.LVL796
 17016 3b2e 0300     		.2byte	0x3
 17017 3b30 91       		.byte	0x91
 17018 3b31 A07F     		.sleb128 -96
 17019 3b33 520F0000 		.4byte	.LVL797
 17020 3b37 540F0000 		.4byte	.LVL798
 17021 3b3b 0100     		.2byte	0x1
 17022 3b3d 53       		.byte	0x53
 17023 3b3e 540F0000 		.4byte	.LVL798
 17024 3b42 580F0000 		.4byte	.LVL799
 17025 3b46 0300     		.2byte	0x3
 17026 3b48 91       		.byte	0x91
 17027 3b49 A07F     		.sleb128 -96
 17028 3b4b F60F0000 		.4byte	.LVL819
 17029 3b4f 26100000 		.4byte	.LVL827
 17030 3b53 0300     		.2byte	0x3
 17031 3b55 91       		.byte	0x91
 17032 3b56 A07F     		.sleb128 -96
 17033 3b58 58100000 		.4byte	.LVL834
 17034 3b5c 60100000 		.4byte	.LVL835
ARM GAS  C:\Users\pearlstl\AppData\Local\Temp\ccbpFzqf.s 			page 328


 17035 3b60 0100     		.2byte	0x1
 17036 3b62 52       		.byte	0x52
 17037 3b63 00000000 		.4byte	0
 17038 3b67 00000000 		.4byte	0
 17039              	.LLST231:
 17040 3b6b B2080000 		.4byte	.LVL629
 17041 3b6f B6080000 		.4byte	.LVL630
 17042 3b73 0300     		.2byte	0x3
 17043 3b75 91       		.byte	0x91
 17044 3b76 B07F     		.sleb128 -80
 17045 3b78 00000000 		.4byte	0
 17046 3b7c 00000000 		.4byte	0
 17047              	.LLST232:
 17048 3b80 BA080000 		.4byte	.LVL631
 17049 3b84 BC080000 		.4byte	.LVL632
 17050 3b88 0300     		.2byte	0x3
 17051 3b8a 91       		.byte	0x91
 17052 3b8b 9C7F     		.sleb128 -100
 17053 3b8d E6080000 		.4byte	.LVL637
 17054 3b91 E9080000 		.4byte	.LVL638-1
 17055 3b95 0100     		.2byte	0x1
 17056 3b97 50       		.byte	0x50
 17057 3b98 E9080000 		.4byte	.LVL638-1
 17058 3b9c 30090000 		.4byte	.LVL645
 17059 3ba0 0300     		.2byte	0x3
 17060 3ba2 91       		.byte	0x91
 17061 3ba3 9C7F     		.sleb128 -100
 17062 3ba5 EA0D0000 		.4byte	.LVL762
 17063 3ba9 160E0000 		.4byte	.LVL764
 17064 3bad 0300     		.2byte	0x3
 17065 3baf 91       		.byte	0x91
 17066 3bb0 9C7F     		.sleb128 -100
 17067 3bb2 160E0000 		.4byte	.LVL764
 17068 3bb6 260E0000 		.4byte	.LVL766
 17069 3bba 0100     		.2byte	0x1
 17070 3bbc 52       		.byte	0x52
 17071 3bbd 260E0000 		.4byte	.LVL766
 17072 3bc1 320E0000 		.4byte	.LVL767
 17073 3bc5 0100     		.2byte	0x1
 17074 3bc7 50       		.byte	0x50
 17075 3bc8 320E0000 		.4byte	.LVL767
 17076 3bcc 480E0000 		.4byte	.LVL768
 17077 3bd0 0100     		.2byte	0x1
 17078 3bd2 52       		.byte	0x52
 17079 3bd3 B40E0000 		.4byte	.LVL777
 17080 3bd7 B60E0000 		.4byte	.LVL778
 17081 3bdb 0100     		.2byte	0x1
 17082 3bdd 53       		.byte	0x53
 17083 3bde 380F0000 		.4byte	.LVL794
 17084 3be2 4C0F0000 		.4byte	.LVL796
 17085 3be6 0300     		.2byte	0x3
 17086 3be8 91       		.byte	0x91
 17087 3be9 9C7F     		.sleb128 -100
 17088 3beb 4C0F0000 		.4byte	.LVL796
 17089 3bef 580F0000 		.4byte	.LVL799
 17090 3bf3 0200     		.2byte	0x2
 17091 3bf5 30       		.byte	0x30
ARM GAS  C:\Users\pearlstl\AppData\Local\Temp\ccbpFzqf.s 			page 329


 17092 3bf6 9F       		.byte	0x9f
 17093 3bf7 F60F0000 		.4byte	.LVL819
 17094 3bfb 06100000 		.4byte	.LVL821
 17095 3bff 0100     		.2byte	0x1
 17096 3c01 52       		.byte	0x52
 17097 3c02 00000000 		.4byte	0
 17098 3c06 00000000 		.4byte	0
 17099              	.LLST233:
 17100 3c0a 84040000 		.4byte	.LVL488
 17101 3c0e BC040000 		.4byte	.LVL496
 17102 3c12 0100     		.2byte	0x1
 17103 3c14 55       		.byte	0x55
 17104 3c15 30070000 		.4byte	.LVL576
 17105 3c19 58070000 		.4byte	.LVL583
 17106 3c1d 0100     		.2byte	0x1
 17107 3c1f 55       		.byte	0x55
 17108 3c20 00000000 		.4byte	0
 17109 3c24 00000000 		.4byte	0
 17110              	.LLST234:
 17111 3c28 84040000 		.4byte	.LVL488
 17112 3c2c 94040000 		.4byte	.LVL490
 17113 3c30 0100     		.2byte	0x1
 17114 3c32 52       		.byte	0x52
 17115 3c33 94040000 		.4byte	.LVL490
 17116 3c37 A2040000 		.4byte	.LVL491
 17117 3c3b 0100     		.2byte	0x1
 17118 3c3d 53       		.byte	0x53
 17119 3c3e A2040000 		.4byte	.LVL491
 17120 3c42 BC040000 		.4byte	.LVL496
 17121 3c46 0300     		.2byte	0x3
 17122 3c48 91       		.byte	0x91
 17123 3c49 907F     		.sleb128 -112
 17124 3c4b 30070000 		.4byte	.LVL576
 17125 3c4f 32070000 		.4byte	.LVL577
 17126 3c53 0100     		.2byte	0x1
 17127 3c55 52       		.byte	0x52
 17128 3c56 32070000 		.4byte	.LVL577
 17129 3c5a 36070000 		.4byte	.LVL578
 17130 3c5e 0300     		.2byte	0x3
 17131 3c60 91       		.byte	0x91
 17132 3c61 907F     		.sleb128 -112
 17133 3c63 00000000 		.4byte	0
 17134 3c67 00000000 		.4byte	0
 17135              	.LLST235:
 17136 3c6b A2040000 		.4byte	.LVL491
 17137 3c6f A4040000 		.4byte	.LVL492
 17138 3c73 0100     		.2byte	0x1
 17139 3c75 52       		.byte	0x52
 17140 3c76 A4040000 		.4byte	.LVL492
 17141 3c7a B8040000 		.4byte	.LVL494
 17142 3c7e 0100     		.2byte	0x1
 17143 3c80 54       		.byte	0x54
 17144 3c81 B8040000 		.4byte	.LVL494
 17145 3c85 BA040000 		.4byte	.LVL495
 17146 3c89 0100     		.2byte	0x1
 17147 3c8b 52       		.byte	0x52
 17148 3c8c 32070000 		.4byte	.LVL577
ARM GAS  C:\Users\pearlstl\AppData\Local\Temp\ccbpFzqf.s 			page 330


 17149 3c90 44070000 		.4byte	.LVL580
 17150 3c94 0100     		.2byte	0x1
 17151 3c96 56       		.byte	0x56
 17152 3c97 44070000 		.4byte	.LVL580
 17153 3c9b 50070000 		.4byte	.LVL581
 17154 3c9f 0100     		.2byte	0x1
 17155 3ca1 51       		.byte	0x51
 17156 3ca2 50070000 		.4byte	.LVL581
 17157 3ca6 62070000 		.4byte	.LVL584
 17158 3caa 0100     		.2byte	0x1
 17159 3cac 56       		.byte	0x56
 17160 3cad 62070000 		.4byte	.LVL584
 17161 3cb1 72070000 		.4byte	.LVL586
 17162 3cb5 0100     		.2byte	0x1
 17163 3cb7 57       		.byte	0x57
 17164 3cb8 72070000 		.4byte	.LVL586
 17165 3cbc 7C070000 		.4byte	.LVL587
 17166 3cc0 0100     		.2byte	0x1
 17167 3cc2 51       		.byte	0x51
 17168 3cc3 7C070000 		.4byte	.LVL587
 17169 3cc7 8A070000 		.4byte	.LVL590
 17170 3ccb 0100     		.2byte	0x1
 17171 3ccd 57       		.byte	0x57
 17172 3cce 00000000 		.4byte	0
 17173 3cd2 00000000 		.4byte	0
 17174              	.LLST236:
 17175 3cd6 86070000 		.4byte	.LVL589
 17176 3cda 8A070000 		.4byte	.LVL590
 17177 3cde 0100     		.2byte	0x1
 17178 3ce0 57       		.byte	0x57
 17179 3ce1 00000000 		.4byte	0
 17180 3ce5 00000000 		.4byte	0
 17181              	.LLST237:
 17182 3ce9 88040000 		.4byte	.LVL489
 17183 3ced 94040000 		.4byte	.LVL490
 17184 3cf1 0100     		.2byte	0x1
 17185 3cf3 52       		.byte	0x52
 17186 3cf4 94040000 		.4byte	.LVL490
 17187 3cf8 A2040000 		.4byte	.LVL491
 17188 3cfc 0100     		.2byte	0x1
 17189 3cfe 53       		.byte	0x53
 17190 3cff 00000000 		.4byte	0
 17191 3d03 00000000 		.4byte	0
 17192              	.LLST238:
 17193 3d07 AC090000 		.4byte	.LVL652
 17194 3d0b B2090000 		.4byte	.LVL653
 17195 3d0f 0100     		.2byte	0x1
 17196 3d11 55       		.byte	0x55
 17197 3d12 B8090000 		.4byte	.LVL654
 17198 3d16 C4090000 		.4byte	.LVL657
 17199 3d1a 0100     		.2byte	0x1
 17200 3d1c 55       		.byte	0x55
 17201 3d1d 520E0000 		.4byte	.LVL769
 17202 3d21 940E0000 		.4byte	.LVL775
 17203 3d25 0100     		.2byte	0x1
 17204 3d27 55       		.byte	0x55
 17205 3d28 26100000 		.4byte	.LVL827
ARM GAS  C:\Users\pearlstl\AppData\Local\Temp\ccbpFzqf.s 			page 331


 17206 3d2c 2E100000 		.4byte	.LVL829
 17207 3d30 0100     		.2byte	0x1
 17208 3d32 55       		.byte	0x55
 17209 3d33 00000000 		.4byte	0
 17210 3d37 00000000 		.4byte	0
 17211              	.LLST239:
 17212 3d3b AC090000 		.4byte	.LVL652
 17213 3d3f BE090000 		.4byte	.LVL655
 17214 3d43 0100     		.2byte	0x1
 17215 3d45 57       		.byte	0x57
 17216 3d46 C0090000 		.4byte	.LVL656
 17217 3d4a DE090000 		.4byte	.LVL659
 17218 3d4e 0100     		.2byte	0x1
 17219 3d50 57       		.byte	0x57
 17220 3d51 DE090000 		.4byte	.LVL659
 17221 3d55 F4090000 		.4byte	.LVL662
 17222 3d59 0100     		.2byte	0x1
 17223 3d5b 54       		.byte	0x54
 17224 3d5c 520E0000 		.4byte	.LVL769
 17225 3d60 5A0E0000 		.4byte	.LVL770
 17226 3d64 0300     		.2byte	0x3
 17227 3d66 08       		.byte	0x8
 17228 3d67 20       		.byte	0x20
 17229 3d68 9F       		.byte	0x9f
 17230 3d69 26100000 		.4byte	.LVL827
 17231 3d6d 2E100000 		.4byte	.LVL829
 17232 3d71 0300     		.2byte	0x3
 17233 3d73 08       		.byte	0x8
 17234 3d74 20       		.byte	0x20
 17235 3d75 9F       		.byte	0x9f
 17236 3d76 00000000 		.4byte	0
 17237 3d7a 00000000 		.4byte	0
 17238              	.LLST240:
 17239 3d7e AC090000 		.4byte	.LVL652
 17240 3d82 B2090000 		.4byte	.LVL653
 17241 3d86 0400     		.2byte	0x4
 17242 3d88 91       		.byte	0x91
 17243 3d89 B87F     		.sleb128 -72
 17244 3d8b 9F       		.byte	0x9f
 17245 3d8c B8090000 		.4byte	.LVL654
 17246 3d90 C4090000 		.4byte	.LVL657
 17247 3d94 0400     		.2byte	0x4
 17248 3d96 91       		.byte	0x91
 17249 3d97 B87F     		.sleb128 -72
 17250 3d99 9F       		.byte	0x9f
 17251 3d9a 520E0000 		.4byte	.LVL769
 17252 3d9e 940E0000 		.4byte	.LVL775
 17253 3da2 0400     		.2byte	0x4
 17254 3da4 91       		.byte	0x91
 17255 3da5 B87F     		.sleb128 -72
 17256 3da7 9F       		.byte	0x9f
 17257 3da8 26100000 		.4byte	.LVL827
 17258 3dac 2C100000 		.4byte	.LVL828
 17259 3db0 0400     		.2byte	0x4
 17260 3db2 91       		.byte	0x91
 17261 3db3 B87F     		.sleb128 -72
 17262 3db5 9F       		.byte	0x9f
ARM GAS  C:\Users\pearlstl\AppData\Local\Temp\ccbpFzqf.s 			page 332


 17263 3db6 2C100000 		.4byte	.LVL828
 17264 3dba 2E100000 		.4byte	.LVL829
 17265 3dbe 0100     		.2byte	0x1
 17266 3dc0 53       		.byte	0x53
 17267 3dc1 00000000 		.4byte	0
 17268 3dc5 00000000 		.4byte	0
 17269              	.LLST241:
 17270 3dc9 C0090000 		.4byte	.LVL656
 17271 3dcd DE090000 		.4byte	.LVL659
 17272 3dd1 0100     		.2byte	0x1
 17273 3dd3 56       		.byte	0x56
 17274 3dd4 DE090000 		.4byte	.LVL659
 17275 3dd8 EA090000 		.4byte	.LVL660
 17276 3ddc 0100     		.2byte	0x1
 17277 3dde 52       		.byte	0x52
 17278 3ddf EA090000 		.4byte	.LVL660
 17279 3de3 F6090000 		.4byte	.LVL663
 17280 3de7 0100     		.2byte	0x1
 17281 3de9 56       		.byte	0x56
 17282 3dea F6090000 		.4byte	.LVL663
 17283 3dee FC090000 		.4byte	.LVL664
 17284 3df2 0100     		.2byte	0x1
 17285 3df4 52       		.byte	0x52
 17286 3df5 000A0000 		.4byte	.LVL665
 17287 3df9 0E0A0000 		.4byte	.LVL667
 17288 3dfd 0100     		.2byte	0x1
 17289 3dff 56       		.byte	0x56
 17290 3e00 0E0A0000 		.4byte	.LVL667
 17291 3e04 180A0000 		.4byte	.LVL668
 17292 3e08 0100     		.2byte	0x1
 17293 3e0a 51       		.byte	0x51
 17294 3e0b 180A0000 		.4byte	.LVL668
 17295 3e0f 220A0000 		.4byte	.LVL670
 17296 3e13 0100     		.2byte	0x1
 17297 3e15 56       		.byte	0x56
 17298 3e16 720E0000 		.4byte	.LVL771
 17299 3e1a 740E0000 		.4byte	.LVL772
 17300 3e1e 0100     		.2byte	0x1
 17301 3e20 52       		.byte	0x52
 17302 3e21 740E0000 		.4byte	.LVL772
 17303 3e25 8C0E0000 		.4byte	.LVL774
 17304 3e29 0100     		.2byte	0x1
 17305 3e2b 54       		.byte	0x54
 17306 3e2c 8C0E0000 		.4byte	.LVL774
 17307 3e30 940E0000 		.4byte	.LVL775
 17308 3e34 0100     		.2byte	0x1
 17309 3e36 52       		.byte	0x52
 17310 3e37 00000000 		.4byte	0
 17311 3e3b 00000000 		.4byte	0
 17312              	.LLST242:
 17313 3e3f 5A0E0000 		.4byte	.LVL770
 17314 3e43 720E0000 		.4byte	.LVL771
 17315 3e47 0100     		.2byte	0x1
 17316 3e49 57       		.byte	0x57
 17317 3e4a 00000000 		.4byte	0
 17318 3e4e 00000000 		.4byte	0
 17319              	.LLST243:
ARM GAS  C:\Users\pearlstl\AppData\Local\Temp\ccbpFzqf.s 			page 333


 17320 3e52 EA0D0000 		.4byte	.LVL762
 17321 3e56 080E0000 		.4byte	.LVL763
 17322 3e5a 0300     		.2byte	0x3
 17323 3e5c 91       		.byte	0x91
 17324 3e5d A47F     		.sleb128 -92
 17325 3e5f 080E0000 		.4byte	.LVL763
 17326 3e63 480E0000 		.4byte	.LVL768
 17327 3e67 0100     		.2byte	0x1
 17328 3e69 56       		.byte	0x56
 17329 3e6a F60F0000 		.4byte	.LVL819
 17330 3e6e FC0F0000 		.4byte	.LVL820
 17331 3e72 0100     		.2byte	0x1
 17332 3e74 56       		.byte	0x56
 17333 3e75 FC0F0000 		.4byte	.LVL820
 17334 3e79 06100000 		.4byte	.LVL821
 17335 3e7d 0300     		.2byte	0x3
 17336 3e7f 76       		.byte	0x76
 17337 3e80 7F       		.sleb128 -1
 17338 3e81 9F       		.byte	0x9f
 17339 3e82 06100000 		.4byte	.LVL821
 17340 3e86 0E100000 		.4byte	.LVL823
 17341 3e8a 0300     		.2byte	0x3
 17342 3e8c 76       		.byte	0x76
 17343 3e8d 7E       		.sleb128 -2
 17344 3e8e 9F       		.byte	0x9f
 17345 3e8f 0E100000 		.4byte	.LVL823
 17346 3e93 14100000 		.4byte	.LVL824
 17347 3e97 0300     		.2byte	0x3
 17348 3e99 76       		.byte	0x76
 17349 3e9a 7F       		.sleb128 -1
 17350 3e9b 9F       		.byte	0x9f
 17351 3e9c 14100000 		.4byte	.LVL824
 17352 3ea0 16100000 		.4byte	.LVL825
 17353 3ea4 0100     		.2byte	0x1
 17354 3ea6 56       		.byte	0x56
 17355 3ea7 00000000 		.4byte	0
 17356 3eab 00000000 		.4byte	0
 17357              	.LLST244:
 17358 3eaf 8A070000 		.4byte	.LVL590
 17359 3eb3 C4070000 		.4byte	.LVL596
 17360 3eb7 0100     		.2byte	0x1
 17361 3eb9 55       		.byte	0x55
 17362 3eba C8070000 		.4byte	.LVL598
 17363 3ebe 0C080000 		.4byte	.LVL607
 17364 3ec2 0100     		.2byte	0x1
 17365 3ec4 55       		.byte	0x55
 17366 3ec5 00000000 		.4byte	0
 17367 3ec9 00000000 		.4byte	0
 17368              	.LLST245:
 17369 3ecd 8A070000 		.4byte	.LVL590
 17370 3ed1 C4070000 		.4byte	.LVL596
 17371 3ed5 0200     		.2byte	0x2
 17372 3ed7 34       		.byte	0x34
 17373 3ed8 9F       		.byte	0x9f
 17374 3ed9 C8070000 		.4byte	.LVL598
 17375 3edd E0070000 		.4byte	.LVL601
 17376 3ee1 0200     		.2byte	0x2
ARM GAS  C:\Users\pearlstl\AppData\Local\Temp\ccbpFzqf.s 			page 334


 17377 3ee3 34       		.byte	0x34
 17378 3ee4 9F       		.byte	0x9f
 17379 3ee5 E0070000 		.4byte	.LVL601
 17380 3ee9 E4070000 		.4byte	.LVL602
 17381 3eed 0A00     		.2byte	0xa
 17382 3eef 03       		.byte	0x3
 17383 3ef0 04000000 		.4byte	.LC1
 17384 3ef4 20       		.byte	0x20
 17385 3ef5 76       		.byte	0x76
 17386 3ef6 00       		.sleb128 0
 17387 3ef7 22       		.byte	0x22
 17388 3ef8 9F       		.byte	0x9f
 17389 3ef9 E4070000 		.4byte	.LVL602
 17390 3efd 0E080000 		.4byte	.LVL608
 17391 3f01 0900     		.2byte	0x9
 17392 3f03 76       		.byte	0x76
 17393 3f04 00       		.sleb128 0
 17394 3f05 03       		.byte	0x3
 17395 3f06 04000000 		.4byte	.LC1
 17396 3f0a 1C       		.byte	0x1c
 17397 3f0b 9F       		.byte	0x9f
 17398 3f0c 00000000 		.4byte	0
 17399 3f10 00000000 		.4byte	0
 17400              	.LLST246:
 17401 3f14 8A070000 		.4byte	.LVL590
 17402 3f18 C4070000 		.4byte	.LVL596
 17403 3f1c 0600     		.2byte	0x6
 17404 3f1e 03       		.byte	0x3
 17405 3f1f 04000000 		.4byte	.LC1
 17406 3f23 9F       		.byte	0x9f
 17407 3f24 C8070000 		.4byte	.LVL598
 17408 3f28 22080000 		.4byte	.LVL611
 17409 3f2c 0600     		.2byte	0x6
 17410 3f2e 03       		.byte	0x3
 17411 3f2f 04000000 		.4byte	.LC1
 17412 3f33 9F       		.byte	0x9f
 17413 3f34 00000000 		.4byte	0
 17414 3f38 00000000 		.4byte	0
 17415              	.LLST247:
 17416 3f3c AC070000 		.4byte	.LVL593
 17417 3f40 AE070000 		.4byte	.LVL594
 17418 3f44 0100     		.2byte	0x1
 17419 3f46 52       		.byte	0x52
 17420 3f47 AE070000 		.4byte	.LVL594
 17421 3f4b C4070000 		.4byte	.LVL596
 17422 3f4f 0100     		.2byte	0x1
 17423 3f51 56       		.byte	0x56
 17424 3f52 CE070000 		.4byte	.LVL600
 17425 3f56 E0070000 		.4byte	.LVL601
 17426 3f5a 0300     		.2byte	0x3
 17427 3f5c 91       		.byte	0x91
 17428 3f5d 907F     		.sleb128 -112
 17429 3f5f E0070000 		.4byte	.LVL601
 17430 3f63 EA070000 		.4byte	.LVL603
 17431 3f67 0100     		.2byte	0x1
 17432 3f69 52       		.byte	0x52
 17433 3f6a EA070000 		.4byte	.LVL603
ARM GAS  C:\Users\pearlstl\AppData\Local\Temp\ccbpFzqf.s 			page 335


 17434 3f6e FA070000 		.4byte	.LVL605
 17435 3f72 0100     		.2byte	0x1
 17436 3f74 54       		.byte	0x54
 17437 3f75 02080000 		.4byte	.LVL606
 17438 3f79 10080000 		.4byte	.LVL609
 17439 3f7d 0100     		.2byte	0x1
 17440 3f7f 52       		.byte	0x52
 17441 3f80 10080000 		.4byte	.LVL609
 17442 3f84 22080000 		.4byte	.LVL611
 17443 3f88 0100     		.2byte	0x1
 17444 3f8a 57       		.byte	0x57
 17445 3f8b 00000000 		.4byte	0
 17446 3f8f 00000000 		.4byte	0
 17447              	.LLST248:
 17448 3f93 8E070000 		.4byte	.LVL591
 17449 3f97 AC070000 		.4byte	.LVL593
 17450 3f9b 0200     		.2byte	0x2
 17451 3f9d 34       		.byte	0x34
 17452 3f9e 9F       		.byte	0x9f
 17453 3f9f 00000000 		.4byte	0
 17454 3fa3 00000000 		.4byte	0
 17455              	.LLST249:
 17456 3fa7 640A0000 		.4byte	.LVL674
 17457 3fab E20A0000 		.4byte	.LVL687
 17458 3faf 0100     		.2byte	0x1
 17459 3fb1 55       		.byte	0x55
 17460 3fb2 E00C0000 		.4byte	.LVL732
 17461 3fb6 E80C0000 		.4byte	.LVL734
 17462 3fba 0100     		.2byte	0x1
 17463 3fbc 55       		.byte	0x55
 17464 3fbd 00000000 		.4byte	0
 17465 3fc1 00000000 		.4byte	0
 17466              	.LLST250:
 17467 3fc5 640A0000 		.4byte	.LVL674
 17468 3fc9 B20A0000 		.4byte	.LVL681
 17469 3fcd 0200     		.2byte	0x2
 17470 3fcf 33       		.byte	0x33
 17471 3fd0 9F       		.byte	0x9f
 17472 3fd1 B20A0000 		.4byte	.LVL681
 17473 3fd5 B60A0000 		.4byte	.LVL682
 17474 3fd9 0A00     		.2byte	0xa
 17475 3fdb 03       		.byte	0x3
 17476 3fdc 00000000 		.4byte	.LC0
 17477 3fe0 20       		.byte	0x20
 17478 3fe1 77       		.byte	0x77
 17479 3fe2 00       		.sleb128 0
 17480 3fe3 22       		.byte	0x22
 17481 3fe4 9F       		.byte	0x9f
 17482 3fe5 B60A0000 		.4byte	.LVL682
 17483 3fe9 E40A0000 		.4byte	.LVL688
 17484 3fed 0900     		.2byte	0x9
 17485 3fef 77       		.byte	0x77
 17486 3ff0 00       		.sleb128 0
 17487 3ff1 03       		.byte	0x3
 17488 3ff2 00000000 		.4byte	.LC0
 17489 3ff6 1C       		.byte	0x1c
 17490 3ff7 9F       		.byte	0x9f
ARM GAS  C:\Users\pearlstl\AppData\Local\Temp\ccbpFzqf.s 			page 336


 17491 3ff8 E00C0000 		.4byte	.LVL732
 17492 3ffc E80C0000 		.4byte	.LVL734
 17493 4000 0200     		.2byte	0x2
 17494 4002 33       		.byte	0x33
 17495 4003 9F       		.byte	0x9f
 17496 4004 00000000 		.4byte	0
 17497 4008 00000000 		.4byte	0
 17498              	.LLST251:
 17499 400c 640A0000 		.4byte	.LVL674
 17500 4010 FC0A0000 		.4byte	.LVL693
 17501 4014 0600     		.2byte	0x6
 17502 4016 03       		.byte	0x3
 17503 4017 00000000 		.4byte	.LC0
 17504 401b 9F       		.byte	0x9f
 17505 401c E00C0000 		.4byte	.LVL732
 17506 4020 E80C0000 		.4byte	.LVL734
 17507 4024 0600     		.2byte	0x6
 17508 4026 03       		.byte	0x3
 17509 4027 00000000 		.4byte	.LC0
 17510 402b 9F       		.byte	0x9f
 17511 402c 00000000 		.4byte	0
 17512 4030 00000000 		.4byte	0
 17513              	.LLST252:
 17514 4034 8A0A0000 		.4byte	.LVL677
 17515 4038 8C0A0000 		.4byte	.LVL678
 17516 403c 0100     		.2byte	0x1
 17517 403e 52       		.byte	0x52
 17518 403f 8C0A0000 		.4byte	.LVL678
 17519 4043 A00A0000 		.4byte	.LVL680
 17520 4047 0100     		.2byte	0x1
 17521 4049 56       		.byte	0x56
 17522 404a A00A0000 		.4byte	.LVL680
 17523 404e B20A0000 		.4byte	.LVL681
 17524 4052 0300     		.2byte	0x3
 17525 4054 91       		.byte	0x91
 17526 4055 907F     		.sleb128 -112
 17527 4057 B20A0000 		.4byte	.LVL681
 17528 405b BC0A0000 		.4byte	.LVL683
 17529 405f 0100     		.2byte	0x1
 17530 4061 52       		.byte	0x52
 17531 4062 BC0A0000 		.4byte	.LVL683
 17532 4066 CC0A0000 		.4byte	.LVL685
 17533 406a 0100     		.2byte	0x1
 17534 406c 54       		.byte	0x54
 17535 406d D60A0000 		.4byte	.LVL686
 17536 4071 E60A0000 		.4byte	.LVL689
 17537 4075 0100     		.2byte	0x1
 17538 4077 52       		.byte	0x52
 17539 4078 E60A0000 		.4byte	.LVL689
 17540 407c FC0A0000 		.4byte	.LVL693
 17541 4080 0100     		.2byte	0x1
 17542 4082 57       		.byte	0x57
 17543 4083 00000000 		.4byte	0
 17544 4087 00000000 		.4byte	0
 17545              	.LLST253:
 17546 408b F80A0000 		.4byte	.LVL691
 17547 408f FC0A0000 		.4byte	.LVL693
ARM GAS  C:\Users\pearlstl\AppData\Local\Temp\ccbpFzqf.s 			page 337


 17548 4093 0100     		.2byte	0x1
 17549 4095 57       		.byte	0x57
 17550 4096 00000000 		.4byte	0
 17551 409a 00000000 		.4byte	0
 17552              	.LLST254:
 17553 409e 6A0A0000 		.4byte	.LVL675
 17554 40a2 8A0A0000 		.4byte	.LVL677
 17555 40a6 0200     		.2byte	0x2
 17556 40a8 33       		.byte	0x33
 17557 40a9 9F       		.byte	0x9f
 17558 40aa 00000000 		.4byte	0
 17559 40ae 00000000 		.4byte	0
 17560              	.LLST255:
 17561 40b2 DA040000 		.4byte	.LVL503
 17562 40b6 E8040000 		.4byte	.LVL505
 17563 40ba 0300     		.2byte	0x3
 17564 40bc 78       		.byte	0x78
 17565 40bd 50       		.sleb128 -48
 17566 40be 9F       		.byte	0x9f
 17567 40bf E8040000 		.4byte	.LVL505
 17568 40c3 F0040000 		.4byte	.LVL507
 17569 40c7 0100     		.2byte	0x1
 17570 40c9 58       		.byte	0x58
 17571 40ca 00000000 		.4byte	0
 17572 40ce 00000000 		.4byte	0
 17573              	.LLST256:
 17574 40d2 10050000 		.4byte	.LVL511
 17575 40d6 1E050000 		.4byte	.LVL513
 17576 40da 0300     		.2byte	0x3
 17577 40dc 79       		.byte	0x79
 17578 40dd 50       		.sleb128 -48
 17579 40de 9F       		.byte	0x9f
 17580 40df 1E050000 		.4byte	.LVL513
 17581 40e3 22050000 		.4byte	.LVL514
 17582 40e7 0100     		.2byte	0x1
 17583 40e9 59       		.byte	0x59
 17584 40ea 00000000 		.4byte	0
 17585 40ee 00000000 		.4byte	0
 17586              	.LLST257:
 17587 40f2 2C050000 		.4byte	.LVL515
 17588 40f6 42050000 		.4byte	.LVL520
 17589 40fa 0200     		.2byte	0x2
 17590 40fc 72       		.byte	0x72
 17591 40fd 00       		.sleb128 0
 17592 40fe 00000000 		.4byte	0
 17593 4102 00000000 		.4byte	0
 17594              	.LLST258:
 17595 4106 26080000 		.4byte	.LVL613
 17596 410a 36080000 		.4byte	.LVL616
 17597 410e 0400     		.2byte	0x4
 17598 4110 91       		.byte	0x91
 17599 4111 987F     		.sleb128 -104
 17600 4113 06       		.byte	0x6
 17601 4114 36080000 		.4byte	.LVL616
 17602 4118 3A080000 		.4byte	.LVL618
 17603 411c 0200     		.2byte	0x2
 17604 411e 72       		.byte	0x72
ARM GAS  C:\Users\pearlstl\AppData\Local\Temp\ccbpFzqf.s 			page 338


 17605 411f 00       		.sleb128 0
 17606 4120 00000000 		.4byte	0
 17607 4124 00000000 		.4byte	0
 17608              	.LLST259:
 17609 4128 00000000 		.4byte	.LVL839
 17610 412c 11000000 		.4byte	.LVL840-1
 17611 4130 0100     		.2byte	0x1
 17612 4132 50       		.byte	0x50
 17613 4133 11000000 		.4byte	.LVL840-1
 17614 4137 1C000000 		.4byte	.LFE12
 17615 413b 0400     		.2byte	0x4
 17616 413d F3       		.byte	0xf3
 17617 413e 01       		.uleb128 0x1
 17618 413f 50       		.byte	0x50
 17619 4140 9F       		.byte	0x9f
 17620 4141 00000000 		.4byte	0
 17621 4145 00000000 		.4byte	0
 17622              	.LLST260:
 17623 4149 00000000 		.4byte	.LVL839
 17624 414d 11000000 		.4byte	.LVL840-1
 17625 4151 0100     		.2byte	0x1
 17626 4153 51       		.byte	0x51
 17627 4154 11000000 		.4byte	.LVL840-1
 17628 4158 1C000000 		.4byte	.LFE12
 17629 415c 0400     		.2byte	0x4
 17630 415e F3       		.byte	0xf3
 17631 415f 01       		.uleb128 0x1
 17632 4160 51       		.byte	0x51
 17633 4161 9F       		.byte	0x9f
 17634 4162 00000000 		.4byte	0
 17635 4166 00000000 		.4byte	0
 17636              	.LLST261:
 17637 416a 00000000 		.4byte	.LVL841
 17638 416e 03000000 		.4byte	.LVL842-1
 17639 4172 0100     		.2byte	0x1
 17640 4174 50       		.byte	0x50
 17641 4175 03000000 		.4byte	.LVL842-1
 17642 4179 04000000 		.4byte	.LFE13
 17643 417d 0400     		.2byte	0x4
 17644 417f F3       		.byte	0xf3
 17645 4180 01       		.uleb128 0x1
 17646 4181 50       		.byte	0x50
 17647 4182 9F       		.byte	0x9f
 17648 4183 00000000 		.4byte	0
 17649 4187 00000000 		.4byte	0
 17650              	.LLST262:
 17651 418b 00000000 		.4byte	.LVL841
 17652 418f 03000000 		.4byte	.LVL842-1
 17653 4193 0100     		.2byte	0x1
 17654 4195 51       		.byte	0x51
 17655 4196 03000000 		.4byte	.LVL842-1
 17656 419a 04000000 		.4byte	.LFE13
 17657 419e 0400     		.2byte	0x4
 17658 41a0 F3       		.byte	0xf3
 17659 41a1 01       		.uleb128 0x1
 17660 41a2 51       		.byte	0x51
 17661 41a3 9F       		.byte	0x9f
ARM GAS  C:\Users\pearlstl\AppData\Local\Temp\ccbpFzqf.s 			page 339


 17662 41a4 00000000 		.4byte	0
 17663 41a8 00000000 		.4byte	0
 17664              	.LLST263:
 17665 41ac 00000000 		.4byte	.LVL841
 17666 41b0 03000000 		.4byte	.LVL842-1
 17667 41b4 0100     		.2byte	0x1
 17668 41b6 52       		.byte	0x52
 17669 41b7 03000000 		.4byte	.LVL842-1
 17670 41bb 04000000 		.4byte	.LFE13
 17671 41bf 0400     		.2byte	0x4
 17672 41c1 F3       		.byte	0xf3
 17673 41c2 01       		.uleb128 0x1
 17674 41c3 52       		.byte	0x52
 17675 41c4 9F       		.byte	0x9f
 17676 41c5 00000000 		.4byte	0
 17677 41c9 00000000 		.4byte	0
 17678              	.LLST264:
 17679 41cd 00000000 		.4byte	.LVL841
 17680 41d1 03000000 		.4byte	.LVL842-1
 17681 41d5 0100     		.2byte	0x1
 17682 41d7 53       		.byte	0x53
 17683 41d8 00000000 		.4byte	0
 17684 41dc 00000000 		.4byte	0
 17685              		.section	.debug_aranges,"",%progbits
 17686 0000 54000000 		.4byte	0x54
 17687 0004 0200     		.2byte	0x2
 17688 0006 00000000 		.4byte	.Ldebug_info0
 17689 000a 04       		.byte	0x4
 17690 000b 00       		.byte	0
 17691 000c 0000     		.2byte	0
 17692 000e 0000     		.2byte	0
 17693 0010 00000000 		.4byte	.LFB0
 17694 0014 08000000 		.4byte	.LFE0-.LFB0
 17695 0018 00000000 		.4byte	.LFB1
 17696 001c 02000000 		.4byte	.LFE1-.LFB1
 17697 0020 00000000 		.4byte	.LFB6
 17698 0024 08020000 		.4byte	.LFE6-.LFB6
 17699 0028 00000000 		.4byte	.LFB10
 17700 002c 48060000 		.4byte	.LFE10-.LFB10
 17701 0030 00000000 		.4byte	.LFB15
 17702 0034 24050000 		.4byte	.LFE15-.LFB15
 17703 0038 00000000 		.4byte	.LFB16
 17704 003c A0100000 		.4byte	.LFE16-.LFB16
 17705 0040 00000000 		.4byte	.LFB12
 17706 0044 1C000000 		.4byte	.LFE12-.LFB12
 17707 0048 00000000 		.4byte	.LFB13
 17708 004c 04000000 		.4byte	.LFE13-.LFB13
 17709 0050 00000000 		.4byte	0
 17710 0054 00000000 		.4byte	0
 17711              		.section	.debug_ranges,"",%progbits
 17712              	.Ldebug_ranges0:
 17713 0000 BE000000 		.4byte	.LBB56
 17714 0004 06010000 		.4byte	.LBE56
 17715 0008 0E010000 		.4byte	.LBB66
 17716 000c 40010000 		.4byte	.LBE66
 17717 0010 66010000 		.4byte	.LBB67
 17718 0014 68010000 		.4byte	.LBE67
ARM GAS  C:\Users\pearlstl\AppData\Local\Temp\ccbpFzqf.s 			page 340


 17719 0018 6C010000 		.4byte	.LBB68
 17720 001c 70010000 		.4byte	.LBE68
 17721 0020 9E010000 		.4byte	.LBB69
 17722 0024 A6010000 		.4byte	.LBE69
 17723 0028 C8010000 		.4byte	.LBB70
 17724 002c CA010000 		.4byte	.LBE70
 17725 0030 CE010000 		.4byte	.LBB71
 17726 0034 D2010000 		.4byte	.LBE71
 17727 0038 00000000 		.4byte	0
 17728 003c 00000000 		.4byte	0
 17729 0040 12010000 		.4byte	.LBB58
 17730 0044 3A010000 		.4byte	.LBE58
 17731 0048 9E010000 		.4byte	.LBB59
 17732 004c A0010000 		.4byte	.LBE59
 17733 0050 00000000 		.4byte	0
 17734 0054 00000000 		.4byte	0
 17735 0058 2E000000 		.4byte	.LBB93
 17736 005c 36000000 		.4byte	.LBE93
 17737 0060 D2030000 		.4byte	.LBB143
 17738 0064 00040000 		.4byte	.LBE143
 17739 0068 24040000 		.4byte	.LBB145
 17740 006c 08050000 		.4byte	.LBE145
 17741 0070 24050000 		.4byte	.LBB147
 17742 0074 28050000 		.4byte	.LBE147
 17743 0078 00000000 		.4byte	0
 17744 007c 00000000 		.4byte	0
 17745 0080 24040000 		.4byte	.LBB95
 17746 0084 94040000 		.4byte	.LBE95
 17747 0088 04050000 		.4byte	.LBB105
 17748 008c 08050000 		.4byte	.LBE105
 17749 0090 00000000 		.4byte	0
 17750 0094 00000000 		.4byte	0
 17751 0098 2A040000 		.4byte	.LBB97
 17752 009c 4E040000 		.4byte	.LBE97
 17753 00a0 04050000 		.4byte	.LBB98
 17754 00a4 08050000 		.4byte	.LBE98
 17755 00a8 00000000 		.4byte	0
 17756 00ac 00000000 		.4byte	0
 17757 00b0 94040000 		.4byte	.LBB100
 17758 00b4 04050000 		.4byte	.LBE100
 17759 00b8 24050000 		.4byte	.LBB106
 17760 00bc 28050000 		.4byte	.LBE106
 17761 00c0 00000000 		.4byte	0
 17762 00c4 00000000 		.4byte	0
 17763 00c8 9A040000 		.4byte	.LBB102
 17764 00cc BE040000 		.4byte	.LBE102
 17765 00d0 24050000 		.4byte	.LBB103
 17766 00d4 28050000 		.4byte	.LBE103
 17767 00d8 00000000 		.4byte	0
 17768 00dc 00000000 		.4byte	0
 17769 00e0 4A000000 		.4byte	.LBB110
 17770 00e4 CA030000 		.4byte	.LBE110
 17771 00e8 08040000 		.4byte	.LBB144
 17772 00ec 1C040000 		.4byte	.LBE144
 17773 00f0 08050000 		.4byte	.LBB146
 17774 00f4 24050000 		.4byte	.LBE146
 17775 00f8 28050000 		.4byte	.LBB148
ARM GAS  C:\Users\pearlstl\AppData\Local\Temp\ccbpFzqf.s 			page 341


 17776 00fc 48060000 		.4byte	.LBE148
 17777 0100 00000000 		.4byte	0
 17778 0104 00000000 		.4byte	0
 17779 0108 66020000 		.4byte	.LBB112
 17780 010c AE020000 		.4byte	.LBE112
 17781 0110 28050000 		.4byte	.LBB138
 17782 0114 C0050000 		.4byte	.LBE138
 17783 0118 E2050000 		.4byte	.LBB139
 17784 011c 48060000 		.4byte	.LBE139
 17785 0120 00000000 		.4byte	0
 17786 0124 00000000 		.4byte	0
 17787 0128 88020000 		.4byte	.LBB114
 17788 012c 8A020000 		.4byte	.LBE114
 17789 0130 54050000 		.4byte	.LBB125
 17790 0134 C0050000 		.4byte	.LBE125
 17791 0138 2A060000 		.4byte	.LBB127
 17792 013c 48060000 		.4byte	.LBE127
 17793 0140 00000000 		.4byte	0
 17794 0144 00000000 		.4byte	0
 17795 0148 58050000 		.4byte	.LBB116
 17796 014c 80050000 		.4byte	.LBE116
 17797 0150 2E060000 		.4byte	.LBB117
 17798 0154 48060000 		.4byte	.LBE117
 17799 0158 00000000 		.4byte	0
 17800 015c 00000000 		.4byte	0
 17801 0160 28050000 		.4byte	.LBB120
 17802 0164 54050000 		.4byte	.LBE120
 17803 0168 E2050000 		.4byte	.LBB126
 17804 016c 2A060000 		.4byte	.LBE126
 17805 0170 00000000 		.4byte	0
 17806 0174 00000000 		.4byte	0
 17807 0178 2E050000 		.4byte	.LBB122
 17808 017c 54050000 		.4byte	.LBE122
 17809 0180 E2050000 		.4byte	.LBB123
 17810 0184 EC050000 		.4byte	.LBE123
 17811 0188 00000000 		.4byte	0
 17812 018c 00000000 		.4byte	0
 17813 0190 CC020000 		.4byte	.LBB130
 17814 0194 D0020000 		.4byte	.LBE130
 17815 0198 54030000 		.4byte	.LBB136
 17816 019c A2030000 		.4byte	.LBE136
 17817 01a0 A4030000 		.4byte	.LBB137
 17818 01a4 A6030000 		.4byte	.LBE137
 17819 01a8 00000000 		.4byte	0
 17820 01ac 00000000 		.4byte	0
 17821 01b0 CC020000 		.4byte	.LBB132
 17822 01b4 D0020000 		.4byte	.LBE132
 17823 01b8 58030000 		.4byte	.LBB133
 17824 01bc 6E030000 		.4byte	.LBE133
 17825 01c0 00000000 		.4byte	0
 17826 01c4 00000000 		.4byte	0
 17827 01c8 42000000 		.4byte	.LBB157
 17828 01cc 44000000 		.4byte	.LBE157
 17829 01d0 50000000 		.4byte	.LBB162
 17830 01d4 BA000000 		.4byte	.LBE162
 17831 01d8 C6020000 		.4byte	.LBB170
 17832 01dc C8020000 		.4byte	.LBE170
ARM GAS  C:\Users\pearlstl\AppData\Local\Temp\ccbpFzqf.s 			page 342


 17833 01e0 00000000 		.4byte	0
 17834 01e4 00000000 		.4byte	0
 17835 01e8 44020000 		.4byte	.LBB163
 17836 01ec 7C020000 		.4byte	.LBE163
 17837 01f0 7E020000 		.4byte	.LBB169
 17838 01f4 C0020000 		.4byte	.LBE169
 17839 01f8 B0030000 		.4byte	.LBB172
 17840 01fc BC030000 		.4byte	.LBE172
 17841 0200 D8040000 		.4byte	.LBB174
 17842 0204 E4040000 		.4byte	.LBE174
 17843 0208 00000000 		.4byte	0
 17844 020c 00000000 		.4byte	0
 17845 0210 4C030000 		.4byte	.LBB171
 17846 0214 A6030000 		.4byte	.LBE171
 17847 0218 92040000 		.4byte	.LBB173
 17848 021c BE040000 		.4byte	.LBE173
 17849 0220 00000000 		.4byte	0
 17850 0224 00000000 		.4byte	0
 17851 0228 18000000 		.4byte	.LBB237
 17852 022c 20000000 		.4byte	.LBE237
 17853 0230 E0010000 		.4byte	.LBB257
 17854 0234 E4010000 		.4byte	.LBE257
 17855 0238 80020000 		.4byte	.LBB260
 17856 023c 3C030000 		.4byte	.LBE260
 17857 0240 9A050000 		.4byte	.LBB395
 17858 0244 0C060000 		.4byte	.LBE395
 17859 0248 60060000 		.4byte	.LBB398
 17860 024c 66060000 		.4byte	.LBE398
 17861 0250 E40D0000 		.4byte	.LBB410
 17862 0254 EA0D0000 		.4byte	.LBE410
 17863 0258 CA0F0000 		.4byte	.LBB416
 17864 025c D60F0000 		.4byte	.LBE416
 17865 0260 00000000 		.4byte	0
 17866 0264 00000000 		.4byte	0
 17867 0268 86020000 		.4byte	.LBB238
 17868 026c 88020000 		.4byte	.LBE238
 17869 0270 9E020000 		.4byte	.LBB242
 17870 0274 B4020000 		.4byte	.LBE242
 17871 0278 E40D0000 		.4byte	.LBB243
 17872 027c EA0D0000 		.4byte	.LBE243
 17873 0280 00000000 		.4byte	0
 17874 0284 00000000 		.4byte	0
 17875 0288 CA010000 		.4byte	.LBB244
 17876 028c E0010000 		.4byte	.LBE244
 17877 0290 E4010000 		.4byte	.LBB258
 17878 0294 3C020000 		.4byte	.LBE258
 17879 0298 4A060000 		.4byte	.LBB397
 17880 029c 60060000 		.4byte	.LBE397
 17881 02a0 00000000 		.4byte	0
 17882 02a4 00000000 		.4byte	0
 17883 02a8 D2010000 		.4byte	.LBB245
 17884 02ac D8010000 		.4byte	.LBE245
 17885 02b0 E4010000 		.4byte	.LBB253
 17886 02b4 26020000 		.4byte	.LBE253
 17887 02b8 2A020000 		.4byte	.LBB254
 17888 02bc 2E020000 		.4byte	.LBE254
 17889 02c0 30020000 		.4byte	.LBB255
ARM GAS  C:\Users\pearlstl\AppData\Local\Temp\ccbpFzqf.s 			page 343


 17890 02c4 3C020000 		.4byte	.LBE255
 17891 02c8 4A060000 		.4byte	.LBB256
 17892 02cc 60060000 		.4byte	.LBE256
 17893 02d0 00000000 		.4byte	0
 17894 02d4 00000000 		.4byte	0
 17895 02d8 E8010000 		.4byte	.LBB247
 17896 02dc FA010000 		.4byte	.LBE247
 17897 02e0 FC010000 		.4byte	.LBB248
 17898 02e4 04020000 		.4byte	.LBE248
 17899 02e8 00000000 		.4byte	0
 17900 02ec 00000000 		.4byte	0
 17901 02f0 3C020000 		.4byte	.LBB259
 17902 02f4 80020000 		.4byte	.LBE259
 17903 02f8 0C060000 		.4byte	.LBB396
 17904 02fc 4A060000 		.4byte	.LBE396
 17905 0300 D60F0000 		.4byte	.LBB417
 17906 0304 E40F0000 		.4byte	.LBE417
 17907 0308 00000000 		.4byte	0
 17908 030c 00000000 		.4byte	0
 17909 0310 3C030000 		.4byte	.LBB261
 17910 0314 F6030000 		.4byte	.LBE261
 17911 0318 78060000 		.4byte	.LBB399
 17912 031c 30070000 		.4byte	.LBE399
 17913 0320 C4070000 		.4byte	.LBB401
 17914 0324 C8070000 		.4byte	.LBE401
 17915 0328 2A0A0000 		.4byte	.LBB405
 17916 032c 640A0000 		.4byte	.LBE405
 17917 0330 1E0B0000 		.4byte	.LBB407
 17918 0334 E00C0000 		.4byte	.LBE407
 17919 0338 E80C0000 		.4byte	.LBB409
 17920 033c E40D0000 		.4byte	.LBE409
 17921 0340 020F0000 		.4byte	.LBB412
 17922 0344 380F0000 		.4byte	.LBE412
 17923 0348 920F0000 		.4byte	.LBB414
 17924 034c AC0F0000 		.4byte	.LBE414
 17925 0350 3C100000 		.4byte	.LBB419
 17926 0354 44100000 		.4byte	.LBE419
 17927 0358 64100000 		.4byte	.LBB421
 17928 035c 7C100000 		.4byte	.LBE421
 17929 0360 00000000 		.4byte	0
 17930 0364 00000000 		.4byte	0
 17931 0368 74030000 		.4byte	.LBB262
 17932 036c 76030000 		.4byte	.LBE262
 17933 0370 5C0D0000 		.4byte	.LBB310
 17934 0374 E40D0000 		.4byte	.LBE310
 17935 0378 160F0000 		.4byte	.LBB312
 17936 037c 260F0000 		.4byte	.LBE312
 17937 0380 00000000 		.4byte	0
 17938 0384 00000000 		.4byte	0
 17939 0388 6E0D0000 		.4byte	.LBB263
 17940 038c D60D0000 		.4byte	.LBE263
 17941 0390 DA0D0000 		.4byte	.LBB269
 17942 0394 E40D0000 		.4byte	.LBE269
 17943 0398 160F0000 		.4byte	.LBB270
 17944 039c 260F0000 		.4byte	.LBE270
 17945 03a0 00000000 		.4byte	0
 17946 03a4 00000000 		.4byte	0
ARM GAS  C:\Users\pearlstl\AppData\Local\Temp\ccbpFzqf.s 			page 344


 17947 03a8 7C0D0000 		.4byte	.LBB265
 17948 03ac 900D0000 		.4byte	.LBE265
 17949 03b0 940D0000 		.4byte	.LBB266
 17950 03b4 B00D0000 		.4byte	.LBE266
 17951 03b8 00000000 		.4byte	0
 17952 03bc 00000000 		.4byte	0
 17953 03c0 7A030000 		.4byte	.LBB271
 17954 03c4 F6030000 		.4byte	.LBE271
 17955 03c8 CA0C0000 		.4byte	.LBB302
 17956 03cc E00C0000 		.4byte	.LBE302
 17957 03d0 00000000 		.4byte	0
 17958 03d4 00000000 		.4byte	0
 17959 03d8 A8030000 		.4byte	.LBB274
 17960 03dc B6030000 		.4byte	.LBE274
 17961 03e0 BA030000 		.4byte	.LBB275
 17962 03e4 D6030000 		.4byte	.LBE275
 17963 03e8 00000000 		.4byte	0
 17964 03ec 00000000 		.4byte	0
 17965 03f0 A6060000 		.4byte	.LBB276
 17966 03f4 30070000 		.4byte	.LBE276
 17967 03f8 B80C0000 		.4byte	.LBB301
 17968 03fc CA0C0000 		.4byte	.LBE301
 17969 0400 960F0000 		.4byte	.LBB315
 17970 0404 AC0F0000 		.4byte	.LBE315
 17971 0408 00000000 		.4byte	0
 17972 040c 00000000 		.4byte	0
 17973 0410 B2060000 		.4byte	.LBB277
 17974 0414 30070000 		.4byte	.LBE277
 17975 0418 960F0000 		.4byte	.LBB282
 17976 041c AC0F0000 		.4byte	.LBE282
 17977 0420 00000000 		.4byte	0
 17978 0424 00000000 		.4byte	0
 17979 0428 C8060000 		.4byte	.LBB279
 17980 042c D6060000 		.4byte	.LBE279
 17981 0430 DA060000 		.4byte	.LBB280
 17982 0434 F6060000 		.4byte	.LBE280
 17983 0438 00000000 		.4byte	0
 17984 043c 00000000 		.4byte	0
 17985 0440 3A0B0000 		.4byte	.LBB283
 17986 0444 E40B0000 		.4byte	.LBE283
 17987 0448 920F0000 		.4byte	.LBB314
 17988 044c 960F0000 		.4byte	.LBE314
 17989 0450 00000000 		.4byte	0
 17990 0454 00000000 		.4byte	0
 17991 0458 520B0000 		.4byte	.LBB285
 17992 045c 780B0000 		.4byte	.LBE285
 17993 0460 7E0B0000 		.4byte	.LBB286
 17994 0464 B80B0000 		.4byte	.LBE286
 17995 0468 BC0B0000 		.4byte	.LBB287
 17996 046c C00B0000 		.4byte	.LBE287
 17997 0470 00000000 		.4byte	0
 17998 0474 00000000 		.4byte	0
 17999 0478 E80B0000 		.4byte	.LBB289
 18000 047c B80C0000 		.4byte	.LBE289
 18001 0480 020F0000 		.4byte	.LBB311
 18002 0484 160F0000 		.4byte	.LBE311
 18003 0488 3C100000 		.4byte	.LBB316
ARM GAS  C:\Users\pearlstl\AppData\Local\Temp\ccbpFzqf.s 			page 345


 18004 048c 44100000 		.4byte	.LBE316
 18005 0490 00000000 		.4byte	0
 18006 0494 00000000 		.4byte	0
 18007 0498 120C0000 		.4byte	.LBB290
 18008 049c 140C0000 		.4byte	.LBE290
 18009 04a0 160C0000 		.4byte	.LBB298
 18010 04a4 180C0000 		.4byte	.LBE298
 18011 04a8 1C0C0000 		.4byte	.LBB299
 18012 04ac B80C0000 		.4byte	.LBE299
 18013 04b0 020F0000 		.4byte	.LBB300
 18014 04b4 160F0000 		.4byte	.LBE300
 18015 04b8 00000000 		.4byte	0
 18016 04bc 00000000 		.4byte	0
 18017 04c0 220C0000 		.4byte	.LBB292
 18018 04c4 480C0000 		.4byte	.LBE292
 18019 04c8 4E0C0000 		.4byte	.LBB293
 18020 04cc 880C0000 		.4byte	.LBE293
 18021 04d0 8C0C0000 		.4byte	.LBB294
 18022 04d4 900C0000 		.4byte	.LBE294
 18023 04d8 00000000 		.4byte	0
 18024 04dc 00000000 		.4byte	0
 18025 04e0 EE0C0000 		.4byte	.LBB303
 18026 04e4 4E0D0000 		.4byte	.LBE303
 18027 04e8 520D0000 		.4byte	.LBB309
 18028 04ec 5C0D0000 		.4byte	.LBE309
 18029 04f0 260F0000 		.4byte	.LBB313
 18030 04f4 380F0000 		.4byte	.LBE313
 18031 04f8 00000000 		.4byte	0
 18032 04fc 00000000 		.4byte	0
 18033 0500 FA0C0000 		.4byte	.LBB305
 18034 0504 080D0000 		.4byte	.LBE305
 18035 0508 0C0D0000 		.4byte	.LBB306
 18036 050c 280D0000 		.4byte	.LBE306
 18037 0510 00000000 		.4byte	0
 18038 0514 00000000 		.4byte	0
 18039 0518 1C040000 		.4byte	.LBB317
 18040 051c 20040000 		.4byte	.LBE317
 18041 0520 24040000 		.4byte	.LBB388
 18042 0524 2A040000 		.4byte	.LBE388
 18043 0528 36040000 		.4byte	.LBB389
 18044 052c BC040000 		.4byte	.LBE389
 18045 0530 30070000 		.4byte	.LBB400
 18046 0534 C4070000 		.4byte	.LBE400
 18047 0538 C8070000 		.4byte	.LBB402
 18048 053c 26080000 		.4byte	.LBE402
 18049 0540 3A080000 		.4byte	.LBB404
 18050 0544 2A0A0000 		.4byte	.LBE404
 18051 0548 640A0000 		.4byte	.LBB406
 18052 054c 1E0B0000 		.4byte	.LBE406
 18053 0550 E00C0000 		.4byte	.LBB408
 18054 0554 E80C0000 		.4byte	.LBE408
 18055 0558 EA0D0000 		.4byte	.LBB411
 18056 055c 020F0000 		.4byte	.LBE411
 18057 0560 380F0000 		.4byte	.LBB413
 18058 0564 920F0000 		.4byte	.LBE413
 18059 0568 AC0F0000 		.4byte	.LBB415
 18060 056c CA0F0000 		.4byte	.LBE415
ARM GAS  C:\Users\pearlstl\AppData\Local\Temp\ccbpFzqf.s 			page 346


 18061 0570 E40F0000 		.4byte	.LBB418
 18062 0574 3C100000 		.4byte	.LBE418
 18063 0578 44100000 		.4byte	.LBB420
 18064 057c 64100000 		.4byte	.LBE420
 18065 0580 7C100000 		.4byte	.LBB422
 18066 0584 A0100000 		.4byte	.LBE422
 18067 0588 00000000 		.4byte	0
 18068 058c 00000000 		.4byte	0
 18069 0590 56040000 		.4byte	.LBB319
 18070 0594 BC040000 		.4byte	.LBE319
 18071 0598 30070000 		.4byte	.LBB352
 18072 059c 8A070000 		.4byte	.LBE352
 18073 05a0 3A080000 		.4byte	.LBB360
 18074 05a4 2A0A0000 		.4byte	.LBE360
 18075 05a8 FC0A0000 		.4byte	.LBB367
 18076 05ac 1E0B0000 		.4byte	.LBE367
 18077 05b0 EA0D0000 		.4byte	.LBB369
 18078 05b4 020F0000 		.4byte	.LBE369
 18079 05b8 380F0000 		.4byte	.LBB370
 18080 05bc 920F0000 		.4byte	.LBE370
 18081 05c0 AC0F0000 		.4byte	.LBB371
 18082 05c4 CA0F0000 		.4byte	.LBE371
 18083 05c8 E40F0000 		.4byte	.LBB372
 18084 05cc 3C100000 		.4byte	.LBE372
 18085 05d0 44100000 		.4byte	.LBB373
 18086 05d4 64100000 		.4byte	.LBE373
 18087 05d8 7C100000 		.4byte	.LBB374
 18088 05dc A0100000 		.4byte	.LBE374
 18089 05e0 00000000 		.4byte	0
 18090 05e4 00000000 		.4byte	0
 18091 05e8 7E040000 		.4byte	.LBB321
 18092 05ec 80040000 		.4byte	.LBE321
 18093 05f0 84040000 		.4byte	.LBB327
 18094 05f4 BC040000 		.4byte	.LBE327
 18095 05f8 30070000 		.4byte	.LBB328
 18096 05fc 8A070000 		.4byte	.LBE328
 18097 0600 00000000 		.4byte	0
 18098 0604 00000000 		.4byte	0
 18099 0608 88040000 		.4byte	.LBB323
 18100 060c BC040000 		.4byte	.LBE323
 18101 0610 30070000 		.4byte	.LBB324
 18102 0614 42070000 		.4byte	.LBE324
 18103 0618 00000000 		.4byte	0
 18104 061c 00000000 		.4byte	0
 18105 0620 AC090000 		.4byte	.LBB329
 18106 0624 B2090000 		.4byte	.LBE329
 18107 0628 B8090000 		.4byte	.LBB337
 18108 062c C6090000 		.4byte	.LBE337
 18109 0630 DE090000 		.4byte	.LBB338
 18110 0634 2A0A0000 		.4byte	.LBE338
 18111 0638 520E0000 		.4byte	.LBB340
 18112 063c 940E0000 		.4byte	.LBE340
 18113 0640 26100000 		.4byte	.LBB342
 18114 0644 2E100000 		.4byte	.LBE342
 18115 0648 00000000 		.4byte	0
 18116 064c 00000000 		.4byte	0
 18117 0650 BE090000 		.4byte	.LBB331
ARM GAS  C:\Users\pearlstl\AppData\Local\Temp\ccbpFzqf.s 			page 347


 18118 0654 C0090000 		.4byte	.LBE331
 18119 0658 5A0E0000 		.4byte	.LBB332
 18120 065c 940E0000 		.4byte	.LBE332
 18121 0660 00000000 		.4byte	0
 18122 0664 00000000 		.4byte	0
 18123 0668 EA0D0000 		.4byte	.LBB339
 18124 066c 480E0000 		.4byte	.LBE339
 18125 0670 F60F0000 		.4byte	.LBB341
 18126 0674 26100000 		.4byte	.LBE341
 18127 0678 00000000 		.4byte	0
 18128 067c 00000000 		.4byte	0
 18129 0680 8A070000 		.4byte	.LBB353
 18130 0684 C4070000 		.4byte	.LBE353
 18131 0688 C8070000 		.4byte	.LBB359
 18132 068c 26080000 		.4byte	.LBE359
 18133 0690 F80A0000 		.4byte	.LBB366
 18134 0694 FC0A0000 		.4byte	.LBE366
 18135 0698 00000000 		.4byte	0
 18136 069c 00000000 		.4byte	0
 18137 06a0 8E070000 		.4byte	.LBB355
 18138 06a4 C4070000 		.4byte	.LBE355
 18139 06a8 C8070000 		.4byte	.LBB356
 18140 06ac E0070000 		.4byte	.LBE356
 18141 06b0 00000000 		.4byte	0
 18142 06b4 00000000 		.4byte	0
 18143 06b8 640A0000 		.4byte	.LBB361
 18144 06bc F80A0000 		.4byte	.LBE361
 18145 06c0 E00C0000 		.4byte	.LBB368
 18146 06c4 E80C0000 		.4byte	.LBE368
 18147 06c8 00000000 		.4byte	0
 18148 06cc 00000000 		.4byte	0
 18149 06d0 6A0A0000 		.4byte	.LBB363
 18150 06d4 B20A0000 		.4byte	.LBE363
 18151 06d8 E00C0000 		.4byte	.LBB364
 18152 06dc E80C0000 		.4byte	.LBE364
 18153 06e0 00000000 		.4byte	0
 18154 06e4 00000000 		.4byte	0
 18155 06e8 00000000 		.4byte	.LFB0
 18156 06ec 08000000 		.4byte	.LFE0
 18157 06f0 00000000 		.4byte	.LFB1
 18158 06f4 02000000 		.4byte	.LFE1
 18159 06f8 00000000 		.4byte	.LFB6
 18160 06fc 08020000 		.4byte	.LFE6
 18161 0700 00000000 		.4byte	.LFB10
 18162 0704 48060000 		.4byte	.LFE10
 18163 0708 00000000 		.4byte	.LFB15
 18164 070c 24050000 		.4byte	.LFE15
 18165 0710 00000000 		.4byte	.LFB16
 18166 0714 A0100000 		.4byte	.LFE16
 18167 0718 00000000 		.4byte	.LFB12
 18168 071c 1C000000 		.4byte	.LFE12
 18169 0720 00000000 		.4byte	.LFB13
 18170 0724 04000000 		.4byte	.LFE13
 18171 0728 00000000 		.4byte	0
 18172 072c 00000000 		.4byte	0
 18173              		.section	.debug_line,"",%progbits
 18174              	.Ldebug_line0:
ARM GAS  C:\Users\pearlstl\AppData\Local\Temp\ccbpFzqf.s 			page 348


 18175 0000 5C080000 		.section	.debug_str,"MS",%progbits,1
 18175      0200E801 
 18175      00000201 
 18175      FB0E0D00 
 18175      01010101 
 18176              	.LASF61:
 18177 0000 433A5C55 		.ascii	"C:\\Users\\pearlstl\\Documents\\_Research\\projects"
 18177      73657273 
 18177      5C706561 
 18177      726C7374 
 18177      6C5C446F 
 18178 002e 5C74636F 		.ascii	"\\tcom_engineering\\embed_sw\\tcom_app\\tcom_app_ps"
 18178      6D5F656E 
 18178      67696E65 
 18178      6572696E 
 18178      675C656D 
 18179 005d 6F63365F 		.ascii	"oc6_lvgl6\\tcom_displ_test_psoc6.cydsn\000"
 18179      6C76676C 
 18179      365C7463 
 18179      6F6D5F64 
 18179      6973706C 
 18180              	.LASF32:
 18181 0083 65787032 		.ascii	"exp2\000"
 18181      00
 18182              	.LASF38:
 18183 0088 64696666 		.ascii	"diff\000"
 18183      00
 18184              	.LASF52:
 18185 008d 5F6F7574 		.ascii	"_out_buffer\000"
 18185      5F627566 
 18185      66657200 
 18186              	.LASF12:
 18187 0099 75696E74 		.ascii	"uint64_t\000"
 18187      36345F74 
 18187      00
 18188              	.LASF5:
 18189 00a2 73686F72 		.ascii	"short int\000"
 18189      7420696E 
 18189      7400
 18190              	.LASF16:
 18191 00ac 73697A65 		.ascii	"size_t\000"
 18191      5F7400
 18192              	.LASF34:
 18193 00b3 6D696E77 		.ascii	"minwidth\000"
 18193      69647468 
 18193      00
 18194              	.LASF42:
 18195 00bc 73697A65 		.ascii	"sizetype\000"
 18195      74797065 
 18195      00
 18196              	.LASF43:
 18197 00c5 5F61746F 		.ascii	"_atoi\000"
 18197      6900
 18198              	.LASF22:
 18199 00cb 5F65746F 		.ascii	"_etoa\000"
 18199      6100
 18200              	.LASF15:
ARM GAS  C:\Users\pearlstl\AppData\Local\Temp\ccbpFzqf.s 			page 349


 18201 00d1 76615F6C 		.ascii	"va_list\000"
 18201      69737400 
 18202              	.LASF47:
 18203 00d9 666F726D 		.ascii	"format\000"
 18203      617400
 18204              	.LASF40:
 18205 00e0 66726163 		.ascii	"frac\000"
 18205      00
 18206              	.LASF25:
 18207 00e5 76616C75 		.ascii	"value\000"
 18207      6500
 18208              	.LASF13:
 18209 00eb 75696E74 		.ascii	"uintptr_t\000"
 18209      7074725F 
 18209      7400
 18210              	.LASF36:
 18211 00f5 73746172 		.ascii	"start_idx\000"
 18211      745F6964 
 18211      7800
 18212              	.LASF64:
 18213 00ff 6C765F73 		.ascii	"lv_snprintf\000"
 18213      6E707269 
 18213      6E746600 
 18214              	.LASF27:
 18215 010b 77696474 		.ascii	"width\000"
 18215      6800
 18216              	.LASF31:
 18217 0111 636F6E76 		.ascii	"conv\000"
 18217      00
 18218              	.LASF9:
 18219 0116 6C6F6E67 		.ascii	"long long int\000"
 18219      206C6F6E 
 18219      6720696E 
 18219      7400
 18220              	.LASF62:
 18221 0124 5F5F7661 		.ascii	"__va_list\000"
 18221      5F6C6973 
 18221      7400
 18222              	.LASF60:
 18223 012e 2E2E5C2E 		.ascii	"..\\..\\..\\lvgl\\version_6.1.2\\lvgl\\src\\lv_misc"
 18223      2E5C2E2E 
 18223      5C6C7667 
 18223      6C5C7665 
 18223      7273696F 
 18224 015a 5C6C765F 		.ascii	"\\lv_printf.c\000"
 18224      7072696E 
 18224      74662E63 
 18224      00
 18225              	.LASF63:
 18226 0167 5F6E746F 		.ascii	"_ntoa_format\000"
 18226      615F666F 
 18226      726D6174 
 18226      00
 18227              	.LASF37:
 18228 0174 5F66746F 		.ascii	"_ftoa\000"
 18228      6100
 18229              	.LASF30:
ARM GAS  C:\Users\pearlstl\AppData\Local\Temp\ccbpFzqf.s 			page 350


 18230 017a 6E656761 		.ascii	"negative\000"
 18230      74697665 
 18230      00
 18231              	.LASF53:
 18232 0183 5F6F7574 		.ascii	"_out_null\000"
 18232      5F6E756C 
 18232      6C00
 18233              	.LASF33:
 18234 018d 65787076 		.ascii	"expval\000"
 18234      616C00
 18235              	.LASF18:
 18236 0194 6F75745F 		.ascii	"out_fct_type\000"
 18236      6663745F 
 18236      74797065 
 18236      00
 18237              	.LASF17:
 18238 01a1 6C6F6E67 		.ascii	"long double\000"
 18238      20646F75 
 18238      626C6500 
 18239              	.LASF4:
 18240 01ad 756E7369 		.ascii	"unsigned char\000"
 18240      676E6564 
 18240      20636861 
 18240      7200
 18241              	.LASF55:
 18242 01bb 5F6E746F 		.ascii	"_ntoa_long\000"
 18242      615F6C6F 
 18242      6E6700
 18243              	.LASF3:
 18244 01c6 7369676E 		.ascii	"signed char\000"
 18244      65642063 
 18244      68617200 
 18245              	.LASF28:
 18246 01d2 666C6167 		.ascii	"flags\000"
 18246      7300
 18247              	.LASF1:
 18248 01d8 6C6F6E67 		.ascii	"long long unsigned int\000"
 18248      206C6F6E 
 18248      6720756E 
 18248      7369676E 
 18248      65642069 
 18249              	.LASF2:
 18250 01ef 756E7369 		.ascii	"unsigned int\000"
 18250      676E6564 
 18250      20696E74 
 18250      00
 18251              	.LASF24:
 18252 01fc 6D61786C 		.ascii	"maxlen\000"
 18252      656E00
 18253              	.LASF6:
 18254 0203 73686F72 		.ascii	"short unsigned int\000"
 18254      7420756E 
 18254      7369676E 
 18254      65642069 
 18254      6E7400
 18255              	.LASF44:
 18256 0216 5F737472 		.ascii	"_strnlen_s\000"
ARM GAS  C:\Users\pearlstl\AppData\Local\Temp\ccbpFzqf.s 			page 351


 18256      6E6C656E 
 18256      5F7300
 18257              	.LASF39:
 18258 0221 77686F6C 		.ascii	"whole\000"
 18258      6500
 18259              	.LASF29:
 18260 0227 5F5F6170 		.ascii	"__ap\000"
 18260      00
 18261              	.LASF19:
 18262 022c 63686172 		.ascii	"char\000"
 18262      00
 18263              	.LASF7:
 18264 0231 6C6F6E67 		.ascii	"long int\000"
 18264      20696E74 
 18264      00
 18265              	.LASF59:
 18266 023a 474E5520 		.ascii	"GNU C11 5.4.1 20160609 (release) [ARM/embedded-5-br"
 18266      43313120 
 18266      352E342E 
 18266      31203230 
 18266      31363036 
 18267 026d 616E6368 		.ascii	"anch revision 237715] -mcpu=cortex-m4 -mfloat-abi=s"
 18267      20726576 
 18267      6973696F 
 18267      6E203233 
 18267      37373135 
 18268 02a0 6F667466 		.ascii	"oftfp -mfpu=fpv4-sp-d16 -mthumb -g -O3 -ffunction-s"
 18268      70202D6D 
 18268      6670753D 
 18268      66707634 
 18268      2D73702D 
 18269 02d3 65637469 		.ascii	"ections -ffat-lto-objects\000"
 18269      6F6E7320 
 18269      2D666661 
 18269      742D6C74 
 18269      6F2D6F62 
 18270              	.LASF20:
 18271 02ed 5F426F6F 		.ascii	"_Bool\000"
 18271      6C00
 18272              	.LASF10:
 18273 02f3 5F5F7569 		.ascii	"__uint64_t\000"
 18273      6E743634 
 18273      5F7400
 18274              	.LASF21:
 18275 02fe 5F69735F 		.ascii	"_is_digit\000"
 18275      64696769 
 18275      7400
 18276              	.LASF23:
 18277 0308 62756666 		.ascii	"buffer\000"
 18277      657200
 18278              	.LASF46:
 18279 030f 5F76736E 		.ascii	"_vsnprintf\000"
 18279      7072696E 
 18279      746600
 18280              	.LASF65:
 18281 031a 6C765F76 		.ascii	"lv_vsnprintf\000"
 18281      736E7072 
ARM GAS  C:\Users\pearlstl\AppData\Local\Temp\ccbpFzqf.s 			page 352


 18281      696E7466 
 18281      00
 18282              	.LASF57:
 18283 0327 5F6E746F 		.ascii	"_ntoa_long_long\000"
 18283      615F6C6F 
 18283      6E675F6C 
 18283      6F6E6700 
 18284              	.LASF8:
 18285 0337 6C6F6E67 		.ascii	"long unsigned int\000"
 18285      20756E73 
 18285      69676E65 
 18285      6420696E 
 18285      7400
 18286              	.LASF0:
 18287 0349 646F7562 		.ascii	"double\000"
 18287      6C6500
 18288              	.LASF51:
 18289 0350 63686172 		.ascii	"character\000"
 18289      61637465 
 18289      7200
 18290              	.LASF54:
 18291 035a 5F6F7574 		.ascii	"_out_rev\000"
 18291      5F726576 
 18291      00
 18292              	.LASF11:
 18293 0363 5F5F7569 		.ascii	"__uintptr_t\000"
 18293      6E747074 
 18293      725F7400 
 18294              	.LASF41:
 18295 036f 636F756E 		.ascii	"count\000"
 18295      7400
 18296              	.LASF45:
 18297 0375 6D617873 		.ascii	"maxsize\000"
 18297      697A6500 
 18298              	.LASF26:
 18299 037d 70726563 		.ascii	"prec\000"
 18299      00
 18300              	.LASF35:
 18301 0382 66776964 		.ascii	"fwidth\000"
 18301      746800
 18302              	.LASF14:
 18303 0389 5F5F676E 		.ascii	"__gnuc_va_list\000"
 18303      75635F76 
 18303      615F6C69 
 18303      737400
 18304              	.LASF56:
 18305 0398 64696769 		.ascii	"digit\000"
 18305      7400
 18306              	.LASF50:
 18307 039e 69735F6C 		.ascii	"is_ll\000"
 18307      6C00
 18308              	.LASF49:
 18309 03a4 62617365 		.ascii	"base\000"
 18309      00
 18310              	.LASF58:
 18311 03a9 706F7731 		.ascii	"pow10\000"
 18311      3000
ARM GAS  C:\Users\pearlstl\AppData\Local\Temp\ccbpFzqf.s 			page 353


 18312              	.LASF48:
 18313 03af 70726563 		.ascii	"precision\000"
 18313      6973696F 
 18313      6E00
 18314              		.ident	"GCC: (GNU Tools for ARM Embedded Processors) 5.4.1 20160609 (release) [ARM/embedded-5-bran
