ARM GAS  C:\Users\pearlstl\AppData\Local\Temp\ccFIoKDo.s 			page 1


   1              		.syntax unified
   2              		.cpu cortex-m4
   3              		.eabi_attribute 27, 1
   4              		.fpu fpv4-sp-d16
   5              		.eabi_attribute 20, 1
   6              		.eabi_attribute 21, 1
   7              		.eabi_attribute 23, 3
   8              		.eabi_attribute 24, 1
   9              		.eabi_attribute 25, 1
  10              		.eabi_attribute 26, 1
  11              		.eabi_attribute 30, 2
  12              		.eabi_attribute 34, 1
  13              		.eabi_attribute 18, 4
  14              		.thumb
  15              		.syntax unified
  16              		.file	"lv_refr.c"
  17              		.text
  18              	.Ltext0:
  19              		.cfi_sections	.debug_frame
  20              		.section	.text.lv_refr_get_top_obj,"ax",%progbits
  21              		.align	2
  22              		.thumb
  23              		.thumb_func
  24              		.type	lv_refr_get_top_obj, %function
  25              	lv_refr_get_top_obj:
  26              	.LFB45:
  27              		.file 1 "..\\..\\..\\lvgl\\version_6.1.2\\lvgl\\src\\lv_core\\lv_refr.c"
   1:..\..\..\lvgl\version_6.1.2\lvgl\src\lv_core/lv_refr.c **** /**
   2:..\..\..\lvgl\version_6.1.2\lvgl\src\lv_core/lv_refr.c ****  * @file lv_refr.c
   3:..\..\..\lvgl\version_6.1.2\lvgl\src\lv_core/lv_refr.c ****  *
   4:..\..\..\lvgl\version_6.1.2\lvgl\src\lv_core/lv_refr.c ****  */
   5:..\..\..\lvgl\version_6.1.2\lvgl\src\lv_core/lv_refr.c **** 
   6:..\..\..\lvgl\version_6.1.2\lvgl\src\lv_core/lv_refr.c **** /*********************
   7:..\..\..\lvgl\version_6.1.2\lvgl\src\lv_core/lv_refr.c ****  *      INCLUDES
   8:..\..\..\lvgl\version_6.1.2\lvgl\src\lv_core/lv_refr.c ****  *********************/
   9:..\..\..\lvgl\version_6.1.2\lvgl\src\lv_core/lv_refr.c **** #include <stddef.h>
  10:..\..\..\lvgl\version_6.1.2\lvgl\src\lv_core/lv_refr.c **** #include "lv_refr.h"
  11:..\..\..\lvgl\version_6.1.2\lvgl\src\lv_core/lv_refr.c **** #include "lv_disp.h"
  12:..\..\..\lvgl\version_6.1.2\lvgl\src\lv_core/lv_refr.c **** #include "../lv_hal/lv_hal_tick.h"
  13:..\..\..\lvgl\version_6.1.2\lvgl\src\lv_core/lv_refr.c **** #include "../lv_hal/lv_hal_disp.h"
  14:..\..\..\lvgl\version_6.1.2\lvgl\src\lv_core/lv_refr.c **** #include "../lv_misc/lv_task.h"
  15:..\..\..\lvgl\version_6.1.2\lvgl\src\lv_core/lv_refr.c **** #include "../lv_misc/lv_mem.h"
  16:..\..\..\lvgl\version_6.1.2\lvgl\src\lv_core/lv_refr.c **** #include "../lv_misc/lv_gc.h"
  17:..\..\..\lvgl\version_6.1.2\lvgl\src\lv_core/lv_refr.c **** #include "../lv_draw/lv_draw.h"
  18:..\..\..\lvgl\version_6.1.2\lvgl\src\lv_core/lv_refr.c **** 
  19:..\..\..\lvgl\version_6.1.2\lvgl\src\lv_core/lv_refr.c **** #if defined(LV_GC_INCLUDE)
  20:..\..\..\lvgl\version_6.1.2\lvgl\src\lv_core/lv_refr.c **** #include LV_GC_INCLUDE
  21:..\..\..\lvgl\version_6.1.2\lvgl\src\lv_core/lv_refr.c **** #endif /* LV_ENABLE_GC */
  22:..\..\..\lvgl\version_6.1.2\lvgl\src\lv_core/lv_refr.c **** 
  23:..\..\..\lvgl\version_6.1.2\lvgl\src\lv_core/lv_refr.c **** /*********************
  24:..\..\..\lvgl\version_6.1.2\lvgl\src\lv_core/lv_refr.c ****  *      DEFINES
  25:..\..\..\lvgl\version_6.1.2\lvgl\src\lv_core/lv_refr.c ****  *********************/
  26:..\..\..\lvgl\version_6.1.2\lvgl\src\lv_core/lv_refr.c **** /* Draw translucent random colored areas on the invalidated (redrawn) areas*/
  27:..\..\..\lvgl\version_6.1.2\lvgl\src\lv_core/lv_refr.c **** #define MASK_AREA_DEBUG 0
  28:..\..\..\lvgl\version_6.1.2\lvgl\src\lv_core/lv_refr.c **** 
  29:..\..\..\lvgl\version_6.1.2\lvgl\src\lv_core/lv_refr.c **** /**********************
  30:..\..\..\lvgl\version_6.1.2\lvgl\src\lv_core/lv_refr.c ****  *      TYPEDEFS
ARM GAS  C:\Users\pearlstl\AppData\Local\Temp\ccFIoKDo.s 			page 2


  31:..\..\..\lvgl\version_6.1.2\lvgl\src\lv_core/lv_refr.c ****  **********************/
  32:..\..\..\lvgl\version_6.1.2\lvgl\src\lv_core/lv_refr.c **** 
  33:..\..\..\lvgl\version_6.1.2\lvgl\src\lv_core/lv_refr.c **** /**********************
  34:..\..\..\lvgl\version_6.1.2\lvgl\src\lv_core/lv_refr.c ****  *  STATIC PROTOTYPES
  35:..\..\..\lvgl\version_6.1.2\lvgl\src\lv_core/lv_refr.c ****  **********************/
  36:..\..\..\lvgl\version_6.1.2\lvgl\src\lv_core/lv_refr.c **** static void lv_refr_join_area(void);
  37:..\..\..\lvgl\version_6.1.2\lvgl\src\lv_core/lv_refr.c **** static void lv_refr_areas(void);
  38:..\..\..\lvgl\version_6.1.2\lvgl\src\lv_core/lv_refr.c **** static void lv_refr_area(const lv_area_t * area_p);
  39:..\..\..\lvgl\version_6.1.2\lvgl\src\lv_core/lv_refr.c **** static void lv_refr_area_part(const lv_area_t * area_p);
  40:..\..\..\lvgl\version_6.1.2\lvgl\src\lv_core/lv_refr.c **** static lv_obj_t * lv_refr_get_top_obj(const lv_area_t * area_p, lv_obj_t * obj);
  41:..\..\..\lvgl\version_6.1.2\lvgl\src\lv_core/lv_refr.c **** static void lv_refr_obj_and_children(lv_obj_t * top_p, const lv_area_t * mask_p);
  42:..\..\..\lvgl\version_6.1.2\lvgl\src\lv_core/lv_refr.c **** static void lv_refr_obj(lv_obj_t * obj, const lv_area_t * mask_ori_p);
  43:..\..\..\lvgl\version_6.1.2\lvgl\src\lv_core/lv_refr.c **** static void lv_refr_vdb_flush(void);
  44:..\..\..\lvgl\version_6.1.2\lvgl\src\lv_core/lv_refr.c **** 
  45:..\..\..\lvgl\version_6.1.2\lvgl\src\lv_core/lv_refr.c **** /**********************
  46:..\..\..\lvgl\version_6.1.2\lvgl\src\lv_core/lv_refr.c ****  *  STATIC VARIABLES
  47:..\..\..\lvgl\version_6.1.2\lvgl\src\lv_core/lv_refr.c ****  **********************/
  48:..\..\..\lvgl\version_6.1.2\lvgl\src\lv_core/lv_refr.c **** static uint32_t px_num;
  49:..\..\..\lvgl\version_6.1.2\lvgl\src\lv_core/lv_refr.c **** static lv_disp_t * disp_refr; /*Display being refreshed*/
  50:..\..\..\lvgl\version_6.1.2\lvgl\src\lv_core/lv_refr.c **** 
  51:..\..\..\lvgl\version_6.1.2\lvgl\src\lv_core/lv_refr.c **** /**********************
  52:..\..\..\lvgl\version_6.1.2\lvgl\src\lv_core/lv_refr.c ****  *      MACROS
  53:..\..\..\lvgl\version_6.1.2\lvgl\src\lv_core/lv_refr.c ****  **********************/
  54:..\..\..\lvgl\version_6.1.2\lvgl\src\lv_core/lv_refr.c **** 
  55:..\..\..\lvgl\version_6.1.2\lvgl\src\lv_core/lv_refr.c **** /**********************
  56:..\..\..\lvgl\version_6.1.2\lvgl\src\lv_core/lv_refr.c ****  *   GLOBAL FUNCTIONS
  57:..\..\..\lvgl\version_6.1.2\lvgl\src\lv_core/lv_refr.c ****  **********************/
  58:..\..\..\lvgl\version_6.1.2\lvgl\src\lv_core/lv_refr.c **** 
  59:..\..\..\lvgl\version_6.1.2\lvgl\src\lv_core/lv_refr.c **** /**
  60:..\..\..\lvgl\version_6.1.2\lvgl\src\lv_core/lv_refr.c ****  * Initialize the screen refresh subsystem
  61:..\..\..\lvgl\version_6.1.2\lvgl\src\lv_core/lv_refr.c ****  */
  62:..\..\..\lvgl\version_6.1.2\lvgl\src\lv_core/lv_refr.c **** void lv_refr_init(void)
  63:..\..\..\lvgl\version_6.1.2\lvgl\src\lv_core/lv_refr.c **** {
  64:..\..\..\lvgl\version_6.1.2\lvgl\src\lv_core/lv_refr.c ****     /*Nothing to do*/
  65:..\..\..\lvgl\version_6.1.2\lvgl\src\lv_core/lv_refr.c **** }
  66:..\..\..\lvgl\version_6.1.2\lvgl\src\lv_core/lv_refr.c **** 
  67:..\..\..\lvgl\version_6.1.2\lvgl\src\lv_core/lv_refr.c **** /**
  68:..\..\..\lvgl\version_6.1.2\lvgl\src\lv_core/lv_refr.c ****  * Redraw the invalidated areas now.
  69:..\..\..\lvgl\version_6.1.2\lvgl\src\lv_core/lv_refr.c ****  * Normally the redrawing is periodically executed in `lv_task_handler` but a long blocking process
  70:..\..\..\lvgl\version_6.1.2\lvgl\src\lv_core/lv_refr.c ****  * can prevent the call of `lv_task_handler`. In this case if the the GUI is updated in the process
  71:..\..\..\lvgl\version_6.1.2\lvgl\src\lv_core/lv_refr.c ****  * (e.g. progress bar) this function can be called when the screen should be updated.
  72:..\..\..\lvgl\version_6.1.2\lvgl\src\lv_core/lv_refr.c ****  * @param disp pointer to display to refresh. NULL to refresh all displays.
  73:..\..\..\lvgl\version_6.1.2\lvgl\src\lv_core/lv_refr.c ****  */
  74:..\..\..\lvgl\version_6.1.2\lvgl\src\lv_core/lv_refr.c **** void lv_refr_now(lv_disp_t * disp)
  75:..\..\..\lvgl\version_6.1.2\lvgl\src\lv_core/lv_refr.c **** {
  76:..\..\..\lvgl\version_6.1.2\lvgl\src\lv_core/lv_refr.c ****     if(disp) {
  77:..\..\..\lvgl\version_6.1.2\lvgl\src\lv_core/lv_refr.c ****         lv_disp_refr_task(disp->refr_task);
  78:..\..\..\lvgl\version_6.1.2\lvgl\src\lv_core/lv_refr.c ****     } else {
  79:..\..\..\lvgl\version_6.1.2\lvgl\src\lv_core/lv_refr.c ****         lv_disp_t * d;
  80:..\..\..\lvgl\version_6.1.2\lvgl\src\lv_core/lv_refr.c ****         d = lv_disp_get_next(NULL);
  81:..\..\..\lvgl\version_6.1.2\lvgl\src\lv_core/lv_refr.c ****         while(d) {
  82:..\..\..\lvgl\version_6.1.2\lvgl\src\lv_core/lv_refr.c ****             lv_disp_refr_task(d->refr_task);
  83:..\..\..\lvgl\version_6.1.2\lvgl\src\lv_core/lv_refr.c ****             d = lv_disp_get_next(d);
  84:..\..\..\lvgl\version_6.1.2\lvgl\src\lv_core/lv_refr.c ****         }
  85:..\..\..\lvgl\version_6.1.2\lvgl\src\lv_core/lv_refr.c ****     }
  86:..\..\..\lvgl\version_6.1.2\lvgl\src\lv_core/lv_refr.c **** }
  87:..\..\..\lvgl\version_6.1.2\lvgl\src\lv_core/lv_refr.c **** 
ARM GAS  C:\Users\pearlstl\AppData\Local\Temp\ccFIoKDo.s 			page 3


  88:..\..\..\lvgl\version_6.1.2\lvgl\src\lv_core/lv_refr.c **** /**
  89:..\..\..\lvgl\version_6.1.2\lvgl\src\lv_core/lv_refr.c ****  * Invalidate an area on display to redraw it
  90:..\..\..\lvgl\version_6.1.2\lvgl\src\lv_core/lv_refr.c ****  * @param area_p pointer to area which should be invalidated (NULL: delete the invalidated areas)
  91:..\..\..\lvgl\version_6.1.2\lvgl\src\lv_core/lv_refr.c ****  * @param disp pointer to display where the area should be invalidated (NULL can be used if there i
  92:..\..\..\lvgl\version_6.1.2\lvgl\src\lv_core/lv_refr.c ****  * only one display)
  93:..\..\..\lvgl\version_6.1.2\lvgl\src\lv_core/lv_refr.c ****  */
  94:..\..\..\lvgl\version_6.1.2\lvgl\src\lv_core/lv_refr.c **** void lv_inv_area(lv_disp_t * disp, const lv_area_t * area_p)
  95:..\..\..\lvgl\version_6.1.2\lvgl\src\lv_core/lv_refr.c **** {
  96:..\..\..\lvgl\version_6.1.2\lvgl\src\lv_core/lv_refr.c ****     if(!disp) disp = lv_disp_get_default();
  97:..\..\..\lvgl\version_6.1.2\lvgl\src\lv_core/lv_refr.c ****     if(!disp) return;
  98:..\..\..\lvgl\version_6.1.2\lvgl\src\lv_core/lv_refr.c **** 
  99:..\..\..\lvgl\version_6.1.2\lvgl\src\lv_core/lv_refr.c ****     /*Clear the invalidate buffer if the parameter is NULL*/
 100:..\..\..\lvgl\version_6.1.2\lvgl\src\lv_core/lv_refr.c ****     if(area_p == NULL) {
 101:..\..\..\lvgl\version_6.1.2\lvgl\src\lv_core/lv_refr.c ****         disp->inv_p = 0;
 102:..\..\..\lvgl\version_6.1.2\lvgl\src\lv_core/lv_refr.c ****         return;
 103:..\..\..\lvgl\version_6.1.2\lvgl\src\lv_core/lv_refr.c ****     }
 104:..\..\..\lvgl\version_6.1.2\lvgl\src\lv_core/lv_refr.c **** 
 105:..\..\..\lvgl\version_6.1.2\lvgl\src\lv_core/lv_refr.c ****     lv_area_t scr_area;
 106:..\..\..\lvgl\version_6.1.2\lvgl\src\lv_core/lv_refr.c ****     scr_area.x1 = 0;
 107:..\..\..\lvgl\version_6.1.2\lvgl\src\lv_core/lv_refr.c ****     scr_area.y1 = 0;
 108:..\..\..\lvgl\version_6.1.2\lvgl\src\lv_core/lv_refr.c ****     scr_area.x2 = lv_disp_get_hor_res(disp) - 1;
 109:..\..\..\lvgl\version_6.1.2\lvgl\src\lv_core/lv_refr.c ****     scr_area.y2 = lv_disp_get_ver_res(disp) - 1;
 110:..\..\..\lvgl\version_6.1.2\lvgl\src\lv_core/lv_refr.c **** 
 111:..\..\..\lvgl\version_6.1.2\lvgl\src\lv_core/lv_refr.c ****     lv_area_t com_area;
 112:..\..\..\lvgl\version_6.1.2\lvgl\src\lv_core/lv_refr.c ****     bool suc;
 113:..\..\..\lvgl\version_6.1.2\lvgl\src\lv_core/lv_refr.c **** 
 114:..\..\..\lvgl\version_6.1.2\lvgl\src\lv_core/lv_refr.c ****     suc = lv_area_intersect(&com_area, area_p, &scr_area);
 115:..\..\..\lvgl\version_6.1.2\lvgl\src\lv_core/lv_refr.c **** 
 116:..\..\..\lvgl\version_6.1.2\lvgl\src\lv_core/lv_refr.c ****     /*The area is truncated to the screen*/
 117:..\..\..\lvgl\version_6.1.2\lvgl\src\lv_core/lv_refr.c ****     if(suc != false) {
 118:..\..\..\lvgl\version_6.1.2\lvgl\src\lv_core/lv_refr.c ****         if(disp->driver.rounder_cb) disp->driver.rounder_cb(&disp->driver, &com_area);
 119:..\..\..\lvgl\version_6.1.2\lvgl\src\lv_core/lv_refr.c **** 
 120:..\..\..\lvgl\version_6.1.2\lvgl\src\lv_core/lv_refr.c ****         /*Save only if this area is not in one of the saved areas*/
 121:..\..\..\lvgl\version_6.1.2\lvgl\src\lv_core/lv_refr.c ****         uint16_t i;
 122:..\..\..\lvgl\version_6.1.2\lvgl\src\lv_core/lv_refr.c ****         for(i = 0; i < disp->inv_p; i++) {
 123:..\..\..\lvgl\version_6.1.2\lvgl\src\lv_core/lv_refr.c ****             if(lv_area_is_in(&com_area, &disp->inv_areas[i]) != false) return;
 124:..\..\..\lvgl\version_6.1.2\lvgl\src\lv_core/lv_refr.c ****         }
 125:..\..\..\lvgl\version_6.1.2\lvgl\src\lv_core/lv_refr.c **** 
 126:..\..\..\lvgl\version_6.1.2\lvgl\src\lv_core/lv_refr.c ****         /*Save the area*/
 127:..\..\..\lvgl\version_6.1.2\lvgl\src\lv_core/lv_refr.c ****         if(disp->inv_p < LV_INV_BUF_SIZE) {
 128:..\..\..\lvgl\version_6.1.2\lvgl\src\lv_core/lv_refr.c ****             lv_area_copy(&disp->inv_areas[disp->inv_p], &com_area);
 129:..\..\..\lvgl\version_6.1.2\lvgl\src\lv_core/lv_refr.c ****         } else { /*If no place for the area add the screen*/
 130:..\..\..\lvgl\version_6.1.2\lvgl\src\lv_core/lv_refr.c ****             disp->inv_p = 0;
 131:..\..\..\lvgl\version_6.1.2\lvgl\src\lv_core/lv_refr.c ****             lv_area_copy(&disp->inv_areas[disp->inv_p], &scr_area);
 132:..\..\..\lvgl\version_6.1.2\lvgl\src\lv_core/lv_refr.c ****         }
 133:..\..\..\lvgl\version_6.1.2\lvgl\src\lv_core/lv_refr.c ****         disp->inv_p++;
 134:..\..\..\lvgl\version_6.1.2\lvgl\src\lv_core/lv_refr.c ****     }
 135:..\..\..\lvgl\version_6.1.2\lvgl\src\lv_core/lv_refr.c **** }
 136:..\..\..\lvgl\version_6.1.2\lvgl\src\lv_core/lv_refr.c **** 
 137:..\..\..\lvgl\version_6.1.2\lvgl\src\lv_core/lv_refr.c **** /**
 138:..\..\..\lvgl\version_6.1.2\lvgl\src\lv_core/lv_refr.c ****  * Get the display which is being refreshed
 139:..\..\..\lvgl\version_6.1.2\lvgl\src\lv_core/lv_refr.c ****  * @return the display being refreshed
 140:..\..\..\lvgl\version_6.1.2\lvgl\src\lv_core/lv_refr.c ****  */
 141:..\..\..\lvgl\version_6.1.2\lvgl\src\lv_core/lv_refr.c **** lv_disp_t * lv_refr_get_disp_refreshing(void)
 142:..\..\..\lvgl\version_6.1.2\lvgl\src\lv_core/lv_refr.c **** {
 143:..\..\..\lvgl\version_6.1.2\lvgl\src\lv_core/lv_refr.c ****     return disp_refr;
 144:..\..\..\lvgl\version_6.1.2\lvgl\src\lv_core/lv_refr.c **** }
ARM GAS  C:\Users\pearlstl\AppData\Local\Temp\ccFIoKDo.s 			page 4


 145:..\..\..\lvgl\version_6.1.2\lvgl\src\lv_core/lv_refr.c **** 
 146:..\..\..\lvgl\version_6.1.2\lvgl\src\lv_core/lv_refr.c **** /**
 147:..\..\..\lvgl\version_6.1.2\lvgl\src\lv_core/lv_refr.c ****  * Set the display which is being refreshed.
 148:..\..\..\lvgl\version_6.1.2\lvgl\src\lv_core/lv_refr.c ****  * It shouldn1t be used directly by the user.
 149:..\..\..\lvgl\version_6.1.2\lvgl\src\lv_core/lv_refr.c ****  * It can be used to trick the drawing functions about there is an active display.
 150:..\..\..\lvgl\version_6.1.2\lvgl\src\lv_core/lv_refr.c ****  * @param the display being refreshed
 151:..\..\..\lvgl\version_6.1.2\lvgl\src\lv_core/lv_refr.c ****  */
 152:..\..\..\lvgl\version_6.1.2\lvgl\src\lv_core/lv_refr.c **** void lv_refr_set_disp_refreshing(lv_disp_t * disp)
 153:..\..\..\lvgl\version_6.1.2\lvgl\src\lv_core/lv_refr.c **** {
 154:..\..\..\lvgl\version_6.1.2\lvgl\src\lv_core/lv_refr.c ****     disp_refr = disp;
 155:..\..\..\lvgl\version_6.1.2\lvgl\src\lv_core/lv_refr.c **** }
 156:..\..\..\lvgl\version_6.1.2\lvgl\src\lv_core/lv_refr.c **** 
 157:..\..\..\lvgl\version_6.1.2\lvgl\src\lv_core/lv_refr.c **** /**
 158:..\..\..\lvgl\version_6.1.2\lvgl\src\lv_core/lv_refr.c ****  * Called periodically to handle the refreshing
 159:..\..\..\lvgl\version_6.1.2\lvgl\src\lv_core/lv_refr.c ****  * @param task pointer to the task itself
 160:..\..\..\lvgl\version_6.1.2\lvgl\src\lv_core/lv_refr.c ****  */
 161:..\..\..\lvgl\version_6.1.2\lvgl\src\lv_core/lv_refr.c **** void lv_disp_refr_task(lv_task_t * task)
 162:..\..\..\lvgl\version_6.1.2\lvgl\src\lv_core/lv_refr.c **** {
 163:..\..\..\lvgl\version_6.1.2\lvgl\src\lv_core/lv_refr.c ****     LV_LOG_TRACE("lv_refr_task: started");
 164:..\..\..\lvgl\version_6.1.2\lvgl\src\lv_core/lv_refr.c **** 
 165:..\..\..\lvgl\version_6.1.2\lvgl\src\lv_core/lv_refr.c ****     uint32_t start = lv_tick_get();
 166:..\..\..\lvgl\version_6.1.2\lvgl\src\lv_core/lv_refr.c **** 
 167:..\..\..\lvgl\version_6.1.2\lvgl\src\lv_core/lv_refr.c ****     disp_refr = task->user_data;
 168:..\..\..\lvgl\version_6.1.2\lvgl\src\lv_core/lv_refr.c **** 
 169:..\..\..\lvgl\version_6.1.2\lvgl\src\lv_core/lv_refr.c ****     lv_refr_join_area();
 170:..\..\..\lvgl\version_6.1.2\lvgl\src\lv_core/lv_refr.c **** 
 171:..\..\..\lvgl\version_6.1.2\lvgl\src\lv_core/lv_refr.c ****     lv_refr_areas();
 172:..\..\..\lvgl\version_6.1.2\lvgl\src\lv_core/lv_refr.c **** 
 173:..\..\..\lvgl\version_6.1.2\lvgl\src\lv_core/lv_refr.c ****     /*If refresh happened ...*/
 174:..\..\..\lvgl\version_6.1.2\lvgl\src\lv_core/lv_refr.c ****     if(disp_refr->inv_p != 0) {
 175:..\..\..\lvgl\version_6.1.2\lvgl\src\lv_core/lv_refr.c ****         /*In true double buffered mode copy the refreshed areas to the new VDB to keep it up to
 176:..\..\..\lvgl\version_6.1.2\lvgl\src\lv_core/lv_refr.c ****          * date*/
 177:..\..\..\lvgl\version_6.1.2\lvgl\src\lv_core/lv_refr.c ****         if(lv_disp_is_true_double_buf(disp_refr)) {
 178:..\..\..\lvgl\version_6.1.2\lvgl\src\lv_core/lv_refr.c ****             lv_disp_buf_t * vdb = lv_disp_get_buf(disp_refr);
 179:..\..\..\lvgl\version_6.1.2\lvgl\src\lv_core/lv_refr.c **** 
 180:..\..\..\lvgl\version_6.1.2\lvgl\src\lv_core/lv_refr.c ****             /*Flush the content of the VDB*/
 181:..\..\..\lvgl\version_6.1.2\lvgl\src\lv_core/lv_refr.c ****             lv_refr_vdb_flush();
 182:..\..\..\lvgl\version_6.1.2\lvgl\src\lv_core/lv_refr.c **** 
 183:..\..\..\lvgl\version_6.1.2\lvgl\src\lv_core/lv_refr.c ****             /* With true double buffering the flushing should be only the address change of the
 184:..\..\..\lvgl\version_6.1.2\lvgl\src\lv_core/lv_refr.c ****              * current frame buffer. Wait until the address change is ready and copy the changed
 185:..\..\..\lvgl\version_6.1.2\lvgl\src\lv_core/lv_refr.c ****              * content to the other frame buffer (new active VDB) to keep the buffers synchronized*
 186:..\..\..\lvgl\version_6.1.2\lvgl\src\lv_core/lv_refr.c ****             while(vdb->flushing)
 187:..\..\..\lvgl\version_6.1.2\lvgl\src\lv_core/lv_refr.c ****                 ;
 188:..\..\..\lvgl\version_6.1.2\lvgl\src\lv_core/lv_refr.c **** 
 189:..\..\..\lvgl\version_6.1.2\lvgl\src\lv_core/lv_refr.c ****             uint8_t * buf_act = (uint8_t *)vdb->buf_act;
 190:..\..\..\lvgl\version_6.1.2\lvgl\src\lv_core/lv_refr.c ****             uint8_t * buf_ina = (uint8_t *)vdb->buf_act == vdb->buf1 ? vdb->buf2 : vdb->buf1;
 191:..\..\..\lvgl\version_6.1.2\lvgl\src\lv_core/lv_refr.c **** 
 192:..\..\..\lvgl\version_6.1.2\lvgl\src\lv_core/lv_refr.c ****             lv_coord_t hres = lv_disp_get_hor_res(disp_refr);
 193:..\..\..\lvgl\version_6.1.2\lvgl\src\lv_core/lv_refr.c ****             uint16_t a;
 194:..\..\..\lvgl\version_6.1.2\lvgl\src\lv_core/lv_refr.c ****             for(a = 0; a < disp_refr->inv_p; a++) {
 195:..\..\..\lvgl\version_6.1.2\lvgl\src\lv_core/lv_refr.c ****                 if(disp_refr->inv_area_joined[a] == 0) {
 196:..\..\..\lvgl\version_6.1.2\lvgl\src\lv_core/lv_refr.c ****                     lv_coord_t y;
 197:..\..\..\lvgl\version_6.1.2\lvgl\src\lv_core/lv_refr.c ****                     uint32_t start_offs =
 198:..\..\..\lvgl\version_6.1.2\lvgl\src\lv_core/lv_refr.c ****                         (hres * disp_refr->inv_areas[a].y1 + disp_refr->inv_areas[a].x1) * sizeof(l
 199:..\..\..\lvgl\version_6.1.2\lvgl\src\lv_core/lv_refr.c ****                     uint32_t line_length = lv_area_get_width(&disp_refr->inv_areas[a]) * sizeof(lv_
 200:..\..\..\lvgl\version_6.1.2\lvgl\src\lv_core/lv_refr.c **** 
 201:..\..\..\lvgl\version_6.1.2\lvgl\src\lv_core/lv_refr.c ****                     for(y = disp_refr->inv_areas[a].y1; y <= disp_refr->inv_areas[a].y2; y++) {
ARM GAS  C:\Users\pearlstl\AppData\Local\Temp\ccFIoKDo.s 			page 5


 202:..\..\..\lvgl\version_6.1.2\lvgl\src\lv_core/lv_refr.c ****                         memcpy(buf_act + start_offs, buf_ina + start_offs, line_length);
 203:..\..\..\lvgl\version_6.1.2\lvgl\src\lv_core/lv_refr.c ****                         start_offs += hres * sizeof(lv_color_t);
 204:..\..\..\lvgl\version_6.1.2\lvgl\src\lv_core/lv_refr.c ****                     }
 205:..\..\..\lvgl\version_6.1.2\lvgl\src\lv_core/lv_refr.c ****                 }
 206:..\..\..\lvgl\version_6.1.2\lvgl\src\lv_core/lv_refr.c ****             }
 207:..\..\..\lvgl\version_6.1.2\lvgl\src\lv_core/lv_refr.c ****         } /*End of true double buffer handling*/
 208:..\..\..\lvgl\version_6.1.2\lvgl\src\lv_core/lv_refr.c **** 
 209:..\..\..\lvgl\version_6.1.2\lvgl\src\lv_core/lv_refr.c ****         /*Clean up*/
 210:..\..\..\lvgl\version_6.1.2\lvgl\src\lv_core/lv_refr.c ****         memset(disp_refr->inv_areas, 0, sizeof(disp_refr->inv_areas));
 211:..\..\..\lvgl\version_6.1.2\lvgl\src\lv_core/lv_refr.c ****         memset(disp_refr->inv_area_joined, 0, sizeof(disp_refr->inv_area_joined));
 212:..\..\..\lvgl\version_6.1.2\lvgl\src\lv_core/lv_refr.c ****         disp_refr->inv_p = 0;
 213:..\..\..\lvgl\version_6.1.2\lvgl\src\lv_core/lv_refr.c **** 
 214:..\..\..\lvgl\version_6.1.2\lvgl\src\lv_core/lv_refr.c ****         /*Call monitor cb if present*/
 215:..\..\..\lvgl\version_6.1.2\lvgl\src\lv_core/lv_refr.c ****         if(disp_refr->driver.monitor_cb) {
 216:..\..\..\lvgl\version_6.1.2\lvgl\src\lv_core/lv_refr.c ****             disp_refr->driver.monitor_cb(&disp_refr->driver, lv_tick_elaps(start), px_num);
 217:..\..\..\lvgl\version_6.1.2\lvgl\src\lv_core/lv_refr.c ****         }
 218:..\..\..\lvgl\version_6.1.2\lvgl\src\lv_core/lv_refr.c ****     }
 219:..\..\..\lvgl\version_6.1.2\lvgl\src\lv_core/lv_refr.c **** 
 220:..\..\..\lvgl\version_6.1.2\lvgl\src\lv_core/lv_refr.c ****     lv_draw_free_buf();
 221:..\..\..\lvgl\version_6.1.2\lvgl\src\lv_core/lv_refr.c **** 
 222:..\..\..\lvgl\version_6.1.2\lvgl\src\lv_core/lv_refr.c ****     LV_LOG_TRACE("lv_refr_task: ready");
 223:..\..\..\lvgl\version_6.1.2\lvgl\src\lv_core/lv_refr.c **** }
 224:..\..\..\lvgl\version_6.1.2\lvgl\src\lv_core/lv_refr.c **** 
 225:..\..\..\lvgl\version_6.1.2\lvgl\src\lv_core/lv_refr.c **** /**********************
 226:..\..\..\lvgl\version_6.1.2\lvgl\src\lv_core/lv_refr.c ****  *   STATIC FUNCTIONS
 227:..\..\..\lvgl\version_6.1.2\lvgl\src\lv_core/lv_refr.c ****  **********************/
 228:..\..\..\lvgl\version_6.1.2\lvgl\src\lv_core/lv_refr.c **** 
 229:..\..\..\lvgl\version_6.1.2\lvgl\src\lv_core/lv_refr.c **** /**
 230:..\..\..\lvgl\version_6.1.2\lvgl\src\lv_core/lv_refr.c ****  * Join the areas which has got common parts
 231:..\..\..\lvgl\version_6.1.2\lvgl\src\lv_core/lv_refr.c ****  */
 232:..\..\..\lvgl\version_6.1.2\lvgl\src\lv_core/lv_refr.c **** static void lv_refr_join_area(void)
 233:..\..\..\lvgl\version_6.1.2\lvgl\src\lv_core/lv_refr.c **** {
 234:..\..\..\lvgl\version_6.1.2\lvgl\src\lv_core/lv_refr.c ****     uint32_t join_from;
 235:..\..\..\lvgl\version_6.1.2\lvgl\src\lv_core/lv_refr.c ****     uint32_t join_in;
 236:..\..\..\lvgl\version_6.1.2\lvgl\src\lv_core/lv_refr.c ****     lv_area_t joined_area;
 237:..\..\..\lvgl\version_6.1.2\lvgl\src\lv_core/lv_refr.c ****     for(join_in = 0; join_in < disp_refr->inv_p; join_in++) {
 238:..\..\..\lvgl\version_6.1.2\lvgl\src\lv_core/lv_refr.c ****         if(disp_refr->inv_area_joined[join_in] != 0) continue;
 239:..\..\..\lvgl\version_6.1.2\lvgl\src\lv_core/lv_refr.c **** 
 240:..\..\..\lvgl\version_6.1.2\lvgl\src\lv_core/lv_refr.c ****         /*Check all areas to join them in 'join_in'*/
 241:..\..\..\lvgl\version_6.1.2\lvgl\src\lv_core/lv_refr.c ****         for(join_from = 0; join_from < disp_refr->inv_p; join_from++) {
 242:..\..\..\lvgl\version_6.1.2\lvgl\src\lv_core/lv_refr.c ****             /*Handle only unjoined areas and ignore itself*/
 243:..\..\..\lvgl\version_6.1.2\lvgl\src\lv_core/lv_refr.c ****             if(disp_refr->inv_area_joined[join_from] != 0 || join_in == join_from) {
 244:..\..\..\lvgl\version_6.1.2\lvgl\src\lv_core/lv_refr.c ****                 continue;
 245:..\..\..\lvgl\version_6.1.2\lvgl\src\lv_core/lv_refr.c ****             }
 246:..\..\..\lvgl\version_6.1.2\lvgl\src\lv_core/lv_refr.c **** 
 247:..\..\..\lvgl\version_6.1.2\lvgl\src\lv_core/lv_refr.c ****             /*Check if the areas are on each other*/
 248:..\..\..\lvgl\version_6.1.2\lvgl\src\lv_core/lv_refr.c ****             if(lv_area_is_on(&disp_refr->inv_areas[join_in], &disp_refr->inv_areas[join_from]) == f
 249:..\..\..\lvgl\version_6.1.2\lvgl\src\lv_core/lv_refr.c ****                 continue;
 250:..\..\..\lvgl\version_6.1.2\lvgl\src\lv_core/lv_refr.c ****             }
 251:..\..\..\lvgl\version_6.1.2\lvgl\src\lv_core/lv_refr.c **** 
 252:..\..\..\lvgl\version_6.1.2\lvgl\src\lv_core/lv_refr.c ****             lv_area_join(&joined_area, &disp_refr->inv_areas[join_in], &disp_refr->inv_areas[join_f
 253:..\..\..\lvgl\version_6.1.2\lvgl\src\lv_core/lv_refr.c **** 
 254:..\..\..\lvgl\version_6.1.2\lvgl\src\lv_core/lv_refr.c ****             /*Join two area only if the joined area size is smaller*/
 255:..\..\..\lvgl\version_6.1.2\lvgl\src\lv_core/lv_refr.c ****             if(lv_area_get_size(&joined_area) < (lv_area_get_size(&disp_refr->inv_areas[join_in]) +
 256:..\..\..\lvgl\version_6.1.2\lvgl\src\lv_core/lv_refr.c ****                                                  lv_area_get_size(&disp_refr->inv_areas[join_from])
 257:..\..\..\lvgl\version_6.1.2\lvgl\src\lv_core/lv_refr.c ****                 lv_area_copy(&disp_refr->inv_areas[join_in], &joined_area);
 258:..\..\..\lvgl\version_6.1.2\lvgl\src\lv_core/lv_refr.c **** 
ARM GAS  C:\Users\pearlstl\AppData\Local\Temp\ccFIoKDo.s 			page 6


 259:..\..\..\lvgl\version_6.1.2\lvgl\src\lv_core/lv_refr.c ****                 /*Mark 'join_form' is joined into 'join_in'*/
 260:..\..\..\lvgl\version_6.1.2\lvgl\src\lv_core/lv_refr.c ****                 disp_refr->inv_area_joined[join_from] = 1;
 261:..\..\..\lvgl\version_6.1.2\lvgl\src\lv_core/lv_refr.c ****             }
 262:..\..\..\lvgl\version_6.1.2\lvgl\src\lv_core/lv_refr.c ****         }
 263:..\..\..\lvgl\version_6.1.2\lvgl\src\lv_core/lv_refr.c ****     }
 264:..\..\..\lvgl\version_6.1.2\lvgl\src\lv_core/lv_refr.c **** }
 265:..\..\..\lvgl\version_6.1.2\lvgl\src\lv_core/lv_refr.c **** 
 266:..\..\..\lvgl\version_6.1.2\lvgl\src\lv_core/lv_refr.c **** /**
 267:..\..\..\lvgl\version_6.1.2\lvgl\src\lv_core/lv_refr.c ****  * Refresh the joined areas
 268:..\..\..\lvgl\version_6.1.2\lvgl\src\lv_core/lv_refr.c ****  */
 269:..\..\..\lvgl\version_6.1.2\lvgl\src\lv_core/lv_refr.c **** static void lv_refr_areas(void)
 270:..\..\..\lvgl\version_6.1.2\lvgl\src\lv_core/lv_refr.c **** {
 271:..\..\..\lvgl\version_6.1.2\lvgl\src\lv_core/lv_refr.c ****     px_num = 0;
 272:..\..\..\lvgl\version_6.1.2\lvgl\src\lv_core/lv_refr.c ****     uint32_t i;
 273:..\..\..\lvgl\version_6.1.2\lvgl\src\lv_core/lv_refr.c **** 
 274:..\..\..\lvgl\version_6.1.2\lvgl\src\lv_core/lv_refr.c ****     for(i = 0; i < disp_refr->inv_p; i++) {
 275:..\..\..\lvgl\version_6.1.2\lvgl\src\lv_core/lv_refr.c ****         /*Refresh the unjoined areas*/
 276:..\..\..\lvgl\version_6.1.2\lvgl\src\lv_core/lv_refr.c ****         if(disp_refr->inv_area_joined[i] == 0) {
 277:..\..\..\lvgl\version_6.1.2\lvgl\src\lv_core/lv_refr.c **** 
 278:..\..\..\lvgl\version_6.1.2\lvgl\src\lv_core/lv_refr.c ****             lv_refr_area(&disp_refr->inv_areas[i]);
 279:..\..\..\lvgl\version_6.1.2\lvgl\src\lv_core/lv_refr.c **** 
 280:..\..\..\lvgl\version_6.1.2\lvgl\src\lv_core/lv_refr.c ****             if(disp_refr->driver.monitor_cb) px_num += lv_area_get_size(&disp_refr->inv_areas[i]);
 281:..\..\..\lvgl\version_6.1.2\lvgl\src\lv_core/lv_refr.c ****         }
 282:..\..\..\lvgl\version_6.1.2\lvgl\src\lv_core/lv_refr.c ****     }
 283:..\..\..\lvgl\version_6.1.2\lvgl\src\lv_core/lv_refr.c **** }
 284:..\..\..\lvgl\version_6.1.2\lvgl\src\lv_core/lv_refr.c **** 
 285:..\..\..\lvgl\version_6.1.2\lvgl\src\lv_core/lv_refr.c **** /**
 286:..\..\..\lvgl\version_6.1.2\lvgl\src\lv_core/lv_refr.c ****  * Refresh an area if there is Virtual Display Buffer
 287:..\..\..\lvgl\version_6.1.2\lvgl\src\lv_core/lv_refr.c ****  * @param area_p  pointer to an area to refresh
 288:..\..\..\lvgl\version_6.1.2\lvgl\src\lv_core/lv_refr.c ****  */
 289:..\..\..\lvgl\version_6.1.2\lvgl\src\lv_core/lv_refr.c **** static void lv_refr_area(const lv_area_t * area_p)
 290:..\..\..\lvgl\version_6.1.2\lvgl\src\lv_core/lv_refr.c **** {
 291:..\..\..\lvgl\version_6.1.2\lvgl\src\lv_core/lv_refr.c ****     /*True double buffering: there are two screen sized buffers. Just redraw directly into a
 292:..\..\..\lvgl\version_6.1.2\lvgl\src\lv_core/lv_refr.c ****      * buffer*/
 293:..\..\..\lvgl\version_6.1.2\lvgl\src\lv_core/lv_refr.c ****     if(lv_disp_is_true_double_buf(disp_refr)) {
 294:..\..\..\lvgl\version_6.1.2\lvgl\src\lv_core/lv_refr.c ****         lv_disp_buf_t * vdb = lv_disp_get_buf(disp_refr);
 295:..\..\..\lvgl\version_6.1.2\lvgl\src\lv_core/lv_refr.c ****         vdb->area.x1        = 0;
 296:..\..\..\lvgl\version_6.1.2\lvgl\src\lv_core/lv_refr.c ****         vdb->area.x2        = lv_disp_get_hor_res(disp_refr) - 1;
 297:..\..\..\lvgl\version_6.1.2\lvgl\src\lv_core/lv_refr.c ****         vdb->area.y1        = 0;
 298:..\..\..\lvgl\version_6.1.2\lvgl\src\lv_core/lv_refr.c ****         vdb->area.y2        = lv_disp_get_ver_res(disp_refr) - 1;
 299:..\..\..\lvgl\version_6.1.2\lvgl\src\lv_core/lv_refr.c ****         lv_refr_area_part(area_p);
 300:..\..\..\lvgl\version_6.1.2\lvgl\src\lv_core/lv_refr.c ****     }
 301:..\..\..\lvgl\version_6.1.2\lvgl\src\lv_core/lv_refr.c ****     /*The buffer is smaller: refresh the area in parts*/
 302:..\..\..\lvgl\version_6.1.2\lvgl\src\lv_core/lv_refr.c ****     else {
 303:..\..\..\lvgl\version_6.1.2\lvgl\src\lv_core/lv_refr.c ****         lv_disp_buf_t * vdb = lv_disp_get_buf(disp_refr);
 304:..\..\..\lvgl\version_6.1.2\lvgl\src\lv_core/lv_refr.c ****         /*Calculate the max row num*/
 305:..\..\..\lvgl\version_6.1.2\lvgl\src\lv_core/lv_refr.c ****         lv_coord_t w = lv_area_get_width(area_p);
 306:..\..\..\lvgl\version_6.1.2\lvgl\src\lv_core/lv_refr.c ****         lv_coord_t h = lv_area_get_height(area_p);
 307:..\..\..\lvgl\version_6.1.2\lvgl\src\lv_core/lv_refr.c ****         lv_coord_t y2 =
 308:..\..\..\lvgl\version_6.1.2\lvgl\src\lv_core/lv_refr.c ****             area_p->y2 >= lv_disp_get_ver_res(disp_refr) ? y2 = lv_disp_get_ver_res(disp_refr) - 1 
 309:..\..\..\lvgl\version_6.1.2\lvgl\src\lv_core/lv_refr.c **** 
 310:..\..\..\lvgl\version_6.1.2\lvgl\src\lv_core/lv_refr.c ****         int32_t max_row = (uint32_t)vdb->size / w;
 311:..\..\..\lvgl\version_6.1.2\lvgl\src\lv_core/lv_refr.c **** 
 312:..\..\..\lvgl\version_6.1.2\lvgl\src\lv_core/lv_refr.c ****         if(max_row > h) max_row = h;
 313:..\..\..\lvgl\version_6.1.2\lvgl\src\lv_core/lv_refr.c **** 
 314:..\..\..\lvgl\version_6.1.2\lvgl\src\lv_core/lv_refr.c ****         /*Round down the lines of VDB if rounding is added*/
 315:..\..\..\lvgl\version_6.1.2\lvgl\src\lv_core/lv_refr.c ****         if(disp_refr->driver.rounder_cb) {
ARM GAS  C:\Users\pearlstl\AppData\Local\Temp\ccFIoKDo.s 			page 7


 316:..\..\..\lvgl\version_6.1.2\lvgl\src\lv_core/lv_refr.c ****             lv_area_t tmp;
 317:..\..\..\lvgl\version_6.1.2\lvgl\src\lv_core/lv_refr.c ****             tmp.x1 = 0;
 318:..\..\..\lvgl\version_6.1.2\lvgl\src\lv_core/lv_refr.c ****             tmp.x2 = 0;
 319:..\..\..\lvgl\version_6.1.2\lvgl\src\lv_core/lv_refr.c ****             tmp.y1 = 0;
 320:..\..\..\lvgl\version_6.1.2\lvgl\src\lv_core/lv_refr.c **** 
 321:..\..\..\lvgl\version_6.1.2\lvgl\src\lv_core/lv_refr.c ****             lv_coord_t h_tmp = max_row;
 322:..\..\..\lvgl\version_6.1.2\lvgl\src\lv_core/lv_refr.c ****             do {
 323:..\..\..\lvgl\version_6.1.2\lvgl\src\lv_core/lv_refr.c ****                 tmp.y2 = h_tmp - 1;
 324:..\..\..\lvgl\version_6.1.2\lvgl\src\lv_core/lv_refr.c ****                 disp_refr->driver.rounder_cb(&disp_refr->driver, &tmp);
 325:..\..\..\lvgl\version_6.1.2\lvgl\src\lv_core/lv_refr.c **** 
 326:..\..\..\lvgl\version_6.1.2\lvgl\src\lv_core/lv_refr.c ****                 /*If this height fits into `max_row` then fine*/
 327:..\..\..\lvgl\version_6.1.2\lvgl\src\lv_core/lv_refr.c ****                 if(lv_area_get_height(&tmp) <= max_row) break;
 328:..\..\..\lvgl\version_6.1.2\lvgl\src\lv_core/lv_refr.c **** 
 329:..\..\..\lvgl\version_6.1.2\lvgl\src\lv_core/lv_refr.c ****                 /*Decrement the height of the area until it fits into `max_row` after rounding*/
 330:..\..\..\lvgl\version_6.1.2\lvgl\src\lv_core/lv_refr.c ****                 h_tmp--;
 331:..\..\..\lvgl\version_6.1.2\lvgl\src\lv_core/lv_refr.c ****             } while(h_tmp > 0);
 332:..\..\..\lvgl\version_6.1.2\lvgl\src\lv_core/lv_refr.c **** 
 333:..\..\..\lvgl\version_6.1.2\lvgl\src\lv_core/lv_refr.c ****             if(h_tmp <= 0) {
 334:..\..\..\lvgl\version_6.1.2\lvgl\src\lv_core/lv_refr.c ****                 LV_LOG_WARN("Can't set VDB height using the round function. (Wrong round_cb or to "
 335:..\..\..\lvgl\version_6.1.2\lvgl\src\lv_core/lv_refr.c ****                             "small VDB)");
 336:..\..\..\lvgl\version_6.1.2\lvgl\src\lv_core/lv_refr.c ****                 return;
 337:..\..\..\lvgl\version_6.1.2\lvgl\src\lv_core/lv_refr.c ****             } else {
 338:..\..\..\lvgl\version_6.1.2\lvgl\src\lv_core/lv_refr.c ****                 max_row = tmp.y2 + 1;
 339:..\..\..\lvgl\version_6.1.2\lvgl\src\lv_core/lv_refr.c ****             }
 340:..\..\..\lvgl\version_6.1.2\lvgl\src\lv_core/lv_refr.c ****         }
 341:..\..\..\lvgl\version_6.1.2\lvgl\src\lv_core/lv_refr.c **** 
 342:..\..\..\lvgl\version_6.1.2\lvgl\src\lv_core/lv_refr.c ****         /*Always use the full row*/
 343:..\..\..\lvgl\version_6.1.2\lvgl\src\lv_core/lv_refr.c ****         lv_coord_t row;
 344:..\..\..\lvgl\version_6.1.2\lvgl\src\lv_core/lv_refr.c ****         lv_coord_t row_last = 0;
 345:..\..\..\lvgl\version_6.1.2\lvgl\src\lv_core/lv_refr.c ****         for(row = area_p->y1; row + max_row - 1 <= y2; row += max_row) {
 346:..\..\..\lvgl\version_6.1.2\lvgl\src\lv_core/lv_refr.c ****             /*Calc. the next y coordinates of VDB*/
 347:..\..\..\lvgl\version_6.1.2\lvgl\src\lv_core/lv_refr.c ****             vdb->area.x1 = area_p->x1;
 348:..\..\..\lvgl\version_6.1.2\lvgl\src\lv_core/lv_refr.c ****             vdb->area.x2 = area_p->x2;
 349:..\..\..\lvgl\version_6.1.2\lvgl\src\lv_core/lv_refr.c ****             vdb->area.y1 = row;
 350:..\..\..\lvgl\version_6.1.2\lvgl\src\lv_core/lv_refr.c ****             vdb->area.y2 = row + max_row - 1;
 351:..\..\..\lvgl\version_6.1.2\lvgl\src\lv_core/lv_refr.c ****             if(vdb->area.y2 > y2) vdb->area.y2 = y2;
 352:..\..\..\lvgl\version_6.1.2\lvgl\src\lv_core/lv_refr.c ****             row_last = vdb->area.y2;
 353:..\..\..\lvgl\version_6.1.2\lvgl\src\lv_core/lv_refr.c ****             lv_refr_area_part(area_p);
 354:..\..\..\lvgl\version_6.1.2\lvgl\src\lv_core/lv_refr.c ****         }
 355:..\..\..\lvgl\version_6.1.2\lvgl\src\lv_core/lv_refr.c **** 
 356:..\..\..\lvgl\version_6.1.2\lvgl\src\lv_core/lv_refr.c ****         /*If the last y coordinates are not handled yet ...*/
 357:..\..\..\lvgl\version_6.1.2\lvgl\src\lv_core/lv_refr.c ****         if(y2 != row_last) {
 358:..\..\..\lvgl\version_6.1.2\lvgl\src\lv_core/lv_refr.c ****             /*Calc. the next y coordinates of VDB*/
 359:..\..\..\lvgl\version_6.1.2\lvgl\src\lv_core/lv_refr.c ****             vdb->area.x1 = area_p->x1;
 360:..\..\..\lvgl\version_6.1.2\lvgl\src\lv_core/lv_refr.c ****             vdb->area.x2 = area_p->x2;
 361:..\..\..\lvgl\version_6.1.2\lvgl\src\lv_core/lv_refr.c ****             vdb->area.y1 = row;
 362:..\..\..\lvgl\version_6.1.2\lvgl\src\lv_core/lv_refr.c ****             vdb->area.y2 = y2;
 363:..\..\..\lvgl\version_6.1.2\lvgl\src\lv_core/lv_refr.c **** 
 364:..\..\..\lvgl\version_6.1.2\lvgl\src\lv_core/lv_refr.c ****             /*Refresh this part too*/
 365:..\..\..\lvgl\version_6.1.2\lvgl\src\lv_core/lv_refr.c ****             lv_refr_area_part(area_p);
 366:..\..\..\lvgl\version_6.1.2\lvgl\src\lv_core/lv_refr.c ****         }
 367:..\..\..\lvgl\version_6.1.2\lvgl\src\lv_core/lv_refr.c ****     }
 368:..\..\..\lvgl\version_6.1.2\lvgl\src\lv_core/lv_refr.c **** }
 369:..\..\..\lvgl\version_6.1.2\lvgl\src\lv_core/lv_refr.c **** 
 370:..\..\..\lvgl\version_6.1.2\lvgl\src\lv_core/lv_refr.c **** /**
 371:..\..\..\lvgl\version_6.1.2\lvgl\src\lv_core/lv_refr.c ****  * Refresh a part of an area which is on the actual Virtual Display Buffer
 372:..\..\..\lvgl\version_6.1.2\lvgl\src\lv_core/lv_refr.c ****  * @param area_p pointer to an area to refresh
ARM GAS  C:\Users\pearlstl\AppData\Local\Temp\ccFIoKDo.s 			page 8


 373:..\..\..\lvgl\version_6.1.2\lvgl\src\lv_core/lv_refr.c ****  */
 374:..\..\..\lvgl\version_6.1.2\lvgl\src\lv_core/lv_refr.c **** static void lv_refr_area_part(const lv_area_t * area_p)
 375:..\..\..\lvgl\version_6.1.2\lvgl\src\lv_core/lv_refr.c **** {
 376:..\..\..\lvgl\version_6.1.2\lvgl\src\lv_core/lv_refr.c **** 
 377:..\..\..\lvgl\version_6.1.2\lvgl\src\lv_core/lv_refr.c ****     lv_disp_buf_t * vdb = lv_disp_get_buf(disp_refr);
 378:..\..\..\lvgl\version_6.1.2\lvgl\src\lv_core/lv_refr.c **** 
 379:..\..\..\lvgl\version_6.1.2\lvgl\src\lv_core/lv_refr.c ****     /*In non double buffered mode, before rendering the next part wait until the previous image is
 380:..\..\..\lvgl\version_6.1.2\lvgl\src\lv_core/lv_refr.c ****      * flushed*/
 381:..\..\..\lvgl\version_6.1.2\lvgl\src\lv_core/lv_refr.c ****     if(lv_disp_is_double_buf(disp_refr) == false) {
 382:..\..\..\lvgl\version_6.1.2\lvgl\src\lv_core/lv_refr.c ****         while(vdb->flushing)
 383:..\..\..\lvgl\version_6.1.2\lvgl\src\lv_core/lv_refr.c ****             ;
 384:..\..\..\lvgl\version_6.1.2\lvgl\src\lv_core/lv_refr.c ****     }
 385:..\..\..\lvgl\version_6.1.2\lvgl\src\lv_core/lv_refr.c **** 
 386:..\..\..\lvgl\version_6.1.2\lvgl\src\lv_core/lv_refr.c ****     lv_obj_t * top_p;
 387:..\..\..\lvgl\version_6.1.2\lvgl\src\lv_core/lv_refr.c **** 
 388:..\..\..\lvgl\version_6.1.2\lvgl\src\lv_core/lv_refr.c ****     /*Get the new mask from the original area and the act. VDB
 389:..\..\..\lvgl\version_6.1.2\lvgl\src\lv_core/lv_refr.c ****      It will be a part of 'area_p'*/
 390:..\..\..\lvgl\version_6.1.2\lvgl\src\lv_core/lv_refr.c ****     lv_area_t start_mask;
 391:..\..\..\lvgl\version_6.1.2\lvgl\src\lv_core/lv_refr.c ****     lv_area_intersect(&start_mask, area_p, &vdb->area);
 392:..\..\..\lvgl\version_6.1.2\lvgl\src\lv_core/lv_refr.c **** 
 393:..\..\..\lvgl\version_6.1.2\lvgl\src\lv_core/lv_refr.c ****     /*Get the most top object which is not covered by others*/
 394:..\..\..\lvgl\version_6.1.2\lvgl\src\lv_core/lv_refr.c ****     top_p = lv_refr_get_top_obj(&start_mask, lv_disp_get_scr_act(disp_refr));
 395:..\..\..\lvgl\version_6.1.2\lvgl\src\lv_core/lv_refr.c **** 
 396:..\..\..\lvgl\version_6.1.2\lvgl\src\lv_core/lv_refr.c ****     /*Do the refreshing from the top object*/
 397:..\..\..\lvgl\version_6.1.2\lvgl\src\lv_core/lv_refr.c ****     lv_refr_obj_and_children(top_p, &start_mask);
 398:..\..\..\lvgl\version_6.1.2\lvgl\src\lv_core/lv_refr.c **** 
 399:..\..\..\lvgl\version_6.1.2\lvgl\src\lv_core/lv_refr.c ****     /*Also refresh top and sys layer unconditionally*/
 400:..\..\..\lvgl\version_6.1.2\lvgl\src\lv_core/lv_refr.c ****     lv_refr_obj_and_children(lv_disp_get_layer_top(disp_refr), &start_mask);
 401:..\..\..\lvgl\version_6.1.2\lvgl\src\lv_core/lv_refr.c ****     lv_refr_obj_and_children(lv_disp_get_layer_sys(disp_refr), &start_mask);
 402:..\..\..\lvgl\version_6.1.2\lvgl\src\lv_core/lv_refr.c **** 
 403:..\..\..\lvgl\version_6.1.2\lvgl\src\lv_core/lv_refr.c ****     /* In true double buffered mode flush only once when all areas were rendered.
 404:..\..\..\lvgl\version_6.1.2\lvgl\src\lv_core/lv_refr.c ****      * In normal mode flush after every area */
 405:..\..\..\lvgl\version_6.1.2\lvgl\src\lv_core/lv_refr.c ****     if(lv_disp_is_true_double_buf(disp_refr) == false) {
 406:..\..\..\lvgl\version_6.1.2\lvgl\src\lv_core/lv_refr.c ****         lv_refr_vdb_flush();
 407:..\..\..\lvgl\version_6.1.2\lvgl\src\lv_core/lv_refr.c ****     }
 408:..\..\..\lvgl\version_6.1.2\lvgl\src\lv_core/lv_refr.c **** }
 409:..\..\..\lvgl\version_6.1.2\lvgl\src\lv_core/lv_refr.c **** 
 410:..\..\..\lvgl\version_6.1.2\lvgl\src\lv_core/lv_refr.c **** /**
 411:..\..\..\lvgl\version_6.1.2\lvgl\src\lv_core/lv_refr.c ****  * Search the most top object which fully covers an area
 412:..\..\..\lvgl\version_6.1.2\lvgl\src\lv_core/lv_refr.c ****  * @param area_p pointer to an area
 413:..\..\..\lvgl\version_6.1.2\lvgl\src\lv_core/lv_refr.c ****  * @param obj the first object to start the searching (typically a screen)
 414:..\..\..\lvgl\version_6.1.2\lvgl\src\lv_core/lv_refr.c ****  * @return
 415:..\..\..\lvgl\version_6.1.2\lvgl\src\lv_core/lv_refr.c ****  */
 416:..\..\..\lvgl\version_6.1.2\lvgl\src\lv_core/lv_refr.c **** static lv_obj_t * lv_refr_get_top_obj(const lv_area_t * area_p, lv_obj_t * obj)
 417:..\..\..\lvgl\version_6.1.2\lvgl\src\lv_core/lv_refr.c **** {
  28              		.loc 1 417 0
  29              		.cfi_startproc
  30              		@ args = 0, pretend = 0, frame = 0
  31              		@ frame_needed = 0, uses_anonymous_args = 0
  32              	.LVL0:
  33 0000 F8B5     		push	{r3, r4, r5, r6, r7, lr}
  34              		.cfi_def_cfa_offset 24
  35              		.cfi_offset 3, -24
  36              		.cfi_offset 4, -20
  37              		.cfi_offset 5, -16
  38              		.cfi_offset 6, -12
  39              		.cfi_offset 7, -8
ARM GAS  C:\Users\pearlstl\AppData\Local\Temp\ccFIoKDo.s 			page 9


  40              		.cfi_offset 14, -4
  41              		.loc 1 417 0
  42 0002 0F46     		mov	r7, r1
 418:..\..\..\lvgl\version_6.1.2\lvgl\src\lv_core/lv_refr.c ****     lv_obj_t * found_p = NULL;
 419:..\..\..\lvgl\version_6.1.2\lvgl\src\lv_core/lv_refr.c **** 
 420:..\..\..\lvgl\version_6.1.2\lvgl\src\lv_core/lv_refr.c ****     /*If this object is fully cover the draw area check the children too */
 421:..\..\..\lvgl\version_6.1.2\lvgl\src\lv_core/lv_refr.c ****     if(lv_area_is_in(area_p, &obj->coords) && obj->hidden == 0) {
  43              		.loc 1 421 0
  44 0004 1031     		adds	r1, r1, #16
  45              	.LVL1:
 417:..\..\..\lvgl\version_6.1.2\lvgl\src\lv_core/lv_refr.c ****     lv_obj_t * found_p = NULL;
  46              		.loc 1 417 0
  47 0006 0646     		mov	r6, r0
  48              	.LVL2:
  49              		.loc 1 421 0
  50 0008 FFF7FEFF 		bl	lv_area_is_in
  51              	.LVL3:
  52 000c E8B1     		cbz	r0, .L4
  53              		.loc 1 421 0 is_stmt 0 discriminator 1
  54 000e 97F82C30 		ldrb	r3, [r7, #44]	@ zero_extendqisi2
  55 0012 DB06     		lsls	r3, r3, #27
  56 0014 19D4     		bmi	.L4
  57              	.LBB30:
 422:..\..\..\lvgl\version_6.1.2\lvgl\src\lv_core/lv_refr.c ****         lv_obj_t * i;
 423:..\..\..\lvgl\version_6.1.2\lvgl\src\lv_core/lv_refr.c ****         LV_LL_READ(obj->child_ll, i)
  58              		.loc 1 423 0 is_stmt 1
  59 0016 3D1D     		adds	r5, r7, #4
  60 0018 2846     		mov	r0, r5
  61 001a FFF7FEFF 		bl	lv_ll_get_head
  62              	.LVL4:
  63 001e 0446     		mov	r4, r0
  64 0020 28B9     		cbnz	r0, .L6
  65 0022 0CE0     		b	.L5
  66              	.LVL5:
  67              	.L19:
  68              		.loc 1 423 0 is_stmt 0 discriminator 2
  69 0024 2846     		mov	r0, r5
  70              	.LVL6:
  71 0026 FFF7FEFF 		bl	lv_ll_get_next
  72              	.LVL7:
  73 002a 0446     		mov	r4, r0
  74 002c 38B1     		cbz	r0, .L5
  75              	.L6:
 424:..\..\..\lvgl\version_6.1.2\lvgl\src\lv_core/lv_refr.c ****         {
 425:..\..\..\lvgl\version_6.1.2\lvgl\src\lv_core/lv_refr.c ****             found_p = lv_refr_get_top_obj(area_p, i);
  76              		.loc 1 425 0 is_stmt 1
  77 002e 2146     		mov	r1, r4
  78 0030 3046     		mov	r0, r6
  79              	.LVL8:
  80 0032 FFF7E5FF 		bl	lv_refr_get_top_obj
  81              	.LVL9:
 423:..\..\..\lvgl\version_6.1.2\lvgl\src\lv_core/lv_refr.c ****         {
  82              		.loc 1 423 0
  83 0036 2146     		mov	r1, r4
 426:..\..\..\lvgl\version_6.1.2\lvgl\src\lv_core/lv_refr.c **** 
 427:..\..\..\lvgl\version_6.1.2\lvgl\src\lv_core/lv_refr.c ****             /*If a children is ok then break*/
 428:..\..\..\lvgl\version_6.1.2\lvgl\src\lv_core/lv_refr.c ****             if(found_p != NULL) {
ARM GAS  C:\Users\pearlstl\AppData\Local\Temp\ccFIoKDo.s 			page 10


  84              		.loc 1 428 0
  85 0038 0028     		cmp	r0, #0
  86 003a F3D0     		beq	.L19
  87              	.LVL10:
  88              	.LBE30:
 429:..\..\..\lvgl\version_6.1.2\lvgl\src\lv_core/lv_refr.c ****                 break;
 430:..\..\..\lvgl\version_6.1.2\lvgl\src\lv_core/lv_refr.c ****             }
 431:..\..\..\lvgl\version_6.1.2\lvgl\src\lv_core/lv_refr.c ****         }
 432:..\..\..\lvgl\version_6.1.2\lvgl\src\lv_core/lv_refr.c **** 
 433:..\..\..\lvgl\version_6.1.2\lvgl\src\lv_core/lv_refr.c ****         /*If no better children check this object*/
 434:..\..\..\lvgl\version_6.1.2\lvgl\src\lv_core/lv_refr.c ****         if(found_p == NULL) {
 435:..\..\..\lvgl\version_6.1.2\lvgl\src\lv_core/lv_refr.c ****             const lv_style_t * style = lv_obj_get_style(obj);
 436:..\..\..\lvgl\version_6.1.2\lvgl\src\lv_core/lv_refr.c ****             if(style->body.opa == LV_OPA_COVER && obj->design_cb(obj, area_p, LV_DESIGN_COVER_CHK) 
 437:..\..\..\lvgl\version_6.1.2\lvgl\src\lv_core/lv_refr.c ****                lv_obj_get_opa_scale(obj) == LV_OPA_COVER) {
 438:..\..\..\lvgl\version_6.1.2\lvgl\src\lv_core/lv_refr.c ****                 found_p = obj;
 439:..\..\..\lvgl\version_6.1.2\lvgl\src\lv_core/lv_refr.c ****             }
 440:..\..\..\lvgl\version_6.1.2\lvgl\src\lv_core/lv_refr.c ****         }
 441:..\..\..\lvgl\version_6.1.2\lvgl\src\lv_core/lv_refr.c ****     }
 442:..\..\..\lvgl\version_6.1.2\lvgl\src\lv_core/lv_refr.c **** 
 443:..\..\..\lvgl\version_6.1.2\lvgl\src\lv_core/lv_refr.c ****     return found_p;
 444:..\..\..\lvgl\version_6.1.2\lvgl\src\lv_core/lv_refr.c **** }
  89              		.loc 1 444 0
  90 003c F8BD     		pop	{r3, r4, r5, r6, r7, pc}
  91              	.LVL11:
  92              	.L5:
  93              	.LBB33:
  94              	.LBB31:
 435:..\..\..\lvgl\version_6.1.2\lvgl\src\lv_core/lv_refr.c ****             if(style->body.opa == LV_OPA_COVER && obj->design_cb(obj, area_p, LV_DESIGN_COVER_CHK) 
  95              		.loc 1 435 0
  96 003e 3846     		mov	r0, r7
  97              	.LVL12:
  98 0040 FFF7FEFF 		bl	lv_obj_get_style
  99              	.LVL13:
 436:..\..\..\lvgl\version_6.1.2\lvgl\src\lv_core/lv_refr.c ****                lv_obj_get_opa_scale(obj) == LV_OPA_COVER) {
 100              		.loc 1 436 0
 101 0044 837B     		ldrb	r3, [r0, #14]	@ zero_extendqisi2
 102 0046 FF2B     		cmp	r3, #255
 103 0048 01D0     		beq	.L20
 104              	.LVL14:
 105              	.L4:
 106              	.LBE31:
 107              	.LBE33:
 418:..\..\..\lvgl\version_6.1.2\lvgl\src\lv_core/lv_refr.c **** 
 108              		.loc 1 418 0
 109 004a 0020     		movs	r0, #0
 110 004c F8BD     		pop	{r3, r4, r5, r6, r7, pc}
 111              	.LVL15:
 112              	.L20:
 113              	.LBB34:
 114              	.LBB32:
 436:..\..\..\lvgl\version_6.1.2\lvgl\src\lv_core/lv_refr.c ****                lv_obj_get_opa_scale(obj) == LV_OPA_COVER) {
 115              		.loc 1 436 0 discriminator 1
 116 004e 3146     		mov	r1, r6
 117 0050 3B6A     		ldr	r3, [r7, #32]
 118 0052 0222     		movs	r2, #2
 119 0054 3846     		mov	r0, r7
 120              	.LVL16:
ARM GAS  C:\Users\pearlstl\AppData\Local\Temp\ccFIoKDo.s 			page 11


 121 0056 9847     		blx	r3
 122              	.LVL17:
 123 0058 0028     		cmp	r0, #0
 124 005a F6D0     		beq	.L4
 437:..\..\..\lvgl\version_6.1.2\lvgl\src\lv_core/lv_refr.c ****                 found_p = obj;
 125              		.loc 1 437 0 discriminator 2
 126 005c 3846     		mov	r0, r7
 127 005e FFF7FEFF 		bl	lv_obj_get_opa_scale
 128              	.LVL18:
 436:..\..\..\lvgl\version_6.1.2\lvgl\src\lv_core/lv_refr.c ****                lv_obj_get_opa_scale(obj) == LV_OPA_COVER) {
 129              		.loc 1 436 0 discriminator 2
 130 0062 FF28     		cmp	r0, #255
 131 0064 F1D1     		bne	.L4
 132 0066 3846     		mov	r0, r7
 133              	.LVL19:
 134              	.LBE32:
 135              	.LBE34:
 443:..\..\..\lvgl\version_6.1.2\lvgl\src\lv_core/lv_refr.c **** }
 136              		.loc 1 443 0
 137 0068 F8BD     		pop	{r3, r4, r5, r6, r7, pc}
 138              		.cfi_endproc
 139              	.LFE45:
 140              		.size	lv_refr_get_top_obj, .-lv_refr_get_top_obj
 141 006a 00BF     		.section	.text.lv_refr_obj.part.2,"ax",%progbits
 142              		.align	2
 143              		.thumb
 144              		.thumb_func
 145              		.type	lv_refr_obj.part.2, %function
 146              	lv_refr_obj.part.2:
 147              	.LFB51:
 445:..\..\..\lvgl\version_6.1.2\lvgl\src\lv_core/lv_refr.c **** 
 446:..\..\..\lvgl\version_6.1.2\lvgl\src\lv_core/lv_refr.c **** /**
 447:..\..\..\lvgl\version_6.1.2\lvgl\src\lv_core/lv_refr.c ****  * Make the refreshing from an object. Draw all its children and the youngers too.
 448:..\..\..\lvgl\version_6.1.2\lvgl\src\lv_core/lv_refr.c ****  * @param top_p pointer to an objects. Start the drawing from it.
 449:..\..\..\lvgl\version_6.1.2\lvgl\src\lv_core/lv_refr.c ****  * @param mask_p pointer to an area, the objects will be drawn only here
 450:..\..\..\lvgl\version_6.1.2\lvgl\src\lv_core/lv_refr.c ****  */
 451:..\..\..\lvgl\version_6.1.2\lvgl\src\lv_core/lv_refr.c **** static void lv_refr_obj_and_children(lv_obj_t * top_p, const lv_area_t * mask_p)
 452:..\..\..\lvgl\version_6.1.2\lvgl\src\lv_core/lv_refr.c **** {
 453:..\..\..\lvgl\version_6.1.2\lvgl\src\lv_core/lv_refr.c ****     /* Normally always will be a top_obj (at least the screen)
 454:..\..\..\lvgl\version_6.1.2\lvgl\src\lv_core/lv_refr.c ****      * but in special cases (e.g. if the screen has alpha) it won't.
 455:..\..\..\lvgl\version_6.1.2\lvgl\src\lv_core/lv_refr.c ****      * In this case use the screen directly */
 456:..\..\..\lvgl\version_6.1.2\lvgl\src\lv_core/lv_refr.c ****     if(top_p == NULL) top_p = lv_disp_get_scr_act(disp_refr);
 457:..\..\..\lvgl\version_6.1.2\lvgl\src\lv_core/lv_refr.c **** 
 458:..\..\..\lvgl\version_6.1.2\lvgl\src\lv_core/lv_refr.c ****     /*Refresh the top object and its children*/
 459:..\..\..\lvgl\version_6.1.2\lvgl\src\lv_core/lv_refr.c ****     lv_refr_obj(top_p, mask_p);
 460:..\..\..\lvgl\version_6.1.2\lvgl\src\lv_core/lv_refr.c **** 
 461:..\..\..\lvgl\version_6.1.2\lvgl\src\lv_core/lv_refr.c ****     /*Draw the 'younger' sibling objects because they can be on top_obj */
 462:..\..\..\lvgl\version_6.1.2\lvgl\src\lv_core/lv_refr.c ****     lv_obj_t * par;
 463:..\..\..\lvgl\version_6.1.2\lvgl\src\lv_core/lv_refr.c ****     lv_obj_t * border_p = top_p;
 464:..\..\..\lvgl\version_6.1.2\lvgl\src\lv_core/lv_refr.c **** 
 465:..\..\..\lvgl\version_6.1.2\lvgl\src\lv_core/lv_refr.c ****     par = lv_obj_get_parent(top_p);
 466:..\..\..\lvgl\version_6.1.2\lvgl\src\lv_core/lv_refr.c **** 
 467:..\..\..\lvgl\version_6.1.2\lvgl\src\lv_core/lv_refr.c ****     /*Do until not reach the screen*/
 468:..\..\..\lvgl\version_6.1.2\lvgl\src\lv_core/lv_refr.c ****     while(par != NULL) {
 469:..\..\..\lvgl\version_6.1.2\lvgl\src\lv_core/lv_refr.c ****         /*object before border_p has to be redrawn*/
 470:..\..\..\lvgl\version_6.1.2\lvgl\src\lv_core/lv_refr.c ****         lv_obj_t * i = lv_ll_get_prev(&(par->child_ll), border_p);
 471:..\..\..\lvgl\version_6.1.2\lvgl\src\lv_core/lv_refr.c **** 
ARM GAS  C:\Users\pearlstl\AppData\Local\Temp\ccFIoKDo.s 			page 12


 472:..\..\..\lvgl\version_6.1.2\lvgl\src\lv_core/lv_refr.c ****         while(i != NULL) {
 473:..\..\..\lvgl\version_6.1.2\lvgl\src\lv_core/lv_refr.c ****             /*Refresh the objects*/
 474:..\..\..\lvgl\version_6.1.2\lvgl\src\lv_core/lv_refr.c ****             lv_refr_obj(i, mask_p);
 475:..\..\..\lvgl\version_6.1.2\lvgl\src\lv_core/lv_refr.c ****             i = lv_ll_get_prev(&(par->child_ll), i);
 476:..\..\..\lvgl\version_6.1.2\lvgl\src\lv_core/lv_refr.c ****         }
 477:..\..\..\lvgl\version_6.1.2\lvgl\src\lv_core/lv_refr.c **** 
 478:..\..\..\lvgl\version_6.1.2\lvgl\src\lv_core/lv_refr.c ****         /*Call the post draw design function of the parents of the to object*/
 479:..\..\..\lvgl\version_6.1.2\lvgl\src\lv_core/lv_refr.c ****         par->design_cb(par, mask_p, LV_DESIGN_DRAW_POST);
 480:..\..\..\lvgl\version_6.1.2\lvgl\src\lv_core/lv_refr.c **** 
 481:..\..\..\lvgl\version_6.1.2\lvgl\src\lv_core/lv_refr.c ****         /*The new border will be there last parents,
 482:..\..\..\lvgl\version_6.1.2\lvgl\src\lv_core/lv_refr.c ****          *so the 'younger' brothers of parent will be refreshed*/
 483:..\..\..\lvgl\version_6.1.2\lvgl\src\lv_core/lv_refr.c ****         border_p = par;
 484:..\..\..\lvgl\version_6.1.2\lvgl\src\lv_core/lv_refr.c ****         /*Go a level deeper*/
 485:..\..\..\lvgl\version_6.1.2\lvgl\src\lv_core/lv_refr.c ****         par = lv_obj_get_parent(par);
 486:..\..\..\lvgl\version_6.1.2\lvgl\src\lv_core/lv_refr.c ****     }
 487:..\..\..\lvgl\version_6.1.2\lvgl\src\lv_core/lv_refr.c **** }
 488:..\..\..\lvgl\version_6.1.2\lvgl\src\lv_core/lv_refr.c **** 
 489:..\..\..\lvgl\version_6.1.2\lvgl\src\lv_core/lv_refr.c **** /**
 490:..\..\..\lvgl\version_6.1.2\lvgl\src\lv_core/lv_refr.c ****  * Refresh an object an all of its children. (Called recursively)
 491:..\..\..\lvgl\version_6.1.2\lvgl\src\lv_core/lv_refr.c ****  * @param obj pointer to an object to refresh
 492:..\..\..\lvgl\version_6.1.2\lvgl\src\lv_core/lv_refr.c ****  * @param mask_ori_p pointer to an area, the objects will be drawn only here
 493:..\..\..\lvgl\version_6.1.2\lvgl\src\lv_core/lv_refr.c ****  */
 494:..\..\..\lvgl\version_6.1.2\lvgl\src\lv_core/lv_refr.c **** static void lv_refr_obj(lv_obj_t * obj, const lv_area_t * mask_ori_p)
 148              		.loc 1 494 0
 149              		.cfi_startproc
 150              		@ args = 0, pretend = 0, frame = 40
 151              		@ frame_needed = 0, uses_anonymous_args = 0
 152              	.LVL20:
 153 0000 F0B5     		push	{r4, r5, r6, r7, lr}
 154              		.cfi_def_cfa_offset 20
 155              		.cfi_offset 4, -20
 156              		.cfi_offset 5, -16
 157              		.cfi_offset 6, -12
 158              		.cfi_offset 7, -8
 159              		.cfi_offset 14, -4
 160 0002 8BB0     		sub	sp, sp, #44
 161              		.cfi_def_cfa_offset 64
 495:..\..\..\lvgl\version_6.1.2\lvgl\src\lv_core/lv_refr.c **** {
 496:..\..\..\lvgl\version_6.1.2\lvgl\src\lv_core/lv_refr.c ****     /*Do not refresh hidden objects*/
 497:..\..\..\lvgl\version_6.1.2\lvgl\src\lv_core/lv_refr.c ****     if(obj->hidden != 0) return;
 498:..\..\..\lvgl\version_6.1.2\lvgl\src\lv_core/lv_refr.c **** 
 499:..\..\..\lvgl\version_6.1.2\lvgl\src\lv_core/lv_refr.c ****     bool union_ok; /* Store the return value of area_union */
 500:..\..\..\lvgl\version_6.1.2\lvgl\src\lv_core/lv_refr.c ****     /* Truncate the original mask to the coordinates of the parent
 501:..\..\..\lvgl\version_6.1.2\lvgl\src\lv_core/lv_refr.c ****      * because the parent and its children are visible only here */
 502:..\..\..\lvgl\version_6.1.2\lvgl\src\lv_core/lv_refr.c ****     lv_area_t obj_mask;
 503:..\..\..\lvgl\version_6.1.2\lvgl\src\lv_core/lv_refr.c ****     lv_area_t obj_ext_mask;
 504:..\..\..\lvgl\version_6.1.2\lvgl\src\lv_core/lv_refr.c ****     lv_area_t obj_area;
 505:..\..\..\lvgl\version_6.1.2\lvgl\src\lv_core/lv_refr.c ****     lv_coord_t ext_size = obj->ext_draw_pad;
 162              		.loc 1 505 0
 163 0004 B0F93040 		ldrsh	r4, [r0, #48]
 164              	.LVL21:
 494:..\..\..\lvgl\version_6.1.2\lvgl\src\lv_core/lv_refr.c **** {
 165              		.loc 1 494 0
 166 0008 0E46     		mov	r6, r1
 506:..\..\..\lvgl\version_6.1.2\lvgl\src\lv_core/lv_refr.c ****     lv_obj_get_coords(obj, &obj_area);
 167              		.loc 1 506 0
 168 000a 04A9     		add	r1, sp, #16
ARM GAS  C:\Users\pearlstl\AppData\Local\Temp\ccFIoKDo.s 			page 13


 169              	.LVL22:
 494:..\..\..\lvgl\version_6.1.2\lvgl\src\lv_core/lv_refr.c **** {
 170              		.loc 1 494 0
 171 000c 0546     		mov	r5, r0
 172              		.loc 1 506 0
 173 000e FFF7FEFF 		bl	lv_obj_get_coords
 174              	.LVL23:
 507:..\..\..\lvgl\version_6.1.2\lvgl\src\lv_core/lv_refr.c ****     obj_area.x1 -= ext_size;
 508:..\..\..\lvgl\version_6.1.2\lvgl\src\lv_core/lv_refr.c ****     obj_area.y1 -= ext_size;
 175              		.loc 1 508 0
 176 0012 BDF81210 		ldrh	r1, [sp, #18]
 509:..\..\..\lvgl\version_6.1.2\lvgl\src\lv_core/lv_refr.c ****     obj_area.x2 += ext_size;
 177              		.loc 1 509 0
 178 0016 BDF81400 		ldrh	r0, [sp, #20]
 510:..\..\..\lvgl\version_6.1.2\lvgl\src\lv_core/lv_refr.c ****     obj_area.y2 += ext_size;
 179              		.loc 1 510 0
 180 001a BDF81620 		ldrh	r2, [sp, #22]
 507:..\..\..\lvgl\version_6.1.2\lvgl\src\lv_core/lv_refr.c ****     obj_area.x1 -= ext_size;
 181              		.loc 1 507 0
 182 001e BDF81070 		ldrh	r7, [sp, #16]
 183 0022 A3B2     		uxth	r3, r4
 508:..\..\..\lvgl\version_6.1.2\lvgl\src\lv_core/lv_refr.c ****     obj_area.x2 += ext_size;
 184              		.loc 1 508 0
 185 0024 C91A     		subs	r1, r1, r3
 509:..\..\..\lvgl\version_6.1.2\lvgl\src\lv_core/lv_refr.c ****     obj_area.x2 += ext_size;
 186              		.loc 1 509 0
 187 0026 1844     		add	r0, r0, r3
 507:..\..\..\lvgl\version_6.1.2\lvgl\src\lv_core/lv_refr.c ****     obj_area.y1 -= ext_size;
 188              		.loc 1 507 0
 189 0028 FC1A     		subs	r4, r7, r3
 190              	.LVL24:
 508:..\..\..\lvgl\version_6.1.2\lvgl\src\lv_core/lv_refr.c ****     obj_area.x2 += ext_size;
 191              		.loc 1 508 0
 192 002a ADF81210 		strh	r1, [sp, #18]	@ movhi
 193              		.loc 1 510 0
 194 002e 1344     		add	r3, r3, r2
 195              	.LVL25:
 509:..\..\..\lvgl\version_6.1.2\lvgl\src\lv_core/lv_refr.c ****     obj_area.y2 += ext_size;
 196              		.loc 1 509 0
 197 0030 ADF81400 		strh	r0, [sp, #20]	@ movhi
 511:..\..\..\lvgl\version_6.1.2\lvgl\src\lv_core/lv_refr.c ****     union_ok = lv_area_intersect(&obj_ext_mask, mask_ori_p, &obj_area);
 198              		.loc 1 511 0
 199 0034 04AA     		add	r2, sp, #16
 200 0036 3146     		mov	r1, r6
 201 0038 02A8     		add	r0, sp, #8
 507:..\..\..\lvgl\version_6.1.2\lvgl\src\lv_core/lv_refr.c ****     obj_area.y1 -= ext_size;
 202              		.loc 1 507 0
 203 003a ADF81040 		strh	r4, [sp, #16]	@ movhi
 510:..\..\..\lvgl\version_6.1.2\lvgl\src\lv_core/lv_refr.c ****     union_ok = lv_area_intersect(&obj_ext_mask, mask_ori_p, &obj_area);
 204              		.loc 1 510 0
 205 003e ADF81630 		strh	r3, [sp, #22]	@ movhi
 206              		.loc 1 511 0
 207 0042 FFF7FEFF 		bl	lv_area_intersect
 208              	.LVL26:
 512:..\..\..\lvgl\version_6.1.2\lvgl\src\lv_core/lv_refr.c **** 
 513:..\..\..\lvgl\version_6.1.2\lvgl\src\lv_core/lv_refr.c ****     /*Draw the parent and its children only if they ore on 'mask_parent'*/
 514:..\..\..\lvgl\version_6.1.2\lvgl\src\lv_core/lv_refr.c ****     if(union_ok != false) {
ARM GAS  C:\Users\pearlstl\AppData\Local\Temp\ccFIoKDo.s 			page 14


 209              		.loc 1 514 0
 210 0046 08B9     		cbnz	r0, .L39
 515:..\..\..\lvgl\version_6.1.2\lvgl\src\lv_core/lv_refr.c **** 
 516:..\..\..\lvgl\version_6.1.2\lvgl\src\lv_core/lv_refr.c ****         /* Redraw the object */
 517:..\..\..\lvgl\version_6.1.2\lvgl\src\lv_core/lv_refr.c ****         obj->design_cb(obj, &obj_ext_mask, LV_DESIGN_DRAW_MAIN);
 518:..\..\..\lvgl\version_6.1.2\lvgl\src\lv_core/lv_refr.c **** 
 519:..\..\..\lvgl\version_6.1.2\lvgl\src\lv_core/lv_refr.c **** #if MASK_AREA_DEBUG
 520:..\..\..\lvgl\version_6.1.2\lvgl\src\lv_core/lv_refr.c ****         static lv_color_t debug_color = LV_COLOR_RED;
 521:..\..\..\lvgl\version_6.1.2\lvgl\src\lv_core/lv_refr.c ****         lv_draw_fill(&obj_ext_mask, &obj_ext_mask, debug_color, LV_OPA_50);
 522:..\..\..\lvgl\version_6.1.2\lvgl\src\lv_core/lv_refr.c ****         debug_color.full *= 17;
 523:..\..\..\lvgl\version_6.1.2\lvgl\src\lv_core/lv_refr.c ****         debug_color.full += 0xA1;
 524:..\..\..\lvgl\version_6.1.2\lvgl\src\lv_core/lv_refr.c **** #endif
 525:..\..\..\lvgl\version_6.1.2\lvgl\src\lv_core/lv_refr.c ****         /*Create a new 'obj_mask' without 'ext_size' because the children can't be visible there*/
 526:..\..\..\lvgl\version_6.1.2\lvgl\src\lv_core/lv_refr.c ****         lv_obj_get_coords(obj, &obj_area);
 527:..\..\..\lvgl\version_6.1.2\lvgl\src\lv_core/lv_refr.c ****         union_ok = lv_area_intersect(&obj_mask, mask_ori_p, &obj_area);
 528:..\..\..\lvgl\version_6.1.2\lvgl\src\lv_core/lv_refr.c ****         if(union_ok != false) {
 529:..\..\..\lvgl\version_6.1.2\lvgl\src\lv_core/lv_refr.c ****             lv_area_t mask_child; /*Mask from obj and its child*/
 530:..\..\..\lvgl\version_6.1.2\lvgl\src\lv_core/lv_refr.c ****             lv_obj_t * child_p;
 531:..\..\..\lvgl\version_6.1.2\lvgl\src\lv_core/lv_refr.c ****             lv_area_t child_area;
 532:..\..\..\lvgl\version_6.1.2\lvgl\src\lv_core/lv_refr.c ****             LV_LL_READ_BACK(obj->child_ll, child_p)
 533:..\..\..\lvgl\version_6.1.2\lvgl\src\lv_core/lv_refr.c ****             {
 534:..\..\..\lvgl\version_6.1.2\lvgl\src\lv_core/lv_refr.c ****                 lv_obj_get_coords(child_p, &child_area);
 535:..\..\..\lvgl\version_6.1.2\lvgl\src\lv_core/lv_refr.c ****                 ext_size = child_p->ext_draw_pad;
 536:..\..\..\lvgl\version_6.1.2\lvgl\src\lv_core/lv_refr.c ****                 child_area.x1 -= ext_size;
 537:..\..\..\lvgl\version_6.1.2\lvgl\src\lv_core/lv_refr.c ****                 child_area.y1 -= ext_size;
 538:..\..\..\lvgl\version_6.1.2\lvgl\src\lv_core/lv_refr.c ****                 child_area.x2 += ext_size;
 539:..\..\..\lvgl\version_6.1.2\lvgl\src\lv_core/lv_refr.c ****                 child_area.y2 += ext_size;
 540:..\..\..\lvgl\version_6.1.2\lvgl\src\lv_core/lv_refr.c ****                 /* Get the union (common parts) of original mask (from obj)
 541:..\..\..\lvgl\version_6.1.2\lvgl\src\lv_core/lv_refr.c ****                  * and its child */
 542:..\..\..\lvgl\version_6.1.2\lvgl\src\lv_core/lv_refr.c ****                 union_ok = lv_area_intersect(&mask_child, &obj_mask, &child_area);
 543:..\..\..\lvgl\version_6.1.2\lvgl\src\lv_core/lv_refr.c **** 
 544:..\..\..\lvgl\version_6.1.2\lvgl\src\lv_core/lv_refr.c ****                 /*If the parent and the child has common area then refresh the child */
 545:..\..\..\lvgl\version_6.1.2\lvgl\src\lv_core/lv_refr.c ****                 if(union_ok) {
 546:..\..\..\lvgl\version_6.1.2\lvgl\src\lv_core/lv_refr.c ****                     /*Refresh the next children*/
 547:..\..\..\lvgl\version_6.1.2\lvgl\src\lv_core/lv_refr.c ****                     lv_refr_obj(child_p, &mask_child);
 548:..\..\..\lvgl\version_6.1.2\lvgl\src\lv_core/lv_refr.c ****                 }
 549:..\..\..\lvgl\version_6.1.2\lvgl\src\lv_core/lv_refr.c ****             }
 550:..\..\..\lvgl\version_6.1.2\lvgl\src\lv_core/lv_refr.c ****         }
 551:..\..\..\lvgl\version_6.1.2\lvgl\src\lv_core/lv_refr.c **** 
 552:..\..\..\lvgl\version_6.1.2\lvgl\src\lv_core/lv_refr.c ****         /* If all the children are redrawn make 'post draw' design */
 553:..\..\..\lvgl\version_6.1.2\lvgl\src\lv_core/lv_refr.c ****         obj->design_cb(obj, &obj_ext_mask, LV_DESIGN_DRAW_POST);
 554:..\..\..\lvgl\version_6.1.2\lvgl\src\lv_core/lv_refr.c ****     }
 555:..\..\..\lvgl\version_6.1.2\lvgl\src\lv_core/lv_refr.c **** }
 211              		.loc 1 555 0
 212 0048 0BB0     		add	sp, sp, #44
 213              		.cfi_remember_state
 214              		.cfi_def_cfa_offset 20
 215              		@ sp needed
 216 004a F0BD     		pop	{r4, r5, r6, r7, pc}
 217              	.LVL27:
 218              	.L39:
 219              		.cfi_restore_state
 517:..\..\..\lvgl\version_6.1.2\lvgl\src\lv_core/lv_refr.c **** 
 220              		.loc 1 517 0
 221 004c 0022     		movs	r2, #0
 222 004e 2B6A     		ldr	r3, [r5, #32]
 223 0050 02A9     		add	r1, sp, #8
ARM GAS  C:\Users\pearlstl\AppData\Local\Temp\ccFIoKDo.s 			page 15


 224 0052 2846     		mov	r0, r5
 225              	.LVL28:
 226 0054 9847     		blx	r3
 227              	.LVL29:
 526:..\..\..\lvgl\version_6.1.2\lvgl\src\lv_core/lv_refr.c ****         union_ok = lv_area_intersect(&obj_mask, mask_ori_p, &obj_area);
 228              		.loc 1 526 0
 229 0056 04A9     		add	r1, sp, #16
 230 0058 2846     		mov	r0, r5
 231 005a FFF7FEFF 		bl	lv_obj_get_coords
 232              	.LVL30:
 527:..\..\..\lvgl\version_6.1.2\lvgl\src\lv_core/lv_refr.c ****         if(union_ok != false) {
 233              		.loc 1 527 0
 234 005e 04AA     		add	r2, sp, #16
 235 0060 3146     		mov	r1, r6
 236 0062 6846     		mov	r0, sp
 237 0064 FFF7FEFF 		bl	lv_area_intersect
 238              	.LVL31:
 528:..\..\..\lvgl\version_6.1.2\lvgl\src\lv_core/lv_refr.c ****             lv_area_t mask_child; /*Mask from obj and its child*/
 239              		.loc 1 528 0
 240 0068 30B9     		cbnz	r0, .L40
 241              	.LVL32:
 242              	.L23:
 553:..\..\..\lvgl\version_6.1.2\lvgl\src\lv_core/lv_refr.c ****     }
 243              		.loc 1 553 0
 244 006a 02A9     		add	r1, sp, #8
 245 006c 2B6A     		ldr	r3, [r5, #32]
 246 006e 2846     		mov	r0, r5
 247 0070 0122     		movs	r2, #1
 248 0072 9847     		blx	r3
 249              	.LVL33:
 250              		.loc 1 555 0
 251 0074 0BB0     		add	sp, sp, #44
 252              		.cfi_remember_state
 253              		.cfi_def_cfa_offset 20
 254              		@ sp needed
 255 0076 F0BD     		pop	{r4, r5, r6, r7, pc}
 256              	.LVL34:
 257              	.L40:
 258              		.cfi_restore_state
 259              	.LBB38:
 532:..\..\..\lvgl\version_6.1.2\lvgl\src\lv_core/lv_refr.c ****             {
 260              		.loc 1 532 0
 261 0078 2E1D     		adds	r6, r5, #4
 262              	.LVL35:
 263 007a 3046     		mov	r0, r6
 264              	.LVL36:
 265 007c FFF7FEFF 		bl	lv_ll_get_tail
 266              	.LVL37:
 267 0080 0446     		mov	r4, r0
 268 0082 38B9     		cbnz	r0, .L26
 269 0084 F1E7     		b	.L23
 270              	.LVL38:
 271              	.L25:
 272 0086 2146     		mov	r1, r4
 273 0088 3046     		mov	r0, r6
 274 008a FFF7FEFF 		bl	lv_ll_get_prev
 275              	.LVL39:
ARM GAS  C:\Users\pearlstl\AppData\Local\Temp\ccFIoKDo.s 			page 16


 276 008e 0446     		mov	r4, r0
 277 0090 0028     		cmp	r0, #0
 278 0092 EAD0     		beq	.L23
 279              	.L26:
 534:..\..\..\lvgl\version_6.1.2\lvgl\src\lv_core/lv_refr.c ****                 ext_size = child_p->ext_draw_pad;
 280              		.loc 1 534 0
 281 0094 08A9     		add	r1, sp, #32
 282 0096 2046     		mov	r0, r4
 283 0098 FFF7FEFF 		bl	lv_obj_get_coords
 284              	.LVL40:
 536:..\..\..\lvgl\version_6.1.2\lvgl\src\lv_core/lv_refr.c ****                 child_area.y1 -= ext_size;
 285              		.loc 1 536 0
 286 009c 238E     		ldrh	r3, [r4, #48]
 537:..\..\..\lvgl\version_6.1.2\lvgl\src\lv_core/lv_refr.c ****                 child_area.x2 += ext_size;
 287              		.loc 1 537 0
 288 009e BDF82210 		ldrh	r1, [sp, #34]
 538:..\..\..\lvgl\version_6.1.2\lvgl\src\lv_core/lv_refr.c ****                 child_area.y2 += ext_size;
 289              		.loc 1 538 0
 290 00a2 BDF82400 		ldrh	r0, [sp, #36]
 539:..\..\..\lvgl\version_6.1.2\lvgl\src\lv_core/lv_refr.c ****                 /* Get the union (common parts) of original mask (from obj)
 291              		.loc 1 539 0
 292 00a6 BDF82620 		ldrh	r2, [sp, #38]
 536:..\..\..\lvgl\version_6.1.2\lvgl\src\lv_core/lv_refr.c ****                 child_area.y1 -= ext_size;
 293              		.loc 1 536 0
 294 00aa BDF82070 		ldrh	r7, [sp, #32]
 537:..\..\..\lvgl\version_6.1.2\lvgl\src\lv_core/lv_refr.c ****                 child_area.x2 += ext_size;
 295              		.loc 1 537 0
 296 00ae C91A     		subs	r1, r1, r3
 538:..\..\..\lvgl\version_6.1.2\lvgl\src\lv_core/lv_refr.c ****                 child_area.y2 += ext_size;
 297              		.loc 1 538 0
 298 00b0 1844     		add	r0, r0, r3
 536:..\..\..\lvgl\version_6.1.2\lvgl\src\lv_core/lv_refr.c ****                 child_area.y1 -= ext_size;
 299              		.loc 1 536 0
 300 00b2 FF1A     		subs	r7, r7, r3
 537:..\..\..\lvgl\version_6.1.2\lvgl\src\lv_core/lv_refr.c ****                 child_area.x2 += ext_size;
 301              		.loc 1 537 0
 302 00b4 ADF82210 		strh	r1, [sp, #34]	@ movhi
 539:..\..\..\lvgl\version_6.1.2\lvgl\src\lv_core/lv_refr.c ****                 /* Get the union (common parts) of original mask (from obj)
 303              		.loc 1 539 0
 304 00b8 1344     		add	r3, r3, r2
 538:..\..\..\lvgl\version_6.1.2\lvgl\src\lv_core/lv_refr.c ****                 child_area.y2 += ext_size;
 305              		.loc 1 538 0
 306 00ba ADF82400 		strh	r0, [sp, #36]	@ movhi
 542:..\..\..\lvgl\version_6.1.2\lvgl\src\lv_core/lv_refr.c **** 
 307              		.loc 1 542 0
 308 00be 08AA     		add	r2, sp, #32
 309 00c0 6946     		mov	r1, sp
 310 00c2 06A8     		add	r0, sp, #24
 536:..\..\..\lvgl\version_6.1.2\lvgl\src\lv_core/lv_refr.c ****                 child_area.y1 -= ext_size;
 311              		.loc 1 536 0
 312 00c4 ADF82070 		strh	r7, [sp, #32]	@ movhi
 539:..\..\..\lvgl\version_6.1.2\lvgl\src\lv_core/lv_refr.c ****                 /* Get the union (common parts) of original mask (from obj)
 313              		.loc 1 539 0
 314 00c8 ADF82630 		strh	r3, [sp, #38]	@ movhi
 542:..\..\..\lvgl\version_6.1.2\lvgl\src\lv_core/lv_refr.c **** 
 315              		.loc 1 542 0
 316 00cc FFF7FEFF 		bl	lv_area_intersect
ARM GAS  C:\Users\pearlstl\AppData\Local\Temp\ccFIoKDo.s 			page 17


 317              	.LVL41:
 545:..\..\..\lvgl\version_6.1.2\lvgl\src\lv_core/lv_refr.c ****                     /*Refresh the next children*/
 318              		.loc 1 545 0
 319 00d0 0028     		cmp	r0, #0
 320 00d2 D8D0     		beq	.L25
 321              	.LVL42:
 322              	.LBB39:
 323              	.LBB40:
 497:..\..\..\lvgl\version_6.1.2\lvgl\src\lv_core/lv_refr.c **** 
 324              		.loc 1 497 0
 325 00d4 94F82C30 		ldrb	r3, [r4, #44]	@ zero_extendqisi2
 326 00d8 DB06     		lsls	r3, r3, #27
 327 00da D4D4     		bmi	.L25
 328 00dc 06A9     		add	r1, sp, #24
 329              	.LVL43:
 330 00de 2046     		mov	r0, r4
 331              	.LVL44:
 332 00e0 FFF78EFF 		bl	lv_refr_obj.part.2
 333              	.LVL45:
 334 00e4 CFE7     		b	.L25
 335              	.LBE40:
 336              	.LBE39:
 337              	.LBE38:
 338              		.cfi_endproc
 339              	.LFE51:
 340              		.size	lv_refr_obj.part.2, .-lv_refr_obj.part.2
 341 00e6 00BF     		.section	.text.lv_refr_obj_and_children,"ax",%progbits
 342              		.align	2
 343              		.thumb
 344              		.thumb_func
 345              		.type	lv_refr_obj_and_children, %function
 346              	lv_refr_obj_and_children:
 347              	.LFB46:
 452:..\..\..\lvgl\version_6.1.2\lvgl\src\lv_core/lv_refr.c ****     /* Normally always will be a top_obj (at least the screen)
 348              		.loc 1 452 0
 349              		.cfi_startproc
 350              		@ args = 0, pretend = 0, frame = 0
 351              		@ frame_needed = 0, uses_anonymous_args = 0
 352              	.LVL46:
 353 0000 F8B5     		push	{r3, r4, r5, r6, r7, lr}
 354              		.cfi_def_cfa_offset 24
 355              		.cfi_offset 3, -24
 356              		.cfi_offset 4, -20
 357              		.cfi_offset 5, -16
 358              		.cfi_offset 6, -12
 359              		.cfi_offset 7, -8
 360              		.cfi_offset 14, -4
 452:..\..\..\lvgl\version_6.1.2\lvgl\src\lv_core/lv_refr.c ****     /* Normally always will be a top_obj (at least the screen)
 361              		.loc 1 452 0
 362 0002 0F46     		mov	r7, r1
 363 0004 0446     		mov	r4, r0
 456:..\..\..\lvgl\version_6.1.2\lvgl\src\lv_core/lv_refr.c **** 
 364              		.loc 1 456 0
 365 0006 A8B3     		cbz	r0, .L57
 366              	.LVL47:
 367              	.L42:
 368              	.LBB41:
ARM GAS  C:\Users\pearlstl\AppData\Local\Temp\ccFIoKDo.s 			page 18


 369              	.LBB42:
 497:..\..\..\lvgl\version_6.1.2\lvgl\src\lv_core/lv_refr.c **** 
 370              		.loc 1 497 0
 371 0008 94F82C30 		ldrb	r3, [r4, #44]	@ zero_extendqisi2
 372 000c DA06     		lsls	r2, r3, #27
 373 000e 26D5     		bpl	.L58
 374              	.LVL48:
 375              	.LBE42:
 376              	.LBE41:
 465:..\..\..\lvgl\version_6.1.2\lvgl\src\lv_core/lv_refr.c **** 
 377              		.loc 1 465 0
 378 0010 2046     		mov	r0, r4
 379 0012 FFF7FEFF 		bl	lv_obj_get_parent
 380              	.LVL49:
 468:..\..\..\lvgl\version_6.1.2\lvgl\src\lv_core/lv_refr.c ****         /*object before border_p has to be redrawn*/
 381              		.loc 1 468 0
 382 0016 0646     		mov	r6, r0
 383 0018 58B3     		cbz	r0, .L59
 384              	.LVL50:
 385              	.L46:
 386              	.LBB44:
 470:..\..\..\lvgl\version_6.1.2\lvgl\src\lv_core/lv_refr.c **** 
 387              		.loc 1 470 0
 388 001a 351D     		adds	r5, r6, #4
 389              	.LVL51:
 390              	.L56:
 391 001c 2146     		mov	r1, r4
 392 001e 2846     		mov	r0, r5
 393 0020 FFF7FEFF 		bl	lv_ll_get_prev
 394              	.LVL52:
 472:..\..\..\lvgl\version_6.1.2\lvgl\src\lv_core/lv_refr.c ****             /*Refresh the objects*/
 395              		.loc 1 472 0
 396 0024 0446     		mov	r4, r0
 397 0026 68B1     		cbz	r0, .L60
 398              	.L49:
 399              	.LVL53:
 400              	.LBB45:
 401              	.LBB46:
 497:..\..\..\lvgl\version_6.1.2\lvgl\src\lv_core/lv_refr.c **** 
 402              		.loc 1 497 0
 403 0028 90F82C30 		ldrb	r3, [r0, #44]	@ zero_extendqisi2
 404 002c DB06     		lsls	r3, r3, #27
 405 002e F5D4     		bmi	.L56
 406 0030 3946     		mov	r1, r7
 407 0032 FFF7FEFF 		bl	lv_refr_obj.part.2
 408              	.LVL54:
 409              	.LBE46:
 410              	.LBE45:
 470:..\..\..\lvgl\version_6.1.2\lvgl\src\lv_core/lv_refr.c **** 
 411              		.loc 1 470 0
 412 0036 2146     		mov	r1, r4
 413 0038 2846     		mov	r0, r5
 414 003a FFF7FEFF 		bl	lv_ll_get_prev
 415              	.LVL55:
 472:..\..\..\lvgl\version_6.1.2\lvgl\src\lv_core/lv_refr.c ****             /*Refresh the objects*/
 416              		.loc 1 472 0
 417 003e 0446     		mov	r4, r0
ARM GAS  C:\Users\pearlstl\AppData\Local\Temp\ccFIoKDo.s 			page 19


 418              	.LVL56:
 419 0040 0028     		cmp	r0, #0
 420 0042 F1D1     		bne	.L49
 421              	.L60:
 479:..\..\..\lvgl\version_6.1.2\lvgl\src\lv_core/lv_refr.c **** 
 422              		.loc 1 479 0
 423 0044 336A     		ldr	r3, [r6, #32]
 424 0046 0122     		movs	r2, #1
 425 0048 3946     		mov	r1, r7
 426 004a 3046     		mov	r0, r6
 427              	.LVL57:
 428 004c 9847     		blx	r3
 429              	.LVL58:
 485:..\..\..\lvgl\version_6.1.2\lvgl\src\lv_core/lv_refr.c ****     }
 430              		.loc 1 485 0
 431 004e 3046     		mov	r0, r6
 432 0050 FFF7FEFF 		bl	lv_obj_get_parent
 433              	.LVL59:
 434 0054 3446     		mov	r4, r6
 435              	.LVL60:
 436              	.LBE44:
 468:..\..\..\lvgl\version_6.1.2\lvgl\src\lv_core/lv_refr.c ****         /*object before border_p has to be redrawn*/
 437              		.loc 1 468 0
 438 0056 08B1     		cbz	r0, .L61
 439              	.LVL61:
 440 0058 0646     		mov	r6, r0
 441 005a DEE7     		b	.L46
 442              	.L61:
 443 005c F8BD     		pop	{r3, r4, r5, r6, r7, pc}
 444              	.LVL62:
 445              	.L58:
 446              	.LBB47:
 447              	.LBB43:
 448 005e 3946     		mov	r1, r7
 449 0060 2046     		mov	r0, r4
 450              	.LVL63:
 451 0062 FFF7FEFF 		bl	lv_refr_obj.part.2
 452              	.LVL64:
 453              	.LBE43:
 454              	.LBE47:
 465:..\..\..\lvgl\version_6.1.2\lvgl\src\lv_core/lv_refr.c **** 
 455              		.loc 1 465 0
 456 0066 2046     		mov	r0, r4
 457 0068 FFF7FEFF 		bl	lv_obj_get_parent
 458              	.LVL65:
 468:..\..\..\lvgl\version_6.1.2\lvgl\src\lv_core/lv_refr.c ****         /*object before border_p has to be redrawn*/
 459              		.loc 1 468 0
 460 006c 0646     		mov	r6, r0
 461 006e 0028     		cmp	r0, #0
 462 0070 D3D1     		bne	.L46
 463              	.L59:
 464 0072 F8BD     		pop	{r3, r4, r5, r6, r7, pc}
 465              	.LVL66:
 466              	.L57:
 456:..\..\..\lvgl\version_6.1.2\lvgl\src\lv_core/lv_refr.c **** 
 467              		.loc 1 456 0 discriminator 1
 468 0074 024B     		ldr	r3, .L62
ARM GAS  C:\Users\pearlstl\AppData\Local\Temp\ccFIoKDo.s 			page 20


 469 0076 1868     		ldr	r0, [r3]
 470              	.LVL67:
 471 0078 FFF7FEFF 		bl	lv_disp_get_scr_act
 472              	.LVL68:
 473 007c 0446     		mov	r4, r0
 474              	.LVL69:
 475 007e C3E7     		b	.L42
 476              	.L63:
 477              		.align	2
 478              	.L62:
 479 0080 00000000 		.word	.LANCHOR0
 480              		.cfi_endproc
 481              	.LFE46:
 482              		.size	lv_refr_obj_and_children, .-lv_refr_obj_and_children
 483              		.section	.text.lv_refr_area_part,"ax",%progbits
 484              		.align	2
 485              		.thumb
 486              		.thumb_func
 487              		.type	lv_refr_area_part, %function
 488              	lv_refr_area_part:
 489              	.LFB44:
 375:..\..\..\lvgl\version_6.1.2\lvgl\src\lv_core/lv_refr.c **** 
 490              		.loc 1 375 0
 491              		.cfi_startproc
 492              		@ args = 0, pretend = 0, frame = 8
 493              		@ frame_needed = 0, uses_anonymous_args = 0
 494              	.LVL70:
 495 0000 70B5     		push	{r4, r5, r6, lr}
 496              		.cfi_def_cfa_offset 16
 497              		.cfi_offset 4, -16
 498              		.cfi_offset 5, -12
 499              		.cfi_offset 6, -8
 500              		.cfi_offset 14, -4
 377:..\..\..\lvgl\version_6.1.2\lvgl\src\lv_core/lv_refr.c **** 
 501              		.loc 1 377 0
 502 0002 2E4D     		ldr	r5, .L93
 375:..\..\..\lvgl\version_6.1.2\lvgl\src\lv_core/lv_refr.c **** 
 503              		.loc 1 375 0
 504 0004 82B0     		sub	sp, sp, #8
 505              		.cfi_def_cfa_offset 24
 375:..\..\..\lvgl\version_6.1.2\lvgl\src\lv_core/lv_refr.c **** 
 506              		.loc 1 375 0
 507 0006 0646     		mov	r6, r0
 377:..\..\..\lvgl\version_6.1.2\lvgl\src\lv_core/lv_refr.c **** 
 508              		.loc 1 377 0
 509 0008 2868     		ldr	r0, [r5]
 510              	.LVL71:
 511 000a FFF7FEFF 		bl	lv_disp_get_buf
 512              	.LVL72:
 513 000e 0446     		mov	r4, r0
 514              	.LVL73:
 381:..\..\..\lvgl\version_6.1.2\lvgl\src\lv_core/lv_refr.c ****         while(vdb->flushing)
 515              		.loc 1 381 0
 516 0010 2868     		ldr	r0, [r5]
 517              	.LVL74:
 518 0012 FFF7FEFF 		bl	lv_disp_is_double_buf
 519              	.LVL75:
ARM GAS  C:\Users\pearlstl\AppData\Local\Temp\ccFIoKDo.s 			page 21


 520 0016 10B3     		cbz	r0, .L66
 521              	.L65:
 391:..\..\..\lvgl\version_6.1.2\lvgl\src\lv_core/lv_refr.c **** 
 522              		.loc 1 391 0
 523 0018 04F11002 		add	r2, r4, #16
 524 001c 3146     		mov	r1, r6
 525 001e 6846     		mov	r0, sp
 526 0020 FFF7FEFF 		bl	lv_area_intersect
 527              	.LVL76:
 394:..\..\..\lvgl\version_6.1.2\lvgl\src\lv_core/lv_refr.c **** 
 528              		.loc 1 394 0
 529 0024 2868     		ldr	r0, [r5]
 530 0026 254E     		ldr	r6, .L93
 531              	.LVL77:
 532 0028 FFF7FEFF 		bl	lv_disp_get_scr_act
 533              	.LVL78:
 534 002c 0146     		mov	r1, r0
 535 002e 6846     		mov	r0, sp
 536 0030 FFF7FEFF 		bl	lv_refr_get_top_obj
 537              	.LVL79:
 397:..\..\..\lvgl\version_6.1.2\lvgl\src\lv_core/lv_refr.c **** 
 538              		.loc 1 397 0
 539 0034 6946     		mov	r1, sp
 540 0036 FFF7FEFF 		bl	lv_refr_obj_and_children
 541              	.LVL80:
 400:..\..\..\lvgl\version_6.1.2\lvgl\src\lv_core/lv_refr.c ****     lv_refr_obj_and_children(lv_disp_get_layer_sys(disp_refr), &start_mask);
 542              		.loc 1 400 0
 543 003a 2868     		ldr	r0, [r5]
 544 003c FFF7FEFF 		bl	lv_disp_get_layer_top
 545              	.LVL81:
 546 0040 6946     		mov	r1, sp
 547 0042 FFF7FEFF 		bl	lv_refr_obj_and_children
 548              	.LVL82:
 401:..\..\..\lvgl\version_6.1.2\lvgl\src\lv_core/lv_refr.c **** 
 549              		.loc 1 401 0
 550 0046 2868     		ldr	r0, [r5]
 551 0048 FFF7FEFF 		bl	lv_disp_get_layer_sys
 552              	.LVL83:
 553 004c 6946     		mov	r1, sp
 554 004e FFF7FEFF 		bl	lv_refr_obj_and_children
 555              	.LVL84:
 405:..\..\..\lvgl\version_6.1.2\lvgl\src\lv_core/lv_refr.c ****         lv_refr_vdb_flush();
 556              		.loc 1 405 0
 557 0052 2868     		ldr	r0, [r5]
 558 0054 FFF7FEFF 		bl	lv_disp_is_true_double_buf
 559              	.LVL85:
 560 0058 40B1     		cbz	r0, .L92
 561              	.LVL86:
 562              	.L64:
 408:..\..\..\lvgl\version_6.1.2\lvgl\src\lv_core/lv_refr.c **** 
 563              		.loc 1 408 0
 564 005a 02B0     		add	sp, sp, #8
 565              		.cfi_remember_state
 566              		.cfi_def_cfa_offset 16
 567              		@ sp needed
 568 005c 70BD     		pop	{r4, r5, r6, pc}
 569              	.LVL87:
ARM GAS  C:\Users\pearlstl\AppData\Local\Temp\ccFIoKDo.s 			page 22


 570              	.L66:
 571              		.cfi_restore_state
 382:..\..\..\lvgl\version_6.1.2\lvgl\src\lv_core/lv_refr.c ****             ;
 572              		.loc 1 382 0 discriminator 1
 573 005e A369     		ldr	r3, [r4, #24]
 574 0060 DA07     		lsls	r2, r3, #31
 575 0062 D9D5     		bpl	.L65
 382:..\..\..\lvgl\version_6.1.2\lvgl\src\lv_core/lv_refr.c ****             ;
 576              		.loc 1 382 0 is_stmt 0
 577 0064 A369     		ldr	r3, [r4, #24]
 578 0066 DA07     		lsls	r2, r3, #31
 579 0068 F9D4     		bmi	.L66
 580 006a D5E7     		b	.L65
 581              	.LVL88:
 582              	.L92:
 583              	.LBB52:
 584              	.LBB53:
 556:..\..\..\lvgl\version_6.1.2\lvgl\src\lv_core/lv_refr.c **** 
 557:..\..\..\lvgl\version_6.1.2\lvgl\src\lv_core/lv_refr.c **** /**
 558:..\..\..\lvgl\version_6.1.2\lvgl\src\lv_core/lv_refr.c ****  * Flush the content of the VDB
 559:..\..\..\lvgl\version_6.1.2\lvgl\src\lv_core/lv_refr.c ****  */
 560:..\..\..\lvgl\version_6.1.2\lvgl\src\lv_core/lv_refr.c **** static void lv_refr_vdb_flush(void)
 561:..\..\..\lvgl\version_6.1.2\lvgl\src\lv_core/lv_refr.c **** {
 562:..\..\..\lvgl\version_6.1.2\lvgl\src\lv_core/lv_refr.c ****     lv_disp_buf_t * vdb = lv_disp_get_buf(disp_refr);
 585              		.loc 1 562 0 is_stmt 1
 586 006c 3068     		ldr	r0, [r6]
 587 006e FFF7FEFF 		bl	lv_disp_get_buf
 588              	.LVL89:
 589 0072 0446     		mov	r4, r0
 590              	.LVL90:
 563:..\..\..\lvgl\version_6.1.2\lvgl\src\lv_core/lv_refr.c **** 
 564:..\..\..\lvgl\version_6.1.2\lvgl\src\lv_core/lv_refr.c ****     /*In double buffered mode wait until the other buffer is flushed before flushing the current
 565:..\..\..\lvgl\version_6.1.2\lvgl\src\lv_core/lv_refr.c ****      * one*/
 566:..\..\..\lvgl\version_6.1.2\lvgl\src\lv_core/lv_refr.c ****     if(lv_disp_is_double_buf(disp_refr)) {
 591              		.loc 1 566 0
 592 0074 3068     		ldr	r0, [r6]
 593              	.LVL91:
 594 0076 FFF7FEFF 		bl	lv_disp_is_double_buf
 595              	.LVL92:
 596 007a B8B9     		cbnz	r0, .L82
 597              	.L69:
 567:..\..\..\lvgl\version_6.1.2\lvgl\src\lv_core/lv_refr.c ****         while(vdb->flushing)
 568:..\..\..\lvgl\version_6.1.2\lvgl\src\lv_core/lv_refr.c ****             ;
 569:..\..\..\lvgl\version_6.1.2\lvgl\src\lv_core/lv_refr.c ****     }
 570:..\..\..\lvgl\version_6.1.2\lvgl\src\lv_core/lv_refr.c **** 
 571:..\..\..\lvgl\version_6.1.2\lvgl\src\lv_core/lv_refr.c ****     vdb->flushing = 1;
 598              		.loc 1 571 0
 599 007c 237E     		ldrb	r3, [r4, #24]	@ zero_extendqisi2
 600              	.LBB54:
 601              	.LBB55:
 143:..\..\..\lvgl\version_6.1.2\lvgl\src\lv_core/lv_refr.c **** }
 602              		.loc 1 143 0
 603 007e 2868     		ldr	r0, [r5]
 604              	.LBE55:
 605              	.LBE54:
 606              		.loc 1 571 0
 607 0080 43F00103 		orr	r3, r3, #1
ARM GAS  C:\Users\pearlstl\AppData\Local\Temp\ccFIoKDo.s 			page 23


 608 0084 2376     		strb	r3, [r4, #24]
 572:..\..\..\lvgl\version_6.1.2\lvgl\src\lv_core/lv_refr.c **** 
 573:..\..\..\lvgl\version_6.1.2\lvgl\src\lv_core/lv_refr.c ****     /*Flush the rendered content to the display*/
 574:..\..\..\lvgl\version_6.1.2\lvgl\src\lv_core/lv_refr.c ****     lv_disp_t * disp = lv_refr_get_disp_refreshing();
 575:..\..\..\lvgl\version_6.1.2\lvgl\src\lv_core/lv_refr.c ****     if(disp->driver.flush_cb) disp->driver.flush_cb(&disp->driver, &vdb->area, vdb->buf_act);
 609              		.loc 1 575 0
 610 0086 C368     		ldr	r3, [r0, #12]
 611 0088 1BB1     		cbz	r3, .L71
 612 008a A268     		ldr	r2, [r4, #8]
 613 008c 04F11001 		add	r1, r4, #16
 614 0090 9847     		blx	r3
 615              	.LVL93:
 616              	.L71:
 576:..\..\..\lvgl\version_6.1.2\lvgl\src\lv_core/lv_refr.c **** 
 577:..\..\..\lvgl\version_6.1.2\lvgl\src\lv_core/lv_refr.c ****     if(vdb->buf1 && vdb->buf2) {
 617              		.loc 1 577 0
 618 0092 2368     		ldr	r3, [r4]
 619 0094 002B     		cmp	r3, #0
 620 0096 E0D0     		beq	.L64
 621 0098 6268     		ldr	r2, [r4, #4]
 622 009a 002A     		cmp	r2, #0
 623 009c DDD0     		beq	.L64
 578:..\..\..\lvgl\version_6.1.2\lvgl\src\lv_core/lv_refr.c ****         if(vdb->buf_act == vdb->buf1)
 624              		.loc 1 578 0
 625 009e A168     		ldr	r1, [r4, #8]
 579:..\..\..\lvgl\version_6.1.2\lvgl\src\lv_core/lv_refr.c ****             vdb->buf_act = vdb->buf2;
 626              		.loc 1 579 0
 627 00a0 8B42     		cmp	r3, r1
 628 00a2 08BF     		it	eq
 629 00a4 1346     		moveq	r3, r2
 630 00a6 A360     		str	r3, [r4, #8]
 631              	.LBE53:
 632              	.LBE52:
 408:..\..\..\lvgl\version_6.1.2\lvgl\src\lv_core/lv_refr.c **** 
 633              		.loc 1 408 0
 634 00a8 02B0     		add	sp, sp, #8
 635              		.cfi_remember_state
 636              		.cfi_def_cfa_offset 16
 637              		@ sp needed
 638 00aa 70BD     		pop	{r4, r5, r6, pc}
 639              	.LVL94:
 640              	.L82:
 641              		.cfi_restore_state
 642              	.LBB57:
 643              	.LBB56:
 567:..\..\..\lvgl\version_6.1.2\lvgl\src\lv_core/lv_refr.c ****             ;
 644              		.loc 1 567 0
 645 00ac A369     		ldr	r3, [r4, #24]
 646 00ae DB07     		lsls	r3, r3, #31
 647 00b0 E4D5     		bpl	.L69
 648 00b2 A369     		ldr	r3, [r4, #24]
 649 00b4 DB07     		lsls	r3, r3, #31
 650 00b6 F9D4     		bmi	.L82
 651 00b8 E0E7     		b	.L69
 652              	.L94:
 653 00ba 00BF     		.align	2
 654              	.L93:
ARM GAS  C:\Users\pearlstl\AppData\Local\Temp\ccFIoKDo.s 			page 24


 655 00bc 00000000 		.word	.LANCHOR0
 656              	.LBE56:
 657              	.LBE57:
 658              		.cfi_endproc
 659              	.LFE44:
 660              		.size	lv_refr_area_part, .-lv_refr_area_part
 661              		.section	.text.lv_refr_init,"ax",%progbits
 662              		.align	2
 663              		.global	lv_refr_init
 664              		.thumb
 665              		.thumb_func
 666              		.type	lv_refr_init, %function
 667              	lv_refr_init:
 668              	.LFB35:
  63:..\..\..\lvgl\version_6.1.2\lvgl\src\lv_core/lv_refr.c ****     /*Nothing to do*/
 669              		.loc 1 63 0
 670              		.cfi_startproc
 671              		@ args = 0, pretend = 0, frame = 0
 672              		@ frame_needed = 0, uses_anonymous_args = 0
 673              		@ link register save eliminated.
 674 0000 7047     		bx	lr
 675              		.cfi_endproc
 676              	.LFE35:
 677              		.size	lv_refr_init, .-lv_refr_init
 678 0002 00BF     		.section	.text.lv_inv_area,"ax",%progbits
 679              		.align	2
 680              		.global	lv_inv_area
 681              		.thumb
 682              		.thumb_func
 683              		.type	lv_inv_area, %function
 684              	lv_inv_area:
 685              	.LFB37:
  95:..\..\..\lvgl\version_6.1.2\lvgl\src\lv_core/lv_refr.c ****     if(!disp) disp = lv_disp_get_default();
 686              		.loc 1 95 0
 687              		.cfi_startproc
 688              		@ args = 0, pretend = 0, frame = 16
 689              		@ frame_needed = 0, uses_anonymous_args = 0
 690              	.LVL95:
  95:..\..\..\lvgl\version_6.1.2\lvgl\src\lv_core/lv_refr.c ****     if(!disp) disp = lv_disp_get_default();
 691              		.loc 1 95 0
 692 0000 30B5     		push	{r4, r5, lr}
 693              		.cfi_def_cfa_offset 12
 694              		.cfi_offset 4, -12
 695              		.cfi_offset 5, -8
 696              		.cfi_offset 14, -4
 697 0002 0C46     		mov	r4, r1
 698 0004 85B0     		sub	sp, sp, #20
 699              		.cfi_def_cfa_offset 32
 700 0006 0546     		mov	r5, r0
  96:..\..\..\lvgl\version_6.1.2\lvgl\src\lv_core/lv_refr.c ****     if(!disp) return;
 701              		.loc 1 96 0
 702 0008 0028     		cmp	r0, #0
 703 000a 40D0     		beq	.L121
 704              	.LVL96:
 705              	.L97:
 100:..\..\..\lvgl\version_6.1.2\lvgl\src\lv_core/lv_refr.c ****         disp->inv_p = 0;
 706              		.loc 1 100 0
ARM GAS  C:\Users\pearlstl\AppData\Local\Temp\ccFIoKDo.s 			page 25


 707 000c 002C     		cmp	r4, #0
 708 000e 36D0     		beq	.L122
 106:..\..\..\lvgl\version_6.1.2\lvgl\src\lv_core/lv_refr.c ****     scr_area.y1 = 0;
 709              		.loc 1 106 0
 710 0010 0023     		movs	r3, #0
 108:..\..\..\lvgl\version_6.1.2\lvgl\src\lv_core/lv_refr.c ****     scr_area.y2 = lv_disp_get_ver_res(disp) - 1;
 711              		.loc 1 108 0
 712 0012 2846     		mov	r0, r5
 106:..\..\..\lvgl\version_6.1.2\lvgl\src\lv_core/lv_refr.c ****     scr_area.y1 = 0;
 713              		.loc 1 106 0
 714 0014 ADF80030 		strh	r3, [sp]	@ movhi
 107:..\..\..\lvgl\version_6.1.2\lvgl\src\lv_core/lv_refr.c ****     scr_area.x2 = lv_disp_get_hor_res(disp) - 1;
 715              		.loc 1 107 0
 716 0018 ADF80230 		strh	r3, [sp, #2]	@ movhi
 108:..\..\..\lvgl\version_6.1.2\lvgl\src\lv_core/lv_refr.c ****     scr_area.y2 = lv_disp_get_ver_res(disp) - 1;
 717              		.loc 1 108 0
 718 001c FFF7FEFF 		bl	lv_disp_get_hor_res
 719              	.LVL97:
 720 0020 431E     		subs	r3, r0, #1
 109:..\..\..\lvgl\version_6.1.2\lvgl\src\lv_core/lv_refr.c **** 
 721              		.loc 1 109 0
 722 0022 2846     		mov	r0, r5
 108:..\..\..\lvgl\version_6.1.2\lvgl\src\lv_core/lv_refr.c ****     scr_area.y2 = lv_disp_get_ver_res(disp) - 1;
 723              		.loc 1 108 0
 724 0024 ADF80430 		strh	r3, [sp, #4]	@ movhi
 109:..\..\..\lvgl\version_6.1.2\lvgl\src\lv_core/lv_refr.c **** 
 725              		.loc 1 109 0
 726 0028 FFF7FEFF 		bl	lv_disp_get_ver_res
 727              	.LVL98:
 114:..\..\..\lvgl\version_6.1.2\lvgl\src\lv_core/lv_refr.c **** 
 728              		.loc 1 114 0
 729 002c 2146     		mov	r1, r4
 109:..\..\..\lvgl\version_6.1.2\lvgl\src\lv_core/lv_refr.c **** 
 730              		.loc 1 109 0
 731 002e 431E     		subs	r3, r0, #1
 114:..\..\..\lvgl\version_6.1.2\lvgl\src\lv_core/lv_refr.c **** 
 732              		.loc 1 114 0
 733 0030 6A46     		mov	r2, sp
 734 0032 02A8     		add	r0, sp, #8
 109:..\..\..\lvgl\version_6.1.2\lvgl\src\lv_core/lv_refr.c **** 
 735              		.loc 1 109 0
 736 0034 ADF80630 		strh	r3, [sp, #6]	@ movhi
 114:..\..\..\lvgl\version_6.1.2\lvgl\src\lv_core/lv_refr.c **** 
 737              		.loc 1 114 0
 738 0038 FFF7FEFF 		bl	lv_area_intersect
 739              	.LVL99:
 117:..\..\..\lvgl\version_6.1.2\lvgl\src\lv_core/lv_refr.c ****         if(disp->driver.rounder_cb) disp->driver.rounder_cb(&disp->driver, &com_area);
 740              		.loc 1 117 0
 741 003c E8B1     		cbz	r0, .L96
 742              	.LBB58:
 118:..\..\..\lvgl\version_6.1.2\lvgl\src\lv_core/lv_refr.c **** 
 743              		.loc 1 118 0
 744 003e 2B69     		ldr	r3, [r5, #16]
 745 0040 13B1     		cbz	r3, .L102
 118:..\..\..\lvgl\version_6.1.2\lvgl\src\lv_core/lv_refr.c **** 
 746              		.loc 1 118 0 is_stmt 0 discriminator 1
 747 0042 02A9     		add	r1, sp, #8
ARM GAS  C:\Users\pearlstl\AppData\Local\Temp\ccFIoKDo.s 			page 26


 748 0044 2846     		mov	r0, r5
 749              	.LVL100:
 750 0046 9847     		blx	r3
 751              	.LVL101:
 752              	.L102:
 122:..\..\..\lvgl\version_6.1.2\lvgl\src\lv_core/lv_refr.c ****             if(lv_area_is_in(&com_area, &disp->inv_areas[i]) != false) return;
 753              		.loc 1 122 0 is_stmt 1 discriminator 1
 754 0048 B5F85C31 		ldrh	r3, [r5, #348]
 755 004c C3F30903 		ubfx	r3, r3, #0, #10
 756 0050 93B3     		cbz	r3, .L103
 122:..\..\..\lvgl\version_6.1.2\lvgl\src\lv_core/lv_refr.c ****             if(lv_area_is_in(&com_area, &disp->inv_areas[i]) != false) return;
 757              		.loc 1 122 0 is_stmt 0
 758 0052 0021     		movs	r1, #0
 759 0054 0C46     		mov	r4, r1
 760              	.LVL102:
 761 0056 05E0     		b	.L104
 762              	.LVL103:
 763              	.L124:
 122:..\..\..\lvgl\version_6.1.2\lvgl\src\lv_core/lv_refr.c ****             if(lv_area_is_in(&com_area, &disp->inv_areas[i]) != false) return;
 764              		.loc 1 122 0 discriminator 2
 765 0058 B5F85C31 		ldrh	r3, [r5, #348]
 766 005c C3F30903 		ubfx	r3, r3, #0, #10
 767 0060 9C42     		cmp	r4, r3
 768 0062 1ADA     		bge	.L123
 769              	.LVL104:
 770              	.L104:
 123:..\..\..\lvgl\version_6.1.2\lvgl\src\lv_core/lv_refr.c ****         }
 771              		.loc 1 123 0 is_stmt 1
 772 0064 05EBC101 		add	r1, r5, r1, lsl #3
 773 0068 3C31     		adds	r1, r1, #60
 774 006a 02A8     		add	r0, sp, #8
 775 006c FFF7FEFF 		bl	lv_area_is_in
 776              	.LVL105:
 122:..\..\..\lvgl\version_6.1.2\lvgl\src\lv_core/lv_refr.c ****             if(lv_area_is_in(&com_area, &disp->inv_areas[i]) != false) return;
 777              		.loc 1 122 0
 778 0070 0134     		adds	r4, r4, #1
 779              	.LVL106:
 780 0072 A4B2     		uxth	r4, r4
 781              	.LVL107:
 782 0074 2146     		mov	r1, r4
 123:..\..\..\lvgl\version_6.1.2\lvgl\src\lv_core/lv_refr.c ****         }
 783              		.loc 1 123 0
 784 0076 0028     		cmp	r0, #0
 785 0078 EED0     		beq	.L124
 786              	.LVL108:
 787              	.L96:
 788              	.LBE58:
 135:..\..\..\lvgl\version_6.1.2\lvgl\src\lv_core/lv_refr.c **** 
 789              		.loc 1 135 0
 790 007a 05B0     		add	sp, sp, #20
 791              		.cfi_remember_state
 792              		.cfi_def_cfa_offset 12
 793              		@ sp needed
 794 007c 30BD     		pop	{r4, r5, pc}
 795              	.LVL109:
 796              	.L122:
 797              		.cfi_restore_state
ARM GAS  C:\Users\pearlstl\AppData\Local\Temp\ccFIoKDo.s 			page 27


 101:..\..\..\lvgl\version_6.1.2\lvgl\src\lv_core/lv_refr.c ****         return;
 798              		.loc 1 101 0
 799 007e B5F85C31 		ldrh	r3, [r5, #348]
 800 0082 64F30903 		bfi	r3, r4, #0, #10
 801 0086 A5F85C31 		strh	r3, [r5, #348]	@ movhi
 135:..\..\..\lvgl\version_6.1.2\lvgl\src\lv_core/lv_refr.c **** 
 802              		.loc 1 135 0
 803 008a 05B0     		add	sp, sp, #20
 804              		.cfi_remember_state
 805              		.cfi_def_cfa_offset 12
 806              		@ sp needed
 807 008c 30BD     		pop	{r4, r5, pc}
 808              	.LVL110:
 809              	.L121:
 810              		.cfi_restore_state
  96:..\..\..\lvgl\version_6.1.2\lvgl\src\lv_core/lv_refr.c ****     if(!disp) return;
 811              		.loc 1 96 0 discriminator 1
 812 008e FFF7FEFF 		bl	lv_disp_get_default
 813              	.LVL111:
  97:..\..\..\lvgl\version_6.1.2\lvgl\src\lv_core/lv_refr.c **** 
 814              		.loc 1 97 0 discriminator 1
 815 0092 0546     		mov	r5, r0
 816 0094 0028     		cmp	r0, #0
 817 0096 F0D0     		beq	.L96
 818 0098 B8E7     		b	.L97
 819              	.LVL112:
 820              	.L123:
 821              	.LBB63:
 127:..\..\..\lvgl\version_6.1.2\lvgl\src\lv_core/lv_refr.c ****             lv_area_copy(&disp->inv_areas[disp->inv_p], &com_area);
 822              		.loc 1 127 0
 823 009a 1F2B     		cmp	r3, #31
 824 009c 0CDD     		ble	.L103
 825              	.LVL113:
 826              	.LBB59:
 827              	.LBB60:
 828              		.file 2 "..\\..\\..\\lvgl\\version_6.1.2\\lvgl\\src\\lv_core\\../lv_misc/lv_area.h"
   1:..\..\..\lvgl\version_6.1.2\lvgl\src\lv_core\../lv_misc/lv_area.h **** /**
   2:..\..\..\lvgl\version_6.1.2\lvgl\src\lv_core\../lv_misc/lv_area.h ****  * @file lv_area.h
   3:..\..\..\lvgl\version_6.1.2\lvgl\src\lv_core\../lv_misc/lv_area.h ****  *
   4:..\..\..\lvgl\version_6.1.2\lvgl\src\lv_core\../lv_misc/lv_area.h ****  */
   5:..\..\..\lvgl\version_6.1.2\lvgl\src\lv_core\../lv_misc/lv_area.h **** 
   6:..\..\..\lvgl\version_6.1.2\lvgl\src\lv_core\../lv_misc/lv_area.h **** #ifndef LV_AREA_H
   7:..\..\..\lvgl\version_6.1.2\lvgl\src\lv_core\../lv_misc/lv_area.h **** #define LV_AREA_H
   8:..\..\..\lvgl\version_6.1.2\lvgl\src\lv_core\../lv_misc/lv_area.h **** 
   9:..\..\..\lvgl\version_6.1.2\lvgl\src\lv_core\../lv_misc/lv_area.h **** #ifdef __cplusplus
  10:..\..\..\lvgl\version_6.1.2\lvgl\src\lv_core\../lv_misc/lv_area.h **** extern "C" {
  11:..\..\..\lvgl\version_6.1.2\lvgl\src\lv_core\../lv_misc/lv_area.h **** #endif
  12:..\..\..\lvgl\version_6.1.2\lvgl\src\lv_core\../lv_misc/lv_area.h **** 
  13:..\..\..\lvgl\version_6.1.2\lvgl\src\lv_core\../lv_misc/lv_area.h **** /*********************
  14:..\..\..\lvgl\version_6.1.2\lvgl\src\lv_core\../lv_misc/lv_area.h ****  *      INCLUDES
  15:..\..\..\lvgl\version_6.1.2\lvgl\src\lv_core\../lv_misc/lv_area.h ****  *********************/
  16:..\..\..\lvgl\version_6.1.2\lvgl\src\lv_core\../lv_misc/lv_area.h **** #include <string.h>
  17:..\..\..\lvgl\version_6.1.2\lvgl\src\lv_core\../lv_misc/lv_area.h **** #include <stdbool.h>
  18:..\..\..\lvgl\version_6.1.2\lvgl\src\lv_core\../lv_misc/lv_area.h **** #include <stdint.h>
  19:..\..\..\lvgl\version_6.1.2\lvgl\src\lv_core\../lv_misc/lv_area.h **** #ifdef LV_CONF_INCLUDE_SIMPLE
  20:..\..\..\lvgl\version_6.1.2\lvgl\src\lv_core\../lv_misc/lv_area.h **** #include "lv_conf.h"
  21:..\..\..\lvgl\version_6.1.2\lvgl\src\lv_core\../lv_misc/lv_area.h **** #else
ARM GAS  C:\Users\pearlstl\AppData\Local\Temp\ccFIoKDo.s 			page 28


  22:..\..\..\lvgl\version_6.1.2\lvgl\src\lv_core\../lv_misc/lv_area.h **** #include "../../../lv_conf.h"
  23:..\..\..\lvgl\version_6.1.2\lvgl\src\lv_core\../lv_misc/lv_area.h **** #endif
  24:..\..\..\lvgl\version_6.1.2\lvgl\src\lv_core\../lv_misc/lv_area.h **** 
  25:..\..\..\lvgl\version_6.1.2\lvgl\src\lv_core\../lv_misc/lv_area.h **** /*********************
  26:..\..\..\lvgl\version_6.1.2\lvgl\src\lv_core\../lv_misc/lv_area.h ****  *      DEFINES
  27:..\..\..\lvgl\version_6.1.2\lvgl\src\lv_core\../lv_misc/lv_area.h ****  *********************/
  28:..\..\..\lvgl\version_6.1.2\lvgl\src\lv_core\../lv_misc/lv_area.h **** /*To avoid overflow don't let the max ranges (reduce with 1000) */
  29:..\..\..\lvgl\version_6.1.2\lvgl\src\lv_core\../lv_misc/lv_area.h **** #define LV_COORD_MAX ((lv_coord_t)((uint32_t)((uint32_t)1 << (8 * sizeof(lv_coord_t) - 1)) - 1000))
  30:..\..\..\lvgl\version_6.1.2\lvgl\src\lv_core\../lv_misc/lv_area.h **** #define LV_COORD_MIN (-LV_COORD_MAX)
  31:..\..\..\lvgl\version_6.1.2\lvgl\src\lv_core\../lv_misc/lv_area.h **** 
  32:..\..\..\lvgl\version_6.1.2\lvgl\src\lv_core\../lv_misc/lv_area.h **** LV_EXPORT_CONST_INT(LV_COORD_MAX);
  33:..\..\..\lvgl\version_6.1.2\lvgl\src\lv_core\../lv_misc/lv_area.h **** LV_EXPORT_CONST_INT(LV_COORD_MIN);
  34:..\..\..\lvgl\version_6.1.2\lvgl\src\lv_core\../lv_misc/lv_area.h **** 
  35:..\..\..\lvgl\version_6.1.2\lvgl\src\lv_core\../lv_misc/lv_area.h **** /**********************
  36:..\..\..\lvgl\version_6.1.2\lvgl\src\lv_core\../lv_misc/lv_area.h ****  *      TYPEDEFS
  37:..\..\..\lvgl\version_6.1.2\lvgl\src\lv_core\../lv_misc/lv_area.h ****  **********************/
  38:..\..\..\lvgl\version_6.1.2\lvgl\src\lv_core\../lv_misc/lv_area.h **** 
  39:..\..\..\lvgl\version_6.1.2\lvgl\src\lv_core\../lv_misc/lv_area.h **** /**
  40:..\..\..\lvgl\version_6.1.2\lvgl\src\lv_core\../lv_misc/lv_area.h ****  * Represents a point on the screen.
  41:..\..\..\lvgl\version_6.1.2\lvgl\src\lv_core\../lv_misc/lv_area.h ****  */
  42:..\..\..\lvgl\version_6.1.2\lvgl\src\lv_core\../lv_misc/lv_area.h **** typedef struct
  43:..\..\..\lvgl\version_6.1.2\lvgl\src\lv_core\../lv_misc/lv_area.h **** {
  44:..\..\..\lvgl\version_6.1.2\lvgl\src\lv_core\../lv_misc/lv_area.h ****     lv_coord_t x;
  45:..\..\..\lvgl\version_6.1.2\lvgl\src\lv_core\../lv_misc/lv_area.h ****     lv_coord_t y;
  46:..\..\..\lvgl\version_6.1.2\lvgl\src\lv_core\../lv_misc/lv_area.h **** } lv_point_t;
  47:..\..\..\lvgl\version_6.1.2\lvgl\src\lv_core\../lv_misc/lv_area.h **** 
  48:..\..\..\lvgl\version_6.1.2\lvgl\src\lv_core\../lv_misc/lv_area.h **** /** Represents an area of the screen. */
  49:..\..\..\lvgl\version_6.1.2\lvgl\src\lv_core\../lv_misc/lv_area.h **** typedef struct
  50:..\..\..\lvgl\version_6.1.2\lvgl\src\lv_core\../lv_misc/lv_area.h **** {
  51:..\..\..\lvgl\version_6.1.2\lvgl\src\lv_core\../lv_misc/lv_area.h ****     lv_coord_t x1;
  52:..\..\..\lvgl\version_6.1.2\lvgl\src\lv_core\../lv_misc/lv_area.h ****     lv_coord_t y1;
  53:..\..\..\lvgl\version_6.1.2\lvgl\src\lv_core\../lv_misc/lv_area.h ****     lv_coord_t x2;
  54:..\..\..\lvgl\version_6.1.2\lvgl\src\lv_core\../lv_misc/lv_area.h ****     lv_coord_t y2;
  55:..\..\..\lvgl\version_6.1.2\lvgl\src\lv_core\../lv_misc/lv_area.h **** } lv_area_t;
  56:..\..\..\lvgl\version_6.1.2\lvgl\src\lv_core\../lv_misc/lv_area.h **** 
  57:..\..\..\lvgl\version_6.1.2\lvgl\src\lv_core\../lv_misc/lv_area.h **** /**********************
  58:..\..\..\lvgl\version_6.1.2\lvgl\src\lv_core\../lv_misc/lv_area.h ****  * GLOBAL PROTOTYPES
  59:..\..\..\lvgl\version_6.1.2\lvgl\src\lv_core\../lv_misc/lv_area.h ****  **********************/
  60:..\..\..\lvgl\version_6.1.2\lvgl\src\lv_core\../lv_misc/lv_area.h **** 
  61:..\..\..\lvgl\version_6.1.2\lvgl\src\lv_core\../lv_misc/lv_area.h **** /**
  62:..\..\..\lvgl\version_6.1.2\lvgl\src\lv_core\../lv_misc/lv_area.h ****  * Initialize an area
  63:..\..\..\lvgl\version_6.1.2\lvgl\src\lv_core\../lv_misc/lv_area.h ****  * @param area_p pointer to an area
  64:..\..\..\lvgl\version_6.1.2\lvgl\src\lv_core\../lv_misc/lv_area.h ****  * @param x1 left coordinate of the area
  65:..\..\..\lvgl\version_6.1.2\lvgl\src\lv_core\../lv_misc/lv_area.h ****  * @param y1 top coordinate of the area
  66:..\..\..\lvgl\version_6.1.2\lvgl\src\lv_core\../lv_misc/lv_area.h ****  * @param x2 right coordinate of the area
  67:..\..\..\lvgl\version_6.1.2\lvgl\src\lv_core\../lv_misc/lv_area.h ****  * @param y2 bottom coordinate of the area
  68:..\..\..\lvgl\version_6.1.2\lvgl\src\lv_core\../lv_misc/lv_area.h ****  */
  69:..\..\..\lvgl\version_6.1.2\lvgl\src\lv_core\../lv_misc/lv_area.h **** void lv_area_set(lv_area_t * area_p, lv_coord_t x1, lv_coord_t y1, lv_coord_t x2, lv_coord_t y2);
  70:..\..\..\lvgl\version_6.1.2\lvgl\src\lv_core\../lv_misc/lv_area.h **** 
  71:..\..\..\lvgl\version_6.1.2\lvgl\src\lv_core\../lv_misc/lv_area.h **** /**
  72:..\..\..\lvgl\version_6.1.2\lvgl\src\lv_core\../lv_misc/lv_area.h ****  * Copy an area
  73:..\..\..\lvgl\version_6.1.2\lvgl\src\lv_core\../lv_misc/lv_area.h ****  * @param dest pointer to the destination area
  74:..\..\..\lvgl\version_6.1.2\lvgl\src\lv_core\../lv_misc/lv_area.h ****  * @param src pointer to the source area
  75:..\..\..\lvgl\version_6.1.2\lvgl\src\lv_core\../lv_misc/lv_area.h ****  */
  76:..\..\..\lvgl\version_6.1.2\lvgl\src\lv_core\../lv_misc/lv_area.h **** inline static void lv_area_copy(lv_area_t * dest, const lv_area_t * src)
  77:..\..\..\lvgl\version_6.1.2\lvgl\src\lv_core\../lv_misc/lv_area.h **** {
  78:..\..\..\lvgl\version_6.1.2\lvgl\src\lv_core\../lv_misc/lv_area.h ****     memcpy(dest, src, sizeof(lv_area_t));
ARM GAS  C:\Users\pearlstl\AppData\Local\Temp\ccFIoKDo.s 			page 29


 829              		.loc 2 78 0
 830 009e 6B46     		mov	r3, sp
 831 00a0 03CB     		ldmia	r3!, {r0, r1}
 832 00a2 0123     		movs	r3, #1
 833 00a4 E863     		str	r0, [r5, #60]	@ unaligned
 834 00a6 2964     		str	r1, [r5, #64]	@ unaligned
 835              	.LVL114:
 836              	.L106:
 837              	.LBE60:
 838              	.LBE59:
 133:..\..\..\lvgl\version_6.1.2\lvgl\src\lv_core/lv_refr.c ****     }
 839              		.loc 1 133 0
 840 00a8 B5F85C21 		ldrh	r2, [r5, #348]
 841 00ac 63F30902 		bfi	r2, r3, #0, #10
 842 00b0 A5F85C21 		strh	r2, [r5, #348]	@ movhi
 843              	.LBE63:
 135:..\..\..\lvgl\version_6.1.2\lvgl\src\lv_core/lv_refr.c **** 
 844              		.loc 1 135 0
 845 00b4 05B0     		add	sp, sp, #20
 846              		.cfi_remember_state
 847              		.cfi_def_cfa_offset 12
 848              		@ sp needed
 849 00b6 30BD     		pop	{r4, r5, pc}
 850              	.LVL115:
 851              	.L103:
 852              		.cfi_restore_state
 853              	.LBB64:
 854              	.LBB61:
 855              	.LBB62:
 856              		.loc 2 78 0
 857 00b8 02AA     		add	r2, sp, #8
 858              	.LVL116:
 859 00ba 03CA     		ldmia	r2!, {r0, r1}
 860              	.LVL117:
 861 00bc 0733     		adds	r3, r3, #7
 862              	.LVL118:
 863 00be 05EBC303 		add	r3, r5, r3, lsl #3
 864              	.LVL119:
 865 00c2 5860     		str	r0, [r3, #4]	@ unaligned
 866 00c4 9960     		str	r1, [r3, #8]	@ unaligned
 867 00c6 B5F85C31 		ldrh	r3, [r5, #348]
 868 00ca 0133     		adds	r3, r3, #1
 869 00cc C3F30903 		ubfx	r3, r3, #0, #10
 870 00d0 EAE7     		b	.L106
 871              	.LBE62:
 872              	.LBE61:
 873              	.LBE64:
 874              		.cfi_endproc
 875              	.LFE37:
 876              		.size	lv_inv_area, .-lv_inv_area
 877 00d2 00BF     		.section	.text.lv_refr_get_disp_refreshing,"ax",%progbits
 878              		.align	2
 879              		.global	lv_refr_get_disp_refreshing
 880              		.thumb
 881              		.thumb_func
 882              		.type	lv_refr_get_disp_refreshing, %function
 883              	lv_refr_get_disp_refreshing:
ARM GAS  C:\Users\pearlstl\AppData\Local\Temp\ccFIoKDo.s 			page 30


 884              	.LFB38:
 142:..\..\..\lvgl\version_6.1.2\lvgl\src\lv_core/lv_refr.c ****     return disp_refr;
 885              		.loc 1 142 0
 886              		.cfi_startproc
 887              		@ args = 0, pretend = 0, frame = 0
 888              		@ frame_needed = 0, uses_anonymous_args = 0
 889              		@ link register save eliminated.
 143:..\..\..\lvgl\version_6.1.2\lvgl\src\lv_core/lv_refr.c **** }
 890              		.loc 1 143 0
 891 0000 014B     		ldr	r3, .L126
 144:..\..\..\lvgl\version_6.1.2\lvgl\src\lv_core/lv_refr.c **** 
 892              		.loc 1 144 0
 893 0002 1868     		ldr	r0, [r3]
 894 0004 7047     		bx	lr
 895              	.L127:
 896 0006 00BF     		.align	2
 897              	.L126:
 898 0008 00000000 		.word	.LANCHOR0
 899              		.cfi_endproc
 900              	.LFE38:
 901              		.size	lv_refr_get_disp_refreshing, .-lv_refr_get_disp_refreshing
 902              		.section	.text.lv_refr_set_disp_refreshing,"ax",%progbits
 903              		.align	2
 904              		.global	lv_refr_set_disp_refreshing
 905              		.thumb
 906              		.thumb_func
 907              		.type	lv_refr_set_disp_refreshing, %function
 908              	lv_refr_set_disp_refreshing:
 909              	.LFB39:
 153:..\..\..\lvgl\version_6.1.2\lvgl\src\lv_core/lv_refr.c ****     disp_refr = disp;
 910              		.loc 1 153 0
 911              		.cfi_startproc
 912              		@ args = 0, pretend = 0, frame = 0
 913              		@ frame_needed = 0, uses_anonymous_args = 0
 914              		@ link register save eliminated.
 915              	.LVL120:
 154:..\..\..\lvgl\version_6.1.2\lvgl\src\lv_core/lv_refr.c **** }
 916              		.loc 1 154 0
 917 0000 014B     		ldr	r3, .L129
 918 0002 1860     		str	r0, [r3]
 919 0004 7047     		bx	lr
 920              	.L130:
 921 0006 00BF     		.align	2
 922              	.L129:
 923 0008 00000000 		.word	.LANCHOR0
 924              		.cfi_endproc
 925              	.LFE39:
 926              		.size	lv_refr_set_disp_refreshing, .-lv_refr_set_disp_refreshing
 927              		.section	.text.lv_disp_refr_task,"ax",%progbits
 928              		.align	2
 929              		.global	lv_disp_refr_task
 930              		.thumb
 931              		.thumb_func
 932              		.type	lv_disp_refr_task, %function
 933              	lv_disp_refr_task:
 934              	.LFB40:
 162:..\..\..\lvgl\version_6.1.2\lvgl\src\lv_core/lv_refr.c ****     LV_LOG_TRACE("lv_refr_task: started");
ARM GAS  C:\Users\pearlstl\AppData\Local\Temp\ccFIoKDo.s 			page 31


 935              		.loc 1 162 0
 936              		.cfi_startproc
 937              		@ args = 0, pretend = 0, frame = 32
 938              		@ frame_needed = 0, uses_anonymous_args = 0
 939              	.LVL121:
 940 0000 2DE9F04F 		push	{r4, r5, r6, r7, r8, r9, r10, fp, lr}
 941              		.cfi_def_cfa_offset 36
 942              		.cfi_offset 4, -36
 943              		.cfi_offset 5, -32
 944              		.cfi_offset 6, -28
 945              		.cfi_offset 7, -24
 946              		.cfi_offset 8, -20
 947              		.cfi_offset 9, -16
 948              		.cfi_offset 10, -12
 949              		.cfi_offset 11, -8
 950              		.cfi_offset 14, -4
 951 0004 0446     		mov	r4, r0
 952 0006 89B0     		sub	sp, sp, #36
 953              		.cfi_def_cfa_offset 72
 165:..\..\..\lvgl\version_6.1.2\lvgl\src\lv_core/lv_refr.c **** 
 954              		.loc 1 165 0
 955 0008 FFF7FEFF 		bl	lv_tick_get
 956              	.LVL122:
 167:..\..\..\lvgl\version_6.1.2\lvgl\src\lv_core/lv_refr.c **** 
 957              		.loc 1 167 0
 958 000c E468     		ldr	r4, [r4, #12]
 959              	.LVL123:
 960 000e B14F     		ldr	r7, .L224
 961              	.LBB90:
 962              	.LBB91:
 237:..\..\..\lvgl\version_6.1.2\lvgl\src\lv_core/lv_refr.c ****         if(disp_refr->inv_area_joined[join_in] != 0) continue;
 963              		.loc 1 237 0
 964 0010 B4F85C21 		ldrh	r2, [r4, #348]
 965              	.LBE91:
 966              	.LBE90:
 165:..\..\..\lvgl\version_6.1.2\lvgl\src\lv_core/lv_refr.c **** 
 967              		.loc 1 165 0
 968 0014 0590     		str	r0, [sp, #20]
 969              	.LVL124:
 970              	.LBB101:
 971              	.LBB98:
 237:..\..\..\lvgl\version_6.1.2\lvgl\src\lv_core/lv_refr.c ****         if(disp_refr->inv_area_joined[join_in] != 0) continue;
 972              		.loc 1 237 0
 973 0016 C2F30902 		ubfx	r2, r2, #0, #10
 974              	.LBE98:
 975              	.LBE101:
 167:..\..\..\lvgl\version_6.1.2\lvgl\src\lv_core/lv_refr.c **** 
 976              		.loc 1 167 0
 977 001a 3C60     		str	r4, [r7]
 978              	.LVL125:
 979              	.LBB102:
 980              	.LBB99:
 237:..\..\..\lvgl\version_6.1.2\lvgl\src\lv_core/lv_refr.c ****         if(disp_refr->inv_area_joined[join_in] != 0) continue;
 981              		.loc 1 237 0
 982 001c 002A     		cmp	r2, #0
 983 001e 00F05B81 		beq	.L132
 984 0022 4FF0000A 		mov	r10, #0
ARM GAS  C:\Users\pearlstl\AppData\Local\Temp\ccFIoKDo.s 			page 32


 252:..\..\..\lvgl\version_6.1.2\lvgl\src\lv_core/lv_refr.c **** 
 985              		.loc 1 252 0
 986 0026 B946     		mov	r9, r7
 987              	.LVL126:
 988              	.L139:
 238:..\..\..\lvgl\version_6.1.2\lvgl\src\lv_core/lv_refr.c **** 
 989              		.loc 1 238 0
 990 0028 04EB0A03 		add	r3, r4, r10
 991 002c 93F83C51 		ldrb	r5, [r3, #316]	@ zero_extendqisi2
 992 0030 002D     		cmp	r5, #0
 993 0032 47D1     		bne	.L134
 994              	.LVL127:
 241:..\..\..\lvgl\version_6.1.2\lvgl\src\lv_core/lv_refr.c ****             /*Handle only unjoined areas and ignore itself*/
 995              		.loc 1 241 0
 996 0034 002A     		cmp	r2, #0
 997 0036 00F04F81 		beq	.L132
 248:..\..\..\lvgl\version_6.1.2\lvgl\src\lv_core/lv_refr.c ****                 continue;
 998              		.loc 1 248 0
 999 003a 0AF10708 		add	r8, r10, #7
 1000 003e 4FEAC808 		lsl	r8, r8, #3
 1001 0042 07E0     		b	.L138
 1002              	.LVL128:
 1003              	.L217:
 1004 0044 3C68     		ldr	r4, [r7]
 1005 0046 B4F85C21 		ldrh	r2, [r4, #348]
 1006 004a C2F30902 		ubfx	r2, r2, #0, #10
 1007              	.L135:
 241:..\..\..\lvgl\version_6.1.2\lvgl\src\lv_core/lv_refr.c ****             /*Handle only unjoined areas and ignore itself*/
 1008              		.loc 1 241 0
 1009 004e 0135     		adds	r5, r5, #1
 1010              	.LVL129:
 1011 0050 9542     		cmp	r5, r2
 1012 0052 37D2     		bcs	.L134
 1013              	.LVL130:
 1014              	.L138:
 243:..\..\..\lvgl\version_6.1.2\lvgl\src\lv_core/lv_refr.c ****                 continue;
 1015              		.loc 1 243 0
 1016 0054 6319     		adds	r3, r4, r5
 1017 0056 93F83C31 		ldrb	r3, [r3, #316]	@ zero_extendqisi2
 1018 005a 002B     		cmp	r3, #0
 1019 005c F7D1     		bne	.L135
 248:..\..\..\lvgl\version_6.1.2\lvgl\src\lv_core/lv_refr.c ****                 continue;
 1020              		.loc 1 248 0
 1021 005e EE1D     		adds	r6, r5, #7
 1022 0060 F600     		lsls	r6, r6, #3
 1023 0062 A119     		adds	r1, r4, r6
 1024 0064 04EB0800 		add	r0, r4, r8
 243:..\..\..\lvgl\version_6.1.2\lvgl\src\lv_core/lv_refr.c ****                 continue;
 1025              		.loc 1 243 0
 1026 0068 5545     		cmp	r5, r10
 248:..\..\..\lvgl\version_6.1.2\lvgl\src\lv_core/lv_refr.c ****                 continue;
 1027              		.loc 1 248 0
 1028 006a 01F10401 		add	r1, r1, #4
 1029 006e 00F10400 		add	r0, r0, #4
 243:..\..\..\lvgl\version_6.1.2\lvgl\src\lv_core/lv_refr.c ****                 continue;
 1030              		.loc 1 243 0
 1031 0072 ECD0     		beq	.L135
ARM GAS  C:\Users\pearlstl\AppData\Local\Temp\ccFIoKDo.s 			page 33


 248:..\..\..\lvgl\version_6.1.2\lvgl\src\lv_core/lv_refr.c ****                 continue;
 1032              		.loc 1 248 0
 1033 0074 FFF7FEFF 		bl	lv_area_is_on
 1034              	.LVL131:
 1035 0078 0028     		cmp	r0, #0
 1036 007a E3D0     		beq	.L217
 252:..\..\..\lvgl\version_6.1.2\lvgl\src\lv_core/lv_refr.c **** 
 1037              		.loc 1 252 0
 1038 007c 3968     		ldr	r1, [r7]
 1039 007e 8A19     		adds	r2, r1, r6
 1040 0080 4144     		add	r1, r1, r8
 1041 0082 0432     		adds	r2, r2, #4
 1042 0084 0431     		adds	r1, r1, #4
 1043 0086 06A8     		add	r0, sp, #24
 1044 0088 FFF7FEFF 		bl	lv_area_join
 1045              	.LVL132:
 255:..\..\..\lvgl\version_6.1.2\lvgl\src\lv_core/lv_refr.c ****                                                  lv_area_get_size(&disp_refr->inv_areas[join_from])
 1046              		.loc 1 255 0
 1047 008c 06A8     		add	r0, sp, #24
 1048 008e FFF7FEFF 		bl	lv_area_get_size
 1049              	.LVL133:
 1050 0092 8346     		mov	fp, r0
 1051 0094 3868     		ldr	r0, [r7]
 1052 0096 4044     		add	r0, r0, r8
 1053 0098 0430     		adds	r0, r0, #4
 1054 009a FFF7FEFF 		bl	lv_area_get_size
 1055              	.LVL134:
 1056 009e 0446     		mov	r4, r0
 256:..\..\..\lvgl\version_6.1.2\lvgl\src\lv_core/lv_refr.c ****                 lv_area_copy(&disp_refr->inv_areas[join_in], &joined_area);
 1057              		.loc 1 256 0
 1058 00a0 3868     		ldr	r0, [r7]
 1059 00a2 3044     		add	r0, r0, r6
 1060 00a4 0430     		adds	r0, r0, #4
 1061 00a6 FFF7FEFF 		bl	lv_area_get_size
 1062              	.LVL135:
 255:..\..\..\lvgl\version_6.1.2\lvgl\src\lv_core/lv_refr.c ****                                                  lv_area_get_size(&disp_refr->inv_areas[join_from])
 1063              		.loc 1 255 0
 1064 00aa 2044     		add	r0, r0, r4
 1065 00ac 8345     		cmp	fp, r0
 257:..\..\..\lvgl\version_6.1.2\lvgl\src\lv_core/lv_refr.c **** 
 1066              		.loc 1 257 0
 1067 00ae D9F80040 		ldr	r4, [r9]
 255:..\..\..\lvgl\version_6.1.2\lvgl\src\lv_core/lv_refr.c ****                                                  lv_area_get_size(&disp_refr->inv_areas[join_from])
 1068              		.loc 1 255 0
 1069 00b2 C0F0E080 		bcc	.L218
 1070              	.L215:
 1071 00b6 B4F85C21 		ldrh	r2, [r4, #348]
 241:..\..\..\lvgl\version_6.1.2\lvgl\src\lv_core/lv_refr.c ****             /*Handle only unjoined areas and ignore itself*/
 1072              		.loc 1 241 0
 1073 00ba 0135     		adds	r5, r5, #1
 1074              	.LVL136:
 1075 00bc C2F30902 		ubfx	r2, r2, #0, #10
 1076 00c0 9542     		cmp	r5, r2
 1077 00c2 C7D3     		bcc	.L138
 1078              	.LVL137:
 1079              	.L134:
 237:..\..\..\lvgl\version_6.1.2\lvgl\src\lv_core/lv_refr.c ****         if(disp_refr->inv_area_joined[join_in] != 0) continue;
ARM GAS  C:\Users\pearlstl\AppData\Local\Temp\ccFIoKDo.s 			page 34


 1080              		.loc 1 237 0
 1081 00c4 0AF1010A 		add	r10, r10, #1
 1082              	.LVL138:
 1083 00c8 9245     		cmp	r10, r2
 1084 00ca ADD3     		bcc	.L139
 1085              	.LVL139:
 1086              	.LBE99:
 1087              	.LBE102:
 1088              	.LBB103:
 1089              	.LBB104:
 271:..\..\..\lvgl\version_6.1.2\lvgl\src\lv_core/lv_refr.c ****     uint32_t i;
 1090              		.loc 1 271 0
 1091 00cc 0023     		movs	r3, #0
 1092 00ce 7B60     		str	r3, [r7, #4]
 1093              	.LVL140:
 274:..\..\..\lvgl\version_6.1.2\lvgl\src\lv_core/lv_refr.c ****         /*Refresh the unjoined areas*/
 1094              		.loc 1 274 0
 1095 00d0 002A     		cmp	r2, #0
 1096 00d2 00F0C580 		beq	.L140
 1097 00d6 1D46     		mov	r5, r3
 1098 00d8 03E0     		b	.L155
 1099              	.LVL141:
 1100              	.L141:
 1101 00da 0135     		adds	r5, r5, #1
 1102              	.LVL142:
 1103 00dc 9542     		cmp	r5, r2
 1104 00de 80F0BF80 		bcs	.L140
 1105              	.LVL143:
 1106              	.L155:
 276:..\..\..\lvgl\version_6.1.2\lvgl\src\lv_core/lv_refr.c **** 
 1107              		.loc 1 276 0
 1108 00e2 6319     		adds	r3, r4, r5
 1109 00e4 93F83C61 		ldrb	r6, [r3, #316]	@ zero_extendqisi2
 1110 00e8 002E     		cmp	r6, #0
 1111 00ea F6D1     		bne	.L141
 278:..\..\..\lvgl\version_6.1.2\lvgl\src\lv_core/lv_refr.c **** 
 1112              		.loc 1 278 0
 1113 00ec EB1D     		adds	r3, r5, #7
 1114 00ee 04EBC309 		add	r9, r4, r3, lsl #3
 1115 00f2 0393     		str	r3, [sp, #12]
 1116              	.LBB105:
 1117              	.LBB106:
 293:..\..\..\lvgl\version_6.1.2\lvgl\src\lv_core/lv_refr.c ****         lv_disp_buf_t * vdb = lv_disp_get_buf(disp_refr);
 1118              		.loc 1 293 0
 1119 00f4 2046     		mov	r0, r4
 1120              	.LBE106:
 1121              	.LBE105:
 278:..\..\..\lvgl\version_6.1.2\lvgl\src\lv_core/lv_refr.c **** 
 1122              		.loc 1 278 0
 1123 00f6 09F10403 		add	r3, r9, #4
 1124 00fa 0193     		str	r3, [sp, #4]
 1125              	.LVL144:
 1126              	.LBB130:
 1127              	.LBB126:
 293:..\..\..\lvgl\version_6.1.2\lvgl\src\lv_core/lv_refr.c ****         lv_disp_buf_t * vdb = lv_disp_get_buf(disp_refr);
 1128              		.loc 1 293 0
 1129 00fc FFF7FEFF 		bl	lv_disp_is_true_double_buf
ARM GAS  C:\Users\pearlstl\AppData\Local\Temp\ccFIoKDo.s 			page 35


 1130              	.LVL145:
 1131 0100 0028     		cmp	r0, #0
 1132 0102 40F0C380 		bne	.L219
 1133              	.LBB107:
 303:..\..\..\lvgl\version_6.1.2\lvgl\src\lv_core/lv_refr.c ****         /*Calculate the max row num*/
 1134              		.loc 1 303 0
 1135 0106 3868     		ldr	r0, [r7]
 1136 0108 FFF7FEFF 		bl	lv_disp_get_buf
 1137              	.LVL146:
 1138              	.LBB108:
 1139              	.LBB109:
  79:..\..\..\lvgl\version_6.1.2\lvgl\src\lv_core\../lv_misc/lv_area.h **** }
  80:..\..\..\lvgl\version_6.1.2\lvgl\src\lv_core\../lv_misc/lv_area.h **** 
  81:..\..\..\lvgl\version_6.1.2\lvgl\src\lv_core\../lv_misc/lv_area.h **** /**
  82:..\..\..\lvgl\version_6.1.2\lvgl\src\lv_core\../lv_misc/lv_area.h ****  * Get the width of an area
  83:..\..\..\lvgl\version_6.1.2\lvgl\src\lv_core\../lv_misc/lv_area.h ****  * @param area_p pointer to an area
  84:..\..\..\lvgl\version_6.1.2\lvgl\src\lv_core\../lv_misc/lv_area.h ****  * @return the width of the area (if x1 == x2 -> width = 1)
  85:..\..\..\lvgl\version_6.1.2\lvgl\src\lv_core\../lv_misc/lv_area.h ****  */
  86:..\..\..\lvgl\version_6.1.2\lvgl\src\lv_core\../lv_misc/lv_area.h **** static inline lv_coord_t lv_area_get_width(const lv_area_t * area_p)
  87:..\..\..\lvgl\version_6.1.2\lvgl\src\lv_core\../lv_misc/lv_area.h **** {
  88:..\..\..\lvgl\version_6.1.2\lvgl\src\lv_core\../lv_misc/lv_area.h ****     return (lv_coord_t)(area_p->x2 - area_p->x1 + 1);
 1140              		.loc 2 88 0
 1141 010c 0199     		ldr	r1, [sp, #4]
 1142 010e B9F804A0 		ldrh	r10, [r9, #4]
 1143 0112 8B88     		ldrh	r3, [r1, #4]
 1144 0114 B1F906B0 		ldrsh	fp, [r1, #6]
 1145              	.LBE109:
 1146              	.LBE108:
 1147              	.LBB112:
 1148              	.LBB113:
  89:..\..\..\lvgl\version_6.1.2\lvgl\src\lv_core\../lv_misc/lv_area.h **** }
  90:..\..\..\lvgl\version_6.1.2\lvgl\src\lv_core\../lv_misc/lv_area.h **** 
  91:..\..\..\lvgl\version_6.1.2\lvgl\src\lv_core\../lv_misc/lv_area.h **** /**
  92:..\..\..\lvgl\version_6.1.2\lvgl\src\lv_core\../lv_misc/lv_area.h ****  * Get the height of an area
  93:..\..\..\lvgl\version_6.1.2\lvgl\src\lv_core\../lv_misc/lv_area.h ****  * @param area_p pointer to an area
  94:..\..\..\lvgl\version_6.1.2\lvgl\src\lv_core\../lv_misc/lv_area.h ****  * @return the height of the area (if y1 == y2 -> height = 1)
  95:..\..\..\lvgl\version_6.1.2\lvgl\src\lv_core\../lv_misc/lv_area.h ****  */
  96:..\..\..\lvgl\version_6.1.2\lvgl\src\lv_core\../lv_misc/lv_area.h **** static inline lv_coord_t lv_area_get_height(const lv_area_t * area_p)
  97:..\..\..\lvgl\version_6.1.2\lvgl\src\lv_core\../lv_misc/lv_area.h **** {
  98:..\..\..\lvgl\version_6.1.2\lvgl\src\lv_core\../lv_misc/lv_area.h ****     return (lv_coord_t)(area_p->y2 - area_p->y1 + 1);
 1149              		.loc 2 98 0
 1150 0118 4E88     		ldrh	r6, [r1, #2]
 1151              	.LBE113:
 1152              	.LBE112:
 1153              	.LBB117:
 1154              	.LBB110:
  88:..\..\..\lvgl\version_6.1.2\lvgl\src\lv_core\../lv_misc/lv_area.h **** }
 1155              		.loc 2 88 0
 1156 011a 0133     		adds	r3, r3, #1
 1157 011c CAEB0303 		rsb	r3, r10, r3
 1158              	.LBE110:
 1159              	.LBE117:
 1160              	.LBB118:
 1161              	.LBB114:
 1162              		.loc 2 98 0
 1163 0120 0BF10101 		add	r1, fp, #1
 1164              	.LBE114:
ARM GAS  C:\Users\pearlstl\AppData\Local\Temp\ccFIoKDo.s 			page 36


 1165              	.LBE118:
 303:..\..\..\lvgl\version_6.1.2\lvgl\src\lv_core/lv_refr.c ****         /*Calculate the max row num*/
 1166              		.loc 1 303 0
 1167 0124 8046     		mov	r8, r0
 1168              	.LVL147:
 308:..\..\..\lvgl\version_6.1.2\lvgl\src\lv_core/lv_refr.c **** 
 1169              		.loc 1 308 0
 1170 0126 3868     		ldr	r0, [r7]
 1171              	.LVL148:
 1172              	.LBB119:
 1173              	.LBB115:
 1174              		.loc 2 98 0
 1175 0128 8E1B     		subs	r6, r1, r6
 1176              	.LBE115:
 1177              	.LBE119:
 1178              	.LBB120:
 1179              	.LBB111:
  88:..\..\..\lvgl\version_6.1.2\lvgl\src\lv_core\../lv_misc/lv_area.h **** }
 1180              		.loc 2 88 0
 1181 012a 0FFA83FA 		sxth	r10, r3
 1182              	.LVL149:
 1183              	.LBE111:
 1184              	.LBE120:
 308:..\..\..\lvgl\version_6.1.2\lvgl\src\lv_core/lv_refr.c **** 
 1185              		.loc 1 308 0
 1186 012e FFF7FEFF 		bl	lv_disp_get_ver_res
 1187              	.LVL150:
 307:..\..\..\lvgl\version_6.1.2\lvgl\src\lv_core/lv_refr.c ****             area_p->y2 >= lv_disp_get_ver_res(disp_refr) ? y2 = lv_disp_get_ver_res(disp_refr) - 1 
 1188              		.loc 1 307 0
 1189 0132 8345     		cmp	fp, r0
 1190              	.LBB121:
 1191              	.LBB116:
 1192              		.loc 2 98 0
 1193 0134 36B2     		sxth	r6, r6
 1194              	.LBE116:
 1195              	.LBE121:
 307:..\..\..\lvgl\version_6.1.2\lvgl\src\lv_core/lv_refr.c ****             area_p->y2 >= lv_disp_get_ver_res(disp_refr) ? y2 = lv_disp_get_ver_res(disp_refr) - 1 
 1196              		.loc 1 307 0
 1197 0136 80F2C580 		bge	.L220
 1198 013a B9F90A90 		ldrsh	r9, [r9, #10]
 1199              	.L145:
 1200              	.LVL151:
 315:..\..\..\lvgl\version_6.1.2\lvgl\src\lv_core/lv_refr.c ****             lv_area_t tmp;
 1201              		.loc 1 315 0
 1202 013e 3868     		ldr	r0, [r7]
 310:..\..\..\lvgl\version_6.1.2\lvgl\src\lv_core/lv_refr.c **** 
 1203              		.loc 1 310 0
 1204 0140 D8F80C30 		ldr	r3, [r8, #12]
 1205 0144 B3FBFAFA 		udiv	r10, r3, r10
 1206              	.LVL152:
 315:..\..\..\lvgl\version_6.1.2\lvgl\src\lv_core/lv_refr.c ****             lv_area_t tmp;
 1207              		.loc 1 315 0
 1208 0148 0369     		ldr	r3, [r0, #16]
 1209 014a B245     		cmp	r10, r6
 1210 014c A8BF     		it	ge
 1211 014e B246     		movge	r10, r6
 1212              	.LVL153:
ARM GAS  C:\Users\pearlstl\AppData\Local\Temp\ccFIoKDo.s 			page 37


 1213 0150 1BB3     		cbz	r3, .L146
 1214              	.LBB122:
 317:..\..\..\lvgl\version_6.1.2\lvgl\src\lv_core/lv_refr.c ****             tmp.x2 = 0;
 1215              		.loc 1 317 0
 1216 0152 4FF00002 		mov	r2, #0	@ movhi
 1217 0156 ADF81820 		strh	r2, [sp, #24]	@ movhi
 318:..\..\..\lvgl\version_6.1.2\lvgl\src\lv_core/lv_refr.c ****             tmp.y1 = 0;
 1218              		.loc 1 318 0
 1219 015a ADF81C20 		strh	r2, [sp, #28]	@ movhi
 319:..\..\..\lvgl\version_6.1.2\lvgl\src\lv_core/lv_refr.c **** 
 1220              		.loc 1 319 0
 1221 015e ADF81A20 		strh	r2, [sp, #26]	@ movhi
 321:..\..\..\lvgl\version_6.1.2\lvgl\src\lv_core/lv_refr.c ****             do {
 1222              		.loc 1 321 0
 1223 0162 0FFA8AFB 		sxth	fp, r10
 1224              	.LVL154:
 1225 0166 04E0     		b	.L149
 1226              	.LVL155:
 1227              	.L221:
 331:..\..\..\lvgl\version_6.1.2\lvgl\src\lv_core/lv_refr.c **** 
 1228              		.loc 1 331 0
 1229 0168 002E     		cmp	r6, #0
 1230 016a 61DD     		ble	.L143
 1231 016c 3868     		ldr	r0, [r7]
 1232 016e 0369     		ldr	r3, [r0, #16]
 1233 0170 B346     		mov	fp, r6
 1234              	.LVL156:
 1235              	.L149:
 1236 0172 0BF1FF36 		add	r6, fp, #-1
 1237 0176 36B2     		sxth	r6, r6
 324:..\..\..\lvgl\version_6.1.2\lvgl\src\lv_core/lv_refr.c **** 
 1238              		.loc 1 324 0
 1239 0178 06A9     		add	r1, sp, #24
 323:..\..\..\lvgl\version_6.1.2\lvgl\src\lv_core/lv_refr.c ****                 disp_refr->driver.rounder_cb(&disp_refr->driver, &tmp);
 1240              		.loc 1 323 0
 1241 017a ADF81E60 		strh	r6, [sp, #30]	@ movhi
 324:..\..\..\lvgl\version_6.1.2\lvgl\src\lv_core/lv_refr.c **** 
 1242              		.loc 1 324 0
 1243 017e 9847     		blx	r3
 1244              	.LVL157:
 1245 0180 BDF91E10 		ldrsh	r1, [sp, #30]
 1246              	.LVL158:
 327:..\..\..\lvgl\version_6.1.2\lvgl\src\lv_core/lv_refr.c **** 
 1247              		.loc 1 327 0
 1248 0184 BDF81A30 		ldrh	r3, [sp, #26]
 1249 0188 0131     		adds	r1, r1, #1
 1250 018a CB1A     		subs	r3, r1, r3
 1251 018c 1BB2     		sxth	r3, r3
 1252 018e 5345     		cmp	r3, r10
 1253 0190 EADC     		bgt	.L221
 1254              	.LVL159:
 333:..\..\..\lvgl\version_6.1.2\lvgl\src\lv_core/lv_refr.c ****                 LV_LOG_WARN("Can't set VDB height using the round function. (Wrong round_cb or to "
 1255              		.loc 1 333 0
 1256 0192 BBF1000F 		cmp	fp, #0
 1257 0196 4BDD     		ble	.L143
 338:..\..\..\lvgl\version_6.1.2\lvgl\src\lv_core/lv_refr.c ****             }
 1258              		.loc 1 338 0
ARM GAS  C:\Users\pearlstl\AppData\Local\Temp\ccFIoKDo.s 			page 38


 1259 0198 8A46     		mov	r10, r1
 1260              	.LVL160:
 1261              	.L146:
 1262 019a 04EBC50B 		add	fp, r4, r5, lsl #3
 1263              	.LBE122:
 345:..\..\..\lvgl\version_6.1.2\lvgl\src\lv_core/lv_refr.c ****             /*Calc. the next y coordinates of VDB*/
 1264              		.loc 1 345 0
 1265 019e BBF93E40 		ldrsh	r4, [fp, #62]
 1266              	.LVL161:
 1267 01a2 04EB0A03 		add	r3, r4, r10
 1268 01a6 013B     		subs	r3, r3, #1
 1269 01a8 4B45     		cmp	r3, r9
 1270 01aa 00F3C680 		bgt	.L172
 1271 01ae 1FFA8AF1 		uxth	r1, r10
 1272 01b2 631E     		subs	r3, r4, #1
 1273 01b4 0B44     		add	r3, r3, r1
 1274 01b6 9BB2     		uxth	r3, r3
 1275 01b8 0495     		str	r5, [sp, #16]
 1276 01ba CDF808A0 		str	r10, [sp, #8]
 1277 01be 5D46     		mov	r5, fp
 1278              	.LVL162:
 1279 01c0 9A46     		mov	r10, r3
 1280              	.LVL163:
 1281 01c2 CB46     		mov	fp, r9
 1282 01c4 8946     		mov	r9, r1
 1283              	.LVL164:
 1284              	.L153:
 347:..\..\..\lvgl\version_6.1.2\lvgl\src\lv_core/lv_refr.c ****             vdb->area.x2 = area_p->x2;
 1285              		.loc 1 347 0
 1286 01c6 B5F93C00 		ldrsh	r0, [r5, #60]
 1287 01ca A8F81000 		strh	r0, [r8, #16]	@ movhi
 350:..\..\..\lvgl\version_6.1.2\lvgl\src\lv_core/lv_refr.c ****             if(vdb->area.y2 > y2) vdb->area.y2 = y2;
 1288              		.loc 1 350 0
 1289 01ce 0FFA8AF6 		sxth	r6, r10
 348:..\..\..\lvgl\version_6.1.2\lvgl\src\lv_core/lv_refr.c ****             vdb->area.y1 = row;
 1290              		.loc 1 348 0
 1291 01d2 B5F94000 		ldrsh	r0, [r5, #64]
 1292 01d6 A8F81400 		strh	r0, [r8, #20]	@ movhi
 351:..\..\..\lvgl\version_6.1.2\lvgl\src\lv_core/lv_refr.c ****             row_last = vdb->area.y2;
 1293              		.loc 1 351 0
 1294 01da 5E45     		cmp	r6, fp
 349:..\..\..\lvgl\version_6.1.2\lvgl\src\lv_core/lv_refr.c ****             vdb->area.y2 = row + max_row - 1;
 1295              		.loc 1 349 0
 1296 01dc A8F81240 		strh	r4, [r8, #18]	@ movhi
 350:..\..\..\lvgl\version_6.1.2\lvgl\src\lv_core/lv_refr.c ****             if(vdb->area.y2 > y2) vdb->area.y2 = y2;
 1297              		.loc 1 350 0
 1298 01e0 D4BF     		ite	le
 1299 01e2 A8F81660 		strhle	r6, [r8, #22]	@ movhi
 351:..\..\..\lvgl\version_6.1.2\lvgl\src\lv_core/lv_refr.c ****             row_last = vdb->area.y2;
 1300              		.loc 1 351 0
 1301 01e6 A8F816B0 		strhgt	fp, [r8, #22]	@ movhi
 353:..\..\..\lvgl\version_6.1.2\lvgl\src\lv_core/lv_refr.c ****         }
 1302              		.loc 1 353 0
 1303 01ea 0198     		ldr	r0, [sp, #4]
 351:..\..\..\lvgl\version_6.1.2\lvgl\src\lv_core/lv_refr.c ****             row_last = vdb->area.y2;
 1304              		.loc 1 351 0
 1305 01ec C8BF     		it	gt
ARM GAS  C:\Users\pearlstl\AppData\Local\Temp\ccFIoKDo.s 			page 39


 1306 01ee 5E46     		movgt	r6, fp
 1307 01f0 4C44     		add	r4, r4, r9
 1308              	.LVL165:
 353:..\..\..\lvgl\version_6.1.2\lvgl\src\lv_core/lv_refr.c ****         }
 1309              		.loc 1 353 0
 1310 01f2 FFF7FEFF 		bl	lv_refr_area_part
 1311              	.LVL166:
 345:..\..\..\lvgl\version_6.1.2\lvgl\src\lv_core/lv_refr.c ****             /*Calc. the next y coordinates of VDB*/
 1312              		.loc 1 345 0
 1313 01f6 029B     		ldr	r3, [sp, #8]
 1314 01f8 24B2     		sxth	r4, r4
 1315              	.LVL167:
 1316 01fa E018     		adds	r0, r4, r3
 1317 01fc 0138     		subs	r0, r0, #1
 1318 01fe CA44     		add	r10, r10, r9
 1319 0200 5845     		cmp	r0, fp
 1320 0202 1FFA8AFA 		uxth	r10, r10
 1321 0206 DEDD     		ble	.L153
 1322 0208 D946     		mov	r9, fp
 1323 020a AB46     		mov	fp, r5
 1324 020c 049D     		ldr	r5, [sp, #16]
 1325              	.LVL168:
 1326              	.L150:
 357:..\..\..\lvgl\version_6.1.2\lvgl\src\lv_core/lv_refr.c ****             /*Calc. the next y coordinates of VDB*/
 1327              		.loc 1 357 0
 1328 020e B145     		cmp	r9, r6
 1329 0210 0ED0     		beq	.L143
 359:..\..\..\lvgl\version_6.1.2\lvgl\src\lv_core/lv_refr.c ****             vdb->area.x2 = area_p->x2;
 1330              		.loc 1 359 0
 1331 0212 BBF93C30 		ldrsh	r3, [fp, #60]
 1332 0216 A8F81030 		strh	r3, [r8, #16]	@ movhi
 360:..\..\..\lvgl\version_6.1.2\lvgl\src\lv_core/lv_refr.c ****             vdb->area.y1 = row;
 1333              		.loc 1 360 0
 1334 021a BBF94030 		ldrsh	r3, [fp, #64]
 1335 021e A8F81430 		strh	r3, [r8, #20]	@ movhi
 365:..\..\..\lvgl\version_6.1.2\lvgl\src\lv_core/lv_refr.c ****         }
 1336              		.loc 1 365 0
 1337 0222 0198     		ldr	r0, [sp, #4]
 361:..\..\..\lvgl\version_6.1.2\lvgl\src\lv_core/lv_refr.c ****             vdb->area.y2 = y2;
 1338              		.loc 1 361 0
 1339 0224 A8F81240 		strh	r4, [r8, #18]	@ movhi
 362:..\..\..\lvgl\version_6.1.2\lvgl\src\lv_core/lv_refr.c **** 
 1340              		.loc 1 362 0
 1341 0228 A8F81690 		strh	r9, [r8, #22]	@ movhi
 365:..\..\..\lvgl\version_6.1.2\lvgl\src\lv_core/lv_refr.c ****         }
 1342              		.loc 1 365 0
 1343 022c FFF7FEFF 		bl	lv_refr_area_part
 1344              	.LVL169:
 1345              	.L143:
 1346              	.LBE107:
 1347              	.LBE126:
 1348              	.LBE130:
 280:..\..\..\lvgl\version_6.1.2\lvgl\src\lv_core/lv_refr.c ****         }
 1349              		.loc 1 280 0
 1350 0230 3C68     		ldr	r4, [r7]
 1351 0232 A369     		ldr	r3, [r4, #24]
 1352 0234 002B     		cmp	r3, #0
ARM GAS  C:\Users\pearlstl\AppData\Local\Temp\ccFIoKDo.s 			page 40


 1353 0236 40D0     		beq	.L222
 1354              	.LVL170:
 1355              	.L154:
 1356 0238 039B     		ldr	r3, [sp, #12]
 1357 023a 04EBC300 		add	r0, r4, r3, lsl #3
 1358 023e 0430     		adds	r0, r0, #4
 1359 0240 FFF7FEFF 		bl	lv_area_get_size
 1360              	.LVL171:
 1361 0244 234B     		ldr	r3, .L224
 1362 0246 1C68     		ldr	r4, [r3]
 1363 0248 5B68     		ldr	r3, [r3, #4]
 1364 024a B4F85C21 		ldrh	r2, [r4, #348]
 1365 024e 1844     		add	r0, r0, r3
 1366 0250 C2F30902 		ubfx	r2, r2, #0, #10
 1367 0254 1F4B     		ldr	r3, .L224
 274:..\..\..\lvgl\version_6.1.2\lvgl\src\lv_core/lv_refr.c ****         /*Refresh the unjoined areas*/
 1368              		.loc 1 274 0
 1369 0256 0135     		adds	r5, r5, #1
 1370              	.LVL172:
 1371 0258 9542     		cmp	r5, r2
 280:..\..\..\lvgl\version_6.1.2\lvgl\src\lv_core/lv_refr.c ****         }
 1372              		.loc 1 280 0
 1373 025a 5860     		str	r0, [r3, #4]
 274:..\..\..\lvgl\version_6.1.2\lvgl\src\lv_core/lv_refr.c ****         /*Refresh the unjoined areas*/
 1374              		.loc 1 274 0
 1375 025c FFF441AF 		bcc	.L155
 1376              	.LVL173:
 1377              	.L140:
 1378              	.LBE104:
 1379              	.LBE103:
 174:..\..\..\lvgl\version_6.1.2\lvgl\src\lv_core/lv_refr.c ****         /*In true double buffered mode copy the refreshed areas to the new VDB to keep it up to
 1380              		.loc 1 174 0
 1381 0260 B4F85C31 		ldrh	r3, [r4, #348]
 1382 0264 C3F30903 		ubfx	r3, r3, #0, #10
 1383 0268 002B     		cmp	r3, #0
 1384 026a 3DD1     		bne	.L223
 1385              	.L157:
 220:..\..\..\lvgl\version_6.1.2\lvgl\src\lv_core/lv_refr.c **** 
 1386              		.loc 1 220 0
 1387 026c FFF7FEFF 		bl	lv_draw_free_buf
 1388              	.LVL174:
 223:..\..\..\lvgl\version_6.1.2\lvgl\src\lv_core/lv_refr.c **** 
 1389              		.loc 1 223 0
 1390 0270 09B0     		add	sp, sp, #36
 1391              		.cfi_remember_state
 1392              		.cfi_def_cfa_offset 36
 1393              		@ sp needed
 1394 0272 BDE8F08F 		pop	{r4, r5, r6, r7, r8, r9, r10, fp, pc}
 1395              	.LVL175:
 1396              	.L218:
 1397              		.cfi_restore_state
 1398              	.LBB136:
 1399              	.LBB100:
 1400              	.LBB92:
 1401              	.LBB93:
  78:..\..\..\lvgl\version_6.1.2\lvgl\src\lv_core\../lv_misc/lv_area.h **** }
 1402              		.loc 2 78 0
ARM GAS  C:\Users\pearlstl\AppData\Local\Temp\ccFIoKDo.s 			page 41


 1403 0276 06AB     		add	r3, sp, #24
 1404              	.LVL176:
 1405 0278 03CB     		ldmia	r3!, {r0, r1}
 1406              	.LVL177:
 1407              	.LBE93:
 1408              	.LBE92:
 260:..\..\..\lvgl\version_6.1.2\lvgl\src\lv_core/lv_refr.c ****             }
 1409              		.loc 1 260 0
 1410 027a 6219     		adds	r2, r4, r5
 1411              	.LBB96:
 1412              	.LBB94:
  78:..\..\..\lvgl\version_6.1.2\lvgl\src\lv_core\../lv_misc/lv_area.h **** }
 1413              		.loc 2 78 0
 1414 027c 04EB0803 		add	r3, r4, r8
 1415              	.LVL178:
 1416              	.LBE94:
 1417              	.LBE96:
 260:..\..\..\lvgl\version_6.1.2\lvgl\src\lv_core/lv_refr.c ****             }
 1418              		.loc 1 260 0
 1419 0280 0126     		movs	r6, #1
 1420              	.LBB97:
 1421              	.LBB95:
  78:..\..\..\lvgl\version_6.1.2\lvgl\src\lv_core\../lv_misc/lv_area.h **** }
 1422              		.loc 2 78 0
 1423 0282 5860     		str	r0, [r3, #4]	@ unaligned
 1424 0284 9960     		str	r1, [r3, #8]	@ unaligned
 1425              	.LVL179:
 1426              	.LBE95:
 1427              	.LBE97:
 260:..\..\..\lvgl\version_6.1.2\lvgl\src\lv_core/lv_refr.c ****             }
 1428              		.loc 1 260 0
 1429 0286 82F83C61 		strb	r6, [r2, #316]
 1430 028a 14E7     		b	.L215
 1431              	.LVL180:
 1432              	.L219:
 1433              	.LBE100:
 1434              	.LBE136:
 1435              	.LBB137:
 1436              	.LBB134:
 1437              	.LBB131:
 1438              	.LBB127:
 1439              	.LBB123:
 294:..\..\..\lvgl\version_6.1.2\lvgl\src\lv_core/lv_refr.c ****         vdb->area.x1        = 0;
 1440              		.loc 1 294 0
 1441 028c 3868     		ldr	r0, [r7]
 1442 028e FFF7FEFF 		bl	lv_disp_get_buf
 1443              	.LVL181:
 1444 0292 0446     		mov	r4, r0
 1445              	.LVL182:
 296:..\..\..\lvgl\version_6.1.2\lvgl\src\lv_core/lv_refr.c ****         vdb->area.y1        = 0;
 1446              		.loc 1 296 0
 1447 0294 3868     		ldr	r0, [r7]
 1448              	.LVL183:
 295:..\..\..\lvgl\version_6.1.2\lvgl\src\lv_core/lv_refr.c ****         vdb->area.x2        = lv_disp_get_hor_res(disp_refr) - 1;
 1449              		.loc 1 295 0
 1450 0296 2682     		strh	r6, [r4, #16]	@ movhi
 296:..\..\..\lvgl\version_6.1.2\lvgl\src\lv_core/lv_refr.c ****         vdb->area.y1        = 0;
ARM GAS  C:\Users\pearlstl\AppData\Local\Temp\ccFIoKDo.s 			page 42


 1451              		.loc 1 296 0
 1452 0298 FFF7FEFF 		bl	lv_disp_get_hor_res
 1453              	.LVL184:
 1454 029c 0138     		subs	r0, r0, #1
 1455 029e A082     		strh	r0, [r4, #20]	@ movhi
 297:..\..\..\lvgl\version_6.1.2\lvgl\src\lv_core/lv_refr.c ****         vdb->area.y2        = lv_disp_get_ver_res(disp_refr) - 1;
 1456              		.loc 1 297 0
 1457 02a0 6682     		strh	r6, [r4, #18]	@ movhi
 298:..\..\..\lvgl\version_6.1.2\lvgl\src\lv_core/lv_refr.c ****         lv_refr_area_part(area_p);
 1458              		.loc 1 298 0
 1459 02a2 3868     		ldr	r0, [r7]
 1460 02a4 FFF7FEFF 		bl	lv_disp_get_ver_res
 1461              	.LVL185:
 1462 02a8 0138     		subs	r0, r0, #1
 1463 02aa E082     		strh	r0, [r4, #22]	@ movhi
 299:..\..\..\lvgl\version_6.1.2\lvgl\src\lv_core/lv_refr.c ****     }
 1464              		.loc 1 299 0
 1465 02ac 0198     		ldr	r0, [sp, #4]
 1466 02ae FFF7FEFF 		bl	lv_refr_area_part
 1467              	.LVL186:
 1468              	.LBE123:
 1469              	.LBE127:
 1470              	.LBE131:
 280:..\..\..\lvgl\version_6.1.2\lvgl\src\lv_core/lv_refr.c ****         }
 1471              		.loc 1 280 0
 1472 02b2 3C68     		ldr	r4, [r7]
 1473 02b4 A369     		ldr	r3, [r4, #24]
 1474 02b6 002B     		cmp	r3, #0
 1475 02b8 BED1     		bne	.L154
 1476              	.LVL187:
 1477              	.L222:
 1478 02ba B4F85C21 		ldrh	r2, [r4, #348]
 1479 02be C2F30902 		ubfx	r2, r2, #0, #10
 1480 02c2 0AE7     		b	.L141
 1481              	.LVL188:
 1482              	.L220:
 1483              	.LBB132:
 1484              	.LBB128:
 1485              	.LBB124:
 308:..\..\..\lvgl\version_6.1.2\lvgl\src\lv_core/lv_refr.c **** 
 1486              		.loc 1 308 0
 1487 02c4 034B     		ldr	r3, .L224
 1488 02c6 1868     		ldr	r0, [r3]
 1489 02c8 FFF7FEFF 		bl	lv_disp_get_ver_res
 1490              	.LVL189:
 1491 02cc 0138     		subs	r0, r0, #1
 1492 02ce 0FFA80F9 		sxth	r9, r0
 1493              	.LVL190:
 1494 02d2 34E7     		b	.L145
 1495              	.L225:
 1496              		.align	2
 1497              	.L224:
 1498 02d4 00000000 		.word	.LANCHOR0
 1499              	.LVL191:
 1500              	.L132:
 1501              	.LBE124:
 1502              	.LBE128:
ARM GAS  C:\Users\pearlstl\AppData\Local\Temp\ccFIoKDo.s 			page 43


 1503              	.LBE132:
 271:..\..\..\lvgl\version_6.1.2\lvgl\src\lv_core/lv_refr.c ****     uint32_t i;
 1504              		.loc 1 271 0
 1505 02d8 0023     		movs	r3, #0
 1506 02da 7B60     		str	r3, [r7, #4]
 1507              	.LVL192:
 1508              	.LBE134:
 1509              	.LBE137:
 174:..\..\..\lvgl\version_6.1.2\lvgl\src\lv_core/lv_refr.c ****         /*In true double buffered mode copy the refreshed areas to the new VDB to keep it up to
 1510              		.loc 1 174 0
 1511 02dc B4F85C31 		ldrh	r3, [r4, #348]
 1512 02e0 C3F30903 		ubfx	r3, r3, #0, #10
 1513 02e4 002B     		cmp	r3, #0
 1514 02e6 C1D0     		beq	.L157
 1515              	.L223:
 177:..\..\..\lvgl\version_6.1.2\lvgl\src\lv_core/lv_refr.c ****             lv_disp_buf_t * vdb = lv_disp_get_buf(disp_refr);
 1516              		.loc 1 177 0
 1517 02e8 2046     		mov	r0, r4
 1518 02ea FFF7FEFF 		bl	lv_disp_is_true_double_buf
 1519              	.LVL193:
 1520 02ee 30BB     		cbnz	r0, .L158
 1521 02f0 D7F80090 		ldr	r9, [r7]
 1522              	.L159:
 210:..\..\..\lvgl\version_6.1.2\lvgl\src\lv_core/lv_refr.c ****         memset(disp_refr->inv_area_joined, 0, sizeof(disp_refr->inv_area_joined));
 1523              		.loc 1 210 0
 1524 02f4 4FF48072 		mov	r2, #256
 1525 02f8 0021     		movs	r1, #0
 1526 02fa 09F13C00 		add	r0, r9, #60
 1527 02fe FFF7FEFF 		bl	memset
 1528              	.LVL194:
 211:..\..\..\lvgl\version_6.1.2\lvgl\src\lv_core/lv_refr.c ****         disp_refr->inv_p = 0;
 1529              		.loc 1 211 0
 1530 0302 2022     		movs	r2, #32
 1531 0304 0021     		movs	r1, #0
 1532 0306 09F59E70 		add	r0, r9, #316
 1533 030a FFF7FEFF 		bl	memset
 1534              	.LVL195:
 212:..\..\..\lvgl\version_6.1.2\lvgl\src\lv_core/lv_refr.c **** 
 1535              		.loc 1 212 0
 1536 030e B9F85C31 		ldrh	r3, [r9, #348]
 215:..\..\..\lvgl\version_6.1.2\lvgl\src\lv_core/lv_refr.c ****             disp_refr->driver.monitor_cb(&disp_refr->driver, lv_tick_elaps(start), px_num);
 1537              		.loc 1 215 0
 1538 0312 D9F81840 		ldr	r4, [r9, #24]
 212:..\..\..\lvgl\version_6.1.2\lvgl\src\lv_core/lv_refr.c **** 
 1539              		.loc 1 212 0
 1540 0316 6FF30903 		bfc	r3, #0, #10
 1541 031a A9F85C31 		strh	r3, [r9, #348]	@ movhi
 215:..\..\..\lvgl\version_6.1.2\lvgl\src\lv_core/lv_refr.c ****             disp_refr->driver.monitor_cb(&disp_refr->driver, lv_tick_elaps(start), px_num);
 1542              		.loc 1 215 0
 1543 031e 002C     		cmp	r4, #0
 1544 0320 A4D0     		beq	.L157
 216:..\..\..\lvgl\version_6.1.2\lvgl\src\lv_core/lv_refr.c ****         }
 1545              		.loc 1 216 0
 1546 0322 0598     		ldr	r0, [sp, #20]
 1547 0324 FFF7FEFF 		bl	lv_tick_elaps
 1548              	.LVL196:
 1549 0328 7A68     		ldr	r2, [r7, #4]
ARM GAS  C:\Users\pearlstl\AppData\Local\Temp\ccFIoKDo.s 			page 44


 1550 032a 0146     		mov	r1, r0
 1551 032c 4846     		mov	r0, r9
 1552 032e A047     		blx	r4
 1553              	.LVL197:
 220:..\..\..\lvgl\version_6.1.2\lvgl\src\lv_core/lv_refr.c **** 
 1554              		.loc 1 220 0
 1555 0330 FFF7FEFF 		bl	lv_draw_free_buf
 1556              	.LVL198:
 223:..\..\..\lvgl\version_6.1.2\lvgl\src\lv_core/lv_refr.c **** 
 1557              		.loc 1 223 0
 1558 0334 09B0     		add	sp, sp, #36
 1559              		.cfi_remember_state
 1560              		.cfi_def_cfa_offset 36
 1561              		@ sp needed
 1562 0336 BDE8F08F 		pop	{r4, r5, r6, r7, r8, r9, r10, fp, pc}
 1563              	.LVL199:
 1564              	.L172:
 1565              		.cfi_restore_state
 1566              	.LBB138:
 1567              	.LBB135:
 1568              	.LBB133:
 1569              	.LBB129:
 1570              	.LBB125:
 344:..\..\..\lvgl\version_6.1.2\lvgl\src\lv_core/lv_refr.c ****         for(row = area_p->y1; row + max_row - 1 <= y2; row += max_row) {
 1571              		.loc 1 344 0
 1572 033a 0026     		movs	r6, #0
 1573 033c 67E7     		b	.L150
 1574              	.LVL200:
 1575              	.L158:
 1576              	.LBE125:
 1577              	.LBE129:
 1578              	.LBE133:
 1579              	.LBE135:
 1580              	.LBE138:
 1581              	.LBB139:
 178:..\..\..\lvgl\version_6.1.2\lvgl\src\lv_core/lv_refr.c **** 
 1582              		.loc 1 178 0
 1583 033e 3868     		ldr	r0, [r7]
 1584 0340 FFF7FEFF 		bl	lv_disp_get_buf
 1585              	.LVL201:
 1586 0344 0546     		mov	r5, r0
 1587              	.LVL202:
 1588              	.LBB140:
 1589              	.LBB141:
 562:..\..\..\lvgl\version_6.1.2\lvgl\src\lv_core/lv_refr.c **** 
 1590              		.loc 1 562 0
 1591 0346 3868     		ldr	r0, [r7]
 1592              	.LVL203:
 1593 0348 FFF7FEFF 		bl	lv_disp_get_buf
 1594              	.LVL204:
 1595 034c 0446     		mov	r4, r0
 1596              	.LVL205:
 566:..\..\..\lvgl\version_6.1.2\lvgl\src\lv_core/lv_refr.c ****         while(vdb->flushing)
 1597              		.loc 1 566 0
 1598 034e 3868     		ldr	r0, [r7]
 1599              	.LVL206:
 1600 0350 FFF7FEFF 		bl	lv_disp_is_double_buf
ARM GAS  C:\Users\pearlstl\AppData\Local\Temp\ccFIoKDo.s 			page 45


 1601              	.LVL207:
 1602 0354 0028     		cmp	r0, #0
 1603 0356 6FD1     		bne	.L191
 1604              	.L160:
 571:..\..\..\lvgl\version_6.1.2\lvgl\src\lv_core/lv_refr.c **** 
 1605              		.loc 1 571 0
 1606 0358 237E     		ldrb	r3, [r4, #24]	@ zero_extendqisi2
 1607              	.LBB142:
 1608              	.LBB143:
 143:..\..\..\lvgl\version_6.1.2\lvgl\src\lv_core/lv_refr.c **** }
 1609              		.loc 1 143 0
 1610 035a 3868     		ldr	r0, [r7]
 1611 035c 3A4E     		ldr	r6, .L226
 1612              	.LBE143:
 1613              	.LBE142:
 571:..\..\..\lvgl\version_6.1.2\lvgl\src\lv_core/lv_refr.c **** 
 1614              		.loc 1 571 0
 1615 035e 43F00103 		orr	r3, r3, #1
 1616 0362 2376     		strb	r3, [r4, #24]
 575:..\..\..\lvgl\version_6.1.2\lvgl\src\lv_core/lv_refr.c **** 
 1617              		.loc 1 575 0
 1618 0364 C368     		ldr	r3, [r0, #12]
 1619 0366 23B1     		cbz	r3, .L162
 1620 0368 A268     		ldr	r2, [r4, #8]
 1621 036a 04F11001 		add	r1, r4, #16
 1622 036e 9847     		blx	r3
 1623              	.LVL208:
 1624 0370 3068     		ldr	r0, [r6]
 1625              	.L162:
 577:..\..\..\lvgl\version_6.1.2\lvgl\src\lv_core/lv_refr.c ****         if(vdb->buf_act == vdb->buf1)
 1626              		.loc 1 577 0
 1627 0372 2368     		ldr	r3, [r4]
 1628 0374 33B1     		cbz	r3, .L165
 1629 0376 6268     		ldr	r2, [r4, #4]
 1630 0378 22B1     		cbz	r2, .L165
 578:..\..\..\lvgl\version_6.1.2\lvgl\src\lv_core/lv_refr.c ****             vdb->buf_act = vdb->buf2;
 1631              		.loc 1 578 0
 1632 037a A168     		ldr	r1, [r4, #8]
 1633              		.loc 1 579 0
 1634 037c 8B42     		cmp	r3, r1
 1635 037e 08BF     		it	eq
 1636 0380 1346     		moveq	r3, r2
 1637 0382 A360     		str	r3, [r4, #8]
 1638              	.L165:
 1639              	.LBE141:
 1640              	.LBE140:
 186:..\..\..\lvgl\version_6.1.2\lvgl\src\lv_core/lv_refr.c ****                 ;
 1641              		.loc 1 186 0 discriminator 1
 1642 0384 AB69     		ldr	r3, [r5, #24]
 1643 0386 DB07     		lsls	r3, r3, #31
 1644 0388 FCD4     		bmi	.L165
 189:..\..\..\lvgl\version_6.1.2\lvgl\src\lv_core/lv_refr.c ****             uint8_t * buf_ina = (uint8_t *)vdb->buf_act == vdb->buf1 ? vdb->buf2 : vdb->buf1;
 1645              		.loc 1 189 0
 1646 038a AB68     		ldr	r3, [r5, #8]
 190:..\..\..\lvgl\version_6.1.2\lvgl\src\lv_core/lv_refr.c **** 
 1647              		.loc 1 190 0
 1648 038c 2A68     		ldr	r2, [r5]
ARM GAS  C:\Users\pearlstl\AppData\Local\Temp\ccFIoKDo.s 			page 46


 189:..\..\..\lvgl\version_6.1.2\lvgl\src\lv_core/lv_refr.c ****             uint8_t * buf_ina = (uint8_t *)vdb->buf_act == vdb->buf1 ? vdb->buf2 : vdb->buf1;
 1649              		.loc 1 189 0
 1650 038e 0293     		str	r3, [sp, #8]
 1651              	.LVL209:
 190:..\..\..\lvgl\version_6.1.2\lvgl\src\lv_core/lv_refr.c **** 
 1652              		.loc 1 190 0
 1653 0390 9342     		cmp	r3, r2
 1654 0392 08BF     		it	eq
 1655 0394 6B68     		ldreq	r3, [r5, #4]
 1656              	.LVL210:
 1657 0396 0192     		str	r2, [sp, #4]
 1658              	.LVL211:
 1659 0398 08BF     		it	eq
 1660 039a 0193     		streq	r3, [sp, #4]
 192:..\..\..\lvgl\version_6.1.2\lvgl\src\lv_core/lv_refr.c ****             uint16_t a;
 1661              		.loc 1 192 0
 1662 039c FFF7FEFF 		bl	lv_disp_get_hor_res
 1663              	.LVL212:
 194:..\..\..\lvgl\version_6.1.2\lvgl\src\lv_core/lv_refr.c ****                 if(disp_refr->inv_area_joined[a] == 0) {
 1664              		.loc 1 194 0
 1665 03a0 D7F80090 		ldr	r9, [r7]
 192:..\..\..\lvgl\version_6.1.2\lvgl\src\lv_core/lv_refr.c ****             uint16_t a;
 1666              		.loc 1 192 0
 1667 03a4 0390     		str	r0, [sp, #12]
 1668              	.LVL213:
 194:..\..\..\lvgl\version_6.1.2\lvgl\src\lv_core/lv_refr.c ****                 if(disp_refr->inv_area_joined[a] == 0) {
 1669              		.loc 1 194 0
 1670 03a6 B9F85C31 		ldrh	r3, [r9, #348]
 1671 03aa C3F30903 		ubfx	r3, r3, #0, #10
 1672 03ae 002B     		cmp	r3, #0
 1673 03b0 A0D0     		beq	.L159
 1674 03b2 0026     		movs	r6, #0
 1675 03b4 B246     		mov	r10, r6
 1676 03b6 4FEA800B 		lsl	fp, r0, #2
 1677              	.LVL214:
 1678              	.L169:
 195:..\..\..\lvgl\version_6.1.2\lvgl\src\lv_core/lv_refr.c ****                     lv_coord_t y;
 1679              		.loc 1 195 0
 1680 03ba 09EB0602 		add	r2, r9, r6
 1681 03be 92F83C21 		ldrb	r2, [r2, #316]	@ zero_extendqisi2
 1682 03c2 8ABB     		cbnz	r2, .L167
 1683              	.LBB145:
 199:..\..\..\lvgl\version_6.1.2\lvgl\src\lv_core/lv_refr.c **** 
 1684              		.loc 1 199 0
 1685 03c4 F11D     		adds	r1, r6, #7
 1686 03c6 09EBC101 		add	r1, r9, r1, lsl #3
 1687 03ca 09EBC606 		add	r6, r9, r6, lsl #3
 1688              	.LBB146:
 1689              	.LBB147:
  88:..\..\..\lvgl\version_6.1.2\lvgl\src\lv_core\../lv_misc/lv_area.h **** }
 1690              		.loc 2 88 0
 1691 03ce 0A89     		ldrh	r2, [r1, #8]
 1692 03d0 B1F80480 		ldrh	r8, [r1, #4]
 1693              	.LBE147:
 1694              	.LBE146:
 198:..\..\..\lvgl\version_6.1.2\lvgl\src\lv_core/lv_refr.c ****                     uint32_t line_length = lv_area_get_width(&disp_refr->inv_areas[a]) * sizeof(lv_
 1695              		.loc 1 198 0
ARM GAS  C:\Users\pearlstl\AppData\Local\Temp\ccFIoKDo.s 			page 47


 1696 03d4 B6F93E40 		ldrsh	r4, [r6, #62]
 1697 03d8 B6F93C50 		ldrsh	r5, [r6, #60]
 201:..\..\..\lvgl\version_6.1.2\lvgl\src\lv_core/lv_refr.c ****                         memcpy(buf_act + start_offs, buf_ina + start_offs, line_length);
 1698              		.loc 1 201 0
 1699 03dc B6F94210 		ldrsh	r1, [r6, #66]
 1700              	.LBB150:
 1701              	.LBB148:
  88:..\..\..\lvgl\version_6.1.2\lvgl\src\lv_core\../lv_misc/lv_area.h **** }
 1702              		.loc 2 88 0
 1703 03e0 0132     		adds	r2, r2, #1
 1704 03e2 C8EB0208 		rsb	r8, r8, r2
 1705              	.LBE148:
 1706              	.LBE150:
 197:..\..\..\lvgl\version_6.1.2\lvgl\src\lv_core/lv_refr.c ****                         (hres * disp_refr->inv_areas[a].y1 + disp_refr->inv_areas[a].x1) * sizeof(l
 1707              		.loc 1 197 0
 1708 03e6 039A     		ldr	r2, [sp, #12]
 1709              	.LBB151:
 1710              	.LBB149:
  88:..\..\..\lvgl\version_6.1.2\lvgl\src\lv_core\../lv_misc/lv_area.h **** }
 1711              		.loc 2 88 0
 1712 03e8 0FFA88F8 		sxth	r8, r8
 1713              	.LBE149:
 1714              	.LBE151:
 197:..\..\..\lvgl\version_6.1.2\lvgl\src\lv_core/lv_refr.c ****                         (hres * disp_refr->inv_areas[a].y1 + disp_refr->inv_areas[a].x1) * sizeof(l
 1715              		.loc 1 197 0
 1716 03ec 02FB0455 		mla	r5, r2, r4, r5
 201:..\..\..\lvgl\version_6.1.2\lvgl\src\lv_core/lv_refr.c ****                         memcpy(buf_act + start_offs, buf_ina + start_offs, line_length);
 1717              		.loc 1 201 0
 1718 03f0 A142     		cmp	r1, r4
 199:..\..\..\lvgl\version_6.1.2\lvgl\src\lv_core/lv_refr.c **** 
 1719              		.loc 1 199 0
 1720 03f2 4FEA8808 		lsl	r8, r8, #2
 197:..\..\..\lvgl\version_6.1.2\lvgl\src\lv_core/lv_refr.c ****                         (hres * disp_refr->inv_areas[a].y1 + disp_refr->inv_areas[a].x1) * sizeof(l
 1721              		.loc 1 197 0
 1722 03f6 4FEA8505 		lsl	r5, r5, #2
 1723              	.LVL215:
 201:..\..\..\lvgl\version_6.1.2\lvgl\src\lv_core/lv_refr.c ****                         memcpy(buf_act + start_offs, buf_ina + start_offs, line_length);
 1724              		.loc 1 201 0
 1725 03fa 15DB     		blt	.L167
 1726 03fc 029B     		ldr	r3, [sp, #8]
 1727 03fe 019A     		ldr	r2, [sp, #4]
 1728 0400 2B44     		add	r3, r3, r5
 1729 0402 1544     		add	r5, r5, r2
 1730              	.LVL216:
 1731              	.L168:
 202:..\..\..\lvgl\version_6.1.2\lvgl\src\lv_core/lv_refr.c ****                         start_offs += hres * sizeof(lv_color_t);
 1732              		.loc 1 202 0 discriminator 3
 1733 0404 4246     		mov	r2, r8
 1734 0406 2946     		mov	r1, r5
 1735 0408 1846     		mov	r0, r3
 1736 040a FFF7FEFF 		bl	memcpy
 1737              	.LVL217:
 1738 040e 0134     		adds	r4, r4, #1
 1739              	.LVL218:
 201:..\..\..\lvgl\version_6.1.2\lvgl\src\lv_core/lv_refr.c ****                         memcpy(buf_act + start_offs, buf_ina + start_offs, line_length);
 1740              		.loc 1 201 0 discriminator 3
 1741 0410 B6F94220 		ldrsh	r2, [r6, #66]
ARM GAS  C:\Users\pearlstl\AppData\Local\Temp\ccFIoKDo.s 			page 48


 1742 0414 24B2     		sxth	r4, r4
 202:..\..\..\lvgl\version_6.1.2\lvgl\src\lv_core/lv_refr.c ****                         start_offs += hres * sizeof(lv_color_t);
 1743              		.loc 1 202 0 discriminator 3
 1744 0416 0346     		mov	r3, r0
 1745              	.LVL219:
 201:..\..\..\lvgl\version_6.1.2\lvgl\src\lv_core/lv_refr.c ****                         memcpy(buf_act + start_offs, buf_ina + start_offs, line_length);
 1746              		.loc 1 201 0 discriminator 3
 1747 0418 A242     		cmp	r2, r4
 1748 041a 5D44     		add	r5, r5, fp
 1749 041c 5B44     		add	r3, r3, fp
 1750 041e F1DA     		bge	.L168
 1751 0420 B9F85C31 		ldrh	r3, [r9, #348]
 1752 0424 C3F30903 		ubfx	r3, r3, #0, #10
 1753              	.LVL220:
 1754              	.L167:
 1755              	.LBE145:
 194:..\..\..\lvgl\version_6.1.2\lvgl\src\lv_core/lv_refr.c ****                 if(disp_refr->inv_area_joined[a] == 0) {
 1756              		.loc 1 194 0 discriminator 2
 1757 0428 0AF1010A 		add	r10, r10, #1
 1758              	.LVL221:
 1759 042c 1FFA8AFA 		uxth	r10, r10
 1760              	.LVL222:
 1761 0430 9A45     		cmp	r10, r3
 1762 0432 5646     		mov	r6, r10
 1763 0434 C1DB     		blt	.L169
 1764 0436 5DE7     		b	.L159
 1765              	.LVL223:
 1766              	.L191:
 1767              	.LBB152:
 1768              	.LBB144:
 567:..\..\..\lvgl\version_6.1.2\lvgl\src\lv_core/lv_refr.c ****             ;
 1769              		.loc 1 567 0
 1770 0438 A369     		ldr	r3, [r4, #24]
 1771 043a DA07     		lsls	r2, r3, #31
 1772 043c 8CD5     		bpl	.L160
 1773 043e A369     		ldr	r3, [r4, #24]
 1774 0440 DA07     		lsls	r2, r3, #31
 1775 0442 F9D4     		bmi	.L191
 1776 0444 88E7     		b	.L160
 1777              	.L227:
 1778 0446 00BF     		.align	2
 1779              	.L226:
 1780 0448 00000000 		.word	.LANCHOR0
 1781              	.LBE144:
 1782              	.LBE152:
 1783              	.LBE139:
 1784              		.cfi_endproc
 1785              	.LFE40:
 1786              		.size	lv_disp_refr_task, .-lv_disp_refr_task
 1787              		.section	.text.lv_refr_now,"ax",%progbits
 1788              		.align	2
 1789              		.global	lv_refr_now
 1790              		.thumb
 1791              		.thumb_func
 1792              		.type	lv_refr_now, %function
 1793              	lv_refr_now:
 1794              	.LFB36:
ARM GAS  C:\Users\pearlstl\AppData\Local\Temp\ccFIoKDo.s 			page 49


  75:..\..\..\lvgl\version_6.1.2\lvgl\src\lv_core/lv_refr.c ****     if(disp) {
 1795              		.loc 1 75 0
 1796              		.cfi_startproc
 1797              		@ args = 0, pretend = 0, frame = 0
 1798              		@ frame_needed = 0, uses_anonymous_args = 0
 1799              	.LVL224:
  76:..\..\..\lvgl\version_6.1.2\lvgl\src\lv_core/lv_refr.c ****         lv_disp_refr_task(disp->refr_task);
 1800              		.loc 1 76 0
 1801 0000 10B1     		cbz	r0, .L229
  77:..\..\..\lvgl\version_6.1.2\lvgl\src\lv_core/lv_refr.c ****     } else {
 1802              		.loc 1 77 0
 1803 0002 006A     		ldr	r0, [r0, #32]
 1804              	.LVL225:
 1805 0004 FFF7FEBF 		b	lv_disp_refr_task
 1806              	.LVL226:
 1807              	.L229:
  75:..\..\..\lvgl\version_6.1.2\lvgl\src\lv_core/lv_refr.c ****     if(disp) {
 1808              		.loc 1 75 0
 1809 0008 10B5     		push	{r4, lr}
 1810              		.cfi_def_cfa_offset 8
 1811              		.cfi_offset 4, -8
 1812              		.cfi_offset 14, -4
 1813              	.LBB153:
  80:..\..\..\lvgl\version_6.1.2\lvgl\src\lv_core/lv_refr.c ****         while(d) {
 1814              		.loc 1 80 0
 1815 000a FFF7FEFF 		bl	lv_disp_get_next
 1816              	.LVL227:
  81:..\..\..\lvgl\version_6.1.2\lvgl\src\lv_core/lv_refr.c ****             lv_disp_refr_task(d->refr_task);
 1817              		.loc 1 81 0
 1818 000e 0446     		mov	r4, r0
 1819 0010 40B1     		cbz	r0, .L228
 1820              	.L232:
  82:..\..\..\lvgl\version_6.1.2\lvgl\src\lv_core/lv_refr.c ****             d = lv_disp_get_next(d);
 1821              		.loc 1 82 0
 1822 0012 206A     		ldr	r0, [r4, #32]
 1823              	.LVL228:
 1824 0014 FFF7FEFF 		bl	lv_disp_refr_task
 1825              	.LVL229:
  83:..\..\..\lvgl\version_6.1.2\lvgl\src\lv_core/lv_refr.c ****         }
 1826              		.loc 1 83 0
 1827 0018 2046     		mov	r0, r4
 1828 001a FFF7FEFF 		bl	lv_disp_get_next
 1829              	.LVL230:
  81:..\..\..\lvgl\version_6.1.2\lvgl\src\lv_core/lv_refr.c ****             lv_disp_refr_task(d->refr_task);
 1830              		.loc 1 81 0
 1831 001e 0446     		mov	r4, r0
 1832 0020 0028     		cmp	r0, #0
 1833 0022 F6D1     		bne	.L232
 1834              	.L228:
 1835 0024 10BD     		pop	{r4, pc}
 1836              	.LBE153:
 1837              		.cfi_endproc
 1838              	.LFE36:
 1839              		.size	lv_refr_now, .-lv_refr_now
 1840 0026 00BF     		.bss
 1841              		.align	2
 1842              		.set	.LANCHOR0,. + 0
ARM GAS  C:\Users\pearlstl\AppData\Local\Temp\ccFIoKDo.s 			page 50


 1843              		.type	disp_refr, %object
 1844              		.size	disp_refr, 4
 1845              	disp_refr:
 1846 0000 00000000 		.space	4
 1847              		.type	px_num, %object
 1848              		.size	px_num, 4
 1849              	px_num:
 1850 0004 00000000 		.space	4
 1851              		.text
 1852              	.Letext0:
 1853              		.file 3 "c:\\program files (x86)\\cypress\\psoc creator\\4.2\\psoc creator\\import\\gnu\\arm\\5.4.
 1854              		.file 4 "c:\\program files (x86)\\cypress\\psoc creator\\4.2\\psoc creator\\import\\gnu\\arm\\5.4.
 1855              		.file 5 "..\\..\\..\\lvgl\\version_6.1.2\\lvgl\\src\\lv_core\\../../../lv_conf.h"
 1856              		.file 6 "..\\..\\..\\lvgl\\version_6.1.2\\lvgl\\src\\lv_core\\../lv_font/lv_font.h"
 1857              		.file 7 "..\\..\\..\\lvgl\\version_6.1.2\\lvgl\\src\\lv_core\\../lv_misc/lv_color.h"
 1858              		.file 8 "..\\..\\..\\lvgl\\version_6.1.2\\lvgl\\src\\lv_core\\lv_style.h"
 1859              		.file 9 "..\\..\\..\\lvgl\\version_6.1.2\\lvgl\\src\\lv_core\\../lv_misc/lv_types.h"
 1860              		.file 10 "..\\..\\..\\lvgl\\version_6.1.2\\lvgl\\src\\lv_core\\../lv_misc/lv_ll.h"
 1861              		.file 11 "..\\..\\..\\lvgl\\version_6.1.2\\lvgl\\src\\lv_core\\../lv_misc/lv_bidi.h"
 1862              		.file 12 "..\\..\\..\\lvgl\\version_6.1.2\\lvgl\\src\\lv_core\\../lv_hal/../lv_misc/lv_task.h"
 1863              		.file 13 "..\\..\\..\\lvgl\\version_6.1.2\\lvgl\\src\\lv_core\\../lv_hal/lv_hal_disp.h"
 1864              		.file 14 "..\\..\\..\\lvgl\\version_6.1.2\\lvgl\\src\\lv_core\\lv_obj.h"
 1865              		.file 15 "..\\..\\..\\lvgl\\version_6.1.2\\lvgl\\src\\lv_core\\lv_disp.h"
 1866              		.file 16 "..\\..\\..\\lvgl\\version_6.1.2\\lvgl\\src\\lv_core\\../lv_hal/lv_hal_tick.h"
 1867              		.file 17 "..\\..\\..\\lvgl\\version_6.1.2\\lvgl\\src\\lv_core\\../lv_draw/lv_draw.h"
 1868              		.section	.debug_info,"",%progbits
 1869              	.Ldebug_info0:
 1870 0000 D61A0000 		.4byte	0x1ad6
 1871 0004 0400     		.2byte	0x4
 1872 0006 00000000 		.4byte	.Ldebug_abbrev0
 1873 000a 04       		.byte	0x4
 1874 000b 01       		.uleb128 0x1
 1875 000c 1D010000 		.4byte	.LASF251
 1876 0010 0C       		.byte	0xc
 1877 0011 D00A0000 		.4byte	.LASF252
 1878 0015 F4080000 		.4byte	.LASF253
 1879 0019 A8010000 		.4byte	.Ldebug_ranges0+0x1a8
 1880 001d 00000000 		.4byte	0
 1881 0021 00000000 		.4byte	.Ldebug_line0
 1882 0025 02       		.uleb128 0x2
 1883 0026 04       		.byte	0x4
 1884 0027 05       		.byte	0x5
 1885 0028 696E7400 		.ascii	"int\000"
 1886 002c 03       		.uleb128 0x3
 1887 002d 04       		.byte	0x4
 1888 002e 07       		.byte	0x7
 1889 002f E7050000 		.4byte	.LASF0
 1890 0033 03       		.uleb128 0x3
 1891 0034 08       		.byte	0x8
 1892 0035 05       		.byte	0x5
 1893 0036 7B050000 		.4byte	.LASF1
 1894 003a 03       		.uleb128 0x3
 1895 003b 08       		.byte	0x8
 1896 003c 04       		.byte	0x4
 1897 003d BA060000 		.4byte	.LASF2
 1898 0041 04       		.uleb128 0x4
 1899 0042 4B070000 		.4byte	.LASF4
ARM GAS  C:\Users\pearlstl\AppData\Local\Temp\ccFIoKDo.s 			page 51


 1900 0046 03       		.byte	0x3
 1901 0047 1B       		.byte	0x1b
 1902 0048 4C000000 		.4byte	0x4c
 1903 004c 03       		.uleb128 0x3
 1904 004d 01       		.byte	0x1
 1905 004e 06       		.byte	0x6
 1906 004f 86020000 		.4byte	.LASF3
 1907 0053 04       		.uleb128 0x4
 1908 0054 DC010000 		.4byte	.LASF5
 1909 0058 03       		.byte	0x3
 1910 0059 1D       		.byte	0x1d
 1911 005a 5E000000 		.4byte	0x5e
 1912 005e 03       		.uleb128 0x3
 1913 005f 01       		.byte	0x1
 1914 0060 08       		.byte	0x8
 1915 0061 E0020000 		.4byte	.LASF6
 1916 0065 04       		.uleb128 0x4
 1917 0066 F5070000 		.4byte	.LASF7
 1918 006a 03       		.byte	0x3
 1919 006b 29       		.byte	0x29
 1920 006c 70000000 		.4byte	0x70
 1921 0070 03       		.uleb128 0x3
 1922 0071 02       		.byte	0x2
 1923 0072 05       		.byte	0x5
 1924 0073 C0080000 		.4byte	.LASF8
 1925 0077 04       		.uleb128 0x4
 1926 0078 AC030000 		.4byte	.LASF9
 1927 007c 03       		.byte	0x3
 1928 007d 2B       		.byte	0x2b
 1929 007e 82000000 		.4byte	0x82
 1930 0082 03       		.uleb128 0x3
 1931 0083 02       		.byte	0x2
 1932 0084 07       		.byte	0x7
 1933 0085 1C0B0000 		.4byte	.LASF10
 1934 0089 04       		.uleb128 0x4
 1935 008a 9F0B0000 		.4byte	.LASF11
 1936 008e 03       		.byte	0x3
 1937 008f 3F       		.byte	0x3f
 1938 0090 94000000 		.4byte	0x94
 1939 0094 03       		.uleb128 0x3
 1940 0095 04       		.byte	0x4
 1941 0096 05       		.byte	0x5
 1942 0097 1A020000 		.4byte	.LASF12
 1943 009b 04       		.uleb128 0x4
 1944 009c 3D050000 		.4byte	.LASF13
 1945 00a0 03       		.byte	0x3
 1946 00a1 41       		.byte	0x41
 1947 00a2 A6000000 		.4byte	0xa6
 1948 00a6 03       		.uleb128 0x3
 1949 00a7 04       		.byte	0x4
 1950 00a8 07       		.byte	0x7
 1951 00a9 E0040000 		.4byte	.LASF14
 1952 00ad 03       		.uleb128 0x3
 1953 00ae 08       		.byte	0x8
 1954 00af 07       		.byte	0x7
 1955 00b0 65070000 		.4byte	.LASF15
 1956 00b4 04       		.uleb128 0x4
ARM GAS  C:\Users\pearlstl\AppData\Local\Temp\ccFIoKDo.s 			page 52


 1957 00b5 00000000 		.4byte	.LASF16
 1958 00b9 04       		.byte	0x4
 1959 00ba 14       		.byte	0x14
 1960 00bb 41000000 		.4byte	0x41
 1961 00bf 04       		.uleb128 0x4
 1962 00c0 92020000 		.4byte	.LASF17
 1963 00c4 04       		.byte	0x4
 1964 00c5 18       		.byte	0x18
 1965 00c6 53000000 		.4byte	0x53
 1966 00ca 04       		.uleb128 0x4
 1967 00cb EC080000 		.4byte	.LASF18
 1968 00cf 04       		.byte	0x4
 1969 00d0 20       		.byte	0x20
 1970 00d1 65000000 		.4byte	0x65
 1971 00d5 04       		.uleb128 0x4
 1972 00d6 7C070000 		.4byte	.LASF19
 1973 00da 04       		.byte	0x4
 1974 00db 24       		.byte	0x24
 1975 00dc 77000000 		.4byte	0x77
 1976 00e0 04       		.uleb128 0x4
 1977 00e1 A1000000 		.4byte	.LASF20
 1978 00e5 04       		.byte	0x4
 1979 00e6 2C       		.byte	0x2c
 1980 00e7 89000000 		.4byte	0x89
 1981 00eb 04       		.uleb128 0x4
 1982 00ec 900A0000 		.4byte	.LASF21
 1983 00f0 04       		.byte	0x4
 1984 00f1 30       		.byte	0x30
 1985 00f2 9B000000 		.4byte	0x9b
 1986 00f6 04       		.uleb128 0x4
 1987 00f7 2F0B0000 		.4byte	.LASF22
 1988 00fb 05       		.byte	0x5
 1989 00fc 3A       		.byte	0x3a
 1990 00fd CA000000 		.4byte	0xca
 1991 0101 05       		.uleb128 0x5
 1992 0102 04       		.byte	0x4
 1993 0103 06       		.uleb128 0x6
 1994 0104 08       		.byte	0x8
 1995 0105 06       		.byte	0x6
 1996 0106 2E       		.byte	0x2e
 1997 0107 54010000 		.4byte	0x154
 1998 010b 07       		.uleb128 0x7
 1999 010c 37000000 		.4byte	.LASF23
 2000 0110 06       		.byte	0x6
 2001 0111 30       		.byte	0x30
 2002 0112 D5000000 		.4byte	0xd5
 2003 0116 00       		.byte	0
 2004 0117 07       		.uleb128 0x7
 2005 0118 BA080000 		.4byte	.LASF24
 2006 011c 06       		.byte	0x6
 2007 011d 31       		.byte	0x31
 2008 011e BF000000 		.4byte	0xbf
 2009 0122 02       		.byte	0x2
 2010 0123 07       		.uleb128 0x7
 2011 0124 A6080000 		.4byte	.LASF25
 2012 0128 06       		.byte	0x6
 2013 0129 32       		.byte	0x32
ARM GAS  C:\Users\pearlstl\AppData\Local\Temp\ccFIoKDo.s 			page 53


 2014 012a BF000000 		.4byte	0xbf
 2015 012e 03       		.byte	0x3
 2016 012f 07       		.uleb128 0x7
 2017 0130 1A030000 		.4byte	.LASF26
 2018 0134 06       		.byte	0x6
 2019 0135 33       		.byte	0x33
 2020 0136 B4000000 		.4byte	0xb4
 2021 013a 04       		.byte	0x4
 2022 013b 07       		.uleb128 0x7
 2023 013c 20030000 		.4byte	.LASF27
 2024 0140 06       		.byte	0x6
 2025 0141 34       		.byte	0x34
 2026 0142 B4000000 		.4byte	0xb4
 2027 0146 05       		.byte	0x5
 2028 0147 08       		.uleb128 0x8
 2029 0148 62707000 		.ascii	"bpp\000"
 2030 014c 06       		.byte	0x6
 2031 014d 35       		.byte	0x35
 2032 014e BF000000 		.4byte	0xbf
 2033 0152 06       		.byte	0x6
 2034 0153 00       		.byte	0
 2035 0154 04       		.uleb128 0x4
 2036 0155 5E060000 		.4byte	.LASF28
 2037 0159 06       		.byte	0x6
 2038 015a 36       		.byte	0x36
 2039 015b 03010000 		.4byte	0x103
 2040 015f 09       		.uleb128 0x9
 2041 0160 FA0B0000 		.4byte	.LASF95
 2042 0164 10       		.byte	0x10
 2043 0165 06       		.byte	0x6
 2044 0166 44       		.byte	0x44
 2045 0167 B7010000 		.4byte	0x1b7
 2046 016b 07       		.uleb128 0x7
 2047 016c 910B0000 		.4byte	.LASF29
 2048 0170 06       		.byte	0x6
 2049 0171 47       		.byte	0x47
 2050 0172 ED010000 		.4byte	0x1ed
 2051 0176 00       		.byte	0
 2052 0177 07       		.uleb128 0x7
 2053 0178 C2020000 		.4byte	.LASF30
 2054 017c 06       		.byte	0x6
 2055 017d 4A       		.byte	0x4a
 2056 017e 12020000 		.4byte	0x212
 2057 0182 04       		.byte	0x4
 2058 0183 07       		.uleb128 0x7
 2059 0184 D9000000 		.4byte	.LASF31
 2060 0188 06       		.byte	0x6
 2061 0189 4D       		.byte	0x4d
 2062 018a BF000000 		.4byte	0xbf
 2063 018e 08       		.byte	0x8
 2064 018f 07       		.uleb128 0x7
 2065 0190 CA080000 		.4byte	.LASF32
 2066 0194 06       		.byte	0x6
 2067 0195 4E       		.byte	0x4e
 2068 0196 B4000000 		.4byte	0xb4
 2069 019a 09       		.byte	0x9
 2070 019b 0A       		.uleb128 0xa
ARM GAS  C:\Users\pearlstl\AppData\Local\Temp\ccFIoKDo.s 			page 54


 2071 019c FE060000 		.4byte	.LASF79
 2072 01a0 06       		.byte	0x6
 2073 01a1 4F       		.byte	0x4f
 2074 01a2 BF000000 		.4byte	0xbf
 2075 01a6 01       		.byte	0x1
 2076 01a7 02       		.byte	0x2
 2077 01a8 06       		.byte	0x6
 2078 01a9 0A       		.byte	0xa
 2079 01aa 08       		.uleb128 0x8
 2080 01ab 64736300 		.ascii	"dsc\000"
 2081 01af 06       		.byte	0x6
 2082 01b0 50       		.byte	0x50
 2083 01b1 01010000 		.4byte	0x101
 2084 01b5 0C       		.byte	0xc
 2085 01b6 00       		.byte	0
 2086 01b7 0B       		.uleb128 0xb
 2087 01b8 D5010000 		.4byte	0x1d5
 2088 01bc D5010000 		.4byte	0x1d5
 2089 01c0 0C       		.uleb128 0xc
 2090 01c1 DC010000 		.4byte	0x1dc
 2091 01c5 0C       		.uleb128 0xc
 2092 01c6 E7010000 		.4byte	0x1e7
 2093 01ca 0C       		.uleb128 0xc
 2094 01cb EB000000 		.4byte	0xeb
 2095 01cf 0C       		.uleb128 0xc
 2096 01d0 EB000000 		.4byte	0xeb
 2097 01d4 00       		.byte	0
 2098 01d5 03       		.uleb128 0x3
 2099 01d6 01       		.byte	0x1
 2100 01d7 02       		.byte	0x2
 2101 01d8 26030000 		.4byte	.LASF33
 2102 01dc 0D       		.uleb128 0xd
 2103 01dd 04       		.byte	0x4
 2104 01de E2010000 		.4byte	0x1e2
 2105 01e2 0E       		.uleb128 0xe
 2106 01e3 5F010000 		.4byte	0x15f
 2107 01e7 0D       		.uleb128 0xd
 2108 01e8 04       		.byte	0x4
 2109 01e9 54010000 		.4byte	0x154
 2110 01ed 0D       		.uleb128 0xd
 2111 01ee 04       		.byte	0x4
 2112 01ef B7010000 		.4byte	0x1b7
 2113 01f3 0B       		.uleb128 0xb
 2114 01f4 07020000 		.4byte	0x207
 2115 01f8 07020000 		.4byte	0x207
 2116 01fc 0C       		.uleb128 0xc
 2117 01fd DC010000 		.4byte	0x1dc
 2118 0201 0C       		.uleb128 0xc
 2119 0202 EB000000 		.4byte	0xeb
 2120 0206 00       		.byte	0
 2121 0207 0D       		.uleb128 0xd
 2122 0208 04       		.byte	0x4
 2123 0209 0D020000 		.4byte	0x20d
 2124 020d 0E       		.uleb128 0xe
 2125 020e BF000000 		.4byte	0xbf
 2126 0212 0D       		.uleb128 0xd
 2127 0213 04       		.byte	0x4
ARM GAS  C:\Users\pearlstl\AppData\Local\Temp\ccFIoKDo.s 			page 55


 2128 0214 F3010000 		.4byte	0x1f3
 2129 0218 04       		.uleb128 0x4
 2130 0219 AB0A0000 		.4byte	.LASF34
 2131 021d 06       		.byte	0x6
 2132 021e 56       		.byte	0x56
 2133 021f 5F010000 		.4byte	0x15f
 2134 0223 0F       		.uleb128 0xf
 2135 0224 01       		.byte	0x1
 2136 0225 5E000000 		.4byte	0x5e
 2137 0229 07       		.byte	0x7
 2138 022a 3E       		.byte	0x3e
 2139 022b 7E020000 		.4byte	0x27e
 2140 022f 10       		.uleb128 0x10
 2141 0230 C4050000 		.4byte	.LASF35
 2142 0234 00       		.byte	0
 2143 0235 10       		.uleb128 0x10
 2144 0236 05050000 		.4byte	.LASF36
 2145 023a 00       		.byte	0
 2146 023b 10       		.uleb128 0x10
 2147 023c D2070000 		.4byte	.LASF37
 2148 0240 19       		.byte	0x19
 2149 0241 10       		.uleb128 0x10
 2150 0242 24080000 		.4byte	.LASF38
 2151 0246 33       		.byte	0x33
 2152 0247 10       		.uleb128 0x10
 2153 0248 93080000 		.4byte	.LASF39
 2154 024c 4C       		.byte	0x4c
 2155 024d 10       		.uleb128 0x10
 2156 024e E2080000 		.4byte	.LASF40
 2157 0252 66       		.byte	0x66
 2158 0253 10       		.uleb128 0x10
 2159 0254 E6090000 		.4byte	.LASF41
 2160 0258 7F       		.byte	0x7f
 2161 0259 10       		.uleb128 0x10
 2162 025a 860A0000 		.4byte	.LASF42
 2163 025e 99       		.byte	0x99
 2164 025f 10       		.uleb128 0x10
 2165 0260 120B0000 		.4byte	.LASF43
 2166 0264 B2       		.byte	0xb2
 2167 0265 10       		.uleb128 0x10
 2168 0266 BA0B0000 		.4byte	.LASF44
 2169 026a CC       		.byte	0xcc
 2170 026b 10       		.uleb128 0x10
 2171 026c 300C0000 		.4byte	.LASF45
 2172 0270 E5       		.byte	0xe5
 2173 0271 10       		.uleb128 0x10
 2174 0272 95060000 		.4byte	.LASF46
 2175 0276 FF       		.byte	0xff
 2176 0277 10       		.uleb128 0x10
 2177 0278 04070000 		.4byte	.LASF47
 2178 027c FF       		.byte	0xff
 2179 027d 00       		.byte	0
 2180 027e 06       		.uleb128 0x6
 2181 027f 04       		.byte	0x4
 2182 0280 07       		.byte	0x7
 2183 0281 F3       		.byte	0xf3
 2184 0282 B7020000 		.4byte	0x2b7
ARM GAS  C:\Users\pearlstl\AppData\Local\Temp\ccFIoKDo.s 			page 56


 2185 0286 07       		.uleb128 0x7
 2186 0287 D3020000 		.4byte	.LASF48
 2187 028b 07       		.byte	0x7
 2188 028c F5       		.byte	0xf5
 2189 028d BF000000 		.4byte	0xbf
 2190 0291 00       		.byte	0
 2191 0292 07       		.uleb128 0x7
 2192 0293 A50A0000 		.4byte	.LASF49
 2193 0297 07       		.byte	0x7
 2194 0298 F6       		.byte	0xf6
 2195 0299 BF000000 		.4byte	0xbf
 2196 029d 01       		.byte	0x1
 2197 029e 08       		.uleb128 0x8
 2198 029f 72656400 		.ascii	"red\000"
 2199 02a3 07       		.byte	0x7
 2200 02a4 F7       		.byte	0xf7
 2201 02a5 BF000000 		.4byte	0xbf
 2202 02a9 02       		.byte	0x2
 2203 02aa 07       		.uleb128 0x7
 2204 02ab E6010000 		.4byte	.LASF50
 2205 02af 07       		.byte	0x7
 2206 02b0 F8       		.byte	0xf8
 2207 02b1 BF000000 		.4byte	0xbf
 2208 02b5 03       		.byte	0x3
 2209 02b6 00       		.byte	0
 2210 02b7 11       		.uleb128 0x11
 2211 02b8 04       		.byte	0x4
 2212 02b9 07       		.byte	0x7
 2213 02ba F1       		.byte	0xf1
 2214 02bb D5020000 		.4byte	0x2d5
 2215 02bf 12       		.uleb128 0x12
 2216 02c0 636800   		.ascii	"ch\000"
 2217 02c3 07       		.byte	0x7
 2218 02c4 F9       		.byte	0xf9
 2219 02c5 7E020000 		.4byte	0x27e
 2220 02c9 13       		.uleb128 0x13
 2221 02ca 1F080000 		.4byte	.LASF51
 2222 02ce 07       		.byte	0x7
 2223 02cf FA       		.byte	0xfa
 2224 02d0 EB000000 		.4byte	0xeb
 2225 02d4 00       		.byte	0
 2226 02d5 04       		.uleb128 0x4
 2227 02d6 62000000 		.4byte	.LASF52
 2228 02da 07       		.byte	0x7
 2229 02db FB       		.byte	0xfb
 2230 02dc B7020000 		.4byte	0x2b7
 2231 02e0 14       		.uleb128 0x14
 2232 02e1 8E070000 		.4byte	.LASF53
 2233 02e5 07       		.byte	0x7
 2234 02e6 0801     		.2byte	0x108
 2235 02e8 D5020000 		.4byte	0x2d5
 2236 02ec 14       		.uleb128 0x14
 2237 02ed 98000000 		.4byte	.LASF54
 2238 02f1 07       		.byte	0x7
 2239 02f2 0D01     		.2byte	0x10d
 2240 02f4 BF000000 		.4byte	0xbf
 2241 02f8 03       		.uleb128 0x3
ARM GAS  C:\Users\pearlstl\AppData\Local\Temp\ccFIoKDo.s 			page 57


 2242 02f9 04       		.byte	0x4
 2243 02fa 07       		.byte	0x7
 2244 02fb 3D000000 		.4byte	.LASF55
 2245 02ff 03       		.uleb128 0x3
 2246 0300 01       		.byte	0x1
 2247 0301 08       		.byte	0x8
 2248 0302 65030000 		.4byte	.LASF56
 2249 0306 06       		.uleb128 0x6
 2250 0307 08       		.byte	0x8
 2251 0308 02       		.byte	0x2
 2252 0309 31       		.byte	0x31
 2253 030a 3B030000 		.4byte	0x33b
 2254 030e 08       		.uleb128 0x8
 2255 030f 783100   		.ascii	"x1\000"
 2256 0312 02       		.byte	0x2
 2257 0313 33       		.byte	0x33
 2258 0314 F6000000 		.4byte	0xf6
 2259 0318 00       		.byte	0
 2260 0319 08       		.uleb128 0x8
 2261 031a 793100   		.ascii	"y1\000"
 2262 031d 02       		.byte	0x2
 2263 031e 34       		.byte	0x34
 2264 031f F6000000 		.4byte	0xf6
 2265 0323 02       		.byte	0x2
 2266 0324 08       		.uleb128 0x8
 2267 0325 783200   		.ascii	"x2\000"
 2268 0328 02       		.byte	0x2
 2269 0329 35       		.byte	0x35
 2270 032a F6000000 		.4byte	0xf6
 2271 032e 04       		.byte	0x4
 2272 032f 08       		.uleb128 0x8
 2273 0330 793200   		.ascii	"y2\000"
 2274 0333 02       		.byte	0x2
 2275 0334 36       		.byte	0x36
 2276 0335 F6000000 		.4byte	0xf6
 2277 0339 06       		.byte	0x6
 2278 033a 00       		.byte	0
 2279 033b 04       		.uleb128 0x4
 2280 033c 60040000 		.4byte	.LASF57
 2281 0340 02       		.byte	0x2
 2282 0341 37       		.byte	0x37
 2283 0342 06030000 		.4byte	0x306
 2284 0346 04       		.uleb128 0x4
 2285 0347 A90B0000 		.4byte	.LASF58
 2286 034b 08       		.byte	0x8
 2287 034c 2C       		.byte	0x2c
 2288 034d BF000000 		.4byte	0xbf
 2289 0351 04       		.uleb128 0x4
 2290 0352 54080000 		.4byte	.LASF59
 2291 0356 08       		.byte	0x8
 2292 0357 33       		.byte	0x33
 2293 0358 BF000000 		.4byte	0xbf
 2294 035c 06       		.uleb128 0x6
 2295 035d 08       		.byte	0x8
 2296 035e 08       		.byte	0x8
 2297 035f 48       		.byte	0x48
 2298 0360 95030000 		.4byte	0x395
ARM GAS  C:\Users\pearlstl\AppData\Local\Temp\ccFIoKDo.s 			page 58


 2299 0364 07       		.uleb128 0x7
 2300 0365 2E080000 		.4byte	.LASF60
 2301 0369 08       		.byte	0x8
 2302 036a 4A       		.byte	0x4a
 2303 036b E0020000 		.4byte	0x2e0
 2304 036f 00       		.byte	0
 2305 0370 07       		.uleb128 0x7
 2306 0371 89050000 		.4byte	.LASF61
 2307 0375 08       		.byte	0x8
 2308 0376 4B       		.byte	0x4b
 2309 0377 F6000000 		.4byte	0xf6
 2310 037b 04       		.byte	0x4
 2311 037c 07       		.uleb128 0x7
 2312 037d 150C0000 		.4byte	.LASF62
 2313 0381 08       		.byte	0x8
 2314 0382 4C       		.byte	0x4c
 2315 0383 46030000 		.4byte	0x346
 2316 0387 06       		.byte	0x6
 2317 0388 08       		.uleb128 0x8
 2318 0389 6F706100 		.ascii	"opa\000"
 2319 038d 08       		.byte	0x8
 2320 038e 4D       		.byte	0x4d
 2321 038f EC020000 		.4byte	0x2ec
 2322 0393 07       		.byte	0x7
 2323 0394 00       		.byte	0
 2324 0395 06       		.uleb128 0x6
 2325 0396 08       		.byte	0x8
 2326 0397 08       		.byte	0x8
 2327 0398 51       		.byte	0x51
 2328 0399 C2030000 		.4byte	0x3c2
 2329 039d 07       		.uleb128 0x7
 2330 039e 2E080000 		.4byte	.LASF60
 2331 03a2 08       		.byte	0x8
 2332 03a3 53       		.byte	0x53
 2333 03a4 E0020000 		.4byte	0x2e0
 2334 03a8 00       		.byte	0
 2335 03a9 07       		.uleb128 0x7
 2336 03aa 89050000 		.4byte	.LASF61
 2337 03ae 08       		.byte	0x8
 2338 03af 54       		.byte	0x54
 2339 03b0 F6000000 		.4byte	0xf6
 2340 03b4 04       		.byte	0x4
 2341 03b5 07       		.uleb128 0x7
 2342 03b6 18010000 		.4byte	.LASF63
 2343 03ba 08       		.byte	0x8
 2344 03bb 55       		.byte	0x55
 2345 03bc 51030000 		.4byte	0x351
 2346 03c0 06       		.byte	0x6
 2347 03c1 00       		.byte	0
 2348 03c2 06       		.uleb128 0x6
 2349 03c3 0A       		.byte	0xa
 2350 03c4 08       		.byte	0x8
 2351 03c5 58       		.byte	0x58
 2352 03c6 07040000 		.4byte	0x407
 2353 03ca 08       		.uleb128 0x8
 2354 03cb 746F7000 		.ascii	"top\000"
 2355 03cf 08       		.byte	0x8
ARM GAS  C:\Users\pearlstl\AppData\Local\Temp\ccFIoKDo.s 			page 59


 2356 03d0 5A       		.byte	0x5a
 2357 03d1 F6000000 		.4byte	0xf6
 2358 03d5 00       		.byte	0
 2359 03d6 07       		.uleb128 0x7
 2360 03d7 8F050000 		.4byte	.LASF64
 2361 03db 08       		.byte	0x8
 2362 03dc 5B       		.byte	0x5b
 2363 03dd F6000000 		.4byte	0xf6
 2364 03e1 02       		.byte	0x2
 2365 03e2 07       		.uleb128 0x7
 2366 03e3 85040000 		.4byte	.LASF65
 2367 03e7 08       		.byte	0x8
 2368 03e8 5C       		.byte	0x5c
 2369 03e9 F6000000 		.4byte	0xf6
 2370 03ed 04       		.byte	0x4
 2371 03ee 07       		.uleb128 0x7
 2372 03ef 6D050000 		.4byte	.LASF66
 2373 03f3 08       		.byte	0x8
 2374 03f4 5D       		.byte	0x5d
 2375 03f5 F6000000 		.4byte	0xf6
 2376 03f9 06       		.byte	0x6
 2377 03fa 07       		.uleb128 0x7
 2378 03fb C5040000 		.4byte	.LASF67
 2379 03ff 08       		.byte	0x8
 2380 0400 5E       		.byte	0x5e
 2381 0401 F6000000 		.4byte	0xf6
 2382 0405 08       		.byte	0x8
 2383 0406 00       		.byte	0
 2384 0407 06       		.uleb128 0x6
 2385 0408 28       		.byte	0x28
 2386 0409 08       		.byte	0x8
 2387 040a 41       		.byte	0x41
 2388 040b 64040000 		.4byte	0x464
 2389 040f 07       		.uleb128 0x7
 2390 0410 40070000 		.4byte	.LASF68
 2391 0414 08       		.byte	0x8
 2392 0415 43       		.byte	0x43
 2393 0416 E0020000 		.4byte	0x2e0
 2394 041a 00       		.byte	0
 2395 041b 07       		.uleb128 0x7
 2396 041c 82060000 		.4byte	.LASF69
 2397 0420 08       		.byte	0x8
 2398 0421 44       		.byte	0x44
 2399 0422 E0020000 		.4byte	0x2e0
 2400 0426 04       		.byte	0x4
 2401 0427 07       		.uleb128 0x7
 2402 0428 C5000000 		.4byte	.LASF70
 2403 042c 08       		.byte	0x8
 2404 042d 45       		.byte	0x45
 2405 042e F6000000 		.4byte	0xf6
 2406 0432 08       		.byte	0x8
 2407 0433 08       		.uleb128 0x8
 2408 0434 6F706100 		.ascii	"opa\000"
 2409 0438 08       		.byte	0x8
 2410 0439 46       		.byte	0x46
 2411 043a EC020000 		.4byte	0x2ec
 2412 043e 0A       		.byte	0xa
ARM GAS  C:\Users\pearlstl\AppData\Local\Temp\ccFIoKDo.s 			page 60


 2413 043f 07       		.uleb128 0x7
 2414 0440 7B0B0000 		.4byte	.LASF71
 2415 0444 08       		.byte	0x8
 2416 0445 4E       		.byte	0x4e
 2417 0446 5C030000 		.4byte	0x35c
 2418 044a 0C       		.byte	0xc
 2419 044b 07       		.uleb128 0x7
 2420 044c DF090000 		.4byte	.LASF72
 2421 0450 08       		.byte	0x8
 2422 0451 56       		.byte	0x56
 2423 0452 95030000 		.4byte	0x395
 2424 0456 14       		.byte	0x14
 2425 0457 07       		.uleb128 0x7
 2426 0458 740A0000 		.4byte	.LASF73
 2427 045c 08       		.byte	0x8
 2428 045d 5F       		.byte	0x5f
 2429 045e C2030000 		.4byte	0x3c2
 2430 0462 1C       		.byte	0x1c
 2431 0463 00       		.byte	0
 2432 0464 06       		.uleb128 0x6
 2433 0465 14       		.byte	0x14
 2434 0466 08       		.byte	0x8
 2435 0467 63       		.byte	0x63
 2436 0468 B5040000 		.4byte	0x4b5
 2437 046c 07       		.uleb128 0x7
 2438 046d 2E080000 		.4byte	.LASF60
 2439 0471 08       		.byte	0x8
 2440 0472 65       		.byte	0x65
 2441 0473 E0020000 		.4byte	0x2e0
 2442 0477 00       		.byte	0
 2443 0478 07       		.uleb128 0x7
 2444 0479 E30B0000 		.4byte	.LASF74
 2445 047d 08       		.byte	0x8
 2446 047e 66       		.byte	0x66
 2447 047f E0020000 		.4byte	0x2e0
 2448 0483 04       		.byte	0x4
 2449 0484 07       		.uleb128 0x7
 2450 0485 81080000 		.4byte	.LASF75
 2451 0489 08       		.byte	0x8
 2452 048a 67       		.byte	0x67
 2453 048b B5040000 		.4byte	0x4b5
 2454 048f 08       		.byte	0x8
 2455 0490 07       		.uleb128 0x7
 2456 0491 86080000 		.4byte	.LASF76
 2457 0495 08       		.byte	0x8
 2458 0496 68       		.byte	0x68
 2459 0497 F6000000 		.4byte	0xf6
 2460 049b 0C       		.byte	0xc
 2461 049c 07       		.uleb128 0x7
 2462 049d 34080000 		.4byte	.LASF77
 2463 04a1 08       		.byte	0x8
 2464 04a2 69       		.byte	0x69
 2465 04a3 F6000000 		.4byte	0xf6
 2466 04a7 0E       		.byte	0xe
 2467 04a8 08       		.uleb128 0x8
 2468 04a9 6F706100 		.ascii	"opa\000"
 2469 04ad 08       		.byte	0x8
ARM GAS  C:\Users\pearlstl\AppData\Local\Temp\ccFIoKDo.s 			page 61


 2470 04ae 6A       		.byte	0x6a
 2471 04af EC020000 		.4byte	0x2ec
 2472 04b3 10       		.byte	0x10
 2473 04b4 00       		.byte	0
 2474 04b5 0D       		.uleb128 0xd
 2475 04b6 04       		.byte	0x4
 2476 04b7 BB040000 		.4byte	0x4bb
 2477 04bb 0E       		.uleb128 0xe
 2478 04bc 18020000 		.4byte	0x218
 2479 04c0 06       		.uleb128 0x6
 2480 04c1 08       		.byte	0x8
 2481 04c2 08       		.byte	0x8
 2482 04c3 6E       		.byte	0x6e
 2483 04c4 ED040000 		.4byte	0x4ed
 2484 04c8 07       		.uleb128 0x7
 2485 04c9 2E080000 		.4byte	.LASF60
 2486 04cd 08       		.byte	0x8
 2487 04ce 70       		.byte	0x70
 2488 04cf E0020000 		.4byte	0x2e0
 2489 04d3 00       		.byte	0
 2490 04d4 07       		.uleb128 0x7
 2491 04d5 A9000000 		.4byte	.LASF78
 2492 04d9 08       		.byte	0x8
 2493 04da 71       		.byte	0x71
 2494 04db EC020000 		.4byte	0x2ec
 2495 04df 04       		.byte	0x4
 2496 04e0 08       		.uleb128 0x8
 2497 04e1 6F706100 		.ascii	"opa\000"
 2498 04e5 08       		.byte	0x8
 2499 04e6 72       		.byte	0x72
 2500 04e7 EC020000 		.4byte	0x2ec
 2501 04eb 05       		.byte	0x5
 2502 04ec 00       		.byte	0
 2503 04ed 06       		.uleb128 0x6
 2504 04ee 08       		.byte	0x8
 2505 04ef 08       		.byte	0x8
 2506 04f0 76       		.byte	0x76
 2507 04f1 29050000 		.4byte	0x529
 2508 04f5 07       		.uleb128 0x7
 2509 04f6 2E080000 		.4byte	.LASF60
 2510 04fa 08       		.byte	0x8
 2511 04fb 78       		.byte	0x78
 2512 04fc E0020000 		.4byte	0x2e0
 2513 0500 00       		.byte	0
 2514 0501 07       		.uleb128 0x7
 2515 0502 89050000 		.4byte	.LASF61
 2516 0506 08       		.byte	0x8
 2517 0507 79       		.byte	0x79
 2518 0508 F6000000 		.4byte	0xf6
 2519 050c 04       		.byte	0x4
 2520 050d 08       		.uleb128 0x8
 2521 050e 6F706100 		.ascii	"opa\000"
 2522 0512 08       		.byte	0x8
 2523 0513 7A       		.byte	0x7a
 2524 0514 EC020000 		.4byte	0x2ec
 2525 0518 06       		.byte	0x6
 2526 0519 0A       		.uleb128 0xa
ARM GAS  C:\Users\pearlstl\AppData\Local\Temp\ccFIoKDo.s 			page 62


 2527 051a 2D040000 		.4byte	.LASF80
 2528 051e 08       		.byte	0x8
 2529 051f 7B       		.byte	0x7b
 2530 0520 BF000000 		.4byte	0xbf
 2531 0524 01       		.byte	0x1
 2532 0525 01       		.byte	0x1
 2533 0526 07       		.byte	0x7
 2534 0527 07       		.byte	0x7
 2535 0528 00       		.byte	0
 2536 0529 06       		.uleb128 0x6
 2537 052a 50       		.byte	0x50
 2538 052b 08       		.byte	0x8
 2539 052c 3C       		.byte	0x3c
 2540 052d 71050000 		.4byte	0x571
 2541 0531 0A       		.uleb128 0xa
 2542 0532 E1050000 		.4byte	.LASF81
 2543 0536 08       		.byte	0x8
 2544 0537 3E       		.byte	0x3e
 2545 0538 BF000000 		.4byte	0xbf
 2546 053c 01       		.byte	0x1
 2547 053d 01       		.byte	0x1
 2548 053e 07       		.byte	0x7
 2549 053f 00       		.byte	0
 2550 0540 07       		.uleb128 0x7
 2551 0541 97030000 		.4byte	.LASF82
 2552 0545 08       		.byte	0x8
 2553 0546 60       		.byte	0x60
 2554 0547 07040000 		.4byte	0x407
 2555 054b 04       		.byte	0x4
 2556 054c 07       		.uleb128 0x7
 2557 054d 22040000 		.4byte	.LASF83
 2558 0551 08       		.byte	0x8
 2559 0552 6B       		.byte	0x6b
 2560 0553 64040000 		.4byte	0x464
 2561 0557 2C       		.byte	0x2c
 2562 0558 07       		.uleb128 0x7
 2563 0559 27040000 		.4byte	.LASF84
 2564 055d 08       		.byte	0x8
 2565 055e 73       		.byte	0x73
 2566 055f C0040000 		.4byte	0x4c0
 2567 0563 40       		.byte	0x40
 2568 0564 07       		.uleb128 0x7
 2569 0565 00050000 		.4byte	.LASF85
 2570 0569 08       		.byte	0x8
 2571 056a 7C       		.byte	0x7c
 2572 056b ED040000 		.4byte	0x4ed
 2573 056f 48       		.byte	0x48
 2574 0570 00       		.byte	0
 2575 0571 04       		.uleb128 0x4
 2576 0572 BA040000 		.4byte	.LASF86
 2577 0576 08       		.byte	0x8
 2578 0577 84       		.byte	0x84
 2579 0578 29050000 		.4byte	0x529
 2580 057c 04       		.uleb128 0x4
 2581 057d A0060000 		.4byte	.LASF87
 2582 0581 09       		.byte	0x9
 2583 0582 2C       		.byte	0x2c
ARM GAS  C:\Users\pearlstl\AppData\Local\Temp\ccFIoKDo.s 			page 63


 2584 0583 BF000000 		.4byte	0xbf
 2585 0587 04       		.uleb128 0x4
 2586 0588 2A000000 		.4byte	.LASF88
 2587 058c 0A       		.byte	0xa
 2588 058d 1E       		.byte	0x1e
 2589 058e BF000000 		.4byte	0xbf
 2590 0592 06       		.uleb128 0x6
 2591 0593 0C       		.byte	0xc
 2592 0594 0A       		.byte	0xa
 2593 0595 21       		.byte	0x21
 2594 0596 BF050000 		.4byte	0x5bf
 2595 059a 07       		.uleb128 0x7
 2596 059b 1A0C0000 		.4byte	.LASF89
 2597 059f 0A       		.byte	0xa
 2598 05a0 23       		.byte	0x23
 2599 05a1 EB000000 		.4byte	0xeb
 2600 05a5 00       		.byte	0
 2601 05a6 07       		.uleb128 0x7
 2602 05a7 5B020000 		.4byte	.LASF90
 2603 05ab 0A       		.byte	0xa
 2604 05ac 24       		.byte	0x24
 2605 05ad BF050000 		.4byte	0x5bf
 2606 05b1 04       		.byte	0x4
 2607 05b2 07       		.uleb128 0x7
 2608 05b3 8B000000 		.4byte	.LASF91
 2609 05b7 0A       		.byte	0xa
 2610 05b8 25       		.byte	0x25
 2611 05b9 BF050000 		.4byte	0x5bf
 2612 05bd 08       		.byte	0x8
 2613 05be 00       		.byte	0
 2614 05bf 0D       		.uleb128 0xd
 2615 05c0 04       		.byte	0x4
 2616 05c1 87050000 		.4byte	0x587
 2617 05c5 04       		.uleb128 0x4
 2618 05c6 DA080000 		.4byte	.LASF92
 2619 05ca 0A       		.byte	0xa
 2620 05cb 26       		.byte	0x26
 2621 05cc 92050000 		.4byte	0x592
 2622 05d0 04       		.uleb128 0x4
 2623 05d1 40040000 		.4byte	.LASF93
 2624 05d5 0B       		.byte	0xb
 2625 05d6 30       		.byte	0x30
 2626 05d7 BF000000 		.4byte	0xbf
 2627 05db 04       		.uleb128 0x4
 2628 05dc ED0B0000 		.4byte	.LASF94
 2629 05e0 0C       		.byte	0xc
 2630 05e1 2B       		.byte	0x2b
 2631 05e2 E6050000 		.4byte	0x5e6
 2632 05e6 0D       		.uleb128 0xd
 2633 05e7 04       		.byte	0x4
 2634 05e8 EC050000 		.4byte	0x5ec
 2635 05ec 15       		.uleb128 0x15
 2636 05ed F7050000 		.4byte	0x5f7
 2637 05f1 0C       		.uleb128 0xc
 2638 05f2 F7050000 		.4byte	0x5f7
 2639 05f6 00       		.byte	0
 2640 05f7 0D       		.uleb128 0xd
ARM GAS  C:\Users\pearlstl\AppData\Local\Temp\ccFIoKDo.s 			page 64


 2641 05f8 04       		.byte	0x4
 2642 05f9 FD050000 		.4byte	0x5fd
 2643 05fd 09       		.uleb128 0x9
 2644 05fe A1030000 		.4byte	.LASF96
 2645 0602 14       		.byte	0x14
 2646 0603 0C       		.byte	0xc
 2647 0604 3E       		.byte	0x3e
 2648 0605 58060000 		.4byte	0x658
 2649 0609 07       		.uleb128 0x7
 2650 060a E3070000 		.4byte	.LASF97
 2651 060e 0C       		.byte	0xc
 2652 060f 40       		.byte	0x40
 2653 0610 EB000000 		.4byte	0xeb
 2654 0614 00       		.byte	0
 2655 0615 07       		.uleb128 0x7
 2656 0616 85070000 		.4byte	.LASF98
 2657 061a 0C       		.byte	0xc
 2658 061b 41       		.byte	0x41
 2659 061c EB000000 		.4byte	0xeb
 2660 0620 04       		.byte	0x4
 2661 0621 07       		.uleb128 0x7
 2662 0622 12030000 		.4byte	.LASF99
 2663 0626 0C       		.byte	0xc
 2664 0627 42       		.byte	0x42
 2665 0628 DB050000 		.4byte	0x5db
 2666 062c 08       		.byte	0x8
 2667 062d 07       		.uleb128 0x7
 2668 062e 480B0000 		.4byte	.LASF100
 2669 0632 0C       		.byte	0xc
 2670 0633 44       		.byte	0x44
 2671 0634 01010000 		.4byte	0x101
 2672 0638 0C       		.byte	0xc
 2673 0639 0A       		.uleb128 0xa
 2674 063a D0010000 		.4byte	.LASF101
 2675 063e 0C       		.byte	0xc
 2676 063f 46       		.byte	0x46
 2677 0640 BF000000 		.4byte	0xbf
 2678 0644 01       		.byte	0x1
 2679 0645 03       		.byte	0x3
 2680 0646 05       		.byte	0x5
 2681 0647 10       		.byte	0x10
 2682 0648 0A       		.uleb128 0xa
 2683 0649 3C060000 		.4byte	.LASF102
 2684 064d 0C       		.byte	0xc
 2685 064e 47       		.byte	0x47
 2686 064f BF000000 		.4byte	0xbf
 2687 0653 01       		.byte	0x1
 2688 0654 01       		.byte	0x1
 2689 0655 04       		.byte	0x4
 2690 0656 10       		.byte	0x10
 2691 0657 00       		.byte	0
 2692 0658 04       		.uleb128 0x4
 2693 0659 99070000 		.4byte	.LASF103
 2694 065d 0C       		.byte	0xc
 2695 065e 48       		.byte	0x48
 2696 065f FD050000 		.4byte	0x5fd
 2697 0663 06       		.uleb128 0x6
ARM GAS  C:\Users\pearlstl\AppData\Local\Temp\ccFIoKDo.s 			page 65


 2698 0664 1C       		.byte	0x1c
 2699 0665 0D       		.byte	0xd
 2700 0666 2F       		.byte	0x2f
 2701 0667 B7060000 		.4byte	0x6b7
 2702 066b 07       		.uleb128 0x7
 2703 066c A7050000 		.4byte	.LASF104
 2704 0670 0D       		.byte	0xd
 2705 0671 31       		.byte	0x31
 2706 0672 01010000 		.4byte	0x101
 2707 0676 00       		.byte	0
 2708 0677 07       		.uleb128 0x7
 2709 0678 AC050000 		.4byte	.LASF105
 2710 067c 0D       		.byte	0xd
 2711 067d 32       		.byte	0x32
 2712 067e 01010000 		.4byte	0x101
 2713 0682 04       		.byte	0x4
 2714 0683 07       		.uleb128 0x7
 2715 0684 B2060000 		.4byte	.LASF106
 2716 0688 0D       		.byte	0xd
 2717 0689 35       		.byte	0x35
 2718 068a 01010000 		.4byte	0x101
 2719 068e 08       		.byte	0x8
 2720 068f 07       		.uleb128 0x7
 2721 0690 60070000 		.4byte	.LASF107
 2722 0694 0D       		.byte	0xd
 2723 0695 36       		.byte	0x36
 2724 0696 EB000000 		.4byte	0xeb
 2725 069a 0C       		.byte	0xc
 2726 069b 07       		.uleb128 0x7
 2727 069c B5040000 		.4byte	.LASF108
 2728 06a0 0D       		.byte	0xd
 2729 06a1 37       		.byte	0x37
 2730 06a2 3B030000 		.4byte	0x33b
 2731 06a6 10       		.byte	0x10
 2732 06a7 0A       		.uleb128 0xa
 2733 06a8 03040000 		.4byte	.LASF109
 2734 06ac 0D       		.byte	0xd
 2735 06ad 38       		.byte	0x38
 2736 06ae B7060000 		.4byte	0x6b7
 2737 06b2 04       		.byte	0x4
 2738 06b3 01       		.byte	0x1
 2739 06b4 1F       		.byte	0x1f
 2740 06b5 18       		.byte	0x18
 2741 06b6 00       		.byte	0
 2742 06b7 16       		.uleb128 0x16
 2743 06b8 EB000000 		.4byte	0xeb
 2744 06bc 04       		.uleb128 0x4
 2745 06bd 2F050000 		.4byte	.LASF110
 2746 06c1 0D       		.byte	0xd
 2747 06c2 39       		.byte	0x39
 2748 06c3 63060000 		.4byte	0x663
 2749 06c7 09       		.uleb128 0x9
 2750 06c8 14050000 		.4byte	.LASF111
 2751 06cc 20       		.byte	0x20
 2752 06cd 0D       		.byte	0xd
 2753 06ce 3E       		.byte	0x3e
 2754 06cf 43070000 		.4byte	0x743
ARM GAS  C:\Users\pearlstl\AppData\Local\Temp\ccFIoKDo.s 			page 66


 2755 06d3 07       		.uleb128 0x7
 2756 06d4 9A020000 		.4byte	.LASF112
 2757 06d8 0D       		.byte	0xd
 2758 06d9 41       		.byte	0x41
 2759 06da F6000000 		.4byte	0xf6
 2760 06de 00       		.byte	0
 2761 06df 07       		.uleb128 0x7
 2762 06e0 EC010000 		.4byte	.LASF113
 2763 06e4 0D       		.byte	0xd
 2764 06e5 42       		.byte	0x42
 2765 06e6 F6000000 		.4byte	0xf6
 2766 06ea 02       		.byte	0x2
 2767 06eb 07       		.uleb128 0x7
 2768 06ec 6A040000 		.4byte	.LASF114
 2769 06f0 0D       		.byte	0xd
 2770 06f1 46       		.byte	0x46
 2771 06f2 43070000 		.4byte	0x743
 2772 06f6 04       		.byte	0x4
 2773 06f7 0A       		.uleb128 0xa
 2774 06f8 2D020000 		.4byte	.LASF115
 2775 06fc 0D       		.byte	0xd
 2776 06fd 4B       		.byte	0x4b
 2777 06fe EB000000 		.4byte	0xeb
 2778 0702 04       		.byte	0x4
 2779 0703 01       		.byte	0x1
 2780 0704 1F       		.byte	0x1f
 2781 0705 08       		.byte	0x8
 2782 0706 07       		.uleb128 0x7
 2783 0707 3A0B0000 		.4byte	.LASF116
 2784 070b 0D       		.byte	0xd
 2785 070c 55       		.byte	0x55
 2786 070d 75070000 		.4byte	0x775
 2787 0711 0C       		.byte	0xc
 2788 0712 07       		.uleb128 0x7
 2789 0713 EA070000 		.4byte	.LASF117
 2790 0717 0D       		.byte	0xd
 2791 0718 59       		.byte	0x59
 2792 0719 91070000 		.4byte	0x791
 2793 071d 10       		.byte	0x10
 2794 071e 07       		.uleb128 0x7
 2795 071f 7C020000 		.4byte	.LASF118
 2796 0723 0D       		.byte	0xd
 2797 0724 5E       		.byte	0x5e
 2798 0725 C6070000 		.4byte	0x7c6
 2799 0729 14       		.byte	0x14
 2800 072a 07       		.uleb128 0x7
 2801 072b 070B0000 		.4byte	.LASF119
 2802 072f 0D       		.byte	0xd
 2803 0730 63       		.byte	0x63
 2804 0731 E1070000 		.4byte	0x7e1
 2805 0735 18       		.byte	0x18
 2806 0736 07       		.uleb128 0x7
 2807 0737 07000000 		.4byte	.LASF120
 2808 073b 0D       		.byte	0xd
 2809 073c 71       		.byte	0x71
 2810 073d E0020000 		.4byte	0x2e0
 2811 0741 1C       		.byte	0x1c
ARM GAS  C:\Users\pearlstl\AppData\Local\Temp\ccFIoKDo.s 			page 67


 2812 0742 00       		.byte	0
 2813 0743 0D       		.uleb128 0xd
 2814 0744 04       		.byte	0x4
 2815 0745 BC060000 		.4byte	0x6bc
 2816 0749 15       		.uleb128 0x15
 2817 074a 5E070000 		.4byte	0x75e
 2818 074e 0C       		.uleb128 0xc
 2819 074f 5E070000 		.4byte	0x75e
 2820 0753 0C       		.uleb128 0xc
 2821 0754 64070000 		.4byte	0x764
 2822 0758 0C       		.uleb128 0xc
 2823 0759 6F070000 		.4byte	0x76f
 2824 075d 00       		.byte	0
 2825 075e 0D       		.uleb128 0xd
 2826 075f 04       		.byte	0x4
 2827 0760 C7060000 		.4byte	0x6c7
 2828 0764 0D       		.uleb128 0xd
 2829 0765 04       		.byte	0x4
 2830 0766 6A070000 		.4byte	0x76a
 2831 076a 0E       		.uleb128 0xe
 2832 076b 3B030000 		.4byte	0x33b
 2833 076f 0D       		.uleb128 0xd
 2834 0770 04       		.byte	0x4
 2835 0771 E0020000 		.4byte	0x2e0
 2836 0775 0D       		.uleb128 0xd
 2837 0776 04       		.byte	0x4
 2838 0777 49070000 		.4byte	0x749
 2839 077b 15       		.uleb128 0x15
 2840 077c 8B070000 		.4byte	0x78b
 2841 0780 0C       		.uleb128 0xc
 2842 0781 5E070000 		.4byte	0x75e
 2843 0785 0C       		.uleb128 0xc
 2844 0786 8B070000 		.4byte	0x78b
 2845 078a 00       		.byte	0
 2846 078b 0D       		.uleb128 0xd
 2847 078c 04       		.byte	0x4
 2848 078d 3B030000 		.4byte	0x33b
 2849 0791 0D       		.uleb128 0xd
 2850 0792 04       		.byte	0x4
 2851 0793 7B070000 		.4byte	0x77b
 2852 0797 15       		.uleb128 0x15
 2853 0798 C0070000 		.4byte	0x7c0
 2854 079c 0C       		.uleb128 0xc
 2855 079d 5E070000 		.4byte	0x75e
 2856 07a1 0C       		.uleb128 0xc
 2857 07a2 C0070000 		.4byte	0x7c0
 2858 07a6 0C       		.uleb128 0xc
 2859 07a7 F6000000 		.4byte	0xf6
 2860 07ab 0C       		.uleb128 0xc
 2861 07ac F6000000 		.4byte	0xf6
 2862 07b0 0C       		.uleb128 0xc
 2863 07b1 F6000000 		.4byte	0xf6
 2864 07b5 0C       		.uleb128 0xc
 2865 07b6 E0020000 		.4byte	0x2e0
 2866 07ba 0C       		.uleb128 0xc
 2867 07bb EC020000 		.4byte	0x2ec
 2868 07bf 00       		.byte	0
ARM GAS  C:\Users\pearlstl\AppData\Local\Temp\ccFIoKDo.s 			page 68


 2869 07c0 0D       		.uleb128 0xd
 2870 07c1 04       		.byte	0x4
 2871 07c2 BF000000 		.4byte	0xbf
 2872 07c6 0D       		.uleb128 0xd
 2873 07c7 04       		.byte	0x4
 2874 07c8 97070000 		.4byte	0x797
 2875 07cc 15       		.uleb128 0x15
 2876 07cd E1070000 		.4byte	0x7e1
 2877 07d1 0C       		.uleb128 0xc
 2878 07d2 5E070000 		.4byte	0x75e
 2879 07d6 0C       		.uleb128 0xc
 2880 07d7 EB000000 		.4byte	0xeb
 2881 07db 0C       		.uleb128 0xc
 2882 07dc EB000000 		.4byte	0xeb
 2883 07e0 00       		.byte	0
 2884 07e1 0D       		.uleb128 0xd
 2885 07e2 04       		.byte	0x4
 2886 07e3 CC070000 		.4byte	0x7cc
 2887 07e7 04       		.uleb128 0x4
 2888 07e8 540A0000 		.4byte	.LASF121
 2889 07ec 0D       		.byte	0xd
 2890 07ed 77       		.byte	0x77
 2891 07ee C7060000 		.4byte	0x6c7
 2892 07f2 17       		.uleb128 0x17
 2893 07f3 8D060000 		.4byte	.LASF122
 2894 07f7 6401     		.2byte	0x164
 2895 07f9 0D       		.byte	0xd
 2896 07fa 7F       		.byte	0x7f
 2897 07fb 7E080000 		.4byte	0x87e
 2898 07ff 07       		.uleb128 0x7
 2899 0800 4D080000 		.4byte	.LASF123
 2900 0804 0D       		.byte	0xd
 2901 0805 82       		.byte	0x82
 2902 0806 E7070000 		.4byte	0x7e7
 2903 080a 00       		.byte	0
 2904 080b 07       		.uleb128 0x7
 2905 080c 23020000 		.4byte	.LASF124
 2906 0810 0D       		.byte	0xd
 2907 0811 85       		.byte	0x85
 2908 0812 7E080000 		.4byte	0x87e
 2909 0816 20       		.byte	0x20
 2910 0817 07       		.uleb128 0x7
 2911 0818 D5010000 		.4byte	.LASF125
 2912 081c 0D       		.byte	0xd
 2913 081d 88       		.byte	0x88
 2914 081e C5050000 		.4byte	0x5c5
 2915 0822 24       		.byte	0x24
 2916 0823 07       		.uleb128 0x7
 2917 0824 90000000 		.4byte	.LASF126
 2918 0828 0D       		.byte	0xd
 2919 0829 89       		.byte	0x89
 2920 082a C6090000 		.4byte	0x9c6
 2921 082e 30       		.byte	0x30
 2922 082f 07       		.uleb128 0x7
 2923 0830 EE020000 		.4byte	.LASF127
 2924 0834 0D       		.byte	0xd
 2925 0835 8A       		.byte	0x8a
ARM GAS  C:\Users\pearlstl\AppData\Local\Temp\ccFIoKDo.s 			page 69


 2926 0836 C6090000 		.4byte	0x9c6
 2927 083a 34       		.byte	0x34
 2928 083b 07       		.uleb128 0x7
 2929 083c 84090000 		.4byte	.LASF128
 2930 0840 0D       		.byte	0xd
 2931 0841 8B       		.byte	0x8b
 2932 0842 C6090000 		.4byte	0x9c6
 2933 0846 38       		.byte	0x38
 2934 0847 07       		.uleb128 0x7
 2935 0848 18060000 		.4byte	.LASF129
 2936 084c 0D       		.byte	0xd
 2937 084d 8E       		.byte	0x8e
 2938 084e CC090000 		.4byte	0x9cc
 2939 0852 3C       		.byte	0x3c
 2940 0853 18       		.uleb128 0x18
 2941 0854 4C030000 		.4byte	.LASF130
 2942 0858 0D       		.byte	0xd
 2943 0859 8F       		.byte	0x8f
 2944 085a DC090000 		.4byte	0x9dc
 2945 085e 3C01     		.2byte	0x13c
 2946 0860 19       		.uleb128 0x19
 2947 0861 D4080000 		.4byte	.LASF131
 2948 0865 0D       		.byte	0xd
 2949 0866 90       		.byte	0x90
 2950 0867 EB000000 		.4byte	0xeb
 2951 086b 04       		.byte	0x4
 2952 086c 0A       		.byte	0xa
 2953 086d 16       		.byte	0x16
 2954 086e 5C01     		.2byte	0x15c
 2955 0870 18       		.uleb128 0x18
 2956 0871 07020000 		.4byte	.LASF132
 2957 0875 0D       		.byte	0xd
 2958 0876 93       		.byte	0x93
 2959 0877 EB000000 		.4byte	0xeb
 2960 087b 6001     		.2byte	0x160
 2961 087d 00       		.byte	0
 2962 087e 0D       		.uleb128 0xd
 2963 087f 04       		.byte	0x4
 2964 0880 58060000 		.4byte	0x658
 2965 0884 09       		.uleb128 0x9
 2966 0885 77080000 		.4byte	.LASF133
 2967 0889 40       		.byte	0x40
 2968 088a 0E       		.byte	0xe
 2969 088b BB       		.byte	0xbb
 2970 088c C6090000 		.4byte	0x9c6
 2971 0890 08       		.uleb128 0x8
 2972 0891 70617200 		.ascii	"par\000"
 2973 0895 0E       		.byte	0xe
 2974 0896 BD       		.byte	0xbd
 2975 0897 C6090000 		.4byte	0x9c6
 2976 089b 00       		.byte	0
 2977 089c 07       		.uleb128 0x7
 2978 089d 96050000 		.4byte	.LASF134
 2979 08a1 0E       		.byte	0xe
 2980 08a2 BE       		.byte	0xbe
 2981 08a3 C5050000 		.4byte	0x5c5
 2982 08a7 04       		.byte	0x4
ARM GAS  C:\Users\pearlstl\AppData\Local\Temp\ccFIoKDo.s 			page 70


 2983 08a8 07       		.uleb128 0x7
 2984 08a9 7D090000 		.4byte	.LASF135
 2985 08ad 0E       		.byte	0xe
 2986 08ae C0       		.byte	0xc0
 2987 08af 3B030000 		.4byte	0x33b
 2988 08b3 10       		.byte	0x10
 2989 08b4 07       		.uleb128 0x7
 2990 08b5 48050000 		.4byte	.LASF136
 2991 08b9 0E       		.byte	0xe
 2992 08ba C2       		.byte	0xc2
 2993 08bb 560A0000 		.4byte	0xa56
 2994 08bf 18       		.byte	0x18
 2995 08c0 07       		.uleb128 0x7
 2996 08c1 7C0A0000 		.4byte	.LASF137
 2997 08c5 0E       		.byte	0xe
 2998 08c6 C3       		.byte	0xc3
 2999 08c7 820A0000 		.4byte	0xa82
 3000 08cb 1C       		.byte	0x1c
 3001 08cc 07       		.uleb128 0x7
 3002 08cd EB030000 		.4byte	.LASF138
 3003 08d1 0E       		.byte	0xe
 3004 08d2 C4       		.byte	0xc4
 3005 08d3 210A0000 		.4byte	0xa21
 3006 08d7 20       		.byte	0x20
 3007 08d8 07       		.uleb128 0x7
 3008 08d9 DA060000 		.4byte	.LASF139
 3009 08dd 0E       		.byte	0xe
 3010 08de C6       		.byte	0xc6
 3011 08df 01010000 		.4byte	0x101
 3012 08e3 24       		.byte	0x24
 3013 08e4 07       		.uleb128 0x7
 3014 08e5 73050000 		.4byte	.LASF140
 3015 08e9 0E       		.byte	0xe
 3016 08ea C7       		.byte	0xc7
 3017 08eb 2F0B0000 		.4byte	0xb2f
 3018 08ef 28       		.byte	0x28
 3019 08f0 0A       		.uleb128 0xa
 3020 08f1 E5000000 		.4byte	.LASF141
 3021 08f5 0E       		.byte	0xe
 3022 08f6 D7       		.byte	0xd7
 3023 08f7 BF000000 		.4byte	0xbf
 3024 08fb 01       		.byte	0x1
 3025 08fc 01       		.byte	0x1
 3026 08fd 07       		.byte	0x7
 3027 08fe 2C       		.byte	0x2c
 3028 08ff 0A       		.uleb128 0xa
 3029 0900 65080000 		.4byte	.LASF142
 3030 0904 0E       		.byte	0xe
 3031 0905 D8       		.byte	0xd8
 3032 0906 BF000000 		.4byte	0xbf
 3033 090a 01       		.byte	0x1
 3034 090b 01       		.byte	0x1
 3035 090c 06       		.byte	0x6
 3036 090d 2C       		.byte	0x2c
 3037 090e 0A       		.uleb128 0xa
 3038 090f 35040000 		.4byte	.LASF143
 3039 0913 0E       		.byte	0xe
ARM GAS  C:\Users\pearlstl\AppData\Local\Temp\ccFIoKDo.s 			page 71


 3040 0914 D9       		.byte	0xd9
 3041 0915 BF000000 		.4byte	0xbf
 3042 0919 01       		.byte	0x1
 3043 091a 01       		.byte	0x1
 3044 091b 05       		.byte	0x5
 3045 091c 2C       		.byte	0x2c
 3046 091d 0A       		.uleb128 0xa
 3047 091e 1B0A0000 		.4byte	.LASF144
 3048 0922 0E       		.byte	0xe
 3049 0923 DA       		.byte	0xda
 3050 0924 BF000000 		.4byte	0xbf
 3051 0928 01       		.byte	0x1
 3052 0929 01       		.byte	0x1
 3053 092a 04       		.byte	0x4
 3054 092b 2C       		.byte	0x2c
 3055 092c 0A       		.uleb128 0xa
 3056 092d 00020000 		.4byte	.LASF145
 3057 0931 0E       		.byte	0xe
 3058 0932 DB       		.byte	0xdb
 3059 0933 BF000000 		.4byte	0xbf
 3060 0937 01       		.byte	0x1
 3061 0938 01       		.byte	0x1
 3062 0939 03       		.byte	0x3
 3063 093a 2C       		.byte	0x2c
 3064 093b 1A       		.uleb128 0x1a
 3065 093c 746F7000 		.ascii	"top\000"
 3066 0940 0E       		.byte	0xe
 3067 0941 DC       		.byte	0xdc
 3068 0942 BF000000 		.4byte	0xbf
 3069 0946 01       		.byte	0x1
 3070 0947 01       		.byte	0x1
 3071 0948 02       		.byte	0x2
 3072 0949 2C       		.byte	0x2c
 3073 094a 0A       		.uleb128 0xa
 3074 094b BD090000 		.4byte	.LASF146
 3075 094f 0E       		.byte	0xe
 3076 0950 DD       		.byte	0xdd
 3077 0951 BF000000 		.4byte	0xbf
 3078 0955 01       		.byte	0x1
 3079 0956 01       		.byte	0x1
 3080 0957 01       		.byte	0x1
 3081 0958 2C       		.byte	0x2c
 3082 0959 0A       		.uleb128 0xa
 3083 095a B1050000 		.4byte	.LASF147
 3084 095e 0E       		.byte	0xe
 3085 095f DE       		.byte	0xde
 3086 0960 BF000000 		.4byte	0xbf
 3087 0964 01       		.byte	0x1
 3088 0965 01       		.byte	0x1
 3089 0966 00       		.byte	0
 3090 0967 2C       		.byte	0x2c
 3091 0968 0A       		.uleb128 0xa
 3092 0969 09030000 		.4byte	.LASF148
 3093 096d 0E       		.byte	0xe
 3094 096e DF       		.byte	0xdf
 3095 096f 240B0000 		.4byte	0xb24
 3096 0973 01       		.byte	0x1
ARM GAS  C:\Users\pearlstl\AppData\Local\Temp\ccFIoKDo.s 			page 72


 3097 0974 02       		.byte	0x2
 3098 0975 06       		.byte	0x6
 3099 0976 2D       		.byte	0x2d
 3100 0977 0A       		.uleb128 0xa
 3101 0978 9D080000 		.4byte	.LASF149
 3102 097c 0E       		.byte	0xe
 3103 097d E0       		.byte	0xe0
 3104 097e D0050000 		.4byte	0x5d0
 3105 0982 01       		.byte	0x1
 3106 0983 02       		.byte	0x2
 3107 0984 04       		.byte	0x4
 3108 0985 2D       		.byte	0x2d
 3109 0986 0A       		.uleb128 0xa
 3110 0987 B50A0000 		.4byte	.LASF150
 3111 098b 0E       		.byte	0xe
 3112 098c E1       		.byte	0xe1
 3113 098d BF000000 		.4byte	0xbf
 3114 0991 01       		.byte	0x1
 3115 0992 03       		.byte	0x3
 3116 0993 01       		.byte	0x1
 3117 0994 2D       		.byte	0x2d
 3118 0995 07       		.uleb128 0x7
 3119 0996 9F050000 		.4byte	.LASF151
 3120 099a 0E       		.byte	0xe
 3121 099b E2       		.byte	0xe2
 3122 099c BF000000 		.4byte	0xbf
 3123 09a0 2E       		.byte	0x2e
 3124 09a1 07       		.uleb128 0x7
 3125 09a2 3A0C0000 		.4byte	.LASF152
 3126 09a6 0E       		.byte	0xe
 3127 09a7 E4       		.byte	0xe4
 3128 09a8 EC020000 		.4byte	0x2ec
 3129 09ac 2F       		.byte	0x2f
 3130 09ad 07       		.uleb128 0x7
 3131 09ae 4E040000 		.4byte	.LASF153
 3132 09b2 0E       		.byte	0xe
 3133 09b3 E6       		.byte	0xe6
 3134 09b4 F6000000 		.4byte	0xf6
 3135 09b8 30       		.byte	0x30
 3136 09b9 07       		.uleb128 0x7
 3137 09ba 93040000 		.4byte	.LASF154
 3138 09be 0E       		.byte	0xe
 3139 09bf E9       		.byte	0xe9
 3140 09c0 190B0000 		.4byte	0xb19
 3141 09c4 34       		.byte	0x34
 3142 09c5 00       		.byte	0
 3143 09c6 0D       		.uleb128 0xd
 3144 09c7 04       		.byte	0x4
 3145 09c8 84080000 		.4byte	0x884
 3146 09cc 1B       		.uleb128 0x1b
 3147 09cd 3B030000 		.4byte	0x33b
 3148 09d1 DC090000 		.4byte	0x9dc
 3149 09d5 1C       		.uleb128 0x1c
 3150 09d6 F8020000 		.4byte	0x2f8
 3151 09da 1F       		.byte	0x1f
 3152 09db 00       		.byte	0
 3153 09dc 1B       		.uleb128 0x1b
ARM GAS  C:\Users\pearlstl\AppData\Local\Temp\ccFIoKDo.s 			page 73


 3154 09dd BF000000 		.4byte	0xbf
 3155 09e1 EC090000 		.4byte	0x9ec
 3156 09e5 1C       		.uleb128 0x1c
 3157 09e6 F8020000 		.4byte	0x2f8
 3158 09ea 1F       		.byte	0x1f
 3159 09eb 00       		.byte	0
 3160 09ec 04       		.uleb128 0x4
 3161 09ed 46000000 		.4byte	.LASF155
 3162 09f1 0D       		.byte	0xd
 3163 09f2 94       		.byte	0x94
 3164 09f3 F2070000 		.4byte	0x7f2
 3165 09f7 0F       		.uleb128 0xf
 3166 09f8 01       		.byte	0x1
 3167 09f9 5E000000 		.4byte	0x5e
 3168 09fd 0E       		.byte	0xe
 3169 09fe 3D       		.byte	0x3d
 3170 09ff 160A0000 		.4byte	0xa16
 3171 0a03 10       		.uleb128 0x10
 3172 0a04 4A060000 		.4byte	.LASF156
 3173 0a08 00       		.byte	0
 3174 0a09 10       		.uleb128 0x10
 3175 0a0a 83030000 		.4byte	.LASF157
 3176 0a0e 01       		.byte	0x1
 3177 0a0f 10       		.uleb128 0x10
 3178 0a10 B7030000 		.4byte	.LASF158
 3179 0a14 02       		.byte	0x2
 3180 0a15 00       		.byte	0
 3181 0a16 04       		.uleb128 0x4
 3182 0a17 ED060000 		.4byte	.LASF159
 3183 0a1b 0E       		.byte	0xe
 3184 0a1c 42       		.byte	0x42
 3185 0a1d BF000000 		.4byte	0xbf
 3186 0a21 04       		.uleb128 0x4
 3187 0a22 210C0000 		.4byte	.LASF160
 3188 0a26 0E       		.byte	0xe
 3189 0a27 48       		.byte	0x48
 3190 0a28 2C0A0000 		.4byte	0xa2c
 3191 0a2c 0D       		.uleb128 0xd
 3192 0a2d 04       		.byte	0x4
 3193 0a2e 320A0000 		.4byte	0xa32
 3194 0a32 0B       		.uleb128 0xb
 3195 0a33 D5010000 		.4byte	0x1d5
 3196 0a37 4B0A0000 		.4byte	0xa4b
 3197 0a3b 0C       		.uleb128 0xc
 3198 0a3c C6090000 		.4byte	0x9c6
 3199 0a40 0C       		.uleb128 0xc
 3200 0a41 64070000 		.4byte	0x764
 3201 0a45 0C       		.uleb128 0xc
 3202 0a46 160A0000 		.4byte	0xa16
 3203 0a4a 00       		.byte	0
 3204 0a4b 04       		.uleb128 0x4
 3205 0a4c F6000000 		.4byte	.LASF161
 3206 0a50 0E       		.byte	0xe
 3207 0a51 61       		.byte	0x61
 3208 0a52 BF000000 		.4byte	0xbf
 3209 0a56 04       		.uleb128 0x4
 3210 0a57 F5030000 		.4byte	.LASF162
ARM GAS  C:\Users\pearlstl\AppData\Local\Temp\ccFIoKDo.s 			page 74


 3211 0a5b 0E       		.byte	0xe
 3212 0a5c 68       		.byte	0x68
 3213 0a5d 610A0000 		.4byte	0xa61
 3214 0a61 0D       		.uleb128 0xd
 3215 0a62 04       		.byte	0x4
 3216 0a63 670A0000 		.4byte	0xa67
 3217 0a67 15       		.uleb128 0x15
 3218 0a68 770A0000 		.4byte	0xa77
 3219 0a6c 0C       		.uleb128 0xc
 3220 0a6d C6090000 		.4byte	0x9c6
 3221 0a71 0C       		.uleb128 0xc
 3222 0a72 4B0A0000 		.4byte	0xa4b
 3223 0a76 00       		.byte	0
 3224 0a77 04       		.uleb128 0x4
 3225 0a78 54070000 		.4byte	.LASF163
 3226 0a7c 0E       		.byte	0xe
 3227 0a7d 88       		.byte	0x88
 3228 0a7e BF000000 		.4byte	0xbf
 3229 0a82 04       		.uleb128 0x4
 3230 0a83 3D030000 		.4byte	.LASF164
 3231 0a87 0E       		.byte	0xe
 3232 0a88 8A       		.byte	0x8a
 3233 0a89 8D0A0000 		.4byte	0xa8d
 3234 0a8d 0D       		.uleb128 0xd
 3235 0a8e 04       		.byte	0x4
 3236 0a8f 930A0000 		.4byte	0xa93
 3237 0a93 0B       		.uleb128 0xb
 3238 0a94 7C050000 		.4byte	0x57c
 3239 0a98 AC0A0000 		.4byte	0xaac
 3240 0a9c 0C       		.uleb128 0xc
 3241 0a9d C6090000 		.4byte	0x9c6
 3242 0aa1 0C       		.uleb128 0xc
 3243 0aa2 770A0000 		.4byte	0xa77
 3244 0aa6 0C       		.uleb128 0xc
 3245 0aa7 01010000 		.4byte	0x101
 3246 0aab 00       		.byte	0
 3247 0aac 04       		.uleb128 0x4
 3248 0aad EB000000 		.4byte	.LASF165
 3249 0ab1 0E       		.byte	0xe
 3250 0ab2 A4       		.byte	0xa4
 3251 0ab3 BF000000 		.4byte	0xbf
 3252 0ab7 06       		.uleb128 0x6
 3253 0ab8 0C       		.byte	0xc
 3254 0ab9 0E       		.byte	0xe
 3255 0aba A7       		.byte	0xa7
 3256 0abb 0E0B0000 		.4byte	0xb0e
 3257 0abf 07       		.uleb128 0x7
 3258 0ac0 AC080000 		.4byte	.LASF166
 3259 0ac4 0E       		.byte	0xe
 3260 0ac5 A9       		.byte	0xa9
 3261 0ac6 0E0B0000 		.4byte	0xb0e
 3262 0aca 00       		.byte	0
 3263 0acb 07       		.uleb128 0x7
 3264 0acc 3F080000 		.4byte	.LASF167
 3265 0ad0 0E       		.byte	0xe
 3266 0ad1 AA       		.byte	0xaa
 3267 0ad2 F6000000 		.4byte	0xf6
ARM GAS  C:\Users\pearlstl\AppData\Local\Temp\ccFIoKDo.s 			page 75


 3268 0ad6 04       		.byte	0x4
 3269 0ad7 07       		.uleb128 0x7
 3270 0ad8 9C030000 		.4byte	.LASF168
 3271 0adc 0E       		.byte	0xe
 3272 0add AB       		.byte	0xab
 3273 0ade F6000000 		.4byte	0xf6
 3274 0ae2 06       		.byte	0x6
 3275 0ae3 07       		.uleb128 0x7
 3276 0ae4 BE050000 		.4byte	.LASF169
 3277 0ae8 0E       		.byte	0xe
 3278 0ae9 AC       		.byte	0xac
 3279 0aea AC0A0000 		.4byte	0xaac
 3280 0aee 08       		.byte	0x8
 3281 0aef 0A       		.uleb128 0xa
 3282 0af0 22060000 		.4byte	.LASF170
 3283 0af4 0E       		.byte	0xe
 3284 0af5 AD       		.byte	0xad
 3285 0af6 BF000000 		.4byte	0xbf
 3286 0afa 01       		.byte	0x1
 3287 0afb 01       		.byte	0x1
 3288 0afc 07       		.byte	0x7
 3289 0afd 09       		.byte	0x9
 3290 0afe 0A       		.uleb128 0xa
 3291 0aff C40B0000 		.4byte	.LASF171
 3292 0b03 0E       		.byte	0xe
 3293 0b04 AE       		.byte	0xae
 3294 0b05 BF000000 		.4byte	0xbf
 3295 0b09 01       		.byte	0x1
 3296 0b0a 01       		.byte	0x1
 3297 0b0b 06       		.byte	0x6
 3298 0b0c 09       		.byte	0x9
 3299 0b0d 00       		.byte	0
 3300 0b0e 0D       		.uleb128 0xd
 3301 0b0f 04       		.byte	0x4
 3302 0b10 140B0000 		.4byte	0xb14
 3303 0b14 0E       		.uleb128 0xe
 3304 0b15 84080000 		.4byte	0x884
 3305 0b19 04       		.uleb128 0x4
 3306 0b1a CC000000 		.4byte	.LASF172
 3307 0b1e 0E       		.byte	0xe
 3308 0b1f B0       		.byte	0xb0
 3309 0b20 B70A0000 		.4byte	0xab7
 3310 0b24 04       		.uleb128 0x4
 3311 0b25 C6060000 		.4byte	.LASF173
 3312 0b29 0E       		.byte	0xe
 3313 0b2a B9       		.byte	0xb9
 3314 0b2b BF000000 		.4byte	0xbf
 3315 0b2f 0D       		.uleb128 0xd
 3316 0b30 04       		.byte	0x4
 3317 0b31 350B0000 		.4byte	0xb35
 3318 0b35 0E       		.uleb128 0xe
 3319 0b36 71050000 		.4byte	0x571
 3320 0b3a 04       		.uleb128 0x4
 3321 0b3b 44080000 		.4byte	.LASF174
 3322 0b3f 0E       		.byte	0xe
 3323 0b40 F0       		.byte	0xf0
 3324 0b41 84080000 		.4byte	0x884
ARM GAS  C:\Users\pearlstl\AppData\Local\Temp\ccFIoKDo.s 			page 76


 3325 0b45 1D       		.uleb128 0x1d
 3326 0b46 090A0000 		.4byte	.LASF175
 3327 0b4a 02       		.byte	0x2
 3328 0b4b 56       		.byte	0x56
 3329 0b4c F6000000 		.4byte	0xf6
 3330 0b50 03       		.byte	0x3
 3331 0b51 610B0000 		.4byte	0xb61
 3332 0b55 1E       		.uleb128 0x1e
 3333 0b56 42020000 		.4byte	.LASF177
 3334 0b5a 02       		.byte	0x2
 3335 0b5b 56       		.byte	0x56
 3336 0b5c 64070000 		.4byte	0x764
 3337 0b60 00       		.byte	0
 3338 0b61 1D       		.uleb128 0x1d
 3339 0b62 A3070000 		.4byte	.LASF176
 3340 0b66 02       		.byte	0x2
 3341 0b67 60       		.byte	0x60
 3342 0b68 F6000000 		.4byte	0xf6
 3343 0b6c 03       		.byte	0x3
 3344 0b6d 7D0B0000 		.4byte	0xb7d
 3345 0b71 1E       		.uleb128 0x1e
 3346 0b72 42020000 		.4byte	.LASF177
 3347 0b76 02       		.byte	0x2
 3348 0b77 60       		.byte	0x60
 3349 0b78 64070000 		.4byte	0x764
 3350 0b7c 00       		.byte	0
 3351 0b7d 1F       		.uleb128 0x1f
 3352 0b7e 6A030000 		.4byte	.LASF179
 3353 0b82 02       		.byte	0x2
 3354 0b83 4C       		.byte	0x4c
 3355 0b84 03       		.byte	0x3
 3356 0b85 A00B0000 		.4byte	0xba0
 3357 0b89 1E       		.uleb128 0x1e
 3358 0b8a 1A080000 		.4byte	.LASF178
 3359 0b8e 02       		.byte	0x2
 3360 0b8f 4C       		.byte	0x4c
 3361 0b90 8B070000 		.4byte	0x78b
 3362 0b94 20       		.uleb128 0x20
 3363 0b95 73726300 		.ascii	"src\000"
 3364 0b99 02       		.byte	0x2
 3365 0b9a 4C       		.byte	0x4c
 3366 0b9b 64070000 		.4byte	0x764
 3367 0b9f 00       		.byte	0
 3368 0ba0 21       		.uleb128 0x21
 3369 0ba1 01010000 		.4byte	.LASF180
 3370 0ba5 01       		.byte	0x1
 3371 0ba6 EE01     		.2byte	0x1ee
 3372 0ba8 01       		.byte	0x1
 3373 0ba9 280C0000 		.4byte	0xc28
 3374 0bad 22       		.uleb128 0x22
 3375 0bae 6F626A00 		.ascii	"obj\000"
 3376 0bb2 01       		.byte	0x1
 3377 0bb3 EE01     		.2byte	0x1ee
 3378 0bb5 280C0000 		.4byte	0xc28
 3379 0bb9 23       		.uleb128 0x23
 3380 0bba 71020000 		.4byte	.LASF181
 3381 0bbe 01       		.byte	0x1
ARM GAS  C:\Users\pearlstl\AppData\Local\Temp\ccFIoKDo.s 			page 77


 3382 0bbf EE01     		.2byte	0x1ee
 3383 0bc1 64070000 		.4byte	0x764
 3384 0bc5 24       		.uleb128 0x24
 3385 0bc6 41060000 		.4byte	.LASF182
 3386 0bca 01       		.byte	0x1
 3387 0bcb F301     		.2byte	0x1f3
 3388 0bcd D5010000 		.4byte	0x1d5
 3389 0bd1 24       		.uleb128 0x24
 3390 0bd2 5C030000 		.4byte	.LASF183
 3391 0bd6 01       		.byte	0x1
 3392 0bd7 F601     		.2byte	0x1f6
 3393 0bd9 3B030000 		.4byte	0x33b
 3394 0bdd 24       		.uleb128 0x24
 3395 0bde 2F060000 		.4byte	.LASF184
 3396 0be2 01       		.byte	0x1
 3397 0be3 F701     		.2byte	0x1f7
 3398 0be5 3B030000 		.4byte	0x33b
 3399 0be9 24       		.uleb128 0x24
 3400 0bea 620A0000 		.4byte	.LASF185
 3401 0bee 01       		.byte	0x1
 3402 0bef F801     		.2byte	0x1f8
 3403 0bf1 3B030000 		.4byte	0x33b
 3404 0bf5 24       		.uleb128 0x24
 3405 0bf6 B1080000 		.4byte	.LASF186
 3406 0bfa 01       		.byte	0x1
 3407 0bfb F901     		.2byte	0x1f9
 3408 0bfd F6000000 		.4byte	0xf6
 3409 0c01 25       		.uleb128 0x25
 3410 0c02 24       		.uleb128 0x24
 3411 0c03 D80B0000 		.4byte	.LASF187
 3412 0c07 01       		.byte	0x1
 3413 0c08 1102     		.2byte	0x211
 3414 0c0a 3B030000 		.4byte	0x33b
 3415 0c0e 24       		.uleb128 0x24
 3416 0c0f 8E090000 		.4byte	.LASF188
 3417 0c13 01       		.byte	0x1
 3418 0c14 1202     		.2byte	0x212
 3419 0c16 280C0000 		.4byte	0xc28
 3420 0c1a 24       		.uleb128 0x24
 3421 0c1b 0D010000 		.4byte	.LASF189
 3422 0c1f 01       		.byte	0x1
 3423 0c20 1302     		.2byte	0x213
 3424 0c22 3B030000 		.4byte	0x33b
 3425 0c26 00       		.byte	0
 3426 0c27 00       		.byte	0
 3427 0c28 0D       		.uleb128 0xd
 3428 0c29 04       		.byte	0x4
 3429 0c2a 3A0B0000 		.4byte	0xb3a
 3430 0c2e 26       		.uleb128 0x26
 3431 0c2f 6F000000 		.4byte	.LASF254
 3432 0c33 01       		.byte	0x1
 3433 0c34 8D       		.byte	0x8d
 3434 0c35 3A0C0000 		.4byte	0xc3a
 3435 0c39 01       		.byte	0x1
 3436 0c3a 0D       		.uleb128 0xd
 3437 0c3b 04       		.byte	0x4
 3438 0c3c EC090000 		.4byte	0x9ec
ARM GAS  C:\Users\pearlstl\AppData\Local\Temp\ccFIoKDo.s 			page 78


 3439 0c40 27       		.uleb128 0x27
 3440 0c41 B1000000 		.4byte	.LASF255
 3441 0c45 01       		.byte	0x1
 3442 0c46 A001     		.2byte	0x1a0
 3443 0c48 280C0000 		.4byte	0xc28
 3444 0c4c 00000000 		.4byte	.LFB45
 3445 0c50 6A000000 		.4byte	.LFE45-.LFB45
 3446 0c54 01       		.uleb128 0x1
 3447 0c55 9C       		.byte	0x9c
 3448 0c56 500D0000 		.4byte	0xd50
 3449 0c5a 28       		.uleb128 0x28
 3450 0c5b 42020000 		.4byte	.LASF177
 3451 0c5f 01       		.byte	0x1
 3452 0c60 A001     		.2byte	0x1a0
 3453 0c62 64070000 		.4byte	0x764
 3454 0c66 00000000 		.4byte	.LLST0
 3455 0c6a 29       		.uleb128 0x29
 3456 0c6b 6F626A00 		.ascii	"obj\000"
 3457 0c6f 01       		.byte	0x1
 3458 0c70 A001     		.2byte	0x1a0
 3459 0c72 280C0000 		.4byte	0xc28
 3460 0c76 1E000000 		.4byte	.LLST1
 3461 0c7a 2A       		.uleb128 0x2a
 3462 0c7b D8020000 		.4byte	.LASF190
 3463 0c7f 01       		.byte	0x1
 3464 0c80 A201     		.2byte	0x1a2
 3465 0c82 280C0000 		.4byte	0xc28
 3466 0c86 3C000000 		.4byte	.LLST2
 3467 0c8a 2B       		.uleb128 0x2b
 3468 0c8b 00000000 		.4byte	.Ldebug_ranges0+0
 3469 0c8f 390D0000 		.4byte	0xd39
 3470 0c93 2C       		.uleb128 0x2c
 3471 0c94 6900     		.ascii	"i\000"
 3472 0c96 01       		.byte	0x1
 3473 0c97 A601     		.2byte	0x1a6
 3474 0c99 280C0000 		.4byte	0xc28
 3475 0c9d 7E000000 		.4byte	.LLST3
 3476 0ca1 2B       		.uleb128 0x2b
 3477 0ca2 08000000 		.4byte	.Ldebug_ranges0+0x8
 3478 0ca6 FA0C0000 		.4byte	0xcfa
 3479 0caa 2A       		.uleb128 0x2a
 3480 0cab D4060000 		.4byte	.LASF191
 3481 0caf 01       		.byte	0x1
 3482 0cb0 B301     		.2byte	0x1b3
 3483 0cb2 2F0B0000 		.4byte	0xb2f
 3484 0cb6 F4000000 		.4byte	.LLST4
 3485 0cba 2D       		.uleb128 0x2d
 3486 0cbb 44000000 		.4byte	.LVL13
 3487 0cbf A3190000 		.4byte	0x19a3
 3488 0cc3 CE0C0000 		.4byte	0xcce
 3489 0cc7 2E       		.uleb128 0x2e
 3490 0cc8 01       		.uleb128 0x1
 3491 0cc9 50       		.byte	0x50
 3492 0cca 02       		.uleb128 0x2
 3493 0ccb 77       		.byte	0x77
 3494 0ccc 00       		.sleb128 0
 3495 0ccd 00       		.byte	0
ARM GAS  C:\Users\pearlstl\AppData\Local\Temp\ccFIoKDo.s 			page 79


 3496 0cce 2F       		.uleb128 0x2f
 3497 0ccf 58000000 		.4byte	.LVL17
 3498 0cd3 E90C0000 		.4byte	0xce9
 3499 0cd7 2E       		.uleb128 0x2e
 3500 0cd8 01       		.uleb128 0x1
 3501 0cd9 50       		.byte	0x50
 3502 0cda 02       		.uleb128 0x2
 3503 0cdb 77       		.byte	0x77
 3504 0cdc 00       		.sleb128 0
 3505 0cdd 2E       		.uleb128 0x2e
 3506 0cde 01       		.uleb128 0x1
 3507 0cdf 51       		.byte	0x51
 3508 0ce0 02       		.uleb128 0x2
 3509 0ce1 76       		.byte	0x76
 3510 0ce2 00       		.sleb128 0
 3511 0ce3 2E       		.uleb128 0x2e
 3512 0ce4 01       		.uleb128 0x1
 3513 0ce5 52       		.byte	0x52
 3514 0ce6 01       		.uleb128 0x1
 3515 0ce7 32       		.byte	0x32
 3516 0ce8 00       		.byte	0
 3517 0ce9 30       		.uleb128 0x30
 3518 0cea 62000000 		.4byte	.LVL18
 3519 0cee AF190000 		.4byte	0x19af
 3520 0cf2 2E       		.uleb128 0x2e
 3521 0cf3 01       		.uleb128 0x1
 3522 0cf4 50       		.byte	0x50
 3523 0cf5 02       		.uleb128 0x2
 3524 0cf6 77       		.byte	0x77
 3525 0cf7 00       		.sleb128 0
 3526 0cf8 00       		.byte	0
 3527 0cf9 00       		.byte	0
 3528 0cfa 2D       		.uleb128 0x2d
 3529 0cfb 1E000000 		.4byte	.LVL4
 3530 0cff BB190000 		.4byte	0x19bb
 3531 0d03 0E0D0000 		.4byte	0xd0e
 3532 0d07 2E       		.uleb128 0x2e
 3533 0d08 01       		.uleb128 0x1
 3534 0d09 50       		.byte	0x50
 3535 0d0a 02       		.uleb128 0x2
 3536 0d0b 75       		.byte	0x75
 3537 0d0c 00       		.sleb128 0
 3538 0d0d 00       		.byte	0
 3539 0d0e 2D       		.uleb128 0x2d
 3540 0d0f 2A000000 		.4byte	.LVL7
 3541 0d13 C6190000 		.4byte	0x19c6
 3542 0d17 220D0000 		.4byte	0xd22
 3543 0d1b 2E       		.uleb128 0x2e
 3544 0d1c 01       		.uleb128 0x1
 3545 0d1d 50       		.byte	0x50
 3546 0d1e 02       		.uleb128 0x2
 3547 0d1f 75       		.byte	0x75
 3548 0d20 00       		.sleb128 0
 3549 0d21 00       		.byte	0
 3550 0d22 30       		.uleb128 0x30
 3551 0d23 36000000 		.4byte	.LVL9
 3552 0d27 400C0000 		.4byte	0xc40
ARM GAS  C:\Users\pearlstl\AppData\Local\Temp\ccFIoKDo.s 			page 80


 3553 0d2b 2E       		.uleb128 0x2e
 3554 0d2c 01       		.uleb128 0x1
 3555 0d2d 50       		.byte	0x50
 3556 0d2e 02       		.uleb128 0x2
 3557 0d2f 76       		.byte	0x76
 3558 0d30 00       		.sleb128 0
 3559 0d31 2E       		.uleb128 0x2e
 3560 0d32 01       		.uleb128 0x1
 3561 0d33 51       		.byte	0x51
 3562 0d34 02       		.uleb128 0x2
 3563 0d35 74       		.byte	0x74
 3564 0d36 00       		.sleb128 0
 3565 0d37 00       		.byte	0
 3566 0d38 00       		.byte	0
 3567 0d39 30       		.uleb128 0x30
 3568 0d3a 0C000000 		.4byte	.LVL3
 3569 0d3e D1190000 		.4byte	0x19d1
 3570 0d42 2E       		.uleb128 0x2e
 3571 0d43 01       		.uleb128 0x1
 3572 0d44 50       		.byte	0x50
 3573 0d45 02       		.uleb128 0x2
 3574 0d46 76       		.byte	0x76
 3575 0d47 00       		.sleb128 0
 3576 0d48 2E       		.uleb128 0x2e
 3577 0d49 01       		.uleb128 0x1
 3578 0d4a 51       		.byte	0x51
 3579 0d4b 02       		.uleb128 0x2
 3580 0d4c 77       		.byte	0x77
 3581 0d4d 10       		.sleb128 16
 3582 0d4e 00       		.byte	0
 3583 0d4f 00       		.byte	0
 3584 0d50 31       		.uleb128 0x31
 3585 0d51 A00B0000 		.4byte	0xba0
 3586 0d55 00000000 		.4byte	.LFB51
 3587 0d59 E6000000 		.4byte	.LFE51-.LFB51
 3588 0d5d 01       		.uleb128 0x1
 3589 0d5e 9C       		.byte	0x9c
 3590 0d5f 2F0F0000 		.4byte	0xf2f
 3591 0d63 32       		.uleb128 0x32
 3592 0d64 AD0B0000 		.4byte	0xbad
 3593 0d68 12010000 		.4byte	.LLST5
 3594 0d6c 32       		.uleb128 0x32
 3595 0d6d B90B0000 		.4byte	0xbb9
 3596 0d71 30010000 		.4byte	.LLST6
 3597 0d75 33       		.uleb128 0x33
 3598 0d76 C50B0000 		.4byte	0xbc5
 3599 0d7a 75010000 		.4byte	.LLST7
 3600 0d7e 34       		.uleb128 0x34
 3601 0d7f D10B0000 		.4byte	0xbd1
 3602 0d83 02       		.uleb128 0x2
 3603 0d84 91       		.byte	0x91
 3604 0d85 40       		.sleb128 -64
 3605 0d86 34       		.uleb128 0x34
 3606 0d87 DD0B0000 		.4byte	0xbdd
 3607 0d8b 02       		.uleb128 0x2
 3608 0d8c 91       		.byte	0x91
 3609 0d8d 48       		.sleb128 -56
ARM GAS  C:\Users\pearlstl\AppData\Local\Temp\ccFIoKDo.s 			page 81


 3610 0d8e 34       		.uleb128 0x34
 3611 0d8f E90B0000 		.4byte	0xbe9
 3612 0d93 02       		.uleb128 0x2
 3613 0d94 91       		.byte	0x91
 3614 0d95 50       		.sleb128 -48
 3615 0d96 33       		.uleb128 0x33
 3616 0d97 F50B0000 		.4byte	0xbf5
 3617 0d9b A9010000 		.4byte	.LLST8
 3618 0d9f 35       		.uleb128 0x35
 3619 0da0 78000000 		.4byte	.LBB38
 3620 0da4 6E000000 		.4byte	.LBE38-.LBB38
 3621 0da8 880E0000 		.4byte	0xe88
 3622 0dac 34       		.uleb128 0x34
 3623 0dad 020C0000 		.4byte	0xc02
 3624 0db1 02       		.uleb128 0x2
 3625 0db2 91       		.byte	0x91
 3626 0db3 58       		.sleb128 -40
 3627 0db4 33       		.uleb128 0x33
 3628 0db5 0E0C0000 		.4byte	0xc0e
 3629 0db9 D3010000 		.4byte	.LLST9
 3630 0dbd 34       		.uleb128 0x34
 3631 0dbe 1A0C0000 		.4byte	0xc1a
 3632 0dc2 02       		.uleb128 0x2
 3633 0dc3 91       		.byte	0x91
 3634 0dc4 60       		.sleb128 -32
 3635 0dc5 36       		.uleb128 0x36
 3636 0dc6 A00B0000 		.4byte	0xba0
 3637 0dca D4000000 		.4byte	.LBB39
 3638 0dce 12000000 		.4byte	.LBE39-.LBB39
 3639 0dd2 01       		.byte	0x1
 3640 0dd3 2302     		.2byte	0x223
 3641 0dd5 230E0000 		.4byte	0xe23
 3642 0dd9 32       		.uleb128 0x32
 3643 0dda B90B0000 		.4byte	0xbb9
 3644 0dde 07020000 		.4byte	.LLST10
 3645 0de2 37       		.uleb128 0x37
 3646 0de3 AD0B0000 		.4byte	0xbad
 3647 0de7 01       		.uleb128 0x1
 3648 0de8 54       		.byte	0x54
 3649 0de9 38       		.uleb128 0x38
 3650 0dea D4000000 		.4byte	.LBB40
 3651 0dee 12000000 		.4byte	.LBE40-.LBB40
 3652 0df2 39       		.uleb128 0x39
 3653 0df3 C50B0000 		.4byte	0xbc5
 3654 0df7 39       		.uleb128 0x39
 3655 0df8 D10B0000 		.4byte	0xbd1
 3656 0dfc 39       		.uleb128 0x39
 3657 0dfd DD0B0000 		.4byte	0xbdd
 3658 0e01 39       		.uleb128 0x39
 3659 0e02 E90B0000 		.4byte	0xbe9
 3660 0e06 39       		.uleb128 0x39
 3661 0e07 F50B0000 		.4byte	0xbf5
 3662 0e0b 30       		.uleb128 0x30
 3663 0e0c E4000000 		.4byte	.LVL45
 3664 0e10 500D0000 		.4byte	0xd50
 3665 0e14 2E       		.uleb128 0x2e
 3666 0e15 01       		.uleb128 0x1
ARM GAS  C:\Users\pearlstl\AppData\Local\Temp\ccFIoKDo.s 			page 82


 3667 0e16 50       		.byte	0x50
 3668 0e17 02       		.uleb128 0x2
 3669 0e18 74       		.byte	0x74
 3670 0e19 00       		.sleb128 0
 3671 0e1a 2E       		.uleb128 0x2e
 3672 0e1b 01       		.uleb128 0x1
 3673 0e1c 51       		.byte	0x51
 3674 0e1d 02       		.uleb128 0x2
 3675 0e1e 91       		.byte	0x91
 3676 0e1f 58       		.sleb128 -40
 3677 0e20 00       		.byte	0
 3678 0e21 00       		.byte	0
 3679 0e22 00       		.byte	0
 3680 0e23 2D       		.uleb128 0x2d
 3681 0e24 80000000 		.4byte	.LVL37
 3682 0e28 DC190000 		.4byte	0x19dc
 3683 0e2c 370E0000 		.4byte	0xe37
 3684 0e30 2E       		.uleb128 0x2e
 3685 0e31 01       		.uleb128 0x1
 3686 0e32 50       		.byte	0x50
 3687 0e33 02       		.uleb128 0x2
 3688 0e34 76       		.byte	0x76
 3689 0e35 00       		.sleb128 0
 3690 0e36 00       		.byte	0
 3691 0e37 2D       		.uleb128 0x2d
 3692 0e38 8E000000 		.4byte	.LVL39
 3693 0e3c E7190000 		.4byte	0x19e7
 3694 0e40 510E0000 		.4byte	0xe51
 3695 0e44 2E       		.uleb128 0x2e
 3696 0e45 01       		.uleb128 0x1
 3697 0e46 50       		.byte	0x50
 3698 0e47 02       		.uleb128 0x2
 3699 0e48 76       		.byte	0x76
 3700 0e49 00       		.sleb128 0
 3701 0e4a 2E       		.uleb128 0x2e
 3702 0e4b 01       		.uleb128 0x1
 3703 0e4c 51       		.byte	0x51
 3704 0e4d 02       		.uleb128 0x2
 3705 0e4e 74       		.byte	0x74
 3706 0e4f 00       		.sleb128 0
 3707 0e50 00       		.byte	0
 3708 0e51 2D       		.uleb128 0x2d
 3709 0e52 9C000000 		.4byte	.LVL40
 3710 0e56 F2190000 		.4byte	0x19f2
 3711 0e5a 6B0E0000 		.4byte	0xe6b
 3712 0e5e 2E       		.uleb128 0x2e
 3713 0e5f 01       		.uleb128 0x1
 3714 0e60 50       		.byte	0x50
 3715 0e61 02       		.uleb128 0x2
 3716 0e62 74       		.byte	0x74
 3717 0e63 00       		.sleb128 0
 3718 0e64 2E       		.uleb128 0x2e
 3719 0e65 01       		.uleb128 0x1
 3720 0e66 51       		.byte	0x51
 3721 0e67 02       		.uleb128 0x2
 3722 0e68 91       		.byte	0x91
 3723 0e69 60       		.sleb128 -32
ARM GAS  C:\Users\pearlstl\AppData\Local\Temp\ccFIoKDo.s 			page 83


 3724 0e6a 00       		.byte	0
 3725 0e6b 30       		.uleb128 0x30
 3726 0e6c D0000000 		.4byte	.LVL41
 3727 0e70 FE190000 		.4byte	0x19fe
 3728 0e74 2E       		.uleb128 0x2e
 3729 0e75 01       		.uleb128 0x1
 3730 0e76 50       		.byte	0x50
 3731 0e77 02       		.uleb128 0x2
 3732 0e78 91       		.byte	0x91
 3733 0e79 58       		.sleb128 -40
 3734 0e7a 2E       		.uleb128 0x2e
 3735 0e7b 01       		.uleb128 0x1
 3736 0e7c 51       		.byte	0x51
 3737 0e7d 02       		.uleb128 0x2
 3738 0e7e 7D       		.byte	0x7d
 3739 0e7f 00       		.sleb128 0
 3740 0e80 2E       		.uleb128 0x2e
 3741 0e81 01       		.uleb128 0x1
 3742 0e82 52       		.byte	0x52
 3743 0e83 02       		.uleb128 0x2
 3744 0e84 91       		.byte	0x91
 3745 0e85 60       		.sleb128 -32
 3746 0e86 00       		.byte	0
 3747 0e87 00       		.byte	0
 3748 0e88 2D       		.uleb128 0x2d
 3749 0e89 12000000 		.4byte	.LVL23
 3750 0e8d F2190000 		.4byte	0x19f2
 3751 0e91 A20E0000 		.4byte	0xea2
 3752 0e95 2E       		.uleb128 0x2e
 3753 0e96 01       		.uleb128 0x1
 3754 0e97 50       		.byte	0x50
 3755 0e98 02       		.uleb128 0x2
 3756 0e99 75       		.byte	0x75
 3757 0e9a 00       		.sleb128 0
 3758 0e9b 2E       		.uleb128 0x2e
 3759 0e9c 01       		.uleb128 0x1
 3760 0e9d 51       		.byte	0x51
 3761 0e9e 02       		.uleb128 0x2
 3762 0e9f 91       		.byte	0x91
 3763 0ea0 50       		.sleb128 -48
 3764 0ea1 00       		.byte	0
 3765 0ea2 2D       		.uleb128 0x2d
 3766 0ea3 46000000 		.4byte	.LVL26
 3767 0ea7 FE190000 		.4byte	0x19fe
 3768 0eab C20E0000 		.4byte	0xec2
 3769 0eaf 2E       		.uleb128 0x2e
 3770 0eb0 01       		.uleb128 0x1
 3771 0eb1 50       		.byte	0x50
 3772 0eb2 02       		.uleb128 0x2
 3773 0eb3 91       		.byte	0x91
 3774 0eb4 48       		.sleb128 -56
 3775 0eb5 2E       		.uleb128 0x2e
 3776 0eb6 01       		.uleb128 0x1
 3777 0eb7 51       		.byte	0x51
 3778 0eb8 02       		.uleb128 0x2
 3779 0eb9 76       		.byte	0x76
 3780 0eba 00       		.sleb128 0
ARM GAS  C:\Users\pearlstl\AppData\Local\Temp\ccFIoKDo.s 			page 84


 3781 0ebb 2E       		.uleb128 0x2e
 3782 0ebc 01       		.uleb128 0x1
 3783 0ebd 52       		.byte	0x52
 3784 0ebe 02       		.uleb128 0x2
 3785 0ebf 91       		.byte	0x91
 3786 0ec0 50       		.sleb128 -48
 3787 0ec1 00       		.byte	0
 3788 0ec2 2F       		.uleb128 0x2f
 3789 0ec3 56000000 		.4byte	.LVL29
 3790 0ec7 DD0E0000 		.4byte	0xedd
 3791 0ecb 2E       		.uleb128 0x2e
 3792 0ecc 01       		.uleb128 0x1
 3793 0ecd 50       		.byte	0x50
 3794 0ece 02       		.uleb128 0x2
 3795 0ecf 75       		.byte	0x75
 3796 0ed0 00       		.sleb128 0
 3797 0ed1 2E       		.uleb128 0x2e
 3798 0ed2 01       		.uleb128 0x1
 3799 0ed3 51       		.byte	0x51
 3800 0ed4 02       		.uleb128 0x2
 3801 0ed5 91       		.byte	0x91
 3802 0ed6 48       		.sleb128 -56
 3803 0ed7 2E       		.uleb128 0x2e
 3804 0ed8 01       		.uleb128 0x1
 3805 0ed9 52       		.byte	0x52
 3806 0eda 01       		.uleb128 0x1
 3807 0edb 30       		.byte	0x30
 3808 0edc 00       		.byte	0
 3809 0edd 2D       		.uleb128 0x2d
 3810 0ede 5E000000 		.4byte	.LVL30
 3811 0ee2 F2190000 		.4byte	0x19f2
 3812 0ee6 F70E0000 		.4byte	0xef7
 3813 0eea 2E       		.uleb128 0x2e
 3814 0eeb 01       		.uleb128 0x1
 3815 0eec 50       		.byte	0x50
 3816 0eed 02       		.uleb128 0x2
 3817 0eee 75       		.byte	0x75
 3818 0eef 00       		.sleb128 0
 3819 0ef0 2E       		.uleb128 0x2e
 3820 0ef1 01       		.uleb128 0x1
 3821 0ef2 51       		.byte	0x51
 3822 0ef3 02       		.uleb128 0x2
 3823 0ef4 91       		.byte	0x91
 3824 0ef5 50       		.sleb128 -48
 3825 0ef6 00       		.byte	0
 3826 0ef7 2D       		.uleb128 0x2d
 3827 0ef8 68000000 		.4byte	.LVL31
 3828 0efc FE190000 		.4byte	0x19fe
 3829 0f00 170F0000 		.4byte	0xf17
 3830 0f04 2E       		.uleb128 0x2e
 3831 0f05 01       		.uleb128 0x1
 3832 0f06 50       		.byte	0x50
 3833 0f07 02       		.uleb128 0x2
 3834 0f08 7D       		.byte	0x7d
 3835 0f09 00       		.sleb128 0
 3836 0f0a 2E       		.uleb128 0x2e
 3837 0f0b 01       		.uleb128 0x1
ARM GAS  C:\Users\pearlstl\AppData\Local\Temp\ccFIoKDo.s 			page 85


 3838 0f0c 51       		.byte	0x51
 3839 0f0d 02       		.uleb128 0x2
 3840 0f0e 76       		.byte	0x76
 3841 0f0f 00       		.sleb128 0
 3842 0f10 2E       		.uleb128 0x2e
 3843 0f11 01       		.uleb128 0x1
 3844 0f12 52       		.byte	0x52
 3845 0f13 02       		.uleb128 0x2
 3846 0f14 91       		.byte	0x91
 3847 0f15 50       		.sleb128 -48
 3848 0f16 00       		.byte	0
 3849 0f17 3A       		.uleb128 0x3a
 3850 0f18 74000000 		.4byte	.LVL33
 3851 0f1c 2E       		.uleb128 0x2e
 3852 0f1d 01       		.uleb128 0x1
 3853 0f1e 50       		.byte	0x50
 3854 0f1f 02       		.uleb128 0x2
 3855 0f20 75       		.byte	0x75
 3856 0f21 00       		.sleb128 0
 3857 0f22 2E       		.uleb128 0x2e
 3858 0f23 01       		.uleb128 0x1
 3859 0f24 51       		.byte	0x51
 3860 0f25 02       		.uleb128 0x2
 3861 0f26 91       		.byte	0x91
 3862 0f27 48       		.sleb128 -56
 3863 0f28 2E       		.uleb128 0x2e
 3864 0f29 01       		.uleb128 0x1
 3865 0f2a 52       		.byte	0x52
 3866 0f2b 01       		.uleb128 0x1
 3867 0f2c 31       		.byte	0x31
 3868 0f2d 00       		.byte	0
 3869 0f2e 00       		.byte	0
 3870 0f2f 3B       		.uleb128 0x3b
 3871 0f30 F0090000 		.4byte	.LASF197
 3872 0f34 01       		.byte	0x1
 3873 0f35 C301     		.2byte	0x1c3
 3874 0f37 00000000 		.4byte	.LFB46
 3875 0f3b 84000000 		.4byte	.LFE46-.LFB46
 3876 0f3f 01       		.uleb128 0x1
 3877 0f40 9C       		.byte	0x9c
 3878 0f41 EA100000 		.4byte	0x10ea
 3879 0f45 28       		.uleb128 0x28
 3880 0f46 CC070000 		.4byte	.LASF192
 3881 0f4a 01       		.byte	0x1
 3882 0f4b C301     		.2byte	0x1c3
 3883 0f4d 280C0000 		.4byte	0xc28
 3884 0f51 34020000 		.4byte	.LLST11
 3885 0f55 28       		.uleb128 0x28
 3886 0f56 11060000 		.4byte	.LASF193
 3887 0f5a 01       		.byte	0x1
 3888 0f5b C301     		.2byte	0x1c3
 3889 0f5d 64070000 		.4byte	0x764
 3890 0f61 89020000 		.4byte	.LLST12
 3891 0f65 2C       		.uleb128 0x2c
 3892 0f66 70617200 		.ascii	"par\000"
 3893 0f6a 01       		.byte	0x1
 3894 0f6b CE01     		.2byte	0x1ce
ARM GAS  C:\Users\pearlstl\AppData\Local\Temp\ccFIoKDo.s 			page 86


 3895 0f6d 280C0000 		.4byte	0xc28
 3896 0f71 BD020000 		.4byte	.LLST13
 3897 0f75 2A       		.uleb128 0x2a
 3898 0f76 6B0A0000 		.4byte	.LASF194
 3899 0f7a 01       		.byte	0x1
 3900 0f7b CF01     		.2byte	0x1cf
 3901 0f7d 280C0000 		.4byte	0xc28
 3902 0f81 F1020000 		.4byte	.LLST14
 3903 0f85 3C       		.uleb128 0x3c
 3904 0f86 A00B0000 		.4byte	0xba0
 3905 0f8a 08000000 		.4byte	.LBB41
 3906 0f8e 20000000 		.4byte	.Ldebug_ranges0+0x20
 3907 0f92 01       		.byte	0x1
 3908 0f93 CB01     		.2byte	0x1cb
 3909 0f95 E10F0000 		.4byte	0xfe1
 3910 0f99 32       		.uleb128 0x32
 3911 0f9a B90B0000 		.4byte	0xbb9
 3912 0f9e 30030000 		.4byte	.LLST15
 3913 0fa2 32       		.uleb128 0x32
 3914 0fa3 AD0B0000 		.4byte	0xbad
 3915 0fa7 4E030000 		.4byte	.LLST16
 3916 0fab 3D       		.uleb128 0x3d
 3917 0fac 20000000 		.4byte	.Ldebug_ranges0+0x20
 3918 0fb0 39       		.uleb128 0x39
 3919 0fb1 C50B0000 		.4byte	0xbc5
 3920 0fb5 39       		.uleb128 0x39
 3921 0fb6 D10B0000 		.4byte	0xbd1
 3922 0fba 39       		.uleb128 0x39
 3923 0fbb DD0B0000 		.4byte	0xbdd
 3924 0fbf 39       		.uleb128 0x39
 3925 0fc0 E90B0000 		.4byte	0xbe9
 3926 0fc4 39       		.uleb128 0x39
 3927 0fc5 F50B0000 		.4byte	0xbf5
 3928 0fc9 30       		.uleb128 0x30
 3929 0fca 66000000 		.4byte	.LVL64
 3930 0fce 500D0000 		.4byte	0xd50
 3931 0fd2 2E       		.uleb128 0x2e
 3932 0fd3 01       		.uleb128 0x1
 3933 0fd4 50       		.byte	0x50
 3934 0fd5 02       		.uleb128 0x2
 3935 0fd6 74       		.byte	0x74
 3936 0fd7 00       		.sleb128 0
 3937 0fd8 2E       		.uleb128 0x2e
 3938 0fd9 01       		.uleb128 0x1
 3939 0fda 51       		.byte	0x51
 3940 0fdb 02       		.uleb128 0x2
 3941 0fdc 77       		.byte	0x77
 3942 0fdd 00       		.sleb128 0
 3943 0fde 00       		.byte	0
 3944 0fdf 00       		.byte	0
 3945 0fe0 00       		.byte	0
 3946 0fe1 35       		.uleb128 0x35
 3947 0fe2 1A000000 		.4byte	.LBB44
 3948 0fe6 3C000000 		.4byte	.LBE44-.LBB44
 3949 0fea B8100000 		.4byte	0x10b8
 3950 0fee 2C       		.uleb128 0x2c
 3951 0fef 6900     		.ascii	"i\000"
ARM GAS  C:\Users\pearlstl\AppData\Local\Temp\ccFIoKDo.s 			page 87


 3952 0ff1 01       		.byte	0x1
 3953 0ff2 D601     		.2byte	0x1d6
 3954 0ff4 280C0000 		.4byte	0xc28
 3955 0ff8 77030000 		.4byte	.LLST17
 3956 0ffc 36       		.uleb128 0x36
 3957 0ffd A00B0000 		.4byte	0xba0
 3958 1001 28000000 		.4byte	.LBB45
 3959 1005 0E000000 		.4byte	.LBE45-.LBB45
 3960 1009 01       		.byte	0x1
 3961 100a DA01     		.2byte	0x1da
 3962 100c 58100000 		.4byte	0x1058
 3963 1010 3E       		.uleb128 0x3e
 3964 1011 B90B0000 		.4byte	0xbb9
 3965 1015 32       		.uleb128 0x32
 3966 1016 AD0B0000 		.4byte	0xbad
 3967 101a AB030000 		.4byte	.LLST18
 3968 101e 38       		.uleb128 0x38
 3969 101f 28000000 		.4byte	.LBB46
 3970 1023 0E000000 		.4byte	.LBE46-.LBB46
 3971 1027 39       		.uleb128 0x39
 3972 1028 C50B0000 		.4byte	0xbc5
 3973 102c 39       		.uleb128 0x39
 3974 102d D10B0000 		.4byte	0xbd1
 3975 1031 39       		.uleb128 0x39
 3976 1032 DD0B0000 		.4byte	0xbdd
 3977 1036 39       		.uleb128 0x39
 3978 1037 E90B0000 		.4byte	0xbe9
 3979 103b 39       		.uleb128 0x39
 3980 103c F50B0000 		.4byte	0xbf5
 3981 1040 30       		.uleb128 0x30
 3982 1041 36000000 		.4byte	.LVL54
 3983 1045 500D0000 		.4byte	0xd50
 3984 1049 2E       		.uleb128 0x2e
 3985 104a 01       		.uleb128 0x1
 3986 104b 50       		.byte	0x50
 3987 104c 02       		.uleb128 0x2
 3988 104d 74       		.byte	0x74
 3989 104e 00       		.sleb128 0
 3990 104f 2E       		.uleb128 0x2e
 3991 1050 01       		.uleb128 0x1
 3992 1051 51       		.byte	0x51
 3993 1052 02       		.uleb128 0x2
 3994 1053 77       		.byte	0x77
 3995 1054 00       		.sleb128 0
 3996 1055 00       		.byte	0
 3997 1056 00       		.byte	0
 3998 1057 00       		.byte	0
 3999 1058 2D       		.uleb128 0x2d
 4000 1059 24000000 		.4byte	.LVL52
 4001 105d E7190000 		.4byte	0x19e7
 4002 1061 72100000 		.4byte	0x1072
 4003 1065 2E       		.uleb128 0x2e
 4004 1066 01       		.uleb128 0x1
 4005 1067 50       		.byte	0x50
 4006 1068 02       		.uleb128 0x2
 4007 1069 75       		.byte	0x75
 4008 106a 00       		.sleb128 0
ARM GAS  C:\Users\pearlstl\AppData\Local\Temp\ccFIoKDo.s 			page 88


 4009 106b 2E       		.uleb128 0x2e
 4010 106c 01       		.uleb128 0x1
 4011 106d 51       		.byte	0x51
 4012 106e 02       		.uleb128 0x2
 4013 106f 74       		.byte	0x74
 4014 1070 00       		.sleb128 0
 4015 1071 00       		.byte	0
 4016 1072 2D       		.uleb128 0x2d
 4017 1073 3E000000 		.4byte	.LVL55
 4018 1077 E7190000 		.4byte	0x19e7
 4019 107b 8C100000 		.4byte	0x108c
 4020 107f 2E       		.uleb128 0x2e
 4021 1080 01       		.uleb128 0x1
 4022 1081 50       		.byte	0x50
 4023 1082 02       		.uleb128 0x2
 4024 1083 75       		.byte	0x75
 4025 1084 00       		.sleb128 0
 4026 1085 2E       		.uleb128 0x2e
 4027 1086 01       		.uleb128 0x1
 4028 1087 51       		.byte	0x51
 4029 1088 02       		.uleb128 0x2
 4030 1089 74       		.byte	0x74
 4031 108a 00       		.sleb128 0
 4032 108b 00       		.byte	0
 4033 108c 2F       		.uleb128 0x2f
 4034 108d 4E000000 		.4byte	.LVL58
 4035 1091 A7100000 		.4byte	0x10a7
 4036 1095 2E       		.uleb128 0x2e
 4037 1096 01       		.uleb128 0x1
 4038 1097 50       		.byte	0x50
 4039 1098 02       		.uleb128 0x2
 4040 1099 76       		.byte	0x76
 4041 109a 00       		.sleb128 0
 4042 109b 2E       		.uleb128 0x2e
 4043 109c 01       		.uleb128 0x1
 4044 109d 51       		.byte	0x51
 4045 109e 02       		.uleb128 0x2
 4046 109f 77       		.byte	0x77
 4047 10a0 00       		.sleb128 0
 4048 10a1 2E       		.uleb128 0x2e
 4049 10a2 01       		.uleb128 0x1
 4050 10a3 52       		.byte	0x52
 4051 10a4 01       		.uleb128 0x1
 4052 10a5 31       		.byte	0x31
 4053 10a6 00       		.byte	0
 4054 10a7 30       		.uleb128 0x30
 4055 10a8 54000000 		.4byte	.LVL59
 4056 10ac 091A0000 		.4byte	0x1a09
 4057 10b0 2E       		.uleb128 0x2e
 4058 10b1 01       		.uleb128 0x1
 4059 10b2 50       		.byte	0x50
 4060 10b3 02       		.uleb128 0x2
 4061 10b4 76       		.byte	0x76
 4062 10b5 00       		.sleb128 0
 4063 10b6 00       		.byte	0
 4064 10b7 00       		.byte	0
 4065 10b8 2D       		.uleb128 0x2d
ARM GAS  C:\Users\pearlstl\AppData\Local\Temp\ccFIoKDo.s 			page 89


 4066 10b9 16000000 		.4byte	.LVL49
 4067 10bd 091A0000 		.4byte	0x1a09
 4068 10c1 CC100000 		.4byte	0x10cc
 4069 10c5 2E       		.uleb128 0x2e
 4070 10c6 01       		.uleb128 0x1
 4071 10c7 50       		.byte	0x50
 4072 10c8 02       		.uleb128 0x2
 4073 10c9 74       		.byte	0x74
 4074 10ca 00       		.sleb128 0
 4075 10cb 00       		.byte	0
 4076 10cc 2D       		.uleb128 0x2d
 4077 10cd 6C000000 		.4byte	.LVL65
 4078 10d1 091A0000 		.4byte	0x1a09
 4079 10d5 E0100000 		.4byte	0x10e0
 4080 10d9 2E       		.uleb128 0x2e
 4081 10da 01       		.uleb128 0x1
 4082 10db 50       		.byte	0x50
 4083 10dc 02       		.uleb128 0x2
 4084 10dd 74       		.byte	0x74
 4085 10de 00       		.sleb128 0
 4086 10df 00       		.byte	0
 4087 10e0 3F       		.uleb128 0x3f
 4088 10e1 7C000000 		.4byte	.LVL68
 4089 10e5 151A0000 		.4byte	0x1a15
 4090 10e9 00       		.byte	0
 4091 10ea 21       		.uleb128 0x21
 4092 10eb 1A070000 		.4byte	.LASF195
 4093 10ef 01       		.byte	0x1
 4094 10f0 3002     		.2byte	0x230
 4095 10f2 01       		.byte	0x1
 4096 10f3 10110000 		.4byte	0x1110
 4097 10f7 40       		.uleb128 0x40
 4098 10f8 76646200 		.ascii	"vdb\000"
 4099 10fc 01       		.byte	0x1
 4100 10fd 3202     		.2byte	0x232
 4101 10ff 43070000 		.4byte	0x743
 4102 1103 24       		.uleb128 0x24
 4103 1104 F4050000 		.4byte	.LASF196
 4104 1108 01       		.byte	0x1
 4105 1109 3E02     		.2byte	0x23e
 4106 110b 3A0C0000 		.4byte	0xc3a
 4107 110f 00       		.byte	0
 4108 1110 3B       		.uleb128 0x3b
 4109 1111 50000000 		.4byte	.LASF198
 4110 1115 01       		.byte	0x1
 4111 1116 7601     		.2byte	0x176
 4112 1118 00000000 		.4byte	.LFB44
 4113 111c C0000000 		.4byte	.LFE44-.LFB44
 4114 1120 01       		.uleb128 0x1
 4115 1121 9C       		.byte	0x9c
 4116 1122 63120000 		.4byte	0x1263
 4117 1126 28       		.uleb128 0x28
 4118 1127 42020000 		.4byte	.LASF177
 4119 112b 01       		.byte	0x1
 4120 112c 7601     		.2byte	0x176
 4121 112e 64070000 		.4byte	0x764
 4122 1132 C9030000 		.4byte	.LLST19
ARM GAS  C:\Users\pearlstl\AppData\Local\Temp\ccFIoKDo.s 			page 90


 4123 1136 2C       		.uleb128 0x2c
 4124 1137 76646200 		.ascii	"vdb\000"
 4125 113b 01       		.byte	0x1
 4126 113c 7901     		.2byte	0x179
 4127 113e 43070000 		.4byte	0x743
 4128 1142 0E040000 		.4byte	.LLST20
 4129 1146 2A       		.uleb128 0x2a
 4130 1147 CC070000 		.4byte	.LASF192
 4131 114b 01       		.byte	0x1
 4132 114c 8201     		.2byte	0x182
 4133 114e 280C0000 		.4byte	0xc28
 4134 1152 37040000 		.4byte	.LLST21
 4135 1156 41       		.uleb128 0x41
 4136 1157 0A0C0000 		.4byte	.LASF199
 4137 115b 01       		.byte	0x1
 4138 115c 8601     		.2byte	0x186
 4139 115e 3B030000 		.4byte	0x33b
 4140 1162 02       		.uleb128 0x2
 4141 1163 91       		.byte	0x91
 4142 1164 68       		.sleb128 -24
 4143 1165 3C       		.uleb128 0x3c
 4144 1166 EA100000 		.4byte	0x10ea
 4145 116a 6C000000 		.4byte	.LBB52
 4146 116e 38000000 		.4byte	.Ldebug_ranges0+0x38
 4147 1172 01       		.byte	0x1
 4148 1173 9601     		.2byte	0x196
 4149 1175 BC110000 		.4byte	0x11bc
 4150 1179 3D       		.uleb128 0x3d
 4151 117a 38000000 		.4byte	.Ldebug_ranges0+0x38
 4152 117e 33       		.uleb128 0x33
 4153 117f F7100000 		.4byte	0x10f7
 4154 1183 4A040000 		.4byte	.LLST22
 4155 1187 39       		.uleb128 0x39
 4156 1188 03110000 		.4byte	0x1103
 4157 118c 42       		.uleb128 0x42
 4158 118d 2E0C0000 		.4byte	0xc2e
 4159 1191 7E000000 		.4byte	.LBB54
 4160 1195 02000000 		.4byte	.LBE54-.LBB54
 4161 1199 01       		.byte	0x1
 4162 119a 3E02     		.2byte	0x23e
 4163 119c 3F       		.uleb128 0x3f
 4164 119d 72000000 		.4byte	.LVL89
 4165 11a1 201A0000 		.4byte	0x1a20
 4166 11a5 3F       		.uleb128 0x3f
 4167 11a6 7A000000 		.4byte	.LVL92
 4168 11aa 2B1A0000 		.4byte	0x1a2b
 4169 11ae 3A       		.uleb128 0x3a
 4170 11af 92000000 		.4byte	.LVL93
 4171 11b3 2E       		.uleb128 0x2e
 4172 11b4 01       		.uleb128 0x1
 4173 11b5 51       		.byte	0x51
 4174 11b6 02       		.uleb128 0x2
 4175 11b7 74       		.byte	0x74
 4176 11b8 10       		.sleb128 16
 4177 11b9 00       		.byte	0
 4178 11ba 00       		.byte	0
 4179 11bb 00       		.byte	0
ARM GAS  C:\Users\pearlstl\AppData\Local\Temp\ccFIoKDo.s 			page 91


 4180 11bc 3F       		.uleb128 0x3f
 4181 11bd 0E000000 		.4byte	.LVL72
 4182 11c1 201A0000 		.4byte	0x1a20
 4183 11c5 3F       		.uleb128 0x3f
 4184 11c6 16000000 		.4byte	.LVL75
 4185 11ca 2B1A0000 		.4byte	0x1a2b
 4186 11ce 2D       		.uleb128 0x2d
 4187 11cf 24000000 		.4byte	.LVL76
 4188 11d3 FE190000 		.4byte	0x19fe
 4189 11d7 EE110000 		.4byte	0x11ee
 4190 11db 2E       		.uleb128 0x2e
 4191 11dc 01       		.uleb128 0x1
 4192 11dd 50       		.byte	0x50
 4193 11de 02       		.uleb128 0x2
 4194 11df 7D       		.byte	0x7d
 4195 11e0 00       		.sleb128 0
 4196 11e1 2E       		.uleb128 0x2e
 4197 11e2 01       		.uleb128 0x1
 4198 11e3 51       		.byte	0x51
 4199 11e4 02       		.uleb128 0x2
 4200 11e5 76       		.byte	0x76
 4201 11e6 00       		.sleb128 0
 4202 11e7 2E       		.uleb128 0x2e
 4203 11e8 01       		.uleb128 0x1
 4204 11e9 52       		.byte	0x52
 4205 11ea 02       		.uleb128 0x2
 4206 11eb 74       		.byte	0x74
 4207 11ec 10       		.sleb128 16
 4208 11ed 00       		.byte	0
 4209 11ee 3F       		.uleb128 0x3f
 4210 11ef 2C000000 		.4byte	.LVL78
 4211 11f3 151A0000 		.4byte	0x1a15
 4212 11f7 2D       		.uleb128 0x2d
 4213 11f8 34000000 		.4byte	.LVL79
 4214 11fc 400C0000 		.4byte	0xc40
 4215 1200 0B120000 		.4byte	0x120b
 4216 1204 2E       		.uleb128 0x2e
 4217 1205 01       		.uleb128 0x1
 4218 1206 50       		.byte	0x50
 4219 1207 02       		.uleb128 0x2
 4220 1208 7D       		.byte	0x7d
 4221 1209 00       		.sleb128 0
 4222 120a 00       		.byte	0
 4223 120b 2D       		.uleb128 0x2d
 4224 120c 3A000000 		.4byte	.LVL80
 4225 1210 2F0F0000 		.4byte	0xf2f
 4226 1214 1F120000 		.4byte	0x121f
 4227 1218 2E       		.uleb128 0x2e
 4228 1219 01       		.uleb128 0x1
 4229 121a 51       		.byte	0x51
 4230 121b 02       		.uleb128 0x2
 4231 121c 7D       		.byte	0x7d
 4232 121d 00       		.sleb128 0
 4233 121e 00       		.byte	0
 4234 121f 3F       		.uleb128 0x3f
 4235 1220 40000000 		.4byte	.LVL81
 4236 1224 371A0000 		.4byte	0x1a37
ARM GAS  C:\Users\pearlstl\AppData\Local\Temp\ccFIoKDo.s 			page 92


 4237 1228 2D       		.uleb128 0x2d
 4238 1229 46000000 		.4byte	.LVL82
 4239 122d 2F0F0000 		.4byte	0xf2f
 4240 1231 3C120000 		.4byte	0x123c
 4241 1235 2E       		.uleb128 0x2e
 4242 1236 01       		.uleb128 0x1
 4243 1237 51       		.byte	0x51
 4244 1238 02       		.uleb128 0x2
 4245 1239 7D       		.byte	0x7d
 4246 123a 00       		.sleb128 0
 4247 123b 00       		.byte	0
 4248 123c 3F       		.uleb128 0x3f
 4249 123d 4C000000 		.4byte	.LVL83
 4250 1241 421A0000 		.4byte	0x1a42
 4251 1245 2D       		.uleb128 0x2d
 4252 1246 52000000 		.4byte	.LVL84
 4253 124a 2F0F0000 		.4byte	0xf2f
 4254 124e 59120000 		.4byte	0x1259
 4255 1252 2E       		.uleb128 0x2e
 4256 1253 01       		.uleb128 0x1
 4257 1254 51       		.byte	0x51
 4258 1255 02       		.uleb128 0x2
 4259 1256 7D       		.byte	0x7d
 4260 1257 00       		.sleb128 0
 4261 1258 00       		.byte	0
 4262 1259 3F       		.uleb128 0x3f
 4263 125a 58000000 		.4byte	.LVL85
 4264 125e 4D1A0000 		.4byte	0x1a4d
 4265 1262 00       		.byte	0
 4266 1263 43       		.uleb128 0x43
 4267 1264 35020000 		.4byte	.LASF256
 4268 1268 01       		.byte	0x1
 4269 1269 3E       		.byte	0x3e
 4270 126a 00000000 		.4byte	.LFB35
 4271 126e 02000000 		.4byte	.LFE35-.LFB35
 4272 1272 01       		.uleb128 0x1
 4273 1273 9C       		.byte	0x9c
 4274 1274 44       		.uleb128 0x44
 4275 1275 990A0000 		.4byte	.LASF202
 4276 1279 01       		.byte	0x1
 4277 127a 5E       		.byte	0x5e
 4278 127b 00000000 		.4byte	.LFB37
 4279 127f D2000000 		.4byte	.LFE37-.LFB37
 4280 1283 01       		.uleb128 0x1
 4281 1284 9C       		.byte	0x9c
 4282 1285 AD130000 		.4byte	0x13ad
 4283 1289 45       		.uleb128 0x45
 4284 128a F4050000 		.4byte	.LASF196
 4285 128e 01       		.byte	0x1
 4286 128f 5E       		.byte	0x5e
 4287 1290 3A0C0000 		.4byte	0xc3a
 4288 1294 68040000 		.4byte	.LLST23
 4289 1298 45       		.uleb128 0x45
 4290 1299 42020000 		.4byte	.LASF177
 4291 129d 01       		.byte	0x1
 4292 129e 5E       		.byte	0x5e
 4293 129f 64070000 		.4byte	0x764
ARM GAS  C:\Users\pearlstl\AppData\Local\Temp\ccFIoKDo.s 			page 93


 4294 12a3 B2040000 		.4byte	.LLST24
 4295 12a7 46       		.uleb128 0x46
 4296 12a8 8A040000 		.4byte	.LASF200
 4297 12ac 01       		.byte	0x1
 4298 12ad 69       		.byte	0x69
 4299 12ae 3B030000 		.4byte	0x33b
 4300 12b2 02       		.uleb128 0x2
 4301 12b3 91       		.byte	0x91
 4302 12b4 60       		.sleb128 -32
 4303 12b5 46       		.uleb128 0x46
 4304 12b6 A9060000 		.4byte	.LASF201
 4305 12ba 01       		.byte	0x1
 4306 12bb 6F       		.byte	0x6f
 4307 12bc 3B030000 		.4byte	0x33b
 4308 12c0 02       		.uleb128 0x2
 4309 12c1 91       		.byte	0x91
 4310 12c2 68       		.sleb128 -24
 4311 12c3 47       		.uleb128 0x47
 4312 12c4 73756300 		.ascii	"suc\000"
 4313 12c8 01       		.byte	0x1
 4314 12c9 70       		.byte	0x70
 4315 12ca D5010000 		.4byte	0x1d5
 4316 12ce 0D050000 		.4byte	.LLST25
 4317 12d2 2B       		.uleb128 0x2b
 4318 12d3 50000000 		.4byte	.Ldebug_ranges0+0x50
 4319 12d7 5B130000 		.4byte	0x135b
 4320 12db 47       		.uleb128 0x47
 4321 12dc 6900     		.ascii	"i\000"
 4322 12de 01       		.byte	0x1
 4323 12df 79       		.byte	0x79
 4324 12e0 D5000000 		.4byte	0xd5
 4325 12e4 20050000 		.4byte	.LLST26
 4326 12e8 48       		.uleb128 0x48
 4327 12e9 7D0B0000 		.4byte	0xb7d
 4328 12ed 9E000000 		.4byte	.LBB59
 4329 12f1 0A000000 		.4byte	.LBE59-.LBB59
 4330 12f5 01       		.byte	0x1
 4331 12f6 83       		.byte	0x83
 4332 12f7 0E130000 		.4byte	0x130e
 4333 12fb 32       		.uleb128 0x32
 4334 12fc 940B0000 		.4byte	0xb94
 4335 1300 55050000 		.4byte	.LLST27
 4336 1304 32       		.uleb128 0x32
 4337 1305 890B0000 		.4byte	0xb89
 4338 1309 68050000 		.4byte	.LLST28
 4339 130d 00       		.byte	0
 4340 130e 48       		.uleb128 0x48
 4341 130f 7D0B0000 		.4byte	0xb7d
 4342 1313 B8000000 		.4byte	.LBB61
 4343 1317 1A000000 		.4byte	.LBE61-.LBB61
 4344 131b 01       		.byte	0x1
 4345 131c 80       		.byte	0x80
 4346 131d 34130000 		.4byte	0x1334
 4347 1321 32       		.uleb128 0x32
 4348 1322 940B0000 		.4byte	0xb94
 4349 1326 7D050000 		.4byte	.LLST29
 4350 132a 32       		.uleb128 0x32
ARM GAS  C:\Users\pearlstl\AppData\Local\Temp\ccFIoKDo.s 			page 94


 4351 132b 890B0000 		.4byte	0xb89
 4352 132f AA050000 		.4byte	.LLST30
 4353 1333 00       		.byte	0
 4354 1334 2F       		.uleb128 0x2f
 4355 1335 48000000 		.4byte	.LVL101
 4356 1339 4A130000 		.4byte	0x134a
 4357 133d 2E       		.uleb128 0x2e
 4358 133e 01       		.uleb128 0x1
 4359 133f 50       		.byte	0x50
 4360 1340 02       		.uleb128 0x2
 4361 1341 75       		.byte	0x75
 4362 1342 00       		.sleb128 0
 4363 1343 2E       		.uleb128 0x2e
 4364 1344 01       		.uleb128 0x1
 4365 1345 51       		.byte	0x51
 4366 1346 02       		.uleb128 0x2
 4367 1347 91       		.byte	0x91
 4368 1348 68       		.sleb128 -24
 4369 1349 00       		.byte	0
 4370 134a 30       		.uleb128 0x30
 4371 134b 70000000 		.4byte	.LVL105
 4372 134f D1190000 		.4byte	0x19d1
 4373 1353 2E       		.uleb128 0x2e
 4374 1354 01       		.uleb128 0x1
 4375 1355 50       		.byte	0x50
 4376 1356 02       		.uleb128 0x2
 4377 1357 91       		.byte	0x91
 4378 1358 68       		.sleb128 -24
 4379 1359 00       		.byte	0
 4380 135a 00       		.byte	0
 4381 135b 2D       		.uleb128 0x2d
 4382 135c 20000000 		.4byte	.LVL97
 4383 1360 591A0000 		.4byte	0x1a59
 4384 1364 6F130000 		.4byte	0x136f
 4385 1368 2E       		.uleb128 0x2e
 4386 1369 01       		.uleb128 0x1
 4387 136a 50       		.byte	0x50
 4388 136b 02       		.uleb128 0x2
 4389 136c 75       		.byte	0x75
 4390 136d 00       		.sleb128 0
 4391 136e 00       		.byte	0
 4392 136f 2D       		.uleb128 0x2d
 4393 1370 2C000000 		.4byte	.LVL98
 4394 1374 641A0000 		.4byte	0x1a64
 4395 1378 83130000 		.4byte	0x1383
 4396 137c 2E       		.uleb128 0x2e
 4397 137d 01       		.uleb128 0x1
 4398 137e 50       		.byte	0x50
 4399 137f 02       		.uleb128 0x2
 4400 1380 75       		.byte	0x75
 4401 1381 00       		.sleb128 0
 4402 1382 00       		.byte	0
 4403 1383 2D       		.uleb128 0x2d
 4404 1384 3C000000 		.4byte	.LVL99
 4405 1388 FE190000 		.4byte	0x19fe
 4406 138c A3130000 		.4byte	0x13a3
 4407 1390 2E       		.uleb128 0x2e
ARM GAS  C:\Users\pearlstl\AppData\Local\Temp\ccFIoKDo.s 			page 95


 4408 1391 01       		.uleb128 0x1
 4409 1392 50       		.byte	0x50
 4410 1393 02       		.uleb128 0x2
 4411 1394 91       		.byte	0x91
 4412 1395 68       		.sleb128 -24
 4413 1396 2E       		.uleb128 0x2e
 4414 1397 01       		.uleb128 0x1
 4415 1398 51       		.byte	0x51
 4416 1399 02       		.uleb128 0x2
 4417 139a 74       		.byte	0x74
 4418 139b 00       		.sleb128 0
 4419 139c 2E       		.uleb128 0x2e
 4420 139d 01       		.uleb128 0x1
 4421 139e 52       		.byte	0x52
 4422 139f 02       		.uleb128 0x2
 4423 13a0 7D       		.byte	0x7d
 4424 13a1 00       		.sleb128 0
 4425 13a2 00       		.byte	0
 4426 13a3 3F       		.uleb128 0x3f
 4427 13a4 92000000 		.4byte	.LVL111
 4428 13a8 6F1A0000 		.4byte	0x1a6f
 4429 13ac 00       		.byte	0
 4430 13ad 49       		.uleb128 0x49
 4431 13ae 2E0C0000 		.4byte	0xc2e
 4432 13b2 00000000 		.4byte	.LFB38
 4433 13b6 0C000000 		.4byte	.LFE38-.LFB38
 4434 13ba 01       		.uleb128 0x1
 4435 13bb 9C       		.byte	0x9c
 4436 13bc 44       		.uleb128 0x44
 4437 13bd 51050000 		.4byte	.LASF203
 4438 13c1 01       		.byte	0x1
 4439 13c2 98       		.byte	0x98
 4440 13c3 00000000 		.4byte	.LFB39
 4441 13c7 0C000000 		.4byte	.LFE39-.LFB39
 4442 13cb 01       		.uleb128 0x1
 4443 13cc 9C       		.byte	0x9c
 4444 13cd DF130000 		.4byte	0x13df
 4445 13d1 4A       		.uleb128 0x4a
 4446 13d2 F4050000 		.4byte	.LASF196
 4447 13d6 01       		.byte	0x1
 4448 13d7 98       		.byte	0x98
 4449 13d8 3A0C0000 		.4byte	0xc3a
 4450 13dc 01       		.uleb128 0x1
 4451 13dd 50       		.byte	0x50
 4452 13de 00       		.byte	0
 4453 13df 21       		.uleb128 0x21
 4454 13e0 F2040000 		.4byte	.LASF204
 4455 13e4 01       		.byte	0x1
 4456 13e5 0D01     		.2byte	0x10d
 4457 13e7 01       		.byte	0x1
 4458 13e8 F7130000 		.4byte	0x13f7
 4459 13ec 40       		.uleb128 0x40
 4460 13ed 6900     		.ascii	"i\000"
 4461 13ef 01       		.byte	0x1
 4462 13f0 1001     		.2byte	0x110
 4463 13f2 EB000000 		.4byte	0xeb
 4464 13f6 00       		.byte	0
ARM GAS  C:\Users\pearlstl\AppData\Local\Temp\ccFIoKDo.s 			page 96


 4465 13f7 1F       		.uleb128 0x1f
 4466 13f8 18000000 		.4byte	.LASF205
 4467 13fc 01       		.byte	0x1
 4468 13fd E8       		.byte	0xe8
 4469 13fe 01       		.byte	0x1
 4470 13ff 25140000 		.4byte	0x1425
 4471 1403 4B       		.uleb128 0x4b
 4472 1404 E3060000 		.4byte	.LASF206
 4473 1408 01       		.byte	0x1
 4474 1409 EA       		.byte	0xea
 4475 140a EB000000 		.4byte	0xeb
 4476 140e 4B       		.uleb128 0x4b
 4477 140f 72060000 		.4byte	.LASF207
 4478 1413 01       		.byte	0x1
 4479 1414 EB       		.byte	0xeb
 4480 1415 EB000000 		.4byte	0xeb
 4481 1419 4B       		.uleb128 0x4b
 4482 141a F4010000 		.4byte	.LASF208
 4483 141e 01       		.byte	0x1
 4484 141f EC       		.byte	0xec
 4485 1420 3B030000 		.4byte	0x33b
 4486 1424 00       		.byte	0
 4487 1425 21       		.uleb128 0x21
 4488 1426 6A080000 		.4byte	.LASF209
 4489 142a 01       		.byte	0x1
 4490 142b 2101     		.2byte	0x121
 4491 142d 01       		.byte	0x1
 4492 142e BC140000 		.4byte	0x14bc
 4493 1432 23       		.uleb128 0x23
 4494 1433 42020000 		.4byte	.LASF177
 4495 1437 01       		.byte	0x1
 4496 1438 2101     		.2byte	0x121
 4497 143a 64070000 		.4byte	0x764
 4498 143e 4C       		.uleb128 0x4c
 4499 143f 50140000 		.4byte	0x1450
 4500 1443 40       		.uleb128 0x40
 4501 1444 76646200 		.ascii	"vdb\000"
 4502 1448 01       		.byte	0x1
 4503 1449 2601     		.2byte	0x126
 4504 144b 43070000 		.4byte	0x743
 4505 144f 00       		.byte	0
 4506 1450 25       		.uleb128 0x25
 4507 1451 40       		.uleb128 0x40
 4508 1452 76646200 		.ascii	"vdb\000"
 4509 1456 01       		.byte	0x1
 4510 1457 2F01     		.2byte	0x12f
 4511 1459 43070000 		.4byte	0x743
 4512 145d 40       		.uleb128 0x40
 4513 145e 7700     		.ascii	"w\000"
 4514 1460 01       		.byte	0x1
 4515 1461 3101     		.2byte	0x131
 4516 1463 F6000000 		.4byte	0xf6
 4517 1467 40       		.uleb128 0x40
 4518 1468 6800     		.ascii	"h\000"
 4519 146a 01       		.byte	0x1
 4520 146b 3201     		.2byte	0x132
 4521 146d F6000000 		.4byte	0xf6
ARM GAS  C:\Users\pearlstl\AppData\Local\Temp\ccFIoKDo.s 			page 97


 4522 1471 40       		.uleb128 0x40
 4523 1472 793200   		.ascii	"y2\000"
 4524 1475 01       		.byte	0x1
 4525 1476 3301     		.2byte	0x133
 4526 1478 F6000000 		.4byte	0xf6
 4527 147c 24       		.uleb128 0x24
 4528 147d D00B0000 		.4byte	.LASF210
 4529 1481 01       		.byte	0x1
 4530 1482 3601     		.2byte	0x136
 4531 1484 E0000000 		.4byte	0xe0
 4532 1488 40       		.uleb128 0x40
 4533 1489 726F7700 		.ascii	"row\000"
 4534 148d 01       		.byte	0x1
 4535 148e 5701     		.2byte	0x157
 4536 1490 F6000000 		.4byte	0xf6
 4537 1494 24       		.uleb128 0x24
 4538 1495 11070000 		.4byte	.LASF211
 4539 1499 01       		.byte	0x1
 4540 149a 5801     		.2byte	0x158
 4541 149c F6000000 		.4byte	0xf6
 4542 14a0 25       		.uleb128 0x25
 4543 14a1 40       		.uleb128 0x40
 4544 14a2 746D7000 		.ascii	"tmp\000"
 4545 14a6 01       		.byte	0x1
 4546 14a7 3C01     		.2byte	0x13c
 4547 14a9 3B030000 		.4byte	0x33b
 4548 14ad 24       		.uleb128 0x24
 4549 14ae 0E050000 		.4byte	.LASF212
 4550 14b2 01       		.byte	0x1
 4551 14b3 4101     		.2byte	0x141
 4552 14b5 F6000000 		.4byte	0xf6
 4553 14b9 00       		.byte	0
 4554 14ba 00       		.byte	0
 4555 14bb 00       		.byte	0
 4556 14bc 44       		.uleb128 0x44
 4557 14bd B0020000 		.4byte	.LASF213
 4558 14c1 01       		.byte	0x1
 4559 14c2 A1       		.byte	0xa1
 4560 14c3 00000000 		.4byte	.LFB40
 4561 14c7 4C040000 		.4byte	.LFE40-.LFB40
 4562 14cb 01       		.uleb128 0x1
 4563 14cc 9C       		.byte	0x9c
 4564 14cd 16190000 		.4byte	0x1916
 4565 14d1 45       		.uleb128 0x45
 4566 14d2 5B040000 		.4byte	.LASF214
 4567 14d6 01       		.byte	0x1
 4568 14d7 A1       		.byte	0xa1
 4569 14d8 7E080000 		.4byte	0x87e
 4570 14dc DA050000 		.4byte	.LLST31
 4571 14e0 4D       		.uleb128 0x4d
 4572 14e1 77090000 		.4byte	.LASF215
 4573 14e5 01       		.byte	0x1
 4574 14e6 A5       		.byte	0xa5
 4575 14e7 EB000000 		.4byte	0xeb
 4576 14eb 06060000 		.4byte	.LLST32
 4577 14ef 4E       		.uleb128 0x4e
 4578 14f0 F7130000 		.4byte	0x13f7
ARM GAS  C:\Users\pearlstl\AppData\Local\Temp\ccFIoKDo.s 			page 98


 4579 14f4 10000000 		.4byte	.LBB90
 4580 14f8 70000000 		.4byte	.Ldebug_ranges0+0x70
 4581 14fc 01       		.byte	0x1
 4582 14fd A9       		.byte	0xa9
 4583 14fe A4150000 		.4byte	0x15a4
 4584 1502 3D       		.uleb128 0x3d
 4585 1503 70000000 		.4byte	.Ldebug_ranges0+0x70
 4586 1507 33       		.uleb128 0x33
 4587 1508 03140000 		.4byte	0x1403
 4588 150c 25060000 		.4byte	.LLST33
 4589 1510 33       		.uleb128 0x33
 4590 1511 0E140000 		.4byte	0x140e
 4591 1515 4F060000 		.4byte	.LLST34
 4592 1519 34       		.uleb128 0x34
 4593 151a 19140000 		.4byte	0x1419
 4594 151e 02       		.uleb128 0x2
 4595 151f 91       		.byte	0x91
 4596 1520 50       		.sleb128 -48
 4597 1521 3C       		.uleb128 0x3c
 4598 1522 7D0B0000 		.4byte	0xb7d
 4599 1526 76020000 		.4byte	.LBB92
 4600 152a 98000000 		.4byte	.Ldebug_ranges0+0x98
 4601 152e 01       		.byte	0x1
 4602 152f 0101     		.2byte	0x101
 4603 1531 44150000 		.4byte	0x1544
 4604 1535 32       		.uleb128 0x32
 4605 1536 940B0000 		.4byte	0xb94
 4606 153a 79060000 		.4byte	.LLST35
 4607 153e 3E       		.uleb128 0x3e
 4608 153f 890B0000 		.4byte	0xb89
 4609 1543 00       		.byte	0
 4610 1544 2D       		.uleb128 0x2d
 4611 1545 78000000 		.4byte	.LVL131
 4612 1549 7A1A0000 		.4byte	0x1a7a
 4613 154d 68150000 		.4byte	0x1568
 4614 1551 2E       		.uleb128 0x2e
 4615 1552 01       		.uleb128 0x1
 4616 1553 50       		.byte	0x50
 4617 1554 07       		.uleb128 0x7
 4618 1555 74       		.byte	0x74
 4619 1556 00       		.sleb128 0
 4620 1557 78       		.byte	0x78
 4621 1558 00       		.sleb128 0
 4622 1559 22       		.byte	0x22
 4623 155a 23       		.byte	0x23
 4624 155b 04       		.uleb128 0x4
 4625 155c 2E       		.uleb128 0x2e
 4626 155d 01       		.uleb128 0x1
 4627 155e 51       		.byte	0x51
 4628 155f 07       		.uleb128 0x7
 4629 1560 74       		.byte	0x74
 4630 1561 00       		.sleb128 0
 4631 1562 76       		.byte	0x76
 4632 1563 00       		.sleb128 0
 4633 1564 22       		.byte	0x22
 4634 1565 23       		.byte	0x23
 4635 1566 04       		.uleb128 0x4
ARM GAS  C:\Users\pearlstl\AppData\Local\Temp\ccFIoKDo.s 			page 99


 4636 1567 00       		.byte	0
 4637 1568 2D       		.uleb128 0x2d
 4638 1569 8C000000 		.4byte	.LVL132
 4639 156d 851A0000 		.4byte	0x1a85
 4640 1571 7C150000 		.4byte	0x157c
 4641 1575 2E       		.uleb128 0x2e
 4642 1576 01       		.uleb128 0x1
 4643 1577 50       		.byte	0x50
 4644 1578 02       		.uleb128 0x2
 4645 1579 91       		.byte	0x91
 4646 157a 50       		.sleb128 -48
 4647 157b 00       		.byte	0
 4648 157c 2D       		.uleb128 0x2d
 4649 157d 92000000 		.4byte	.LVL133
 4650 1581 901A0000 		.4byte	0x1a90
 4651 1585 90150000 		.4byte	0x1590
 4652 1589 2E       		.uleb128 0x2e
 4653 158a 01       		.uleb128 0x1
 4654 158b 50       		.byte	0x50
 4655 158c 02       		.uleb128 0x2
 4656 158d 91       		.byte	0x91
 4657 158e 50       		.sleb128 -48
 4658 158f 00       		.byte	0
 4659 1590 3F       		.uleb128 0x3f
 4660 1591 9E000000 		.4byte	.LVL134
 4661 1595 901A0000 		.4byte	0x1a90
 4662 1599 3F       		.uleb128 0x3f
 4663 159a AA000000 		.4byte	.LVL135
 4664 159e 901A0000 		.4byte	0x1a90
 4665 15a2 00       		.byte	0
 4666 15a3 00       		.byte	0
 4667 15a4 4E       		.uleb128 0x4e
 4668 15a5 DF130000 		.4byte	0x13df
 4669 15a9 CC000000 		.4byte	.LBB103
 4670 15ad B8000000 		.4byte	.Ldebug_ranges0+0xb8
 4671 15b1 01       		.byte	0x1
 4672 15b2 AB       		.byte	0xab
 4673 15b3 52170000 		.4byte	0x1752
 4674 15b7 3D       		.uleb128 0x3d
 4675 15b8 B8000000 		.4byte	.Ldebug_ranges0+0xb8
 4676 15bc 33       		.uleb128 0x33
 4677 15bd EC130000 		.4byte	0x13ec
 4678 15c1 B3060000 		.4byte	.LLST36
 4679 15c5 3C       		.uleb128 0x3c
 4680 15c6 25140000 		.4byte	0x1425
 4681 15ca F4000000 		.4byte	.LBB105
 4682 15ce D8000000 		.4byte	.Ldebug_ranges0+0xd8
 4683 15d2 01       		.byte	0x1
 4684 15d3 1601     		.2byte	0x116
 4685 15d5 38170000 		.4byte	0x1738
 4686 15d9 32       		.uleb128 0x32
 4687 15da 32140000 		.4byte	0x1432
 4688 15de 2A070000 		.4byte	.LLST37
 4689 15e2 2B       		.uleb128 0x2b
 4690 15e3 08010000 		.4byte	.Ldebug_ranges0+0x108
 4691 15e7 E3160000 		.4byte	0x16e3
 4692 15eb 33       		.uleb128 0x33
ARM GAS  C:\Users\pearlstl\AppData\Local\Temp\ccFIoKDo.s 			page 100


 4693 15ec 51140000 		.4byte	0x1451
 4694 15f0 71070000 		.4byte	.LLST38
 4695 15f4 39       		.uleb128 0x39
 4696 15f5 5D140000 		.4byte	0x145d
 4697 15f9 39       		.uleb128 0x39
 4698 15fa 67140000 		.4byte	0x1467
 4699 15fe 33       		.uleb128 0x33
 4700 15ff 71140000 		.4byte	0x1471
 4701 1603 A5070000 		.4byte	.LLST39
 4702 1607 33       		.uleb128 0x33
 4703 1608 7C140000 		.4byte	0x147c
 4704 160c CE070000 		.4byte	.LLST40
 4705 1610 33       		.uleb128 0x33
 4706 1611 88140000 		.4byte	0x1488
 4707 1615 F8070000 		.4byte	.LLST41
 4708 1619 33       		.uleb128 0x33
 4709 161a 94140000 		.4byte	0x1494
 4710 161e 2D080000 		.4byte	.LLST42
 4711 1622 3C       		.uleb128 0x3c
 4712 1623 450B0000 		.4byte	0xb45
 4713 1627 0C010000 		.4byte	.LBB108
 4714 162b 28010000 		.4byte	.Ldebug_ranges0+0x128
 4715 162f 01       		.byte	0x1
 4716 1630 3101     		.2byte	0x131
 4717 1632 49160000 		.4byte	0x1649
 4718 1636 32       		.uleb128 0x32
 4719 1637 550B0000 		.4byte	0xb55
 4720 163b 4D080000 		.4byte	.LLST43
 4721 163f 32       		.uleb128 0x32
 4722 1640 550B0000 		.4byte	0xb55
 4723 1644 4D080000 		.4byte	.LLST43
 4724 1648 00       		.byte	0
 4725 1649 3C       		.uleb128 0x3c
 4726 164a 610B0000 		.4byte	0xb61
 4727 164e 18010000 		.4byte	.LBB112
 4728 1652 48010000 		.4byte	.Ldebug_ranges0+0x148
 4729 1656 01       		.byte	0x1
 4730 1657 3201     		.2byte	0x132
 4731 1659 70160000 		.4byte	0x1670
 4732 165d 32       		.uleb128 0x32
 4733 165e 710B0000 		.4byte	0xb71
 4734 1662 7C080000 		.4byte	.LLST45
 4735 1666 32       		.uleb128 0x32
 4736 1667 710B0000 		.4byte	0xb71
 4737 166b 7C080000 		.4byte	.LLST45
 4738 166f 00       		.byte	0
 4739 1670 35       		.uleb128 0x35
 4740 1671 52010000 		.4byte	.LBB122
 4741 1675 4C000000 		.4byte	.LBE122-.LBB122
 4742 1679 9B160000 		.4byte	0x169b
 4743 167d 34       		.uleb128 0x34
 4744 167e A1140000 		.4byte	0x14a1
 4745 1682 02       		.uleb128 0x2
 4746 1683 91       		.byte	0x91
 4747 1684 50       		.sleb128 -48
 4748 1685 33       		.uleb128 0x33
 4749 1686 AD140000 		.4byte	0x14ad
ARM GAS  C:\Users\pearlstl\AppData\Local\Temp\ccFIoKDo.s 			page 101


 4750 168a B8080000 		.4byte	.LLST47
 4751 168e 3A       		.uleb128 0x3a
 4752 168f 80010000 		.4byte	.LVL157
 4753 1693 2E       		.uleb128 0x2e
 4754 1694 01       		.uleb128 0x1
 4755 1695 51       		.byte	0x51
 4756 1696 02       		.uleb128 0x2
 4757 1697 91       		.byte	0x91
 4758 1698 50       		.sleb128 -48
 4759 1699 00       		.byte	0
 4760 169a 00       		.byte	0
 4761 169b 3F       		.uleb128 0x3f
 4762 169c 0C010000 		.4byte	.LVL146
 4763 16a0 201A0000 		.4byte	0x1a20
 4764 16a4 3F       		.uleb128 0x3f
 4765 16a5 32010000 		.4byte	.LVL150
 4766 16a9 641A0000 		.4byte	0x1a64
 4767 16ad 2D       		.uleb128 0x2d
 4768 16ae F6010000 		.4byte	.LVL166
 4769 16b2 10110000 		.4byte	0x1110
 4770 16b6 C3160000 		.4byte	0x16c3
 4771 16ba 2E       		.uleb128 0x2e
 4772 16bb 01       		.uleb128 0x1
 4773 16bc 50       		.byte	0x50
 4774 16bd 04       		.uleb128 0x4
 4775 16be 91       		.byte	0x91
 4776 16bf BC7F     		.sleb128 -68
 4777 16c1 06       		.byte	0x6
 4778 16c2 00       		.byte	0
 4779 16c3 2D       		.uleb128 0x2d
 4780 16c4 30020000 		.4byte	.LVL169
 4781 16c8 10110000 		.4byte	0x1110
 4782 16cc D9160000 		.4byte	0x16d9
 4783 16d0 2E       		.uleb128 0x2e
 4784 16d1 01       		.uleb128 0x1
 4785 16d2 50       		.byte	0x50
 4786 16d3 04       		.uleb128 0x4
 4787 16d4 91       		.byte	0x91
 4788 16d5 BC7F     		.sleb128 -68
 4789 16d7 06       		.byte	0x6
 4790 16d8 00       		.byte	0
 4791 16d9 3F       		.uleb128 0x3f
 4792 16da CC020000 		.4byte	.LVL189
 4793 16de 641A0000 		.4byte	0x1a64
 4794 16e2 00       		.byte	0
 4795 16e3 35       		.uleb128 0x35
 4796 16e4 8C020000 		.4byte	.LBB123
 4797 16e8 26000000 		.4byte	.LBE123-.LBB123
 4798 16ec 27170000 		.4byte	0x1727
 4799 16f0 33       		.uleb128 0x33
 4800 16f1 43140000 		.4byte	0x1443
 4801 16f5 F7080000 		.4byte	.LLST48
 4802 16f9 3F       		.uleb128 0x3f
 4803 16fa 92020000 		.4byte	.LVL181
 4804 16fe 201A0000 		.4byte	0x1a20
 4805 1702 3F       		.uleb128 0x3f
 4806 1703 9C020000 		.4byte	.LVL184
ARM GAS  C:\Users\pearlstl\AppData\Local\Temp\ccFIoKDo.s 			page 102


 4807 1707 591A0000 		.4byte	0x1a59
 4808 170b 3F       		.uleb128 0x3f
 4809 170c A8020000 		.4byte	.LVL185
 4810 1710 641A0000 		.4byte	0x1a64
 4811 1714 30       		.uleb128 0x30
 4812 1715 B2020000 		.4byte	.LVL186
 4813 1719 10110000 		.4byte	0x1110
 4814 171d 2E       		.uleb128 0x2e
 4815 171e 01       		.uleb128 0x1
 4816 171f 50       		.byte	0x50
 4817 1720 04       		.uleb128 0x4
 4818 1721 91       		.byte	0x91
 4819 1722 BC7F     		.sleb128 -68
 4820 1724 06       		.byte	0x6
 4821 1725 00       		.byte	0
 4822 1726 00       		.byte	0
 4823 1727 30       		.uleb128 0x30
 4824 1728 00010000 		.4byte	.LVL145
 4825 172c 4D1A0000 		.4byte	0x1a4d
 4826 1730 2E       		.uleb128 0x2e
 4827 1731 01       		.uleb128 0x1
 4828 1732 50       		.byte	0x50
 4829 1733 02       		.uleb128 0x2
 4830 1734 74       		.byte	0x74
 4831 1735 00       		.sleb128 0
 4832 1736 00       		.byte	0
 4833 1737 00       		.byte	0
 4834 1738 30       		.uleb128 0x30
 4835 1739 44020000 		.4byte	.LVL171
 4836 173d 901A0000 		.4byte	0x1a90
 4837 1741 2E       		.uleb128 0x2e
 4838 1742 01       		.uleb128 0x1
 4839 1743 50       		.byte	0x50
 4840 1744 0A       		.uleb128 0xa
 4841 1745 91       		.byte	0x91
 4842 1746 44       		.sleb128 -60
 4843 1747 06       		.byte	0x6
 4844 1748 33       		.byte	0x33
 4845 1749 24       		.byte	0x24
 4846 174a 74       		.byte	0x74
 4847 174b 00       		.sleb128 0
 4848 174c 22       		.byte	0x22
 4849 174d 23       		.byte	0x23
 4850 174e 04       		.uleb128 0x4
 4851 174f 00       		.byte	0
 4852 1750 00       		.byte	0
 4853 1751 00       		.byte	0
 4854 1752 35       		.uleb128 0x35
 4855 1753 3E030000 		.4byte	.LBB139
 4856 1757 0E010000 		.4byte	.LBE139-.LBB139
 4857 175b 7E180000 		.4byte	0x187e
 4858 175f 47       		.uleb128 0x47
 4859 1760 76646200 		.ascii	"vdb\000"
 4860 1764 01       		.byte	0x1
 4861 1765 B2       		.byte	0xb2
 4862 1766 43070000 		.4byte	0x743
 4863 176a 15090000 		.4byte	.LLST49
ARM GAS  C:\Users\pearlstl\AppData\Local\Temp\ccFIoKDo.s 			page 103


 4864 176e 4D       		.uleb128 0x4d
 4865 176f B2060000 		.4byte	.LASF106
 4866 1773 01       		.byte	0x1
 4867 1774 BD       		.byte	0xbd
 4868 1775 C0070000 		.4byte	0x7c0
 4869 1779 3E090000 		.4byte	.LLST50
 4870 177d 4D       		.uleb128 0x4d
 4871 177e 7A060000 		.4byte	.LASF216
 4872 1782 01       		.byte	0x1
 4873 1783 BE       		.byte	0xbe
 4874 1784 C0070000 		.4byte	0x7c0
 4875 1788 5D090000 		.4byte	.LLST51
 4876 178c 4D       		.uleb128 0x4d
 4877 178d 430B0000 		.4byte	.LASF217
 4878 1791 01       		.byte	0x1
 4879 1792 C0       		.byte	0xc0
 4880 1793 F6000000 		.4byte	0xf6
 4881 1797 72090000 		.4byte	.LLST52
 4882 179b 47       		.uleb128 0x47
 4883 179c 6100     		.ascii	"a\000"
 4884 179e 01       		.byte	0x1
 4885 179f C1       		.byte	0xc1
 4886 17a0 D5000000 		.4byte	0xd5
 4887 17a4 91090000 		.4byte	.LLST53
 4888 17a8 4E       		.uleb128 0x4e
 4889 17a9 EA100000 		.4byte	0x10ea
 4890 17ad 46030000 		.4byte	.LBB140
 4891 17b1 70010000 		.4byte	.Ldebug_ranges0+0x170
 4892 17b5 01       		.byte	0x1
 4893 17b6 B5       		.byte	0xb5
 4894 17b7 FE170000 		.4byte	0x17fe
 4895 17bb 3D       		.uleb128 0x3d
 4896 17bc 70010000 		.4byte	.Ldebug_ranges0+0x170
 4897 17c0 33       		.uleb128 0x33
 4898 17c1 F7100000 		.4byte	0x10f7
 4899 17c5 BB090000 		.4byte	.LLST54
 4900 17c9 39       		.uleb128 0x39
 4901 17ca 03110000 		.4byte	0x1103
 4902 17ce 42       		.uleb128 0x42
 4903 17cf 2E0C0000 		.4byte	0xc2e
 4904 17d3 5A030000 		.4byte	.LBB142
 4905 17d7 04000000 		.4byte	.LBE142-.LBB142
 4906 17db 01       		.byte	0x1
 4907 17dc 3E02     		.2byte	0x23e
 4908 17de 3F       		.uleb128 0x3f
 4909 17df 4C030000 		.4byte	.LVL204
 4910 17e3 201A0000 		.4byte	0x1a20
 4911 17e7 3F       		.uleb128 0x3f
 4912 17e8 54030000 		.4byte	.LVL207
 4913 17ec 2B1A0000 		.4byte	0x1a2b
 4914 17f0 3A       		.uleb128 0x3a
 4915 17f1 70030000 		.4byte	.LVL208
 4916 17f5 2E       		.uleb128 0x2e
 4917 17f6 01       		.uleb128 0x1
 4918 17f7 51       		.byte	0x51
 4919 17f8 02       		.uleb128 0x2
 4920 17f9 74       		.byte	0x74
ARM GAS  C:\Users\pearlstl\AppData\Local\Temp\ccFIoKDo.s 			page 104


 4921 17fa 10       		.sleb128 16
 4922 17fb 00       		.byte	0
 4923 17fc 00       		.byte	0
 4924 17fd 00       		.byte	0
 4925 17fe 35       		.uleb128 0x35
 4926 17ff C4030000 		.4byte	.LBB145
 4927 1803 64000000 		.4byte	.LBE145-.LBB145
 4928 1807 6B180000 		.4byte	0x186b
 4929 180b 47       		.uleb128 0x47
 4930 180c 7900     		.ascii	"y\000"
 4931 180e 01       		.byte	0x1
 4932 180f C4       		.byte	0xc4
 4933 1810 F6000000 		.4byte	0xf6
 4934 1814 E4090000 		.4byte	.LLST55
 4935 1818 4D       		.uleb128 0x4d
 4936 1819 06060000 		.4byte	.LASF218
 4937 181d 01       		.byte	0x1
 4938 181e C5       		.byte	0xc5
 4939 181f EB000000 		.4byte	0xeb
 4940 1823 020A0000 		.4byte	.LLST56
 4941 1827 4D       		.uleb128 0x4d
 4942 1828 0E080000 		.4byte	.LASF219
 4943 182c 01       		.byte	0x1
 4944 182d C7       		.byte	0xc7
 4945 182e EB000000 		.4byte	0xeb
 4946 1832 150A0000 		.4byte	.LLST57
 4947 1836 4E       		.uleb128 0x4e
 4948 1837 450B0000 		.4byte	0xb45
 4949 183b CE030000 		.4byte	.LBB146
 4950 183f 88010000 		.4byte	.Ldebug_ranges0+0x188
 4951 1843 01       		.byte	0x1
 4952 1844 C7       		.byte	0xc7
 4953 1845 54180000 		.4byte	0x1854
 4954 1849 3E       		.uleb128 0x3e
 4955 184a 550B0000 		.4byte	0xb55
 4956 184e 3E       		.uleb128 0x3e
 4957 184f 550B0000 		.4byte	0xb55
 4958 1853 00       		.byte	0
 4959 1854 30       		.uleb128 0x30
 4960 1855 0E040000 		.4byte	.LVL217
 4961 1859 9B1A0000 		.4byte	0x1a9b
 4962 185d 2E       		.uleb128 0x2e
 4963 185e 01       		.uleb128 0x1
 4964 185f 51       		.byte	0x51
 4965 1860 02       		.uleb128 0x2
 4966 1861 75       		.byte	0x75
 4967 1862 00       		.sleb128 0
 4968 1863 2E       		.uleb128 0x2e
 4969 1864 01       		.uleb128 0x1
 4970 1865 52       		.byte	0x52
 4971 1866 02       		.uleb128 0x2
 4972 1867 78       		.byte	0x78
 4973 1868 00       		.sleb128 0
 4974 1869 00       		.byte	0
 4975 186a 00       		.byte	0
 4976 186b 3F       		.uleb128 0x3f
 4977 186c 44030000 		.4byte	.LVL201
ARM GAS  C:\Users\pearlstl\AppData\Local\Temp\ccFIoKDo.s 			page 105


 4978 1870 201A0000 		.4byte	0x1a20
 4979 1874 3F       		.uleb128 0x3f
 4980 1875 A0030000 		.4byte	.LVL212
 4981 1879 591A0000 		.4byte	0x1a59
 4982 187d 00       		.byte	0
 4983 187e 3F       		.uleb128 0x3f
 4984 187f 0C000000 		.4byte	.LVL122
 4985 1883 A41A0000 		.4byte	0x1aa4
 4986 1887 3F       		.uleb128 0x3f
 4987 1888 70020000 		.4byte	.LVL174
 4988 188c AF1A0000 		.4byte	0x1aaf
 4989 1890 2D       		.uleb128 0x2d
 4990 1891 EE020000 		.4byte	.LVL193
 4991 1895 4D1A0000 		.4byte	0x1a4d
 4992 1899 A4180000 		.4byte	0x18a4
 4993 189d 2E       		.uleb128 0x2e
 4994 189e 01       		.uleb128 0x1
 4995 189f 50       		.byte	0x50
 4996 18a0 02       		.uleb128 0x2
 4997 18a1 74       		.byte	0x74
 4998 18a2 00       		.sleb128 0
 4999 18a3 00       		.byte	0
 5000 18a4 2D       		.uleb128 0x2d
 5001 18a5 02030000 		.4byte	.LVL194
 5002 18a9 BA1A0000 		.4byte	0x1aba
 5003 18ad C4180000 		.4byte	0x18c4
 5004 18b1 2E       		.uleb128 0x2e
 5005 18b2 01       		.uleb128 0x1
 5006 18b3 50       		.byte	0x50
 5007 18b4 02       		.uleb128 0x2
 5008 18b5 79       		.byte	0x79
 5009 18b6 3C       		.sleb128 60
 5010 18b7 2E       		.uleb128 0x2e
 5011 18b8 01       		.uleb128 0x1
 5012 18b9 51       		.byte	0x51
 5013 18ba 01       		.uleb128 0x1
 5014 18bb 30       		.byte	0x30
 5015 18bc 2E       		.uleb128 0x2e
 5016 18bd 01       		.uleb128 0x1
 5017 18be 52       		.byte	0x52
 5018 18bf 03       		.uleb128 0x3
 5019 18c0 0A       		.byte	0xa
 5020 18c1 0001     		.2byte	0x100
 5021 18c3 00       		.byte	0
 5022 18c4 2D       		.uleb128 0x2d
 5023 18c5 0E030000 		.4byte	.LVL195
 5024 18c9 BA1A0000 		.4byte	0x1aba
 5025 18cd E4180000 		.4byte	0x18e4
 5026 18d1 2E       		.uleb128 0x2e
 5027 18d2 01       		.uleb128 0x1
 5028 18d3 50       		.byte	0x50
 5029 18d4 03       		.uleb128 0x3
 5030 18d5 79       		.byte	0x79
 5031 18d6 BC02     		.sleb128 316
 5032 18d8 2E       		.uleb128 0x2e
 5033 18d9 01       		.uleb128 0x1
 5034 18da 51       		.byte	0x51
ARM GAS  C:\Users\pearlstl\AppData\Local\Temp\ccFIoKDo.s 			page 106


 5035 18db 01       		.uleb128 0x1
 5036 18dc 30       		.byte	0x30
 5037 18dd 2E       		.uleb128 0x2e
 5038 18de 01       		.uleb128 0x1
 5039 18df 52       		.byte	0x52
 5040 18e0 02       		.uleb128 0x2
 5041 18e1 08       		.byte	0x8
 5042 18e2 20       		.byte	0x20
 5043 18e3 00       		.byte	0
 5044 18e4 2D       		.uleb128 0x2d
 5045 18e5 28030000 		.4byte	.LVL196
 5046 18e9 C31A0000 		.4byte	0x1ac3
 5047 18ed F9180000 		.4byte	0x18f9
 5048 18f1 2E       		.uleb128 0x2e
 5049 18f2 01       		.uleb128 0x1
 5050 18f3 50       		.byte	0x50
 5051 18f4 03       		.uleb128 0x3
 5052 18f5 91       		.byte	0x91
 5053 18f6 4C       		.sleb128 -52
 5054 18f7 06       		.byte	0x6
 5055 18f8 00       		.byte	0
 5056 18f9 4F       		.uleb128 0x4f
 5057 18fa 30030000 		.4byte	.LVL197
 5058 18fe 02       		.uleb128 0x2
 5059 18ff 74       		.byte	0x74
 5060 1900 00       		.sleb128 0
 5061 1901 0C190000 		.4byte	0x190c
 5062 1905 2E       		.uleb128 0x2e
 5063 1906 01       		.uleb128 0x1
 5064 1907 50       		.byte	0x50
 5065 1908 02       		.uleb128 0x2
 5066 1909 79       		.byte	0x79
 5067 190a 00       		.sleb128 0
 5068 190b 00       		.byte	0
 5069 190c 3F       		.uleb128 0x3f
 5070 190d 34030000 		.4byte	.LVL198
 5071 1911 AF1A0000 		.4byte	0x1aaf
 5072 1915 00       		.byte	0
 5073 1916 44       		.uleb128 0x44
 5074 1917 DF030000 		.4byte	.LASF220
 5075 191b 01       		.byte	0x1
 5076 191c 4A       		.byte	0x4a
 5077 191d 00000000 		.4byte	.LFB36
 5078 1921 26000000 		.4byte	.LFE36-.LFB36
 5079 1925 01       		.uleb128 0x1
 5080 1926 9C       		.byte	0x9c
 5081 1927 81190000 		.4byte	0x1981
 5082 192b 45       		.uleb128 0x45
 5083 192c F4050000 		.4byte	.LASF196
 5084 1930 01       		.byte	0x1
 5085 1931 4A       		.byte	0x4a
 5086 1932 3A0C0000 		.4byte	0xc3a
 5087 1936 280A0000 		.4byte	.LLST58
 5088 193a 35       		.uleb128 0x35
 5089 193b 0A000000 		.4byte	.LBB153
 5090 193f 1C000000 		.4byte	.LBE153-.LBB153
 5091 1943 77190000 		.4byte	0x1977
ARM GAS  C:\Users\pearlstl\AppData\Local\Temp\ccFIoKDo.s 			page 107


 5092 1947 47       		.uleb128 0x47
 5093 1948 6400     		.ascii	"d\000"
 5094 194a 01       		.byte	0x1
 5095 194b 4F       		.byte	0x4f
 5096 194c 3A0C0000 		.4byte	0xc3a
 5097 1950 620A0000 		.4byte	.LLST59
 5098 1954 3F       		.uleb128 0x3f
 5099 1955 0E000000 		.4byte	.LVL227
 5100 1959 CE1A0000 		.4byte	0x1ace
 5101 195d 3F       		.uleb128 0x3f
 5102 195e 18000000 		.4byte	.LVL229
 5103 1962 BC140000 		.4byte	0x14bc
 5104 1966 30       		.uleb128 0x30
 5105 1967 1E000000 		.4byte	.LVL230
 5106 196b CE1A0000 		.4byte	0x1ace
 5107 196f 2E       		.uleb128 0x2e
 5108 1970 01       		.uleb128 0x1
 5109 1971 50       		.byte	0x50
 5110 1972 02       		.uleb128 0x2
 5111 1973 74       		.byte	0x74
 5112 1974 00       		.sleb128 0
 5113 1975 00       		.byte	0
 5114 1976 00       		.byte	0
 5115 1977 50       		.uleb128 0x50
 5116 1978 08000000 		.4byte	.LVL226
 5117 197c BC140000 		.4byte	0x14bc
 5118 1980 00       		.byte	0
 5119 1981 46       		.uleb128 0x46
 5120 1982 CB040000 		.4byte	.LASF221
 5121 1986 01       		.byte	0x1
 5122 1987 30       		.byte	0x30
 5123 1988 EB000000 		.4byte	0xeb
 5124 198c 05       		.uleb128 0x5
 5125 198d 03       		.byte	0x3
 5126 198e 04000000 		.4byte	px_num
 5127 1992 46       		.uleb128 0x46
 5128 1993 AB040000 		.4byte	.LASF222
 5129 1997 01       		.byte	0x1
 5130 1998 31       		.byte	0x31
 5131 1999 3A0C0000 		.4byte	0xc3a
 5132 199d 05       		.uleb128 0x5
 5133 199e 03       		.byte	0x3
 5134 199f 00000000 		.4byte	disp_refr
 5135 19a3 51       		.uleb128 0x51
 5136 19a4 F8020000 		.4byte	.LASF223
 5137 19a8 F8020000 		.4byte	.LASF223
 5138 19ac 0E       		.byte	0xe
 5139 19ad 2D03     		.2byte	0x32d
 5140 19af 51       		.uleb128 0x51
 5141 19b0 CA090000 		.4byte	.LASF224
 5142 19b4 CA090000 		.4byte	.LASF224
 5143 19b8 0E       		.byte	0xe
 5144 19b9 7A03     		.2byte	0x37a
 5145 19bb 52       		.uleb128 0x52
 5146 19bc 820B0000 		.4byte	.LASF225
 5147 19c0 820B0000 		.4byte	.LASF225
 5148 19c4 0A       		.byte	0xa
ARM GAS  C:\Users\pearlstl\AppData\Local\Temp\ccFIoKDo.s 			page 108


 5149 19c5 66       		.byte	0x66
 5150 19c6 52       		.uleb128 0x52
 5151 19c7 D2050000 		.4byte	.LASF226
 5152 19cb D2050000 		.4byte	.LASF226
 5153 19cf 0A       		.byte	0xa
 5154 19d0 75       		.byte	0x75
 5155 19d1 52       		.uleb128 0x52
 5156 19d2 A2020000 		.4byte	.LASF227
 5157 19d6 A2020000 		.4byte	.LASF227
 5158 19da 02       		.byte	0x2
 5159 19db A9       		.byte	0xa9
 5160 19dc 52       		.uleb128 0x52
 5161 19dd 20050000 		.4byte	.LASF228
 5162 19e1 20050000 		.4byte	.LASF228
 5163 19e5 0A       		.byte	0xa
 5164 19e6 6D       		.byte	0x6d
 5165 19e7 52       		.uleb128 0x52
 5166 19e8 FF070000 		.4byte	.LASF229
 5167 19ec FF070000 		.4byte	.LASF229
 5168 19f0 0A       		.byte	0xa
 5169 19f1 7D       		.byte	0x7d
 5170 19f2 51       		.uleb128 0x51
 5171 19f3 BE0A0000 		.4byte	.LASF230
 5172 19f7 BE0A0000 		.4byte	.LASF230
 5173 19fb 0E       		.byte	0xe
 5174 19fc C702     		.2byte	0x2c7
 5175 19fe 52       		.uleb128 0x52
 5176 19ff 49020000 		.4byte	.LASF231
 5177 1a03 49020000 		.4byte	.LASF231
 5178 1a07 02       		.byte	0x2
 5179 1a08 89       		.byte	0x89
 5180 1a09 51       		.uleb128 0x51
 5181 1a0a 270A0000 		.4byte	.LASF232
 5182 1a0e 270A0000 		.4byte	.LASF232
 5183 1a12 0E       		.byte	0xe
 5184 1a13 9D02     		.2byte	0x29d
 5185 1a15 52       		.uleb128 0x52
 5186 1a16 2C070000 		.4byte	.LASF233
 5187 1a1a 2C070000 		.4byte	.LASF233
 5188 1a1e 0F       		.byte	0xf
 5189 1a1f 25       		.byte	0x25
 5190 1a20 52       		.uleb128 0x52
 5191 1a21 9B040000 		.4byte	.LASF234
 5192 1a25 9B040000 		.4byte	.LASF234
 5193 1a29 0D       		.byte	0xd
 5194 1a2a FF       		.byte	0xff
 5195 1a2b 51       		.uleb128 0x51
 5196 1a2c 0C040000 		.4byte	.LASF235
 5197 1a30 0C040000 		.4byte	.LASF235
 5198 1a34 0D       		.byte	0xd
 5199 1a35 1201     		.2byte	0x112
 5200 1a37 52       		.uleb128 0x52
 5201 1a38 B6070000 		.4byte	.LASF236
 5202 1a3c B6070000 		.4byte	.LASF236
 5203 1a40 0F       		.byte	0xf
 5204 1a41 32       		.byte	0x32
 5205 1a42 52       		.uleb128 0x52
ARM GAS  C:\Users\pearlstl\AppData\Local\Temp\ccFIoKDo.s 			page 109


 5206 1a43 96090000 		.4byte	.LASF237
 5207 1a47 96090000 		.4byte	.LASF237
 5208 1a4b 0F       		.byte	0xf
 5209 1a4c 3A       		.byte	0x3a
 5210 1a4d 51       		.uleb128 0x51
 5211 1a4e 520B0000 		.4byte	.LASF238
 5212 1a52 520B0000 		.4byte	.LASF238
 5213 1a56 0D       		.byte	0xd
 5214 1a57 1A01     		.2byte	0x11a
 5215 1a59 52       		.uleb128 0x52
 5216 1a5a CB030000 		.4byte	.LASF239
 5217 1a5e CB030000 		.4byte	.LASF239
 5218 1a62 0D       		.byte	0xd
 5219 1a63 D9       		.byte	0xd9
 5220 1a64 52       		.uleb128 0x52
 5221 1a65 390A0000 		.4byte	.LASF240
 5222 1a69 390A0000 		.4byte	.LASF240
 5223 1a6d 0D       		.byte	0xd
 5224 1a6e E0       		.byte	0xe0
 5225 1a6f 52       		.uleb128 0x52
 5226 1a70 71040000 		.4byte	.LASF241
 5227 1a74 71040000 		.4byte	.LASF241
 5228 1a78 0D       		.byte	0xd
 5229 1a79 D2       		.byte	0xd2
 5230 1a7a 52       		.uleb128 0x52
 5231 1a7b 6D0B0000 		.4byte	.LASF242
 5232 1a7f 6D0B0000 		.4byte	.LASF242
 5233 1a83 02       		.byte	0x2
 5234 1a84 A1       		.byte	0xa1
 5235 1a85 52       		.uleb128 0x52
 5236 1a86 F9050000 		.4byte	.LASF243
 5237 1a8a F9050000 		.4byte	.LASF243
 5238 1a8e 02       		.byte	0x2
 5239 1a8f 91       		.byte	0x91
 5240 1a90 52       		.uleb128 0x52
 5241 1a91 2C030000 		.4byte	.LASF244
 5242 1a95 2C030000 		.4byte	.LASF244
 5243 1a99 02       		.byte	0x2
 5244 1a9a 80       		.byte	0x80
 5245 1a9b 53       		.uleb128 0x53
 5246 1a9c 4D0A0000 		.4byte	.LASF247
 5247 1aa0 4D0A0000 		.4byte	.LASF247
 5248 1aa4 52       		.uleb128 0x52
 5249 1aa5 77030000 		.4byte	.LASF245
 5250 1aa9 77030000 		.4byte	.LASF245
 5251 1aad 10       		.byte	0x10
 5252 1aae 35       		.byte	0x35
 5253 1aaf 52       		.uleb128 0x52
 5254 1ab0 AC090000 		.4byte	.LASF246
 5255 1ab4 AC090000 		.4byte	.LASF246
 5256 1ab8 11       		.byte	0x11
 5257 1ab9 30       		.byte	0x30
 5258 1aba 53       		.uleb128 0x53
 5259 1abb DC070000 		.4byte	.LASF248
 5260 1abf DC070000 		.4byte	.LASF248
 5261 1ac3 52       		.uleb128 0x52
 5262 1ac4 D2040000 		.4byte	.LASF249
ARM GAS  C:\Users\pearlstl\AppData\Local\Temp\ccFIoKDo.s 			page 110


 5263 1ac8 D2040000 		.4byte	.LASF249
 5264 1acc 10       		.byte	0x10
 5265 1acd 3C       		.byte	0x3c
 5266 1ace 52       		.uleb128 0x52
 5267 1acf 60020000 		.4byte	.LASF250
 5268 1ad3 60020000 		.4byte	.LASF250
 5269 1ad7 0D       		.byte	0xd
 5270 1ad8 F8       		.byte	0xf8
 5271 1ad9 00       		.byte	0
 5272              		.section	.debug_abbrev,"",%progbits
 5273              	.Ldebug_abbrev0:
 5274 0000 01       		.uleb128 0x1
 5275 0001 11       		.uleb128 0x11
 5276 0002 01       		.byte	0x1
 5277 0003 25       		.uleb128 0x25
 5278 0004 0E       		.uleb128 0xe
 5279 0005 13       		.uleb128 0x13
 5280 0006 0B       		.uleb128 0xb
 5281 0007 03       		.uleb128 0x3
 5282 0008 0E       		.uleb128 0xe
 5283 0009 1B       		.uleb128 0x1b
 5284 000a 0E       		.uleb128 0xe
 5285 000b 55       		.uleb128 0x55
 5286 000c 17       		.uleb128 0x17
 5287 000d 11       		.uleb128 0x11
 5288 000e 01       		.uleb128 0x1
 5289 000f 10       		.uleb128 0x10
 5290 0010 17       		.uleb128 0x17
 5291 0011 00       		.byte	0
 5292 0012 00       		.byte	0
 5293 0013 02       		.uleb128 0x2
 5294 0014 24       		.uleb128 0x24
 5295 0015 00       		.byte	0
 5296 0016 0B       		.uleb128 0xb
 5297 0017 0B       		.uleb128 0xb
 5298 0018 3E       		.uleb128 0x3e
 5299 0019 0B       		.uleb128 0xb
 5300 001a 03       		.uleb128 0x3
 5301 001b 08       		.uleb128 0x8
 5302 001c 00       		.byte	0
 5303 001d 00       		.byte	0
 5304 001e 03       		.uleb128 0x3
 5305 001f 24       		.uleb128 0x24
 5306 0020 00       		.byte	0
 5307 0021 0B       		.uleb128 0xb
 5308 0022 0B       		.uleb128 0xb
 5309 0023 3E       		.uleb128 0x3e
 5310 0024 0B       		.uleb128 0xb
 5311 0025 03       		.uleb128 0x3
 5312 0026 0E       		.uleb128 0xe
 5313 0027 00       		.byte	0
 5314 0028 00       		.byte	0
 5315 0029 04       		.uleb128 0x4
 5316 002a 16       		.uleb128 0x16
 5317 002b 00       		.byte	0
 5318 002c 03       		.uleb128 0x3
 5319 002d 0E       		.uleb128 0xe
ARM GAS  C:\Users\pearlstl\AppData\Local\Temp\ccFIoKDo.s 			page 111


 5320 002e 3A       		.uleb128 0x3a
 5321 002f 0B       		.uleb128 0xb
 5322 0030 3B       		.uleb128 0x3b
 5323 0031 0B       		.uleb128 0xb
 5324 0032 49       		.uleb128 0x49
 5325 0033 13       		.uleb128 0x13
 5326 0034 00       		.byte	0
 5327 0035 00       		.byte	0
 5328 0036 05       		.uleb128 0x5
 5329 0037 0F       		.uleb128 0xf
 5330 0038 00       		.byte	0
 5331 0039 0B       		.uleb128 0xb
 5332 003a 0B       		.uleb128 0xb
 5333 003b 00       		.byte	0
 5334 003c 00       		.byte	0
 5335 003d 06       		.uleb128 0x6
 5336 003e 13       		.uleb128 0x13
 5337 003f 01       		.byte	0x1
 5338 0040 0B       		.uleb128 0xb
 5339 0041 0B       		.uleb128 0xb
 5340 0042 3A       		.uleb128 0x3a
 5341 0043 0B       		.uleb128 0xb
 5342 0044 3B       		.uleb128 0x3b
 5343 0045 0B       		.uleb128 0xb
 5344 0046 01       		.uleb128 0x1
 5345 0047 13       		.uleb128 0x13
 5346 0048 00       		.byte	0
 5347 0049 00       		.byte	0
 5348 004a 07       		.uleb128 0x7
 5349 004b 0D       		.uleb128 0xd
 5350 004c 00       		.byte	0
 5351 004d 03       		.uleb128 0x3
 5352 004e 0E       		.uleb128 0xe
 5353 004f 3A       		.uleb128 0x3a
 5354 0050 0B       		.uleb128 0xb
 5355 0051 3B       		.uleb128 0x3b
 5356 0052 0B       		.uleb128 0xb
 5357 0053 49       		.uleb128 0x49
 5358 0054 13       		.uleb128 0x13
 5359 0055 38       		.uleb128 0x38
 5360 0056 0B       		.uleb128 0xb
 5361 0057 00       		.byte	0
 5362 0058 00       		.byte	0
 5363 0059 08       		.uleb128 0x8
 5364 005a 0D       		.uleb128 0xd
 5365 005b 00       		.byte	0
 5366 005c 03       		.uleb128 0x3
 5367 005d 08       		.uleb128 0x8
 5368 005e 3A       		.uleb128 0x3a
 5369 005f 0B       		.uleb128 0xb
 5370 0060 3B       		.uleb128 0x3b
 5371 0061 0B       		.uleb128 0xb
 5372 0062 49       		.uleb128 0x49
 5373 0063 13       		.uleb128 0x13
 5374 0064 38       		.uleb128 0x38
 5375 0065 0B       		.uleb128 0xb
 5376 0066 00       		.byte	0
ARM GAS  C:\Users\pearlstl\AppData\Local\Temp\ccFIoKDo.s 			page 112


 5377 0067 00       		.byte	0
 5378 0068 09       		.uleb128 0x9
 5379 0069 13       		.uleb128 0x13
 5380 006a 01       		.byte	0x1
 5381 006b 03       		.uleb128 0x3
 5382 006c 0E       		.uleb128 0xe
 5383 006d 0B       		.uleb128 0xb
 5384 006e 0B       		.uleb128 0xb
 5385 006f 3A       		.uleb128 0x3a
 5386 0070 0B       		.uleb128 0xb
 5387 0071 3B       		.uleb128 0x3b
 5388 0072 0B       		.uleb128 0xb
 5389 0073 01       		.uleb128 0x1
 5390 0074 13       		.uleb128 0x13
 5391 0075 00       		.byte	0
 5392 0076 00       		.byte	0
 5393 0077 0A       		.uleb128 0xa
 5394 0078 0D       		.uleb128 0xd
 5395 0079 00       		.byte	0
 5396 007a 03       		.uleb128 0x3
 5397 007b 0E       		.uleb128 0xe
 5398 007c 3A       		.uleb128 0x3a
 5399 007d 0B       		.uleb128 0xb
 5400 007e 3B       		.uleb128 0x3b
 5401 007f 0B       		.uleb128 0xb
 5402 0080 49       		.uleb128 0x49
 5403 0081 13       		.uleb128 0x13
 5404 0082 0B       		.uleb128 0xb
 5405 0083 0B       		.uleb128 0xb
 5406 0084 0D       		.uleb128 0xd
 5407 0085 0B       		.uleb128 0xb
 5408 0086 0C       		.uleb128 0xc
 5409 0087 0B       		.uleb128 0xb
 5410 0088 38       		.uleb128 0x38
 5411 0089 0B       		.uleb128 0xb
 5412 008a 00       		.byte	0
 5413 008b 00       		.byte	0
 5414 008c 0B       		.uleb128 0xb
 5415 008d 15       		.uleb128 0x15
 5416 008e 01       		.byte	0x1
 5417 008f 27       		.uleb128 0x27
 5418 0090 19       		.uleb128 0x19
 5419 0091 49       		.uleb128 0x49
 5420 0092 13       		.uleb128 0x13
 5421 0093 01       		.uleb128 0x1
 5422 0094 13       		.uleb128 0x13
 5423 0095 00       		.byte	0
 5424 0096 00       		.byte	0
 5425 0097 0C       		.uleb128 0xc
 5426 0098 05       		.uleb128 0x5
 5427 0099 00       		.byte	0
 5428 009a 49       		.uleb128 0x49
 5429 009b 13       		.uleb128 0x13
 5430 009c 00       		.byte	0
 5431 009d 00       		.byte	0
 5432 009e 0D       		.uleb128 0xd
 5433 009f 0F       		.uleb128 0xf
ARM GAS  C:\Users\pearlstl\AppData\Local\Temp\ccFIoKDo.s 			page 113


 5434 00a0 00       		.byte	0
 5435 00a1 0B       		.uleb128 0xb
 5436 00a2 0B       		.uleb128 0xb
 5437 00a3 49       		.uleb128 0x49
 5438 00a4 13       		.uleb128 0x13
 5439 00a5 00       		.byte	0
 5440 00a6 00       		.byte	0
 5441 00a7 0E       		.uleb128 0xe
 5442 00a8 26       		.uleb128 0x26
 5443 00a9 00       		.byte	0
 5444 00aa 49       		.uleb128 0x49
 5445 00ab 13       		.uleb128 0x13
 5446 00ac 00       		.byte	0
 5447 00ad 00       		.byte	0
 5448 00ae 0F       		.uleb128 0xf
 5449 00af 04       		.uleb128 0x4
 5450 00b0 01       		.byte	0x1
 5451 00b1 0B       		.uleb128 0xb
 5452 00b2 0B       		.uleb128 0xb
 5453 00b3 49       		.uleb128 0x49
 5454 00b4 13       		.uleb128 0x13
 5455 00b5 3A       		.uleb128 0x3a
 5456 00b6 0B       		.uleb128 0xb
 5457 00b7 3B       		.uleb128 0x3b
 5458 00b8 0B       		.uleb128 0xb
 5459 00b9 01       		.uleb128 0x1
 5460 00ba 13       		.uleb128 0x13
 5461 00bb 00       		.byte	0
 5462 00bc 00       		.byte	0
 5463 00bd 10       		.uleb128 0x10
 5464 00be 28       		.uleb128 0x28
 5465 00bf 00       		.byte	0
 5466 00c0 03       		.uleb128 0x3
 5467 00c1 0E       		.uleb128 0xe
 5468 00c2 1C       		.uleb128 0x1c
 5469 00c3 0B       		.uleb128 0xb
 5470 00c4 00       		.byte	0
 5471 00c5 00       		.byte	0
 5472 00c6 11       		.uleb128 0x11
 5473 00c7 17       		.uleb128 0x17
 5474 00c8 01       		.byte	0x1
 5475 00c9 0B       		.uleb128 0xb
 5476 00ca 0B       		.uleb128 0xb
 5477 00cb 3A       		.uleb128 0x3a
 5478 00cc 0B       		.uleb128 0xb
 5479 00cd 3B       		.uleb128 0x3b
 5480 00ce 0B       		.uleb128 0xb
 5481 00cf 01       		.uleb128 0x1
 5482 00d0 13       		.uleb128 0x13
 5483 00d1 00       		.byte	0
 5484 00d2 00       		.byte	0
 5485 00d3 12       		.uleb128 0x12
 5486 00d4 0D       		.uleb128 0xd
 5487 00d5 00       		.byte	0
 5488 00d6 03       		.uleb128 0x3
 5489 00d7 08       		.uleb128 0x8
 5490 00d8 3A       		.uleb128 0x3a
ARM GAS  C:\Users\pearlstl\AppData\Local\Temp\ccFIoKDo.s 			page 114


 5491 00d9 0B       		.uleb128 0xb
 5492 00da 3B       		.uleb128 0x3b
 5493 00db 0B       		.uleb128 0xb
 5494 00dc 49       		.uleb128 0x49
 5495 00dd 13       		.uleb128 0x13
 5496 00de 00       		.byte	0
 5497 00df 00       		.byte	0
 5498 00e0 13       		.uleb128 0x13
 5499 00e1 0D       		.uleb128 0xd
 5500 00e2 00       		.byte	0
 5501 00e3 03       		.uleb128 0x3
 5502 00e4 0E       		.uleb128 0xe
 5503 00e5 3A       		.uleb128 0x3a
 5504 00e6 0B       		.uleb128 0xb
 5505 00e7 3B       		.uleb128 0x3b
 5506 00e8 0B       		.uleb128 0xb
 5507 00e9 49       		.uleb128 0x49
 5508 00ea 13       		.uleb128 0x13
 5509 00eb 00       		.byte	0
 5510 00ec 00       		.byte	0
 5511 00ed 14       		.uleb128 0x14
 5512 00ee 16       		.uleb128 0x16
 5513 00ef 00       		.byte	0
 5514 00f0 03       		.uleb128 0x3
 5515 00f1 0E       		.uleb128 0xe
 5516 00f2 3A       		.uleb128 0x3a
 5517 00f3 0B       		.uleb128 0xb
 5518 00f4 3B       		.uleb128 0x3b
 5519 00f5 05       		.uleb128 0x5
 5520 00f6 49       		.uleb128 0x49
 5521 00f7 13       		.uleb128 0x13
 5522 00f8 00       		.byte	0
 5523 00f9 00       		.byte	0
 5524 00fa 15       		.uleb128 0x15
 5525 00fb 15       		.uleb128 0x15
 5526 00fc 01       		.byte	0x1
 5527 00fd 27       		.uleb128 0x27
 5528 00fe 19       		.uleb128 0x19
 5529 00ff 01       		.uleb128 0x1
 5530 0100 13       		.uleb128 0x13
 5531 0101 00       		.byte	0
 5532 0102 00       		.byte	0
 5533 0103 16       		.uleb128 0x16
 5534 0104 35       		.uleb128 0x35
 5535 0105 00       		.byte	0
 5536 0106 49       		.uleb128 0x49
 5537 0107 13       		.uleb128 0x13
 5538 0108 00       		.byte	0
 5539 0109 00       		.byte	0
 5540 010a 17       		.uleb128 0x17
 5541 010b 13       		.uleb128 0x13
 5542 010c 01       		.byte	0x1
 5543 010d 03       		.uleb128 0x3
 5544 010e 0E       		.uleb128 0xe
 5545 010f 0B       		.uleb128 0xb
 5546 0110 05       		.uleb128 0x5
 5547 0111 3A       		.uleb128 0x3a
ARM GAS  C:\Users\pearlstl\AppData\Local\Temp\ccFIoKDo.s 			page 115


 5548 0112 0B       		.uleb128 0xb
 5549 0113 3B       		.uleb128 0x3b
 5550 0114 0B       		.uleb128 0xb
 5551 0115 01       		.uleb128 0x1
 5552 0116 13       		.uleb128 0x13
 5553 0117 00       		.byte	0
 5554 0118 00       		.byte	0
 5555 0119 18       		.uleb128 0x18
 5556 011a 0D       		.uleb128 0xd
 5557 011b 00       		.byte	0
 5558 011c 03       		.uleb128 0x3
 5559 011d 0E       		.uleb128 0xe
 5560 011e 3A       		.uleb128 0x3a
 5561 011f 0B       		.uleb128 0xb
 5562 0120 3B       		.uleb128 0x3b
 5563 0121 0B       		.uleb128 0xb
 5564 0122 49       		.uleb128 0x49
 5565 0123 13       		.uleb128 0x13
 5566 0124 38       		.uleb128 0x38
 5567 0125 05       		.uleb128 0x5
 5568 0126 00       		.byte	0
 5569 0127 00       		.byte	0
 5570 0128 19       		.uleb128 0x19
 5571 0129 0D       		.uleb128 0xd
 5572 012a 00       		.byte	0
 5573 012b 03       		.uleb128 0x3
 5574 012c 0E       		.uleb128 0xe
 5575 012d 3A       		.uleb128 0x3a
 5576 012e 0B       		.uleb128 0xb
 5577 012f 3B       		.uleb128 0x3b
 5578 0130 0B       		.uleb128 0xb
 5579 0131 49       		.uleb128 0x49
 5580 0132 13       		.uleb128 0x13
 5581 0133 0B       		.uleb128 0xb
 5582 0134 0B       		.uleb128 0xb
 5583 0135 0D       		.uleb128 0xd
 5584 0136 0B       		.uleb128 0xb
 5585 0137 0C       		.uleb128 0xc
 5586 0138 0B       		.uleb128 0xb
 5587 0139 38       		.uleb128 0x38
 5588 013a 05       		.uleb128 0x5
 5589 013b 00       		.byte	0
 5590 013c 00       		.byte	0
 5591 013d 1A       		.uleb128 0x1a
 5592 013e 0D       		.uleb128 0xd
 5593 013f 00       		.byte	0
 5594 0140 03       		.uleb128 0x3
 5595 0141 08       		.uleb128 0x8
 5596 0142 3A       		.uleb128 0x3a
 5597 0143 0B       		.uleb128 0xb
 5598 0144 3B       		.uleb128 0x3b
 5599 0145 0B       		.uleb128 0xb
 5600 0146 49       		.uleb128 0x49
 5601 0147 13       		.uleb128 0x13
 5602 0148 0B       		.uleb128 0xb
 5603 0149 0B       		.uleb128 0xb
 5604 014a 0D       		.uleb128 0xd
ARM GAS  C:\Users\pearlstl\AppData\Local\Temp\ccFIoKDo.s 			page 116


 5605 014b 0B       		.uleb128 0xb
 5606 014c 0C       		.uleb128 0xc
 5607 014d 0B       		.uleb128 0xb
 5608 014e 38       		.uleb128 0x38
 5609 014f 0B       		.uleb128 0xb
 5610 0150 00       		.byte	0
 5611 0151 00       		.byte	0
 5612 0152 1B       		.uleb128 0x1b
 5613 0153 01       		.uleb128 0x1
 5614 0154 01       		.byte	0x1
 5615 0155 49       		.uleb128 0x49
 5616 0156 13       		.uleb128 0x13
 5617 0157 01       		.uleb128 0x1
 5618 0158 13       		.uleb128 0x13
 5619 0159 00       		.byte	0
 5620 015a 00       		.byte	0
 5621 015b 1C       		.uleb128 0x1c
 5622 015c 21       		.uleb128 0x21
 5623 015d 00       		.byte	0
 5624 015e 49       		.uleb128 0x49
 5625 015f 13       		.uleb128 0x13
 5626 0160 2F       		.uleb128 0x2f
 5627 0161 0B       		.uleb128 0xb
 5628 0162 00       		.byte	0
 5629 0163 00       		.byte	0
 5630 0164 1D       		.uleb128 0x1d
 5631 0165 2E       		.uleb128 0x2e
 5632 0166 01       		.byte	0x1
 5633 0167 03       		.uleb128 0x3
 5634 0168 0E       		.uleb128 0xe
 5635 0169 3A       		.uleb128 0x3a
 5636 016a 0B       		.uleb128 0xb
 5637 016b 3B       		.uleb128 0x3b
 5638 016c 0B       		.uleb128 0xb
 5639 016d 27       		.uleb128 0x27
 5640 016e 19       		.uleb128 0x19
 5641 016f 49       		.uleb128 0x49
 5642 0170 13       		.uleb128 0x13
 5643 0171 20       		.uleb128 0x20
 5644 0172 0B       		.uleb128 0xb
 5645 0173 01       		.uleb128 0x1
 5646 0174 13       		.uleb128 0x13
 5647 0175 00       		.byte	0
 5648 0176 00       		.byte	0
 5649 0177 1E       		.uleb128 0x1e
 5650 0178 05       		.uleb128 0x5
 5651 0179 00       		.byte	0
 5652 017a 03       		.uleb128 0x3
 5653 017b 0E       		.uleb128 0xe
 5654 017c 3A       		.uleb128 0x3a
 5655 017d 0B       		.uleb128 0xb
 5656 017e 3B       		.uleb128 0x3b
 5657 017f 0B       		.uleb128 0xb
 5658 0180 49       		.uleb128 0x49
 5659 0181 13       		.uleb128 0x13
 5660 0182 00       		.byte	0
 5661 0183 00       		.byte	0
ARM GAS  C:\Users\pearlstl\AppData\Local\Temp\ccFIoKDo.s 			page 117


 5662 0184 1F       		.uleb128 0x1f
 5663 0185 2E       		.uleb128 0x2e
 5664 0186 01       		.byte	0x1
 5665 0187 03       		.uleb128 0x3
 5666 0188 0E       		.uleb128 0xe
 5667 0189 3A       		.uleb128 0x3a
 5668 018a 0B       		.uleb128 0xb
 5669 018b 3B       		.uleb128 0x3b
 5670 018c 0B       		.uleb128 0xb
 5671 018d 27       		.uleb128 0x27
 5672 018e 19       		.uleb128 0x19
 5673 018f 20       		.uleb128 0x20
 5674 0190 0B       		.uleb128 0xb
 5675 0191 01       		.uleb128 0x1
 5676 0192 13       		.uleb128 0x13
 5677 0193 00       		.byte	0
 5678 0194 00       		.byte	0
 5679 0195 20       		.uleb128 0x20
 5680 0196 05       		.uleb128 0x5
 5681 0197 00       		.byte	0
 5682 0198 03       		.uleb128 0x3
 5683 0199 08       		.uleb128 0x8
 5684 019a 3A       		.uleb128 0x3a
 5685 019b 0B       		.uleb128 0xb
 5686 019c 3B       		.uleb128 0x3b
 5687 019d 0B       		.uleb128 0xb
 5688 019e 49       		.uleb128 0x49
 5689 019f 13       		.uleb128 0x13
 5690 01a0 00       		.byte	0
 5691 01a1 00       		.byte	0
 5692 01a2 21       		.uleb128 0x21
 5693 01a3 2E       		.uleb128 0x2e
 5694 01a4 01       		.byte	0x1
 5695 01a5 03       		.uleb128 0x3
 5696 01a6 0E       		.uleb128 0xe
 5697 01a7 3A       		.uleb128 0x3a
 5698 01a8 0B       		.uleb128 0xb
 5699 01a9 3B       		.uleb128 0x3b
 5700 01aa 05       		.uleb128 0x5
 5701 01ab 27       		.uleb128 0x27
 5702 01ac 19       		.uleb128 0x19
 5703 01ad 20       		.uleb128 0x20
 5704 01ae 0B       		.uleb128 0xb
 5705 01af 01       		.uleb128 0x1
 5706 01b0 13       		.uleb128 0x13
 5707 01b1 00       		.byte	0
 5708 01b2 00       		.byte	0
 5709 01b3 22       		.uleb128 0x22
 5710 01b4 05       		.uleb128 0x5
 5711 01b5 00       		.byte	0
 5712 01b6 03       		.uleb128 0x3
 5713 01b7 08       		.uleb128 0x8
 5714 01b8 3A       		.uleb128 0x3a
 5715 01b9 0B       		.uleb128 0xb
 5716 01ba 3B       		.uleb128 0x3b
 5717 01bb 05       		.uleb128 0x5
 5718 01bc 49       		.uleb128 0x49
ARM GAS  C:\Users\pearlstl\AppData\Local\Temp\ccFIoKDo.s 			page 118


 5719 01bd 13       		.uleb128 0x13
 5720 01be 00       		.byte	0
 5721 01bf 00       		.byte	0
 5722 01c0 23       		.uleb128 0x23
 5723 01c1 05       		.uleb128 0x5
 5724 01c2 00       		.byte	0
 5725 01c3 03       		.uleb128 0x3
 5726 01c4 0E       		.uleb128 0xe
 5727 01c5 3A       		.uleb128 0x3a
 5728 01c6 0B       		.uleb128 0xb
 5729 01c7 3B       		.uleb128 0x3b
 5730 01c8 05       		.uleb128 0x5
 5731 01c9 49       		.uleb128 0x49
 5732 01ca 13       		.uleb128 0x13
 5733 01cb 00       		.byte	0
 5734 01cc 00       		.byte	0
 5735 01cd 24       		.uleb128 0x24
 5736 01ce 34       		.uleb128 0x34
 5737 01cf 00       		.byte	0
 5738 01d0 03       		.uleb128 0x3
 5739 01d1 0E       		.uleb128 0xe
 5740 01d2 3A       		.uleb128 0x3a
 5741 01d3 0B       		.uleb128 0xb
 5742 01d4 3B       		.uleb128 0x3b
 5743 01d5 05       		.uleb128 0x5
 5744 01d6 49       		.uleb128 0x49
 5745 01d7 13       		.uleb128 0x13
 5746 01d8 00       		.byte	0
 5747 01d9 00       		.byte	0
 5748 01da 25       		.uleb128 0x25
 5749 01db 0B       		.uleb128 0xb
 5750 01dc 01       		.byte	0x1
 5751 01dd 00       		.byte	0
 5752 01de 00       		.byte	0
 5753 01df 26       		.uleb128 0x26
 5754 01e0 2E       		.uleb128 0x2e
 5755 01e1 00       		.byte	0
 5756 01e2 3F       		.uleb128 0x3f
 5757 01e3 19       		.uleb128 0x19
 5758 01e4 03       		.uleb128 0x3
 5759 01e5 0E       		.uleb128 0xe
 5760 01e6 3A       		.uleb128 0x3a
 5761 01e7 0B       		.uleb128 0xb
 5762 01e8 3B       		.uleb128 0x3b
 5763 01e9 0B       		.uleb128 0xb
 5764 01ea 27       		.uleb128 0x27
 5765 01eb 19       		.uleb128 0x19
 5766 01ec 49       		.uleb128 0x49
 5767 01ed 13       		.uleb128 0x13
 5768 01ee 20       		.uleb128 0x20
 5769 01ef 0B       		.uleb128 0xb
 5770 01f0 00       		.byte	0
 5771 01f1 00       		.byte	0
 5772 01f2 27       		.uleb128 0x27
 5773 01f3 2E       		.uleb128 0x2e
 5774 01f4 01       		.byte	0x1
 5775 01f5 03       		.uleb128 0x3
ARM GAS  C:\Users\pearlstl\AppData\Local\Temp\ccFIoKDo.s 			page 119


 5776 01f6 0E       		.uleb128 0xe
 5777 01f7 3A       		.uleb128 0x3a
 5778 01f8 0B       		.uleb128 0xb
 5779 01f9 3B       		.uleb128 0x3b
 5780 01fa 05       		.uleb128 0x5
 5781 01fb 27       		.uleb128 0x27
 5782 01fc 19       		.uleb128 0x19
 5783 01fd 49       		.uleb128 0x49
 5784 01fe 13       		.uleb128 0x13
 5785 01ff 11       		.uleb128 0x11
 5786 0200 01       		.uleb128 0x1
 5787 0201 12       		.uleb128 0x12
 5788 0202 06       		.uleb128 0x6
 5789 0203 40       		.uleb128 0x40
 5790 0204 18       		.uleb128 0x18
 5791 0205 9742     		.uleb128 0x2117
 5792 0207 19       		.uleb128 0x19
 5793 0208 01       		.uleb128 0x1
 5794 0209 13       		.uleb128 0x13
 5795 020a 00       		.byte	0
 5796 020b 00       		.byte	0
 5797 020c 28       		.uleb128 0x28
 5798 020d 05       		.uleb128 0x5
 5799 020e 00       		.byte	0
 5800 020f 03       		.uleb128 0x3
 5801 0210 0E       		.uleb128 0xe
 5802 0211 3A       		.uleb128 0x3a
 5803 0212 0B       		.uleb128 0xb
 5804 0213 3B       		.uleb128 0x3b
 5805 0214 05       		.uleb128 0x5
 5806 0215 49       		.uleb128 0x49
 5807 0216 13       		.uleb128 0x13
 5808 0217 02       		.uleb128 0x2
 5809 0218 17       		.uleb128 0x17
 5810 0219 00       		.byte	0
 5811 021a 00       		.byte	0
 5812 021b 29       		.uleb128 0x29
 5813 021c 05       		.uleb128 0x5
 5814 021d 00       		.byte	0
 5815 021e 03       		.uleb128 0x3
 5816 021f 08       		.uleb128 0x8
 5817 0220 3A       		.uleb128 0x3a
 5818 0221 0B       		.uleb128 0xb
 5819 0222 3B       		.uleb128 0x3b
 5820 0223 05       		.uleb128 0x5
 5821 0224 49       		.uleb128 0x49
 5822 0225 13       		.uleb128 0x13
 5823 0226 02       		.uleb128 0x2
 5824 0227 17       		.uleb128 0x17
 5825 0228 00       		.byte	0
 5826 0229 00       		.byte	0
 5827 022a 2A       		.uleb128 0x2a
 5828 022b 34       		.uleb128 0x34
 5829 022c 00       		.byte	0
 5830 022d 03       		.uleb128 0x3
 5831 022e 0E       		.uleb128 0xe
 5832 022f 3A       		.uleb128 0x3a
ARM GAS  C:\Users\pearlstl\AppData\Local\Temp\ccFIoKDo.s 			page 120


 5833 0230 0B       		.uleb128 0xb
 5834 0231 3B       		.uleb128 0x3b
 5835 0232 05       		.uleb128 0x5
 5836 0233 49       		.uleb128 0x49
 5837 0234 13       		.uleb128 0x13
 5838 0235 02       		.uleb128 0x2
 5839 0236 17       		.uleb128 0x17
 5840 0237 00       		.byte	0
 5841 0238 00       		.byte	0
 5842 0239 2B       		.uleb128 0x2b
 5843 023a 0B       		.uleb128 0xb
 5844 023b 01       		.byte	0x1
 5845 023c 55       		.uleb128 0x55
 5846 023d 17       		.uleb128 0x17
 5847 023e 01       		.uleb128 0x1
 5848 023f 13       		.uleb128 0x13
 5849 0240 00       		.byte	0
 5850 0241 00       		.byte	0
 5851 0242 2C       		.uleb128 0x2c
 5852 0243 34       		.uleb128 0x34
 5853 0244 00       		.byte	0
 5854 0245 03       		.uleb128 0x3
 5855 0246 08       		.uleb128 0x8
 5856 0247 3A       		.uleb128 0x3a
 5857 0248 0B       		.uleb128 0xb
 5858 0249 3B       		.uleb128 0x3b
 5859 024a 05       		.uleb128 0x5
 5860 024b 49       		.uleb128 0x49
 5861 024c 13       		.uleb128 0x13
 5862 024d 02       		.uleb128 0x2
 5863 024e 17       		.uleb128 0x17
 5864 024f 00       		.byte	0
 5865 0250 00       		.byte	0
 5866 0251 2D       		.uleb128 0x2d
 5867 0252 898201   		.uleb128 0x4109
 5868 0255 01       		.byte	0x1
 5869 0256 11       		.uleb128 0x11
 5870 0257 01       		.uleb128 0x1
 5871 0258 31       		.uleb128 0x31
 5872 0259 13       		.uleb128 0x13
 5873 025a 01       		.uleb128 0x1
 5874 025b 13       		.uleb128 0x13
 5875 025c 00       		.byte	0
 5876 025d 00       		.byte	0
 5877 025e 2E       		.uleb128 0x2e
 5878 025f 8A8201   		.uleb128 0x410a
 5879 0262 00       		.byte	0
 5880 0263 02       		.uleb128 0x2
 5881 0264 18       		.uleb128 0x18
 5882 0265 9142     		.uleb128 0x2111
 5883 0267 18       		.uleb128 0x18
 5884 0268 00       		.byte	0
 5885 0269 00       		.byte	0
 5886 026a 2F       		.uleb128 0x2f
 5887 026b 898201   		.uleb128 0x4109
 5888 026e 01       		.byte	0x1
 5889 026f 11       		.uleb128 0x11
ARM GAS  C:\Users\pearlstl\AppData\Local\Temp\ccFIoKDo.s 			page 121


 5890 0270 01       		.uleb128 0x1
 5891 0271 01       		.uleb128 0x1
 5892 0272 13       		.uleb128 0x13
 5893 0273 00       		.byte	0
 5894 0274 00       		.byte	0
 5895 0275 30       		.uleb128 0x30
 5896 0276 898201   		.uleb128 0x4109
 5897 0279 01       		.byte	0x1
 5898 027a 11       		.uleb128 0x11
 5899 027b 01       		.uleb128 0x1
 5900 027c 31       		.uleb128 0x31
 5901 027d 13       		.uleb128 0x13
 5902 027e 00       		.byte	0
 5903 027f 00       		.byte	0
 5904 0280 31       		.uleb128 0x31
 5905 0281 2E       		.uleb128 0x2e
 5906 0282 01       		.byte	0x1
 5907 0283 31       		.uleb128 0x31
 5908 0284 13       		.uleb128 0x13
 5909 0285 11       		.uleb128 0x11
 5910 0286 01       		.uleb128 0x1
 5911 0287 12       		.uleb128 0x12
 5912 0288 06       		.uleb128 0x6
 5913 0289 40       		.uleb128 0x40
 5914 028a 18       		.uleb128 0x18
 5915 028b 9742     		.uleb128 0x2117
 5916 028d 19       		.uleb128 0x19
 5917 028e 01       		.uleb128 0x1
 5918 028f 13       		.uleb128 0x13
 5919 0290 00       		.byte	0
 5920 0291 00       		.byte	0
 5921 0292 32       		.uleb128 0x32
 5922 0293 05       		.uleb128 0x5
 5923 0294 00       		.byte	0
 5924 0295 31       		.uleb128 0x31
 5925 0296 13       		.uleb128 0x13
 5926 0297 02       		.uleb128 0x2
 5927 0298 17       		.uleb128 0x17
 5928 0299 00       		.byte	0
 5929 029a 00       		.byte	0
 5930 029b 33       		.uleb128 0x33
 5931 029c 34       		.uleb128 0x34
 5932 029d 00       		.byte	0
 5933 029e 31       		.uleb128 0x31
 5934 029f 13       		.uleb128 0x13
 5935 02a0 02       		.uleb128 0x2
 5936 02a1 17       		.uleb128 0x17
 5937 02a2 00       		.byte	0
 5938 02a3 00       		.byte	0
 5939 02a4 34       		.uleb128 0x34
 5940 02a5 34       		.uleb128 0x34
 5941 02a6 00       		.byte	0
 5942 02a7 31       		.uleb128 0x31
 5943 02a8 13       		.uleb128 0x13
 5944 02a9 02       		.uleb128 0x2
 5945 02aa 18       		.uleb128 0x18
 5946 02ab 00       		.byte	0
ARM GAS  C:\Users\pearlstl\AppData\Local\Temp\ccFIoKDo.s 			page 122


 5947 02ac 00       		.byte	0
 5948 02ad 35       		.uleb128 0x35
 5949 02ae 0B       		.uleb128 0xb
 5950 02af 01       		.byte	0x1
 5951 02b0 11       		.uleb128 0x11
 5952 02b1 01       		.uleb128 0x1
 5953 02b2 12       		.uleb128 0x12
 5954 02b3 06       		.uleb128 0x6
 5955 02b4 01       		.uleb128 0x1
 5956 02b5 13       		.uleb128 0x13
 5957 02b6 00       		.byte	0
 5958 02b7 00       		.byte	0
 5959 02b8 36       		.uleb128 0x36
 5960 02b9 1D       		.uleb128 0x1d
 5961 02ba 01       		.byte	0x1
 5962 02bb 31       		.uleb128 0x31
 5963 02bc 13       		.uleb128 0x13
 5964 02bd 11       		.uleb128 0x11
 5965 02be 01       		.uleb128 0x1
 5966 02bf 12       		.uleb128 0x12
 5967 02c0 06       		.uleb128 0x6
 5968 02c1 58       		.uleb128 0x58
 5969 02c2 0B       		.uleb128 0xb
 5970 02c3 59       		.uleb128 0x59
 5971 02c4 05       		.uleb128 0x5
 5972 02c5 01       		.uleb128 0x1
 5973 02c6 13       		.uleb128 0x13
 5974 02c7 00       		.byte	0
 5975 02c8 00       		.byte	0
 5976 02c9 37       		.uleb128 0x37
 5977 02ca 05       		.uleb128 0x5
 5978 02cb 00       		.byte	0
 5979 02cc 31       		.uleb128 0x31
 5980 02cd 13       		.uleb128 0x13
 5981 02ce 02       		.uleb128 0x2
 5982 02cf 18       		.uleb128 0x18
 5983 02d0 00       		.byte	0
 5984 02d1 00       		.byte	0
 5985 02d2 38       		.uleb128 0x38
 5986 02d3 0B       		.uleb128 0xb
 5987 02d4 01       		.byte	0x1
 5988 02d5 11       		.uleb128 0x11
 5989 02d6 01       		.uleb128 0x1
 5990 02d7 12       		.uleb128 0x12
 5991 02d8 06       		.uleb128 0x6
 5992 02d9 00       		.byte	0
 5993 02da 00       		.byte	0
 5994 02db 39       		.uleb128 0x39
 5995 02dc 34       		.uleb128 0x34
 5996 02dd 00       		.byte	0
 5997 02de 31       		.uleb128 0x31
 5998 02df 13       		.uleb128 0x13
 5999 02e0 00       		.byte	0
 6000 02e1 00       		.byte	0
 6001 02e2 3A       		.uleb128 0x3a
 6002 02e3 898201   		.uleb128 0x4109
 6003 02e6 01       		.byte	0x1
ARM GAS  C:\Users\pearlstl\AppData\Local\Temp\ccFIoKDo.s 			page 123


 6004 02e7 11       		.uleb128 0x11
 6005 02e8 01       		.uleb128 0x1
 6006 02e9 00       		.byte	0
 6007 02ea 00       		.byte	0
 6008 02eb 3B       		.uleb128 0x3b
 6009 02ec 2E       		.uleb128 0x2e
 6010 02ed 01       		.byte	0x1
 6011 02ee 03       		.uleb128 0x3
 6012 02ef 0E       		.uleb128 0xe
 6013 02f0 3A       		.uleb128 0x3a
 6014 02f1 0B       		.uleb128 0xb
 6015 02f2 3B       		.uleb128 0x3b
 6016 02f3 05       		.uleb128 0x5
 6017 02f4 27       		.uleb128 0x27
 6018 02f5 19       		.uleb128 0x19
 6019 02f6 11       		.uleb128 0x11
 6020 02f7 01       		.uleb128 0x1
 6021 02f8 12       		.uleb128 0x12
 6022 02f9 06       		.uleb128 0x6
 6023 02fa 40       		.uleb128 0x40
 6024 02fb 18       		.uleb128 0x18
 6025 02fc 9742     		.uleb128 0x2117
 6026 02fe 19       		.uleb128 0x19
 6027 02ff 01       		.uleb128 0x1
 6028 0300 13       		.uleb128 0x13
 6029 0301 00       		.byte	0
 6030 0302 00       		.byte	0
 6031 0303 3C       		.uleb128 0x3c
 6032 0304 1D       		.uleb128 0x1d
 6033 0305 01       		.byte	0x1
 6034 0306 31       		.uleb128 0x31
 6035 0307 13       		.uleb128 0x13
 6036 0308 52       		.uleb128 0x52
 6037 0309 01       		.uleb128 0x1
 6038 030a 55       		.uleb128 0x55
 6039 030b 17       		.uleb128 0x17
 6040 030c 58       		.uleb128 0x58
 6041 030d 0B       		.uleb128 0xb
 6042 030e 59       		.uleb128 0x59
 6043 030f 05       		.uleb128 0x5
 6044 0310 01       		.uleb128 0x1
 6045 0311 13       		.uleb128 0x13
 6046 0312 00       		.byte	0
 6047 0313 00       		.byte	0
 6048 0314 3D       		.uleb128 0x3d
 6049 0315 0B       		.uleb128 0xb
 6050 0316 01       		.byte	0x1
 6051 0317 55       		.uleb128 0x55
 6052 0318 17       		.uleb128 0x17
 6053 0319 00       		.byte	0
 6054 031a 00       		.byte	0
 6055 031b 3E       		.uleb128 0x3e
 6056 031c 05       		.uleb128 0x5
 6057 031d 00       		.byte	0
 6058 031e 31       		.uleb128 0x31
 6059 031f 13       		.uleb128 0x13
 6060 0320 00       		.byte	0
ARM GAS  C:\Users\pearlstl\AppData\Local\Temp\ccFIoKDo.s 			page 124


 6061 0321 00       		.byte	0
 6062 0322 3F       		.uleb128 0x3f
 6063 0323 898201   		.uleb128 0x4109
 6064 0326 00       		.byte	0
 6065 0327 11       		.uleb128 0x11
 6066 0328 01       		.uleb128 0x1
 6067 0329 31       		.uleb128 0x31
 6068 032a 13       		.uleb128 0x13
 6069 032b 00       		.byte	0
 6070 032c 00       		.byte	0
 6071 032d 40       		.uleb128 0x40
 6072 032e 34       		.uleb128 0x34
 6073 032f 00       		.byte	0
 6074 0330 03       		.uleb128 0x3
 6075 0331 08       		.uleb128 0x8
 6076 0332 3A       		.uleb128 0x3a
 6077 0333 0B       		.uleb128 0xb
 6078 0334 3B       		.uleb128 0x3b
 6079 0335 05       		.uleb128 0x5
 6080 0336 49       		.uleb128 0x49
 6081 0337 13       		.uleb128 0x13
 6082 0338 00       		.byte	0
 6083 0339 00       		.byte	0
 6084 033a 41       		.uleb128 0x41
 6085 033b 34       		.uleb128 0x34
 6086 033c 00       		.byte	0
 6087 033d 03       		.uleb128 0x3
 6088 033e 0E       		.uleb128 0xe
 6089 033f 3A       		.uleb128 0x3a
 6090 0340 0B       		.uleb128 0xb
 6091 0341 3B       		.uleb128 0x3b
 6092 0342 05       		.uleb128 0x5
 6093 0343 49       		.uleb128 0x49
 6094 0344 13       		.uleb128 0x13
 6095 0345 02       		.uleb128 0x2
 6096 0346 18       		.uleb128 0x18
 6097 0347 00       		.byte	0
 6098 0348 00       		.byte	0
 6099 0349 42       		.uleb128 0x42
 6100 034a 1D       		.uleb128 0x1d
 6101 034b 00       		.byte	0
 6102 034c 31       		.uleb128 0x31
 6103 034d 13       		.uleb128 0x13
 6104 034e 11       		.uleb128 0x11
 6105 034f 01       		.uleb128 0x1
 6106 0350 12       		.uleb128 0x12
 6107 0351 06       		.uleb128 0x6
 6108 0352 58       		.uleb128 0x58
 6109 0353 0B       		.uleb128 0xb
 6110 0354 59       		.uleb128 0x59
 6111 0355 05       		.uleb128 0x5
 6112 0356 00       		.byte	0
 6113 0357 00       		.byte	0
 6114 0358 43       		.uleb128 0x43
 6115 0359 2E       		.uleb128 0x2e
 6116 035a 00       		.byte	0
 6117 035b 3F       		.uleb128 0x3f
ARM GAS  C:\Users\pearlstl\AppData\Local\Temp\ccFIoKDo.s 			page 125


 6118 035c 19       		.uleb128 0x19
 6119 035d 03       		.uleb128 0x3
 6120 035e 0E       		.uleb128 0xe
 6121 035f 3A       		.uleb128 0x3a
 6122 0360 0B       		.uleb128 0xb
 6123 0361 3B       		.uleb128 0x3b
 6124 0362 0B       		.uleb128 0xb
 6125 0363 27       		.uleb128 0x27
 6126 0364 19       		.uleb128 0x19
 6127 0365 11       		.uleb128 0x11
 6128 0366 01       		.uleb128 0x1
 6129 0367 12       		.uleb128 0x12
 6130 0368 06       		.uleb128 0x6
 6131 0369 40       		.uleb128 0x40
 6132 036a 18       		.uleb128 0x18
 6133 036b 9742     		.uleb128 0x2117
 6134 036d 19       		.uleb128 0x19
 6135 036e 00       		.byte	0
 6136 036f 00       		.byte	0
 6137 0370 44       		.uleb128 0x44
 6138 0371 2E       		.uleb128 0x2e
 6139 0372 01       		.byte	0x1
 6140 0373 3F       		.uleb128 0x3f
 6141 0374 19       		.uleb128 0x19
 6142 0375 03       		.uleb128 0x3
 6143 0376 0E       		.uleb128 0xe
 6144 0377 3A       		.uleb128 0x3a
 6145 0378 0B       		.uleb128 0xb
 6146 0379 3B       		.uleb128 0x3b
 6147 037a 0B       		.uleb128 0xb
 6148 037b 27       		.uleb128 0x27
 6149 037c 19       		.uleb128 0x19
 6150 037d 11       		.uleb128 0x11
 6151 037e 01       		.uleb128 0x1
 6152 037f 12       		.uleb128 0x12
 6153 0380 06       		.uleb128 0x6
 6154 0381 40       		.uleb128 0x40
 6155 0382 18       		.uleb128 0x18
 6156 0383 9742     		.uleb128 0x2117
 6157 0385 19       		.uleb128 0x19
 6158 0386 01       		.uleb128 0x1
 6159 0387 13       		.uleb128 0x13
 6160 0388 00       		.byte	0
 6161 0389 00       		.byte	0
 6162 038a 45       		.uleb128 0x45
 6163 038b 05       		.uleb128 0x5
 6164 038c 00       		.byte	0
 6165 038d 03       		.uleb128 0x3
 6166 038e 0E       		.uleb128 0xe
 6167 038f 3A       		.uleb128 0x3a
 6168 0390 0B       		.uleb128 0xb
 6169 0391 3B       		.uleb128 0x3b
 6170 0392 0B       		.uleb128 0xb
 6171 0393 49       		.uleb128 0x49
 6172 0394 13       		.uleb128 0x13
 6173 0395 02       		.uleb128 0x2
 6174 0396 17       		.uleb128 0x17
ARM GAS  C:\Users\pearlstl\AppData\Local\Temp\ccFIoKDo.s 			page 126


 6175 0397 00       		.byte	0
 6176 0398 00       		.byte	0
 6177 0399 46       		.uleb128 0x46
 6178 039a 34       		.uleb128 0x34
 6179 039b 00       		.byte	0
 6180 039c 03       		.uleb128 0x3
 6181 039d 0E       		.uleb128 0xe
 6182 039e 3A       		.uleb128 0x3a
 6183 039f 0B       		.uleb128 0xb
 6184 03a0 3B       		.uleb128 0x3b
 6185 03a1 0B       		.uleb128 0xb
 6186 03a2 49       		.uleb128 0x49
 6187 03a3 13       		.uleb128 0x13
 6188 03a4 02       		.uleb128 0x2
 6189 03a5 18       		.uleb128 0x18
 6190 03a6 00       		.byte	0
 6191 03a7 00       		.byte	0
 6192 03a8 47       		.uleb128 0x47
 6193 03a9 34       		.uleb128 0x34
 6194 03aa 00       		.byte	0
 6195 03ab 03       		.uleb128 0x3
 6196 03ac 08       		.uleb128 0x8
 6197 03ad 3A       		.uleb128 0x3a
 6198 03ae 0B       		.uleb128 0xb
 6199 03af 3B       		.uleb128 0x3b
 6200 03b0 0B       		.uleb128 0xb
 6201 03b1 49       		.uleb128 0x49
 6202 03b2 13       		.uleb128 0x13
 6203 03b3 02       		.uleb128 0x2
 6204 03b4 17       		.uleb128 0x17
 6205 03b5 00       		.byte	0
 6206 03b6 00       		.byte	0
 6207 03b7 48       		.uleb128 0x48
 6208 03b8 1D       		.uleb128 0x1d
 6209 03b9 01       		.byte	0x1
 6210 03ba 31       		.uleb128 0x31
 6211 03bb 13       		.uleb128 0x13
 6212 03bc 11       		.uleb128 0x11
 6213 03bd 01       		.uleb128 0x1
 6214 03be 12       		.uleb128 0x12
 6215 03bf 06       		.uleb128 0x6
 6216 03c0 58       		.uleb128 0x58
 6217 03c1 0B       		.uleb128 0xb
 6218 03c2 59       		.uleb128 0x59
 6219 03c3 0B       		.uleb128 0xb
 6220 03c4 01       		.uleb128 0x1
 6221 03c5 13       		.uleb128 0x13
 6222 03c6 00       		.byte	0
 6223 03c7 00       		.byte	0
 6224 03c8 49       		.uleb128 0x49
 6225 03c9 2E       		.uleb128 0x2e
 6226 03ca 00       		.byte	0
 6227 03cb 31       		.uleb128 0x31
 6228 03cc 13       		.uleb128 0x13
 6229 03cd 11       		.uleb128 0x11
 6230 03ce 01       		.uleb128 0x1
 6231 03cf 12       		.uleb128 0x12
ARM GAS  C:\Users\pearlstl\AppData\Local\Temp\ccFIoKDo.s 			page 127


 6232 03d0 06       		.uleb128 0x6
 6233 03d1 40       		.uleb128 0x40
 6234 03d2 18       		.uleb128 0x18
 6235 03d3 9742     		.uleb128 0x2117
 6236 03d5 19       		.uleb128 0x19
 6237 03d6 00       		.byte	0
 6238 03d7 00       		.byte	0
 6239 03d8 4A       		.uleb128 0x4a
 6240 03d9 05       		.uleb128 0x5
 6241 03da 00       		.byte	0
 6242 03db 03       		.uleb128 0x3
 6243 03dc 0E       		.uleb128 0xe
 6244 03dd 3A       		.uleb128 0x3a
 6245 03de 0B       		.uleb128 0xb
 6246 03df 3B       		.uleb128 0x3b
 6247 03e0 0B       		.uleb128 0xb
 6248 03e1 49       		.uleb128 0x49
 6249 03e2 13       		.uleb128 0x13
 6250 03e3 02       		.uleb128 0x2
 6251 03e4 18       		.uleb128 0x18
 6252 03e5 00       		.byte	0
 6253 03e6 00       		.byte	0
 6254 03e7 4B       		.uleb128 0x4b
 6255 03e8 34       		.uleb128 0x34
 6256 03e9 00       		.byte	0
 6257 03ea 03       		.uleb128 0x3
 6258 03eb 0E       		.uleb128 0xe
 6259 03ec 3A       		.uleb128 0x3a
 6260 03ed 0B       		.uleb128 0xb
 6261 03ee 3B       		.uleb128 0x3b
 6262 03ef 0B       		.uleb128 0xb
 6263 03f0 49       		.uleb128 0x49
 6264 03f1 13       		.uleb128 0x13
 6265 03f2 00       		.byte	0
 6266 03f3 00       		.byte	0
 6267 03f4 4C       		.uleb128 0x4c
 6268 03f5 0B       		.uleb128 0xb
 6269 03f6 01       		.byte	0x1
 6270 03f7 01       		.uleb128 0x1
 6271 03f8 13       		.uleb128 0x13
 6272 03f9 00       		.byte	0
 6273 03fa 00       		.byte	0
 6274 03fb 4D       		.uleb128 0x4d
 6275 03fc 34       		.uleb128 0x34
 6276 03fd 00       		.byte	0
 6277 03fe 03       		.uleb128 0x3
 6278 03ff 0E       		.uleb128 0xe
 6279 0400 3A       		.uleb128 0x3a
 6280 0401 0B       		.uleb128 0xb
 6281 0402 3B       		.uleb128 0x3b
 6282 0403 0B       		.uleb128 0xb
 6283 0404 49       		.uleb128 0x49
 6284 0405 13       		.uleb128 0x13
 6285 0406 02       		.uleb128 0x2
 6286 0407 17       		.uleb128 0x17
 6287 0408 00       		.byte	0
 6288 0409 00       		.byte	0
ARM GAS  C:\Users\pearlstl\AppData\Local\Temp\ccFIoKDo.s 			page 128


 6289 040a 4E       		.uleb128 0x4e
 6290 040b 1D       		.uleb128 0x1d
 6291 040c 01       		.byte	0x1
 6292 040d 31       		.uleb128 0x31
 6293 040e 13       		.uleb128 0x13
 6294 040f 52       		.uleb128 0x52
 6295 0410 01       		.uleb128 0x1
 6296 0411 55       		.uleb128 0x55
 6297 0412 17       		.uleb128 0x17
 6298 0413 58       		.uleb128 0x58
 6299 0414 0B       		.uleb128 0xb
 6300 0415 59       		.uleb128 0x59
 6301 0416 0B       		.uleb128 0xb
 6302 0417 01       		.uleb128 0x1
 6303 0418 13       		.uleb128 0x13
 6304 0419 00       		.byte	0
 6305 041a 00       		.byte	0
 6306 041b 4F       		.uleb128 0x4f
 6307 041c 898201   		.uleb128 0x4109
 6308 041f 01       		.byte	0x1
 6309 0420 11       		.uleb128 0x11
 6310 0421 01       		.uleb128 0x1
 6311 0422 9342     		.uleb128 0x2113
 6312 0424 18       		.uleb128 0x18
 6313 0425 01       		.uleb128 0x1
 6314 0426 13       		.uleb128 0x13
 6315 0427 00       		.byte	0
 6316 0428 00       		.byte	0
 6317 0429 50       		.uleb128 0x50
 6318 042a 898201   		.uleb128 0x4109
 6319 042d 00       		.byte	0
 6320 042e 11       		.uleb128 0x11
 6321 042f 01       		.uleb128 0x1
 6322 0430 9542     		.uleb128 0x2115
 6323 0432 19       		.uleb128 0x19
 6324 0433 31       		.uleb128 0x31
 6325 0434 13       		.uleb128 0x13
 6326 0435 00       		.byte	0
 6327 0436 00       		.byte	0
 6328 0437 51       		.uleb128 0x51
 6329 0438 2E       		.uleb128 0x2e
 6330 0439 00       		.byte	0
 6331 043a 3F       		.uleb128 0x3f
 6332 043b 19       		.uleb128 0x19
 6333 043c 3C       		.uleb128 0x3c
 6334 043d 19       		.uleb128 0x19
 6335 043e 6E       		.uleb128 0x6e
 6336 043f 0E       		.uleb128 0xe
 6337 0440 03       		.uleb128 0x3
 6338 0441 0E       		.uleb128 0xe
 6339 0442 3A       		.uleb128 0x3a
 6340 0443 0B       		.uleb128 0xb
 6341 0444 3B       		.uleb128 0x3b
 6342 0445 05       		.uleb128 0x5
 6343 0446 00       		.byte	0
 6344 0447 00       		.byte	0
 6345 0448 52       		.uleb128 0x52
ARM GAS  C:\Users\pearlstl\AppData\Local\Temp\ccFIoKDo.s 			page 129


 6346 0449 2E       		.uleb128 0x2e
 6347 044a 00       		.byte	0
 6348 044b 3F       		.uleb128 0x3f
 6349 044c 19       		.uleb128 0x19
 6350 044d 3C       		.uleb128 0x3c
 6351 044e 19       		.uleb128 0x19
 6352 044f 6E       		.uleb128 0x6e
 6353 0450 0E       		.uleb128 0xe
 6354 0451 03       		.uleb128 0x3
 6355 0452 0E       		.uleb128 0xe
 6356 0453 3A       		.uleb128 0x3a
 6357 0454 0B       		.uleb128 0xb
 6358 0455 3B       		.uleb128 0x3b
 6359 0456 0B       		.uleb128 0xb
 6360 0457 00       		.byte	0
 6361 0458 00       		.byte	0
 6362 0459 53       		.uleb128 0x53
 6363 045a 2E       		.uleb128 0x2e
 6364 045b 00       		.byte	0
 6365 045c 3F       		.uleb128 0x3f
 6366 045d 19       		.uleb128 0x19
 6367 045e 3C       		.uleb128 0x3c
 6368 045f 19       		.uleb128 0x19
 6369 0460 6E       		.uleb128 0x6e
 6370 0461 0E       		.uleb128 0xe
 6371 0462 03       		.uleb128 0x3
 6372 0463 0E       		.uleb128 0xe
 6373 0464 00       		.byte	0
 6374 0465 00       		.byte	0
 6375 0466 00       		.byte	0
 6376              		.section	.debug_loc,"",%progbits
 6377              	.Ldebug_loc0:
 6378              	.LLST0:
 6379 0000 00000000 		.4byte	.LVL0
 6380 0004 0B000000 		.4byte	.LVL3-1
 6381 0008 0100     		.2byte	0x1
 6382 000a 50       		.byte	0x50
 6383 000b 0B000000 		.4byte	.LVL3-1
 6384 000f 6A000000 		.4byte	.LFE45
 6385 0013 0100     		.2byte	0x1
 6386 0015 56       		.byte	0x56
 6387 0016 00000000 		.4byte	0
 6388 001a 00000000 		.4byte	0
 6389              	.LLST1:
 6390 001e 00000000 		.4byte	.LVL0
 6391 0022 06000000 		.4byte	.LVL1
 6392 0026 0100     		.2byte	0x1
 6393 0028 51       		.byte	0x51
 6394 0029 06000000 		.4byte	.LVL1
 6395 002d 6A000000 		.4byte	.LFE45
 6396 0031 0100     		.2byte	0x1
 6397 0033 57       		.byte	0x57
 6398 0034 00000000 		.4byte	0
 6399 0038 00000000 		.4byte	0
 6400              	.LLST2:
 6401 003c 08000000 		.4byte	.LVL2
 6402 0040 24000000 		.4byte	.LVL5
ARM GAS  C:\Users\pearlstl\AppData\Local\Temp\ccFIoKDo.s 			page 130


 6403 0044 0200     		.2byte	0x2
 6404 0046 30       		.byte	0x30
 6405 0047 9F       		.byte	0x9f
 6406 0048 24000000 		.4byte	.LVL5
 6407 004c 26000000 		.4byte	.LVL6
 6408 0050 0100     		.2byte	0x1
 6409 0052 50       		.byte	0x50
 6410 0053 2A000000 		.4byte	.LVL7
 6411 0057 36000000 		.4byte	.LVL9
 6412 005b 0200     		.2byte	0x2
 6413 005d 30       		.byte	0x30
 6414 005e 9F       		.byte	0x9f
 6415 005f 36000000 		.4byte	.LVL9
 6416 0063 3E000000 		.4byte	.LVL11
 6417 0067 0100     		.2byte	0x1
 6418 0069 50       		.byte	0x50
 6419 006a 3E000000 		.4byte	.LVL11
 6420 006e 68000000 		.4byte	.LVL19
 6421 0072 0200     		.2byte	0x2
 6422 0074 30       		.byte	0x30
 6423 0075 9F       		.byte	0x9f
 6424 0076 00000000 		.4byte	0
 6425 007a 00000000 		.4byte	0
 6426              	.LLST3:
 6427 007e 1E000000 		.4byte	.LVL4
 6428 0082 24000000 		.4byte	.LVL5
 6429 0086 0100     		.2byte	0x1
 6430 0088 50       		.byte	0x50
 6431 0089 24000000 		.4byte	.LVL5
 6432 008d 29000000 		.4byte	.LVL7-1
 6433 0091 0100     		.2byte	0x1
 6434 0093 51       		.byte	0x51
 6435 0094 29000000 		.4byte	.LVL7-1
 6436 0098 2A000000 		.4byte	.LVL7
 6437 009c 0100     		.2byte	0x1
 6438 009e 54       		.byte	0x54
 6439 009f 2A000000 		.4byte	.LVL7
 6440 00a3 32000000 		.4byte	.LVL8
 6441 00a7 0100     		.2byte	0x1
 6442 00a9 50       		.byte	0x50
 6443 00aa 32000000 		.4byte	.LVL8
 6444 00ae 35000000 		.4byte	.LVL9-1
 6445 00b2 0100     		.2byte	0x1
 6446 00b4 51       		.byte	0x51
 6447 00b5 35000000 		.4byte	.LVL9-1
 6448 00b9 3C000000 		.4byte	.LVL10
 6449 00bd 0100     		.2byte	0x1
 6450 00bf 54       		.byte	0x54
 6451 00c0 3C000000 		.4byte	.LVL10
 6452 00c4 3E000000 		.4byte	.LVL11
 6453 00c8 0100     		.2byte	0x1
 6454 00ca 51       		.byte	0x51
 6455 00cb 3E000000 		.4byte	.LVL11
 6456 00cf 40000000 		.4byte	.LVL12
 6457 00d3 0100     		.2byte	0x1
 6458 00d5 50       		.byte	0x50
 6459 00d6 40000000 		.4byte	.LVL12
ARM GAS  C:\Users\pearlstl\AppData\Local\Temp\ccFIoKDo.s 			page 131


 6460 00da 4A000000 		.4byte	.LVL14
 6461 00de 0100     		.2byte	0x1
 6462 00e0 54       		.byte	0x54
 6463 00e1 4E000000 		.4byte	.LVL15
 6464 00e5 6A000000 		.4byte	.LFE45
 6465 00e9 0100     		.2byte	0x1
 6466 00eb 54       		.byte	0x54
 6467 00ec 00000000 		.4byte	0
 6468 00f0 00000000 		.4byte	0
 6469              	.LLST4:
 6470 00f4 44000000 		.4byte	.LVL13
 6471 00f8 4A000000 		.4byte	.LVL14
 6472 00fc 0100     		.2byte	0x1
 6473 00fe 50       		.byte	0x50
 6474 00ff 4E000000 		.4byte	.LVL15
 6475 0103 56000000 		.4byte	.LVL16
 6476 0107 0100     		.2byte	0x1
 6477 0109 50       		.byte	0x50
 6478 010a 00000000 		.4byte	0
 6479 010e 00000000 		.4byte	0
 6480              	.LLST5:
 6481 0112 00000000 		.4byte	.LVL20
 6482 0116 11000000 		.4byte	.LVL23-1
 6483 011a 0100     		.2byte	0x1
 6484 011c 50       		.byte	0x50
 6485 011d 11000000 		.4byte	.LVL23-1
 6486 0121 E6000000 		.4byte	.LFE51
 6487 0125 0100     		.2byte	0x1
 6488 0127 55       		.byte	0x55
 6489 0128 00000000 		.4byte	0
 6490 012c 00000000 		.4byte	0
 6491              	.LLST6:
 6492 0130 00000000 		.4byte	.LVL20
 6493 0134 0C000000 		.4byte	.LVL22
 6494 0138 0100     		.2byte	0x1
 6495 013a 51       		.byte	0x51
 6496 013b 0C000000 		.4byte	.LVL22
 6497 013f 6A000000 		.4byte	.LVL32
 6498 0143 0100     		.2byte	0x1
 6499 0145 56       		.byte	0x56
 6500 0146 6A000000 		.4byte	.LVL32
 6501 014a 78000000 		.4byte	.LVL34
 6502 014e 0400     		.2byte	0x4
 6503 0150 F3       		.byte	0xf3
 6504 0151 01       		.uleb128 0x1
 6505 0152 51       		.byte	0x51
 6506 0153 9F       		.byte	0x9f
 6507 0154 78000000 		.4byte	.LVL34
 6508 0158 7A000000 		.4byte	.LVL35
 6509 015c 0100     		.2byte	0x1
 6510 015e 56       		.byte	0x56
 6511 015f 7A000000 		.4byte	.LVL35
 6512 0163 E6000000 		.4byte	.LFE51
 6513 0167 0400     		.2byte	0x4
 6514 0169 F3       		.byte	0xf3
 6515 016a 01       		.uleb128 0x1
 6516 016b 51       		.byte	0x51
ARM GAS  C:\Users\pearlstl\AppData\Local\Temp\ccFIoKDo.s 			page 132


 6517 016c 9F       		.byte	0x9f
 6518 016d 00000000 		.4byte	0
 6519 0171 00000000 		.4byte	0
 6520              	.LLST7:
 6521 0175 46000000 		.4byte	.LVL26
 6522 0179 54000000 		.4byte	.LVL28
 6523 017d 0100     		.2byte	0x1
 6524 017f 50       		.byte	0x50
 6525 0180 68000000 		.4byte	.LVL31
 6526 0184 6A000000 		.4byte	.LVL32
 6527 0188 0100     		.2byte	0x1
 6528 018a 50       		.byte	0x50
 6529 018b 78000000 		.4byte	.LVL34
 6530 018f 7C000000 		.4byte	.LVL36
 6531 0193 0100     		.2byte	0x1
 6532 0195 50       		.byte	0x50
 6533 0196 D0000000 		.4byte	.LVL41
 6534 019a E0000000 		.4byte	.LVL44
 6535 019e 0100     		.2byte	0x1
 6536 01a0 50       		.byte	0x50
 6537 01a1 00000000 		.4byte	0
 6538 01a5 00000000 		.4byte	0
 6539              	.LLST8:
 6540 01a9 08000000 		.4byte	.LVL21
 6541 01ad 2A000000 		.4byte	.LVL24
 6542 01b1 0100     		.2byte	0x1
 6543 01b3 54       		.byte	0x54
 6544 01b4 2A000000 		.4byte	.LVL24
 6545 01b8 30000000 		.4byte	.LVL25
 6546 01bc 0100     		.2byte	0x1
 6547 01be 53       		.byte	0x53
 6548 01bf 9C000000 		.4byte	.LVL40
 6549 01c3 CF000000 		.4byte	.LVL41-1
 6550 01c7 0200     		.2byte	0x2
 6551 01c9 74       		.byte	0x74
 6552 01ca 30       		.sleb128 48
 6553 01cb 00000000 		.4byte	0
 6554 01cf 00000000 		.4byte	0
 6555              	.LLST9:
 6556 01d3 80000000 		.4byte	.LVL37
 6557 01d7 86000000 		.4byte	.LVL38
 6558 01db 0100     		.2byte	0x1
 6559 01dd 50       		.byte	0x50
 6560 01de 86000000 		.4byte	.LVL38
 6561 01e2 8E000000 		.4byte	.LVL39
 6562 01e6 0100     		.2byte	0x1
 6563 01e8 54       		.byte	0x54
 6564 01e9 8E000000 		.4byte	.LVL39
 6565 01ed 9B000000 		.4byte	.LVL40-1
 6566 01f1 0100     		.2byte	0x1
 6567 01f3 50       		.byte	0x50
 6568 01f4 9B000000 		.4byte	.LVL40-1
 6569 01f8 E6000000 		.4byte	.LFE51
 6570 01fc 0100     		.2byte	0x1
 6571 01fe 54       		.byte	0x54
 6572 01ff 00000000 		.4byte	0
 6573 0203 00000000 		.4byte	0
ARM GAS  C:\Users\pearlstl\AppData\Local\Temp\ccFIoKDo.s 			page 133


 6574              	.LLST10:
 6575 0207 D4000000 		.4byte	.LVL42
 6576 020b DE000000 		.4byte	.LVL43
 6577 020f 0300     		.2byte	0x3
 6578 0211 91       		.byte	0x91
 6579 0212 58       		.sleb128 -40
 6580 0213 9F       		.byte	0x9f
 6581 0214 DE000000 		.4byte	.LVL43
 6582 0218 E3000000 		.4byte	.LVL45-1
 6583 021c 0100     		.2byte	0x1
 6584 021e 51       		.byte	0x51
 6585 021f E3000000 		.4byte	.LVL45-1
 6586 0223 E6000000 		.4byte	.LFE51
 6587 0227 0300     		.2byte	0x3
 6588 0229 91       		.byte	0x91
 6589 022a 58       		.sleb128 -40
 6590 022b 9F       		.byte	0x9f
 6591 022c 00000000 		.4byte	0
 6592 0230 00000000 		.4byte	0
 6593              	.LLST11:
 6594 0234 00000000 		.4byte	.LVL46
 6595 0238 15000000 		.4byte	.LVL49-1
 6596 023c 0100     		.2byte	0x1
 6597 023e 50       		.byte	0x50
 6598 023f 15000000 		.4byte	.LVL49-1
 6599 0243 1A000000 		.4byte	.LVL50
 6600 0247 0100     		.2byte	0x1
 6601 0249 54       		.byte	0x54
 6602 024a 5E000000 		.4byte	.LVL62
 6603 024e 62000000 		.4byte	.LVL63
 6604 0252 0100     		.2byte	0x1
 6605 0254 50       		.byte	0x50
 6606 0255 62000000 		.4byte	.LVL63
 6607 0259 74000000 		.4byte	.LVL66
 6608 025d 0100     		.2byte	0x1
 6609 025f 54       		.byte	0x54
 6610 0260 74000000 		.4byte	.LVL66
 6611 0264 78000000 		.4byte	.LVL67
 6612 0268 0100     		.2byte	0x1
 6613 026a 50       		.byte	0x50
 6614 026b 78000000 		.4byte	.LVL67
 6615 026f 7E000000 		.4byte	.LVL69
 6616 0273 0100     		.2byte	0x1
 6617 0275 54       		.byte	0x54
 6618 0276 7E000000 		.4byte	.LVL69
 6619 027a 84000000 		.4byte	.LFE46
 6620 027e 0100     		.2byte	0x1
 6621 0280 50       		.byte	0x50
 6622 0281 00000000 		.4byte	0
 6623 0285 00000000 		.4byte	0
 6624              	.LLST12:
 6625 0289 00000000 		.4byte	.LVL46
 6626 028d 08000000 		.4byte	.LVL47
 6627 0291 0100     		.2byte	0x1
 6628 0293 51       		.byte	0x51
 6629 0294 08000000 		.4byte	.LVL47
 6630 0298 74000000 		.4byte	.LVL66
ARM GAS  C:\Users\pearlstl\AppData\Local\Temp\ccFIoKDo.s 			page 134


 6631 029c 0100     		.2byte	0x1
 6632 029e 57       		.byte	0x57
 6633 029f 74000000 		.4byte	.LVL66
 6634 02a3 7B000000 		.4byte	.LVL68-1
 6635 02a7 0100     		.2byte	0x1
 6636 02a9 51       		.byte	0x51
 6637 02aa 7B000000 		.4byte	.LVL68-1
 6638 02ae 84000000 		.4byte	.LFE46
 6639 02b2 0100     		.2byte	0x1
 6640 02b4 57       		.byte	0x57
 6641 02b5 00000000 		.4byte	0
 6642 02b9 00000000 		.4byte	0
 6643              	.LLST13:
 6644 02bd 16000000 		.4byte	.LVL49
 6645 02c1 1C000000 		.4byte	.LVL51
 6646 02c5 0100     		.2byte	0x1
 6647 02c7 50       		.byte	0x50
 6648 02c8 1C000000 		.4byte	.LVL51
 6649 02cc 54000000 		.4byte	.LVL59
 6650 02d0 0100     		.2byte	0x1
 6651 02d2 56       		.byte	0x56
 6652 02d3 54000000 		.4byte	.LVL59
 6653 02d7 5E000000 		.4byte	.LVL62
 6654 02db 0100     		.2byte	0x1
 6655 02dd 50       		.byte	0x50
 6656 02de 6C000000 		.4byte	.LVL65
 6657 02e2 74000000 		.4byte	.LVL66
 6658 02e6 0100     		.2byte	0x1
 6659 02e8 50       		.byte	0x50
 6660 02e9 00000000 		.4byte	0
 6661 02ed 00000000 		.4byte	0
 6662              	.LLST14:
 6663 02f1 10000000 		.4byte	.LVL48
 6664 02f5 15000000 		.4byte	.LVL49-1
 6665 02f9 0100     		.2byte	0x1
 6666 02fb 50       		.byte	0x50
 6667 02fc 15000000 		.4byte	.LVL49-1
 6668 0300 1C000000 		.4byte	.LVL51
 6669 0304 0100     		.2byte	0x1
 6670 0306 54       		.byte	0x54
 6671 0307 4E000000 		.4byte	.LVL58
 6672 030b 58000000 		.4byte	.LVL61
 6673 030f 0100     		.2byte	0x1
 6674 0311 56       		.byte	0x56
 6675 0312 58000000 		.4byte	.LVL61
 6676 0316 5E000000 		.4byte	.LVL62
 6677 031a 0100     		.2byte	0x1
 6678 031c 54       		.byte	0x54
 6679 031d 66000000 		.4byte	.LVL64
 6680 0321 74000000 		.4byte	.LVL66
 6681 0325 0100     		.2byte	0x1
 6682 0327 54       		.byte	0x54
 6683 0328 00000000 		.4byte	0
 6684 032c 00000000 		.4byte	0
 6685              	.LLST15:
 6686 0330 08000000 		.4byte	.LVL47
 6687 0334 10000000 		.4byte	.LVL48
ARM GAS  C:\Users\pearlstl\AppData\Local\Temp\ccFIoKDo.s 			page 135


 6688 0338 0100     		.2byte	0x1
 6689 033a 57       		.byte	0x57
 6690 033b 5E000000 		.4byte	.LVL62
 6691 033f 66000000 		.4byte	.LVL64
 6692 0343 0100     		.2byte	0x1
 6693 0345 57       		.byte	0x57
 6694 0346 00000000 		.4byte	0
 6695 034a 00000000 		.4byte	0
 6696              	.LLST16:
 6697 034e 08000000 		.4byte	.LVL47
 6698 0352 10000000 		.4byte	.LVL48
 6699 0356 0100     		.2byte	0x1
 6700 0358 50       		.byte	0x50
 6701 0359 5E000000 		.4byte	.LVL62
 6702 035d 62000000 		.4byte	.LVL63
 6703 0361 0100     		.2byte	0x1
 6704 0363 50       		.byte	0x50
 6705 0364 62000000 		.4byte	.LVL63
 6706 0368 66000000 		.4byte	.LVL64
 6707 036c 0100     		.2byte	0x1
 6708 036e 54       		.byte	0x54
 6709 036f 00000000 		.4byte	0
 6710 0373 00000000 		.4byte	0
 6711              	.LLST17:
 6712 0377 24000000 		.4byte	.LVL52
 6713 037b 35000000 		.4byte	.LVL54-1
 6714 037f 0100     		.2byte	0x1
 6715 0381 50       		.byte	0x50
 6716 0382 35000000 		.4byte	.LVL54-1
 6717 0386 3E000000 		.4byte	.LVL55
 6718 038a 0100     		.2byte	0x1
 6719 038c 54       		.byte	0x54
 6720 038d 3E000000 		.4byte	.LVL55
 6721 0391 4C000000 		.4byte	.LVL57
 6722 0395 0100     		.2byte	0x1
 6723 0397 50       		.byte	0x50
 6724 0398 4C000000 		.4byte	.LVL57
 6725 039c 56000000 		.4byte	.LVL60
 6726 03a0 0100     		.2byte	0x1
 6727 03a2 54       		.byte	0x54
 6728 03a3 00000000 		.4byte	0
 6729 03a7 00000000 		.4byte	0
 6730              	.LLST18:
 6731 03ab 28000000 		.4byte	.LVL53
 6732 03af 35000000 		.4byte	.LVL54-1
 6733 03b3 0100     		.2byte	0x1
 6734 03b5 50       		.byte	0x50
 6735 03b6 35000000 		.4byte	.LVL54-1
 6736 03ba 40000000 		.4byte	.LVL56
 6737 03be 0100     		.2byte	0x1
 6738 03c0 54       		.byte	0x54
 6739 03c1 00000000 		.4byte	0
 6740 03c5 00000000 		.4byte	0
 6741              	.LLST19:
 6742 03c9 00000000 		.4byte	.LVL70
 6743 03cd 0A000000 		.4byte	.LVL71
 6744 03d1 0100     		.2byte	0x1
ARM GAS  C:\Users\pearlstl\AppData\Local\Temp\ccFIoKDo.s 			page 136


 6745 03d3 50       		.byte	0x50
 6746 03d4 0A000000 		.4byte	.LVL71
 6747 03d8 28000000 		.4byte	.LVL77
 6748 03dc 0100     		.2byte	0x1
 6749 03de 56       		.byte	0x56
 6750 03df 28000000 		.4byte	.LVL77
 6751 03e3 5E000000 		.4byte	.LVL87
 6752 03e7 0400     		.2byte	0x4
 6753 03e9 F3       		.byte	0xf3
 6754 03ea 01       		.uleb128 0x1
 6755 03eb 50       		.byte	0x50
 6756 03ec 9F       		.byte	0x9f
 6757 03ed 5E000000 		.4byte	.LVL87
 6758 03f1 6C000000 		.4byte	.LVL88
 6759 03f5 0100     		.2byte	0x1
 6760 03f7 56       		.byte	0x56
 6761 03f8 6C000000 		.4byte	.LVL88
 6762 03fc C0000000 		.4byte	.LFE44
 6763 0400 0400     		.2byte	0x4
 6764 0402 F3       		.byte	0xf3
 6765 0403 01       		.uleb128 0x1
 6766 0404 50       		.byte	0x50
 6767 0405 9F       		.byte	0x9f
 6768 0406 00000000 		.4byte	0
 6769 040a 00000000 		.4byte	0
 6770              	.LLST20:
 6771 040e 10000000 		.4byte	.LVL73
 6772 0412 12000000 		.4byte	.LVL74
 6773 0416 0100     		.2byte	0x1
 6774 0418 50       		.byte	0x50
 6775 0419 12000000 		.4byte	.LVL74
 6776 041d 5A000000 		.4byte	.LVL86
 6777 0421 0100     		.2byte	0x1
 6778 0423 54       		.byte	0x54
 6779 0424 5E000000 		.4byte	.LVL87
 6780 0428 74000000 		.4byte	.LVL90
 6781 042c 0100     		.2byte	0x1
 6782 042e 54       		.byte	0x54
 6783 042f 00000000 		.4byte	0
 6784 0433 00000000 		.4byte	0
 6785              	.LLST21:
 6786 0437 34000000 		.4byte	.LVL79
 6787 043b 39000000 		.4byte	.LVL80-1
 6788 043f 0100     		.2byte	0x1
 6789 0441 50       		.byte	0x50
 6790 0442 00000000 		.4byte	0
 6791 0446 00000000 		.4byte	0
 6792              	.LLST22:
 6793 044a 74000000 		.4byte	.LVL90
 6794 044e 76000000 		.4byte	.LVL91
 6795 0452 0100     		.2byte	0x1
 6796 0454 50       		.byte	0x50
 6797 0455 76000000 		.4byte	.LVL91
 6798 0459 C0000000 		.4byte	.LFE44
 6799 045d 0100     		.2byte	0x1
 6800 045f 54       		.byte	0x54
 6801 0460 00000000 		.4byte	0
ARM GAS  C:\Users\pearlstl\AppData\Local\Temp\ccFIoKDo.s 			page 137


 6802 0464 00000000 		.4byte	0
 6803              	.LLST23:
 6804 0468 00000000 		.4byte	.LVL95
 6805 046c 1F000000 		.4byte	.LVL97-1
 6806 0470 0100     		.2byte	0x1
 6807 0472 50       		.byte	0x50
 6808 0473 1F000000 		.4byte	.LVL97-1
 6809 0477 7E000000 		.4byte	.LVL109
 6810 047b 0100     		.2byte	0x1
 6811 047d 55       		.byte	0x55
 6812 047e 7E000000 		.4byte	.LVL109
 6813 0482 91000000 		.4byte	.LVL111-1
 6814 0486 0100     		.2byte	0x1
 6815 0488 50       		.byte	0x50
 6816 0489 91000000 		.4byte	.LVL111-1
 6817 048d 92000000 		.4byte	.LVL111
 6818 0491 0100     		.2byte	0x1
 6819 0493 55       		.byte	0x55
 6820 0494 92000000 		.4byte	.LVL111
 6821 0498 9A000000 		.4byte	.LVL112
 6822 049c 0100     		.2byte	0x1
 6823 049e 50       		.byte	0x50
 6824 049f 9A000000 		.4byte	.LVL112
 6825 04a3 D2000000 		.4byte	.LFE37
 6826 04a7 0100     		.2byte	0x1
 6827 04a9 55       		.byte	0x55
 6828 04aa 00000000 		.4byte	0
 6829 04ae 00000000 		.4byte	0
 6830              	.LLST24:
 6831 04b2 00000000 		.4byte	.LVL95
 6832 04b6 0C000000 		.4byte	.LVL96
 6833 04ba 0100     		.2byte	0x1
 6834 04bc 51       		.byte	0x51
 6835 04bd 0C000000 		.4byte	.LVL96
 6836 04c1 56000000 		.4byte	.LVL102
 6837 04c5 0100     		.2byte	0x1
 6838 04c7 54       		.byte	0x54
 6839 04c8 56000000 		.4byte	.LVL102
 6840 04cc 7E000000 		.4byte	.LVL109
 6841 04d0 0400     		.2byte	0x4
 6842 04d2 F3       		.byte	0xf3
 6843 04d3 01       		.uleb128 0x1
 6844 04d4 51       		.byte	0x51
 6845 04d5 9F       		.byte	0x9f
 6846 04d6 7E000000 		.4byte	.LVL109
 6847 04da 8E000000 		.4byte	.LVL110
 6848 04de 0100     		.2byte	0x1
 6849 04e0 54       		.byte	0x54
 6850 04e1 8E000000 		.4byte	.LVL110
 6851 04e5 91000000 		.4byte	.LVL111-1
 6852 04e9 0100     		.2byte	0x1
 6853 04eb 51       		.byte	0x51
 6854 04ec 91000000 		.4byte	.LVL111-1
 6855 04f0 9A000000 		.4byte	.LVL112
 6856 04f4 0100     		.2byte	0x1
 6857 04f6 54       		.byte	0x54
 6858 04f7 9A000000 		.4byte	.LVL112
ARM GAS  C:\Users\pearlstl\AppData\Local\Temp\ccFIoKDo.s 			page 138


 6859 04fb D2000000 		.4byte	.LFE37
 6860 04ff 0400     		.2byte	0x4
 6861 0501 F3       		.byte	0xf3
 6862 0502 01       		.uleb128 0x1
 6863 0503 51       		.byte	0x51
 6864 0504 9F       		.byte	0x9f
 6865 0505 00000000 		.4byte	0
 6866 0509 00000000 		.4byte	0
 6867              	.LLST25:
 6868 050d 3C000000 		.4byte	.LVL99
 6869 0511 46000000 		.4byte	.LVL100
 6870 0515 0100     		.2byte	0x1
 6871 0517 50       		.byte	0x50
 6872 0518 00000000 		.4byte	0
 6873 051c 00000000 		.4byte	0
 6874              	.LLST26:
 6875 0520 48000000 		.4byte	.LVL101
 6876 0524 58000000 		.4byte	.LVL103
 6877 0528 0200     		.2byte	0x2
 6878 052a 30       		.byte	0x30
 6879 052b 9F       		.byte	0x9f
 6880 052c 58000000 		.4byte	.LVL103
 6881 0530 72000000 		.4byte	.LVL106
 6882 0534 0100     		.2byte	0x1
 6883 0536 54       		.byte	0x54
 6884 0537 74000000 		.4byte	.LVL107
 6885 053b 7A000000 		.4byte	.LVL108
 6886 053f 0100     		.2byte	0x1
 6887 0541 54       		.byte	0x54
 6888 0542 9A000000 		.4byte	.LVL112
 6889 0546 A8000000 		.4byte	.LVL114
 6890 054a 0100     		.2byte	0x1
 6891 054c 54       		.byte	0x54
 6892 054d 00000000 		.4byte	0
 6893 0551 00000000 		.4byte	0
 6894              	.LLST27:
 6895 0555 9E000000 		.4byte	.LVL113
 6896 0559 A8000000 		.4byte	.LVL114
 6897 055d 0100     		.2byte	0x1
 6898 055f 5D       		.byte	0x5d
 6899 0560 00000000 		.4byte	0
 6900 0564 00000000 		.4byte	0
 6901              	.LLST28:
 6902 0568 9E000000 		.4byte	.LVL113
 6903 056c A8000000 		.4byte	.LVL114
 6904 0570 0300     		.2byte	0x3
 6905 0572 75       		.byte	0x75
 6906 0573 3C       		.sleb128 60
 6907 0574 9F       		.byte	0x9f
 6908 0575 00000000 		.4byte	0
 6909 0579 00000000 		.4byte	0
 6910              	.LLST29:
 6911 057d B8000000 		.4byte	.LVL115
 6912 0581 BA000000 		.4byte	.LVL116
 6913 0585 0300     		.2byte	0x3
 6914 0587 91       		.byte	0x91
 6915 0588 68       		.sleb128 -24
ARM GAS  C:\Users\pearlstl\AppData\Local\Temp\ccFIoKDo.s 			page 139


 6916 0589 9F       		.byte	0x9f
 6917 058a BA000000 		.4byte	.LVL116
 6918 058e BC000000 		.4byte	.LVL117
 6919 0592 0100     		.2byte	0x1
 6920 0594 52       		.byte	0x52
 6921 0595 BC000000 		.4byte	.LVL117
 6922 0599 D2000000 		.4byte	.LFE37
 6923 059d 0300     		.2byte	0x3
 6924 059f 72       		.byte	0x72
 6925 05a0 78       		.sleb128 -8
 6926 05a1 9F       		.byte	0x9f
 6927 05a2 00000000 		.4byte	0
 6928 05a6 00000000 		.4byte	0
 6929              	.LLST30:
 6930 05aa B8000000 		.4byte	.LVL115
 6931 05ae BE000000 		.4byte	.LVL118
 6932 05b2 0A00     		.2byte	0xa
 6933 05b4 73       		.byte	0x73
 6934 05b5 07       		.sleb128 7
 6935 05b6 33       		.byte	0x33
 6936 05b7 24       		.byte	0x24
 6937 05b8 75       		.byte	0x75
 6938 05b9 00       		.sleb128 0
 6939 05ba 22       		.byte	0x22
 6940 05bb 23       		.byte	0x23
 6941 05bc 04       		.uleb128 0x4
 6942 05bd 9F       		.byte	0x9f
 6943 05be BE000000 		.4byte	.LVL118
 6944 05c2 C2000000 		.4byte	.LVL119
 6945 05c6 0A00     		.2byte	0xa
 6946 05c8 73       		.byte	0x73
 6947 05c9 00       		.sleb128 0
 6948 05ca 33       		.byte	0x33
 6949 05cb 24       		.byte	0x24
 6950 05cc 75       		.byte	0x75
 6951 05cd 00       		.sleb128 0
 6952 05ce 22       		.byte	0x22
 6953 05cf 23       		.byte	0x23
 6954 05d0 04       		.uleb128 0x4
 6955 05d1 9F       		.byte	0x9f
 6956 05d2 00000000 		.4byte	0
 6957 05d6 00000000 		.4byte	0
 6958              	.LLST31:
 6959 05da 00000000 		.4byte	.LVL121
 6960 05de 0B000000 		.4byte	.LVL122-1
 6961 05e2 0100     		.2byte	0x1
 6962 05e4 50       		.byte	0x50
 6963 05e5 0B000000 		.4byte	.LVL122-1
 6964 05e9 0E000000 		.4byte	.LVL123
 6965 05ed 0100     		.2byte	0x1
 6966 05ef 54       		.byte	0x54
 6967 05f0 0E000000 		.4byte	.LVL123
 6968 05f4 4C040000 		.4byte	.LFE40
 6969 05f8 0400     		.2byte	0x4
 6970 05fa F3       		.byte	0xf3
 6971 05fb 01       		.uleb128 0x1
 6972 05fc 50       		.byte	0x50
ARM GAS  C:\Users\pearlstl\AppData\Local\Temp\ccFIoKDo.s 			page 140


 6973 05fd 9F       		.byte	0x9f
 6974 05fe 00000000 		.4byte	0
 6975 0602 00000000 		.4byte	0
 6976              	.LLST32:
 6977 0606 16000000 		.4byte	.LVL124
 6978 060a 28000000 		.4byte	.LVL126
 6979 060e 0100     		.2byte	0x1
 6980 0610 50       		.byte	0x50
 6981 0611 28000000 		.4byte	.LVL126
 6982 0615 4C040000 		.4byte	.LFE40
 6983 0619 0200     		.2byte	0x2
 6984 061b 91       		.byte	0x91
 6985 061c 4C       		.sleb128 -52
 6986 061d 00000000 		.4byte	0
 6987 0621 00000000 		.4byte	0
 6988              	.LLST33:
 6989 0625 34000000 		.4byte	.LVL127
 6990 0629 44000000 		.4byte	.LVL128
 6991 062d 0200     		.2byte	0x2
 6992 062f 30       		.byte	0x30
 6993 0630 9F       		.byte	0x9f
 6994 0631 44000000 		.4byte	.LVL128
 6995 0635 C4000000 		.4byte	.LVL137
 6996 0639 0100     		.2byte	0x1
 6997 063b 55       		.byte	0x55
 6998 063c 76020000 		.4byte	.LVL175
 6999 0640 8C020000 		.4byte	.LVL180
 7000 0644 0100     		.2byte	0x1
 7001 0646 55       		.byte	0x55
 7002 0647 00000000 		.4byte	0
 7003 064b 00000000 		.4byte	0
 7004              	.LLST34:
 7005 064f 1C000000 		.4byte	.LVL125
 7006 0653 28000000 		.4byte	.LVL126
 7007 0657 0200     		.2byte	0x2
 7008 0659 30       		.byte	0x30
 7009 065a 9F       		.byte	0x9f
 7010 065b 28000000 		.4byte	.LVL126
 7011 065f CC000000 		.4byte	.LVL139
 7012 0663 0100     		.2byte	0x1
 7013 0665 5A       		.byte	0x5a
 7014 0666 76020000 		.4byte	.LVL175
 7015 066a 8C020000 		.4byte	.LVL180
 7016 066e 0100     		.2byte	0x1
 7017 0670 5A       		.byte	0x5a
 7018 0671 00000000 		.4byte	0
 7019 0675 00000000 		.4byte	0
 7020              	.LLST35:
 7021 0679 76020000 		.4byte	.LVL175
 7022 067d 78020000 		.4byte	.LVL176
 7023 0681 0300     		.2byte	0x3
 7024 0683 91       		.byte	0x91
 7025 0684 50       		.sleb128 -48
 7026 0685 9F       		.byte	0x9f
 7027 0686 78020000 		.4byte	.LVL176
 7028 068a 7A020000 		.4byte	.LVL177
 7029 068e 0100     		.2byte	0x1
ARM GAS  C:\Users\pearlstl\AppData\Local\Temp\ccFIoKDo.s 			page 141


 7030 0690 53       		.byte	0x53
 7031 0691 7A020000 		.4byte	.LVL177
 7032 0695 80020000 		.4byte	.LVL178
 7033 0699 0300     		.2byte	0x3
 7034 069b 73       		.byte	0x73
 7035 069c 78       		.sleb128 -8
 7036 069d 9F       		.byte	0x9f
 7037 069e 80020000 		.4byte	.LVL178
 7038 06a2 86020000 		.4byte	.LVL179
 7039 06a6 0300     		.2byte	0x3
 7040 06a8 91       		.byte	0x91
 7041 06a9 50       		.sleb128 -48
 7042 06aa 9F       		.byte	0x9f
 7043 06ab 00000000 		.4byte	0
 7044 06af 00000000 		.4byte	0
 7045              	.LLST36:
 7046 06b3 D0000000 		.4byte	.LVL140
 7047 06b7 DA000000 		.4byte	.LVL141
 7048 06bb 0200     		.2byte	0x2
 7049 06bd 30       		.byte	0x30
 7050 06be 9F       		.byte	0x9f
 7051 06bf DC000000 		.4byte	.LVL142
 7052 06c3 C0010000 		.4byte	.LVL162
 7053 06c7 0100     		.2byte	0x1
 7054 06c9 55       		.byte	0x55
 7055 06ca C0010000 		.4byte	.LVL162
 7056 06ce 0E020000 		.4byte	.LVL168
 7057 06d2 0200     		.2byte	0x2
 7058 06d4 91       		.byte	0x91
 7059 06d5 48       		.sleb128 -56
 7060 06d6 0E020000 		.4byte	.LVL168
 7061 06da 58020000 		.4byte	.LVL172
 7062 06de 0600     		.2byte	0x6
 7063 06e0 91       		.byte	0x91
 7064 06e1 44       		.sleb128 -60
 7065 06e2 06       		.byte	0x6
 7066 06e3 37       		.byte	0x37
 7067 06e4 1C       		.byte	0x1c
 7068 06e5 9F       		.byte	0x9f
 7069 06e6 58020000 		.4byte	.LVL172
 7070 06ea 60020000 		.4byte	.LVL173
 7071 06ee 0100     		.2byte	0x1
 7072 06f0 55       		.byte	0x55
 7073 06f1 8C020000 		.4byte	.LVL180
 7074 06f5 BA020000 		.4byte	.LVL187
 7075 06f9 0100     		.2byte	0x1
 7076 06fb 55       		.byte	0x55
 7077 06fc BA020000 		.4byte	.LVL187
 7078 0700 C4020000 		.4byte	.LVL188
 7079 0704 0600     		.2byte	0x6
 7080 0706 91       		.byte	0x91
 7081 0707 44       		.sleb128 -60
 7082 0708 06       		.byte	0x6
 7083 0709 37       		.byte	0x37
 7084 070a 1C       		.byte	0x1c
 7085 070b 9F       		.byte	0x9f
 7086 070c C4020000 		.4byte	.LVL188
ARM GAS  C:\Users\pearlstl\AppData\Local\Temp\ccFIoKDo.s 			page 142


 7087 0710 D8020000 		.4byte	.LVL191
 7088 0714 0100     		.2byte	0x1
 7089 0716 55       		.byte	0x55
 7090 0717 3A030000 		.4byte	.LVL199
 7091 071b 3E030000 		.4byte	.LVL200
 7092 071f 0100     		.2byte	0x1
 7093 0721 55       		.byte	0x55
 7094 0722 00000000 		.4byte	0
 7095 0726 00000000 		.4byte	0
 7096              	.LLST37:
 7097 072a FC000000 		.4byte	.LVL144
 7098 072e FF000000 		.4byte	.LVL145-1
 7099 0732 0100     		.2byte	0x1
 7100 0734 53       		.byte	0x53
 7101 0735 FF000000 		.4byte	.LVL145-1
 7102 0739 30020000 		.4byte	.LVL169
 7103 073d 0300     		.2byte	0x3
 7104 073f 91       		.byte	0x91
 7105 0740 BC7F     		.sleb128 -68
 7106 0742 8C020000 		.4byte	.LVL180
 7107 0746 B2020000 		.4byte	.LVL186
 7108 074a 0300     		.2byte	0x3
 7109 074c 91       		.byte	0x91
 7110 074d BC7F     		.sleb128 -68
 7111 074f C4020000 		.4byte	.LVL188
 7112 0753 D8020000 		.4byte	.LVL191
 7113 0757 0300     		.2byte	0x3
 7114 0759 91       		.byte	0x91
 7115 075a BC7F     		.sleb128 -68
 7116 075c 3A030000 		.4byte	.LVL199
 7117 0760 3E030000 		.4byte	.LVL200
 7118 0764 0300     		.2byte	0x3
 7119 0766 91       		.byte	0x91
 7120 0767 BC7F     		.sleb128 -68
 7121 0769 00000000 		.4byte	0
 7122 076d 00000000 		.4byte	0
 7123              	.LLST38:
 7124 0771 26010000 		.4byte	.LVL147
 7125 0775 28010000 		.4byte	.LVL148
 7126 0779 0100     		.2byte	0x1
 7127 077b 50       		.byte	0x50
 7128 077c 28010000 		.4byte	.LVL148
 7129 0780 30020000 		.4byte	.LVL169
 7130 0784 0100     		.2byte	0x1
 7131 0786 58       		.byte	0x58
 7132 0787 C4020000 		.4byte	.LVL188
 7133 078b D8020000 		.4byte	.LVL191
 7134 078f 0100     		.2byte	0x1
 7135 0791 58       		.byte	0x58
 7136 0792 3A030000 		.4byte	.LVL199
 7137 0796 3E030000 		.4byte	.LVL200
 7138 079a 0100     		.2byte	0x1
 7139 079c 58       		.byte	0x58
 7140 079d 00000000 		.4byte	0
 7141 07a1 00000000 		.4byte	0
 7142              	.LLST39:
 7143 07a5 3E010000 		.4byte	.LVL151
ARM GAS  C:\Users\pearlstl\AppData\Local\Temp\ccFIoKDo.s 			page 143


 7144 07a9 C6010000 		.4byte	.LVL164
 7145 07ad 0100     		.2byte	0x1
 7146 07af 59       		.byte	0x59
 7147 07b0 D2020000 		.4byte	.LVL190
 7148 07b4 D8020000 		.4byte	.LVL191
 7149 07b8 0100     		.2byte	0x1
 7150 07ba 59       		.byte	0x59
 7151 07bb 3A030000 		.4byte	.LVL199
 7152 07bf 3E030000 		.4byte	.LVL200
 7153 07c3 0100     		.2byte	0x1
 7154 07c5 59       		.byte	0x59
 7155 07c6 00000000 		.4byte	0
 7156 07ca 00000000 		.4byte	0
 7157              	.LLST40:
 7158 07ce 48010000 		.4byte	.LVL152
 7159 07d2 C2010000 		.4byte	.LVL163
 7160 07d6 0100     		.2byte	0x1
 7161 07d8 5A       		.byte	0x5a
 7162 07d9 C2010000 		.4byte	.LVL163
 7163 07dd 0E020000 		.4byte	.LVL168
 7164 07e1 0200     		.2byte	0x2
 7165 07e3 91       		.byte	0x91
 7166 07e4 40       		.sleb128 -64
 7167 07e5 3A030000 		.4byte	.LVL199
 7168 07e9 3E030000 		.4byte	.LVL200
 7169 07ed 0100     		.2byte	0x1
 7170 07ef 5A       		.byte	0x5a
 7171 07f0 00000000 		.4byte	0
 7172 07f4 00000000 		.4byte	0
 7173              	.LLST41:
 7174 07f8 A2010000 		.4byte	.LVL161
 7175 07fc F2010000 		.4byte	.LVL165
 7176 0800 0100     		.2byte	0x1
 7177 0802 54       		.byte	0x54
 7178 0803 F2010000 		.4byte	.LVL165
 7179 0807 F5010000 		.4byte	.LVL166-1
 7180 080b 0200     		.2byte	0x2
 7181 080d 78       		.byte	0x78
 7182 080e 12       		.sleb128 18
 7183 080f FA010000 		.4byte	.LVL167
 7184 0813 30020000 		.4byte	.LVL169
 7185 0817 0100     		.2byte	0x1
 7186 0819 54       		.byte	0x54
 7187 081a 3A030000 		.4byte	.LVL199
 7188 081e 3E030000 		.4byte	.LVL200
 7189 0822 0100     		.2byte	0x1
 7190 0824 54       		.byte	0x54
 7191 0825 00000000 		.4byte	0
 7192 0829 00000000 		.4byte	0
 7193              	.LLST42:
 7194 082d 9A010000 		.4byte	.LVL160
 7195 0831 C6010000 		.4byte	.LVL164
 7196 0835 0200     		.2byte	0x2
 7197 0837 30       		.byte	0x30
 7198 0838 9F       		.byte	0x9f
 7199 0839 3A030000 		.4byte	.LVL199
 7200 083d 3E030000 		.4byte	.LVL200
ARM GAS  C:\Users\pearlstl\AppData\Local\Temp\ccFIoKDo.s 			page 144


 7201 0841 0200     		.2byte	0x2
 7202 0843 30       		.byte	0x30
 7203 0844 9F       		.byte	0x9f
 7204 0845 00000000 		.4byte	0
 7205 0849 00000000 		.4byte	0
 7206              	.LLST43:
 7207 084d 26010000 		.4byte	.LVL147
 7208 0851 38020000 		.4byte	.LVL170
 7209 0855 0300     		.2byte	0x3
 7210 0857 91       		.byte	0x91
 7211 0858 BC7F     		.sleb128 -68
 7212 085a C4020000 		.4byte	.LVL188
 7213 085e D8020000 		.4byte	.LVL191
 7214 0862 0300     		.2byte	0x3
 7215 0864 91       		.byte	0x91
 7216 0865 BC7F     		.sleb128 -68
 7217 0867 3A030000 		.4byte	.LVL199
 7218 086b 3E030000 		.4byte	.LVL200
 7219 086f 0300     		.2byte	0x3
 7220 0871 91       		.byte	0x91
 7221 0872 BC7F     		.sleb128 -68
 7222 0874 00000000 		.4byte	0
 7223 0878 00000000 		.4byte	0
 7224              	.LLST45:
 7225 087c 2E010000 		.4byte	.LVL149
 7226 0880 68010000 		.4byte	.LVL155
 7227 0884 0300     		.2byte	0x3
 7228 0886 91       		.byte	0x91
 7229 0887 BC7F     		.sleb128 -68
 7230 0889 68010000 		.4byte	.LVL155
 7231 088d 72010000 		.4byte	.LVL156
 7232 0891 0300     		.2byte	0x3
 7233 0893 91       		.byte	0x91
 7234 0894 50       		.sleb128 -48
 7235 0895 9F       		.byte	0x9f
 7236 0896 80010000 		.4byte	.LVL157
 7237 089a 9A010000 		.4byte	.LVL160
 7238 089e 0300     		.2byte	0x3
 7239 08a0 91       		.byte	0x91
 7240 08a1 50       		.sleb128 -48
 7241 08a2 9F       		.byte	0x9f
 7242 08a3 C4020000 		.4byte	.LVL188
 7243 08a7 D8020000 		.4byte	.LVL191
 7244 08ab 0300     		.2byte	0x3
 7245 08ad 91       		.byte	0x91
 7246 08ae BC7F     		.sleb128 -68
 7247 08b0 00000000 		.4byte	0
 7248 08b4 00000000 		.4byte	0
 7249              	.LLST47:
 7250 08b8 66010000 		.4byte	.LVL154
 7251 08bc 68010000 		.4byte	.LVL155
 7252 08c0 0100     		.2byte	0x1
 7253 08c2 5B       		.byte	0x5b
 7254 08c3 68010000 		.4byte	.LVL155
 7255 08c7 72010000 		.4byte	.LVL156
 7256 08cb 0100     		.2byte	0x1
 7257 08cd 56       		.byte	0x56
ARM GAS  C:\Users\pearlstl\AppData\Local\Temp\ccFIoKDo.s 			page 145


 7258 08ce 72010000 		.4byte	.LVL156
 7259 08d2 80010000 		.4byte	.LVL157
 7260 08d6 0100     		.2byte	0x1
 7261 08d8 5B       		.byte	0x5b
 7262 08d9 80010000 		.4byte	.LVL157
 7263 08dd 92010000 		.4byte	.LVL159
 7264 08e1 0100     		.2byte	0x1
 7265 08e3 56       		.byte	0x56
 7266 08e4 92010000 		.4byte	.LVL159
 7267 08e8 9A010000 		.4byte	.LVL160
 7268 08ec 0100     		.2byte	0x1
 7269 08ee 5B       		.byte	0x5b
 7270 08ef 00000000 		.4byte	0
 7271 08f3 00000000 		.4byte	0
 7272              	.LLST48:
 7273 08f7 94020000 		.4byte	.LVL182
 7274 08fb 96020000 		.4byte	.LVL183
 7275 08ff 0100     		.2byte	0x1
 7276 0901 50       		.byte	0x50
 7277 0902 96020000 		.4byte	.LVL183
 7278 0906 B2020000 		.4byte	.LVL186
 7279 090a 0100     		.2byte	0x1
 7280 090c 54       		.byte	0x54
 7281 090d 00000000 		.4byte	0
 7282 0911 00000000 		.4byte	0
 7283              	.LLST49:
 7284 0915 46030000 		.4byte	.LVL202
 7285 0919 48030000 		.4byte	.LVL203
 7286 091d 0100     		.2byte	0x1
 7287 091f 50       		.byte	0x50
 7288 0920 48030000 		.4byte	.LVL203
 7289 0924 BA030000 		.4byte	.LVL214
 7290 0928 0100     		.2byte	0x1
 7291 092a 55       		.byte	0x55
 7292 092b 38040000 		.4byte	.LVL223
 7293 092f 4C040000 		.4byte	.LFE40
 7294 0933 0100     		.2byte	0x1
 7295 0935 55       		.byte	0x55
 7296 0936 00000000 		.4byte	0
 7297 093a 00000000 		.4byte	0
 7298              	.LLST50:
 7299 093e 90030000 		.4byte	.LVL209
 7300 0942 96030000 		.4byte	.LVL210
 7301 0946 0100     		.2byte	0x1
 7302 0948 53       		.byte	0x53
 7303 0949 96030000 		.4byte	.LVL210
 7304 094d 38040000 		.4byte	.LVL223
 7305 0951 0200     		.2byte	0x2
 7306 0953 91       		.byte	0x91
 7307 0954 40       		.sleb128 -64
 7308 0955 00000000 		.4byte	0
 7309 0959 00000000 		.4byte	0
 7310              	.LLST51:
 7311 095d 90030000 		.4byte	.LVL209
 7312 0961 98030000 		.4byte	.LVL211
 7313 0965 0300     		.2byte	0x3
 7314 0967 91       		.byte	0x91
ARM GAS  C:\Users\pearlstl\AppData\Local\Temp\ccFIoKDo.s 			page 146


 7315 0968 BC7F     		.sleb128 -68
 7316 096a 00000000 		.4byte	0
 7317 096e 00000000 		.4byte	0
 7318              	.LLST52:
 7319 0972 A6030000 		.4byte	.LVL213
 7320 0976 BA030000 		.4byte	.LVL214
 7321 097a 0100     		.2byte	0x1
 7322 097c 50       		.byte	0x50
 7323 097d BA030000 		.4byte	.LVL214
 7324 0981 38040000 		.4byte	.LVL223
 7325 0985 0200     		.2byte	0x2
 7326 0987 91       		.byte	0x91
 7327 0988 44       		.sleb128 -60
 7328 0989 00000000 		.4byte	0
 7329 098d 00000000 		.4byte	0
 7330              	.LLST53:
 7331 0991 A6030000 		.4byte	.LVL213
 7332 0995 BA030000 		.4byte	.LVL214
 7333 0999 0200     		.2byte	0x2
 7334 099b 30       		.byte	0x30
 7335 099c 9F       		.byte	0x9f
 7336 099d BA030000 		.4byte	.LVL214
 7337 09a1 2C040000 		.4byte	.LVL221
 7338 09a5 0100     		.2byte	0x1
 7339 09a7 5A       		.byte	0x5a
 7340 09a8 30040000 		.4byte	.LVL222
 7341 09ac 38040000 		.4byte	.LVL223
 7342 09b0 0100     		.2byte	0x1
 7343 09b2 5A       		.byte	0x5a
 7344 09b3 00000000 		.4byte	0
 7345 09b7 00000000 		.4byte	0
 7346              	.LLST54:
 7347 09bb 4E030000 		.4byte	.LVL205
 7348 09bf 50030000 		.4byte	.LVL206
 7349 09c3 0100     		.2byte	0x1
 7350 09c5 50       		.byte	0x50
 7351 09c6 50030000 		.4byte	.LVL206
 7352 09ca BA030000 		.4byte	.LVL214
 7353 09ce 0100     		.2byte	0x1
 7354 09d0 54       		.byte	0x54
 7355 09d1 38040000 		.4byte	.LVL223
 7356 09d5 4C040000 		.4byte	.LFE40
 7357 09d9 0100     		.2byte	0x1
 7358 09db 54       		.byte	0x54
 7359 09dc 00000000 		.4byte	0
 7360 09e0 00000000 		.4byte	0
 7361              	.LLST55:
 7362 09e4 FA030000 		.4byte	.LVL215
 7363 09e8 10040000 		.4byte	.LVL218
 7364 09ec 0100     		.2byte	0x1
 7365 09ee 54       		.byte	0x54
 7366 09ef 18040000 		.4byte	.LVL219
 7367 09f3 28040000 		.4byte	.LVL220
 7368 09f7 0100     		.2byte	0x1
 7369 09f9 54       		.byte	0x54
 7370 09fa 00000000 		.4byte	0
 7371 09fe 00000000 		.4byte	0
ARM GAS  C:\Users\pearlstl\AppData\Local\Temp\ccFIoKDo.s 			page 147


 7372              	.LLST56:
 7373 0a02 FA030000 		.4byte	.LVL215
 7374 0a06 04040000 		.4byte	.LVL216
 7375 0a0a 0100     		.2byte	0x1
 7376 0a0c 55       		.byte	0x55
 7377 0a0d 00000000 		.4byte	0
 7378 0a11 00000000 		.4byte	0
 7379              	.LLST57:
 7380 0a15 FA030000 		.4byte	.LVL215
 7381 0a19 28040000 		.4byte	.LVL220
 7382 0a1d 0100     		.2byte	0x1
 7383 0a1f 58       		.byte	0x58
 7384 0a20 00000000 		.4byte	0
 7385 0a24 00000000 		.4byte	0
 7386              	.LLST58:
 7387 0a28 00000000 		.4byte	.LVL224
 7388 0a2c 04000000 		.4byte	.LVL225
 7389 0a30 0100     		.2byte	0x1
 7390 0a32 50       		.byte	0x50
 7391 0a33 04000000 		.4byte	.LVL225
 7392 0a37 08000000 		.4byte	.LVL226
 7393 0a3b 0400     		.2byte	0x4
 7394 0a3d F3       		.byte	0xf3
 7395 0a3e 01       		.uleb128 0x1
 7396 0a3f 50       		.byte	0x50
 7397 0a40 9F       		.byte	0x9f
 7398 0a41 08000000 		.4byte	.LVL226
 7399 0a45 0D000000 		.4byte	.LVL227-1
 7400 0a49 0100     		.2byte	0x1
 7401 0a4b 50       		.byte	0x50
 7402 0a4c 0D000000 		.4byte	.LVL227-1
 7403 0a50 26000000 		.4byte	.LFE36
 7404 0a54 0400     		.2byte	0x4
 7405 0a56 F3       		.byte	0xf3
 7406 0a57 01       		.uleb128 0x1
 7407 0a58 50       		.byte	0x50
 7408 0a59 9F       		.byte	0x9f
 7409 0a5a 00000000 		.4byte	0
 7410 0a5e 00000000 		.4byte	0
 7411              	.LLST59:
 7412 0a62 0E000000 		.4byte	.LVL227
 7413 0a66 14000000 		.4byte	.LVL228
 7414 0a6a 0100     		.2byte	0x1
 7415 0a6c 50       		.byte	0x50
 7416 0a6d 14000000 		.4byte	.LVL228
 7417 0a71 1E000000 		.4byte	.LVL230
 7418 0a75 0100     		.2byte	0x1
 7419 0a77 54       		.byte	0x54
 7420 0a78 1E000000 		.4byte	.LVL230
 7421 0a7c 26000000 		.4byte	.LFE36
 7422 0a80 0100     		.2byte	0x1
 7423 0a82 50       		.byte	0x50
 7424 0a83 00000000 		.4byte	0
 7425 0a87 00000000 		.4byte	0
 7426              		.section	.debug_aranges,"",%progbits
 7427 0000 64000000 		.4byte	0x64
 7428 0004 0200     		.2byte	0x2
ARM GAS  C:\Users\pearlstl\AppData\Local\Temp\ccFIoKDo.s 			page 148


 7429 0006 00000000 		.4byte	.Ldebug_info0
 7430 000a 04       		.byte	0x4
 7431 000b 00       		.byte	0
 7432 000c 0000     		.2byte	0
 7433 000e 0000     		.2byte	0
 7434 0010 00000000 		.4byte	.LFB45
 7435 0014 6A000000 		.4byte	.LFE45-.LFB45
 7436 0018 00000000 		.4byte	.LFB51
 7437 001c E6000000 		.4byte	.LFE51-.LFB51
 7438 0020 00000000 		.4byte	.LFB46
 7439 0024 84000000 		.4byte	.LFE46-.LFB46
 7440 0028 00000000 		.4byte	.LFB44
 7441 002c C0000000 		.4byte	.LFE44-.LFB44
 7442 0030 00000000 		.4byte	.LFB35
 7443 0034 02000000 		.4byte	.LFE35-.LFB35
 7444 0038 00000000 		.4byte	.LFB37
 7445 003c D2000000 		.4byte	.LFE37-.LFB37
 7446 0040 00000000 		.4byte	.LFB38
 7447 0044 0C000000 		.4byte	.LFE38-.LFB38
 7448 0048 00000000 		.4byte	.LFB39
 7449 004c 0C000000 		.4byte	.LFE39-.LFB39
 7450 0050 00000000 		.4byte	.LFB40
 7451 0054 4C040000 		.4byte	.LFE40-.LFB40
 7452 0058 00000000 		.4byte	.LFB36
 7453 005c 26000000 		.4byte	.LFE36-.LFB36
 7454 0060 00000000 		.4byte	0
 7455 0064 00000000 		.4byte	0
 7456              		.section	.debug_ranges,"",%progbits
 7457              	.Ldebug_ranges0:
 7458 0000 16000000 		.4byte	.LBB30
 7459 0004 3C000000 		.4byte	.LBE30
 7460 0008 3E000000 		.4byte	.LBB33
 7461 000c 4A000000 		.4byte	.LBE33
 7462 0010 4E000000 		.4byte	.LBB34
 7463 0014 68000000 		.4byte	.LBE34
 7464 0018 00000000 		.4byte	0
 7465 001c 00000000 		.4byte	0
 7466 0020 08000000 		.4byte	.LBB41
 7467 0024 10000000 		.4byte	.LBE41
 7468 0028 5E000000 		.4byte	.LBB47
 7469 002c 66000000 		.4byte	.LBE47
 7470 0030 00000000 		.4byte	0
 7471 0034 00000000 		.4byte	0
 7472 0038 6C000000 		.4byte	.LBB52
 7473 003c A8000000 		.4byte	.LBE52
 7474 0040 AC000000 		.4byte	.LBB57
 7475 0044 C0000000 		.4byte	.LBE57
 7476 0048 00000000 		.4byte	0
 7477 004c 00000000 		.4byte	0
 7478 0050 3E000000 		.4byte	.LBB58
 7479 0054 7A000000 		.4byte	.LBE58
 7480 0058 9A000000 		.4byte	.LBB63
 7481 005c B4000000 		.4byte	.LBE63
 7482 0060 B8000000 		.4byte	.LBB64
 7483 0064 D2000000 		.4byte	.LBE64
 7484 0068 00000000 		.4byte	0
 7485 006c 00000000 		.4byte	0
ARM GAS  C:\Users\pearlstl\AppData\Local\Temp\ccFIoKDo.s 			page 149


 7486 0070 10000000 		.4byte	.LBB90
 7487 0074 14000000 		.4byte	.LBE90
 7488 0078 16000000 		.4byte	.LBB101
 7489 007c 1A000000 		.4byte	.LBE101
 7490 0080 1C000000 		.4byte	.LBB102
 7491 0084 CC000000 		.4byte	.LBE102
 7492 0088 76020000 		.4byte	.LBB136
 7493 008c 8C020000 		.4byte	.LBE136
 7494 0090 00000000 		.4byte	0
 7495 0094 00000000 		.4byte	0
 7496 0098 76020000 		.4byte	.LBB92
 7497 009c 7A020000 		.4byte	.LBE92
 7498 00a0 7C020000 		.4byte	.LBB96
 7499 00a4 80020000 		.4byte	.LBE96
 7500 00a8 82020000 		.4byte	.LBB97
 7501 00ac 86020000 		.4byte	.LBE97
 7502 00b0 00000000 		.4byte	0
 7503 00b4 00000000 		.4byte	0
 7504 00b8 CC000000 		.4byte	.LBB103
 7505 00bc 60020000 		.4byte	.LBE103
 7506 00c0 8C020000 		.4byte	.LBB137
 7507 00c4 DC020000 		.4byte	.LBE137
 7508 00c8 3A030000 		.4byte	.LBB138
 7509 00cc 3E030000 		.4byte	.LBE138
 7510 00d0 00000000 		.4byte	0
 7511 00d4 00000000 		.4byte	0
 7512 00d8 F4000000 		.4byte	.LBB105
 7513 00dc F6000000 		.4byte	.LBE105
 7514 00e0 FC000000 		.4byte	.LBB130
 7515 00e4 30020000 		.4byte	.LBE130
 7516 00e8 8C020000 		.4byte	.LBB131
 7517 00ec B2020000 		.4byte	.LBE131
 7518 00f0 C4020000 		.4byte	.LBB132
 7519 00f4 D8020000 		.4byte	.LBE132
 7520 00f8 3A030000 		.4byte	.LBB133
 7521 00fc 3E030000 		.4byte	.LBE133
 7522 0100 00000000 		.4byte	0
 7523 0104 00000000 		.4byte	0
 7524 0108 06010000 		.4byte	.LBB107
 7525 010c 30020000 		.4byte	.LBE107
 7526 0110 C4020000 		.4byte	.LBB124
 7527 0114 D8020000 		.4byte	.LBE124
 7528 0118 3A030000 		.4byte	.LBB125
 7529 011c 3E030000 		.4byte	.LBE125
 7530 0120 00000000 		.4byte	0
 7531 0124 00000000 		.4byte	0
 7532 0128 0C010000 		.4byte	.LBB108
 7533 012c 18010000 		.4byte	.LBE108
 7534 0130 1A010000 		.4byte	.LBB117
 7535 0134 20010000 		.4byte	.LBE117
 7536 0138 2A010000 		.4byte	.LBB120
 7537 013c 2E010000 		.4byte	.LBE120
 7538 0140 00000000 		.4byte	0
 7539 0144 00000000 		.4byte	0
 7540 0148 18010000 		.4byte	.LBB112
 7541 014c 1A010000 		.4byte	.LBE112
 7542 0150 20010000 		.4byte	.LBB118
ARM GAS  C:\Users\pearlstl\AppData\Local\Temp\ccFIoKDo.s 			page 150


 7543 0154 24010000 		.4byte	.LBE118
 7544 0158 28010000 		.4byte	.LBB119
 7545 015c 2A010000 		.4byte	.LBE119
 7546 0160 34010000 		.4byte	.LBB121
 7547 0164 36010000 		.4byte	.LBE121
 7548 0168 00000000 		.4byte	0
 7549 016c 00000000 		.4byte	0
 7550 0170 46030000 		.4byte	.LBB140
 7551 0174 84030000 		.4byte	.LBE140
 7552 0178 38040000 		.4byte	.LBB152
 7553 017c 4C040000 		.4byte	.LBE152
 7554 0180 00000000 		.4byte	0
 7555 0184 00000000 		.4byte	0
 7556 0188 CE030000 		.4byte	.LBB146
 7557 018c D4030000 		.4byte	.LBE146
 7558 0190 E0030000 		.4byte	.LBB150
 7559 0194 E6030000 		.4byte	.LBE150
 7560 0198 E8030000 		.4byte	.LBB151
 7561 019c EC030000 		.4byte	.LBE151
 7562 01a0 00000000 		.4byte	0
 7563 01a4 00000000 		.4byte	0
 7564 01a8 00000000 		.4byte	.LFB45
 7565 01ac 6A000000 		.4byte	.LFE45
 7566 01b0 00000000 		.4byte	.LFB51
 7567 01b4 E6000000 		.4byte	.LFE51
 7568 01b8 00000000 		.4byte	.LFB46
 7569 01bc 84000000 		.4byte	.LFE46
 7570 01c0 00000000 		.4byte	.LFB44
 7571 01c4 C0000000 		.4byte	.LFE44
 7572 01c8 00000000 		.4byte	.LFB35
 7573 01cc 02000000 		.4byte	.LFE35
 7574 01d0 00000000 		.4byte	.LFB37
 7575 01d4 D2000000 		.4byte	.LFE37
 7576 01d8 00000000 		.4byte	.LFB38
 7577 01dc 0C000000 		.4byte	.LFE38
 7578 01e0 00000000 		.4byte	.LFB39
 7579 01e4 0C000000 		.4byte	.LFE39
 7580 01e8 00000000 		.4byte	.LFB40
 7581 01ec 4C040000 		.4byte	.LFE40
 7582 01f0 00000000 		.4byte	.LFB36
 7583 01f4 26000000 		.4byte	.LFE36
 7584 01f8 00000000 		.4byte	0
 7585 01fc 00000000 		.4byte	0
 7586              		.section	.debug_line,"",%progbits
 7587              	.Ldebug_line0:
 7588 0000 97060000 		.section	.debug_str,"MS",%progbits,1
 7588      02005F03 
 7588      00000201 
 7588      FB0E0D00 
 7588      01010101 
 7589              	.LASF16:
 7590 0000 696E7438 		.ascii	"int8_t\000"
 7590      5F7400
 7591              	.LASF120:
 7592 0007 636F6C6F 		.ascii	"color_chroma_key\000"
 7592      725F6368 
 7592      726F6D61 
ARM GAS  C:\Users\pearlstl\AppData\Local\Temp\ccFIoKDo.s 			page 151


 7592      5F6B6579 
 7592      00
 7593              	.LASF205:
 7594 0018 6C765F72 		.ascii	"lv_refr_join_area\000"
 7594      6566725F 
 7594      6A6F696E 
 7594      5F617265 
 7594      6100
 7595              	.LASF88:
 7596 002a 6C765F6C 		.ascii	"lv_ll_node_t\000"
 7596      6C5F6E6F 
 7596      64655F74 
 7596      00
 7597              	.LASF23:
 7598 0037 6164765F 		.ascii	"adv_w\000"
 7598      7700
 7599              	.LASF55:
 7600 003d 73697A65 		.ascii	"sizetype\000"
 7600      74797065 
 7600      00
 7601              	.LASF155:
 7602 0046 6C765F64 		.ascii	"lv_disp_t\000"
 7602      6973705F 
 7602      7400
 7603              	.LASF198:
 7604 0050 6C765F72 		.ascii	"lv_refr_area_part\000"
 7604      6566725F 
 7604      61726561 
 7604      5F706172 
 7604      7400
 7605              	.LASF52:
 7606 0062 6C765F63 		.ascii	"lv_color32_t\000"
 7606      6F6C6F72 
 7606      33325F74 
 7606      00
 7607              	.LASF254:
 7608 006f 6C765F72 		.ascii	"lv_refr_get_disp_refreshing\000"
 7608      6566725F 
 7608      6765745F 
 7608      64697370 
 7608      5F726566 
 7609              	.LASF91:
 7610 008b 7461696C 		.ascii	"tail\000"
 7610      00
 7611              	.LASF126:
 7612 0090 6163745F 		.ascii	"act_scr\000"
 7612      73637200 
 7613              	.LASF54:
 7614 0098 6C765F6F 		.ascii	"lv_opa_t\000"
 7614      70615F74 
 7614      00
 7615              	.LASF20:
 7616 00a1 696E7433 		.ascii	"int32_t\000"
 7616      325F7400 
 7617              	.LASF78:
 7618 00a9 696E7465 		.ascii	"intense\000"
 7618      6E736500 
ARM GAS  C:\Users\pearlstl\AppData\Local\Temp\ccFIoKDo.s 			page 152


 7619              	.LASF255:
 7620 00b1 6C765F72 		.ascii	"lv_refr_get_top_obj\000"
 7620      6566725F 
 7620      6765745F 
 7620      746F705F 
 7620      6F626A00 
 7621              	.LASF70:
 7622 00c5 72616469 		.ascii	"radius\000"
 7622      757300
 7623              	.LASF172:
 7624 00cc 6C765F72 		.ascii	"lv_reailgn_t\000"
 7624      6561696C 
 7624      676E5F74 
 7624      00
 7625              	.LASF31:
 7626 00d9 6C696E65 		.ascii	"line_height\000"
 7626      5F686569 
 7626      67687400 
 7627              	.LASF141:
 7628 00e5 636C6963 		.ascii	"click\000"
 7628      6B00
 7629              	.LASF165:
 7630 00eb 6C765F61 		.ascii	"lv_align_t\000"
 7630      6C69676E 
 7630      5F7400
 7631              	.LASF161:
 7632 00f6 6C765F65 		.ascii	"lv_event_t\000"
 7632      76656E74 
 7632      5F7400
 7633              	.LASF180:
 7634 0101 6C765F72 		.ascii	"lv_refr_obj\000"
 7634      6566725F 
 7634      6F626A00 
 7635              	.LASF189:
 7636 010d 6368696C 		.ascii	"child_area\000"
 7636      645F6172 
 7636      656100
 7637              	.LASF63:
 7638 0118 74797065 		.ascii	"type\000"
 7638      00
 7639              	.LASF251:
 7640 011d 474E5520 		.ascii	"GNU C11 5.4.1 20160609 (release) [ARM/embedded-5-br"
 7640      43313120 
 7640      352E342E 
 7640      31203230 
 7640      31363036 
 7641 0150 616E6368 		.ascii	"anch revision 237715] -mcpu=cortex-m4 -mfloat-abi=s"
 7641      20726576 
 7641      6973696F 
 7641      6E203233 
 7641      37373135 
 7642 0183 6F667466 		.ascii	"oftfp -mfpu=fpv4-sp-d16 -mthumb -g -O3 -ffunction-s"
 7642      70202D6D 
 7642      6670753D 
 7642      66707634 
 7642      2D73702D 
 7643 01b6 65637469 		.ascii	"ections -ffat-lto-objects\000"
ARM GAS  C:\Users\pearlstl\AppData\Local\Temp\ccFIoKDo.s 			page 153


 7643      6F6E7320 
 7643      2D666661 
 7643      742D6C74 
 7643      6F2D6F62 
 7644              	.LASF101:
 7645 01d0 7072696F 		.ascii	"prio\000"
 7645      00
 7646              	.LASF125:
 7647 01d5 7363725F 		.ascii	"scr_ll\000"
 7647      6C6C00
 7648              	.LASF5:
 7649 01dc 5F5F7569 		.ascii	"__uint8_t\000"
 7649      6E74385F 
 7649      7400
 7650              	.LASF50:
 7651 01e6 616C7068 		.ascii	"alpha\000"
 7651      6100
 7652              	.LASF113:
 7653 01ec 7665725F 		.ascii	"ver_res\000"
 7653      72657300 
 7654              	.LASF208:
 7655 01f4 6A6F696E 		.ascii	"joined_area\000"
 7655      65645F61 
 7655      72656100 
 7656              	.LASF145:
 7657 0200 68696464 		.ascii	"hidden\000"
 7657      656E00
 7658              	.LASF132:
 7659 0207 6C617374 		.ascii	"last_activity_time\000"
 7659      5F616374 
 7659      69766974 
 7659      795F7469 
 7659      6D6500
 7660              	.LASF12:
 7661 021a 6C6F6E67 		.ascii	"long int\000"
 7661      20696E74 
 7661      00
 7662              	.LASF124:
 7663 0223 72656672 		.ascii	"refr_task\000"
 7663      5F746173 
 7663      6B00
 7664              	.LASF115:
 7665 022d 726F7461 		.ascii	"rotated\000"
 7665      74656400 
 7666              	.LASF256:
 7667 0235 6C765F72 		.ascii	"lv_refr_init\000"
 7667      6566725F 
 7667      696E6974 
 7667      00
 7668              	.LASF177:
 7669 0242 61726561 		.ascii	"area_p\000"
 7669      5F7000
 7670              	.LASF231:
 7671 0249 6C765F61 		.ascii	"lv_area_intersect\000"
 7671      7265615F 
 7671      696E7465 
 7671      72736563 
ARM GAS  C:\Users\pearlstl\AppData\Local\Temp\ccFIoKDo.s 			page 154


 7671      7400
 7672              	.LASF90:
 7673 025b 68656164 		.ascii	"head\000"
 7673      00
 7674              	.LASF250:
 7675 0260 6C765F64 		.ascii	"lv_disp_get_next\000"
 7675      6973705F 
 7675      6765745F 
 7675      6E657874 
 7675      00
 7676              	.LASF181:
 7677 0271 6D61736B 		.ascii	"mask_ori_p\000"
 7677      5F6F7269 
 7677      5F7000
 7678              	.LASF118:
 7679 027c 7365745F 		.ascii	"set_px_cb\000"
 7679      70785F63 
 7679      6200
 7680              	.LASF3:
 7681 0286 7369676E 		.ascii	"signed char\000"
 7681      65642063 
 7681      68617200 
 7682              	.LASF17:
 7683 0292 75696E74 		.ascii	"uint8_t\000"
 7683      385F7400 
 7684              	.LASF112:
 7685 029a 686F725F 		.ascii	"hor_res\000"
 7685      72657300 
 7686              	.LASF227:
 7687 02a2 6C765F61 		.ascii	"lv_area_is_in\000"
 7687      7265615F 
 7687      69735F69 
 7687      6E00
 7688              	.LASF213:
 7689 02b0 6C765F64 		.ascii	"lv_disp_refr_task\000"
 7689      6973705F 
 7689      72656672 
 7689      5F746173 
 7689      6B00
 7690              	.LASF30:
 7691 02c2 6765745F 		.ascii	"get_glyph_bitmap\000"
 7691      676C7970 
 7691      685F6269 
 7691      746D6170 
 7691      00
 7692              	.LASF48:
 7693 02d3 626C7565 		.ascii	"blue\000"
 7693      00
 7694              	.LASF190:
 7695 02d8 666F756E 		.ascii	"found_p\000"
 7695      645F7000 
 7696              	.LASF6:
 7697 02e0 756E7369 		.ascii	"unsigned char\000"
 7697      676E6564 
 7697      20636861 
 7697      7200
 7698              	.LASF127:
ARM GAS  C:\Users\pearlstl\AppData\Local\Temp\ccFIoKDo.s 			page 155


 7699 02ee 746F705F 		.ascii	"top_layer\000"
 7699      6C617965 
 7699      7200
 7700              	.LASF223:
 7701 02f8 6C765F6F 		.ascii	"lv_obj_get_style\000"
 7701      626A5F67 
 7701      65745F73 
 7701      74796C65 
 7701      00
 7702              	.LASF148:
 7703 0309 64726167 		.ascii	"drag_dir\000"
 7703      5F646972 
 7703      00
 7704              	.LASF99:
 7705 0312 7461736B 		.ascii	"task_cb\000"
 7705      5F636200 
 7706              	.LASF26:
 7707 031a 6F66735F 		.ascii	"ofs_x\000"
 7707      7800
 7708              	.LASF27:
 7709 0320 6F66735F 		.ascii	"ofs_y\000"
 7709      7900
 7710              	.LASF33:
 7711 0326 5F426F6F 		.ascii	"_Bool\000"
 7711      6C00
 7712              	.LASF244:
 7713 032c 6C765F61 		.ascii	"lv_area_get_size\000"
 7713      7265615F 
 7713      6765745F 
 7713      73697A65 
 7713      00
 7714              	.LASF164:
 7715 033d 6C765F73 		.ascii	"lv_signal_cb_t\000"
 7715      69676E61 
 7715      6C5F6362 
 7715      5F7400
 7716              	.LASF130:
 7717 034c 696E765F 		.ascii	"inv_area_joined\000"
 7717      61726561 
 7717      5F6A6F69 
 7717      6E656400 
 7718              	.LASF183:
 7719 035c 6F626A5F 		.ascii	"obj_mask\000"
 7719      6D61736B 
 7719      00
 7720              	.LASF56:
 7721 0365 63686172 		.ascii	"char\000"
 7721      00
 7722              	.LASF179:
 7723 036a 6C765F61 		.ascii	"lv_area_copy\000"
 7723      7265615F 
 7723      636F7079 
 7723      00
 7724              	.LASF245:
 7725 0377 6C765F74 		.ascii	"lv_tick_get\000"
 7725      69636B5F 
 7725      67657400 
ARM GAS  C:\Users\pearlstl\AppData\Local\Temp\ccFIoKDo.s 			page 156


 7726              	.LASF157:
 7727 0383 4C565F44 		.ascii	"LV_DESIGN_DRAW_POST\000"
 7727      45534947 
 7727      4E5F4452 
 7727      41575F50 
 7727      4F535400 
 7728              	.LASF82:
 7729 0397 626F6479 		.ascii	"body\000"
 7729      00
 7730              	.LASF168:
 7731 039c 796F6673 		.ascii	"yofs\000"
 7731      00
 7732              	.LASF96:
 7733 03a1 5F6C765F 		.ascii	"_lv_task_t\000"
 7733      7461736B 
 7733      5F7400
 7734              	.LASF9:
 7735 03ac 5F5F7569 		.ascii	"__uint16_t\000"
 7735      6E743136 
 7735      5F7400
 7736              	.LASF158:
 7737 03b7 4C565F44 		.ascii	"LV_DESIGN_COVER_CHK\000"
 7737      45534947 
 7737      4E5F434F 
 7737      5645525F 
 7737      43484B00 
 7738              	.LASF239:
 7739 03cb 6C765F64 		.ascii	"lv_disp_get_hor_res\000"
 7739      6973705F 
 7739      6765745F 
 7739      686F725F 
 7739      72657300 
 7740              	.LASF220:
 7741 03df 6C765F72 		.ascii	"lv_refr_now\000"
 7741      6566725F 
 7741      6E6F7700 
 7742              	.LASF138:
 7743 03eb 64657369 		.ascii	"design_cb\000"
 7743      676E5F63 
 7743      6200
 7744              	.LASF162:
 7745 03f5 6C765F65 		.ascii	"lv_event_cb_t\000"
 7745      76656E74 
 7745      5F63625F 
 7745      7400
 7746              	.LASF109:
 7747 0403 666C7573 		.ascii	"flushing\000"
 7747      68696E67 
 7747      00
 7748              	.LASF235:
 7749 040c 6C765F64 		.ascii	"lv_disp_is_double_buf\000"
 7749      6973705F 
 7749      69735F64 
 7749      6F75626C 
 7749      655F6275 
 7750              	.LASF83:
 7751 0422 74657874 		.ascii	"text\000"
ARM GAS  C:\Users\pearlstl\AppData\Local\Temp\ccFIoKDo.s 			page 157


 7751      00
 7752              	.LASF84:
 7753 0427 696D6167 		.ascii	"image\000"
 7753      6500
 7754              	.LASF80:
 7755 042d 726F756E 		.ascii	"rounded\000"
 7755      64656400 
 7756              	.LASF143:
 7757 0435 64726167 		.ascii	"drag_throw\000"
 7757      5F746872 
 7757      6F7700
 7758              	.LASF93:
 7759 0440 6C765F62 		.ascii	"lv_bidi_dir_t\000"
 7759      6964695F 
 7759      6469725F 
 7759      7400
 7760              	.LASF153:
 7761 044e 6578745F 		.ascii	"ext_draw_pad\000"
 7761      64726177 
 7761      5F706164 
 7761      00
 7762              	.LASF214:
 7763 045b 7461736B 		.ascii	"task\000"
 7763      00
 7764              	.LASF57:
 7765 0460 6C765F61 		.ascii	"lv_area_t\000"
 7765      7265615F 
 7765      7400
 7766              	.LASF114:
 7767 046a 62756666 		.ascii	"buffer\000"
 7767      657200
 7768              	.LASF241:
 7769 0471 6C765F64 		.ascii	"lv_disp_get_default\000"
 7769      6973705F 
 7769      6765745F 
 7769      64656661 
 7769      756C7400 
 7770              	.LASF65:
 7771 0485 6C656674 		.ascii	"left\000"
 7771      00
 7772              	.LASF200:
 7773 048a 7363725F 		.ascii	"scr_area\000"
 7773      61726561 
 7773      00
 7774              	.LASF154:
 7775 0493 7265616C 		.ascii	"realign\000"
 7775      69676E00 
 7776              	.LASF234:
 7777 049b 6C765F64 		.ascii	"lv_disp_get_buf\000"
 7777      6973705F 
 7777      6765745F 
 7777      62756600 
 7778              	.LASF222:
 7779 04ab 64697370 		.ascii	"disp_refr\000"
 7779      5F726566 
 7779      7200
 7780              	.LASF108:
ARM GAS  C:\Users\pearlstl\AppData\Local\Temp\ccFIoKDo.s 			page 158


 7781 04b5 61726561 		.ascii	"area\000"
 7781      00
 7782              	.LASF86:
 7783 04ba 6C765F73 		.ascii	"lv_style_t\000"
 7783      74796C65 
 7783      5F7400
 7784              	.LASF67:
 7785 04c5 696E6E65 		.ascii	"inner\000"
 7785      7200
 7786              	.LASF221:
 7787 04cb 70785F6E 		.ascii	"px_num\000"
 7787      756D00
 7788              	.LASF249:
 7789 04d2 6C765F74 		.ascii	"lv_tick_elaps\000"
 7789      69636B5F 
 7789      656C6170 
 7789      7300
 7790              	.LASF14:
 7791 04e0 6C6F6E67 		.ascii	"long unsigned int\000"
 7791      20756E73 
 7791      69676E65 
 7791      6420696E 
 7791      7400
 7792              	.LASF204:
 7793 04f2 6C765F72 		.ascii	"lv_refr_areas\000"
 7793      6566725F 
 7793      61726561 
 7793      7300
 7794              	.LASF85:
 7795 0500 6C696E65 		.ascii	"line\000"
 7795      00
 7796              	.LASF36:
 7797 0505 4C565F4F 		.ascii	"LV_OPA_0\000"
 7797      50415F30 
 7797      00
 7798              	.LASF212:
 7799 050e 685F746D 		.ascii	"h_tmp\000"
 7799      7000
 7800              	.LASF111:
 7801 0514 5F646973 		.ascii	"_disp_drv_t\000"
 7801      705F6472 
 7801      765F7400 
 7802              	.LASF228:
 7803 0520 6C765F6C 		.ascii	"lv_ll_get_tail\000"
 7803      6C5F6765 
 7803      745F7461 
 7803      696C00
 7804              	.LASF110:
 7805 052f 6C765F64 		.ascii	"lv_disp_buf_t\000"
 7805      6973705F 
 7805      6275665F 
 7805      7400
 7806              	.LASF13:
 7807 053d 5F5F7569 		.ascii	"__uint32_t\000"
 7807      6E743332 
 7807      5F7400
 7808              	.LASF136:
ARM GAS  C:\Users\pearlstl\AppData\Local\Temp\ccFIoKDo.s 			page 159


 7809 0548 6576656E 		.ascii	"event_cb\000"
 7809      745F6362 
 7809      00
 7810              	.LASF203:
 7811 0551 6C765F72 		.ascii	"lv_refr_set_disp_refreshing\000"
 7811      6566725F 
 7811      7365745F 
 7811      64697370 
 7811      5F726566 
 7812              	.LASF66:
 7813 056d 72696768 		.ascii	"right\000"
 7813      7400
 7814              	.LASF140:
 7815 0573 7374796C 		.ascii	"style_p\000"
 7815      655F7000 
 7816              	.LASF1:
 7817 057b 6C6F6E67 		.ascii	"long long int\000"
 7817      206C6F6E 
 7817      6720696E 
 7817      7400
 7818              	.LASF61:
 7819 0589 77696474 		.ascii	"width\000"
 7819      6800
 7820              	.LASF64:
 7821 058f 626F7474 		.ascii	"bottom\000"
 7821      6F6D00
 7822              	.LASF134:
 7823 0596 6368696C 		.ascii	"child_ll\000"
 7823      645F6C6C 
 7823      00
 7824              	.LASF151:
 7825 059f 70726F74 		.ascii	"protect\000"
 7825      65637400 
 7826              	.LASF104:
 7827 05a7 62756631 		.ascii	"buf1\000"
 7827      00
 7828              	.LASF105:
 7829 05ac 62756632 		.ascii	"buf2\000"
 7829      00
 7830              	.LASF147:
 7831 05b1 70617265 		.ascii	"parent_event\000"
 7831      6E745F65 
 7831      76656E74 
 7831      00
 7832              	.LASF169:
 7833 05be 616C6967 		.ascii	"align\000"
 7833      6E00
 7834              	.LASF35:
 7835 05c4 4C565F4F 		.ascii	"LV_OPA_TRANSP\000"
 7835      50415F54 
 7835      52414E53 
 7835      5000
 7836              	.LASF226:
 7837 05d2 6C765F6C 		.ascii	"lv_ll_get_next\000"
 7837      6C5F6765 
 7837      745F6E65 
 7837      787400
ARM GAS  C:\Users\pearlstl\AppData\Local\Temp\ccFIoKDo.s 			page 160


 7838              	.LASF81:
 7839 05e1 676C6173 		.ascii	"glass\000"
 7839      7300
 7840              	.LASF0:
 7841 05e7 756E7369 		.ascii	"unsigned int\000"
 7841      676E6564 
 7841      20696E74 
 7841      00
 7842              	.LASF196:
 7843 05f4 64697370 		.ascii	"disp\000"
 7843      00
 7844              	.LASF243:
 7845 05f9 6C765F61 		.ascii	"lv_area_join\000"
 7845      7265615F 
 7845      6A6F696E 
 7845      00
 7846              	.LASF218:
 7847 0606 73746172 		.ascii	"start_offs\000"
 7847      745F6F66 
 7847      667300
 7848              	.LASF193:
 7849 0611 6D61736B 		.ascii	"mask_p\000"
 7849      5F7000
 7850              	.LASF129:
 7851 0618 696E765F 		.ascii	"inv_areas\000"
 7851      61726561 
 7851      7300
 7852              	.LASF170:
 7853 0622 6175746F 		.ascii	"auto_realign\000"
 7853      5F726561 
 7853      6C69676E 
 7853      00
 7854              	.LASF184:
 7855 062f 6F626A5F 		.ascii	"obj_ext_mask\000"
 7855      6578745F 
 7855      6D61736B 
 7855      00
 7856              	.LASF102:
 7857 063c 6F6E6365 		.ascii	"once\000"
 7857      00
 7858              	.LASF182:
 7859 0641 756E696F 		.ascii	"union_ok\000"
 7859      6E5F6F6B 
 7859      00
 7860              	.LASF156:
 7861 064a 4C565F44 		.ascii	"LV_DESIGN_DRAW_MAIN\000"
 7861      45534947 
 7861      4E5F4452 
 7861      41575F4D 
 7861      41494E00 
 7862              	.LASF28:
 7863 065e 6C765F66 		.ascii	"lv_font_glyph_dsc_t\000"
 7863      6F6E745F 
 7863      676C7970 
 7863      685F6473 
 7863      635F7400 
 7864              	.LASF207:
ARM GAS  C:\Users\pearlstl\AppData\Local\Temp\ccFIoKDo.s 			page 161


 7865 0672 6A6F696E 		.ascii	"join_in\000"
 7865      5F696E00 
 7866              	.LASF216:
 7867 067a 6275665F 		.ascii	"buf_ina\000"
 7867      696E6100 
 7868              	.LASF69:
 7869 0682 67726164 		.ascii	"grad_color\000"
 7869      5F636F6C 
 7869      6F7200
 7870              	.LASF122:
 7871 068d 5F646973 		.ascii	"_disp_t\000"
 7871      705F7400 
 7872              	.LASF46:
 7873 0695 4C565F4F 		.ascii	"LV_OPA_100\000"
 7873      50415F31 
 7873      303000
 7874              	.LASF87:
 7875 06a0 6C765F72 		.ascii	"lv_res_t\000"
 7875      65735F74 
 7875      00
 7876              	.LASF201:
 7877 06a9 636F6D5F 		.ascii	"com_area\000"
 7877      61726561 
 7877      00
 7878              	.LASF106:
 7879 06b2 6275665F 		.ascii	"buf_act\000"
 7879      61637400 
 7880              	.LASF2:
 7881 06ba 6C6F6E67 		.ascii	"long double\000"
 7881      20646F75 
 7881      626C6500 
 7882              	.LASF173:
 7883 06c6 6C765F64 		.ascii	"lv_drag_dir_t\000"
 7883      7261675F 
 7883      6469725F 
 7883      7400
 7884              	.LASF191:
 7885 06d4 7374796C 		.ascii	"style\000"
 7885      6500
 7886              	.LASF139:
 7887 06da 6578745F 		.ascii	"ext_attr\000"
 7887      61747472 
 7887      00
 7888              	.LASF206:
 7889 06e3 6A6F696E 		.ascii	"join_from\000"
 7889      5F66726F 
 7889      6D00
 7890              	.LASF159:
 7891 06ed 6C765F64 		.ascii	"lv_design_mode_t\000"
 7891      65736967 
 7891      6E5F6D6F 
 7891      64655F74 
 7891      00
 7892              	.LASF79:
 7893 06fe 73756270 		.ascii	"subpx\000"
 7893      7800
 7894              	.LASF47:
ARM GAS  C:\Users\pearlstl\AppData\Local\Temp\ccFIoKDo.s 			page 162


 7895 0704 4C565F4F 		.ascii	"LV_OPA_COVER\000"
 7895      50415F43 
 7895      4F564552 
 7895      00
 7896              	.LASF211:
 7897 0711 726F775F 		.ascii	"row_last\000"
 7897      6C617374 
 7897      00
 7898              	.LASF195:
 7899 071a 6C765F72 		.ascii	"lv_refr_vdb_flush\000"
 7899      6566725F 
 7899      7664625F 
 7899      666C7573 
 7899      6800
 7900              	.LASF233:
 7901 072c 6C765F64 		.ascii	"lv_disp_get_scr_act\000"
 7901      6973705F 
 7901      6765745F 
 7901      7363725F 
 7901      61637400 
 7902              	.LASF68:
 7903 0740 6D61696E 		.ascii	"main_color\000"
 7903      5F636F6C 
 7903      6F7200
 7904              	.LASF4:
 7905 074b 5F5F696E 		.ascii	"__int8_t\000"
 7905      74385F74 
 7905      00
 7906              	.LASF163:
 7907 0754 6C765F73 		.ascii	"lv_signal_t\000"
 7907      69676E61 
 7907      6C5F7400 
 7908              	.LASF107:
 7909 0760 73697A65 		.ascii	"size\000"
 7909      00
 7910              	.LASF15:
 7911 0765 6C6F6E67 		.ascii	"long long unsigned int\000"
 7911      206C6F6E 
 7911      6720756E 
 7911      7369676E 
 7911      65642069 
 7912              	.LASF19:
 7913 077c 75696E74 		.ascii	"uint16_t\000"
 7913      31365F74 
 7913      00
 7914              	.LASF98:
 7915 0785 6C617374 		.ascii	"last_run\000"
 7915      5F72756E 
 7915      00
 7916              	.LASF53:
 7917 078e 6C765F63 		.ascii	"lv_color_t\000"
 7917      6F6C6F72 
 7917      5F7400
 7918              	.LASF103:
 7919 0799 6C765F74 		.ascii	"lv_task_t\000"
 7919      61736B5F 
 7919      7400
ARM GAS  C:\Users\pearlstl\AppData\Local\Temp\ccFIoKDo.s 			page 163


 7920              	.LASF176:
 7921 07a3 6C765F61 		.ascii	"lv_area_get_height\000"
 7921      7265615F 
 7921      6765745F 
 7921      68656967 
 7921      687400
 7922              	.LASF236:
 7923 07b6 6C765F64 		.ascii	"lv_disp_get_layer_top\000"
 7923      6973705F 
 7923      6765745F 
 7923      6C617965 
 7923      725F746F 
 7924              	.LASF192:
 7925 07cc 746F705F 		.ascii	"top_p\000"
 7925      7000
 7926              	.LASF37:
 7927 07d2 4C565F4F 		.ascii	"LV_OPA_10\000"
 7927      50415F31 
 7927      3000
 7928              	.LASF248:
 7929 07dc 6D656D73 		.ascii	"memset\000"
 7929      657400
 7930              	.LASF97:
 7931 07e3 70657269 		.ascii	"period\000"
 7931      6F6400
 7932              	.LASF117:
 7933 07ea 726F756E 		.ascii	"rounder_cb\000"
 7933      6465725F 
 7933      636200
 7934              	.LASF7:
 7935 07f5 5F5F696E 		.ascii	"__int16_t\000"
 7935      7431365F 
 7935      7400
 7936              	.LASF229:
 7937 07ff 6C765F6C 		.ascii	"lv_ll_get_prev\000"
 7937      6C5F6765 
 7937      745F7072 
 7937      657600
 7938              	.LASF219:
 7939 080e 6C696E65 		.ascii	"line_length\000"
 7939      5F6C656E 
 7939      67746800 
 7940              	.LASF178:
 7941 081a 64657374 		.ascii	"dest\000"
 7941      00
 7942              	.LASF51:
 7943 081f 66756C6C 		.ascii	"full\000"
 7943      00
 7944              	.LASF38:
 7945 0824 4C565F4F 		.ascii	"LV_OPA_20\000"
 7945      50415F32 
 7945      3000
 7946              	.LASF60:
 7947 082e 636F6C6F 		.ascii	"color\000"
 7947      7200
 7948              	.LASF77:
 7949 0834 6C696E65 		.ascii	"line_space\000"
ARM GAS  C:\Users\pearlstl\AppData\Local\Temp\ccFIoKDo.s 			page 164


 7949      5F737061 
 7949      636500
 7950              	.LASF167:
 7951 083f 786F6673 		.ascii	"xofs\000"
 7951      00
 7952              	.LASF174:
 7953 0844 6C765F6F 		.ascii	"lv_obj_t\000"
 7953      626A5F74 
 7953      00
 7954              	.LASF123:
 7955 084d 64726976 		.ascii	"driver\000"
 7955      657200
 7956              	.LASF59:
 7957 0854 6C765F73 		.ascii	"lv_shadow_type_t\000"
 7957      6861646F 
 7957      775F7479 
 7957      70655F74 
 7957      00
 7958              	.LASF142:
 7959 0865 64726167 		.ascii	"drag\000"
 7959      00
 7960              	.LASF209:
 7961 086a 6C765F72 		.ascii	"lv_refr_area\000"
 7961      6566725F 
 7961      61726561 
 7961      00
 7962              	.LASF133:
 7963 0877 5F6C765F 		.ascii	"_lv_obj_t\000"
 7963      6F626A5F 
 7963      7400
 7964              	.LASF75:
 7965 0881 666F6E74 		.ascii	"font\000"
 7965      00
 7966              	.LASF76:
 7967 0886 6C657474 		.ascii	"letter_space\000"
 7967      65725F73 
 7967      70616365 
 7967      00
 7968              	.LASF39:
 7969 0893 4C565F4F 		.ascii	"LV_OPA_30\000"
 7969      50415F33 
 7969      3000
 7970              	.LASF149:
 7971 089d 62617365 		.ascii	"base_dir\000"
 7971      5F646972 
 7971      00
 7972              	.LASF25:
 7973 08a6 626F785F 		.ascii	"box_h\000"
 7973      6800
 7974              	.LASF166:
 7975 08ac 62617365 		.ascii	"base\000"
 7975      00
 7976              	.LASF186:
 7977 08b1 6578745F 		.ascii	"ext_size\000"
 7977      73697A65 
 7977      00
 7978              	.LASF24:
ARM GAS  C:\Users\pearlstl\AppData\Local\Temp\ccFIoKDo.s 			page 165


 7979 08ba 626F785F 		.ascii	"box_w\000"
 7979      7700
 7980              	.LASF8:
 7981 08c0 73686F72 		.ascii	"short int\000"
 7981      7420696E 
 7981      7400
 7982              	.LASF32:
 7983 08ca 62617365 		.ascii	"base_line\000"
 7983      5F6C696E 
 7983      6500
 7984              	.LASF131:
 7985 08d4 696E765F 		.ascii	"inv_p\000"
 7985      7000
 7986              	.LASF92:
 7987 08da 6C765F6C 		.ascii	"lv_ll_t\000"
 7987      6C5F7400 
 7988              	.LASF40:
 7989 08e2 4C565F4F 		.ascii	"LV_OPA_40\000"
 7989      50415F34 
 7989      3000
 7990              	.LASF18:
 7991 08ec 696E7431 		.ascii	"int16_t\000"
 7991      365F7400 
 7992              	.LASF253:
 7993 08f4 433A5C55 		.ascii	"C:\\Users\\pearlstl\\Documents\\_Research\\projects"
 7993      73657273 
 7993      5C706561 
 7993      726C7374 
 7993      6C5C446F 
 7994 0922 5C74636F 		.ascii	"\\tcom_engineering\\embed_sw\\tcom_app\\tcom_app_ps"
 7994      6D5F656E 
 7994      67696E65 
 7994      6572696E 
 7994      675C656D 
 7995 0951 6F63365F 		.ascii	"oc6_lvgl6\\tcom_displ_test_psoc6.cydsn\000"
 7995      6C76676C 
 7995      365C7463 
 7995      6F6D5F64 
 7995      6973706C 
 7996              	.LASF215:
 7997 0977 73746172 		.ascii	"start\000"
 7997      7400
 7998              	.LASF135:
 7999 097d 636F6F72 		.ascii	"coords\000"
 7999      647300
 8000              	.LASF128:
 8001 0984 7379735F 		.ascii	"sys_layer\000"
 8001      6C617965 
 8001      7200
 8002              	.LASF188:
 8003 098e 6368696C 		.ascii	"child_p\000"
 8003      645F7000 
 8004              	.LASF237:
 8005 0996 6C765F64 		.ascii	"lv_disp_get_layer_sys\000"
 8005      6973705F 
 8005      6765745F 
 8005      6C617965 
ARM GAS  C:\Users\pearlstl\AppData\Local\Temp\ccFIoKDo.s 			page 166


 8005      725F7379 
 8006              	.LASF246:
 8007 09ac 6C765F64 		.ascii	"lv_draw_free_buf\000"
 8007      7261775F 
 8007      66726565 
 8007      5F627566 
 8007      00
 8008              	.LASF146:
 8009 09bd 6F70615F 		.ascii	"opa_scale_en\000"
 8009      7363616C 
 8009      655F656E 
 8009      00
 8010              	.LASF224:
 8011 09ca 6C765F6F 		.ascii	"lv_obj_get_opa_scale\000"
 8011      626A5F67 
 8011      65745F6F 
 8011      70615F73 
 8011      63616C65 
 8012              	.LASF72:
 8013 09df 73686164 		.ascii	"shadow\000"
 8013      6F7700
 8014              	.LASF41:
 8015 09e6 4C565F4F 		.ascii	"LV_OPA_50\000"
 8015      50415F35 
 8015      3000
 8016              	.LASF197:
 8017 09f0 6C765F72 		.ascii	"lv_refr_obj_and_children\000"
 8017      6566725F 
 8017      6F626A5F 
 8017      616E645F 
 8017      6368696C 
 8018              	.LASF175:
 8019 0a09 6C765F61 		.ascii	"lv_area_get_width\000"
 8019      7265615F 
 8019      6765745F 
 8019      77696474 
 8019      6800
 8020              	.LASF144:
 8021 0a1b 64726167 		.ascii	"drag_parent\000"
 8021      5F706172 
 8021      656E7400 
 8022              	.LASF232:
 8023 0a27 6C765F6F 		.ascii	"lv_obj_get_parent\000"
 8023      626A5F67 
 8023      65745F70 
 8023      6172656E 
 8023      7400
 8024              	.LASF240:
 8025 0a39 6C765F64 		.ascii	"lv_disp_get_ver_res\000"
 8025      6973705F 
 8025      6765745F 
 8025      7665725F 
 8025      72657300 
 8026              	.LASF247:
 8027 0a4d 6D656D63 		.ascii	"memcpy\000"
 8027      707900
 8028              	.LASF121:
ARM GAS  C:\Users\pearlstl\AppData\Local\Temp\ccFIoKDo.s 			page 167


 8029 0a54 6C765F64 		.ascii	"lv_disp_drv_t\000"
 8029      6973705F 
 8029      6472765F 
 8029      7400
 8030              	.LASF185:
 8031 0a62 6F626A5F 		.ascii	"obj_area\000"
 8031      61726561 
 8031      00
 8032              	.LASF194:
 8033 0a6b 626F7264 		.ascii	"border_p\000"
 8033      65725F70 
 8033      00
 8034              	.LASF73:
 8035 0a74 70616464 		.ascii	"padding\000"
 8035      696E6700 
 8036              	.LASF137:
 8037 0a7c 7369676E 		.ascii	"signal_cb\000"
 8037      616C5F63 
 8037      6200
 8038              	.LASF42:
 8039 0a86 4C565F4F 		.ascii	"LV_OPA_60\000"
 8039      50415F36 
 8039      3000
 8040              	.LASF21:
 8041 0a90 75696E74 		.ascii	"uint32_t\000"
 8041      33325F74 
 8041      00
 8042              	.LASF202:
 8043 0a99 6C765F69 		.ascii	"lv_inv_area\000"
 8043      6E765F61 
 8043      72656100 
 8044              	.LASF49:
 8045 0aa5 67726565 		.ascii	"green\000"
 8045      6E00
 8046              	.LASF34:
 8047 0aab 6C765F66 		.ascii	"lv_font_t\000"
 8047      6F6E745F 
 8047      7400
 8048              	.LASF150:
 8049 0ab5 72657365 		.ascii	"reserved\000"
 8049      72766564 
 8049      00
 8050              	.LASF230:
 8051 0abe 6C765F6F 		.ascii	"lv_obj_get_coords\000"
 8051      626A5F67 
 8051      65745F63 
 8051      6F6F7264 
 8051      7300
 8052              	.LASF252:
 8053 0ad0 2E2E5C2E 		.ascii	"..\\..\\..\\lvgl\\version_6.1.2\\lvgl\\src\\lv_core"
 8053      2E5C2E2E 
 8053      5C6C7667 
 8053      6C5C7665 
 8053      7273696F 
 8054 0afc 5C6C765F 		.ascii	"\\lv_refr.c\000"
 8054      72656672 
 8054      2E6300
ARM GAS  C:\Users\pearlstl\AppData\Local\Temp\ccFIoKDo.s 			page 168


 8055              	.LASF119:
 8056 0b07 6D6F6E69 		.ascii	"monitor_cb\000"
 8056      746F725F 
 8056      636200
 8057              	.LASF43:
 8058 0b12 4C565F4F 		.ascii	"LV_OPA_70\000"
 8058      50415F37 
 8058      3000
 8059              	.LASF10:
 8060 0b1c 73686F72 		.ascii	"short unsigned int\000"
 8060      7420756E 
 8060      7369676E 
 8060      65642069 
 8060      6E7400
 8061              	.LASF22:
 8062 0b2f 6C765F63 		.ascii	"lv_coord_t\000"
 8062      6F6F7264 
 8062      5F7400
 8063              	.LASF116:
 8064 0b3a 666C7573 		.ascii	"flush_cb\000"
 8064      685F6362 
 8064      00
 8065              	.LASF217:
 8066 0b43 68726573 		.ascii	"hres\000"
 8066      00
 8067              	.LASF100:
 8068 0b48 75736572 		.ascii	"user_data\000"
 8068      5F646174 
 8068      6100
 8069              	.LASF238:
 8070 0b52 6C765F64 		.ascii	"lv_disp_is_true_double_buf\000"
 8070      6973705F 
 8070      69735F74 
 8070      7275655F 
 8070      646F7562 
 8071              	.LASF242:
 8072 0b6d 6C765F61 		.ascii	"lv_area_is_on\000"
 8072      7265615F 
 8072      69735F6F 
 8072      6E00
 8073              	.LASF71:
 8074 0b7b 626F7264 		.ascii	"border\000"
 8074      657200
 8075              	.LASF225:
 8076 0b82 6C765F6C 		.ascii	"lv_ll_get_head\000"
 8076      6C5F6765 
 8076      745F6865 
 8076      616400
 8077              	.LASF29:
 8078 0b91 6765745F 		.ascii	"get_glyph_dsc\000"
 8078      676C7970 
 8078      685F6473 
 8078      6300
 8079              	.LASF11:
 8080 0b9f 5F5F696E 		.ascii	"__int32_t\000"
 8080      7433325F 
 8080      7400
ARM GAS  C:\Users\pearlstl\AppData\Local\Temp\ccFIoKDo.s 			page 169


 8081              	.LASF58:
 8082 0ba9 6C765F62 		.ascii	"lv_border_part_t\000"
 8082      6F726465 
 8082      725F7061 
 8082      72745F74 
 8082      00
 8083              	.LASF44:
 8084 0bba 4C565F4F 		.ascii	"LV_OPA_80\000"
 8084      50415F38 
 8084      3000
 8085              	.LASF171:
 8086 0bc4 6F726967 		.ascii	"origo_align\000"
 8086      6F5F616C 
 8086      69676E00 
 8087              	.LASF210:
 8088 0bd0 6D61785F 		.ascii	"max_row\000"
 8088      726F7700 
 8089              	.LASF187:
 8090 0bd8 6D61736B 		.ascii	"mask_child\000"
 8090      5F636869 
 8090      6C6400
 8091              	.LASF74:
 8092 0be3 73656C5F 		.ascii	"sel_color\000"
 8092      636F6C6F 
 8092      7200
 8093              	.LASF94:
 8094 0bed 6C765F74 		.ascii	"lv_task_cb_t\000"
 8094      61736B5F 
 8094      63625F74 
 8094      00
 8095              	.LASF95:
 8096 0bfa 5F6C765F 		.ascii	"_lv_font_struct\000"
 8096      666F6E74 
 8096      5F737472 
 8096      75637400 
 8097              	.LASF199:
 8098 0c0a 73746172 		.ascii	"start_mask\000"
 8098      745F6D61 
 8098      736B00
 8099              	.LASF62:
 8100 0c15 70617274 		.ascii	"part\000"
 8100      00
 8101              	.LASF89:
 8102 0c1a 6E5F7369 		.ascii	"n_size\000"
 8102      7A6500
 8103              	.LASF160:
 8104 0c21 6C765F64 		.ascii	"lv_design_cb_t\000"
 8104      65736967 
 8104      6E5F6362 
 8104      5F7400
 8105              	.LASF45:
 8106 0c30 4C565F4F 		.ascii	"LV_OPA_90\000"
 8106      50415F39 
 8106      3000
 8107              	.LASF152:
 8108 0c3a 6F70615F 		.ascii	"opa_scale\000"
 8108      7363616C 
ARM GAS  C:\Users\pearlstl\AppData\Local\Temp\ccFIoKDo.s 			page 170


 8108      6500
 8109              		.ident	"GCC: (GNU Tools for ARM Embedded Processors) 5.4.1 20160609 (release) [ARM/embedded-5-bran
