ARM GAS  C:\Users\pearlstl\AppData\Local\Temp\ccFIoKDo.s 			page 1


   1              		.syntax unified
   2              		.cpu cortex-m4
   3              		.eabi_attribute 27, 1
   4              		.fpu fpv4-sp-d16
   5              		.eabi_attribute 20, 1
   6              		.eabi_attribute 21, 1
   7              		.eabi_attribute 23, 3
   8              		.eabi_attribute 24, 1
   9              		.eabi_attribute 25, 1
  10              		.eabi_attribute 26, 1
  11              		.eabi_attribute 30, 2
  12              		.eabi_attribute 34, 1
  13              		.eabi_attribute 18, 4
  14              		.thumb
  15              		.syntax unified
  16              		.file	"lv_refr.c"
  17              		.text
  18              	.Ltext0:
  19              		.cfi_sections	.debug_frame
  20              		.section	.text.lv_refr_get_top_obj,"ax",%progbits
  21              		.align	2
  22              		.thumb
  23              		.thumb_func
  24              		.type	lv_refr_get_top_obj, %function
  25              	lv_refr_get_top_obj:
  26              	.LFB45:
  27              		.file 1 "..\\..\\..\\lvgl\\version_6.1.2\\lvgl\\src\\lv_core\\lv_refr.c"
   1:..\..\..\lvgl\version_6.1.2\lvgl\src\lv_core/lv_refr.c **** /**
   2:..\..\..\lvgl\version_6.1.2\lvgl\src\lv_core/lv_refr.c ****  * @file lv_refr.c
   3:..\..\..\lvgl\version_6.1.2\lvgl\src\lv_core/lv_refr.c ****  *
   4:..\..\..\lvgl\version_6.1.2\lvgl\src\lv_core/lv_refr.c ****  */
   5:..\..\..\lvgl\version_6.1.2\lvgl\src\lv_core/lv_refr.c **** 
   6:..\..\..\lvgl\version_6.1.2\lvgl\src\lv_core/lv_refr.c **** /*********************
   7:..\..\..\lvgl\version_6.1.2\lvgl\src\lv_core/lv_refr.c ****  *      INCLUDES
   8:..\..\..\lvgl\version_6.1.2\lvgl\src\lv_core/lv_refr.c ****  *********************/
   9:..\..\..\lvgl\version_6.1.2\lvgl\src\lv_core/lv_refr.c **** #include <stddef.h>
  10:..\..\..\lvgl\version_6.1.2\lvgl\src\lv_core/lv_refr.c **** #include "lv_refr.h"
  11:..\..\..\lvgl\version_6.1.2\lvgl\src\lv_core/lv_refr.c **** #include "lv_disp.h"
  12:..\..\..\lvgl\version_6.1.2\lvgl\src\lv_core/lv_refr.c **** #include "../lv_hal/lv_hal_tick.h"
  13:..\..\..\lvgl\version_6.1.2\lvgl\src\lv_core/lv_refr.c **** #include "../lv_hal/lv_hal_disp.h"
  14:..\..\..\lvgl\version_6.1.2\lvgl\src\lv_core/lv_refr.c **** #include "../lv_misc/lv_task.h"
  15:..\..\..\lvgl\version_6.1.2\lvgl\src\lv_core/lv_refr.c **** #include "../lv_misc/lv_mem.h"
  16:..\..\..\lvgl\version_6.1.2\lvgl\src\lv_core/lv_refr.c **** #include "../lv_misc/lv_gc.h"
  17:..\..\..\lvgl\version_6.1.2\lvgl\src\lv_core/lv_refr.c **** #include "../lv_draw/lv_draw.h"
  18:..\..\..\lvgl\version_6.1.2\lvgl\src\lv_core/lv_refr.c **** 
  19:..\..\..\lvgl\version_6.1.2\lvgl\src\lv_core/lv_refr.c **** #if defined(LV_GC_INCLUDE)
  20:..\..\..\lvgl\version_6.1.2\lvgl\src\lv_core/lv_refr.c **** #include LV_GC_INCLUDE
  21:..\..\..\lvgl\version_6.1.2\lvgl\src\lv_core/lv_refr.c **** #endif /* LV_ENABLE_GC */
  22:..\..\..\lvgl\version_6.1.2\lvgl\src\lv_core/lv_refr.c **** 
  23:..\..\..\lvgl\version_6.1.2\lvgl\src\lv_core/lv_refr.c **** /*********************
  24:..\..\..\lvgl\version_6.1.2\lvgl\src\lv_core/lv_refr.c ****  *      DEFINES
  25:..\..\..\lvgl\version_6.1.2\lvgl\src\lv_core/lv_refr.c ****  *********************/
  26:..\..\..\lvgl\version_6.1.2\lvgl\src\lv_core/lv_refr.c **** /* Draw translucent random colored areas on the invalidated (redrawn) areas*/
  27:..\..\..\lvgl\version_6.1.2\lvgl\src\lv_core/lv_refr.c **** #define MASK_AREA_DEBUG 0
  28:..\..\..\lvgl\version_6.1.2\lvgl\src\lv_core/lv_refr.c **** 
  29:..\..\..\lvgl\version_6.1.2\lvgl\src\lv_core/lv_refr.c **** /**********************
  30:..\..\..\lvgl\version_6.1.2\lvgl\src\lv_core/lv_refr.c ****  *      TYPEDEFS
ARM GAS  C:\Users\pearlstl\AppData\Local\Temp\ccFIoKDo.s 			page 2


  31:..\..\..\lvgl\version_6.1.2\lvgl\src\lv_core/lv_refr.c ****  **********************/
  32:..\..\..\lvgl\version_6.1.2\lvgl\src\lv_core/lv_refr.c **** 
  33:..\..\..\lvgl\version_6.1.2\lvgl\src\lv_core/lv_refr.c **** /**********************
  34:..\..\..\lvgl\version_6.1.2\lvgl\src\lv_core/lv_refr.c ****  *  STATIC PROTOTYPES
  35:..\..\..\lvgl\version_6.1.2\lvgl\src\lv_core/lv_refr.c ****  **********************/
  36:..\..\..\lvgl\version_6.1.2\lvgl\src\lv_core/lv_refr.c **** static void lv_refr_join_area(void);
  37:..\..\..\lvgl\version_6.1.2\lvgl\src\lv_core/lv_refr.c **** static void lv_refr_areas(void);
  38:..\..\..\lvgl\version_6.1.2\lvgl\src\lv_core/lv_refr.c **** static void lv_refr_area(const lv_area_t * area_p);
  39:..\..\..\lvgl\version_6.1.2\lvgl\src\lv_core/lv_refr.c **** static void lv_refr_area_part(const lv_area_t * area_p);
  40:..\..\..\lvgl\version_6.1.2\lvgl\src\lv_core/lv_refr.c **** static lv_obj_t * lv_refr_get_top_obj(const lv_area_t * area_p, lv_obj_t * obj);
  41:..\..\..\lvgl\version_6.1.2\lvgl\src\lv_core/lv_refr.c **** static void lv_refr_obj_and_children(lv_obj_t * top_p, const lv_area_t * mask_p);
  42:..\..\..\lvgl\version_6.1.2\lvgl\src\lv_core/lv_refr.c **** static void lv_refr_obj(lv_obj_t * obj, const lv_area_t * mask_ori_p);
  43:..\..\..\lvgl\version_6.1.2\lvgl\src\lv_core/lv_refr.c **** static void lv_refr_vdb_flush(void);
  44:..\..\..\lvgl\version_6.1.2\lvgl\src\lv_core/lv_refr.c **** 
  45:..\..\..\lvgl\version_6.1.2\lvgl\src\lv_core/lv_refr.c **** /**********************
  46:..\..\..\lvgl\version_6.1.2\lvgl\src\lv_core/lv_refr.c ****  *  STATIC VARIABLES
  47:..\..\..\lvgl\version_6.1.2\lvgl\src\lv_core/lv_refr.c ****  **********************/
  48:..\..\..\lvgl\version_6.1.2\lvgl\src\lv_core/lv_refr.c **** static uint32_t px_num;
  49:..\..\..\lvgl\version_6.1.2\lvgl\src\lv_core/lv_refr.c **** static lv_disp_t * disp_refr; /*Display being refreshed*/
  50:..\..\..\lvgl\version_6.1.2\lvgl\src\lv_core/lv_refr.c **** 
  51:..\..\..\lvgl\version_6.1.2\lvgl\src\lv_core/lv_refr.c **** /**********************
  52:..\..\..\lvgl\version_6.1.2\lvgl\src\lv_core/lv_refr.c ****  *      MACROS
  53:..\..\..\lvgl\version_6.1.2\lvgl\src\lv_core/lv_refr.c ****  **********************/
  54:..\..\..\lvgl\version_6.1.2\lvgl\src\lv_core/lv_refr.c **** 
  55:..\..\..\lvgl\version_6.1.2\lvgl\src\lv_core/lv_refr.c **** /**********************
  56:..\..\..\lvgl\version_6.1.2\lvgl\src\lv_core/lv_refr.c ****  *   GLOBAL FUNCTIONS
  57:..\..\..\lvgl\version_6.1.2\lvgl\src\lv_core/lv_refr.c ****  **********************/
  58:..\..\..\lvgl\version_6.1.2\lvgl\src\lv_core/lv_refr.c **** 
  59:..\..\..\lvgl\version_6.1.2\lvgl\src\lv_core/lv_refr.c **** /**
  60:..\..\..\lvgl\version_6.1.2\lvgl\src\lv_core/lv_refr.c ****  * Initialize the screen refresh subsystem
  61:..\..\..\lvgl\version_6.1.2\lvgl\src\lv_core/lv_refr.c ****  */
  62:..\..\..\lvgl\version_6.1.2\lvgl\src\lv_core/lv_refr.c **** void lv_refr_init(void)
  63:..\..\..\lvgl\version_6.1.2\lvgl\src\lv_core/lv_refr.c **** {
  64:..\..\..\lvgl\version_6.1.2\lvgl\src\lv_core/lv_refr.c ****     /*Nothing to do*/
  65:..\..\..\lvgl\version_6.1.2\lvgl\src\lv_core/lv_refr.c **** }
  66:..\..\..\lvgl\version_6.1.2\lvgl\src\lv_core/lv_refr.c **** 
  67:..\..\..\lvgl\version_6.1.2\lvgl\src\lv_core/lv_refr.c **** /**
  68:..\..\..\lvgl\version_6.1.2\lvgl\src\lv_core/lv_refr.c ****  * Redraw the invalidated areas now.
  69:..\..\..\lvgl\version_6.1.2\lvgl\src\lv_core/lv_refr.c ****  * Normally the redrawing is periodically executed in `lv_task_handler` but a long blocking process
  70:..\..\..\lvgl\version_6.1.2\lvgl\src\lv_core/lv_refr.c ****  * can prevent the call of `lv_task_handler`. In this case if the the GUI is updated in the process
  71:..\..\..\lvgl\version_6.1.2\lvgl\src\lv_core/lv_refr.c ****  * (e.g. progress bar) this function can be called when the screen should be updated.
  72:..\..\..\lvgl\version_6.1.2\lvgl\src\lv_core/lv_refr.c ****  * @param disp pointer to display to refresh. NULL to refresh all displays.
  73:..\..\..\lvgl\version_6.1.2\lvgl\src\lv_core/lv_refr.c ****  */
  74:..\..\..\lvgl\version_6.1.2\lvgl\src\lv_core/lv_refr.c **** void lv_refr_now(lv_disp_t * disp)
  75:..\..\..\lvgl\version_6.1.2\lvgl\src\lv_core/lv_refr.c **** {
  76:..\..\..\lvgl\version_6.1.2\lvgl\src\lv_core/lv_refr.c ****     if(disp) {
  77:..\..\..\lvgl\version_6.1.2\lvgl\src\lv_core/lv_refr.c ****         lv_disp_refr_task(disp->refr_task);
  78:..\..\..\lvgl\version_6.1.2\lvgl\src\lv_core/lv_refr.c ****     } else {
  79:..\..\..\lvgl\version_6.1.2\lvgl\src\lv_core/lv_refr.c ****         lv_disp_t * d;
  80:..\..\..\lvgl\version_6.1.2\lvgl\src\lv_core/lv_refr.c ****         d = lv_disp_get_next(NULL);
  81:..\..\..\lvgl\version_6.1.2\lvgl\src\lv_core/lv_refr.c ****         while(d) {
  82:..\..\..\lvgl\version_6.1.2\lvgl\src\lv_core/lv_refr.c ****             lv_disp_refr_task(d->refr_task);
  83:..\..\..\lvgl\version_6.1.2\lvgl\src\lv_core/lv_refr.c ****             d = lv_disp_get_next(d);
  84:..\..\..\lvgl\version_6.1.2\lvgl\src\lv_core/lv_refr.c ****         }
  85:..\..\..\lvgl\version_6.1.2\lvgl\src\lv_core/lv_refr.c ****     }
  86:..\..\..\lvgl\version_6.1.2\lvgl\src\lv_core/lv_refr.c **** }
  87:..\..\..\lvgl\version_6.1.2\lvgl\src\lv_core/lv_refr.c **** 
ARM GAS  C:\Users\pearlstl\AppData\Local\Temp\ccFIoKDo.s 			page 3


  88:..\..\..\lvgl\version_6.1.2\lvgl\src\lv_core/lv_refr.c **** /**
  89:..\..\..\lvgl\version_6.1.2\lvgl\src\lv_core/lv_refr.c ****  * Invalidate an area on display to redraw it
  90:..\..\..\lvgl\version_6.1.2\lvgl\src\lv_core/lv_refr.c ****  * @param area_p pointer to area which should be invalidated (NULL: delete the invalidated areas)
  91:..\..\..\lvgl\version_6.1.2\lvgl\src\lv_core/lv_refr.c ****  * @param disp pointer to display where the area should be invalidated (NULL can be used if there i
  92:..\..\..\lvgl\version_6.1.2\lvgl\src\lv_core/lv_refr.c ****  * only one display)
  93:..\..\..\lvgl\version_6.1.2\lvgl\src\lv_core/lv_refr.c ****  */
  94:..\..\..\lvgl\version_6.1.2\lvgl\src\lv_core/lv_refr.c **** void lv_inv_area(lv_disp_t * disp, const lv_area_t * area_p)
  95:..\..\..\lvgl\version_6.1.2\lvgl\src\lv_core/lv_refr.c **** {
  96:..\..\..\lvgl\version_6.1.2\lvgl\src\lv_core/lv_refr.c ****     if(!disp) disp = lv_disp_get_default();
  97:..\..\..\lvgl\version_6.1.2\lvgl\src\lv_core/lv_refr.c ****     if(!disp) return;
  98:..\..\..\lvgl\version_6.1.2\lvgl\src\lv_core/lv_refr.c **** 
  99:..\..\..\lvgl\version_6.1.2\lvgl\src\lv_core/lv_refr.c ****     /*Clear the invalidate buffer if the parameter is NULL*/
 100:..\..\..\lvgl\version_6.1.2\lvgl\src\lv_core/lv_refr.c ****     if(area_p == NULL) {
 101:..\..\..\lvgl\version_6.1.2\lvgl\src\lv_core/lv_refr.c ****         disp->inv_p = 0;
 102:..\..\..\lvgl\version_6.1.2\lvgl\src\lv_core/lv_refr.c ****         return;
 103:..\..\..\lvgl\version_6.1.2\lvgl\src\lv_core/lv_refr.c ****     }
 104:..\..\..\lvgl\version_6.1.2\lvgl\src\lv_core/lv_refr.c **** 
 105:..\..\..\lvgl\version_6.1.2\lvgl\src\lv_core/lv_refr.c ****     lv_area_t scr_area;
 106:..\..\..\lvgl\version_6.1.2\lvgl\src\lv_core/lv_refr.c ****     scr_area.x1 = 0;
 107:..\..\..\lvgl\version_6.1.2\lvgl\src\lv_core/lv_refr.c ****     scr_area.y1 = 0;
 108:..\..\..\lvgl\version_6.1.2\lvgl\src\lv_core/lv_refr.c ****     scr_area.x2 = lv_disp_get_hor_res(disp) - 1;
 109:..\..\..\lvgl\version_6.1.2\lvgl\src\lv_core/lv_refr.c ****     scr_area.y2 = lv_disp_get_ver_res(disp) - 1;
 110:..\..\..\lvgl\version_6.1.2\lvgl\src\lv_core/lv_refr.c **** 
 111:..\..\..\lvgl\version_6.1.2\lvgl\src\lv_core/lv_refr.c ****     lv_area_t com_area;
 112:..\..\..\lvgl\version_6.1.2\lvgl\src\lv_core/lv_refr.c ****     bool suc;
 113:..\..\..\lvgl\version_6.1.2\lvgl\src\lv_core/lv_refr.c **** 
 114:..\..\..\lvgl\version_6.1.2\lvgl\src\lv_core/lv_refr.c ****     suc = lv_area_intersect(&com_area, area_p, &scr_area);
 115:..\..\..\lvgl\version_6.1.2\lvgl\src\lv_core/lv_refr.c **** 
 116:..\..\..\lvgl\version_6.1.2\lvgl\src\lv_core/lv_refr.c ****     /*The area is truncated to the screen*/
 117:..\..\..\lvgl\version_6.1.2\lvgl\src\lv_core/lv_refr.c ****     if(suc != false) {
 118:..\..\..\lvgl\version_6.1.2\lvgl\src\lv_core/lv_refr.c ****         if(disp->driver.rounder_cb) disp->driver.rounder_cb(&disp->driver, &com_area);
 119:..\..\..\lvgl\version_6.1.2\lvgl\src\lv_core/lv_refr.c **** 
 120:..\..\..\lvgl\version_6.1.2\lvgl\src\lv_core/lv_refr.c ****         /*Save only if this area is not in one of the saved areas*/
 121:..\..\..\lvgl\version_6.1.2\lvgl\src\lv_core/lv_refr.c ****         uint16_t i;
 122:..\..\..\lvgl\version_6.1.2\lvgl\src\lv_core/lv_refr.c ****         for(i = 0; i < disp->inv_p; i++) {
 123:..\..\..\lvgl\version_6.1.2\lvgl\src\lv_core/lv_refr.c ****             if(lv_area_is_in(&com_area, &disp->inv_areas[i]) != false) return;
 124:..\..\..\lvgl\version_6.1.2\lvgl\src\lv_core/lv_refr.c ****         }
 125:..\..\..\lvgl\version_6.1.2\lvgl\src\lv_core/lv_refr.c **** 
 126:..\..\..\lvgl\version_6.1.2\lvgl\src\lv_core/lv_refr.c ****         /*Save the area*/
 127:..\..\..\lvgl\version_6.1.2\lvgl\src\lv_core/lv_refr.c ****         if(disp->inv_p < LV_INV_BUF_SIZE) {
 128:..\..\..\lvgl\version_6.1.2\lvgl\src\lv_core/lv_refr.c ****             lv_area_copy(&disp->inv_areas[disp->inv_p], &com_area);
 129:..\..\..\lvgl\version_6.1.2\lvgl\src\lv_core/lv_refr.c ****         } else { /*If no place for the area add the screen*/
 130:..\..\..\lvgl\version_6.1.2\lvgl\src\lv_core/lv_refr.c ****             disp->inv_p = 0;
 131:..\..\..\lvgl\version_6.1.2\lvgl\src\lv_core/lv_refr.c ****             lv_area_copy(&disp->inv_areas[disp->inv_p], &scr_area);
 132:..\..\..\lvgl\version_6.1.2\lvgl\src\lv_core/lv_refr.c ****         }
 133:..\..\..\lvgl\version_6.1.2\lvgl\src\lv_core/lv_refr.c ****         disp->inv_p++;
 134:..\..\..\lvgl\version_6.1.2\lvgl\src\lv_core/lv_refr.c ****     }
 135:..\..\..\lvgl\version_6.1.2\lvgl\src\lv_core/lv_refr.c **** }
 136:..\..\..\lvgl\version_6.1.2\lvgl\src\lv_core/lv_refr.c **** 
 137:..\..\..\lvgl\version_6.1.2\lvgl\src\lv_core/lv_refr.c **** /**
 138:..\..\..\lvgl\version_6.1.2\lvgl\src\lv_core/lv_refr.c ****  * Get the display which is being refreshed
 139:..\..\..\lvgl\version_6.1.2\lvgl\src\lv_core/lv_refr.c ****  * @return the display being refreshed
 140:..\..\..\lvgl\version_6.1.2\lvgl\src\lv_core/lv_refr.c ****  */
 141:..\..\..\lvgl\version_6.1.2\lvgl\src\lv_core/lv_refr.c **** lv_disp_t * lv_refr_get_disp_refreshing(void)
 142:..\..\..\lvgl\version_6.1.2\lvgl\src\lv_core/lv_refr.c **** {
 143:..\..\..\lvgl\version_6.1.2\lvgl\src\lv_core/lv_refr.c ****     return disp_refr;
 144:..\..\..\lvgl\version_6.1.2\lvgl\src\lv_core/lv_refr.c **** }
ARM GAS  C:\Users\pearlstl\AppData\Local\Temp\ccFIoKDo.s 			page 4


 145:..\..\..\lvgl\version_6.1.2\lvgl\src\lv_core/lv_refr.c **** 
 146:..\..\..\lvgl\version_6.1.2\lvgl\src\lv_core/lv_refr.c **** /**
 147:..\..\..\lvgl\version_6.1.2\lvgl\src\lv_core/lv_refr.c ****  * Set the display which is being refreshed.
 148:..\..\..\lvgl\version_6.1.2\lvgl\src\lv_core/lv_refr.c ****  * It shouldn1t be used directly by the user.
 149:..\..\..\lvgl\version_6.1.2\lvgl\src\lv_core/lv_refr.c ****  * It can be used to trick the drawing functions about there is an active display.
 150:..\..\..\lvgl\version_6.1.2\lvgl\src\lv_core/lv_refr.c ****  * @param the display being refreshed
 151:..\..\..\lvgl\version_6.1.2\lvgl\src\lv_core/lv_refr.c ****  */
 152:..\..\..\lvgl\version_6.1.2\lvgl\src\lv_core/lv_refr.c **** void lv_refr_set_disp_refreshing(lv_disp_t * disp)
 153:..\..\..\lvgl\version_6.1.2\lvgl\src\lv_core/lv_refr.c **** {
 154:..\..\..\lvgl\version_6.1.2\lvgl\src\lv_core/lv_refr.c ****     disp_refr = disp;
 155:..\..\..\lvgl\version_6.1.2\lvgl\src\lv_core/lv_refr.c **** }
 156:..\..\..\lvgl\version_6.1.2\lvgl\src\lv_core/lv_refr.c **** 
 157:..\..\..\lvgl\version_6.1.2\lvgl\src\lv_core/lv_refr.c **** /**
 158:..\..\..\lvgl\version_6.1.2\lvgl\src\lv_core/lv_refr.c ****  * Called periodically to handle the refreshing
 159:..\..\..\lvgl\version_6.1.2\lvgl\src\lv_core/lv_refr.c ****  * @param task pointer to the task itself
 160:..\..\..\lvgl\version_6.1.2\lvgl\src\lv_core/lv_refr.c ****  */
 161:..\..\..\lvgl\version_6.1.2\lvgl\src\lv_core/lv_refr.c **** void lv_disp_refr_task(lv_task_t * task)
 162:..\..\..\lvgl\version_6.1.2\lvgl\src\lv_core/lv_refr.c **** {
 163:..\..\..\lvgl\version_6.1.2\lvgl\src\lv_core/lv_refr.c ****     LV_LOG_TRACE("lv_refr_task: started");
 164:..\..\..\lvgl\version_6.1.2\lvgl\src\lv_core/lv_refr.c **** 
 165:..\..\..\lvgl\version_6.1.2\lvgl\src\lv_core/lv_refr.c ****     uint32_t start = lv_tick_get();
 166:..\..\..\lvgl\version_6.1.2\lvgl\src\lv_core/lv_refr.c **** 
 167:..\..\..\lvgl\version_6.1.2\lvgl\src\lv_core/lv_refr.c ****     disp_refr = task->user_data;
 168:..\..\..\lvgl\version_6.1.2\lvgl\src\lv_core/lv_refr.c **** 
 169:..\..\..\lvgl\version_6.1.2\lvgl\src\lv_core/lv_refr.c ****     lv_refr_join_area();
 170:..\..\..\lvgl\version_6.1.2\lvgl\src\lv_core/lv_refr.c **** 
 171:..\..\..\lvgl\version_6.1.2\lvgl\src\lv_core/lv_refr.c ****     lv_refr_areas();
 172:..\..\..\lvgl\version_6.1.2\lvgl\src\lv_core/lv_refr.c **** 
 173:..\..\..\lvgl\version_6.1.2\lvgl\src\lv_core/lv_refr.c ****     /*If refresh happened ...*/
 174:..\..\..\lvgl\version_6.1.2\lvgl\src\lv_core/lv_refr.c ****     if(disp_refr->inv_p != 0) {
 175:..\..\..\lvgl\version_6.1.2\lvgl\src\lv_core/lv_refr.c ****         /*In true double buffered mode copy the refreshed areas to the new VDB to keep it up to
 176:..\..\..\lvgl\version_6.1.2\lvgl\src\lv_core/lv_refr.c ****          * date*/
 177:..\..\..\lvgl\version_6.1.2\lvgl\src\lv_core/lv_refr.c ****         if(lv_disp_is_true_double_buf(disp_refr)) {
 178:..\..\..\lvgl\version_6.1.2\lvgl\src\lv_core/lv_refr.c ****             lv_disp_buf_t * vdb = lv_disp_get_buf(disp_refr);
 179:..\..\..\lvgl\version_6.1.2\lvgl\src\lv_core/lv_refr.c **** 
 180:..\..\..\lvgl\version_6.1.2\lvgl\src\lv_core/lv_refr.c ****             /*Flush the content of the VDB*/
 181:..\..\..\lvgl\version_6.1.2\lvgl\src\lv_core/lv_refr.c ****             lv_refr_vdb_flush();
 182:..\..\..\lvgl\version_6.1.2\lvgl\src\lv_core/lv_refr.c **** 
 183:..\..\..\lvgl\version_6.1.2\lvgl\src\lv_core/lv_refr.c ****             /* With true double buffering the flushing should be only the address change of the
 184:..\..\..\lvgl\version_6.1.2\lvgl\src\lv_core/lv_refr.c ****              * current frame buffer. Wait until the address change is ready and copy the changed
 185:..\..\..\lvgl\version_6.1.2\lvgl\src\lv_core/lv_refr.c ****              * content to the other frame buffer (new active VDB) to keep the buffers synchronized*
 186:..\..\..\lvgl\version_6.1.2\lvgl\src\lv_core/lv_refr.c ****             while(vdb->flushing)
 187:..\..\..\lvgl\version_6.1.2\lvgl\src\lv_core/lv_refr.c ****                 ;
 188:..\..\..\lvgl\version_6.1.2\lvgl\src\lv_core/lv_refr.c **** 
 189:..\..\..\lvgl\version_6.1.2\lvgl\src\lv_core/lv_refr.c ****             uint8_t * buf_act = (uint8_t *)vdb->buf_act;
 190:..\..\..\lvgl\version_6.1.2\lvgl\src\lv_core/lv_refr.c ****             uint8_t * buf_ina = (uint8_t *)vdb->buf_act == vdb->buf1 ? vdb->buf2 : vdb->buf1;
 191:..\..\..\lvgl\version_6.1.2\lvgl\src\lv_core/lv_refr.c **** 
 192:..\..\..\lvgl\version_6.1.2\lvgl\src\lv_core/lv_refr.c ****             lv_coord_t hres = lv_disp_get_hor_res(disp_refr);
 193:..\..\..\lvgl\version_6.1.2\lvgl\src\lv_core/lv_refr.c ****             uint16_t a;
 194:..\..\..\lvgl\version_6.1.2\lvgl\src\lv_core/lv_refr.c ****             for(a = 0; a < disp_refr->inv_p; a++) {
 195:..\..\..\lvgl\version_6.1.2\lvgl\src\lv_core/lv_refr.c ****                 if(disp_refr->inv_area_joined[a] == 0) {
 196:..\..\..\lvgl\version_6.1.2\lvgl\src\lv_core/lv_refr.c ****                     lv_coord_t y;
 197:..\..\..\lvgl\version_6.1.2\lvgl\src\lv_core/lv_refr.c ****                     uint32_t start_offs =
 198:..\..\..\lvgl\version_6.1.2\lvgl\src\lv_core/lv_refr.c ****                         (hres * disp_refr->inv_areas[a].y1 + disp_refr->inv_areas[a].x1) * sizeof(l
 199:..\..\..\lvgl\version_6.1.2\lvgl\src\lv_core/lv_refr.c ****                     uint32_t line_length = lv_area_get_width(&disp_refr->inv_areas[a]) * sizeof(lv_
 200:..\..\..\lvgl\version_6.1.2\lvgl\src\lv_core/lv_refr.c **** 
 201:..\..\..\lvgl\version_6.1.2\lvgl\src\lv_core/lv_refr.c ****                     for(y = disp_refr->inv_areas[a].y1; y <= disp_refr->inv_areas[a].y2; y++) {
ARM GAS  C:\Users\pearlstl\AppData\Local\Temp\ccFIoKDo.s 			page 5


 202:..\..\..\lvgl\version_6.1.2\lvgl\src\lv_core/lv_refr.c ****                         memcpy(buf_act + start_offs, buf_ina + start_offs, line_length);
 203:..\..\..\lvgl\version_6.1.2\lvgl\src\lv_core/lv_refr.c ****                         start_offs += hres * sizeof(lv_color_t);
 204:..\..\..\lvgl\version_6.1.2\lvgl\src\lv_core/lv_refr.c ****                     }
 205:..\..\..\lvgl\version_6.1.2\lvgl\src\lv_core/lv_refr.c ****                 }
 206:..\..\..\lvgl\version_6.1.2\lvgl\src\lv_core/lv_refr.c ****             }
 207:..\..\..\lvgl\version_6.1.2\lvgl\src\lv_core/lv_refr.c ****         } /*End of true double buffer handling*/
 208:..\..\..\lvgl\version_6.1.2\lvgl\src\lv_core/lv_refr.c **** 
 209:..\..\..\lvgl\version_6.1.2\lvgl\src\lv_core/lv_refr.c ****         /*Clean up*/
 210:..\..\..\lvgl\version_6.1.2\lvgl\src\lv_core/lv_refr.c ****         memset(disp_refr->inv_areas, 0, sizeof(disp_refr->inv_areas));
 211:..\..\..\lvgl\version_6.1.2\lvgl\src\lv_core/lv_refr.c ****         memset(disp_refr->inv_area_joined, 0, sizeof(disp_refr->inv_area_joined));
 212:..\..\..\lvgl\version_6.1.2\lvgl\src\lv_core/lv_refr.c ****         disp_refr->inv_p = 0;
 213:..\..\..\lvgl\version_6.1.2\lvgl\src\lv_core/lv_refr.c **** 
 214:..\..\..\lvgl\version_6.1.2\lvgl\src\lv_core/lv_refr.c ****         /*Call monitor cb if present*/
 215:..\..\..\lvgl\version_6.1.2\lvgl\src\lv_core/lv_refr.c ****         if(disp_refr->driver.monitor_cb) {
 216:..\..\..\lvgl\version_6.1.2\lvgl\src\lv_core/lv_refr.c ****             disp_refr->driver.monitor_cb(&disp_refr->driver, lv_tick_elaps(start), px_num);
 217:..\..\..\lvgl\version_6.1.2\lvgl\src\lv_core/lv_refr.c ****         }
 218:..\..\..\lvgl\version_6.1.2\lvgl\src\lv_core/lv_refr.c ****     }
 219:..\..\..\lvgl\version_6.1.2\lvgl\src\lv_core/lv_refr.c **** 
 220:..\..\..\lvgl\version_6.1.2\lvgl\src\lv_core/lv_refr.c ****     lv_draw_free_buf();
 221:..\..\..\lvgl\version_6.1.2\lvgl\src\lv_core/lv_refr.c **** 
 222:..\..\..\lvgl\version_6.1.2\lvgl\src\lv_core/lv_refr.c ****     LV_LOG_TRACE("lv_refr_task: ready");
 223:..\..\..\lvgl\version_6.1.2\lvgl\src\lv_core/lv_refr.c **** }
 224:..\..\..\lvgl\version_6.1.2\lvgl\src\lv_core/lv_refr.c **** 
 225:..\..\..\lvgl\version_6.1.2\lvgl\src\lv_core/lv_refr.c **** /**********************
 226:..\..\..\lvgl\version_6.1.2\lvgl\src\lv_core/lv_refr.c ****  *   STATIC FUNCTIONS
 227:..\..\..\lvgl\version_6.1.2\lvgl\src\lv_core/lv_refr.c ****  **********************/
 228:..\..\..\lvgl\version_6.1.2\lvgl\src\lv_core/lv_refr.c **** 
 229:..\..\..\lvgl\version_6.1.2\lvgl\src\lv_core/lv_refr.c **** /**
 230:..\..\..\lvgl\version_6.1.2\lvgl\src\lv_core/lv_refr.c ****  * Join the areas which has got common parts
 231:..\..\..\lvgl\version_6.1.2\lvgl\src\lv_core/lv_refr.c ****  */
 232:..\..\..\lvgl\version_6.1.2\lvgl\src\lv_core/lv_refr.c **** static void lv_refr_join_area(void)
 233:..\..\..\lvgl\version_6.1.2\lvgl\src\lv_core/lv_refr.c **** {
 234:..\..\..\lvgl\version_6.1.2\lvgl\src\lv_core/lv_refr.c ****     uint32_t join_from;
 235:..\..\..\lvgl\version_6.1.2\lvgl\src\lv_core/lv_refr.c ****     uint32_t join_in;
 236:..\..\..\lvgl\version_6.1.2\lvgl\src\lv_core/lv_refr.c ****     lv_area_t joined_area;
 237:..\..\..\lvgl\version_6.1.2\lvgl\src\lv_core/lv_refr.c ****     for(join_in = 0; join_in < disp_refr->inv_p; join_in++) {
 238:..\..\..\lvgl\version_6.1.2\lvgl\src\lv_core/lv_refr.c ****         if(disp_refr->inv_area_joined[join_in] != 0) continue;
 239:..\..\..\lvgl\version_6.1.2\lvgl\src\lv_core/lv_refr.c **** 
 240:..\..\..\lvgl\version_6.1.2\lvgl\src\lv_core/lv_refr.c ****         /*Check all areas to join them in 'join_in'*/
 241:..\..\..\lvgl\version_6.1.2\lvgl\src\lv_core/lv_refr.c ****         for(join_from = 0; join_from < disp_refr->inv_p; join_from++) {
 242:..\..\..\lvgl\version_6.1.2\lvgl\src\lv_core/lv_refr.c ****             /*Handle only unjoined areas and ignore itself*/
 243:..\..\..\lvgl\version_6.1.2\lvgl\src\lv_core/lv_refr.c ****             if(disp_refr->inv_area_joined[join_from] != 0 || join_in == join_from) {
 244:..\..\..\lvgl\version_6.1.2\lvgl\src\lv_core/lv_refr.c ****                 continue;
 245:..\..\..\lvgl\version_6.1.2\lvgl\src\lv_core/lv_refr.c ****             }
 246:..\..\..\lvgl\version_6.1.2\lvgl\src\lv_core/lv_refr.c **** 
 247:..\..\..\lvgl\version_6.1.2\lvgl\src\lv_core/lv_refr.c ****             /*Check if the areas are on each other*/
 248:..\..\..\lvgl\version_6.1.2\lvgl\src\lv_core/lv_refr.c ****             if(lv_area_is_on(&disp_refr->inv_areas[join_in], &disp_refr->inv_areas[join_from]) == f
 249:..\..\..\lvgl\version_6.1.2\lvgl\src\lv_core/lv_refr.c ****                 continue;
 250:..\..\..\lvgl\version_6.1.2\lvgl\src\lv_core/lv_refr.c ****             }
 251:..\..\..\lvgl\version_6.1.2\lvgl\src\lv_core/lv_refr.c **** 
 252:..\..\..\lvgl\version_6.1.2\lvgl\src\lv_core/lv_refr.c ****             lv_area_join(&joined_area, &disp_refr->inv_areas[join_in], &disp_refr->inv_areas[join_f
 253:..\..\..\lvgl\version_6.1.2\lvgl\src\lv_core/lv_refr.c **** 
 254:..\..\..\lvgl\version_6.1.2\lvgl\src\lv_core/lv_refr.c ****             /*Join two area only if the joined area size is smaller*/
 255:..\..\..\lvgl\version_6.1.2\lvgl\src\lv_core/lv_refr.c ****             if(lv_area_get_size(&joined_area) < (lv_area_get_size(&disp_refr->inv_areas[join_in]) +
 256:..\..\..\lvgl\version_6.1.2\lvgl\src\lv_core/lv_refr.c ****                                                  lv_area_get_size(&disp_refr->inv_areas[join_from])
 257:..\..\..\lvgl\version_6.1.2\lvgl\src\lv_core/lv_refr.c ****                 lv_area_copy(&disp_refr->inv_areas[join_in], &joined_area);
 258:..\..\..\lvgl\version_6.1.2\lvgl\src\lv_core/lv_refr.c **** 
ARM GAS  C:\Users\pearlstl\AppData\Local\Temp\ccFIoKDo.s 			page 6


 259:..\..\..\lvgl\version_6.1.2\lvgl\src\lv_core/lv_refr.c ****                 /*Mark 'join_form' is joined into 'join_in'*/
 260:..\..\..\lvgl\version_6.1.2\lvgl\src\lv_core/lv_refr.c ****                 disp_refr->inv_area_joined[join_from] = 1;
 261:..\..\..\lvgl\version_6.1.2\lvgl\src\lv_core/lv_refr.c ****             }
 262:..\..\..\lvgl\version_6.1.2\lvgl\src\lv_core/lv_refr.c ****         }
 263:..\..\..\lvgl\version_6.1.2\lvgl\src\lv_core/lv_refr.c ****     }
 264:..\..\..\lvgl\version_6.1.2\lvgl\src\lv_core/lv_refr.c **** }
 265:..\..\..\lvgl\version_6.1.2\lvgl\src\lv_core/lv_refr.c **** 
 266:..\..\..\lvgl\version_6.1.2\lvgl\src\lv_core/lv_refr.c **** /**
 267:..\..\..\lvgl\version_6.1.2\lvgl\src\lv_core/lv_refr.c ****  * Refresh the joined areas
 268:..\..\..\lvgl\version_6.1.2\lvgl\src\lv_core/lv_refr.c ****  */
 269:..\..\..\lvgl\version_6.1.2\lvgl\src\lv_core/lv_refr.c **** static void lv_refr_areas(void)
 270:..\..\..\lvgl\version_6.1.2\lvgl\src\lv_core/lv_refr.c **** {
 271:..\..\..\lvgl\version_6.1.2\lvgl\src\lv_core/lv_refr.c ****     px_num = 0;
 272:..\..\..\lvgl\version_6.1.2\lvgl\src\lv_core/lv_refr.c ****     uint32_t i;
 273:..\..\..\lvgl\version_6.1.2\lvgl\src\lv_core/lv_refr.c **** 
 274:..\..\..\lvgl\version_6.1.2\lvgl\src\lv_core/lv_refr.c ****     for(i = 0; i < disp_refr->inv_p; i++) {
 275:..\..\..\lvgl\version_6.1.2\lvgl\src\lv_core/lv_refr.c ****         /*Refresh the unjoined areas*/
 276:..\..\..\lvgl\version_6.1.2\lvgl\src\lv_core/lv_refr.c ****         if(disp_refr->inv_area_joined[i] == 0) {
 277:..\..\..\lvgl\version_6.1.2\lvgl\src\lv_core/lv_refr.c **** 
 278:..\..\..\lvgl\version_6.1.2\lvgl\src\lv_core/lv_refr.c ****             lv_refr_area(&disp_refr->inv_areas[i]);
 279:..\..\..\lvgl\version_6.1.2\lvgl\src\lv_core/lv_refr.c **** 
 280:..\..\..\lvgl\version_6.1.2\lvgl\src\lv_core/lv_refr.c ****             if(disp_refr->driver.monitor_cb) px_num += lv_area_get_size(&disp_refr->inv_areas[i]);
 281:..\..\..\lvgl\version_6.1.2\lvgl\src\lv_core/lv_refr.c ****         }
 282:..\..\..\lvgl\version_6.1.2\lvgl\src\lv_core/lv_refr.c ****     }
 283:..\..\..\lvgl\version_6.1.2\lvgl\src\lv_core/lv_refr.c **** }
 284:..\..\..\lvgl\version_6.1.2\lvgl\src\lv_core/lv_refr.c **** 
 285:..\..\..\lvgl\version_6.1.2\lvgl\src\lv_core/lv_refr.c **** /**
 286:..\..\..\lvgl\version_6.1.2\lvgl\src\lv_core/lv_refr.c ****  * Refresh an area if there is Virtual Display Buffer
 287:..\..\..\lvgl\version_6.1.2\lvgl\src\lv_core/lv_refr.c ****  * @param area_p  pointer to an area to refresh
 288:..\..\..\lvgl\version_6.1.2\lvgl\src\lv_core/lv_refr.c ****  */
 289:..\..\..\lvgl\version_6.1.2\lvgl\src\lv_core/lv_refr.c **** static void lv_refr_area(const lv_area_t * area_p)
 290:..\..\..\lvgl\version_6.1.2\lvgl\src\lv_core/lv_refr.c **** {
 291:..\..\..\lvgl\version_6.1.2\lvgl\src\lv_core/lv_refr.c ****     /*True double buffering: there are two screen sized buffers. Just redraw directly into a
 292:..\..\..\lvgl\version_6.1.2\lvgl\src\lv_core/lv_refr.c ****      * buffer*/
 293:..\..\..\lvgl\version_6.1.2\lvgl\src\lv_core/lv_refr.c ****     if(lv_disp_is_true_double_buf(disp_refr)) {
 294:..\..\..\lvgl\version_6.1.2\lvgl\src\lv_core/lv_refr.c ****         lv_disp_buf_t * vdb = lv_disp_get_buf(disp_refr);
 295:..\..\..\lvgl\version_6.1.2\lvgl\src\lv_core/lv_refr.c ****         vdb->area.x1        = 0;
 296:..\..\..\lvgl\version_6.1.2\lvgl\src\lv_core/lv_refr.c ****         vdb->area.x2        = lv_disp_get_hor_res(disp_refr) - 1;
 297:..\..\..\lvgl\version_6.1.2\lvgl\src\lv_core/lv_refr.c ****         vdb->area.y1        = 0;
 298:..\..\..\lvgl\version_6.1.2\lvgl\src\lv_core/lv_refr.c ****         vdb->area.y2        = lv_disp_get_ver_res(disp_refr) - 1;
 299:..\..\..\lvgl\version_6.1.2\lvgl\src\lv_core/lv_refr.c ****         lv_refr_area_part(area_p);
 300:..\..\..\lvgl\version_6.1.2\lvgl\src\lv_core/lv_refr.c ****     }
 301:..\..\..\lvgl\version_6.1.2\lvgl\src\lv_core/lv_refr.c ****     /*The buffer is smaller: refresh the area in parts*/
 302:..\..\..\lvgl\version_6.1.2\lvgl\src\lv_core/lv_refr.c ****     else {
 303:..\..\..\lvgl\version_6.1.2\lvgl\src\lv_core/lv_refr.c ****         lv_disp_buf_t * vdb = lv_disp_get_buf(disp_refr);
 304:..\..\..\lvgl\version_6.1.2\lvgl\src\lv_core/lv_refr.c ****         /*Calculate the max row num*/
 305:..\..\..\lvgl\version_6.1.2\lvgl\src\lv_core/lv_refr.c ****         lv_coord_t w = lv_area_get_width(area_p);
 306:..\..\..\lvgl\version_6.1.2\lvgl\src\lv_core/lv_refr.c ****         lv_coord_t h = lv_area_get_height(area_p);
 307:..\..\..\lvgl\version_6.1.2\lvgl\src\lv_core/lv_refr.c ****         lv_coord_t y2 =
 308:..\..\..\lvgl\version_6.1.2\lvgl\src\lv_core/lv_refr.c ****             area_p->y2 >= lv_disp_get_ver_res(disp_refr) ? y2 = lv_disp_get_ver_res(disp_refr) - 1 
 309:..\..\..\lvgl\version_6.1.2\lvgl\src\lv_core/lv_refr.c **** 
 310:..\..\..\lvgl\version_6.1.2\lvgl\src\lv_core/lv_refr.c ****         int32_t max_row = (uint32_t)vdb->size / w;
 311:..\..\..\lvgl\version_6.1.2\lvgl\src\lv_core/lv_refr.c **** 
 312:..\..\..\lvgl\version_6.1.2\lvgl\src\lv_core/lv_refr.c ****         if(max_row > h) max_row = h;
 313:..\..\..\lvgl\version_6.1.2\lvgl\src\lv_core/lv_refr.c **** 
 314:..\..\..\lvgl\version_6.1.2\lvgl\src\lv_core/lv_refr.c ****         /*Round down the lines of VDB if rounding is added*/
 315:..\..\..\lvgl\version_6.1.2\lvgl\src\lv_core/lv_refr.c ****         if(disp_refr->driver.rounder_cb) {
ARM GAS  C:\Users\pearlstl\AppData\Local\Temp\ccFIoKDo.s 			page 7


 316:..\..\..\lvgl\version_6.1.2\lvgl\src\lv_core/lv_refr.c ****             lv_area_t tmp;
 317:..\..\..\lvgl\version_6.1.2\lvgl\src\lv_core/lv_refr.c ****             tmp.x1 = 0;
 318:..\..\..\lvgl\version_6.1.2\lvgl\src\lv_core/lv_refr.c ****             tmp.x2 = 0;
 319:..\..\..\lvgl\version_6.1.2\lvgl\src\lv_core/lv_refr.c ****             tmp.y1 = 0;
 320:..\..\..\lvgl\version_6.1.2\lvgl\src\lv_core/lv_refr.c **** 
 321:..\..\..\lvgl\version_6.1.2\lvgl\src\lv_core/lv_refr.c ****             lv_coord_t h_tmp = max_row;
 322:..\..\..\lvgl\version_6.1.2\lvgl\src\lv_core/lv_refr.c ****             do {
 323:..\..\..\lvgl\version_6.1.2\lvgl\src\lv_core/lv_refr.c ****                 tmp.y2 = h_tmp - 1;
 324:..\..\..\lvgl\version_6.1.2\lvgl\src\lv_core/lv_refr.c ****                 disp_refr->driver.rounder_cb(&disp_refr->driver, &tmp);
 325:..\..\..\lvgl\version_6.1.2\lvgl\src\lv_core/lv_refr.c **** 
 326:..\..\..\lvgl\version_6.1.2\lvgl\src\lv_core/lv_refr.c ****                 /*If this height fits into `max_row` then fine*/
 327:..\..\..\lvgl\version_6.1.2\lvgl\src\lv_core/lv_refr.c ****                 if(lv_area_get_height(&tmp) <= max_row) break;
 328:..\..\..\lvgl\version_6.1.2\lvgl\src\lv_core/lv_refr.c **** 
 329:..\..\..\lvgl\version_6.1.2\lvgl\src\lv_core/lv_refr.c ****                 /*Decrement the height of the area until it fits into `max_row` after rounding*/
 330:..\..\..\lvgl\version_6.1.2\lvgl\src\lv_core/lv_refr.c ****                 h_tmp--;
 331:..\..\..\lvgl\version_6.1.2\lvgl\src\lv_core/lv_refr.c ****             } while(h_tmp > 0);
 332:..\..\..\lvgl\version_6.1.2\lvgl\src\lv_core/lv_refr.c **** 
 333:..\..\..\lvgl\version_6.1.2\lvgl\src\lv_core/lv_refr.c ****             if(h_tmp <= 0) {
 334:..\..\..\lvgl\version_6.1.2\lvgl\src\lv_core/lv_refr.c ****                 LV_LOG_WARN("Can't set VDB height using the round function. (Wrong round_cb or to "
 335:..\..\..\lvgl\version_6.1.2\lvgl\src\lv_core/lv_refr.c ****                             "small VDB)");
 336:..\..\..\lvgl\version_6.1.2\lvgl\src\lv_core/lv_refr.c ****                 return;
 337:..\..\..\lvgl\version_6.1.2\lvgl\src\lv_core/lv_refr.c ****             } else {
 338:..\..\..\lvgl\version_6.1.2\lvgl\src\lv_core/lv_refr.c ****                 max_row = tmp.y2 + 1;
 339:..\..\..\lvgl\version_6.1.2\lvgl\src\lv_core/lv_refr.c ****             }
 340:..\..\..\lvgl\version_6.1.2\lvgl\src\lv_core/lv_refr.c ****         }
 341:..\..\..\lvgl\version_6.1.2\lvgl\src\lv_core/lv_refr.c **** 
 342:..\..\..\lvgl\version_6.1.2\lvgl\src\lv_core/lv_refr.c ****         /*Always use the full row*/
 343:..\..\..\lvgl\version_6.1.2\lvgl\src\lv_core/lv_refr.c ****         lv_coord_t row;
 344:..\..\..\lvgl\version_6.1.2\lvgl\src\lv_core/lv_refr.c ****         lv_coord_t row_last = 0;
 345:..\..\..\lvgl\version_6.1.2\lvgl\src\lv_core/lv_refr.c ****         for(row = area_p->y1; row + max_row - 1 <= y2; row += max_row) {
 346:..\..\..\lvgl\version_6.1.2\lvgl\src\lv_core/lv_refr.c ****             /*Calc. the next y coordinates of VDB*/
 347:..\..\..\lvgl\version_6.1.2\lvgl\src\lv_core/lv_refr.c ****             vdb->area.x1 = area_p->x1;
 348:..\..\..\lvgl\version_6.1.2\lvgl\src\lv_core/lv_refr.c ****             vdb->area.x2 = area_p->x2;
 349:..\..\..\lvgl\version_6.1.2\lvgl\src\lv_core/lv_refr.c ****             vdb->area.y1 = row;
 350:..\..\..\lvgl\version_6.1.2\lvgl\src\lv_core/lv_refr.c ****             vdb->area.y2 = row + max_row - 1;
 351:..\..\..\lvgl\version_6.1.2\lvgl\src\lv_core/lv_refr.c ****             if(vdb->area.y2 > y2) vdb->area.y2 = y2;
 352:..\..\..\lvgl\version_6.1.2\lvgl\src\lv_core/lv_refr.c ****             row_last = vdb->area.y2;
 353:..\..\..\lvgl\version_6.1.2\lvgl\src\lv_core/lv_refr.c ****             lv_refr_area_part(area_p);
 354:..\..\..\lvgl\version_6.1.2\lvgl\src\lv_core/lv_refr.c ****         }
 355:..\..\..\lvgl\version_6.1.2\lvgl\src\lv_core/lv_refr.c **** 
 356:..\..\..\lvgl\version_6.1.2\lvgl\src\lv_core/lv_refr.c ****         /*If the last y coordinates are not handled yet ...*/
 357:..\..\..\lvgl\version_6.1.2\lvgl\src\lv_core/lv_refr.c ****         if(y2 != row_last) {
 358:..\..\..\lvgl\version_6.1.2\lvgl\src\lv_core/lv_refr.c ****             /*Calc. the next y coordinates of VDB*/
 359:..\..\..\lvgl\version_6.1.2\lvgl\src\lv_core/lv_refr.c ****             vdb->area.x1 = area_p->x1;
 360:..\..\..\lvgl\version_6.1.2\lvgl\src\lv_core/lv_refr.c ****             vdb->area.x2 = area_p->x2;
 361:..\..\..\lvgl\version_6.1.2\lvgl\src\lv_core/lv_refr.c ****             vdb->area.y1 = row;
 362:..\..\..\lvgl\version_6.1.2\lvgl\src\lv_core/lv_refr.c ****             vdb->area.y2 = y2;
 363:..\..\..\lvgl\version_6.1.2\lvgl\src\lv_core/lv_refr.c **** 
 364:..\..\..\lvgl\version_6.1.2\lvgl\src\lv_core/lv_refr.c ****             /*Refresh this part too*/
 365:..\..\..\lvgl\version_6.1.2\lvgl\src\lv_core/lv_refr.c ****             lv_refr_area_part(area_p);
 366:..\..\..\lvgl\version_6.1.2\lvgl\src\lv_core/lv_refr.c ****         }
 367:..\..\..\lvgl\version_6.1.2\lvgl\src\lv_core/lv_refr.c ****     }
 368:..\..\..\lvgl\version_6.1.2\lvgl\src\lv_core/lv_refr.c **** }
 369:..\..\..\lvgl\version_6.1.2\lvgl\src\lv_core/lv_refr.c **** 
 370:..\..\..\lvgl\version_6.1.2\lvgl\src\lv_core/lv_refr.c **** /**
 371:..\..\..\lvgl\version_6.1.2\lvgl\src\lv_core/lv_refr.c ****  * Refresh a part of an area which is on the actual Virtual Display Buffer
 372:..\..\..\lvgl\version_6.1.2\lvgl\src\lv_core/lv_refr.c ****  * @param area_p pointer to an area to refresh
ARM GAS  C:\Users\pearlstl\AppData\Local\Temp\ccFIoKDo.s 			page 8


 373:..\..\..\lvgl\version_6.1.2\lvgl\src\lv_core/lv_refr.c ****  */
 374:..\..\..\lvgl\version_6.1.2\lvgl\src\lv_core/lv_refr.c **** static void lv_refr_area_part(const lv_area_t * area_p)
 375:..\..\..\lvgl\version_6.1.2\lvgl\src\lv_core/lv_refr.c **** {
 376:..\..\..\lvgl\version_6.1.2\lvgl\src\lv_core/lv_refr.c **** 
 377:..\..\..\lvgl\version_6.1.2\lvgl\src\lv_core/lv_refr.c ****     lv_disp_buf_t * vdb = lv_disp_get_buf(disp_refr);
 378:..\..\..\lvgl\version_6.1.2\lvgl\src\lv_core/lv_refr.c **** 
 379:..\..\..\lvgl\version_6.1.2\lvgl\src\lv_core/lv_refr.c ****     /*In non double buffered mode, before rendering the next part wait until the previous image is
 380:..\..\..\lvgl\version_6.1.2\lvgl\src\lv_core/lv_refr.c ****      * flushed*/
 381:..\..\..\lvgl\version_6.1.2\lvgl\src\lv_core/lv_refr.c ****     if(lv_disp_is_double_buf(disp_refr) == false) {
 382:..\..\..\lvgl\version_6.1.2\lvgl\src\lv_core/lv_refr.c ****         while(vdb->flushing)
 383:..\..\..\lvgl\version_6.1.2\lvgl\src\lv_core/lv_refr.c ****             ;
 384:..\..\..\lvgl\version_6.1.2\lvgl\src\lv_core/lv_refr.c ****     }
 385:..\..\..\lvgl\version_6.1.2\lvgl\src\lv_core/lv_refr.c **** 
 386:..\..\..\lvgl\version_6.1.2\lvgl\src\lv_core/lv_refr.c ****     lv_obj_t * top_p;
 387:..\..\..\lvgl\version_6.1.2\lvgl\src\lv_core/lv_refr.c **** 
 388:..\..\..\lvgl\version_6.1.2\lvgl\src\lv_core/lv_refr.c ****     /*Get the new mask from the original area and the act. VDB
 389:..\..\..\lvgl\version_6.1.2\lvgl\src\lv_core/lv_refr.c ****      It will be a part of 'area_p'*/
 390:..\..\..\lvgl\version_6.1.2\lvgl\src\lv_core/lv_refr.c ****     lv_area_t start_mask;
 391:..\..\..\lvgl\version_6.1.2\lvgl\src\lv_core/lv_refr.c ****     lv_area_intersect(&start_mask, area_p, &vdb->area);
 392:..\..\..\lvgl\version_6.1.2\lvgl\src\lv_core/lv_refr.c **** 
 393:..\..\..\lvgl\version_6.1.2\lvgl\src\lv_core/lv_refr.c ****     /*Get the most top object which is not covered by others*/
 394:..\..\..\lvgl\version_6.1.2\lvgl\src\lv_core/lv_refr.c ****     top_p = lv_refr_get_top_obj(&start_mask, lv_disp_get_scr_act(disp_refr));
 395:..\..\..\lvgl\version_6.1.2\lvgl\src\lv_core/lv_refr.c **** 
 396:..\..\..\lvgl\version_6.1.2\lvgl\src\lv_core/lv_refr.c ****     /*Do the refreshing from the top object*/
 397:..\..\..\lvgl\version_6.1.2\lvgl\src\lv_core/lv_refr.c ****     lv_refr_obj_and_children(top_p, &start_mask);
 398:..\..\..\lvgl\version_6.1.2\lvgl\src\lv_core/lv_refr.c **** 
 399:..\..\..\lvgl\version_6.1.2\lvgl\src\lv_core/lv_refr.c ****     /*Also refresh top and sys layer unconditionally*/
 400:..\..\..\lvgl\version_6.1.2\lvgl\src\lv_core/lv_refr.c ****     lv_refr_obj_and_children(lv_disp_get_layer_top(disp_refr), &start_mask);
 401:..\..\..\lvgl\version_6.1.2\lvgl\src\lv_core/lv_refr.c ****     lv_refr_obj_and_children(lv_disp_get_layer_sys(disp_refr), &start_mask);
 402:..\..\..\lvgl\version_6.1.2\lvgl\src\lv_core/lv_refr.c **** 
 403:..\..\..\lvgl\version_6.1.2\lvgl\src\lv_core/lv_refr.c ****     /* In true double buffered mode flush only once when all areas were rendered.
 404:..\..\..\lvgl\version_6.1.2\lvgl\src\lv_core/lv_refr.c ****      * In normal mode flush after every area */
 405:..\..\..\lvgl\version_6.1.2\lvgl\src\lv_core/lv_refr.c ****     if(lv_disp_is_true_double_buf(disp_refr) == false) {
 406:..\..\..\lvgl\version_6.1.2\lvgl\src\lv_core/lv_refr.c ****         lv_refr_vdb_flush();
 407:..\..\..\lvgl\version_6.1.2\lvgl\src\lv_core/lv_refr.c ****     }
 408:..\..\..\lvgl\version_6.1.2\lvgl\src\lv_core/lv_refr.c **** }
 409:..\..\..\lvgl\version_6.1.2\lvgl\src\lv_core/lv_refr.c **** 
 410:..\..\..\lvgl\version_6.1.2\lvgl\src\lv_core/lv_refr.c **** /**
 411:..\..\..\lvgl\version_6.1.2\lvgl\src\lv_core/lv_refr.c ****  * Search the most top object which fully covers an area
 412:..\..\..\lvgl\version_6.1.2\lvgl\src\lv_core/lv_refr.c ****  * @param area_p pointer to an area
 413:..\..\..\lvgl\version_6.1.2\lvgl\src\lv_core/lv_refr.c ****  * @param obj the first object to start the searching (typically a screen)
 414:..\..\..\lvgl\version_6.1.2\lvgl\src\lv_core/lv_refr.c ****  * @return
 415:..\..\..\lvgl\version_6.1.2\lvgl\src\lv_core/lv_refr.c ****  */
 416:..\..\..\lvgl\version_6.1.2\lvgl\src\lv_core/lv_refr.c **** static lv_obj_t * lv_refr_get_top_obj(const lv_area_t * area_p, lv_obj_t * obj)
 417:..\..\..\lvgl\version_6.1.2\lvgl\src\lv_core/lv_refr.c **** {
  28              		.loc 1 417 0
  29              		.cfi_startproc
  30              		@ args = 0, pretend = 0, frame = 0
  31              		@ frame_needed = 0, uses_anonymous_args = 0
  32              	.LVL0:
  33 0000 F8B5     		push	{r3, r4, r5, r6, r7, lr}
  34              		.cfi_def_cfa_offset 24
  35              		.cfi_offset 3, -24
  36              		.cfi_offset 4, -20
  37              		.cfi_offset 5, -16
  38              		.cfi_offset 6, -12
  39              		.cfi_offset 7, -8
ARM GAS  C:\Users\pearlstl\AppData\Local\Temp\ccFIoKDo.s 			page 9


  40              		.cfi_offset 14, -4
  41              		.loc 1 417 0
  42 0002 0F46     		mov	r7, r1
 418:..\..\..\lvgl\version_6.1.2\lvgl\src\lv_core/lv_refr.c ****     lv_obj_t * found_p = NULL;
 419:..\..\..\lvgl\version_6.1.2\lvgl\src\lv_core/lv_refr.c **** 
 420:..\..\..\lvgl\version_6.1.2\lvgl\src\lv_core/lv_refr.c ****     /*If this object is fully cover the draw area check the children too */
 421:..\..\..\lvgl\version_6.1.2\lvgl\src\lv_core/lv_refr.c ****     if(lv_area_is_in(area_p, &obj->coords) && obj->hidden == 0) {
  43              		.loc 1 421 0
  44 0004 1031     		adds	r1, r1, #16
  45              	.LVL1:
 417:..\..\..\lvgl\version_6.1.2\lvgl\src\lv_core/lv_refr.c ****     lv_obj_t * found_p = NULL;
  46              		.loc 1 417 0
  47 0006 0646     		mov	r6, r0
  48              	.LVL2:
  49              		.loc 1 421 0
  50 0008 FFF7FEFF 		bl	lv_area_is_in
  51              	.LVL3:
  52 000c E8B1     		cbz	r0, .L4
  53              		.loc 1 421 0 is_stmt 0 discriminator 1
  54 000e 97F82C30 		ldrb	r3, [r7, #44]	@ zero_extendqisi2
  55 0012 DB06     		lsls	r3, r3, #27
  56 0014 19D4     		bmi	.L4
  57              	.LBB30:
 422:..\..\..\lvgl\version_6.1.2\lvgl\src\lv_core/lv_refr.c ****         lv_obj_t * i;
 423:..\..\..\lvgl\version_6.1.2\lvgl\src\lv_core/lv_refr.c ****         LV_LL_READ(obj->child_ll, i)
  58              		.loc 1 423 0 is_stmt 1
  59 0016 3D1D     		adds	r5, r7, #4
  60 0018 2846     		mov	r0, r5
  61 001a FFF7FEFF 		bl	lv_ll_get_head
  62              	.LVL4:
  63 001e 0446     		mov	r4, r0
  64 0020 28B9     		cbnz	r0, .L6
  65 0022 0CE0     		b	.L5
  66              	.LVL5:
  67              	.L19:
  68              		.loc 1 423 0 is_stmt 0 discriminator 2
  69 0024 2846     		mov	r0, r5
  70              	.LVL6:
  71 0026 FFF7FEFF 		bl	lv_ll_get_next
  72              	.LVL7:
  73 002a 0446     		mov	r4, r0
  74 002c 38B1     		cbz	r0, .L5
  75              	.L6:
 424:..\..\..\lvgl\version_6.1.2\lvgl\src\lv_core/lv_refr.c ****         {
 425:..\..\..\lvgl\version_6.1.2\lvgl\src\lv_core/lv_refr.c ****             found_p = lv_refr_get_top_obj(area_p, i);
  76              		.loc 1 425 0 is_stmt 1
  77 002e 2146     		mov	r1, r4
  78 0030 3046     		mov	r0, r6
  79              	.LVL8:
  80 0032 FFF7E5FF 		bl	lv_refr_get_top_obj
  81              	.LVL9:
 423:..\..\..\lvgl\version_6.1.2\lvgl\src\lv_core/lv_refr.c ****         {
  82              		.loc 1 423 0
  83 0036 2146     		mov	r1, r4
 426:..\..\..\lvgl\version_6.1.2\lvgl\src\lv_core/lv_refr.c **** 
 427:..\..\..\lvgl\version_6.1.2\lvgl\src\lv_core/lv_refr.c ****             /*If a children is ok then break*/
 428:..\..\..\lvgl\version_6.1.2\lvgl\src\lv_core/lv_refr.c ****             if(found_p != NULL) {
ARM GAS  C:\Users\pearlstl\AppData\Local\Temp\ccFIoKDo.s 			page 10


  84              		.loc 1 428 0
  85 0038 0028     		cmp	r0, #0
  86 003a F3D0     		beq	.L19
  87              	.LVL10:
  88              	.LBE30:
 429:..\..\..\lvgl\version_6.1.2\lvgl\src\lv_core/lv_refr.c ****                 break;
 430:..\..\..\lvgl\version_6.1.2\lvgl\src\lv_core/lv_refr.c ****             }
 431:..\..\..\lvgl\version_6.1.2\lvgl\src\lv_core/lv_refr.c ****         }
 432:..\..\..\lvgl\version_6.1.2\lvgl\src\lv_core/lv_refr.c **** 
 433:..\..\..\lvgl\version_6.1.2\lvgl\src\lv_core/lv_refr.c ****         /*If no better children check this object*/
 434:..\..\..\lvgl\version_6.1.2\lvgl\src\lv_core/lv_refr.c ****         if(found_p == NULL) {
 435:..\..\..\lvgl\version_6.1.2\lvgl\src\lv_core/lv_refr.c ****             const lv_style_t * style = lv_obj_get_style(obj);
 436:..\..\..\lvgl\version_6.1.2\lvgl\src\lv_core/lv_refr.c ****             if(style->body.opa == LV_OPA_COVER && obj->design_cb(obj, area_p, LV_DESIGN_COVER_CHK) 
 437:..\..\..\lvgl\version_6.1.2\lvgl\src\lv_core/lv_refr.c ****                lv_obj_get_opa_scale(obj) == LV_OPA_COVER) {
 438:..\..\..\lvgl\version_6.1.2\lvgl\src\lv_core/lv_refr.c ****                 found_p = obj;
 439:..\..\..\lvgl\version_6.1.2\lvgl\src\lv_core/lv_refr.c ****             }
 440:..\..\..\lvgl\version_6.1.2\lvgl\src\lv_core/lv_refr.c ****         }
 441:..\..\..\lvgl\version_6.1.2\lvgl\src\lv_core/lv_refr.c ****     }
 442:..\..\..\lvgl\version_6.1.2\lvgl\src\lv_core/lv_refr.c **** 
 443:..\..\..\lvgl\version_6.1.2\lvgl\src\lv_core/lv_refr.c ****     return found_p;
 444:..\..\..\lvgl\version_6.1.2\lvgl\src\lv_core/lv_refr.c **** }
  89              		.loc 1 444 0
  90 003c F8BD     		pop	{r3, r4, r5, r6, r7, pc}
  91              	.LVL11:
  92              	.L5:
  93              	.LBB33:
  94              	.LBB31:
 435:..\..\..\lvgl\version_6.1.2\lvgl\src\lv_core/lv_refr.c ****             if(style->body.opa == LV_OPA_COVER && obj->design_cb(obj, area_p, LV_DESIGN_COVER_CHK) 
  95              		.loc 1 435 0
  96 003e 3846     		mov	r0, r7
  97              	.LVL12:
  98 0040 FFF7FEFF 		bl	lv_obj_get_style
  99              	.LVL13:
 436:..\..\..\lvgl\version_6.1.2\lvgl\src\lv_core/lv_refr.c ****                lv_obj_get_opa_scale(obj) == LV_OPA_COVER) {
 100              		.loc 1 436 0
 101 0044 837B     		ldrb	r3, [r0, #14]	@ zero_extendqisi2
 102 0046 FF2B     		cmp	r3, #255
 103 0048 01D0     		beq	.L20
 104              	.LVL14:
 105              	.L4:
 106              	.LBE31:
 107              	.LBE33:
 418:..\..\..\lvgl\version_6.1.2\lvgl\src\lv_core/lv_refr.c **** 
 108              		.loc 1 418 0
 109 004a 0020     		movs	r0, #0
 110 004c F8BD     		pop	{r3, r4, r5, r6, r7, pc}
 111              	.LVL15:
 112              	.L20:
 113              	.LBB34:
 114              	.LBB32:
 436:..\..\..\lvgl\version_6.1.2\lvgl\src\lv_core/lv_refr.c ****                lv_obj_get_opa_scale(obj) == LV_OPA_COVER) {
 115              		.loc 1 436 0 discriminator 1
 116 004e 3146     		mov	r1, r6
 117 0050 3B6A     		ldr	r3, [r7, #32]
 118 0052 0222     		movs	r2, #2
 119 0054 3846     		mov	r0, r7
 120              	.LVL16:
ARM GAS  C:\Users\pearlstl\AppData\Local\Temp\ccFIoKDo.s 			page 11


 121 0056 9847     		blx	r3
 122              	.LVL17:
 123 0058 0028     		cmp	r0, #0
 124 005a F6D0     		beq	.L4
 437:..\..\..\lvgl\version_6.1.2\lvgl\src\lv_core/lv_refr.c ****                 found_p = obj;
 125              		.loc 1 437 0 discriminator 2
 126 005c 3846     		mov	r0, r7
 127 005e FFF7FEFF 		bl	lv_obj_get_opa_scale
 128              	.LVL18:
 436:..\..\..\lvgl\version_6.1.2\lvgl\src\lv_core/lv_refr.c ****                lv_obj_get_opa_scale(obj) == LV_OPA_COVER) {
 129              		.loc 1 436 0 discriminator 2
 130 0062 FF28     		cmp	r0, #255
 131 0064 F1D1     		bne	.L4
 132 0066 3846     		mov	r0, r7
 133              	.LVL19:
 134              	.LBE32:
 135              	.LBE34:
 443:..\..\..\lvgl\version_6.1.2\lvgl\src\lv_core/lv_refr.c **** }
 136              		.loc 1 443 0
 137 0068 F8BD     		pop	{r3, r4, r5, r6, r7, pc}
 138              		.cfi_endproc
 139              	.LFE45:
 140              		.size	lv_refr_get_top_obj, .-lv_refr_get_top_obj
 141 006a 00BF     		.section	.text.lv_refr_obj.part.2,"ax",%progbits
 142              		.align	2
 143              		.thumb
 144              		.thumb_func
 145              		.type	lv_refr_obj.part.2, %function
 146              	lv_refr_obj.part.2:
 147              	.LFB51:
 445:..\..\..\lvgl\version_6.1.2\lvgl\src\lv_core/lv_refr.c **** 
 446:..\..\..\lvgl\version_6.1.2\lvgl\src\lv_core/lv_refr.c **** /**
 447:..\..\..\lvgl\version_6.1.2\lvgl\src\lv_core/lv_refr.c ****  * Make the refreshing from an object. Draw all its children and the youngers too.
 448:..\..\..\lvgl\version_6.1.2\lvgl\src\lv_core/lv_refr.c ****  * @param top_p pointer to an objects. Start the drawing from it.
 449:..\..\..\lvgl\version_6.1.2\lvgl\src\lv_core/lv_refr.c ****  * @param mask_p pointer to an area, the objects will be drawn only here
 450:..\..\..\lvgl\version_6.1.2\lvgl\src\lv_core/lv_refr.c ****  */
 451:..\..\..\lvgl\version_6.1.2\lvgl\src\lv_core/lv_refr.c **** static void lv_refr_obj_and_children(lv_obj_t * top_p, const lv_area_t * mask_p)
 452:..\..\..\lvgl\version_6.1.2\lvgl\src\lv_core/lv_refr.c **** {
 453:..\..\..\lvgl\version_6.1.2\lvgl\src\lv_core/lv_refr.c ****     /* Normally always will be a top_obj (at least the screen)
 454:..\..\..\lvgl\version_6.1.2\lvgl\src\lv_core/lv_refr.c ****      * but in special cases (e.g. if the screen has alpha) it won't.
 455:..\..\..\lvgl\version_6.1.2\lvgl\src\lv_core/lv_refr.c ****      * In this case use the screen directly */
 456:..\..\..\lvgl\version_6.1.2\lvgl\src\lv_core/lv_refr.c ****     if(top_p == NULL) top_p = lv_disp_get_scr_act(disp_refr);
 457:..\..\..\lvgl\version_6.1.2\lvgl\src\lv_core/lv_refr.c **** 
 458:..\..\..\lvgl\version_6.1.2\lvgl\src\lv_core/lv_refr.c ****     /*Refresh the top object and its children*/
 459:..\..\..\lvgl\version_6.1.2\lvgl\src\lv_core/lv_refr.c ****     lv_refr_obj(top_p, mask_p);
 460:..\..\..\lvgl\version_6.1.2\lvgl\src\lv_core/lv_refr.c **** 
 461:..\..\..\lvgl\version_6.1.2\lvgl\src\lv_core/lv_refr.c ****     /*Draw the 'younger' sibling objects because they can be on top_obj */
 462:..\..\..\lvgl\version_6.1.2\lvgl\src\lv_core/lv_refr.c ****     lv_obj_t * par;
 463:..\..\..\lvgl\version_6.1.2\lvgl\src\lv_core/lv_refr.c ****     lv_obj_t * border_p = top_p;
 464:..\..\..\lvgl\version_6.1.2\lvgl\src\lv_core/lv_refr.c **** 
 465:..\..\..\lvgl\version_6.1.2\lvgl\src\lv_core/lv_refr.c ****     par = lv_obj_get_parent(top_p);
 466:..\..\..\lvgl\version_6.1.2\lvgl\src\lv_core/lv_refr.c **** 
 467:..\..\..\lvgl\version_6.1.2\lvgl\src\lv_core/lv_refr.c ****     /*Do until not reach the screen*/
 468:..\..\..\lvgl\version_6.1.2\lvgl\src\lv_core/lv_refr.c ****     while(par != NULL) {
 469:..\..\..\lvgl\version_6.1.2\lvgl\src\lv_core/lv_refr.c ****         /*object before border_p has to be redrawn*/
 470:..\..\..\lvgl\version_6.1.2\lvgl\src\lv_core/lv_refr.c ****         lv_obj_t * i = lv_ll_get_prev(&(par->child_ll), border_p);
 471:..\..\..\lvgl\version_6.1.2\lvgl\src\lv_core/lv_refr.c **** 
ARM GAS  C:\Users\pearlstl\AppData\Local\Temp\ccFIoKDo.s 			page 12


 472:..\..\..\lvgl\version_6.1.2\lvgl\src\lv_core/lv_refr.c ****         while(i != NULL) {
 473:..\..\..\lvgl\version_6.1.2\lvgl\src\lv_core/lv_refr.c ****             /*Refresh the objects*/
 474:..\..\..\lvgl\version_6.1.2\lvgl\src\lv_core/lv_refr.c ****             lv_refr_obj(i, mask_p);
 475:..\..\..\lvgl\version_6.1.2\lvgl\src\lv_core/lv_refr.c ****             i = lv_ll_get_prev(&(par->child_ll), i);
 476:..\..\..\lvgl\version_6.1.2\lvgl\src\lv_core/lv_refr.c ****         }
 477:..\..\..\lvgl\version_6.1.2\lvgl\src\lv_core/lv_refr.c **** 
 478:..\..\..\lvgl\version_6.1.2\lvgl\src\lv_core/lv_refr.c ****         /*Call the post draw design function of the parents of the to object*/
 479:..\..\..\lvgl\version_6.1.2\lvgl\src\lv_core/lv_refr.c ****         par->design_cb(par, mask_p, LV_DESIGN_DRAW_POST);
 480:..\..\..\lvgl\version_6.1.2\lvgl\src\lv_core/lv_refr.c **** 
 481:..\..\..\lvgl\version_6.1.2\lvgl\src\lv_core/lv_refr.c ****         /*The new border will be there last parents,
 482:..\..\..\lvgl\version_6.1.2\lvgl\src\lv_core/lv_refr.c ****          *so the 'younger' brothers of parent will be refreshed*/
 483:..\..\..\lvgl\version_6.1.2\lvgl\src\lv_core/lv_refr.c ****         border_p = par;
 484:..\..\..\lvgl\version_6.1.2\lvgl\src\lv_core/lv_refr.c ****         /*Go a level deeper*/
 485:..\..\..\lvgl\version_6.1.2\lvgl\src\lv_core/lv_refr.c ****         par = lv_obj_get_parent(par);
 486:..\..\..\lvgl\version_6.1.2\lvgl\src\lv_core/lv_refr.c ****     }
 487:..\..\..\lvgl\version_6.1.2\lvgl\src\lv_core/lv_refr.c **** }
 488:..\..\..\lvgl\version_6.1.2\lvgl\src\lv_core/lv_refr.c **** 
 489:..\..\..\lvgl\version_6.1.2\lvgl\src\lv_core/lv_refr.c **** /**
 490:..\..\..\lvgl\version_6.1.2\lvgl\src\lv_core/lv_refr.c ****  * Refresh an object an all of its children. (Called recursively)
 491:..\..\..\lvgl\version_6.1.2\lvgl\src\lv_core/lv_refr.c ****  * @param obj pointer to an object to refresh
 492:..\..\..\lvgl\version_6.1.2\lvgl\src\lv_core/lv_refr.c ****  * @param mask_ori_p pointer to an area, the objects will be drawn only here
 493:..\..\..\lvgl\version_6.1.2\lvgl\src\lv_core/lv_refr.c ****  */
 494:..\..\..\lvgl\version_6.1.2\lvgl\src\lv_core/lv_refr.c **** static void lv_refr_obj(lv_obj_t * obj, const lv_area_t * mask_ori_p)
 148              		.loc 1 494 0
 149              		.cfi_startproc
 150              		@ args = 0, pretend = 0, frame = 40
 151              		@ frame_needed = 0, uses_anonymous_args = 0
 152              	.LVL20:
 153 0000 F0B5     		push	{r4, r5, r6, r7, lr}
 154              		.cfi_def_cfa_offset 20
 155              		.cfi_offset 4, -20
 156              		.cfi_offset 5, -16
 157              		.cfi_offset 6, -12
 158              		.cfi_offset 7, -8
 159              		.cfi_offset 14, -4
 160 0002 8BB0     		sub	sp, sp, #44
 161              		.cfi_def_cfa_offset 64
 495:..\..\..\lvgl\version_6.1.2\lvgl\src\lv_core/lv_refr.c **** {
 496:..\..\..\lvgl\version_6.1.2\lvgl\src\lv_core/lv_refr.c ****     /*Do not refresh hidden objects*/
 497:..\..\..\lvgl\version_6.1.2\lvgl\src\lv_core/lv_refr.c ****     if(obj->hidden != 0) return;
 498:..\..\..\lvgl\version_6.1.2\lvgl\src\lv_core/lv_refr.c **** 
 499:..\..\..\lvgl\version_6.1.2\lvgl\src\lv_core/lv_refr.c ****     bool union_ok; /* Store the return value of area_union */
 500:..\..\..\lvgl\version_6.1.2\lvgl\src\lv_core/lv_refr.c ****     /* Truncate the original mask to the coordinates of the parent
 501:..\..\..\lvgl\version_6.1.2\lvgl\src\lv_core/lv_refr.c ****      * because the parent and its children are visible only here */
 502:..\..\..\lvgl\version_6.1.2\lvgl\src\lv_core/lv_refr.c ****     lv_area_t obj_mask;
 503:..\..\..\lvgl\version_6.1.2\lvgl\src\lv_core/lv_refr.c ****     lv_area_t obj_ext_mask;
 504:..\..\..\lvgl\version_6.1.2\lvgl\src\lv_core/lv_refr.c ****     lv_area_t obj_area;
 505:..\..\..\lvgl\version_6.1.2\lvgl\src\lv_core/lv_refr.c ****     lv_coord_t ext_size = obj->ext_draw_pad;
 162              		.loc 1 505 0
 163 0004 B0F93040 		ldrsh	r4, [r0, #48]
 164              	.LVL21:
 494:..\..\..\lvgl\version_6.1.2\lvgl\src\lv_core/lv_refr.c **** {
 165              		.loc 1 494 0
 166 0008 0E46     		mov	r6, r1
 506:..\..\..\lvgl\version_6.1.2\lvgl\src\lv_core/lv_refr.c ****     lv_obj_get_coords(obj, &obj_area);
 167              		.loc 1 506 0
 168 000a 04A9     		add	r1, sp, #16
ARM GAS  C:\Users\pearlstl\AppData\Local\Temp\ccFIoKDo.s 			page 13


 169              	.LVL22:
 494:..\..\..\lvgl\version_6.1.2\lvgl\src\lv_core/lv_refr.c **** {
 170              		.loc 1 494 0
 171 000c 0546     		mov	r5, r0
 172              		.loc 1 506 0
 173 000e FFF7FEFF 		bl	lv_obj_get_coords
 174              	.LVL23:
 507:..\..\..\lvgl\version_6.1.2\lvgl\src\lv_core/lv_refr.c ****     obj_area.x1 -= ext_size;
 508:..\..\..\lvgl\version_6.1.2\lvgl\src\lv_core/lv_refr.c ****     obj_area.y1 -= ext_size;
 175              		.loc 1 508 0
 176 0012 BDF81210 		ldrh	r1, [sp, #18]
 509:..\..\..\lvgl\version_6.1.2\lvgl\src\lv_core/lv_refr.c ****     obj_area.x2 += ext_size;
 177              		.loc 1 509 0
 178 0016 BDF81400 		ldrh	r0, [sp, #20]
 510:..\..\..\lvgl\version_6.1.2\lvgl\src\lv_core/lv_refr.c ****     obj_area.y2 += ext_size;
 179              		.loc 1 510 0
 180 001a BDF81620 		ldrh	r2, [sp, #22]
 507:..\..\..\lvgl\version_6.1.2\lvgl\src\lv_core/lv_refr.c ****     obj_area.x1 -= ext_size;
 181              		.loc 1 507 0
 182 001e BDF81070 		ldrh	r7, [sp, #16]
 183 0022 A3B2     		uxth	r3, r4
 508:..\..\..\lvgl\version_6.1.2\lvgl\src\lv_core/lv_refr.c ****     obj_area.x2 += ext_size;
 184              		.loc 1 508 0
 185 0024 C91A     		subs	r1, r1, r3
 509:..\..\..\lvgl\version_6.1.2\lvgl\src\lv_core/lv_refr.c ****     obj_area.x2 += ext_size;
 186              		.loc 1 509 0
 187 0026 1844     		add	r0, r0, r3
 507:..\..\..\lvgl\version_6.1.2\lvgl\src\lv_core/lv_refr.c ****     obj_area.y1 -= ext_size;
 188              		.loc 1 507 0
 189 0028 FC1A     		subs	r4, r7, r3
 190              	.LVL24:
 508:..\..\..\lvgl\version_6.1.2\lvgl\src\lv_core/lv_refr.c ****     obj_area.x2 += ext_size;
 191              		.loc 1 508 0
 192 002a ADF81210 		strh	r1, [sp, #18]	@ movhi
 193              		.loc 1 510 0
 194 002e 1344     		add	r3, r3, r2
 195              	.LVL25:
 509:..\..\..\lvgl\version_6.1.2\lvgl\src\lv_core/lv_refr.c ****     obj_area.y2 += ext_size;
 196              		.loc 1 509 0
 197 0030 ADF81400 		strh	r0, [sp, #20]	@ movhi
 511:..\..\..\lvgl\version_6.1.2\lvgl\src\lv_core/lv_refr.c ****     union_ok = lv_area_intersect(&obj_ext_mask, mask_ori_p, &obj_area);
 198              		.loc 1 511 0
 199 0034 04AA     		add	r2, sp, #16
 200 0036 3146     		mov	r1, r6
 201 0038 02A8     		add	r0, sp, #8
 507:..\..\..\lvgl\version_6.1.2\lvgl\src\lv_core/lv_refr.c ****     obj_area.y1 -= ext_size;
 202              		.loc 1 507 0
 203 003a ADF81040 		strh	r4, [sp, #16]	@ movhi
 510:..\..\..\lvgl\version_6.1.2\lvgl\src\lv_core/lv_refr.c ****     union_ok = lv_area_intersect(&obj_ext_mask, mask_ori_p, &obj_area);
 204              		.loc 1 510 0
 205 003e ADF81630 		strh	r3, [sp, #22]	@ movhi
 206              		.loc 1 511 0
 207 0042 FFF7FEFF 		bl	lv_area_intersect
 208              	.LVL26:
 512:..\..\..\lvgl\version_6.1.2\lvgl\src\lv_core/lv_refr.c **** 
 513:..\..\..\lvgl\version_6.1.2\lvgl\src\lv_core/lv_refr.c ****     /*Draw the parent and its children only if they ore on 'mask_parent'*/
 514:..\..\..\lvgl\version_6.1.2\lvgl\src\lv_core/lv_refr.c ****     if(union_ok != false) {
ARM GAS  C:\Users\pearlstl\AppData\Local\Temp\ccFIoKDo.s 			page 14


 209              		.loc 1 514 0
 210 0046 08B9     		cbnz	r0, .L39
 515:..\..\..\lvgl\version_6.1.2\lvgl\src\lv_core/lv_refr.c **** 
 516:..\..\..\lvgl\version_6.1.2\lvgl\src\lv_core/lv_refr.c ****         /* Redraw the object */
 517:..\..\..\lvgl\version_6.1.2\lvgl\src\lv_core/lv_refr.c ****         obj->design_cb(obj, &obj_ext_mask, LV_DESIGN_DRAW_MAIN);
 518:..\..\..\lvgl\version_6.1.2\lvgl\src\lv_core/lv_refr.c **** 
 519:..\..\..\lvgl\version_6.1.2\lvgl\src\lv_core/lv_refr.c **** #if MASK_AREA_DEBUG
 520:..\..\..\lvgl\version_6.1.2\lvgl\src\lv_core/lv_refr.c ****         static lv_color_t debug_color = LV_COLOR_RED;
 521:..\..\..\lvgl\version_6.1.2\lvgl\src\lv_core/lv_refr.c ****         lv_draw_fill(&obj_ext_mask, &obj_ext_mask, debug_color, LV_OPA_50);
 522:..\..\..\lvgl\version_6.1.2\lvgl\src\lv_core/lv_refr.c ****         debug_color.full *= 17;
 523:..\..\..\lvgl\version_6.1.2\lvgl\src\lv_core/lv_refr.c ****         debug_color.full += 0xA1;
 524:..\..\..\lvgl\version_6.1.2\lvgl\src\lv_core/lv_refr.c **** #endif
 525:..\..\..\lvgl\version_6.1.2\lvgl\src\lv_core/lv_refr.c ****         /*Create a new 'obj_mask' without 'ext_size' because the children can't be visible there*/
 526:..\..\..\lvgl\version_6.1.2\lvgl\src\lv_core/lv_refr.c ****         lv_obj_get_coords(obj, &obj_area);
 527:..\..\..\lvgl\version_6.1.2\lvgl\src\lv_core/lv_refr.c ****         union_ok = lv_area_intersect(&obj_mask, mask_ori_p, &obj_area);
 528:..\..\..\lvgl\version_6.1.2\lvgl\src\lv_core/lv_refr.c ****         if(union_ok != false) {
 529:..\..\..\lvgl\version_6.1.2\lvgl\src\lv_core/lv_refr.c ****             lv_area_t mask_child; /*Mask from obj and its child*/
 530:..\..\..\lvgl\version_6.1.2\lvgl\src\lv_core/lv_refr.c ****             lv_obj_t * child_p;
 531:..\..\..\lvgl\version_6.1.2\lvgl\src\lv_core/lv_refr.c ****             lv_area_t child_area;
 532:..\..\..\lvgl\version_6.1.2\lvgl\src\lv_core/lv_refr.c ****             LV_LL_READ_BACK(obj->child_ll, child_p)
 533:..\..\..\lvgl\version_6.1.2\lvgl\src\lv_core/lv_refr.c ****             {
 534:..\..\..\lvgl\version_6.1.2\lvgl\src\lv_core/lv_refr.c ****                 lv_obj_get_coords(child_p, &child_area);
 535:..\..\..\lvgl\version_6.1.2\lvgl\src\lv_core/lv_refr.c ****                 ext_size = child_p->ext_draw_pad;
 536:..\..\..\lvgl\version_6.1.2\lvgl\src\lv_core/lv_refr.c ****                 child_area.x1 -= ext_size;
 537:..\..\..\lvgl\version_6.1.2\lvgl\src\lv_core/lv_refr.c ****                 child_area.y1 -= ext_size;
 538:..\..\..\lvgl\version_6.1.2\lvgl\src\lv_core/lv_refr.c ****                 child_area.x2 += ext_size;
 539:..\..\..\lvgl\version_6.1.2\lvgl\src\lv_core/lv_refr.c ****                 child_area.y2 += ext_size;
 540:..\..\..\lvgl\version_6.1.2\lvgl\src\lv_core/lv_refr.c ****                 /* Get the union (common parts) of original mask (from obj)
 541:..\..\..\lvgl\version_6.1.2\lvgl\src\lv_core/lv_refr.c ****                  * and its child */
 542:..\..\..\lvgl\version_6.1.2\lvgl\src\lv_core/lv_refr.c ****                 union_ok = lv_area_intersect(&mask_child, &obj_mask, &child_area);
 543:..\..\..\lvgl\version_6.1.2\lvgl\src\lv_core/lv_refr.c **** 
 544:..\..\..\lvgl\version_6.1.2\lvgl\src\lv_core/lv_refr.c ****                 /*If the parent and the child has common area then refresh the child */
 545:..\..\..\lvgl\version_6.1.2\lvgl\src\lv_core/lv_refr.c ****                 if(union_ok) {
 546:..\..\..\lvgl\version_6.1.2\lvgl\src\lv_core/lv_refr.c ****                     /*Refresh the next children*/
 547:..\..\..\lvgl\version_6.1.2\lvgl\src\lv_core/lv_refr.c ****                     lv_refr_obj(child_p, &mask_child);
 548:..\..\..\lvgl\version_6.1.2\lvgl\src\lv_core/lv_refr.c ****                 }
 549:..\..\..\lvgl\version_6.1.2\lvgl\src\lv_core/lv_refr.c ****             }
 550:..\..\..\lvgl\version_6.1.2\lvgl\src\lv_core/lv_refr.c ****         }
 551:..\..\..\lvgl\version_6.1.2\lvgl\src\lv_core/lv_refr.c **** 
 552:..\..\..\lvgl\version_6.1.2\lvgl\src\lv_core/lv_refr.c ****         /* If all the children are redrawn make 'post draw' design */
 553:..\..\..\lvgl\version_6.1.2\lvgl\src\lv_core/lv_refr.c ****         obj->design_cb(obj, &obj_ext_mask, LV_DESIGN_DRAW_POST);
 554:..\..\..\lvgl\version_6.1.2\lvgl\src\lv_core/lv_refr.c ****     }
 555:..\..\..\lvgl\version_6.1.2\lvgl\src\lv_core/lv_refr.c **** }
 211              		.loc 1 555 0
 212 0048 0BB0     		add	sp, sp, #44
 213              		.cfi_remember_state
 214              		.cfi_def_cfa_offset 20
 215              		@ sp needed
 216 004a F0BD     		pop	{r4, r5, r6, r7, pc}
 217              	.LVL27:
 218              	.L39:
 219              		.cfi_restore_state
 517:..\..\..\lvgl\version_6.1.2\lvgl\src\lv_core/lv_refr.c **** 
 220              		.loc 1 517 0
 221 004c 0022     		movs	r2, #0
 222 004e 2B6A     		ldr	r3, [r5, #32]
 223 0050 02A9     		add	r1, sp, #8
ARM GAS  C:\Users\pearlstl\AppData\Local\Temp\ccFIoKDo.s 			page 15


 224 0052 2846     		mov	r0, r5
 225              	.LVL28:
 226 0054 9847     		blx	r3
 227              	.LVL29:
 526:..\..\..\lvgl\version_6.1.2\lvgl\src\lv_core/lv_refr.c ****         union_ok = lv_area_intersect(&obj_mask, mask_ori_p, &obj_area);
 228              		.loc 1 526 0
 229 0056 04A9     		add	r1, sp, #16
 230 0058 2846     		mov	r0, r5
 231 005a FFF7FEFF 		bl	lv_obj_get_coords
 232              	.LVL30:
 527:..\..\..\lvgl\version_6.1.2\lvgl\src\lv_core/lv_refr.c ****         if(union_ok != false) {
 233              		.loc 1 527 0
 234 005e 04AA     		add	r2, sp, #16
 235 0060 3146     		mov	r1, r6
 236 0062 6846     		mov	r0, sp
 237 0064 FFF7FEFF 		bl	lv_area_intersect
 238              	.LVL31:
 528:..\..\..\lvgl\version_6.1.2\lvgl\src\lv_core/lv_refr.c ****             lv_area_t mask_child; /*Mask from obj and its child*/
 239              		.loc 1 528 0
 240 0068 30B9     		cbnz	r0, .L40
 241              	.LVL32:
 242              	.L23:
 553:..\..\..\lvgl\version_6.1.2\lvgl\src\lv_core/lv_refr.c ****     }
 243              		.loc 1 553 0
 244 006a 02A9     		add	r1, sp, #8
 245 006c 2B6A     		ldr	r3, [r5, #32]
 246 006e 2846     		mov	r0, r5
 247 0070 0122     		movs	r2, #1
 248 0072 9847     		blx	r3
 249              	.LVL33:
 250              		.loc 1 555 0
 251 0074 0BB0     		add	sp, sp, #44
 252              		.cfi_remember_state
 253              		.cfi_def_cfa_offset 20
 254              		@ sp needed
 255 0076 F0BD     		pop	{r4, r5, r6, r7, pc}
 256              	.LVL34:
 257              	.L40:
 258              		.cfi_restore_state
 259              	.LBB38:
 532:..\..\..\lvgl\version_6.1.2\lvgl\src\lv_core/lv_refr.c ****             {
 260              		.loc 1 532 0
 261 0078 2E1D     		adds	r6, r5, #4
 262              	.LVL35:
 263 007a 3046     		mov	r0, r6
 264              	.LVL36:
 265 007c FFF7FEFF 		bl	lv_ll_get_tail
 266              	.LVL37:
 267 0080 0446     		mov	r4, r0
 268 0082 38B9     		cbnz	r0, .L26
 269 0084 F1E7     		b	.L23
 270              	.LVL38:
 271              	.L25:
 272 0086 2146     		mov	r1, r4
 273 0088 3046     		mov	r0, r6
 274 008a FFF7FEFF 		bl	lv_ll_get_prev
 275              	.LVL39:
ARM GAS  C:\Users\pearlstl\AppData\Local\Temp\ccFIoKDo.s 			page 16


 276 008e 0446     		mov	r4, r0
 277 0090 0028     		cmp	r0, #0
 278 0092 EAD0     		beq	.L23
 279              	.L26:
 534:..\..\..\lvgl\version_6.1.2\lvgl\src\lv_core/lv_refr.c ****                 ext_size = child_p->ext_draw_pad;
 280              		.loc 1 534 0
 281 0094 08A9     		add	r1, sp, #32
 282 0096 2046     		mov	r0, r4
 283 0098 FFF7FEFF 		bl	lv_obj_get_coords
 284              	.LVL40:
 536:..\..\..\lvgl\version_6.1.2\lvgl\src\lv_core/lv_refr.c ****                 child_area.y1 -= ext_size;
 285              		.loc 1 536 0
 286 009c 238E     		ldrh	r3, [r4, #48]
 537:..\..\..\lvgl\version_6.1.2\lvgl\src\lv_core/lv_refr.c ****                 child_area.x2 += ext_size;
 287              		.loc 1 537 0
 288 009e BDF82210 		ldrh	r1, [sp, #34]
 538:..\..\..\lvgl\version_6.1.2\lvgl\src\lv_core/lv_refr.c ****                 child_area.y2 += ext_size;
 289              		.loc 1 538 0
 290 00a2 BDF82400 		ldrh	r0, [sp, #36]
 539:..\..\..\lvgl\version_6.1.2\lvgl\src\lv_core/lv_refr.c ****                 /* Get the union (common parts) of original mask (from obj)
 291              		.loc 1 539 0
 292 00a6 BDF82620 		ldrh	r2, [sp, #38]
 536:..\..\..\lvgl\version_6.1.2\lvgl\src\lv_core/lv_refr.c ****                 child_area.y1 -= ext_size;
 293              		.loc 1 536 0
 294 00aa BDF82070 		ldrh	r7, [sp, #32]
 537:..\..\..\lvgl\version_6.1.2\lvgl\src\lv_core/lv_refr.c ****                 child_area.x2 += ext_size;
 295              		.loc 1 537 0
 296 00ae C91A     		subs	r1, r1, r3
 538:..\..\..\lvgl\version_6.1.2\lvgl\src\lv_core/lv_refr.c ****                 child_area.y2 += ext_size;
 297              		.loc 1 538 0
 298 00b0 1844     		add	r0, r0, r3
 536:..\..\..\lvgl\version_6.1.2\lvgl\src\lv_core/lv_refr.c ****                 child_area.y1 -= ext_size;
 299              		.loc 1 536 0
 300 00b2 FF1A     		subs	r7, r7, r3
 537:..\..\..\lvgl\version_6.1.2\lvgl\src\lv_core/lv_refr.c ****                 child_area.x2 += ext_size;
 301              		.loc 1 537 0
 302 00b4 ADF82210 		strh	r1, [sp, #34]	@ movhi
 539:..\..\..\lvgl\version_6.1.2\lvgl\src\lv_core/lv_refr.c ****                 /* Get the union (common parts) of original mask (from obj)
 303              		.loc 1 539 0
 304 00b8 1344     		add	r3, r3, r2
 538:..\..\..\lvgl\version_6.1.2\lvgl\src\lv_core/lv_refr.c ****                 child_area.y2 += ext_size;
 305              		.loc 1 538 0
 306 00ba ADF82400 		strh	r0, [sp, #36]	@ movhi
 542:..\..\..\lvgl\version_6.1.2\lvgl\src\lv_core/lv_refr.c **** 
 307              		.loc 1 542 0
 308 00be 08AA     		add	r2, sp, #32
 309 00c0 6946     		mov	r1, sp
 310 00c2 06A8     		add	r0, sp, #24
 536:..\..\..\lvgl\version_6.1.2\lvgl\src\lv_core/lv_refr.c ****                 child_area.y1 -= ext_size;
 311              		.loc 1 536 0
 312 00c4 ADF82070 		strh	r7, [sp, #32]	@ movhi
 539:..\..\..\lvgl\version_6.1.2\lvgl\src\lv_core/lv_refr.c ****                 /* Get the union (common parts) of original mask (from obj)
 313              		.loc 1 539 0
 314 00c8 ADF82630 		strh	r3, [sp, #38]	@ movhi
 542:..\..\..\lvgl\version_6.1.2\lvgl\src\lv_core/lv_refr.c **** 
 315              		.loc 1 542 0
 316 00cc FFF7FEFF 		bl	lv_area_intersect
ARM GAS  C:\Users\pearlstl\AppData\Local\Temp\ccFIoKDo.s 			page 17


 317              	.LVL41:
 545:..\..\..\lvgl\version_6.1.2\lvgl\src\lv_core/lv_refr.c ****                     /*Refresh the next children*/
 318              		.loc 1 545 0
 319 00d0 0028     		cmp	r0, #0
 320 00d2 D8D0     		beq	.L25
 321              	.LVL42:
 322              	.LBB39:
 323              	.LBB40:
 497:..\..\..\lvgl\version_6.1.2\lvgl\src\lv_core/lv_refr.c **** 
 324              		.loc 1 497 0
 325 00d4 94F82C30 		ldrb	r3, [r4, #44]	@ zero_extendqisi2
 326 00d8 DB06     		lsls	r3, r3, #27
 327 00da D4D4     		bmi	.L25
 328 00dc 06A9     		add	r1, sp, #24
 329              	.LVL43:
 330 00de 2046     		mov	r0, r4
 331              	.LVL44:
 332 00e0 FFF78EFF 		bl	lv_refr_obj.part.2
 333              	.LVL45:
 334 00e4 CFE7     		b	.L25
 335              	.LBE40:
 336              	.LBE39:
 337              	.LBE38:
 338              		.cfi_endproc
 339              	.LFE51:
 340              		.size	lv_refr_obj.part.2, .-lv_refr_obj.part.2
 341 00e6 00BF     		.section	.text.lv_refr_obj_and_children,"ax",%progbits
 342              		.align	2
 343              		.thumb
 344              		.thumb_func
 345              		.type	lv_refr_obj_and_children, %function
 346              	lv_refr_obj_and_children:
 347              	.LFB46:
 452:..\..\..\lvgl\version_6.1.2\lvgl\src\lv_core/lv_refr.c ****     /* Normally always will be a top_obj (at least the screen)
 348              		.loc 1 452 0
 349              		.cfi_startproc
 350              		@ args = 0, pretend = 0, frame = 0
 351              		@ frame_needed = 0, uses_anonymous_args = 0
 352              	.LVL46:
 353 0000 F8B5     		push	{r3, r4, r5, r6, r7, lr}
 354              		.cfi_def_cfa_offset 24
 355              		.cfi_offset 3, -24
 356              		.cfi_offset 4, -20
 357              		.cfi_offset 5, -16
 358              		.cfi_offset 6, -12
 359              		.cfi_offset 7, -8
 360              		.cfi_offset 14, -4
 452:..\..\..\lvgl\version_6.1.2\lvgl\src\lv_core/lv_refr.c ****     /* Normally always will be a top_obj (at least the screen)
 361              		.loc 1 452 0
 362 0002 0F46     		mov	r7, r1
 363 0004 0446     		mov	r4, r0
 456:..\..\..\lvgl\version_6.1.2\lvgl\src\lv_core/lv_refr.c **** 
 364              		.loc 1 456 0
 365 0006 A8B3     		cbz	r0, .L57
 366              	.LVL47:
 367              	.L42:
 368              	.LBB41:
ARM GAS  C:\Users\pearlstl\AppData\Local\Temp\ccFIoKDo.s 			page 18


 369              	.LBB42:
 497:..\..\..\lvgl\version_6.1.2\lvgl\src\lv_core/lv_refr.c **** 
 370              		.loc 1 497 0
 371 0008 94F82C30 		ldrb	r3, [r4, #44]	@ zero_extendqisi2
 372 000c DA06     		lsls	r2, r3, #27
 373 000e 26D5     		bpl	.L58
 374              	.LVL48:
 375              	.LBE42:
 376              	.LBE41:
 465:..\..\..\lvgl\version_6.1.2\lvgl\src\lv_core/lv_refr.c **** 
 377              		.loc 1 465 0
 378 0010 2046     		mov	r0, r4
 379 0012 FFF7FEFF 		bl	lv_obj_get_parent
 380              	.LVL49:
 468:..\..\..\lvgl\version_6.1.2\lvgl\src\lv_core/lv_refr.c ****         /*object before border_p has to be redrawn*/
 381              		.loc 1 468 0
 382 0016 0646     		mov	r6, r0
 383 0018 58B3     		cbz	r0, .L59
 384              	.LVL50:
 385              	.L46:
 386              	.LBB44:
 470:..\..\..\lvgl\version_6.1.2\lvgl\src\lv_core/lv_refr.c **** 
 387              		.loc 1 470 0
 388 001a 351D     		adds	r5, r6, #4
 389              	.LVL51:
 390              	.L56:
 391 001c 2146     		mov	r1, r4
 392 001e 2846     		mov	r0, r5
 393 0020 FFF7FEFF 		bl	lv_ll_get_prev
 394              	.LVL52:
 472:..\..\..\lvgl\version_6.1.2\lvgl\src\lv_core/lv_refr.c ****             /*Refresh the objects*/
 395              		.loc 1 472 0
 396 0024 0446     		mov	r4, r0
 397 0026 68B1     		cbz	r0, .L60
 398              	.L49:
 399              	.LVL53:
 400              	.LBB45:
 401              	.LBB46:
 497:..\..\..\lvgl\version_6.1.2\lvgl\src\lv_core/lv_refr.c **** 
 402              		.loc 1 497 0
 403 0028 90F82C30 		ldrb	r3, [r0, #44]	@ zero_extendqisi2
 404 002c DB06     		lsls	r3, r3, #27
 405 002e F5D4     		bmi	.L56
 406 0030 3946     		mov	r1, r7
 407 0032 FFF7FEFF 		bl	lv_refr_obj.part.2
 408              	.LVL54:
 409              	.LBE46:
 410              	.LBE45:
 470:..\..\..\lvgl\version_6.1.2\lvgl\src\lv_core/lv_refr.c **** 
 411              		.loc 1 470 0
 412 0036 2146     		mov	r1, r4
 413 0038 2846     		mov	r0, r5
 414 003a FFF7FEFF 		bl	lv_ll_get_prev
 415              	.LVL55:
 472:..\..\..\lvgl\version_6.1.2\lvgl\src\lv_core/lv_refr.c ****             /*Refresh the objects*/
 416              		.loc 1 472 0
 417 003e 0446     		mov	r4, r0
ARM GAS  C:\Users\pearlstl\AppData\Local\Temp\ccFIoKDo.s 			page 19


 418              	.LVL56:
 419 0040 0028     		cmp	r0, #0
 420 0042 F1D1     		bne	.L49
 421              	.L60:
 479:..\..\..\lvgl\version_6.1.2\lvgl\src\lv_core/lv_refr.c **** 
 422              		.loc 1 479 0
 423 0044 336A     		ldr	r3, [r6, #32]
 424 0046 0122     		movs	r2, #1
 425 0048 3946     		mov	r1, r7
 426 004a 3046     		mov	r0, r6
 427              	.LVL57:
 428 004c 9847     		blx	r3
 429              	.LVL58:
 485:..\..\..\lvgl\version_6.1.2\lvgl\src\lv_core/lv_refr.c ****     }
 430              		.loc 1 485 0
 431 004e 3046     		mov	r0, r6
 432 0050 FFF7FEFF 		bl	lv_obj_get_parent
 433              	.LVL59:
 434 0054 3446     		mov	r4, r6
 435              	.LVL60:
 436              	.LBE44:
 468:..\..\..\lvgl\version_6.1.2\lvgl\src\lv_core/lv_refr.c ****         /*object before border_p has to be redrawn*/
 437              		.loc 1 468 0
 438 0056 08B1     		cbz	r0, .L61
 439              	.LVL61:
 440 0058 0646     		mov	r6, r0
 441 005a DEE7     		b	.L46
 442              	.L61:
 443 005c F8BD     		pop	{r3, r4, r5, r6, r7, pc}
 444              	.LVL62:
 445              	.L58:
 446              	.LBB47:
 447              	.LBB43:
 448 005e 3946     		mov	r1, r7
 449 0060 2046     		mov	r0, r4
 450              	.LVL63:
 451 0062 FFF7FEFF 		bl	lv_refr_obj.part.2
 452              	.LVL64:
 453              	.LBE43:
 454              	.LBE47:
 465:..\..\..\lvgl\version_6.1.2\lvgl\src\lv_core/lv_refr.c **** 
 455              		.loc 1 465 0
 456 0066 2046     		mov	r0, r4
 457 0068 FFF7FEFF 		bl	lv_obj_get_parent
 458              	.LVL65:
 468:..\..\..\lvgl\version_6.1.2\lvgl\src\lv_core/lv_refr.c ****         /*object before border_p has to be redrawn*/
 459              		.loc 1 468 0
 460 006c 0646     		mov	r6, r0
 461 006e 0028     		cmp	r0, #0
 462 0070 D3D1     		bne	.L46
 463              	.L59:
 464 0072 F8BD     		pop	{r3, r4, r5, r6, r7, pc}
 465              	.LVL66:
 466              	.L57:
 456:..\..\..\lvgl\version_6.1.2\lvgl\src\lv_core/lv_refr.c **** 
 467              		.loc 1 456 0 discriminator 1
 468 0074 024B     		ldr	r3, .L62
ARM GAS  C:\Users\pearlstl\AppData\Local\Temp\ccFIoKDo.s 			page 20


 469 0076 1868     		ldr	r0, [r3]
 470              	.LVL67:
 471 0078 FFF7FEFF 		bl	lv_disp_get_scr_act
 472              	.LVL68:
 473 007c 0446     		mov	r4, r0
 474              	.LVL69:
 475 007e C3E7     		b	.L42
 476              	.L63:
 477              		.align	2
 478              	.L62:
 479 0080 00000000 		.word	.LANCHOR0
 480              		.cfi_endproc
 481              	.LFE46:
 482              		.size	lv_refr_obj_and_children, .-lv_refr_obj_and_children
 483              		.section	.text.lv_refr_area_part,"ax",%progbits
 484              		.align	2
 485              		.thumb
 486              		.thumb_func
 487              		.type	lv_refr_area_part, %function
 488              	lv_refr_area_part:
 489              	.LFB44:
 375:..\..\..\lvgl\version_6.1.2\lvgl\src\lv_core/lv_refr.c **** 
 490              		.loc 1 375 0
 491              		.cfi_startproc
 492              		@ args = 0, pretend = 0, frame = 8
 493              		@ frame_needed = 0, uses_anonymous_args = 0
 494              	.LVL70:
 495 0000 70B5     		push	{r4, r5, r6, lr}
 496              		.cfi_def_cfa_offset 16
 497              		.cfi_offset 4, -16
 498              		.cfi_offset 5, -12
 499              		.cfi_offset 6, -8
 500              		.cfi_offset 14, -4
 377:..\..\..\lvgl\version_6.1.2\lvgl\src\lv_core/lv_refr.c **** 
 501              		.loc 1 377 0
 502 0002 2E4D     		ldr	r5, .L93
 375:..\..\..\lvgl\version_6.1.2\lvgl\src\lv_core/lv_refr.c **** 
 503              		.loc 1 375 0
 504 0004 82B0     		sub	sp, sp, #8
 505              		.cfi_def_cfa_offset 24
 375:..\..\..\lvgl\version_6.1.2\lvgl\src\lv_core/lv_refr.c **** 
 506              		.loc 1 375 0
 507 0006 0646     		mov	r6, r0
 377:..\..\..\lvgl\version_6.1.2\lvgl\src\lv_core/lv_refr.c **** 
 508              		.loc 1 377 0
 509 0008 2868     		ldr	r0, [r5]
 510              	.LVL71:
 511 000a FFF7FEFF 		bl	lv_disp_get_buf
 512              	.LVL72:
 513 000e 0446     		mov	r4, r0
 514              	.LVL73:
 381:..\..\..\lvgl\version_6.1.2\lvgl\src\lv_core/lv_refr.c ****         while(vdb->flushing)
 515              		.loc 1 381 0
 516 0010 2868     		ldr	r0, [r5]
 517              	.LVL74:
 518 0012 FFF7FEFF 		bl	lv_disp_is_double_buf
 519              	.LVL75:
ARM GAS  C:\Users\pearlstl\AppData\Local\Temp\ccFIoKDo.s 			page 21


 520 0016 10B3     		cbz	r0, .L66
 521              	.L65:
 391:..\..\..\lvgl\version_6.1.2\lvgl\src\lv_core/lv_refr.c **** 
 522              		.loc 1 391 0
 523 0018 04F11002 		add	r2, r4, #16
 524 001c 3146     		mov	r1, r6
 525 001e 6846     		mov	r0, sp
 526 0020 FFF7FEFF 		bl	lv_area_intersect
 527              	.LVL76:
 394:..\..\..\lvgl\version_6.1.2\lvgl\src\lv_core/lv_refr.c **** 
 528              		.loc 1 394 0
 529 0024 2868     		ldr	r0, [r5]
 530 0026 254E     		ldr	r6, .L93
 531              	.LVL77:
 532 0028 FFF7FEFF 		bl	lv_disp_get_scr_act
 533              	.LVL78:
 534 002c 0146     		mov	r1, r0
 535 002e 6846     		mov	r0, sp
 536 0030 FFF7FEFF 		bl	lv_refr_get_top_obj
 537              	.LVL79:
 397:..\..\..\lvgl\version_6.1.2\lvgl\src\lv_core/lv_refr.c **** 
 538              		.loc 1 397 0
 539 0034 6946     		mov	r1, sp
 540 0036 FFF7FEFF 		bl	lv_refr_obj_and_children
 541              	.LVL80:
 400:..\..\..\lvgl\version_6.1.2\lvgl\src\lv_core/lv_refr.c ****     lv_refr_obj_and_children(lv_disp_get_layer_sys(disp_refr), &start_mask);
 542              		.loc 1 400 0
 543 003a 2868     		ldr	r0, [r5]
 544 003c FFF7FEFF 		bl	lv_disp_get_layer_top
 545              	.LVL81:
 546 0040 6946     		mov	r1, sp
 547 0042 FFF7FEFF 		bl	lv_refr_obj_and_children
 548              	.LVL82:
 401:..\..\..\lvgl\version_6.1.2\lvgl\src\lv_core/lv_refr.c **** 
 549              		.loc 1 401 0
 550 0046 2868     		ldr	r0, [r5]
 551 0048 FFF7FEFF 		bl	lv_disp_get_layer_sys
 552              	.LVL83:
 553 004c 6946     		mov	r1, sp
 554 004e FFF7FEFF 		bl	lv_refr_obj_and_children
 555              	.LVL84:
 405:..\..\..\lvgl\version_6.1.2\lvgl\src\lv_core/lv_refr.c ****         lv_refr_vdb_flush();
 556              		.loc 1 405 0
 557 0052 2868     		ldr	r0, [r5]
 558 0054 FFF7FEFF 		bl	lv_disp_is_true_double_buf
 559              	.LVL85:
 560 0058 40B1     		cbz	r0, .L92
 561              	.LVL86:
 562              	.L64:
 408:..\..\..\lvgl\version_6.1.2\lvgl\src\lv_core/lv_refr.c **** 
 563              		.loc 1 408 0
 564 005a 02B0     		add	sp, sp, #8
 565              		.cfi_remember_state
 566              		.cfi_def_cfa_offset 16
 567              		@ sp needed
 568 005c 70BD     		pop	{r4, r5, r6, pc}
 569              	.LVL87:
ARM GAS  C:\Users\pearlstl\AppData\Local\Temp\ccFIoKDo.s 			page 22


 570              	.L66:
 571              		.cfi_restore_state
 382:..\..\..\lvgl\version_6.1.2\lvgl\src\lv_core/lv_refr.c ****             ;
 572              		.loc 1 382 0 discriminator 1
 573 005e A369     		ldr	r3, [r4, #24]
 574 0060 DA07     		lsls	r2, r3, #31
 575 0062 D9D5     		bpl	.L65
 382:..\..\..\lvgl\version_6.1.2\lvgl\src\lv_core/lv_refr.c ****             ;
 576              		.loc 1 382 0 is_stmt 0
 577 0064 A369     		ldr	r3, [r4, #24]
 578 0066 DA07     		lsls	r2, r3, #31
 579 0068 F9D4     		bmi	.L66
 580 006a D5E7     		b	.L65
 581              	.LVL88:
 582              	.L92:
 583              	.LBB52:
 584              	.LBB53:
 556:..\..\..\lvgl\version_6.1.2\lvgl\src\lv_core/lv_refr.c **** 
 557:..\..\..\lvgl\version_6.1.2\lvgl\src\lv_core/lv_refr.c **** /**
 558:..\..\..\lvgl\version_6.1.2\lvgl\src\lv_core/lv_refr.c ****  * Flush the content of the VDB
 559:..\..\..\lvgl\version_6.1.2\lvgl\src\lv_core/lv_refr.c ****  */
 560:..\..\..\lvgl\version_6.1.2\lvgl\src\lv_core/lv_refr.c **** static void lv_refr_vdb_flush(void)
 561:..\..\..\lvgl\version_6.1.2\lvgl\src\lv_core/lv_refr.c **** {
 562:..\..\..\lvgl\version_6.1.2\lvgl\src\lv_core/lv_refr.c ****     lv_disp_buf_t * vdb = lv_disp_get_buf(disp_refr);
 585              		.loc 1 562 0 is_stmt 1
 586 006c 3068     		ldr	r0, [r6]
 587 006e FFF7FEFF 		bl	lv_disp_get_buf
 588              	.LVL89:
 589 0072 0446     		mov	r4, r0
 590              	.LVL90:
 563:..\..\..\lvgl\version_6.1.2\lvgl\src\lv_core/lv_refr.c **** 
 564:..\..\..\lvgl\version_6.1.2\lvgl\src\lv_core/lv_refr.c ****     /*In double buffered mode wait until the other buffer is flushed before flushing the current
 565:..\..\..\lvgl\version_6.1.2\lvgl\src\lv_core/lv_refr.c ****      * one*/
 566:..\..\..\lvgl\version_6.1.2\lvgl\src\lv_core/lv_refr.c ****     if(lv_disp_is_double_buf(disp_refr)) {
 591              		.loc 1 566 0
 592 0074 3068     		ldr	r0, [r6]
 593              	.LVL91:
 594 0076 FFF7FEFF 		bl	lv_disp_is_double_buf
 595              	.LVL92:
 596 007a B8B9     		cbnz	r0, .L82
 597              	.L69:
 567:..\..\..\lvgl\version_6.1.2\lvgl\src\lv_core/lv_refr.c ****         while(vdb->flushing)
 568:..\..\..\lvgl\version_6.1.2\lvgl\src\lv_core/lv_refr.c ****             ;
 569:..\..\..\lvgl\version_6.1.2\lvgl\src\lv_core/lv_refr.c ****     }
 570:..\..\..\lvgl\version_6.1.2\lvgl\src\lv_core/lv_refr.c **** 
 571:..\..\..\lvgl\version_6.1.2\lvgl\src\lv_core/lv_refr.c ****     vdb->flushing = 1;
 598              		.loc 1 571 0
 599 007c 237E     		ldrb	r3, [r4, #24]	@ zero_extendqisi2
 600              	.LBB54:
 601              	.LBB55:
 143:..\..\..\lvgl\version_6.1.2\lvgl\src\lv_core/lv_refr.c **** }
 602              		.loc 1 143 0
 603 007e 2868     		ldr	r0, [r5]
 604              	.LBE55:
 605              	.LBE54:
 606              		.loc 1 571 0
 607 0080 43F00103 		orr	r3, r3, #1
ARM GAS  C:\Users\pearlstl\AppData\Local\Temp\ccFIoKDo.s 			page 23


 608 0084 2376     		strb	r3, [r4, #24]
 572:..\..\..\lvgl\version_6.1.2\lvgl\src\lv_core/lv_refr.c **** 
 573:..\..\..\lvgl\version_6.1.2\lvgl\src\lv_core/lv_refr.c ****     /*Flush the rendered content to the display*/
 574:..\..\..\lvgl\version_6.1.2\lvgl\src\lv_core/lv_refr.c ****     lv_disp_t * disp = lv_refr_get_disp_refreshing();
 575:..\..\..\lvgl\version_6.1.2\lvgl\src\lv_core/lv_refr.c ****     if(disp->driver.flush_cb) disp->driver.flush_cb(&disp->driver, &vdb->area, vdb->buf_act);
 609              		.loc 1 575 0
 610 0086 C368     		ldr	r3, [r0, #12]
 611 0088 1BB1     		cbz	r3, .L71
 612 008a A268     		ldr	r2, [r4, #8]
 613 008c 04F11001 		add	r1, r4, #16
 614 0090 9847     		blx	r3
 615              	.LVL93:
 616              	.L71:
 576:..\..\..\lvgl\version_6.1.2\lvgl\src\lv_core/lv_refr.c **** 
 577:..\..\..\lvgl\version_6.1.2\lvgl\src\lv_core/lv_refr.c ****     if(vdb->buf1 && vdb->buf2) {
 617              		.loc 1 577 0
 618 0092 2368     		ldr	r3, [r4]
 619 0094 002B     		cmp	r3, #0
 620 0096 E0D0     		beq	.L64
 621 0098 6268     		ldr	r2, [r4, #4]
 622 009a 002A     		cmp	r2, #0
 623 009c DDD0     		beq	.L64
 578:..\..\..\lvgl\version_6.1.2\lvgl\src\lv_core/lv_refr.c ****         if(vdb->buf_act == vdb->buf1)
 624              		.loc 1 578 0
 625 009e A168     		ldr	r1, [r4, #8]
 579:..\..\..\lvgl\version_6.1.2\lvgl\src\lv_core/lv_refr.c ****             vdb->buf_act = vdb->buf2;
 626              		.loc 1 579 0
 627 00a0 8B42     		cmp	r3, r1
 628 00a2 08BF     		it	eq
 629 00a4 1346     		moveq	r3, r2
 630 00a6 A360     		str	r3, [r4, #8]
 631              	.LBE53:
 632              	.LBE52:
 408:..\..\..\lvgl\version_6.1.2\lvgl\src\lv_core/lv_refr.c **** 
 633              		.loc 1 408 0
 634 00a8 02B0     		add	sp, sp, #8
 635              		.cfi_remember_state
 636              		.cfi_def_cfa_offset 16
 637              		@ sp needed
 638 00aa 70BD     		pop	{r4, r5, r6, pc}
 639              	.LVL94:
 640              	.L82:
 641              		.cfi_restore_state
 642              	.LBB57:
 643              	.LBB56:
 567:..\..\..\lvgl\version_6.1.2\lvgl\src\lv_core/lv_refr.c ****             ;
 644              		.loc 1 567 0
 645 00ac A369     		ldr	r3, [r4, #24]
 646 00ae DB07     		lsls	r3, r3, #31
 647 00b0 E4D5     		bpl	.L69
 648 00b2 A369     		ldr	r3, [r4, #24]
 649 00b4 DB07     		lsls	r3, r3, #31
 650 00b6 F9D4     		bmi	.L82
 651 00b8 E0E7     		b	.L69
 652              	.L94:
 653 00ba 00BF     		.align	2
 654              	.L93:
ARM GAS  C:\Users\pearlstl\AppData\Local\Temp\ccFIoKDo.s 			page 24


 655 00bc 00000000 		.word	.LANCHOR0
 656              	.LBE56:
 657              	.LBE57:
 658              		.cfi_endproc
 659              	.LFE44:
 660              		.size	lv_refr_area_part, .-lv_refr_area_part
 661              		.section	.text.lv_refr_init,"ax",%progbits
 662              		.align	2
 663              		.global	lv_refr_init
 664              		.thumb
 665              		.thumb_func
 666              		.type	lv_refr_init, %function
 667              	lv_refr_init:
 668              	.LFB35:
  63:..\..\..\lvgl\version_6.1.2\lvgl\src\lv_core/lv_refr.c ****     /*Nothing to do*/
 669              		.loc 1 63 0
 670              		.cfi_startproc
 671              		@ args = 0, pretend = 0, frame = 0
 672              		@ frame_needed = 0, uses_anonymous_args = 0
 673              		@ link register save eliminated.
 674 0000 7047     		bx	lr
 675              		.cfi_endproc
 676              	.LFE35:
 677              		.size	lv_refr_init, .-lv_refr_init
 678 0002 00BF     		.section	.text.lv_inv_area,"ax",%progbits
 679              		.align	2
 680              		.global	lv_inv_area
 681              		.thumb
 682              		.thumb_func
 683              		.type	lv_inv_area, %function
 684              	lv_inv_area:
 685              	.LFB37:
  95:..\..\..\lvgl\version_6.1.2\lvgl\src\lv_core/lv_refr.c ****     if(!disp) disp = lv_disp_get_default();
 686              		.loc 1 95 0
 687              		.cfi_startproc
 688              		@ args = 0, pretend = 0, frame = 16
 689              		@ frame_needed = 0, uses_anonymous_args = 0
 690              	.LVL95:
  95:..\..\..\lvgl\version_6.1.2\lvgl\src\lv_core/lv_refr.c ****     if(!disp) disp = lv_disp_get_default();
 691              		.loc 1 95 0
 692 0000 30B5     		push	{r4, r5, lr}
 693              		.cfi_def_cfa_offset 12
 694              		.cfi_offset 4, -12
 695              		.cfi_offset 5, -8
 696              		.cfi_offset 14, -4
 697 0002 0C46     		mov	r4, r1
 698 0004 85B0     		sub	sp, sp, #20
 699              		.cfi_def_cfa_offset 32
 700 0006 0546     		mov	r5, r0
  96:..\..\..\lvgl\version_6.1.2\lvgl\src\lv_core/lv_refr.c ****     if(!disp) return;
 701              		.loc 1 96 0
 702 0008 0028     		cmp	r0, #0
 703 000a 40D0     		beq	.L121
 704              	.LVL96:
 705              	.L97:
 100:..\..\..\lvgl\version_6.1.2\lvgl\src\lv_core/lv_refr.c ****         disp->inv_p = 0;
 706              		.loc 1 100 0
ARM GAS  C:\Users\pearlstl\AppData\Local\Temp\ccFIoKDo.s 			page 25


 707 000c 002C     		cmp	r4, #0
 708 000e 36D0     		beq	.L122
 106:..\..\..\lvgl\version_6.1.2\lvgl\src\lv_core/lv_refr.c ****     scr_area.y1 = 0;
 709              		.loc 1 106 0
 710 0010 0023     		movs	r3, #0
 108:..\..\..\lvgl\version_6.1.2\lvgl\src\lv_core/lv_refr.c ****     scr_area.y2 = lv_disp_get_ver_res(disp) - 1;
 711              		.loc 1 108 0
 712 0012 2846     		mov	r0, r5
 106:..\..\..\lvgl\version_6.1.2\lvgl\src\lv_core/lv_refr.c ****     scr_area.y1 = 0;
 713              		.loc 1 106 0
 714 0014 ADF80030 		strh	r3, [sp]	@ movhi
 107:..\..\..\lvgl\version_6.1.2\lvgl\src\lv_core/lv_refr.c ****     scr_area.x2 = lv_disp_get_hor_res(disp) - 1;
 715              		.loc 1 107 0
 716 0018 ADF80230 		strh	r3, [sp, #2]	@ movhi
 108:..\..\..\lvgl\version_6.1.2\lvgl\src\lv_core/lv_refr.c ****     scr_area.y2 = lv_disp_get_ver_res(disp) - 1;
 717              		.loc 1 108 0
 718 001c FFF7FEFF 		bl	lv_disp_get_hor_res
 719              	.LVL97:
 720 0020 431E     		subs	r3, r0, #1
 109:..\..\..\lvgl\version_6.1.2\lvgl\src\lv_core/lv_refr.c **** 
 721              		.loc 1 109 0
 722 0022 2846     		mov	r0, r5
 108:..\..\..\lvgl\version_6.1.2\lvgl\src\lv_core/lv_refr.c ****     scr_area.y2 = lv_disp_get_ver_res(disp) - 1;
 723              		.loc 1 108 0
 724 0024 ADF80430 		strh	r3, [sp, #4]	@ movhi
 109:..\..\..\lvgl\version_6.1.2\lvgl\src\lv_core/lv_refr.c **** 
 725              		.loc 1 109 0
 726 0028 FFF7FEFF 		bl	lv_disp_get_ver_res
 727              	.LVL98:
 114:..\..\..\lvgl\version_6.1.2\lvgl\src\lv_core/lv_refr.c **** 
 728              		.loc 1 114 0
 729 002c 2146     		mov	r1, r4
 109:..\..\..\lvgl\version_6.1.2\lvgl\src\lv_core/lv_refr.c **** 
 730              		.loc 1 109 0
 731 002e 431E     		subs	r3, r0, #1
 114:..\..\..\lvgl\version_6.1.2\lvgl\src\lv_core/lv_refr.c **** 
 732              		.loc 1 114 0
 733 0030 6A46     		mov	r2, sp
 734 0032 02A8     		add	r0, sp, #8
 109:..\..\..\lvgl\version_6.1.2\lvgl\src\lv_core/lv_refr.c **** 
 735              		.loc 1 109 0
 736 0034 ADF80630 		strh	r3, [sp, #6]	@ movhi
 114:..\..\..\lvgl\version_6.1.2\lvgl\src\lv_core/lv_refr.c **** 
 737              		.loc 1 114 0
 738 0038 FFF7FEFF 		bl	lv_area_intersect
 739              	.LVL99:
 117:..\..\..\lvgl\version_6.1.2\lvgl\src\lv_core/lv_refr.c ****         if(disp->driver.rounder_cb) disp->driver.rounder_cb(&disp->driver, &com_area);
 740              		.loc 1 117 0
 741 003c E8B1     		cbz	r0, .L96
 742              	.LBB58:
 118:..\..\..\lvgl\version_6.1.2\lvgl\src\lv_core/lv_refr.c **** 
 743              		.loc 1 118 0
 744 003e 2B69     		ldr	r3, [r5, #16]
 745 0040 13B1     		cbz	r3, .L102
 118:..\..\..\lvgl\version_6.1.2\lvgl\src\lv_core/lv_refr.c **** 
 746              		.loc 1 118 0 is_stmt 0 discriminator 1
 747 0042 02A9     		add	r1, sp, #8
ARM GAS  C:\Users\pearlstl\AppData\Local\Temp\ccFIoKDo.s 			page 26


 748 0044 2846     		mov	r0, r5
 749              	.LVL100:
 750 0046 9847     		blx	r3
 751              	.LVL101:
 752              	.L102:
 122:..\..\..\lvgl\version_6.1.2\lvgl\src\lv_core/lv_refr.c ****             if(lv_area_is_in(&com_area, &disp->inv_areas[i]) != false) return;
 753              		.loc 1 122 0 is_stmt 1 discriminator 1
 754 0048 B5F85C31 		ldrh	r3, [r5, #348]
 755 004c C3F30903 		ubfx	r3, r3, #0, #10
 756 0050 93B3     		cbz	r3, .L103
 122:..\..\..\lvgl\version_6.1.2\lvgl\src\lv_core/lv_refr.c ****             if(lv_area_is_in(&com_area, &disp->inv_areas[i]) != false) return;
 757              		.loc 1 122 0 is_stmt 0
 758 0052 0021     		movs	r1, #0
 759 0054 0C46     		mov	r4, r1
 760              	.LVL102:
 761 0056 05E0     		b	.L104
 762              	.LVL103:
 763              	.L124:
 122:..\..\..\lvgl\version_6.1.2\lvgl\src\lv_core/lv_refr.c ****             if(lv_area_is_in(&com_area, &disp->inv_areas[i]) != false) return;
 764              		.loc 1 122 0 discriminator 2
 765 0058 B5F85C31 		ldrh	r3, [r5, #348]
 766 005c C3F30903 		ubfx	r3, r3, #0, #10
 767 0060 9C42     		cmp	r4, r3
 768 0062 1ADA     		bge	.L123
 769              	.LVL104:
 770              	.L104:
 123:..\..\..\lvgl\version_6.1.2\lvgl\src\lv_core/lv_refr.c ****         }
 771              		.loc 1 123 0 is_stmt 1
 772 0064 05EBC101 		add	r1, r5, r1, lsl #3
 773 0068 3C31     		adds	r1, r1, #60
 774 006a 02A8     		add	r0, sp, #8
 775 006c FFF7FEFF 		bl	lv_area_is_in
 776              	.LVL105:
 122:..\..\..\lvgl\version_6.1.2\lvgl\src\lv_core/lv_refr.c ****             if(lv_area_is_in(&com_area, &disp->inv_areas[i]) != false) return;
 777              		.loc 1 122 0
 778 0070 0134     		adds	r4, r4, #1
 779              	.LVL106:
 780 0072 A4B2     		uxth	r4, r4
 781              	.LVL107:
 782 0074 2146     		mov	r1, r4
 123:..\..\..\lvgl\version_6.1.2\lvgl\src\lv_core/lv_refr.c ****         }
 783              		.loc 1 123 0
 784 0076 0028     		cmp	r0, #0
 785 0078 EED0     		beq	.L124
 786              	.LVL108:
 787              	.L96:
 788              	.LBE58:
 135:..\..\..\lvgl\version_6.1.2\lvgl\src\lv_core/lv_refr.c **** 
 789              		.loc 1 135 0
 790 007a 05B0     		add	sp, sp, #20
 791              		.cfi_remember_state
 792              		.cfi_def_cfa_offset 12
 793              		@ sp needed
 794 007c 30BD     		pop	{r4, r5, pc}
 795              	.LVL109:
 796              	.L122:
 797              		.cfi_restore_state
ARM GAS  C:\Users\pearlstl\AppData\Local\Temp\ccFIoKDo.s 			page 27


 101:..\..\..\lvgl\version_6.1.2\lvgl\src\lv_core/lv_refr.c ****         return;
 798              		.loc 1 101 0
 799 007e B5F85C31 		ldrh	r3, [r5, #348]
 800 0082 64F30903 		bfi	r3, r4, #0, #10
 801 0086 A5F85C31 		strh	r3, [r5, #348]	@ movhi
 135:..\..\..\lvgl\version_6.1.2\lvgl\src\lv_core/lv_refr.c **** 
 802              		.loc 1 135 0
 803 008a 05B0     		add	sp, sp, #20
 804              		.cfi_remember_state
 805              		.cfi_def_cfa_offset 12
 806              		@ sp needed
 807 008c 30BD     		pop	{r4, r5, pc}
 808              	.LVL110:
 809              	.L121:
 810              		.cfi_restore_state
  96:..\..\..\lvgl\version_6.1.2\lvgl\src\lv_core/lv_refr.c ****     if(!disp) return;
 811              		.loc 1 96 0 discriminator 1
 812 008e FFF7FEFF 		bl	lv_disp_get_default
 813              	.LVL111:
  97:..\..\..\lvgl\version_6.1.2\lvgl\src\lv_core/lv_refr.c **** 
 814              		.loc 1 97 0 discriminator 1
 815 0092 0546     		mov	r5, r0
 816 0094 0028     		cmp	r0, #0
 817 0096 F0D0     		beq	.L96
 818 0098 B8E7     		b	.L97
 819              	.LVL112:
 820              	.L123:
 821              	.LBB63:
 127:..\..\..\lvgl\version_6.1.2\lvgl\src\lv_core/lv_refr.c ****             lv_area_copy(&disp->inv_areas[disp->inv_p], &com_area);
 822              		.loc 1 127 0
 823 009a 1F2B     		cmp	r3, #31
 824 009c 0CDD     		ble	.L103
 825              	.LVL113:
 826              	.LBB59:
 827              	.LBB60:
 828              		.file 2 "..\\..\\..\\lvgl\\version_6.1.2\\lvgl\\src\\lv_core\\../lv_misc/lv_area.h"
   1:..\..\..\lvgl\version_6.1.2\lvgl\src\lv_core\../lv_misc/lv_area.h **** /**
   2:..\..\..\lvgl\version_6.1.2\lvgl\src\lv_core\../lv_misc/lv_area.h ****  * @file lv_area.h
   3:..\..\..\lvgl\version_6.1.2\lvgl\src\lv_core\../lv_misc/lv_area.h ****  *
   4:..\..\..\lvgl\version_6.1.2\lvgl\src\lv_core\../lv_misc/lv_area.h ****  */
   5:..\..\..\lvgl\version_6.1.2\lvgl\src\lv_core\../lv_misc/lv_area.h **** 
   6:..\..\..\lvgl\version_6.1.2\lvgl\src\lv_core\../lv_misc/lv_area.h **** #ifndef LV_AREA_H
   7:..\..\..\lvgl\version_6.1.2\lvgl\src\lv_core\../lv_misc/lv_area.h **** #define LV_AREA_H
   8:..\..\..\lvgl\version_6.1.2\lvgl\src\lv_core\../lv_misc/lv_area.h **** 
   9:..\..\..\lvgl\version_6.1.2\lvgl\src\lv_core\../lv_misc/lv_area.h **** #ifdef __cplusplus
  10:..\..\..\lvgl\version_6.1.2\lvgl\src\lv_core\../lv_misc/lv_area.h **** extern "C" {
  11:..\..\..\lvgl\version_6.1.2\lvgl\src\lv_core\../lv_misc/lv_area.h **** #endif
  12:..\..\..\lvgl\version_6.1.2\lvgl\src\lv_core\../lv_misc/lv_area.h **** 
  13:..\..\..\lvgl\version_6.1.2\lvgl\src\lv_core\../lv_misc/lv_area.h **** /*********************
  14:..\..\..\lvgl\version_6.1.2\lvgl\src\lv_core\../lv_misc/lv_area.h ****  *      INCLUDES
  15:..\..\..\lvgl\version_6.1.2\lvgl\src\lv_core\../lv_misc/lv_area.h ****  *********************/
  16:..\..\..\lvgl\version_6.1.2\lvgl\src\lv_core\../lv_misc/lv_area.h **** #include <string.h>
  17:..\..\..\lvgl\version_6.1.2\lvgl\src\lv_core\../lv_misc/lv_area.h **** #include <stdbool.h>
  18:..\..\..\lvgl\version_6.1.2\lvgl\src\lv_core\../lv_misc/lv_area.h **** #include <stdint.h>
  19:..\..\..\lvgl\version_6.1.2\lvgl\src\lv_core\../lv_misc/lv_area.h **** #ifdef LV_CONF_INCLUDE_SIMPLE
  20:..\..\..\lvgl\version_6.1.2\lvgl\src\lv_core\../lv_misc/lv_area.h **** #include "lv_conf.h"
  21:..\..\..\lvgl\version_6.1.2\lvgl\src\lv_core\../lv_misc/lv_area.h **** #else
ARM GAS  C:\Users\pearlstl\AppData\Local\Temp\ccFIoKDo.s 			page 28


  22:..\..\..\lvgl\version_6.1.2\lvgl\src\lv_core\../lv_misc/lv_area.h **** #include "../../../lv_conf.h"
  23:..\..\..\lvgl\version_6.1.2\lvgl\src\lv_core\../lv_misc/lv_area.h **** #endif
  24:..\..\..\lvgl\version_6.1.2\lvgl\src\lv_core\../lv_misc/lv_area.h **** 
  25:..\..\..\lvgl\version_6.1.2\lvgl\src\lv_core\../lv_misc/lv_area.h **** /*********************
  26:..\..\..\lvgl\version_6.1.2\lvgl\src\lv_core\../lv_misc/lv_area.h ****  *      DEFINES
  27:..\..\..\lvgl\version_6.1.2\lvgl\src\lv_core\../lv_misc/lv_area.h ****  *********************/
  28:..\..\..\lvgl\version_6.1.2\lvgl\src\lv_core\../lv_misc/lv_area.h **** /*To avoid overflow don't let the max ranges (reduce with 1000) */
  29:..\..\..\lvgl\version_6.1.2\lvgl\src\lv_core\../lv_misc/lv_area.h **** #define LV_COORD_MAX ((lv_coord_t)((uint32_t)((uint32_t)1 << (8 * sizeof(lv_coord_t) - 1)) - 1000))
  30:..\..\..\lvgl\version_6.1.2\lvgl\src\lv_core\../lv_misc/lv_area.h **** #define LV_COORD_MIN (-LV_COORD_MAX)
  31:..\..\..\lvgl\version_6.1.2\lvgl\src\lv_core\../lv_misc/lv_area.h **** 
  32:..\..\..\lvgl\version_6.1.2\lvgl\src\lv_core\../lv_misc/lv_area.h **** LV_EXPORT_CONST_INT(LV_COORD_MAX);
  33:..\..\..\lvgl\version_6.1.2\lvgl\src\lv_core\../lv_misc/lv_area.h **** LV_EXPORT_CONST_INT(LV_COORD_MIN);
  34:..\..\..\lvgl\version_6.1.2\lvgl\src\lv_core\../lv_misc/lv_area.h **** 
  35:..\..\..\lvgl\version_6.1.2\lvgl\src\lv_core\../lv_misc/lv_area.h **** /**********************
  36:..\..\..\lvgl\version_6.1.2\lvgl\src\lv_core\../lv_misc/lv_area.h ****  *      TYPEDEFS
  37:..\..\..\lvgl\version_6.1.2\lvgl\src\lv_core\../lv_misc/lv_area.h ****  **********************/
  38:..\..\..\lvgl\version_6.1.2\lvgl\src\lv_core\../lv_misc/lv_area.h **** 
  39:..\..\..\lvgl\version_6.1.2\lvgl\src\lv_core\../lv_misc/lv_area.h **** /**
  40:..\..\..\lvgl\version_6.1.2\lvgl\src\lv_core\../lv_misc/lv_area.h ****  * Represents a point on the screen.
  41:..\..\..\lvgl\version_6.1.2\lvgl\src\lv_core\../lv_misc/lv_area.h ****  */
  42:..\..\..\lvgl\version_6.1.2\lvgl\src\lv_core\../lv_misc/lv_area.h **** typedef struct
  43:..\..\..\lvgl\version_6.1.2\lvgl\src\lv_core\../lv_misc/lv_area.h **** {
  44:..\..\..\lvgl\version_6.1.2\lvgl\src\lv_core\../lv_misc/lv_area.h ****     lv_coord_t x;
  45:..\..\..\lvgl\version_6.1.2\lvgl\src\lv_core\../lv_misc/lv_area.h ****     lv_coord_t y;
  46:..\..\..\lvgl\version_6.1.2\lvgl\src\lv_core\../lv_misc/lv_area.h **** } lv_point_t;
  47:..\..\..\lvgl\version_6.1.2\lvgl\src\lv_core\../lv_misc/lv_area.h **** 
  48:..\..\..\lvgl\version_6.1.2\lvgl\src\lv_core\../lv_misc/lv_area.h **** /** Represents an area of the screen. */
  49:..\..\..\lvgl\version_6.1.2\lvgl\src\lv_core\../lv_misc/lv_area.h **** typedef struct
  50:..\..\..\lvgl\version_6.1.2\lvgl\src\lv_core\../lv_misc/lv_area.h **** {
  51:..\..\..\lvgl\version_6.1.2\lvgl\src\lv_core\../lv_misc/lv_area.h ****     lv_coord_t x1;
  52:..\..\..\lvgl\version_6.1.2\lvgl\src\lv_core\../lv_misc/lv_area.h ****     lv_coord_t y1;
  53:..\..\..\lvgl\version_6.1.2\lvgl\src\lv_core\../lv_misc/lv_area.h ****     lv_coord_t x2;
  54:..\..\..\lvgl\version_6.1.2\lvgl\src\lv_core\../lv_misc/lv_area.h ****     lv_coord_t y2;
  55:..\..\..\lvgl\version_6.1.2\lvgl\src\lv_core\../lv_misc/lv_area.h **** } lv_area_t;
  56:..\..\..\lvgl\version_6.1.2\lvgl\src\lv_core\../lv_misc/lv_area.h **** 
  57:..\..\..\lvgl\version_6.1.2\lvgl\src\lv_core\../lv_misc/lv_area.h **** /**********************
  58:..\..\..\lvgl\version_6.1.2\lvgl\src\lv_core\../lv_misc/lv_area.h ****  * GLOBAL PROTOTYPES
  59:..\..\..\lvgl\version_6.1.2\lvgl\src\lv_core\../lv_misc/lv_area.h ****  **********************/
  60:..\..\..\lvgl\version_6.1.2\lvgl\src\lv_core\../lv_misc/lv_area.h **** 
  61:..\..\..\lvgl\version_6.1.2\lvgl\src\lv_core\../lv_misc/lv_area.h **** /**
  62:..\..\..\lvgl\version_6.1.2\lvgl\src\lv_core\../lv_misc/lv_area.h ****  * Initialize an area
  63:..\..\..\lvgl\version_6.1.2\lvgl\src\lv_core\../lv_misc/lv_area.h ****  * @param area_p pointer to an area
  64:..\..\..\lvgl\version_6.1.2\lvgl\src\lv_core\../lv_misc/lv_area.h ****  * @param x1 left coordinate of the area
  65:..\..\..\lvgl\version_6.1.2\lvgl\src\lv_core\../lv_misc/lv_area.h ****  * @param y1 top coordinate of the area
  66:..\..\..\lvgl\version_6.1.2\lvgl\src\lv_core\../lv_misc/lv_area.h ****  * @param x2 right coordinate of the area
  67:..\..\..\lvgl\version_6.1.2\lvgl\src\lv_core\../lv_misc/lv_area.h ****  * @param y2 bottom coordinate of the area
  68:..\..\..\lvgl\version_6.1.2\lvgl\src\lv_core\../lv_misc/lv_area.h ****  */
  69:..\..\..\lvgl\version_6.1.2\lvgl\src\lv_core\../lv_misc/lv_area.h **** void lv_area_set(lv_area_t * area_p, lv_coord_t x1, lv_coord_t y1, lv_coord_t x2, lv_coord_t y2);
  70:..\..\..\lvgl\version_6.1.2\lvgl\src\lv_core\../lv_misc/lv_area.h **** 
  71:..\..\..\lvgl\version_6.1.2\lvgl\src\lv_core\../lv_misc/lv_area.h **** /**
  72:..\..\..\lvgl\version_6.1.2\lvgl\src\lv_core\../lv_misc/lv_area.h ****  * Copy an area
  73:..\..\..\lvgl\version_6.1.2\lvgl\src\lv_core\../lv_misc/lv_area.h ****  * @param dest pointer to the destination area
  74:..\..\..\lvgl\version_6.1.2\lvgl\src\lv_core\../lv_misc/lv_area.h ****  * @param src pointer to the source area
  75:..\..\..\lvgl\version_6.1.2\lvgl\src\lv_core\../lv_misc/lv_area.h ****  */
  76:..\..\..\lvgl\version_6.1.2\lvgl\src\lv_core\../lv_misc/lv_area.h **** inline static void lv_area_copy(lv_area_t * dest, const lv_area_t * src)
  77:..\..\..\lvgl\version_6.1.2\lvgl\src\lv_core\../lv_misc/lv_area.h **** {
  78:..\..\..\lvgl\version_6.1.2\lvgl\src\lv_core\../lv_misc/lv_area.h ****     memcpy(dest, src, sizeof(lv_area_t));
ARM GAS  C:\Users\pearlstl\AppData\Local\Temp\ccFIoKDo.s 			page 29


 829              		.loc 2 78 0
 830 009e 6B46     		mov	r3, sp
 831 00a0 03CB     		ldmia	r3!, {r0, r1}
 832 00a2 0123     		movs	r3, #1
 833 00a4 E863     		str	r0, [r5, #60]	@ unaligned
 834 00a6 2964     		str	r1, [r5, #64]	@ unaligned
 835              	.LVL114:
 836              	.L106:
 837              	.LBE60:
 838              	.LBE59:
 133:..\..\..\lvgl\version_6.1.2\lvgl\src\lv_core/lv_refr.c ****     }
 839              		.loc 1 133 0
 840 00a8 B5F85C21 		ldrh	r2, [r5, #348]
 841 00ac 63F30902 		bfi	r2, r3, #0, #10
 842 00b0 A5F85C21 		strh	r2, [r5, #348]	@ movhi
 843              	.LBE63:
 135:..\..\..\lvgl\version_6.1.2\lvgl\src\lv_core/lv_refr.c **** 
 844              		.loc 1 135 0
 845 00b4 05B0     		add	sp, sp, #20
 846              		.cfi_remember_state
 847              		.cfi_def_cfa_offset 12
 848              		@ sp needed
 849 00b6 30BD     		pop	{r4, r5, pc}
 850              	.LVL115:
 851              	.L103:
 852              		.cfi_restore_state
 853              	.LBB64:
 854              	.LBB61:
 855              	.LBB62:
 856              		.loc 2 78 0
 857 00b8 02AA     		add	r2, sp, #8
 858              	.LVL116:
 859 00ba 03CA     		ldmia	r2!, {r0, r1}
 860              	.LVL117:
 861 00bc 0733     		adds	r3, r3, #7
 862              	.LVL118:
 863 00be 05EBC303 		add	r3, r5, r3, lsl #3
 864              	.LVL119:
 865 00c2 5860     		str	r0, [r3, #4]	@ unaligned
 866 00c4 9960     		str	r1, [r3, #8]	@ unaligned
 867 00c6 B5F85C31 		ldrh	r3, [r5, #348]
 868 00ca 0133     		adds	r3, r3, #1
 869 00cc C3F30903 		ubfx	r3, r3, #0, #10
 870 00d0 EAE7     		b	.L106
 871              	.LBE62:
 872              	.LBE61:
 873              	.LBE64:
 874              		.cfi_endproc
 875              	.LFE37:
 876              		.size	lv_inv_area, .-lv_inv_area
 877 00d2 00BF     		.section	.text.lv_refr_get_disp_refreshing,"ax",%progbits
 878              		.align	2
 879              		.global	lv_refr_get_disp_refreshing
 880              		.thumb
 881              		.thumb_func
 882              		.type	lv_refr_get_disp_refreshing, %function
 883              	lv_refr_get_disp_refreshing:
ARM GAS  C:\Users\pearlstl\AppData\Local\Temp\ccFIoKDo.s 			page 30


 884              	.LFB38:
 142:..\..\..\lvgl\version_6.1.2\lvgl\src\lv_core/lv_refr.c ****     return disp_refr;
 885              		.loc 1 142 0
 886              		.cfi_startproc
 887              		@ args = 0, pretend = 0, frame = 0
 888              		@ frame_needed = 0, uses_anonymous_args = 0
 889              		@ link register save eliminated.
 143:..\..\..\lvgl\version_6.1.2\lvgl\src\lv_core/lv_refr.c **** }
 890              		.loc 1 143 0
 891 0000 014B     		ldr	r3, .L126
 144:..\..\..\lvgl\version_6.1.2\lvgl\src\lv_core/lv_refr.c **** 
 892              		.loc 1 144 0
 893 0002 1868     		ldr	r0, [r3]
 894 0004 7047     		bx	lr
 895              	.L127:
 896 0006 00BF     		.align	2
 897              	.L126:
 898 0008 00000000 		.word	.LANCHOR0
 899              		.cfi_endproc
 900              	.LFE38:
 901              		.size	lv_refr_get_disp_refreshing, .-lv_refr_get_disp_refreshing
 902              		.section	.text.lv_refr_set_disp_refreshing,"ax",%progbits
 903              		.align	2
 904              		.global	lv_refr_set_disp_refreshing
 905              		.thumb
 906              		.thumb_func
 907              		.type	lv_refr_set_disp_refreshing, %function
 908              	lv_refr_set_disp_refreshing:
 909              	.LFB39:
 153:..\..\..\lvgl\version_6.1.2\lvgl\src\lv_core/lv_refr.c ****     disp_refr = disp;
 910              		.loc 1 153 0
 911              		.cfi_startproc
 912              		@ args = 0, pretend = 0, frame = 0
 913              		@ frame_needed = 0, uses_anonymous_args = 0
 914              		@ link register save eliminated.
 915              	.LVL120:
 154:..\..\..\lvgl\version_6.1.2\lvgl\src\lv_core/lv_refr.c **** }
 916              		.loc 1 154 0
 917 0000 014B     		ldr	r3, .L129
 918 0002 1860     		str	r0, [r3]
 919 0004 7047     		bx	lr
 920              	.L130:
 921 0006 00BF     		.align	2
 922              	.L129:
 923 0008 00000000 		.word	.LANCHOR0
 924              		.cfi_endproc
 925              	.LFE39:
 926              		.size	lv_refr_set_disp_refreshing, .-lv_refr_set_disp_refreshing
 927              		.section	.text.lv_disp_refr_task,"ax",%progbits
 928              		.align	2
 929              		.global	lv_disp_refr_task
 930              		.thumb
 931              		.thumb_func
 932              		.type	lv_disp_refr_task, %function
 933              	lv_disp_refr_task:
 934              	.LFB40:
 162:..\..\..\lvgl\version_6.1.2\lvgl\src\lv_core/lv_refr.c ****     LV_LOG_TRACE("lv_refr_task: started");
ARM GAS  C:\Users\pearlstl\AppData\Local\Temp\ccFIoKDo.s 			page 31


 935              		.loc 1 162 0
 936              		.cfi_startproc
 937              		@ args = 0, pretend = 0, frame = 32
 938              		@ frame_needed = 0, uses_anonymous_args = 0
 939              	.LVL121:
 940 0000 2DE9F04F 		push	{r4, r5, r6, r7, r8, r9, r10, fp, lr}
 941              		.cfi_def_cfa_offset 36
 942              		.cfi_offset 4, -36
 943              		.cfi_offset 5, -32
 944              		.cfi_offset 6, -28
 945              		.cfi_offset 7, -24
 946              		.cfi_offset 8, -20
 947              		.cfi_offset 9, -16
 948              		.cfi_offset 10, -12
 949              		.cfi_offset 11, -8
 950              		.cfi_offset 14, -4
 951 0004 0446     		mov	r4, r0
 952 0006 89B0     		sub	sp, sp, #36
 953              		.cfi_def_cfa_offset 72
 165:..\..\..\lvgl\version_6.1.2\lvgl\src\lv_core/lv_refr.c **** 
 954              		.loc 1 165 0
 955 0008 FFF7FEFF 		bl	lv_tick_get
 956              	.LVL122:
 167:..\..\..\lvgl\version_6.1.2\lvgl\src\lv_core/lv_refr.c **** 
 957              		.loc 1 167 0
 958 000c E468     		ldr	r4, [r4, #12]
 959              	.LVL123:
 960 000e B14F     		ldr	r7, .L224
 961              	.LBB90:
 962              	.LBB91:
 237:..\..\..\lvgl\version_6.1.2\lvgl\src\lv_core/lv_refr.c ****         if(disp_refr->inv_area_joined[join_in] != 0) continue;
 963              		.loc 1 237 0
 964 0010 B4F85C21 		ldrh	r2, [r4, #348]
 965              	.LBE91:
 966              	.LBE90:
 165:..\..\..\lvgl\version_6.1.2\lvgl\src\lv_core/lv_refr.c **** 
 967              		.loc 1 165 0
 968 0014 0590     		str	r0, [sp, #20]
 969              	.LVL124:
 970              	.LBB101:
 971              	.LBB98:
 237:..\..\..\lvgl\version_6.1.2\lvgl\src\lv_core/lv_refr.c ****         if(disp_refr->inv_area_joined[join_in] != 0) continue;
 972              		.loc 1 237 0
 973 0016 C2F30902 		ubfx	r2, r2, #0, #10
 974              	.LBE98:
 975              	.LBE101:
 167:..\..\..\lvgl\version_6.1.2\lvgl\src\lv_core/lv_refr.c **** 
 976              		.loc 1 167 0
 977 001a 3C60     		str	r4, [r7]
 978              	.LVL125:
 979              	.LBB102:
 980              	.LBB99:
 237:..\..\..\lvgl\version_6.1.2\lvgl\src\lv_core/lv_refr.c ****         if(disp_refr->inv_area_joined[join_in] != 0) continue;
 981              		.loc 1 237 0
 982 001c 002A     		cmp	r2, #0
 983 001e 00F05B81 		beq	.L132
 984 0022 4FF0000A 		mov	r10, #0
ARM GAS  C:\Users\pearlstl\AppData\Local\Temp\ccFIoKDo.s 			page 32


 252:..\..\..\lvgl\version_6.1.2\lvgl\src\lv_core/lv_refr.c **** 
 985              		.loc 1 252 0
 986 0026 B946     		mov	r9, r7
 987              	.LVL126:
 988              	.L139:
 238:..\..\..\lvgl\version_6.1.2\lvgl\src\lv_core/lv_refr.c **** 
 989              		.loc 1 238 0
 990 0028 04EB0A03 		add	r3, r4, r10
 991 002c 93F83C51 		ldrb	r5, [r3, #316]	@ zero_extendqisi2
 992 0030 002D     		cmp	r5, #0
 993 0032 47D1     		bne	.L134
 994              	.LVL127:
 241:..\..\..\lvgl\version_6.1.2\lvgl\src\lv_core/lv_refr.c ****             /*Handle only unjoined areas and ignore itself*/
 995              		.loc 1 241 0
 996 0034 002A     		cmp	r2, #0
 997 0036 00F04F81 		beq	.L132
 248:..\..\..\lvgl\version_6.1.2\lvgl\src\lv_core/lv_refr.c ****                 continue;
 998              		.loc 1 248 0
 999 003a 0AF10708 		add	r8, r10, #7
 1000 003e 4FEAC808 		lsl	r8, r8, #3
 1001 0042 07E0     		b	.L138
 1002              	.LVL128:
 1003              	.L217:
 1004 0044 3C68     		ldr	r4, [r7]
 1005 0046 B4F85C21 		ldrh	r2, [r4, #348]
 1006 004a C2F30902 		ubfx	r2, r2, #0, #10
 1007              	.L135:
 241:..\..\..\lvgl\version_6.1.2\lvgl\src\lv_core/lv_refr.c ****             /*Handle only unjoined areas and ignore itself*/
 1008              		.loc 1 241 0
 1009 004e 0135     		adds	r5, r5, #1
 1010              	.LVL129:
 1011 0050 9542     		cmp	r5, r2
 1012 0052 37D2     		bcs	.L134
 1013              	.LVL130:
 1014              	.L138:
 243:..\..\..\lvgl\version_6.1.2\lvgl\src\lv_core/lv_refr.c ****                 continue;
 1015              		.loc 1 243 0
 1016 0054 6319     		adds	r3, r4, r5
 1017 0056 93F83C31 		ldrb	r3, [r3, #316]	@ zero_extendqisi2
 1018 005a 002B     		cmp	r3, #0
 1019 005c F7D1     		bne	.L135
 248:..\..\..\lvgl\version_6.1.2\lvgl\src\lv_core/lv_refr.c ****                 continue;
 1020              		.loc 1 248 0
 1021 005e EE1D     		adds	r6, r5, #7
 1022 0060 F600     		lsls	r6, r6, #3
 1023 0062 A119     		adds	r1, r4, r6
 1024 0064 04EB0800 		add	r0, r4, r8
 243:..\..\..\lvgl\version_6.1.2\lvgl\src\lv_core/lv_refr.c ****                 continue;
 1025              		.loc 1 243 0
 1026 0068 5545     		cmp	r5, r10
 248:..\..\..\lvgl\version_6.1.2\lvgl\src\lv_core/lv_refr.c ****                 continue;
 1027              		.loc 1 248 0
 1028 006a 01F10401 		add	r1, r1, #4
 1029 006e 00F10400 		add	r0, r0, #4
 243:..\..\..\lvgl\version_6.1.2\lvgl\src\lv_core/lv_refr.c ****                 continue;
 1030              		.loc 1 243 0
 1031 0072 ECD0     		beq	.L135
ARM GAS  C:\Users\pearlstl\AppData\Local\Temp\ccFIoKDo.s 			page 33


 248:..\..\..\lvgl\version_6.1.2\lvgl\src\lv_core/lv_refr.c ****                 continue;
 1032              		.loc 1 248 0
 1033 0074 FFF7FEFF 		bl	lv_area_is_on
 1034              	.LVL131:
 1035 0078 0028     		cmp	r0, #0
 1036 007a E3D0     		beq	.L217
 252:..\..\..\lvgl\version_6.1.2\lvgl\src\lv_core/lv_refr.c **** 
 1037              		.loc 1 252 0
 1038 007c 3968     		ldr	r1, [r7]
 1039 007e 8A19     		adds	r2, r1, r6
 1040 0080 4144     		add	r1, r1, r8
 1041 0082 0432     		adds	r2, r2, #4
 1042 0084 0431     		adds	r1, r1, #4
 1043 0086 06A8     		add	r0, sp, #24
 1044 0088 FFF7FEFF 		bl	lv_area_join
 1045              	.LVL132:
 255:..\..\..\lvgl\version_6.1.2\lvgl\src\lv_core/lv_refr.c ****                                                  lv_area_get_size(&disp_refr->inv_areas[join_from])
 1046              		.loc 1 255 0
 1047 008c 06A8     		add	r0, sp, #24
 1048 008e FFF7FEFF 		bl	lv_area_get_size
 1049              	.LVL133:
 1050 0092 8346     		mov	fp, r0
 1051 0094 3868     		ldr	r0, [r7]
 1052 0096 4044     		add	r0, r0, r8
 1053 0098 0430     		adds	r0, r0, #4
 1054 009a FFF7FEFF 		bl	lv_area_get_size
 1055              	.LVL134:
 1056 009e 0446     		mov	r4, r0
 256:..\..\..\lvgl\version_6.1.2\lvgl\src\lv_core/lv_refr.c ****                 lv_area_copy(&disp_refr->inv_areas[join_in], &joined_area);
 1057              		.loc 1 256 0
 1058 00a0 3868     		ldr	r0, [r7]
 1059 00a2 3044     		add	r0, r0, r6
 1060 00a4 0430     		adds	r0, r0, #4
 1061 00a6 FFF7FEFF 		bl	lv_area_get_size
 1062              	.LVL135:
 255:..\..\..\lvgl\version_6.1.2\lvgl\src\lv_core/lv_refr.c ****                                                  lv_area_get_size(&disp_refr->inv_areas[join_from])
 1063              		.loc 1 255 0
 1064 00aa 2044     		add	r0, r0, r4
 1065 00ac 8345     		cmp	fp, r0
 257:..\..\..\lvgl\version_6.1.2\lvgl\src\lv_core/lv_refr.c **** 
 1066              		.loc 1 257 0
 1067 00ae D9F80040 		ldr	r4, [r9]
 255:..\..\..\lvgl\version_6.1.2\lvgl\src\lv_core/lv_refr.c ****                                                  lv_area_get_size(&disp_refr->inv_areas[join_from])
 1068              		.loc 1 255 0
 1069 00b2 C0F0E080 		bcc	.L218
 1070              	.L215:
 1071 00b6 B4F85C21 		ldrh	r2, [r4, #348]
 241:..\..\..\lvgl\version_6.1.2\lvgl\src\lv_core/lv_refr.c ****             /*Handle only unjoined areas and ignore itself*/
 1072              		.loc 1 241 0
 1073 00ba 0135     		adds	r5, r5, #1
 1074              	.LVL136:
 1075 00bc C2F30902 		ubfx	r2, r2, #0, #10
 1076 00c0 9542     		cmp	r5, r2
 1077 00c2 C7D3     		bcc	.L138
 1078              	.LVL137:
 1079              	.L134:
 237:..\..\..\lvgl\version_6.1.2\lvgl\src\lv_core/lv_refr.c ****         if(disp_refr->inv_area_joined[join_in] != 0) continue;
ARM GAS  C:\Users\pearlstl\AppData\Local\Temp\ccFIoKDo.s 			page 34


 1080              		.loc 1 237 0
 1081 00c4 0AF1010A 		add	r10, r10, #1
 1082              	.LVL138:
 1083 00c8 9245     		cmp	r10, r2
 1084 00ca ADD3     		bcc	.L139
 1085              	.LVL139:
 1086              	.LBE99:
 1087              	.LBE102:
 1088              	.LBB103:
 1089              	.LBB104:
 271:..\..\..\lvgl\version_6.1.2\lvgl\src\lv_core/lv_refr.c ****     uint32_t i;
 1090              		.loc 1 271 0
 1091 00cc 0023     		movs	r3, #0
 1092 00ce 7B60     		str	r3, [r7, #4]
 1093              	.LVL140:
 274:..\..\..\lvgl\version_6.1.2\lvgl\src\lv_core/lv_refr.c ****         /*Refresh the unjoined areas*/
 1094              		.loc 1 274 0
 1095 00d0 002A     		cmp	r2, #0
 1096 00d2 00F0C580 		beq	.L140
 1097 00d6 1D46     		mov	r5, r3
 1098 00d8 03E0     		b	.L155
 1099              	.LVL141:
 1100              	.L141:
 1101 00da 0135     		adds	r5, r5, #1
 1102              	.LVL142:
 1103 00dc 9542     		cmp	r5, r2
 1104 00de 80F0BF80 		bcs	.L140
 1105              	.LVL143:
 1106              	.L155:
 276:..\..\..\lvgl\version_6.1.2\lvgl\src\lv_core/lv_refr.c **** 
 1107              		.loc 1 276 0
 1108 00e2 6319     		adds	r3, r4, r5
 1109 00e4 93F83C61 		ldrb	r6, [r3, #316]	@ zero_extendqisi2
 1110 00e8 002E     		cmp	r6, #0
 1111 00ea F6D1     		bne	.L141
 278:..\..\..\lvgl\version_6.1.2\lvgl\src\lv_core/lv_refr.c **** 
 1112              		.loc 1 278 0
 1113 00ec EB1D     		adds	r3, r5, #7
 1114 00ee 04EBC309 		add	r9, r4, r3, lsl #3
 1115 00f2 0393     		str	r3, [sp, #12]
 1116              	.LBB105:
 1117              	.LBB106:
 293:..\..\..\lvgl\version_6.1.2\lvgl\src\lv_core/lv_refr.c ****         lv_disp_buf_t * vdb = lv_disp_get_buf(disp_refr);
 1118              		.loc 1 293 0
 1119 00f4 2046     		mov	r0, r4
 1120              	.LBE106:
 1121              	.LBE105:
 278:..\..\..\lvgl\version_6.1.2\lvgl\src\lv_core/lv_refr.c **** 
 1122              		.loc 1 278 0
 1123 00f6 09F10403 		add	r3, r9, #4
 1124 00fa 0193     		str	r3, [sp, #4]
 1125              	.LVL144:
 1126              	.LBB130:
 1127              	.LBB126:
 293:..\..\..\lvgl\version_6.1.2\lvgl\src\lv_core/lv_refr.c ****         lv_disp_buf_t * vdb = lv_disp_get_buf(disp_refr);
 1128              		.loc 1 293 0
 1129 00fc FFF7FEFF 		bl	lv_disp_is_true_double_buf
ARM GAS  C:\Users\pearlstl\AppData\Local\Temp\ccFIoKDo.s 			page 35


 1130              	.LVL145:
 1131 0100 0028     		cmp	r0, #0
 1132 0102 40F0C380 		bne	.L219
 1133              	.LBB107:
 303:..\..\..\lvgl\version_6.1.2\lvgl\src\lv_core/lv_refr.c ****         /*Calculate the max row num*/
 1134              		.loc 1 303 0
 1135 0106 3868     		ldr	r0, [r7]
 1136 0108 FFF7FEFF 		bl	lv_disp_get_buf
 1137              	.LVL146:
 1138              	.LBB108:
 1139              	.LBB109:
  79:..\..\..\lvgl\version_6.1.2\lvgl\src\lv_core\../lv_misc/lv_area.h **** }
  80:..\..\..\lvgl\version_6.1.2\lvgl\src\lv_core\../lv_misc/lv_area.h **** 
  81:..\..\..\lvgl\version_6.1.2\lvgl\src\lv_core\../lv_misc/lv_area.h **** /**
  82:..\..\..\lvgl\version_6.1.2\lvgl\src\lv_core\../lv_misc/lv_area.h ****  * Get the width of an area
  83:..\..\..\lvgl\version_6.1.2\lvgl\src\lv_core\../lv_misc/lv_area.h ****  * @param area_p pointer to an area
  84:..\..\..\lvgl\version_6.1.2\lvgl\src\lv_core\../lv_misc/lv_area.h ****  * @return the width of the area (if x1 == x2 -> width = 1)
  85:..\..\..\lvgl\version_6.1.2\lvgl\src\lv_core\../lv_misc/lv_area.h ****  */
  86:..\..\..\lvgl\version_6.1.2\lvgl\src\lv_core\../lv_misc/lv_area.h **** static inline lv_coord_t lv_area_get_width(const lv_area_t * area_p)
  87:..\..\..\lvgl\version_6.1.2\lvgl\src\lv_core\../lv_misc/lv_area.h **** {
  88:..\..\..\lvgl\version_6.1.2\lvgl\src\lv_core\../lv_misc/lv_area.h ****     return (lv_coord_t)(area_p->x2 - area_p->x1 + 1);
 1140              		.loc 2 88 0
 1141 010c 0199     		ldr	r1, [sp, #4]
 1142 010e B9F804A0 		ldrh	r10, [r9, #4]
 1143 0112 8B88     		ldrh	r3, [r1, #4]
 1144 0114 B1F906B0 		ldrsh	fp, [r1, #6]
 1145              	.LBE109:
 1146              	.LBE108:
 1147              	.LBB112:
 1148              	.LBB113:
  89:..\..\..\lvgl\version_6.1.2\lvgl\src\lv_core\../lv_misc/lv_area.h **** }
  90:..\..\..\lvgl\version_6.1.2\lvgl\src\lv_core\../lv_misc/lv_area.h **** 
  91:..\..\..\lvgl\version_6.1.2\lvgl\src\lv_core\../lv_misc/lv_area.h **** /**
  92:..\..\..\lvgl\version_6.1.2\lvgl\src\lv_core\../lv_misc/lv_area.h ****  * Get the height of an area
  93:..\..\..\lvgl\version_6.1.2\lvgl\src\lv_core\../lv_misc/lv_area.h ****  * @param area_p pointer to an area
  94:..\..\..\lvgl\version_6.1.2\lvgl\src\lv_core\../lv_misc/lv_area.h ****  * @return the height of the area (if y1 == y2 -> height = 1)
  95:..\..\..\lvgl\version_6.1.2\lvgl\src\lv_core\../lv_misc/lv_area.h ****  */
  96:..\..\..\lvgl\version_6.1.2\lvgl\src\lv_core\../lv_misc/lv_area.h **** static inline lv_coord_t lv_area_get_height(const lv_area_t * area_p)
  97:..\..\..\lvgl\version_6.1.2\lvgl\src\lv_core\../lv_misc/lv_area.h **** {
  98:..\..\..\lvgl\version_6.1.2\lvgl\src\lv_core\../lv_misc/lv_area.h ****     return (lv_coord_t)(area_p->y2 - area_p->y1 + 1);
 1149              		.loc 2 98 0
 1150 0118 4E88     		ldrh	r6, [r1, #2]
 1151              	.LBE113:
 1152              	.LBE112:
 1153              	.LBB117:
 1154              	.LBB110:
  88:..\..\..\lvgl\version_6.1.2\lvgl\src\lv_core\../lv_misc/lv_area.h **** }
 1155              		.loc 2 88 0
 1156 011a 0133     		adds	r3, r3, #1
 1157 011c CAEB0303 		rsb	r3, r10, r3
 1158              	.LBE110:
 1159              	.LBE117:
 1160              	.LBB118:
 1161              	.LBB114:
 1162              		.loc 2 98 0
 1163 0120 0BF10101 		add	r1, fp, #1
 1164              	.LBE114:
ARM GAS  C:\Users\pearlstl\AppData\Local\Temp\ccFIoKDo.s 			page 36


 1165              	.LBE118:
 303:..\..\..\lvgl\version_6.1.2\lvgl\src\lv_core/lv_refr.c ****         /*Calculate the max row num*/
 1166              		.loc 1 303 0
 1167 0124 8046     		mov	r8, r0
 1168              	.LVL147:
 308:..\..\..\lvgl\version_6.1.2\lvgl\src\lv_core/lv_refr.c **** 
 1169              		.loc 1 308 0
 1170 0126 3868     		ldr	r0, [r7]
 1171              	.LVL148:
 1172              	.LBB119:
 1173              	.LBB115:
 1174              		.loc 2 98 0
 1175 0128 8E1B     		subs	r6, r1, r6
 1176              	.LBE115:
 1177              	.LBE119:
 1178              	.LBB120:
 1179              	.LBB111:
  88:..\..\..\lvgl\version_6.1.2\lvgl\src\lv_core\../lv_misc/lv_area.h **** }
 1180              		.loc 2 88 0
 1181 012a 0FFA83FA 		sxth	r10, r3
 1182              	.LVL149:
 1183              	.LBE111:
 1184              	.LBE120:
 308:..\..\..\lvgl\version_6.1.2\lvgl\src\lv_core/lv_refr.c **** 
 1185              		.loc 1 308 0
 1186 012e FFF7FEFF 		bl	lv_disp_get_ver_res
 1187              	.LVL150:
 307:..\..\..\lvgl\version_6.1.2\lvgl\src\lv_core/lv_refr.c ****             area_p->y2 >= lv_disp_get_ver_res(disp_refr) ? y2 = lv_disp_get_ver_res(disp_refr) - 1 
 1188              		.loc 1 307 0
 1189 0132 8345     		cmp	fp, r0
 1190              	.LBB121:
 1191              	.LBB116:
 1192              		.loc 2 98 0
 1193 0134 36B2     		sxth	r6, r6
 1194              	.LBE116:
 1195              	.LBE121:
 307:..\..\..\lvgl\version_6.1.2\lvgl\src\lv_core/lv_refr.c ****             area_p->y2 >= lv_disp_get_ver_res(disp_refr) ? y2 = lv_disp_get_ver_res(disp_refr) - 1 
 1196              		.loc 1 307 0
 1197 0136 80F2C580 		bge	.L220
 1198 013a B9F90A90 		ldrsh	r9, [r9, #10]
 1199              	.L145:
 1200              	.LVL151:
 315:..\..\..\lvgl\version_6.1.2\lvgl\src\lv_core/lv_refr.c ****             lv_area_t tmp;
 1201              		.loc 1 315 0
 1202 013e 3868     		ldr	r0, [r7]
 310:..\..\..\lvgl\version_6.1.2\lvgl\src\lv_core/lv_refr.c **** 
 1203              		.loc 1 310 0
 1204 0140 D8F80C30 		ldr	r3, [r8, #12]
 1205 0144 B3FBFAFA 		udiv	r10, r3, r10
 1206              	.LVL152:
 315:..\..\..\lvgl\version_6.1.2\lvgl\src\lv_core/lv_refr.c ****             lv_area_t tmp;
 1207              		.loc 1 315 0
 1208 0148 0369     		ldr	r3, [r0, #16]
 1209 014a B245     		cmp	r10, r6
 1210 014c A8BF     		it	ge
 1211 014e B246     		movge	r10, r6
 1212              	.LVL153:
ARM GAS  C:\Users\pearlstl\AppData\Local\Temp\ccFIoKDo.s 			page 37


 1213 0150 1BB3     		cbz	r3, .L146
 1214              	.LBB122:
 317:..\..\..\lvgl\version_6.1.2\lvgl\src\lv_core/lv_refr.c ****             tmp.x2 = 0;
 1215              		.loc 1 317 0
 1216 0152 4FF00002 		mov	r2, #0	@ movhi
 1217 0156 ADF81820 		strh	r2, [sp, #24]	@ movhi
 318:..\..\..\lvgl\version_6.1.2\lvgl\src\lv_core/lv_refr.c ****             tmp.y1 = 0;
 1218              		.loc 1 318 0
 1219 015a ADF81C20 		strh	r2, [sp, #28]	@ movhi
 319:..\..\..\lvgl\version_6.1.2\lvgl\src\lv_core/lv_refr.c **** 
 1220              		.loc 1 319 0
 1221 015e ADF81A20 		strh	r2, [sp, #26]	@ movhi
 321:..\..\..\lvgl\version_6.1.2\lvgl\src\lv_core/lv_refr.c ****             do {
 1222              		.loc 1 321 0
 1223 0162 0FFA8AFB 		sxth	fp, r10
 1224              	.LVL154:
 1225 0166 04E0     		b	.L149
 1226              	.LVL155:
 1227              	.L221:
 331:..\..\..\lvgl\version_6.1.2\lvgl\src\lv_core/lv_refr.c **** 
 1228              		.loc 1 331 0
 1229 0168 002E     		cmp	r6, #0
 1230 016a 61DD     		ble	.L143
 1231 016c 3868     		ldr	r0, [r7]
 1232 016e 0369     		ldr	r3, [r0, #16]
 1233 0170 B346     		mov	fp, r6
 1234              	.LVL156:
 1235              	.L149:
 1236 0172 0BF1FF36 		add	r6, fp, #-1
 1237 0176 36B2     		sxth	r6, r6
 324:..\..\..\lvgl\version_6.1.2\lvgl\src\lv_core/lv_refr.c **** 
 1238              		.loc 1 324 0
 1239 0178 06A9     		add	r1, sp, #24
 323:..\..\..\lvgl\version_6.1.2\lvgl\src\lv_core/lv_refr.c ****                 disp_refr->driver.rounder_cb(&disp_refr->driver, &tmp);
 1240              		.loc 1 323 0
 1241 017a ADF81E60 		strh	r6, [sp, #30]	@ movhi
 324:..\..\..\lvgl\version_6.1.2\lvgl\src\lv_core/lv_refr.c **** 
 1242              		.loc 1 324 0
 1243 017e 9847     		blx	r3
 1244              	.LVL157:
 1245 0180 BDF91E10 		ldrsh	r1, [sp, #30]
 1246              	.LVL158:
 327:..\..\..\lvgl\version_6.1.2\lvgl\src\lv_core/lv_refr.c **** 
 1247              		.loc 1 327 0
 1248 0184 BDF81A30 		ldrh	r3, [sp, #26]
 1249 0188 0131     		adds	r1, r1, #1
 1250 018a CB1A     		subs	r3, r1, r3
 1251 018c 1BB2     		sxth	r3, r3
 1252 018e 5345     		cmp	r3, r10
 1253 0190 EADC     		bgt	.L221
 1254              	.LVL159:
 333:..\..\..\lvgl\version_6.1.2\lvgl\src\lv_core/lv_refr.c ****                 LV_LOG_WARN("Can't set VDB height using the round function. (Wrong round_cb or to "
 1255              		.loc 1 333 0
 1256 0192 BBF1000F 		cmp	fp, #0
 1257 0196 4BDD     		ble	.L143
 338:..\..\..\lvgl\version_6.1.2\lvgl\src\lv_core/lv_refr.c ****             }
 1258              		.loc 1 338 0
ARM GAS  C:\Users\pearlstl\AppData\Local\Temp\ccFIoKDo.s 			page 38


 1259 0198 8A46     		mov	r10, r1
 1260              	.LVL160:
 1261              	.L146:
 1262 019a 04EBC50B 		add	fp, r4, r5, lsl #3
 1263              	.LBE122:
 345:..\..\..\lvgl\version_6.1.2\lvgl\src\lv_core/lv_refr.c ****             /*Calc. the next y coordinates of VDB*/
 1264              		.loc 1 345 0
 1265 019e BBF93E40 		ldrsh	r4, [fp, #62]
 1266              	.LVL161:
 1267 01a2 04EB0A03 		add	r3, r4, r10
 1268 01a6 013B     		subs	r3, r3, #1
 1269 01a8 4B45     		cmp	r3, r9
 1270 01aa 00F3C680 		bgt	.L172
 1271 01ae 1FFA8AF1 		uxth	r1, r10
 1272 01b2 631E     		subs	r3, r4, #1
 1273 01b4 0B44     		add	r3, r3, r1
 1274 01b6 9BB2     		uxth	r3, r3
 1275 01b8 0495     		str	r5, [sp, #16]
 1276 01ba CDF808A0 		str	r10, [sp, #8]
 1277 01be 5D46     		mov	r5, fp
 1278              	.LVL162:
 1279 01c0 9A46     		mov	r10, r3
 1280              	.LVL163:
 1281 01c2 CB46     		mov	fp, r9
 1282 01c4 8946     		mov	r9, r1
 1283              	.LVL164:
 1284              	.L153:
 347:..\..\..\lvgl\version_6.1.2\lvgl\src\lv_core/lv_refr.c ****             vdb->area.x2 = area_p->x2;
 1285              		.loc 1 347 0
 1286 01c6 B5F93C00 		ldrsh	r0, [r5, #60]
 1287 01ca A8F81000 		strh	r0, [r8, #16]	@ movhi
 350:..\..\..\lvgl\version_6.1.2\lvgl\src\lv_core/lv_refr.c ****             if(vdb->area.y2 > y2) vdb->area.y2 = y2;
 1288              		.loc 1 350 0
 1289 01ce 0FFA8AF6 		sxth	r6, r10
 348:..\..\..\lvgl\version_6.1.2\lvgl\src\lv_core/lv_refr.c ****             vdb->area.y1 = row;
 1290              		.loc 1 348 0
 1291 01d2 B5F94000 		ldrsh	r0, [r5, #64]
 1292 01d6 A8F81400 		strh	r0, [r8, #20]	@ movhi
 351:..\..\..\lvgl\version_6.1.2\lvgl\src\lv_core/lv_refr.c ****             row_last = vdb->area.y2;
 1293              		.loc 1 351 0
 1294 01da 5E45     		cmp	r6, fp
 349:..\..\..\lvgl\version_6.1.2\lvgl\src\lv_core/lv_refr.c ****             vdb->area.y2 = row + max_row - 1;
 1295              		.loc 1 349 0
 1296 01dc A8F81240 		strh	r4, [r8, #18]	@ movhi
 350:..\..\..\lvgl\version_6.1.2\lvgl\src\lv_core/lv_refr.c ****             if(vdb->area.y2 > y2) vdb->area.y2 = y2;
 1297              		.loc 1 350 0
 1298 01e0 D4BF     		ite	le
 1299 01e2 A8F81660 		strhle	r6, [r8, #22]	@ movhi
 351:..\..\..\lvgl\version_6.1.2\lvgl\src\lv_core/lv_refr.c ****             row_last = vdb->area.y2;
 1300              		.loc 1 351 0
 1301 01e6 A8F816B0 		strhgt	fp, [r8, #22]	@ movhi
 353:..\..\..\lvgl\version_6.1.2\lvgl\src\lv_core/lv_refr.c ****         }
 1302              		.loc 1 353 0
 1303 01ea 0198     		ldr	r0, [sp, #4]
 351:..\..\..\lvgl\version_6.1.2\lvgl\src\lv_core/lv_refr.c ****             row_last = vdb->area.y2;
 1304              		.loc 1 351 0
 1305 01ec C8BF     		it	gt
ARM GAS  C:\Users\pearlstl\AppData\Local\Temp\ccFIoKDo.s 			page 39


 1306 01ee 5E46     		movgt	r6, fp
 1307 01f0 4C44     		add	r4, r4, r9
 1308              	.LVL165:
 353:..\..\..\lvgl\version_6.1.2\lvgl\src\lv_core/lv_refr.c ****         }
 1309              		.loc 1 353 0
 1310 01f2 FFF7FEFF 		bl	lv_refr_area_part
 1311              	.LVL166:
 345:..\..\..\lvgl\version_6.1.2\lvgl\src\lv_core/lv_refr.c ****             /*Calc. the next y coordinates of VDB*/
 1312              		.loc 1 345 0
 1313 01f6 029B     		ldr	r3, [sp, #8]
 1314 01f8 24B2     		sxth	r4, r4
 1315              	.LVL167:
 1316 01fa E018     		adds	r0, r4, r3
 1317 01fc 0138     		subs	r0, r0, #1
 1318 01fe CA44     		add	r10, r10, r9
 1319 0200 5845     		cmp	r0, fp
 1320 0202 1FFA8AFA 		uxth	r10, r10
 1321 0206 DEDD     		ble	.L153
 1322 0208 D946     		mov	r9, fp
 1323 020a AB46     		mov	fp, r5
 1324 020c 049D     		ldr	r5, [sp, #16]
 1325              	.LVL168:
 1326              	.L150:
 357:..\..\..\lvgl\version_6.1.2\lvgl\src\lv_core/lv_refr.c ****             /*Calc. the next y coordinates of VDB*/
 1327              		.loc 1 357 0
 1328 020e B145     		cmp	r9, r6
 1329 0210 0ED0     		beq	.L143
 359:..\..\..\lvgl\version_6.1.2\lvgl\src\lv_core/lv_refr.c ****             vdb->area.x2 = area_p->x2;
 1330              		.loc 1 359 0
 1331 0212 BBF93C30 		ldrsh	r3, [fp, #60]
 1332 0216 A8F81030 		strh	r3, [r8, #16]	@ movhi
 360:..\..\..\lvgl\version_6.1.2\lvgl\src\lv_core/lv_refr.c ****             vdb->area.y1 = row;
 1333              		.loc 1 360 0
 1334 021a BBF94030 		ldrsh	r3, [fp, #64]
 1335 021e A8F81430 		strh	r3, [r8, #20]	@ movhi
 365:..\..\..\lvgl\version_6.1.2\lvgl\src\lv_core/lv_refr.c ****         }
 1336              		.loc 1 365 0
 1337 0222 0198     		ldr	r0, [sp, #4]
 361:..\..\..\lvgl\version_6.1.2\lvgl\src\lv_core/lv_refr.c ****             vdb->area.y2 = y2;
 1338              		.loc 1 361 0
 1339 0224 A8F81240 		strh	r4, [r8, #18]	@ movhi
 362:..\..\..\lvgl\version_6.1.2\lvgl\src\lv_core/lv_refr.c **** 
 1340              		.loc 1 362 0
 1341 0228 A8F81690 		strh	r9, [r8, #22]	@ movhi
 365:..\..\..\lvgl\version_6.1.2\lvgl\src\lv_core/lv_refr.c ****         }
 1342              		.loc 1 365 0
 1343 022c FFF7FEFF 		bl	lv_refr_area_part
 1344              	.LVL169:
 1345              	.L143:
 1346              	.LBE107:
 1347              	.LBE126:
 1348              	.LBE130:
 280:..\..\..\lvgl\version_6.1.2\lvgl\src\lv_core/lv_refr.c ****         }
 1349              		.loc 1 280 0
 1350 0230 3C68     		ldr	r4, [r7]
 1351 0232 A369     		ldr	r3, [r4, #24]
 1352 0234 002B     		cmp	r3, #0
ARM GAS  C:\Users\pearlstl\AppData\Local\Temp\ccFIoKDo.s 			page 40


 1353 0236 40D0     		beq	.L222
 1354              	.LVL170:
 1355              	.L154:
 1356 0238 039B     		ldr	r3, [sp, #12]
 1357 023a 04EBC300 		add	r0, r4, r3, lsl #3
 1358 023e 0430     		adds	r0, r0, #4
 1359 0240 FFF7FEFF 		bl	lv_area_get_size
 1360              	.LVL171:
 1361 0244 234B     		ldr	r3, .L224
 1362 0246 1C68     		ldr	r4, [r3]
 1363 0248 5B68     		ldr	r3, [r3, #4]
 1364 024a B4F85C21 		ldrh	r2, [r4, #348]
 1365 024e 1844     		add	r0, r0, r3
 1366 0250 C2F30902 		ubfx	r2, r2, #0, #10
 1367 0254 1F4B     		ldr	r3, .L224
 274:..\..\..\lvgl\version_6.1.2\lvgl\src\lv_core/lv_refr.c ****         /*Refresh the unjoined areas*/
 1368              		.loc 1 274 0
 1369 0256 0135     		adds	r5, r5, #1
 1370              	.LVL172:
 1371 0258 9542     		cmp	r5, r2
 280:..\..\..\lvgl\version_6.1.2\lvgl\src\lv_core/lv_refr.c ****         }
 1372              		.loc 1 280 0
 1373 025a 5860     		str	r0, [r3, #4]
 274:..\..\..\lvgl\version_6.1.2\lvgl\src\lv_core/lv_refr.c ****         /*Refresh the unjoined areas*/
 1374              		.loc 1 274 0
 1375 025c FFF441AF 		bcc	.L155
 1376              	.LVL173:
 1377              	.L140:
 1378              	.LBE104:
 1379              	.LBE103:
 174:..\..\..\lvgl\version_6.1.2\lvgl\src\lv_core/lv_refr.c ****         /*In true double buffered mode copy the refreshed areas to the new VDB to keep it up to
 1380              		.loc 1 174 0
 1381 0260 B4F85C31 		ldrh	r3, [r4, #348]
 1382 0264 C3F30903 		ubfx	r3, r3, #0, #10
 1383 0268 002B     		cmp	r3, #0
 1384 026a 3DD1     		bne	.L223
 1385              	.L157:
 220:..\..\..\lvgl\version_6.1.2\lvgl\src\lv_core/lv_refr.c **** 
 1386              		.loc 1 220 0
 1387 026c FFF7FEFF 		bl	lv_draw_free_buf
 1388              	.LVL174:
 223:..\..\..\lvgl\version_6.1.2\lvgl\src\lv_core/lv_refr.c **** 
 1389              		.loc 1 223 0
 1390 0270 09B0     		add	sp, sp, #36
 1391              		.cfi_remember_state
 1392              		.cfi_def_cfa_offset 36
 1393              		@ sp needed
 1394 0272 BDE8F08F 		pop	{r4, r5, r6, r7, r8, r9, r10, fp, pc}
 1395              	.LVL175:
 1396              	.L218:
 1397              		.cfi_restore_state
 1398              	.LBB136:
 1399              	.LBB100:
 1400              	.LBB92:
 1401              	.LBB93:
  78:..\..\..\lvgl\version_6.1.2\lvgl\src\lv_core\../lv_misc/lv_area.h **** }
 1402              		.loc 2 78 0
ARM GAS  C:\Users\pearlstl\AppData\Local\Temp\ccFIoKDo.s 			page 41


 1403 0276 06AB     		add	r3, sp, #24
 1404              	.LVL176:
 1405 0278 03CB     		ldmia	r3!, {r0, r1}
 1406              	.LVL177:
 1407              	.LBE93:
 1408              	.LBE92:
 260:..\..\..\lvgl\version_6.1.2\lvgl\src\lv_core/lv_refr.c ****             }
 1409              		.loc 1 260 0
 1410 027a 6219     		adds	r2, r4, r5
 1411              	.LBB96:
 1412              	.LBB94:
  78:..\..\..\lvgl\version_6.1.2\lvgl\src\lv_core\../lv_misc/lv_area.h **** }
 1413              		.loc 2 78 0
 1414 027c 04EB0803 		add	r3, r4, r8
 1415              	.LVL178:
 1416              	.LBE94:
 1417              	.LBE96:
 260:..\..\..\lvgl\version_6.1.2\lvgl\src\lv_core/lv_refr.c ****             }
 1418              		.loc 1 260 0
 1419 0280 0126     		movs	r6, #1
 1420              	.LBB97:
 1421              	.LBB95:
  78:..\..\..\lvgl\version_6.1.2\lvgl\src\lv_core\../lv_misc/lv_area.h **** }
 1422              		.loc 2 78 0
 1423 0282 5860     		str	r0, [r3, #4]	@ unaligned
 1424 0284 9960     		str	r1, [r3, #8]	@ unaligned
 1425              	.LVL179:
 1426              	.LBE95:
 1427              	.LBE97:
 260:..\..\..\lvgl\version_6.1.2\lvgl\src\lv_core/lv_refr.c ****             }
 1428              		.loc 1 260 0
 1429 0286 82F83C61 		strb	r6, [r2, #316]
 1430 028a 14E7     		b	.L215
 1431              	.LVL180:
 1432              	.L219:
 1433              	.LBE100:
 1434              	.LBE136:
 1435              	.LBB137:
 1436              	.LBB134:
 1437              	.LBB131:
 1438              	.LBB127:
 1439              	.LBB123:
 294:..\..\..\lvgl\version_6.1.2\lvgl\src\lv_core/lv_refr.c ****         vdb->area.x1        = 0;
 1440              		.loc 1 294 0
 1441 028c 3868     		ldr	r0, [r7]
 1442 028e FFF7FEFF 		bl	lv_disp_get_buf
 1443              	.LVL181:
 1444 0292 0446     		mov	r4, r0
 1445              	.LVL182:
 296:..\..\..\lvgl\version_6.1.2\lvgl\src\lv_core/lv_refr.c ****         vdb->area.y1        = 0;
 1446              		.loc 1 296 0
 1447 0294 3868     		ldr	r0, [r7]
 1448              	.LVL183:
 295:..\..\..\lvgl\version_6.1.2\lvgl\src\lv_core/lv_refr.c ****         vdb->area.x2        = lv_disp_get_hor_res(disp_refr) - 1;
 1449              		.loc 1 295 0
 1450 0296 2682     		strh	r6, [r4, #16]	@ movhi
 296:..\..\..\lvgl\version_6.1.2\lvgl\src\lv_core/lv_refr.c ****         vdb->area.y1        = 0;
ARM GAS  C:\Users\pearlstl\AppData\Local\Temp\ccFIoKDo.s 			page 42


 1451              		.loc 1 296 0
 1452 0298 FFF7FEFF 		bl	lv_disp_get_hor_res
 1453              	.LVL184:
 1454 029c 0138     		subs	r0, r0, #1
 1455 029e A082     		strh	r0, [r4, #20]	@ movhi
 297:..\..\..\lvgl\version_6.1.2\lvgl\src\lv_core/lv_refr.c ****         vdb->area.y2        = lv_disp_get_ver_res(disp_refr) - 1;
 1456              		.loc 1 297 0
 1457 02a0 6682     		strh	r6, [r4, #18]	@ movhi
 298:..\..\..\lvgl\version_6.1.2\lvgl\src\lv_core/lv_refr.c ****         lv_refr_area_part(area_p);
 1458              		.loc 1 298 0
 1459 02a2 3868     		ldr	r0, [r7]
 1460 02a4 FFF7FEFF 		bl	lv_disp_get_ver_res
 1461              	.LVL185:
 1462 02a8 0138     		subs	r0, r0, #1
 1463 02aa E082     		strh	r0, [r4, #22]	@ movhi
 299:..\..\..\lvgl\version_6.1.2\lvgl\src\lv_core/lv_refr.c ****     }
 1464              		.loc 1 299 0
 1465 02ac 0198     		ldr	r0, [sp, #4]
 1466 02ae FFF7FEFF 		bl	lv_refr_area_part
 1467              	.LVL186:
 1468              	.LBE123:
 1469              	.LBE127:
 1470              	.LBE131:
 280:..\..\..\lvgl\version_6.1.2\lvgl\src\lv_core/lv_refr.c ****         }
 1471              		.loc 1 280 0
 1472 02b2 3C68     		ldr	r4, [r7]
 1473 02b4 A369     		ldr	r3, [r4, #24]
 1474 02b6 002B     		cmp	r3, #0
 1475 02b8 BED1     		bne	.L154
 1476              	.LVL187:
 1477              	.L222:
 1478 02ba B4F85C21 		ldrh	r2, [r4, #348]
 1479 02be C2F30902 		ubfx	r2, r2, #0, #10
 1480 02c2 0AE7     		b	.L141
 1481              	.LVL188:
 1482              	.L220:
 1483              	.LBB132:
 1484              	.LBB128:
 1485              	.LBB124:
 308:..\..\..\lvgl\version_6.1.2\lvgl\src\lv_core/lv_refr.c **** 
 1486              		.loc 1 308 0
 1487 02c4 034B     		ldr	r3, .L224
 1488 02c6 1868     		ldr	r0, [r3]
 1489 02c8 FFF7FEFF 		bl	lv_disp_get_ver_res
 1490              	.LVL189:
 1491 02cc 0138     		subs	r0, r0, #1
 1492 02ce 0FFA80F9 		sxth	r9, r0
 1493              	.LVL190:
 1494 02d2 34E7     		b	.L145
 1495              	.L225:
 1496              		.align	2
 1497              	.L224:
 1498 02d4 00000000 		.word	.LANCHOR0
 1499              	.LVL191:
 1500              	.L132:
 1501              	.LBE124:
 1502              	.LBE128:
ARM GAS  C:\Users\pearlstl\AppData\Local\Temp\ccFIoKDo.s 			page 43


 1503              	.LBE132:
 271:..\..\..\lvgl\version_6.1.2\lvgl\src\lv_core/lv_refr.c ****     uint32_t i;
 1504              		.loc 1 271 0
 1505 02d8 0023     		movs	r3, #0
 1506 02da 7B60     		str	r3, [r7, #4]
 1507              	.LVL192:
 1508              	.LBE134:
 1509              	.LBE137:
 174:..\..\..\lvgl\version_6.1.2\lvgl\src\lv_core/lv_refr.c ****         /*In true double buffered mode copy the refreshed areas to the new VDB to keep it up to
 1510              		.loc 1 174 0
 1511 02dc B4F85C31 		ldrh	r3, [r4, #348]
 1512 02e0 C3F30903 		ubfx	r3, r3, #0, #10
 1513 02e4 002B     		cmp	r3, #0
 1514 02e6 C1D0     		beq	.L157
 1515              	.L223:
 177:..\..\..\lvgl\version_6.1.2\lvgl\src\lv_core/lv_refr.c ****             lv_disp_buf_t * vdb = lv_disp_get_buf(disp_refr);
 1516              		.loc 1 177 0
 1517 02e8 2046     		mov	r0, r4
 1518 02ea FFF7FEFF 		bl	lv_disp_is_true_double_buf
 1519              	.LVL193:
 1520 02ee 30BB     		cbnz	r0, .L158
 1521 02f0 D7F80090 		ldr	r9, [r7]
 1522              	.L159:
 210:..\..\..\lvgl\version_6.1.2\lvgl\src\lv_core/lv_refr.c ****         memset(disp_refr->inv_area_joined, 0, sizeof(disp_refr->inv_area_joined));
 1523              		.loc 1 210 0
 1524 02f4 4FF48072 		mov	r2, #256
 1525 02f8 0021     		movs	r1, #0
 1526 02fa 09F13C00 		add	r0, r9, #60
 1527 02fe FFF7FEFF 		bl	memset
 1528              	.LVL194:
 211:..\..\..\lvgl\version_6.1.2\lvgl\src\lv_core/lv_refr.c ****         disp_refr->inv_p = 0;
 1529              		.loc 1 211 0
 1530 0302 2022     		movs	r2, #32
 1531 0304 0021     		movs	r1, #0
 1532 0306 09F59E70 		add	r0, r9, #316
 1533 030a FFF7FEFF 		bl	memset
 1534              	.LVL195:
 212:..\..\..\lvgl\version_6.1.2\lvgl\src\lv_core/lv_refr.c **** 
 1535              		.loc 1 212 0
 1536 030e B9F85C31 		ldrh	r3, [r9, #348]
 215:..\..\..\lvgl\version_6.1.2\lvgl\src\lv_core/lv_refr.c ****             disp_refr->driver.monitor_cb(&disp_refr->driver, lv_tick_elaps(start), px_num);
 1537              		.loc 1 215 0
 1538 0312 D9F81840 		ldr	r4, [r9, #24]
 212:..\..\..\lvgl\version_6.1.2\lvgl\src\lv_core/lv_refr.c **** 
 1539              		.loc 1 212 0
 1540 0316 6FF30903 		bfc	r3, #0, #10
 1541 031a A9F85C31 		strh	r3, [r9, #348]	@ movhi
 215:..\..\..\lvgl\version_6.1.2\lvgl\src\lv_core/lv_refr.c ****             disp_refr->driver.monitor_cb(&disp_refr->driver, lv_tick_elaps(start), px_num);
 1542              		.loc 1 215 0
 1543 031e 002C     		cmp	r4, #0
 1544 0320 A4D0     		beq	.L157
 216:..\..\..\lvgl\version_6.1.2\lvgl\src\lv_core/lv_refr.c ****         }
 1545              		.loc 1 216 0
 1546 0322 0598     		ldr	r0, [sp, #20]
 1547 0324 FFF7FEFF 		bl	lv_tick_elaps
 1548              	.LVL196:
 1549 0328 7A68     		ldr	r2, [r7, #4]
ARM GAS  C:\Users\pearlstl\AppData\Local\Temp\ccFIoKDo.s 			page 44


 1550 032a 0146     		mov	r1, r0
 1551 032c 4846     		mov	r0, r9
 1552 032e A047     		blx	r4
 1553              	.LVL197:
 220:..\..\..\lvgl\version_6.1.2\lvgl\src\lv_core/lv_refr.c **** 
 1554              		.loc 1 220 0
 1555 0330 FFF7FEFF 		bl	lv_draw_free_buf
 1556              	.LVL198:
 223:..\..\..\lvgl\version_6.1.2\lvgl\src\lv_core/lv_refr.c **** 
 1557              		.loc 1 223 0
 1558 0334 09B0     		add	sp, sp, #36
 1559              		.cfi_remember_state
 1560              		.cfi_def_cfa_offset 36
 1561              		@ sp needed
 1562 0336 BDE8F08F 		pop	{r4, r5, r6, r7, r8, r9, r10, fp, pc}
 1563              	.LVL199:
 1564              	.L172:
 1565              		.cfi_restore_state
 1566              	.LBB138:
 1567              	.LBB135:
 1568              	.LBB133:
 1569              	.LBB129:
 1570              	.LBB125:
 344:..\..\..\lvgl\version_6.1.2\lvgl\src\lv_core/lv_refr.c ****         for(row = area_p->y1; row + max_row - 1 <= y2; row += max_row) {
 1571              		.loc 1 344 0
 1572 033a 0026     		movs	r6, #0
 1573 033c 67E7     		b	.L150
 1574              	.LVL200:
 1575              	.L158:
 1576              	.LBE125:
 1577              	.LBE129:
 1578              	.LBE133:
 1579              	.LBE135:
 1580              	.LBE138:
 1581              	.LBB139:
 178:..\..\..\lvgl\version_6.1.2\lvgl\src\lv_core/lv_refr.c **** 
 1582              		.loc 1 178 0
 1583 033e 3868     		ldr	r0, [r7]
 1584 0340 FFF7FEFF 		bl	lv_disp_get_buf
 1585              	.LVL201:
 1586 0344 0546     		mov	r5, r0
 1587              	.LVL202:
 1588              	.LBB140:
 1589              	.LBB141:
 562:..\..\..\lvgl\version_6.1.2\lvgl\src\lv_core/lv_refr.c **** 
 1590              		.loc 1 562 0
 1591 0346 3868     		ldr	r0, [r7]
 1592              	.LVL203:
 1593 0348 FFF7FEFF 		bl	lv_disp_get_buf
 1594              	.LVL204:
 1595 034c 0446     		mov	r4, r0
 1596              	.LVL205:
 566:..\..\..\lvgl\version_6.1.2\lvgl\src\lv_core/lv_refr.c ****         while(vdb->flushing)
 1597              		.loc 1 566 0
 1598 034e 3868     		ldr	r0, [r7]
 1599              	.LVL206:
 1600 0350 FFF7FEFF 		bl	lv_disp_is_double_buf
ARM GAS  C:\Users\pearlstl\AppData\Local\Temp\ccFIoKDo.s 			page 45


 1601              	.LVL207:
 1602 0354 0028     		cmp	r0, #0
 1603 0356 6FD1     		bne	.L191
 1604              	.L160:
 571:..\..\..\lvgl\version_6.1.2\lvgl\src\lv_core/lv_refr.c **** 
 1605              		.loc 1 571 0
 1606 0358 237E     		ldrb	r3, [r4, #24]	@ zero_extendqisi2
 1607              	.LBB142:
 1608              	.LBB143:
 143:..\..\..\lvgl\version_6.1.2\lvgl\src\lv_core/lv_refr.c **** }
 1609              		.loc 1 143 0
 1610 035a 3868     		ldr	r0, [r7]
 1611 035c 3A4E     		ldr	r6, .L226
 1612              	.LBE143:
 1613              	.LBE142:
 571:..\..\..\lvgl\version_6.1.2\lvgl\src\lv_core/lv_refr.c **** 
 1614              		.loc 1 571 0
 1615 035e 43F00103 		orr	r3, r3, #1
 1616 0362 2376     		strb	r3, [r4, #24]
 575:..\..\..\lvgl\version_6.1.2\lvgl\src\lv_core/lv_refr.c **** 
 1617              		.loc 1 575 0
 1618 0364 C368     		ldr	r3, [r0, #12]
 1619 0366 23B1     		cbz	r3, .L162
 1620 0368 A268     		ldr	r2, [r4, #8]
 1621 036a 04F11001 		add	r1, r4, #16
 1622 036e 9847     		blx	r3
 1623              	.LVL208:
 1624 0370 3068     		ldr	r0, [r6]
 1625              	.L162:
 577:..\..\..\lvgl\version_6.1.2\lvgl\src\lv_core/lv_refr.c ****         if(vdb->buf_act == vdb->buf1)
 1626              		.loc 1 577 0
 1627 0372 2368     		ldr	r3, [r4]
 1628 0374 33B1     		cbz	r3, .L165
 1629 0376 6268     		ldr	r2, [r4, #4]
 1630 0378 22B1     		cbz	r2, .L165
 578:..\..\..\lvgl\version_6.1.2\lvgl\src\lv_core/lv_refr.c ****             vdb->buf_act = vdb->buf2;
 1631              		.loc 1 578 0
 1632 037a A168     		ldr	r1, [r4, #8]
 1633              		.loc 1 579 0
 1634 037c 8B42     		cmp	r3, r1
 1635 037e 08BF     		it	eq
 1636 0380 1346     		moveq	r3, r2
 1637 0382 A360     		str	r3, [r4, #8]
 1638              	.L165:
 1639              	.LBE141:
 1640              	.LBE140:
 186:..\..\..\lvgl\version_6.1.2\lvgl\src\lv_core/lv_refr.c ****                 ;
 1641              		.loc 1 186 0 discriminator 1
 1642 0384 AB69     		ldr	r3, [r5, #24]
 1643 0386 DB07     		lsls	r3, r3, #31
 1644 0388 FCD4     		bmi	.L165
 189:..\..\..\lvgl\version_6.1.2\lvgl\src\lv_core/lv_refr.c ****             uint8_t * buf_ina = (uint8_t *)vdb->buf_act == vdb->buf1 ? vdb->buf2 : vdb->buf1;
 1645              		.loc 1 189 0
 1646 038a AB68     		ldr	r3, [r5, #8]
 190:..\..\..\lvgl\version_6.1.2\lvgl\src\lv_core/lv_refr.c **** 
 1647              		.loc 1 190 0
 1648 038c 2A68     		ldr	r2, [r5]
ARM GAS  C:\Users\pearlstl\AppData\Local\Temp\ccFIoKDo.s 			page 46


 189:..\..\..\lvgl\version_6.1.2\lvgl\src\lv_core/lv_refr.c ****             uint8_t * buf_ina = (uint8_t *)vdb->buf_act == vdb->buf1 ? vdb->buf2 : vdb->buf1;
 1649              		.loc 1 189 0
 1650 038e 0293     		str	r3, [sp, #8]
 1651              	.LVL209:
 190:..\..\..\lvgl\version_6.1.2\lvgl\src\lv_core/lv_refr.c **** 
 1652              		.loc 1 190 0
 1653 0390 9342     		cmp	r3, r2
 1654 0392 08BF     		it	eq
 1655 0394 6B68     		ldreq	r3, [r5, #4]
 1656              	.LVL210:
 1657 0396 0192     		str	r2, [sp, #4]
 1658              	.LVL211:
 1659 0398 08BF     		it	eq
 1660 039a 0193     		streq	r3, [sp, #4]
 192:..\..\..\lvgl\version_6.1.2\lvgl\src\lv_core/lv_refr.c ****             uint16_t a;
 1661              		.loc 1 192 0
 1662 039c FFF7FEFF 		bl	lv_disp_get_hor_res
 1663              	.LVL212:
 194:..\..\..\lvgl\version_6.1.2\lvgl\src\lv_core/lv_refr.c ****                 if(disp_refr->inv_area_joined[a] == 0) {
 1664              		.loc 1 194 0
 1665 03a0 D7F80090 		ldr	r9, [r7]
 192:..\..\..\lvgl\version_6.1.2\lvgl\src\lv_core/lv_refr.c ****             uint16_t a;
 1666              		.loc 1 192 0
 1667 03a4 0390     		str	r0, [sp, #12]
 1668              	.LVL213:
 194:..\..\..\lvgl\version_6.1.2\lvgl\src\lv_core/lv_refr.c ****                 if(disp_refr->inv_area_joined[a] == 0) {
 1669              		.loc 1 194 0
 1670 03a6 B9F85C31 		ldrh	r3, [r9, #348]
 1671 03aa C3F30903 		ubfx	r3, r3, #0, #10
 1672 03ae 002B     		cmp	r3, #0
 1673 03b0 A0D0     		beq	.L159
 1674 03b2 0026     		movs	r6, #0
 1675 03b4 B246     		mov	r10, r6
 1676 03b6 4FEA800B 		lsl	fp, r0, #2
 1677              	.LVL214:
 1678              	.L169:
 195:..\..\..\lvgl\version_6.1.2\lvgl\src\lv_core/lv_refr.c ****                     lv_coord_t y;
 1679              		.loc 1 195 0
 1680 03ba 09EB0602 		add	r2, r9, r6
 1681 03be 92F83C21 		ldrb	r2, [r2, #316]	@ zero_extendqisi2
 1682 03c2 8ABB     		cbnz	r2, .L167
 1683              	.LBB145:
 199:..\..\..\lvgl\version_6.1.2\lvgl\src\lv_core/lv_refr.c **** 
 1684              		.loc 1 199 0
 1685 03c4 F11D     		adds	r1, r6, #7
 1686 03c6 09EBC101 		add	r1, r9, r1, lsl #3
 1687 03ca 09EBC606 		add	r6, r9, r6, lsl #3
 1688              	.LBB146:
 1689              	.LBB147:
  88:..\..\..\lvgl\version_6.1.2\lvgl\src\lv_core\../lv_misc/lv_area.h **** }
 1690              		.loc 2 88 0
 1691 03ce 0A89     		ldrh	r2, [r1, #8]
 1692 03d0 B1F80480 		ldrh	r8, [r1, #4]
 1693              	.LBE147:
 1694              	.LBE146:
 198:..\..\..\lvgl\version_6.1.2\lvgl\src\lv_core/lv_refr.c ****                     uint32_t line_length = lv_area_get_width(&disp_refr->inv_areas[a]) * sizeof(lv_
 1695              		.loc 1 198 0
ARM GAS  C:\Users\pearlstl\AppData\Local\Temp\ccFIoKDo.s 			page 47


 1696 03d4 B6F93E40 		ldrsh	r4, [r6, #62]
 1697 03d8 B6F93C50 		ldrsh	r5, [r6, #60]
 201:..\..\..\lvgl\version_6.1.2\lvgl\src\lv_core/lv_refr.c ****                         memcpy(buf_act + start_offs, buf_ina + start_offs, line_length);
 1698              		.loc 1 201 0
 1699 03dc B6F94210 		ldrsh	r1, [r6, #66]
 1700              	.LBB150:
 1701              	.LBB148:
  88:..\..\..\lvgl\version_6.1.2\lvgl\src\lv_core\../lv_misc/lv_area.h **** }
 1702              		.loc 2 88 0
 1703 03e0 0132     		adds	r2, r2, #1
 1704 03e2 C8EB0208 		rsb	r8, r8, r2
 1705              	.LBE148:
 1706              	.LBE150:
 197:..\..\..\lvgl\version_6.1.2\lvgl\src\lv_core/lv_refr.c ****                         (hres * disp_refr->inv_areas[a].y1 + disp_refr->inv_areas[a].x1) * sizeof(l
 1707              		.loc 1 197 0
 1708 03e6 039A     		ldr	r2, [sp, #12]
 1709              	.LBB151:
 1710              	.LBB149:
  88:..\..\..\lvgl\version_6.1.2\lvgl\src\lv_core\../lv_misc/lv_area.h **** }
 1711              		.loc 2 88 0
 1712 03e8 0FFA88F8 		sxth	r8, r8
 1713              	.LBE149:
 1714              	.LBE151:
 197:..\..\..\lvgl\version_6.1.2\lvgl\src\lv_core/lv_refr.c ****                         (hres * disp_refr->inv_areas[a].y1 + disp_refr->inv_areas[a].x1) * sizeof(l
 1715              		.loc 1 197 0
 1716 03ec 02FB0455 		mla	r5, r2, r4, r5
 201:..\..\..\lvgl\version_6.1.2\lvgl\src\lv_core/lv_refr.c ****                         memcpy(buf_act + start_offs, buf_ina + start_offs, line_length);
 1717              		.loc 1 201 0
 1718 03f0 A142     		cmp	r1, r4
 199:..\..\..\lvgl\version_6.1.2\lvgl\src\lv_core/lv_refr.c **** 
 1719              		.loc 1 199 0
 1720 03f2 4FEA8808 		lsl	r8, r8, #2
 197:..\..\..\lvgl\version_6.1.2\lvgl\src\lv_core/lv_refr.c ****                         (hres * disp_refr->inv_areas[a].y1 + disp_refr->inv_areas[a].x1) * sizeof(l
 1721              		.loc 1 197 0
 1722 03f6 4FEA8505 		lsl	r5, r5, #2
 1723              	.LVL215:
 201:..\..\..\lvgl\version_6.1.2\lvgl\src\lv_core/lv_refr.c ****                         memcpy(buf_act + start_offs, buf_ina + start_offs, line_length);
 1724              		.loc 1 201 0
 1725 03fa 15DB     		blt	.L167
 1726 03fc 029B     		ldr	r3, [sp, #8]
 1727 03fe 019A     		ldr	r2, [sp, #4]
 1728 0400 2B44     		add	r3, r3, r5
 1729 0402 1544     		add	r5, r5, r2
 1730              	.LVL216:
 1731              	.L168:
 202:..\..\..\lvgl\version_6.1.2\lvgl\src\lv_core/lv_refr.c ****                         start_offs += hres * sizeof(lv_color_t);
 1732              		.loc 1 202 0 discriminator 3
 1733 0404 4246     		mov	r2, r8
 1734 0406 2946     		mov	r1, r5
 1735 0408 1846     		mov	r0, r3
 1736 040a FFF7FEFF 		bl	memcpy
 1737              	.LVL217:
 1738 040e 0134     		adds	r4, r4, #1
 1739              	.LVL218:
 201:..\..\..\lvgl\version_6.1.2\lvgl\src\lv_core/lv_refr.c ****                         memcpy(buf_act + start_offs, buf_ina + start_offs, line_length);
 1740              		.loc 1 201 0 discriminator 3
 1741 0410 B6F94220 		ldrsh	r2, [r6, #66]
ARM GAS  C:\Users\pearlstl\AppData\Local\Temp\ccFIoKDo.s 			page 48


 1742 0414 24B2     		sxth	r4, r4
 202:..\..\..\lvgl\version_6.1.2\lvgl\src\lv_core/lv_refr.c ****                         start_offs += hres * sizeof(lv_color_t);
 1743              		.loc 1 202 0 discriminator 3
 1744 0416 0346     		mov	r3, r0
 1745              	.LVL219:
 201:..\..\..\lvgl\version_6.1.2\lvgl\src\lv_core/lv_refr.c ****                         memcpy(buf_act + start_offs, buf_ina + start_offs, line_length);
 1746              		.loc 1 201 0 discriminator 3
 1747 0418 A242     		cmp	r2, r4
 1748 041a 5D44     		add	r5, r5, fp
 1749 041c 5B44     		add	r3, r3, fp
 1750 041e F1DA     		bge	.L168
 1751 0420 B9F85C31 		ldrh	r3, [r9, #348]
 1752 0424 C3F30903 		ubfx	r3, r3, #0, #10
 1753              	.LVL220:
 1754              	.L167:
 1755              	.LBE145:
 194:..\..\..\lvgl\version_6.1.2\lvgl\src\lv_core/lv_refr.c ****                 if(disp_refr->inv_area_joined[a] == 0) {
 1756              		.loc 1 194 0 discriminator 2
 1757 0428 0AF1010A 		add	r10, r10, #1
 1758              	.LVL221:
 1759 042c 1FFA8AFA 		uxth	r10, r10
 1760              	.LVL222:
 1761 0430 9A45     		cmp	r10, r3
 1762 0432 5646     		mov	r6, r10
 1763 0434 C1DB     		blt	.L169
 1764 0436 5DE7     		b	.L159
 1765              	.LVL223:
 1766              	.L191:
 1767              	.LBB152:
 1768              	.LBB144:
 567:..\..\..\lvgl\version_6.1.2\lvgl\src\lv_core/lv_refr.c ****             ;
 1769              		.loc 1 567 0
 1770 0438 A369     		ldr	r3, [r4, #24]
 1771 043a DA07     		lsls	r2, r3, #31
 1772 043c 8CD5     		bpl	.L160
 1773 043e A369     		ldr	r3, [r4, #24]
 1774 0440 DA07     		lsls	r2, r3, #31
 1775 0442 F9D4     		bmi	.L191
 1776 0444 88E7     		b	.L160
 1777              	.L227:
 1778 0446 00BF     		.align	2
 1779              	.L226:
 1780 0448 00000000 		.word	.LANCHOR0
 1781              	.LBE144:
 1782              	.LBE152:
 1783              	.LBE139:
 1784              		.cfi_endproc
 1785              	.LFE40:
 1786              		.size	lv_disp_refr_task, .-lv_disp_refr_task
 1787              		.section	.text.lv_refr_now,"ax",%progbits
 1788              		.align	2
 1789              		.global	lv_refr_now
 1790              		.thumb
 1791              		.thumb_func
 1792              		.type	lv_refr_now, %function
 1793              	lv_refr_now:
 1794              	.LFB36:
ARM GAS  C:\Users\pearlstl\AppData\Local\Temp\ccFIoKDo.s 			page 49


  75:..\..\..\lvgl\version_6.1.2\lvgl\src\lv_core/lv_refr.c ****     if(disp) {
 1795              		.loc 1 75 0
 1796              		.cfi_startproc
 1797              		@ args = 0, pretend = 0, frame = 0
 1798              		@ frame_needed = 0, uses_anonymous_args = 0
 1799              	.LVL224:
  76:..\..\..\lvgl\version_6.1.2\lvgl\src\lv_core/lv_refr.c ****         lv_disp_refr_task(disp->refr_task);
 1800              		.loc 1 76 0
 1801 0000 10B1     		cbz	r0, .L229
  77:..\..\..\lvgl\version_6.1.2\lvgl\src\lv_core/lv_refr.c ****     } else {
 1802              		.loc 1 77 0
 1803 0002 006A     		ldr	r0, [r0, #32]
 1804              	.LVL225:
 1805 0004 FFF7FEBF 		b	lv_disp_refr_task
 1806              	.LVL226:
 1807              	.L229:
  75:..\..\..\lvgl\version_6.1.2\lvgl\src\lv_core/lv_refr.c ****     if(disp) {
 1808              		.loc 1 75 0
 1809 0008 10B5     		push	{r4, lr}
 1810              		.cfi_def_cfa_offset 8
 1811              		.cfi_offset 4, -8
 1812              		.cfi_offset 14, -4
 1813              	.LBB153:
  80:..\..\..\lvgl\version_6.1.2\lvgl\src\lv_core/lv_refr.c ****         while(d) {
 1814              		.loc 1 80 0
 1815 000a FFF7FEFF 		bl	lv_disp_get_next
 1816              	.LVL227:
  81:..\..\..\lvgl\version_6.1.2\lvgl\src\lv_core/lv_refr.c ****             lv_disp_refr_task(d->refr_task);
 1817              		.loc 1 81 0
 1818 000e 0446     		mov	r4, r0
 1819 0010 40B1     		cbz	r0, .L228
 1820              	.L232:
  82:..\..\..\lvgl\version_6.1.2\lvgl\src\lv_core/lv_refr.c ****             d = lv_disp_get_next(d);
 1821              		.loc 1 82 0
 1822 0012 206A     		ldr	r0, [r4, #32]
 1823              	.LVL228:
 1824 0014 FFF7FEFF 		bl	lv_disp_refr_task
 1825              	.LVL229:
  83:..\..\..\lvgl\version_6.1.2\lvgl\src\lv_core/lv_refr.c ****         }
 1826              		.loc 1 83 0
 1827 0018 2046     		mov	r0, r4
 1828 001a FFF7FEFF 		bl	lv_disp_get_next
 1829              	.LVL230:
  81:..\..\..\lvgl\version_6.1.2\lvgl\src\lv_core/lv_refr.c ****             lv_disp_refr_task(d->refr_task);
 1830              		.loc 1 81 0
 1831 001e 0446     		mov	r4, r0
 1832 0020 0028     		cmp	r0, #0
 1833 0022 F6D1     		bne	.L232
 1834              	.L228:
 1835 0024 10BD     		pop	{r4, pc}
 1836              	.LBE153:
 1837              		.cfi_endproc
 1838              	.LFE36:
 1839              		.size	lv_refr_now, .-lv_refr_now
 1840 0026 00BF     		.bss
 1841              		.align	2
 1842              		.set	.LANCHOR0,. + 0
ARM GAS  C:\Users\pearlstl\AppData\Local\Temp\ccFIoKDo.s 			page 50


 1843              		.type	disp_refr, %object
 1844              		.size	disp_refr, 4
 1845              	disp_refr:
 1846 0000 00000000 		.space	4
 1847              		.type	px_num, %object
 1848              		.size	px_num, 4
 1849              	px_num:
 1850 0004 00000000 		.space	4
 1851              		.text
 1852              	.Letext0:
 1853              		.file 3 "c:\\program files (x86)\\cypress\\psoc creator\\4.2\\psoc creator\\import\\gnu\\arm\\5.4.
 1854              		.file 4 "c:\\program files (x86)\\cypress\\psoc creator\\4.2\\psoc creator\\import\\gnu\\arm\\5.4.
 1855              		.file 5 "..\\..\\..\\lvgl\\version_6.1.2\\lvgl\\src\\lv_core\\../../../lv_conf.h"
 1856              		.file 6 "..\\..\\..\\lvgl\\version_6.1.2\\lvgl\\src\\lv_core\\../lv_font/lv_font.h"
 1857              		.file 7 "..\\..\\..\\lvgl\\version_6.1.2\\lvgl\\src\\lv_core\\../lv_misc/lv_color.h"
 1858              		.file 8 "..\\..\\..\\lvgl\\version_6.1.2\\lvgl\\src\\lv_core\\lv_style.h"
 1859              		.file 9 "..\\..\\..\\lvgl\\version_6.1.2\\lvgl\\src\\lv_core\\../lv_misc/lv_types.h"
 1860              		.file 10 "..\\..\\..\\lvgl\\version_6.1.2\\lvgl\\src\\lv_core\\../lv_misc/lv_ll.h"
 1861              		.file 11 "..\\..\\..\\lvgl\\version_6.1.2\\lvgl\\src\\lv_core\\../lv_misc/lv_bidi.h"
 1862              		.file 12 "..\\..\\..\\lvgl\\version_6.1.2\\lvgl\\src\\lv_core\\../lv_hal/../lv_misc/lv_task.h"
 1863              		.file 13 "..\\..\\..\\lvgl\\version_6.1.2\\lvgl\\src\\lv_core\\../lv_hal/lv_hal_disp.h"
 1864              		.file 14 "..\\..\\..\\lvgl\\version_6.1.2\\lvgl\\src\\lv_core\\lv_obj.h"
 1865              		.file 15 "..\\..\\..\\lvgl\\version_6.1.2\\lvgl\\src\\lv_core\\lv_disp.h"
 1866              		.file 16 "..\\..\\..\\lvgl\\version_6.1.2\\lvgl\\src\\lv_core\\../lv_hal/lv_hal_tick.h"
 1867              		.file 17 "..\\..\\..\\lvgl\\version_6.1.2\\lvgl\\src\\lv_core\\../lv_draw/lv_draw.h"