ARM GAS  C:\Users\pearlstl\AppData\Local\Temp\cc98wxIE.s 			page 1


   1              		.syntax unified
   2              		.cpu cortex-m4
   3              		.eabi_attribute 27, 1
   4              		.fpu fpv4-sp-d16
   5              		.eabi_attribute 20, 1
   6              		.eabi_attribute 21, 1
   7              		.eabi_attribute 23, 3
   8              		.eabi_attribute 24, 1
   9              		.eabi_attribute 25, 1
  10              		.eabi_attribute 26, 1
  11              		.eabi_attribute 30, 2
  12              		.eabi_attribute 34, 1
  13              		.eabi_attribute 18, 4
  14              		.thumb
  15              		.syntax unified
  16              		.file	"lv_spinbox.c"
  17              		.text
  18              	.Ltext0:
  19              		.cfi_sections	.debug_frame
  20              		.section	.text.lv_spinbox_updatevalue,"ax",%progbits
  21              		.align	2
  22              		.thumb
  23              		.thumb_func
  24              		.type	lv_spinbox_updatevalue, %function
  25              	lv_spinbox_updatevalue:
  26              	.LFB70:
  27              		.file 1 "..\\..\\..\\lvgl\\version_6.1.2\\lvgl\\src\\lv_objx\\lv_spinbox.c"
   1:..\..\..\lvgl\version_6.1.2\lvgl\src\lv_objx/lv_spinbox.c **** /**
   2:..\..\..\lvgl\version_6.1.2\lvgl\src\lv_objx/lv_spinbox.c ****  * @file lv_spinbox.c
   3:..\..\..\lvgl\version_6.1.2\lvgl\src\lv_objx/lv_spinbox.c ****  *
   4:..\..\..\lvgl\version_6.1.2\lvgl\src\lv_objx/lv_spinbox.c ****  */
   5:..\..\..\lvgl\version_6.1.2\lvgl\src\lv_objx/lv_spinbox.c **** 
   6:..\..\..\lvgl\version_6.1.2\lvgl\src\lv_objx/lv_spinbox.c **** /*********************
   7:..\..\..\lvgl\version_6.1.2\lvgl\src\lv_objx/lv_spinbox.c ****  *      INCLUDES
   8:..\..\..\lvgl\version_6.1.2\lvgl\src\lv_objx/lv_spinbox.c ****  *********************/
   9:..\..\..\lvgl\version_6.1.2\lvgl\src\lv_objx/lv_spinbox.c **** #include "lv_spinbox.h"
  10:..\..\..\lvgl\version_6.1.2\lvgl\src\lv_objx/lv_spinbox.c **** 
  11:..\..\..\lvgl\version_6.1.2\lvgl\src\lv_objx/lv_spinbox.c **** #if LV_USE_SPINBOX != 0
  12:..\..\..\lvgl\version_6.1.2\lvgl\src\lv_objx/lv_spinbox.c **** #include "../lv_core/lv_debug.h"
  13:..\..\..\lvgl\version_6.1.2\lvgl\src\lv_objx/lv_spinbox.c **** #include "../lv_themes/lv_theme.h"
  14:..\..\..\lvgl\version_6.1.2\lvgl\src\lv_objx/lv_spinbox.c **** #include "../lv_misc/lv_math.h"
  15:..\..\..\lvgl\version_6.1.2\lvgl\src\lv_objx/lv_spinbox.c **** #include "../lv_misc/lv_utils.h"
  16:..\..\..\lvgl\version_6.1.2\lvgl\src\lv_objx/lv_spinbox.c **** 
  17:..\..\..\lvgl\version_6.1.2\lvgl\src\lv_objx/lv_spinbox.c **** /*********************
  18:..\..\..\lvgl\version_6.1.2\lvgl\src\lv_objx/lv_spinbox.c ****  *      DEFINES
  19:..\..\..\lvgl\version_6.1.2\lvgl\src\lv_objx/lv_spinbox.c ****  *********************/
  20:..\..\..\lvgl\version_6.1.2\lvgl\src\lv_objx/lv_spinbox.c **** #define LV_OBJX_NAME "lv_spinbox"
  21:..\..\..\lvgl\version_6.1.2\lvgl\src\lv_objx/lv_spinbox.c **** 
  22:..\..\..\lvgl\version_6.1.2\lvgl\src\lv_objx/lv_spinbox.c **** /**********************
  23:..\..\..\lvgl\version_6.1.2\lvgl\src\lv_objx/lv_spinbox.c ****  *      TYPEDEFS
  24:..\..\..\lvgl\version_6.1.2\lvgl\src\lv_objx/lv_spinbox.c ****  **********************/
  25:..\..\..\lvgl\version_6.1.2\lvgl\src\lv_objx/lv_spinbox.c **** 
  26:..\..\..\lvgl\version_6.1.2\lvgl\src\lv_objx/lv_spinbox.c **** /**********************
  27:..\..\..\lvgl\version_6.1.2\lvgl\src\lv_objx/lv_spinbox.c ****  *  STATIC PROTOTYPES
  28:..\..\..\lvgl\version_6.1.2\lvgl\src\lv_objx/lv_spinbox.c ****  **********************/
  29:..\..\..\lvgl\version_6.1.2\lvgl\src\lv_objx/lv_spinbox.c **** static lv_res_t lv_spinbox_signal(lv_obj_t * spinbox, lv_signal_t sign, void * param);
  30:..\..\..\lvgl\version_6.1.2\lvgl\src\lv_objx/lv_spinbox.c **** static void lv_spinbox_updatevalue(lv_obj_t * spinbox);
ARM GAS  C:\Users\pearlstl\AppData\Local\Temp\cc98wxIE.s 			page 2


  31:..\..\..\lvgl\version_6.1.2\lvgl\src\lv_objx/lv_spinbox.c **** 
  32:..\..\..\lvgl\version_6.1.2\lvgl\src\lv_objx/lv_spinbox.c **** /**********************
  33:..\..\..\lvgl\version_6.1.2\lvgl\src\lv_objx/lv_spinbox.c ****  *  STATIC VARIABLES
  34:..\..\..\lvgl\version_6.1.2\lvgl\src\lv_objx/lv_spinbox.c ****  **********************/
  35:..\..\..\lvgl\version_6.1.2\lvgl\src\lv_objx/lv_spinbox.c **** static lv_signal_cb_t ancestor_signal;
  36:..\..\..\lvgl\version_6.1.2\lvgl\src\lv_objx/lv_spinbox.c **** static lv_design_cb_t ancestor_design;
  37:..\..\..\lvgl\version_6.1.2\lvgl\src\lv_objx/lv_spinbox.c **** 
  38:..\..\..\lvgl\version_6.1.2\lvgl\src\lv_objx/lv_spinbox.c **** /**********************
  39:..\..\..\lvgl\version_6.1.2\lvgl\src\lv_objx/lv_spinbox.c ****  *      MACROS
  40:..\..\..\lvgl\version_6.1.2\lvgl\src\lv_objx/lv_spinbox.c ****  **********************/
  41:..\..\..\lvgl\version_6.1.2\lvgl\src\lv_objx/lv_spinbox.c **** 
  42:..\..\..\lvgl\version_6.1.2\lvgl\src\lv_objx/lv_spinbox.c **** /**********************
  43:..\..\..\lvgl\version_6.1.2\lvgl\src\lv_objx/lv_spinbox.c ****  *   GLOBAL FUNCTIONS
  44:..\..\..\lvgl\version_6.1.2\lvgl\src\lv_objx/lv_spinbox.c ****  **********************/
  45:..\..\..\lvgl\version_6.1.2\lvgl\src\lv_objx/lv_spinbox.c **** 
  46:..\..\..\lvgl\version_6.1.2\lvgl\src\lv_objx/lv_spinbox.c **** /**
  47:..\..\..\lvgl\version_6.1.2\lvgl\src\lv_objx/lv_spinbox.c ****  * Create a spinbox object
  48:..\..\..\lvgl\version_6.1.2\lvgl\src\lv_objx/lv_spinbox.c ****  * @param par pointer to an object, it will be the parent of the new spinbox
  49:..\..\..\lvgl\version_6.1.2\lvgl\src\lv_objx/lv_spinbox.c ****  * @param copy pointer to a spinbox object, if not NULL then the new object will be copied from it
  50:..\..\..\lvgl\version_6.1.2\lvgl\src\lv_objx/lv_spinbox.c ****  * @return pointer to the created spinbox
  51:..\..\..\lvgl\version_6.1.2\lvgl\src\lv_objx/lv_spinbox.c ****  */
  52:..\..\..\lvgl\version_6.1.2\lvgl\src\lv_objx/lv_spinbox.c **** lv_obj_t * lv_spinbox_create(lv_obj_t * par, const lv_obj_t * copy)
  53:..\..\..\lvgl\version_6.1.2\lvgl\src\lv_objx/lv_spinbox.c **** {
  54:..\..\..\lvgl\version_6.1.2\lvgl\src\lv_objx/lv_spinbox.c ****     LV_LOG_TRACE("spinbox create started");
  55:..\..\..\lvgl\version_6.1.2\lvgl\src\lv_objx/lv_spinbox.c **** 
  56:..\..\..\lvgl\version_6.1.2\lvgl\src\lv_objx/lv_spinbox.c ****     /*Create the ancestor of spinbox*/
  57:..\..\..\lvgl\version_6.1.2\lvgl\src\lv_objx/lv_spinbox.c ****     lv_obj_t * new_spinbox = lv_ta_create(par, copy);
  58:..\..\..\lvgl\version_6.1.2\lvgl\src\lv_objx/lv_spinbox.c ****     LV_ASSERT_MEM(new_spinbox);
  59:..\..\..\lvgl\version_6.1.2\lvgl\src\lv_objx/lv_spinbox.c ****     if(new_spinbox == NULL) return NULL;
  60:..\..\..\lvgl\version_6.1.2\lvgl\src\lv_objx/lv_spinbox.c **** 
  61:..\..\..\lvgl\version_6.1.2\lvgl\src\lv_objx/lv_spinbox.c ****     /*Allocate the spinbox type specific extended data*/
  62:..\..\..\lvgl\version_6.1.2\lvgl\src\lv_objx/lv_spinbox.c ****     lv_spinbox_ext_t * ext = lv_obj_allocate_ext_attr(new_spinbox, sizeof(lv_spinbox_ext_t));
  63:..\..\..\lvgl\version_6.1.2\lvgl\src\lv_objx/lv_spinbox.c ****     LV_ASSERT_MEM(ext);
  64:..\..\..\lvgl\version_6.1.2\lvgl\src\lv_objx/lv_spinbox.c ****     if(ext == NULL) return NULL;
  65:..\..\..\lvgl\version_6.1.2\lvgl\src\lv_objx/lv_spinbox.c ****     if(ancestor_signal == NULL) ancestor_signal = lv_obj_get_signal_cb(new_spinbox);
  66:..\..\..\lvgl\version_6.1.2\lvgl\src\lv_objx/lv_spinbox.c ****     if(ancestor_design == NULL) ancestor_design = lv_obj_get_design_cb(new_spinbox);
  67:..\..\..\lvgl\version_6.1.2\lvgl\src\lv_objx/lv_spinbox.c **** 
  68:..\..\..\lvgl\version_6.1.2\lvgl\src\lv_objx/lv_spinbox.c ****     /*Initialize the allocated 'ext'*/
  69:..\..\..\lvgl\version_6.1.2\lvgl\src\lv_objx/lv_spinbox.c ****     ext->value              = 0;
  70:..\..\..\lvgl\version_6.1.2\lvgl\src\lv_objx/lv_spinbox.c ****     ext->dec_point_pos      = 0;
  71:..\..\..\lvgl\version_6.1.2\lvgl\src\lv_objx/lv_spinbox.c ****     ext->digit_count        = 5;
  72:..\..\..\lvgl\version_6.1.2\lvgl\src\lv_objx/lv_spinbox.c ****     ext->digit_padding_left = 0;
  73:..\..\..\lvgl\version_6.1.2\lvgl\src\lv_objx/lv_spinbox.c ****     ext->step               = 1;
  74:..\..\..\lvgl\version_6.1.2\lvgl\src\lv_objx/lv_spinbox.c ****     ext->range_max          = 99999;
  75:..\..\..\lvgl\version_6.1.2\lvgl\src\lv_objx/lv_spinbox.c ****     ext->range_min          = -99999;
  76:..\..\..\lvgl\version_6.1.2\lvgl\src\lv_objx/lv_spinbox.c **** 
  77:..\..\..\lvgl\version_6.1.2\lvgl\src\lv_objx/lv_spinbox.c ****     lv_ta_set_cursor_type(new_spinbox, LV_CURSOR_BLOCK);
  78:..\..\..\lvgl\version_6.1.2\lvgl\src\lv_objx/lv_spinbox.c ****     lv_ta_set_one_line(new_spinbox, true);
  79:..\..\..\lvgl\version_6.1.2\lvgl\src\lv_objx/lv_spinbox.c ****     lv_ta_set_cursor_click_pos(new_spinbox, false);
  80:..\..\..\lvgl\version_6.1.2\lvgl\src\lv_objx/lv_spinbox.c **** 
  81:..\..\..\lvgl\version_6.1.2\lvgl\src\lv_objx/lv_spinbox.c ****     /*The signal and design functions are not copied so set them here*/
  82:..\..\..\lvgl\version_6.1.2\lvgl\src\lv_objx/lv_spinbox.c ****     lv_obj_set_signal_cb(new_spinbox, lv_spinbox_signal);
  83:..\..\..\lvgl\version_6.1.2\lvgl\src\lv_objx/lv_spinbox.c ****     lv_obj_set_design_cb(new_spinbox, ancestor_design); /*Leave the Text area's design function*/
  84:..\..\..\lvgl\version_6.1.2\lvgl\src\lv_objx/lv_spinbox.c **** 
  85:..\..\..\lvgl\version_6.1.2\lvgl\src\lv_objx/lv_spinbox.c ****     /*Init the new spinbox spinbox*/
  86:..\..\..\lvgl\version_6.1.2\lvgl\src\lv_objx/lv_spinbox.c ****     if(copy == NULL) {
  87:..\..\..\lvgl\version_6.1.2\lvgl\src\lv_objx/lv_spinbox.c ****         /*Set the default styles*/
ARM GAS  C:\Users\pearlstl\AppData\Local\Temp\cc98wxIE.s 			page 3


  88:..\..\..\lvgl\version_6.1.2\lvgl\src\lv_objx/lv_spinbox.c ****         lv_theme_t * th = lv_theme_get_current();
  89:..\..\..\lvgl\version_6.1.2\lvgl\src\lv_objx/lv_spinbox.c ****         if(th) {
  90:..\..\..\lvgl\version_6.1.2\lvgl\src\lv_objx/lv_spinbox.c ****             lv_spinbox_set_style(new_spinbox, LV_SPINBOX_STYLE_BG, th->style.spinbox.bg);
  91:..\..\..\lvgl\version_6.1.2\lvgl\src\lv_objx/lv_spinbox.c ****             lv_spinbox_set_style(new_spinbox, LV_SPINBOX_STYLE_CURSOR, th->style.spinbox.cursor);
  92:..\..\..\lvgl\version_6.1.2\lvgl\src\lv_objx/lv_spinbox.c ****             lv_spinbox_set_style(new_spinbox, LV_SPINBOX_STYLE_SB, th->style.spinbox.sb);
  93:..\..\..\lvgl\version_6.1.2\lvgl\src\lv_objx/lv_spinbox.c ****         }
  94:..\..\..\lvgl\version_6.1.2\lvgl\src\lv_objx/lv_spinbox.c ****     }
  95:..\..\..\lvgl\version_6.1.2\lvgl\src\lv_objx/lv_spinbox.c ****     /*Copy an existing spinbox*/
  96:..\..\..\lvgl\version_6.1.2\lvgl\src\lv_objx/lv_spinbox.c ****     else {
  97:..\..\..\lvgl\version_6.1.2\lvgl\src\lv_objx/lv_spinbox.c ****         lv_spinbox_ext_t * copy_ext = lv_obj_get_ext_attr(copy);
  98:..\..\..\lvgl\version_6.1.2\lvgl\src\lv_objx/lv_spinbox.c **** 
  99:..\..\..\lvgl\version_6.1.2\lvgl\src\lv_objx/lv_spinbox.c ****         lv_spinbox_set_value(new_spinbox, copy_ext->value);
 100:..\..\..\lvgl\version_6.1.2\lvgl\src\lv_objx/lv_spinbox.c ****         lv_spinbox_set_digit_format(new_spinbox, (uint8_t)copy_ext->digit_count, (uint8_t)copy_ext-
 101:..\..\..\lvgl\version_6.1.2\lvgl\src\lv_objx/lv_spinbox.c ****         lv_spinbox_set_range(new_spinbox, copy_ext->range_min, copy_ext->range_max);
 102:..\..\..\lvgl\version_6.1.2\lvgl\src\lv_objx/lv_spinbox.c ****         lv_spinbox_set_step(new_spinbox, copy_ext->step);
 103:..\..\..\lvgl\version_6.1.2\lvgl\src\lv_objx/lv_spinbox.c **** 
 104:..\..\..\lvgl\version_6.1.2\lvgl\src\lv_objx/lv_spinbox.c ****         /*Refresh the style with new signal function*/
 105:..\..\..\lvgl\version_6.1.2\lvgl\src\lv_objx/lv_spinbox.c ****         lv_obj_refresh_style(new_spinbox);
 106:..\..\..\lvgl\version_6.1.2\lvgl\src\lv_objx/lv_spinbox.c ****     }
 107:..\..\..\lvgl\version_6.1.2\lvgl\src\lv_objx/lv_spinbox.c **** 
 108:..\..\..\lvgl\version_6.1.2\lvgl\src\lv_objx/lv_spinbox.c ****     lv_spinbox_updatevalue(new_spinbox);
 109:..\..\..\lvgl\version_6.1.2\lvgl\src\lv_objx/lv_spinbox.c **** 
 110:..\..\..\lvgl\version_6.1.2\lvgl\src\lv_objx/lv_spinbox.c ****     LV_LOG_INFO("spinbox created");
 111:..\..\..\lvgl\version_6.1.2\lvgl\src\lv_objx/lv_spinbox.c **** 
 112:..\..\..\lvgl\version_6.1.2\lvgl\src\lv_objx/lv_spinbox.c ****     return new_spinbox;
 113:..\..\..\lvgl\version_6.1.2\lvgl\src\lv_objx/lv_spinbox.c **** }
 114:..\..\..\lvgl\version_6.1.2\lvgl\src\lv_objx/lv_spinbox.c **** 
 115:..\..\..\lvgl\version_6.1.2\lvgl\src\lv_objx/lv_spinbox.c **** /*=====================
 116:..\..\..\lvgl\version_6.1.2\lvgl\src\lv_objx/lv_spinbox.c ****  * Setter functions
 117:..\..\..\lvgl\version_6.1.2\lvgl\src\lv_objx/lv_spinbox.c ****  *====================*/
 118:..\..\..\lvgl\version_6.1.2\lvgl\src\lv_objx/lv_spinbox.c **** 
 119:..\..\..\lvgl\version_6.1.2\lvgl\src\lv_objx/lv_spinbox.c **** /**
 120:..\..\..\lvgl\version_6.1.2\lvgl\src\lv_objx/lv_spinbox.c ****  * Set spinbox value
 121:..\..\..\lvgl\version_6.1.2\lvgl\src\lv_objx/lv_spinbox.c ****  * @param spinbox pointer to spinbox
 122:..\..\..\lvgl\version_6.1.2\lvgl\src\lv_objx/lv_spinbox.c ****  * @param i value to be set
 123:..\..\..\lvgl\version_6.1.2\lvgl\src\lv_objx/lv_spinbox.c ****  */
 124:..\..\..\lvgl\version_6.1.2\lvgl\src\lv_objx/lv_spinbox.c **** void lv_spinbox_set_value(lv_obj_t * spinbox, int32_t i)
 125:..\..\..\lvgl\version_6.1.2\lvgl\src\lv_objx/lv_spinbox.c **** {
 126:..\..\..\lvgl\version_6.1.2\lvgl\src\lv_objx/lv_spinbox.c ****     LV_ASSERT_OBJ(spinbox, LV_OBJX_NAME);
 127:..\..\..\lvgl\version_6.1.2\lvgl\src\lv_objx/lv_spinbox.c **** 
 128:..\..\..\lvgl\version_6.1.2\lvgl\src\lv_objx/lv_spinbox.c ****     lv_spinbox_ext_t * ext = lv_obj_get_ext_attr(spinbox);
 129:..\..\..\lvgl\version_6.1.2\lvgl\src\lv_objx/lv_spinbox.c ****     if(ext == NULL) return;
 130:..\..\..\lvgl\version_6.1.2\lvgl\src\lv_objx/lv_spinbox.c **** 
 131:..\..\..\lvgl\version_6.1.2\lvgl\src\lv_objx/lv_spinbox.c ****     if(i > ext->range_max) i = ext->range_max;
 132:..\..\..\lvgl\version_6.1.2\lvgl\src\lv_objx/lv_spinbox.c ****     if(i < ext->range_min) i = ext->range_min;
 133:..\..\..\lvgl\version_6.1.2\lvgl\src\lv_objx/lv_spinbox.c **** 
 134:..\..\..\lvgl\version_6.1.2\lvgl\src\lv_objx/lv_spinbox.c ****     ext->value = i;
 135:..\..\..\lvgl\version_6.1.2\lvgl\src\lv_objx/lv_spinbox.c **** 
 136:..\..\..\lvgl\version_6.1.2\lvgl\src\lv_objx/lv_spinbox.c ****     lv_spinbox_updatevalue(spinbox);
 137:..\..\..\lvgl\version_6.1.2\lvgl\src\lv_objx/lv_spinbox.c **** }
 138:..\..\..\lvgl\version_6.1.2\lvgl\src\lv_objx/lv_spinbox.c **** 
 139:..\..\..\lvgl\version_6.1.2\lvgl\src\lv_objx/lv_spinbox.c **** /**
 140:..\..\..\lvgl\version_6.1.2\lvgl\src\lv_objx/lv_spinbox.c ****  * Set spinbox digit format (digit count and decimal format)
 141:..\..\..\lvgl\version_6.1.2\lvgl\src\lv_objx/lv_spinbox.c ****  * @param spinbox pointer to spinbox
 142:..\..\..\lvgl\version_6.1.2\lvgl\src\lv_objx/lv_spinbox.c ****  * @param digit_count number of digit excluding the decimal separator and the sign
 143:..\..\..\lvgl\version_6.1.2\lvgl\src\lv_objx/lv_spinbox.c ****  * @param separator_position number of digit before the decimal point. If 0, decimal point is not
 144:..\..\..\lvgl\version_6.1.2\lvgl\src\lv_objx/lv_spinbox.c ****  * shown
ARM GAS  C:\Users\pearlstl\AppData\Local\Temp\cc98wxIE.s 			page 4


 145:..\..\..\lvgl\version_6.1.2\lvgl\src\lv_objx/lv_spinbox.c ****  */
 146:..\..\..\lvgl\version_6.1.2\lvgl\src\lv_objx/lv_spinbox.c **** void lv_spinbox_set_digit_format(lv_obj_t * spinbox, uint8_t digit_count, uint8_t separator_positio
 147:..\..\..\lvgl\version_6.1.2\lvgl\src\lv_objx/lv_spinbox.c **** {
 148:..\..\..\lvgl\version_6.1.2\lvgl\src\lv_objx/lv_spinbox.c ****     LV_ASSERT_OBJ(spinbox, LV_OBJX_NAME);
 149:..\..\..\lvgl\version_6.1.2\lvgl\src\lv_objx/lv_spinbox.c **** 
 150:..\..\..\lvgl\version_6.1.2\lvgl\src\lv_objx/lv_spinbox.c ****     lv_spinbox_ext_t * ext = lv_obj_get_ext_attr(spinbox);
 151:..\..\..\lvgl\version_6.1.2\lvgl\src\lv_objx/lv_spinbox.c ****     if(ext == NULL) return;
 152:..\..\..\lvgl\version_6.1.2\lvgl\src\lv_objx/lv_spinbox.c **** 
 153:..\..\..\lvgl\version_6.1.2\lvgl\src\lv_objx/lv_spinbox.c ****     if(digit_count > LV_SPINBOX_MAX_DIGIT_COUNT) digit_count = LV_SPINBOX_MAX_DIGIT_COUNT;
 154:..\..\..\lvgl\version_6.1.2\lvgl\src\lv_objx/lv_spinbox.c **** 
 155:..\..\..\lvgl\version_6.1.2\lvgl\src\lv_objx/lv_spinbox.c ****     if(separator_position > LV_SPINBOX_MAX_DIGIT_COUNT) separator_position = LV_SPINBOX_MAX_DIGIT_C
 156:..\..\..\lvgl\version_6.1.2\lvgl\src\lv_objx/lv_spinbox.c **** 
 157:..\..\..\lvgl\version_6.1.2\lvgl\src\lv_objx/lv_spinbox.c ****     ext->digit_count   = digit_count;
 158:..\..\..\lvgl\version_6.1.2\lvgl\src\lv_objx/lv_spinbox.c ****     ext->dec_point_pos = separator_position;
 159:..\..\..\lvgl\version_6.1.2\lvgl\src\lv_objx/lv_spinbox.c **** 
 160:..\..\..\lvgl\version_6.1.2\lvgl\src\lv_objx/lv_spinbox.c ****     lv_spinbox_updatevalue(spinbox);
 161:..\..\..\lvgl\version_6.1.2\lvgl\src\lv_objx/lv_spinbox.c **** }
 162:..\..\..\lvgl\version_6.1.2\lvgl\src\lv_objx/lv_spinbox.c **** 
 163:..\..\..\lvgl\version_6.1.2\lvgl\src\lv_objx/lv_spinbox.c **** /**
 164:..\..\..\lvgl\version_6.1.2\lvgl\src\lv_objx/lv_spinbox.c ****  * Set spinbox step
 165:..\..\..\lvgl\version_6.1.2\lvgl\src\lv_objx/lv_spinbox.c ****  * @param spinbox pointer to spinbox
 166:..\..\..\lvgl\version_6.1.2\lvgl\src\lv_objx/lv_spinbox.c ****  * @param step steps on increment/decrement
 167:..\..\..\lvgl\version_6.1.2\lvgl\src\lv_objx/lv_spinbox.c ****  */
 168:..\..\..\lvgl\version_6.1.2\lvgl\src\lv_objx/lv_spinbox.c **** void lv_spinbox_set_step(lv_obj_t * spinbox, uint32_t step)
 169:..\..\..\lvgl\version_6.1.2\lvgl\src\lv_objx/lv_spinbox.c **** {
 170:..\..\..\lvgl\version_6.1.2\lvgl\src\lv_objx/lv_spinbox.c ****     LV_ASSERT_OBJ(spinbox, LV_OBJX_NAME);
 171:..\..\..\lvgl\version_6.1.2\lvgl\src\lv_objx/lv_spinbox.c **** 
 172:..\..\..\lvgl\version_6.1.2\lvgl\src\lv_objx/lv_spinbox.c ****     lv_spinbox_ext_t * ext = lv_obj_get_ext_attr(spinbox);
 173:..\..\..\lvgl\version_6.1.2\lvgl\src\lv_objx/lv_spinbox.c ****     if(ext == NULL) return;
 174:..\..\..\lvgl\version_6.1.2\lvgl\src\lv_objx/lv_spinbox.c **** 
 175:..\..\..\lvgl\version_6.1.2\lvgl\src\lv_objx/lv_spinbox.c ****     ext->step = step;
 176:..\..\..\lvgl\version_6.1.2\lvgl\src\lv_objx/lv_spinbox.c **** }
 177:..\..\..\lvgl\version_6.1.2\lvgl\src\lv_objx/lv_spinbox.c **** 
 178:..\..\..\lvgl\version_6.1.2\lvgl\src\lv_objx/lv_spinbox.c **** /**
 179:..\..\..\lvgl\version_6.1.2\lvgl\src\lv_objx/lv_spinbox.c ****  * Set spinbox value range
 180:..\..\..\lvgl\version_6.1.2\lvgl\src\lv_objx/lv_spinbox.c ****  * @param spinbox pointer to spinbox
 181:..\..\..\lvgl\version_6.1.2\lvgl\src\lv_objx/lv_spinbox.c ****  * @param range_min maximum value, inclusive
 182:..\..\..\lvgl\version_6.1.2\lvgl\src\lv_objx/lv_spinbox.c ****  * @param range_max minimum value, inclusive
 183:..\..\..\lvgl\version_6.1.2\lvgl\src\lv_objx/lv_spinbox.c ****  */
 184:..\..\..\lvgl\version_6.1.2\lvgl\src\lv_objx/lv_spinbox.c **** void lv_spinbox_set_range(lv_obj_t * spinbox, int32_t range_min, int32_t range_max)
 185:..\..\..\lvgl\version_6.1.2\lvgl\src\lv_objx/lv_spinbox.c **** {
 186:..\..\..\lvgl\version_6.1.2\lvgl\src\lv_objx/lv_spinbox.c ****     LV_ASSERT_OBJ(spinbox, LV_OBJX_NAME);
 187:..\..\..\lvgl\version_6.1.2\lvgl\src\lv_objx/lv_spinbox.c **** 
 188:..\..\..\lvgl\version_6.1.2\lvgl\src\lv_objx/lv_spinbox.c ****     lv_spinbox_ext_t * ext = lv_obj_get_ext_attr(spinbox);
 189:..\..\..\lvgl\version_6.1.2\lvgl\src\lv_objx/lv_spinbox.c ****     if(ext == NULL) return;
 190:..\..\..\lvgl\version_6.1.2\lvgl\src\lv_objx/lv_spinbox.c **** 
 191:..\..\..\lvgl\version_6.1.2\lvgl\src\lv_objx/lv_spinbox.c ****     ext->range_max = range_max;
 192:..\..\..\lvgl\version_6.1.2\lvgl\src\lv_objx/lv_spinbox.c ****     ext->range_min = range_min;
 193:..\..\..\lvgl\version_6.1.2\lvgl\src\lv_objx/lv_spinbox.c **** 
 194:..\..\..\lvgl\version_6.1.2\lvgl\src\lv_objx/lv_spinbox.c ****     if(ext->value > ext->range_max) {
 195:..\..\..\lvgl\version_6.1.2\lvgl\src\lv_objx/lv_spinbox.c ****         ext->value = ext->range_max;
 196:..\..\..\lvgl\version_6.1.2\lvgl\src\lv_objx/lv_spinbox.c ****         lv_obj_invalidate(spinbox);
 197:..\..\..\lvgl\version_6.1.2\lvgl\src\lv_objx/lv_spinbox.c ****     }
 198:..\..\..\lvgl\version_6.1.2\lvgl\src\lv_objx/lv_spinbox.c ****     if(ext->value < ext->range_min) {
 199:..\..\..\lvgl\version_6.1.2\lvgl\src\lv_objx/lv_spinbox.c ****         ext->value = ext->range_min;
 200:..\..\..\lvgl\version_6.1.2\lvgl\src\lv_objx/lv_spinbox.c ****         lv_obj_invalidate(spinbox);
 201:..\..\..\lvgl\version_6.1.2\lvgl\src\lv_objx/lv_spinbox.c ****     }
ARM GAS  C:\Users\pearlstl\AppData\Local\Temp\cc98wxIE.s 			page 5


 202:..\..\..\lvgl\version_6.1.2\lvgl\src\lv_objx/lv_spinbox.c **** }
 203:..\..\..\lvgl\version_6.1.2\lvgl\src\lv_objx/lv_spinbox.c **** 
 204:..\..\..\lvgl\version_6.1.2\lvgl\src\lv_objx/lv_spinbox.c **** /**
 205:..\..\..\lvgl\version_6.1.2\lvgl\src\lv_objx/lv_spinbox.c ****  * Set spinbox left padding in digits count (added between sign and first digit)
 206:..\..\..\lvgl\version_6.1.2\lvgl\src\lv_objx/lv_spinbox.c ****  * @param spinbox pointer to spinbox
 207:..\..\..\lvgl\version_6.1.2\lvgl\src\lv_objx/lv_spinbox.c ****  * @param cb Callback function called on value change event
 208:..\..\..\lvgl\version_6.1.2\lvgl\src\lv_objx/lv_spinbox.c ****  */
 209:..\..\..\lvgl\version_6.1.2\lvgl\src\lv_objx/lv_spinbox.c **** void lv_spinbox_set_padding_left(lv_obj_t * spinbox, uint8_t padding)
 210:..\..\..\lvgl\version_6.1.2\lvgl\src\lv_objx/lv_spinbox.c **** {
 211:..\..\..\lvgl\version_6.1.2\lvgl\src\lv_objx/lv_spinbox.c ****     LV_ASSERT_OBJ(spinbox, LV_OBJX_NAME);
 212:..\..\..\lvgl\version_6.1.2\lvgl\src\lv_objx/lv_spinbox.c **** 
 213:..\..\..\lvgl\version_6.1.2\lvgl\src\lv_objx/lv_spinbox.c ****     lv_spinbox_ext_t * ext  = lv_obj_get_ext_attr(spinbox);
 214:..\..\..\lvgl\version_6.1.2\lvgl\src\lv_objx/lv_spinbox.c ****     ext->digit_padding_left = padding;
 215:..\..\..\lvgl\version_6.1.2\lvgl\src\lv_objx/lv_spinbox.c ****     lv_spinbox_updatevalue(spinbox);
 216:..\..\..\lvgl\version_6.1.2\lvgl\src\lv_objx/lv_spinbox.c **** }
 217:..\..\..\lvgl\version_6.1.2\lvgl\src\lv_objx/lv_spinbox.c **** 
 218:..\..\..\lvgl\version_6.1.2\lvgl\src\lv_objx/lv_spinbox.c **** /*=====================
 219:..\..\..\lvgl\version_6.1.2\lvgl\src\lv_objx/lv_spinbox.c ****  * Getter functions
 220:..\..\..\lvgl\version_6.1.2\lvgl\src\lv_objx/lv_spinbox.c ****  *====================*/
 221:..\..\..\lvgl\version_6.1.2\lvgl\src\lv_objx/lv_spinbox.c **** 
 222:..\..\..\lvgl\version_6.1.2\lvgl\src\lv_objx/lv_spinbox.c **** /**
 223:..\..\..\lvgl\version_6.1.2\lvgl\src\lv_objx/lv_spinbox.c ****  * Get the spinbox numeral value (user has to convert to float according to its digit format)
 224:..\..\..\lvgl\version_6.1.2\lvgl\src\lv_objx/lv_spinbox.c ****  * @param spinbox pointer to spinbox
 225:..\..\..\lvgl\version_6.1.2\lvgl\src\lv_objx/lv_spinbox.c ****  * @return value integer value of the spinbox
 226:..\..\..\lvgl\version_6.1.2\lvgl\src\lv_objx/lv_spinbox.c ****  */
 227:..\..\..\lvgl\version_6.1.2\lvgl\src\lv_objx/lv_spinbox.c **** int32_t lv_spinbox_get_value(lv_obj_t * spinbox)
 228:..\..\..\lvgl\version_6.1.2\lvgl\src\lv_objx/lv_spinbox.c **** {
 229:..\..\..\lvgl\version_6.1.2\lvgl\src\lv_objx/lv_spinbox.c ****     LV_ASSERT_OBJ(spinbox, LV_OBJX_NAME);
 230:..\..\..\lvgl\version_6.1.2\lvgl\src\lv_objx/lv_spinbox.c **** 
 231:..\..\..\lvgl\version_6.1.2\lvgl\src\lv_objx/lv_spinbox.c ****     lv_spinbox_ext_t * ext = lv_obj_get_ext_attr(spinbox);
 232:..\..\..\lvgl\version_6.1.2\lvgl\src\lv_objx/lv_spinbox.c **** 
 233:..\..\..\lvgl\version_6.1.2\lvgl\src\lv_objx/lv_spinbox.c ****     return ext->value;
 234:..\..\..\lvgl\version_6.1.2\lvgl\src\lv_objx/lv_spinbox.c **** }
 235:..\..\..\lvgl\version_6.1.2\lvgl\src\lv_objx/lv_spinbox.c **** 
 236:..\..\..\lvgl\version_6.1.2\lvgl\src\lv_objx/lv_spinbox.c **** /*=====================
 237:..\..\..\lvgl\version_6.1.2\lvgl\src\lv_objx/lv_spinbox.c ****  * Other functions
 238:..\..\..\lvgl\version_6.1.2\lvgl\src\lv_objx/lv_spinbox.c ****  *====================*/
 239:..\..\..\lvgl\version_6.1.2\lvgl\src\lv_objx/lv_spinbox.c **** 
 240:..\..\..\lvgl\version_6.1.2\lvgl\src\lv_objx/lv_spinbox.c **** /**
 241:..\..\..\lvgl\version_6.1.2\lvgl\src\lv_objx/lv_spinbox.c ****  * Select next lower digit for edition
 242:..\..\..\lvgl\version_6.1.2\lvgl\src\lv_objx/lv_spinbox.c ****  * @param spinbox pointer to spinbox
 243:..\..\..\lvgl\version_6.1.2\lvgl\src\lv_objx/lv_spinbox.c ****  */
 244:..\..\..\lvgl\version_6.1.2\lvgl\src\lv_objx/lv_spinbox.c **** void lv_spinbox_step_next(lv_obj_t * spinbox)
 245:..\..\..\lvgl\version_6.1.2\lvgl\src\lv_objx/lv_spinbox.c **** {
 246:..\..\..\lvgl\version_6.1.2\lvgl\src\lv_objx/lv_spinbox.c ****     LV_ASSERT_OBJ(spinbox, LV_OBJX_NAME);
 247:..\..\..\lvgl\version_6.1.2\lvgl\src\lv_objx/lv_spinbox.c **** 
 248:..\..\..\lvgl\version_6.1.2\lvgl\src\lv_objx/lv_spinbox.c ****     lv_spinbox_ext_t * ext = lv_obj_get_ext_attr(spinbox);
 249:..\..\..\lvgl\version_6.1.2\lvgl\src\lv_objx/lv_spinbox.c **** 
 250:..\..\..\lvgl\version_6.1.2\lvgl\src\lv_objx/lv_spinbox.c ****     int32_t new_step = ext->step / 10;
 251:..\..\..\lvgl\version_6.1.2\lvgl\src\lv_objx/lv_spinbox.c ****     if((new_step) > 0)
 252:..\..\..\lvgl\version_6.1.2\lvgl\src\lv_objx/lv_spinbox.c ****         ext->step = new_step;
 253:..\..\..\lvgl\version_6.1.2\lvgl\src\lv_objx/lv_spinbox.c ****     else
 254:..\..\..\lvgl\version_6.1.2\lvgl\src\lv_objx/lv_spinbox.c ****         ext->step = 1;
 255:..\..\..\lvgl\version_6.1.2\lvgl\src\lv_objx/lv_spinbox.c **** 
 256:..\..\..\lvgl\version_6.1.2\lvgl\src\lv_objx/lv_spinbox.c ****     lv_spinbox_updatevalue(spinbox);
 257:..\..\..\lvgl\version_6.1.2\lvgl\src\lv_objx/lv_spinbox.c **** }
 258:..\..\..\lvgl\version_6.1.2\lvgl\src\lv_objx/lv_spinbox.c **** 
ARM GAS  C:\Users\pearlstl\AppData\Local\Temp\cc98wxIE.s 			page 6


 259:..\..\..\lvgl\version_6.1.2\lvgl\src\lv_objx/lv_spinbox.c **** /**
 260:..\..\..\lvgl\version_6.1.2\lvgl\src\lv_objx/lv_spinbox.c ****  * Select next higher digit for edition
 261:..\..\..\lvgl\version_6.1.2\lvgl\src\lv_objx/lv_spinbox.c ****  * @param spinbox pointer to spinbox
 262:..\..\..\lvgl\version_6.1.2\lvgl\src\lv_objx/lv_spinbox.c ****  */
 263:..\..\..\lvgl\version_6.1.2\lvgl\src\lv_objx/lv_spinbox.c **** void lv_spinbox_step_prev(lv_obj_t * spinbox)
 264:..\..\..\lvgl\version_6.1.2\lvgl\src\lv_objx/lv_spinbox.c **** {
 265:..\..\..\lvgl\version_6.1.2\lvgl\src\lv_objx/lv_spinbox.c ****     LV_ASSERT_OBJ(spinbox, LV_OBJX_NAME);
 266:..\..\..\lvgl\version_6.1.2\lvgl\src\lv_objx/lv_spinbox.c **** 
 267:..\..\..\lvgl\version_6.1.2\lvgl\src\lv_objx/lv_spinbox.c ****     lv_spinbox_ext_t * ext = lv_obj_get_ext_attr(spinbox);
 268:..\..\..\lvgl\version_6.1.2\lvgl\src\lv_objx/lv_spinbox.c ****     int32_t step_limit;
 269:..\..\..\lvgl\version_6.1.2\lvgl\src\lv_objx/lv_spinbox.c ****     step_limit       = LV_MATH_MAX(ext->range_max, (ext->range_min < 0 ? (-ext->range_min) : ext->r
 270:..\..\..\lvgl\version_6.1.2\lvgl\src\lv_objx/lv_spinbox.c ****     int32_t new_step = ext->step * 10;
 271:..\..\..\lvgl\version_6.1.2\lvgl\src\lv_objx/lv_spinbox.c ****     if(new_step <= step_limit) ext->step = new_step;
 272:..\..\..\lvgl\version_6.1.2\lvgl\src\lv_objx/lv_spinbox.c **** 
 273:..\..\..\lvgl\version_6.1.2\lvgl\src\lv_objx/lv_spinbox.c ****     lv_spinbox_updatevalue(spinbox);
 274:..\..\..\lvgl\version_6.1.2\lvgl\src\lv_objx/lv_spinbox.c **** }
 275:..\..\..\lvgl\version_6.1.2\lvgl\src\lv_objx/lv_spinbox.c **** 
 276:..\..\..\lvgl\version_6.1.2\lvgl\src\lv_objx/lv_spinbox.c **** /**
 277:..\..\..\lvgl\version_6.1.2\lvgl\src\lv_objx/lv_spinbox.c ****  * Increment spinbox value by one step
 278:..\..\..\lvgl\version_6.1.2\lvgl\src\lv_objx/lv_spinbox.c ****  * @param spinbox pointer to spinbox
 279:..\..\..\lvgl\version_6.1.2\lvgl\src\lv_objx/lv_spinbox.c ****  */
 280:..\..\..\lvgl\version_6.1.2\lvgl\src\lv_objx/lv_spinbox.c **** void lv_spinbox_increment(lv_obj_t * spinbox)
 281:..\..\..\lvgl\version_6.1.2\lvgl\src\lv_objx/lv_spinbox.c **** {
 282:..\..\..\lvgl\version_6.1.2\lvgl\src\lv_objx/lv_spinbox.c ****     LV_ASSERT_OBJ(spinbox, LV_OBJX_NAME);
 283:..\..\..\lvgl\version_6.1.2\lvgl\src\lv_objx/lv_spinbox.c **** 
 284:..\..\..\lvgl\version_6.1.2\lvgl\src\lv_objx/lv_spinbox.c ****     lv_spinbox_ext_t * ext = lv_obj_get_ext_attr(spinbox);
 285:..\..\..\lvgl\version_6.1.2\lvgl\src\lv_objx/lv_spinbox.c **** 
 286:..\..\..\lvgl\version_6.1.2\lvgl\src\lv_objx/lv_spinbox.c ****     if(ext->value + ext->step <= ext->range_max) {
 287:..\..\..\lvgl\version_6.1.2\lvgl\src\lv_objx/lv_spinbox.c ****         /*Special mode when zero crossing*/
 288:..\..\..\lvgl\version_6.1.2\lvgl\src\lv_objx/lv_spinbox.c ****         if((ext->value + ext->step) > 0 && ext->value < 0) ext->value = -ext->value;
 289:..\..\..\lvgl\version_6.1.2\lvgl\src\lv_objx/lv_spinbox.c ****         ext->value += ext->step;
 290:..\..\..\lvgl\version_6.1.2\lvgl\src\lv_objx/lv_spinbox.c **** 
 291:..\..\..\lvgl\version_6.1.2\lvgl\src\lv_objx/lv_spinbox.c ****     } else {
 292:..\..\..\lvgl\version_6.1.2\lvgl\src\lv_objx/lv_spinbox.c ****         ext->value = ext->range_max;
 293:..\..\..\lvgl\version_6.1.2\lvgl\src\lv_objx/lv_spinbox.c ****     }
 294:..\..\..\lvgl\version_6.1.2\lvgl\src\lv_objx/lv_spinbox.c **** 
 295:..\..\..\lvgl\version_6.1.2\lvgl\src\lv_objx/lv_spinbox.c ****     lv_spinbox_updatevalue(spinbox);
 296:..\..\..\lvgl\version_6.1.2\lvgl\src\lv_objx/lv_spinbox.c **** }
 297:..\..\..\lvgl\version_6.1.2\lvgl\src\lv_objx/lv_spinbox.c **** 
 298:..\..\..\lvgl\version_6.1.2\lvgl\src\lv_objx/lv_spinbox.c **** /**
 299:..\..\..\lvgl\version_6.1.2\lvgl\src\lv_objx/lv_spinbox.c ****  * Decrement spinbox value by one step
 300:..\..\..\lvgl\version_6.1.2\lvgl\src\lv_objx/lv_spinbox.c ****  * @param spinbox pointer to spinbox
 301:..\..\..\lvgl\version_6.1.2\lvgl\src\lv_objx/lv_spinbox.c ****  */
 302:..\..\..\lvgl\version_6.1.2\lvgl\src\lv_objx/lv_spinbox.c **** void lv_spinbox_decrement(lv_obj_t * spinbox)
 303:..\..\..\lvgl\version_6.1.2\lvgl\src\lv_objx/lv_spinbox.c **** {
 304:..\..\..\lvgl\version_6.1.2\lvgl\src\lv_objx/lv_spinbox.c ****     LV_ASSERT_OBJ(spinbox, LV_OBJX_NAME);
 305:..\..\..\lvgl\version_6.1.2\lvgl\src\lv_objx/lv_spinbox.c **** 
 306:..\..\..\lvgl\version_6.1.2\lvgl\src\lv_objx/lv_spinbox.c ****     lv_spinbox_ext_t * ext = lv_obj_get_ext_attr(spinbox);
 307:..\..\..\lvgl\version_6.1.2\lvgl\src\lv_objx/lv_spinbox.c **** 
 308:..\..\..\lvgl\version_6.1.2\lvgl\src\lv_objx/lv_spinbox.c ****     if(ext->value - ext->step >= ext->range_min) {
 309:..\..\..\lvgl\version_6.1.2\lvgl\src\lv_objx/lv_spinbox.c ****         /*Special mode when zero crossing*/
 310:..\..\..\lvgl\version_6.1.2\lvgl\src\lv_objx/lv_spinbox.c ****         if((ext->value - ext->step) < 0 && ext->value > 0) ext->value = -ext->value;
 311:..\..\..\lvgl\version_6.1.2\lvgl\src\lv_objx/lv_spinbox.c ****         ext->value -= ext->step;
 312:..\..\..\lvgl\version_6.1.2\lvgl\src\lv_objx/lv_spinbox.c ****     } else {
 313:..\..\..\lvgl\version_6.1.2\lvgl\src\lv_objx/lv_spinbox.c ****         ext->value = ext->range_min;
 314:..\..\..\lvgl\version_6.1.2\lvgl\src\lv_objx/lv_spinbox.c ****     }
 315:..\..\..\lvgl\version_6.1.2\lvgl\src\lv_objx/lv_spinbox.c **** 
ARM GAS  C:\Users\pearlstl\AppData\Local\Temp\cc98wxIE.s 			page 7


 316:..\..\..\lvgl\version_6.1.2\lvgl\src\lv_objx/lv_spinbox.c ****     lv_spinbox_updatevalue(spinbox);
 317:..\..\..\lvgl\version_6.1.2\lvgl\src\lv_objx/lv_spinbox.c **** }
 318:..\..\..\lvgl\version_6.1.2\lvgl\src\lv_objx/lv_spinbox.c **** 
 319:..\..\..\lvgl\version_6.1.2\lvgl\src\lv_objx/lv_spinbox.c **** /**********************
 320:..\..\..\lvgl\version_6.1.2\lvgl\src\lv_objx/lv_spinbox.c ****  *   STATIC FUNCTIONS
 321:..\..\..\lvgl\version_6.1.2\lvgl\src\lv_objx/lv_spinbox.c ****  **********************/
 322:..\..\..\lvgl\version_6.1.2\lvgl\src\lv_objx/lv_spinbox.c **** 
 323:..\..\..\lvgl\version_6.1.2\lvgl\src\lv_objx/lv_spinbox.c **** /**
 324:..\..\..\lvgl\version_6.1.2\lvgl\src\lv_objx/lv_spinbox.c ****  * Signal function of the spinbox
 325:..\..\..\lvgl\version_6.1.2\lvgl\src\lv_objx/lv_spinbox.c ****  * @param spinbox pointer to a spinbox object
 326:..\..\..\lvgl\version_6.1.2\lvgl\src\lv_objx/lv_spinbox.c ****  * @param sign a signal type from lv_signal_t enum
 327:..\..\..\lvgl\version_6.1.2\lvgl\src\lv_objx/lv_spinbox.c ****  * @param param pointer to a signal specific variable
 328:..\..\..\lvgl\version_6.1.2\lvgl\src\lv_objx/lv_spinbox.c ****  * @return LV_RES_OK: the object is not deleted in the function; LV_RES_INV: the object is deleted
 329:..\..\..\lvgl\version_6.1.2\lvgl\src\lv_objx/lv_spinbox.c ****  */
 330:..\..\..\lvgl\version_6.1.2\lvgl\src\lv_objx/lv_spinbox.c **** static lv_res_t lv_spinbox_signal(lv_obj_t * spinbox, lv_signal_t sign, void * param)
 331:..\..\..\lvgl\version_6.1.2\lvgl\src\lv_objx/lv_spinbox.c **** {
 332:..\..\..\lvgl\version_6.1.2\lvgl\src\lv_objx/lv_spinbox.c **** 
 333:..\..\..\lvgl\version_6.1.2\lvgl\src\lv_objx/lv_spinbox.c ****     lv_res_t res = LV_RES_OK;
 334:..\..\..\lvgl\version_6.1.2\lvgl\src\lv_objx/lv_spinbox.c **** 
 335:..\..\..\lvgl\version_6.1.2\lvgl\src\lv_objx/lv_spinbox.c ****     /* Include the ancient signal function */
 336:..\..\..\lvgl\version_6.1.2\lvgl\src\lv_objx/lv_spinbox.c ****     if(sign != LV_SIGNAL_CONTROL) {
 337:..\..\..\lvgl\version_6.1.2\lvgl\src\lv_objx/lv_spinbox.c ****         res = ancestor_signal(spinbox, sign, param);
 338:..\..\..\lvgl\version_6.1.2\lvgl\src\lv_objx/lv_spinbox.c ****         if(res != LV_RES_OK) return res;
 339:..\..\..\lvgl\version_6.1.2\lvgl\src\lv_objx/lv_spinbox.c ****     }
 340:..\..\..\lvgl\version_6.1.2\lvgl\src\lv_objx/lv_spinbox.c ****     if(sign == LV_SIGNAL_GET_TYPE) return lv_obj_handle_get_type_signal(param, LV_OBJX_NAME);
 341:..\..\..\lvgl\version_6.1.2\lvgl\src\lv_objx/lv_spinbox.c **** 
 342:..\..\..\lvgl\version_6.1.2\lvgl\src\lv_objx/lv_spinbox.c **** 
 343:..\..\..\lvgl\version_6.1.2\lvgl\src\lv_objx/lv_spinbox.c ****     lv_spinbox_ext_t * ext = lv_obj_get_ext_attr(spinbox);
 344:..\..\..\lvgl\version_6.1.2\lvgl\src\lv_objx/lv_spinbox.c ****     if(sign == LV_SIGNAL_CLEANUP) {
 345:..\..\..\lvgl\version_6.1.2\lvgl\src\lv_objx/lv_spinbox.c ****         /*Nothing to cleanup. (No dynamically allocated memory in 'ext')*/
 346:..\..\..\lvgl\version_6.1.2\lvgl\src\lv_objx/lv_spinbox.c ****     } else if(sign == LV_SIGNAL_GET_TYPE) {
 347:..\..\..\lvgl\version_6.1.2\lvgl\src\lv_objx/lv_spinbox.c ****         lv_obj_type_t * buf = param;
 348:..\..\..\lvgl\version_6.1.2\lvgl\src\lv_objx/lv_spinbox.c ****         uint8_t i;
 349:..\..\..\lvgl\version_6.1.2\lvgl\src\lv_objx/lv_spinbox.c ****         for(i = 0; i < LV_MAX_ANCESTOR_NUM - 1; i++) { /*Find the last set data*/
 350:..\..\..\lvgl\version_6.1.2\lvgl\src\lv_objx/lv_spinbox.c ****             if(buf->type[i] == NULL) break;
 351:..\..\..\lvgl\version_6.1.2\lvgl\src\lv_objx/lv_spinbox.c ****         }
 352:..\..\..\lvgl\version_6.1.2\lvgl\src\lv_objx/lv_spinbox.c ****         buf->type[i] = "lv_spinbox";
 353:..\..\..\lvgl\version_6.1.2\lvgl\src\lv_objx/lv_spinbox.c ****     } else if(sign == LV_SIGNAL_RELEASED) {
 354:..\..\..\lvgl\version_6.1.2\lvgl\src\lv_objx/lv_spinbox.c ****         /*If released with an ENCODER then move to the next digit*/
 355:..\..\..\lvgl\version_6.1.2\lvgl\src\lv_objx/lv_spinbox.c **** #if LV_USE_GROUP
 356:..\..\..\lvgl\version_6.1.2\lvgl\src\lv_objx/lv_spinbox.c ****         lv_indev_t * indev = lv_indev_get_act();
 357:..\..\..\lvgl\version_6.1.2\lvgl\src\lv_objx/lv_spinbox.c ****         if(lv_indev_get_type(indev) == LV_INDEV_TYPE_ENCODER) {
 358:..\..\..\lvgl\version_6.1.2\lvgl\src\lv_objx/lv_spinbox.c ****             if(lv_group_get_editing(lv_obj_get_group(spinbox))) {
 359:..\..\..\lvgl\version_6.1.2\lvgl\src\lv_objx/lv_spinbox.c ****                 if(ext->step > 1) {
 360:..\..\..\lvgl\version_6.1.2\lvgl\src\lv_objx/lv_spinbox.c ****                     lv_spinbox_step_next(spinbox);
 361:..\..\..\lvgl\version_6.1.2\lvgl\src\lv_objx/lv_spinbox.c ****                 } else {
 362:..\..\..\lvgl\version_6.1.2\lvgl\src\lv_objx/lv_spinbox.c ****                     /*Restart from the MSB*/
 363:..\..\..\lvgl\version_6.1.2\lvgl\src\lv_objx/lv_spinbox.c ****                     ext->step = 1;
 364:..\..\..\lvgl\version_6.1.2\lvgl\src\lv_objx/lv_spinbox.c ****                     uint32_t i;
 365:..\..\..\lvgl\version_6.1.2\lvgl\src\lv_objx/lv_spinbox.c ****                     for(i = 0; i < ext->digit_count; i++) {
 366:..\..\..\lvgl\version_6.1.2\lvgl\src\lv_objx/lv_spinbox.c ****                         int32_t new_step = ext->step * 10;
 367:..\..\..\lvgl\version_6.1.2\lvgl\src\lv_objx/lv_spinbox.c ****                         if(new_step >= ext->range_max) break;
 368:..\..\..\lvgl\version_6.1.2\lvgl\src\lv_objx/lv_spinbox.c ****                         ext->step = new_step;
 369:..\..\..\lvgl\version_6.1.2\lvgl\src\lv_objx/lv_spinbox.c ****                     }
 370:..\..\..\lvgl\version_6.1.2\lvgl\src\lv_objx/lv_spinbox.c ****                     lv_spinbox_step_prev(spinbox);
 371:..\..\..\lvgl\version_6.1.2\lvgl\src\lv_objx/lv_spinbox.c ****                 }
 372:..\..\..\lvgl\version_6.1.2\lvgl\src\lv_objx/lv_spinbox.c ****             }
ARM GAS  C:\Users\pearlstl\AppData\Local\Temp\cc98wxIE.s 			page 8


 373:..\..\..\lvgl\version_6.1.2\lvgl\src\lv_objx/lv_spinbox.c ****         }
 374:..\..\..\lvgl\version_6.1.2\lvgl\src\lv_objx/lv_spinbox.c **** #endif
 375:..\..\..\lvgl\version_6.1.2\lvgl\src\lv_objx/lv_spinbox.c ****     } else if(sign == LV_SIGNAL_CONTROL) {
 376:..\..\..\lvgl\version_6.1.2\lvgl\src\lv_objx/lv_spinbox.c ****         lv_indev_type_t indev_type = lv_indev_get_type(lv_indev_get_act());
 377:..\..\..\lvgl\version_6.1.2\lvgl\src\lv_objx/lv_spinbox.c **** 
 378:..\..\..\lvgl\version_6.1.2\lvgl\src\lv_objx/lv_spinbox.c ****         uint32_t c = *((uint32_t *)param); /*uint32_t because can be UTF-8*/
 379:..\..\..\lvgl\version_6.1.2\lvgl\src\lv_objx/lv_spinbox.c ****         if(c == LV_KEY_RIGHT) {
 380:..\..\..\lvgl\version_6.1.2\lvgl\src\lv_objx/lv_spinbox.c ****             if(indev_type == LV_INDEV_TYPE_ENCODER)
 381:..\..\..\lvgl\version_6.1.2\lvgl\src\lv_objx/lv_spinbox.c ****                 lv_spinbox_increment(spinbox);
 382:..\..\..\lvgl\version_6.1.2\lvgl\src\lv_objx/lv_spinbox.c ****             else
 383:..\..\..\lvgl\version_6.1.2\lvgl\src\lv_objx/lv_spinbox.c ****                 lv_spinbox_step_next(spinbox);
 384:..\..\..\lvgl\version_6.1.2\lvgl\src\lv_objx/lv_spinbox.c ****         } else if(c == LV_KEY_LEFT) {
 385:..\..\..\lvgl\version_6.1.2\lvgl\src\lv_objx/lv_spinbox.c ****             if(indev_type == LV_INDEV_TYPE_ENCODER)
 386:..\..\..\lvgl\version_6.1.2\lvgl\src\lv_objx/lv_spinbox.c ****                 lv_spinbox_decrement(spinbox);
 387:..\..\..\lvgl\version_6.1.2\lvgl\src\lv_objx/lv_spinbox.c ****             else
 388:..\..\..\lvgl\version_6.1.2\lvgl\src\lv_objx/lv_spinbox.c ****                 lv_spinbox_step_prev(spinbox);
 389:..\..\..\lvgl\version_6.1.2\lvgl\src\lv_objx/lv_spinbox.c ****         } else if(c == LV_KEY_UP) {
 390:..\..\..\lvgl\version_6.1.2\lvgl\src\lv_objx/lv_spinbox.c ****             lv_spinbox_increment(spinbox);
 391:..\..\..\lvgl\version_6.1.2\lvgl\src\lv_objx/lv_spinbox.c ****         } else if(c == LV_KEY_DOWN) {
 392:..\..\..\lvgl\version_6.1.2\lvgl\src\lv_objx/lv_spinbox.c ****             lv_spinbox_decrement(spinbox);
 393:..\..\..\lvgl\version_6.1.2\lvgl\src\lv_objx/lv_spinbox.c ****         } else {
 394:..\..\..\lvgl\version_6.1.2\lvgl\src\lv_objx/lv_spinbox.c ****             lv_ta_add_char(spinbox, c);
 395:..\..\..\lvgl\version_6.1.2\lvgl\src\lv_objx/lv_spinbox.c ****         }
 396:..\..\..\lvgl\version_6.1.2\lvgl\src\lv_objx/lv_spinbox.c ****     }
 397:..\..\..\lvgl\version_6.1.2\lvgl\src\lv_objx/lv_spinbox.c **** 
 398:..\..\..\lvgl\version_6.1.2\lvgl\src\lv_objx/lv_spinbox.c ****     return res;
 399:..\..\..\lvgl\version_6.1.2\lvgl\src\lv_objx/lv_spinbox.c **** }
 400:..\..\..\lvgl\version_6.1.2\lvgl\src\lv_objx/lv_spinbox.c **** 
 401:..\..\..\lvgl\version_6.1.2\lvgl\src\lv_objx/lv_spinbox.c **** static void lv_spinbox_updatevalue(lv_obj_t * spinbox)
 402:..\..\..\lvgl\version_6.1.2\lvgl\src\lv_objx/lv_spinbox.c **** {
  28              		.loc 1 402 0
  29              		.cfi_startproc
  30              		@ args = 0, pretend = 0, frame = 88
  31              		@ frame_needed = 0, uses_anonymous_args = 0
  32              	.LVL0:
  33 0000 2DE9F047 		push	{r4, r5, r6, r7, r8, r9, r10, lr}
  34              		.cfi_def_cfa_offset 32
  35              		.cfi_offset 4, -32
  36              		.cfi_offset 5, -28
  37              		.cfi_offset 6, -24
  38              		.cfi_offset 7, -20
  39              		.cfi_offset 8, -16
  40              		.cfi_offset 9, -12
  41              		.cfi_offset 10, -8
  42              		.cfi_offset 14, -4
  43 0004 96B0     		sub	sp, sp, #88
  44              		.cfi_def_cfa_offset 120
  45              		.loc 1 402 0
  46 0006 8046     		mov	r8, r0
 403:..\..\..\lvgl\version_6.1.2\lvgl\src\lv_objx/lv_spinbox.c ****     lv_spinbox_ext_t * ext = lv_obj_get_ext_attr(spinbox);
  47              		.loc 1 403 0
  48 0008 FFF7FEFF 		bl	lv_obj_get_ext_attr
  49              	.LVL1:
 404:..\..\..\lvgl\version_6.1.2\lvgl\src\lv_objx/lv_spinbox.c **** 
 405:..\..\..\lvgl\version_6.1.2\lvgl\src\lv_objx/lv_spinbox.c ****     char buf[LV_SPINBOX_MAX_DIGIT_COUNT + 8];
 406:..\..\..\lvgl\version_6.1.2\lvgl\src\lv_objx/lv_spinbox.c ****     memset(buf, 0, sizeof(buf));
 407:..\..\..\lvgl\version_6.1.2\lvgl\src\lv_objx/lv_spinbox.c ****     char * buf_p = buf;
ARM GAS  C:\Users\pearlstl\AppData\Local\Temp\cc98wxIE.s 			page 9


 408:..\..\..\lvgl\version_6.1.2\lvgl\src\lv_objx/lv_spinbox.c ****     uint8_t cur_shift_left = 0;
 409:..\..\..\lvgl\version_6.1.2\lvgl\src\lv_objx/lv_spinbox.c **** 
 410:..\..\..\lvgl\version_6.1.2\lvgl\src\lv_objx/lv_spinbox.c ****     if (ext->range_min < 0) { // hide sign if there are only positive values
  50              		.loc 1 410 0
  51 000c 836E     		ldr	r3, [r0, #104]
 406:..\..\..\lvgl\version_6.1.2\lvgl\src\lv_objx/lv_spinbox.c ****     char * buf_p = buf;
  52              		.loc 1 406 0
  53 000e 0027     		movs	r7, #0
  54              		.loc 1 410 0
  55 0010 BB42     		cmp	r3, r7
 403:..\..\..\lvgl\version_6.1.2\lvgl\src\lv_objx/lv_spinbox.c ****     lv_spinbox_ext_t * ext = lv_obj_get_ext_attr(spinbox);
  56              		.loc 1 403 0
  57 0012 0646     		mov	r6, r0
  58              	.LVL2:
 406:..\..\..\lvgl\version_6.1.2\lvgl\src\lv_objx/lv_spinbox.c ****     char * buf_p = buf;
  59              		.loc 1 406 0
  60 0014 0197     		str	r7, [sp, #4]
  61 0016 0097     		str	r7, [sp]
  62 0018 0297     		str	r7, [sp, #8]
  63 001a 0397     		str	r7, [sp, #12]
  64 001c 0497     		str	r7, [sp, #16]
  65 001e 0597     		str	r7, [sp, #20]
  66              	.LVL3:
  67              		.loc 1 410 0
  68 0020 C0F24381 		blt	.L71
 411:..\..\..\lvgl\version_6.1.2\lvgl\src\lv_objx/lv_spinbox.c ****         /*Add the sign*/
 412:..\..\..\lvgl\version_6.1.2\lvgl\src\lv_objx/lv_spinbox.c ****         (*buf_p) = ext->value >= 0 ? '+' : '-';
 413:..\..\..\lvgl\version_6.1.2\lvgl\src\lv_objx/lv_spinbox.c ****         buf_p++;
 414:..\..\..\lvgl\version_6.1.2\lvgl\src\lv_objx/lv_spinbox.c ****     } else {
 415:..\..\..\lvgl\version_6.1.2\lvgl\src\lv_objx/lv_spinbox.c ****     	/*Cursor need shift to left*/
 416:..\..\..\lvgl\version_6.1.2\lvgl\src\lv_objx/lv_spinbox.c ****     	cur_shift_left++;
  69              		.loc 1 416 0
  70 0024 0127     		movs	r7, #1
 407:..\..\..\lvgl\version_6.1.2\lvgl\src\lv_objx/lv_spinbox.c ****     uint8_t cur_shift_left = 0;
  71              		.loc 1 407 0
  72 0026 6946     		mov	r1, sp
  73              	.LVL4:
  74              	.L2:
 417:..\..\..\lvgl\version_6.1.2\lvgl\src\lv_objx/lv_spinbox.c ****     }
 418:..\..\..\lvgl\version_6.1.2\lvgl\src\lv_objx/lv_spinbox.c **** 
 419:..\..\..\lvgl\version_6.1.2\lvgl\src\lv_objx/lv_spinbox.c ****     int32_t i;
 420:..\..\..\lvgl\version_6.1.2\lvgl\src\lv_objx/lv_spinbox.c ****     /*padding left*/
 421:..\..\..\lvgl\version_6.1.2\lvgl\src\lv_objx/lv_spinbox.c ****     for(i = 0; i < ext->digit_padding_left; i++) {
  75              		.loc 1 421 0
  76 0028 96F87130 		ldrb	r3, [r6, #113]	@ zero_extendqisi2
  77 002c 1B07     		lsls	r3, r3, #28
  78 002e 0C46     		mov	r4, r1
  79 0030 09D0     		beq	.L4
 422:..\..\..\lvgl\version_6.1.2\lvgl\src\lv_objx/lv_spinbox.c ****         (*buf_p) = ' ';
  80              		.loc 1 422 0 discriminator 3
  81 0032 2020     		movs	r0, #32
  82              	.LVL5:
  83              	.L5:
  84 0034 04F8010B 		strb	r0, [r4], #1
  85              	.LVL6:
 421:..\..\..\lvgl\version_6.1.2\lvgl\src\lv_objx/lv_spinbox.c ****         (*buf_p) = ' ';
  86              		.loc 1 421 0 discriminator 3
ARM GAS  C:\Users\pearlstl\AppData\Local\Temp\cc98wxIE.s 			page 10


  87 0038 96F87130 		ldrb	r3, [r6, #113]	@ zero_extendqisi2
  88 003c 621A     		subs	r2, r4, r1
  89 003e 03F00F03 		and	r3, r3, #15
  90 0042 9342     		cmp	r3, r2
  91 0044 F6DC     		bgt	.L5
  92              	.LVL7:
  93              	.L4:
 423:..\..\..\lvgl\version_6.1.2\lvgl\src\lv_objx/lv_spinbox.c ****         buf_p++;
 424:..\..\..\lvgl\version_6.1.2\lvgl\src\lv_objx/lv_spinbox.c ****     }
 425:..\..\..\lvgl\version_6.1.2\lvgl\src\lv_objx/lv_spinbox.c **** 
 426:..\..\..\lvgl\version_6.1.2\lvgl\src\lv_objx/lv_spinbox.c ****     char digits[64];
 427:..\..\..\lvgl\version_6.1.2\lvgl\src\lv_objx/lv_spinbox.c ****     /*Convert the numbers to string (the sign is already handled so always covert positive number)*
 428:..\..\..\lvgl\version_6.1.2\lvgl\src\lv_objx/lv_spinbox.c ****     lv_utils_num_to_str(ext->value < 0 ? -ext->value : ext->value, digits);
  94              		.loc 1 428 0
  95 0046 306E     		ldr	r0, [r6, #96]
  96 0048 06AD     		add	r5, sp, #24
  97 004a 0028     		cmp	r0, #0
  98 004c B8BF     		it	lt
  99 004e 4042     		rsblt	r0, r0, #0
 100 0050 2946     		mov	r1, r5
 101 0052 FFF7FEFF 		bl	lv_utils_num_to_str
 102              	.LVL8:
 429:..\..\..\lvgl\version_6.1.2\lvgl\src\lv_objx/lv_spinbox.c **** 
 430:..\..\..\lvgl\version_6.1.2\lvgl\src\lv_objx/lv_spinbox.c ****     /*Add leading zeros*/
 431:..\..\..\lvgl\version_6.1.2\lvgl\src\lv_objx/lv_spinbox.c ****     int lz_cnt = ext->digit_count - (int)strlen(digits);
 103              		.loc 1 431 0
 104 0056 2846     		mov	r0, r5
 105 0058 FFF7FEFF 		bl	strlen
 106              	.LVL9:
 107 005c 96F870A0 		ldrb	r10, [r6, #112]	@ zero_extendqisi2
 108 0060 0AF00F09 		and	r9, r10, #15
 109 0064 C0EB0902 		rsb	r2, r0, r9
 110              	.LVL10:
 432:..\..\..\lvgl\version_6.1.2\lvgl\src\lv_objx/lv_spinbox.c ****     if(lz_cnt > 0) {
 111              		.loc 1 432 0
 112 0068 002A     		cmp	r2, #0
 113 006a 11DD     		ble	.L10
 114              	.LVL11:
 115 006c 80B2     		uxth	r0, r0
 116              	.LVL12:
 117 006e 8118     		adds	r1, r0, r2
 118 0070 0131     		adds	r1, r1, #1
 119 0072 0130     		adds	r0, r0, #1
 120 0074 2944     		add	r1, r1, r5
 121 0076 2B18     		adds	r3, r5, r0
 122              	.L9:
 123              	.LVL13:
 433:..\..\..\lvgl\version_6.1.2\lvgl\src\lv_objx/lv_spinbox.c ****         for(i = (uint16_t)strlen(digits); i >= 0; i--) {
 434:..\..\..\lvgl\version_6.1.2\lvgl\src\lv_objx/lv_spinbox.c ****             digits[i + lz_cnt] = digits[i];
 124              		.loc 1 434 0 discriminator 3
 125 0078 13F8010D 		ldrb	r0, [r3, #-1]!	@ zero_extendqisi2
 126              	.LVL14:
 127 007c 01F8010D 		strb	r0, [r1, #-1]!
 128              	.LVL15:
 433:..\..\..\lvgl\version_6.1.2\lvgl\src\lv_objx/lv_spinbox.c ****         for(i = (uint16_t)strlen(digits); i >= 0; i--) {
 129              		.loc 1 433 0 discriminator 3
 130 0080 AB42     		cmp	r3, r5
ARM GAS  C:\Users\pearlstl\AppData\Local\Temp\cc98wxIE.s 			page 11


 131 0082 F9D1     		bne	.L9
 132 0084 3021     		movs	r1, #48
 133 0086 2846     		mov	r0, r5
 134 0088 FFF7FEFF 		bl	memset
 135              	.LVL16:
 136 008c 96F870A0 		ldrb	r10, [r6, #112]	@ zero_extendqisi2
 137              	.L10:
 435:..\..\..\lvgl\version_6.1.2\lvgl\src\lv_objx/lv_spinbox.c ****         }
 436:..\..\..\lvgl\version_6.1.2\lvgl\src\lv_objx/lv_spinbox.c ****         for(i = 0; i < lz_cnt; i++) {
 437:..\..\..\lvgl\version_6.1.2\lvgl\src\lv_objx/lv_spinbox.c ****             digits[i] = '0';
 438:..\..\..\lvgl\version_6.1.2\lvgl\src\lv_objx/lv_spinbox.c ****         }
 439:..\..\..\lvgl\version_6.1.2\lvgl\src\lv_objx/lv_spinbox.c ****     }
 440:..\..\..\lvgl\version_6.1.2\lvgl\src\lv_objx/lv_spinbox.c **** 
 441:..\..\..\lvgl\version_6.1.2\lvgl\src\lv_objx/lv_spinbox.c ****     int32_t intDigits;
 442:..\..\..\lvgl\version_6.1.2\lvgl\src\lv_objx/lv_spinbox.c ****     intDigits = (ext->dec_point_pos == 0) ? ext->digit_count : ext->dec_point_pos;
 138              		.loc 1 442 0
 139 0090 1AF0F00F 		tst	r10, #240
 140 0094 40F0FE80 		bne	.L72
 141              	.LVL17:
 443:..\..\..\lvgl\version_6.1.2\lvgl\src\lv_objx/lv_spinbox.c **** 
 444:..\..\..\lvgl\version_6.1.2\lvgl\src\lv_objx/lv_spinbox.c ****     /*Add the decimal part*/
 445:..\..\..\lvgl\version_6.1.2\lvgl\src\lv_objx/lv_spinbox.c ****     for(i = 0; i < intDigits && digits[i] != '\0'; i++) {
 142              		.loc 1 445 0
 143 0098 B9F1000F 		cmp	r9, #0
 144 009c 00F0AB80 		beq	.L16
 145 00a0 9DF81830 		ldrb	r3, [sp, #24]	@ zero_extendqisi2
 146 00a4 002B     		cmp	r3, #0
 147 00a6 00F0A680 		beq	.L16
 148              	.L21:
 446:..\..\..\lvgl\version_6.1.2\lvgl\src\lv_objx/lv_spinbox.c ****         (*buf_p) = digits[i];
 149              		.loc 1 446 0
 150 00aa 2246     		mov	r2, r4
 445:..\..\..\lvgl\version_6.1.2\lvgl\src\lv_objx/lv_spinbox.c ****         (*buf_p) = digits[i];
 151              		.loc 1 445 0
 152 00ac B9F1010F 		cmp	r9, #1
 153              		.loc 1 446 0
 154 00b0 02F8013B 		strb	r3, [r2], #1
 155              	.LVL18:
 445:..\..\..\lvgl\version_6.1.2\lvgl\src\lv_objx/lv_spinbox.c ****         (*buf_p) = digits[i];
 156              		.loc 1 445 0
 157 00b4 00F0C680 		beq	.L49
 158 00b8 9DF81930 		ldrb	r3, [sp, #25]	@ zero_extendqisi2
 159 00bc 002B     		cmp	r3, #0
 160 00be 00F01681 		beq	.L26
 161 00c2 B9F1020F 		cmp	r9, #2
 162              		.loc 1 446 0
 163 00c6 6370     		strb	r3, [r4, #1]
 447:..\..\..\lvgl\version_6.1.2\lvgl\src\lv_objx/lv_spinbox.c ****         buf_p++;
 164              		.loc 1 447 0
 165 00c8 04F10202 		add	r2, r4, #2
 166              	.LVL19:
 445:..\..\..\lvgl\version_6.1.2\lvgl\src\lv_objx/lv_spinbox.c ****         (*buf_p) = digits[i];
 167              		.loc 1 445 0
 168 00cc 00F0BA80 		beq	.L49
 169 00d0 9DF81A30 		ldrb	r3, [sp, #26]	@ zero_extendqisi2
 170 00d4 002B     		cmp	r3, #0
 171 00d6 00F00781 		beq	.L28
ARM GAS  C:\Users\pearlstl\AppData\Local\Temp\cc98wxIE.s 			page 12


 172 00da B9F1030F 		cmp	r9, #3
 446:..\..\..\lvgl\version_6.1.2\lvgl\src\lv_objx/lv_spinbox.c ****         (*buf_p) = digits[i];
 173              		.loc 1 446 0
 174 00de A370     		strb	r3, [r4, #2]
 175              		.loc 1 447 0
 176 00e0 04F10302 		add	r2, r4, #3
 177              	.LVL20:
 445:..\..\..\lvgl\version_6.1.2\lvgl\src\lv_objx/lv_spinbox.c ****         (*buf_p) = digits[i];
 178              		.loc 1 445 0
 179 00e4 00F0AE80 		beq	.L49
 180 00e8 9DF81B30 		ldrb	r3, [sp, #27]	@ zero_extendqisi2
 181 00ec 002B     		cmp	r3, #0
 182 00ee 00F0F880 		beq	.L30
 183 00f2 B9F1040F 		cmp	r9, #4
 446:..\..\..\lvgl\version_6.1.2\lvgl\src\lv_objx/lv_spinbox.c ****         (*buf_p) = digits[i];
 184              		.loc 1 446 0
 185 00f6 E370     		strb	r3, [r4, #3]
 186              		.loc 1 447 0
 187 00f8 04F10402 		add	r2, r4, #4
 188              	.LVL21:
 445:..\..\..\lvgl\version_6.1.2\lvgl\src\lv_objx/lv_spinbox.c ****         (*buf_p) = digits[i];
 189              		.loc 1 445 0
 190 00fc 00F0A280 		beq	.L49
 191 0100 9DF81C30 		ldrb	r3, [sp, #28]	@ zero_extendqisi2
 192 0104 002B     		cmp	r3, #0
 193 0106 00F0E980 		beq	.L32
 194 010a B9F1050F 		cmp	r9, #5
 446:..\..\..\lvgl\version_6.1.2\lvgl\src\lv_objx/lv_spinbox.c ****         (*buf_p) = digits[i];
 195              		.loc 1 446 0
 196 010e 2371     		strb	r3, [r4, #4]
 197              		.loc 1 447 0
 198 0110 04F10502 		add	r2, r4, #5
 199              	.LVL22:
 445:..\..\..\lvgl\version_6.1.2\lvgl\src\lv_objx/lv_spinbox.c ****         (*buf_p) = digits[i];
 200              		.loc 1 445 0
 201 0114 00F09680 		beq	.L49
 202 0118 9DF81D30 		ldrb	r3, [sp, #29]	@ zero_extendqisi2
 203 011c 002B     		cmp	r3, #0
 204 011e 00F0DA80 		beq	.L34
 205 0122 B9F1060F 		cmp	r9, #6
 446:..\..\..\lvgl\version_6.1.2\lvgl\src\lv_objx/lv_spinbox.c ****         (*buf_p) = digits[i];
 206              		.loc 1 446 0
 207 0126 6371     		strb	r3, [r4, #5]
 208              		.loc 1 447 0
 209 0128 04F10602 		add	r2, r4, #6
 210              	.LVL23:
 445:..\..\..\lvgl\version_6.1.2\lvgl\src\lv_objx/lv_spinbox.c ****         (*buf_p) = digits[i];
 211              		.loc 1 445 0
 212 012c 00F08A80 		beq	.L49
 213 0130 9DF81E30 		ldrb	r3, [sp, #30]	@ zero_extendqisi2
 214 0134 002B     		cmp	r3, #0
 215 0136 00F0CB80 		beq	.L36
 216 013a B9F1070F 		cmp	r9, #7
 446:..\..\..\lvgl\version_6.1.2\lvgl\src\lv_objx/lv_spinbox.c ****         (*buf_p) = digits[i];
 217              		.loc 1 446 0
 218 013e A371     		strb	r3, [r4, #6]
 219              		.loc 1 447 0
ARM GAS  C:\Users\pearlstl\AppData\Local\Temp\cc98wxIE.s 			page 13


 220 0140 04F10702 		add	r2, r4, #7
 221              	.LVL24:
 445:..\..\..\lvgl\version_6.1.2\lvgl\src\lv_objx/lv_spinbox.c ****         (*buf_p) = digits[i];
 222              		.loc 1 445 0
 223 0144 7ED0     		beq	.L49
 224 0146 9DF81F30 		ldrb	r3, [sp, #31]	@ zero_extendqisi2
 225 014a 002B     		cmp	r3, #0
 226 014c 00F0BA80 		beq	.L38
 227 0150 B9F1080F 		cmp	r9, #8
 446:..\..\..\lvgl\version_6.1.2\lvgl\src\lv_objx/lv_spinbox.c ****         (*buf_p) = digits[i];
 228              		.loc 1 446 0
 229 0154 E371     		strb	r3, [r4, #7]
 230              		.loc 1 447 0
 231 0156 04F10802 		add	r2, r4, #8
 232              	.LVL25:
 445:..\..\..\lvgl\version_6.1.2\lvgl\src\lv_objx/lv_spinbox.c ****         (*buf_p) = digits[i];
 233              		.loc 1 445 0
 234 015a 73D0     		beq	.L49
 235 015c 9DF82030 		ldrb	r3, [sp, #32]	@ zero_extendqisi2
 236 0160 002B     		cmp	r3, #0
 237 0162 00F0D380 		beq	.L40
 238 0166 B9F1090F 		cmp	r9, #9
 446:..\..\..\lvgl\version_6.1.2\lvgl\src\lv_objx/lv_spinbox.c ****         (*buf_p) = digits[i];
 239              		.loc 1 446 0
 240 016a 2372     		strb	r3, [r4, #8]
 241              		.loc 1 447 0
 242 016c 04F10902 		add	r2, r4, #9
 243              	.LVL26:
 445:..\..\..\lvgl\version_6.1.2\lvgl\src\lv_objx/lv_spinbox.c ****         (*buf_p) = digits[i];
 244              		.loc 1 445 0
 245 0170 68D0     		beq	.L49
 246 0172 9DF82130 		ldrb	r3, [sp, #33]	@ zero_extendqisi2
 247 0176 002B     		cmp	r3, #0
 248 0178 00F0C580 		beq	.L42
 249 017c B9F10A0F 		cmp	r9, #10
 446:..\..\..\lvgl\version_6.1.2\lvgl\src\lv_objx/lv_spinbox.c ****         (*buf_p) = digits[i];
 250              		.loc 1 446 0
 251 0180 6372     		strb	r3, [r4, #9]
 252              		.loc 1 447 0
 253 0182 04F10A02 		add	r2, r4, #10
 254              	.LVL27:
 445:..\..\..\lvgl\version_6.1.2\lvgl\src\lv_objx/lv_spinbox.c ****         (*buf_p) = digits[i];
 255              		.loc 1 445 0
 256 0186 5DD0     		beq	.L49
 257 0188 9DF82230 		ldrb	r3, [sp, #34]	@ zero_extendqisi2
 258 018c 002B     		cmp	r3, #0
 259 018e 00F0B780 		beq	.L44
 260 0192 B9F10B0F 		cmp	r9, #11
 446:..\..\..\lvgl\version_6.1.2\lvgl\src\lv_objx/lv_spinbox.c ****         (*buf_p) = digits[i];
 261              		.loc 1 446 0
 262 0196 A372     		strb	r3, [r4, #10]
 263              		.loc 1 447 0
 264 0198 04F10B02 		add	r2, r4, #11
 265              	.LVL28:
 445:..\..\..\lvgl\version_6.1.2\lvgl\src\lv_objx/lv_spinbox.c ****         (*buf_p) = digits[i];
 266              		.loc 1 445 0
 267 019c 52D0     		beq	.L49
ARM GAS  C:\Users\pearlstl\AppData\Local\Temp\cc98wxIE.s 			page 14


 268 019e 9DF82330 		ldrb	r3, [sp, #35]	@ zero_extendqisi2
 269 01a2 002B     		cmp	r3, #0
 270 01a4 00F0A980 		beq	.L46
 271 01a8 B9F10C0F 		cmp	r9, #12
 446:..\..\..\lvgl\version_6.1.2\lvgl\src\lv_objx/lv_spinbox.c ****         (*buf_p) = digits[i];
 272              		.loc 1 446 0
 273 01ac E372     		strb	r3, [r4, #11]
 274              		.loc 1 447 0
 275 01ae 04F10C02 		add	r2, r4, #12
 276              	.LVL29:
 445:..\..\..\lvgl\version_6.1.2\lvgl\src\lv_objx/lv_spinbox.c ****         (*buf_p) = digits[i];
 277              		.loc 1 445 0
 278 01b2 47D0     		beq	.L49
 279 01b4 9DF82430 		ldrb	r3, [sp, #36]	@ zero_extendqisi2
 280 01b8 002B     		cmp	r3, #0
 281 01ba 00F09B80 		beq	.L48
 282 01be B9F10D0F 		cmp	r9, #13
 446:..\..\..\lvgl\version_6.1.2\lvgl\src\lv_objx/lv_spinbox.c ****         (*buf_p) = digits[i];
 283              		.loc 1 446 0
 284 01c2 2373     		strb	r3, [r4, #12]
 285              		.loc 1 447 0
 286 01c4 04F10D02 		add	r2, r4, #13
 287              	.LVL30:
 445:..\..\..\lvgl\version_6.1.2\lvgl\src\lv_objx/lv_spinbox.c ****         (*buf_p) = digits[i];
 288              		.loc 1 445 0
 289 01c8 3CD0     		beq	.L49
 290 01ca 9DF82530 		ldrb	r3, [sp, #37]	@ zero_extendqisi2
 291 01ce 002B     		cmp	r3, #0
 292 01d0 7BD0     		beq	.L50
 293 01d2 B9F10F0F 		cmp	r9, #15
 446:..\..\..\lvgl\version_6.1.2\lvgl\src\lv_objx/lv_spinbox.c ****         (*buf_p) = digits[i];
 294              		.loc 1 446 0
 295 01d6 6373     		strb	r3, [r4, #13]
 296              		.loc 1 447 0
 297 01d8 04F10E02 		add	r2, r4, #14
 298              	.LVL31:
 445:..\..\..\lvgl\version_6.1.2\lvgl\src\lv_objx/lv_spinbox.c ****         (*buf_p) = digits[i];
 299              		.loc 1 445 0
 300 01dc 6FD1     		bne	.L52
 301 01de 9DF82630 		ldrb	r3, [sp, #38]	@ zero_extendqisi2
 302 01e2 002B     		cmp	r3, #0
 303 01e4 6BD0     		beq	.L52
 446:..\..\..\lvgl\version_6.1.2\lvgl\src\lv_objx/lv_spinbox.c ****         (*buf_p) = digits[i];
 304              		.loc 1 446 0 discriminator 4
 305 01e6 A373     		strb	r3, [r4, #14]
 445:..\..\..\lvgl\version_6.1.2\lvgl\src\lv_objx/lv_spinbox.c ****         (*buf_p) = digits[i];
 306              		.loc 1 445 0 discriminator 4
 307 01e8 4B46     		mov	r3, r9
 308              		.loc 1 447 0 discriminator 4
 309 01ea 0F34     		adds	r4, r4, #15
 310              	.LVL32:
 311              	.L14:
 312 01ec 96F87020 		ldrb	r2, [r6, #112]	@ zero_extendqisi2
 313 01f0 02F0F002 		and	r2, r2, #240
 448:..\..\..\lvgl\version_6.1.2\lvgl\src\lv_objx/lv_spinbox.c ****     }
 449:..\..\..\lvgl\version_6.1.2\lvgl\src\lv_objx/lv_spinbox.c **** 
 450:..\..\..\lvgl\version_6.1.2\lvgl\src\lv_objx/lv_spinbox.c ****     if(ext->dec_point_pos != 0) {
ARM GAS  C:\Users\pearlstl\AppData\Local\Temp\cc98wxIE.s 			page 15


 314              		.loc 1 450 0
 315 01f4 72BB     		cbnz	r2, .L12
 316              	.L16:
 451:..\..\..\lvgl\version_6.1.2\lvgl\src\lv_objx/lv_spinbox.c ****         /*Insert the decimal point*/
 452:..\..\..\lvgl\version_6.1.2\lvgl\src\lv_objx/lv_spinbox.c ****         (*buf_p) = '.';
 453:..\..\..\lvgl\version_6.1.2\lvgl\src\lv_objx/lv_spinbox.c ****         buf_p++;
 454:..\..\..\lvgl\version_6.1.2\lvgl\src\lv_objx/lv_spinbox.c **** 
 455:..\..\..\lvgl\version_6.1.2\lvgl\src\lv_objx/lv_spinbox.c ****         for(/*Leave i*/; i < ext->digit_count && digits[i] != '\0'; i++) {
 456:..\..\..\lvgl\version_6.1.2\lvgl\src\lv_objx/lv_spinbox.c ****             (*buf_p) = digits[i];
 457:..\..\..\lvgl\version_6.1.2\lvgl\src\lv_objx/lv_spinbox.c ****             buf_p++;
 458:..\..\..\lvgl\version_6.1.2\lvgl\src\lv_objx/lv_spinbox.c ****         }
 459:..\..\..\lvgl\version_6.1.2\lvgl\src\lv_objx/lv_spinbox.c ****     }
 460:..\..\..\lvgl\version_6.1.2\lvgl\src\lv_objx/lv_spinbox.c **** 
 461:..\..\..\lvgl\version_6.1.2\lvgl\src\lv_objx/lv_spinbox.c ****     /*Refresh the text*/
 462:..\..\..\lvgl\version_6.1.2\lvgl\src\lv_objx/lv_spinbox.c ****     lv_ta_set_text(spinbox, (char *)buf);
 317              		.loc 1 462 0
 318 01f6 6946     		mov	r1, sp
 319 01f8 4046     		mov	r0, r8
 320 01fa FFF7FEFF 		bl	lv_ta_set_text
 321              	.LVL33:
 463:..\..\..\lvgl\version_6.1.2\lvgl\src\lv_objx/lv_spinbox.c **** 
 464:..\..\..\lvgl\version_6.1.2\lvgl\src\lv_objx/lv_spinbox.c ****     /*Set the cursor position*/
 465:..\..\..\lvgl\version_6.1.2\lvgl\src\lv_objx/lv_spinbox.c ****     int32_t step    = ext->step;
 322              		.loc 1 465 0
 323 01fe F36E     		ldr	r3, [r6, #108]
 324              	.LVL34:
 466:..\..\..\lvgl\version_6.1.2\lvgl\src\lv_objx/lv_spinbox.c ****     uint8_t cur_pos = (uint8_t)ext->digit_count;
 325              		.loc 1 466 0
 326 0200 96F87020 		ldrb	r2, [r6, #112]	@ zero_extendqisi2
 467:..\..\..\lvgl\version_6.1.2\lvgl\src\lv_objx/lv_spinbox.c ****     while(step >= 10) {
 327              		.loc 1 467 0
 328 0204 092B     		cmp	r3, #9
 466:..\..\..\lvgl\version_6.1.2\lvgl\src\lv_objx/lv_spinbox.c ****     uint8_t cur_pos = (uint8_t)ext->digit_count;
 329              		.loc 1 466 0
 330 0206 02F00F02 		and	r2, r2, #15
 331              	.LVL35:
 332              		.loc 1 467 0
 333 020a 09DD     		ble	.L18
 468:..\..\..\lvgl\version_6.1.2\lvgl\src\lv_objx/lv_spinbox.c ****         step /= 10;
 334              		.loc 1 468 0
 335 020c 4148     		ldr	r0, .L74
 336              	.LVL36:
 337              	.L19:
 338 020e 80FB0341 		smull	r4, r1, r0, r3
 339 0212 DB17     		asrs	r3, r3, #31
 340              	.LVL37:
 341 0214 C3EBA103 		rsb	r3, r3, r1, asr #2
 342              	.LVL38:
 469:..\..\..\lvgl\version_6.1.2\lvgl\src\lv_objx/lv_spinbox.c ****         cur_pos--;
 343              		.loc 1 469 0
 344 0218 013A     		subs	r2, r2, #1
 345              	.LVL39:
 467:..\..\..\lvgl\version_6.1.2\lvgl\src\lv_objx/lv_spinbox.c ****     while(step >= 10) {
 346              		.loc 1 467 0
 347 021a 092B     		cmp	r3, #9
 348              		.loc 1 469 0
 349 021c D2B2     		uxtb	r2, r2
ARM GAS  C:\Users\pearlstl\AppData\Local\Temp\cc98wxIE.s 			page 16


 350              	.LVL40:
 467:..\..\..\lvgl\version_6.1.2\lvgl\src\lv_objx/lv_spinbox.c ****     while(step >= 10) {
 351              		.loc 1 467 0
 352 021e F6DC     		bgt	.L19
 353              	.LVL41:
 354              	.L18:
 470:..\..\..\lvgl\version_6.1.2\lvgl\src\lv_objx/lv_spinbox.c ****     }
 471:..\..\..\lvgl\version_6.1.2\lvgl\src\lv_objx/lv_spinbox.c **** 
 472:..\..\..\lvgl\version_6.1.2\lvgl\src\lv_objx/lv_spinbox.c ****     if(cur_pos > intDigits) cur_pos++; /*Skip teh decimal point*/
 473:..\..\..\lvgl\version_6.1.2\lvgl\src\lv_objx/lv_spinbox.c **** 
 474:..\..\..\lvgl\version_6.1.2\lvgl\src\lv_objx/lv_spinbox.c ****     cur_pos += (ext->digit_padding_left - cur_shift_left);
 355              		.loc 1 474 0
 356 0220 96F87110 		ldrb	r1, [r6, #113]	@ zero_extendqisi2
 472:..\..\..\lvgl\version_6.1.2\lvgl\src\lv_objx/lv_spinbox.c **** 
 357              		.loc 1 472 0
 358 0224 4A45     		cmp	r2, r9
 359 0226 C8BF     		it	gt
 360 0228 0132     		addgt	r2, r2, #1
 361              		.loc 1 474 0
 362 022a C1F30301 		ubfx	r1, r1, #0, #4
 472:..\..\..\lvgl\version_6.1.2\lvgl\src\lv_objx/lv_spinbox.c **** 
 363              		.loc 1 472 0
 364 022e C8BF     		it	gt
 365 0230 D2B2     		uxtbgt	r2, r2
 366              	.LVL42:
 475:..\..\..\lvgl\version_6.1.2\lvgl\src\lv_objx/lv_spinbox.c **** 
 476:..\..\..\lvgl\version_6.1.2\lvgl\src\lv_objx/lv_spinbox.c ****     lv_ta_set_cursor_pos(spinbox, cur_pos);
 367              		.loc 1 476 0
 368 0232 C91B     		subs	r1, r1, r7
 369 0234 1144     		add	r1, r1, r2
 370 0236 C9B2     		uxtb	r1, r1
 371 0238 4046     		mov	r0, r8
 372 023a FFF7FEFF 		bl	lv_ta_set_cursor_pos
 373              	.LVL43:
 477:..\..\..\lvgl\version_6.1.2\lvgl\src\lv_objx/lv_spinbox.c **** }
 374              		.loc 1 477 0
 375 023e 16B0     		add	sp, sp, #88
 376              		.cfi_remember_state
 377              		.cfi_def_cfa_offset 32
 378              		@ sp needed
 379 0240 BDE8F087 		pop	{r4, r5, r6, r7, r8, r9, r10, pc}
 380              	.LVL44:
 381              	.L49:
 382              		.cfi_restore_state
 447:..\..\..\lvgl\version_6.1.2\lvgl\src\lv_objx/lv_spinbox.c ****     }
 383              		.loc 1 447 0
 384 0244 1446     		mov	r4, r2
 385 0246 96F87020 		ldrb	r2, [r6, #112]	@ zero_extendqisi2
 386 024a 02F0F002 		and	r2, r2, #240
 445:..\..\..\lvgl\version_6.1.2\lvgl\src\lv_objx/lv_spinbox.c ****         (*buf_p) = digits[i];
 387              		.loc 1 445 0
 388 024e 4B46     		mov	r3, r9
 450:..\..\..\lvgl\version_6.1.2\lvgl\src\lv_objx/lv_spinbox.c ****         /*Insert the decimal point*/
 389              		.loc 1 450 0
 390 0250 002A     		cmp	r2, #0
 391 0252 D0D0     		beq	.L16
 392              	.L12:
ARM GAS  C:\Users\pearlstl\AppData\Local\Temp\cc98wxIE.s 			page 17


 452:..\..\..\lvgl\version_6.1.2\lvgl\src\lv_objx/lv_spinbox.c ****         buf_p++;
 393              		.loc 1 452 0
 394 0254 2E22     		movs	r2, #46
 395 0256 04F8012B 		strb	r2, [r4], #1
 396              	.LVL45:
 455:..\..\..\lvgl\version_6.1.2\lvgl\src\lv_objx/lv_spinbox.c ****             (*buf_p) = digits[i];
 397              		.loc 1 455 0
 398 025a 96F87020 		ldrb	r2, [r6, #112]	@ zero_extendqisi2
 399 025e 02F00F02 		and	r2, r2, #15
 400 0262 9A42     		cmp	r2, r3
 401 0264 C7DD     		ble	.L16
 402 0266 16AA     		add	r2, sp, #88
 403 0268 1A44     		add	r2, r2, r3
 404 026a 12F8402C 		ldrb	r2, [r2, #-64]	@ zero_extendqisi2
 405 026e 002A     		cmp	r2, #0
 406 0270 C1D0     		beq	.L16
 407 0272 0133     		adds	r3, r3, #1
 408 0274 E918     		adds	r1, r5, r3
 409 0276 03E0     		b	.L17
 410              	.LVL46:
 411              	.L73:
 455:..\..\..\lvgl\version_6.1.2\lvgl\src\lv_objx/lv_spinbox.c ****             (*buf_p) = digits[i];
 412              		.loc 1 455 0 is_stmt 0 discriminator 2
 413 0278 11F8012B 		ldrb	r2, [r1], #1	@ zero_extendqisi2
 414              	.LVL47:
 415 027c 002A     		cmp	r2, #0
 416 027e BAD0     		beq	.L16
 417              	.LVL48:
 418              	.L17:
 456:..\..\..\lvgl\version_6.1.2\lvgl\src\lv_objx/lv_spinbox.c ****             buf_p++;
 419              		.loc 1 456 0 is_stmt 1 discriminator 3
 420 0280 04F8012B 		strb	r2, [r4], #1
 421              	.LVL49:
 455:..\..\..\lvgl\version_6.1.2\lvgl\src\lv_objx/lv_spinbox.c ****             (*buf_p) = digits[i];
 422              		.loc 1 455 0 discriminator 3
 423 0284 96F87020 		ldrb	r2, [r6, #112]	@ zero_extendqisi2
 424 0288 4B1B     		subs	r3, r1, r5
 425 028a 02F00F02 		and	r2, r2, #15
 426 028e 9A42     		cmp	r2, r3
 427 0290 F2DC     		bgt	.L73
 428 0292 B0E7     		b	.L16
 429              	.LVL50:
 430              	.L72:
 445:..\..\..\lvgl\version_6.1.2\lvgl\src\lv_objx/lv_spinbox.c ****         (*buf_p) = digits[i];
 431              		.loc 1 445 0 discriminator 2
 432 0294 5FEA1A19 		lsrs	r9, r10, #4
 433              	.LVL51:
 434 0298 08BF     		it	eq
 435 029a 4B46     		moveq	r3, r9
 436 029c DAD0     		beq	.L12
 445:..\..\..\lvgl\version_6.1.2\lvgl\src\lv_objx/lv_spinbox.c ****         (*buf_p) = digits[i];
 437              		.loc 1 445 0 is_stmt 0
 438 029e 9DF81830 		ldrb	r3, [sp, #24]	@ zero_extendqisi2
 439 02a2 002B     		cmp	r3, #0
 440 02a4 7FF401AF 		bne	.L21
 441 02a8 D4E7     		b	.L12
 442              	.LVL52:
ARM GAS  C:\Users\pearlstl\AppData\Local\Temp\cc98wxIE.s 			page 18


 443              	.L71:
 412:..\..\..\lvgl\version_6.1.2\lvgl\src\lv_objx/lv_spinbox.c ****         buf_p++;
 444              		.loc 1 412 0 is_stmt 1
 445 02aa 036E     		ldr	r3, [r0, #96]
 446 02ac BB42     		cmp	r3, r7
 447 02ae B4BF     		ite	lt
 448 02b0 2D23     		movlt	r3, #45
 449 02b2 2B23     		movge	r3, #43
 450 02b4 8DF80030 		strb	r3, [sp]
 451              	.LVL53:
 413:..\..\..\lvgl\version_6.1.2\lvgl\src\lv_objx/lv_spinbox.c ****     } else {
 452              		.loc 1 413 0
 453 02b8 0DF10101 		add	r1, sp, #1
 454              	.LVL54:
 455 02bc B4E6     		b	.L2
 456              	.LVL55:
 457              	.L52:
 447:..\..\..\lvgl\version_6.1.2\lvgl\src\lv_objx/lv_spinbox.c ****     }
 458              		.loc 1 447 0
 459 02be 1446     		mov	r4, r2
 445:..\..\..\lvgl\version_6.1.2\lvgl\src\lv_objx/lv_spinbox.c ****         (*buf_p) = digits[i];
 460              		.loc 1 445 0
 461 02c0 0E23     		movs	r3, #14
 462 02c2 93E7     		b	.L14
 463              	.LVL56:
 464              	.L38:
 447:..\..\..\lvgl\version_6.1.2\lvgl\src\lv_objx/lv_spinbox.c ****     }
 465              		.loc 1 447 0
 466 02c4 1446     		mov	r4, r2
 445:..\..\..\lvgl\version_6.1.2\lvgl\src\lv_objx/lv_spinbox.c ****         (*buf_p) = digits[i];
 467              		.loc 1 445 0
 468 02c6 0723     		movs	r3, #7
 469 02c8 90E7     		b	.L14
 470              	.LVL57:
 471              	.L50:
 447:..\..\..\lvgl\version_6.1.2\lvgl\src\lv_objx/lv_spinbox.c ****     }
 472              		.loc 1 447 0
 473 02ca 1446     		mov	r4, r2
 445:..\..\..\lvgl\version_6.1.2\lvgl\src\lv_objx/lv_spinbox.c ****         (*buf_p) = digits[i];
 474              		.loc 1 445 0
 475 02cc 0D23     		movs	r3, #13
 476 02ce 8DE7     		b	.L14
 477              	.LVL58:
 478              	.L36:
 447:..\..\..\lvgl\version_6.1.2\lvgl\src\lv_objx/lv_spinbox.c ****     }
 479              		.loc 1 447 0
 480 02d0 1446     		mov	r4, r2
 445:..\..\..\lvgl\version_6.1.2\lvgl\src\lv_objx/lv_spinbox.c ****         (*buf_p) = digits[i];
 481              		.loc 1 445 0
 482 02d2 0623     		movs	r3, #6
 483 02d4 8AE7     		b	.L14
 484              	.LVL59:
 485              	.L34:
 447:..\..\..\lvgl\version_6.1.2\lvgl\src\lv_objx/lv_spinbox.c ****     }
 486              		.loc 1 447 0
 487 02d6 1446     		mov	r4, r2
 445:..\..\..\lvgl\version_6.1.2\lvgl\src\lv_objx/lv_spinbox.c ****         (*buf_p) = digits[i];
ARM GAS  C:\Users\pearlstl\AppData\Local\Temp\cc98wxIE.s 			page 19


 488              		.loc 1 445 0
 489 02d8 0523     		movs	r3, #5
 490 02da 87E7     		b	.L14
 491              	.LVL60:
 492              	.L32:
 447:..\..\..\lvgl\version_6.1.2\lvgl\src\lv_objx/lv_spinbox.c ****     }
 493              		.loc 1 447 0
 494 02dc 1446     		mov	r4, r2
 445:..\..\..\lvgl\version_6.1.2\lvgl\src\lv_objx/lv_spinbox.c ****         (*buf_p) = digits[i];
 495              		.loc 1 445 0
 496 02de 0423     		movs	r3, #4
 497 02e0 84E7     		b	.L14
 498              	.LVL61:
 499              	.L30:
 447:..\..\..\lvgl\version_6.1.2\lvgl\src\lv_objx/lv_spinbox.c ****     }
 500              		.loc 1 447 0
 501 02e2 1446     		mov	r4, r2
 445:..\..\..\lvgl\version_6.1.2\lvgl\src\lv_objx/lv_spinbox.c ****         (*buf_p) = digits[i];
 502              		.loc 1 445 0
 503 02e4 0323     		movs	r3, #3
 504 02e6 81E7     		b	.L14
 505              	.LVL62:
 506              	.L28:
 447:..\..\..\lvgl\version_6.1.2\lvgl\src\lv_objx/lv_spinbox.c ****     }
 507              		.loc 1 447 0
 508 02e8 1446     		mov	r4, r2
 445:..\..\..\lvgl\version_6.1.2\lvgl\src\lv_objx/lv_spinbox.c ****         (*buf_p) = digits[i];
 509              		.loc 1 445 0
 510 02ea 0223     		movs	r3, #2
 511 02ec 7EE7     		b	.L14
 512              	.LVL63:
 513              	.L26:
 447:..\..\..\lvgl\version_6.1.2\lvgl\src\lv_objx/lv_spinbox.c ****     }
 514              		.loc 1 447 0
 515 02ee 1446     		mov	r4, r2
 445:..\..\..\lvgl\version_6.1.2\lvgl\src\lv_objx/lv_spinbox.c ****         (*buf_p) = digits[i];
 516              		.loc 1 445 0
 517 02f0 0123     		movs	r3, #1
 518 02f2 7BE7     		b	.L14
 519              	.LVL64:
 520              	.L48:
 447:..\..\..\lvgl\version_6.1.2\lvgl\src\lv_objx/lv_spinbox.c ****     }
 521              		.loc 1 447 0
 522 02f4 1446     		mov	r4, r2
 445:..\..\..\lvgl\version_6.1.2\lvgl\src\lv_objx/lv_spinbox.c ****         (*buf_p) = digits[i];
 523              		.loc 1 445 0
 524 02f6 0C23     		movs	r3, #12
 525 02f8 78E7     		b	.L14
 526              	.LVL65:
 527              	.L46:
 447:..\..\..\lvgl\version_6.1.2\lvgl\src\lv_objx/lv_spinbox.c ****     }
 528              		.loc 1 447 0
 529 02fa 1446     		mov	r4, r2
 445:..\..\..\lvgl\version_6.1.2\lvgl\src\lv_objx/lv_spinbox.c ****         (*buf_p) = digits[i];
 530              		.loc 1 445 0
 531 02fc 0B23     		movs	r3, #11
 532 02fe 75E7     		b	.L14
ARM GAS  C:\Users\pearlstl\AppData\Local\Temp\cc98wxIE.s 			page 20


 533              	.LVL66:
 534              	.L44:
 447:..\..\..\lvgl\version_6.1.2\lvgl\src\lv_objx/lv_spinbox.c ****     }
 535              		.loc 1 447 0
 536 0300 1446     		mov	r4, r2
 445:..\..\..\lvgl\version_6.1.2\lvgl\src\lv_objx/lv_spinbox.c ****         (*buf_p) = digits[i];
 537              		.loc 1 445 0
 538 0302 0A23     		movs	r3, #10
 539 0304 72E7     		b	.L14
 540              	.LVL67:
 541              	.L42:
 447:..\..\..\lvgl\version_6.1.2\lvgl\src\lv_objx/lv_spinbox.c ****     }
 542              		.loc 1 447 0
 543 0306 1446     		mov	r4, r2
 445:..\..\..\lvgl\version_6.1.2\lvgl\src\lv_objx/lv_spinbox.c ****         (*buf_p) = digits[i];
 544              		.loc 1 445 0
 545 0308 0923     		movs	r3, #9
 546 030a 6FE7     		b	.L14
 547              	.LVL68:
 548              	.L40:
 447:..\..\..\lvgl\version_6.1.2\lvgl\src\lv_objx/lv_spinbox.c ****     }
 549              		.loc 1 447 0
 550 030c 1446     		mov	r4, r2
 445:..\..\..\lvgl\version_6.1.2\lvgl\src\lv_objx/lv_spinbox.c ****         (*buf_p) = digits[i];
 551              		.loc 1 445 0
 552 030e 0823     		movs	r3, #8
 553 0310 6CE7     		b	.L14
 554              	.L75:
 555 0312 00BF     		.align	2
 556              	.L74:
 557 0314 67666666 		.word	1717986919
 558              		.cfi_endproc
 559              	.LFE70:
 560              		.size	lv_spinbox_updatevalue, .-lv_spinbox_updatevalue
 561              		.section	.text.lv_spinbox_create,"ax",%progbits
 562              		.align	2
 563              		.global	lv_spinbox_create
 564              		.thumb
 565              		.thumb_func
 566              		.type	lv_spinbox_create, %function
 567              	lv_spinbox_create:
 568              	.LFB58:
  53:..\..\..\lvgl\version_6.1.2\lvgl\src\lv_objx/lv_spinbox.c ****     LV_LOG_TRACE("spinbox create started");
 569              		.loc 1 53 0
 570              		.cfi_startproc
 571              		@ args = 0, pretend = 0, frame = 0
 572              		@ frame_needed = 0, uses_anonymous_args = 0
 573              	.LVL69:
 574 0000 2DE9F843 		push	{r3, r4, r5, r6, r7, r8, r9, lr}
 575              		.cfi_def_cfa_offset 32
 576              		.cfi_offset 3, -32
 577              		.cfi_offset 4, -28
 578              		.cfi_offset 5, -24
 579              		.cfi_offset 6, -20
 580              		.cfi_offset 7, -16
 581              		.cfi_offset 8, -12
 582              		.cfi_offset 9, -8
ARM GAS  C:\Users\pearlstl\AppData\Local\Temp\cc98wxIE.s 			page 21


 583              		.cfi_offset 14, -4
  53:..\..\..\lvgl\version_6.1.2\lvgl\src\lv_objx/lv_spinbox.c ****     LV_LOG_TRACE("spinbox create started");
 584              		.loc 1 53 0
 585 0004 8946     		mov	r9, r1
  57:..\..\..\lvgl\version_6.1.2\lvgl\src\lv_objx/lv_spinbox.c ****     LV_ASSERT_MEM(new_spinbox);
 586              		.loc 1 57 0
 587 0006 FFF7FEFF 		bl	lv_ta_create
 588              	.LVL70:
  59:..\..\..\lvgl\version_6.1.2\lvgl\src\lv_objx/lv_spinbox.c **** 
 589              		.loc 1 59 0
 590 000a 0028     		cmp	r0, #0
 591 000c 00F0AA80 		beq	.L79
  62:..\..\..\lvgl\version_6.1.2\lvgl\src\lv_objx/lv_spinbox.c ****     LV_ASSERT_MEM(ext);
 592              		.loc 1 62 0
 593 0010 7421     		movs	r1, #116
 594 0012 0446     		mov	r4, r0
 595 0014 FFF7FEFF 		bl	lv_obj_allocate_ext_attr
 596              	.LVL71:
  64:..\..\..\lvgl\version_6.1.2\lvgl\src\lv_objx/lv_spinbox.c ****     if(ancestor_signal == NULL) ancestor_signal = lv_obj_get_signal_cb(new_spinbox);
 597              		.loc 1 64 0
 598 0018 0546     		mov	r5, r0
 599 001a 0028     		cmp	r0, #0
 600 001c 00F0A280 		beq	.L79
  65:..\..\..\lvgl\version_6.1.2\lvgl\src\lv_objx/lv_spinbox.c ****     if(ancestor_design == NULL) ancestor_design = lv_obj_get_design_cb(new_spinbox);
 601              		.loc 1 65 0
 602 0020 574E     		ldr	r6, .L117
 603 0022 3368     		ldr	r3, [r6]
 604 0024 002B     		cmp	r3, #0
 605 0026 00F0A080 		beq	.L111
 606              	.LVL72:
 607              	.L80:
  66:..\..\..\lvgl\version_6.1.2\lvgl\src\lv_objx/lv_spinbox.c **** 
 608              		.loc 1 66 0
 609 002a 7368     		ldr	r3, [r6, #4]
 610 002c 544F     		ldr	r7, .L117
 611 002e 002B     		cmp	r3, #0
 612 0030 00F0A080 		beq	.L112
 613              	.L81:
  72:..\..\..\lvgl\version_6.1.2\lvgl\src\lv_objx/lv_spinbox.c ****     ext->step               = 1;
 614              		.loc 1 72 0
 615 0034 95F87130 		ldrb	r3, [r5, #113]	@ zero_extendqisi2
  74:..\..\..\lvgl\version_6.1.2\lvgl\src\lv_objx/lv_spinbox.c ****     ext->range_min          = -99999;
 616              		.loc 1 74 0
 617 0038 524A     		ldr	r2, .L117+4
 618 003a 6A66     		str	r2, [r5, #100]
  69:..\..\..\lvgl\version_6.1.2\lvgl\src\lv_objx/lv_spinbox.c ****     ext->dec_point_pos      = 0;
 619              		.loc 1 69 0
 620 003c 0027     		movs	r7, #0
  72:..\..\..\lvgl\version_6.1.2\lvgl\src\lv_objx/lv_spinbox.c ****     ext->step               = 1;
 621              		.loc 1 72 0
 622 003e 67F30303 		bfi	r3, r7, #0, #4
  71:..\..\..\lvgl\version_6.1.2\lvgl\src\lv_objx/lv_spinbox.c ****     ext->digit_padding_left = 0;
 623              		.loc 1 71 0
 624 0042 0522     		movs	r2, #5
  73:..\..\..\lvgl\version_6.1.2\lvgl\src\lv_objx/lv_spinbox.c ****     ext->range_max          = 99999;
 625              		.loc 1 73 0
 626 0044 4FF00108 		mov	r8, #1
ARM GAS  C:\Users\pearlstl\AppData\Local\Temp\cc98wxIE.s 			page 22


  72:..\..\..\lvgl\version_6.1.2\lvgl\src\lv_objx/lv_spinbox.c ****     ext->step               = 1;
 627              		.loc 1 72 0
 628 0048 85F87130 		strb	r3, [r5, #113]
  75:..\..\..\lvgl\version_6.1.2\lvgl\src\lv_objx/lv_spinbox.c **** 
 629              		.loc 1 75 0
 630 004c 4E4B     		ldr	r3, .L117+8
  71:..\..\..\lvgl\version_6.1.2\lvgl\src\lv_objx/lv_spinbox.c ****     ext->digit_padding_left = 0;
 631              		.loc 1 71 0
 632 004e 85F87020 		strb	r2, [r5, #112]
  75:..\..\..\lvgl\version_6.1.2\lvgl\src\lv_objx/lv_spinbox.c **** 
 633              		.loc 1 75 0
 634 0052 AB66     		str	r3, [r5, #104]
  77:..\..\..\lvgl\version_6.1.2\lvgl\src\lv_objx/lv_spinbox.c ****     lv_ta_set_one_line(new_spinbox, true);
 635              		.loc 1 77 0
 636 0054 0221     		movs	r1, #2
 637 0056 2046     		mov	r0, r4
  69:..\..\..\lvgl\version_6.1.2\lvgl\src\lv_objx/lv_spinbox.c ****     ext->dec_point_pos      = 0;
 638              		.loc 1 69 0
 639 0058 2F66     		str	r7, [r5, #96]
  73:..\..\..\lvgl\version_6.1.2\lvgl\src\lv_objx/lv_spinbox.c ****     ext->range_max          = 99999;
 640              		.loc 1 73 0
 641 005a C5F86C80 		str	r8, [r5, #108]
  77:..\..\..\lvgl\version_6.1.2\lvgl\src\lv_objx/lv_spinbox.c ****     lv_ta_set_one_line(new_spinbox, true);
 642              		.loc 1 77 0
 643 005e FFF7FEFF 		bl	lv_ta_set_cursor_type
 644              	.LVL73:
  78:..\..\..\lvgl\version_6.1.2\lvgl\src\lv_objx/lv_spinbox.c ****     lv_ta_set_cursor_click_pos(new_spinbox, false);
 645              		.loc 1 78 0
 646 0062 4146     		mov	r1, r8
 647 0064 2046     		mov	r0, r4
 648 0066 FFF7FEFF 		bl	lv_ta_set_one_line
 649              	.LVL74:
  79:..\..\..\lvgl\version_6.1.2\lvgl\src\lv_objx/lv_spinbox.c **** 
 650              		.loc 1 79 0
 651 006a 3946     		mov	r1, r7
 652 006c 2046     		mov	r0, r4
 653 006e FFF7FEFF 		bl	lv_ta_set_cursor_click_pos
 654              	.LVL75:
  82:..\..\..\lvgl\version_6.1.2\lvgl\src\lv_objx/lv_spinbox.c ****     lv_obj_set_design_cb(new_spinbox, ancestor_design); /*Leave the Text area's design function*/
 655              		.loc 1 82 0
 656 0072 4649     		ldr	r1, .L117+12
 657 0074 2046     		mov	r0, r4
 658 0076 FFF7FEFF 		bl	lv_obj_set_signal_cb
 659              	.LVL76:
  83:..\..\..\lvgl\version_6.1.2\lvgl\src\lv_objx/lv_spinbox.c **** 
 660              		.loc 1 83 0
 661 007a 7168     		ldr	r1, [r6, #4]
 662 007c 2046     		mov	r0, r4
 663 007e FFF7FEFF 		bl	lv_obj_set_design_cb
 664              	.LVL77:
  86:..\..\..\lvgl\version_6.1.2\lvgl\src\lv_objx/lv_spinbox.c ****         /*Set the default styles*/
 665              		.loc 1 86 0
 666 0082 B9F1000F 		cmp	r9, #0
 667 0086 55D0     		beq	.L113
 668              	.LBB28:
  97:..\..\..\lvgl\version_6.1.2\lvgl\src\lv_objx/lv_spinbox.c **** 
 669              		.loc 1 97 0
ARM GAS  C:\Users\pearlstl\AppData\Local\Temp\cc98wxIE.s 			page 23


 670 0088 4846     		mov	r0, r9
 671 008a FFF7FEFF 		bl	lv_obj_get_ext_attr
 672              	.LVL78:
 673 008e 0546     		mov	r5, r0
 674              	.LVL79:
 675              	.LBB29:
 676              	.LBB30:
 128:..\..\..\lvgl\version_6.1.2\lvgl\src\lv_objx/lv_spinbox.c ****     if(ext == NULL) return;
 677              		.loc 1 128 0
 678 0090 2046     		mov	r0, r4
 679              	.LVL80:
 680              	.LBE30:
 681              	.LBE29:
  99:..\..\..\lvgl\version_6.1.2\lvgl\src\lv_objx/lv_spinbox.c ****         lv_spinbox_set_digit_format(new_spinbox, (uint8_t)copy_ext->digit_count, (uint8_t)copy_ext-
 682              		.loc 1 99 0
 683 0092 2E6E     		ldr	r6, [r5, #96]
 684              	.LVL81:
 685              	.LBB32:
 686              	.LBB31:
 128:..\..\..\lvgl\version_6.1.2\lvgl\src\lv_objx/lv_spinbox.c ****     if(ext == NULL) return;
 687              		.loc 1 128 0
 688 0094 FFF7FEFF 		bl	lv_obj_get_ext_attr
 689              	.LVL82:
 129:..\..\..\lvgl\version_6.1.2\lvgl\src\lv_objx/lv_spinbox.c **** 
 690              		.loc 1 129 0
 691 0098 58B1     		cbz	r0, .L84
 131:..\..\..\lvgl\version_6.1.2\lvgl\src\lv_objx/lv_spinbox.c ****     if(i < ext->range_min) i = ext->range_min;
 692              		.loc 1 131 0
 693 009a 436E     		ldr	r3, [r0, #100]
 132:..\..\..\lvgl\version_6.1.2\lvgl\src\lv_objx/lv_spinbox.c **** 
 694              		.loc 1 132 0
 695 009c 826E     		ldr	r2, [r0, #104]
 696 009e B342     		cmp	r3, r6
 697 00a0 A8BF     		it	ge
 698 00a2 3346     		movge	r3, r6
 699              	.LVL83:
 134:..\..\..\lvgl\version_6.1.2\lvgl\src\lv_objx/lv_spinbox.c **** 
 700              		.loc 1 134 0
 701 00a4 9342     		cmp	r3, r2
 702 00a6 B8BF     		it	lt
 703 00a8 1346     		movlt	r3, r2
 704              	.LVL84:
 705 00aa 0366     		str	r3, [r0, #96]
 136:..\..\..\lvgl\version_6.1.2\lvgl\src\lv_objx/lv_spinbox.c **** }
 706              		.loc 1 136 0
 707 00ac 2046     		mov	r0, r4
 708              	.LVL85:
 709 00ae FFF7FEFF 		bl	lv_spinbox_updatevalue
 710              	.LVL86:
 711              	.L84:
 712              	.LBE31:
 713              	.LBE32:
 100:..\..\..\lvgl\version_6.1.2\lvgl\src\lv_objx/lv_spinbox.c ****         lv_spinbox_set_range(new_spinbox, copy_ext->range_min, copy_ext->range_max);
 714              		.loc 1 100 0
 715 00b2 95F87030 		ldrb	r3, [r5, #112]	@ zero_extendqisi2
 716              	.LBB33:
 717              	.LBB34:
ARM GAS  C:\Users\pearlstl\AppData\Local\Temp\cc98wxIE.s 			page 24


 150:..\..\..\lvgl\version_6.1.2\lvgl\src\lv_objx/lv_spinbox.c ****     if(ext == NULL) return;
 718              		.loc 1 150 0
 719 00b6 2046     		mov	r0, r4
 720              	.LBE34:
 721              	.LBE33:
 100:..\..\..\lvgl\version_6.1.2\lvgl\src\lv_objx/lv_spinbox.c ****         lv_spinbox_set_range(new_spinbox, copy_ext->range_min, copy_ext->range_max);
 722              		.loc 1 100 0
 723 00b8 03F00F07 		and	r7, r3, #15
 724 00bc 1E09     		lsrs	r6, r3, #4
 725              	.LVL87:
 726              	.LBB37:
 727              	.LBB35:
 150:..\..\..\lvgl\version_6.1.2\lvgl\src\lv_objx/lv_spinbox.c ****     if(ext == NULL) return;
 728              		.loc 1 150 0
 729 00be FFF7FEFF 		bl	lv_obj_get_ext_attr
 730              	.LVL88:
 151:..\..\..\lvgl\version_6.1.2\lvgl\src\lv_objx/lv_spinbox.c **** 
 731              		.loc 1 151 0
 732 00c2 F0B9     		cbnz	r0, .L114
 733              	.LVL89:
 734              	.L90:
 735              	.LBE35:
 736              	.LBE37:
 737              	.LBB38:
 738              	.LBB39:
 188:..\..\..\lvgl\version_6.1.2\lvgl\src\lv_objx/lv_spinbox.c ****     if(ext == NULL) return;
 739              		.loc 1 188 0
 740 00c4 2046     		mov	r0, r4
 741              	.LBE39:
 742              	.LBE38:
 101:..\..\..\lvgl\version_6.1.2\lvgl\src\lv_objx/lv_spinbox.c ****         lv_spinbox_set_step(new_spinbox, copy_ext->step);
 743              		.loc 1 101 0
 744 00c6 AF6E     		ldr	r7, [r5, #104]
 745 00c8 D5F86480 		ldr	r8, [r5, #100]
 746              	.LVL90:
 747              	.LBB42:
 748              	.LBB40:
 188:..\..\..\lvgl\version_6.1.2\lvgl\src\lv_objx/lv_spinbox.c ****     if(ext == NULL) return;
 749              		.loc 1 188 0
 750 00cc FFF7FEFF 		bl	lv_obj_get_ext_attr
 751              	.LVL91:
 189:..\..\..\lvgl\version_6.1.2\lvgl\src\lv_objx/lv_spinbox.c **** 
 752              		.loc 1 189 0
 753 00d0 0646     		mov	r6, r0
 754 00d2 38B1     		cbz	r0, .L86
 194:..\..\..\lvgl\version_6.1.2\lvgl\src\lv_objx/lv_spinbox.c ****         ext->value = ext->range_max;
 755              		.loc 1 194 0
 756 00d4 036E     		ldr	r3, [r0, #96]
 191:..\..\..\lvgl\version_6.1.2\lvgl\src\lv_objx/lv_spinbox.c ****     ext->range_min = range_min;
 757              		.loc 1 191 0
 758 00d6 C0F86480 		str	r8, [r0, #100]
 194:..\..\..\lvgl\version_6.1.2\lvgl\src\lv_objx/lv_spinbox.c ****         ext->value = ext->range_max;
 759              		.loc 1 194 0
 760 00da 9845     		cmp	r8, r3
 192:..\..\..\lvgl\version_6.1.2\lvgl\src\lv_objx/lv_spinbox.c **** 
 761              		.loc 1 192 0
 762 00dc 8766     		str	r7, [r0, #104]
ARM GAS  C:\Users\pearlstl\AppData\Local\Temp\cc98wxIE.s 			page 25


 194:..\..\..\lvgl\version_6.1.2\lvgl\src\lv_objx/lv_spinbox.c ****         ext->value = ext->range_max;
 763              		.loc 1 194 0
 764 00de 21DB     		blt	.L115
 765              	.LVL92:
 766              	.L87:
 198:..\..\..\lvgl\version_6.1.2\lvgl\src\lv_objx/lv_spinbox.c ****         ext->value = ext->range_min;
 767              		.loc 1 198 0
 768 00e0 BB42     		cmp	r3, r7
 769 00e2 1ADB     		blt	.L116
 770              	.L86:
 771              	.LVL93:
 772              	.LBE40:
 773              	.LBE42:
 774              	.LBB43:
 775              	.LBB44:
 172:..\..\..\lvgl\version_6.1.2\lvgl\src\lv_objx/lv_spinbox.c ****     if(ext == NULL) return;
 776              		.loc 1 172 0
 777 00e4 2046     		mov	r0, r4
 778              	.LBE44:
 779              	.LBE43:
 102:..\..\..\lvgl\version_6.1.2\lvgl\src\lv_objx/lv_spinbox.c **** 
 780              		.loc 1 102 0
 781 00e6 ED6E     		ldr	r5, [r5, #108]
 782              	.LVL94:
 783              	.LBB46:
 784              	.LBB45:
 172:..\..\..\lvgl\version_6.1.2\lvgl\src\lv_objx/lv_spinbox.c ****     if(ext == NULL) return;
 785              		.loc 1 172 0
 786 00e8 FFF7FEFF 		bl	lv_obj_get_ext_attr
 787              	.LVL95:
 173:..\..\..\lvgl\version_6.1.2\lvgl\src\lv_objx/lv_spinbox.c **** 
 788              		.loc 1 173 0
 789 00ec 00B1     		cbz	r0, .L89
 175:..\..\..\lvgl\version_6.1.2\lvgl\src\lv_objx/lv_spinbox.c **** }
 790              		.loc 1 175 0
 791 00ee C566     		str	r5, [r0, #108]
 792              	.L89:
 793              	.LVL96:
 794              	.LBE45:
 795              	.LBE46:
 105:..\..\..\lvgl\version_6.1.2\lvgl\src\lv_objx/lv_spinbox.c ****     }
 796              		.loc 1 105 0
 797 00f0 2046     		mov	r0, r4
 798 00f2 FFF7FEFF 		bl	lv_obj_refresh_style
 799              	.LVL97:
 800              	.L83:
 801              	.LBE28:
 108:..\..\..\lvgl\version_6.1.2\lvgl\src\lv_objx/lv_spinbox.c **** 
 802              		.loc 1 108 0
 803 00f6 2046     		mov	r0, r4
 804 00f8 FFF7FEFF 		bl	lv_spinbox_updatevalue
 805              	.LVL98:
 112:..\..\..\lvgl\version_6.1.2\lvgl\src\lv_objx/lv_spinbox.c **** }
 806              		.loc 1 112 0
 807 00fc 2046     		mov	r0, r4
 808 00fe BDE8F883 		pop	{r3, r4, r5, r6, r7, r8, r9, pc}
 809              	.LVL99:
ARM GAS  C:\Users\pearlstl\AppData\Local\Temp\cc98wxIE.s 			page 26


 810              	.L114:
 811              	.LBB49:
 812              	.LBB47:
 813              	.LBB36:
 157:..\..\..\lvgl\version_6.1.2\lvgl\src\lv_objx/lv_spinbox.c ****     ext->dec_point_pos = separator_position;
 814              		.loc 1 157 0
 815 0102 90F87030 		ldrb	r3, [r0, #112]	@ zero_extendqisi2
 816 0106 67F30303 		bfi	r3, r7, #0, #4
 158:..\..\..\lvgl\version_6.1.2\lvgl\src\lv_objx/lv_spinbox.c **** 
 817              		.loc 1 158 0
 818 010a 66F30713 		bfi	r3, r6, #4, #4
 819 010e 80F87030 		strb	r3, [r0, #112]
 160:..\..\..\lvgl\version_6.1.2\lvgl\src\lv_objx/lv_spinbox.c **** }
 820              		.loc 1 160 0
 821 0112 2046     		mov	r0, r4
 822              	.LVL100:
 823 0114 FFF7FEFF 		bl	lv_spinbox_updatevalue
 824              	.LVL101:
 825 0118 D4E7     		b	.L90
 826              	.LVL102:
 827              	.L116:
 828              	.LBE36:
 829              	.LBE47:
 830              	.LBB48:
 831              	.LBB41:
 199:..\..\..\lvgl\version_6.1.2\lvgl\src\lv_objx/lv_spinbox.c ****         lv_obj_invalidate(spinbox);
 832              		.loc 1 199 0
 833 011a 3766     		str	r7, [r6, #96]
 200:..\..\..\lvgl\version_6.1.2\lvgl\src\lv_objx/lv_spinbox.c ****     }
 834              		.loc 1 200 0
 835 011c 2046     		mov	r0, r4
 836 011e FFF7FEFF 		bl	lv_obj_invalidate
 837              	.LVL103:
 838 0122 DFE7     		b	.L86
 839              	.LVL104:
 840              	.L115:
 195:..\..\..\lvgl\version_6.1.2\lvgl\src\lv_objx/lv_spinbox.c ****         lv_obj_invalidate(spinbox);
 841              		.loc 1 195 0
 842 0124 C0F86080 		str	r8, [r0, #96]
 196:..\..\..\lvgl\version_6.1.2\lvgl\src\lv_objx/lv_spinbox.c ****     }
 843              		.loc 1 196 0
 844 0128 2046     		mov	r0, r4
 845              	.LVL105:
 846 012a FFF7FEFF 		bl	lv_obj_invalidate
 847              	.LVL106:
 848 012e 336E     		ldr	r3, [r6, #96]
 849 0130 B76E     		ldr	r7, [r6, #104]
 850              	.LVL107:
 851 0132 D5E7     		b	.L87
 852              	.LVL108:
 853              	.L113:
 854              	.LBE41:
 855              	.LBE48:
 856              	.LBE49:
 857              	.LBB50:
  88:..\..\..\lvgl\version_6.1.2\lvgl\src\lv_objx/lv_spinbox.c ****         if(th) {
 858              		.loc 1 88 0
ARM GAS  C:\Users\pearlstl\AppData\Local\Temp\cc98wxIE.s 			page 27


 859 0134 FFF7FEFF 		bl	lv_theme_get_current
 860              	.LVL109:
  89:..\..\..\lvgl\version_6.1.2\lvgl\src\lv_objx/lv_spinbox.c ****             lv_spinbox_set_style(new_spinbox, LV_SPINBOX_STYLE_BG, th->style.spinbox.bg);
 861              		.loc 1 89 0
 862 0138 0546     		mov	r5, r0
 863              	.LVL110:
 864 013a 0028     		cmp	r0, #0
 865 013c DBD0     		beq	.L83
 866              	.LVL111:
 867              	.LBB51:
 868              	.LBB52:
 869              		.file 2 "..\\..\\..\\lvgl\\version_6.1.2\\lvgl\\src\\lv_objx\\lv_spinbox.h"
   1:..\..\..\lvgl\version_6.1.2\lvgl\src\lv_objx/lv_spinbox.h **** /**
   2:..\..\..\lvgl\version_6.1.2\lvgl\src\lv_objx/lv_spinbox.h ****  * @file lv_spinbox.h
   3:..\..\..\lvgl\version_6.1.2\lvgl\src\lv_objx/lv_spinbox.h ****  *
   4:..\..\..\lvgl\version_6.1.2\lvgl\src\lv_objx/lv_spinbox.h ****  */
   5:..\..\..\lvgl\version_6.1.2\lvgl\src\lv_objx/lv_spinbox.h **** 
   6:..\..\..\lvgl\version_6.1.2\lvgl\src\lv_objx/lv_spinbox.h **** #ifndef LV_SPINBOX_H
   7:..\..\..\lvgl\version_6.1.2\lvgl\src\lv_objx/lv_spinbox.h **** #define LV_SPINBOX_H
   8:..\..\..\lvgl\version_6.1.2\lvgl\src\lv_objx/lv_spinbox.h **** 
   9:..\..\..\lvgl\version_6.1.2\lvgl\src\lv_objx/lv_spinbox.h **** #ifdef __cplusplus
  10:..\..\..\lvgl\version_6.1.2\lvgl\src\lv_objx/lv_spinbox.h **** extern "C" {
  11:..\..\..\lvgl\version_6.1.2\lvgl\src\lv_objx/lv_spinbox.h **** #endif
  12:..\..\..\lvgl\version_6.1.2\lvgl\src\lv_objx/lv_spinbox.h **** 
  13:..\..\..\lvgl\version_6.1.2\lvgl\src\lv_objx/lv_spinbox.h **** /*********************
  14:..\..\..\lvgl\version_6.1.2\lvgl\src\lv_objx/lv_spinbox.h ****  *      INCLUDES
  15:..\..\..\lvgl\version_6.1.2\lvgl\src\lv_objx/lv_spinbox.h ****  *********************/
  16:..\..\..\lvgl\version_6.1.2\lvgl\src\lv_objx/lv_spinbox.h **** #ifdef LV_CONF_INCLUDE_SIMPLE
  17:..\..\..\lvgl\version_6.1.2\lvgl\src\lv_objx/lv_spinbox.h **** #include "lv_conf.h"
  18:..\..\..\lvgl\version_6.1.2\lvgl\src\lv_objx/lv_spinbox.h **** #else
  19:..\..\..\lvgl\version_6.1.2\lvgl\src\lv_objx/lv_spinbox.h **** #include "../../../lv_conf.h"
  20:..\..\..\lvgl\version_6.1.2\lvgl\src\lv_objx/lv_spinbox.h **** #endif
  21:..\..\..\lvgl\version_6.1.2\lvgl\src\lv_objx/lv_spinbox.h **** 
  22:..\..\..\lvgl\version_6.1.2\lvgl\src\lv_objx/lv_spinbox.h **** #if LV_USE_SPINBOX != 0
  23:..\..\..\lvgl\version_6.1.2\lvgl\src\lv_objx/lv_spinbox.h **** 
  24:..\..\..\lvgl\version_6.1.2\lvgl\src\lv_objx/lv_spinbox.h **** /*Testing of dependencies*/
  25:..\..\..\lvgl\version_6.1.2\lvgl\src\lv_objx/lv_spinbox.h **** #if LV_USE_TA == 0
  26:..\..\..\lvgl\version_6.1.2\lvgl\src\lv_objx/lv_spinbox.h **** #error "lv_spinbox: lv_ta is required. Enable it in lv_conf.h (LV_USE_TA  1) "
  27:..\..\..\lvgl\version_6.1.2\lvgl\src\lv_objx/lv_spinbox.h **** #endif
  28:..\..\..\lvgl\version_6.1.2\lvgl\src\lv_objx/lv_spinbox.h **** 
  29:..\..\..\lvgl\version_6.1.2\lvgl\src\lv_objx/lv_spinbox.h **** #include "../lv_core/lv_obj.h"
  30:..\..\..\lvgl\version_6.1.2\lvgl\src\lv_objx/lv_spinbox.h **** #include "../lv_objx/lv_ta.h"
  31:..\..\..\lvgl\version_6.1.2\lvgl\src\lv_objx/lv_spinbox.h **** 
  32:..\..\..\lvgl\version_6.1.2\lvgl\src\lv_objx/lv_spinbox.h **** /*********************
  33:..\..\..\lvgl\version_6.1.2\lvgl\src\lv_objx/lv_spinbox.h ****  *      DEFINES
  34:..\..\..\lvgl\version_6.1.2\lvgl\src\lv_objx/lv_spinbox.h ****  *********************/
  35:..\..\..\lvgl\version_6.1.2\lvgl\src\lv_objx/lv_spinbox.h **** #define LV_SPINBOX_MAX_DIGIT_COUNT 16
  36:..\..\..\lvgl\version_6.1.2\lvgl\src\lv_objx/lv_spinbox.h **** 
  37:..\..\..\lvgl\version_6.1.2\lvgl\src\lv_objx/lv_spinbox.h **** /**********************
  38:..\..\..\lvgl\version_6.1.2\lvgl\src\lv_objx/lv_spinbox.h ****  *      TYPEDEFS
  39:..\..\..\lvgl\version_6.1.2\lvgl\src\lv_objx/lv_spinbox.h ****  **********************/
  40:..\..\..\lvgl\version_6.1.2\lvgl\src\lv_objx/lv_spinbox.h **** 
  41:..\..\..\lvgl\version_6.1.2\lvgl\src\lv_objx/lv_spinbox.h **** /*Data of spinbox*/
  42:..\..\..\lvgl\version_6.1.2\lvgl\src\lv_objx/lv_spinbox.h **** typedef struct
  43:..\..\..\lvgl\version_6.1.2\lvgl\src\lv_objx/lv_spinbox.h **** {
  44:..\..\..\lvgl\version_6.1.2\lvgl\src\lv_objx/lv_spinbox.h ****     lv_ta_ext_t ta; /*Ext. of ancestor*/
  45:..\..\..\lvgl\version_6.1.2\lvgl\src\lv_objx/lv_spinbox.h ****     /*New data for this type */
ARM GAS  C:\Users\pearlstl\AppData\Local\Temp\cc98wxIE.s 			page 28


  46:..\..\..\lvgl\version_6.1.2\lvgl\src\lv_objx/lv_spinbox.h ****     int32_t value;
  47:..\..\..\lvgl\version_6.1.2\lvgl\src\lv_objx/lv_spinbox.h ****     int32_t range_max;
  48:..\..\..\lvgl\version_6.1.2\lvgl\src\lv_objx/lv_spinbox.h ****     int32_t range_min;
  49:..\..\..\lvgl\version_6.1.2\lvgl\src\lv_objx/lv_spinbox.h ****     int32_t step;
  50:..\..\..\lvgl\version_6.1.2\lvgl\src\lv_objx/lv_spinbox.h ****     uint16_t digit_count : 4;
  51:..\..\..\lvgl\version_6.1.2\lvgl\src\lv_objx/lv_spinbox.h ****     uint16_t dec_point_pos : 4; /*if 0, there is no separator and the number is an integer*/
  52:..\..\..\lvgl\version_6.1.2\lvgl\src\lv_objx/lv_spinbox.h ****     uint16_t digit_padding_left : 4;
  53:..\..\..\lvgl\version_6.1.2\lvgl\src\lv_objx/lv_spinbox.h **** } lv_spinbox_ext_t;
  54:..\..\..\lvgl\version_6.1.2\lvgl\src\lv_objx/lv_spinbox.h **** 
  55:..\..\..\lvgl\version_6.1.2\lvgl\src\lv_objx/lv_spinbox.h **** /*Styles*/
  56:..\..\..\lvgl\version_6.1.2\lvgl\src\lv_objx/lv_spinbox.h **** enum {
  57:..\..\..\lvgl\version_6.1.2\lvgl\src\lv_objx/lv_spinbox.h ****     LV_SPINBOX_STYLE_BG,
  58:..\..\..\lvgl\version_6.1.2\lvgl\src\lv_objx/lv_spinbox.h ****     LV_SPINBOX_STYLE_SB,
  59:..\..\..\lvgl\version_6.1.2\lvgl\src\lv_objx/lv_spinbox.h ****     LV_SPINBOX_STYLE_CURSOR,
  60:..\..\..\lvgl\version_6.1.2\lvgl\src\lv_objx/lv_spinbox.h **** };
  61:..\..\..\lvgl\version_6.1.2\lvgl\src\lv_objx/lv_spinbox.h **** typedef uint8_t lv_spinbox_style_t;
  62:..\..\..\lvgl\version_6.1.2\lvgl\src\lv_objx/lv_spinbox.h **** 
  63:..\..\..\lvgl\version_6.1.2\lvgl\src\lv_objx/lv_spinbox.h **** /**********************
  64:..\..\..\lvgl\version_6.1.2\lvgl\src\lv_objx/lv_spinbox.h ****  * GLOBAL PROTOTYPES
  65:..\..\..\lvgl\version_6.1.2\lvgl\src\lv_objx/lv_spinbox.h ****  **********************/
  66:..\..\..\lvgl\version_6.1.2\lvgl\src\lv_objx/lv_spinbox.h **** 
  67:..\..\..\lvgl\version_6.1.2\lvgl\src\lv_objx/lv_spinbox.h **** /**
  68:..\..\..\lvgl\version_6.1.2\lvgl\src\lv_objx/lv_spinbox.h ****  * Create a spinbox objects
  69:..\..\..\lvgl\version_6.1.2\lvgl\src\lv_objx/lv_spinbox.h ****  * @param par pointer to an object, it will be the parent of the new spinbox
  70:..\..\..\lvgl\version_6.1.2\lvgl\src\lv_objx/lv_spinbox.h ****  * @param copy pointer to a spinbox object, if not NULL then the new object will be copied from it
  71:..\..\..\lvgl\version_6.1.2\lvgl\src\lv_objx/lv_spinbox.h ****  * @return pointer to the created spinbox
  72:..\..\..\lvgl\version_6.1.2\lvgl\src\lv_objx/lv_spinbox.h ****  */
  73:..\..\..\lvgl\version_6.1.2\lvgl\src\lv_objx/lv_spinbox.h **** lv_obj_t * lv_spinbox_create(lv_obj_t * par, const lv_obj_t * copy);
  74:..\..\..\lvgl\version_6.1.2\lvgl\src\lv_objx/lv_spinbox.h **** 
  75:..\..\..\lvgl\version_6.1.2\lvgl\src\lv_objx/lv_spinbox.h **** /*=====================
  76:..\..\..\lvgl\version_6.1.2\lvgl\src\lv_objx/lv_spinbox.h ****  * Setter functions
  77:..\..\..\lvgl\version_6.1.2\lvgl\src\lv_objx/lv_spinbox.h ****  *====================*/
  78:..\..\..\lvgl\version_6.1.2\lvgl\src\lv_objx/lv_spinbox.h **** 
  79:..\..\..\lvgl\version_6.1.2\lvgl\src\lv_objx/lv_spinbox.h **** /**
  80:..\..\..\lvgl\version_6.1.2\lvgl\src\lv_objx/lv_spinbox.h ****  * Set a style of a spinbox.
  81:..\..\..\lvgl\version_6.1.2\lvgl\src\lv_objx/lv_spinbox.h ****  * @param templ pointer to template object
  82:..\..\..\lvgl\version_6.1.2\lvgl\src\lv_objx/lv_spinbox.h ****  * @param type which style should be set
  83:..\..\..\lvgl\version_6.1.2\lvgl\src\lv_objx/lv_spinbox.h ****  * @param style pointer to a style
  84:..\..\..\lvgl\version_6.1.2\lvgl\src\lv_objx/lv_spinbox.h ****  */
  85:..\..\..\lvgl\version_6.1.2\lvgl\src\lv_objx/lv_spinbox.h **** static inline void lv_spinbox_set_style(lv_obj_t * spinbox, lv_spinbox_style_t type, lv_style_t * s
  86:..\..\..\lvgl\version_6.1.2\lvgl\src\lv_objx/lv_spinbox.h **** {
  87:..\..\..\lvgl\version_6.1.2\lvgl\src\lv_objx/lv_spinbox.h ****     lv_ta_set_style(spinbox, type, style);
 870              		.loc 2 87 0
 871 013e 4946     		mov	r1, r9
 872 0140 D0F82021 		ldr	r2, [r0, #288]
 873 0144 2046     		mov	r0, r4
 874              	.LVL112:
 875 0146 FFF7FEFF 		bl	lv_ta_set_style
 876              	.LVL113:
 877              	.LBE52:
 878              	.LBE51:
 879              	.LBB53:
 880              	.LBB54:
 881 014a D5F82421 		ldr	r2, [r5, #292]
 882 014e 2046     		mov	r0, r4
 883 0150 0221     		movs	r1, #2
 884 0152 FFF7FEFF 		bl	lv_ta_set_style
ARM GAS  C:\Users\pearlstl\AppData\Local\Temp\cc98wxIE.s 			page 29


 885              	.LVL114:
 886              	.LBE54:
 887              	.LBE53:
 888              	.LBB55:
 889              	.LBB56:
 890 0156 D5F82821 		ldr	r2, [r5, #296]
 891 015a 4146     		mov	r1, r8
 892 015c 2046     		mov	r0, r4
 893 015e FFF7FEFF 		bl	lv_ta_set_style
 894              	.LVL115:
 895 0162 C8E7     		b	.L83
 896              	.LVL116:
 897              	.L79:
 898              	.LBE56:
 899              	.LBE55:
 900              	.LBE50:
  59:..\..\..\lvgl\version_6.1.2\lvgl\src\lv_objx/lv_spinbox.c **** 
 901              		.loc 1 59 0
 902 0164 0020     		movs	r0, #0
 903 0166 BDE8F883 		pop	{r3, r4, r5, r6, r7, r8, r9, pc}
 904              	.LVL117:
 905              	.L111:
  65:..\..\..\lvgl\version_6.1.2\lvgl\src\lv_objx/lv_spinbox.c ****     if(ancestor_design == NULL) ancestor_design = lv_obj_get_design_cb(new_spinbox);
 906              		.loc 1 65 0 discriminator 1
 907 016a 2046     		mov	r0, r4
 908              	.LVL118:
 909 016c FFF7FEFF 		bl	lv_obj_get_signal_cb
 910              	.LVL119:
 911 0170 3060     		str	r0, [r6]
 912 0172 5AE7     		b	.L80
 913              	.L112:
  66:..\..\..\lvgl\version_6.1.2\lvgl\src\lv_objx/lv_spinbox.c **** 
 914              		.loc 1 66 0 discriminator 1
 915 0174 2046     		mov	r0, r4
 916 0176 FFF7FEFF 		bl	lv_obj_get_design_cb
 917              	.LVL120:
 918 017a 7860     		str	r0, [r7, #4]
 919 017c 5AE7     		b	.L81
 920              	.L118:
 921 017e 00BF     		.align	2
 922              	.L117:
 923 0180 00000000 		.word	.LANCHOR0
 924 0184 9F860100 		.word	99999
 925 0188 6179FEFF 		.word	-99999
 926 018c 00000000 		.word	lv_spinbox_signal
 927              		.cfi_endproc
 928              	.LFE58:
 929              		.size	lv_spinbox_create, .-lv_spinbox_create
 930              		.section	.text.lv_spinbox_set_value,"ax",%progbits
 931              		.align	2
 932              		.global	lv_spinbox_set_value
 933              		.thumb
 934              		.thumb_func
 935              		.type	lv_spinbox_set_value, %function
 936              	lv_spinbox_set_value:
 937              	.LFB59:
 125:..\..\..\lvgl\version_6.1.2\lvgl\src\lv_objx/lv_spinbox.c ****     LV_ASSERT_OBJ(spinbox, LV_OBJX_NAME);
ARM GAS  C:\Users\pearlstl\AppData\Local\Temp\cc98wxIE.s 			page 30


 938              		.loc 1 125 0
 939              		.cfi_startproc
 940              		@ args = 0, pretend = 0, frame = 0
 941              		@ frame_needed = 0, uses_anonymous_args = 0
 942              	.LVL121:
 943 0000 38B5     		push	{r3, r4, r5, lr}
 944              		.cfi_def_cfa_offset 16
 945              		.cfi_offset 3, -16
 946              		.cfi_offset 4, -12
 947              		.cfi_offset 5, -8
 948              		.cfi_offset 14, -4
 125:..\..\..\lvgl\version_6.1.2\lvgl\src\lv_objx/lv_spinbox.c ****     LV_ASSERT_OBJ(spinbox, LV_OBJX_NAME);
 949              		.loc 1 125 0
 950 0002 0C46     		mov	r4, r1
 951 0004 0546     		mov	r5, r0
 128:..\..\..\lvgl\version_6.1.2\lvgl\src\lv_objx/lv_spinbox.c ****     if(ext == NULL) return;
 952              		.loc 1 128 0
 953 0006 FFF7FEFF 		bl	lv_obj_get_ext_attr
 954              	.LVL122:
 129:..\..\..\lvgl\version_6.1.2\lvgl\src\lv_objx/lv_spinbox.c **** 
 955              		.loc 1 129 0
 956 000a 70B1     		cbz	r0, .L119
 131:..\..\..\lvgl\version_6.1.2\lvgl\src\lv_objx/lv_spinbox.c ****     if(i < ext->range_min) i = ext->range_min;
 957              		.loc 1 131 0
 958 000c 416E     		ldr	r1, [r0, #100]
 132:..\..\..\lvgl\version_6.1.2\lvgl\src\lv_objx/lv_spinbox.c **** 
 959              		.loc 1 132 0
 960 000e 826E     		ldr	r2, [r0, #104]
 961 0010 8C42     		cmp	r4, r1
 962 0012 A8BF     		it	ge
 963 0014 0C46     		movge	r4, r1
 964              	.LVL123:
 965 0016 0346     		mov	r3, r0
 134:..\..\..\lvgl\version_6.1.2\lvgl\src\lv_objx/lv_spinbox.c **** 
 966              		.loc 1 134 0
 967 0018 9442     		cmp	r4, r2
 968 001a B8BF     		it	lt
 969 001c 1446     		movlt	r4, r2
 970              	.LVL124:
 136:..\..\..\lvgl\version_6.1.2\lvgl\src\lv_objx/lv_spinbox.c **** }
 971              		.loc 1 136 0
 972 001e 2846     		mov	r0, r5
 973              	.LVL125:
 134:..\..\..\lvgl\version_6.1.2\lvgl\src\lv_objx/lv_spinbox.c **** 
 974              		.loc 1 134 0
 975 0020 1C66     		str	r4, [r3, #96]
 137:..\..\..\lvgl\version_6.1.2\lvgl\src\lv_objx/lv_spinbox.c **** 
 976              		.loc 1 137 0
 977 0022 BDE83840 		pop	{r3, r4, r5, lr}
 978              		.cfi_remember_state
 979              		.cfi_restore 14
 980              		.cfi_restore 5
 981              		.cfi_restore 4
 982              		.cfi_restore 3
 983              		.cfi_def_cfa_offset 0
 984              	.LVL126:
 136:..\..\..\lvgl\version_6.1.2\lvgl\src\lv_objx/lv_spinbox.c **** }
ARM GAS  C:\Users\pearlstl\AppData\Local\Temp\cc98wxIE.s 			page 31


 985              		.loc 1 136 0
 986 0026 FFF7FEBF 		b	lv_spinbox_updatevalue
 987              	.LVL127:
 988              	.L119:
 989              		.cfi_restore_state
 990 002a 38BD     		pop	{r3, r4, r5, pc}
 991              		.cfi_endproc
 992              	.LFE59:
 993              		.size	lv_spinbox_set_value, .-lv_spinbox_set_value
 994              		.section	.text.lv_spinbox_set_digit_format,"ax",%progbits
 995              		.align	2
 996              		.global	lv_spinbox_set_digit_format
 997              		.thumb
 998              		.thumb_func
 999              		.type	lv_spinbox_set_digit_format, %function
 1000              	lv_spinbox_set_digit_format:
 1001              	.LFB60:
 147:..\..\..\lvgl\version_6.1.2\lvgl\src\lv_objx/lv_spinbox.c ****     LV_ASSERT_OBJ(spinbox, LV_OBJX_NAME);
 1002              		.loc 1 147 0
 1003              		.cfi_startproc
 1004              		@ args = 0, pretend = 0, frame = 0
 1005              		@ frame_needed = 0, uses_anonymous_args = 0
 1006              	.LVL128:
 1007 0000 F8B5     		push	{r3, r4, r5, r6, r7, lr}
 1008              		.cfi_def_cfa_offset 24
 1009              		.cfi_offset 3, -24
 1010              		.cfi_offset 4, -20
 1011              		.cfi_offset 5, -16
 1012              		.cfi_offset 6, -12
 1013              		.cfi_offset 7, -8
 1014              		.cfi_offset 14, -4
 147:..\..\..\lvgl\version_6.1.2\lvgl\src\lv_objx/lv_spinbox.c ****     LV_ASSERT_OBJ(spinbox, LV_OBJX_NAME);
 1015              		.loc 1 147 0
 1016 0002 0E46     		mov	r6, r1
 1017 0004 1546     		mov	r5, r2
 1018 0006 0746     		mov	r7, r0
 150:..\..\..\lvgl\version_6.1.2\lvgl\src\lv_objx/lv_spinbox.c ****     if(ext == NULL) return;
 1019              		.loc 1 150 0
 1020 0008 FFF7FEFF 		bl	lv_obj_get_ext_attr
 1021              	.LVL129:
 151:..\..\..\lvgl\version_6.1.2\lvgl\src\lv_objx/lv_spinbox.c **** 
 1022              		.loc 1 151 0
 1023 000c 98B1     		cbz	r0, .L122
 1024              	.LVL130:
 157:..\..\..\lvgl\version_6.1.2\lvgl\src\lv_objx/lv_spinbox.c ****     ext->dec_point_pos = separator_position;
 1025              		.loc 1 157 0
 1026 000e 90F87030 		ldrb	r3, [r0, #112]	@ zero_extendqisi2
 1027 0012 102E     		cmp	r6, #16
 1028 0014 28BF     		it	cs
 1029 0016 1026     		movcs	r6, #16
 1030              	.LVL131:
 158:..\..\..\lvgl\version_6.1.2\lvgl\src\lv_objx/lv_spinbox.c **** 
 1031              		.loc 1 158 0
 1032 0018 102D     		cmp	r5, #16
 1033 001a 0446     		mov	r4, r0
 157:..\..\..\lvgl\version_6.1.2\lvgl\src\lv_objx/lv_spinbox.c ****     ext->dec_point_pos = separator_position;
 1034              		.loc 1 157 0
ARM GAS  C:\Users\pearlstl\AppData\Local\Temp\cc98wxIE.s 			page 32


 1035 001c 66F30303 		bfi	r3, r6, #0, #4
 158:..\..\..\lvgl\version_6.1.2\lvgl\src\lv_objx/lv_spinbox.c **** 
 1036              		.loc 1 158 0
 1037 0020 28BF     		it	cs
 1038 0022 1025     		movcs	r5, #16
 1039              	.LVL132:
 1040 0024 65F30713 		bfi	r3, r5, #4, #4
 160:..\..\..\lvgl\version_6.1.2\lvgl\src\lv_objx/lv_spinbox.c **** }
 1041              		.loc 1 160 0
 1042 0028 3846     		mov	r0, r7
 1043              	.LVL133:
 158:..\..\..\lvgl\version_6.1.2\lvgl\src\lv_objx/lv_spinbox.c **** 
 1044              		.loc 1 158 0
 1045 002a 84F87030 		strb	r3, [r4, #112]
 161:..\..\..\lvgl\version_6.1.2\lvgl\src\lv_objx/lv_spinbox.c **** 
 1046              		.loc 1 161 0
 1047 002e BDE8F840 		pop	{r3, r4, r5, r6, r7, lr}
 1048              		.cfi_remember_state
 1049              		.cfi_restore 14
 1050              		.cfi_restore 7
 1051              		.cfi_restore 6
 1052              		.cfi_restore 5
 1053              		.cfi_restore 4
 1054              		.cfi_restore 3
 1055              		.cfi_def_cfa_offset 0
 1056              	.LVL134:
 160:..\..\..\lvgl\version_6.1.2\lvgl\src\lv_objx/lv_spinbox.c **** }
 1057              		.loc 1 160 0
 1058 0032 FFF7FEBF 		b	lv_spinbox_updatevalue
 1059              	.LVL135:
 1060              	.L122:
 1061              		.cfi_restore_state
 1062 0036 F8BD     		pop	{r3, r4, r5, r6, r7, pc}
 1063              		.cfi_endproc
 1064              	.LFE60:
 1065              		.size	lv_spinbox_set_digit_format, .-lv_spinbox_set_digit_format
 1066              		.section	.text.lv_spinbox_set_step,"ax",%progbits
 1067              		.align	2
 1068              		.global	lv_spinbox_set_step
 1069              		.thumb
 1070              		.thumb_func
 1071              		.type	lv_spinbox_set_step, %function
 1072              	lv_spinbox_set_step:
 1073              	.LFB61:
 169:..\..\..\lvgl\version_6.1.2\lvgl\src\lv_objx/lv_spinbox.c ****     LV_ASSERT_OBJ(spinbox, LV_OBJX_NAME);
 1074              		.loc 1 169 0
 1075              		.cfi_startproc
 1076              		@ args = 0, pretend = 0, frame = 0
 1077              		@ frame_needed = 0, uses_anonymous_args = 0
 1078              	.LVL136:
 1079 0000 10B5     		push	{r4, lr}
 1080              		.cfi_def_cfa_offset 8
 1081              		.cfi_offset 4, -8
 1082              		.cfi_offset 14, -4
 169:..\..\..\lvgl\version_6.1.2\lvgl\src\lv_objx/lv_spinbox.c ****     LV_ASSERT_OBJ(spinbox, LV_OBJX_NAME);
 1083              		.loc 1 169 0
 1084 0002 0C46     		mov	r4, r1
ARM GAS  C:\Users\pearlstl\AppData\Local\Temp\cc98wxIE.s 			page 33


 172:..\..\..\lvgl\version_6.1.2\lvgl\src\lv_objx/lv_spinbox.c ****     if(ext == NULL) return;
 1085              		.loc 1 172 0
 1086 0004 FFF7FEFF 		bl	lv_obj_get_ext_attr
 1087              	.LVL137:
 173:..\..\..\lvgl\version_6.1.2\lvgl\src\lv_objx/lv_spinbox.c **** 
 1088              		.loc 1 173 0
 1089 0008 00B1     		cbz	r0, .L125
 175:..\..\..\lvgl\version_6.1.2\lvgl\src\lv_objx/lv_spinbox.c **** }
 1090              		.loc 1 175 0
 1091 000a C466     		str	r4, [r0, #108]
 1092              	.L125:
 1093 000c 10BD     		pop	{r4, pc}
 1094              		.cfi_endproc
 1095              	.LFE61:
 1096              		.size	lv_spinbox_set_step, .-lv_spinbox_set_step
 1097 000e 00BF     		.section	.text.lv_spinbox_set_range,"ax",%progbits
 1098              		.align	2
 1099              		.global	lv_spinbox_set_range
 1100              		.thumb
 1101              		.thumb_func
 1102              		.type	lv_spinbox_set_range, %function
 1103              	lv_spinbox_set_range:
 1104              	.LFB62:
 185:..\..\..\lvgl\version_6.1.2\lvgl\src\lv_objx/lv_spinbox.c ****     LV_ASSERT_OBJ(spinbox, LV_OBJX_NAME);
 1105              		.loc 1 185 0
 1106              		.cfi_startproc
 1107              		@ args = 0, pretend = 0, frame = 0
 1108              		@ frame_needed = 0, uses_anonymous_args = 0
 1109              	.LVL138:
 1110 0000 F8B5     		push	{r3, r4, r5, r6, r7, lr}
 1111              		.cfi_def_cfa_offset 24
 1112              		.cfi_offset 3, -24
 1113              		.cfi_offset 4, -20
 1114              		.cfi_offset 5, -16
 1115              		.cfi_offset 6, -12
 1116              		.cfi_offset 7, -8
 1117              		.cfi_offset 14, -4
 185:..\..\..\lvgl\version_6.1.2\lvgl\src\lv_objx/lv_spinbox.c ****     LV_ASSERT_OBJ(spinbox, LV_OBJX_NAME);
 1118              		.loc 1 185 0
 1119 0002 0D46     		mov	r5, r1
 1120 0004 1646     		mov	r6, r2
 1121 0006 0746     		mov	r7, r0
 188:..\..\..\lvgl\version_6.1.2\lvgl\src\lv_objx/lv_spinbox.c ****     if(ext == NULL) return;
 1122              		.loc 1 188 0
 1123 0008 FFF7FEFF 		bl	lv_obj_get_ext_attr
 1124              	.LVL139:
 189:..\..\..\lvgl\version_6.1.2\lvgl\src\lv_objx/lv_spinbox.c **** 
 1125              		.loc 1 189 0
 1126 000c 38B1     		cbz	r0, .L131
 194:..\..\..\lvgl\version_6.1.2\lvgl\src\lv_objx/lv_spinbox.c ****         ext->value = ext->range_max;
 1127              		.loc 1 194 0
 1128 000e 036E     		ldr	r3, [r0, #96]
 191:..\..\..\lvgl\version_6.1.2\lvgl\src\lv_objx/lv_spinbox.c ****     ext->range_min = range_min;
 1129              		.loc 1 191 0
 1130 0010 4666     		str	r6, [r0, #100]
 194:..\..\..\lvgl\version_6.1.2\lvgl\src\lv_objx/lv_spinbox.c ****         ext->value = ext->range_max;
 1131              		.loc 1 194 0
ARM GAS  C:\Users\pearlstl\AppData\Local\Temp\cc98wxIE.s 			page 34


 1132 0012 9E42     		cmp	r6, r3
 1133 0014 0446     		mov	r4, r0
 192:..\..\..\lvgl\version_6.1.2\lvgl\src\lv_objx/lv_spinbox.c **** 
 1134              		.loc 1 192 0
 1135 0016 8566     		str	r5, [r0, #104]
 194:..\..\..\lvgl\version_6.1.2\lvgl\src\lv_objx/lv_spinbox.c ****         ext->value = ext->range_max;
 1136              		.loc 1 194 0
 1137 0018 08DB     		blt	.L138
 1138              	.LVL140:
 1139              	.L134:
 198:..\..\..\lvgl\version_6.1.2\lvgl\src\lv_objx/lv_spinbox.c ****         ext->value = ext->range_min;
 1140              		.loc 1 198 0
 1141 001a 9D42     		cmp	r5, r3
 1142 001c 00DC     		bgt	.L139
 1143              	.LVL141:
 1144              	.L131:
 1145 001e F8BD     		pop	{r3, r4, r5, r6, r7, pc}
 1146              	.LVL142:
 1147              	.L139:
 199:..\..\..\lvgl\version_6.1.2\lvgl\src\lv_objx/lv_spinbox.c ****         lv_obj_invalidate(spinbox);
 1148              		.loc 1 199 0
 1149 0020 2566     		str	r5, [r4, #96]
 200:..\..\..\lvgl\version_6.1.2\lvgl\src\lv_objx/lv_spinbox.c ****     }
 1150              		.loc 1 200 0
 1151 0022 3846     		mov	r0, r7
 202:..\..\..\lvgl\version_6.1.2\lvgl\src\lv_objx/lv_spinbox.c **** 
 1152              		.loc 1 202 0
 1153 0024 BDE8F840 		pop	{r3, r4, r5, r6, r7, lr}
 1154              		.cfi_remember_state
 1155              		.cfi_restore 14
 1156              		.cfi_restore 7
 1157              		.cfi_restore 6
 1158              		.cfi_restore 5
 1159              		.cfi_restore 4
 1160              		.cfi_restore 3
 1161              		.cfi_def_cfa_offset 0
 1162              	.LVL143:
 200:..\..\..\lvgl\version_6.1.2\lvgl\src\lv_objx/lv_spinbox.c ****     }
 1163              		.loc 1 200 0
 1164 0028 FFF7FEBF 		b	lv_obj_invalidate
 1165              	.LVL144:
 1166              	.L138:
 1167              		.cfi_restore_state
 195:..\..\..\lvgl\version_6.1.2\lvgl\src\lv_objx/lv_spinbox.c ****         lv_obj_invalidate(spinbox);
 1168              		.loc 1 195 0
 1169 002c 0666     		str	r6, [r0, #96]
 196:..\..\..\lvgl\version_6.1.2\lvgl\src\lv_objx/lv_spinbox.c ****     }
 1170              		.loc 1 196 0
 1171 002e 3846     		mov	r0, r7
 1172              	.LVL145:
 1173 0030 FFF7FEFF 		bl	lv_obj_invalidate
 1174              	.LVL146:
 1175 0034 236E     		ldr	r3, [r4, #96]
 1176 0036 A56E     		ldr	r5, [r4, #104]
 1177              	.LVL147:
 1178 0038 EFE7     		b	.L134
 1179              		.cfi_endproc
ARM GAS  C:\Users\pearlstl\AppData\Local\Temp\cc98wxIE.s 			page 35


 1180              	.LFE62:
 1181              		.size	lv_spinbox_set_range, .-lv_spinbox_set_range
 1182 003a 00BF     		.section	.text.lv_spinbox_set_padding_left,"ax",%progbits
 1183              		.align	2
 1184              		.global	lv_spinbox_set_padding_left
 1185              		.thumb
 1186              		.thumb_func
 1187              		.type	lv_spinbox_set_padding_left, %function
 1188              	lv_spinbox_set_padding_left:
 1189              	.LFB63:
 210:..\..\..\lvgl\version_6.1.2\lvgl\src\lv_objx/lv_spinbox.c ****     LV_ASSERT_OBJ(spinbox, LV_OBJX_NAME);
 1190              		.loc 1 210 0
 1191              		.cfi_startproc
 1192              		@ args = 0, pretend = 0, frame = 0
 1193              		@ frame_needed = 0, uses_anonymous_args = 0
 1194              	.LVL148:
 1195 0000 38B5     		push	{r3, r4, r5, lr}
 1196              		.cfi_def_cfa_offset 16
 1197              		.cfi_offset 3, -16
 1198              		.cfi_offset 4, -12
 1199              		.cfi_offset 5, -8
 1200              		.cfi_offset 14, -4
 210:..\..\..\lvgl\version_6.1.2\lvgl\src\lv_objx/lv_spinbox.c ****     LV_ASSERT_OBJ(spinbox, LV_OBJX_NAME);
 1201              		.loc 1 210 0
 1202 0002 0C46     		mov	r4, r1
 1203 0004 0546     		mov	r5, r0
 213:..\..\..\lvgl\version_6.1.2\lvgl\src\lv_objx/lv_spinbox.c ****     ext->digit_padding_left = padding;
 1204              		.loc 1 213 0
 1205 0006 FFF7FEFF 		bl	lv_obj_get_ext_attr
 1206              	.LVL149:
 1207 000a 0346     		mov	r3, r0
 1208              	.LVL150:
 215:..\..\..\lvgl\version_6.1.2\lvgl\src\lv_objx/lv_spinbox.c **** }
 1209              		.loc 1 215 0
 1210 000c 2846     		mov	r0, r5
 1211              	.LVL151:
 214:..\..\..\lvgl\version_6.1.2\lvgl\src\lv_objx/lv_spinbox.c ****     lv_spinbox_updatevalue(spinbox);
 1212              		.loc 1 214 0
 1213 000e 93F87120 		ldrb	r2, [r3, #113]	@ zero_extendqisi2
 1214 0012 64F30302 		bfi	r2, r4, #0, #4
 1215              	.LVL152:
 1216 0016 83F87120 		strb	r2, [r3, #113]
 216:..\..\..\lvgl\version_6.1.2\lvgl\src\lv_objx/lv_spinbox.c **** 
 1217              		.loc 1 216 0
 1218 001a BDE83840 		pop	{r3, r4, r5, lr}
 1219              		.cfi_restore 14
 1220              		.cfi_restore 5
 1221              		.cfi_restore 4
 1222              		.cfi_restore 3
 1223              		.cfi_def_cfa_offset 0
 1224              	.LVL153:
 215:..\..\..\lvgl\version_6.1.2\lvgl\src\lv_objx/lv_spinbox.c **** }
 1225              		.loc 1 215 0
 1226 001e FFF7FEBF 		b	lv_spinbox_updatevalue
 1227              	.LVL154:
 1228              		.cfi_endproc
 1229              	.LFE63:
ARM GAS  C:\Users\pearlstl\AppData\Local\Temp\cc98wxIE.s 			page 36


 1230              		.size	lv_spinbox_set_padding_left, .-lv_spinbox_set_padding_left
 1231              		.section	.text.lv_spinbox_get_value,"ax",%progbits
 1232              		.align	2
 1233              		.global	lv_spinbox_get_value
 1234              		.thumb
 1235              		.thumb_func
 1236              		.type	lv_spinbox_get_value, %function
 1237              	lv_spinbox_get_value:
 1238              	.LFB64:
 228:..\..\..\lvgl\version_6.1.2\lvgl\src\lv_objx/lv_spinbox.c ****     LV_ASSERT_OBJ(spinbox, LV_OBJX_NAME);
 1239              		.loc 1 228 0
 1240              		.cfi_startproc
 1241              		@ args = 0, pretend = 0, frame = 0
 1242              		@ frame_needed = 0, uses_anonymous_args = 0
 1243              	.LVL155:
 1244 0000 08B5     		push	{r3, lr}
 1245              		.cfi_def_cfa_offset 8
 1246              		.cfi_offset 3, -8
 1247              		.cfi_offset 14, -4
 231:..\..\..\lvgl\version_6.1.2\lvgl\src\lv_objx/lv_spinbox.c **** 
 1248              		.loc 1 231 0
 1249 0002 FFF7FEFF 		bl	lv_obj_get_ext_attr
 1250              	.LVL156:
 234:..\..\..\lvgl\version_6.1.2\lvgl\src\lv_objx/lv_spinbox.c **** 
 1251              		.loc 1 234 0
 1252 0006 006E     		ldr	r0, [r0, #96]
 1253              	.LVL157:
 1254 0008 08BD     		pop	{r3, pc}
 1255              		.cfi_endproc
 1256              	.LFE64:
 1257              		.size	lv_spinbox_get_value, .-lv_spinbox_get_value
 1258 000a 00BF     		.section	.text.lv_spinbox_step_next,"ax",%progbits
 1259              		.align	2
 1260              		.global	lv_spinbox_step_next
 1261              		.thumb
 1262              		.thumb_func
 1263              		.type	lv_spinbox_step_next, %function
 1264              	lv_spinbox_step_next:
 1265              	.LFB65:
 245:..\..\..\lvgl\version_6.1.2\lvgl\src\lv_objx/lv_spinbox.c ****     LV_ASSERT_OBJ(spinbox, LV_OBJX_NAME);
 1266              		.loc 1 245 0
 1267              		.cfi_startproc
 1268              		@ args = 0, pretend = 0, frame = 0
 1269              		@ frame_needed = 0, uses_anonymous_args = 0
 1270              	.LVL158:
 1271 0000 10B5     		push	{r4, lr}
 1272              		.cfi_def_cfa_offset 8
 1273              		.cfi_offset 4, -8
 1274              		.cfi_offset 14, -4
 245:..\..\..\lvgl\version_6.1.2\lvgl\src\lv_objx/lv_spinbox.c ****     LV_ASSERT_OBJ(spinbox, LV_OBJX_NAME);
 1275              		.loc 1 245 0
 1276 0002 0446     		mov	r4, r0
 248:..\..\..\lvgl\version_6.1.2\lvgl\src\lv_objx/lv_spinbox.c **** 
 1277              		.loc 1 248 0
 1278 0004 FFF7FEFF 		bl	lv_obj_get_ext_attr
 1279              	.LVL159:
 250:..\..\..\lvgl\version_6.1.2\lvgl\src\lv_objx/lv_spinbox.c ****     if((new_step) > 0)
ARM GAS  C:\Users\pearlstl\AppData\Local\Temp\cc98wxIE.s 			page 37


 1280              		.loc 1 250 0
 1281 0008 084A     		ldr	r2, .L148
 1282 000a C36E     		ldr	r3, [r0, #108]
 248:..\..\..\lvgl\version_6.1.2\lvgl\src\lv_objx/lv_spinbox.c **** 
 1283              		.loc 1 248 0
 1284 000c 0146     		mov	r1, r0
 1285              	.LVL160:
 250:..\..\..\lvgl\version_6.1.2\lvgl\src\lv_objx/lv_spinbox.c ****     if((new_step) > 0)
 1286              		.loc 1 250 0
 1287 000e 82FB0302 		smull	r0, r2, r2, r3
 1288              	.LVL161:
 1289 0012 DB17     		asrs	r3, r3, #31
 1290 0014 C3EBA203 		rsb	r3, r3, r2, asr #2
 1291              	.LVL162:
 251:..\..\..\lvgl\version_6.1.2\lvgl\src\lv_objx/lv_spinbox.c ****         ext->step = new_step;
 1292              		.loc 1 251 0
 1293 0018 012B     		cmp	r3, #1
 1294 001a B8BF     		it	lt
 1295 001c 0123     		movlt	r3, #1
 1296              	.LVL163:
 256:..\..\..\lvgl\version_6.1.2\lvgl\src\lv_objx/lv_spinbox.c **** }
 1297              		.loc 1 256 0
 1298 001e 2046     		mov	r0, r4
 1299 0020 CB66     		str	r3, [r1, #108]
 1300              	.LVL164:
 257:..\..\..\lvgl\version_6.1.2\lvgl\src\lv_objx/lv_spinbox.c **** 
 1301              		.loc 1 257 0
 1302 0022 BDE81040 		pop	{r4, lr}
 1303              		.cfi_restore 14
 1304              		.cfi_restore 4
 1305              		.cfi_def_cfa_offset 0
 1306              	.LVL165:
 256:..\..\..\lvgl\version_6.1.2\lvgl\src\lv_objx/lv_spinbox.c **** }
 1307              		.loc 1 256 0
 1308 0026 FFF7FEBF 		b	lv_spinbox_updatevalue
 1309              	.LVL166:
 1310              	.L149:
 1311 002a 00BF     		.align	2
 1312              	.L148:
 1313 002c 67666666 		.word	1717986919
 1314              		.cfi_endproc
 1315              	.LFE65:
 1316              		.size	lv_spinbox_step_next, .-lv_spinbox_step_next
 1317              		.section	.text.lv_spinbox_step_prev,"ax",%progbits
 1318              		.align	2
 1319              		.global	lv_spinbox_step_prev
 1320              		.thumb
 1321              		.thumb_func
 1322              		.type	lv_spinbox_step_prev, %function
 1323              	lv_spinbox_step_prev:
 1324              	.LFB66:
 264:..\..\..\lvgl\version_6.1.2\lvgl\src\lv_objx/lv_spinbox.c ****     LV_ASSERT_OBJ(spinbox, LV_OBJX_NAME);
 1325              		.loc 1 264 0
 1326              		.cfi_startproc
 1327              		@ args = 0, pretend = 0, frame = 0
 1328              		@ frame_needed = 0, uses_anonymous_args = 0
 1329              	.LVL167:
ARM GAS  C:\Users\pearlstl\AppData\Local\Temp\cc98wxIE.s 			page 38


 1330 0000 10B5     		push	{r4, lr}
 1331              		.cfi_def_cfa_offset 8
 1332              		.cfi_offset 4, -8
 1333              		.cfi_offset 14, -4
 264:..\..\..\lvgl\version_6.1.2\lvgl\src\lv_objx/lv_spinbox.c ****     LV_ASSERT_OBJ(spinbox, LV_OBJX_NAME);
 1334              		.loc 1 264 0
 1335 0002 0446     		mov	r4, r0
 267:..\..\..\lvgl\version_6.1.2\lvgl\src\lv_objx/lv_spinbox.c ****     int32_t step_limit;
 1336              		.loc 1 267 0
 1337 0004 FFF7FEFF 		bl	lv_obj_get_ext_attr
 1338              	.LVL168:
 271:..\..\..\lvgl\version_6.1.2\lvgl\src\lv_objx/lv_spinbox.c **** 
 1339              		.loc 1 271 0
 1340 0008 816E     		ldr	r1, [r0, #104]
 1341 000a 426E     		ldr	r2, [r0, #100]
 270:..\..\..\lvgl\version_6.1.2\lvgl\src\lv_objx/lv_spinbox.c ****     if(new_step <= step_limit) ext->step = new_step;
 1342              		.loc 1 270 0
 1343 000c C36E     		ldr	r3, [r0, #108]
 271:..\..\..\lvgl\version_6.1.2\lvgl\src\lv_objx/lv_spinbox.c **** 
 1344              		.loc 1 271 0
 1345 000e 0029     		cmp	r1, #0
 1346 0010 B8BF     		it	lt
 1347 0012 4942     		rsblt	r1, r1, #0
 1348 0014 8A42     		cmp	r2, r1
 270:..\..\..\lvgl\version_6.1.2\lvgl\src\lv_objx/lv_spinbox.c ****     if(new_step <= step_limit) ext->step = new_step;
 1349              		.loc 1 270 0
 1350 0016 03EB8303 		add	r3, r3, r3, lsl #2
 1351 001a 4FEA4303 		lsl	r3, r3, #1
 1352              	.LVL169:
 271:..\..\..\lvgl\version_6.1.2\lvgl\src\lv_objx/lv_spinbox.c **** 
 1353              		.loc 1 271 0
 1354 001e B8BF     		it	lt
 1355 0020 0A46     		movlt	r2, r1
 1356 0022 9A42     		cmp	r2, r3
 1357 0024 A8BF     		it	ge
 1358 0026 C366     		strge	r3, [r0, #108]
 273:..\..\..\lvgl\version_6.1.2\lvgl\src\lv_objx/lv_spinbox.c **** }
 1359              		.loc 1 273 0
 1360 0028 2046     		mov	r0, r4
 1361              	.LVL170:
 274:..\..\..\lvgl\version_6.1.2\lvgl\src\lv_objx/lv_spinbox.c **** 
 1362              		.loc 1 274 0
 1363 002a BDE81040 		pop	{r4, lr}
 1364              		.cfi_restore 14
 1365              		.cfi_restore 4
 1366              		.cfi_def_cfa_offset 0
 1367              	.LVL171:
 273:..\..\..\lvgl\version_6.1.2\lvgl\src\lv_objx/lv_spinbox.c **** }
 1368              		.loc 1 273 0
 1369 002e FFF7FEBF 		b	lv_spinbox_updatevalue
 1370              	.LVL172:
 1371              		.cfi_endproc
 1372              	.LFE66:
 1373              		.size	lv_spinbox_step_prev, .-lv_spinbox_step_prev
 1374 0032 00BF     		.section	.text.lv_spinbox_increment,"ax",%progbits
 1375              		.align	2
 1376              		.global	lv_spinbox_increment
ARM GAS  C:\Users\pearlstl\AppData\Local\Temp\cc98wxIE.s 			page 39


 1377              		.thumb
 1378              		.thumb_func
 1379              		.type	lv_spinbox_increment, %function
 1380              	lv_spinbox_increment:
 1381              	.LFB67:
 281:..\..\..\lvgl\version_6.1.2\lvgl\src\lv_objx/lv_spinbox.c ****     LV_ASSERT_OBJ(spinbox, LV_OBJX_NAME);
 1382              		.loc 1 281 0
 1383              		.cfi_startproc
 1384              		@ args = 0, pretend = 0, frame = 0
 1385              		@ frame_needed = 0, uses_anonymous_args = 0
 1386              	.LVL173:
 1387 0000 38B5     		push	{r3, r4, r5, lr}
 1388              		.cfi_def_cfa_offset 16
 1389              		.cfi_offset 3, -16
 1390              		.cfi_offset 4, -12
 1391              		.cfi_offset 5, -8
 1392              		.cfi_offset 14, -4
 281:..\..\..\lvgl\version_6.1.2\lvgl\src\lv_objx/lv_spinbox.c ****     LV_ASSERT_OBJ(spinbox, LV_OBJX_NAME);
 1393              		.loc 1 281 0
 1394 0002 0546     		mov	r5, r0
 284:..\..\..\lvgl\version_6.1.2\lvgl\src\lv_objx/lv_spinbox.c **** 
 1395              		.loc 1 284 0
 1396 0004 FFF7FEFF 		bl	lv_obj_get_ext_attr
 1397              	.LVL174:
 286:..\..\..\lvgl\version_6.1.2\lvgl\src\lv_objx/lv_spinbox.c ****         /*Special mode when zero crossing*/
 1398              		.loc 1 286 0
 1399 0008 026E     		ldr	r2, [r0, #96]
 1400 000a C46E     		ldr	r4, [r0, #108]
 1401 000c 416E     		ldr	r1, [r0, #100]
 1402 000e 1319     		adds	r3, r2, r4
 1403 0010 8B42     		cmp	r3, r1
 1404 0012 0ADC     		bgt	.L154
 288:..\..\..\lvgl\version_6.1.2\lvgl\src\lv_objx/lv_spinbox.c ****         ext->value += ext->step;
 1405              		.loc 1 288 0
 1406 0014 002B     		cmp	r3, #0
 1407 0016 02DD     		ble	.L155
 288:..\..\..\lvgl\version_6.1.2\lvgl\src\lv_objx/lv_spinbox.c ****         ext->value += ext->step;
 1408              		.loc 1 288 0 is_stmt 0 discriminator 1
 1409 0018 002A     		cmp	r2, #0
 1410 001a B8BF     		it	lt
 1411 001c A31A     		sublt	r3, r4, r2
 1412              	.L155:
 289:..\..\..\lvgl\version_6.1.2\lvgl\src\lv_objx/lv_spinbox.c **** 
 1413              		.loc 1 289 0 is_stmt 1
 1414 001e 0366     		str	r3, [r0, #96]
 295:..\..\..\lvgl\version_6.1.2\lvgl\src\lv_objx/lv_spinbox.c **** }
 1415              		.loc 1 295 0
 1416 0020 2846     		mov	r0, r5
 1417              	.LVL175:
 296:..\..\..\lvgl\version_6.1.2\lvgl\src\lv_objx/lv_spinbox.c **** 
 1418              		.loc 1 296 0
 1419 0022 BDE83840 		pop	{r3, r4, r5, lr}
 1420              		.cfi_remember_state
 1421              		.cfi_restore 14
 1422              		.cfi_restore 5
 1423              		.cfi_restore 4
 1424              		.cfi_restore 3
ARM GAS  C:\Users\pearlstl\AppData\Local\Temp\cc98wxIE.s 			page 40


 1425              		.cfi_def_cfa_offset 0
 1426              	.LVL176:
 295:..\..\..\lvgl\version_6.1.2\lvgl\src\lv_objx/lv_spinbox.c **** }
 1427              		.loc 1 295 0
 1428 0026 FFF7FEBF 		b	lv_spinbox_updatevalue
 1429              	.LVL177:
 1430              	.L154:
 1431              		.cfi_restore_state
 292:..\..\..\lvgl\version_6.1.2\lvgl\src\lv_objx/lv_spinbox.c ****     }
 1432              		.loc 1 292 0
 1433 002a 0166     		str	r1, [r0, #96]
 295:..\..\..\lvgl\version_6.1.2\lvgl\src\lv_objx/lv_spinbox.c **** }
 1434              		.loc 1 295 0
 1435 002c 2846     		mov	r0, r5
 1436              	.LVL178:
 296:..\..\..\lvgl\version_6.1.2\lvgl\src\lv_objx/lv_spinbox.c **** 
 1437              		.loc 1 296 0
 1438 002e BDE83840 		pop	{r3, r4, r5, lr}
 1439              		.cfi_restore 3
 1440              		.cfi_restore 4
 1441              		.cfi_restore 5
 1442              		.cfi_restore 14
 1443              		.cfi_def_cfa_offset 0
 1444              	.LVL179:
 295:..\..\..\lvgl\version_6.1.2\lvgl\src\lv_objx/lv_spinbox.c **** }
 1445              		.loc 1 295 0
 1446 0032 FFF7FEBF 		b	lv_spinbox_updatevalue
 1447              	.LVL180:
 1448              		.cfi_endproc
 1449              	.LFE67:
 1450              		.size	lv_spinbox_increment, .-lv_spinbox_increment
 1451 0036 00BF     		.section	.text.lv_spinbox_signal,"ax",%progbits
 1452              		.align	2
 1453              		.thumb
 1454              		.thumb_func
 1455              		.type	lv_spinbox_signal, %function
 1456              	lv_spinbox_signal:
 1457              	.LFB69:
 331:..\..\..\lvgl\version_6.1.2\lvgl\src\lv_objx/lv_spinbox.c **** 
 1458              		.loc 1 331 0
 1459              		.cfi_startproc
 1460              		@ args = 0, pretend = 0, frame = 0
 1461              		@ frame_needed = 0, uses_anonymous_args = 0
 1462              	.LVL181:
 336:..\..\..\lvgl\version_6.1.2\lvgl\src\lv_objx/lv_spinbox.c ****         res = ancestor_signal(spinbox, sign, param);
 1463              		.loc 1 336 0
 1464 0000 1229     		cmp	r1, #18
 331:..\..\..\lvgl\version_6.1.2\lvgl\src\lv_objx/lv_spinbox.c **** 
 1465              		.loc 1 331 0
 1466 0002 F8B5     		push	{r3, r4, r5, r6, r7, lr}
 1467              		.cfi_def_cfa_offset 24
 1468              		.cfi_offset 3, -24
 1469              		.cfi_offset 4, -20
 1470              		.cfi_offset 5, -16
 1471              		.cfi_offset 6, -12
 1472              		.cfi_offset 7, -8
 1473              		.cfi_offset 14, -4
ARM GAS  C:\Users\pearlstl\AppData\Local\Temp\cc98wxIE.s 			page 41


 331:..\..\..\lvgl\version_6.1.2\lvgl\src\lv_objx/lv_spinbox.c **** 
 1474              		.loc 1 331 0
 1475 0004 0746     		mov	r7, r0
 1476 0006 1646     		mov	r6, r2
 336:..\..\..\lvgl\version_6.1.2\lvgl\src\lv_objx/lv_spinbox.c ****         res = ancestor_signal(spinbox, sign, param);
 1477              		.loc 1 336 0
 1478 0008 08D0     		beq	.L159
 337:..\..\..\lvgl\version_6.1.2\lvgl\src\lv_objx/lv_spinbox.c ****         if(res != LV_RES_OK) return res;
 1479              		.loc 1 337 0
 1480 000a 484B     		ldr	r3, .L191
 1481 000c 1B68     		ldr	r3, [r3]
 1482 000e 0D46     		mov	r5, r1
 1483 0010 9847     		blx	r3
 1484              	.LVL182:
 338:..\..\..\lvgl\version_6.1.2\lvgl\src\lv_objx/lv_spinbox.c ****     }
 1485              		.loc 1 338 0
 1486 0012 0128     		cmp	r0, #1
 337:..\..\..\lvgl\version_6.1.2\lvgl\src\lv_objx/lv_spinbox.c ****         if(res != LV_RES_OK) return res;
 1487              		.loc 1 337 0
 1488 0014 0446     		mov	r4, r0
 1489              	.LVL183:
 338:..\..\..\lvgl\version_6.1.2\lvgl\src\lv_objx/lv_spinbox.c ****     }
 1490              		.loc 1 338 0
 1491 0016 15D0     		beq	.L184
 1492              	.LVL184:
 1493              	.L182:
 398:..\..\..\lvgl\version_6.1.2\lvgl\src\lv_objx/lv_spinbox.c **** }
 1494              		.loc 1 398 0
 1495 0018 2046     		mov	r0, r4
 399:..\..\..\lvgl\version_6.1.2\lvgl\src\lv_objx/lv_spinbox.c **** 
 1496              		.loc 1 399 0
 1497 001a F8BD     		pop	{r3, r4, r5, r6, r7, pc}
 1498              	.LVL185:
 1499              	.L159:
 343:..\..\..\lvgl\version_6.1.2\lvgl\src\lv_objx/lv_spinbox.c ****     if(sign == LV_SIGNAL_CLEANUP) {
 1500              		.loc 1 343 0
 1501 001c FFF7FEFF 		bl	lv_obj_get_ext_attr
 1502              	.LVL186:
 1503              	.LBB69:
 376:..\..\..\lvgl\version_6.1.2\lvgl\src\lv_objx/lv_spinbox.c **** 
 1504              		.loc 1 376 0
 1505 0020 FFF7FEFF 		bl	lv_indev_get_act
 1506              	.LVL187:
 1507 0024 FFF7FEFF 		bl	lv_indev_get_type
 1508              	.LVL188:
 378:..\..\..\lvgl\version_6.1.2\lvgl\src\lv_objx/lv_spinbox.c ****         if(c == LV_KEY_RIGHT) {
 1509              		.loc 1 378 0
 1510 0028 3168     		ldr	r1, [r6]
 1511              	.LVL189:
 379:..\..\..\lvgl\version_6.1.2\lvgl\src\lv_objx/lv_spinbox.c ****             if(indev_type == LV_INDEV_TYPE_ENCODER)
 1512              		.loc 1 379 0
 1513 002a 1329     		cmp	r1, #19
 1514 002c 30D0     		beq	.L185
 384:..\..\..\lvgl\version_6.1.2\lvgl\src\lv_objx/lv_spinbox.c ****             if(indev_type == LV_INDEV_TYPE_ENCODER)
 1515              		.loc 1 384 0
 1516 002e 1429     		cmp	r1, #20
 1517 0030 14D0     		beq	.L186
ARM GAS  C:\Users\pearlstl\AppData\Local\Temp\cc98wxIE.s 			page 42


 389:..\..\..\lvgl\version_6.1.2\lvgl\src\lv_objx/lv_spinbox.c ****             lv_spinbox_increment(spinbox);
 1518              		.loc 1 389 0
 1519 0032 1129     		cmp	r1, #17
 390:..\..\..\lvgl\version_6.1.2\lvgl\src\lv_objx/lv_spinbox.c ****         } else if(c == LV_KEY_DOWN) {
 1520              		.loc 1 390 0
 1521 0034 3846     		mov	r0, r7
 1522              	.LVL190:
 389:..\..\..\lvgl\version_6.1.2\lvgl\src\lv_objx/lv_spinbox.c ****             lv_spinbox_increment(spinbox);
 1523              		.loc 1 389 0
 1524 0036 75D0     		beq	.L187
 1525              	.LVL191:
 391:..\..\..\lvgl\version_6.1.2\lvgl\src\lv_objx/lv_spinbox.c ****             lv_spinbox_decrement(spinbox);
 1526              		.loc 1 391 0
 1527 0038 1229     		cmp	r1, #18
 1528 003a 3FD0     		beq	.L188
 394:..\..\..\lvgl\version_6.1.2\lvgl\src\lv_objx/lv_spinbox.c ****         }
 1529              		.loc 1 394 0
 1530 003c FFF7FEFF 		bl	lv_ta_add_char
 1531              	.LVL192:
 1532              	.LBE69:
 398:..\..\..\lvgl\version_6.1.2\lvgl\src\lv_objx/lv_spinbox.c **** }
 1533              		.loc 1 398 0
 1534 0040 0120     		movs	r0, #1
 1535 0042 F8BD     		pop	{r3, r4, r5, r6, r7, pc}
 1536              	.LVL193:
 1537              	.L184:
 340:..\..\..\lvgl\version_6.1.2\lvgl\src\lv_objx/lv_spinbox.c **** 
 1538              		.loc 1 340 0
 1539 0044 072D     		cmp	r5, #7
 1540 0046 05D1     		bne	.L161
 340:..\..\..\lvgl\version_6.1.2\lvgl\src\lv_objx/lv_spinbox.c **** 
 1541              		.loc 1 340 0 is_stmt 0 discriminator 1
 1542 0048 3046     		mov	r0, r6
 1543 004a 3949     		ldr	r1, .L191+4
 399:..\..\..\lvgl\version_6.1.2\lvgl\src\lv_objx/lv_spinbox.c **** 
 1544              		.loc 1 399 0 is_stmt 1 discriminator 1
 1545 004c BDE8F840 		pop	{r3, r4, r5, r6, r7, lr}
 1546              		.cfi_remember_state
 1547              		.cfi_restore 14
 1548              		.cfi_restore 7
 1549              		.cfi_restore 6
 1550              		.cfi_restore 5
 1551              		.cfi_restore 4
 1552              		.cfi_restore 3
 1553              		.cfi_def_cfa_offset 0
 1554              	.LVL194:
 340:..\..\..\lvgl\version_6.1.2\lvgl\src\lv_objx/lv_spinbox.c **** 
 1555              		.loc 1 340 0 discriminator 1
 1556 0050 FFF7FEBF 		b	lv_obj_handle_get_type_signal
 1557              	.LVL195:
 1558              	.L161:
 1559              		.cfi_restore_state
 343:..\..\..\lvgl\version_6.1.2\lvgl\src\lv_objx/lv_spinbox.c ****     if(sign == LV_SIGNAL_CLEANUP) {
 1560              		.loc 1 343 0
 1561 0054 3846     		mov	r0, r7
 1562 0056 FFF7FEFF 		bl	lv_obj_get_ext_attr
 1563              	.LVL196:
ARM GAS  C:\Users\pearlstl\AppData\Local\Temp\cc98wxIE.s 			page 43


 1564 005a DDE7     		b	.L182
 1565              	.LVL197:
 1566              	.L186:
 1567              	.LBB86:
 385:..\..\..\lvgl\version_6.1.2\lvgl\src\lv_objx/lv_spinbox.c ****                 lv_spinbox_decrement(spinbox);
 1568              		.loc 1 385 0
 1569 005c 0428     		cmp	r0, #4
 1570              	.LBB70:
 1571              	.LBB71:
 306:..\..\..\lvgl\version_6.1.2\lvgl\src\lv_objx/lv_spinbox.c **** 
 1572              		.loc 1 306 0
 1573 005e 3846     		mov	r0, r7
 1574              	.LVL198:
 1575              	.LBE71:
 1576              	.LBE70:
 385:..\..\..\lvgl\version_6.1.2\lvgl\src\lv_objx/lv_spinbox.c ****                 lv_spinbox_decrement(spinbox);
 1577              		.loc 1 385 0
 1578 0060 4FD0     		beq	.L189
 1579              	.LVL199:
 1580              	.LBB73:
 1581              	.LBB74:
 267:..\..\..\lvgl\version_6.1.2\lvgl\src\lv_objx/lv_spinbox.c ****     int32_t step_limit;
 1582              		.loc 1 267 0
 1583 0062 FFF7FEFF 		bl	lv_obj_get_ext_attr
 1584              	.LVL200:
 271:..\..\..\lvgl\version_6.1.2\lvgl\src\lv_objx/lv_spinbox.c **** 
 1585              		.loc 1 271 0
 1586 0066 816E     		ldr	r1, [r0, #104]
 1587 0068 426E     		ldr	r2, [r0, #100]
 270:..\..\..\lvgl\version_6.1.2\lvgl\src\lv_objx/lv_spinbox.c ****     if(new_step <= step_limit) ext->step = new_step;
 1588              		.loc 1 270 0
 1589 006a C36E     		ldr	r3, [r0, #108]
 271:..\..\..\lvgl\version_6.1.2\lvgl\src\lv_objx/lv_spinbox.c **** 
 1590              		.loc 1 271 0
 1591 006c 0029     		cmp	r1, #0
 1592 006e B8BF     		it	lt
 1593 0070 4942     		rsblt	r1, r1, #0
 1594 0072 8A42     		cmp	r2, r1
 270:..\..\..\lvgl\version_6.1.2\lvgl\src\lv_objx/lv_spinbox.c ****     if(new_step <= step_limit) ext->step = new_step;
 1595              		.loc 1 270 0
 1596 0074 03EB8303 		add	r3, r3, r3, lsl #2
 1597 0078 4FEA4303 		lsl	r3, r3, #1
 1598              	.LVL201:
 271:..\..\..\lvgl\version_6.1.2\lvgl\src\lv_objx/lv_spinbox.c **** 
 1599              		.loc 1 271 0
 1600 007c B8BF     		it	lt
 1601 007e 0A46     		movlt	r2, r1
 1602 0080 9A42     		cmp	r2, r3
 1603 0082 00DB     		blt	.L165
 1604 0084 C366     		str	r3, [r0, #108]
 1605              	.LVL202:
 1606              	.L165:
 1607              	.LBE74:
 1608              	.LBE73:
 1609              	.LBB75:
 1610              	.LBB76:
 295:..\..\..\lvgl\version_6.1.2\lvgl\src\lv_objx/lv_spinbox.c **** }
ARM GAS  C:\Users\pearlstl\AppData\Local\Temp\cc98wxIE.s 			page 44


 1611              		.loc 1 295 0
 1612 0086 3846     		mov	r0, r7
 1613 0088 FFF7FEFF 		bl	lv_spinbox_updatevalue
 1614              	.LVL203:
 1615              	.LBE76:
 1616              	.LBE75:
 1617              	.LBE86:
 398:..\..\..\lvgl\version_6.1.2\lvgl\src\lv_objx/lv_spinbox.c **** }
 1618              		.loc 1 398 0
 1619 008c 0120     		movs	r0, #1
 1620 008e F8BD     		pop	{r3, r4, r5, r6, r7, pc}
 1621              	.LVL204:
 1622              	.L185:
 1623              	.LBB87:
 380:..\..\..\lvgl\version_6.1.2\lvgl\src\lv_objx/lv_spinbox.c ****                 lv_spinbox_increment(spinbox);
 1624              		.loc 1 380 0
 1625 0090 0428     		cmp	r0, #4
 1626              	.LBB79:
 1627              	.LBB77:
 284:..\..\..\lvgl\version_6.1.2\lvgl\src\lv_objx/lv_spinbox.c **** 
 1628              		.loc 1 284 0
 1629 0092 3846     		mov	r0, r7
 1630              	.LVL205:
 1631              	.LBE77:
 1632              	.LBE79:
 380:..\..\..\lvgl\version_6.1.2\lvgl\src\lv_objx/lv_spinbox.c ****                 lv_spinbox_increment(spinbox);
 1633              		.loc 1 380 0
 1634 0094 24D0     		beq	.L190
 1635              	.LVL206:
 1636              	.LBB80:
 1637              	.LBB81:
 248:..\..\..\lvgl\version_6.1.2\lvgl\src\lv_objx/lv_spinbox.c **** 
 1638              		.loc 1 248 0
 1639 0096 FFF7FEFF 		bl	lv_obj_get_ext_attr
 1640              	.LVL207:
 250:..\..\..\lvgl\version_6.1.2\lvgl\src\lv_objx/lv_spinbox.c ****     if((new_step) > 0)
 1641              		.loc 1 250 0
 1642 009a 264A     		ldr	r2, .L191+8
 1643 009c C36E     		ldr	r3, [r0, #108]
 248:..\..\..\lvgl\version_6.1.2\lvgl\src\lv_objx/lv_spinbox.c **** 
 1644              		.loc 1 248 0
 1645 009e 0146     		mov	r1, r0
 1646              	.LVL208:
 250:..\..\..\lvgl\version_6.1.2\lvgl\src\lv_objx/lv_spinbox.c ****     if((new_step) > 0)
 1647              		.loc 1 250 0
 1648 00a0 82FB0302 		smull	r0, r2, r2, r3
 1649              	.LVL209:
 1650 00a4 DB17     		asrs	r3, r3, #31
 1651 00a6 C3EBA203 		rsb	r3, r3, r2, asr #2
 1652              	.LVL210:
 254:..\..\..\lvgl\version_6.1.2\lvgl\src\lv_objx/lv_spinbox.c **** 
 1653              		.loc 1 254 0
 1654 00aa 012B     		cmp	r3, #1
 1655 00ac B8BF     		it	lt
 1656 00ae 0123     		movlt	r3, #1
 1657              	.LVL211:
 256:..\..\..\lvgl\version_6.1.2\lvgl\src\lv_objx/lv_spinbox.c **** }
ARM GAS  C:\Users\pearlstl\AppData\Local\Temp\cc98wxIE.s 			page 45


 1658              		.loc 1 256 0
 1659 00b0 3846     		mov	r0, r7
 1660 00b2 CB66     		str	r3, [r1, #108]
 1661              	.LVL212:
 1662 00b4 FFF7FEFF 		bl	lv_spinbox_updatevalue
 1663              	.LVL213:
 1664              	.LBE81:
 1665              	.LBE80:
 1666              	.LBE87:
 398:..\..\..\lvgl\version_6.1.2\lvgl\src\lv_objx/lv_spinbox.c **** }
 1667              		.loc 1 398 0
 1668 00b8 0120     		movs	r0, #1
 1669 00ba F8BD     		pop	{r3, r4, r5, r6, r7, pc}
 1670              	.LVL214:
 1671              	.L188:
 1672              	.LBB88:
 1673              	.LBB82:
 1674              	.LBB83:
 306:..\..\..\lvgl\version_6.1.2\lvgl\src\lv_objx/lv_spinbox.c **** 
 1675              		.loc 1 306 0
 1676 00bc FFF7FEFF 		bl	lv_obj_get_ext_attr
 1677              	.LVL215:
 308:..\..\..\lvgl\version_6.1.2\lvgl\src\lv_objx/lv_spinbox.c ****         /*Special mode when zero crossing*/
 1678              		.loc 1 308 0
 1679 00c0 036E     		ldr	r3, [r0, #96]
 1680 00c2 C46E     		ldr	r4, [r0, #108]
 1681 00c4 816E     		ldr	r1, [r0, #104]
 1682 00c6 1A1B     		subs	r2, r3, r4
 1683 00c8 8A42     		cmp	r2, r1
 1684 00ca 07DB     		blt	.L163
 310:..\..\..\lvgl\version_6.1.2\lvgl\src\lv_objx/lv_spinbox.c ****         ext->value -= ext->step;
 1685              		.loc 1 310 0
 1686 00cc 002A     		cmp	r2, #0
 1687 00ce 03DA     		bge	.L174
 1688 00d0 002B     		cmp	r3, #0
 1689 00d2 C4BF     		itt	gt
 1690 00d4 5B42     		rsbgt	r3, r3, #0
 1691 00d6 1A1B     		subgt	r2, r3, r4
 1692              	.LVL216:
 1693              	.L174:
 311:..\..\..\lvgl\version_6.1.2\lvgl\src\lv_objx/lv_spinbox.c ****     } else {
 1694              		.loc 1 311 0
 1695 00d8 0266     		str	r2, [r0, #96]
 1696 00da D4E7     		b	.L165
 1697              	.L163:
 1698              	.LBE83:
 1699              	.LBE82:
 1700              	.LBB84:
 1701              	.LBB78:
 292:..\..\..\lvgl\version_6.1.2\lvgl\src\lv_objx/lv_spinbox.c ****     }
 1702              		.loc 1 292 0
 1703 00dc 0166     		str	r1, [r0, #96]
 1704 00de D2E7     		b	.L165
 1705              	.LVL217:
 1706              	.L190:
 284:..\..\..\lvgl\version_6.1.2\lvgl\src\lv_objx/lv_spinbox.c **** 
 1707              		.loc 1 284 0
ARM GAS  C:\Users\pearlstl\AppData\Local\Temp\cc98wxIE.s 			page 46


 1708 00e0 FFF7FEFF 		bl	lv_obj_get_ext_attr
 1709              	.LVL218:
 286:..\..\..\lvgl\version_6.1.2\lvgl\src\lv_objx/lv_spinbox.c ****         /*Special mode when zero crossing*/
 1710              		.loc 1 286 0
 1711 00e4 036E     		ldr	r3, [r0, #96]
 1712 00e6 C26E     		ldr	r2, [r0, #108]
 1713 00e8 416E     		ldr	r1, [r0, #100]
 1714 00ea 9C18     		adds	r4, r3, r2
 1715 00ec 8C42     		cmp	r4, r1
 1716 00ee F5DC     		bgt	.L163
 288:..\..\..\lvgl\version_6.1.2\lvgl\src\lv_objx/lv_spinbox.c ****         ext->value += ext->step;
 1717              		.loc 1 288 0
 1718 00f0 002C     		cmp	r4, #0
 1719 00f2 03DD     		ble	.L164
 1720 00f4 002B     		cmp	r3, #0
 1721 00f6 BCBF     		itt	lt
 1722 00f8 5B42     		rsblt	r3, r3, #0
 1723 00fa 0366     		strlt	r3, [r0, #96]
 1724              	.L164:
 289:..\..\..\lvgl\version_6.1.2\lvgl\src\lv_objx/lv_spinbox.c **** 
 1725              		.loc 1 289 0
 1726 00fc 1344     		add	r3, r3, r2
 1727 00fe 0366     		str	r3, [r0, #96]
 1728 0100 C1E7     		b	.L165
 1729              	.LVL219:
 1730              	.L189:
 1731              	.LBE78:
 1732              	.LBE84:
 1733              	.LBB85:
 1734              	.LBB72:
 306:..\..\..\lvgl\version_6.1.2\lvgl\src\lv_objx/lv_spinbox.c **** 
 1735              		.loc 1 306 0
 1736 0102 FFF7FEFF 		bl	lv_obj_get_ext_attr
 1737              	.LVL220:
 308:..\..\..\lvgl\version_6.1.2\lvgl\src\lv_objx/lv_spinbox.c ****         /*Special mode when zero crossing*/
 1738              		.loc 1 308 0
 1739 0106 036E     		ldr	r3, [r0, #96]
 1740 0108 C16E     		ldr	r1, [r0, #108]
 1741 010a 826E     		ldr	r2, [r0, #104]
 1742 010c 5C1A     		subs	r4, r3, r1
 1743 010e 9442     		cmp	r4, r2
 1744 0110 E2DB     		blt	.L174
 310:..\..\..\lvgl\version_6.1.2\lvgl\src\lv_objx/lv_spinbox.c ****         ext->value -= ext->step;
 1745              		.loc 1 310 0
 1746 0112 002C     		cmp	r4, #0
 1747 0114 03DA     		bge	.L170
 1748 0116 002B     		cmp	r3, #0
 1749 0118 C4BF     		itt	gt
 1750 011a 5B42     		rsbgt	r3, r3, #0
 1751 011c 0366     		strgt	r3, [r0, #96]
 1752              	.L170:
 311:..\..\..\lvgl\version_6.1.2\lvgl\src\lv_objx/lv_spinbox.c ****     } else {
 1753              		.loc 1 311 0
 1754 011e 5B1A     		subs	r3, r3, r1
 1755 0120 0366     		str	r3, [r0, #96]
 1756 0122 B0E7     		b	.L165
 1757              	.LVL221:
ARM GAS  C:\Users\pearlstl\AppData\Local\Temp\cc98wxIE.s 			page 47


 1758              	.L187:
 1759              	.LBE72:
 1760              	.LBE85:
 390:..\..\..\lvgl\version_6.1.2\lvgl\src\lv_objx/lv_spinbox.c ****         } else if(c == LV_KEY_DOWN) {
 1761              		.loc 1 390 0
 1762 0124 FFF7FEFF 		bl	lv_spinbox_increment
 1763              	.LVL222:
 1764              	.LBE88:
 398:..\..\..\lvgl\version_6.1.2\lvgl\src\lv_objx/lv_spinbox.c **** }
 1765              		.loc 1 398 0
 1766 0128 0120     		movs	r0, #1
 1767              	.LBB89:
 1768 012a F8BD     		pop	{r3, r4, r5, r6, r7, pc}
 1769              	.LVL223:
 1770              	.L192:
 1771              		.align	2
 1772              	.L191:
 1773 012c 00000000 		.word	.LANCHOR0
 1774 0130 00000000 		.word	.LC0
 1775 0134 67666666 		.word	1717986919
 1776              	.LBE89:
 1777              		.cfi_endproc
 1778              	.LFE69:
 1779              		.size	lv_spinbox_signal, .-lv_spinbox_signal
 1780              		.section	.text.lv_spinbox_decrement,"ax",%progbits
 1781              		.align	2
 1782              		.global	lv_spinbox_decrement
 1783              		.thumb
 1784              		.thumb_func
 1785              		.type	lv_spinbox_decrement, %function
 1786              	lv_spinbox_decrement:
 1787              	.LFB68:
 303:..\..\..\lvgl\version_6.1.2\lvgl\src\lv_objx/lv_spinbox.c ****     LV_ASSERT_OBJ(spinbox, LV_OBJX_NAME);
 1788              		.loc 1 303 0
 1789              		.cfi_startproc
 1790              		@ args = 0, pretend = 0, frame = 0
 1791              		@ frame_needed = 0, uses_anonymous_args = 0
 1792              	.LVL224:
 1793 0000 38B5     		push	{r3, r4, r5, lr}
 1794              		.cfi_def_cfa_offset 16
 1795              		.cfi_offset 3, -16
 1796              		.cfi_offset 4, -12
 1797              		.cfi_offset 5, -8
 1798              		.cfi_offset 14, -4
 303:..\..\..\lvgl\version_6.1.2\lvgl\src\lv_objx/lv_spinbox.c ****     LV_ASSERT_OBJ(spinbox, LV_OBJX_NAME);
 1799              		.loc 1 303 0
 1800 0002 0546     		mov	r5, r0
 306:..\..\..\lvgl\version_6.1.2\lvgl\src\lv_objx/lv_spinbox.c **** 
 1801              		.loc 1 306 0
 1802 0004 FFF7FEFF 		bl	lv_obj_get_ext_attr
 1803              	.LVL225:
 308:..\..\..\lvgl\version_6.1.2\lvgl\src\lv_objx/lv_spinbox.c ****         /*Special mode when zero crossing*/
 1804              		.loc 1 308 0
 1805 0008 026E     		ldr	r2, [r0, #96]
 1806 000a C46E     		ldr	r4, [r0, #108]
 1807 000c 816E     		ldr	r1, [r0, #104]
 1808 000e 131B     		subs	r3, r2, r4
ARM GAS  C:\Users\pearlstl\AppData\Local\Temp\cc98wxIE.s 			page 48


 1809 0010 8B42     		cmp	r3, r1
 1810 0012 07DB     		blt	.L194
 310:..\..\..\lvgl\version_6.1.2\lvgl\src\lv_objx/lv_spinbox.c ****         ext->value -= ext->step;
 1811              		.loc 1 310 0
 1812 0014 002B     		cmp	r3, #0
 1813 0016 0BDB     		blt	.L198
 1814              	.L195:
 311:..\..\..\lvgl\version_6.1.2\lvgl\src\lv_objx/lv_spinbox.c ****     } else {
 1815              		.loc 1 311 0
 1816 0018 0366     		str	r3, [r0, #96]
 316:..\..\..\lvgl\version_6.1.2\lvgl\src\lv_objx/lv_spinbox.c **** }
 1817              		.loc 1 316 0
 1818 001a 2846     		mov	r0, r5
 1819              	.LVL226:
 317:..\..\..\lvgl\version_6.1.2\lvgl\src\lv_objx/lv_spinbox.c **** 
 1820              		.loc 1 317 0
 1821 001c BDE83840 		pop	{r3, r4, r5, lr}
 1822              		.cfi_remember_state
 1823              		.cfi_restore 14
 1824              		.cfi_restore 5
 1825              		.cfi_restore 4
 1826              		.cfi_restore 3
 1827              		.cfi_def_cfa_offset 0
 1828              	.LVL227:
 316:..\..\..\lvgl\version_6.1.2\lvgl\src\lv_objx/lv_spinbox.c **** }
 1829              		.loc 1 316 0
 1830 0020 FFF7FEBF 		b	lv_spinbox_updatevalue
 1831              	.LVL228:
 1832              	.L194:
 1833              		.cfi_restore_state
 313:..\..\..\lvgl\version_6.1.2\lvgl\src\lv_objx/lv_spinbox.c ****     }
 1834              		.loc 1 313 0
 1835 0024 0166     		str	r1, [r0, #96]
 316:..\..\..\lvgl\version_6.1.2\lvgl\src\lv_objx/lv_spinbox.c **** }
 1836              		.loc 1 316 0
 1837 0026 2846     		mov	r0, r5
 1838              	.LVL229:
 317:..\..\..\lvgl\version_6.1.2\lvgl\src\lv_objx/lv_spinbox.c **** 
 1839              		.loc 1 317 0
 1840 0028 BDE83840 		pop	{r3, r4, r5, lr}
 1841              		.cfi_remember_state
 1842              		.cfi_restore 3
 1843              		.cfi_restore 4
 1844              		.cfi_restore 5
 1845              		.cfi_restore 14
 1846              		.cfi_def_cfa_offset 0
 1847              	.LVL230:
 316:..\..\..\lvgl\version_6.1.2\lvgl\src\lv_objx/lv_spinbox.c **** }
 1848              		.loc 1 316 0
 1849 002c FFF7FEBF 		b	lv_spinbox_updatevalue
 1850              	.LVL231:
 1851              	.L198:
 1852              		.cfi_restore_state
 310:..\..\..\lvgl\version_6.1.2\lvgl\src\lv_objx/lv_spinbox.c ****         ext->value -= ext->step;
 1853              		.loc 1 310 0 discriminator 1
 1854 0030 002A     		cmp	r2, #0
 1855 0032 C4BF     		itt	gt
ARM GAS  C:\Users\pearlstl\AppData\Local\Temp\cc98wxIE.s 			page 49


 1856 0034 5342     		rsbgt	r3, r2, #0
 1857 0036 1B1B     		subgt	r3, r3, r4
 1858 0038 EEE7     		b	.L195
 1859              		.cfi_endproc
 1860              	.LFE68:
 1861              		.size	lv_spinbox_decrement, .-lv_spinbox_decrement
 1862 003a 00BF     		.section	.rodata.str1.4,"aMS",%progbits,1
 1863              		.align	2
 1864              	.LC0:
 1865 0000 6C765F73 		.ascii	"lv_spinbox\000"
 1865      70696E62 
 1865      6F7800
 1866              		.bss
 1867              		.align	2
 1868              		.set	.LANCHOR0,. + 0
 1869              		.type	ancestor_signal, %object
 1870              		.size	ancestor_signal, 4
 1871              	ancestor_signal:
 1872 0000 00000000 		.space	4
 1873              		.type	ancestor_design, %object
 1874              		.size	ancestor_design, 4
 1875              	ancestor_design:
 1876 0004 00000000 		.space	4
 1877              		.text
 1878              	.Letext0:
 1879              		.file 3 "c:\\program files (x86)\\cypress\\psoc creator\\4.2\\psoc creator\\import\\gnu\\arm\\5.4.
 1880              		.file 4 "c:\\program files (x86)\\cypress\\psoc creator\\4.2\\psoc creator\\import\\gnu\\arm\\5.4.
 1881              		.file 5 "..\\..\\..\\lvgl\\version_6.1.2\\lvgl\\src\\lv_objx\\../../../lv_conf.h"
 1882              		.file 6 "..\\..\\..\\lvgl\\version_6.1.2\\lvgl\\src\\lv_objx\\../lv_core/../lv_font/lv_font.h"
 1883              		.file 7 "..\\..\\..\\lvgl\\version_6.1.2\\lvgl\\src\\lv_objx\\../lv_core/../lv_misc/lv_color.h"
 1884              		.file 8 "..\\..\\..\\lvgl\\version_6.1.2\\lvgl\\src\\lv_objx\\../lv_core/../lv_misc/lv_area.h"
 1885              		.file 9 "..\\..\\..\\lvgl\\version_6.1.2\\lvgl\\src\\lv_objx\\../lv_core/../lv_misc/lv_anim.h"
 1886              		.file 10 "..\\..\\..\\lvgl\\version_6.1.2\\lvgl\\src\\lv_objx\\../lv_core/lv_style.h"
 1887              		.file 11 "..\\..\\..\\lvgl\\version_6.1.2\\lvgl\\src\\lv_objx\\../lv_core/../lv_misc/lv_types.h"
 1888              		.file 12 "..\\..\\..\\lvgl\\version_6.1.2\\lvgl\\src\\lv_objx\\../lv_core/../lv_misc/lv_ll.h"
 1889              		.file 13 "..\\..\\..\\lvgl\\version_6.1.2\\lvgl\\src\\lv_objx\\../lv_core/../lv_misc/lv_bidi.h"
 1890              		.file 14 "..\\..\\..\\lvgl\\version_6.1.2\\lvgl\\src\\lv_objx\\../lv_core/lv_obj.h"
 1891              		.file 15 "..\\..\\..\\lvgl\\version_6.1.2\\lvgl\\src\\lv_objx\\../lv_core/../lv_hal/lv_hal_indev.h
 1892              		.file 16 "..\\..\\..\\lvgl\\version_6.1.2\\lvgl\\src\\lv_objx\\../lv_objx/lv_cont.h"
 1893              		.file 17 "..\\..\\..\\lvgl\\version_6.1.2\\lvgl\\src\\lv_objx\\../lv_objx/../lv_core/../lv_core/lv
 1894              		.file 18 "..\\..\\..\\lvgl\\version_6.1.2\\lvgl\\src\\lv_objx\\../lv_objx/lv_page.h"
 1895              		.file 19 "..\\..\\..\\lvgl\\version_6.1.2\\lvgl\\src\\lv_objx\\../lv_objx/lv_ta.h"
 1896              		.file 20 "..\\..\\..\\lvgl\\version_6.1.2\\lvgl\\src\\lv_objx\\../lv_themes/lv_theme.h"
 1897              		.file 21 "..\\..\\..\\lvgl\\version_6.1.2\\lvgl\\src\\lv_objx\\../lv_misc/lv_utils.h"
 1898              		.file 22 "c:\\program files (x86)\\cypress\\psoc creator\\4.2\\psoc creator\\import\\gnu\\arm\\5.4
 1899              		.file 23 "..\\..\\..\\lvgl\\version_6.1.2\\lvgl\\src\\lv_objx\\../lv_objx/../lv_core/lv_indev.h"
 1900              		.file 24 "<built-in>"
 1901              		.section	.debug_info,"",%progbits
 1902              	.Ldebug_info0:
 1903 0000 CA220000 		.4byte	0x22ca
 1904 0004 0400     		.2byte	0x4
 1905 0006 00000000 		.4byte	.Ldebug_abbrev0
 1906 000a 04       		.byte	0x4
 1907 000b 01       		.uleb128 0x1
 1908 000c CA010000 		.4byte	.LASF310
 1909 0010 0C       		.byte	0xc
 1910 0011 36080000 		.4byte	.LASF311
ARM GAS  C:\Users\pearlstl\AppData\Local\Temp\cc98wxIE.s 			page 50


 1911 0015 160D0000 		.4byte	.LASF312
 1912 0019 F0000000 		.4byte	.Ldebug_ranges0+0xf0
 1913 001d 00000000 		.4byte	0
 1914 0021 00000000 		.4byte	.Ldebug_line0
 1915 0025 02       		.uleb128 0x2
 1916 0026 C90A0000 		.4byte	.LASF0
 1917 002a 03       		.byte	0x3
 1918 002b 1B       		.byte	0x1b
 1919 002c 30000000 		.4byte	0x30
 1920 0030 03       		.uleb128 0x3
 1921 0031 01       		.byte	0x1
 1922 0032 06       		.byte	0x6
 1923 0033 7E030000 		.4byte	.LASF2
 1924 0037 02       		.uleb128 0x2
 1925 0038 BC020000 		.4byte	.LASF1
 1926 003c 03       		.byte	0x3
 1927 003d 1D       		.byte	0x1d
 1928 003e 42000000 		.4byte	0x42
 1929 0042 03       		.uleb128 0x3
 1930 0043 01       		.byte	0x1
 1931 0044 08       		.byte	0x8
 1932 0045 19040000 		.4byte	.LASF3
 1933 0049 02       		.uleb128 0x2
 1934 004a F20B0000 		.4byte	.LASF4
 1935 004e 03       		.byte	0x3
 1936 004f 29       		.byte	0x29
 1937 0050 54000000 		.4byte	0x54
 1938 0054 03       		.uleb128 0x3
 1939 0055 02       		.byte	0x2
 1940 0056 05       		.byte	0x5
 1941 0057 ED0C0000 		.4byte	.LASF5
 1942 005b 02       		.uleb128 0x2
 1943 005c 0C050000 		.4byte	.LASF6
 1944 0060 03       		.byte	0x3
 1945 0061 2B       		.byte	0x2b
 1946 0062 66000000 		.4byte	0x66
 1947 0066 03       		.uleb128 0x3
 1948 0067 02       		.byte	0x2
 1949 0068 07       		.byte	0x7
 1950 0069 F00E0000 		.4byte	.LASF7
 1951 006d 02       		.uleb128 0x2
 1952 006e 490F0000 		.4byte	.LASF8
 1953 0072 03       		.byte	0x3
 1954 0073 3F       		.byte	0x3f
 1955 0074 78000000 		.4byte	0x78
 1956 0078 03       		.uleb128 0x3
 1957 0079 04       		.byte	0x4
 1958 007a 05       		.byte	0x5
 1959 007b F8020000 		.4byte	.LASF9
 1960 007f 02       		.uleb128 0x2
 1961 0080 E7070000 		.4byte	.LASF10
 1962 0084 03       		.byte	0x3
 1963 0085 41       		.byte	0x41
 1964 0086 8A000000 		.4byte	0x8a
 1965 008a 03       		.uleb128 0x3
 1966 008b 04       		.byte	0x4
 1967 008c 07       		.byte	0x7
ARM GAS  C:\Users\pearlstl\AppData\Local\Temp\cc98wxIE.s 			page 51


 1968 008d F9060000 		.4byte	.LASF11
 1969 0091 03       		.uleb128 0x3
 1970 0092 08       		.byte	0x8
 1971 0093 05       		.byte	0x5
 1972 0094 09080000 		.4byte	.LASF12
 1973 0098 03       		.uleb128 0x3
 1974 0099 08       		.byte	0x8
 1975 009a 07       		.byte	0x7
 1976 009b 050B0000 		.4byte	.LASF13
 1977 009f 04       		.uleb128 0x4
 1978 00a0 04       		.byte	0x4
 1979 00a1 05       		.byte	0x5
 1980 00a2 696E7400 		.ascii	"int\000"
 1981 00a6 03       		.uleb128 0x3
 1982 00a7 04       		.byte	0x4
 1983 00a8 07       		.byte	0x7
 1984 00a9 F4080000 		.4byte	.LASF14
 1985 00ad 02       		.uleb128 0x2
 1986 00ae 00000000 		.4byte	.LASF15
 1987 00b2 04       		.byte	0x4
 1988 00b3 14       		.byte	0x14
 1989 00b4 25000000 		.4byte	0x25
 1990 00b8 02       		.uleb128 0x2
 1991 00b9 8A030000 		.4byte	.LASF16
 1992 00bd 04       		.byte	0x4
 1993 00be 18       		.byte	0x18
 1994 00bf 37000000 		.4byte	0x37
 1995 00c3 02       		.uleb128 0x2
 1996 00c4 0E0D0000 		.4byte	.LASF17
 1997 00c8 04       		.byte	0x4
 1998 00c9 20       		.byte	0x20
 1999 00ca 49000000 		.4byte	0x49
 2000 00ce 02       		.uleb128 0x2
 2001 00cf 380B0000 		.4byte	.LASF18
 2002 00d3 04       		.byte	0x4
 2003 00d4 24       		.byte	0x24
 2004 00d5 5B000000 		.4byte	0x5b
 2005 00d9 02       		.uleb128 0x2
 2006 00da 83000000 		.4byte	.LASF19
 2007 00de 04       		.byte	0x4
 2008 00df 2C       		.byte	0x2c
 2009 00e0 6D000000 		.4byte	0x6d
 2010 00e4 02       		.uleb128 0x2
 2011 00e5 B70E0000 		.4byte	.LASF20
 2012 00e9 04       		.byte	0x4
 2013 00ea 30       		.byte	0x30
 2014 00eb 7F000000 		.4byte	0x7f
 2015 00ef 02       		.uleb128 0x2
 2016 00f0 100F0000 		.4byte	.LASF21
 2017 00f4 05       		.byte	0x5
 2018 00f5 3A       		.byte	0x3a
 2019 00f6 C3000000 		.4byte	0xc3
 2020 00fa 05       		.uleb128 0x5
 2021 00fb 04       		.byte	0x4
 2022 00fc 03       		.uleb128 0x3
 2023 00fd 08       		.byte	0x8
 2024 00fe 04       		.byte	0x4
ARM GAS  C:\Users\pearlstl\AppData\Local\Temp\cc98wxIE.s 			page 52


 2025 00ff ED090000 		.4byte	.LASF22
 2026 0103 06       		.uleb128 0x6
 2027 0104 08       		.byte	0x8
 2028 0105 06       		.byte	0x6
 2029 0106 2E       		.byte	0x2e
 2030 0107 54010000 		.4byte	0x154
 2031 010b 07       		.uleb128 0x7
 2032 010c 14000000 		.4byte	.LASF23
 2033 0110 06       		.byte	0x6
 2034 0111 30       		.byte	0x30
 2035 0112 CE000000 		.4byte	0xce
 2036 0116 00       		.byte	0
 2037 0117 07       		.uleb128 0x7
 2038 0118 E70C0000 		.4byte	.LASF24
 2039 011c 06       		.byte	0x6
 2040 011d 31       		.byte	0x31
 2041 011e B8000000 		.4byte	0xb8
 2042 0122 02       		.byte	0x2
 2043 0123 07       		.uleb128 0x7
 2044 0124 D00C0000 		.4byte	.LASF25
 2045 0128 06       		.byte	0x6
 2046 0129 32       		.byte	0x32
 2047 012a B8000000 		.4byte	0xb8
 2048 012e 03       		.byte	0x3
 2049 012f 07       		.uleb128 0x7
 2050 0130 54040000 		.4byte	.LASF26
 2051 0134 06       		.byte	0x6
 2052 0135 33       		.byte	0x33
 2053 0136 AD000000 		.4byte	0xad
 2054 013a 04       		.byte	0x4
 2055 013b 07       		.uleb128 0x7
 2056 013c 5A040000 		.4byte	.LASF27
 2057 0140 06       		.byte	0x6
 2058 0141 34       		.byte	0x34
 2059 0142 AD000000 		.4byte	0xad
 2060 0146 05       		.byte	0x5
 2061 0147 08       		.uleb128 0x8
 2062 0148 62707000 		.ascii	"bpp\000"
 2063 014c 06       		.byte	0x6
 2064 014d 35       		.byte	0x35
 2065 014e B8000000 		.4byte	0xb8
 2066 0152 06       		.byte	0x6
 2067 0153 00       		.byte	0
 2068 0154 02       		.uleb128 0x2
 2069 0155 51090000 		.4byte	.LASF28
 2070 0159 06       		.byte	0x6
 2071 015a 36       		.byte	0x36
 2072 015b 03010000 		.4byte	0x103
 2073 015f 09       		.uleb128 0x9
 2074 0160 BA0F0000 		.4byte	.LASF84
 2075 0164 10       		.byte	0x10
 2076 0165 06       		.byte	0x6
 2077 0166 44       		.byte	0x44
 2078 0167 B7010000 		.4byte	0x1b7
 2079 016b 07       		.uleb128 0x7
 2080 016c 3B0F0000 		.4byte	.LASF29
 2081 0170 06       		.byte	0x6
ARM GAS  C:\Users\pearlstl\AppData\Local\Temp\cc98wxIE.s 			page 53


 2082 0171 47       		.byte	0x47
 2083 0172 ED010000 		.4byte	0x1ed
 2084 0176 00       		.byte	0
 2085 0177 07       		.uleb128 0x7
 2086 0178 B1030000 		.4byte	.LASF30
 2087 017c 06       		.byte	0x6
 2088 017d 4A       		.byte	0x4a
 2089 017e 12020000 		.4byte	0x212
 2090 0182 04       		.byte	0x4
 2091 0183 07       		.uleb128 0x7
 2092 0184 D2000000 		.4byte	.LASF31
 2093 0188 06       		.byte	0x6
 2094 0189 4D       		.byte	0x4d
 2095 018a B8000000 		.4byte	0xb8
 2096 018e 08       		.byte	0x8
 2097 018f 07       		.uleb128 0x7
 2098 0190 F70C0000 		.4byte	.LASF32
 2099 0194 06       		.byte	0x6
 2100 0195 4E       		.byte	0x4e
 2101 0196 AD000000 		.4byte	0xad
 2102 019a 09       		.byte	0x9
 2103 019b 0A       		.uleb128 0xa
 2104 019c 440A0000 		.4byte	.LASF67
 2105 01a0 06       		.byte	0x6
 2106 01a1 4F       		.byte	0x4f
 2107 01a2 B8000000 		.4byte	0xb8
 2108 01a6 01       		.byte	0x1
 2109 01a7 02       		.byte	0x2
 2110 01a8 06       		.byte	0x6
 2111 01a9 0A       		.byte	0xa
 2112 01aa 08       		.uleb128 0x8
 2113 01ab 64736300 		.ascii	"dsc\000"
 2114 01af 06       		.byte	0x6
 2115 01b0 50       		.byte	0x50
 2116 01b1 FA000000 		.4byte	0xfa
 2117 01b5 0C       		.byte	0xc
 2118 01b6 00       		.byte	0
 2119 01b7 0B       		.uleb128 0xb
 2120 01b8 D5010000 		.4byte	0x1d5
 2121 01bc D5010000 		.4byte	0x1d5
 2122 01c0 0C       		.uleb128 0xc
 2123 01c1 DC010000 		.4byte	0x1dc
 2124 01c5 0C       		.uleb128 0xc
 2125 01c6 E7010000 		.4byte	0x1e7
 2126 01ca 0C       		.uleb128 0xc
 2127 01cb E4000000 		.4byte	0xe4
 2128 01cf 0C       		.uleb128 0xc
 2129 01d0 E4000000 		.4byte	0xe4
 2130 01d4 00       		.byte	0
 2131 01d5 03       		.uleb128 0x3
 2132 01d6 01       		.byte	0x1
 2133 01d7 02       		.byte	0x2
 2134 01d8 99040000 		.4byte	.LASF33
 2135 01dc 0D       		.uleb128 0xd
 2136 01dd 04       		.byte	0x4
 2137 01de E2010000 		.4byte	0x1e2
 2138 01e2 0E       		.uleb128 0xe
ARM GAS  C:\Users\pearlstl\AppData\Local\Temp\cc98wxIE.s 			page 54


 2139 01e3 5F010000 		.4byte	0x15f
 2140 01e7 0D       		.uleb128 0xd
 2141 01e8 04       		.byte	0x4
 2142 01e9 54010000 		.4byte	0x154
 2143 01ed 0D       		.uleb128 0xd
 2144 01ee 04       		.byte	0x4
 2145 01ef B7010000 		.4byte	0x1b7
 2146 01f3 0B       		.uleb128 0xb
 2147 01f4 07020000 		.4byte	0x207
 2148 01f8 07020000 		.4byte	0x207
 2149 01fc 0C       		.uleb128 0xc
 2150 01fd DC010000 		.4byte	0x1dc
 2151 0201 0C       		.uleb128 0xc
 2152 0202 E4000000 		.4byte	0xe4
 2153 0206 00       		.byte	0
 2154 0207 0D       		.uleb128 0xd
 2155 0208 04       		.byte	0x4
 2156 0209 0D020000 		.4byte	0x20d
 2157 020d 0E       		.uleb128 0xe
 2158 020e B8000000 		.4byte	0xb8
 2159 0212 0D       		.uleb128 0xd
 2160 0213 04       		.byte	0x4
 2161 0214 F3010000 		.4byte	0x1f3
 2162 0218 02       		.uleb128 0x2
 2163 0219 DD0E0000 		.4byte	.LASF34
 2164 021d 06       		.byte	0x6
 2165 021e 56       		.byte	0x56
 2166 021f 5F010000 		.4byte	0x15f
 2167 0223 06       		.uleb128 0x6
 2168 0224 04       		.byte	0x4
 2169 0225 07       		.byte	0x7
 2170 0226 F3       		.byte	0xf3
 2171 0227 5C020000 		.4byte	0x25c
 2172 022b 07       		.uleb128 0x7
 2173 022c C7030000 		.4byte	.LASF35
 2174 0230 07       		.byte	0x7
 2175 0231 F5       		.byte	0xf5
 2176 0232 B8000000 		.4byte	0xb8
 2177 0236 00       		.byte	0
 2178 0237 07       		.uleb128 0x7
 2179 0238 D70E0000 		.4byte	.LASF36
 2180 023c 07       		.byte	0x7
 2181 023d F6       		.byte	0xf6
 2182 023e B8000000 		.4byte	0xb8
 2183 0242 01       		.byte	0x1
 2184 0243 08       		.uleb128 0x8
 2185 0244 72656400 		.ascii	"red\000"
 2186 0248 07       		.byte	0x7
 2187 0249 F7       		.byte	0xf7
 2188 024a B8000000 		.4byte	0xb8
 2189 024e 02       		.byte	0x2
 2190 024f 07       		.uleb128 0x7
 2191 0250 C6020000 		.4byte	.LASF37
 2192 0254 07       		.byte	0x7
 2193 0255 F8       		.byte	0xf8
 2194 0256 B8000000 		.4byte	0xb8
 2195 025a 03       		.byte	0x3
ARM GAS  C:\Users\pearlstl\AppData\Local\Temp\cc98wxIE.s 			page 55


 2196 025b 00       		.byte	0
 2197 025c 0F       		.uleb128 0xf
 2198 025d 04       		.byte	0x4
 2199 025e 07       		.byte	0x7
 2200 025f F1       		.byte	0xf1
 2201 0260 7A020000 		.4byte	0x27a
 2202 0264 10       		.uleb128 0x10
 2203 0265 636800   		.ascii	"ch\000"
 2204 0268 07       		.byte	0x7
 2205 0269 F9       		.byte	0xf9
 2206 026a 23020000 		.4byte	0x223
 2207 026e 11       		.uleb128 0x11
 2208 026f 170C0000 		.4byte	.LASF38
 2209 0273 07       		.byte	0x7
 2210 0274 FA       		.byte	0xfa
 2211 0275 E4000000 		.4byte	0xe4
 2212 0279 00       		.byte	0
 2213 027a 02       		.uleb128 0x2
 2214 027b 3A000000 		.4byte	.LASF39
 2215 027f 07       		.byte	0x7
 2216 0280 FB       		.byte	0xfb
 2217 0281 5C020000 		.4byte	0x25c
 2218 0285 12       		.uleb128 0x12
 2219 0286 540B0000 		.4byte	.LASF40
 2220 028a 07       		.byte	0x7
 2221 028b 0801     		.2byte	0x108
 2222 028d 7A020000 		.4byte	0x27a
 2223 0291 12       		.uleb128 0x12
 2224 0292 7A000000 		.4byte	.LASF41
 2225 0296 07       		.byte	0x7
 2226 0297 0D01     		.2byte	0x10d
 2227 0299 B8000000 		.4byte	0xb8
 2228 029d 03       		.uleb128 0x3
 2229 029e 04       		.byte	0x4
 2230 029f 07       		.byte	0x7
 2231 02a0 24000000 		.4byte	.LASF42
 2232 02a4 0D       		.uleb128 0xd
 2233 02a5 04       		.byte	0x4
 2234 02a6 AA020000 		.4byte	0x2aa
 2235 02aa 03       		.uleb128 0x3
 2236 02ab 01       		.byte	0x1
 2237 02ac 08       		.byte	0x8
 2238 02ad D6040000 		.4byte	.LASF43
 2239 02b1 0D       		.uleb128 0xd
 2240 02b2 04       		.byte	0x4
 2241 02b3 B7020000 		.4byte	0x2b7
 2242 02b7 0E       		.uleb128 0xe
 2243 02b8 AA020000 		.4byte	0x2aa
 2244 02bc 13       		.uleb128 0x13
 2245 02bd AA020000 		.4byte	0x2aa
 2246 02c1 CC020000 		.4byte	0x2cc
 2247 02c5 14       		.uleb128 0x14
 2248 02c6 9D020000 		.4byte	0x29d
 2249 02ca 17       		.byte	0x17
 2250 02cb 00       		.byte	0
 2251 02cc 06       		.uleb128 0x6
 2252 02cd 08       		.byte	0x8
ARM GAS  C:\Users\pearlstl\AppData\Local\Temp\cc98wxIE.s 			page 56


 2253 02ce 08       		.byte	0x8
 2254 02cf 31       		.byte	0x31
 2255 02d0 01030000 		.4byte	0x301
 2256 02d4 08       		.uleb128 0x8
 2257 02d5 783100   		.ascii	"x1\000"
 2258 02d8 08       		.byte	0x8
 2259 02d9 33       		.byte	0x33
 2260 02da EF000000 		.4byte	0xef
 2261 02de 00       		.byte	0
 2262 02df 08       		.uleb128 0x8
 2263 02e0 793100   		.ascii	"y1\000"
 2264 02e3 08       		.byte	0x8
 2265 02e4 34       		.byte	0x34
 2266 02e5 EF000000 		.4byte	0xef
 2267 02e9 02       		.byte	0x2
 2268 02ea 08       		.uleb128 0x8
 2269 02eb 783200   		.ascii	"x2\000"
 2270 02ee 08       		.byte	0x8
 2271 02ef 35       		.byte	0x35
 2272 02f0 EF000000 		.4byte	0xef
 2273 02f4 04       		.byte	0x4
 2274 02f5 08       		.uleb128 0x8
 2275 02f6 793200   		.ascii	"y2\000"
 2276 02f9 08       		.byte	0x8
 2277 02fa 36       		.byte	0x36
 2278 02fb EF000000 		.4byte	0xef
 2279 02ff 06       		.byte	0x6
 2280 0300 00       		.byte	0
 2281 0301 02       		.uleb128 0x2
 2282 0302 36060000 		.4byte	.LASF44
 2283 0306 08       		.byte	0x8
 2284 0307 37       		.byte	0x37
 2285 0308 CC020000 		.4byte	0x2cc
 2286 030c 02       		.uleb128 0x2
 2287 030d 34050000 		.4byte	.LASF45
 2288 0311 09       		.byte	0x9
 2289 0312 2B       		.byte	0x2b
 2290 0313 EF000000 		.4byte	0xef
 2291 0317 02       		.uleb128 0x2
 2292 0318 530F0000 		.4byte	.LASF46
 2293 031c 0A       		.byte	0xa
 2294 031d 2C       		.byte	0x2c
 2295 031e B8000000 		.4byte	0xb8
 2296 0322 02       		.uleb128 0x2
 2297 0323 6A0C0000 		.4byte	.LASF47
 2298 0327 0A       		.byte	0xa
 2299 0328 33       		.byte	0x33
 2300 0329 B8000000 		.4byte	0xb8
 2301 032d 06       		.uleb128 0x6
 2302 032e 08       		.byte	0x8
 2303 032f 0A       		.byte	0xa
 2304 0330 48       		.byte	0x48
 2305 0331 66030000 		.4byte	0x366
 2306 0335 07       		.uleb128 0x7
 2307 0336 230C0000 		.4byte	.LASF48
 2308 033a 0A       		.byte	0xa
 2309 033b 4A       		.byte	0x4a
ARM GAS  C:\Users\pearlstl\AppData\Local\Temp\cc98wxIE.s 			page 57


 2310 033c 85020000 		.4byte	0x285
 2311 0340 00       		.byte	0
 2312 0341 07       		.uleb128 0x7
 2313 0342 17080000 		.4byte	.LASF49
 2314 0346 0A       		.byte	0xa
 2315 0347 4B       		.byte	0x4b
 2316 0348 EF000000 		.4byte	0xef
 2317 034c 04       		.byte	0x4
 2318 034d 07       		.uleb128 0x7
 2319 034e DF0F0000 		.4byte	.LASF50
 2320 0352 0A       		.byte	0xa
 2321 0353 4C       		.byte	0x4c
 2322 0354 17030000 		.4byte	0x317
 2323 0358 06       		.byte	0x6
 2324 0359 08       		.uleb128 0x8
 2325 035a 6F706100 		.ascii	"opa\000"
 2326 035e 0A       		.byte	0xa
 2327 035f 4D       		.byte	0x4d
 2328 0360 91020000 		.4byte	0x291
 2329 0364 07       		.byte	0x7
 2330 0365 00       		.byte	0
 2331 0366 06       		.uleb128 0x6
 2332 0367 08       		.byte	0x8
 2333 0368 0A       		.byte	0xa
 2334 0369 51       		.byte	0x51
 2335 036a 93030000 		.4byte	0x393
 2336 036e 07       		.uleb128 0x7
 2337 036f 230C0000 		.4byte	.LASF48
 2338 0373 0A       		.byte	0xa
 2339 0374 53       		.byte	0x53
 2340 0375 85020000 		.4byte	0x285
 2341 0379 00       		.byte	0
 2342 037a 07       		.uleb128 0x7
 2343 037b 17080000 		.4byte	.LASF49
 2344 037f 0A       		.byte	0xa
 2345 0380 54       		.byte	0x54
 2346 0381 EF000000 		.4byte	0xef
 2347 0385 04       		.byte	0x4
 2348 0386 07       		.uleb128 0x7
 2349 0387 96010000 		.4byte	.LASF51
 2350 038b 0A       		.byte	0xa
 2351 038c 55       		.byte	0x55
 2352 038d 22030000 		.4byte	0x322
 2353 0391 06       		.byte	0x6
 2354 0392 00       		.byte	0
 2355 0393 06       		.uleb128 0x6
 2356 0394 0A       		.byte	0xa
 2357 0395 0A       		.byte	0xa
 2358 0396 58       		.byte	0x58
 2359 0397 D8030000 		.4byte	0x3d8
 2360 039b 08       		.uleb128 0x8
 2361 039c 746F7000 		.ascii	"top\000"
 2362 03a0 0A       		.byte	0xa
 2363 03a1 5A       		.byte	0x5a
 2364 03a2 EF000000 		.4byte	0xef
 2365 03a6 00       		.byte	0
 2366 03a7 07       		.uleb128 0x7
ARM GAS  C:\Users\pearlstl\AppData\Local\Temp\cc98wxIE.s 			page 58


 2367 03a8 2F080000 		.4byte	.LASF52
 2368 03ac 0A       		.byte	0xa
 2369 03ad 5B       		.byte	0x5b
 2370 03ae EF000000 		.4byte	0xef
 2371 03b2 02       		.byte	0x2
 2372 03b3 07       		.uleb128 0x7
 2373 03b4 96060000 		.4byte	.LASF53
 2374 03b8 0A       		.byte	0xa
 2375 03b9 5C       		.byte	0x5c
 2376 03ba EF000000 		.4byte	0xef
 2377 03be 04       		.byte	0x4
 2378 03bf 07       		.uleb128 0x7
 2379 03c0 FB070000 		.4byte	.LASF54
 2380 03c4 0A       		.byte	0xa
 2381 03c5 5D       		.byte	0x5d
 2382 03c6 EF000000 		.4byte	0xef
 2383 03ca 06       		.byte	0x6
 2384 03cb 07       		.uleb128 0x7
 2385 03cc F3060000 		.4byte	.LASF55
 2386 03d0 0A       		.byte	0xa
 2387 03d1 5E       		.byte	0x5e
 2388 03d2 EF000000 		.4byte	0xef
 2389 03d6 08       		.byte	0x8
 2390 03d7 00       		.byte	0
 2391 03d8 06       		.uleb128 0x6
 2392 03d9 28       		.byte	0x28
 2393 03da 0A       		.byte	0xa
 2394 03db 41       		.byte	0x41
 2395 03dc 35040000 		.4byte	0x435
 2396 03e0 07       		.uleb128 0x7
 2397 03e1 BE0A0000 		.4byte	.LASF56
 2398 03e5 0A       		.byte	0xa
 2399 03e6 43       		.byte	0x43
 2400 03e7 85020000 		.4byte	0x285
 2401 03eb 00       		.byte	0
 2402 03ec 07       		.uleb128 0x7
 2403 03ed 7F090000 		.4byte	.LASF57
 2404 03f1 0A       		.byte	0xa
 2405 03f2 44       		.byte	0x44
 2406 03f3 85020000 		.4byte	0x285
 2407 03f7 04       		.byte	0x4
 2408 03f8 07       		.uleb128 0x7
 2409 03f9 BE000000 		.4byte	.LASF58
 2410 03fd 0A       		.byte	0xa
 2411 03fe 45       		.byte	0x45
 2412 03ff EF000000 		.4byte	0xef
 2413 0403 08       		.byte	0x8
 2414 0404 08       		.uleb128 0x8
 2415 0405 6F706100 		.ascii	"opa\000"
 2416 0409 0A       		.byte	0xa
 2417 040a 46       		.byte	0x46
 2418 040b 91020000 		.4byte	0x291
 2419 040f 0A       		.byte	0xa
 2420 0410 07       		.uleb128 0x7
 2421 0411 2E0F0000 		.4byte	.LASF59
 2422 0415 0A       		.byte	0xa
 2423 0416 4E       		.byte	0x4e
ARM GAS  C:\Users\pearlstl\AppData\Local\Temp\cc98wxIE.s 			page 59


 2424 0417 2D030000 		.4byte	0x32d
 2425 041b 0C       		.byte	0xc
 2426 041c 07       		.uleb128 0x7
 2427 041d 240E0000 		.4byte	.LASF60
 2428 0421 0A       		.byte	0xa
 2429 0422 56       		.byte	0x56
 2430 0423 66030000 		.4byte	0x366
 2431 0427 14       		.byte	0x14
 2432 0428 07       		.uleb128 0x7
 2433 0429 A50E0000 		.4byte	.LASF61
 2434 042d 0A       		.byte	0xa
 2435 042e 5F       		.byte	0x5f
 2436 042f 93030000 		.4byte	0x393
 2437 0433 1C       		.byte	0x1c
 2438 0434 00       		.byte	0
 2439 0435 06       		.uleb128 0x6
 2440 0436 14       		.byte	0x14
 2441 0437 0A       		.byte	0xa
 2442 0438 63       		.byte	0x63
 2443 0439 86040000 		.4byte	0x486
 2444 043d 07       		.uleb128 0x7
 2445 043e 230C0000 		.4byte	.LASF48
 2446 0442 0A       		.byte	0xa
 2447 0443 65       		.byte	0x65
 2448 0444 85020000 		.4byte	0x285
 2449 0448 00       		.byte	0
 2450 0449 07       		.uleb128 0x7
 2451 044a B00F0000 		.4byte	.LASF62
 2452 044e 0A       		.byte	0xa
 2453 044f 66       		.byte	0x66
 2454 0450 85020000 		.4byte	0x285
 2455 0454 04       		.byte	0x4
 2456 0455 07       		.uleb128 0x7
 2457 0456 990C0000 		.4byte	.LASF63
 2458 045a 0A       		.byte	0xa
 2459 045b 67       		.byte	0x67
 2460 045c 86040000 		.4byte	0x486
 2461 0460 08       		.byte	0x8
 2462 0461 07       		.uleb128 0x7
 2463 0462 9E0C0000 		.4byte	.LASF64
 2464 0466 0A       		.byte	0xa
 2465 0467 68       		.byte	0x68
 2466 0468 EF000000 		.4byte	0xef
 2467 046c 0C       		.byte	0xc
 2468 046d 07       		.uleb128 0x7
 2469 046e 290C0000 		.4byte	.LASF65
 2470 0472 0A       		.byte	0xa
 2471 0473 69       		.byte	0x69
 2472 0474 EF000000 		.4byte	0xef
 2473 0478 0E       		.byte	0xe
 2474 0479 08       		.uleb128 0x8
 2475 047a 6F706100 		.ascii	"opa\000"
 2476 047e 0A       		.byte	0xa
 2477 047f 6A       		.byte	0x6a
 2478 0480 91020000 		.4byte	0x291
 2479 0484 10       		.byte	0x10
 2480 0485 00       		.byte	0
ARM GAS  C:\Users\pearlstl\AppData\Local\Temp\cc98wxIE.s 			page 60


 2481 0486 0D       		.uleb128 0xd
 2482 0487 04       		.byte	0x4
 2483 0488 8C040000 		.4byte	0x48c
 2484 048c 0E       		.uleb128 0xe
 2485 048d 18020000 		.4byte	0x218
 2486 0491 06       		.uleb128 0x6
 2487 0492 08       		.byte	0x8
 2488 0493 0A       		.byte	0xa
 2489 0494 6E       		.byte	0x6e
 2490 0495 BE040000 		.4byte	0x4be
 2491 0499 07       		.uleb128 0x7
 2492 049a 230C0000 		.4byte	.LASF48
 2493 049e 0A       		.byte	0xa
 2494 049f 70       		.byte	0x70
 2495 04a0 85020000 		.4byte	0x285
 2496 04a4 00       		.byte	0
 2497 04a5 07       		.uleb128 0x7
 2498 04a6 9A000000 		.4byte	.LASF66
 2499 04aa 0A       		.byte	0xa
 2500 04ab 71       		.byte	0x71
 2501 04ac 91020000 		.4byte	0x291
 2502 04b0 04       		.byte	0x4
 2503 04b1 08       		.uleb128 0x8
 2504 04b2 6F706100 		.ascii	"opa\000"
 2505 04b6 0A       		.byte	0xa
 2506 04b7 72       		.byte	0x72
 2507 04b8 91020000 		.4byte	0x291
 2508 04bc 05       		.byte	0x5
 2509 04bd 00       		.byte	0
 2510 04be 06       		.uleb128 0x6
 2511 04bf 08       		.byte	0x8
 2512 04c0 0A       		.byte	0xa
 2513 04c1 76       		.byte	0x76
 2514 04c2 FA040000 		.4byte	0x4fa
 2515 04c6 07       		.uleb128 0x7
 2516 04c7 230C0000 		.4byte	.LASF48
 2517 04cb 0A       		.byte	0xa
 2518 04cc 78       		.byte	0x78
 2519 04cd 85020000 		.4byte	0x285
 2520 04d1 00       		.byte	0
 2521 04d2 07       		.uleb128 0x7
 2522 04d3 17080000 		.4byte	.LASF49
 2523 04d7 0A       		.byte	0xa
 2524 04d8 79       		.byte	0x79
 2525 04d9 EF000000 		.4byte	0xef
 2526 04dd 04       		.byte	0x4
 2527 04de 08       		.uleb128 0x8
 2528 04df 6F706100 		.ascii	"opa\000"
 2529 04e3 0A       		.byte	0xa
 2530 04e4 7A       		.byte	0x7a
 2531 04e5 91020000 		.4byte	0x291
 2532 04e9 06       		.byte	0x6
 2533 04ea 0A       		.uleb128 0xa
 2534 04eb D9050000 		.4byte	.LASF68
 2535 04ef 0A       		.byte	0xa
 2536 04f0 7B       		.byte	0x7b
 2537 04f1 B8000000 		.4byte	0xb8
ARM GAS  C:\Users\pearlstl\AppData\Local\Temp\cc98wxIE.s 			page 61


 2538 04f5 01       		.byte	0x1
 2539 04f6 01       		.byte	0x1
 2540 04f7 07       		.byte	0x7
 2541 04f8 07       		.byte	0x7
 2542 04f9 00       		.byte	0
 2543 04fa 06       		.uleb128 0x6
 2544 04fb 50       		.byte	0x50
 2545 04fc 0A       		.byte	0xa
 2546 04fd 3C       		.byte	0x3c
 2547 04fe 42050000 		.4byte	0x542
 2548 0502 0A       		.uleb128 0xa
 2549 0503 CF080000 		.4byte	.LASF69
 2550 0507 0A       		.byte	0xa
 2551 0508 3E       		.byte	0x3e
 2552 0509 B8000000 		.4byte	0xb8
 2553 050d 01       		.byte	0x1
 2554 050e 01       		.byte	0x1
 2555 050f 07       		.byte	0x7
 2556 0510 00       		.byte	0
 2557 0511 07       		.uleb128 0x7
 2558 0512 E2040000 		.4byte	.LASF70
 2559 0516 0A       		.byte	0xa
 2560 0517 60       		.byte	0x60
 2561 0518 D8030000 		.4byte	0x3d8
 2562 051c 04       		.byte	0x4
 2563 051d 07       		.uleb128 0x7
 2564 051e C4050000 		.4byte	.LASF71
 2565 0522 0A       		.byte	0xa
 2566 0523 6B       		.byte	0x6b
 2567 0524 35040000 		.4byte	0x435
 2568 0528 2C       		.byte	0x2c
 2569 0529 07       		.uleb128 0x7
 2570 052a D3050000 		.4byte	.LASF72
 2571 052e 0A       		.byte	0xa
 2572 052f 73       		.byte	0x73
 2573 0530 91040000 		.4byte	0x491
 2574 0534 40       		.byte	0x40
 2575 0535 07       		.uleb128 0x7
 2576 0536 36070000 		.4byte	.LASF73
 2577 053a 0A       		.byte	0xa
 2578 053b 7C       		.byte	0x7c
 2579 053c BE040000 		.4byte	0x4be
 2580 0540 48       		.byte	0x48
 2581 0541 00       		.byte	0
 2582 0542 02       		.uleb128 0x2
 2583 0543 E8060000 		.4byte	.LASF74
 2584 0547 0A       		.byte	0xa
 2585 0548 84       		.byte	0x84
 2586 0549 FA040000 		.4byte	0x4fa
 2587 054d 0D       		.uleb128 0xd
 2588 054e 04       		.byte	0x4
 2589 054f 42050000 		.4byte	0x542
 2590 0553 15       		.uleb128 0x15
 2591 0554 01       		.byte	0x1
 2592 0555 42000000 		.4byte	0x42
 2593 0559 0B       		.byte	0xb
 2594 055a 27       		.byte	0x27
ARM GAS  C:\Users\pearlstl\AppData\Local\Temp\cc98wxIE.s 			page 62


 2595 055b 6C050000 		.4byte	0x56c
 2596 055f 16       		.uleb128 0x16
 2597 0560 79010000 		.4byte	.LASF75
 2598 0564 00       		.byte	0
 2599 0565 16       		.uleb128 0x16
 2600 0566 410B0000 		.4byte	.LASF76
 2601 056a 01       		.byte	0x1
 2602 056b 00       		.byte	0
 2603 056c 02       		.uleb128 0x2
 2604 056d E4090000 		.4byte	.LASF77
 2605 0571 0B       		.byte	0xb
 2606 0572 2C       		.byte	0x2c
 2607 0573 B8000000 		.4byte	0xb8
 2608 0577 02       		.uleb128 0x2
 2609 0578 07000000 		.4byte	.LASF78
 2610 057c 0C       		.byte	0xc
 2611 057d 1E       		.byte	0x1e
 2612 057e B8000000 		.4byte	0xb8
 2613 0582 06       		.uleb128 0x6
 2614 0583 0C       		.byte	0xc
 2615 0584 0C       		.byte	0xc
 2616 0585 21       		.byte	0x21
 2617 0586 AF050000 		.4byte	0x5af
 2618 058a 07       		.uleb128 0x7
 2619 058b E40F0000 		.4byte	.LASF79
 2620 058f 0C       		.byte	0xc
 2621 0590 23       		.byte	0x23
 2622 0591 E4000000 		.4byte	0xe4
 2623 0595 00       		.byte	0
 2624 0596 07       		.uleb128 0x7
 2625 0597 5C030000 		.4byte	.LASF80
 2626 059b 0C       		.byte	0xc
 2627 059c 24       		.byte	0x24
 2628 059d AF050000 		.4byte	0x5af
 2629 05a1 04       		.byte	0x4
 2630 05a2 07       		.uleb128 0x7
 2631 05a3 4C000000 		.4byte	.LASF81
 2632 05a7 0C       		.byte	0xc
 2633 05a8 25       		.byte	0x25
 2634 05a9 AF050000 		.4byte	0x5af
 2635 05ad 08       		.byte	0x8
 2636 05ae 00       		.byte	0
 2637 05af 0D       		.uleb128 0xd
 2638 05b0 04       		.byte	0x4
 2639 05b1 77050000 		.4byte	0x577
 2640 05b5 02       		.uleb128 0x2
 2641 05b6 010D0000 		.4byte	.LASF82
 2642 05ba 0C       		.byte	0xc
 2643 05bb 26       		.byte	0x26
 2644 05bc 82050000 		.4byte	0x582
 2645 05c0 02       		.uleb128 0x2
 2646 05c1 0B060000 		.4byte	.LASF83
 2647 05c5 0D       		.byte	0xd
 2648 05c6 30       		.byte	0x30
 2649 05c7 B8000000 		.4byte	0xb8
 2650 05cb 0D       		.uleb128 0xd
 2651 05cc 04       		.byte	0x4
ARM GAS  C:\Users\pearlstl\AppData\Local\Temp\cc98wxIE.s 			page 63


 2652 05cd D1050000 		.4byte	0x5d1
 2653 05d1 0E       		.uleb128 0xe
 2654 05d2 01030000 		.4byte	0x301
 2655 05d6 09       		.uleb128 0x9
 2656 05d7 8F0C0000 		.4byte	.LASF85
 2657 05db 40       		.byte	0x40
 2658 05dc 0E       		.byte	0xe
 2659 05dd BB       		.byte	0xbb
 2660 05de 18070000 		.4byte	0x718
 2661 05e2 08       		.uleb128 0x8
 2662 05e3 70617200 		.ascii	"par\000"
 2663 05e7 0E       		.byte	0xe
 2664 05e8 BD       		.byte	0xbd
 2665 05e9 18070000 		.4byte	0x718
 2666 05ed 00       		.byte	0
 2667 05ee 07       		.uleb128 0x7
 2668 05ef 70080000 		.4byte	.LASF86
 2669 05f3 0E       		.byte	0xe
 2670 05f4 BE       		.byte	0xbe
 2671 05f5 B5050000 		.4byte	0x5b5
 2672 05f9 04       		.byte	0x4
 2673 05fa 07       		.uleb128 0x7
 2674 05fb B90D0000 		.4byte	.LASF87
 2675 05ff 0E       		.byte	0xe
 2676 0600 C0       		.byte	0xc0
 2677 0601 01030000 		.4byte	0x301
 2678 0605 10       		.byte	0x10
 2679 0606 07       		.uleb128 0x7
 2680 0607 F2070000 		.4byte	.LASF88
 2681 060b 0E       		.byte	0xe
 2682 060c C2       		.byte	0xc2
 2683 060d 94070000 		.4byte	0x794
 2684 0611 18       		.byte	0x18
 2685 0612 07       		.uleb128 0x7
 2686 0613 AD0E0000 		.4byte	.LASF89
 2687 0617 0E       		.byte	0xe
 2688 0618 C3       		.byte	0xc3
 2689 0619 45080000 		.4byte	0x845
 2690 061d 1C       		.byte	0x1c
 2691 061e 07       		.uleb128 0x7
 2692 061f 77050000 		.4byte	.LASF90
 2693 0623 0E       		.byte	0xe
 2694 0624 C4       		.byte	0xc4
 2695 0625 5F070000 		.4byte	0x75f
 2696 0629 20       		.byte	0x20
 2697 062a 07       		.uleb128 0x7
 2698 062b 0D0A0000 		.4byte	.LASF91
 2699 062f 0E       		.byte	0xe
 2700 0630 C6       		.byte	0xc6
 2701 0631 FA000000 		.4byte	0xfa
 2702 0635 24       		.byte	0x24
 2703 0636 07       		.uleb128 0x7
 2704 0637 01080000 		.4byte	.LASF92
 2705 063b 0E       		.byte	0xe
 2706 063c C7       		.byte	0xc7
 2707 063d F2080000 		.4byte	0x8f2
 2708 0641 28       		.byte	0x28
ARM GAS  C:\Users\pearlstl\AppData\Local\Temp\cc98wxIE.s 			page 64


 2709 0642 0A       		.uleb128 0xa
 2710 0643 DE000000 		.4byte	.LASF93
 2711 0647 0E       		.byte	0xe
 2712 0648 D7       		.byte	0xd7
 2713 0649 B8000000 		.4byte	0xb8
 2714 064d 01       		.byte	0x1
 2715 064e 01       		.byte	0x1
 2716 064f 07       		.byte	0x7
 2717 0650 2C       		.byte	0x2c
 2718 0651 0A       		.uleb128 0xa
 2719 0652 7B0C0000 		.4byte	.LASF94
 2720 0656 0E       		.byte	0xe
 2721 0657 D8       		.byte	0xd8
 2722 0658 B8000000 		.4byte	0xb8
 2723 065c 01       		.byte	0x1
 2724 065d 01       		.byte	0x1
 2725 065e 06       		.byte	0x6
 2726 065f 2C       		.byte	0x2c
 2727 0660 0A       		.uleb128 0xa
 2728 0661 E1050000 		.4byte	.LASF95
 2729 0665 0E       		.byte	0xe
 2730 0666 D9       		.byte	0xd9
 2731 0667 B8000000 		.4byte	0xb8
 2732 066b 01       		.byte	0x1
 2733 066c 01       		.byte	0x1
 2734 066d 05       		.byte	0x5
 2735 066e 2C       		.byte	0x2c
 2736 066f 0A       		.uleb128 0xa
 2737 0670 390E0000 		.4byte	.LASF96
 2738 0674 0E       		.byte	0xe
 2739 0675 DA       		.byte	0xda
 2740 0676 B8000000 		.4byte	0xb8
 2741 067a 01       		.byte	0x1
 2742 067b 01       		.byte	0x1
 2743 067c 04       		.byte	0x4
 2744 067d 2C       		.byte	0x2c
 2745 067e 0A       		.uleb128 0xa
 2746 067f F1020000 		.4byte	.LASF97
 2747 0683 0E       		.byte	0xe
 2748 0684 DB       		.byte	0xdb
 2749 0685 B8000000 		.4byte	0xb8
 2750 0689 01       		.byte	0x1
 2751 068a 01       		.byte	0x1
 2752 068b 03       		.byte	0x3
 2753 068c 2C       		.byte	0x2c
 2754 068d 17       		.uleb128 0x17
 2755 068e 746F7000 		.ascii	"top\000"
 2756 0692 0E       		.byte	0xe
 2757 0693 DC       		.byte	0xdc
 2758 0694 B8000000 		.4byte	0xb8
 2759 0698 01       		.byte	0x1
 2760 0699 01       		.byte	0x1
 2761 069a 02       		.byte	0x2
 2762 069b 2C       		.byte	0x2c
 2763 069c 0A       		.uleb128 0xa
 2764 069d FC0D0000 		.4byte	.LASF98
 2765 06a1 0E       		.byte	0xe
ARM GAS  C:\Users\pearlstl\AppData\Local\Temp\cc98wxIE.s 			page 65


 2766 06a2 DD       		.byte	0xdd
 2767 06a3 B8000000 		.4byte	0xb8
 2768 06a7 01       		.byte	0x1
 2769 06a8 01       		.byte	0x1
 2770 06a9 01       		.byte	0x1
 2771 06aa 2C       		.byte	0x2c
 2772 06ab 0A       		.uleb128 0xa
 2773 06ac 96080000 		.4byte	.LASF99
 2774 06b0 0E       		.byte	0xe
 2775 06b1 DE       		.byte	0xde
 2776 06b2 B8000000 		.4byte	0xb8
 2777 06b6 01       		.byte	0x1
 2778 06b7 01       		.byte	0x1
 2779 06b8 00       		.byte	0
 2780 06b9 2C       		.byte	0x2c
 2781 06ba 0A       		.uleb128 0xa
 2782 06bb 43040000 		.4byte	.LASF100
 2783 06bf 0E       		.byte	0xe
 2784 06c0 DF       		.byte	0xdf
 2785 06c1 E7080000 		.4byte	0x8e7
 2786 06c5 01       		.byte	0x1
 2787 06c6 02       		.byte	0x2
 2788 06c7 06       		.byte	0x6
 2789 06c8 2D       		.byte	0x2d
 2790 06c9 0A       		.uleb128 0xa
 2791 06ca B40C0000 		.4byte	.LASF101
 2792 06ce 0E       		.byte	0xe
 2793 06cf E0       		.byte	0xe0
 2794 06d0 C0050000 		.4byte	0x5c0
 2795 06d4 01       		.byte	0x1
 2796 06d5 02       		.byte	0x2
 2797 06d6 04       		.byte	0x4
 2798 06d7 2D       		.byte	0x2d
 2799 06d8 0A       		.uleb128 0xa
 2800 06d9 E70E0000 		.4byte	.LASF102
 2801 06dd 0E       		.byte	0xe
 2802 06de E1       		.byte	0xe1
 2803 06df B8000000 		.4byte	0xb8
 2804 06e3 01       		.byte	0x1
 2805 06e4 03       		.byte	0x3
 2806 06e5 01       		.byte	0x1
 2807 06e6 2D       		.byte	0x2d
 2808 06e7 07       		.uleb128 0x7
 2809 06e8 7F080000 		.4byte	.LASF103
 2810 06ec 0E       		.byte	0xe
 2811 06ed E2       		.byte	0xe2
 2812 06ee B8000000 		.4byte	0xb8
 2813 06f2 2E       		.byte	0x2e
 2814 06f3 07       		.uleb128 0x7
 2815 06f4 21100000 		.4byte	.LASF104
 2816 06f8 0E       		.byte	0xe
 2817 06f9 E4       		.byte	0xe4
 2818 06fa 91020000 		.4byte	0x291
 2819 06fe 2F       		.byte	0x2f
 2820 06ff 07       		.uleb128 0x7
 2821 0700 19060000 		.4byte	.LASF105
 2822 0704 0E       		.byte	0xe
ARM GAS  C:\Users\pearlstl\AppData\Local\Temp\cc98wxIE.s 			page 66


 2823 0705 E6       		.byte	0xe6
 2824 0706 EF000000 		.4byte	0xef
 2825 070a 30       		.byte	0x30
 2826 070b 07       		.uleb128 0x7
 2827 070c B1060000 		.4byte	.LASF106
 2828 0710 0E       		.byte	0xe
 2829 0711 E9       		.byte	0xe9
 2830 0712 DC080000 		.4byte	0x8dc
 2831 0716 34       		.byte	0x34
 2832 0717 00       		.byte	0
 2833 0718 0D       		.uleb128 0xd
 2834 0719 04       		.byte	0x4
 2835 071a D6050000 		.4byte	0x5d6
 2836 071e 15       		.uleb128 0x15
 2837 071f 01       		.byte	0x1
 2838 0720 42000000 		.4byte	0x42
 2839 0724 0F       		.byte	0xf
 2840 0725 2B       		.byte	0x2b
 2841 0726 49070000 		.4byte	0x749
 2842 072a 16       		.uleb128 0x16
 2843 072b 1B0F0000 		.4byte	.LASF107
 2844 072f 00       		.byte	0
 2845 0730 16       		.uleb128 0x16
 2846 0731 160A0000 		.4byte	.LASF108
 2847 0735 01       		.byte	0x1
 2848 0736 16       		.uleb128 0x16
 2849 0737 7F0B0000 		.4byte	.LASF109
 2850 073b 02       		.byte	0x2
 2851 073c 16       		.uleb128 0x16
 2852 073d C8070000 		.4byte	.LASF110
 2853 0741 03       		.byte	0x3
 2854 0742 16       		.uleb128 0x16
 2855 0743 9B060000 		.4byte	.LASF111
 2856 0747 04       		.byte	0x4
 2857 0748 00       		.byte	0
 2858 0749 02       		.uleb128 0x2
 2859 074a 84070000 		.4byte	.LASF112
 2860 074e 0F       		.byte	0xf
 2861 074f 33       		.byte	0x33
 2862 0750 B8000000 		.4byte	0xb8
 2863 0754 02       		.uleb128 0x2
 2864 0755 330A0000 		.4byte	.LASF113
 2865 0759 0E       		.byte	0xe
 2866 075a 42       		.byte	0x42
 2867 075b B8000000 		.4byte	0xb8
 2868 075f 02       		.uleb128 0x2
 2869 0760 F20F0000 		.4byte	.LASF114
 2870 0764 0E       		.byte	0xe
 2871 0765 48       		.byte	0x48
 2872 0766 6A070000 		.4byte	0x76a
 2873 076a 0D       		.uleb128 0xd
 2874 076b 04       		.byte	0x4
 2875 076c 70070000 		.4byte	0x770
 2876 0770 0B       		.uleb128 0xb
 2877 0771 D5010000 		.4byte	0x1d5
 2878 0775 89070000 		.4byte	0x789
 2879 0779 0C       		.uleb128 0xc
ARM GAS  C:\Users\pearlstl\AppData\Local\Temp\cc98wxIE.s 			page 67


 2880 077a 18070000 		.4byte	0x718
 2881 077e 0C       		.uleb128 0xc
 2882 077f CB050000 		.4byte	0x5cb
 2883 0783 0C       		.uleb128 0xc
 2884 0784 54070000 		.4byte	0x754
 2885 0788 00       		.byte	0
 2886 0789 02       		.uleb128 0x2
 2887 078a 36010000 		.4byte	.LASF115
 2888 078e 0E       		.byte	0xe
 2889 078f 61       		.byte	0x61
 2890 0790 B8000000 		.4byte	0xb8
 2891 0794 02       		.uleb128 0x2
 2892 0795 640F0000 		.4byte	.LASF116
 2893 0799 0E       		.byte	0xe
 2894 079a 68       		.byte	0x68
 2895 079b 9F070000 		.4byte	0x79f
 2896 079f 0D       		.uleb128 0xd
 2897 07a0 04       		.byte	0x4
 2898 07a1 A5070000 		.4byte	0x7a5
 2899 07a5 18       		.uleb128 0x18
 2900 07a6 B5070000 		.4byte	0x7b5
 2901 07aa 0C       		.uleb128 0xc
 2902 07ab 18070000 		.4byte	0x718
 2903 07af 0C       		.uleb128 0xc
 2904 07b0 89070000 		.4byte	0x789
 2905 07b4 00       		.byte	0
 2906 07b5 15       		.uleb128 0x15
 2907 07b6 01       		.byte	0x1
 2908 07b7 42000000 		.4byte	0x42
 2909 07bb 0E       		.byte	0xe
 2910 07bc 6D       		.byte	0x6d
 2911 07bd 3A080000 		.4byte	0x83a
 2912 07c1 16       		.uleb128 0x16
 2913 07c2 A3080000 		.4byte	.LASF117
 2914 07c6 00       		.byte	0
 2915 07c7 16       		.uleb128 0x16
 2916 07c8 01090000 		.4byte	.LASF118
 2917 07cc 01       		.byte	0x1
 2918 07cd 16       		.uleb128 0x16
 2919 07ce 990D0000 		.4byte	.LASF119
 2920 07d2 02       		.byte	0x2
 2921 07d3 16       		.uleb128 0x16
 2922 07d4 910A0000 		.4byte	.LASF120
 2923 07d8 03       		.byte	0x3
 2924 07d9 16       		.uleb128 0x16
 2925 07da 51000000 		.4byte	.LASF121
 2926 07de 04       		.byte	0x4
 2927 07df 16       		.uleb128 0x16
 2928 07e0 5A0E0000 		.4byte	.LASF122
 2929 07e4 05       		.byte	0x5
 2930 07e5 16       		.uleb128 0x16
 2931 07e6 27040000 		.4byte	.LASF123
 2932 07ea 06       		.byte	0x6
 2933 07eb 16       		.uleb128 0x16
 2934 07ec B9060000 		.4byte	.LASF124
 2935 07f0 07       		.byte	0x7
 2936 07f1 16       		.uleb128 0x16
ARM GAS  C:\Users\pearlstl\AppData\Local\Temp\cc98wxIE.s 			page 68


 2937 07f2 84010000 		.4byte	.LASF125
 2938 07f6 08       		.byte	0x8
 2939 07f7 16       		.uleb128 0x16
 2940 07f8 D1090000 		.4byte	.LASF126
 2941 07fc 09       		.byte	0x9
 2942 07fd 16       		.uleb128 0x16
 2943 07fe 4A0A0000 		.4byte	.LASF127
 2944 0802 0A       		.byte	0xa
 2945 0803 16       		.uleb128 0x16
 2946 0804 AB0A0000 		.4byte	.LASF128
 2947 0808 0B       		.byte	0xb
 2948 0809 16       		.uleb128 0x16
 2949 080a A9000000 		.4byte	.LASF129
 2950 080e 0C       		.byte	0xc
 2951 080f 16       		.uleb128 0x16
 2952 0810 D1030000 		.4byte	.LASF130
 2953 0814 0D       		.byte	0xd
 2954 0815 16       		.uleb128 0x16
 2955 0816 F6000000 		.4byte	.LASF131
 2956 081a 0E       		.byte	0xe
 2957 081b 16       		.uleb128 0x16
 2958 081c 6A0A0000 		.4byte	.LASF132
 2959 0820 0F       		.byte	0xf
 2960 0821 16       		.uleb128 0x16
 2961 0822 46070000 		.4byte	.LASF133
 2962 0826 10       		.byte	0x10
 2963 0827 16       		.uleb128 0x16
 2964 0828 96050000 		.4byte	.LASF134
 2965 082c 11       		.byte	0x11
 2966 082d 16       		.uleb128 0x16
 2967 082e 1D080000 		.4byte	.LASF135
 2968 0832 12       		.byte	0x12
 2969 0833 16       		.uleb128 0x16
 2970 0834 94070000 		.4byte	.LASF136
 2971 0838 13       		.byte	0x13
 2972 0839 00       		.byte	0
 2973 083a 02       		.uleb128 0x2
 2974 083b E70A0000 		.4byte	.LASF137
 2975 083f 0E       		.byte	0xe
 2976 0840 88       		.byte	0x88
 2977 0841 B8000000 		.4byte	0xb8
 2978 0845 02       		.uleb128 0x2
 2979 0846 AD040000 		.4byte	.LASF138
 2980 084a 0E       		.byte	0xe
 2981 084b 8A       		.byte	0x8a
 2982 084c 50080000 		.4byte	0x850
 2983 0850 0D       		.uleb128 0xd
 2984 0851 04       		.byte	0x4
 2985 0852 56080000 		.4byte	0x856
 2986 0856 0B       		.uleb128 0xb
 2987 0857 6C050000 		.4byte	0x56c
 2988 085b 6F080000 		.4byte	0x86f
 2989 085f 0C       		.uleb128 0xc
 2990 0860 18070000 		.4byte	0x718
 2991 0864 0C       		.uleb128 0xc
 2992 0865 3A080000 		.4byte	0x83a
 2993 0869 0C       		.uleb128 0xc
ARM GAS  C:\Users\pearlstl\AppData\Local\Temp\cc98wxIE.s 			page 69


 2994 086a FA000000 		.4byte	0xfa
 2995 086e 00       		.byte	0
 2996 086f 02       		.uleb128 0x2
 2997 0870 E4000000 		.4byte	.LASF139
 2998 0874 0E       		.byte	0xe
 2999 0875 A4       		.byte	0xa4
 3000 0876 B8000000 		.4byte	0xb8
 3001 087a 06       		.uleb128 0x6
 3002 087b 0C       		.byte	0xc
 3003 087c 0E       		.byte	0xe
 3004 087d A7       		.byte	0xa7
 3005 087e D1080000 		.4byte	0x8d1
 3006 0882 07       		.uleb128 0x7
 3007 0883 E20C0000 		.4byte	.LASF140
 3008 0887 0E       		.byte	0xe
 3009 0888 A9       		.byte	0xa9
 3010 0889 D1080000 		.4byte	0x8d1
 3011 088d 00       		.byte	0
 3012 088e 07       		.uleb128 0x7
 3013 088f 340C0000 		.4byte	.LASF141
 3014 0893 0E       		.byte	0xe
 3015 0894 AA       		.byte	0xaa
 3016 0895 EF000000 		.4byte	0xef
 3017 0899 04       		.byte	0x4
 3018 089a 07       		.uleb128 0x7
 3019 089b F1040000 		.4byte	.LASF142
 3020 089f 0E       		.byte	0xe
 3021 08a0 AB       		.byte	0xab
 3022 08a1 EF000000 		.4byte	0xef
 3023 08a5 06       		.byte	0x6
 3024 08a6 07       		.uleb128 0x7
 3025 08a7 C9080000 		.4byte	.LASF143
 3026 08ab 0E       		.byte	0xe
 3027 08ac AC       		.byte	0xac
 3028 08ad 6F080000 		.4byte	0x86f
 3029 08b1 08       		.byte	0x8
 3030 08b2 0A       		.uleb128 0xa
 3031 08b3 32090000 		.4byte	.LASF144
 3032 08b7 0E       		.byte	0xe
 3033 08b8 AD       		.byte	0xad
 3034 08b9 B8000000 		.4byte	0xb8
 3035 08bd 01       		.byte	0x1
 3036 08be 01       		.byte	0x1
 3037 08bf 07       		.byte	0x7
 3038 08c0 09       		.byte	0x9
 3039 08c1 0A       		.uleb128 0xa
 3040 08c2 8C0F0000 		.4byte	.LASF145
 3041 08c6 0E       		.byte	0xe
 3042 08c7 AE       		.byte	0xae
 3043 08c8 B8000000 		.4byte	0xb8
 3044 08cc 01       		.byte	0x1
 3045 08cd 01       		.byte	0x1
 3046 08ce 06       		.byte	0x6
 3047 08cf 09       		.byte	0x9
 3048 08d0 00       		.byte	0
 3049 08d1 0D       		.uleb128 0xd
 3050 08d2 04       		.byte	0x4
ARM GAS  C:\Users\pearlstl\AppData\Local\Temp\cc98wxIE.s 			page 70


 3051 08d3 D7080000 		.4byte	0x8d7
 3052 08d7 0E       		.uleb128 0xe
 3053 08d8 D6050000 		.4byte	0x5d6
 3054 08dc 02       		.uleb128 0x2
 3055 08dd C5000000 		.4byte	.LASF146
 3056 08e1 0E       		.byte	0xe
 3057 08e2 B0       		.byte	0xb0
 3058 08e3 7A080000 		.4byte	0x87a
 3059 08e7 02       		.uleb128 0x2
 3060 08e8 F9090000 		.4byte	.LASF147
 3061 08ec 0E       		.byte	0xe
 3062 08ed B9       		.byte	0xb9
 3063 08ee B8000000 		.4byte	0xb8
 3064 08f2 0D       		.uleb128 0xd
 3065 08f3 04       		.byte	0x4
 3066 08f4 F8080000 		.4byte	0x8f8
 3067 08f8 0E       		.uleb128 0xe
 3068 08f9 42050000 		.4byte	0x542
 3069 08fd 02       		.uleb128 0x2
 3070 08fe 610C0000 		.4byte	.LASF148
 3071 0902 0E       		.byte	0xe
 3072 0903 F0       		.byte	0xf0
 3073 0904 D6050000 		.4byte	0x5d6
 3074 0908 06       		.uleb128 0x6
 3075 0909 02       		.byte	0x2
 3076 090a 10       		.byte	0x10
 3077 090b 3F       		.byte	0x3f
 3078 090c 5C090000 		.4byte	0x95c
 3079 0910 0A       		.uleb128 0xa
 3080 0911 87080000 		.4byte	.LASF149
 3081 0915 10       		.byte	0x10
 3082 0916 43       		.byte	0x43
 3083 0917 B8000000 		.4byte	0xb8
 3084 091b 01       		.byte	0x1
 3085 091c 04       		.byte	0x4
 3086 091d 04       		.byte	0x4
 3087 091e 00       		.byte	0
 3088 091f 0A       		.uleb128 0xa
 3089 0920 8A090000 		.4byte	.LASF150
 3090 0924 10       		.byte	0x10
 3091 0925 44       		.byte	0x44
 3092 0926 B8000000 		.4byte	0xb8
 3093 092a 01       		.byte	0x1
 3094 092b 02       		.byte	0x2
 3095 092c 02       		.byte	0x2
 3096 092d 00       		.byte	0
 3097 092e 0A       		.uleb128 0xa
 3098 092f 390C0000 		.4byte	.LASF151
 3099 0933 10       		.byte	0x10
 3100 0934 45       		.byte	0x45
 3101 0935 B8000000 		.4byte	0xb8
 3102 0939 01       		.byte	0x1
 3103 093a 02       		.byte	0x2
 3104 093b 00       		.byte	0
 3105 093c 00       		.byte	0
 3106 093d 0A       		.uleb128 0xa
 3107 093e A3030000 		.4byte	.LASF152
ARM GAS  C:\Users\pearlstl\AppData\Local\Temp\cc98wxIE.s 			page 71


 3108 0942 10       		.byte	0x10
 3109 0943 46       		.byte	0x46
 3110 0944 B8000000 		.4byte	0xb8
 3111 0948 01       		.byte	0x1
 3112 0949 02       		.byte	0x2
 3113 094a 06       		.byte	0x6
 3114 094b 01       		.byte	0x1
 3115 094c 0A       		.uleb128 0xa
 3116 094d A00B0000 		.4byte	.LASF153
 3117 0951 10       		.byte	0x10
 3118 0952 47       		.byte	0x47
 3119 0953 B8000000 		.4byte	0xb8
 3120 0957 01       		.byte	0x1
 3121 0958 02       		.byte	0x2
 3122 0959 04       		.byte	0x4
 3123 095a 01       		.byte	0x1
 3124 095b 00       		.byte	0
 3125 095c 02       		.uleb128 0x2
 3126 095d E6080000 		.4byte	.LASF154
 3127 0961 10       		.byte	0x10
 3128 0962 48       		.byte	0x48
 3129 0963 08090000 		.4byte	0x908
 3130 0967 15       		.uleb128 0x15
 3131 0968 01       		.byte	0x1
 3132 0969 42000000 		.4byte	0x42
 3133 096d 11       		.byte	0x11
 3134 096e 1E       		.byte	0x1e
 3135 096f BC090000 		.4byte	0x9bc
 3136 0973 16       		.uleb128 0x16
 3137 0974 9D0F0000 		.4byte	.LASF155
 3138 0978 11       		.byte	0x11
 3139 0979 16       		.uleb128 0x16
 3140 097a 940B0000 		.4byte	.LASF156
 3141 097e 12       		.byte	0x12
 3142 097f 16       		.uleb128 0x16
 3143 0980 2D000000 		.4byte	.LASF157
 3144 0984 13       		.byte	0x13
 3145 0985 16       		.uleb128 0x16
 3146 0986 72030000 		.4byte	.LASF158
 3147 098a 14       		.byte	0x14
 3148 098b 16       		.uleb128 0x16
 3149 098c AB0B0000 		.4byte	.LASF159
 3150 0990 1B       		.byte	0x1b
 3151 0991 16       		.uleb128 0x16
 3152 0992 4C030000 		.4byte	.LASF160
 3153 0996 7F       		.byte	0x7f
 3154 0997 16       		.uleb128 0x16
 3155 0998 60040000 		.4byte	.LASF161
 3156 099c 08       		.byte	0x8
 3157 099d 16       		.uleb128 0x16
 3158 099e 4F010000 		.4byte	.LASF162
 3159 09a2 0A       		.byte	0xa
 3160 09a3 16       		.uleb128 0x16
 3161 09a4 C5090000 		.4byte	.LASF163
 3162 09a8 09       		.byte	0x9
 3163 09a9 16       		.uleb128 0x16
 3164 09aa D60C0000 		.4byte	.LASF164
ARM GAS  C:\Users\pearlstl\AppData\Local\Temp\cc98wxIE.s 			page 72


 3165 09ae 0B       		.byte	0xb
 3166 09af 16       		.uleb128 0x16
 3167 09b0 0B070000 		.4byte	.LASF165
 3168 09b4 02       		.byte	0x2
 3169 09b5 16       		.uleb128 0x16
 3170 09b6 5F0A0000 		.4byte	.LASF166
 3171 09ba 03       		.byte	0x3
 3172 09bb 00       		.byte	0
 3173 09bc 02       		.uleb128 0x2
 3174 09bd 030F0000 		.4byte	.LASF167
 3175 09c1 12       		.byte	0x12
 3176 09c2 32       		.byte	0x32
 3177 09c3 B8000000 		.4byte	0xb8
 3178 09c7 06       		.uleb128 0x6
 3179 09c8 18       		.byte	0x18
 3180 09c9 12       		.byte	0x12
 3181 09ca 3E       		.byte	0x3e
 3182 09cb 210A0000 		.4byte	0xa21
 3183 09cf 07       		.uleb128 0x7
 3184 09d0 070A0000 		.4byte	.LASF168
 3185 09d4 12       		.byte	0x12
 3186 09d5 40       		.byte	0x40
 3187 09d6 F2080000 		.4byte	0x8f2
 3188 09da 00       		.byte	0
 3189 09db 07       		.uleb128 0x7
 3190 09dc A70F0000 		.4byte	.LASF169
 3191 09e0 12       		.byte	0x12
 3192 09e1 41       		.byte	0x41
 3193 09e2 01030000 		.4byte	0x301
 3194 09e6 04       		.byte	0x4
 3195 09e7 07       		.uleb128 0x7
 3196 09e8 4B0B0000 		.4byte	.LASF170
 3197 09ec 12       		.byte	0x12
 3198 09ed 42       		.byte	0x42
 3199 09ee 01030000 		.4byte	0x301
 3200 09f2 0C       		.byte	0xc
 3201 09f3 0A       		.uleb128 0xa
 3202 09f4 78060000 		.4byte	.LASF171
 3203 09f8 12       		.byte	0x12
 3204 09f9 43       		.byte	0x43
 3205 09fa B8000000 		.4byte	0xb8
 3206 09fe 01       		.byte	0x1
 3207 09ff 01       		.byte	0x1
 3208 0a00 07       		.byte	0x7
 3209 0a01 14       		.byte	0x14
 3210 0a02 0A       		.uleb128 0xa
 3211 0a03 AA010000 		.4byte	.LASF172
 3212 0a07 12       		.byte	0x12
 3213 0a08 44       		.byte	0x44
 3214 0a09 B8000000 		.4byte	0xb8
 3215 0a0d 01       		.byte	0x1
 3216 0a0e 01       		.byte	0x1
 3217 0a0f 06       		.byte	0x6
 3218 0a10 14       		.byte	0x14
 3219 0a11 0A       		.uleb128 0xa
 3220 0a12 090D0000 		.4byte	.LASF173
 3221 0a16 12       		.byte	0x12
ARM GAS  C:\Users\pearlstl\AppData\Local\Temp\cc98wxIE.s 			page 73


 3222 0a17 45       		.byte	0x45
 3223 0a18 BC090000 		.4byte	0x9bc
 3224 0a1c 01       		.byte	0x1
 3225 0a1d 03       		.byte	0x3
 3226 0a1e 03       		.byte	0x3
 3227 0a1f 14       		.byte	0x14
 3228 0a20 00       		.byte	0
 3229 0a21 06       		.uleb128 0x6
 3230 0a22 0C       		.byte	0xc
 3231 0a23 12       		.byte	0x12
 3232 0a24 48       		.byte	0x48
 3233 0a25 8D0A0000 		.4byte	0xa8d
 3234 0a29 07       		.uleb128 0x7
 3235 0a2a 41010000 		.4byte	.LASF174
 3236 0a2e 12       		.byte	0x12
 3237 0a2f 4A       		.byte	0x4a
 3238 0a30 0C030000 		.4byte	0x30c
 3239 0a34 00       		.byte	0
 3240 0a35 07       		.uleb128 0x7
 3241 0a36 070A0000 		.4byte	.LASF168
 3242 0a3a 12       		.byte	0x12
 3243 0a3b 4B       		.byte	0x4b
 3244 0a3c F2080000 		.4byte	0x8f2
 3245 0a40 04       		.byte	0x4
 3246 0a41 0A       		.uleb128 0xa
 3247 0a42 E0060000 		.4byte	.LASF175
 3248 0a46 12       		.byte	0x12
 3249 0a47 4C       		.byte	0x4c
 3250 0a48 B8000000 		.4byte	0xb8
 3251 0a4c 01       		.byte	0x1
 3252 0a4d 01       		.byte	0x1
 3253 0a4e 07       		.byte	0x7
 3254 0a4f 08       		.byte	0x8
 3255 0a50 0A       		.uleb128 0xa
 3256 0a51 1C0C0000 		.4byte	.LASF176
 3257 0a55 12       		.byte	0x12
 3258 0a56 4D       		.byte	0x4d
 3259 0a57 B8000000 		.4byte	0xb8
 3260 0a5b 01       		.byte	0x1
 3261 0a5c 01       		.byte	0x1
 3262 0a5d 06       		.byte	0x6
 3263 0a5e 08       		.byte	0x8
 3264 0a5f 0A       		.uleb128 0xa
 3265 0a60 C60C0000 		.4byte	.LASF177
 3266 0a64 12       		.byte	0x12
 3267 0a65 4F       		.byte	0x4f
 3268 0a66 B8000000 		.4byte	0xb8
 3269 0a6a 01       		.byte	0x1
 3270 0a6b 01       		.byte	0x1
 3271 0a6c 05       		.byte	0x5
 3272 0a6d 08       		.byte	0x8
 3273 0a6e 0A       		.uleb128 0xa
 3274 0a6f BD0C0000 		.4byte	.LASF178
 3275 0a73 12       		.byte	0x12
 3276 0a74 51       		.byte	0x51
 3277 0a75 B8000000 		.4byte	0xb8
 3278 0a79 01       		.byte	0x1
ARM GAS  C:\Users\pearlstl\AppData\Local\Temp\cc98wxIE.s 			page 74


 3279 0a7a 01       		.byte	0x1
 3280 0a7b 04       		.byte	0x4
 3281 0a7c 08       		.byte	0x8
 3282 0a7d 0A       		.uleb128 0xa
 3283 0a7e 47010000 		.4byte	.LASF179
 3284 0a82 12       		.byte	0x12
 3285 0a83 53       		.byte	0x53
 3286 0a84 B8000000 		.4byte	0xb8
 3287 0a88 01       		.byte	0x1
 3288 0a89 01       		.byte	0x1
 3289 0a8a 03       		.byte	0x3
 3290 0a8b 08       		.byte	0x8
 3291 0a8c 00       		.byte	0
 3292 0a8d 06       		.uleb128 0x6
 3293 0a8e 30       		.byte	0x30
 3294 0a8f 12       		.byte	0x12
 3295 0a90 39       		.byte	0x39
 3296 0a91 EE0A0000 		.4byte	0xaee
 3297 0a95 08       		.uleb128 0x8
 3298 0a96 626700   		.ascii	"bg\000"
 3299 0a99 12       		.byte	0x12
 3300 0a9a 3B       		.byte	0x3b
 3301 0a9b 5C090000 		.4byte	0x95c
 3302 0a9f 00       		.byte	0
 3303 0aa0 07       		.uleb128 0x7
 3304 0aa1 C2030000 		.4byte	.LASF180
 3305 0aa5 12       		.byte	0x12
 3306 0aa6 3D       		.byte	0x3d
 3307 0aa7 EE0A0000 		.4byte	0xaee
 3308 0aab 04       		.byte	0x4
 3309 0aac 08       		.uleb128 0x8
 3310 0aad 736200   		.ascii	"sb\000"
 3311 0ab0 12       		.byte	0x12
 3312 0ab1 46       		.byte	0x46
 3313 0ab2 C7090000 		.4byte	0x9c7
 3314 0ab6 08       		.byte	0x8
 3315 0ab7 07       		.uleb128 0x7
 3316 0ab8 01100000 		.4byte	.LASF181
 3317 0abc 12       		.byte	0x12
 3318 0abd 55       		.byte	0x55
 3319 0abe 210A0000 		.4byte	0xa21
 3320 0ac2 20       		.byte	0x20
 3321 0ac3 07       		.uleb128 0x7
 3322 0ac4 E7040000 		.4byte	.LASF182
 3323 0ac8 12       		.byte	0x12
 3324 0ac9 57       		.byte	0x57
 3325 0aca CE000000 		.4byte	0xce
 3326 0ace 2C       		.byte	0x2c
 3327 0acf 0A       		.uleb128 0xa
 3328 0ad0 66030000 		.4byte	.LASF183
 3329 0ad4 12       		.byte	0x12
 3330 0ad5 5A       		.byte	0x5a
 3331 0ad6 B8000000 		.4byte	0xb8
 3332 0ada 01       		.byte	0x1
 3333 0adb 01       		.byte	0x1
 3334 0adc 07       		.byte	0x7
 3335 0add 2E       		.byte	0x2e
ARM GAS  C:\Users\pearlstl\AppData\Local\Temp\cc98wxIE.s 			page 75


 3336 0ade 0A       		.uleb128 0xa
 3337 0adf D1060000 		.4byte	.LASF184
 3338 0ae3 12       		.byte	0x12
 3339 0ae4 5B       		.byte	0x5b
 3340 0ae5 B8000000 		.4byte	0xb8
 3341 0ae9 01       		.byte	0x1
 3342 0aea 01       		.byte	0x1
 3343 0aeb 06       		.byte	0x6
 3344 0aec 2E       		.byte	0x2e
 3345 0aed 00       		.byte	0
 3346 0aee 0D       		.uleb128 0xd
 3347 0aef 04       		.byte	0x4
 3348 0af0 FD080000 		.4byte	0x8fd
 3349 0af4 02       		.uleb128 0x2
 3350 0af5 C8040000 		.4byte	.LASF185
 3351 0af9 12       		.byte	0x12
 3352 0afa 5C       		.byte	0x5c
 3353 0afb 8D0A0000 		.4byte	0xa8d
 3354 0aff 15       		.uleb128 0x15
 3355 0b00 01       		.byte	0x1
 3356 0b01 42000000 		.4byte	0x42
 3357 0b05 13       		.byte	0x13
 3358 0b06 31       		.byte	0x31
 3359 0b07 300B0000 		.4byte	0xb30
 3360 0b0b 16       		.uleb128 0x16
 3361 0b0c 4D050000 		.4byte	.LASF186
 3362 0b10 00       		.byte	0
 3363 0b11 16       		.uleb128 0x16
 3364 0b12 5C010000 		.4byte	.LASF187
 3365 0b16 01       		.byte	0x1
 3366 0b17 16       		.uleb128 0x16
 3367 0b18 CC020000 		.4byte	.LASF188
 3368 0b1c 02       		.byte	0x2
 3369 0b1d 16       		.uleb128 0x16
 3370 0b1e F30A0000 		.4byte	.LASF189
 3371 0b22 03       		.byte	0x3
 3372 0b23 16       		.uleb128 0x16
 3373 0b24 B5080000 		.4byte	.LASF190
 3374 0b28 04       		.byte	0x4
 3375 0b29 16       		.uleb128 0x16
 3376 0b2a D5080000 		.4byte	.LASF191
 3377 0b2e 08       		.byte	0x8
 3378 0b2f 00       		.byte	0
 3379 0b30 02       		.uleb128 0x2
 3380 0b31 130E0000 		.4byte	.LASF192
 3381 0b35 13       		.byte	0x13
 3382 0b36 39       		.byte	0x39
 3383 0b37 B8000000 		.4byte	0xb8
 3384 0b3b 06       		.uleb128 0x6
 3385 0b3c 18       		.byte	0x18
 3386 0b3d 13       		.byte	0x13
 3387 0b3e 46       		.byte	0x46
 3388 0b3f B90B0000 		.4byte	0xbb9
 3389 0b43 07       		.uleb128 0x7
 3390 0b44 070A0000 		.4byte	.LASF168
 3391 0b48 13       		.byte	0x13
 3392 0b49 48       		.byte	0x48
ARM GAS  C:\Users\pearlstl\AppData\Local\Temp\cc98wxIE.s 			page 76


 3393 0b4a F2080000 		.4byte	0x8f2
 3394 0b4e 00       		.byte	0
 3395 0b4f 07       		.uleb128 0x7
 3396 0b50 6F050000 		.4byte	.LASF193
 3397 0b54 13       		.byte	0x13
 3398 0b55 49       		.byte	0x49
 3399 0b56 EF000000 		.4byte	0xef
 3400 0b5a 04       		.byte	0x4
 3401 0b5b 08       		.uleb128 0x8
 3402 0b5c 706F7300 		.ascii	"pos\000"
 3403 0b60 13       		.byte	0x13
 3404 0b61 4B       		.byte	0x4b
 3405 0b62 CE000000 		.4byte	0xce
 3406 0b66 06       		.byte	0x6
 3407 0b67 07       		.uleb128 0x7
 3408 0b68 15090000 		.4byte	.LASF194
 3409 0b6c 13       		.byte	0x13
 3410 0b6d 4D       		.byte	0x4d
 3411 0b6e CE000000 		.4byte	0xce
 3412 0b72 08       		.byte	0x8
 3413 0b73 07       		.uleb128 0x7
 3414 0b74 CC060000 		.4byte	.LASF195
 3415 0b78 13       		.byte	0x13
 3416 0b79 4E       		.byte	0x4e
 3417 0b7a 01030000 		.4byte	0x301
 3418 0b7e 0A       		.byte	0xa
 3419 0b7f 07       		.uleb128 0x7
 3420 0b80 AC0D0000 		.4byte	.LASF196
 3421 0b84 13       		.byte	0x13
 3422 0b85 4F       		.byte	0x4f
 3423 0b86 CE000000 		.4byte	0xce
 3424 0b8a 12       		.byte	0x12
 3425 0b8b 0A       		.uleb128 0xa
 3426 0b8c 96010000 		.4byte	.LASF51
 3427 0b90 13       		.byte	0x13
 3428 0b91 50       		.byte	0x50
 3429 0b92 300B0000 		.4byte	0xb30
 3430 0b96 01       		.byte	0x1
 3431 0b97 04       		.byte	0x4
 3432 0b98 04       		.byte	0x4
 3433 0b99 14       		.byte	0x14
 3434 0b9a 0A       		.uleb128 0xa
 3435 0b9b 41010000 		.4byte	.LASF174
 3436 0b9f 13       		.byte	0x13
 3437 0ba0 51       		.byte	0x51
 3438 0ba1 B8000000 		.4byte	0xb8
 3439 0ba5 01       		.byte	0x1
 3440 0ba6 01       		.byte	0x1
 3441 0ba7 03       		.byte	0x3
 3442 0ba8 14       		.byte	0x14
 3443 0ba9 0A       		.uleb128 0xa
 3444 0baa C9050000 		.4byte	.LASF197
 3445 0bae 13       		.byte	0x13
 3446 0baf 52       		.byte	0x52
 3447 0bb0 B8000000 		.4byte	0xb8
 3448 0bb4 01       		.byte	0x1
 3449 0bb5 01       		.byte	0x1
ARM GAS  C:\Users\pearlstl\AppData\Local\Temp\cc98wxIE.s 			page 77


 3450 0bb6 02       		.byte	0x2
 3451 0bb7 14       		.byte	0x14
 3452 0bb8 00       		.byte	0
 3453 0bb9 06       		.uleb128 0x6
 3454 0bba 60       		.byte	0x60
 3455 0bbb 13       		.byte	0x13
 3456 0bbc 3C       		.byte	0x3c
 3457 0bbd 400C0000 		.4byte	0xc40
 3458 0bc1 07       		.uleb128 0x7
 3459 0bc2 9E090000 		.4byte	.LASF198
 3460 0bc6 13       		.byte	0x13
 3461 0bc7 3E       		.byte	0x3e
 3462 0bc8 F40A0000 		.4byte	0xaf4
 3463 0bcc 00       		.byte	0
 3464 0bcd 07       		.uleb128 0x7
 3465 0bce 350F0000 		.4byte	.LASF199
 3466 0bd2 13       		.byte	0x13
 3467 0bd3 40       		.byte	0x40
 3468 0bd4 EE0A0000 		.4byte	0xaee
 3469 0bd8 30       		.byte	0x30
 3470 0bd9 07       		.uleb128 0x7
 3471 0bda 28030000 		.4byte	.LASF200
 3472 0bde 13       		.byte	0x13
 3473 0bdf 41       		.byte	0x41
 3474 0be0 EE0A0000 		.4byte	0xaee
 3475 0be4 34       		.byte	0x34
 3476 0be5 07       		.uleb128 0x7
 3477 0be6 5B060000 		.4byte	.LASF201
 3478 0bea 13       		.byte	0x13
 3479 0beb 42       		.byte	0x42
 3480 0bec A4020000 		.4byte	0x2a4
 3481 0bf0 38       		.byte	0x38
 3482 0bf1 07       		.uleb128 0x7
 3483 0bf2 9B010000 		.4byte	.LASF202
 3484 0bf6 13       		.byte	0x13
 3485 0bf7 43       		.byte	0x43
 3486 0bf8 B1020000 		.4byte	0x2b1
 3487 0bfc 3C       		.byte	0x3c
 3488 0bfd 07       		.uleb128 0x7
 3489 0bfe 3B070000 		.4byte	.LASF203
 3490 0c02 13       		.byte	0x13
 3491 0c03 44       		.byte	0x44
 3492 0c04 CE000000 		.4byte	0xce
 3493 0c08 40       		.byte	0x40
 3494 0c09 07       		.uleb128 0x7
 3495 0c0a 9F040000 		.4byte	.LASF204
 3496 0c0e 13       		.byte	0x13
 3497 0c0f 45       		.byte	0x45
 3498 0c10 CE000000 		.4byte	0xce
 3499 0c14 42       		.byte	0x42
 3500 0c15 07       		.uleb128 0x7
 3501 0c16 EB0F0000 		.4byte	.LASF205
 3502 0c1a 13       		.byte	0x13
 3503 0c1b 53       		.byte	0x53
 3504 0c1c 3B0B0000 		.4byte	0xb3b
 3505 0c20 44       		.byte	0x44
 3506 0c21 0A       		.uleb128 0xa
ARM GAS  C:\Users\pearlstl\AppData\Local\Temp\cc98wxIE.s 			page 78


 3507 0c22 44050000 		.4byte	.LASF206
 3508 0c26 13       		.byte	0x13
 3509 0c27 59       		.byte	0x59
 3510 0c28 B8000000 		.4byte	0xb8
 3511 0c2c 01       		.byte	0x1
 3512 0c2d 01       		.byte	0x1
 3513 0c2e 07       		.byte	0x7
 3514 0c2f 5C       		.byte	0x5c
 3515 0c30 0A       		.uleb128 0xa
 3516 0c31 9C020000 		.4byte	.LASF207
 3517 0c35 13       		.byte	0x13
 3518 0c36 5A       		.byte	0x5a
 3519 0c37 B8000000 		.4byte	0xb8
 3520 0c3b 01       		.byte	0x1
 3521 0c3c 01       		.byte	0x1
 3522 0c3d 06       		.byte	0x6
 3523 0c3e 5C       		.byte	0x5c
 3524 0c3f 00       		.byte	0
 3525 0c40 02       		.uleb128 0x2
 3526 0c41 E60B0000 		.4byte	.LASF208
 3527 0c45 13       		.byte	0x13
 3528 0c46 5B       		.byte	0x5b
 3529 0c47 B90B0000 		.4byte	0xbb9
 3530 0c4b 06       		.uleb128 0x6
 3531 0c4c 74       		.byte	0x74
 3532 0c4d 02       		.byte	0x2
 3533 0c4e 2A       		.byte	0x2a
 3534 0c4f BC0C0000 		.4byte	0xcbc
 3535 0c53 08       		.uleb128 0x8
 3536 0c54 746100   		.ascii	"ta\000"
 3537 0c57 02       		.byte	0x2
 3538 0c58 2C       		.byte	0x2c
 3539 0c59 400C0000 		.4byte	0xc40
 3540 0c5d 00       		.byte	0
 3541 0c5e 07       		.uleb128 0x7
 3542 0c5f C2040000 		.4byte	.LASF209
 3543 0c63 02       		.byte	0x2
 3544 0c64 2E       		.byte	0x2e
 3545 0c65 D9000000 		.4byte	0xd9
 3546 0c69 60       		.byte	0x60
 3547 0c6a 07       		.uleb128 0x7
 3548 0c6b 800C0000 		.4byte	.LASF210
 3549 0c6f 02       		.byte	0x2
 3550 0c70 2F       		.byte	0x2f
 3551 0c71 D9000000 		.4byte	0xd9
 3552 0c75 64       		.byte	0x64
 3553 0c76 07       		.uleb128 0x7
 3554 0c77 DD070000 		.4byte	.LASF211
 3555 0c7b 02       		.byte	0x2
 3556 0c7c 30       		.byte	0x30
 3557 0c7d D9000000 		.4byte	0xd9
 3558 0c81 68       		.byte	0x68
 3559 0c82 07       		.uleb128 0x7
 3560 0c83 CC030000 		.4byte	.LASF212
 3561 0c87 02       		.byte	0x2
 3562 0c88 31       		.byte	0x31
 3563 0c89 D9000000 		.4byte	0xd9
ARM GAS  C:\Users\pearlstl\AppData\Local\Temp\cc98wxIE.s 			page 79


 3564 0c8d 6C       		.byte	0x6c
 3565 0c8e 0A       		.uleb128 0xa
 3566 0c8f B9010000 		.4byte	.LASF213
 3567 0c93 02       		.byte	0x2
 3568 0c94 32       		.byte	0x32
 3569 0c95 CE000000 		.4byte	0xce
 3570 0c99 02       		.byte	0x2
 3571 0c9a 04       		.byte	0x4
 3572 0c9b 0C       		.byte	0xc
 3573 0c9c 70       		.byte	0x70
 3574 0c9d 0A       		.uleb128 0xa
 3575 0c9e 6B010000 		.4byte	.LASF214
 3576 0ca2 02       		.byte	0x2
 3577 0ca3 33       		.byte	0x33
 3578 0ca4 CE000000 		.4byte	0xce
 3579 0ca8 02       		.byte	0x2
 3580 0ca9 04       		.byte	0x4
 3581 0caa 08       		.byte	0x8
 3582 0cab 70       		.byte	0x70
 3583 0cac 0A       		.uleb128 0xa
 3584 0cad B2090000 		.4byte	.LASF215
 3585 0cb1 02       		.byte	0x2
 3586 0cb2 34       		.byte	0x34
 3587 0cb3 CE000000 		.4byte	0xce
 3588 0cb7 02       		.byte	0x2
 3589 0cb8 04       		.byte	0x4
 3590 0cb9 04       		.byte	0x4
 3591 0cba 70       		.byte	0x70
 3592 0cbb 00       		.byte	0
 3593 0cbc 02       		.uleb128 0x2
 3594 0cbd C00D0000 		.4byte	.LASF216
 3595 0cc1 02       		.byte	0x2
 3596 0cc2 35       		.byte	0x35
 3597 0cc3 4B0C0000 		.4byte	0xc4b
 3598 0cc7 15       		.uleb128 0x15
 3599 0cc8 01       		.byte	0x1
 3600 0cc9 42000000 		.4byte	0x42
 3601 0ccd 02       		.byte	0x2
 3602 0cce 38       		.byte	0x38
 3603 0ccf E60C0000 		.4byte	0xce6
 3604 0cd3 16       		.uleb128 0x16
 3605 0cd4 88020000 		.4byte	.LASF217
 3606 0cd8 00       		.byte	0
 3607 0cd9 16       		.uleb128 0x16
 3608 0cda 7D0A0000 		.4byte	.LASF218
 3609 0cde 01       		.byte	0x1
 3610 0cdf 16       		.uleb128 0x16
 3611 0ce0 710E0000 		.4byte	.LASF219
 3612 0ce4 02       		.byte	0x2
 3613 0ce5 00       		.byte	0
 3614 0ce6 02       		.uleb128 0x2
 3615 0ce7 06040000 		.4byte	.LASF220
 3616 0ceb 02       		.byte	0x2
 3617 0cec 3D       		.byte	0x3d
 3618 0ced B8000000 		.4byte	0xb8
 3619 0cf1 06       		.uleb128 0x6
 3620 0cf2 14       		.byte	0x14
ARM GAS  C:\Users\pearlstl\AppData\Local\Temp\cc98wxIE.s 			page 80


 3621 0cf3 14       		.byte	0x14
 3622 0cf4 34       		.byte	0x34
 3623 0cf5 350D0000 		.4byte	0xd35
 3624 0cf9 08       		.uleb128 0x8
 3625 0cfa 72656C00 		.ascii	"rel\000"
 3626 0cfe 14       		.byte	0x14
 3627 0cff 36       		.byte	0x36
 3628 0d00 4D050000 		.4byte	0x54d
 3629 0d04 00       		.byte	0
 3630 0d05 08       		.uleb128 0x8
 3631 0d06 707200   		.ascii	"pr\000"
 3632 0d09 14       		.byte	0x14
 3633 0d0a 37       		.byte	0x37
 3634 0d0b 4D050000 		.4byte	0x54d
 3635 0d0f 04       		.byte	0x4
 3636 0d10 07       		.uleb128 0x7
 3637 0d11 20090000 		.4byte	.LASF221
 3638 0d15 14       		.byte	0x14
 3639 0d16 38       		.byte	0x38
 3640 0d17 4D050000 		.4byte	0x54d
 3641 0d1b 08       		.byte	0x8
 3642 0d1c 07       		.uleb128 0x7
 3643 0d1d 9C030000 		.4byte	.LASF222
 3644 0d21 14       		.byte	0x14
 3645 0d22 39       		.byte	0x39
 3646 0d23 4D050000 		.4byte	0x54d
 3647 0d27 0C       		.byte	0xc
 3648 0d28 08       		.uleb128 0x8
 3649 0d29 696E6100 		.ascii	"ina\000"
 3650 0d2d 14       		.byte	0x14
 3651 0d2e 3A       		.byte	0x3a
 3652 0d2f 4D050000 		.4byte	0x54d
 3653 0d33 10       		.byte	0x10
 3654 0d34 00       		.byte	0
 3655 0d35 06       		.uleb128 0x6
 3656 0d36 14       		.byte	0x14
 3657 0d37 14       		.byte	0x14
 3658 0d38 3F       		.byte	0x3f
 3659 0d39 790D0000 		.4byte	0xd79
 3660 0d3d 08       		.uleb128 0x8
 3661 0d3e 72656C00 		.ascii	"rel\000"
 3662 0d42 14       		.byte	0x14
 3663 0d43 41       		.byte	0x41
 3664 0d44 4D050000 		.4byte	0x54d
 3665 0d48 00       		.byte	0
 3666 0d49 08       		.uleb128 0x8
 3667 0d4a 707200   		.ascii	"pr\000"
 3668 0d4d 14       		.byte	0x14
 3669 0d4e 42       		.byte	0x42
 3670 0d4f 4D050000 		.4byte	0x54d
 3671 0d53 04       		.byte	0x4
 3672 0d54 07       		.uleb128 0x7
 3673 0d55 20090000 		.4byte	.LASF221
 3674 0d59 14       		.byte	0x14
 3675 0d5a 43       		.byte	0x43
 3676 0d5b 4D050000 		.4byte	0x54d
 3677 0d5f 08       		.byte	0x8
ARM GAS  C:\Users\pearlstl\AppData\Local\Temp\cc98wxIE.s 			page 81


 3678 0d60 07       		.uleb128 0x7
 3679 0d61 9C030000 		.4byte	.LASF222
 3680 0d65 14       		.byte	0x14
 3681 0d66 44       		.byte	0x44
 3682 0d67 4D050000 		.4byte	0x54d
 3683 0d6b 0C       		.byte	0xc
 3684 0d6c 08       		.uleb128 0x8
 3685 0d6d 696E6100 		.ascii	"ina\000"
 3686 0d71 14       		.byte	0x14
 3687 0d72 45       		.byte	0x45
 3688 0d73 4D050000 		.4byte	0x54d
 3689 0d77 10       		.byte	0x10
 3690 0d78 00       		.byte	0
 3691 0d79 06       		.uleb128 0x6
 3692 0d7a 0C       		.byte	0xc
 3693 0d7b 14       		.byte	0x14
 3694 0d7c 4A       		.byte	0x4a
 3695 0d7d A60D0000 		.4byte	0xda6
 3696 0d81 07       		.uleb128 0x7
 3697 0d82 7D020000 		.4byte	.LASF223
 3698 0d86 14       		.byte	0x14
 3699 0d87 4C       		.byte	0x4c
 3700 0d88 4D050000 		.4byte	0x54d
 3701 0d8c 00       		.byte	0
 3702 0d8d 08       		.uleb128 0x8
 3703 0d8e 73656300 		.ascii	"sec\000"
 3704 0d92 14       		.byte	0x14
 3705 0d93 4D       		.byte	0x4d
 3706 0d94 4D050000 		.4byte	0x54d
 3707 0d98 04       		.byte	0x4
 3708 0d99 07       		.uleb128 0x7
 3709 0d9a 2B070000 		.4byte	.LASF224
 3710 0d9e 14       		.byte	0x14
 3711 0d9f 4E       		.byte	0x4e
 3712 0da0 4D050000 		.4byte	0x54d
 3713 0da4 08       		.byte	0x8
 3714 0da5 00       		.byte	0
 3715 0da6 06       		.uleb128 0x6
 3716 0da7 08       		.byte	0x8
 3717 0da8 14       		.byte	0x14
 3718 0da9 53       		.byte	0x53
 3719 0daa C70D0000 		.4byte	0xdc7
 3720 0dae 07       		.uleb128 0x7
 3721 0daf B3010000 		.4byte	.LASF225
 3722 0db3 14       		.byte	0x14
 3723 0db4 55       		.byte	0x55
 3724 0db5 4D050000 		.4byte	0x54d
 3725 0db9 00       		.byte	0
 3726 0dba 07       		.uleb128 0x7
 3727 0dbb D20E0000 		.4byte	.LASF226
 3728 0dbf 14       		.byte	0x14
 3729 0dc0 56       		.byte	0x56
 3730 0dc1 4D050000 		.4byte	0x54d
 3731 0dc5 04       		.byte	0x4
 3732 0dc6 00       		.byte	0
 3733 0dc7 06       		.uleb128 0x6
 3734 0dc8 04       		.byte	0x4
ARM GAS  C:\Users\pearlstl\AppData\Local\Temp\cc98wxIE.s 			page 82


 3735 0dc9 14       		.byte	0x14
 3736 0dca 5B       		.byte	0x5b
 3737 0dcb DC0D0000 		.4byte	0xddc
 3738 0dcf 07       		.uleb128 0x7
 3739 0dd0 E00B0000 		.4byte	.LASF227
 3740 0dd4 14       		.byte	0x14
 3741 0dd5 5D       		.byte	0x5d
 3742 0dd6 4D050000 		.4byte	0x54d
 3743 0dda 00       		.byte	0
 3744 0ddb 00       		.byte	0
 3745 0ddc 06       		.uleb128 0x6
 3746 0ddd 08       		.byte	0x8
 3747 0dde 14       		.byte	0x14
 3748 0ddf 66       		.byte	0x66
 3749 0de0 FC0D0000 		.4byte	0xdfc
 3750 0de4 08       		.uleb128 0x8
 3751 0de5 626700   		.ascii	"bg\000"
 3752 0de8 14       		.byte	0x14
 3753 0de9 68       		.byte	0x68
 3754 0dea 4D050000 		.4byte	0x54d
 3755 0dee 00       		.byte	0
 3756 0def 07       		.uleb128 0x7
 3757 0df0 79080000 		.4byte	.LASF228
 3758 0df4 14       		.byte	0x14
 3759 0df5 69       		.byte	0x69
 3760 0df6 4D050000 		.4byte	0x54d
 3761 0dfa 04       		.byte	0x4
 3762 0dfb 00       		.byte	0
 3763 0dfc 06       		.uleb128 0x6
 3764 0dfd 0C       		.byte	0xc
 3765 0dfe 14       		.byte	0x14
 3766 0dff 6E       		.byte	0x6e
 3767 0e00 280E0000 		.4byte	0xe28
 3768 0e04 08       		.uleb128 0x8
 3769 0e05 626700   		.ascii	"bg\000"
 3770 0e08 14       		.byte	0x14
 3771 0e09 70       		.byte	0x70
 3772 0e0a 4D050000 		.4byte	0x54d
 3773 0e0e 00       		.byte	0
 3774 0e0f 07       		.uleb128 0x7
 3775 0e10 79080000 		.4byte	.LASF228
 3776 0e14 14       		.byte	0x14
 3777 0e15 71       		.byte	0x71
 3778 0e16 4D050000 		.4byte	0x54d
 3779 0e1a 04       		.byte	0x4
 3780 0e1b 07       		.uleb128 0x7
 3781 0e1c 980F0000 		.4byte	.LASF229
 3782 0e20 14       		.byte	0x14
 3783 0e21 72       		.byte	0x72
 3784 0e22 4D050000 		.4byte	0x54d
 3785 0e26 08       		.byte	0x8
 3786 0e27 00       		.byte	0
 3787 0e28 06       		.uleb128 0x6
 3788 0e29 10       		.byte	0x10
 3789 0e2a 14       		.byte	0x14
 3790 0e2b 87       		.byte	0x87
 3791 0e2c 600E0000 		.4byte	0xe60
ARM GAS  C:\Users\pearlstl\AppData\Local\Temp\cc98wxIE.s 			page 83


 3792 0e30 08       		.uleb128 0x8
 3793 0e31 626700   		.ascii	"bg\000"
 3794 0e34 14       		.byte	0x14
 3795 0e35 89       		.byte	0x89
 3796 0e36 4D050000 		.4byte	0x54d
 3797 0e3a 00       		.byte	0
 3798 0e3b 07       		.uleb128 0x7
 3799 0e3c 79080000 		.4byte	.LASF228
 3800 0e40 14       		.byte	0x14
 3801 0e41 8A       		.byte	0x8a
 3802 0e42 4D050000 		.4byte	0x54d
 3803 0e46 04       		.byte	0x4
 3804 0e47 07       		.uleb128 0x7
 3805 0e48 A3090000 		.4byte	.LASF230
 3806 0e4c 14       		.byte	0x14
 3807 0e4d 8B       		.byte	0x8b
 3808 0e4e 4D050000 		.4byte	0x54d
 3809 0e52 08       		.byte	0x8
 3810 0e53 07       		.uleb128 0x7
 3811 0e54 4C040000 		.4byte	.LASF231
 3812 0e58 14       		.byte	0x14
 3813 0e59 8C       		.byte	0x8c
 3814 0e5a 4D050000 		.4byte	0x54d
 3815 0e5e 0C       		.byte	0xc
 3816 0e5f 00       		.byte	0
 3817 0e60 06       		.uleb128 0x6
 3818 0e61 20       		.byte	0x20
 3819 0e62 14       		.byte	0x14
 3820 0e63 95       		.byte	0x95
 3821 0e64 C80E0000 		.4byte	0xec8
 3822 0e68 08       		.uleb128 0x8
 3823 0e69 626700   		.ascii	"bg\000"
 3824 0e6c 14       		.byte	0x14
 3825 0e6d 97       		.byte	0x97
 3826 0e6e 4D050000 		.4byte	0x54d
 3827 0e72 00       		.byte	0
 3828 0e73 07       		.uleb128 0x7
 3829 0e74 71040000 		.4byte	.LASF232
 3830 0e78 14       		.byte	0x14
 3831 0e79 98       		.byte	0x98
 3832 0e7a 4D050000 		.4byte	0x54d
 3833 0e7e 04       		.byte	0x4
 3834 0e7f 07       		.uleb128 0x7
 3835 0e80 1A000000 		.4byte	.LASF233
 3836 0e84 14       		.byte	0x14
 3837 0e85 99       		.byte	0x99
 3838 0e86 4D050000 		.4byte	0x54d
 3839 0e8a 08       		.byte	0x8
 3840 0e8b 07       		.uleb128 0x7
 3841 0e8c 090E0000 		.4byte	.LASF234
 3842 0e90 14       		.byte	0x14
 3843 0e91 9A       		.byte	0x9a
 3844 0e92 4D050000 		.4byte	0x54d
 3845 0e96 0C       		.byte	0xc
 3846 0e97 07       		.uleb128 0x7
 3847 0e98 0B010000 		.4byte	.LASF235
 3848 0e9c 14       		.byte	0x14
ARM GAS  C:\Users\pearlstl\AppData\Local\Temp\cc98wxIE.s 			page 84


 3849 0e9d 9B       		.byte	0x9b
 3850 0e9e 4D050000 		.4byte	0x54d
 3851 0ea2 10       		.byte	0x10
 3852 0ea3 07       		.uleb128 0x7
 3853 0ea4 FD050000 		.4byte	.LASF236
 3854 0ea8 14       		.byte	0x14
 3855 0ea9 9C       		.byte	0x9c
 3856 0eaa 4D050000 		.4byte	0x54d
 3857 0eae 14       		.byte	0x14
 3858 0eaf 07       		.uleb128 0x7
 3859 0eb0 17050000 		.4byte	.LASF237
 3860 0eb4 14       		.byte	0x14
 3861 0eb5 9D       		.byte	0x9d
 3862 0eb6 4D050000 		.4byte	0x54d
 3863 0eba 18       		.byte	0x18
 3864 0ebb 07       		.uleb128 0x7
 3865 0ebc 92030000 		.4byte	.LASF238
 3866 0ec0 14       		.byte	0x14
 3867 0ec1 9E       		.byte	0x9e
 3868 0ec2 4D050000 		.4byte	0x54d
 3869 0ec6 1C       		.byte	0x1c
 3870 0ec7 00       		.byte	0
 3871 0ec8 06       		.uleb128 0x6
 3872 0ec9 14       		.byte	0x14
 3873 0eca 14       		.byte	0x14
 3874 0ecb A6       		.byte	0xa6
 3875 0ecc 0C0F0000 		.4byte	0xf0c
 3876 0ed0 08       		.uleb128 0x8
 3877 0ed1 72656C00 		.ascii	"rel\000"
 3878 0ed5 14       		.byte	0x14
 3879 0ed6 A8       		.byte	0xa8
 3880 0ed7 4D050000 		.4byte	0x54d
 3881 0edb 00       		.byte	0
 3882 0edc 08       		.uleb128 0x8
 3883 0edd 707200   		.ascii	"pr\000"
 3884 0ee0 14       		.byte	0x14
 3885 0ee1 A9       		.byte	0xa9
 3886 0ee2 4D050000 		.4byte	0x54d
 3887 0ee6 04       		.byte	0x4
 3888 0ee7 07       		.uleb128 0x7
 3889 0ee8 20090000 		.4byte	.LASF221
 3890 0eec 14       		.byte	0x14
 3891 0eed AA       		.byte	0xaa
 3892 0eee 4D050000 		.4byte	0x54d
 3893 0ef2 08       		.byte	0x8
 3894 0ef3 07       		.uleb128 0x7
 3895 0ef4 9C030000 		.4byte	.LASF222
 3896 0ef8 14       		.byte	0x14
 3897 0ef9 AB       		.byte	0xab
 3898 0efa 4D050000 		.4byte	0x54d
 3899 0efe 0C       		.byte	0xc
 3900 0eff 08       		.uleb128 0x8
 3901 0f00 696E6100 		.ascii	"ina\000"
 3902 0f04 14       		.byte	0x14
 3903 0f05 AC       		.byte	0xac
 3904 0f06 4D050000 		.4byte	0x54d
 3905 0f0a 10       		.byte	0x10
ARM GAS  C:\Users\pearlstl\AppData\Local\Temp\cc98wxIE.s 			page 85


 3906 0f0b 00       		.byte	0
 3907 0f0c 06       		.uleb128 0x6
 3908 0f0d 18       		.byte	0x18
 3909 0f0e 14       		.byte	0x14
 3910 0f0f A3       		.byte	0xa3
 3911 0f10 2C0F0000 		.4byte	0xf2c
 3912 0f14 08       		.uleb128 0x8
 3913 0f15 626700   		.ascii	"bg\000"
 3914 0f18 14       		.byte	0x14
 3915 0f19 A5       		.byte	0xa5
 3916 0f1a 4D050000 		.4byte	0x54d
 3917 0f1e 00       		.byte	0
 3918 0f1f 08       		.uleb128 0x8
 3919 0f20 626F7800 		.ascii	"box\000"
 3920 0f24 14       		.byte	0x14
 3921 0f25 AD       		.byte	0xad
 3922 0f26 C80E0000 		.4byte	0xec8
 3923 0f2a 04       		.byte	0x4
 3924 0f2b 00       		.byte	0
 3925 0f2c 06       		.uleb128 0x6
 3926 0f2d 14       		.byte	0x14
 3927 0f2e 14       		.byte	0x14
 3928 0f2f B5       		.byte	0xb5
 3929 0f30 700F0000 		.4byte	0xf70
 3930 0f34 08       		.uleb128 0x8
 3931 0f35 72656C00 		.ascii	"rel\000"
 3932 0f39 14       		.byte	0x14
 3933 0f3a B7       		.byte	0xb7
 3934 0f3b 4D050000 		.4byte	0x54d
 3935 0f3f 00       		.byte	0
 3936 0f40 08       		.uleb128 0x8
 3937 0f41 707200   		.ascii	"pr\000"
 3938 0f44 14       		.byte	0x14
 3939 0f45 B8       		.byte	0xb8
 3940 0f46 4D050000 		.4byte	0x54d
 3941 0f4a 04       		.byte	0x4
 3942 0f4b 07       		.uleb128 0x7
 3943 0f4c 20090000 		.4byte	.LASF221
 3944 0f50 14       		.byte	0x14
 3945 0f51 B9       		.byte	0xb9
 3946 0f52 4D050000 		.4byte	0x54d
 3947 0f56 08       		.byte	0x8
 3948 0f57 07       		.uleb128 0x7
 3949 0f58 9C030000 		.4byte	.LASF222
 3950 0f5c 14       		.byte	0x14
 3951 0f5d BA       		.byte	0xba
 3952 0f5e 4D050000 		.4byte	0x54d
 3953 0f62 0C       		.byte	0xc
 3954 0f63 08       		.uleb128 0x8
 3955 0f64 696E6100 		.ascii	"ina\000"
 3956 0f68 14       		.byte	0x14
 3957 0f69 BB       		.byte	0xbb
 3958 0f6a 4D050000 		.4byte	0x54d
 3959 0f6e 10       		.byte	0x10
 3960 0f6f 00       		.byte	0
 3961 0f70 06       		.uleb128 0x6
 3962 0f71 18       		.byte	0x18
ARM GAS  C:\Users\pearlstl\AppData\Local\Temp\cc98wxIE.s 			page 86


 3963 0f72 14       		.byte	0x14
 3964 0f73 B2       		.byte	0xb2
 3965 0f74 900F0000 		.4byte	0xf90
 3966 0f78 08       		.uleb128 0x8
 3967 0f79 626700   		.ascii	"bg\000"
 3968 0f7c 14       		.byte	0x14
 3969 0f7d B4       		.byte	0xb4
 3970 0f7e 4D050000 		.4byte	0x54d
 3971 0f82 00       		.byte	0
 3972 0f83 08       		.uleb128 0x8
 3973 0f84 62746E00 		.ascii	"btn\000"
 3974 0f88 14       		.byte	0x14
 3975 0f89 BC       		.byte	0xbc
 3976 0f8a 2C0F0000 		.4byte	0xf2c
 3977 0f8e 04       		.byte	0x4
 3978 0f8f 00       		.byte	0
 3979 0f90 06       		.uleb128 0x6
 3980 0f91 14       		.byte	0x14
 3981 0f92 14       		.byte	0x14
 3982 0f93 C4       		.byte	0xc4
 3983 0f94 D40F0000 		.4byte	0xfd4
 3984 0f98 08       		.uleb128 0x8
 3985 0f99 72656C00 		.ascii	"rel\000"
 3986 0f9d 14       		.byte	0x14
 3987 0f9e C6       		.byte	0xc6
 3988 0f9f 4D050000 		.4byte	0x54d
 3989 0fa3 00       		.byte	0
 3990 0fa4 08       		.uleb128 0x8
 3991 0fa5 707200   		.ascii	"pr\000"
 3992 0fa8 14       		.byte	0x14
 3993 0fa9 C7       		.byte	0xc7
 3994 0faa 4D050000 		.4byte	0x54d
 3995 0fae 04       		.byte	0x4
 3996 0faf 07       		.uleb128 0x7
 3997 0fb0 20090000 		.4byte	.LASF221
 3998 0fb4 14       		.byte	0x14
 3999 0fb5 C8       		.byte	0xc8
 4000 0fb6 4D050000 		.4byte	0x54d
 4001 0fba 08       		.byte	0x8
 4002 0fbb 07       		.uleb128 0x7
 4003 0fbc 9C030000 		.4byte	.LASF222
 4004 0fc0 14       		.byte	0x14
 4005 0fc1 C9       		.byte	0xc9
 4006 0fc2 4D050000 		.4byte	0x54d
 4007 0fc6 0C       		.byte	0xc
 4008 0fc7 08       		.uleb128 0x8
 4009 0fc8 696E6100 		.ascii	"ina\000"
 4010 0fcc 14       		.byte	0x14
 4011 0fcd CA       		.byte	0xca
 4012 0fce 4D050000 		.4byte	0x54d
 4013 0fd2 10       		.byte	0x10
 4014 0fd3 00       		.byte	0
 4015 0fd4 06       		.uleb128 0x6
 4016 0fd5 18       		.byte	0x18
 4017 0fd6 14       		.byte	0x14
 4018 0fd7 C1       		.byte	0xc1
 4019 0fd8 F40F0000 		.4byte	0xff4
ARM GAS  C:\Users\pearlstl\AppData\Local\Temp\cc98wxIE.s 			page 87


 4020 0fdc 08       		.uleb128 0x8
 4021 0fdd 626700   		.ascii	"bg\000"
 4022 0fe0 14       		.byte	0x14
 4023 0fe1 C3       		.byte	0xc3
 4024 0fe2 4D050000 		.4byte	0x54d
 4025 0fe6 00       		.byte	0
 4026 0fe7 08       		.uleb128 0x8
 4027 0fe8 62746E00 		.ascii	"btn\000"
 4028 0fec 14       		.byte	0x14
 4029 0fed CB       		.byte	0xcb
 4030 0fee 900F0000 		.4byte	0xf90
 4031 0ff2 04       		.byte	0x4
 4032 0ff3 00       		.byte	0
 4033 0ff4 06       		.uleb128 0x6
 4034 0ff5 0C       		.byte	0xc
 4035 0ff6 14       		.byte	0x14
 4036 0ff7 D3       		.byte	0xd3
 4037 0ff8 1F100000 		.4byte	0x101f
 4038 0ffc 08       		.uleb128 0x8
 4039 0ffd 626700   		.ascii	"bg\000"
 4040 1000 14       		.byte	0x14
 4041 1001 D5       		.byte	0xd5
 4042 1002 4D050000 		.4byte	0x54d
 4043 1006 00       		.byte	0
 4044 1007 08       		.uleb128 0x8
 4045 1008 72656C00 		.ascii	"rel\000"
 4046 100c 14       		.byte	0x14
 4047 100d D6       		.byte	0xd6
 4048 100e 4D050000 		.4byte	0x54d
 4049 1012 04       		.byte	0x4
 4050 1013 08       		.uleb128 0x8
 4051 1014 707200   		.ascii	"pr\000"
 4052 1017 14       		.byte	0x14
 4053 1018 D7       		.byte	0xd7
 4054 1019 4D050000 		.4byte	0x54d
 4055 101d 08       		.byte	0x8
 4056 101e 00       		.byte	0
 4057 101f 06       		.uleb128 0x6
 4058 1020 10       		.byte	0x10
 4059 1021 14       		.byte	0x14
 4060 1022 D0       		.byte	0xd0
 4061 1023 3F100000 		.4byte	0x103f
 4062 1027 08       		.uleb128 0x8
 4063 1028 626700   		.ascii	"bg\000"
 4064 102b 14       		.byte	0x14
 4065 102c D2       		.byte	0xd2
 4066 102d 4D050000 		.4byte	0x54d
 4067 1031 00       		.byte	0
 4068 1032 08       		.uleb128 0x8
 4069 1033 62746E00 		.ascii	"btn\000"
 4070 1037 14       		.byte	0x14
 4071 1038 D8       		.byte	0xd8
 4072 1039 F40F0000 		.4byte	0xff4
 4073 103d 04       		.byte	0x4
 4074 103e 00       		.byte	0
 4075 103f 06       		.uleb128 0x6
 4076 1040 0C       		.byte	0xc
ARM GAS  C:\Users\pearlstl\AppData\Local\Temp\cc98wxIE.s 			page 88


 4077 1041 14       		.byte	0x14
 4078 1042 DD       		.byte	0xdd
 4079 1043 6A100000 		.4byte	0x106a
 4080 1047 08       		.uleb128 0x8
 4081 1048 626700   		.ascii	"bg\000"
 4082 104b 14       		.byte	0x14
 4083 104c DF       		.byte	0xdf
 4084 104d 4D050000 		.4byte	0x54d
 4085 1051 00       		.byte	0
 4086 1052 07       		.uleb128 0x7
 4087 1053 C2030000 		.4byte	.LASF180
 4088 1057 14       		.byte	0x14
 4089 1058 E0       		.byte	0xe0
 4090 1059 4D050000 		.4byte	0x54d
 4091 105d 04       		.byte	0x4
 4092 105e 08       		.uleb128 0x8
 4093 105f 736200   		.ascii	"sb\000"
 4094 1062 14       		.byte	0x14
 4095 1063 E1       		.byte	0xe1
 4096 1064 4D050000 		.4byte	0x54d
 4097 1068 08       		.byte	0x8
 4098 1069 00       		.byte	0
 4099 106a 06       		.uleb128 0x6
 4100 106b 10       		.byte	0x10
 4101 106c 14       		.byte	0x14
 4102 106d E6       		.byte	0xe6
 4103 106e A2100000 		.4byte	0x10a2
 4104 1072 07       		.uleb128 0x7
 4105 1073 CC060000 		.4byte	.LASF195
 4106 1077 14       		.byte	0x14
 4107 1078 E8       		.byte	0xe8
 4108 1079 4D050000 		.4byte	0x54d
 4109 107d 00       		.byte	0
 4110 107e 07       		.uleb128 0x7
 4111 107f C0070000 		.4byte	.LASF239
 4112 1083 14       		.byte	0x14
 4113 1084 E9       		.byte	0xe9
 4114 1085 4D050000 		.4byte	0x54d
 4115 1089 04       		.byte	0x4
 4116 108a 07       		.uleb128 0x7
 4117 108b EB0F0000 		.4byte	.LASF205
 4118 108f 14       		.byte	0x14
 4119 1090 EA       		.byte	0xea
 4120 1091 4D050000 		.4byte	0x54d
 4121 1095 08       		.byte	0x8
 4122 1096 08       		.uleb128 0x8
 4123 1097 736200   		.ascii	"sb\000"
 4124 109a 14       		.byte	0x14
 4125 109b EB       		.byte	0xeb
 4126 109c 4D050000 		.4byte	0x54d
 4127 10a0 0C       		.byte	0xc
 4128 10a1 00       		.byte	0
 4129 10a2 06       		.uleb128 0x6
 4130 10a3 0C       		.byte	0xc
 4131 10a4 14       		.byte	0x14
 4132 10a5 F0       		.byte	0xf0
 4133 10a6 CD100000 		.4byte	0x10cd
ARM GAS  C:\Users\pearlstl\AppData\Local\Temp\cc98wxIE.s 			page 89


 4134 10aa 08       		.uleb128 0x8
 4135 10ab 626700   		.ascii	"bg\000"
 4136 10ae 14       		.byte	0x14
 4137 10af F2       		.byte	0xf2
 4138 10b0 4D050000 		.4byte	0x54d
 4139 10b4 00       		.byte	0
 4140 10b5 07       		.uleb128 0x7
 4141 10b6 EB0F0000 		.4byte	.LASF205
 4142 10ba 14       		.byte	0x14
 4143 10bb F3       		.byte	0xf3
 4144 10bc 4D050000 		.4byte	0x54d
 4145 10c0 04       		.byte	0x4
 4146 10c1 08       		.uleb128 0x8
 4147 10c2 736200   		.ascii	"sb\000"
 4148 10c5 14       		.byte	0x14
 4149 10c6 F4       		.byte	0xf4
 4150 10c7 4D050000 		.4byte	0x54d
 4151 10cb 08       		.byte	0x8
 4152 10cc 00       		.byte	0
 4153 10cd 06       		.uleb128 0x6
 4154 10ce 14       		.byte	0x14
 4155 10cf 14       		.byte	0x14
 4156 10d0 FE       		.byte	0xfe
 4157 10d1 16110000 		.4byte	0x1116
 4158 10d5 19       		.uleb128 0x19
 4159 10d6 72656C00 		.ascii	"rel\000"
 4160 10da 14       		.byte	0x14
 4161 10db 0001     		.2byte	0x100
 4162 10dd 4D050000 		.4byte	0x54d
 4163 10e1 00       		.byte	0
 4164 10e2 19       		.uleb128 0x19
 4165 10e3 707200   		.ascii	"pr\000"
 4166 10e6 14       		.byte	0x14
 4167 10e7 0101     		.2byte	0x101
 4168 10e9 4D050000 		.4byte	0x54d
 4169 10ed 04       		.byte	0x4
 4170 10ee 1A       		.uleb128 0x1a
 4171 10ef 20090000 		.4byte	.LASF221
 4172 10f3 14       		.byte	0x14
 4173 10f4 0201     		.2byte	0x102
 4174 10f6 4D050000 		.4byte	0x54d
 4175 10fa 08       		.byte	0x8
 4176 10fb 1A       		.uleb128 0x1a
 4177 10fc 9C030000 		.4byte	.LASF222
 4178 1100 14       		.byte	0x14
 4179 1101 0301     		.2byte	0x103
 4180 1103 4D050000 		.4byte	0x54d
 4181 1107 0C       		.byte	0xc
 4182 1108 19       		.uleb128 0x19
 4183 1109 696E6100 		.ascii	"ina\000"
 4184 110d 14       		.byte	0x14
 4185 110e 0401     		.2byte	0x104
 4186 1110 4D050000 		.4byte	0x54d
 4187 1114 10       		.byte	0x10
 4188 1115 00       		.byte	0
 4189 1116 06       		.uleb128 0x6
 4190 1117 20       		.byte	0x20
ARM GAS  C:\Users\pearlstl\AppData\Local\Temp\cc98wxIE.s 			page 90


 4191 1118 14       		.byte	0x14
 4192 1119 F9       		.byte	0xf9
 4193 111a 4E110000 		.4byte	0x114e
 4194 111e 08       		.uleb128 0x8
 4195 111f 626700   		.ascii	"bg\000"
 4196 1122 14       		.byte	0x14
 4197 1123 FB       		.byte	0xfb
 4198 1124 4D050000 		.4byte	0x54d
 4199 1128 00       		.byte	0
 4200 1129 07       		.uleb128 0x7
 4201 112a C2030000 		.4byte	.LASF180
 4202 112e 14       		.byte	0x14
 4203 112f FC       		.byte	0xfc
 4204 1130 4D050000 		.4byte	0x54d
 4205 1134 04       		.byte	0x4
 4206 1135 08       		.uleb128 0x8
 4207 1136 736200   		.ascii	"sb\000"
 4208 1139 14       		.byte	0x14
 4209 113a FD       		.byte	0xfd
 4210 113b 4D050000 		.4byte	0x54d
 4211 113f 08       		.byte	0x8
 4212 1140 19       		.uleb128 0x19
 4213 1141 62746E00 		.ascii	"btn\000"
 4214 1145 14       		.byte	0x14
 4215 1146 0501     		.2byte	0x105
 4216 1148 CD100000 		.4byte	0x10cd
 4217 114c 0C       		.byte	0xc
 4218 114d 00       		.byte	0
 4219 114e 1B       		.uleb128 0x1b
 4220 114f 0C       		.byte	0xc
 4221 1150 14       		.byte	0x14
 4222 1151 0A01     		.2byte	0x10a
 4223 1153 7D110000 		.4byte	0x117d
 4224 1157 19       		.uleb128 0x19
 4225 1158 626700   		.ascii	"bg\000"
 4226 115b 14       		.byte	0x14
 4227 115c 0C01     		.2byte	0x10c
 4228 115e 4D050000 		.4byte	0x54d
 4229 1162 00       		.byte	0
 4230 1163 19       		.uleb128 0x19
 4231 1164 73656C00 		.ascii	"sel\000"
 4232 1168 14       		.byte	0x14
 4233 1169 0D01     		.2byte	0x10d
 4234 116b 4D050000 		.4byte	0x54d
 4235 116f 04       		.byte	0x4
 4236 1170 19       		.uleb128 0x19
 4237 1171 736200   		.ascii	"sb\000"
 4238 1174 14       		.byte	0x14
 4239 1175 0E01     		.2byte	0x10e
 4240 1177 4D050000 		.4byte	0x54d
 4241 117b 08       		.byte	0x8
 4242 117c 00       		.byte	0
 4243 117d 1B       		.uleb128 0x1b
 4244 117e 08       		.byte	0x8
 4245 117f 14       		.byte	0x14
 4246 1180 1301     		.2byte	0x113
 4247 1182 A0110000 		.4byte	0x11a0
ARM GAS  C:\Users\pearlstl\AppData\Local\Temp\cc98wxIE.s 			page 91


 4248 1186 19       		.uleb128 0x19
 4249 1187 626700   		.ascii	"bg\000"
 4250 118a 14       		.byte	0x14
 4251 118b 1501     		.2byte	0x115
 4252 118d 4D050000 		.4byte	0x54d
 4253 1191 00       		.byte	0
 4254 1192 19       		.uleb128 0x19
 4255 1193 73656C00 		.ascii	"sel\000"
 4256 1197 14       		.byte	0x14
 4257 1198 1601     		.2byte	0x116
 4258 119a 4D050000 		.4byte	0x54d
 4259 119e 04       		.byte	0x4
 4260 119f 00       		.byte	0
 4261 11a0 1B       		.uleb128 0x1b
 4262 11a1 14       		.byte	0x14
 4263 11a2 14       		.byte	0x14
 4264 11a3 1F01     		.2byte	0x11f
 4265 11a5 E9110000 		.4byte	0x11e9
 4266 11a9 19       		.uleb128 0x19
 4267 11aa 626700   		.ascii	"bg\000"
 4268 11ad 14       		.byte	0x14
 4269 11ae 2101     		.2byte	0x121
 4270 11b0 4D050000 		.4byte	0x54d
 4271 11b4 00       		.byte	0
 4272 11b5 19       		.uleb128 0x19
 4273 11b6 72656C00 		.ascii	"rel\000"
 4274 11ba 14       		.byte	0x14
 4275 11bb 2201     		.2byte	0x122
 4276 11bd 4D050000 		.4byte	0x54d
 4277 11c1 04       		.byte	0x4
 4278 11c2 19       		.uleb128 0x19
 4279 11c3 707200   		.ascii	"pr\000"
 4280 11c6 14       		.byte	0x14
 4281 11c7 2301     		.2byte	0x123
 4282 11c9 4D050000 		.4byte	0x54d
 4283 11cd 08       		.byte	0x8
 4284 11ce 1A       		.uleb128 0x1a
 4285 11cf 20090000 		.4byte	.LASF221
 4286 11d3 14       		.byte	0x14
 4287 11d4 2401     		.2byte	0x124
 4288 11d6 4D050000 		.4byte	0x54d
 4289 11da 0C       		.byte	0xc
 4290 11db 1A       		.uleb128 0x1a
 4291 11dc 9C030000 		.4byte	.LASF222
 4292 11e0 14       		.byte	0x14
 4293 11e1 2501     		.2byte	0x125
 4294 11e3 4D050000 		.4byte	0x54d
 4295 11e7 10       		.byte	0x10
 4296 11e8 00       		.byte	0
 4297 11e9 1B       		.uleb128 0x1b
 4298 11ea 1C       		.byte	0x1c
 4299 11eb 14       		.byte	0x14
 4300 11ec 1B01     		.2byte	0x11b
 4301 11ee 19120000 		.4byte	0x1219
 4302 11f2 19       		.uleb128 0x19
 4303 11f3 626700   		.ascii	"bg\000"
 4304 11f6 14       		.byte	0x14
ARM GAS  C:\Users\pearlstl\AppData\Local\Temp\cc98wxIE.s 			page 92


 4305 11f7 1D01     		.2byte	0x11d
 4306 11f9 4D050000 		.4byte	0x54d
 4307 11fd 00       		.byte	0
 4308 11fe 1A       		.uleb128 0x1a
 4309 11ff 79080000 		.4byte	.LASF228
 4310 1203 14       		.byte	0x14
 4311 1204 1E01     		.2byte	0x11e
 4312 1206 4D050000 		.4byte	0x54d
 4313 120a 04       		.byte	0x4
 4314 120b 19       		.uleb128 0x19
 4315 120c 62746E00 		.ascii	"btn\000"
 4316 1210 14       		.byte	0x14
 4317 1211 2601     		.2byte	0x126
 4318 1213 A0110000 		.4byte	0x11a0
 4319 1217 08       		.byte	0x8
 4320 1218 00       		.byte	0
 4321 1219 1B       		.uleb128 0x1b
 4322 121a 0C       		.byte	0xc
 4323 121b 14       		.byte	0x14
 4324 121c 2B01     		.2byte	0x12b
 4325 121e 48120000 		.4byte	0x1248
 4326 1222 19       		.uleb128 0x19
 4327 1223 626700   		.ascii	"bg\000"
 4328 1226 14       		.byte	0x14
 4329 1227 2D01     		.2byte	0x12d
 4330 1229 4D050000 		.4byte	0x54d
 4331 122d 00       		.byte	0
 4332 122e 1A       		.uleb128 0x1a
 4333 122f C2030000 		.4byte	.LASF180
 4334 1233 14       		.byte	0x14
 4335 1234 2E01     		.2byte	0x12e
 4336 1236 4D050000 		.4byte	0x54d
 4337 123a 04       		.byte	0x4
 4338 123b 19       		.uleb128 0x19
 4339 123c 736200   		.ascii	"sb\000"
 4340 123f 14       		.byte	0x14
 4341 1240 2F01     		.2byte	0x12f
 4342 1242 4D050000 		.4byte	0x54d
 4343 1246 08       		.byte	0x8
 4344 1247 00       		.byte	0
 4345 1248 1B       		.uleb128 0x1b
 4346 1249 08       		.byte	0x8
 4347 124a 14       		.byte	0x14
 4348 124b 3401     		.2byte	0x134
 4349 124d 6B120000 		.4byte	0x126b
 4350 1251 19       		.uleb128 0x19
 4351 1252 626700   		.ascii	"bg\000"
 4352 1255 14       		.byte	0x14
 4353 1256 3601     		.2byte	0x136
 4354 1258 4D050000 		.4byte	0x54d
 4355 125c 00       		.byte	0
 4356 125d 1A       		.uleb128 0x1a
 4357 125e 47000000 		.4byte	.LASF240
 4358 1262 14       		.byte	0x14
 4359 1263 3701     		.2byte	0x137
 4360 1265 4D050000 		.4byte	0x54d
 4361 1269 04       		.byte	0x4
ARM GAS  C:\Users\pearlstl\AppData\Local\Temp\cc98wxIE.s 			page 93


 4362 126a 00       		.byte	0
 4363 126b 1B       		.uleb128 0x1b
 4364 126c 08       		.byte	0x8
 4365 126d 14       		.byte	0x14
 4366 126e 4201     		.2byte	0x142
 4367 1270 8E120000 		.4byte	0x128e
 4368 1274 19       		.uleb128 0x19
 4369 1275 72656C00 		.ascii	"rel\000"
 4370 1279 14       		.byte	0x14
 4371 127a 4401     		.2byte	0x144
 4372 127c 4D050000 		.4byte	0x54d
 4373 1280 00       		.byte	0
 4374 1281 19       		.uleb128 0x19
 4375 1282 707200   		.ascii	"pr\000"
 4376 1285 14       		.byte	0x14
 4377 1286 4501     		.2byte	0x145
 4378 1288 4D050000 		.4byte	0x54d
 4379 128c 04       		.byte	0x4
 4380 128d 00       		.byte	0
 4381 128e 1B       		.uleb128 0x1b
 4382 128f 18       		.byte	0x18
 4383 1290 14       		.byte	0x14
 4384 1291 3C01     		.2byte	0x13c
 4385 1293 D7120000 		.4byte	0x12d7
 4386 1297 19       		.uleb128 0x19
 4387 1298 626700   		.ascii	"bg\000"
 4388 129b 14       		.byte	0x14
 4389 129c 3E01     		.2byte	0x13e
 4390 129e 4D050000 		.4byte	0x54d
 4391 12a2 00       		.byte	0
 4392 12a3 19       		.uleb128 0x19
 4393 12a4 736200   		.ascii	"sb\000"
 4394 12a7 14       		.byte	0x14
 4395 12a8 3F01     		.2byte	0x13f
 4396 12aa 4D050000 		.4byte	0x54d
 4397 12ae 04       		.byte	0x4
 4398 12af 1A       		.uleb128 0x1a
 4399 12b0 71040000 		.4byte	.LASF232
 4400 12b4 14       		.byte	0x14
 4401 12b5 4001     		.2byte	0x140
 4402 12b7 4D050000 		.4byte	0x54d
 4403 12bb 08       		.byte	0x8
 4404 12bc 1A       		.uleb128 0x1a
 4405 12bd 9D0E0000 		.4byte	.LASF241
 4406 12c1 14       		.byte	0x14
 4407 12c2 4101     		.2byte	0x141
 4408 12c4 4D050000 		.4byte	0x54d
 4409 12c8 0C       		.byte	0xc
 4410 12c9 19       		.uleb128 0x19
 4411 12ca 62746E00 		.ascii	"btn\000"
 4412 12ce 14       		.byte	0x14
 4413 12cf 4601     		.2byte	0x146
 4414 12d1 6B120000 		.4byte	0x126b
 4415 12d5 10       		.byte	0x10
 4416 12d6 00       		.byte	0
 4417 12d7 1C       		.uleb128 0x1c
 4418 12d8 A801     		.2byte	0x1a8
ARM GAS  C:\Users\pearlstl\AppData\Local\Temp\cc98wxIE.s 			page 94


 4419 12da 14       		.byte	0x14
 4420 12db 29       		.byte	0x29
 4421 12dc 79140000 		.4byte	0x1479
 4422 12e0 08       		.uleb128 0x8
 4423 12e1 73637200 		.ascii	"scr\000"
 4424 12e5 14       		.byte	0x14
 4425 12e6 2B       		.byte	0x2b
 4426 12e7 4D050000 		.4byte	0x54d
 4427 12eb 00       		.byte	0
 4428 12ec 08       		.uleb128 0x8
 4429 12ed 626700   		.ascii	"bg\000"
 4430 12f0 14       		.byte	0x14
 4431 12f1 2C       		.byte	0x2c
 4432 12f2 4D050000 		.4byte	0x54d
 4433 12f6 04       		.byte	0x4
 4434 12f7 07       		.uleb128 0x7
 4435 12f8 FC0B0000 		.4byte	.LASF242
 4436 12fc 14       		.byte	0x14
 4437 12fd 2D       		.byte	0x2d
 4438 12fe 4D050000 		.4byte	0x54d
 4439 1302 08       		.byte	0x8
 4440 1303 07       		.uleb128 0x7
 4441 1304 C5010000 		.4byte	.LASF243
 4442 1308 14       		.byte	0x14
 4443 1309 30       		.byte	0x30
 4444 130a 4D050000 		.4byte	0x54d
 4445 130e 0C       		.byte	0xc
 4446 130f 08       		.uleb128 0x8
 4447 1310 62746E00 		.ascii	"btn\000"
 4448 1314 14       		.byte	0x14
 4449 1315 3B       		.byte	0x3b
 4450 1316 F10C0000 		.4byte	0xcf1
 4451 131a 10       		.byte	0x10
 4452 131b 07       		.uleb128 0x7
 4453 131c 2C0A0000 		.4byte	.LASF244
 4454 1320 14       		.byte	0x14
 4455 1321 46       		.byte	0x46
 4456 1322 350D0000 		.4byte	0xd35
 4457 1326 24       		.byte	0x24
 4458 1327 07       		.uleb128 0x7
 4459 1328 350F0000 		.4byte	.LASF199
 4460 132c 14       		.byte	0x14
 4461 132d 4F       		.byte	0x4f
 4462 132e 790D0000 		.4byte	0xd79
 4463 1332 38       		.byte	0x38
 4464 1333 08       		.uleb128 0x8
 4465 1334 696D6700 		.ascii	"img\000"
 4466 1338 14       		.byte	0x14
 4467 1339 57       		.byte	0x57
 4468 133a A60D0000 		.4byte	0xda6
 4469 133e 44       		.byte	0x44
 4470 133f 07       		.uleb128 0x7
 4471 1340 36070000 		.4byte	.LASF73
 4472 1344 14       		.byte	0x14
 4473 1345 5E       		.byte	0x5e
 4474 1346 C70D0000 		.4byte	0xdc7
 4475 134a 4C       		.byte	0x4c
ARM GAS  C:\Users\pearlstl\AppData\Local\Temp\cc98wxIE.s 			page 95


 4476 134b 08       		.uleb128 0x8
 4477 134c 6C656400 		.ascii	"led\000"
 4478 1350 14       		.byte	0x14
 4479 1351 62       		.byte	0x62
 4480 1352 4D050000 		.4byte	0x54d
 4481 1356 50       		.byte	0x50
 4482 1357 08       		.uleb128 0x8
 4483 1358 62617200 		.ascii	"bar\000"
 4484 135c 14       		.byte	0x14
 4485 135d 6A       		.byte	0x6a
 4486 135e DC0D0000 		.4byte	0xddc
 4487 1362 54       		.byte	0x54
 4488 1363 07       		.uleb128 0x7
 4489 1364 56070000 		.4byte	.LASF245
 4490 1368 14       		.byte	0x14
 4491 1369 73       		.byte	0x73
 4492 136a FC0D0000 		.4byte	0xdfc
 4493 136e 5C       		.byte	0x5c
 4494 136f 07       		.uleb128 0x7
 4495 1370 A2000000 		.4byte	.LASF246
 4496 1374 14       		.byte	0x14
 4497 1375 77       		.byte	0x77
 4498 1376 4D050000 		.4byte	0x54d
 4499 137a 68       		.byte	0x68
 4500 137b 07       		.uleb128 0x7
 4501 137c AC090000 		.4byte	.LASF247
 4502 1380 14       		.byte	0x14
 4503 1381 7B       		.byte	0x7b
 4504 1382 4D050000 		.4byte	0x54d
 4505 1386 6C       		.byte	0x6c
 4506 1387 08       		.uleb128 0x8
 4507 1388 61726300 		.ascii	"arc\000"
 4508 138c 14       		.byte	0x14
 4509 138d 7F       		.byte	0x7f
 4510 138e 4D050000 		.4byte	0x54d
 4511 1392 70       		.byte	0x70
 4512 1393 07       		.uleb128 0x7
 4513 1394 720F0000 		.4byte	.LASF248
 4514 1398 14       		.byte	0x14
 4515 1399 83       		.byte	0x83
 4516 139a 4D050000 		.4byte	0x54d
 4517 139e 74       		.byte	0x74
 4518 139f 08       		.uleb128 0x8
 4519 13a0 737700   		.ascii	"sw\000"
 4520 13a3 14       		.byte	0x14
 4521 13a4 8D       		.byte	0x8d
 4522 13a5 280E0000 		.4byte	0xe28
 4523 13a9 78       		.byte	0x78
 4524 13aa 07       		.uleb128 0x7
 4525 13ab 82020000 		.4byte	.LASF249
 4526 13af 14       		.byte	0x14
 4527 13b0 91       		.byte	0x91
 4528 13b1 4D050000 		.4byte	0x54d
 4529 13b5 88       		.byte	0x88
 4530 13b6 07       		.uleb128 0x7
 4531 13b7 AB0C0000 		.4byte	.LASF250
 4532 13bb 14       		.byte	0x14
ARM GAS  C:\Users\pearlstl\AppData\Local\Temp\cc98wxIE.s 			page 96


 4533 13bc 9F       		.byte	0x9f
 4534 13bd 600E0000 		.4byte	0xe60
 4535 13c1 8C       		.byte	0x8c
 4536 13c2 08       		.uleb128 0x8
 4537 13c3 636200   		.ascii	"cb\000"
 4538 13c6 14       		.byte	0x14
 4539 13c7 AE       		.byte	0xae
 4540 13c8 0C0F0000 		.4byte	0xf0c
 4541 13cc AC       		.byte	0xac
 4542 13cd 07       		.uleb128 0x7
 4543 13ce 61030000 		.4byte	.LASF251
 4544 13d2 14       		.byte	0x14
 4545 13d3 BD       		.byte	0xbd
 4546 13d4 700F0000 		.4byte	0xf70
 4547 13d8 C4       		.byte	0xc4
 4548 13d9 08       		.uleb128 0x8
 4549 13da 6B6200   		.ascii	"kb\000"
 4550 13dd 14       		.byte	0x14
 4551 13de CC       		.byte	0xcc
 4552 13df D40F0000 		.4byte	0xfd4
 4553 13e3 DC       		.byte	0xdc
 4554 13e4 07       		.uleb128 0x7
 4555 13e5 8A0C0000 		.4byte	.LASF252
 4556 13e9 14       		.byte	0x14
 4557 13ea D9       		.byte	0xd9
 4558 13eb 1F100000 		.4byte	0x101f
 4559 13ef F4       		.byte	0xf4
 4560 13f0 1D       		.uleb128 0x1d
 4561 13f1 9E090000 		.4byte	.LASF198
 4562 13f5 14       		.byte	0x14
 4563 13f6 E2       		.byte	0xe2
 4564 13f7 3F100000 		.4byte	0x103f
 4565 13fb 0401     		.2byte	0x104
 4566 13fd 1E       		.uleb128 0x1e
 4567 13fe 746100   		.ascii	"ta\000"
 4568 1401 14       		.byte	0x14
 4569 1402 EC       		.byte	0xec
 4570 1403 6A100000 		.4byte	0x106a
 4571 1407 1001     		.2byte	0x110
 4572 1409 1D       		.uleb128 0x1d
 4573 140a D10D0000 		.4byte	.LASF253
 4574 140e 14       		.byte	0x14
 4575 140f F5       		.byte	0xf5
 4576 1410 A2100000 		.4byte	0x10a2
 4577 1414 2001     		.2byte	0x120
 4578 1416 1F       		.uleb128 0x1f
 4579 1417 65090000 		.4byte	.LASF254
 4580 141b 14       		.byte	0x14
 4581 141c 0601     		.2byte	0x106
 4582 141e 16110000 		.4byte	0x1116
 4583 1422 2C01     		.2byte	0x12c
 4584 1424 1F       		.uleb128 0x1f
 4585 1425 A8050000 		.4byte	.LASF255
 4586 1429 14       		.byte	0x14
 4587 142a 0F01     		.2byte	0x10f
 4588 142c 4E110000 		.4byte	0x114e
 4589 1430 4C01     		.2byte	0x14c
ARM GAS  C:\Users\pearlstl\AppData\Local\Temp\cc98wxIE.s 			page 97


 4590 1432 1F       		.uleb128 0x1f
 4591 1433 2B100000 		.4byte	.LASF256
 4592 1437 14       		.byte	0x14
 4593 1438 1701     		.2byte	0x117
 4594 143a 7D110000 		.4byte	0x117d
 4595 143e 5801     		.2byte	0x158
 4596 1440 1F       		.uleb128 0x1f
 4597 1441 8E080000 		.4byte	.LASF257
 4598 1445 14       		.byte	0x14
 4599 1446 2701     		.2byte	0x127
 4600 1448 E9110000 		.4byte	0x11e9
 4601 144c 6001     		.2byte	0x160
 4602 144e 1F       		.uleb128 0x1f
 4603 144f 43030000 		.4byte	.LASF258
 4604 1453 14       		.byte	0x14
 4605 1454 3001     		.2byte	0x130
 4606 1456 19120000 		.4byte	0x1219
 4607 145a 7C01     		.2byte	0x17c
 4608 145c 1F       		.uleb128 0x1f
 4609 145d BC040000 		.4byte	.LASF259
 4610 1461 14       		.byte	0x14
 4611 1462 3801     		.2byte	0x138
 4612 1464 48120000 		.4byte	0x1248
 4613 1468 8801     		.2byte	0x188
 4614 146a 20       		.uleb128 0x20
 4615 146b 77696E00 		.ascii	"win\000"
 4616 146f 14       		.byte	0x14
 4617 1470 4701     		.2byte	0x147
 4618 1472 8E120000 		.4byte	0x128e
 4619 1476 9001     		.2byte	0x190
 4620 1478 00       		.byte	0
 4621 1479 1C       		.uleb128 0x1c
 4622 147a A801     		.2byte	0x1a8
 4623 147c 14       		.byte	0x14
 4624 147d 27       		.byte	0x27
 4625 147e 90140000 		.4byte	0x1490
 4626 1482 1A       		.uleb128 0x1a
 4627 1483 070A0000 		.4byte	.LASF168
 4628 1487 14       		.byte	0x14
 4629 1488 4901     		.2byte	0x149
 4630 148a D7120000 		.4byte	0x12d7
 4631 148e 00       		.byte	0
 4632 148f 00       		.byte	0
 4633 1490 12       		.uleb128 0x12
 4634 1491 D50B0000 		.4byte	.LASF260
 4635 1495 14       		.byte	0x14
 4636 1496 5401     		.2byte	0x154
 4637 1498 79140000 		.4byte	0x1479
 4638 149c 21       		.uleb128 0x21
 4639 149d 81060000 		.4byte	.LASF313
 4640 14a1 02       		.byte	0x2
 4641 14a2 55       		.byte	0x55
 4642 14a3 03       		.byte	0x3
 4643 14a4 CA140000 		.4byte	0x14ca
 4644 14a8 22       		.uleb128 0x22
 4645 14a9 D10D0000 		.4byte	.LASF253
 4646 14ad 02       		.byte	0x2
ARM GAS  C:\Users\pearlstl\AppData\Local\Temp\cc98wxIE.s 			page 98


 4647 14ae 55       		.byte	0x55
 4648 14af EE0A0000 		.4byte	0xaee
 4649 14b3 22       		.uleb128 0x22
 4650 14b4 96010000 		.4byte	.LASF51
 4651 14b8 02       		.byte	0x2
 4652 14b9 55       		.byte	0x55
 4653 14ba E60C0000 		.4byte	0xce6
 4654 14be 22       		.uleb128 0x22
 4655 14bf 070A0000 		.4byte	.LASF168
 4656 14c3 02       		.byte	0x2
 4657 14c4 55       		.byte	0x55
 4658 14c5 4D050000 		.4byte	0x54d
 4659 14c9 00       		.byte	0
 4660 14ca 23       		.uleb128 0x23
 4661 14cb 17070000 		.4byte	.LASF267
 4662 14cf 01       		.byte	0x1
 4663 14d0 A8       		.byte	0xa8
 4664 14d1 01       		.byte	0x1
 4665 14d2 F8140000 		.4byte	0x14f8
 4666 14d6 22       		.uleb128 0x22
 4667 14d7 D10D0000 		.4byte	.LASF253
 4668 14db 01       		.byte	0x1
 4669 14dc A8       		.byte	0xa8
 4670 14dd EE0A0000 		.4byte	0xaee
 4671 14e1 22       		.uleb128 0x22
 4672 14e2 CC030000 		.4byte	.LASF212
 4673 14e6 01       		.byte	0x1
 4674 14e7 A8       		.byte	0xa8
 4675 14e8 E4000000 		.4byte	0xe4
 4676 14ec 24       		.uleb128 0x24
 4677 14ed 65787400 		.ascii	"ext\000"
 4678 14f1 01       		.byte	0x1
 4679 14f2 AC       		.byte	0xac
 4680 14f3 F8140000 		.4byte	0x14f8
 4681 14f7 00       		.byte	0
 4682 14f8 0D       		.uleb128 0xd
 4683 14f9 04       		.byte	0x4
 4684 14fa BC0C0000 		.4byte	0xcbc
 4685 14fe 25       		.uleb128 0x25
 4686 14ff A5020000 		.4byte	.LASF314
 4687 1503 01       		.byte	0x1
 4688 1504 9101     		.2byte	0x191
 4689 1506 00000000 		.4byte	.LFB70
 4690 150a 18030000 		.4byte	.LFE70-.LFB70
 4691 150e 01       		.uleb128 0x1
 4692 150f 9C       		.byte	0x9c
 4693 1510 43160000 		.4byte	0x1643
 4694 1514 26       		.uleb128 0x26
 4695 1515 D10D0000 		.4byte	.LASF253
 4696 1519 01       		.byte	0x1
 4697 151a 9101     		.2byte	0x191
 4698 151c EE0A0000 		.4byte	0xaee
 4699 1520 00000000 		.4byte	.LLST0
 4700 1524 27       		.uleb128 0x27
 4701 1525 65787400 		.ascii	"ext\000"
 4702 1529 01       		.byte	0x1
 4703 152a 9301     		.2byte	0x193
ARM GAS  C:\Users\pearlstl\AppData\Local\Temp\cc98wxIE.s 			page 99


 4704 152c F8140000 		.4byte	0x14f8
 4705 1530 1E000000 		.4byte	.LLST1
 4706 1534 28       		.uleb128 0x28
 4707 1535 62756600 		.ascii	"buf\000"
 4708 1539 01       		.byte	0x1
 4709 153a 9501     		.2byte	0x195
 4710 153c BC020000 		.4byte	0x2bc
 4711 1540 03       		.uleb128 0x3
 4712 1541 91       		.byte	0x91
 4713 1542 887F     		.sleb128 -120
 4714 1544 29       		.uleb128 0x29
 4715 1545 AB030000 		.4byte	.LASF261
 4716 1549 01       		.byte	0x1
 4717 154a 9701     		.2byte	0x197
 4718 154c A4020000 		.4byte	0x2a4
 4719 1550 52000000 		.4byte	.LLST2
 4720 1554 29       		.uleb128 0x29
 4721 1555 8B000000 		.4byte	.LASF262
 4722 1559 01       		.byte	0x1
 4723 155a 9801     		.2byte	0x198
 4724 155c B8000000 		.4byte	0xb8
 4725 1560 C2000000 		.4byte	.LLST3
 4726 1564 27       		.uleb128 0x27
 4727 1565 6900     		.ascii	"i\000"
 4728 1567 01       		.byte	0x1
 4729 1568 A301     		.2byte	0x1a3
 4730 156a D9000000 		.4byte	0xd9
 4731 156e F8000000 		.4byte	.LLST4
 4732 1572 2A       		.uleb128 0x2a
 4733 1573 EF000000 		.4byte	.LASF263
 4734 1577 01       		.byte	0x1
 4735 1578 AA01     		.2byte	0x1aa
 4736 157a 43160000 		.4byte	0x1643
 4737 157e 03       		.uleb128 0x3
 4738 157f 91       		.byte	0x91
 4739 1580 A07F     		.sleb128 -96
 4740 1582 29       		.uleb128 0x29
 4741 1583 2B0E0000 		.4byte	.LASF264
 4742 1587 01       		.byte	0x1
 4743 1588 AF01     		.2byte	0x1af
 4744 158a 9F000000 		.4byte	0x9f
 4745 158e 03030000 		.4byte	.LLST5
 4746 1592 29       		.uleb128 0x29
 4747 1593 28090000 		.4byte	.LASF265
 4748 1597 01       		.byte	0x1
 4749 1598 B901     		.2byte	0x1b9
 4750 159a D9000000 		.4byte	0xd9
 4751 159e 16030000 		.4byte	.LLST6
 4752 15a2 29       		.uleb128 0x29
 4753 15a3 CC030000 		.4byte	.LASF212
 4754 15a7 01       		.byte	0x1
 4755 15a8 D101     		.2byte	0x1d1
 4756 15aa D9000000 		.4byte	0xd9
 4757 15ae 4E030000 		.4byte	.LLST7
 4758 15b2 29       		.uleb128 0x29
 4759 15b3 78040000 		.4byte	.LASF266
 4760 15b7 01       		.byte	0x1
ARM GAS  C:\Users\pearlstl\AppData\Local\Temp\cc98wxIE.s 			page 100


 4761 15b8 D201     		.2byte	0x1d2
 4762 15ba B8000000 		.4byte	0xb8
 4763 15be 6C030000 		.4byte	.LLST8
 4764 15c2 2B       		.uleb128 0x2b
 4765 15c3 0C000000 		.4byte	.LVL1
 4766 15c7 C1210000 		.4byte	0x21c1
 4767 15cb D6150000 		.4byte	0x15d6
 4768 15cf 2C       		.uleb128 0x2c
 4769 15d0 01       		.uleb128 0x1
 4770 15d1 50       		.byte	0x50
 4771 15d2 02       		.uleb128 0x2
 4772 15d3 78       		.byte	0x78
 4773 15d4 00       		.sleb128 0
 4774 15d5 00       		.byte	0
 4775 15d6 2B       		.uleb128 0x2b
 4776 15d7 56000000 		.4byte	.LVL8
 4777 15db CD210000 		.4byte	0x21cd
 4778 15df EA150000 		.4byte	0x15ea
 4779 15e3 2C       		.uleb128 0x2c
 4780 15e4 01       		.uleb128 0x1
 4781 15e5 51       		.byte	0x51
 4782 15e6 02       		.uleb128 0x2
 4783 15e7 75       		.byte	0x75
 4784 15e8 00       		.sleb128 0
 4785 15e9 00       		.byte	0
 4786 15ea 2B       		.uleb128 0x2b
 4787 15eb 5C000000 		.4byte	.LVL9
 4788 15ef D8210000 		.4byte	0x21d8
 4789 15f3 FE150000 		.4byte	0x15fe
 4790 15f7 2C       		.uleb128 0x2c
 4791 15f8 01       		.uleb128 0x1
 4792 15f9 50       		.byte	0x50
 4793 15fa 02       		.uleb128 0x2
 4794 15fb 75       		.byte	0x75
 4795 15fc 00       		.sleb128 0
 4796 15fd 00       		.byte	0
 4797 15fe 2B       		.uleb128 0x2b
 4798 15ff 8C000000 		.4byte	.LVL16
 4799 1603 E3210000 		.4byte	0x21e3
 4800 1607 18160000 		.4byte	0x1618
 4801 160b 2C       		.uleb128 0x2c
 4802 160c 01       		.uleb128 0x1
 4803 160d 50       		.byte	0x50
 4804 160e 02       		.uleb128 0x2
 4805 160f 75       		.byte	0x75
 4806 1610 00       		.sleb128 0
 4807 1611 2C       		.uleb128 0x2c
 4808 1612 01       		.uleb128 0x1
 4809 1613 51       		.byte	0x51
 4810 1614 02       		.uleb128 0x2
 4811 1615 08       		.byte	0x8
 4812 1616 30       		.byte	0x30
 4813 1617 00       		.byte	0
 4814 1618 2B       		.uleb128 0x2b
 4815 1619 FE010000 		.4byte	.LVL33
 4816 161d F2210000 		.4byte	0x21f2
 4817 1621 32160000 		.4byte	0x1632
ARM GAS  C:\Users\pearlstl\AppData\Local\Temp\cc98wxIE.s 			page 101


 4818 1625 2C       		.uleb128 0x2c
 4819 1626 01       		.uleb128 0x1
 4820 1627 50       		.byte	0x50
 4821 1628 02       		.uleb128 0x2
 4822 1629 78       		.byte	0x78
 4823 162a 00       		.sleb128 0
 4824 162b 2C       		.uleb128 0x2c
 4825 162c 01       		.uleb128 0x1
 4826 162d 51       		.byte	0x51
 4827 162e 02       		.uleb128 0x2
 4828 162f 7D       		.byte	0x7d
 4829 1630 00       		.sleb128 0
 4830 1631 00       		.byte	0
 4831 1632 2D       		.uleb128 0x2d
 4832 1633 3E020000 		.4byte	.LVL43
 4833 1637 FD210000 		.4byte	0x21fd
 4834 163b 2C       		.uleb128 0x2c
 4835 163c 01       		.uleb128 0x1
 4836 163d 50       		.byte	0x50
 4837 163e 02       		.uleb128 0x2
 4838 163f 78       		.byte	0x78
 4839 1640 00       		.sleb128 0
 4840 1641 00       		.byte	0
 4841 1642 00       		.byte	0
 4842 1643 13       		.uleb128 0x13
 4843 1644 AA020000 		.4byte	0x2aa
 4844 1648 53160000 		.4byte	0x1653
 4845 164c 14       		.uleb128 0x14
 4846 164d 9D020000 		.4byte	0x29d
 4847 1651 3F       		.byte	0x3f
 4848 1652 00       		.byte	0
 4849 1653 23       		.uleb128 0x23
 4850 1654 63060000 		.4byte	.LASF268
 4851 1658 01       		.byte	0x1
 4852 1659 B8       		.byte	0xb8
 4853 165a 01       		.byte	0x1
 4854 165b 8C160000 		.4byte	0x168c
 4855 165f 22       		.uleb128 0x22
 4856 1660 D10D0000 		.4byte	.LASF253
 4857 1664 01       		.byte	0x1
 4858 1665 B8       		.byte	0xb8
 4859 1666 EE0A0000 		.4byte	0xaee
 4860 166a 22       		.uleb128 0x22
 4861 166b DD070000 		.4byte	.LASF211
 4862 166f 01       		.byte	0x1
 4863 1670 B8       		.byte	0xb8
 4864 1671 D9000000 		.4byte	0xd9
 4865 1675 22       		.uleb128 0x22
 4866 1676 800C0000 		.4byte	.LASF210
 4867 167a 01       		.byte	0x1
 4868 167b B8       		.byte	0xb8
 4869 167c D9000000 		.4byte	0xd9
 4870 1680 24       		.uleb128 0x24
 4871 1681 65787400 		.ascii	"ext\000"
 4872 1685 01       		.byte	0x1
 4873 1686 BC       		.byte	0xbc
 4874 1687 F8140000 		.4byte	0x14f8
ARM GAS  C:\Users\pearlstl\AppData\Local\Temp\cc98wxIE.s 			page 102


 4875 168b 00       		.byte	0
 4876 168c 23       		.uleb128 0x23
 4877 168d 1C0B0000 		.4byte	.LASF269
 4878 1691 01       		.byte	0x1
 4879 1692 92       		.byte	0x92
 4880 1693 01       		.byte	0x1
 4881 1694 C5160000 		.4byte	0x16c5
 4882 1698 22       		.uleb128 0x22
 4883 1699 D10D0000 		.4byte	.LASF253
 4884 169d 01       		.byte	0x1
 4885 169e 92       		.byte	0x92
 4886 169f EE0A0000 		.4byte	0xaee
 4887 16a3 22       		.uleb128 0x22
 4888 16a4 B9010000 		.4byte	.LASF213
 4889 16a8 01       		.byte	0x1
 4890 16a9 92       		.byte	0x92
 4891 16aa B8000000 		.4byte	0xb8
 4892 16ae 22       		.uleb128 0x22
 4893 16af 5C050000 		.4byte	.LASF270
 4894 16b3 01       		.byte	0x1
 4895 16b4 92       		.byte	0x92
 4896 16b5 B8000000 		.4byte	0xb8
 4897 16b9 24       		.uleb128 0x24
 4898 16ba 65787400 		.ascii	"ext\000"
 4899 16be 01       		.byte	0x1
 4900 16bf 96       		.byte	0x96
 4901 16c0 F8140000 		.4byte	0x14f8
 4902 16c4 00       		.byte	0
 4903 16c5 23       		.uleb128 0x23
 4904 16c6 CA0F0000 		.4byte	.LASF271
 4905 16ca 01       		.byte	0x1
 4906 16cb 7C       		.byte	0x7c
 4907 16cc 01       		.byte	0x1
 4908 16cd F1160000 		.4byte	0x16f1
 4909 16d1 22       		.uleb128 0x22
 4910 16d2 D10D0000 		.4byte	.LASF253
 4911 16d6 01       		.byte	0x1
 4912 16d7 7C       		.byte	0x7c
 4913 16d8 EE0A0000 		.4byte	0xaee
 4914 16dc 2E       		.uleb128 0x2e
 4915 16dd 6900     		.ascii	"i\000"
 4916 16df 01       		.byte	0x1
 4917 16e0 7C       		.byte	0x7c
 4918 16e1 D9000000 		.4byte	0xd9
 4919 16e5 24       		.uleb128 0x24
 4920 16e6 65787400 		.ascii	"ext\000"
 4921 16ea 01       		.byte	0x1
 4922 16eb 80       		.byte	0x80
 4923 16ec F8140000 		.4byte	0x14f8
 4924 16f0 00       		.byte	0
 4925 16f1 2F       		.uleb128 0x2f
 4926 16f2 3F090000 		.4byte	.LASF275
 4927 16f6 01       		.byte	0x1
 4928 16f7 34       		.byte	0x34
 4929 16f8 EE0A0000 		.4byte	0xaee
 4930 16fc 00000000 		.4byte	.LFB58
 4931 1700 90010000 		.4byte	.LFE58-.LFB58
ARM GAS  C:\Users\pearlstl\AppData\Local\Temp\cc98wxIE.s 			page 103


 4932 1704 01       		.uleb128 0x1
 4933 1705 9C       		.byte	0x9c
 4934 1706 D81A0000 		.4byte	0x1ad8
 4935 170a 30       		.uleb128 0x30
 4936 170b 70617200 		.ascii	"par\000"
 4937 170f 01       		.byte	0x1
 4938 1710 34       		.byte	0x34
 4939 1711 EE0A0000 		.4byte	0xaee
 4940 1715 B2030000 		.4byte	.LLST9
 4941 1719 31       		.uleb128 0x31
 4942 171a 57030000 		.4byte	.LASF272
 4943 171e 01       		.byte	0x1
 4944 171f 34       		.byte	0x34
 4945 1720 D81A0000 		.4byte	0x1ad8
 4946 1724 D3030000 		.4byte	.LLST10
 4947 1728 32       		.uleb128 0x32
 4948 1729 C90B0000 		.4byte	.LASF273
 4949 172d 01       		.byte	0x1
 4950 172e 39       		.byte	0x39
 4951 172f EE0A0000 		.4byte	0xaee
 4952 1733 F1030000 		.4byte	.LLST11
 4953 1737 33       		.uleb128 0x33
 4954 1738 65787400 		.ascii	"ext\000"
 4955 173c 01       		.byte	0x1
 4956 173d 3E       		.byte	0x3e
 4957 173e F8140000 		.4byte	0x14f8
 4958 1742 1A040000 		.4byte	.LLST12
 4959 1746 34       		.uleb128 0x34
 4960 1747 00000000 		.4byte	.Ldebug_ranges0+0
 4961 174b F9180000 		.4byte	0x18f9
 4962 174f 32       		.uleb128 0x32
 4963 1750 940E0000 		.4byte	.LASF274
 4964 1754 01       		.byte	0x1
 4965 1755 61       		.byte	0x61
 4966 1756 F8140000 		.4byte	0x14f8
 4967 175a 59040000 		.4byte	.LLST13
 4968 175e 35       		.uleb128 0x35
 4969 175f C5160000 		.4byte	0x16c5
 4970 1763 90000000 		.4byte	.LBB29
 4971 1767 18000000 		.4byte	.Ldebug_ranges0+0x18
 4972 176b 01       		.byte	0x1
 4973 176c 63       		.byte	0x63
 4974 176d B7170000 		.4byte	0x17b7
 4975 1771 36       		.uleb128 0x36
 4976 1772 DC160000 		.4byte	0x16dc
 4977 1776 82040000 		.4byte	.LLST14
 4978 177a 36       		.uleb128 0x36
 4979 177b D1160000 		.4byte	0x16d1
 4980 177f D5040000 		.4byte	.LLST15
 4981 1783 37       		.uleb128 0x37
 4982 1784 18000000 		.4byte	.Ldebug_ranges0+0x18
 4983 1788 38       		.uleb128 0x38
 4984 1789 E5160000 		.4byte	0x16e5
 4985 178d E8040000 		.4byte	.LLST16
 4986 1791 2B       		.uleb128 0x2b
 4987 1792 98000000 		.4byte	.LVL82
 4988 1796 C1210000 		.4byte	0x21c1
ARM GAS  C:\Users\pearlstl\AppData\Local\Temp\cc98wxIE.s 			page 104


 4989 179a A5170000 		.4byte	0x17a5
 4990 179e 2C       		.uleb128 0x2c
 4991 179f 01       		.uleb128 0x1
 4992 17a0 50       		.byte	0x50
 4993 17a1 02       		.uleb128 0x2
 4994 17a2 74       		.byte	0x74
 4995 17a3 00       		.sleb128 0
 4996 17a4 00       		.byte	0
 4997 17a5 2D       		.uleb128 0x2d
 4998 17a6 B2000000 		.4byte	.LVL86
 4999 17aa FE140000 		.4byte	0x14fe
 5000 17ae 2C       		.uleb128 0x2c
 5001 17af 01       		.uleb128 0x1
 5002 17b0 50       		.byte	0x50
 5003 17b1 02       		.uleb128 0x2
 5004 17b2 74       		.byte	0x74
 5005 17b3 00       		.sleb128 0
 5006 17b4 00       		.byte	0
 5007 17b5 00       		.byte	0
 5008 17b6 00       		.byte	0
 5009 17b7 35       		.uleb128 0x35
 5010 17b8 8C160000 		.4byte	0x168c
 5011 17bc B6000000 		.4byte	.LBB33
 5012 17c0 30000000 		.4byte	.Ldebug_ranges0+0x30
 5013 17c4 01       		.byte	0x1
 5014 17c5 64       		.byte	0x64
 5015 17c6 19180000 		.4byte	0x1819
 5016 17ca 36       		.uleb128 0x36
 5017 17cb AE160000 		.4byte	0x16ae
 5018 17cf FB040000 		.4byte	.LLST17
 5019 17d3 36       		.uleb128 0x36
 5020 17d4 A3160000 		.4byte	0x16a3
 5021 17d8 12050000 		.4byte	.LLST18
 5022 17dc 36       		.uleb128 0x36
 5023 17dd 98160000 		.4byte	0x1698
 5024 17e1 29050000 		.4byte	.LLST19
 5025 17e5 37       		.uleb128 0x37
 5026 17e6 30000000 		.4byte	.Ldebug_ranges0+0x30
 5027 17ea 38       		.uleb128 0x38
 5028 17eb B9160000 		.4byte	0x16b9
 5029 17ef 52050000 		.4byte	.LLST20
 5030 17f3 2B       		.uleb128 0x2b
 5031 17f4 C2000000 		.4byte	.LVL88
 5032 17f8 C1210000 		.4byte	0x21c1
 5033 17fc 07180000 		.4byte	0x1807
 5034 1800 2C       		.uleb128 0x2c
 5035 1801 01       		.uleb128 0x1
 5036 1802 50       		.byte	0x50
 5037 1803 02       		.uleb128 0x2
 5038 1804 74       		.byte	0x74
 5039 1805 00       		.sleb128 0
 5040 1806 00       		.byte	0
 5041 1807 2D       		.uleb128 0x2d
 5042 1808 18010000 		.4byte	.LVL101
 5043 180c FE140000 		.4byte	0x14fe
 5044 1810 2C       		.uleb128 0x2c
 5045 1811 01       		.uleb128 0x1
ARM GAS  C:\Users\pearlstl\AppData\Local\Temp\cc98wxIE.s 			page 105


 5046 1812 50       		.byte	0x50
 5047 1813 02       		.uleb128 0x2
 5048 1814 74       		.byte	0x74
 5049 1815 00       		.sleb128 0
 5050 1816 00       		.byte	0
 5051 1817 00       		.byte	0
 5052 1818 00       		.byte	0
 5053 1819 35       		.uleb128 0x35
 5054 181a 53160000 		.4byte	0x1653
 5055 181e C4000000 		.4byte	.LBB38
 5056 1822 50000000 		.4byte	.Ldebug_ranges0+0x50
 5057 1826 01       		.byte	0x1
 5058 1827 65       		.byte	0x65
 5059 1828 8F180000 		.4byte	0x188f
 5060 182c 36       		.uleb128 0x36
 5061 182d 75160000 		.4byte	0x1675
 5062 1831 70050000 		.4byte	.LLST21
 5063 1835 36       		.uleb128 0x36
 5064 1836 6A160000 		.4byte	0x166a
 5065 183a 8E050000 		.4byte	.LLST22
 5066 183e 36       		.uleb128 0x36
 5067 183f 5F160000 		.4byte	0x165f
 5068 1843 AC050000 		.4byte	.LLST23
 5069 1847 37       		.uleb128 0x37
 5070 1848 50000000 		.4byte	.Ldebug_ranges0+0x50
 5071 184c 38       		.uleb128 0x38
 5072 184d 80160000 		.4byte	0x1680
 5073 1851 D5050000 		.4byte	.LLST24
 5074 1855 2B       		.uleb128 0x2b
 5075 1856 D0000000 		.4byte	.LVL91
 5076 185a C1210000 		.4byte	0x21c1
 5077 185e 69180000 		.4byte	0x1869
 5078 1862 2C       		.uleb128 0x2c
 5079 1863 01       		.uleb128 0x1
 5080 1864 50       		.byte	0x50
 5081 1865 02       		.uleb128 0x2
 5082 1866 74       		.byte	0x74
 5083 1867 00       		.sleb128 0
 5084 1868 00       		.byte	0
 5085 1869 2B       		.uleb128 0x2b
 5086 186a 22010000 		.4byte	.LVL103
 5087 186e 08220000 		.4byte	0x2208
 5088 1872 7D180000 		.4byte	0x187d
 5089 1876 2C       		.uleb128 0x2c
 5090 1877 01       		.uleb128 0x1
 5091 1878 50       		.byte	0x50
 5092 1879 02       		.uleb128 0x2
 5093 187a 74       		.byte	0x74
 5094 187b 00       		.sleb128 0
 5095 187c 00       		.byte	0
 5096 187d 2D       		.uleb128 0x2d
 5097 187e 2E010000 		.4byte	.LVL106
 5098 1882 08220000 		.4byte	0x2208
 5099 1886 2C       		.uleb128 0x2c
 5100 1887 01       		.uleb128 0x1
 5101 1888 50       		.byte	0x50
 5102 1889 02       		.uleb128 0x2
ARM GAS  C:\Users\pearlstl\AppData\Local\Temp\cc98wxIE.s 			page 106


 5103 188a 74       		.byte	0x74
 5104 188b 00       		.sleb128 0
 5105 188c 00       		.byte	0
 5106 188d 00       		.byte	0
 5107 188e 00       		.byte	0
 5108 188f 35       		.uleb128 0x35
 5109 1890 CA140000 		.4byte	0x14ca
 5110 1894 E4000000 		.4byte	.LBB43
 5111 1898 70000000 		.4byte	.Ldebug_ranges0+0x70
 5112 189c 01       		.byte	0x1
 5113 189d 66       		.byte	0x66
 5114 189e D4180000 		.4byte	0x18d4
 5115 18a2 36       		.uleb128 0x36
 5116 18a3 E1140000 		.4byte	0x14e1
 5117 18a7 14060000 		.4byte	.LLST25
 5118 18ab 36       		.uleb128 0x36
 5119 18ac D6140000 		.4byte	0x14d6
 5120 18b0 27060000 		.4byte	.LLST26
 5121 18b4 37       		.uleb128 0x37
 5122 18b5 70000000 		.4byte	.Ldebug_ranges0+0x70
 5123 18b9 38       		.uleb128 0x38
 5124 18ba EC140000 		.4byte	0x14ec
 5125 18be 45060000 		.4byte	.LLST27
 5126 18c2 2D       		.uleb128 0x2d
 5127 18c3 EC000000 		.4byte	.LVL95
 5128 18c7 C1210000 		.4byte	0x21c1
 5129 18cb 2C       		.uleb128 0x2c
 5130 18cc 01       		.uleb128 0x1
 5131 18cd 50       		.byte	0x50
 5132 18ce 02       		.uleb128 0x2
 5133 18cf 74       		.byte	0x74
 5134 18d0 00       		.sleb128 0
 5135 18d1 00       		.byte	0
 5136 18d2 00       		.byte	0
 5137 18d3 00       		.byte	0
 5138 18d4 2B       		.uleb128 0x2b
 5139 18d5 8E000000 		.4byte	.LVL78
 5140 18d9 C1210000 		.4byte	0x21c1
 5141 18dd E8180000 		.4byte	0x18e8
 5142 18e1 2C       		.uleb128 0x2c
 5143 18e2 01       		.uleb128 0x1
 5144 18e3 50       		.byte	0x50
 5145 18e4 02       		.uleb128 0x2
 5146 18e5 79       		.byte	0x79
 5147 18e6 00       		.sleb128 0
 5148 18e7 00       		.byte	0
 5149 18e8 2D       		.uleb128 0x2d
 5150 18e9 F6000000 		.4byte	.LVL97
 5151 18ed 14220000 		.4byte	0x2214
 5152 18f1 2C       		.uleb128 0x2c
 5153 18f2 01       		.uleb128 0x1
 5154 18f3 50       		.byte	0x50
 5155 18f4 02       		.uleb128 0x2
 5156 18f5 74       		.byte	0x74
 5157 18f6 00       		.sleb128 0
 5158 18f7 00       		.byte	0
 5159 18f8 00       		.byte	0
ARM GAS  C:\Users\pearlstl\AppData\Local\Temp\cc98wxIE.s 			page 107


 5160 18f9 39       		.uleb128 0x39
 5161 18fa 34010000 		.4byte	.LBB50
 5162 18fe 30000000 		.4byte	.LBE50-.LBB50
 5163 1902 EC190000 		.4byte	0x19ec
 5164 1906 33       		.uleb128 0x33
 5165 1907 746800   		.ascii	"th\000"
 5166 190a 01       		.byte	0x1
 5167 190b 58       		.byte	0x58
 5168 190c E31A0000 		.4byte	0x1ae3
 5169 1910 58060000 		.4byte	.LLST28
 5170 1914 3A       		.uleb128 0x3a
 5171 1915 9C140000 		.4byte	0x149c
 5172 1919 3E010000 		.4byte	.LBB51
 5173 191d 0C000000 		.4byte	.LBE51-.LBB51
 5174 1921 01       		.byte	0x1
 5175 1922 5A       		.byte	0x5a
 5176 1923 59190000 		.4byte	0x1959
 5177 1927 36       		.uleb128 0x36
 5178 1928 BE140000 		.4byte	0x14be
 5179 192c 76060000 		.4byte	.LLST29
 5180 1930 36       		.uleb128 0x36
 5181 1931 B3140000 		.4byte	0x14b3
 5182 1935 96060000 		.4byte	.LLST30
 5183 1939 36       		.uleb128 0x36
 5184 193a A8140000 		.4byte	0x14a8
 5185 193e AA060000 		.4byte	.LLST31
 5186 1942 2D       		.uleb128 0x2d
 5187 1943 4A010000 		.4byte	.LVL113
 5188 1947 20220000 		.4byte	0x2220
 5189 194b 2C       		.uleb128 0x2c
 5190 194c 01       		.uleb128 0x1
 5191 194d 50       		.byte	0x50
 5192 194e 02       		.uleb128 0x2
 5193 194f 74       		.byte	0x74
 5194 1950 00       		.sleb128 0
 5195 1951 2C       		.uleb128 0x2c
 5196 1952 01       		.uleb128 0x1
 5197 1953 51       		.byte	0x51
 5198 1954 02       		.uleb128 0x2
 5199 1955 79       		.byte	0x79
 5200 1956 00       		.sleb128 0
 5201 1957 00       		.byte	0
 5202 1958 00       		.byte	0
 5203 1959 3A       		.uleb128 0x3a
 5204 195a 9C140000 		.4byte	0x149c
 5205 195e 4A010000 		.4byte	.LBB53
 5206 1962 0C000000 		.4byte	.LBE53-.LBB53
 5207 1966 01       		.byte	0x1
 5208 1967 5B       		.byte	0x5b
 5209 1968 9D190000 		.4byte	0x199d
 5210 196c 36       		.uleb128 0x36
 5211 196d BE140000 		.4byte	0x14be
 5212 1971 BD060000 		.4byte	.LLST32
 5213 1975 36       		.uleb128 0x36
 5214 1976 B3140000 		.4byte	0x14b3
 5215 197a D2060000 		.4byte	.LLST33
 5216 197e 36       		.uleb128 0x36
ARM GAS  C:\Users\pearlstl\AppData\Local\Temp\cc98wxIE.s 			page 108


 5217 197f A8140000 		.4byte	0x14a8
 5218 1983 E6060000 		.4byte	.LLST34
 5219 1987 2D       		.uleb128 0x2d
 5220 1988 56010000 		.4byte	.LVL114
 5221 198c 20220000 		.4byte	0x2220
 5222 1990 2C       		.uleb128 0x2c
 5223 1991 01       		.uleb128 0x1
 5224 1992 50       		.byte	0x50
 5225 1993 02       		.uleb128 0x2
 5226 1994 74       		.byte	0x74
 5227 1995 00       		.sleb128 0
 5228 1996 2C       		.uleb128 0x2c
 5229 1997 01       		.uleb128 0x1
 5230 1998 51       		.byte	0x51
 5231 1999 01       		.uleb128 0x1
 5232 199a 32       		.byte	0x32
 5233 199b 00       		.byte	0
 5234 199c 00       		.byte	0
 5235 199d 3A       		.uleb128 0x3a
 5236 199e 9C140000 		.4byte	0x149c
 5237 19a2 56010000 		.4byte	.LBB55
 5238 19a6 0E000000 		.4byte	.LBE55-.LBB55
 5239 19aa 01       		.byte	0x1
 5240 19ab 5C       		.byte	0x5c
 5241 19ac E2190000 		.4byte	0x19e2
 5242 19b0 36       		.uleb128 0x36
 5243 19b1 BE140000 		.4byte	0x14be
 5244 19b5 F9060000 		.4byte	.LLST35
 5245 19b9 36       		.uleb128 0x36
 5246 19ba B3140000 		.4byte	0x14b3
 5247 19be 0E070000 		.4byte	.LLST36
 5248 19c2 36       		.uleb128 0x36
 5249 19c3 A8140000 		.4byte	0x14a8
 5250 19c7 22070000 		.4byte	.LLST37
 5251 19cb 2D       		.uleb128 0x2d
 5252 19cc 62010000 		.4byte	.LVL115
 5253 19d0 20220000 		.4byte	0x2220
 5254 19d4 2C       		.uleb128 0x2c
 5255 19d5 01       		.uleb128 0x1
 5256 19d6 50       		.byte	0x50
 5257 19d7 02       		.uleb128 0x2
 5258 19d8 74       		.byte	0x74
 5259 19d9 00       		.sleb128 0
 5260 19da 2C       		.uleb128 0x2c
 5261 19db 01       		.uleb128 0x1
 5262 19dc 51       		.byte	0x51
 5263 19dd 02       		.uleb128 0x2
 5264 19de 78       		.byte	0x78
 5265 19df 00       		.sleb128 0
 5266 19e0 00       		.byte	0
 5267 19e1 00       		.byte	0
 5268 19e2 3B       		.uleb128 0x3b
 5269 19e3 38010000 		.4byte	.LVL109
 5270 19e7 2C220000 		.4byte	0x222c
 5271 19eb 00       		.byte	0
 5272 19ec 2B       		.uleb128 0x2b
 5273 19ed 0A000000 		.4byte	.LVL70
ARM GAS  C:\Users\pearlstl\AppData\Local\Temp\cc98wxIE.s 			page 109


 5274 19f1 38220000 		.4byte	0x2238
 5275 19f5 071A0000 		.4byte	0x1a07
 5276 19f9 2C       		.uleb128 0x2c
 5277 19fa 01       		.uleb128 0x1
 5278 19fb 50       		.byte	0x50
 5279 19fc 03       		.uleb128 0x3
 5280 19fd F3       		.byte	0xf3
 5281 19fe 01       		.uleb128 0x1
 5282 19ff 50       		.byte	0x50
 5283 1a00 2C       		.uleb128 0x2c
 5284 1a01 01       		.uleb128 0x1
 5285 1a02 51       		.byte	0x51
 5286 1a03 02       		.uleb128 0x2
 5287 1a04 79       		.byte	0x79
 5288 1a05 00       		.sleb128 0
 5289 1a06 00       		.byte	0
 5290 1a07 2B       		.uleb128 0x2b
 5291 1a08 18000000 		.4byte	.LVL71
 5292 1a0c 43220000 		.4byte	0x2243
 5293 1a10 211A0000 		.4byte	0x1a21
 5294 1a14 2C       		.uleb128 0x2c
 5295 1a15 01       		.uleb128 0x1
 5296 1a16 50       		.byte	0x50
 5297 1a17 02       		.uleb128 0x2
 5298 1a18 74       		.byte	0x74
 5299 1a19 00       		.sleb128 0
 5300 1a1a 2C       		.uleb128 0x2c
 5301 1a1b 01       		.uleb128 0x1
 5302 1a1c 51       		.byte	0x51
 5303 1a1d 02       		.uleb128 0x2
 5304 1a1e 08       		.byte	0x8
 5305 1a1f 74       		.byte	0x74
 5306 1a20 00       		.byte	0
 5307 1a21 2B       		.uleb128 0x2b
 5308 1a22 62000000 		.4byte	.LVL73
 5309 1a26 4F220000 		.4byte	0x224f
 5310 1a2a 3A1A0000 		.4byte	0x1a3a
 5311 1a2e 2C       		.uleb128 0x2c
 5312 1a2f 01       		.uleb128 0x1
 5313 1a30 50       		.byte	0x50
 5314 1a31 02       		.uleb128 0x2
 5315 1a32 74       		.byte	0x74
 5316 1a33 00       		.sleb128 0
 5317 1a34 2C       		.uleb128 0x2c
 5318 1a35 01       		.uleb128 0x1
 5319 1a36 51       		.byte	0x51
 5320 1a37 01       		.uleb128 0x1
 5321 1a38 32       		.byte	0x32
 5322 1a39 00       		.byte	0
 5323 1a3a 2B       		.uleb128 0x2b
 5324 1a3b 6A000000 		.4byte	.LVL74
 5325 1a3f 5A220000 		.4byte	0x225a
 5326 1a43 541A0000 		.4byte	0x1a54
 5327 1a47 2C       		.uleb128 0x2c
 5328 1a48 01       		.uleb128 0x1
 5329 1a49 50       		.byte	0x50
 5330 1a4a 02       		.uleb128 0x2
ARM GAS  C:\Users\pearlstl\AppData\Local\Temp\cc98wxIE.s 			page 110


 5331 1a4b 74       		.byte	0x74
 5332 1a4c 00       		.sleb128 0
 5333 1a4d 2C       		.uleb128 0x2c
 5334 1a4e 01       		.uleb128 0x1
 5335 1a4f 51       		.byte	0x51
 5336 1a50 02       		.uleb128 0x2
 5337 1a51 78       		.byte	0x78
 5338 1a52 00       		.sleb128 0
 5339 1a53 00       		.byte	0
 5340 1a54 2B       		.uleb128 0x2b
 5341 1a55 72000000 		.4byte	.LVL75
 5342 1a59 65220000 		.4byte	0x2265
 5343 1a5d 6E1A0000 		.4byte	0x1a6e
 5344 1a61 2C       		.uleb128 0x2c
 5345 1a62 01       		.uleb128 0x1
 5346 1a63 50       		.byte	0x50
 5347 1a64 02       		.uleb128 0x2
 5348 1a65 74       		.byte	0x74
 5349 1a66 00       		.sleb128 0
 5350 1a67 2C       		.uleb128 0x2c
 5351 1a68 01       		.uleb128 0x1
 5352 1a69 51       		.byte	0x51
 5353 1a6a 02       		.uleb128 0x2
 5354 1a6b 77       		.byte	0x77
 5355 1a6c 00       		.sleb128 0
 5356 1a6d 00       		.byte	0
 5357 1a6e 2B       		.uleb128 0x2b
 5358 1a6f 7A000000 		.4byte	.LVL76
 5359 1a73 70220000 		.4byte	0x2270
 5360 1a77 8B1A0000 		.4byte	0x1a8b
 5361 1a7b 2C       		.uleb128 0x2c
 5362 1a7c 01       		.uleb128 0x1
 5363 1a7d 50       		.byte	0x50
 5364 1a7e 02       		.uleb128 0x2
 5365 1a7f 74       		.byte	0x74
 5366 1a80 00       		.sleb128 0
 5367 1a81 2C       		.uleb128 0x2c
 5368 1a82 01       		.uleb128 0x1
 5369 1a83 51       		.byte	0x51
 5370 1a84 05       		.uleb128 0x5
 5371 1a85 03       		.byte	0x3
 5372 1a86 00000000 		.4byte	lv_spinbox_signal
 5373 1a8a 00       		.byte	0
 5374 1a8b 2B       		.uleb128 0x2b
 5375 1a8c 82000000 		.4byte	.LVL77
 5376 1a90 7C220000 		.4byte	0x227c
 5377 1a94 9F1A0000 		.4byte	0x1a9f
 5378 1a98 2C       		.uleb128 0x2c
 5379 1a99 01       		.uleb128 0x1
 5380 1a9a 50       		.byte	0x50
 5381 1a9b 02       		.uleb128 0x2
 5382 1a9c 74       		.byte	0x74
 5383 1a9d 00       		.sleb128 0
 5384 1a9e 00       		.byte	0
 5385 1a9f 2B       		.uleb128 0x2b
 5386 1aa0 FC000000 		.4byte	.LVL98
 5387 1aa4 FE140000 		.4byte	0x14fe
ARM GAS  C:\Users\pearlstl\AppData\Local\Temp\cc98wxIE.s 			page 111


 5388 1aa8 B31A0000 		.4byte	0x1ab3
 5389 1aac 2C       		.uleb128 0x2c
 5390 1aad 01       		.uleb128 0x1
 5391 1aae 50       		.byte	0x50
 5392 1aaf 02       		.uleb128 0x2
 5393 1ab0 74       		.byte	0x74
 5394 1ab1 00       		.sleb128 0
 5395 1ab2 00       		.byte	0
 5396 1ab3 2B       		.uleb128 0x2b
 5397 1ab4 70010000 		.4byte	.LVL119
 5398 1ab8 88220000 		.4byte	0x2288
 5399 1abc C71A0000 		.4byte	0x1ac7
 5400 1ac0 2C       		.uleb128 0x2c
 5401 1ac1 01       		.uleb128 0x1
 5402 1ac2 50       		.byte	0x50
 5403 1ac3 02       		.uleb128 0x2
 5404 1ac4 74       		.byte	0x74
 5405 1ac5 00       		.sleb128 0
 5406 1ac6 00       		.byte	0
 5407 1ac7 2D       		.uleb128 0x2d
 5408 1ac8 7A010000 		.4byte	.LVL120
 5409 1acc 94220000 		.4byte	0x2294
 5410 1ad0 2C       		.uleb128 0x2c
 5411 1ad1 01       		.uleb128 0x1
 5412 1ad2 50       		.byte	0x50
 5413 1ad3 02       		.uleb128 0x2
 5414 1ad4 74       		.byte	0x74
 5415 1ad5 00       		.sleb128 0
 5416 1ad6 00       		.byte	0
 5417 1ad7 00       		.byte	0
 5418 1ad8 0D       		.uleb128 0xd
 5419 1ad9 04       		.byte	0x4
 5420 1ada DE1A0000 		.4byte	0x1ade
 5421 1ade 0E       		.uleb128 0xe
 5422 1adf FD080000 		.4byte	0x8fd
 5423 1ae3 0D       		.uleb128 0xd
 5424 1ae4 04       		.byte	0x4
 5425 1ae5 90140000 		.4byte	0x1490
 5426 1ae9 3C       		.uleb128 0x3c
 5427 1aea C5160000 		.4byte	0x16c5
 5428 1aee 00000000 		.4byte	.LFB59
 5429 1af2 2C000000 		.4byte	.LFE59-.LFB59
 5430 1af6 01       		.uleb128 0x1
 5431 1af7 9C       		.byte	0x9c
 5432 1af8 3D1B0000 		.4byte	0x1b3d
 5433 1afc 36       		.uleb128 0x36
 5434 1afd D1160000 		.4byte	0x16d1
 5435 1b01 35070000 		.4byte	.LLST38
 5436 1b05 36       		.uleb128 0x36
 5437 1b06 DC160000 		.4byte	0x16dc
 5438 1b0a 77070000 		.4byte	.LLST39
 5439 1b0e 38       		.uleb128 0x38
 5440 1b0f E5160000 		.4byte	0x16e5
 5441 1b13 DE070000 		.4byte	.LLST40
 5442 1b17 2B       		.uleb128 0x2b
 5443 1b18 0A000000 		.4byte	.LVL122
 5444 1b1c C1210000 		.4byte	0x21c1
ARM GAS  C:\Users\pearlstl\AppData\Local\Temp\cc98wxIE.s 			page 112


 5445 1b20 2B1B0000 		.4byte	0x1b2b
 5446 1b24 2C       		.uleb128 0x2c
 5447 1b25 01       		.uleb128 0x1
 5448 1b26 50       		.byte	0x50
 5449 1b27 02       		.uleb128 0x2
 5450 1b28 75       		.byte	0x75
 5451 1b29 00       		.sleb128 0
 5452 1b2a 00       		.byte	0
 5453 1b2b 3D       		.uleb128 0x3d
 5454 1b2c 2A000000 		.4byte	.LVL127
 5455 1b30 FE140000 		.4byte	0x14fe
 5456 1b34 2C       		.uleb128 0x2c
 5457 1b35 01       		.uleb128 0x1
 5458 1b36 50       		.byte	0x50
 5459 1b37 03       		.uleb128 0x3
 5460 1b38 F3       		.byte	0xf3
 5461 1b39 01       		.uleb128 0x1
 5462 1b3a 50       		.byte	0x50
 5463 1b3b 00       		.byte	0
 5464 1b3c 00       		.byte	0
 5465 1b3d 3C       		.uleb128 0x3c
 5466 1b3e 8C160000 		.4byte	0x168c
 5467 1b42 00000000 		.4byte	.LFB60
 5468 1b46 38000000 		.4byte	.LFE60-.LFB60
 5469 1b4a 01       		.uleb128 0x1
 5470 1b4b 9C       		.byte	0x9c
 5471 1b4c 9A1B0000 		.4byte	0x1b9a
 5472 1b50 36       		.uleb128 0x36
 5473 1b51 98160000 		.4byte	0x1698
 5474 1b55 07080000 		.4byte	.LLST41
 5475 1b59 36       		.uleb128 0x36
 5476 1b5a A3160000 		.4byte	0x16a3
 5477 1b5e 49080000 		.4byte	.LLST42
 5478 1b62 36       		.uleb128 0x36
 5479 1b63 AE160000 		.4byte	0x16ae
 5480 1b67 95080000 		.4byte	.LLST43
 5481 1b6b 38       		.uleb128 0x38
 5482 1b6c B9160000 		.4byte	0x16b9
 5483 1b70 E1080000 		.4byte	.LLST44
 5484 1b74 2B       		.uleb128 0x2b
 5485 1b75 0C000000 		.4byte	.LVL129
 5486 1b79 C1210000 		.4byte	0x21c1
 5487 1b7d 881B0000 		.4byte	0x1b88
 5488 1b81 2C       		.uleb128 0x2c
 5489 1b82 01       		.uleb128 0x1
 5490 1b83 50       		.byte	0x50
 5491 1b84 02       		.uleb128 0x2
 5492 1b85 77       		.byte	0x77
 5493 1b86 00       		.sleb128 0
 5494 1b87 00       		.byte	0
 5495 1b88 3D       		.uleb128 0x3d
 5496 1b89 36000000 		.4byte	.LVL135
 5497 1b8d FE140000 		.4byte	0x14fe
 5498 1b91 2C       		.uleb128 0x2c
 5499 1b92 01       		.uleb128 0x1
 5500 1b93 50       		.byte	0x50
 5501 1b94 03       		.uleb128 0x3
ARM GAS  C:\Users\pearlstl\AppData\Local\Temp\cc98wxIE.s 			page 113


 5502 1b95 F3       		.byte	0xf3
 5503 1b96 01       		.uleb128 0x1
 5504 1b97 50       		.byte	0x50
 5505 1b98 00       		.byte	0
 5506 1b99 00       		.byte	0
 5507 1b9a 3C       		.uleb128 0x3c
 5508 1b9b CA140000 		.4byte	0x14ca
 5509 1b9f 00000000 		.4byte	.LFB61
 5510 1ba3 0E000000 		.4byte	.LFE61-.LFB61
 5511 1ba7 01       		.uleb128 0x1
 5512 1ba8 9C       		.byte	0x9c
 5513 1ba9 D81B0000 		.4byte	0x1bd8
 5514 1bad 36       		.uleb128 0x36
 5515 1bae D6140000 		.4byte	0x14d6
 5516 1bb2 0A090000 		.4byte	.LLST45
 5517 1bb6 36       		.uleb128 0x36
 5518 1bb7 E1140000 		.4byte	0x14e1
 5519 1bbb 2B090000 		.4byte	.LLST46
 5520 1bbf 3E       		.uleb128 0x3e
 5521 1bc0 EC140000 		.4byte	0x14ec
 5522 1bc4 01       		.uleb128 0x1
 5523 1bc5 50       		.byte	0x50
 5524 1bc6 2D       		.uleb128 0x2d
 5525 1bc7 08000000 		.4byte	.LVL137
 5526 1bcb C1210000 		.4byte	0x21c1
 5527 1bcf 2C       		.uleb128 0x2c
 5528 1bd0 01       		.uleb128 0x1
 5529 1bd1 50       		.byte	0x50
 5530 1bd2 03       		.uleb128 0x3
 5531 1bd3 F3       		.byte	0xf3
 5532 1bd4 01       		.uleb128 0x1
 5533 1bd5 50       		.byte	0x50
 5534 1bd6 00       		.byte	0
 5535 1bd7 00       		.byte	0
 5536 1bd8 3C       		.uleb128 0x3c
 5537 1bd9 53160000 		.4byte	0x1653
 5538 1bdd 00000000 		.4byte	.LFB62
 5539 1be1 3A000000 		.4byte	.LFE62-.LFB62
 5540 1be5 01       		.uleb128 0x1
 5541 1be6 9C       		.byte	0x9c
 5542 1be7 491C0000 		.4byte	0x1c49
 5543 1beb 36       		.uleb128 0x36
 5544 1bec 5F160000 		.4byte	0x165f
 5545 1bf0 49090000 		.4byte	.LLST47
 5546 1bf4 36       		.uleb128 0x36
 5547 1bf5 6A160000 		.4byte	0x166a
 5548 1bf9 8B090000 		.4byte	.LLST48
 5549 1bfd 36       		.uleb128 0x36
 5550 1bfe 75160000 		.4byte	0x1675
 5551 1c02 D0090000 		.4byte	.LLST49
 5552 1c06 38       		.uleb128 0x38
 5553 1c07 80160000 		.4byte	0x1680
 5554 1c0b 070A0000 		.4byte	.LLST50
 5555 1c0f 2B       		.uleb128 0x2b
 5556 1c10 0C000000 		.4byte	.LVL139
 5557 1c14 C1210000 		.4byte	0x21c1
 5558 1c18 231C0000 		.4byte	0x1c23
ARM GAS  C:\Users\pearlstl\AppData\Local\Temp\cc98wxIE.s 			page 114


 5559 1c1c 2C       		.uleb128 0x2c
 5560 1c1d 01       		.uleb128 0x1
 5561 1c1e 50       		.byte	0x50
 5562 1c1f 02       		.uleb128 0x2
 5563 1c20 77       		.byte	0x77
 5564 1c21 00       		.sleb128 0
 5565 1c22 00       		.byte	0
 5566 1c23 3F       		.uleb128 0x3f
 5567 1c24 2C000000 		.4byte	.LVL144
 5568 1c28 08220000 		.4byte	0x2208
 5569 1c2c 381C0000 		.4byte	0x1c38
 5570 1c30 2C       		.uleb128 0x2c
 5571 1c31 01       		.uleb128 0x1
 5572 1c32 50       		.byte	0x50
 5573 1c33 03       		.uleb128 0x3
 5574 1c34 F3       		.byte	0xf3
 5575 1c35 01       		.uleb128 0x1
 5576 1c36 50       		.byte	0x50
 5577 1c37 00       		.byte	0
 5578 1c38 2D       		.uleb128 0x2d
 5579 1c39 34000000 		.4byte	.LVL146
 5580 1c3d 08220000 		.4byte	0x2208
 5581 1c41 2C       		.uleb128 0x2c
 5582 1c42 01       		.uleb128 0x1
 5583 1c43 50       		.byte	0x50
 5584 1c44 02       		.uleb128 0x2
 5585 1c45 77       		.byte	0x77
 5586 1c46 00       		.sleb128 0
 5587 1c47 00       		.byte	0
 5588 1c48 00       		.byte	0
 5589 1c49 40       		.uleb128 0x40
 5590 1c4a EA030000 		.4byte	.LASF315
 5591 1c4e 01       		.byte	0x1
 5592 1c4f D1       		.byte	0xd1
 5593 1c50 00000000 		.4byte	.LFB63
 5594 1c54 22000000 		.4byte	.LFE63-.LFB63
 5595 1c58 01       		.uleb128 0x1
 5596 1c59 9C       		.byte	0x9c
 5597 1c5a B11C0000 		.4byte	0x1cb1
 5598 1c5e 31       		.uleb128 0x31
 5599 1c5f D10D0000 		.4byte	.LASF253
 5600 1c63 01       		.byte	0x1
 5601 1c64 D1       		.byte	0xd1
 5602 1c65 EE0A0000 		.4byte	0xaee
 5603 1c69 460A0000 		.4byte	.LLST51
 5604 1c6d 31       		.uleb128 0x31
 5605 1c6e A50E0000 		.4byte	.LASF61
 5606 1c72 01       		.byte	0x1
 5607 1c73 D1       		.byte	0xd1
 5608 1c74 B8000000 		.4byte	0xb8
 5609 1c78 7D0A0000 		.4byte	.LLST52
 5610 1c7c 33       		.uleb128 0x33
 5611 1c7d 65787400 		.ascii	"ext\000"
 5612 1c81 01       		.byte	0x1
 5613 1c82 D5       		.byte	0xd5
 5614 1c83 F8140000 		.4byte	0x14f8
 5615 1c87 9E0A0000 		.4byte	.LLST53
ARM GAS  C:\Users\pearlstl\AppData\Local\Temp\cc98wxIE.s 			page 115


 5616 1c8b 2B       		.uleb128 0x2b
 5617 1c8c 0A000000 		.4byte	.LVL149
 5618 1c90 C1210000 		.4byte	0x21c1
 5619 1c94 9F1C0000 		.4byte	0x1c9f
 5620 1c98 2C       		.uleb128 0x2c
 5621 1c99 01       		.uleb128 0x1
 5622 1c9a 50       		.byte	0x50
 5623 1c9b 02       		.uleb128 0x2
 5624 1c9c 75       		.byte	0x75
 5625 1c9d 00       		.sleb128 0
 5626 1c9e 00       		.byte	0
 5627 1c9f 3D       		.uleb128 0x3d
 5628 1ca0 22000000 		.4byte	.LVL154
 5629 1ca4 FE140000 		.4byte	0x14fe
 5630 1ca8 2C       		.uleb128 0x2c
 5631 1ca9 01       		.uleb128 0x1
 5632 1caa 50       		.byte	0x50
 5633 1cab 03       		.uleb128 0x3
 5634 1cac F3       		.byte	0xf3
 5635 1cad 01       		.uleb128 0x1
 5636 1cae 50       		.byte	0x50
 5637 1caf 00       		.byte	0
 5638 1cb0 00       		.byte	0
 5639 1cb1 2F       		.uleb128 0x2f
 5640 1cb2 AF050000 		.4byte	.LASF276
 5641 1cb6 01       		.byte	0x1
 5642 1cb7 E3       		.byte	0xe3
 5643 1cb8 D9000000 		.4byte	0xd9
 5644 1cbc 00000000 		.4byte	.LFB64
 5645 1cc0 0A000000 		.4byte	.LFE64-.LFB64
 5646 1cc4 01       		.uleb128 0x1
 5647 1cc5 9C       		.byte	0x9c
 5648 1cc6 FA1C0000 		.4byte	0x1cfa
 5649 1cca 31       		.uleb128 0x31
 5650 1ccb D10D0000 		.4byte	.LASF253
 5651 1ccf 01       		.byte	0x1
 5652 1cd0 E3       		.byte	0xe3
 5653 1cd1 EE0A0000 		.4byte	0xaee
 5654 1cd5 BC0A0000 		.4byte	.LLST54
 5655 1cd9 33       		.uleb128 0x33
 5656 1cda 65787400 		.ascii	"ext\000"
 5657 1cde 01       		.byte	0x1
 5658 1cdf E7       		.byte	0xe7
 5659 1ce0 F8140000 		.4byte	0x14f8
 5660 1ce4 DD0A0000 		.4byte	.LLST55
 5661 1ce8 2D       		.uleb128 0x2d
 5662 1ce9 06000000 		.4byte	.LVL156
 5663 1ced C1210000 		.4byte	0x21c1
 5664 1cf1 2C       		.uleb128 0x2c
 5665 1cf2 01       		.uleb128 0x1
 5666 1cf3 50       		.byte	0x50
 5667 1cf4 03       		.uleb128 0x3
 5668 1cf5 F3       		.byte	0xf3
 5669 1cf6 01       		.uleb128 0x1
 5670 1cf7 50       		.byte	0x50
 5671 1cf8 00       		.byte	0
 5672 1cf9 00       		.byte	0
ARM GAS  C:\Users\pearlstl\AppData\Local\Temp\cc98wxIE.s 			page 116


 5673 1cfa 23       		.uleb128 0x23
 5674 1cfb 6A090000 		.4byte	.LASF277
 5675 1cff 01       		.byte	0x1
 5676 1d00 F4       		.byte	0xf4
 5677 1d01 01       		.byte	0x1
 5678 1d02 281D0000 		.4byte	0x1d28
 5679 1d06 22       		.uleb128 0x22
 5680 1d07 D10D0000 		.4byte	.LASF253
 5681 1d0b 01       		.byte	0x1
 5682 1d0c F4       		.byte	0xf4
 5683 1d0d EE0A0000 		.4byte	0xaee
 5684 1d11 24       		.uleb128 0x24
 5685 1d12 65787400 		.ascii	"ext\000"
 5686 1d16 01       		.byte	0x1
 5687 1d17 F8       		.byte	0xf8
 5688 1d18 F8140000 		.4byte	0x14f8
 5689 1d1c 41       		.uleb128 0x41
 5690 1d1d 1F030000 		.4byte	.LASF278
 5691 1d21 01       		.byte	0x1
 5692 1d22 FA       		.byte	0xfa
 5693 1d23 D9000000 		.4byte	0xd9
 5694 1d27 00       		.byte	0
 5695 1d28 3C       		.uleb128 0x3c
 5696 1d29 FA1C0000 		.4byte	0x1cfa
 5697 1d2d 00000000 		.4byte	.LFB65
 5698 1d31 30000000 		.4byte	.LFE65-.LFB65
 5699 1d35 01       		.uleb128 0x1
 5700 1d36 9C       		.byte	0x9c
 5701 1d37 7C1D0000 		.4byte	0x1d7c
 5702 1d3b 36       		.uleb128 0x36
 5703 1d3c 061D0000 		.4byte	0x1d06
 5704 1d40 F00A0000 		.4byte	.LLST56
 5705 1d44 38       		.uleb128 0x38
 5706 1d45 111D0000 		.4byte	0x1d11
 5707 1d49 270B0000 		.4byte	.LLST57
 5708 1d4d 38       		.uleb128 0x38
 5709 1d4e 1C1D0000 		.4byte	0x1d1c
 5710 1d52 450B0000 		.4byte	.LLST58
 5711 1d56 2B       		.uleb128 0x2b
 5712 1d57 08000000 		.4byte	.LVL159
 5713 1d5b C1210000 		.4byte	0x21c1
 5714 1d5f 6A1D0000 		.4byte	0x1d6a
 5715 1d63 2C       		.uleb128 0x2c
 5716 1d64 01       		.uleb128 0x1
 5717 1d65 50       		.byte	0x50
 5718 1d66 02       		.uleb128 0x2
 5719 1d67 74       		.byte	0x74
 5720 1d68 00       		.sleb128 0
 5721 1d69 00       		.byte	0
 5722 1d6a 3D       		.uleb128 0x3d
 5723 1d6b 2A000000 		.4byte	.LVL166
 5724 1d6f FE140000 		.4byte	0x14fe
 5725 1d73 2C       		.uleb128 0x2c
 5726 1d74 01       		.uleb128 0x1
 5727 1d75 50       		.byte	0x50
 5728 1d76 03       		.uleb128 0x3
 5729 1d77 F3       		.byte	0xf3
ARM GAS  C:\Users\pearlstl\AppData\Local\Temp\cc98wxIE.s 			page 117


 5730 1d78 01       		.uleb128 0x1
 5731 1d79 50       		.byte	0x50
 5732 1d7a 00       		.byte	0
 5733 1d7b 00       		.byte	0
 5734 1d7c 42       		.uleb128 0x42
 5735 1d7d DC020000 		.4byte	.LASF279
 5736 1d81 01       		.byte	0x1
 5737 1d82 0701     		.2byte	0x107
 5738 1d84 01       		.byte	0x1
 5739 1d85 BA1D0000 		.4byte	0x1dba
 5740 1d89 43       		.uleb128 0x43
 5741 1d8a D10D0000 		.4byte	.LASF253
 5742 1d8e 01       		.byte	0x1
 5743 1d8f 0701     		.2byte	0x107
 5744 1d91 EE0A0000 		.4byte	0xaee
 5745 1d95 44       		.uleb128 0x44
 5746 1d96 65787400 		.ascii	"ext\000"
 5747 1d9a 01       		.byte	0x1
 5748 1d9b 0B01     		.2byte	0x10b
 5749 1d9d F8140000 		.4byte	0x14f8
 5750 1da1 45       		.uleb128 0x45
 5751 1da2 93090000 		.4byte	.LASF280
 5752 1da6 01       		.byte	0x1
 5753 1da7 0C01     		.2byte	0x10c
 5754 1da9 D9000000 		.4byte	0xd9
 5755 1dad 45       		.uleb128 0x45
 5756 1dae 1F030000 		.4byte	.LASF278
 5757 1db2 01       		.byte	0x1
 5758 1db3 0E01     		.2byte	0x10e
 5759 1db5 D9000000 		.4byte	0xd9
 5760 1db9 00       		.byte	0
 5761 1dba 3C       		.uleb128 0x3c
 5762 1dbb 7C1D0000 		.4byte	0x1d7c
 5763 1dbf 00000000 		.4byte	.LFB66
 5764 1dc3 32000000 		.4byte	.LFE66-.LFB66
 5765 1dc7 01       		.uleb128 0x1
 5766 1dc8 9C       		.byte	0x9c
 5767 1dc9 171E0000 		.4byte	0x1e17
 5768 1dcd 36       		.uleb128 0x36
 5769 1dce 891D0000 		.4byte	0x1d89
 5770 1dd2 6E0B0000 		.4byte	.LLST59
 5771 1dd6 38       		.uleb128 0x38
 5772 1dd7 951D0000 		.4byte	0x1d95
 5773 1ddb A50B0000 		.4byte	.LLST60
 5774 1ddf 38       		.uleb128 0x38
 5775 1de0 A11D0000 		.4byte	0x1da1
 5776 1de4 B80B0000 		.4byte	.LLST61
 5777 1de8 38       		.uleb128 0x38
 5778 1de9 AD1D0000 		.4byte	0x1dad
 5779 1ded DD0B0000 		.4byte	.LLST62
 5780 1df1 2B       		.uleb128 0x2b
 5781 1df2 08000000 		.4byte	.LVL168
 5782 1df6 C1210000 		.4byte	0x21c1
 5783 1dfa 051E0000 		.4byte	0x1e05
 5784 1dfe 2C       		.uleb128 0x2c
 5785 1dff 01       		.uleb128 0x1
 5786 1e00 50       		.byte	0x50
ARM GAS  C:\Users\pearlstl\AppData\Local\Temp\cc98wxIE.s 			page 118


 5787 1e01 02       		.uleb128 0x2
 5788 1e02 74       		.byte	0x74
 5789 1e03 00       		.sleb128 0
 5790 1e04 00       		.byte	0
 5791 1e05 3D       		.uleb128 0x3d
 5792 1e06 32000000 		.4byte	.LVL172
 5793 1e0a FE140000 		.4byte	0x14fe
 5794 1e0e 2C       		.uleb128 0x2c
 5795 1e0f 01       		.uleb128 0x1
 5796 1e10 50       		.byte	0x50
 5797 1e11 03       		.uleb128 0x3
 5798 1e12 F3       		.byte	0xf3
 5799 1e13 01       		.uleb128 0x1
 5800 1e14 50       		.byte	0x50
 5801 1e15 00       		.byte	0
 5802 1e16 00       		.byte	0
 5803 1e17 42       		.uleb128 0x42
 5804 1e18 65000000 		.4byte	.LASF281
 5805 1e1c 01       		.byte	0x1
 5806 1e1d 1801     		.2byte	0x118
 5807 1e1f 01       		.byte	0x1
 5808 1e20 3D1E0000 		.4byte	0x1e3d
 5809 1e24 43       		.uleb128 0x43
 5810 1e25 D10D0000 		.4byte	.LASF253
 5811 1e29 01       		.byte	0x1
 5812 1e2a 1801     		.2byte	0x118
 5813 1e2c EE0A0000 		.4byte	0xaee
 5814 1e30 44       		.uleb128 0x44
 5815 1e31 65787400 		.ascii	"ext\000"
 5816 1e35 01       		.byte	0x1
 5817 1e36 1C01     		.2byte	0x11c
 5818 1e38 F8140000 		.4byte	0x14f8
 5819 1e3c 00       		.byte	0
 5820 1e3d 3C       		.uleb128 0x3c
 5821 1e3e 171E0000 		.4byte	0x1e17
 5822 1e42 00000000 		.4byte	.LFB67
 5823 1e46 36000000 		.4byte	.LFE67-.LFB67
 5824 1e4a 01       		.uleb128 0x1
 5825 1e4b 9C       		.byte	0x9c
 5826 1e4c 9D1E0000 		.4byte	0x1e9d
 5827 1e50 36       		.uleb128 0x36
 5828 1e51 241E0000 		.4byte	0x1e24
 5829 1e55 F00B0000 		.4byte	.LLST63
 5830 1e59 38       		.uleb128 0x38
 5831 1e5a 301E0000 		.4byte	0x1e30
 5832 1e5e 4B0C0000 		.4byte	.LLST64
 5833 1e62 2B       		.uleb128 0x2b
 5834 1e63 08000000 		.4byte	.LVL174
 5835 1e67 C1210000 		.4byte	0x21c1
 5836 1e6b 761E0000 		.4byte	0x1e76
 5837 1e6f 2C       		.uleb128 0x2c
 5838 1e70 01       		.uleb128 0x1
 5839 1e71 50       		.byte	0x50
 5840 1e72 02       		.uleb128 0x2
 5841 1e73 75       		.byte	0x75
 5842 1e74 00       		.sleb128 0
 5843 1e75 00       		.byte	0
ARM GAS  C:\Users\pearlstl\AppData\Local\Temp\cc98wxIE.s 			page 119


 5844 1e76 3F       		.uleb128 0x3f
 5845 1e77 2A000000 		.4byte	.LVL177
 5846 1e7b FE140000 		.4byte	0x14fe
 5847 1e7f 8B1E0000 		.4byte	0x1e8b
 5848 1e83 2C       		.uleb128 0x2c
 5849 1e84 01       		.uleb128 0x1
 5850 1e85 50       		.byte	0x50
 5851 1e86 03       		.uleb128 0x3
 5852 1e87 F3       		.byte	0xf3
 5853 1e88 01       		.uleb128 0x1
 5854 1e89 50       		.byte	0x50
 5855 1e8a 00       		.byte	0
 5856 1e8b 3D       		.uleb128 0x3d
 5857 1e8c 36000000 		.4byte	.LVL180
 5858 1e90 FE140000 		.4byte	0x14fe
 5859 1e94 2C       		.uleb128 0x2c
 5860 1e95 01       		.uleb128 0x1
 5861 1e96 50       		.byte	0x50
 5862 1e97 03       		.uleb128 0x3
 5863 1e98 F3       		.byte	0xf3
 5864 1e99 01       		.uleb128 0x1
 5865 1e9a 50       		.byte	0x50
 5866 1e9b 00       		.byte	0
 5867 1e9c 00       		.byte	0
 5868 1e9d 42       		.uleb128 0x42
 5869 1e9e 450E0000 		.4byte	.LASF282
 5870 1ea2 01       		.byte	0x1
 5871 1ea3 2E01     		.2byte	0x12e
 5872 1ea5 01       		.byte	0x1
 5873 1ea6 C31E0000 		.4byte	0x1ec3
 5874 1eaa 43       		.uleb128 0x43
 5875 1eab D10D0000 		.4byte	.LASF253
 5876 1eaf 01       		.byte	0x1
 5877 1eb0 2E01     		.2byte	0x12e
 5878 1eb2 EE0A0000 		.4byte	0xaee
 5879 1eb6 44       		.uleb128 0x44
 5880 1eb7 65787400 		.ascii	"ext\000"
 5881 1ebb 01       		.byte	0x1
 5882 1ebc 3201     		.2byte	0x132
 5883 1ebe F8140000 		.4byte	0x14f8
 5884 1ec2 00       		.byte	0
 5885 1ec3 46       		.uleb128 0x46
 5886 1ec4 72070000 		.4byte	.LASF316
 5887 1ec8 01       		.byte	0x1
 5888 1ec9 4A01     		.2byte	0x14a
 5889 1ecb 6C050000 		.4byte	0x56c
 5890 1ecf 00000000 		.4byte	.LFB69
 5891 1ed3 38010000 		.4byte	.LFE69-.LFB69
 5892 1ed7 01       		.uleb128 0x1
 5893 1ed8 9C       		.byte	0x9c
 5894 1ed9 3F210000 		.4byte	0x213f
 5895 1edd 26       		.uleb128 0x26
 5896 1ede D10D0000 		.4byte	.LASF253
 5897 1ee2 01       		.byte	0x1
 5898 1ee3 4A01     		.2byte	0x14a
 5899 1ee5 EE0A0000 		.4byte	0xaee
 5900 1ee9 690C0000 		.4byte	.LLST65
ARM GAS  C:\Users\pearlstl\AppData\Local\Temp\cc98wxIE.s 			page 120


 5901 1eed 26       		.uleb128 0x26
 5902 1eee 31010000 		.4byte	.LASF283
 5903 1ef2 01       		.byte	0x1
 5904 1ef3 4A01     		.2byte	0x14a
 5905 1ef5 3A080000 		.4byte	0x83a
 5906 1ef9 5E0D0000 		.4byte	.LLST66
 5907 1efd 26       		.uleb128 0x26
 5908 1efe 30070000 		.4byte	.LASF284
 5909 1f02 01       		.byte	0x1
 5910 1f03 4A01     		.2byte	0x14a
 5911 1f05 FA000000 		.4byte	0xfa
 5912 1f09 980D0000 		.4byte	.LLST67
 5913 1f0d 27       		.uleb128 0x27
 5914 1f0e 72657300 		.ascii	"res\000"
 5915 1f12 01       		.byte	0x1
 5916 1f13 4D01     		.2byte	0x14d
 5917 1f15 6C050000 		.4byte	0x56c
 5918 1f19 FE0D0000 		.4byte	.LLST68
 5919 1f1d 44       		.uleb128 0x44
 5920 1f1e 65787400 		.ascii	"ext\000"
 5921 1f22 01       		.byte	0x1
 5922 1f23 5701     		.2byte	0x157
 5923 1f25 F8140000 		.4byte	0x14f8
 5924 1f29 34       		.uleb128 0x34
 5925 1f2a 88000000 		.4byte	.Ldebug_ranges0+0x88
 5926 1f2e EB200000 		.4byte	0x20eb
 5927 1f32 29       		.uleb128 0x29
 5928 1f33 890E0000 		.4byte	.LASF285
 5929 1f37 01       		.byte	0x1
 5930 1f38 7801     		.2byte	0x178
 5931 1f3a 49070000 		.4byte	0x749
 5932 1f3e 290E0000 		.4byte	.LLST69
 5933 1f42 27       		.uleb128 0x27
 5934 1f43 6300     		.ascii	"c\000"
 5935 1f45 01       		.byte	0x1
 5936 1f46 7A01     		.2byte	0x17a
 5937 1f48 E4000000 		.4byte	0xe4
 5938 1f4c 520E0000 		.4byte	.LLST70
 5939 1f50 47       		.uleb128 0x47
 5940 1f51 9D1E0000 		.4byte	0x1e9d
 5941 1f55 5E000000 		.4byte	.LBB70
 5942 1f59 B8000000 		.4byte	.Ldebug_ranges0+0xb8
 5943 1f5d 01       		.byte	0x1
 5944 1f5e 8201     		.2byte	0x182
 5945 1f60 861F0000 		.4byte	0x1f86
 5946 1f64 36       		.uleb128 0x36
 5947 1f65 AA1E0000 		.4byte	0x1eaa
 5948 1f69 A70E0000 		.4byte	.LLST71
 5949 1f6d 37       		.uleb128 0x37
 5950 1f6e B8000000 		.4byte	.Ldebug_ranges0+0xb8
 5951 1f72 38       		.uleb128 0x38
 5952 1f73 B61E0000 		.4byte	0x1eb6
 5953 1f77 C50E0000 		.4byte	.LLST72
 5954 1f7b 3B       		.uleb128 0x3b
 5955 1f7c 06010000 		.4byte	.LVL220
 5956 1f80 C1210000 		.4byte	0x21c1
 5957 1f84 00       		.byte	0
ARM GAS  C:\Users\pearlstl\AppData\Local\Temp\cc98wxIE.s 			page 121


 5958 1f85 00       		.byte	0
 5959 1f86 48       		.uleb128 0x48
 5960 1f87 7C1D0000 		.4byte	0x1d7c
 5961 1f8b 62000000 		.4byte	.LBB73
 5962 1f8f 24000000 		.4byte	.LBE73-.LBB73
 5963 1f93 01       		.byte	0x1
 5964 1f94 8401     		.2byte	0x184
 5965 1f96 D91F0000 		.4byte	0x1fd9
 5966 1f9a 36       		.uleb128 0x36
 5967 1f9b 891D0000 		.4byte	0x1d89
 5968 1f9f D80E0000 		.4byte	.LLST73
 5969 1fa3 49       		.uleb128 0x49
 5970 1fa4 62000000 		.4byte	.LBB74
 5971 1fa8 24000000 		.4byte	.LBE74-.LBB74
 5972 1fac 38       		.uleb128 0x38
 5973 1fad 951D0000 		.4byte	0x1d95
 5974 1fb1 F60E0000 		.4byte	.LLST74
 5975 1fb5 38       		.uleb128 0x38
 5976 1fb6 A11D0000 		.4byte	0x1da1
 5977 1fba 090F0000 		.4byte	.LLST75
 5978 1fbe 38       		.uleb128 0x38
 5979 1fbf AD1D0000 		.4byte	0x1dad
 5980 1fc3 2E0F0000 		.4byte	.LLST76
 5981 1fc7 2D       		.uleb128 0x2d
 5982 1fc8 66000000 		.4byte	.LVL200
 5983 1fcc C1210000 		.4byte	0x21c1
 5984 1fd0 2C       		.uleb128 0x2c
 5985 1fd1 01       		.uleb128 0x1
 5986 1fd2 50       		.byte	0x50
 5987 1fd3 02       		.uleb128 0x2
 5988 1fd4 77       		.byte	0x77
 5989 1fd5 00       		.sleb128 0
 5990 1fd6 00       		.byte	0
 5991 1fd7 00       		.byte	0
 5992 1fd8 00       		.byte	0
 5993 1fd9 47       		.uleb128 0x47
 5994 1fda 171E0000 		.4byte	0x1e17
 5995 1fde 86000000 		.4byte	.LBB75
 5996 1fe2 D0000000 		.4byte	.Ldebug_ranges0+0xd0
 5997 1fe6 01       		.byte	0x1
 5998 1fe7 7D01     		.2byte	0x17d
 5999 1fe9 23200000 		.4byte	0x2023
 6000 1fed 36       		.uleb128 0x36
 6001 1fee 241E0000 		.4byte	0x1e24
 6002 1ff2 410F0000 		.4byte	.LLST77
 6003 1ff6 37       		.uleb128 0x37
 6004 1ff7 D0000000 		.4byte	.Ldebug_ranges0+0xd0
 6005 1ffb 38       		.uleb128 0x38
 6006 1ffc 301E0000 		.4byte	0x1e30
 6007 2000 5F0F0000 		.4byte	.LLST78
 6008 2004 2B       		.uleb128 0x2b
 6009 2005 8C000000 		.4byte	.LVL203
 6010 2009 FE140000 		.4byte	0x14fe
 6011 200d 18200000 		.4byte	0x2018
 6012 2011 2C       		.uleb128 0x2c
 6013 2012 01       		.uleb128 0x1
 6014 2013 50       		.byte	0x50
ARM GAS  C:\Users\pearlstl\AppData\Local\Temp\cc98wxIE.s 			page 122


 6015 2014 02       		.uleb128 0x2
 6016 2015 77       		.byte	0x77
 6017 2016 00       		.sleb128 0
 6018 2017 00       		.byte	0
 6019 2018 3B       		.uleb128 0x3b
 6020 2019 E4000000 		.4byte	.LVL218
 6021 201d C1210000 		.4byte	0x21c1
 6022 2021 00       		.byte	0
 6023 2022 00       		.byte	0
 6024 2023 48       		.uleb128 0x48
 6025 2024 FA1C0000 		.4byte	0x1cfa
 6026 2028 96000000 		.4byte	.LBB80
 6027 202c 22000000 		.4byte	.LBE80-.LBB80
 6028 2030 01       		.byte	0x1
 6029 2031 7F01     		.2byte	0x17f
 6030 2033 81200000 		.4byte	0x2081
 6031 2037 36       		.uleb128 0x36
 6032 2038 061D0000 		.4byte	0x1d06
 6033 203c 720F0000 		.4byte	.LLST79
 6034 2040 49       		.uleb128 0x49
 6035 2041 96000000 		.4byte	.LBB81
 6036 2045 22000000 		.4byte	.LBE81-.LBB81
 6037 2049 38       		.uleb128 0x38
 6038 204a 111D0000 		.4byte	0x1d11
 6039 204e 900F0000 		.4byte	.LLST80
 6040 2052 38       		.uleb128 0x38
 6041 2053 1C1D0000 		.4byte	0x1d1c
 6042 2057 AE0F0000 		.4byte	.LLST81
 6043 205b 2B       		.uleb128 0x2b
 6044 205c 9A000000 		.4byte	.LVL207
 6045 2060 C1210000 		.4byte	0x21c1
 6046 2064 6F200000 		.4byte	0x206f
 6047 2068 2C       		.uleb128 0x2c
 6048 2069 01       		.uleb128 0x1
 6049 206a 50       		.byte	0x50
 6050 206b 02       		.uleb128 0x2
 6051 206c 77       		.byte	0x77
 6052 206d 00       		.sleb128 0
 6053 206e 00       		.byte	0
 6054 206f 2D       		.uleb128 0x2d
 6055 2070 B8000000 		.4byte	.LVL213
 6056 2074 FE140000 		.4byte	0x14fe
 6057 2078 2C       		.uleb128 0x2c
 6058 2079 01       		.uleb128 0x1
 6059 207a 50       		.byte	0x50
 6060 207b 02       		.uleb128 0x2
 6061 207c 77       		.byte	0x77
 6062 207d 00       		.sleb128 0
 6063 207e 00       		.byte	0
 6064 207f 00       		.byte	0
 6065 2080 00       		.byte	0
 6066 2081 48       		.uleb128 0x48
 6067 2082 9D1E0000 		.4byte	0x1e9d
 6068 2086 BC000000 		.4byte	.LBB82
 6069 208a 20000000 		.4byte	.LBE82-.LBB82
 6070 208e 01       		.byte	0x1
 6071 208f 8801     		.2byte	0x188
ARM GAS  C:\Users\pearlstl\AppData\Local\Temp\cc98wxIE.s 			page 123


 6072 2091 BB200000 		.4byte	0x20bb
 6073 2095 36       		.uleb128 0x36
 6074 2096 AA1E0000 		.4byte	0x1eaa
 6075 209a D70F0000 		.4byte	.LLST82
 6076 209e 49       		.uleb128 0x49
 6077 209f BC000000 		.4byte	.LBB83
 6078 20a3 20000000 		.4byte	.LBE83-.LBB83
 6079 20a7 38       		.uleb128 0x38
 6080 20a8 B61E0000 		.4byte	0x1eb6
 6081 20ac F50F0000 		.4byte	.LLST83
 6082 20b0 3B       		.uleb128 0x3b
 6083 20b1 C0000000 		.4byte	.LVL215
 6084 20b5 C1210000 		.4byte	0x21c1
 6085 20b9 00       		.byte	0
 6086 20ba 00       		.byte	0
 6087 20bb 3B       		.uleb128 0x3b
 6088 20bc 24000000 		.4byte	.LVL187
 6089 20c0 A0220000 		.4byte	0x22a0
 6090 20c4 3B       		.uleb128 0x3b
 6091 20c5 28000000 		.4byte	.LVL188
 6092 20c9 AB220000 		.4byte	0x22ab
 6093 20cd 2B       		.uleb128 0x2b
 6094 20ce 40000000 		.4byte	.LVL192
 6095 20d2 B6220000 		.4byte	0x22b6
 6096 20d6 E1200000 		.4byte	0x20e1
 6097 20da 2C       		.uleb128 0x2c
 6098 20db 01       		.uleb128 0x1
 6099 20dc 50       		.byte	0x50
 6100 20dd 02       		.uleb128 0x2
 6101 20de 77       		.byte	0x77
 6102 20df 00       		.sleb128 0
 6103 20e0 00       		.byte	0
 6104 20e1 3B       		.uleb128 0x3b
 6105 20e2 28010000 		.4byte	.LVL222
 6106 20e6 171E0000 		.4byte	0x1e17
 6107 20ea 00       		.byte	0
 6108 20eb 4A       		.uleb128 0x4a
 6109 20ec 12000000 		.4byte	.LVL182
 6110 20f0 07210000 		.4byte	0x2107
 6111 20f4 2C       		.uleb128 0x2c
 6112 20f5 01       		.uleb128 0x1
 6113 20f6 50       		.byte	0x50
 6114 20f7 02       		.uleb128 0x2
 6115 20f8 77       		.byte	0x77
 6116 20f9 00       		.sleb128 0
 6117 20fa 2C       		.uleb128 0x2c
 6118 20fb 01       		.uleb128 0x1
 6119 20fc 51       		.byte	0x51
 6120 20fd 02       		.uleb128 0x2
 6121 20fe 75       		.byte	0x75
 6122 20ff 00       		.sleb128 0
 6123 2100 2C       		.uleb128 0x2c
 6124 2101 01       		.uleb128 0x1
 6125 2102 52       		.byte	0x52
 6126 2103 02       		.uleb128 0x2
 6127 2104 76       		.byte	0x76
 6128 2105 00       		.sleb128 0
ARM GAS  C:\Users\pearlstl\AppData\Local\Temp\cc98wxIE.s 			page 124


 6129 2106 00       		.byte	0
 6130 2107 3B       		.uleb128 0x3b
 6131 2108 20000000 		.4byte	.LVL186
 6132 210c C1210000 		.4byte	0x21c1
 6133 2110 3F       		.uleb128 0x3f
 6134 2111 54000000 		.4byte	.LVL195
 6135 2115 C1220000 		.4byte	0x22c1
 6136 2119 2E210000 		.4byte	0x212e
 6137 211d 2C       		.uleb128 0x2c
 6138 211e 01       		.uleb128 0x1
 6139 211f 50       		.byte	0x50
 6140 2120 03       		.uleb128 0x3
 6141 2121 F3       		.byte	0xf3
 6142 2122 01       		.uleb128 0x1
 6143 2123 52       		.byte	0x52
 6144 2124 2C       		.uleb128 0x2c
 6145 2125 01       		.uleb128 0x1
 6146 2126 51       		.byte	0x51
 6147 2127 05       		.uleb128 0x5
 6148 2128 03       		.byte	0x3
 6149 2129 00000000 		.4byte	.LC0
 6150 212d 00       		.byte	0
 6151 212e 2D       		.uleb128 0x2d
 6152 212f 5A000000 		.4byte	.LVL196
 6153 2133 C1210000 		.4byte	0x21c1
 6154 2137 2C       		.uleb128 0x2c
 6155 2138 01       		.uleb128 0x1
 6156 2139 50       		.byte	0x50
 6157 213a 02       		.uleb128 0x2
 6158 213b 77       		.byte	0x77
 6159 213c 00       		.sleb128 0
 6160 213d 00       		.byte	0
 6161 213e 00       		.byte	0
 6162 213f 3C       		.uleb128 0x3c
 6163 2140 9D1E0000 		.4byte	0x1e9d
 6164 2144 00000000 		.4byte	.LFB68
 6165 2148 3A000000 		.4byte	.LFE68-.LFB68
 6166 214c 01       		.uleb128 0x1
 6167 214d 9C       		.byte	0x9c
 6168 214e 9F210000 		.4byte	0x219f
 6169 2152 36       		.uleb128 0x36
 6170 2153 AA1E0000 		.4byte	0x1eaa
 6171 2157 08100000 		.4byte	.LLST84
 6172 215b 38       		.uleb128 0x38
 6173 215c B61E0000 		.4byte	0x1eb6
 6174 2160 6E100000 		.4byte	.LLST85
 6175 2164 2B       		.uleb128 0x2b
 6176 2165 08000000 		.4byte	.LVL225
 6177 2169 C1210000 		.4byte	0x21c1
 6178 216d 78210000 		.4byte	0x2178
 6179 2171 2C       		.uleb128 0x2c
 6180 2172 01       		.uleb128 0x1
 6181 2173 50       		.byte	0x50
 6182 2174 02       		.uleb128 0x2
 6183 2175 75       		.byte	0x75
 6184 2176 00       		.sleb128 0
 6185 2177 00       		.byte	0
ARM GAS  C:\Users\pearlstl\AppData\Local\Temp\cc98wxIE.s 			page 125


 6186 2178 3F       		.uleb128 0x3f
 6187 2179 24000000 		.4byte	.LVL228
 6188 217d FE140000 		.4byte	0x14fe
 6189 2181 8D210000 		.4byte	0x218d
 6190 2185 2C       		.uleb128 0x2c
 6191 2186 01       		.uleb128 0x1
 6192 2187 50       		.byte	0x50
 6193 2188 03       		.uleb128 0x3
 6194 2189 F3       		.byte	0xf3
 6195 218a 01       		.uleb128 0x1
 6196 218b 50       		.byte	0x50
 6197 218c 00       		.byte	0
 6198 218d 3D       		.uleb128 0x3d
 6199 218e 30000000 		.4byte	.LVL231
 6200 2192 FE140000 		.4byte	0x14fe
 6201 2196 2C       		.uleb128 0x2c
 6202 2197 01       		.uleb128 0x1
 6203 2198 50       		.byte	0x50
 6204 2199 03       		.uleb128 0x3
 6205 219a F3       		.byte	0xf3
 6206 219b 01       		.uleb128 0x1
 6207 219c 50       		.byte	0x50
 6208 219d 00       		.byte	0
 6209 219e 00       		.byte	0
 6210 219f 4B       		.uleb128 0x4b
 6211 21a0 5F0B0000 		.4byte	.LASF286
 6212 21a4 01       		.byte	0x1
 6213 21a5 23       		.byte	0x23
 6214 21a6 45080000 		.4byte	0x845
 6215 21aa 05       		.uleb128 0x5
 6216 21ab 03       		.byte	0x3
 6217 21ac 00000000 		.4byte	ancestor_signal
 6218 21b0 4B       		.uleb128 0x4b
 6219 21b1 6F0B0000 		.4byte	.LASF287
 6220 21b5 01       		.byte	0x1
 6221 21b6 24       		.byte	0x24
 6222 21b7 5F070000 		.4byte	0x75f
 6223 21bb 05       		.uleb128 0x5
 6224 21bc 03       		.byte	0x3
 6225 21bd 04000000 		.4byte	ancestor_design
 6226 21c1 4C       		.uleb128 0x4c
 6227 21c2 20050000 		.4byte	.LASF288
 6228 21c6 20050000 		.4byte	.LASF288
 6229 21ca 0E       		.byte	0xe
 6230 21cb AA03     		.2byte	0x3aa
 6231 21cd 4D       		.uleb128 0x4d
 6232 21ce E80D0000 		.4byte	.LASF289
 6233 21d2 E80D0000 		.4byte	.LASF289
 6234 21d6 15       		.byte	0x15
 6235 21d7 24       		.byte	0x24
 6236 21d8 4D       		.uleb128 0x4d
 6237 21d9 320E0000 		.4byte	.LASF290
 6238 21dd 320E0000 		.4byte	.LASF290
 6239 21e1 16       		.byte	0x16
 6240 21e2 21       		.byte	0x21
 6241 21e3 4E       		.uleb128 0x4e
 6242 21e4 DB040000 		.4byte	.LASF317
ARM GAS  C:\Users\pearlstl\AppData\Local\Temp\cc98wxIE.s 			page 126


 6243 21e8 01030000 		.4byte	.LASF318
 6244 21ec 18       		.byte	0x18
 6245 21ed 00       		.byte	0
 6246 21ee DB040000 		.4byte	.LASF317
 6247 21f2 4D       		.uleb128 0x4d
 6248 21f3 D90D0000 		.4byte	.LASF291
 6249 21f7 D90D0000 		.4byte	.LASF291
 6250 21fb 13       		.byte	0x13
 6251 21fc 9B       		.byte	0x9b
 6252 21fd 4D       		.uleb128 0x4d
 6253 21fe 81050000 		.4byte	.LASF292
 6254 2202 81050000 		.4byte	.LASF292
 6255 2206 13       		.byte	0x13
 6256 2207 AB       		.byte	0xab
 6257 2208 4C       		.uleb128 0x4c
 6258 2209 C00E0000 		.4byte	.LASF293
 6259 220d C00E0000 		.4byte	.LASF293
 6260 2211 0E       		.byte	0xe
 6261 2212 4801     		.2byte	0x148
 6262 2214 4C       		.uleb128 0x4c
 6263 2215 5D070000 		.4byte	.LASF294
 6264 2219 5D070000 		.4byte	.LASF294
 6265 221d 0E       		.byte	0xe
 6266 221e D001     		.2byte	0x1d0
 6267 2220 4C       		.uleb128 0x4c
 6268 2221 26060000 		.4byte	.LASF295
 6269 2225 26060000 		.4byte	.LASF295
 6270 2229 13       		.byte	0x13
 6271 222a 0F01     		.2byte	0x10f
 6272 222c 4C       		.uleb128 0x4c
 6273 222d 0C100000 		.4byte	.LASF296
 6274 2231 0C100000 		.4byte	.LASF296
 6275 2235 14       		.byte	0x14
 6276 2236 6501     		.2byte	0x165
 6277 2238 4D       		.uleb128 0x4d
 6278 2239 12030000 		.4byte	.LASF297
 6279 223d 12030000 		.4byte	.LASF297
 6280 2241 13       		.byte	0x13
 6281 2242 71       		.byte	0x71
 6282 2243 4C       		.uleb128 0x4c
 6283 2244 80040000 		.4byte	.LASF298
 6284 2248 80040000 		.4byte	.LASF298
 6285 224c 0E       		.byte	0xe
 6286 224d 7A02     		.2byte	0x27a
 6287 224f 4D       		.uleb128 0x4d
 6288 2250 F6040000 		.4byte	.LASF299
 6289 2254 F6040000 		.4byte	.LASF299
 6290 2258 13       		.byte	0x13
 6291 2259 B2       		.byte	0xb2
 6292 225a 4D       		.uleb128 0x4d
 6293 225b B60B0000 		.4byte	.LASF300
 6294 225f B60B0000 		.4byte	.LASF300
 6295 2263 13       		.byte	0x13
 6296 2264 C7       		.byte	0xc7
 6297 2265 4D       		.uleb128 0x4d
 6298 2266 40060000 		.4byte	.LASF301
 6299 226a 40060000 		.4byte	.LASF301
ARM GAS  C:\Users\pearlstl\AppData\Local\Temp\cc98wxIE.s 			page 127


 6300 226e 13       		.byte	0x13
 6301 226f B9       		.byte	0xb9
 6302 2270 4C       		.uleb128 0x4c
 6303 2271 1C010000 		.4byte	.LASF302
 6304 2275 1C010000 		.4byte	.LASF302
 6305 2279 0E       		.byte	0xe
 6306 227a 6002     		.2byte	0x260
 6307 227c 4C       		.uleb128 0x4c
 6308 227d AB070000 		.4byte	.LASF303
 6309 2281 AB070000 		.4byte	.LASF303
 6310 2285 0E       		.byte	0xe
 6311 2286 6E02     		.2byte	0x26e
 6312 2288 4C       		.uleb128 0x4c
 6313 2289 020C0000 		.4byte	.LASF304
 6314 228d 020C0000 		.4byte	.LASF304
 6315 2291 0E       		.byte	0xe
 6316 2292 9003     		.2byte	0x390
 6317 2294 4C       		.uleb128 0x4c
 6318 2295 D20A0000 		.4byte	.LASF305
 6319 2299 D20A0000 		.4byte	.LASF305
 6320 229d 0E       		.byte	0xe
 6321 229e 9703     		.2byte	0x397
 6322 22a0 4D       		.uleb128 0x4d
 6323 22a1 EC050000 		.4byte	.LASF306
 6324 22a5 EC050000 		.4byte	.LASF306
 6325 22a9 17       		.byte	0x17
 6326 22aa 30       		.byte	0x30
 6327 22ab 4D       		.uleb128 0x4d
 6328 22ac 7A0F0000 		.4byte	.LASF307
 6329 22b0 7A0F0000 		.4byte	.LASF307
 6330 22b4 17       		.byte	0x17
 6331 22b5 37       		.byte	0x37
 6332 22b6 4D       		.uleb128 0x4d
 6333 22b7 34030000 		.4byte	.LASF308
 6334 22bb 34030000 		.4byte	.LASF308
 6335 22bf 13       		.byte	0x13
 6336 22c0 7D       		.byte	0x7d
 6337 22c1 4C       		.uleb128 0x4c
 6338 22c2 430C0000 		.4byte	.LASF309
 6339 22c6 430C0000 		.4byte	.LASF309
 6340 22ca 0E       		.byte	0xe
 6341 22cb E703     		.2byte	0x3e7
 6342 22cd 00       		.byte	0
 6343              		.section	.debug_abbrev,"",%progbits
 6344              	.Ldebug_abbrev0:
 6345 0000 01       		.uleb128 0x1
 6346 0001 11       		.uleb128 0x11
 6347 0002 01       		.byte	0x1
 6348 0003 25       		.uleb128 0x25
 6349 0004 0E       		.uleb128 0xe
 6350 0005 13       		.uleb128 0x13
 6351 0006 0B       		.uleb128 0xb
 6352 0007 03       		.uleb128 0x3
 6353 0008 0E       		.uleb128 0xe
 6354 0009 1B       		.uleb128 0x1b
 6355 000a 0E       		.uleb128 0xe
 6356 000b 55       		.uleb128 0x55
ARM GAS  C:\Users\pearlstl\AppData\Local\Temp\cc98wxIE.s 			page 128


 6357 000c 17       		.uleb128 0x17
 6358 000d 11       		.uleb128 0x11
 6359 000e 01       		.uleb128 0x1
 6360 000f 10       		.uleb128 0x10
 6361 0010 17       		.uleb128 0x17
 6362 0011 00       		.byte	0
 6363 0012 00       		.byte	0
 6364 0013 02       		.uleb128 0x2
 6365 0014 16       		.uleb128 0x16
 6366 0015 00       		.byte	0
 6367 0016 03       		.uleb128 0x3
 6368 0017 0E       		.uleb128 0xe
 6369 0018 3A       		.uleb128 0x3a
 6370 0019 0B       		.uleb128 0xb
 6371 001a 3B       		.uleb128 0x3b
 6372 001b 0B       		.uleb128 0xb
 6373 001c 49       		.uleb128 0x49
 6374 001d 13       		.uleb128 0x13
 6375 001e 00       		.byte	0
 6376 001f 00       		.byte	0
 6377 0020 03       		.uleb128 0x3
 6378 0021 24       		.uleb128 0x24
 6379 0022 00       		.byte	0
 6380 0023 0B       		.uleb128 0xb
 6381 0024 0B       		.uleb128 0xb
 6382 0025 3E       		.uleb128 0x3e
 6383 0026 0B       		.uleb128 0xb
 6384 0027 03       		.uleb128 0x3
 6385 0028 0E       		.uleb128 0xe
 6386 0029 00       		.byte	0
 6387 002a 00       		.byte	0
 6388 002b 04       		.uleb128 0x4
 6389 002c 24       		.uleb128 0x24
 6390 002d 00       		.byte	0
 6391 002e 0B       		.uleb128 0xb
 6392 002f 0B       		.uleb128 0xb
 6393 0030 3E       		.uleb128 0x3e
 6394 0031 0B       		.uleb128 0xb
 6395 0032 03       		.uleb128 0x3
 6396 0033 08       		.uleb128 0x8
 6397 0034 00       		.byte	0
 6398 0035 00       		.byte	0
 6399 0036 05       		.uleb128 0x5
 6400 0037 0F       		.uleb128 0xf
 6401 0038 00       		.byte	0
 6402 0039 0B       		.uleb128 0xb
 6403 003a 0B       		.uleb128 0xb
 6404 003b 00       		.byte	0
 6405 003c 00       		.byte	0
 6406 003d 06       		.uleb128 0x6
 6407 003e 13       		.uleb128 0x13
 6408 003f 01       		.byte	0x1
 6409 0040 0B       		.uleb128 0xb
 6410 0041 0B       		.uleb128 0xb
 6411 0042 3A       		.uleb128 0x3a
 6412 0043 0B       		.uleb128 0xb
 6413 0044 3B       		.uleb128 0x3b
ARM GAS  C:\Users\pearlstl\AppData\Local\Temp\cc98wxIE.s 			page 129


 6414 0045 0B       		.uleb128 0xb
 6415 0046 01       		.uleb128 0x1
 6416 0047 13       		.uleb128 0x13
 6417 0048 00       		.byte	0
 6418 0049 00       		.byte	0
 6419 004a 07       		.uleb128 0x7
 6420 004b 0D       		.uleb128 0xd
 6421 004c 00       		.byte	0
 6422 004d 03       		.uleb128 0x3
 6423 004e 0E       		.uleb128 0xe
 6424 004f 3A       		.uleb128 0x3a
 6425 0050 0B       		.uleb128 0xb
 6426 0051 3B       		.uleb128 0x3b
 6427 0052 0B       		.uleb128 0xb
 6428 0053 49       		.uleb128 0x49
 6429 0054 13       		.uleb128 0x13
 6430 0055 38       		.uleb128 0x38
 6431 0056 0B       		.uleb128 0xb
 6432 0057 00       		.byte	0
 6433 0058 00       		.byte	0
 6434 0059 08       		.uleb128 0x8
 6435 005a 0D       		.uleb128 0xd
 6436 005b 00       		.byte	0
 6437 005c 03       		.uleb128 0x3
 6438 005d 08       		.uleb128 0x8
 6439 005e 3A       		.uleb128 0x3a
 6440 005f 0B       		.uleb128 0xb
 6441 0060 3B       		.uleb128 0x3b
 6442 0061 0B       		.uleb128 0xb
 6443 0062 49       		.uleb128 0x49
 6444 0063 13       		.uleb128 0x13
 6445 0064 38       		.uleb128 0x38
 6446 0065 0B       		.uleb128 0xb
 6447 0066 00       		.byte	0
 6448 0067 00       		.byte	0
 6449 0068 09       		.uleb128 0x9
 6450 0069 13       		.uleb128 0x13
 6451 006a 01       		.byte	0x1
 6452 006b 03       		.uleb128 0x3
 6453 006c 0E       		.uleb128 0xe
 6454 006d 0B       		.uleb128 0xb
 6455 006e 0B       		.uleb128 0xb
 6456 006f 3A       		.uleb128 0x3a
 6457 0070 0B       		.uleb128 0xb
 6458 0071 3B       		.uleb128 0x3b
 6459 0072 0B       		.uleb128 0xb
 6460 0073 01       		.uleb128 0x1
 6461 0074 13       		.uleb128 0x13
 6462 0075 00       		.byte	0
 6463 0076 00       		.byte	0
 6464 0077 0A       		.uleb128 0xa
 6465 0078 0D       		.uleb128 0xd
 6466 0079 00       		.byte	0
 6467 007a 03       		.uleb128 0x3
 6468 007b 0E       		.uleb128 0xe
 6469 007c 3A       		.uleb128 0x3a
 6470 007d 0B       		.uleb128 0xb
ARM GAS  C:\Users\pearlstl\AppData\Local\Temp\cc98wxIE.s 			page 130


 6471 007e 3B       		.uleb128 0x3b
 6472 007f 0B       		.uleb128 0xb
 6473 0080 49       		.uleb128 0x49
 6474 0081 13       		.uleb128 0x13
 6475 0082 0B       		.uleb128 0xb
 6476 0083 0B       		.uleb128 0xb
 6477 0084 0D       		.uleb128 0xd
 6478 0085 0B       		.uleb128 0xb
 6479 0086 0C       		.uleb128 0xc
 6480 0087 0B       		.uleb128 0xb
 6481 0088 38       		.uleb128 0x38
 6482 0089 0B       		.uleb128 0xb
 6483 008a 00       		.byte	0
 6484 008b 00       		.byte	0
 6485 008c 0B       		.uleb128 0xb
 6486 008d 15       		.uleb128 0x15
 6487 008e 01       		.byte	0x1
 6488 008f 27       		.uleb128 0x27
 6489 0090 19       		.uleb128 0x19
 6490 0091 49       		.uleb128 0x49
 6491 0092 13       		.uleb128 0x13
 6492 0093 01       		.uleb128 0x1
 6493 0094 13       		.uleb128 0x13
 6494 0095 00       		.byte	0
 6495 0096 00       		.byte	0
 6496 0097 0C       		.uleb128 0xc
 6497 0098 05       		.uleb128 0x5
 6498 0099 00       		.byte	0
 6499 009a 49       		.uleb128 0x49
 6500 009b 13       		.uleb128 0x13
 6501 009c 00       		.byte	0
 6502 009d 00       		.byte	0
 6503 009e 0D       		.uleb128 0xd
 6504 009f 0F       		.uleb128 0xf
 6505 00a0 00       		.byte	0
 6506 00a1 0B       		.uleb128 0xb
 6507 00a2 0B       		.uleb128 0xb
 6508 00a3 49       		.uleb128 0x49
 6509 00a4 13       		.uleb128 0x13
 6510 00a5 00       		.byte	0
 6511 00a6 00       		.byte	0
 6512 00a7 0E       		.uleb128 0xe
 6513 00a8 26       		.uleb128 0x26
 6514 00a9 00       		.byte	0
 6515 00aa 49       		.uleb128 0x49
 6516 00ab 13       		.uleb128 0x13
 6517 00ac 00       		.byte	0
 6518 00ad 00       		.byte	0
 6519 00ae 0F       		.uleb128 0xf
 6520 00af 17       		.uleb128 0x17
 6521 00b0 01       		.byte	0x1
 6522 00b1 0B       		.uleb128 0xb
 6523 00b2 0B       		.uleb128 0xb
 6524 00b3 3A       		.uleb128 0x3a
 6525 00b4 0B       		.uleb128 0xb
 6526 00b5 3B       		.uleb128 0x3b
 6527 00b6 0B       		.uleb128 0xb
ARM GAS  C:\Users\pearlstl\AppData\Local\Temp\cc98wxIE.s 			page 131


 6528 00b7 01       		.uleb128 0x1
 6529 00b8 13       		.uleb128 0x13
 6530 00b9 00       		.byte	0
 6531 00ba 00       		.byte	0
 6532 00bb 10       		.uleb128 0x10
 6533 00bc 0D       		.uleb128 0xd
 6534 00bd 00       		.byte	0
 6535 00be 03       		.uleb128 0x3
 6536 00bf 08       		.uleb128 0x8
 6537 00c0 3A       		.uleb128 0x3a
 6538 00c1 0B       		.uleb128 0xb
 6539 00c2 3B       		.uleb128 0x3b
 6540 00c3 0B       		.uleb128 0xb
 6541 00c4 49       		.uleb128 0x49
 6542 00c5 13       		.uleb128 0x13
 6543 00c6 00       		.byte	0
 6544 00c7 00       		.byte	0
 6545 00c8 11       		.uleb128 0x11
 6546 00c9 0D       		.uleb128 0xd
 6547 00ca 00       		.byte	0
 6548 00cb 03       		.uleb128 0x3
 6549 00cc 0E       		.uleb128 0xe
 6550 00cd 3A       		.uleb128 0x3a
 6551 00ce 0B       		.uleb128 0xb
 6552 00cf 3B       		.uleb128 0x3b
 6553 00d0 0B       		.uleb128 0xb
 6554 00d1 49       		.uleb128 0x49
 6555 00d2 13       		.uleb128 0x13
 6556 00d3 00       		.byte	0
 6557 00d4 00       		.byte	0
 6558 00d5 12       		.uleb128 0x12
 6559 00d6 16       		.uleb128 0x16
 6560 00d7 00       		.byte	0
 6561 00d8 03       		.uleb128 0x3
 6562 00d9 0E       		.uleb128 0xe
 6563 00da 3A       		.uleb128 0x3a
 6564 00db 0B       		.uleb128 0xb
 6565 00dc 3B       		.uleb128 0x3b
 6566 00dd 05       		.uleb128 0x5
 6567 00de 49       		.uleb128 0x49
 6568 00df 13       		.uleb128 0x13
 6569 00e0 00       		.byte	0
 6570 00e1 00       		.byte	0
 6571 00e2 13       		.uleb128 0x13
 6572 00e3 01       		.uleb128 0x1
 6573 00e4 01       		.byte	0x1
 6574 00e5 49       		.uleb128 0x49
 6575 00e6 13       		.uleb128 0x13
 6576 00e7 01       		.uleb128 0x1
 6577 00e8 13       		.uleb128 0x13
 6578 00e9 00       		.byte	0
 6579 00ea 00       		.byte	0
 6580 00eb 14       		.uleb128 0x14
 6581 00ec 21       		.uleb128 0x21
 6582 00ed 00       		.byte	0
 6583 00ee 49       		.uleb128 0x49
 6584 00ef 13       		.uleb128 0x13
ARM GAS  C:\Users\pearlstl\AppData\Local\Temp\cc98wxIE.s 			page 132


 6585 00f0 2F       		.uleb128 0x2f
 6586 00f1 0B       		.uleb128 0xb
 6587 00f2 00       		.byte	0
 6588 00f3 00       		.byte	0
 6589 00f4 15       		.uleb128 0x15
 6590 00f5 04       		.uleb128 0x4
 6591 00f6 01       		.byte	0x1
 6592 00f7 0B       		.uleb128 0xb
 6593 00f8 0B       		.uleb128 0xb
 6594 00f9 49       		.uleb128 0x49
 6595 00fa 13       		.uleb128 0x13
 6596 00fb 3A       		.uleb128 0x3a
 6597 00fc 0B       		.uleb128 0xb
 6598 00fd 3B       		.uleb128 0x3b
 6599 00fe 0B       		.uleb128 0xb
 6600 00ff 01       		.uleb128 0x1
 6601 0100 13       		.uleb128 0x13
 6602 0101 00       		.byte	0
 6603 0102 00       		.byte	0
 6604 0103 16       		.uleb128 0x16
 6605 0104 28       		.uleb128 0x28
 6606 0105 00       		.byte	0
 6607 0106 03       		.uleb128 0x3
 6608 0107 0E       		.uleb128 0xe
 6609 0108 1C       		.uleb128 0x1c
 6610 0109 0B       		.uleb128 0xb
 6611 010a 00       		.byte	0
 6612 010b 00       		.byte	0
 6613 010c 17       		.uleb128 0x17
 6614 010d 0D       		.uleb128 0xd
 6615 010e 00       		.byte	0
 6616 010f 03       		.uleb128 0x3
 6617 0110 08       		.uleb128 0x8
 6618 0111 3A       		.uleb128 0x3a
 6619 0112 0B       		.uleb128 0xb
 6620 0113 3B       		.uleb128 0x3b
 6621 0114 0B       		.uleb128 0xb
 6622 0115 49       		.uleb128 0x49
 6623 0116 13       		.uleb128 0x13
 6624 0117 0B       		.uleb128 0xb
 6625 0118 0B       		.uleb128 0xb
 6626 0119 0D       		.uleb128 0xd
 6627 011a 0B       		.uleb128 0xb
 6628 011b 0C       		.uleb128 0xc
 6629 011c 0B       		.uleb128 0xb
 6630 011d 38       		.uleb128 0x38
 6631 011e 0B       		.uleb128 0xb
 6632 011f 00       		.byte	0
 6633 0120 00       		.byte	0
 6634 0121 18       		.uleb128 0x18
 6635 0122 15       		.uleb128 0x15
 6636 0123 01       		.byte	0x1
 6637 0124 27       		.uleb128 0x27
 6638 0125 19       		.uleb128 0x19
 6639 0126 01       		.uleb128 0x1
 6640 0127 13       		.uleb128 0x13
 6641 0128 00       		.byte	0
ARM GAS  C:\Users\pearlstl\AppData\Local\Temp\cc98wxIE.s 			page 133


 6642 0129 00       		.byte	0
 6643 012a 19       		.uleb128 0x19
 6644 012b 0D       		.uleb128 0xd
 6645 012c 00       		.byte	0
 6646 012d 03       		.uleb128 0x3
 6647 012e 08       		.uleb128 0x8
 6648 012f 3A       		.uleb128 0x3a
 6649 0130 0B       		.uleb128 0xb
 6650 0131 3B       		.uleb128 0x3b
 6651 0132 05       		.uleb128 0x5
 6652 0133 49       		.uleb128 0x49
 6653 0134 13       		.uleb128 0x13
 6654 0135 38       		.uleb128 0x38
 6655 0136 0B       		.uleb128 0xb
 6656 0137 00       		.byte	0
 6657 0138 00       		.byte	0
 6658 0139 1A       		.uleb128 0x1a
 6659 013a 0D       		.uleb128 0xd
 6660 013b 00       		.byte	0
 6661 013c 03       		.uleb128 0x3
 6662 013d 0E       		.uleb128 0xe
 6663 013e 3A       		.uleb128 0x3a
 6664 013f 0B       		.uleb128 0xb
 6665 0140 3B       		.uleb128 0x3b
 6666 0141 05       		.uleb128 0x5
 6667 0142 49       		.uleb128 0x49
 6668 0143 13       		.uleb128 0x13
 6669 0144 38       		.uleb128 0x38
 6670 0145 0B       		.uleb128 0xb
 6671 0146 00       		.byte	0
 6672 0147 00       		.byte	0
 6673 0148 1B       		.uleb128 0x1b
 6674 0149 13       		.uleb128 0x13
 6675 014a 01       		.byte	0x1
 6676 014b 0B       		.uleb128 0xb
 6677 014c 0B       		.uleb128 0xb
 6678 014d 3A       		.uleb128 0x3a
 6679 014e 0B       		.uleb128 0xb
 6680 014f 3B       		.uleb128 0x3b
 6681 0150 05       		.uleb128 0x5
 6682 0151 01       		.uleb128 0x1
 6683 0152 13       		.uleb128 0x13
 6684 0153 00       		.byte	0
 6685 0154 00       		.byte	0
 6686 0155 1C       		.uleb128 0x1c
 6687 0156 13       		.uleb128 0x13
 6688 0157 01       		.byte	0x1
 6689 0158 0B       		.uleb128 0xb
 6690 0159 05       		.uleb128 0x5
 6691 015a 3A       		.uleb128 0x3a
 6692 015b 0B       		.uleb128 0xb
 6693 015c 3B       		.uleb128 0x3b
 6694 015d 0B       		.uleb128 0xb
 6695 015e 01       		.uleb128 0x1
 6696 015f 13       		.uleb128 0x13
 6697 0160 00       		.byte	0
 6698 0161 00       		.byte	0
ARM GAS  C:\Users\pearlstl\AppData\Local\Temp\cc98wxIE.s 			page 134


 6699 0162 1D       		.uleb128 0x1d
 6700 0163 0D       		.uleb128 0xd
 6701 0164 00       		.byte	0
 6702 0165 03       		.uleb128 0x3
 6703 0166 0E       		.uleb128 0xe
 6704 0167 3A       		.uleb128 0x3a
 6705 0168 0B       		.uleb128 0xb
 6706 0169 3B       		.uleb128 0x3b
 6707 016a 0B       		.uleb128 0xb
 6708 016b 49       		.uleb128 0x49
 6709 016c 13       		.uleb128 0x13
 6710 016d 38       		.uleb128 0x38
 6711 016e 05       		.uleb128 0x5
 6712 016f 00       		.byte	0
 6713 0170 00       		.byte	0
 6714 0171 1E       		.uleb128 0x1e
 6715 0172 0D       		.uleb128 0xd
 6716 0173 00       		.byte	0
 6717 0174 03       		.uleb128 0x3
 6718 0175 08       		.uleb128 0x8
 6719 0176 3A       		.uleb128 0x3a
 6720 0177 0B       		.uleb128 0xb
 6721 0178 3B       		.uleb128 0x3b
 6722 0179 0B       		.uleb128 0xb
 6723 017a 49       		.uleb128 0x49
 6724 017b 13       		.uleb128 0x13
 6725 017c 38       		.uleb128 0x38
 6726 017d 05       		.uleb128 0x5
 6727 017e 00       		.byte	0
 6728 017f 00       		.byte	0
 6729 0180 1F       		.uleb128 0x1f
 6730 0181 0D       		.uleb128 0xd
 6731 0182 00       		.byte	0
 6732 0183 03       		.uleb128 0x3
 6733 0184 0E       		.uleb128 0xe
 6734 0185 3A       		.uleb128 0x3a
 6735 0186 0B       		.uleb128 0xb
 6736 0187 3B       		.uleb128 0x3b
 6737 0188 05       		.uleb128 0x5
 6738 0189 49       		.uleb128 0x49
 6739 018a 13       		.uleb128 0x13
 6740 018b 38       		.uleb128 0x38
 6741 018c 05       		.uleb128 0x5
 6742 018d 00       		.byte	0
 6743 018e 00       		.byte	0
 6744 018f 20       		.uleb128 0x20
 6745 0190 0D       		.uleb128 0xd
 6746 0191 00       		.byte	0
 6747 0192 03       		.uleb128 0x3
 6748 0193 08       		.uleb128 0x8
 6749 0194 3A       		.uleb128 0x3a
 6750 0195 0B       		.uleb128 0xb
 6751 0196 3B       		.uleb128 0x3b
 6752 0197 05       		.uleb128 0x5
 6753 0198 49       		.uleb128 0x49
 6754 0199 13       		.uleb128 0x13
 6755 019a 38       		.uleb128 0x38
ARM GAS  C:\Users\pearlstl\AppData\Local\Temp\cc98wxIE.s 			page 135


 6756 019b 05       		.uleb128 0x5
 6757 019c 00       		.byte	0
 6758 019d 00       		.byte	0
 6759 019e 21       		.uleb128 0x21
 6760 019f 2E       		.uleb128 0x2e
 6761 01a0 01       		.byte	0x1
 6762 01a1 03       		.uleb128 0x3
 6763 01a2 0E       		.uleb128 0xe
 6764 01a3 3A       		.uleb128 0x3a
 6765 01a4 0B       		.uleb128 0xb
 6766 01a5 3B       		.uleb128 0x3b
 6767 01a6 0B       		.uleb128 0xb
 6768 01a7 27       		.uleb128 0x27
 6769 01a8 19       		.uleb128 0x19
 6770 01a9 20       		.uleb128 0x20
 6771 01aa 0B       		.uleb128 0xb
 6772 01ab 01       		.uleb128 0x1
 6773 01ac 13       		.uleb128 0x13
 6774 01ad 00       		.byte	0
 6775 01ae 00       		.byte	0
 6776 01af 22       		.uleb128 0x22
 6777 01b0 05       		.uleb128 0x5
 6778 01b1 00       		.byte	0
 6779 01b2 03       		.uleb128 0x3
 6780 01b3 0E       		.uleb128 0xe
 6781 01b4 3A       		.uleb128 0x3a
 6782 01b5 0B       		.uleb128 0xb
 6783 01b6 3B       		.uleb128 0x3b
 6784 01b7 0B       		.uleb128 0xb
 6785 01b8 49       		.uleb128 0x49
 6786 01b9 13       		.uleb128 0x13
 6787 01ba 00       		.byte	0
 6788 01bb 00       		.byte	0
 6789 01bc 23       		.uleb128 0x23
 6790 01bd 2E       		.uleb128 0x2e
 6791 01be 01       		.byte	0x1
 6792 01bf 3F       		.uleb128 0x3f
 6793 01c0 19       		.uleb128 0x19
 6794 01c1 03       		.uleb128 0x3
 6795 01c2 0E       		.uleb128 0xe
 6796 01c3 3A       		.uleb128 0x3a
 6797 01c4 0B       		.uleb128 0xb
 6798 01c5 3B       		.uleb128 0x3b
 6799 01c6 0B       		.uleb128 0xb
 6800 01c7 27       		.uleb128 0x27
 6801 01c8 19       		.uleb128 0x19
 6802 01c9 20       		.uleb128 0x20
 6803 01ca 0B       		.uleb128 0xb
 6804 01cb 01       		.uleb128 0x1
 6805 01cc 13       		.uleb128 0x13
 6806 01cd 00       		.byte	0
 6807 01ce 00       		.byte	0
 6808 01cf 24       		.uleb128 0x24
 6809 01d0 34       		.uleb128 0x34
 6810 01d1 00       		.byte	0
 6811 01d2 03       		.uleb128 0x3
 6812 01d3 08       		.uleb128 0x8
ARM GAS  C:\Users\pearlstl\AppData\Local\Temp\cc98wxIE.s 			page 136


 6813 01d4 3A       		.uleb128 0x3a
 6814 01d5 0B       		.uleb128 0xb
 6815 01d6 3B       		.uleb128 0x3b
 6816 01d7 0B       		.uleb128 0xb
 6817 01d8 49       		.uleb128 0x49
 6818 01d9 13       		.uleb128 0x13
 6819 01da 00       		.byte	0
 6820 01db 00       		.byte	0
 6821 01dc 25       		.uleb128 0x25
 6822 01dd 2E       		.uleb128 0x2e
 6823 01de 01       		.byte	0x1
 6824 01df 03       		.uleb128 0x3
 6825 01e0 0E       		.uleb128 0xe
 6826 01e1 3A       		.uleb128 0x3a
 6827 01e2 0B       		.uleb128 0xb
 6828 01e3 3B       		.uleb128 0x3b
 6829 01e4 05       		.uleb128 0x5
 6830 01e5 27       		.uleb128 0x27
 6831 01e6 19       		.uleb128 0x19
 6832 01e7 11       		.uleb128 0x11
 6833 01e8 01       		.uleb128 0x1
 6834 01e9 12       		.uleb128 0x12
 6835 01ea 06       		.uleb128 0x6
 6836 01eb 40       		.uleb128 0x40
 6837 01ec 18       		.uleb128 0x18
 6838 01ed 9742     		.uleb128 0x2117
 6839 01ef 19       		.uleb128 0x19
 6840 01f0 01       		.uleb128 0x1
 6841 01f1 13       		.uleb128 0x13
 6842 01f2 00       		.byte	0
 6843 01f3 00       		.byte	0
 6844 01f4 26       		.uleb128 0x26
 6845 01f5 05       		.uleb128 0x5
 6846 01f6 00       		.byte	0
 6847 01f7 03       		.uleb128 0x3
 6848 01f8 0E       		.uleb128 0xe
 6849 01f9 3A       		.uleb128 0x3a
 6850 01fa 0B       		.uleb128 0xb
 6851 01fb 3B       		.uleb128 0x3b
 6852 01fc 05       		.uleb128 0x5
 6853 01fd 49       		.uleb128 0x49
 6854 01fe 13       		.uleb128 0x13
 6855 01ff 02       		.uleb128 0x2
 6856 0200 17       		.uleb128 0x17
 6857 0201 00       		.byte	0
 6858 0202 00       		.byte	0
 6859 0203 27       		.uleb128 0x27
 6860 0204 34       		.uleb128 0x34
 6861 0205 00       		.byte	0
 6862 0206 03       		.uleb128 0x3
 6863 0207 08       		.uleb128 0x8
 6864 0208 3A       		.uleb128 0x3a
 6865 0209 0B       		.uleb128 0xb
 6866 020a 3B       		.uleb128 0x3b
 6867 020b 05       		.uleb128 0x5
 6868 020c 49       		.uleb128 0x49
 6869 020d 13       		.uleb128 0x13
ARM GAS  C:\Users\pearlstl\AppData\Local\Temp\cc98wxIE.s 			page 137


 6870 020e 02       		.uleb128 0x2
 6871 020f 17       		.uleb128 0x17
 6872 0210 00       		.byte	0
 6873 0211 00       		.byte	0
 6874 0212 28       		.uleb128 0x28
 6875 0213 34       		.uleb128 0x34
 6876 0214 00       		.byte	0
 6877 0215 03       		.uleb128 0x3
 6878 0216 08       		.uleb128 0x8
 6879 0217 3A       		.uleb128 0x3a
 6880 0218 0B       		.uleb128 0xb
 6881 0219 3B       		.uleb128 0x3b
 6882 021a 05       		.uleb128 0x5
 6883 021b 49       		.uleb128 0x49
 6884 021c 13       		.uleb128 0x13
 6885 021d 02       		.uleb128 0x2
 6886 021e 18       		.uleb128 0x18
 6887 021f 00       		.byte	0
 6888 0220 00       		.byte	0
 6889 0221 29       		.uleb128 0x29
 6890 0222 34       		.uleb128 0x34
 6891 0223 00       		.byte	0
 6892 0224 03       		.uleb128 0x3
 6893 0225 0E       		.uleb128 0xe
 6894 0226 3A       		.uleb128 0x3a
 6895 0227 0B       		.uleb128 0xb
 6896 0228 3B       		.uleb128 0x3b
 6897 0229 05       		.uleb128 0x5
 6898 022a 49       		.uleb128 0x49
 6899 022b 13       		.uleb128 0x13
 6900 022c 02       		.uleb128 0x2
 6901 022d 17       		.uleb128 0x17
 6902 022e 00       		.byte	0
 6903 022f 00       		.byte	0
 6904 0230 2A       		.uleb128 0x2a
 6905 0231 34       		.uleb128 0x34
 6906 0232 00       		.byte	0
 6907 0233 03       		.uleb128 0x3
 6908 0234 0E       		.uleb128 0xe
 6909 0235 3A       		.uleb128 0x3a
 6910 0236 0B       		.uleb128 0xb
 6911 0237 3B       		.uleb128 0x3b
 6912 0238 05       		.uleb128 0x5
 6913 0239 49       		.uleb128 0x49
 6914 023a 13       		.uleb128 0x13
 6915 023b 02       		.uleb128 0x2
 6916 023c 18       		.uleb128 0x18
 6917 023d 00       		.byte	0
 6918 023e 00       		.byte	0
 6919 023f 2B       		.uleb128 0x2b
 6920 0240 898201   		.uleb128 0x4109
 6921 0243 01       		.byte	0x1
 6922 0244 11       		.uleb128 0x11
 6923 0245 01       		.uleb128 0x1
 6924 0246 31       		.uleb128 0x31
 6925 0247 13       		.uleb128 0x13
 6926 0248 01       		.uleb128 0x1
ARM GAS  C:\Users\pearlstl\AppData\Local\Temp\cc98wxIE.s 			page 138


 6927 0249 13       		.uleb128 0x13
 6928 024a 00       		.byte	0
 6929 024b 00       		.byte	0
 6930 024c 2C       		.uleb128 0x2c
 6931 024d 8A8201   		.uleb128 0x410a
 6932 0250 00       		.byte	0
 6933 0251 02       		.uleb128 0x2
 6934 0252 18       		.uleb128 0x18
 6935 0253 9142     		.uleb128 0x2111
 6936 0255 18       		.uleb128 0x18
 6937 0256 00       		.byte	0
 6938 0257 00       		.byte	0
 6939 0258 2D       		.uleb128 0x2d
 6940 0259 898201   		.uleb128 0x4109
 6941 025c 01       		.byte	0x1
 6942 025d 11       		.uleb128 0x11
 6943 025e 01       		.uleb128 0x1
 6944 025f 31       		.uleb128 0x31
 6945 0260 13       		.uleb128 0x13
 6946 0261 00       		.byte	0
 6947 0262 00       		.byte	0
 6948 0263 2E       		.uleb128 0x2e
 6949 0264 05       		.uleb128 0x5
 6950 0265 00       		.byte	0
 6951 0266 03       		.uleb128 0x3
 6952 0267 08       		.uleb128 0x8
 6953 0268 3A       		.uleb128 0x3a
 6954 0269 0B       		.uleb128 0xb
 6955 026a 3B       		.uleb128 0x3b
 6956 026b 0B       		.uleb128 0xb
 6957 026c 49       		.uleb128 0x49
 6958 026d 13       		.uleb128 0x13
 6959 026e 00       		.byte	0
 6960 026f 00       		.byte	0
 6961 0270 2F       		.uleb128 0x2f
 6962 0271 2E       		.uleb128 0x2e
 6963 0272 01       		.byte	0x1
 6964 0273 3F       		.uleb128 0x3f
 6965 0274 19       		.uleb128 0x19
 6966 0275 03       		.uleb128 0x3
 6967 0276 0E       		.uleb128 0xe
 6968 0277 3A       		.uleb128 0x3a
 6969 0278 0B       		.uleb128 0xb
 6970 0279 3B       		.uleb128 0x3b
 6971 027a 0B       		.uleb128 0xb
 6972 027b 27       		.uleb128 0x27
 6973 027c 19       		.uleb128 0x19
 6974 027d 49       		.uleb128 0x49
 6975 027e 13       		.uleb128 0x13
 6976 027f 11       		.uleb128 0x11
 6977 0280 01       		.uleb128 0x1
 6978 0281 12       		.uleb128 0x12
 6979 0282 06       		.uleb128 0x6
 6980 0283 40       		.uleb128 0x40
 6981 0284 18       		.uleb128 0x18
 6982 0285 9742     		.uleb128 0x2117
 6983 0287 19       		.uleb128 0x19
ARM GAS  C:\Users\pearlstl\AppData\Local\Temp\cc98wxIE.s 			page 139


 6984 0288 01       		.uleb128 0x1
 6985 0289 13       		.uleb128 0x13
 6986 028a 00       		.byte	0
 6987 028b 00       		.byte	0
 6988 028c 30       		.uleb128 0x30
 6989 028d 05       		.uleb128 0x5
 6990 028e 00       		.byte	0
 6991 028f 03       		.uleb128 0x3
 6992 0290 08       		.uleb128 0x8
 6993 0291 3A       		.uleb128 0x3a
 6994 0292 0B       		.uleb128 0xb
 6995 0293 3B       		.uleb128 0x3b
 6996 0294 0B       		.uleb128 0xb
 6997 0295 49       		.uleb128 0x49
 6998 0296 13       		.uleb128 0x13
 6999 0297 02       		.uleb128 0x2
 7000 0298 17       		.uleb128 0x17
 7001 0299 00       		.byte	0
 7002 029a 00       		.byte	0
 7003 029b 31       		.uleb128 0x31
 7004 029c 05       		.uleb128 0x5
 7005 029d 00       		.byte	0
 7006 029e 03       		.uleb128 0x3
 7007 029f 0E       		.uleb128 0xe
 7008 02a0 3A       		.uleb128 0x3a
 7009 02a1 0B       		.uleb128 0xb
 7010 02a2 3B       		.uleb128 0x3b
 7011 02a3 0B       		.uleb128 0xb
 7012 02a4 49       		.uleb128 0x49
 7013 02a5 13       		.uleb128 0x13
 7014 02a6 02       		.uleb128 0x2
 7015 02a7 17       		.uleb128 0x17
 7016 02a8 00       		.byte	0
 7017 02a9 00       		.byte	0
 7018 02aa 32       		.uleb128 0x32
 7019 02ab 34       		.uleb128 0x34
 7020 02ac 00       		.byte	0
 7021 02ad 03       		.uleb128 0x3
 7022 02ae 0E       		.uleb128 0xe
 7023 02af 3A       		.uleb128 0x3a
 7024 02b0 0B       		.uleb128 0xb
 7025 02b1 3B       		.uleb128 0x3b
 7026 02b2 0B       		.uleb128 0xb
 7027 02b3 49       		.uleb128 0x49
 7028 02b4 13       		.uleb128 0x13
 7029 02b5 02       		.uleb128 0x2
 7030 02b6 17       		.uleb128 0x17
 7031 02b7 00       		.byte	0
 7032 02b8 00       		.byte	0
 7033 02b9 33       		.uleb128 0x33
 7034 02ba 34       		.uleb128 0x34
 7035 02bb 00       		.byte	0
 7036 02bc 03       		.uleb128 0x3
 7037 02bd 08       		.uleb128 0x8
 7038 02be 3A       		.uleb128 0x3a
 7039 02bf 0B       		.uleb128 0xb
 7040 02c0 3B       		.uleb128 0x3b
ARM GAS  C:\Users\pearlstl\AppData\Local\Temp\cc98wxIE.s 			page 140


 7041 02c1 0B       		.uleb128 0xb
 7042 02c2 49       		.uleb128 0x49
 7043 02c3 13       		.uleb128 0x13
 7044 02c4 02       		.uleb128 0x2
 7045 02c5 17       		.uleb128 0x17
 7046 02c6 00       		.byte	0
 7047 02c7 00       		.byte	0
 7048 02c8 34       		.uleb128 0x34
 7049 02c9 0B       		.uleb128 0xb
 7050 02ca 01       		.byte	0x1
 7051 02cb 55       		.uleb128 0x55
 7052 02cc 17       		.uleb128 0x17
 7053 02cd 01       		.uleb128 0x1
 7054 02ce 13       		.uleb128 0x13
 7055 02cf 00       		.byte	0
 7056 02d0 00       		.byte	0
 7057 02d1 35       		.uleb128 0x35
 7058 02d2 1D       		.uleb128 0x1d
 7059 02d3 01       		.byte	0x1
 7060 02d4 31       		.uleb128 0x31
 7061 02d5 13       		.uleb128 0x13
 7062 02d6 52       		.uleb128 0x52
 7063 02d7 01       		.uleb128 0x1
 7064 02d8 55       		.uleb128 0x55
 7065 02d9 17       		.uleb128 0x17
 7066 02da 58       		.uleb128 0x58
 7067 02db 0B       		.uleb128 0xb
 7068 02dc 59       		.uleb128 0x59
 7069 02dd 0B       		.uleb128 0xb
 7070 02de 01       		.uleb128 0x1
 7071 02df 13       		.uleb128 0x13
 7072 02e0 00       		.byte	0
 7073 02e1 00       		.byte	0
 7074 02e2 36       		.uleb128 0x36
 7075 02e3 05       		.uleb128 0x5
 7076 02e4 00       		.byte	0
 7077 02e5 31       		.uleb128 0x31
 7078 02e6 13       		.uleb128 0x13
 7079 02e7 02       		.uleb128 0x2
 7080 02e8 17       		.uleb128 0x17
 7081 02e9 00       		.byte	0
 7082 02ea 00       		.byte	0
 7083 02eb 37       		.uleb128 0x37
 7084 02ec 0B       		.uleb128 0xb
 7085 02ed 01       		.byte	0x1
 7086 02ee 55       		.uleb128 0x55
 7087 02ef 17       		.uleb128 0x17
 7088 02f0 00       		.byte	0
 7089 02f1 00       		.byte	0
 7090 02f2 38       		.uleb128 0x38
 7091 02f3 34       		.uleb128 0x34
 7092 02f4 00       		.byte	0
 7093 02f5 31       		.uleb128 0x31
 7094 02f6 13       		.uleb128 0x13
 7095 02f7 02       		.uleb128 0x2
 7096 02f8 17       		.uleb128 0x17
 7097 02f9 00       		.byte	0
ARM GAS  C:\Users\pearlstl\AppData\Local\Temp\cc98wxIE.s 			page 141


 7098 02fa 00       		.byte	0
 7099 02fb 39       		.uleb128 0x39
 7100 02fc 0B       		.uleb128 0xb
 7101 02fd 01       		.byte	0x1
 7102 02fe 11       		.uleb128 0x11
 7103 02ff 01       		.uleb128 0x1
 7104 0300 12       		.uleb128 0x12
 7105 0301 06       		.uleb128 0x6
 7106 0302 01       		.uleb128 0x1
 7107 0303 13       		.uleb128 0x13
 7108 0304 00       		.byte	0
 7109 0305 00       		.byte	0
 7110 0306 3A       		.uleb128 0x3a
 7111 0307 1D       		.uleb128 0x1d
 7112 0308 01       		.byte	0x1
 7113 0309 31       		.uleb128 0x31
 7114 030a 13       		.uleb128 0x13
 7115 030b 11       		.uleb128 0x11
 7116 030c 01       		.uleb128 0x1
 7117 030d 12       		.uleb128 0x12
 7118 030e 06       		.uleb128 0x6
 7119 030f 58       		.uleb128 0x58
 7120 0310 0B       		.uleb128 0xb
 7121 0311 59       		.uleb128 0x59
 7122 0312 0B       		.uleb128 0xb
 7123 0313 01       		.uleb128 0x1
 7124 0314 13       		.uleb128 0x13
 7125 0315 00       		.byte	0
 7126 0316 00       		.byte	0
 7127 0317 3B       		.uleb128 0x3b
 7128 0318 898201   		.uleb128 0x4109
 7129 031b 00       		.byte	0
 7130 031c 11       		.uleb128 0x11
 7131 031d 01       		.uleb128 0x1
 7132 031e 31       		.uleb128 0x31
 7133 031f 13       		.uleb128 0x13
 7134 0320 00       		.byte	0
 7135 0321 00       		.byte	0
 7136 0322 3C       		.uleb128 0x3c
 7137 0323 2E       		.uleb128 0x2e
 7138 0324 01       		.byte	0x1
 7139 0325 31       		.uleb128 0x31
 7140 0326 13       		.uleb128 0x13
 7141 0327 11       		.uleb128 0x11
 7142 0328 01       		.uleb128 0x1
 7143 0329 12       		.uleb128 0x12
 7144 032a 06       		.uleb128 0x6
 7145 032b 40       		.uleb128 0x40
 7146 032c 18       		.uleb128 0x18
 7147 032d 9742     		.uleb128 0x2117
 7148 032f 19       		.uleb128 0x19
 7149 0330 01       		.uleb128 0x1
 7150 0331 13       		.uleb128 0x13
 7151 0332 00       		.byte	0
 7152 0333 00       		.byte	0
 7153 0334 3D       		.uleb128 0x3d
 7154 0335 898201   		.uleb128 0x4109
ARM GAS  C:\Users\pearlstl\AppData\Local\Temp\cc98wxIE.s 			page 142


 7155 0338 01       		.byte	0x1
 7156 0339 11       		.uleb128 0x11
 7157 033a 01       		.uleb128 0x1
 7158 033b 9542     		.uleb128 0x2115
 7159 033d 19       		.uleb128 0x19
 7160 033e 31       		.uleb128 0x31
 7161 033f 13       		.uleb128 0x13
 7162 0340 00       		.byte	0
 7163 0341 00       		.byte	0
 7164 0342 3E       		.uleb128 0x3e
 7165 0343 34       		.uleb128 0x34
 7166 0344 00       		.byte	0
 7167 0345 31       		.uleb128 0x31
 7168 0346 13       		.uleb128 0x13
 7169 0347 02       		.uleb128 0x2
 7170 0348 18       		.uleb128 0x18
 7171 0349 00       		.byte	0
 7172 034a 00       		.byte	0
 7173 034b 3F       		.uleb128 0x3f
 7174 034c 898201   		.uleb128 0x4109
 7175 034f 01       		.byte	0x1
 7176 0350 11       		.uleb128 0x11
 7177 0351 01       		.uleb128 0x1
 7178 0352 9542     		.uleb128 0x2115
 7179 0354 19       		.uleb128 0x19
 7180 0355 31       		.uleb128 0x31
 7181 0356 13       		.uleb128 0x13
 7182 0357 01       		.uleb128 0x1
 7183 0358 13       		.uleb128 0x13
 7184 0359 00       		.byte	0
 7185 035a 00       		.byte	0
 7186 035b 40       		.uleb128 0x40
 7187 035c 2E       		.uleb128 0x2e
 7188 035d 01       		.byte	0x1
 7189 035e 3F       		.uleb128 0x3f
 7190 035f 19       		.uleb128 0x19
 7191 0360 03       		.uleb128 0x3
 7192 0361 0E       		.uleb128 0xe
 7193 0362 3A       		.uleb128 0x3a
 7194 0363 0B       		.uleb128 0xb
 7195 0364 3B       		.uleb128 0x3b
 7196 0365 0B       		.uleb128 0xb
 7197 0366 27       		.uleb128 0x27
 7198 0367 19       		.uleb128 0x19
 7199 0368 11       		.uleb128 0x11
 7200 0369 01       		.uleb128 0x1
 7201 036a 12       		.uleb128 0x12
 7202 036b 06       		.uleb128 0x6
 7203 036c 40       		.uleb128 0x40
 7204 036d 18       		.uleb128 0x18
 7205 036e 9742     		.uleb128 0x2117
 7206 0370 19       		.uleb128 0x19
 7207 0371 01       		.uleb128 0x1
 7208 0372 13       		.uleb128 0x13
 7209 0373 00       		.byte	0
 7210 0374 00       		.byte	0
 7211 0375 41       		.uleb128 0x41
ARM GAS  C:\Users\pearlstl\AppData\Local\Temp\cc98wxIE.s 			page 143


 7212 0376 34       		.uleb128 0x34
 7213 0377 00       		.byte	0
 7214 0378 03       		.uleb128 0x3
 7215 0379 0E       		.uleb128 0xe
 7216 037a 3A       		.uleb128 0x3a
 7217 037b 0B       		.uleb128 0xb
 7218 037c 3B       		.uleb128 0x3b
 7219 037d 0B       		.uleb128 0xb
 7220 037e 49       		.uleb128 0x49
 7221 037f 13       		.uleb128 0x13
 7222 0380 00       		.byte	0
 7223 0381 00       		.byte	0
 7224 0382 42       		.uleb128 0x42
 7225 0383 2E       		.uleb128 0x2e
 7226 0384 01       		.byte	0x1
 7227 0385 3F       		.uleb128 0x3f
 7228 0386 19       		.uleb128 0x19
 7229 0387 03       		.uleb128 0x3
 7230 0388 0E       		.uleb128 0xe
 7231 0389 3A       		.uleb128 0x3a
 7232 038a 0B       		.uleb128 0xb
 7233 038b 3B       		.uleb128 0x3b
 7234 038c 05       		.uleb128 0x5
 7235 038d 27       		.uleb128 0x27
 7236 038e 19       		.uleb128 0x19
 7237 038f 20       		.uleb128 0x20
 7238 0390 0B       		.uleb128 0xb
 7239 0391 01       		.uleb128 0x1
 7240 0392 13       		.uleb128 0x13
 7241 0393 00       		.byte	0
 7242 0394 00       		.byte	0
 7243 0395 43       		.uleb128 0x43
 7244 0396 05       		.uleb128 0x5
 7245 0397 00       		.byte	0
 7246 0398 03       		.uleb128 0x3
 7247 0399 0E       		.uleb128 0xe
 7248 039a 3A       		.uleb128 0x3a
 7249 039b 0B       		.uleb128 0xb
 7250 039c 3B       		.uleb128 0x3b
 7251 039d 05       		.uleb128 0x5
 7252 039e 49       		.uleb128 0x49
 7253 039f 13       		.uleb128 0x13
 7254 03a0 00       		.byte	0
 7255 03a1 00       		.byte	0
 7256 03a2 44       		.uleb128 0x44
 7257 03a3 34       		.uleb128 0x34
 7258 03a4 00       		.byte	0
 7259 03a5 03       		.uleb128 0x3
 7260 03a6 08       		.uleb128 0x8
 7261 03a7 3A       		.uleb128 0x3a
 7262 03a8 0B       		.uleb128 0xb
 7263 03a9 3B       		.uleb128 0x3b
 7264 03aa 05       		.uleb128 0x5
 7265 03ab 49       		.uleb128 0x49
 7266 03ac 13       		.uleb128 0x13
 7267 03ad 00       		.byte	0
 7268 03ae 00       		.byte	0
ARM GAS  C:\Users\pearlstl\AppData\Local\Temp\cc98wxIE.s 			page 144


 7269 03af 45       		.uleb128 0x45
 7270 03b0 34       		.uleb128 0x34
 7271 03b1 00       		.byte	0
 7272 03b2 03       		.uleb128 0x3
 7273 03b3 0E       		.uleb128 0xe
 7274 03b4 3A       		.uleb128 0x3a
 7275 03b5 0B       		.uleb128 0xb
 7276 03b6 3B       		.uleb128 0x3b
 7277 03b7 05       		.uleb128 0x5
 7278 03b8 49       		.uleb128 0x49
 7279 03b9 13       		.uleb128 0x13
 7280 03ba 00       		.byte	0
 7281 03bb 00       		.byte	0
 7282 03bc 46       		.uleb128 0x46
 7283 03bd 2E       		.uleb128 0x2e
 7284 03be 01       		.byte	0x1
 7285 03bf 03       		.uleb128 0x3
 7286 03c0 0E       		.uleb128 0xe
 7287 03c1 3A       		.uleb128 0x3a
 7288 03c2 0B       		.uleb128 0xb
 7289 03c3 3B       		.uleb128 0x3b
 7290 03c4 05       		.uleb128 0x5
 7291 03c5 27       		.uleb128 0x27
 7292 03c6 19       		.uleb128 0x19
 7293 03c7 49       		.uleb128 0x49
 7294 03c8 13       		.uleb128 0x13
 7295 03c9 11       		.uleb128 0x11
 7296 03ca 01       		.uleb128 0x1
 7297 03cb 12       		.uleb128 0x12
 7298 03cc 06       		.uleb128 0x6
 7299 03cd 40       		.uleb128 0x40
 7300 03ce 18       		.uleb128 0x18
 7301 03cf 9742     		.uleb128 0x2117
 7302 03d1 19       		.uleb128 0x19
 7303 03d2 01       		.uleb128 0x1
 7304 03d3 13       		.uleb128 0x13
 7305 03d4 00       		.byte	0
 7306 03d5 00       		.byte	0
 7307 03d6 47       		.uleb128 0x47
 7308 03d7 1D       		.uleb128 0x1d
 7309 03d8 01       		.byte	0x1
 7310 03d9 31       		.uleb128 0x31
 7311 03da 13       		.uleb128 0x13
 7312 03db 52       		.uleb128 0x52
 7313 03dc 01       		.uleb128 0x1
 7314 03dd 55       		.uleb128 0x55
 7315 03de 17       		.uleb128 0x17
 7316 03df 58       		.uleb128 0x58
 7317 03e0 0B       		.uleb128 0xb
 7318 03e1 59       		.uleb128 0x59
 7319 03e2 05       		.uleb128 0x5
 7320 03e3 01       		.uleb128 0x1
 7321 03e4 13       		.uleb128 0x13
 7322 03e5 00       		.byte	0
 7323 03e6 00       		.byte	0
 7324 03e7 48       		.uleb128 0x48
 7325 03e8 1D       		.uleb128 0x1d
ARM GAS  C:\Users\pearlstl\AppData\Local\Temp\cc98wxIE.s 			page 145


 7326 03e9 01       		.byte	0x1
 7327 03ea 31       		.uleb128 0x31
 7328 03eb 13       		.uleb128 0x13
 7329 03ec 11       		.uleb128 0x11
 7330 03ed 01       		.uleb128 0x1
 7331 03ee 12       		.uleb128 0x12
 7332 03ef 06       		.uleb128 0x6
 7333 03f0 58       		.uleb128 0x58
 7334 03f1 0B       		.uleb128 0xb
 7335 03f2 59       		.uleb128 0x59
 7336 03f3 05       		.uleb128 0x5
 7337 03f4 01       		.uleb128 0x1
 7338 03f5 13       		.uleb128 0x13
 7339 03f6 00       		.byte	0
 7340 03f7 00       		.byte	0
 7341 03f8 49       		.uleb128 0x49
 7342 03f9 0B       		.uleb128 0xb
 7343 03fa 01       		.byte	0x1
 7344 03fb 11       		.uleb128 0x11
 7345 03fc 01       		.uleb128 0x1
 7346 03fd 12       		.uleb128 0x12
 7347 03fe 06       		.uleb128 0x6
 7348 03ff 00       		.byte	0
 7349 0400 00       		.byte	0
 7350 0401 4A       		.uleb128 0x4a
 7351 0402 898201   		.uleb128 0x4109
 7352 0405 01       		.byte	0x1
 7353 0406 11       		.uleb128 0x11
 7354 0407 01       		.uleb128 0x1
 7355 0408 01       		.uleb128 0x1
 7356 0409 13       		.uleb128 0x13
 7357 040a 00       		.byte	0
 7358 040b 00       		.byte	0
 7359 040c 4B       		.uleb128 0x4b
 7360 040d 34       		.uleb128 0x34
 7361 040e 00       		.byte	0
 7362 040f 03       		.uleb128 0x3
 7363 0410 0E       		.uleb128 0xe
 7364 0411 3A       		.uleb128 0x3a
 7365 0412 0B       		.uleb128 0xb
 7366 0413 3B       		.uleb128 0x3b
 7367 0414 0B       		.uleb128 0xb
 7368 0415 49       		.uleb128 0x49
 7369 0416 13       		.uleb128 0x13
 7370 0417 02       		.uleb128 0x2
 7371 0418 18       		.uleb128 0x18
 7372 0419 00       		.byte	0
 7373 041a 00       		.byte	0
 7374 041b 4C       		.uleb128 0x4c
 7375 041c 2E       		.uleb128 0x2e
 7376 041d 00       		.byte	0
 7377 041e 3F       		.uleb128 0x3f
 7378 041f 19       		.uleb128 0x19
 7379 0420 3C       		.uleb128 0x3c
 7380 0421 19       		.uleb128 0x19
 7381 0422 6E       		.uleb128 0x6e
 7382 0423 0E       		.uleb128 0xe
ARM GAS  C:\Users\pearlstl\AppData\Local\Temp\cc98wxIE.s 			page 146


 7383 0424 03       		.uleb128 0x3
 7384 0425 0E       		.uleb128 0xe
 7385 0426 3A       		.uleb128 0x3a
 7386 0427 0B       		.uleb128 0xb
 7387 0428 3B       		.uleb128 0x3b
 7388 0429 05       		.uleb128 0x5
 7389 042a 00       		.byte	0
 7390 042b 00       		.byte	0
 7391 042c 4D       		.uleb128 0x4d
 7392 042d 2E       		.uleb128 0x2e
 7393 042e 00       		.byte	0
 7394 042f 3F       		.uleb128 0x3f
 7395 0430 19       		.uleb128 0x19
 7396 0431 3C       		.uleb128 0x3c
 7397 0432 19       		.uleb128 0x19
 7398 0433 6E       		.uleb128 0x6e
 7399 0434 0E       		.uleb128 0xe
 7400 0435 03       		.uleb128 0x3
 7401 0436 0E       		.uleb128 0xe
 7402 0437 3A       		.uleb128 0x3a
 7403 0438 0B       		.uleb128 0xb
 7404 0439 3B       		.uleb128 0x3b
 7405 043a 0B       		.uleb128 0xb
 7406 043b 00       		.byte	0
 7407 043c 00       		.byte	0
 7408 043d 4E       		.uleb128 0x4e
 7409 043e 2E       		.uleb128 0x2e
 7410 043f 00       		.byte	0
 7411 0440 3F       		.uleb128 0x3f
 7412 0441 19       		.uleb128 0x19
 7413 0442 3C       		.uleb128 0x3c
 7414 0443 19       		.uleb128 0x19
 7415 0444 6E       		.uleb128 0x6e
 7416 0445 0E       		.uleb128 0xe
 7417 0446 03       		.uleb128 0x3
 7418 0447 0E       		.uleb128 0xe
 7419 0448 3A       		.uleb128 0x3a
 7420 0449 0B       		.uleb128 0xb
 7421 044a 3B       		.uleb128 0x3b
 7422 044b 0B       		.uleb128 0xb
 7423 044c 6E       		.uleb128 0x6e
 7424 044d 0E       		.uleb128 0xe
 7425 044e 00       		.byte	0
 7426 044f 00       		.byte	0
 7427 0450 00       		.byte	0
 7428              		.section	.debug_loc,"",%progbits
 7429              	.Ldebug_loc0:
 7430              	.LLST0:
 7431 0000 00000000 		.4byte	.LVL0
 7432 0004 0B000000 		.4byte	.LVL1-1
 7433 0008 0100     		.2byte	0x1
 7434 000a 50       		.byte	0x50
 7435 000b 0B000000 		.4byte	.LVL1-1
 7436 000f 18030000 		.4byte	.LFE70
 7437 0013 0100     		.2byte	0x1
 7438 0015 58       		.byte	0x58
 7439 0016 00000000 		.4byte	0
ARM GAS  C:\Users\pearlstl\AppData\Local\Temp\cc98wxIE.s 			page 147


 7440 001a 00000000 		.4byte	0
 7441              	.LLST1:
 7442 001e 14000000 		.4byte	.LVL2
 7443 0022 34000000 		.4byte	.LVL5
 7444 0026 0100     		.2byte	0x1
 7445 0028 50       		.byte	0x50
 7446 0029 34000000 		.4byte	.LVL5
 7447 002d AA020000 		.4byte	.LVL52
 7448 0031 0100     		.2byte	0x1
 7449 0033 56       		.byte	0x56
 7450 0034 AA020000 		.4byte	.LVL52
 7451 0038 BE020000 		.4byte	.LVL55
 7452 003c 0100     		.2byte	0x1
 7453 003e 50       		.byte	0x50
 7454 003f BE020000 		.4byte	.LVL55
 7455 0043 18030000 		.4byte	.LFE70
 7456 0047 0100     		.2byte	0x1
 7457 0049 56       		.byte	0x56
 7458 004a 00000000 		.4byte	0
 7459 004e 00000000 		.4byte	0
 7460              	.LLST2:
 7461 0052 20000000 		.4byte	.LVL3
 7462 0056 28000000 		.4byte	.LVL4
 7463 005a 0100     		.2byte	0x1
 7464 005c 5D       		.byte	0x5d
 7465 005d 28000000 		.4byte	.LVL4
 7466 0061 34000000 		.4byte	.LVL5
 7467 0065 0100     		.2byte	0x1
 7468 0067 51       		.byte	0x51
 7469 0068 38000000 		.4byte	.LVL6
 7470 006c 46000000 		.4byte	.LVL7
 7471 0070 0300     		.2byte	0x3
 7472 0072 74       		.byte	0x74
 7473 0073 01       		.sleb128 1
 7474 0074 9F       		.byte	0x9f
 7475 0075 B4000000 		.4byte	.LVL18
 7476 0079 EC010000 		.4byte	.LVL32
 7477 007d 0100     		.2byte	0x1
 7478 007f 52       		.byte	0x52
 7479 0080 5A020000 		.4byte	.LVL45
 7480 0084 94020000 		.4byte	.LVL50
 7481 0088 0100     		.2byte	0x1
 7482 008a 54       		.byte	0x54
 7483 008b AA020000 		.4byte	.LVL52
 7484 008f B8020000 		.4byte	.LVL53
 7485 0093 0100     		.2byte	0x1
 7486 0095 5D       		.byte	0x5d
 7487 0096 B8020000 		.4byte	.LVL53
 7488 009a BC020000 		.4byte	.LVL54
 7489 009e 0400     		.2byte	0x4
 7490 00a0 91       		.byte	0x91
 7491 00a1 897F     		.sleb128 -119
 7492 00a3 9F       		.byte	0x9f
 7493 00a4 BC020000 		.4byte	.LVL54
 7494 00a8 BE020000 		.4byte	.LVL55
 7495 00ac 0100     		.2byte	0x1
 7496 00ae 51       		.byte	0x51
ARM GAS  C:\Users\pearlstl\AppData\Local\Temp\cc98wxIE.s 			page 148


 7497 00af BE020000 		.4byte	.LVL55
 7498 00b3 18030000 		.4byte	.LFE70
 7499 00b7 0100     		.2byte	0x1
 7500 00b9 52       		.byte	0x52
 7501 00ba 00000000 		.4byte	0
 7502 00be 00000000 		.4byte	0
 7503              	.LLST3:
 7504 00c2 20000000 		.4byte	.LVL3
 7505 00c6 28000000 		.4byte	.LVL4
 7506 00ca 0200     		.2byte	0x2
 7507 00cc 30       		.byte	0x30
 7508 00cd 9F       		.byte	0x9f
 7509 00ce 28000000 		.4byte	.LVL4
 7510 00d2 AA020000 		.4byte	.LVL52
 7511 00d6 0100     		.2byte	0x1
 7512 00d8 57       		.byte	0x57
 7513 00d9 AA020000 		.4byte	.LVL52
 7514 00dd BE020000 		.4byte	.LVL55
 7515 00e1 0200     		.2byte	0x2
 7516 00e3 30       		.byte	0x30
 7517 00e4 9F       		.byte	0x9f
 7518 00e5 BE020000 		.4byte	.LVL55
 7519 00e9 18030000 		.4byte	.LFE70
 7520 00ed 0100     		.2byte	0x1
 7521 00ef 57       		.byte	0x57
 7522 00f0 00000000 		.4byte	0
 7523 00f4 00000000 		.4byte	0
 7524              	.LLST4:
 7525 00f8 28000000 		.4byte	.LVL4
 7526 00fc 34000000 		.4byte	.LVL5
 7527 0100 0200     		.2byte	0x2
 7528 0102 30       		.byte	0x30
 7529 0103 9F       		.byte	0x9f
 7530 0104 38000000 		.4byte	.LVL6
 7531 0108 46000000 		.4byte	.LVL7
 7532 010c 0800     		.2byte	0x8
 7533 010e 74       		.byte	0x74
 7534 010f 00       		.sleb128 0
 7535 0110 71       		.byte	0x71
 7536 0111 00       		.sleb128 0
 7537 0112 1C       		.byte	0x1c
 7538 0113 23       		.byte	0x23
 7539 0114 01       		.uleb128 0x1
 7540 0115 9F       		.byte	0x9f
 7541 0116 6C000000 		.4byte	.LVL11
 7542 011a 6E000000 		.4byte	.LVL12
 7543 011e 0700     		.2byte	0x7
 7544 0120 70       		.byte	0x70
 7545 0121 00       		.sleb128 0
 7546 0122 0A       		.byte	0xa
 7547 0123 FFFF     		.2byte	0xffff
 7548 0125 1A       		.byte	0x1a
 7549 0126 9F       		.byte	0x9f
 7550 0127 78000000 		.4byte	.LVL13
 7551 012b 7C000000 		.4byte	.LVL14
 7552 012f 0800     		.2byte	0x8
 7553 0131 73       		.byte	0x73
ARM GAS  C:\Users\pearlstl\AppData\Local\Temp\cc98wxIE.s 			page 149


 7554 0132 00       		.sleb128 0
 7555 0133 91       		.byte	0x91
 7556 0134 00       		.sleb128 0
 7557 0135 1C       		.byte	0x1c
 7558 0136 23       		.byte	0x23
 7559 0137 5F       		.uleb128 0x5f
 7560 0138 9F       		.byte	0x9f
 7561 0139 7C000000 		.4byte	.LVL14
 7562 013d 80000000 		.4byte	.LVL15
 7563 0141 0800     		.2byte	0x8
 7564 0143 73       		.byte	0x73
 7565 0144 00       		.sleb128 0
 7566 0145 91       		.byte	0x91
 7567 0146 00       		.sleb128 0
 7568 0147 1C       		.byte	0x1c
 7569 0148 23       		.byte	0x23
 7570 0149 60       		.uleb128 0x60
 7571 014a 9F       		.byte	0x9f
 7572 014b 80000000 		.4byte	.LVL15
 7573 014f 8B000000 		.4byte	.LVL16-1
 7574 0153 0800     		.2byte	0x8
 7575 0155 73       		.byte	0x73
 7576 0156 00       		.sleb128 0
 7577 0157 91       		.byte	0x91
 7578 0158 00       		.sleb128 0
 7579 0159 1C       		.byte	0x1c
 7580 015a 23       		.byte	0x23
 7581 015b 5F       		.uleb128 0x5f
 7582 015c 9F       		.byte	0x9f
 7583 015d 98000000 		.4byte	.LVL17
 7584 0161 B4000000 		.4byte	.LVL18
 7585 0165 0200     		.2byte	0x2
 7586 0167 30       		.byte	0x30
 7587 0168 9F       		.byte	0x9f
 7588 0169 B4000000 		.4byte	.LVL18
 7589 016d CC000000 		.4byte	.LVL19
 7590 0171 0200     		.2byte	0x2
 7591 0173 31       		.byte	0x31
 7592 0174 9F       		.byte	0x9f
 7593 0175 CC000000 		.4byte	.LVL19
 7594 0179 E4000000 		.4byte	.LVL20
 7595 017d 0200     		.2byte	0x2
 7596 017f 32       		.byte	0x32
 7597 0180 9F       		.byte	0x9f
 7598 0181 E4000000 		.4byte	.LVL20
 7599 0185 FC000000 		.4byte	.LVL21
 7600 0189 0200     		.2byte	0x2
 7601 018b 33       		.byte	0x33
 7602 018c 9F       		.byte	0x9f
 7603 018d FC000000 		.4byte	.LVL21
 7604 0191 14010000 		.4byte	.LVL22
 7605 0195 0200     		.2byte	0x2
 7606 0197 34       		.byte	0x34
 7607 0198 9F       		.byte	0x9f
 7608 0199 14010000 		.4byte	.LVL22
 7609 019d 2C010000 		.4byte	.LVL23
 7610 01a1 0200     		.2byte	0x2
ARM GAS  C:\Users\pearlstl\AppData\Local\Temp\cc98wxIE.s 			page 150


 7611 01a3 35       		.byte	0x35
 7612 01a4 9F       		.byte	0x9f
 7613 01a5 2C010000 		.4byte	.LVL23
 7614 01a9 44010000 		.4byte	.LVL24
 7615 01ad 0200     		.2byte	0x2
 7616 01af 36       		.byte	0x36
 7617 01b0 9F       		.byte	0x9f
 7618 01b1 44010000 		.4byte	.LVL24
 7619 01b5 5A010000 		.4byte	.LVL25
 7620 01b9 0200     		.2byte	0x2
 7621 01bb 37       		.byte	0x37
 7622 01bc 9F       		.byte	0x9f
 7623 01bd 5A010000 		.4byte	.LVL25
 7624 01c1 70010000 		.4byte	.LVL26
 7625 01c5 0200     		.2byte	0x2
 7626 01c7 38       		.byte	0x38
 7627 01c8 9F       		.byte	0x9f
 7628 01c9 70010000 		.4byte	.LVL26
 7629 01cd 86010000 		.4byte	.LVL27
 7630 01d1 0200     		.2byte	0x2
 7631 01d3 39       		.byte	0x39
 7632 01d4 9F       		.byte	0x9f
 7633 01d5 86010000 		.4byte	.LVL27
 7634 01d9 9C010000 		.4byte	.LVL28
 7635 01dd 0200     		.2byte	0x2
 7636 01df 3A       		.byte	0x3a
 7637 01e0 9F       		.byte	0x9f
 7638 01e1 9C010000 		.4byte	.LVL28
 7639 01e5 B2010000 		.4byte	.LVL29
 7640 01e9 0200     		.2byte	0x2
 7641 01eb 3B       		.byte	0x3b
 7642 01ec 9F       		.byte	0x9f
 7643 01ed B2010000 		.4byte	.LVL29
 7644 01f1 C8010000 		.4byte	.LVL30
 7645 01f5 0200     		.2byte	0x2
 7646 01f7 3C       		.byte	0x3c
 7647 01f8 9F       		.byte	0x9f
 7648 01f9 C8010000 		.4byte	.LVL30
 7649 01fd DC010000 		.4byte	.LVL31
 7650 0201 0200     		.2byte	0x2
 7651 0203 3D       		.byte	0x3d
 7652 0204 9F       		.byte	0x9f
 7653 0205 DC010000 		.4byte	.LVL31
 7654 0209 EC010000 		.4byte	.LVL32
 7655 020d 0200     		.2byte	0x2
 7656 020f 3E       		.byte	0x3e
 7657 0210 9F       		.byte	0x9f
 7658 0211 78020000 		.4byte	.LVL46
 7659 0215 7C020000 		.4byte	.LVL47
 7660 0219 0800     		.2byte	0x8
 7661 021b 71       		.byte	0x71
 7662 021c 00       		.sleb128 0
 7663 021d 91       		.byte	0x91
 7664 021e 00       		.sleb128 0
 7665 021f 1C       		.byte	0x1c
 7666 0220 23       		.byte	0x23
 7667 0221 60       		.uleb128 0x60
ARM GAS  C:\Users\pearlstl\AppData\Local\Temp\cc98wxIE.s 			page 151


 7668 0222 9F       		.byte	0x9f
 7669 0223 7C020000 		.4byte	.LVL47
 7670 0227 80020000 		.4byte	.LVL48
 7671 022b 0800     		.2byte	0x8
 7672 022d 71       		.byte	0x71
 7673 022e 00       		.sleb128 0
 7674 022f 91       		.byte	0x91
 7675 0230 00       		.sleb128 0
 7676 0231 1C       		.byte	0x1c
 7677 0232 23       		.byte	0x23
 7678 0233 5F       		.uleb128 0x5f
 7679 0234 9F       		.byte	0x9f
 7680 0235 84020000 		.4byte	.LVL49
 7681 0239 94020000 		.4byte	.LVL50
 7682 023d 0800     		.2byte	0x8
 7683 023f 71       		.byte	0x71
 7684 0240 00       		.sleb128 0
 7685 0241 91       		.byte	0x91
 7686 0242 00       		.sleb128 0
 7687 0243 1C       		.byte	0x1c
 7688 0244 23       		.byte	0x23
 7689 0245 60       		.uleb128 0x60
 7690 0246 9F       		.byte	0x9f
 7691 0247 94020000 		.4byte	.LVL50
 7692 024b AA020000 		.4byte	.LVL52
 7693 024f 0200     		.2byte	0x2
 7694 0251 30       		.byte	0x30
 7695 0252 9F       		.byte	0x9f
 7696 0253 BE020000 		.4byte	.LVL55
 7697 0257 C4020000 		.4byte	.LVL56
 7698 025b 0200     		.2byte	0x2
 7699 025d 3E       		.byte	0x3e
 7700 025e 9F       		.byte	0x9f
 7701 025f C4020000 		.4byte	.LVL56
 7702 0263 CA020000 		.4byte	.LVL57
 7703 0267 0200     		.2byte	0x2
 7704 0269 37       		.byte	0x37
 7705 026a 9F       		.byte	0x9f
 7706 026b CA020000 		.4byte	.LVL57
 7707 026f D0020000 		.4byte	.LVL58
 7708 0273 0200     		.2byte	0x2
 7709 0275 3D       		.byte	0x3d
 7710 0276 9F       		.byte	0x9f
 7711 0277 D0020000 		.4byte	.LVL58
 7712 027b D6020000 		.4byte	.LVL59
 7713 027f 0200     		.2byte	0x2
 7714 0281 36       		.byte	0x36
 7715 0282 9F       		.byte	0x9f
 7716 0283 D6020000 		.4byte	.LVL59
 7717 0287 DC020000 		.4byte	.LVL60
 7718 028b 0200     		.2byte	0x2
 7719 028d 35       		.byte	0x35
 7720 028e 9F       		.byte	0x9f
 7721 028f DC020000 		.4byte	.LVL60
 7722 0293 E2020000 		.4byte	.LVL61
 7723 0297 0200     		.2byte	0x2
 7724 0299 34       		.byte	0x34
ARM GAS  C:\Users\pearlstl\AppData\Local\Temp\cc98wxIE.s 			page 152


 7725 029a 9F       		.byte	0x9f
 7726 029b E2020000 		.4byte	.LVL61
 7727 029f E8020000 		.4byte	.LVL62
 7728 02a3 0200     		.2byte	0x2
 7729 02a5 33       		.byte	0x33
 7730 02a6 9F       		.byte	0x9f
 7731 02a7 E8020000 		.4byte	.LVL62
 7732 02ab EE020000 		.4byte	.LVL63
 7733 02af 0200     		.2byte	0x2
 7734 02b1 32       		.byte	0x32
 7735 02b2 9F       		.byte	0x9f
 7736 02b3 EE020000 		.4byte	.LVL63
 7737 02b7 F4020000 		.4byte	.LVL64
 7738 02bb 0200     		.2byte	0x2
 7739 02bd 31       		.byte	0x31
 7740 02be 9F       		.byte	0x9f
 7741 02bf F4020000 		.4byte	.LVL64
 7742 02c3 FA020000 		.4byte	.LVL65
 7743 02c7 0200     		.2byte	0x2
 7744 02c9 3C       		.byte	0x3c
 7745 02ca 9F       		.byte	0x9f
 7746 02cb FA020000 		.4byte	.LVL65
 7747 02cf 00030000 		.4byte	.LVL66
 7748 02d3 0200     		.2byte	0x2
 7749 02d5 3B       		.byte	0x3b
 7750 02d6 9F       		.byte	0x9f
 7751 02d7 00030000 		.4byte	.LVL66
 7752 02db 06030000 		.4byte	.LVL67
 7753 02df 0200     		.2byte	0x2
 7754 02e1 3A       		.byte	0x3a
 7755 02e2 9F       		.byte	0x9f
 7756 02e3 06030000 		.4byte	.LVL67
 7757 02e7 0C030000 		.4byte	.LVL68
 7758 02eb 0200     		.2byte	0x2
 7759 02ed 39       		.byte	0x39
 7760 02ee 9F       		.byte	0x9f
 7761 02ef 0C030000 		.4byte	.LVL68
 7762 02f3 18030000 		.4byte	.LFE70
 7763 02f7 0200     		.2byte	0x2
 7764 02f9 38       		.byte	0x38
 7765 02fa 9F       		.byte	0x9f
 7766 02fb 00000000 		.4byte	0
 7767 02ff 00000000 		.4byte	0
 7768              	.LLST5:
 7769 0303 68000000 		.4byte	.LVL10
 7770 0307 8B000000 		.4byte	.LVL16-1
 7771 030b 0100     		.2byte	0x1
 7772 030d 52       		.byte	0x52
 7773 030e 00000000 		.4byte	0
 7774 0312 00000000 		.4byte	0
 7775              	.LLST6:
 7776 0316 98000000 		.4byte	.LVL17
 7777 031a 94020000 		.4byte	.LVL50
 7778 031e 0100     		.2byte	0x1
 7779 0320 59       		.byte	0x59
 7780 0321 94020000 		.4byte	.LVL50
 7781 0325 98020000 		.4byte	.LVL51
ARM GAS  C:\Users\pearlstl\AppData\Local\Temp\cc98wxIE.s 			page 153


 7782 0329 0500     		.2byte	0x5
 7783 032b 7A       		.byte	0x7a
 7784 032c 00       		.sleb128 0
 7785 032d 34       		.byte	0x34
 7786 032e 25       		.byte	0x25
 7787 032f 9F       		.byte	0x9f
 7788 0330 98020000 		.4byte	.LVL51
 7789 0334 AA020000 		.4byte	.LVL52
 7790 0338 0100     		.2byte	0x1
 7791 033a 59       		.byte	0x59
 7792 033b BE020000 		.4byte	.LVL55
 7793 033f 18030000 		.4byte	.LFE70
 7794 0343 0100     		.2byte	0x1
 7795 0345 59       		.byte	0x59
 7796 0346 00000000 		.4byte	0
 7797 034a 00000000 		.4byte	0
 7798              	.LLST7:
 7799 034e 00020000 		.4byte	.LVL34
 7800 0352 14020000 		.4byte	.LVL37
 7801 0356 0100     		.2byte	0x1
 7802 0358 53       		.byte	0x53
 7803 0359 18020000 		.4byte	.LVL38
 7804 035d 3D020000 		.4byte	.LVL43-1
 7805 0361 0100     		.2byte	0x1
 7806 0363 53       		.byte	0x53
 7807 0364 00000000 		.4byte	0
 7808 0368 00000000 		.4byte	0
 7809              	.LLST8:
 7810 036c 0A020000 		.4byte	.LVL35
 7811 0370 0E020000 		.4byte	.LVL36
 7812 0374 0800     		.2byte	0x8
 7813 0376 76       		.byte	0x76
 7814 0377 F000     		.sleb128 112
 7815 0379 94       		.byte	0x94
 7816 037a 01       		.byte	0x1
 7817 037b 3F       		.byte	0x3f
 7818 037c 1A       		.byte	0x1a
 7819 037d 9F       		.byte	0x9f
 7820 037e 0E020000 		.4byte	.LVL36
 7821 0382 1A020000 		.4byte	.LVL39
 7822 0386 0100     		.2byte	0x1
 7823 0388 52       		.byte	0x52
 7824 0389 1E020000 		.4byte	.LVL40
 7825 038d 20020000 		.4byte	.LVL41
 7826 0391 0100     		.2byte	0x1
 7827 0393 52       		.byte	0x52
 7828 0394 32020000 		.4byte	.LVL42
 7829 0398 3D020000 		.4byte	.LVL43-1
 7830 039c 0C00     		.2byte	0xc
 7831 039e 76       		.byte	0x76
 7832 039f F100     		.sleb128 113
 7833 03a1 94       		.byte	0x94
 7834 03a2 01       		.byte	0x1
 7835 03a3 72       		.byte	0x72
 7836 03a4 00       		.sleb128 0
 7837 03a5 22       		.byte	0x22
 7838 03a6 77       		.byte	0x77
ARM GAS  C:\Users\pearlstl\AppData\Local\Temp\cc98wxIE.s 			page 154


 7839 03a7 00       		.sleb128 0
 7840 03a8 1C       		.byte	0x1c
 7841 03a9 9F       		.byte	0x9f
 7842 03aa 00000000 		.4byte	0
 7843 03ae 00000000 		.4byte	0
 7844              	.LLST9:
 7845 03b2 00000000 		.4byte	.LVL69
 7846 03b6 09000000 		.4byte	.LVL70-1
 7847 03ba 0100     		.2byte	0x1
 7848 03bc 50       		.byte	0x50
 7849 03bd 09000000 		.4byte	.LVL70-1
 7850 03c1 90010000 		.4byte	.LFE58
 7851 03c5 0400     		.2byte	0x4
 7852 03c7 F3       		.byte	0xf3
 7853 03c8 01       		.uleb128 0x1
 7854 03c9 50       		.byte	0x50
 7855 03ca 9F       		.byte	0x9f
 7856 03cb 00000000 		.4byte	0
 7857 03cf 00000000 		.4byte	0
 7858              	.LLST10:
 7859 03d3 00000000 		.4byte	.LVL69
 7860 03d7 09000000 		.4byte	.LVL70-1
 7861 03db 0100     		.2byte	0x1
 7862 03dd 51       		.byte	0x51
 7863 03de 09000000 		.4byte	.LVL70-1
 7864 03e2 90010000 		.4byte	.LFE58
 7865 03e6 0100     		.2byte	0x1
 7866 03e8 59       		.byte	0x59
 7867 03e9 00000000 		.4byte	0
 7868 03ed 00000000 		.4byte	0
 7869              	.LLST11:
 7870 03f1 0A000000 		.4byte	.LVL70
 7871 03f5 17000000 		.4byte	.LVL71-1
 7872 03f9 0100     		.2byte	0x1
 7873 03fb 50       		.byte	0x50
 7874 03fc 17000000 		.4byte	.LVL71-1
 7875 0400 64010000 		.4byte	.LVL116
 7876 0404 0100     		.2byte	0x1
 7877 0406 54       		.byte	0x54
 7878 0407 6A010000 		.4byte	.LVL117
 7879 040b 90010000 		.4byte	.LFE58
 7880 040f 0100     		.2byte	0x1
 7881 0411 54       		.byte	0x54
 7882 0412 00000000 		.4byte	0
 7883 0416 00000000 		.4byte	0
 7884              	.LLST12:
 7885 041a 18000000 		.4byte	.LVL71
 7886 041e 2A000000 		.4byte	.LVL72
 7887 0422 0100     		.2byte	0x1
 7888 0424 50       		.byte	0x50
 7889 0425 2A000000 		.4byte	.LVL72
 7890 0429 90000000 		.4byte	.LVL79
 7891 042d 0100     		.2byte	0x1
 7892 042f 55       		.byte	0x55
 7893 0430 34010000 		.4byte	.LVL108
 7894 0434 3A010000 		.4byte	.LVL110
 7895 0438 0100     		.2byte	0x1
ARM GAS  C:\Users\pearlstl\AppData\Local\Temp\cc98wxIE.s 			page 155


 7896 043a 55       		.byte	0x55
 7897 043b 6A010000 		.4byte	.LVL117
 7898 043f 6C010000 		.4byte	.LVL118
 7899 0443 0100     		.2byte	0x1
 7900 0445 50       		.byte	0x50
 7901 0446 6C010000 		.4byte	.LVL118
 7902 044a 90010000 		.4byte	.LFE58
 7903 044e 0100     		.2byte	0x1
 7904 0450 55       		.byte	0x55
 7905 0451 00000000 		.4byte	0
 7906 0455 00000000 		.4byte	0
 7907              	.LLST13:
 7908 0459 90000000 		.4byte	.LVL79
 7909 045d 92000000 		.4byte	.LVL80
 7910 0461 0100     		.2byte	0x1
 7911 0463 50       		.byte	0x50
 7912 0464 92000000 		.4byte	.LVL80
 7913 0468 E8000000 		.4byte	.LVL94
 7914 046c 0100     		.2byte	0x1
 7915 046e 55       		.byte	0x55
 7916 046f 02010000 		.4byte	.LVL99
 7917 0473 34010000 		.4byte	.LVL108
 7918 0477 0100     		.2byte	0x1
 7919 0479 55       		.byte	0x55
 7920 047a 00000000 		.4byte	0
 7921 047e 00000000 		.4byte	0
 7922              	.LLST14:
 7923 0482 94000000 		.4byte	.LVL81
 7924 0486 A4000000 		.4byte	.LVL83
 7925 048a 0100     		.2byte	0x1
 7926 048c 56       		.byte	0x56
 7927 048d A4000000 		.4byte	.LVL83
 7928 0491 AA000000 		.4byte	.LVL84
 7929 0495 0E00     		.2byte	0xe
 7930 0497 72       		.byte	0x72
 7931 0498 00       		.sleb128 0
 7932 0499 12       		.byte	0x12
 7933 049a 73       		.byte	0x73
 7934 049b 00       		.sleb128 0
 7935 049c 16       		.byte	0x16
 7936 049d 14       		.byte	0x14
 7937 049e 2B       		.byte	0x2b
 7938 049f 28       		.byte	0x28
 7939 04a0 0100     		.2byte	0x1
 7940 04a2 16       		.byte	0x16
 7941 04a3 13       		.byte	0x13
 7942 04a4 9F       		.byte	0x9f
 7943 04a5 AA000000 		.4byte	.LVL84
 7944 04a9 AE000000 		.4byte	.LVL85
 7945 04ad 1E00     		.2byte	0x1e
 7946 04af 76       		.byte	0x76
 7947 04b0 00       		.sleb128 0
 7948 04b1 70       		.byte	0x70
 7949 04b2 E400     		.sleb128 100
 7950 04b4 06       		.byte	0x6
 7951 04b5 70       		.byte	0x70
 7952 04b6 E400     		.sleb128 100
ARM GAS  C:\Users\pearlstl\AppData\Local\Temp\cc98wxIE.s 			page 156


 7953 04b8 06       		.byte	0x6
 7954 04b9 76       		.byte	0x76
 7955 04ba 00       		.sleb128 0
 7956 04bb 2A       		.byte	0x2a
 7957 04bc 28       		.byte	0x28
 7958 04bd 0100     		.2byte	0x1
 7959 04bf 16       		.byte	0x16
 7960 04c0 13       		.byte	0x13
 7961 04c1 12       		.byte	0x12
 7962 04c2 72       		.byte	0x72
 7963 04c3 00       		.sleb128 0
 7964 04c4 16       		.byte	0x16
 7965 04c5 14       		.byte	0x14
 7966 04c6 2B       		.byte	0x2b
 7967 04c7 28       		.byte	0x28
 7968 04c8 0100     		.2byte	0x1
 7969 04ca 16       		.byte	0x16
 7970 04cb 13       		.byte	0x13
 7971 04cc 9F       		.byte	0x9f
 7972 04cd 00000000 		.4byte	0
 7973 04d1 00000000 		.4byte	0
 7974              	.LLST15:
 7975 04d5 94000000 		.4byte	.LVL81
 7976 04d9 B2000000 		.4byte	.LVL86
 7977 04dd 0100     		.2byte	0x1
 7978 04df 54       		.byte	0x54
 7979 04e0 00000000 		.4byte	0
 7980 04e4 00000000 		.4byte	0
 7981              	.LLST16:
 7982 04e8 98000000 		.4byte	.LVL82
 7983 04ec AE000000 		.4byte	.LVL85
 7984 04f0 0100     		.2byte	0x1
 7985 04f2 50       		.byte	0x50
 7986 04f3 00000000 		.4byte	0
 7987 04f7 00000000 		.4byte	0
 7988              	.LLST17:
 7989 04fb BE000000 		.4byte	.LVL87
 7990 04ff C1000000 		.4byte	.LVL88-1
 7991 0503 0500     		.2byte	0x5
 7992 0505 73       		.byte	0x73
 7993 0506 00       		.sleb128 0
 7994 0507 34       		.byte	0x34
 7995 0508 25       		.byte	0x25
 7996 0509 9F       		.byte	0x9f
 7997 050a 00000000 		.4byte	0
 7998 050e 00000000 		.4byte	0
 7999              	.LLST18:
 8000 0512 BE000000 		.4byte	.LVL87
 8001 0516 C1000000 		.4byte	.LVL88-1
 8002 051a 0500     		.2byte	0x5
 8003 051c 73       		.byte	0x73
 8004 051d 00       		.sleb128 0
 8005 051e 3F       		.byte	0x3f
 8006 051f 1A       		.byte	0x1a
 8007 0520 9F       		.byte	0x9f
 8008 0521 00000000 		.4byte	0
 8009 0525 00000000 		.4byte	0
ARM GAS  C:\Users\pearlstl\AppData\Local\Temp\cc98wxIE.s 			page 157


 8010              	.LLST19:
 8011 0529 BE000000 		.4byte	.LVL87
 8012 052d C1000000 		.4byte	.LVL88-1
 8013 0531 0100     		.2byte	0x1
 8014 0533 50       		.byte	0x50
 8015 0534 C1000000 		.4byte	.LVL88-1
 8016 0538 C4000000 		.4byte	.LVL89
 8017 053c 0100     		.2byte	0x1
 8018 053e 54       		.byte	0x54
 8019 053f 02010000 		.4byte	.LVL99
 8020 0543 1A010000 		.4byte	.LVL102
 8021 0547 0100     		.2byte	0x1
 8022 0549 54       		.byte	0x54
 8023 054a 00000000 		.4byte	0
 8024 054e 00000000 		.4byte	0
 8025              	.LLST20:
 8026 0552 C2000000 		.4byte	.LVL88
 8027 0556 C4000000 		.4byte	.LVL89
 8028 055a 0100     		.2byte	0x1
 8029 055c 50       		.byte	0x50
 8030 055d 02010000 		.4byte	.LVL99
 8031 0561 14010000 		.4byte	.LVL100
 8032 0565 0100     		.2byte	0x1
 8033 0567 50       		.byte	0x50
 8034 0568 00000000 		.4byte	0
 8035 056c 00000000 		.4byte	0
 8036              	.LLST21:
 8037 0570 CC000000 		.4byte	.LVL90
 8038 0574 E4000000 		.4byte	.LVL93
 8039 0578 0100     		.2byte	0x1
 8040 057a 58       		.byte	0x58
 8041 057b 1A010000 		.4byte	.LVL102
 8042 057f 34010000 		.4byte	.LVL108
 8043 0583 0100     		.2byte	0x1
 8044 0585 58       		.byte	0x58
 8045 0586 00000000 		.4byte	0
 8046 058a 00000000 		.4byte	0
 8047              	.LLST22:
 8048 058e CC000000 		.4byte	.LVL90
 8049 0592 E0000000 		.4byte	.LVL92
 8050 0596 0100     		.2byte	0x1
 8051 0598 57       		.byte	0x57
 8052 0599 24010000 		.4byte	.LVL104
 8053 059d 32010000 		.4byte	.LVL107
 8054 05a1 0100     		.2byte	0x1
 8055 05a3 57       		.byte	0x57
 8056 05a4 00000000 		.4byte	0
 8057 05a8 00000000 		.4byte	0
 8058              	.LLST23:
 8059 05ac CC000000 		.4byte	.LVL90
 8060 05b0 CF000000 		.4byte	.LVL91-1
 8061 05b4 0100     		.2byte	0x1
 8062 05b6 50       		.byte	0x50
 8063 05b7 CF000000 		.4byte	.LVL91-1
 8064 05bb E4000000 		.4byte	.LVL93
 8065 05bf 0100     		.2byte	0x1
 8066 05c1 54       		.byte	0x54
ARM GAS  C:\Users\pearlstl\AppData\Local\Temp\cc98wxIE.s 			page 158


 8067 05c2 1A010000 		.4byte	.LVL102
 8068 05c6 34010000 		.4byte	.LVL108
 8069 05ca 0100     		.2byte	0x1
 8070 05cc 54       		.byte	0x54
 8071 05cd 00000000 		.4byte	0
 8072 05d1 00000000 		.4byte	0
 8073              	.LLST24:
 8074 05d5 D0000000 		.4byte	.LVL91
 8075 05d9 E0000000 		.4byte	.LVL92
 8076 05dd 0100     		.2byte	0x1
 8077 05df 50       		.byte	0x50
 8078 05e0 E0000000 		.4byte	.LVL92
 8079 05e4 E4000000 		.4byte	.LVL93
 8080 05e8 0100     		.2byte	0x1
 8081 05ea 56       		.byte	0x56
 8082 05eb 1A010000 		.4byte	.LVL102
 8083 05ef 24010000 		.4byte	.LVL104
 8084 05f3 0100     		.2byte	0x1
 8085 05f5 56       		.byte	0x56
 8086 05f6 24010000 		.4byte	.LVL104
 8087 05fa 2A010000 		.4byte	.LVL105
 8088 05fe 0100     		.2byte	0x1
 8089 0600 50       		.byte	0x50
 8090 0601 2A010000 		.4byte	.LVL105
 8091 0605 34010000 		.4byte	.LVL108
 8092 0609 0100     		.2byte	0x1
 8093 060b 56       		.byte	0x56
 8094 060c 00000000 		.4byte	0
 8095 0610 00000000 		.4byte	0
 8096              	.LLST25:
 8097 0614 E8000000 		.4byte	.LVL94
 8098 0618 F0000000 		.4byte	.LVL96
 8099 061c 0100     		.2byte	0x1
 8100 061e 55       		.byte	0x55
 8101 061f 00000000 		.4byte	0
 8102 0623 00000000 		.4byte	0
 8103              	.LLST26:
 8104 0627 E8000000 		.4byte	.LVL94
 8105 062b EB000000 		.4byte	.LVL95-1
 8106 062f 0100     		.2byte	0x1
 8107 0631 50       		.byte	0x50
 8108 0632 EB000000 		.4byte	.LVL95-1
 8109 0636 F0000000 		.4byte	.LVL96
 8110 063a 0100     		.2byte	0x1
 8111 063c 54       		.byte	0x54
 8112 063d 00000000 		.4byte	0
 8113 0641 00000000 		.4byte	0
 8114              	.LLST27:
 8115 0645 EC000000 		.4byte	.LVL95
 8116 0649 F0000000 		.4byte	.LVL96
 8117 064d 0100     		.2byte	0x1
 8118 064f 50       		.byte	0x50
 8119 0650 00000000 		.4byte	0
 8120 0654 00000000 		.4byte	0
 8121              	.LLST28:
 8122 0658 38010000 		.4byte	.LVL109
 8123 065c 46010000 		.4byte	.LVL112
ARM GAS  C:\Users\pearlstl\AppData\Local\Temp\cc98wxIE.s 			page 159


 8124 0660 0100     		.2byte	0x1
 8125 0662 50       		.byte	0x50
 8126 0663 46010000 		.4byte	.LVL112
 8127 0667 64010000 		.4byte	.LVL116
 8128 066b 0100     		.2byte	0x1
 8129 066d 55       		.byte	0x55
 8130 066e 00000000 		.4byte	0
 8131 0672 00000000 		.4byte	0
 8132              	.LLST29:
 8133 0676 3E010000 		.4byte	.LVL111
 8134 067a 46010000 		.4byte	.LVL112
 8135 067e 0300     		.2byte	0x3
 8136 0680 70       		.byte	0x70
 8137 0681 A002     		.sleb128 288
 8138 0683 46010000 		.4byte	.LVL112
 8139 0687 49010000 		.4byte	.LVL113-1
 8140 068b 0100     		.2byte	0x1
 8141 068d 52       		.byte	0x52
 8142 068e 00000000 		.4byte	0
 8143 0692 00000000 		.4byte	0
 8144              	.LLST30:
 8145 0696 3E010000 		.4byte	.LVL111
 8146 069a 4A010000 		.4byte	.LVL113
 8147 069e 0200     		.2byte	0x2
 8148 06a0 30       		.byte	0x30
 8149 06a1 9F       		.byte	0x9f
 8150 06a2 00000000 		.4byte	0
 8151 06a6 00000000 		.4byte	0
 8152              	.LLST31:
 8153 06aa 3E010000 		.4byte	.LVL111
 8154 06ae 4A010000 		.4byte	.LVL113
 8155 06b2 0100     		.2byte	0x1
 8156 06b4 54       		.byte	0x54
 8157 06b5 00000000 		.4byte	0
 8158 06b9 00000000 		.4byte	0
 8159              	.LLST32:
 8160 06bd 4A010000 		.4byte	.LVL113
 8161 06c1 55010000 		.4byte	.LVL114-1
 8162 06c5 0300     		.2byte	0x3
 8163 06c7 75       		.byte	0x75
 8164 06c8 A402     		.sleb128 292
 8165 06ca 00000000 		.4byte	0
 8166 06ce 00000000 		.4byte	0
 8167              	.LLST33:
 8168 06d2 4A010000 		.4byte	.LVL113
 8169 06d6 56010000 		.4byte	.LVL114
 8170 06da 0200     		.2byte	0x2
 8171 06dc 32       		.byte	0x32
 8172 06dd 9F       		.byte	0x9f
 8173 06de 00000000 		.4byte	0
 8174 06e2 00000000 		.4byte	0
 8175              	.LLST34:
 8176 06e6 4A010000 		.4byte	.LVL113
 8177 06ea 56010000 		.4byte	.LVL114
 8178 06ee 0100     		.2byte	0x1
 8179 06f0 54       		.byte	0x54
 8180 06f1 00000000 		.4byte	0
ARM GAS  C:\Users\pearlstl\AppData\Local\Temp\cc98wxIE.s 			page 160


 8181 06f5 00000000 		.4byte	0
 8182              	.LLST35:
 8183 06f9 56010000 		.4byte	.LVL114
 8184 06fd 61010000 		.4byte	.LVL115-1
 8185 0701 0300     		.2byte	0x3
 8186 0703 75       		.byte	0x75
 8187 0704 A802     		.sleb128 296
 8188 0706 00000000 		.4byte	0
 8189 070a 00000000 		.4byte	0
 8190              	.LLST36:
 8191 070e 56010000 		.4byte	.LVL114
 8192 0712 64010000 		.4byte	.LVL116
 8193 0716 0200     		.2byte	0x2
 8194 0718 31       		.byte	0x31
 8195 0719 9F       		.byte	0x9f
 8196 071a 00000000 		.4byte	0
 8197 071e 00000000 		.4byte	0
 8198              	.LLST37:
 8199 0722 56010000 		.4byte	.LVL114
 8200 0726 64010000 		.4byte	.LVL116
 8201 072a 0100     		.2byte	0x1
 8202 072c 54       		.byte	0x54
 8203 072d 00000000 		.4byte	0
 8204 0731 00000000 		.4byte	0
 8205              	.LLST38:
 8206 0735 00000000 		.4byte	.LVL121
 8207 0739 09000000 		.4byte	.LVL122-1
 8208 073d 0100     		.2byte	0x1
 8209 073f 50       		.byte	0x50
 8210 0740 09000000 		.4byte	.LVL122-1
 8211 0744 26000000 		.4byte	.LVL126
 8212 0748 0100     		.2byte	0x1
 8213 074a 55       		.byte	0x55
 8214 074b 26000000 		.4byte	.LVL126
 8215 074f 29000000 		.4byte	.LVL127-1
 8216 0753 0100     		.2byte	0x1
 8217 0755 50       		.byte	0x50
 8218 0756 29000000 		.4byte	.LVL127-1
 8219 075a 2A000000 		.4byte	.LVL127
 8220 075e 0400     		.2byte	0x4
 8221 0760 F3       		.byte	0xf3
 8222 0761 01       		.uleb128 0x1
 8223 0762 50       		.byte	0x50
 8224 0763 9F       		.byte	0x9f
 8225 0764 2A000000 		.4byte	.LVL127
 8226 0768 2C000000 		.4byte	.LFE59
 8227 076c 0100     		.2byte	0x1
 8228 076e 55       		.byte	0x55
 8229 076f 00000000 		.4byte	0
 8230 0773 00000000 		.4byte	0
 8231              	.LLST39:
 8232 0777 00000000 		.4byte	.LVL121
 8233 077b 09000000 		.4byte	.LVL122-1
 8234 077f 0100     		.2byte	0x1
 8235 0781 51       		.byte	0x51
 8236 0782 09000000 		.4byte	.LVL122-1
 8237 0786 16000000 		.4byte	.LVL123
ARM GAS  C:\Users\pearlstl\AppData\Local\Temp\cc98wxIE.s 			page 161


 8238 078a 0100     		.2byte	0x1
 8239 078c 54       		.byte	0x54
 8240 078d 16000000 		.4byte	.LVL123
 8241 0791 1E000000 		.4byte	.LVL124
 8242 0795 0E00     		.2byte	0xe
 8243 0797 72       		.byte	0x72
 8244 0798 00       		.sleb128 0
 8245 0799 12       		.byte	0x12
 8246 079a 74       		.byte	0x74
 8247 079b 00       		.sleb128 0
 8248 079c 16       		.byte	0x16
 8249 079d 14       		.byte	0x14
 8250 079e 2B       		.byte	0x2b
 8251 079f 28       		.byte	0x28
 8252 07a0 0100     		.2byte	0x1
 8253 07a2 16       		.byte	0x16
 8254 07a3 13       		.byte	0x13
 8255 07a4 9F       		.byte	0x9f
 8256 07a5 1E000000 		.4byte	.LVL124
 8257 07a9 29000000 		.4byte	.LVL127-1
 8258 07ad 1C00     		.2byte	0x1c
 8259 07af 71       		.byte	0x71
 8260 07b0 00       		.sleb128 0
 8261 07b1 F3       		.byte	0xf3
 8262 07b2 01       		.uleb128 0x1
 8263 07b3 51       		.byte	0x51
 8264 07b4 F3       		.byte	0xf3
 8265 07b5 01       		.uleb128 0x1
 8266 07b6 51       		.byte	0x51
 8267 07b7 71       		.byte	0x71
 8268 07b8 00       		.sleb128 0
 8269 07b9 2A       		.byte	0x2a
 8270 07ba 28       		.byte	0x28
 8271 07bb 0100     		.2byte	0x1
 8272 07bd 16       		.byte	0x16
 8273 07be 13       		.byte	0x13
 8274 07bf 12       		.byte	0x12
 8275 07c0 72       		.byte	0x72
 8276 07c1 00       		.sleb128 0
 8277 07c2 16       		.byte	0x16
 8278 07c3 14       		.byte	0x14
 8279 07c4 2B       		.byte	0x2b
 8280 07c5 28       		.byte	0x28
 8281 07c6 0100     		.2byte	0x1
 8282 07c8 16       		.byte	0x16
 8283 07c9 13       		.byte	0x13
 8284 07ca 9F       		.byte	0x9f
 8285 07cb 2A000000 		.4byte	.LVL127
 8286 07cf 2C000000 		.4byte	.LFE59
 8287 07d3 0100     		.2byte	0x1
 8288 07d5 54       		.byte	0x54
 8289 07d6 00000000 		.4byte	0
 8290 07da 00000000 		.4byte	0
 8291              	.LLST40:
 8292 07de 0A000000 		.4byte	.LVL122
 8293 07e2 20000000 		.4byte	.LVL125
 8294 07e6 0100     		.2byte	0x1
ARM GAS  C:\Users\pearlstl\AppData\Local\Temp\cc98wxIE.s 			page 162


 8295 07e8 50       		.byte	0x50
 8296 07e9 20000000 		.4byte	.LVL125
 8297 07ed 26000000 		.4byte	.LVL126
 8298 07f1 0100     		.2byte	0x1
 8299 07f3 53       		.byte	0x53
 8300 07f4 2A000000 		.4byte	.LVL127
 8301 07f8 2C000000 		.4byte	.LFE59
 8302 07fc 0100     		.2byte	0x1
 8303 07fe 50       		.byte	0x50
 8304 07ff 00000000 		.4byte	0
 8305 0803 00000000 		.4byte	0
 8306              	.LLST41:
 8307 0807 00000000 		.4byte	.LVL128
 8308 080b 0B000000 		.4byte	.LVL129-1
 8309 080f 0100     		.2byte	0x1
 8310 0811 50       		.byte	0x50
 8311 0812 0B000000 		.4byte	.LVL129-1
 8312 0816 32000000 		.4byte	.LVL134
 8313 081a 0100     		.2byte	0x1
 8314 081c 57       		.byte	0x57
 8315 081d 32000000 		.4byte	.LVL134
 8316 0821 35000000 		.4byte	.LVL135-1
 8317 0825 0100     		.2byte	0x1
 8318 0827 50       		.byte	0x50
 8319 0828 35000000 		.4byte	.LVL135-1
 8320 082c 36000000 		.4byte	.LVL135
 8321 0830 0400     		.2byte	0x4
 8322 0832 F3       		.byte	0xf3
 8323 0833 01       		.uleb128 0x1
 8324 0834 50       		.byte	0x50
 8325 0835 9F       		.byte	0x9f
 8326 0836 36000000 		.4byte	.LVL135
 8327 083a 38000000 		.4byte	.LFE60
 8328 083e 0100     		.2byte	0x1
 8329 0840 57       		.byte	0x57
 8330 0841 00000000 		.4byte	0
 8331 0845 00000000 		.4byte	0
 8332              	.LLST42:
 8333 0849 00000000 		.4byte	.LVL128
 8334 084d 0B000000 		.4byte	.LVL129-1
 8335 0851 0100     		.2byte	0x1
 8336 0853 51       		.byte	0x51
 8337 0854 0B000000 		.4byte	.LVL129-1
 8338 0858 0E000000 		.4byte	.LVL130
 8339 085c 0400     		.2byte	0x4
 8340 085e F3       		.byte	0xf3
 8341 085f 01       		.uleb128 0x1
 8342 0860 51       		.byte	0x51
 8343 0861 9F       		.byte	0x9f
 8344 0862 0E000000 		.4byte	.LVL130
 8345 0866 18000000 		.4byte	.LVL131
 8346 086a 1300     		.2byte	0x13
 8347 086c 76       		.byte	0x76
 8348 086d 00       		.sleb128 0
 8349 086e 12       		.byte	0x12
 8350 086f 08       		.byte	0x8
 8351 0870 FF       		.byte	0xff
ARM GAS  C:\Users\pearlstl\AppData\Local\Temp\cc98wxIE.s 			page 163


 8352 0871 1A       		.byte	0x1a
 8353 0872 40       		.byte	0x40
 8354 0873 16       		.byte	0x16
 8355 0874 14       		.byte	0x14
 8356 0875 08       		.byte	0x8
 8357 0876 FF       		.byte	0xff
 8358 0877 1A       		.byte	0x1a
 8359 0878 2D       		.byte	0x2d
 8360 0879 28       		.byte	0x28
 8361 087a 0100     		.2byte	0x1
 8362 087c 16       		.byte	0x16
 8363 087d 13       		.byte	0x13
 8364 087e 9F       		.byte	0x9f
 8365 087f 36000000 		.4byte	.LVL135
 8366 0883 38000000 		.4byte	.LFE60
 8367 0887 0400     		.2byte	0x4
 8368 0889 F3       		.byte	0xf3
 8369 088a 01       		.uleb128 0x1
 8370 088b 51       		.byte	0x51
 8371 088c 9F       		.byte	0x9f
 8372 088d 00000000 		.4byte	0
 8373 0891 00000000 		.4byte	0
 8374              	.LLST43:
 8375 0895 00000000 		.4byte	.LVL128
 8376 0899 0B000000 		.4byte	.LVL129-1
 8377 089d 0100     		.2byte	0x1
 8378 089f 52       		.byte	0x52
 8379 08a0 0B000000 		.4byte	.LVL129-1
 8380 08a4 0E000000 		.4byte	.LVL130
 8381 08a8 0400     		.2byte	0x4
 8382 08aa F3       		.byte	0xf3
 8383 08ab 01       		.uleb128 0x1
 8384 08ac 52       		.byte	0x52
 8385 08ad 9F       		.byte	0x9f
 8386 08ae 0E000000 		.4byte	.LVL130
 8387 08b2 24000000 		.4byte	.LVL132
 8388 08b6 1300     		.2byte	0x13
 8389 08b8 75       		.byte	0x75
 8390 08b9 00       		.sleb128 0
 8391 08ba 12       		.byte	0x12
 8392 08bb 08       		.byte	0x8
 8393 08bc FF       		.byte	0xff
 8394 08bd 1A       		.byte	0x1a
 8395 08be 40       		.byte	0x40
 8396 08bf 16       		.byte	0x16
 8397 08c0 14       		.byte	0x14
 8398 08c1 08       		.byte	0x8
 8399 08c2 FF       		.byte	0xff
 8400 08c3 1A       		.byte	0x1a
 8401 08c4 2D       		.byte	0x2d
 8402 08c5 28       		.byte	0x28
 8403 08c6 0100     		.2byte	0x1
 8404 08c8 16       		.byte	0x16
 8405 08c9 13       		.byte	0x13
 8406 08ca 9F       		.byte	0x9f
 8407 08cb 36000000 		.4byte	.LVL135
 8408 08cf 38000000 		.4byte	.LFE60
ARM GAS  C:\Users\pearlstl\AppData\Local\Temp\cc98wxIE.s 			page 164


 8409 08d3 0400     		.2byte	0x4
 8410 08d5 F3       		.byte	0xf3
 8411 08d6 01       		.uleb128 0x1
 8412 08d7 52       		.byte	0x52
 8413 08d8 9F       		.byte	0x9f
 8414 08d9 00000000 		.4byte	0
 8415 08dd 00000000 		.4byte	0
 8416              	.LLST44:
 8417 08e1 0C000000 		.4byte	.LVL129
 8418 08e5 2A000000 		.4byte	.LVL133
 8419 08e9 0100     		.2byte	0x1
 8420 08eb 50       		.byte	0x50
 8421 08ec 2A000000 		.4byte	.LVL133
 8422 08f0 32000000 		.4byte	.LVL134
 8423 08f4 0100     		.2byte	0x1
 8424 08f6 54       		.byte	0x54
 8425 08f7 36000000 		.4byte	.LVL135
 8426 08fb 38000000 		.4byte	.LFE60
 8427 08ff 0100     		.2byte	0x1
 8428 0901 50       		.byte	0x50
 8429 0902 00000000 		.4byte	0
 8430 0906 00000000 		.4byte	0
 8431              	.LLST45:
 8432 090a 00000000 		.4byte	.LVL136
 8433 090e 07000000 		.4byte	.LVL137-1
 8434 0912 0100     		.2byte	0x1
 8435 0914 50       		.byte	0x50
 8436 0915 07000000 		.4byte	.LVL137-1
 8437 0919 0E000000 		.4byte	.LFE61
 8438 091d 0400     		.2byte	0x4
 8439 091f F3       		.byte	0xf3
 8440 0920 01       		.uleb128 0x1
 8441 0921 50       		.byte	0x50
 8442 0922 9F       		.byte	0x9f
 8443 0923 00000000 		.4byte	0
 8444 0927 00000000 		.4byte	0
 8445              	.LLST46:
 8446 092b 00000000 		.4byte	.LVL136
 8447 092f 07000000 		.4byte	.LVL137-1
 8448 0933 0100     		.2byte	0x1
 8449 0935 51       		.byte	0x51
 8450 0936 07000000 		.4byte	.LVL137-1
 8451 093a 0E000000 		.4byte	.LFE61
 8452 093e 0100     		.2byte	0x1
 8453 0940 54       		.byte	0x54
 8454 0941 00000000 		.4byte	0
 8455 0945 00000000 		.4byte	0
 8456              	.LLST47:
 8457 0949 00000000 		.4byte	.LVL138
 8458 094d 0B000000 		.4byte	.LVL139-1
 8459 0951 0100     		.2byte	0x1
 8460 0953 50       		.byte	0x50
 8461 0954 0B000000 		.4byte	.LVL139-1
 8462 0958 28000000 		.4byte	.LVL143
 8463 095c 0100     		.2byte	0x1
 8464 095e 57       		.byte	0x57
 8465 095f 28000000 		.4byte	.LVL143
ARM GAS  C:\Users\pearlstl\AppData\Local\Temp\cc98wxIE.s 			page 165


 8466 0963 2B000000 		.4byte	.LVL144-1
 8467 0967 0100     		.2byte	0x1
 8468 0969 50       		.byte	0x50
 8469 096a 2B000000 		.4byte	.LVL144-1
 8470 096e 2C000000 		.4byte	.LVL144
 8471 0972 0400     		.2byte	0x4
 8472 0974 F3       		.byte	0xf3
 8473 0975 01       		.uleb128 0x1
 8474 0976 50       		.byte	0x50
 8475 0977 9F       		.byte	0x9f
 8476 0978 2C000000 		.4byte	.LVL144
 8477 097c 3A000000 		.4byte	.LFE62
 8478 0980 0100     		.2byte	0x1
 8479 0982 57       		.byte	0x57
 8480 0983 00000000 		.4byte	0
 8481 0987 00000000 		.4byte	0
 8482              	.LLST48:
 8483 098b 00000000 		.4byte	.LVL138
 8484 098f 0B000000 		.4byte	.LVL139-1
 8485 0993 0100     		.2byte	0x1
 8486 0995 51       		.byte	0x51
 8487 0996 0B000000 		.4byte	.LVL139-1
 8488 099a 1A000000 		.4byte	.LVL140
 8489 099e 0100     		.2byte	0x1
 8490 09a0 55       		.byte	0x55
 8491 09a1 1A000000 		.4byte	.LVL140
 8492 09a5 2C000000 		.4byte	.LVL144
 8493 09a9 0400     		.2byte	0x4
 8494 09ab F3       		.byte	0xf3
 8495 09ac 01       		.uleb128 0x1
 8496 09ad 51       		.byte	0x51
 8497 09ae 9F       		.byte	0x9f
 8498 09af 2C000000 		.4byte	.LVL144
 8499 09b3 38000000 		.4byte	.LVL147
 8500 09b7 0100     		.2byte	0x1
 8501 09b9 55       		.byte	0x55
 8502 09ba 38000000 		.4byte	.LVL147
 8503 09be 3A000000 		.4byte	.LFE62
 8504 09c2 0400     		.2byte	0x4
 8505 09c4 F3       		.byte	0xf3
 8506 09c5 01       		.uleb128 0x1
 8507 09c6 51       		.byte	0x51
 8508 09c7 9F       		.byte	0x9f
 8509 09c8 00000000 		.4byte	0
 8510 09cc 00000000 		.4byte	0
 8511              	.LLST49:
 8512 09d0 00000000 		.4byte	.LVL138
 8513 09d4 0B000000 		.4byte	.LVL139-1
 8514 09d8 0100     		.2byte	0x1
 8515 09da 52       		.byte	0x52
 8516 09db 0B000000 		.4byte	.LVL139-1
 8517 09df 28000000 		.4byte	.LVL143
 8518 09e3 0100     		.2byte	0x1
 8519 09e5 56       		.byte	0x56
 8520 09e6 28000000 		.4byte	.LVL143
 8521 09ea 2C000000 		.4byte	.LVL144
 8522 09ee 0400     		.2byte	0x4
ARM GAS  C:\Users\pearlstl\AppData\Local\Temp\cc98wxIE.s 			page 166


 8523 09f0 F3       		.byte	0xf3
 8524 09f1 01       		.uleb128 0x1
 8525 09f2 52       		.byte	0x52
 8526 09f3 9F       		.byte	0x9f
 8527 09f4 2C000000 		.4byte	.LVL144
 8528 09f8 3A000000 		.4byte	.LFE62
 8529 09fc 0100     		.2byte	0x1
 8530 09fe 56       		.byte	0x56
 8531 09ff 00000000 		.4byte	0
 8532 0a03 00000000 		.4byte	0
 8533              	.LLST50:
 8534 0a07 0C000000 		.4byte	.LVL139
 8535 0a0b 1A000000 		.4byte	.LVL140
 8536 0a0f 0100     		.2byte	0x1
 8537 0a11 50       		.byte	0x50
 8538 0a12 1A000000 		.4byte	.LVL140
 8539 0a16 1E000000 		.4byte	.LVL141
 8540 0a1a 0100     		.2byte	0x1
 8541 0a1c 54       		.byte	0x54
 8542 0a1d 20000000 		.4byte	.LVL142
 8543 0a21 28000000 		.4byte	.LVL143
 8544 0a25 0100     		.2byte	0x1
 8545 0a27 54       		.byte	0x54
 8546 0a28 2C000000 		.4byte	.LVL144
 8547 0a2c 30000000 		.4byte	.LVL145
 8548 0a30 0100     		.2byte	0x1
 8549 0a32 50       		.byte	0x50
 8550 0a33 30000000 		.4byte	.LVL145
 8551 0a37 3A000000 		.4byte	.LFE62
 8552 0a3b 0100     		.2byte	0x1
 8553 0a3d 54       		.byte	0x54
 8554 0a3e 00000000 		.4byte	0
 8555 0a42 00000000 		.4byte	0
 8556              	.LLST51:
 8557 0a46 00000000 		.4byte	.LVL148
 8558 0a4a 09000000 		.4byte	.LVL149-1
 8559 0a4e 0100     		.2byte	0x1
 8560 0a50 50       		.byte	0x50
 8561 0a51 09000000 		.4byte	.LVL149-1
 8562 0a55 1E000000 		.4byte	.LVL153
 8563 0a59 0100     		.2byte	0x1
 8564 0a5b 55       		.byte	0x55
 8565 0a5c 1E000000 		.4byte	.LVL153
 8566 0a60 21000000 		.4byte	.LVL154-1
 8567 0a64 0100     		.2byte	0x1
 8568 0a66 50       		.byte	0x50
 8569 0a67 21000000 		.4byte	.LVL154-1
 8570 0a6b 22000000 		.4byte	.LFE63
 8571 0a6f 0400     		.2byte	0x4
 8572 0a71 F3       		.byte	0xf3
 8573 0a72 01       		.uleb128 0x1
 8574 0a73 50       		.byte	0x50
 8575 0a74 9F       		.byte	0x9f
 8576 0a75 00000000 		.4byte	0
 8577 0a79 00000000 		.4byte	0
 8578              	.LLST52:
 8579 0a7d 00000000 		.4byte	.LVL148
ARM GAS  C:\Users\pearlstl\AppData\Local\Temp\cc98wxIE.s 			page 167


 8580 0a81 09000000 		.4byte	.LVL149-1
 8581 0a85 0100     		.2byte	0x1
 8582 0a87 51       		.byte	0x51
 8583 0a88 09000000 		.4byte	.LVL149-1
 8584 0a8c 16000000 		.4byte	.LVL152
 8585 0a90 0400     		.2byte	0x4
 8586 0a92 F3       		.byte	0xf3
 8587 0a93 01       		.uleb128 0x1
 8588 0a94 51       		.byte	0x51
 8589 0a95 9F       		.byte	0x9f
 8590 0a96 00000000 		.4byte	0
 8591 0a9a 00000000 		.4byte	0
 8592              	.LLST53:
 8593 0a9e 0C000000 		.4byte	.LVL150
 8594 0aa2 0E000000 		.4byte	.LVL151
 8595 0aa6 0100     		.2byte	0x1
 8596 0aa8 50       		.byte	0x50
 8597 0aa9 0E000000 		.4byte	.LVL151
 8598 0aad 1E000000 		.4byte	.LVL153
 8599 0ab1 0100     		.2byte	0x1
 8600 0ab3 53       		.byte	0x53
 8601 0ab4 00000000 		.4byte	0
 8602 0ab8 00000000 		.4byte	0
 8603              	.LLST54:
 8604 0abc 00000000 		.4byte	.LVL155
 8605 0ac0 05000000 		.4byte	.LVL156-1
 8606 0ac4 0100     		.2byte	0x1
 8607 0ac6 50       		.byte	0x50
 8608 0ac7 05000000 		.4byte	.LVL156-1
 8609 0acb 0A000000 		.4byte	.LFE64
 8610 0acf 0400     		.2byte	0x4
 8611 0ad1 F3       		.byte	0xf3
 8612 0ad2 01       		.uleb128 0x1
 8613 0ad3 50       		.byte	0x50
 8614 0ad4 9F       		.byte	0x9f
 8615 0ad5 00000000 		.4byte	0
 8616 0ad9 00000000 		.4byte	0
 8617              	.LLST55:
 8618 0add 06000000 		.4byte	.LVL156
 8619 0ae1 08000000 		.4byte	.LVL157
 8620 0ae5 0100     		.2byte	0x1
 8621 0ae7 50       		.byte	0x50
 8622 0ae8 00000000 		.4byte	0
 8623 0aec 00000000 		.4byte	0
 8624              	.LLST56:
 8625 0af0 00000000 		.4byte	.LVL158
 8626 0af4 07000000 		.4byte	.LVL159-1
 8627 0af8 0100     		.2byte	0x1
 8628 0afa 50       		.byte	0x50
 8629 0afb 07000000 		.4byte	.LVL159-1
 8630 0aff 26000000 		.4byte	.LVL165
 8631 0b03 0100     		.2byte	0x1
 8632 0b05 54       		.byte	0x54
 8633 0b06 26000000 		.4byte	.LVL165
 8634 0b0a 29000000 		.4byte	.LVL166-1
 8635 0b0e 0100     		.2byte	0x1
 8636 0b10 50       		.byte	0x50
ARM GAS  C:\Users\pearlstl\AppData\Local\Temp\cc98wxIE.s 			page 168


 8637 0b11 29000000 		.4byte	.LVL166-1
 8638 0b15 30000000 		.4byte	.LFE65
 8639 0b19 0400     		.2byte	0x4
 8640 0b1b F3       		.byte	0xf3
 8641 0b1c 01       		.uleb128 0x1
 8642 0b1d 50       		.byte	0x50
 8643 0b1e 9F       		.byte	0x9f
 8644 0b1f 00000000 		.4byte	0
 8645 0b23 00000000 		.4byte	0
 8646              	.LLST57:
 8647 0b27 0E000000 		.4byte	.LVL160
 8648 0b2b 12000000 		.4byte	.LVL161
 8649 0b2f 0100     		.2byte	0x1
 8650 0b31 50       		.byte	0x50
 8651 0b32 12000000 		.4byte	.LVL161
 8652 0b36 29000000 		.4byte	.LVL166-1
 8653 0b3a 0100     		.2byte	0x1
 8654 0b3c 51       		.byte	0x51
 8655 0b3d 00000000 		.4byte	0
 8656 0b41 00000000 		.4byte	0
 8657              	.LLST58:
 8658 0b45 18000000 		.4byte	.LVL162
 8659 0b49 1E000000 		.4byte	.LVL163
 8660 0b4d 0100     		.2byte	0x1
 8661 0b4f 53       		.byte	0x53
 8662 0b50 1E000000 		.4byte	.LVL163
 8663 0b54 22000000 		.4byte	.LVL164
 8664 0b58 0C00     		.2byte	0xc
 8665 0b5a 72       		.byte	0x72
 8666 0b5b 00       		.sleb128 0
 8667 0b5c 32       		.byte	0x32
 8668 0b5d 26       		.byte	0x26
 8669 0b5e 71       		.byte	0x71
 8670 0b5f EC00     		.sleb128 108
 8671 0b61 06       		.byte	0x6
 8672 0b62 4F       		.byte	0x4f
 8673 0b63 26       		.byte	0x26
 8674 0b64 1C       		.byte	0x1c
 8675 0b65 9F       		.byte	0x9f
 8676 0b66 00000000 		.4byte	0
 8677 0b6a 00000000 		.4byte	0
 8678              	.LLST59:
 8679 0b6e 00000000 		.4byte	.LVL167
 8680 0b72 07000000 		.4byte	.LVL168-1
 8681 0b76 0100     		.2byte	0x1
 8682 0b78 50       		.byte	0x50
 8683 0b79 07000000 		.4byte	.LVL168-1
 8684 0b7d 2E000000 		.4byte	.LVL171
 8685 0b81 0100     		.2byte	0x1
 8686 0b83 54       		.byte	0x54
 8687 0b84 2E000000 		.4byte	.LVL171
 8688 0b88 31000000 		.4byte	.LVL172-1
 8689 0b8c 0100     		.2byte	0x1
 8690 0b8e 50       		.byte	0x50
 8691 0b8f 31000000 		.4byte	.LVL172-1
 8692 0b93 32000000 		.4byte	.LFE66
 8693 0b97 0400     		.2byte	0x4
ARM GAS  C:\Users\pearlstl\AppData\Local\Temp\cc98wxIE.s 			page 169


 8694 0b99 F3       		.byte	0xf3
 8695 0b9a 01       		.uleb128 0x1
 8696 0b9b 50       		.byte	0x50
 8697 0b9c 9F       		.byte	0x9f
 8698 0b9d 00000000 		.4byte	0
 8699 0ba1 00000000 		.4byte	0
 8700              	.LLST60:
 8701 0ba5 08000000 		.4byte	.LVL168
 8702 0ba9 2A000000 		.4byte	.LVL170
 8703 0bad 0100     		.2byte	0x1
 8704 0baf 50       		.byte	0x50
 8705 0bb0 00000000 		.4byte	0
 8706 0bb4 00000000 		.4byte	0
 8707              	.LLST61:
 8708 0bb8 08000000 		.4byte	.LVL168
 8709 0bbc 2A000000 		.4byte	.LVL170
 8710 0bc0 1300     		.2byte	0x13
 8711 0bc2 70       		.byte	0x70
 8712 0bc3 E800     		.sleb128 104
 8713 0bc5 06       		.byte	0x6
 8714 0bc6 19       		.byte	0x19
 8715 0bc7 12       		.byte	0x12
 8716 0bc8 70       		.byte	0x70
 8717 0bc9 E400     		.sleb128 100
 8718 0bcb 06       		.byte	0x6
 8719 0bcc 16       		.byte	0x16
 8720 0bcd 14       		.byte	0x14
 8721 0bce 2B       		.byte	0x2b
 8722 0bcf 28       		.byte	0x28
 8723 0bd0 0100     		.2byte	0x1
 8724 0bd2 16       		.byte	0x16
 8725 0bd3 13       		.byte	0x13
 8726 0bd4 9F       		.byte	0x9f
 8727 0bd5 00000000 		.4byte	0
 8728 0bd9 00000000 		.4byte	0
 8729              	.LLST62:
 8730 0bdd 1E000000 		.4byte	.LVL169
 8731 0be1 31000000 		.4byte	.LVL172-1
 8732 0be5 0100     		.2byte	0x1
 8733 0be7 53       		.byte	0x53
 8734 0be8 00000000 		.4byte	0
 8735 0bec 00000000 		.4byte	0
 8736              	.LLST63:
 8737 0bf0 00000000 		.4byte	.LVL173
 8738 0bf4 07000000 		.4byte	.LVL174-1
 8739 0bf8 0100     		.2byte	0x1
 8740 0bfa 50       		.byte	0x50
 8741 0bfb 07000000 		.4byte	.LVL174-1
 8742 0bff 26000000 		.4byte	.LVL176
 8743 0c03 0100     		.2byte	0x1
 8744 0c05 55       		.byte	0x55
 8745 0c06 26000000 		.4byte	.LVL176
 8746 0c0a 29000000 		.4byte	.LVL177-1
 8747 0c0e 0100     		.2byte	0x1
 8748 0c10 50       		.byte	0x50
 8749 0c11 29000000 		.4byte	.LVL177-1
 8750 0c15 2A000000 		.4byte	.LVL177
ARM GAS  C:\Users\pearlstl\AppData\Local\Temp\cc98wxIE.s 			page 170


 8751 0c19 0400     		.2byte	0x4
 8752 0c1b F3       		.byte	0xf3
 8753 0c1c 01       		.uleb128 0x1
 8754 0c1d 50       		.byte	0x50
 8755 0c1e 9F       		.byte	0x9f
 8756 0c1f 2A000000 		.4byte	.LVL177
 8757 0c23 32000000 		.4byte	.LVL179
 8758 0c27 0100     		.2byte	0x1
 8759 0c29 55       		.byte	0x55
 8760 0c2a 32000000 		.4byte	.LVL179
 8761 0c2e 35000000 		.4byte	.LVL180-1
 8762 0c32 0100     		.2byte	0x1
 8763 0c34 50       		.byte	0x50
 8764 0c35 35000000 		.4byte	.LVL180-1
 8765 0c39 36000000 		.4byte	.LFE67
 8766 0c3d 0400     		.2byte	0x4
 8767 0c3f F3       		.byte	0xf3
 8768 0c40 01       		.uleb128 0x1
 8769 0c41 50       		.byte	0x50
 8770 0c42 9F       		.byte	0x9f
 8771 0c43 00000000 		.4byte	0
 8772 0c47 00000000 		.4byte	0
 8773              	.LLST64:
 8774 0c4b 08000000 		.4byte	.LVL174
 8775 0c4f 22000000 		.4byte	.LVL175
 8776 0c53 0100     		.2byte	0x1
 8777 0c55 50       		.byte	0x50
 8778 0c56 2A000000 		.4byte	.LVL177
 8779 0c5a 2E000000 		.4byte	.LVL178
 8780 0c5e 0100     		.2byte	0x1
 8781 0c60 50       		.byte	0x50
 8782 0c61 00000000 		.4byte	0
 8783 0c65 00000000 		.4byte	0
 8784              	.LLST65:
 8785 0c69 00000000 		.4byte	.LVL181
 8786 0c6d 11000000 		.4byte	.LVL182-1
 8787 0c71 0100     		.2byte	0x1
 8788 0c73 50       		.byte	0x50
 8789 0c74 11000000 		.4byte	.LVL182-1
 8790 0c78 1C000000 		.4byte	.LVL185
 8791 0c7c 0100     		.2byte	0x1
 8792 0c7e 57       		.byte	0x57
 8793 0c7f 1C000000 		.4byte	.LVL185
 8794 0c83 1F000000 		.4byte	.LVL186-1
 8795 0c87 0100     		.2byte	0x1
 8796 0c89 50       		.byte	0x50
 8797 0c8a 1F000000 		.4byte	.LVL186-1
 8798 0c8e 38000000 		.4byte	.LVL191
 8799 0c92 0100     		.2byte	0x1
 8800 0c94 57       		.byte	0x57
 8801 0c95 38000000 		.4byte	.LVL191
 8802 0c99 3F000000 		.4byte	.LVL192-1
 8803 0c9d 0100     		.2byte	0x1
 8804 0c9f 50       		.byte	0x50
 8805 0ca0 3F000000 		.4byte	.LVL192-1
 8806 0ca4 50000000 		.4byte	.LVL194
 8807 0ca8 0100     		.2byte	0x1
ARM GAS  C:\Users\pearlstl\AppData\Local\Temp\cc98wxIE.s 			page 171


 8808 0caa 57       		.byte	0x57
 8809 0cab 50000000 		.4byte	.LVL194
 8810 0caf 54000000 		.4byte	.LVL195
 8811 0cb3 0400     		.2byte	0x4
 8812 0cb5 F3       		.byte	0xf3
 8813 0cb6 01       		.uleb128 0x1
 8814 0cb7 50       		.byte	0x50
 8815 0cb8 9F       		.byte	0x9f
 8816 0cb9 54000000 		.4byte	.LVL195
 8817 0cbd 62000000 		.4byte	.LVL199
 8818 0cc1 0100     		.2byte	0x1
 8819 0cc3 57       		.byte	0x57
 8820 0cc4 62000000 		.4byte	.LVL199
 8821 0cc8 65000000 		.4byte	.LVL200-1
 8822 0ccc 0100     		.2byte	0x1
 8823 0cce 50       		.byte	0x50
 8824 0ccf 65000000 		.4byte	.LVL200-1
 8825 0cd3 96000000 		.4byte	.LVL206
 8826 0cd7 0100     		.2byte	0x1
 8827 0cd9 57       		.byte	0x57
 8828 0cda 96000000 		.4byte	.LVL206
 8829 0cde 99000000 		.4byte	.LVL207-1
 8830 0ce2 0100     		.2byte	0x1
 8831 0ce4 50       		.byte	0x50
 8832 0ce5 99000000 		.4byte	.LVL207-1
 8833 0ce9 BC000000 		.4byte	.LVL214
 8834 0ced 0100     		.2byte	0x1
 8835 0cef 57       		.byte	0x57
 8836 0cf0 BC000000 		.4byte	.LVL214
 8837 0cf4 BF000000 		.4byte	.LVL215-1
 8838 0cf8 0100     		.2byte	0x1
 8839 0cfa 50       		.byte	0x50
 8840 0cfb BF000000 		.4byte	.LVL215-1
 8841 0cff E0000000 		.4byte	.LVL217
 8842 0d03 0100     		.2byte	0x1
 8843 0d05 57       		.byte	0x57
 8844 0d06 E0000000 		.4byte	.LVL217
 8845 0d0a E3000000 		.4byte	.LVL218-1
 8846 0d0e 0100     		.2byte	0x1
 8847 0d10 50       		.byte	0x50
 8848 0d11 E3000000 		.4byte	.LVL218-1
 8849 0d15 02010000 		.4byte	.LVL219
 8850 0d19 0100     		.2byte	0x1
 8851 0d1b 57       		.byte	0x57
 8852 0d1c 02010000 		.4byte	.LVL219
 8853 0d20 05010000 		.4byte	.LVL220-1
 8854 0d24 0100     		.2byte	0x1
 8855 0d26 50       		.byte	0x50
 8856 0d27 05010000 		.4byte	.LVL220-1
 8857 0d2b 24010000 		.4byte	.LVL221
 8858 0d2f 0100     		.2byte	0x1
 8859 0d31 57       		.byte	0x57
 8860 0d32 24010000 		.4byte	.LVL221
 8861 0d36 27010000 		.4byte	.LVL222-1
 8862 0d3a 0100     		.2byte	0x1
 8863 0d3c 50       		.byte	0x50
 8864 0d3d 27010000 		.4byte	.LVL222-1
ARM GAS  C:\Users\pearlstl\AppData\Local\Temp\cc98wxIE.s 			page 172


 8865 0d41 2C010000 		.4byte	.LVL223
 8866 0d45 0100     		.2byte	0x1
 8867 0d47 57       		.byte	0x57
 8868 0d48 2C010000 		.4byte	.LVL223
 8869 0d4c 38010000 		.4byte	.LFE69
 8870 0d50 0400     		.2byte	0x4
 8871 0d52 F3       		.byte	0xf3
 8872 0d53 01       		.uleb128 0x1
 8873 0d54 50       		.byte	0x50
 8874 0d55 9F       		.byte	0x9f
 8875 0d56 00000000 		.4byte	0
 8876 0d5a 00000000 		.4byte	0
 8877              	.LLST66:
 8878 0d5e 00000000 		.4byte	.LVL181
 8879 0d62 11000000 		.4byte	.LVL182-1
 8880 0d66 0100     		.2byte	0x1
 8881 0d68 51       		.byte	0x51
 8882 0d69 11000000 		.4byte	.LVL182-1
 8883 0d6d 1C000000 		.4byte	.LVL185
 8884 0d71 0400     		.2byte	0x4
 8885 0d73 F3       		.byte	0xf3
 8886 0d74 01       		.uleb128 0x1
 8887 0d75 51       		.byte	0x51
 8888 0d76 9F       		.byte	0x9f
 8889 0d77 1C000000 		.4byte	.LVL185
 8890 0d7b 1F000000 		.4byte	.LVL186-1
 8891 0d7f 0100     		.2byte	0x1
 8892 0d81 51       		.byte	0x51
 8893 0d82 1F000000 		.4byte	.LVL186-1
 8894 0d86 38010000 		.4byte	.LFE69
 8895 0d8a 0400     		.2byte	0x4
 8896 0d8c F3       		.byte	0xf3
 8897 0d8d 01       		.uleb128 0x1
 8898 0d8e 51       		.byte	0x51
 8899 0d8f 9F       		.byte	0x9f
 8900 0d90 00000000 		.4byte	0
 8901 0d94 00000000 		.4byte	0
 8902              	.LLST67:
 8903 0d98 00000000 		.4byte	.LVL181
 8904 0d9c 11000000 		.4byte	.LVL182-1
 8905 0da0 0100     		.2byte	0x1
 8906 0da2 52       		.byte	0x52
 8907 0da3 11000000 		.4byte	.LVL182-1
 8908 0da7 1C000000 		.4byte	.LVL185
 8909 0dab 0100     		.2byte	0x1
 8910 0dad 56       		.byte	0x56
 8911 0dae 1C000000 		.4byte	.LVL185
 8912 0db2 1F000000 		.4byte	.LVL186-1
 8913 0db6 0100     		.2byte	0x1
 8914 0db8 52       		.byte	0x52
 8915 0db9 1F000000 		.4byte	.LVL186-1
 8916 0dbd 50000000 		.4byte	.LVL194
 8917 0dc1 0100     		.2byte	0x1
 8918 0dc3 56       		.byte	0x56
 8919 0dc4 50000000 		.4byte	.LVL194
 8920 0dc8 53000000 		.4byte	.LVL195-1
 8921 0dcc 0100     		.2byte	0x1
ARM GAS  C:\Users\pearlstl\AppData\Local\Temp\cc98wxIE.s 			page 173


 8922 0dce 50       		.byte	0x50
 8923 0dcf 53000000 		.4byte	.LVL195-1
 8924 0dd3 54000000 		.4byte	.LVL195
 8925 0dd7 0400     		.2byte	0x4
 8926 0dd9 F3       		.byte	0xf3
 8927 0dda 01       		.uleb128 0x1
 8928 0ddb 52       		.byte	0x52
 8929 0ddc 9F       		.byte	0x9f
 8930 0ddd 54000000 		.4byte	.LVL195
 8931 0de1 2C010000 		.4byte	.LVL223
 8932 0de5 0100     		.2byte	0x1
 8933 0de7 56       		.byte	0x56
 8934 0de8 2C010000 		.4byte	.LVL223
 8935 0dec 38010000 		.4byte	.LFE69
 8936 0df0 0400     		.2byte	0x4
 8937 0df2 F3       		.byte	0xf3
 8938 0df3 01       		.uleb128 0x1
 8939 0df4 52       		.byte	0x52
 8940 0df5 9F       		.byte	0x9f
 8941 0df6 00000000 		.4byte	0
 8942 0dfa 00000000 		.4byte	0
 8943              	.LLST68:
 8944 0dfe 00000000 		.4byte	.LVL181
 8945 0e02 16000000 		.4byte	.LVL183
 8946 0e06 0200     		.2byte	0x2
 8947 0e08 31       		.byte	0x31
 8948 0e09 9F       		.byte	0x9f
 8949 0e0a 16000000 		.4byte	.LVL183
 8950 0e0e 18000000 		.4byte	.LVL184
 8951 0e12 0100     		.2byte	0x1
 8952 0e14 50       		.byte	0x50
 8953 0e15 1C000000 		.4byte	.LVL185
 8954 0e19 38010000 		.4byte	.LFE69
 8955 0e1d 0200     		.2byte	0x2
 8956 0e1f 31       		.byte	0x31
 8957 0e20 9F       		.byte	0x9f
 8958 0e21 00000000 		.4byte	0
 8959 0e25 00000000 		.4byte	0
 8960              	.LLST69:
 8961 0e29 28000000 		.4byte	.LVL188
 8962 0e2d 36000000 		.4byte	.LVL190
 8963 0e31 0100     		.2byte	0x1
 8964 0e33 50       		.byte	0x50
 8965 0e34 5C000000 		.4byte	.LVL197
 8966 0e38 60000000 		.4byte	.LVL198
 8967 0e3c 0100     		.2byte	0x1
 8968 0e3e 50       		.byte	0x50
 8969 0e3f 90000000 		.4byte	.LVL204
 8970 0e43 94000000 		.4byte	.LVL205
 8971 0e47 0100     		.2byte	0x1
 8972 0e49 50       		.byte	0x50
 8973 0e4a 00000000 		.4byte	0
 8974 0e4e 00000000 		.4byte	0
 8975              	.LLST70:
 8976 0e52 2A000000 		.4byte	.LVL189
 8977 0e56 3F000000 		.4byte	.LVL192-1
 8978 0e5a 0100     		.2byte	0x1
ARM GAS  C:\Users\pearlstl\AppData\Local\Temp\cc98wxIE.s 			page 174


 8979 0e5c 51       		.byte	0x51
 8980 0e5d 5C000000 		.4byte	.LVL197
 8981 0e61 65000000 		.4byte	.LVL200-1
 8982 0e65 0100     		.2byte	0x1
 8983 0e67 51       		.byte	0x51
 8984 0e68 90000000 		.4byte	.LVL204
 8985 0e6c 99000000 		.4byte	.LVL207-1
 8986 0e70 0100     		.2byte	0x1
 8987 0e72 51       		.byte	0x51
 8988 0e73 BC000000 		.4byte	.LVL214
 8989 0e77 BF000000 		.4byte	.LVL215-1
 8990 0e7b 0100     		.2byte	0x1
 8991 0e7d 51       		.byte	0x51
 8992 0e7e E0000000 		.4byte	.LVL217
 8993 0e82 E3000000 		.4byte	.LVL218-1
 8994 0e86 0100     		.2byte	0x1
 8995 0e88 51       		.byte	0x51
 8996 0e89 02010000 		.4byte	.LVL219
 8997 0e8d 05010000 		.4byte	.LVL220-1
 8998 0e91 0100     		.2byte	0x1
 8999 0e93 51       		.byte	0x51
 9000 0e94 24010000 		.4byte	.LVL221
 9001 0e98 27010000 		.4byte	.LVL222-1
 9002 0e9c 0100     		.2byte	0x1
 9003 0e9e 51       		.byte	0x51
 9004 0e9f 00000000 		.4byte	0
 9005 0ea3 00000000 		.4byte	0
 9006              	.LLST71:
 9007 0ea7 02010000 		.4byte	.LVL219
 9008 0eab 05010000 		.4byte	.LVL220-1
 9009 0eaf 0100     		.2byte	0x1
 9010 0eb1 50       		.byte	0x50
 9011 0eb2 05010000 		.4byte	.LVL220-1
 9012 0eb6 24010000 		.4byte	.LVL221
 9013 0eba 0100     		.2byte	0x1
 9014 0ebc 57       		.byte	0x57
 9015 0ebd 00000000 		.4byte	0
 9016 0ec1 00000000 		.4byte	0
 9017              	.LLST72:
 9018 0ec5 06010000 		.4byte	.LVL220
 9019 0ec9 24010000 		.4byte	.LVL221
 9020 0ecd 0100     		.2byte	0x1
 9021 0ecf 50       		.byte	0x50
 9022 0ed0 00000000 		.4byte	0
 9023 0ed4 00000000 		.4byte	0
 9024              	.LLST73:
 9025 0ed8 62000000 		.4byte	.LVL199
 9026 0edc 65000000 		.4byte	.LVL200-1
 9027 0ee0 0100     		.2byte	0x1
 9028 0ee2 50       		.byte	0x50
 9029 0ee3 65000000 		.4byte	.LVL200-1
 9030 0ee7 86000000 		.4byte	.LVL202
 9031 0eeb 0100     		.2byte	0x1
 9032 0eed 57       		.byte	0x57
 9033 0eee 00000000 		.4byte	0
 9034 0ef2 00000000 		.4byte	0
 9035              	.LLST74:
ARM GAS  C:\Users\pearlstl\AppData\Local\Temp\cc98wxIE.s 			page 175


 9036 0ef6 66000000 		.4byte	.LVL200
 9037 0efa 86000000 		.4byte	.LVL202
 9038 0efe 0100     		.2byte	0x1
 9039 0f00 50       		.byte	0x50
 9040 0f01 00000000 		.4byte	0
 9041 0f05 00000000 		.4byte	0
 9042              	.LLST75:
 9043 0f09 66000000 		.4byte	.LVL200
 9044 0f0d 86000000 		.4byte	.LVL202
 9045 0f11 1300     		.2byte	0x13
 9046 0f13 70       		.byte	0x70
 9047 0f14 E800     		.sleb128 104
 9048 0f16 06       		.byte	0x6
 9049 0f17 19       		.byte	0x19
 9050 0f18 12       		.byte	0x12
 9051 0f19 70       		.byte	0x70
 9052 0f1a E400     		.sleb128 100
 9053 0f1c 06       		.byte	0x6
 9054 0f1d 16       		.byte	0x16
 9055 0f1e 14       		.byte	0x14
 9056 0f1f 2B       		.byte	0x2b
 9057 0f20 28       		.byte	0x28
 9058 0f21 0100     		.2byte	0x1
 9059 0f23 16       		.byte	0x16
 9060 0f24 13       		.byte	0x13
 9061 0f25 9F       		.byte	0x9f
 9062 0f26 00000000 		.4byte	0
 9063 0f2a 00000000 		.4byte	0
 9064              	.LLST76:
 9065 0f2e 7C000000 		.4byte	.LVL201
 9066 0f32 86000000 		.4byte	.LVL202
 9067 0f36 0100     		.2byte	0x1
 9068 0f38 53       		.byte	0x53
 9069 0f39 00000000 		.4byte	0
 9070 0f3d 00000000 		.4byte	0
 9071              	.LLST77:
 9072 0f41 E0000000 		.4byte	.LVL217
 9073 0f45 E3000000 		.4byte	.LVL218-1
 9074 0f49 0100     		.2byte	0x1
 9075 0f4b 50       		.byte	0x50
 9076 0f4c E3000000 		.4byte	.LVL218-1
 9077 0f50 02010000 		.4byte	.LVL219
 9078 0f54 0100     		.2byte	0x1
 9079 0f56 57       		.byte	0x57
 9080 0f57 00000000 		.4byte	0
 9081 0f5b 00000000 		.4byte	0
 9082              	.LLST78:
 9083 0f5f E4000000 		.4byte	.LVL218
 9084 0f63 02010000 		.4byte	.LVL219
 9085 0f67 0100     		.2byte	0x1
 9086 0f69 50       		.byte	0x50
 9087 0f6a 00000000 		.4byte	0
 9088 0f6e 00000000 		.4byte	0
 9089              	.LLST79:
 9090 0f72 96000000 		.4byte	.LVL206
 9091 0f76 99000000 		.4byte	.LVL207-1
 9092 0f7a 0100     		.2byte	0x1
ARM GAS  C:\Users\pearlstl\AppData\Local\Temp\cc98wxIE.s 			page 176


 9093 0f7c 50       		.byte	0x50
 9094 0f7d 99000000 		.4byte	.LVL207-1
 9095 0f81 BC000000 		.4byte	.LVL214
 9096 0f85 0100     		.2byte	0x1
 9097 0f87 57       		.byte	0x57
 9098 0f88 00000000 		.4byte	0
 9099 0f8c 00000000 		.4byte	0
 9100              	.LLST80:
 9101 0f90 A0000000 		.4byte	.LVL208
 9102 0f94 A4000000 		.4byte	.LVL209
 9103 0f98 0100     		.2byte	0x1
 9104 0f9a 50       		.byte	0x50
 9105 0f9b A4000000 		.4byte	.LVL209
 9106 0f9f B7000000 		.4byte	.LVL213-1
 9107 0fa3 0100     		.2byte	0x1
 9108 0fa5 51       		.byte	0x51
 9109 0fa6 00000000 		.4byte	0
 9110 0faa 00000000 		.4byte	0
 9111              	.LLST81:
 9112 0fae AA000000 		.4byte	.LVL210
 9113 0fb2 B0000000 		.4byte	.LVL211
 9114 0fb6 0100     		.2byte	0x1
 9115 0fb8 53       		.byte	0x53
 9116 0fb9 B0000000 		.4byte	.LVL211
 9117 0fbd B4000000 		.4byte	.LVL212
 9118 0fc1 0C00     		.2byte	0xc
 9119 0fc3 72       		.byte	0x72
 9120 0fc4 00       		.sleb128 0
 9121 0fc5 32       		.byte	0x32
 9122 0fc6 26       		.byte	0x26
 9123 0fc7 71       		.byte	0x71
 9124 0fc8 EC00     		.sleb128 108
 9125 0fca 06       		.byte	0x6
 9126 0fcb 4F       		.byte	0x4f
 9127 0fcc 26       		.byte	0x26
 9128 0fcd 1C       		.byte	0x1c
 9129 0fce 9F       		.byte	0x9f
 9130 0fcf 00000000 		.4byte	0
 9131 0fd3 00000000 		.4byte	0
 9132              	.LLST82:
 9133 0fd7 BC000000 		.4byte	.LVL214
 9134 0fdb BF000000 		.4byte	.LVL215-1
 9135 0fdf 0100     		.2byte	0x1
 9136 0fe1 50       		.byte	0x50
 9137 0fe2 BF000000 		.4byte	.LVL215-1
 9138 0fe6 D8000000 		.4byte	.LVL216
 9139 0fea 0100     		.2byte	0x1
 9140 0fec 57       		.byte	0x57
 9141 0fed 00000000 		.4byte	0
 9142 0ff1 00000000 		.4byte	0
 9143              	.LLST83:
 9144 0ff5 C0000000 		.4byte	.LVL215
 9145 0ff9 D8000000 		.4byte	.LVL216
 9146 0ffd 0100     		.2byte	0x1
 9147 0fff 50       		.byte	0x50
 9148 1000 00000000 		.4byte	0
 9149 1004 00000000 		.4byte	0
ARM GAS  C:\Users\pearlstl\AppData\Local\Temp\cc98wxIE.s 			page 177


 9150              	.LLST84:
 9151 1008 00000000 		.4byte	.LVL224
 9152 100c 07000000 		.4byte	.LVL225-1
 9153 1010 0100     		.2byte	0x1
 9154 1012 50       		.byte	0x50
 9155 1013 07000000 		.4byte	.LVL225-1
 9156 1017 20000000 		.4byte	.LVL227
 9157 101b 0100     		.2byte	0x1
 9158 101d 55       		.byte	0x55
 9159 101e 20000000 		.4byte	.LVL227
 9160 1022 23000000 		.4byte	.LVL228-1
 9161 1026 0100     		.2byte	0x1
 9162 1028 50       		.byte	0x50
 9163 1029 23000000 		.4byte	.LVL228-1
 9164 102d 24000000 		.4byte	.LVL228
 9165 1031 0400     		.2byte	0x4
 9166 1033 F3       		.byte	0xf3
 9167 1034 01       		.uleb128 0x1
 9168 1035 50       		.byte	0x50
 9169 1036 9F       		.byte	0x9f
 9170 1037 24000000 		.4byte	.LVL228
 9171 103b 2C000000 		.4byte	.LVL230
 9172 103f 0100     		.2byte	0x1
 9173 1041 55       		.byte	0x55
 9174 1042 2C000000 		.4byte	.LVL230
 9175 1046 2F000000 		.4byte	.LVL231-1
 9176 104a 0100     		.2byte	0x1
 9177 104c 50       		.byte	0x50
 9178 104d 2F000000 		.4byte	.LVL231-1
 9179 1051 30000000 		.4byte	.LVL231
 9180 1055 0400     		.2byte	0x4
 9181 1057 F3       		.byte	0xf3
 9182 1058 01       		.uleb128 0x1
 9183 1059 50       		.byte	0x50
 9184 105a 9F       		.byte	0x9f
 9185 105b 30000000 		.4byte	.LVL231
 9186 105f 3A000000 		.4byte	.LFE68
 9187 1063 0100     		.2byte	0x1
 9188 1065 55       		.byte	0x55
 9189 1066 00000000 		.4byte	0
 9190 106a 00000000 		.4byte	0
 9191              	.LLST85:
 9192 106e 08000000 		.4byte	.LVL225
 9193 1072 1C000000 		.4byte	.LVL226
 9194 1076 0100     		.2byte	0x1
 9195 1078 50       		.byte	0x50
 9196 1079 24000000 		.4byte	.LVL228
 9197 107d 28000000 		.4byte	.LVL229
 9198 1081 0100     		.2byte	0x1
 9199 1083 50       		.byte	0x50
 9200 1084 30000000 		.4byte	.LVL231
 9201 1088 3A000000 		.4byte	.LFE68
 9202 108c 0100     		.2byte	0x1
 9203 108e 50       		.byte	0x50
 9204 108f 00000000 		.4byte	0
 9205 1093 00000000 		.4byte	0
 9206              		.section	.debug_aranges,"",%progbits
ARM GAS  C:\Users\pearlstl\AppData\Local\Temp\cc98wxIE.s 			page 178


 9207 0000 7C000000 		.4byte	0x7c
 9208 0004 0200     		.2byte	0x2
 9209 0006 00000000 		.4byte	.Ldebug_info0
 9210 000a 04       		.byte	0x4
 9211 000b 00       		.byte	0
 9212 000c 0000     		.2byte	0
 9213 000e 0000     		.2byte	0
 9214 0010 00000000 		.4byte	.LFB70
 9215 0014 18030000 		.4byte	.LFE70-.LFB70
 9216 0018 00000000 		.4byte	.LFB58
 9217 001c 90010000 		.4byte	.LFE58-.LFB58
 9218 0020 00000000 		.4byte	.LFB59
 9219 0024 2C000000 		.4byte	.LFE59-.LFB59
 9220 0028 00000000 		.4byte	.LFB60
 9221 002c 38000000 		.4byte	.LFE60-.LFB60
 9222 0030 00000000 		.4byte	.LFB61
 9223 0034 0E000000 		.4byte	.LFE61-.LFB61
 9224 0038 00000000 		.4byte	.LFB62
 9225 003c 3A000000 		.4byte	.LFE62-.LFB62
 9226 0040 00000000 		.4byte	.LFB63
 9227 0044 22000000 		.4byte	.LFE63-.LFB63
 9228 0048 00000000 		.4byte	.LFB64
 9229 004c 0A000000 		.4byte	.LFE64-.LFB64
 9230 0050 00000000 		.4byte	.LFB65
 9231 0054 30000000 		.4byte	.LFE65-.LFB65
 9232 0058 00000000 		.4byte	.LFB66
 9233 005c 32000000 		.4byte	.LFE66-.LFB66
 9234 0060 00000000 		.4byte	.LFB67
 9235 0064 36000000 		.4byte	.LFE67-.LFB67
 9236 0068 00000000 		.4byte	.LFB69
 9237 006c 38010000 		.4byte	.LFE69-.LFB69
 9238 0070 00000000 		.4byte	.LFB68
 9239 0074 3A000000 		.4byte	.LFE68-.LFB68
 9240 0078 00000000 		.4byte	0
 9241 007c 00000000 		.4byte	0
 9242              		.section	.debug_ranges,"",%progbits
 9243              	.Ldebug_ranges0:
 9244 0000 88000000 		.4byte	.LBB28
 9245 0004 F6000000 		.4byte	.LBE28
 9246 0008 02010000 		.4byte	.LBB49
 9247 000c 34010000 		.4byte	.LBE49
 9248 0010 00000000 		.4byte	0
 9249 0014 00000000 		.4byte	0
 9250 0018 90000000 		.4byte	.LBB29
 9251 001c 92000000 		.4byte	.LBE29
 9252 0020 94000000 		.4byte	.LBB32
 9253 0024 B2000000 		.4byte	.LBE32
 9254 0028 00000000 		.4byte	0
 9255 002c 00000000 		.4byte	0
 9256 0030 B6000000 		.4byte	.LBB33
 9257 0034 B8000000 		.4byte	.LBE33
 9258 0038 BE000000 		.4byte	.LBB37
 9259 003c C4000000 		.4byte	.LBE37
 9260 0040 02010000 		.4byte	.LBB47
 9261 0044 1A010000 		.4byte	.LBE47
 9262 0048 00000000 		.4byte	0
 9263 004c 00000000 		.4byte	0
ARM GAS  C:\Users\pearlstl\AppData\Local\Temp\cc98wxIE.s 			page 179


 9264 0050 C4000000 		.4byte	.LBB38
 9265 0054 C6000000 		.4byte	.LBE38
 9266 0058 CC000000 		.4byte	.LBB42
 9267 005c E4000000 		.4byte	.LBE42
 9268 0060 1A010000 		.4byte	.LBB48
 9269 0064 34010000 		.4byte	.LBE48
 9270 0068 00000000 		.4byte	0
 9271 006c 00000000 		.4byte	0
 9272 0070 E4000000 		.4byte	.LBB43
 9273 0074 E6000000 		.4byte	.LBE43
 9274 0078 E8000000 		.4byte	.LBB46
 9275 007c F0000000 		.4byte	.LBE46
 9276 0080 00000000 		.4byte	0
 9277 0084 00000000 		.4byte	0
 9278 0088 20000000 		.4byte	.LBB69
 9279 008c 40000000 		.4byte	.LBE69
 9280 0090 5C000000 		.4byte	.LBB86
 9281 0094 8C000000 		.4byte	.LBE86
 9282 0098 90000000 		.4byte	.LBB87
 9283 009c B8000000 		.4byte	.LBE87
 9284 00a0 BC000000 		.4byte	.LBB88
 9285 00a4 28010000 		.4byte	.LBE88
 9286 00a8 2A010000 		.4byte	.LBB89
 9287 00ac 38010000 		.4byte	.LBE89
 9288 00b0 00000000 		.4byte	0
 9289 00b4 00000000 		.4byte	0
 9290 00b8 5E000000 		.4byte	.LBB70
 9291 00bc 60000000 		.4byte	.LBE70
 9292 00c0 02010000 		.4byte	.LBB85
 9293 00c4 24010000 		.4byte	.LBE85
 9294 00c8 00000000 		.4byte	0
 9295 00cc 00000000 		.4byte	0
 9296 00d0 86000000 		.4byte	.LBB75
 9297 00d4 8C000000 		.4byte	.LBE75
 9298 00d8 92000000 		.4byte	.LBB79
 9299 00dc 94000000 		.4byte	.LBE79
 9300 00e0 DC000000 		.4byte	.LBB84
 9301 00e4 02010000 		.4byte	.LBE84
 9302 00e8 00000000 		.4byte	0
 9303 00ec 00000000 		.4byte	0
 9304 00f0 00000000 		.4byte	.LFB70
 9305 00f4 18030000 		.4byte	.LFE70
 9306 00f8 00000000 		.4byte	.LFB58
 9307 00fc 90010000 		.4byte	.LFE58
 9308 0100 00000000 		.4byte	.LFB59
 9309 0104 2C000000 		.4byte	.LFE59
 9310 0108 00000000 		.4byte	.LFB60
 9311 010c 38000000 		.4byte	.LFE60
 9312 0110 00000000 		.4byte	.LFB61
 9313 0114 0E000000 		.4byte	.LFE61
 9314 0118 00000000 		.4byte	.LFB62
 9315 011c 3A000000 		.4byte	.LFE62
 9316 0120 00000000 		.4byte	.LFB63
 9317 0124 22000000 		.4byte	.LFE63
 9318 0128 00000000 		.4byte	.LFB64
 9319 012c 0A000000 		.4byte	.LFE64
 9320 0130 00000000 		.4byte	.LFB65
ARM GAS  C:\Users\pearlstl\AppData\Local\Temp\cc98wxIE.s 			page 180


 9321 0134 30000000 		.4byte	.LFE65
 9322 0138 00000000 		.4byte	.LFB66
 9323 013c 32000000 		.4byte	.LFE66
 9324 0140 00000000 		.4byte	.LFB67
 9325 0144 36000000 		.4byte	.LFE67
 9326 0148 00000000 		.4byte	.LFB69
 9327 014c 38010000 		.4byte	.LFE69
 9328 0150 00000000 		.4byte	.LFB68
 9329 0154 3A000000 		.4byte	.LFE68
 9330 0158 00000000 		.4byte	0
 9331 015c 00000000 		.4byte	0
 9332              		.section	.debug_line,"",%progbits
 9333              	.Ldebug_line0:
 9334 0000 41080000 		.section	.debug_str,"MS",%progbits,1
 9334      02004105 
 9334      00000201 
 9334      FB0E0D00 
 9334      01010101 
 9335              	.LASF15:
 9336 0000 696E7438 		.ascii	"int8_t\000"
 9336      5F7400
 9337              	.LASF78:
 9338 0007 6C765F6C 		.ascii	"lv_ll_node_t\000"
 9338      6C5F6E6F 
 9338      64655F74 
 9338      00
 9339              	.LASF23:
 9340 0014 6164765F 		.ascii	"adv_w\000"
 9340      7700
 9341              	.LASF233:
 9342 001a 68656164 		.ascii	"header_pr\000"
 9342      65725F70 
 9342      7200
 9343              	.LASF42:
 9344 0024 73697A65 		.ascii	"sizetype\000"
 9344      74797065 
 9344      00
 9345              	.LASF157:
 9346 002d 4C565F4B 		.ascii	"LV_KEY_RIGHT\000"
 9346      45595F52 
 9346      49474854 
 9346      00
 9347              	.LASF39:
 9348 003a 6C765F63 		.ascii	"lv_color32_t\000"
 9348      6F6C6F72 
 9348      33325F74 
 9348      00
 9349              	.LASF240:
 9350 0047 63656C6C 		.ascii	"cell\000"
 9350      00
 9351              	.LASF81:
 9352 004c 7461696C 		.ascii	"tail\000"
 9352      00
 9353              	.LASF121:
 9354 0051 4C565F53 		.ascii	"LV_SIGNAL_STYLE_CHG\000"
 9354      49474E41 
 9354      4C5F5354 
ARM GAS  C:\Users\pearlstl\AppData\Local\Temp\cc98wxIE.s 			page 181


 9354      594C455F 
 9354      43484700 
 9355              	.LASF281:
 9356 0065 6C765F73 		.ascii	"lv_spinbox_increment\000"
 9356      70696E62 
 9356      6F785F69 
 9356      6E637265 
 9356      6D656E74 
 9357              	.LASF41:
 9358 007a 6C765F6F 		.ascii	"lv_opa_t\000"
 9358      70615F74 
 9358      00
 9359              	.LASF19:
 9360 0083 696E7433 		.ascii	"int32_t\000"
 9360      325F7400 
 9361              	.LASF262:
 9362 008b 6375725F 		.ascii	"cur_shift_left\000"
 9362      73686966 
 9362      745F6C65 
 9362      667400
 9363              	.LASF66:
 9364 009a 696E7465 		.ascii	"intense\000"
 9364      6E736500 
 9365              	.LASF246:
 9366 00a2 6C6D6574 		.ascii	"lmeter\000"
 9366      657200
 9367              	.LASF129:
 9368 00a9 4C565F53 		.ascii	"LV_SIGNAL_LONG_PRESS\000"
 9368      49474E41 
 9368      4C5F4C4F 
 9368      4E475F50 
 9368      52455353 
 9369              	.LASF58:
 9370 00be 72616469 		.ascii	"radius\000"
 9370      757300
 9371              	.LASF146:
 9372 00c5 6C765F72 		.ascii	"lv_reailgn_t\000"
 9372      6561696C 
 9372      676E5F74 
 9372      00
 9373              	.LASF31:
 9374 00d2 6C696E65 		.ascii	"line_height\000"
 9374      5F686569 
 9374      67687400 
 9375              	.LASF93:
 9376 00de 636C6963 		.ascii	"click\000"
 9376      6B00
 9377              	.LASF139:
 9378 00e4 6C765F61 		.ascii	"lv_align_t\000"
 9378      6C69676E 
 9378      5F7400
 9379              	.LASF263:
 9380 00ef 64696769 		.ascii	"digits\000"
 9380      747300
 9381              	.LASF131:
 9382 00f6 4C565F53 		.ascii	"LV_SIGNAL_DRAG_BEGIN\000"
 9382      49474E41 
ARM GAS  C:\Users\pearlstl\AppData\Local\Temp\cc98wxIE.s 			page 182


 9382      4C5F4452 
 9382      41475F42 
 9382      4547494E 
 9383              	.LASF235:
 9384 010b 68696768 		.ascii	"highlighted_days\000"
 9384      6C696768 
 9384      7465645F 
 9384      64617973 
 9384      00
 9385              	.LASF302:
 9386 011c 6C765F6F 		.ascii	"lv_obj_set_signal_cb\000"
 9386      626A5F73 
 9386      65745F73 
 9386      69676E61 
 9386      6C5F6362 
 9387              	.LASF283:
 9388 0131 7369676E 		.ascii	"sign\000"
 9388      00
 9389              	.LASF115:
 9390 0136 6C765F65 		.ascii	"lv_event_t\000"
 9390      76656E74 
 9390      5F7400
 9391              	.LASF174:
 9392 0141 73746174 		.ascii	"state\000"
 9392      6500
 9393              	.LASF179:
 9394 0147 6C656674 		.ascii	"left_ip\000"
 9394      5F697000 
 9395              	.LASF162:
 9396 014f 4C565F4B 		.ascii	"LV_KEY_ENTER\000"
 9396      45595F45 
 9396      4E544552 
 9396      00
 9397              	.LASF187:
 9398 015c 4C565F43 		.ascii	"LV_CURSOR_LINE\000"
 9398      5552534F 
 9398      525F4C49 
 9398      4E4500
 9399              	.LASF214:
 9400 016b 6465635F 		.ascii	"dec_point_pos\000"
 9400      706F696E 
 9400      745F706F 
 9400      7300
 9401              	.LASF75:
 9402 0179 4C565F52 		.ascii	"LV_RES_INV\000"
 9402      45535F49 
 9402      4E5600
 9403              	.LASF125:
 9404 0184 4C565F53 		.ascii	"LV_SIGNAL_PRESSED\000"
 9404      49474E41 
 9404      4C5F5052 
 9404      45535345 
 9404      4400
 9405              	.LASF51:
 9406 0196 74797065 		.ascii	"type\000"
 9406      00
 9407              	.LASF202:
ARM GAS  C:\Users\pearlstl\AppData\Local\Temp\cc98wxIE.s 			page 183


 9408 019b 61636361 		.ascii	"accapted_chars\000"
 9408      70746564 
 9408      5F636861 
 9408      727300
 9409              	.LASF172:
 9410 01aa 7665725F 		.ascii	"ver_draw\000"
 9410      64726177 
 9410      00
 9411              	.LASF225:
 9412 01b3 6C696768 		.ascii	"light\000"
 9412      7400
 9413              	.LASF213:
 9414 01b9 64696769 		.ascii	"digit_count\000"
 9414      745F636F 
 9414      756E7400 
 9415              	.LASF243:
 9416 01c5 636F6E74 		.ascii	"cont\000"
 9416      00
 9417              	.LASF310:
 9418 01ca 474E5520 		.ascii	"GNU C11 5.4.1 20160609 (release) [ARM/embedded-5-br"
 9418      43313120 
 9418      352E342E 
 9418      31203230 
 9418      31363036 
 9419 01fd 616E6368 		.ascii	"anch revision 237715] -mcpu=cortex-m4 -mfloat-abi=s"
 9419      20726576 
 9419      6973696F 
 9419      6E203233 
 9419      37373135 
 9420 0230 6F667466 		.ascii	"oftfp -mfpu=fpv4-sp-d16 -mthumb -g -O3 -ffunction-s"
 9420      70202D6D 
 9420      6670753D 
 9420      66707634 
 9420      2D73702D 
 9421 0263 65637469 		.ascii	"ections -ffat-lto-objects\000"
 9421      6F6E7320 
 9421      2D666661 
 9421      742D6C74 
 9421      6F2D6F62 
 9422              	.LASF223:
 9423 027d 7072696D 		.ascii	"prim\000"
 9423      00
 9424              	.LASF249:
 9425 0282 63686172 		.ascii	"chart\000"
 9425      7400
 9426              	.LASF217:
 9427 0288 4C565F53 		.ascii	"LV_SPINBOX_STYLE_BG\000"
 9427      50494E42 
 9427      4F585F53 
 9427      54594C45 
 9427      5F424700 
 9428              	.LASF207:
 9429 029c 6F6E655F 		.ascii	"one_line\000"
 9429      6C696E65 
 9429      00
 9430              	.LASF314:
 9431 02a5 6C765F73 		.ascii	"lv_spinbox_updatevalue\000"
ARM GAS  C:\Users\pearlstl\AppData\Local\Temp\cc98wxIE.s 			page 184


 9431      70696E62 
 9431      6F785F75 
 9431      70646174 
 9431      6576616C 
 9432              	.LASF1:
 9433 02bc 5F5F7569 		.ascii	"__uint8_t\000"
 9433      6E74385F 
 9433      7400
 9434              	.LASF37:
 9435 02c6 616C7068 		.ascii	"alpha\000"
 9435      6100
 9436              	.LASF188:
 9437 02cc 4C565F43 		.ascii	"LV_CURSOR_BLOCK\000"
 9437      5552534F 
 9437      525F424C 
 9437      4F434B00 
 9438              	.LASF279:
 9439 02dc 6C765F73 		.ascii	"lv_spinbox_step_prev\000"
 9439      70696E62 
 9439      6F785F73 
 9439      7465705F 
 9439      70726576 
 9440              	.LASF97:
 9441 02f1 68696464 		.ascii	"hidden\000"
 9441      656E00
 9442              	.LASF9:
 9443 02f8 6C6F6E67 		.ascii	"long int\000"
 9443      20696E74 
 9443      00
 9444              	.LASF318:
 9445 0301 5F5F6275 		.ascii	"__builtin_memset\000"
 9445      696C7469 
 9445      6E5F6D65 
 9445      6D736574 
 9445      00
 9446              	.LASF297:
 9447 0312 6C765F74 		.ascii	"lv_ta_create\000"
 9447      615F6372 
 9447      65617465 
 9447      00
 9448              	.LASF278:
 9449 031f 6E65775F 		.ascii	"new_step\000"
 9449      73746570 
 9449      00
 9450              	.LASF200:
 9451 0328 706C6163 		.ascii	"placeholder\000"
 9451      65686F6C 
 9451      64657200 
 9452              	.LASF308:
 9453 0334 6C765F74 		.ascii	"lv_ta_add_char\000"
 9453      615F6164 
 9453      645F6368 
 9453      617200
 9454              	.LASF258:
 9455 0343 74696C65 		.ascii	"tileview\000"
 9455      76696577 
 9455      00
ARM GAS  C:\Users\pearlstl\AppData\Local\Temp\cc98wxIE.s 			page 185


 9456              	.LASF160:
 9457 034c 4C565F4B 		.ascii	"LV_KEY_DEL\000"
 9457      45595F44 
 9457      454C00
 9458              	.LASF272:
 9459 0357 636F7079 		.ascii	"copy\000"
 9459      00
 9460              	.LASF80:
 9461 035c 68656164 		.ascii	"head\000"
 9461      00
 9462              	.LASF251:
 9463 0361 62746E6D 		.ascii	"btnm\000"
 9463      00
 9464              	.LASF183:
 9465 0366 7363726F 		.ascii	"scroll_prop\000"
 9465      6C6C5F70 
 9465      726F7000 
 9466              	.LASF158:
 9467 0372 4C565F4B 		.ascii	"LV_KEY_LEFT\000"
 9467      45595F4C 
 9467      45465400 
 9468              	.LASF2:
 9469 037e 7369676E 		.ascii	"signed char\000"
 9469      65642063 
 9469      68617200 
 9470              	.LASF16:
 9471 038a 75696E74 		.ascii	"uint8_t\000"
 9471      385F7400 
 9472              	.LASF238:
 9473 0392 746F6461 		.ascii	"today_box\000"
 9473      795F626F 
 9473      7800
 9474              	.LASF222:
 9475 039c 74676C5F 		.ascii	"tgl_pr\000"
 9475      707200
 9476              	.LASF152:
 9477 03a3 6669745F 		.ascii	"fit_top\000"
 9477      746F7000 
 9478              	.LASF261:
 9479 03ab 6275665F 		.ascii	"buf_p\000"
 9479      7000
 9480              	.LASF30:
 9481 03b1 6765745F 		.ascii	"get_glyph_bitmap\000"
 9481      676C7970 
 9481      685F6269 
 9481      746D6170 
 9481      00
 9482              	.LASF180:
 9483 03c2 7363726C 		.ascii	"scrl\000"
 9483      00
 9484              	.LASF35:
 9485 03c7 626C7565 		.ascii	"blue\000"
 9485      00
 9486              	.LASF212:
 9487 03cc 73746570 		.ascii	"step\000"
 9487      00
 9488              	.LASF130:
ARM GAS  C:\Users\pearlstl\AppData\Local\Temp\cc98wxIE.s 			page 186


 9489 03d1 4C565F53 		.ascii	"LV_SIGNAL_LONG_PRESS_REP\000"
 9489      49474E41 
 9489      4C5F4C4F 
 9489      4E475F50 
 9489      52455353 
 9490              	.LASF315:
 9491 03ea 6C765F73 		.ascii	"lv_spinbox_set_padding_left\000"
 9491      70696E62 
 9491      6F785F73 
 9491      65745F70 
 9491      61646469 
 9492              	.LASF220:
 9493 0406 6C765F73 		.ascii	"lv_spinbox_style_t\000"
 9493      70696E62 
 9493      6F785F73 
 9493      74796C65 
 9493      5F7400
 9494              	.LASF3:
 9495 0419 756E7369 		.ascii	"unsigned char\000"
 9495      676E6564 
 9495      20636861 
 9495      7200
 9496              	.LASF123:
 9497 0427 4C565F53 		.ascii	"LV_SIGNAL_REFR_EXT_DRAW_PAD\000"
 9497      49474E41 
 9497      4C5F5245 
 9497      46525F45 
 9497      58545F44 
 9498              	.LASF100:
 9499 0443 64726167 		.ascii	"drag_dir\000"
 9499      5F646972 
 9499      00
 9500              	.LASF231:
 9501 044c 6B6E6F62 		.ascii	"knob_on\000"
 9501      5F6F6E00 
 9502              	.LASF26:
 9503 0454 6F66735F 		.ascii	"ofs_x\000"
 9503      7800
 9504              	.LASF27:
 9505 045a 6F66735F 		.ascii	"ofs_y\000"
 9505      7900
 9506              	.LASF161:
 9507 0460 4C565F4B 		.ascii	"LV_KEY_BACKSPACE\000"
 9507      45595F42 
 9507      41434B53 
 9507      50414345 
 9507      00
 9508              	.LASF232:
 9509 0471 68656164 		.ascii	"header\000"
 9509      657200
 9510              	.LASF266:
 9511 0478 6375725F 		.ascii	"cur_pos\000"
 9511      706F7300 
 9512              	.LASF298:
 9513 0480 6C765F6F 		.ascii	"lv_obj_allocate_ext_attr\000"
 9513      626A5F61 
 9513      6C6C6F63 
ARM GAS  C:\Users\pearlstl\AppData\Local\Temp\cc98wxIE.s 			page 187


 9513      6174655F 
 9513      6578745F 
 9514              	.LASF33:
 9515 0499 5F426F6F 		.ascii	"_Bool\000"
 9515      6C00
 9516              	.LASF204:
 9517 049f 7077645F 		.ascii	"pwd_show_time\000"
 9517      73686F77 
 9517      5F74696D 
 9517      6500
 9518              	.LASF138:
 9519 04ad 6C765F73 		.ascii	"lv_signal_cb_t\000"
 9519      69676E61 
 9519      6C5F6362 
 9519      5F7400
 9520              	.LASF259:
 9521 04bc 7461626C 		.ascii	"table\000"
 9521      6500
 9522              	.LASF209:
 9523 04c2 76616C75 		.ascii	"value\000"
 9523      6500
 9524              	.LASF185:
 9525 04c8 6C765F70 		.ascii	"lv_page_ext_t\000"
 9525      6167655F 
 9525      6578745F 
 9525      7400
 9526              	.LASF43:
 9527 04d6 63686172 		.ascii	"char\000"
 9527      00
 9528              	.LASF317:
 9529 04db 6D656D73 		.ascii	"memset\000"
 9529      657400
 9530              	.LASF70:
 9531 04e2 626F6479 		.ascii	"body\000"
 9531      00
 9532              	.LASF182:
 9533 04e7 616E696D 		.ascii	"anim_time\000"
 9533      5F74696D 
 9533      6500
 9534              	.LASF142:
 9535 04f1 796F6673 		.ascii	"yofs\000"
 9535      00
 9536              	.LASF299:
 9537 04f6 6C765F74 		.ascii	"lv_ta_set_cursor_type\000"
 9537      615F7365 
 9537      745F6375 
 9537      72736F72 
 9537      5F747970 
 9538              	.LASF6:
 9539 050c 5F5F7569 		.ascii	"__uint16_t\000"
 9539      6E743136 
 9539      5F7400
 9540              	.LASF237:
 9541 0517 7765656B 		.ascii	"week_box\000"
 9541      5F626F78 
 9541      00
 9542              	.LASF288:
ARM GAS  C:\Users\pearlstl\AppData\Local\Temp\cc98wxIE.s 			page 188


 9543 0520 6C765F6F 		.ascii	"lv_obj_get_ext_attr\000"
 9543      626A5F67 
 9543      65745F65 
 9543      78745F61 
 9543      74747200 
 9544              	.LASF45:
 9545 0534 6C765F61 		.ascii	"lv_anim_value_t\000"
 9545      6E696D5F 
 9545      76616C75 
 9545      655F7400 
 9546              	.LASF206:
 9547 0544 7077645F 		.ascii	"pwd_mode\000"
 9547      6D6F6465 
 9547      00
 9548              	.LASF186:
 9549 054d 4C565F43 		.ascii	"LV_CURSOR_NONE\000"
 9549      5552534F 
 9549      525F4E4F 
 9549      4E4500
 9550              	.LASF270:
 9551 055c 73657061 		.ascii	"separator_position\000"
 9551      7261746F 
 9551      725F706F 
 9551      73697469 
 9551      6F6E00
 9552              	.LASF193:
 9553 056f 76616C69 		.ascii	"valid_x\000"
 9553      645F7800 
 9554              	.LASF90:
 9555 0577 64657369 		.ascii	"design_cb\000"
 9555      676E5F63 
 9555      6200
 9556              	.LASF292:
 9557 0581 6C765F74 		.ascii	"lv_ta_set_cursor_pos\000"
 9557      615F7365 
 9557      745F6375 
 9557      72736F72 
 9557      5F706F73 
 9558              	.LASF134:
 9559 0596 4C565F53 		.ascii	"LV_SIGNAL_DEFOCUS\000"
 9559      49474E41 
 9559      4C5F4445 
 9559      464F4355 
 9559      5300
 9560              	.LASF255:
 9561 05a8 64646C69 		.ascii	"ddlist\000"
 9561      737400
 9562              	.LASF276:
 9563 05af 6C765F73 		.ascii	"lv_spinbox_get_value\000"
 9563      70696E62 
 9563      6F785F67 
 9563      65745F76 
 9563      616C7565 
 9564              	.LASF71:
 9565 05c4 74657874 		.ascii	"text\000"
 9565      00
 9566              	.LASF197:
ARM GAS  C:\Users\pearlstl\AppData\Local\Temp\cc98wxIE.s 			page 189


 9567 05c9 636C6963 		.ascii	"click_pos\000"
 9567      6B5F706F 
 9567      7300
 9568              	.LASF72:
 9569 05d3 696D6167 		.ascii	"image\000"
 9569      6500
 9570              	.LASF68:
 9571 05d9 726F756E 		.ascii	"rounded\000"
 9571      64656400 
 9572              	.LASF95:
 9573 05e1 64726167 		.ascii	"drag_throw\000"
 9573      5F746872 
 9573      6F7700
 9574              	.LASF306:
 9575 05ec 6C765F69 		.ascii	"lv_indev_get_act\000"
 9575      6E646576 
 9575      5F676574 
 9575      5F616374 
 9575      00
 9576              	.LASF236:
 9577 05fd 696E6163 		.ascii	"inactive_days\000"
 9577      74697665 
 9577      5F646179 
 9577      7300
 9578              	.LASF83:
 9579 060b 6C765F62 		.ascii	"lv_bidi_dir_t\000"
 9579      6964695F 
 9579      6469725F 
 9579      7400
 9580              	.LASF105:
 9581 0619 6578745F 		.ascii	"ext_draw_pad\000"
 9581      64726177 
 9581      5F706164 
 9581      00
 9582              	.LASF295:
 9583 0626 6C765F74 		.ascii	"lv_ta_set_style\000"
 9583      615F7365 
 9583      745F7374 
 9583      796C6500 
 9584              	.LASF44:
 9585 0636 6C765F61 		.ascii	"lv_area_t\000"
 9585      7265615F 
 9585      7400
 9586              	.LASF301:
 9587 0640 6C765F74 		.ascii	"lv_ta_set_cursor_click_pos\000"
 9587      615F7365 
 9587      745F6375 
 9587      72736F72 
 9587      5F636C69 
 9588              	.LASF201:
 9589 065b 7077645F 		.ascii	"pwd_tmp\000"
 9589      746D7000 
 9590              	.LASF268:
 9591 0663 6C765F73 		.ascii	"lv_spinbox_set_range\000"
 9591      70696E62 
 9591      6F785F73 
 9591      65745F72 
ARM GAS  C:\Users\pearlstl\AppData\Local\Temp\cc98wxIE.s 			page 190


 9591      616E6765 
 9592              	.LASF171:
 9593 0678 686F725F 		.ascii	"hor_draw\000"
 9593      64726177 
 9593      00
 9594              	.LASF313:
 9595 0681 6C765F73 		.ascii	"lv_spinbox_set_style\000"
 9595      70696E62 
 9595      6F785F73 
 9595      65745F73 
 9595      74796C65 
 9596              	.LASF53:
 9597 0696 6C656674 		.ascii	"left\000"
 9597      00
 9598              	.LASF111:
 9599 069b 4C565F49 		.ascii	"LV_INDEV_TYPE_ENCODER\000"
 9599      4E444556 
 9599      5F545950 
 9599      455F454E 
 9599      434F4445 
 9600              	.LASF106:
 9601 06b1 7265616C 		.ascii	"realign\000"
 9601      69676E00 
 9602              	.LASF124:
 9603 06b9 4C565F53 		.ascii	"LV_SIGNAL_GET_TYPE\000"
 9603      49474E41 
 9603      4C5F4745 
 9603      545F5459 
 9603      504500
 9604              	.LASF195:
 9605 06cc 61726561 		.ascii	"area\000"
 9605      00
 9606              	.LASF184:
 9607 06d1 7363726F 		.ascii	"scroll_prop_ip\000"
 9607      6C6C5F70 
 9607      726F705F 
 9607      697000
 9608              	.LASF175:
 9609 06e0 656E6162 		.ascii	"enabled\000"
 9609      6C656400 
 9610              	.LASF74:
 9611 06e8 6C765F73 		.ascii	"lv_style_t\000"
 9611      74796C65 
 9611      5F7400
 9612              	.LASF55:
 9613 06f3 696E6E65 		.ascii	"inner\000"
 9613      7200
 9614              	.LASF11:
 9615 06f9 6C6F6E67 		.ascii	"long unsigned int\000"
 9615      20756E73 
 9615      69676E65 
 9615      6420696E 
 9615      7400
 9616              	.LASF165:
 9617 070b 4C565F4B 		.ascii	"LV_KEY_HOME\000"
 9617      45595F48 
 9617      4F4D4500 
ARM GAS  C:\Users\pearlstl\AppData\Local\Temp\cc98wxIE.s 			page 191


 9618              	.LASF267:
 9619 0717 6C765F73 		.ascii	"lv_spinbox_set_step\000"
 9619      70696E62 
 9619      6F785F73 
 9619      65745F73 
 9619      74657000 
 9620              	.LASF224:
 9621 072b 68696E74 		.ascii	"hint\000"
 9621      00
 9622              	.LASF284:
 9623 0730 70617261 		.ascii	"param\000"
 9623      6D00
 9624              	.LASF73:
 9625 0736 6C696E65 		.ascii	"line\000"
 9625      00
 9626              	.LASF203:
 9627 073b 6D61785F 		.ascii	"max_length\000"
 9627      6C656E67 
 9627      746800
 9628              	.LASF133:
 9629 0746 4C565F53 		.ascii	"LV_SIGNAL_FOCUS\000"
 9629      49474E41 
 9629      4C5F464F 
 9629      43555300 
 9630              	.LASF245:
 9631 0756 736C6964 		.ascii	"slider\000"
 9631      657200
 9632              	.LASF294:
 9633 075d 6C765F6F 		.ascii	"lv_obj_refresh_style\000"
 9633      626A5F72 
 9633      65667265 
 9633      73685F73 
 9633      74796C65 
 9634              	.LASF316:
 9635 0772 6C765F73 		.ascii	"lv_spinbox_signal\000"
 9635      70696E62 
 9635      6F785F73 
 9635      69676E61 
 9635      6C00
 9636              	.LASF112:
 9637 0784 6C765F69 		.ascii	"lv_indev_type_t\000"
 9637      6E646576 
 9637      5F747970 
 9637      655F7400 
 9638              	.LASF136:
 9639 0794 4C565F53 		.ascii	"LV_SIGNAL_GET_EDITABLE\000"
 9639      49474E41 
 9639      4C5F4745 
 9639      545F4544 
 9639      49544142 
 9640              	.LASF303:
 9641 07ab 6C765F6F 		.ascii	"lv_obj_set_design_cb\000"
 9641      626A5F73 
 9641      65745F64 
 9641      65736967 
 9641      6E5F6362 
 9642              	.LASF239:
ARM GAS  C:\Users\pearlstl\AppData\Local\Temp\cc98wxIE.s 			page 192


 9643 07c0 6F6E656C 		.ascii	"oneline\000"
 9643      696E6500 
 9644              	.LASF110:
 9645 07c8 4C565F49 		.ascii	"LV_INDEV_TYPE_BUTTON\000"
 9645      4E444556 
 9645      5F545950 
 9645      455F4255 
 9645      54544F4E 
 9646              	.LASF211:
 9647 07dd 72616E67 		.ascii	"range_min\000"
 9647      655F6D69 
 9647      6E00
 9648              	.LASF10:
 9649 07e7 5F5F7569 		.ascii	"__uint32_t\000"
 9649      6E743332 
 9649      5F7400
 9650              	.LASF88:
 9651 07f2 6576656E 		.ascii	"event_cb\000"
 9651      745F6362 
 9651      00
 9652              	.LASF54:
 9653 07fb 72696768 		.ascii	"right\000"
 9653      7400
 9654              	.LASF92:
 9655 0801 7374796C 		.ascii	"style_p\000"
 9655      655F7000 
 9656              	.LASF12:
 9657 0809 6C6F6E67 		.ascii	"long long int\000"
 9657      206C6F6E 
 9657      6720696E 
 9657      7400
 9658              	.LASF49:
 9659 0817 77696474 		.ascii	"width\000"
 9659      6800
 9660              	.LASF135:
 9661 081d 4C565F53 		.ascii	"LV_SIGNAL_CONTROL\000"
 9661      49474E41 
 9661      4C5F434F 
 9661      4E54524F 
 9661      4C00
 9662              	.LASF52:
 9663 082f 626F7474 		.ascii	"bottom\000"
 9663      6F6D00
 9664              	.LASF311:
 9665 0836 2E2E5C2E 		.ascii	"..\\..\\..\\lvgl\\version_6.1.2\\lvgl\\src\\lv_objx"
 9665      2E5C2E2E 
 9665      5C6C7667 
 9665      6C5C7665 
 9665      7273696F 
 9666 0862 5C6C765F 		.ascii	"\\lv_spinbox.c\000"
 9666      7370696E 
 9666      626F782E 
 9666      6300
 9667              	.LASF86:
 9668 0870 6368696C 		.ascii	"child_ll\000"
 9668      645F6C6C 
 9668      00
ARM GAS  C:\Users\pearlstl\AppData\Local\Temp\cc98wxIE.s 			page 193


 9669              	.LASF228:
 9670 0879 696E6469 		.ascii	"indic\000"
 9670      6300
 9671              	.LASF103:
 9672 087f 70726F74 		.ascii	"protect\000"
 9672      65637400 
 9673              	.LASF149:
 9674 0887 6C61796F 		.ascii	"layout\000"
 9674      757400
 9675              	.LASF257:
 9676 088e 74616276 		.ascii	"tabview\000"
 9676      69657700 
 9677              	.LASF99:
 9678 0896 70617265 		.ascii	"parent_event\000"
 9678      6E745F65 
 9678      76656E74 
 9678      00
 9679              	.LASF117:
 9680 08a3 4C565F53 		.ascii	"LV_SIGNAL_CLEANUP\000"
 9680      49474E41 
 9680      4C5F434C 
 9680      45414E55 
 9680      5000
 9681              	.LASF190:
 9682 08b5 4C565F43 		.ascii	"LV_CURSOR_UNDERLINE\000"
 9682      5552534F 
 9682      525F554E 
 9682      4445524C 
 9682      494E4500 
 9683              	.LASF143:
 9684 08c9 616C6967 		.ascii	"align\000"
 9684      6E00
 9685              	.LASF69:
 9686 08cf 676C6173 		.ascii	"glass\000"
 9686      7300
 9687              	.LASF191:
 9688 08d5 4C565F43 		.ascii	"LV_CURSOR_HIDDEN\000"
 9688      5552534F 
 9688      525F4849 
 9688      4444454E 
 9688      00
 9689              	.LASF154:
 9690 08e6 6C765F63 		.ascii	"lv_cont_ext_t\000"
 9690      6F6E745F 
 9690      6578745F 
 9690      7400
 9691              	.LASF14:
 9692 08f4 756E7369 		.ascii	"unsigned int\000"
 9692      676E6564 
 9692      20696E74 
 9692      00
 9693              	.LASF118:
 9694 0901 4C565F53 		.ascii	"LV_SIGNAL_CHILD_CHG\000"
 9694      49474E41 
 9694      4C5F4348 
 9694      494C445F 
 9694      43484700 
ARM GAS  C:\Users\pearlstl\AppData\Local\Temp\cc98wxIE.s 			page 194


 9695              	.LASF194:
 9696 0915 626C696E 		.ascii	"blink_time\000"
 9696      6B5F7469 
 9696      6D6500
 9697              	.LASF221:
 9698 0920 74676C5F 		.ascii	"tgl_rel\000"
 9698      72656C00 
 9699              	.LASF265:
 9700 0928 696E7444 		.ascii	"intDigits\000"
 9700      69676974 
 9700      7300
 9701              	.LASF144:
 9702 0932 6175746F 		.ascii	"auto_realign\000"
 9702      5F726561 
 9702      6C69676E 
 9702      00
 9703              	.LASF275:
 9704 093f 6C765F73 		.ascii	"lv_spinbox_create\000"
 9704      70696E62 
 9704      6F785F63 
 9704      72656174 
 9704      6500
 9705              	.LASF28:
 9706 0951 6C765F66 		.ascii	"lv_font_glyph_dsc_t\000"
 9706      6F6E745F 
 9706      676C7970 
 9706      685F6473 
 9706      635F7400 
 9707              	.LASF254:
 9708 0965 6C697374 		.ascii	"list\000"
 9708      00
 9709              	.LASF277:
 9710 096a 6C765F73 		.ascii	"lv_spinbox_step_next\000"
 9710      70696E62 
 9710      6F785F73 
 9710      7465705F 
 9710      6E657874 
 9711              	.LASF57:
 9712 097f 67726164 		.ascii	"grad_color\000"
 9712      5F636F6C 
 9712      6F7200
 9713              	.LASF150:
 9714 098a 6669745F 		.ascii	"fit_left\000"
 9714      6C656674 
 9714      00
 9715              	.LASF280:
 9716 0993 73746570 		.ascii	"step_limit\000"
 9716      5F6C696D 
 9716      697400
 9717              	.LASF198:
 9718 099e 70616765 		.ascii	"page\000"
 9718      00
 9719              	.LASF230:
 9720 09a3 6B6E6F62 		.ascii	"knob_off\000"
 9720      5F6F6666 
 9720      00
 9721              	.LASF247:
ARM GAS  C:\Users\pearlstl\AppData\Local\Temp\cc98wxIE.s 			page 195


 9722 09ac 67617567 		.ascii	"gauge\000"
 9722      6500
 9723              	.LASF215:
 9724 09b2 64696769 		.ascii	"digit_padding_left\000"
 9724      745F7061 
 9724      6464696E 
 9724      675F6C65 
 9724      667400
 9725              	.LASF163:
 9726 09c5 4C565F4B 		.ascii	"LV_KEY_NEXT\000"
 9726      45595F4E 
 9726      45585400 
 9727              	.LASF126:
 9728 09d1 4C565F53 		.ascii	"LV_SIGNAL_PRESSING\000"
 9728      49474E41 
 9728      4C5F5052 
 9728      45535349 
 9728      4E4700
 9729              	.LASF77:
 9730 09e4 6C765F72 		.ascii	"lv_res_t\000"
 9730      65735F74 
 9730      00
 9731              	.LASF22:
 9732 09ed 6C6F6E67 		.ascii	"long double\000"
 9732      20646F75 
 9732      626C6500 
 9733              	.LASF147:
 9734 09f9 6C765F64 		.ascii	"lv_drag_dir_t\000"
 9734      7261675F 
 9734      6469725F 
 9734      7400
 9735              	.LASF168:
 9736 0a07 7374796C 		.ascii	"style\000"
 9736      6500
 9737              	.LASF91:
 9738 0a0d 6578745F 		.ascii	"ext_attr\000"
 9738      61747472 
 9738      00
 9739              	.LASF108:
 9740 0a16 4C565F49 		.ascii	"LV_INDEV_TYPE_POINTER\000"
 9740      4E444556 
 9740      5F545950 
 9740      455F504F 
 9740      494E5445 
 9741              	.LASF244:
 9742 0a2c 696D6762 		.ascii	"imgbtn\000"
 9742      746E00
 9743              	.LASF113:
 9744 0a33 6C765F64 		.ascii	"lv_design_mode_t\000"
 9744      65736967 
 9744      6E5F6D6F 
 9744      64655F74 
 9744      00
 9745              	.LASF67:
 9746 0a44 73756270 		.ascii	"subpx\000"
 9746      7800
 9747              	.LASF127:
ARM GAS  C:\Users\pearlstl\AppData\Local\Temp\cc98wxIE.s 			page 196


 9748 0a4a 4C565F53 		.ascii	"LV_SIGNAL_PRESS_LOST\000"
 9748      49474E41 
 9748      4C5F5052 
 9748      4553535F 
 9748      4C4F5354 
 9749              	.LASF166:
 9750 0a5f 4C565F4B 		.ascii	"LV_KEY_END\000"
 9750      45595F45 
 9750      4E4400
 9751              	.LASF132:
 9752 0a6a 4C565F53 		.ascii	"LV_SIGNAL_DRAG_END\000"
 9752      49474E41 
 9752      4C5F4452 
 9752      41475F45 
 9752      4E4400
 9753              	.LASF218:
 9754 0a7d 4C565F53 		.ascii	"LV_SPINBOX_STYLE_SB\000"
 9754      50494E42 
 9754      4F585F53 
 9754      54594C45 
 9754      5F534200 
 9755              	.LASF120:
 9756 0a91 4C565F53 		.ascii	"LV_SIGNAL_PARENT_SIZE_CHG\000"
 9756      49474E41 
 9756      4C5F5041 
 9756      52454E54 
 9756      5F53495A 
 9757              	.LASF128:
 9758 0aab 4C565F53 		.ascii	"LV_SIGNAL_RELEASED\000"
 9758      49474E41 
 9758      4C5F5245 
 9758      4C454153 
 9758      454400
 9759              	.LASF56:
 9760 0abe 6D61696E 		.ascii	"main_color\000"
 9760      5F636F6C 
 9760      6F7200
 9761              	.LASF0:
 9762 0ac9 5F5F696E 		.ascii	"__int8_t\000"
 9762      74385F74 
 9762      00
 9763              	.LASF305:
 9764 0ad2 6C765F6F 		.ascii	"lv_obj_get_design_cb\000"
 9764      626A5F67 
 9764      65745F64 
 9764      65736967 
 9764      6E5F6362 
 9765              	.LASF137:
 9766 0ae7 6C765F73 		.ascii	"lv_signal_t\000"
 9766      69676E61 
 9766      6C5F7400 
 9767              	.LASF189:
 9768 0af3 4C565F43 		.ascii	"LV_CURSOR_OUTLINE\000"
 9768      5552534F 
 9768      525F4F55 
 9768      544C494E 
 9768      4500
ARM GAS  C:\Users\pearlstl\AppData\Local\Temp\cc98wxIE.s 			page 197


 9769              	.LASF13:
 9770 0b05 6C6F6E67 		.ascii	"long long unsigned int\000"
 9770      206C6F6E 
 9770      6720756E 
 9770      7369676E 
 9770      65642069 
 9771              	.LASF269:
 9772 0b1c 6C765F73 		.ascii	"lv_spinbox_set_digit_format\000"
 9772      70696E62 
 9772      6F785F73 
 9772      65745F64 
 9772      69676974 
 9773              	.LASF18:
 9774 0b38 75696E74 		.ascii	"uint16_t\000"
 9774      31365F74 
 9774      00
 9775              	.LASF76:
 9776 0b41 4C565F52 		.ascii	"LV_RES_OK\000"
 9776      45535F4F 
 9776      4B00
 9777              	.LASF170:
 9778 0b4b 7665725F 		.ascii	"ver_area\000"
 9778      61726561 
 9778      00
 9779              	.LASF40:
 9780 0b54 6C765F63 		.ascii	"lv_color_t\000"
 9780      6F6C6F72 
 9780      5F7400
 9781              	.LASF286:
 9782 0b5f 616E6365 		.ascii	"ancestor_signal\000"
 9782      73746F72 
 9782      5F736967 
 9782      6E616C00 
 9783              	.LASF287:
 9784 0b6f 616E6365 		.ascii	"ancestor_design\000"
 9784      73746F72 
 9784      5F646573 
 9784      69676E00 
 9785              	.LASF109:
 9786 0b7f 4C565F49 		.ascii	"LV_INDEV_TYPE_KEYPAD\000"
 9786      4E444556 
 9786      5F545950 
 9786      455F4B45 
 9786      59504144 
 9787              	.LASF156:
 9788 0b94 4C565F4B 		.ascii	"LV_KEY_DOWN\000"
 9788      45595F44 
 9788      4F574E00 
 9789              	.LASF153:
 9790 0ba0 6669745F 		.ascii	"fit_bottom\000"
 9790      626F7474 
 9790      6F6D00
 9791              	.LASF159:
 9792 0bab 4C565F4B 		.ascii	"LV_KEY_ESC\000"
 9792      45595F45 
 9792      534300
 9793              	.LASF300:
ARM GAS  C:\Users\pearlstl\AppData\Local\Temp\cc98wxIE.s 			page 198


 9794 0bb6 6C765F74 		.ascii	"lv_ta_set_one_line\000"
 9794      615F7365 
 9794      745F6F6E 
 9794      655F6C69 
 9794      6E6500
 9795              	.LASF273:
 9796 0bc9 6E65775F 		.ascii	"new_spinbox\000"
 9796      7370696E 
 9796      626F7800 
 9797              	.LASF260:
 9798 0bd5 6C765F74 		.ascii	"lv_theme_t\000"
 9798      68656D65 
 9798      5F7400
 9799              	.LASF227:
 9800 0be0 6465636F 		.ascii	"decor\000"
 9800      7200
 9801              	.LASF208:
 9802 0be6 6C765F74 		.ascii	"lv_ta_ext_t\000"
 9802      615F6578 
 9802      745F7400 
 9803              	.LASF4:
 9804 0bf2 5F5F696E 		.ascii	"__int16_t\000"
 9804      7431365F 
 9804      7400
 9805              	.LASF242:
 9806 0bfc 70616E65 		.ascii	"panel\000"
 9806      6C00
 9807              	.LASF304:
 9808 0c02 6C765F6F 		.ascii	"lv_obj_get_signal_cb\000"
 9808      626A5F67 
 9808      65745F73 
 9808      69676E61 
 9808      6C5F6362 
 9809              	.LASF38:
 9810 0c17 66756C6C 		.ascii	"full\000"
 9810      00
 9811              	.LASF176:
 9812 0c1c 746F705F 		.ascii	"top_ip\000"
 9812      697000
 9813              	.LASF48:
 9814 0c23 636F6C6F 		.ascii	"color\000"
 9814      7200
 9815              	.LASF65:
 9816 0c29 6C696E65 		.ascii	"line_space\000"
 9816      5F737061 
 9816      636500
 9817              	.LASF141:
 9818 0c34 786F6673 		.ascii	"xofs\000"
 9818      00
 9819              	.LASF151:
 9820 0c39 6669745F 		.ascii	"fit_right\000"
 9820      72696768 
 9820      7400
 9821              	.LASF309:
 9822 0c43 6C765F6F 		.ascii	"lv_obj_handle_get_type_signal\000"
 9822      626A5F68 
 9822      616E646C 
ARM GAS  C:\Users\pearlstl\AppData\Local\Temp\cc98wxIE.s 			page 199


 9822      655F6765 
 9822      745F7479 
 9823              	.LASF148:
 9824 0c61 6C765F6F 		.ascii	"lv_obj_t\000"
 9824      626A5F74 
 9824      00
 9825              	.LASF47:
 9826 0c6a 6C765F73 		.ascii	"lv_shadow_type_t\000"
 9826      6861646F 
 9826      775F7479 
 9826      70655F74 
 9826      00
 9827              	.LASF94:
 9828 0c7b 64726167 		.ascii	"drag\000"
 9828      00
 9829              	.LASF210:
 9830 0c80 72616E67 		.ascii	"range_max\000"
 9830      655F6D61 
 9830      7800
 9831              	.LASF252:
 9832 0c8a 6D626F78 		.ascii	"mbox\000"
 9832      00
 9833              	.LASF85:
 9834 0c8f 5F6C765F 		.ascii	"_lv_obj_t\000"
 9834      6F626A5F 
 9834      7400
 9835              	.LASF63:
 9836 0c99 666F6E74 		.ascii	"font\000"
 9836      00
 9837              	.LASF64:
 9838 0c9e 6C657474 		.ascii	"letter_space\000"
 9838      65725F73 
 9838      70616365 
 9838      00
 9839              	.LASF250:
 9840 0cab 63616C65 		.ascii	"calendar\000"
 9840      6E646172 
 9840      00
 9841              	.LASF101:
 9842 0cb4 62617365 		.ascii	"base_dir\000"
 9842      5F646972 
 9842      00
 9843              	.LASF178:
 9844 0cbd 72696768 		.ascii	"right_ip\000"
 9844      745F6970 
 9844      00
 9845              	.LASF177:
 9846 0cc6 626F7474 		.ascii	"bottom_ip\000"
 9846      6F6D5F69 
 9846      7000
 9847              	.LASF25:
 9848 0cd0 626F785F 		.ascii	"box_h\000"
 9848      6800
 9849              	.LASF164:
 9850 0cd6 4C565F4B 		.ascii	"LV_KEY_PREV\000"
 9850      45595F50 
 9850      52455600 
ARM GAS  C:\Users\pearlstl\AppData\Local\Temp\cc98wxIE.s 			page 200


 9851              	.LASF140:
 9852 0ce2 62617365 		.ascii	"base\000"
 9852      00
 9853              	.LASF24:
 9854 0ce7 626F785F 		.ascii	"box_w\000"
 9854      7700
 9855              	.LASF5:
 9856 0ced 73686F72 		.ascii	"short int\000"
 9856      7420696E 
 9856      7400
 9857              	.LASF32:
 9858 0cf7 62617365 		.ascii	"base_line\000"
 9858      5F6C696E 
 9858      6500
 9859              	.LASF82:
 9860 0d01 6C765F6C 		.ascii	"lv_ll_t\000"
 9860      6C5F7400 
 9861              	.LASF173:
 9862 0d09 6D6F6465 		.ascii	"mode\000"
 9862      00
 9863              	.LASF17:
 9864 0d0e 696E7431 		.ascii	"int16_t\000"
 9864      365F7400 
 9865              	.LASF312:
 9866 0d16 433A5C55 		.ascii	"C:\\Users\\pearlstl\\Documents\\_Research\\projects"
 9866      73657273 
 9866      5C706561 
 9866      726C7374 
 9866      6C5C446F 
 9867 0d44 5C74636F 		.ascii	"\\tcom_engineering\\embed_sw\\tcom_app\\tcom_app_ps"
 9867      6D5F656E 
 9867      67696E65 
 9867      6572696E 
 9867      675C656D 
 9868 0d73 6F63365F 		.ascii	"oc6_lvgl6\\tcom_displ_test_psoc6.cydsn\000"
 9868      6C76676C 
 9868      365C7463 
 9868      6F6D5F64 
 9868      6973706C 
 9869              	.LASF119:
 9870 0d99 4C565F53 		.ascii	"LV_SIGNAL_CORD_CHG\000"
 9870      49474E41 
 9870      4C5F434F 
 9870      52445F43 
 9870      484700
 9871              	.LASF196:
 9872 0dac 7478745F 		.ascii	"txt_byte_pos\000"
 9872      62797465 
 9872      5F706F73 
 9872      00
 9873              	.LASF87:
 9874 0db9 636F6F72 		.ascii	"coords\000"
 9874      647300
 9875              	.LASF216:
 9876 0dc0 6C765F73 		.ascii	"lv_spinbox_ext_t\000"
 9876      70696E62 
 9876      6F785F65 
ARM GAS  C:\Users\pearlstl\AppData\Local\Temp\cc98wxIE.s 			page 201


 9876      78745F74 
 9876      00
 9877              	.LASF253:
 9878 0dd1 7370696E 		.ascii	"spinbox\000"
 9878      626F7800 
 9879              	.LASF291:
 9880 0dd9 6C765F74 		.ascii	"lv_ta_set_text\000"
 9880      615F7365 
 9880      745F7465 
 9880      787400
 9881              	.LASF289:
 9882 0de8 6C765F75 		.ascii	"lv_utils_num_to_str\000"
 9882      74696C73 
 9882      5F6E756D 
 9882      5F746F5F 
 9882      73747200 
 9883              	.LASF98:
 9884 0dfc 6F70615F 		.ascii	"opa_scale_en\000"
 9884      7363616C 
 9884      655F656E 
 9884      00
 9885              	.LASF234:
 9886 0e09 6461795F 		.ascii	"day_names\000"
 9886      6E616D65 
 9886      7300
 9887              	.LASF192:
 9888 0e13 6C765F63 		.ascii	"lv_cursor_type_t\000"
 9888      7572736F 
 9888      725F7479 
 9888      70655F74 
 9888      00
 9889              	.LASF60:
 9890 0e24 73686164 		.ascii	"shadow\000"
 9890      6F7700
 9891              	.LASF264:
 9892 0e2b 6C7A5F63 		.ascii	"lz_cnt\000"
 9892      6E7400
 9893              	.LASF290:
 9894 0e32 7374726C 		.ascii	"strlen\000"
 9894      656E00
 9895              	.LASF96:
 9896 0e39 64726167 		.ascii	"drag_parent\000"
 9896      5F706172 
 9896      656E7400 
 9897              	.LASF282:
 9898 0e45 6C765F73 		.ascii	"lv_spinbox_decrement\000"
 9898      70696E62 
 9898      6F785F64 
 9898      65637265 
 9898      6D656E74 
 9899              	.LASF122:
 9900 0e5a 4C565F53 		.ascii	"LV_SIGNAL_BASE_DIR_CHG\000"
 9900      49474E41 
 9900      4C5F4241 
 9900      53455F44 
 9900      49525F43 
 9901              	.LASF219:
ARM GAS  C:\Users\pearlstl\AppData\Local\Temp\cc98wxIE.s 			page 202


 9902 0e71 4C565F53 		.ascii	"LV_SPINBOX_STYLE_CURSOR\000"
 9902      50494E42 
 9902      4F585F53 
 9902      54594C45 
 9902      5F435552 
 9903              	.LASF285:
 9904 0e89 696E6465 		.ascii	"indev_type\000"
 9904      765F7479 
 9904      706500
 9905              	.LASF274:
 9906 0e94 636F7079 		.ascii	"copy_ext\000"
 9906      5F657874 
 9906      00
 9907              	.LASF241:
 9908 0e9d 636F6E74 		.ascii	"content\000"
 9908      656E7400 
 9909              	.LASF61:
 9910 0ea5 70616464 		.ascii	"padding\000"
 9910      696E6700 
 9911              	.LASF89:
 9912 0ead 7369676E 		.ascii	"signal_cb\000"
 9912      616C5F63 
 9912      6200
 9913              	.LASF20:
 9914 0eb7 75696E74 		.ascii	"uint32_t\000"
 9914      33325F74 
 9914      00
 9915              	.LASF293:
 9916 0ec0 6C765F6F 		.ascii	"lv_obj_invalidate\000"
 9916      626A5F69 
 9916      6E76616C 
 9916      69646174 
 9916      6500
 9917              	.LASF226:
 9918 0ed2 6461726B 		.ascii	"dark\000"
 9918      00
 9919              	.LASF36:
 9920 0ed7 67726565 		.ascii	"green\000"
 9920      6E00
 9921              	.LASF34:
 9922 0edd 6C765F66 		.ascii	"lv_font_t\000"
 9922      6F6E745F 
 9922      7400
 9923              	.LASF102:
 9924 0ee7 72657365 		.ascii	"reserved\000"
 9924      72766564 
 9924      00
 9925              	.LASF7:
 9926 0ef0 73686F72 		.ascii	"short unsigned int\000"
 9926      7420756E 
 9926      7369676E 
 9926      65642069 
 9926      6E7400
 9927              	.LASF167:
 9928 0f03 6C765F73 		.ascii	"lv_sb_mode_t\000"
 9928      625F6D6F 
 9928      64655F74 
ARM GAS  C:\Users\pearlstl\AppData\Local\Temp\cc98wxIE.s 			page 203


 9928      00
 9929              	.LASF21:
 9930 0f10 6C765F63 		.ascii	"lv_coord_t\000"
 9930      6F6F7264 
 9930      5F7400
 9931              	.LASF107:
 9932 0f1b 4C565F49 		.ascii	"LV_INDEV_TYPE_NONE\000"
 9932      4E444556 
 9932      5F545950 
 9932      455F4E4F 
 9932      4E4500
 9933              	.LASF59:
 9934 0f2e 626F7264 		.ascii	"border\000"
 9934      657200
 9935              	.LASF199:
 9936 0f35 6C616265 		.ascii	"label\000"
 9936      6C00
 9937              	.LASF29:
 9938 0f3b 6765745F 		.ascii	"get_glyph_dsc\000"
 9938      676C7970 
 9938      685F6473 
 9938      6300
 9939              	.LASF8:
 9940 0f49 5F5F696E 		.ascii	"__int32_t\000"
 9940      7433325F 
 9940      7400
 9941              	.LASF46:
 9942 0f53 6C765F62 		.ascii	"lv_border_part_t\000"
 9942      6F726465 
 9942      725F7061 
 9942      72745F74 
 9942      00
 9943              	.LASF116:
 9944 0f64 6C765F65 		.ascii	"lv_event_cb_t\000"
 9944      76656E74 
 9944      5F63625F 
 9944      7400
 9945              	.LASF248:
 9946 0f72 7072656C 		.ascii	"preload\000"
 9946      6F616400 
 9947              	.LASF307:
 9948 0f7a 6C765F69 		.ascii	"lv_indev_get_type\000"
 9948      6E646576 
 9948      5F676574 
 9948      5F747970 
 9948      6500
 9949              	.LASF145:
 9950 0f8c 6F726967 		.ascii	"origo_align\000"
 9950      6F5F616C 
 9950      69676E00 
 9951              	.LASF229:
 9952 0f98 6B6E6F62 		.ascii	"knob\000"
 9952      00
 9953              	.LASF155:
 9954 0f9d 4C565F4B 		.ascii	"LV_KEY_UP\000"
 9954      45595F55 
 9954      5000
ARM GAS  C:\Users\pearlstl\AppData\Local\Temp\cc98wxIE.s 			page 204


 9955              	.LASF169:
 9956 0fa7 686F725F 		.ascii	"hor_area\000"
 9956      61726561 
 9956      00
 9957              	.LASF62:
 9958 0fb0 73656C5F 		.ascii	"sel_color\000"
 9958      636F6C6F 
 9958      7200
 9959              	.LASF84:
 9960 0fba 5F6C765F 		.ascii	"_lv_font_struct\000"
 9960      666F6E74 
 9960      5F737472 
 9960      75637400 
 9961              	.LASF271:
 9962 0fca 6C765F73 		.ascii	"lv_spinbox_set_value\000"
 9962      70696E62 
 9962      6F785F73 
 9962      65745F76 
 9962      616C7565 
 9963              	.LASF50:
 9964 0fdf 70617274 		.ascii	"part\000"
 9964      00
 9965              	.LASF79:
 9966 0fe4 6E5F7369 		.ascii	"n_size\000"
 9966      7A6500
 9967              	.LASF205:
 9968 0feb 63757273 		.ascii	"cursor\000"
 9968      6F7200
 9969              	.LASF114:
 9970 0ff2 6C765F64 		.ascii	"lv_design_cb_t\000"
 9970      65736967 
 9970      6E5F6362 
 9970      5F7400
 9971              	.LASF181:
 9972 1001 65646765 		.ascii	"edge_flash\000"
 9972      5F666C61 
 9972      736800
 9973              	.LASF296:
 9974 100c 6C765F74 		.ascii	"lv_theme_get_current\000"
 9974      68656D65 
 9974      5F676574 
 9974      5F637572 
 9974      72656E74 
 9975              	.LASF104:
 9976 1021 6F70615F 		.ascii	"opa_scale\000"
 9976      7363616C 
 9976      6500
 9977              	.LASF256:
 9978 102b 726F6C6C 		.ascii	"roller\000"
 9978      657200
 9979              		.ident	"GCC: (GNU Tools for ARM Embedded Processors) 5.4.1 20160609 (release) [ARM/embedded-5-bran
