ARM GAS  C:\Users\pearlstl\AppData\Local\Temp\ccxJ2nMb.s 			page 1


   1              		.syntax unified
   2              		.cpu cortex-m4
   3              		.eabi_attribute 27, 1
   4              		.fpu fpv4-sp-d16
   5              		.eabi_attribute 20, 1
   6              		.eabi_attribute 21, 1
   7              		.eabi_attribute 23, 3
   8              		.eabi_attribute 24, 1
   9              		.eabi_attribute 25, 1
  10              		.eabi_attribute 26, 1
  11              		.eabi_attribute 30, 2
  12              		.eabi_attribute 34, 1
  13              		.eabi_attribute 18, 4
  14              		.thumb
  15              		.syntax unified
  16              		.file	"lv_sw.c"
  17              		.text
  18              	.Ltext0:
  19              		.cfi_sections	.debug_frame
  20              		.section	.text.lv_sw_signal,"ax",%progbits
  21              		.align	2
  22              		.thumb
  23              		.thumb_func
  24              		.type	lv_sw_signal, %function
  25              	lv_sw_signal:
  26              	.LFB63:
  27              		.file 1 "..\\..\\..\\lvgl\\version_6.1.2\\lvgl\\src\\lv_objx\\lv_sw.c"
   1:..\..\..\lvgl\version_6.1.2\lvgl\src\lv_objx/lv_sw.c **** /**
   2:..\..\..\lvgl\version_6.1.2\lvgl\src\lv_objx/lv_sw.c ****  * @file lv_sw.c
   3:..\..\..\lvgl\version_6.1.2\lvgl\src\lv_objx/lv_sw.c ****  *
   4:..\..\..\lvgl\version_6.1.2\lvgl\src\lv_objx/lv_sw.c ****  */
   5:..\..\..\lvgl\version_6.1.2\lvgl\src\lv_objx/lv_sw.c **** 
   6:..\..\..\lvgl\version_6.1.2\lvgl\src\lv_objx/lv_sw.c **** /*********************
   7:..\..\..\lvgl\version_6.1.2\lvgl\src\lv_objx/lv_sw.c ****  *      INCLUDES
   8:..\..\..\lvgl\version_6.1.2\lvgl\src\lv_objx/lv_sw.c ****  *********************/
   9:..\..\..\lvgl\version_6.1.2\lvgl\src\lv_objx/lv_sw.c **** #include "lv_sw.h"
  10:..\..\..\lvgl\version_6.1.2\lvgl\src\lv_objx/lv_sw.c **** 
  11:..\..\..\lvgl\version_6.1.2\lvgl\src\lv_objx/lv_sw.c **** #if LV_USE_SW != 0
  12:..\..\..\lvgl\version_6.1.2\lvgl\src\lv_objx/lv_sw.c **** 
  13:..\..\..\lvgl\version_6.1.2\lvgl\src\lv_objx/lv_sw.c **** /*Testing of dependencies*/
  14:..\..\..\lvgl\version_6.1.2\lvgl\src\lv_objx/lv_sw.c **** #if LV_USE_SLIDER == 0
  15:..\..\..\lvgl\version_6.1.2\lvgl\src\lv_objx/lv_sw.c **** #error "lv_sw: lv_slider is required. Enable it in lv_conf.h (LV_USE_SLIDER  1) "
  16:..\..\..\lvgl\version_6.1.2\lvgl\src\lv_objx/lv_sw.c **** #endif
  17:..\..\..\lvgl\version_6.1.2\lvgl\src\lv_objx/lv_sw.c **** 
  18:..\..\..\lvgl\version_6.1.2\lvgl\src\lv_objx/lv_sw.c **** #include "../lv_core/lv_debug.h"
  19:..\..\..\lvgl\version_6.1.2\lvgl\src\lv_objx/lv_sw.c **** #include "../lv_themes/lv_theme.h"
  20:..\..\..\lvgl\version_6.1.2\lvgl\src\lv_objx/lv_sw.c **** #include "../lv_misc/lv_math.h"
  21:..\..\..\lvgl\version_6.1.2\lvgl\src\lv_objx/lv_sw.c **** #include "../lv_core/lv_indev.h"
  22:..\..\..\lvgl\version_6.1.2\lvgl\src\lv_objx/lv_sw.c **** 
  23:..\..\..\lvgl\version_6.1.2\lvgl\src\lv_objx/lv_sw.c **** /*********************
  24:..\..\..\lvgl\version_6.1.2\lvgl\src\lv_objx/lv_sw.c ****  *      DEFINES
  25:..\..\..\lvgl\version_6.1.2\lvgl\src\lv_objx/lv_sw.c ****  *********************/
  26:..\..\..\lvgl\version_6.1.2\lvgl\src\lv_objx/lv_sw.c **** #define LV_OBJX_NAME "lv_sw"
  27:..\..\..\lvgl\version_6.1.2\lvgl\src\lv_objx/lv_sw.c **** 
  28:..\..\..\lvgl\version_6.1.2\lvgl\src\lv_objx/lv_sw.c **** /**********************
  29:..\..\..\lvgl\version_6.1.2\lvgl\src\lv_objx/lv_sw.c ****  *      TYPEDEFS
  30:..\..\..\lvgl\version_6.1.2\lvgl\src\lv_objx/lv_sw.c ****  **********************/
ARM GAS  C:\Users\pearlstl\AppData\Local\Temp\ccxJ2nMb.s 			page 2


  31:..\..\..\lvgl\version_6.1.2\lvgl\src\lv_objx/lv_sw.c **** 
  32:..\..\..\lvgl\version_6.1.2\lvgl\src\lv_objx/lv_sw.c **** /**********************
  33:..\..\..\lvgl\version_6.1.2\lvgl\src\lv_objx/lv_sw.c ****  *  STATIC PROTOTYPES
  34:..\..\..\lvgl\version_6.1.2\lvgl\src\lv_objx/lv_sw.c ****  **********************/
  35:..\..\..\lvgl\version_6.1.2\lvgl\src\lv_objx/lv_sw.c **** static lv_res_t lv_sw_signal(lv_obj_t * sw, lv_signal_t sign, void * param);
  36:..\..\..\lvgl\version_6.1.2\lvgl\src\lv_objx/lv_sw.c **** 
  37:..\..\..\lvgl\version_6.1.2\lvgl\src\lv_objx/lv_sw.c **** /**********************
  38:..\..\..\lvgl\version_6.1.2\lvgl\src\lv_objx/lv_sw.c ****  *  STATIC VARIABLES
  39:..\..\..\lvgl\version_6.1.2\lvgl\src\lv_objx/lv_sw.c ****  **********************/
  40:..\..\..\lvgl\version_6.1.2\lvgl\src\lv_objx/lv_sw.c **** static lv_signal_cb_t ancestor_signal;
  41:..\..\..\lvgl\version_6.1.2\lvgl\src\lv_objx/lv_sw.c **** 
  42:..\..\..\lvgl\version_6.1.2\lvgl\src\lv_objx/lv_sw.c **** /**********************
  43:..\..\..\lvgl\version_6.1.2\lvgl\src\lv_objx/lv_sw.c ****  *      MACROS
  44:..\..\..\lvgl\version_6.1.2\lvgl\src\lv_objx/lv_sw.c ****  **********************/
  45:..\..\..\lvgl\version_6.1.2\lvgl\src\lv_objx/lv_sw.c **** 
  46:..\..\..\lvgl\version_6.1.2\lvgl\src\lv_objx/lv_sw.c **** /**********************
  47:..\..\..\lvgl\version_6.1.2\lvgl\src\lv_objx/lv_sw.c ****  *   GLOBAL FUNCTIONS
  48:..\..\..\lvgl\version_6.1.2\lvgl\src\lv_objx/lv_sw.c ****  **********************/
  49:..\..\..\lvgl\version_6.1.2\lvgl\src\lv_objx/lv_sw.c **** 
  50:..\..\..\lvgl\version_6.1.2\lvgl\src\lv_objx/lv_sw.c **** /**
  51:..\..\..\lvgl\version_6.1.2\lvgl\src\lv_objx/lv_sw.c ****  * Create a switch objects
  52:..\..\..\lvgl\version_6.1.2\lvgl\src\lv_objx/lv_sw.c ****  * @param par pointer to an object, it will be the parent of the new switch
  53:..\..\..\lvgl\version_6.1.2\lvgl\src\lv_objx/lv_sw.c ****  * @param copy pointer to a switch object, if not NULL then the new object will be copied from it
  54:..\..\..\lvgl\version_6.1.2\lvgl\src\lv_objx/lv_sw.c ****  * @return pointer to the created switch
  55:..\..\..\lvgl\version_6.1.2\lvgl\src\lv_objx/lv_sw.c ****  */
  56:..\..\..\lvgl\version_6.1.2\lvgl\src\lv_objx/lv_sw.c **** lv_obj_t * lv_sw_create(lv_obj_t * par, const lv_obj_t * copy)
  57:..\..\..\lvgl\version_6.1.2\lvgl\src\lv_objx/lv_sw.c **** {
  58:..\..\..\lvgl\version_6.1.2\lvgl\src\lv_objx/lv_sw.c ****     LV_LOG_TRACE("switch create started");
  59:..\..\..\lvgl\version_6.1.2\lvgl\src\lv_objx/lv_sw.c **** 
  60:..\..\..\lvgl\version_6.1.2\lvgl\src\lv_objx/lv_sw.c ****     /*Create the ancestor of switch*/
  61:..\..\..\lvgl\version_6.1.2\lvgl\src\lv_objx/lv_sw.c ****     lv_obj_t * new_sw = lv_slider_create(par, copy);
  62:..\..\..\lvgl\version_6.1.2\lvgl\src\lv_objx/lv_sw.c ****     LV_ASSERT_MEM(new_sw);
  63:..\..\..\lvgl\version_6.1.2\lvgl\src\lv_objx/lv_sw.c ****     if(new_sw == NULL) return NULL;
  64:..\..\..\lvgl\version_6.1.2\lvgl\src\lv_objx/lv_sw.c **** 
  65:..\..\..\lvgl\version_6.1.2\lvgl\src\lv_objx/lv_sw.c ****     if(ancestor_signal == NULL) ancestor_signal = lv_obj_get_signal_cb(new_sw);
  66:..\..\..\lvgl\version_6.1.2\lvgl\src\lv_objx/lv_sw.c **** 
  67:..\..\..\lvgl\version_6.1.2\lvgl\src\lv_objx/lv_sw.c ****     /*Allocate the switch type specific extended data*/
  68:..\..\..\lvgl\version_6.1.2\lvgl\src\lv_objx/lv_sw.c ****     lv_sw_ext_t * ext = lv_obj_allocate_ext_attr(new_sw, sizeof(lv_sw_ext_t));
  69:..\..\..\lvgl\version_6.1.2\lvgl\src\lv_objx/lv_sw.c ****     LV_ASSERT_MEM(ext);
  70:..\..\..\lvgl\version_6.1.2\lvgl\src\lv_objx/lv_sw.c ****     if(ext == NULL) return NULL;
  71:..\..\..\lvgl\version_6.1.2\lvgl\src\lv_objx/lv_sw.c **** 
  72:..\..\..\lvgl\version_6.1.2\lvgl\src\lv_objx/lv_sw.c ****     /*Initialize the allocated 'ext' */
  73:..\..\..\lvgl\version_6.1.2\lvgl\src\lv_objx/lv_sw.c ****     ext->changed = 0;
  74:..\..\..\lvgl\version_6.1.2\lvgl\src\lv_objx/lv_sw.c **** #if LV_USE_ANIMATION
  75:..\..\..\lvgl\version_6.1.2\lvgl\src\lv_objx/lv_sw.c ****     ext->anim_time = 0;
  76:..\..\..\lvgl\version_6.1.2\lvgl\src\lv_objx/lv_sw.c **** #endif
  77:..\..\..\lvgl\version_6.1.2\lvgl\src\lv_objx/lv_sw.c ****     ext->style_knob_off = ext->slider.style_knob;
  78:..\..\..\lvgl\version_6.1.2\lvgl\src\lv_objx/lv_sw.c ****     ext->style_knob_on  = ext->slider.style_knob;
  79:..\..\..\lvgl\version_6.1.2\lvgl\src\lv_objx/lv_sw.c **** 
  80:..\..\..\lvgl\version_6.1.2\lvgl\src\lv_objx/lv_sw.c ****     /*The signal and design functions are not copied so set them here*/
  81:..\..\..\lvgl\version_6.1.2\lvgl\src\lv_objx/lv_sw.c ****     lv_obj_set_signal_cb(new_sw, lv_sw_signal);
  82:..\..\..\lvgl\version_6.1.2\lvgl\src\lv_objx/lv_sw.c **** 
  83:..\..\..\lvgl\version_6.1.2\lvgl\src\lv_objx/lv_sw.c ****     /*Init the new switch switch*/
  84:..\..\..\lvgl\version_6.1.2\lvgl\src\lv_objx/lv_sw.c ****     if(copy == NULL) {
  85:..\..\..\lvgl\version_6.1.2\lvgl\src\lv_objx/lv_sw.c ****         lv_obj_set_size(new_sw, 2 * LV_DPI / 3, LV_DPI / 3);
  86:..\..\..\lvgl\version_6.1.2\lvgl\src\lv_objx/lv_sw.c ****         lv_slider_set_knob_in(new_sw, true);
  87:..\..\..\lvgl\version_6.1.2\lvgl\src\lv_objx/lv_sw.c ****         lv_slider_set_range(new_sw, 0, LV_SW_MAX_VALUE);
ARM GAS  C:\Users\pearlstl\AppData\Local\Temp\ccxJ2nMb.s 			page 3


  88:..\..\..\lvgl\version_6.1.2\lvgl\src\lv_objx/lv_sw.c **** 
  89:..\..\..\lvgl\version_6.1.2\lvgl\src\lv_objx/lv_sw.c ****         /*Set the default styles*/
  90:..\..\..\lvgl\version_6.1.2\lvgl\src\lv_objx/lv_sw.c ****         lv_theme_t * th = lv_theme_get_current();
  91:..\..\..\lvgl\version_6.1.2\lvgl\src\lv_objx/lv_sw.c ****         if(th) {
  92:..\..\..\lvgl\version_6.1.2\lvgl\src\lv_objx/lv_sw.c ****             lv_sw_set_style(new_sw, LV_SW_STYLE_BG, th->style.sw.bg);
  93:..\..\..\lvgl\version_6.1.2\lvgl\src\lv_objx/lv_sw.c ****             lv_sw_set_style(new_sw, LV_SW_STYLE_INDIC, th->style.sw.indic);
  94:..\..\..\lvgl\version_6.1.2\lvgl\src\lv_objx/lv_sw.c ****             lv_sw_set_style(new_sw, LV_SW_STYLE_KNOB_OFF, th->style.sw.knob_off);
  95:..\..\..\lvgl\version_6.1.2\lvgl\src\lv_objx/lv_sw.c ****             lv_sw_set_style(new_sw, LV_SW_STYLE_KNOB_ON, th->style.sw.knob_on);
  96:..\..\..\lvgl\version_6.1.2\lvgl\src\lv_objx/lv_sw.c ****         } else {
  97:..\..\..\lvgl\version_6.1.2\lvgl\src\lv_objx/lv_sw.c ****             /*Let the slider' style*/
  98:..\..\..\lvgl\version_6.1.2\lvgl\src\lv_objx/lv_sw.c ****         }
  99:..\..\..\lvgl\version_6.1.2\lvgl\src\lv_objx/lv_sw.c **** 
 100:..\..\..\lvgl\version_6.1.2\lvgl\src\lv_objx/lv_sw.c ****     }
 101:..\..\..\lvgl\version_6.1.2\lvgl\src\lv_objx/lv_sw.c ****     /*Copy an existing switch*/
 102:..\..\..\lvgl\version_6.1.2\lvgl\src\lv_objx/lv_sw.c ****     else {
 103:..\..\..\lvgl\version_6.1.2\lvgl\src\lv_objx/lv_sw.c ****         lv_sw_ext_t * copy_ext = lv_obj_get_ext_attr(copy);
 104:..\..\..\lvgl\version_6.1.2\lvgl\src\lv_objx/lv_sw.c ****         ext->style_knob_off    = copy_ext->style_knob_off;
 105:..\..\..\lvgl\version_6.1.2\lvgl\src\lv_objx/lv_sw.c ****         ext->style_knob_on     = copy_ext->style_knob_on;
 106:..\..\..\lvgl\version_6.1.2\lvgl\src\lv_objx/lv_sw.c **** #if LV_USE_ANIMATION
 107:..\..\..\lvgl\version_6.1.2\lvgl\src\lv_objx/lv_sw.c ****         ext->anim_time = copy_ext->anim_time;
 108:..\..\..\lvgl\version_6.1.2\lvgl\src\lv_objx/lv_sw.c **** #endif
 109:..\..\..\lvgl\version_6.1.2\lvgl\src\lv_objx/lv_sw.c **** 
 110:..\..\..\lvgl\version_6.1.2\lvgl\src\lv_objx/lv_sw.c ****         if(lv_sw_get_state(new_sw))
 111:..\..\..\lvgl\version_6.1.2\lvgl\src\lv_objx/lv_sw.c ****             lv_slider_set_style(new_sw, LV_SLIDER_STYLE_KNOB, ext->style_knob_on);
 112:..\..\..\lvgl\version_6.1.2\lvgl\src\lv_objx/lv_sw.c ****         else
 113:..\..\..\lvgl\version_6.1.2\lvgl\src\lv_objx/lv_sw.c ****             lv_slider_set_style(new_sw, LV_SLIDER_STYLE_KNOB, ext->style_knob_off);
 114:..\..\..\lvgl\version_6.1.2\lvgl\src\lv_objx/lv_sw.c **** 
 115:..\..\..\lvgl\version_6.1.2\lvgl\src\lv_objx/lv_sw.c ****         /*Refresh the style with new signal function*/
 116:..\..\..\lvgl\version_6.1.2\lvgl\src\lv_objx/lv_sw.c ****         lv_obj_refresh_style(new_sw);
 117:..\..\..\lvgl\version_6.1.2\lvgl\src\lv_objx/lv_sw.c ****     }
 118:..\..\..\lvgl\version_6.1.2\lvgl\src\lv_objx/lv_sw.c **** 
 119:..\..\..\lvgl\version_6.1.2\lvgl\src\lv_objx/lv_sw.c ****     LV_LOG_INFO("switch created");
 120:..\..\..\lvgl\version_6.1.2\lvgl\src\lv_objx/lv_sw.c **** 
 121:..\..\..\lvgl\version_6.1.2\lvgl\src\lv_objx/lv_sw.c ****     return new_sw;
 122:..\..\..\lvgl\version_6.1.2\lvgl\src\lv_objx/lv_sw.c **** }
 123:..\..\..\lvgl\version_6.1.2\lvgl\src\lv_objx/lv_sw.c **** 
 124:..\..\..\lvgl\version_6.1.2\lvgl\src\lv_objx/lv_sw.c **** /*=====================
 125:..\..\..\lvgl\version_6.1.2\lvgl\src\lv_objx/lv_sw.c ****  * Setter functions
 126:..\..\..\lvgl\version_6.1.2\lvgl\src\lv_objx/lv_sw.c ****  *====================*/
 127:..\..\..\lvgl\version_6.1.2\lvgl\src\lv_objx/lv_sw.c **** 
 128:..\..\..\lvgl\version_6.1.2\lvgl\src\lv_objx/lv_sw.c **** /**
 129:..\..\..\lvgl\version_6.1.2\lvgl\src\lv_objx/lv_sw.c ****  * Turn ON the switch
 130:..\..\..\lvgl\version_6.1.2\lvgl\src\lv_objx/lv_sw.c ****  * @param sw pointer to a switch objec
 131:..\..\..\lvgl\version_6.1.2\lvgl\src\lv_objx/lv_sw.c ****  * @param anim LV_ANOM_ON: set the value with an animation; LV_ANIM_OFF: change the value immediate
 132:..\..\..\lvgl\version_6.1.2\lvgl\src\lv_objx/lv_sw.c ****  */
 133:..\..\..\lvgl\version_6.1.2\lvgl\src\lv_objx/lv_sw.c **** void lv_sw_on(lv_obj_t * sw, lv_anim_enable_t anim)
 134:..\..\..\lvgl\version_6.1.2\lvgl\src\lv_objx/lv_sw.c **** {
 135:..\..\..\lvgl\version_6.1.2\lvgl\src\lv_objx/lv_sw.c ****     LV_ASSERT_OBJ(sw, LV_OBJX_NAME);
 136:..\..\..\lvgl\version_6.1.2\lvgl\src\lv_objx/lv_sw.c **** 
 137:..\..\..\lvgl\version_6.1.2\lvgl\src\lv_objx/lv_sw.c **** #if LV_USE_ANIMATION == 0
 138:..\..\..\lvgl\version_6.1.2\lvgl\src\lv_objx/lv_sw.c ****     anim = LV_ANIM_OFF;
 139:..\..\..\lvgl\version_6.1.2\lvgl\src\lv_objx/lv_sw.c **** #endif
 140:..\..\..\lvgl\version_6.1.2\lvgl\src\lv_objx/lv_sw.c ****     lv_sw_ext_t * ext = lv_obj_get_ext_attr(sw);
 141:..\..\..\lvgl\version_6.1.2\lvgl\src\lv_objx/lv_sw.c ****     lv_slider_set_value(sw, LV_SW_MAX_VALUE, anim);
 142:..\..\..\lvgl\version_6.1.2\lvgl\src\lv_objx/lv_sw.c ****     lv_slider_set_style(sw, LV_SLIDER_STYLE_KNOB, ext->style_knob_on);
 143:..\..\..\lvgl\version_6.1.2\lvgl\src\lv_objx/lv_sw.c **** }
 144:..\..\..\lvgl\version_6.1.2\lvgl\src\lv_objx/lv_sw.c **** 
ARM GAS  C:\Users\pearlstl\AppData\Local\Temp\ccxJ2nMb.s 			page 4


 145:..\..\..\lvgl\version_6.1.2\lvgl\src\lv_objx/lv_sw.c **** /**
 146:..\..\..\lvgl\version_6.1.2\lvgl\src\lv_objx/lv_sw.c ****  * Turn OFF the switch
 147:..\..\..\lvgl\version_6.1.2\lvgl\src\lv_objx/lv_sw.c ****  * @param sw pointer to a switch object
 148:..\..\..\lvgl\version_6.1.2\lvgl\src\lv_objx/lv_sw.c ****  * @param anim LV_ANIM_ON: set the value with an animation; LV_ANIM_OFF: change the value immediate
 149:..\..\..\lvgl\version_6.1.2\lvgl\src\lv_objx/lv_sw.c ****  */
 150:..\..\..\lvgl\version_6.1.2\lvgl\src\lv_objx/lv_sw.c **** void lv_sw_off(lv_obj_t * sw, lv_anim_enable_t anim)
 151:..\..\..\lvgl\version_6.1.2\lvgl\src\lv_objx/lv_sw.c **** {
 152:..\..\..\lvgl\version_6.1.2\lvgl\src\lv_objx/lv_sw.c ****     LV_ASSERT_OBJ(sw, LV_OBJX_NAME);
 153:..\..\..\lvgl\version_6.1.2\lvgl\src\lv_objx/lv_sw.c **** 
 154:..\..\..\lvgl\version_6.1.2\lvgl\src\lv_objx/lv_sw.c **** #if LV_USE_ANIMATION == 0
 155:..\..\..\lvgl\version_6.1.2\lvgl\src\lv_objx/lv_sw.c ****     anim = LV_ANIM_OFF;
 156:..\..\..\lvgl\version_6.1.2\lvgl\src\lv_objx/lv_sw.c **** #endif
 157:..\..\..\lvgl\version_6.1.2\lvgl\src\lv_objx/lv_sw.c ****     lv_sw_ext_t * ext = lv_obj_get_ext_attr(sw);
 158:..\..\..\lvgl\version_6.1.2\lvgl\src\lv_objx/lv_sw.c ****     lv_slider_set_value(sw, 0, anim);
 159:..\..\..\lvgl\version_6.1.2\lvgl\src\lv_objx/lv_sw.c ****     lv_slider_set_style(sw, LV_SLIDER_STYLE_KNOB, ext->style_knob_off);
 160:..\..\..\lvgl\version_6.1.2\lvgl\src\lv_objx/lv_sw.c **** }
 161:..\..\..\lvgl\version_6.1.2\lvgl\src\lv_objx/lv_sw.c **** 
 162:..\..\..\lvgl\version_6.1.2\lvgl\src\lv_objx/lv_sw.c **** /**
 163:..\..\..\lvgl\version_6.1.2\lvgl\src\lv_objx/lv_sw.c ****  * Toggle the position of the switch
 164:..\..\..\lvgl\version_6.1.2\lvgl\src\lv_objx/lv_sw.c ****  * @param sw pointer to a switch object
 165:..\..\..\lvgl\version_6.1.2\lvgl\src\lv_objx/lv_sw.c ****  * @param anim LV_ANIM_ON: set the value with an animation; LV_ANIM_OFF: change the value immediate
 166:..\..\..\lvgl\version_6.1.2\lvgl\src\lv_objx/lv_sw.c ****  * @return resulting state of the switch.
 167:..\..\..\lvgl\version_6.1.2\lvgl\src\lv_objx/lv_sw.c ****  */
 168:..\..\..\lvgl\version_6.1.2\lvgl\src\lv_objx/lv_sw.c **** bool lv_sw_toggle(lv_obj_t * sw, lv_anim_enable_t anim)
 169:..\..\..\lvgl\version_6.1.2\lvgl\src\lv_objx/lv_sw.c **** {
 170:..\..\..\lvgl\version_6.1.2\lvgl\src\lv_objx/lv_sw.c ****     LV_ASSERT_OBJ(sw, LV_OBJX_NAME);
 171:..\..\..\lvgl\version_6.1.2\lvgl\src\lv_objx/lv_sw.c **** 
 172:..\..\..\lvgl\version_6.1.2\lvgl\src\lv_objx/lv_sw.c **** #if LV_USE_ANIMATION == 0
 173:..\..\..\lvgl\version_6.1.2\lvgl\src\lv_objx/lv_sw.c ****     anim = LV_ANIM_OFF;
 174:..\..\..\lvgl\version_6.1.2\lvgl\src\lv_objx/lv_sw.c **** #endif
 175:..\..\..\lvgl\version_6.1.2\lvgl\src\lv_objx/lv_sw.c **** 
 176:..\..\..\lvgl\version_6.1.2\lvgl\src\lv_objx/lv_sw.c ****     bool state = lv_sw_get_state(sw);
 177:..\..\..\lvgl\version_6.1.2\lvgl\src\lv_objx/lv_sw.c ****     if(state)
 178:..\..\..\lvgl\version_6.1.2\lvgl\src\lv_objx/lv_sw.c ****         lv_sw_off(sw, anim);
 179:..\..\..\lvgl\version_6.1.2\lvgl\src\lv_objx/lv_sw.c ****     else
 180:..\..\..\lvgl\version_6.1.2\lvgl\src\lv_objx/lv_sw.c ****         lv_sw_on(sw, anim);
 181:..\..\..\lvgl\version_6.1.2\lvgl\src\lv_objx/lv_sw.c **** 
 182:..\..\..\lvgl\version_6.1.2\lvgl\src\lv_objx/lv_sw.c ****     return !state;
 183:..\..\..\lvgl\version_6.1.2\lvgl\src\lv_objx/lv_sw.c **** }
 184:..\..\..\lvgl\version_6.1.2\lvgl\src\lv_objx/lv_sw.c **** 
 185:..\..\..\lvgl\version_6.1.2\lvgl\src\lv_objx/lv_sw.c **** /**
 186:..\..\..\lvgl\version_6.1.2\lvgl\src\lv_objx/lv_sw.c ****  * Set a style of a switch
 187:..\..\..\lvgl\version_6.1.2\lvgl\src\lv_objx/lv_sw.c ****  * @param sw pointer to a switch object
 188:..\..\..\lvgl\version_6.1.2\lvgl\src\lv_objx/lv_sw.c ****  * @param type which style should be set
 189:..\..\..\lvgl\version_6.1.2\lvgl\src\lv_objx/lv_sw.c ****  * @param style pointer to a style
 190:..\..\..\lvgl\version_6.1.2\lvgl\src\lv_objx/lv_sw.c ****  */
 191:..\..\..\lvgl\version_6.1.2\lvgl\src\lv_objx/lv_sw.c **** void lv_sw_set_style(lv_obj_t * sw, lv_sw_style_t type, const lv_style_t * style)
 192:..\..\..\lvgl\version_6.1.2\lvgl\src\lv_objx/lv_sw.c **** {
 193:..\..\..\lvgl\version_6.1.2\lvgl\src\lv_objx/lv_sw.c ****     LV_ASSERT_OBJ(sw, LV_OBJX_NAME);
 194:..\..\..\lvgl\version_6.1.2\lvgl\src\lv_objx/lv_sw.c **** 
 195:..\..\..\lvgl\version_6.1.2\lvgl\src\lv_objx/lv_sw.c ****     lv_sw_ext_t * ext = lv_obj_get_ext_attr(sw);
 196:..\..\..\lvgl\version_6.1.2\lvgl\src\lv_objx/lv_sw.c **** 
 197:..\..\..\lvgl\version_6.1.2\lvgl\src\lv_objx/lv_sw.c ****     switch(type) {
 198:..\..\..\lvgl\version_6.1.2\lvgl\src\lv_objx/lv_sw.c ****         case LV_SLIDER_STYLE_BG: lv_slider_set_style(sw, LV_SLIDER_STYLE_BG, style); break;
 199:..\..\..\lvgl\version_6.1.2\lvgl\src\lv_objx/lv_sw.c ****         case LV_SLIDER_STYLE_INDIC: lv_bar_set_style(sw, LV_SLIDER_STYLE_INDIC, style); break;
 200:..\..\..\lvgl\version_6.1.2\lvgl\src\lv_objx/lv_sw.c ****         case LV_SW_STYLE_KNOB_OFF:
 201:..\..\..\lvgl\version_6.1.2\lvgl\src\lv_objx/lv_sw.c ****             ext->style_knob_off = style;
ARM GAS  C:\Users\pearlstl\AppData\Local\Temp\ccxJ2nMb.s 			page 5


 202:..\..\..\lvgl\version_6.1.2\lvgl\src\lv_objx/lv_sw.c ****             if(lv_sw_get_state(sw) == 0) lv_slider_set_style(sw, LV_SLIDER_STYLE_KNOB, style);
 203:..\..\..\lvgl\version_6.1.2\lvgl\src\lv_objx/lv_sw.c ****             break;
 204:..\..\..\lvgl\version_6.1.2\lvgl\src\lv_objx/lv_sw.c ****         case LV_SW_STYLE_KNOB_ON:
 205:..\..\..\lvgl\version_6.1.2\lvgl\src\lv_objx/lv_sw.c ****             ext->style_knob_on = style;
 206:..\..\..\lvgl\version_6.1.2\lvgl\src\lv_objx/lv_sw.c ****             if(lv_sw_get_state(sw) != 0) lv_slider_set_style(sw, LV_SLIDER_STYLE_KNOB, style);
 207:..\..\..\lvgl\version_6.1.2\lvgl\src\lv_objx/lv_sw.c ****             break;
 208:..\..\..\lvgl\version_6.1.2\lvgl\src\lv_objx/lv_sw.c ****     }
 209:..\..\..\lvgl\version_6.1.2\lvgl\src\lv_objx/lv_sw.c **** }
 210:..\..\..\lvgl\version_6.1.2\lvgl\src\lv_objx/lv_sw.c **** 
 211:..\..\..\lvgl\version_6.1.2\lvgl\src\lv_objx/lv_sw.c **** void lv_sw_set_anim_time(lv_obj_t * sw, uint16_t anim_time)
 212:..\..\..\lvgl\version_6.1.2\lvgl\src\lv_objx/lv_sw.c **** {
 213:..\..\..\lvgl\version_6.1.2\lvgl\src\lv_objx/lv_sw.c ****     LV_ASSERT_OBJ(sw, LV_OBJX_NAME);
 214:..\..\..\lvgl\version_6.1.2\lvgl\src\lv_objx/lv_sw.c **** 
 215:..\..\..\lvgl\version_6.1.2\lvgl\src\lv_objx/lv_sw.c **** #if LV_USE_ANIMATION
 216:..\..\..\lvgl\version_6.1.2\lvgl\src\lv_objx/lv_sw.c ****     lv_sw_ext_t * ext = lv_obj_get_ext_attr(sw);
 217:..\..\..\lvgl\version_6.1.2\lvgl\src\lv_objx/lv_sw.c ****     ext->anim_time    = anim_time;
 218:..\..\..\lvgl\version_6.1.2\lvgl\src\lv_objx/lv_sw.c **** #else
 219:..\..\..\lvgl\version_6.1.2\lvgl\src\lv_objx/lv_sw.c ****     (void)sw;
 220:..\..\..\lvgl\version_6.1.2\lvgl\src\lv_objx/lv_sw.c ****     (void)anim_time;
 221:..\..\..\lvgl\version_6.1.2\lvgl\src\lv_objx/lv_sw.c **** #endif
 222:..\..\..\lvgl\version_6.1.2\lvgl\src\lv_objx/lv_sw.c **** }
 223:..\..\..\lvgl\version_6.1.2\lvgl\src\lv_objx/lv_sw.c **** 
 224:..\..\..\lvgl\version_6.1.2\lvgl\src\lv_objx/lv_sw.c **** /*=====================
 225:..\..\..\lvgl\version_6.1.2\lvgl\src\lv_objx/lv_sw.c ****  * Getter functions
 226:..\..\..\lvgl\version_6.1.2\lvgl\src\lv_objx/lv_sw.c ****  *====================*/
 227:..\..\..\lvgl\version_6.1.2\lvgl\src\lv_objx/lv_sw.c **** 
 228:..\..\..\lvgl\version_6.1.2\lvgl\src\lv_objx/lv_sw.c **** /**
 229:..\..\..\lvgl\version_6.1.2\lvgl\src\lv_objx/lv_sw.c ****  * Get a style of a switch
 230:..\..\..\lvgl\version_6.1.2\lvgl\src\lv_objx/lv_sw.c ****  * @param sw pointer to a  switch object
 231:..\..\..\lvgl\version_6.1.2\lvgl\src\lv_objx/lv_sw.c ****  * @param type which style should be get
 232:..\..\..\lvgl\version_6.1.2\lvgl\src\lv_objx/lv_sw.c ****  * @return style pointer to a style
 233:..\..\..\lvgl\version_6.1.2\lvgl\src\lv_objx/lv_sw.c ****  */
 234:..\..\..\lvgl\version_6.1.2\lvgl\src\lv_objx/lv_sw.c **** const lv_style_t * lv_sw_get_style(const lv_obj_t * sw, lv_sw_style_t type)
 235:..\..\..\lvgl\version_6.1.2\lvgl\src\lv_objx/lv_sw.c **** {
 236:..\..\..\lvgl\version_6.1.2\lvgl\src\lv_objx/lv_sw.c ****     LV_ASSERT_OBJ(sw, LV_OBJX_NAME);
 237:..\..\..\lvgl\version_6.1.2\lvgl\src\lv_objx/lv_sw.c **** 
 238:..\..\..\lvgl\version_6.1.2\lvgl\src\lv_objx/lv_sw.c ****     const lv_style_t * style = NULL;
 239:..\..\..\lvgl\version_6.1.2\lvgl\src\lv_objx/lv_sw.c ****     lv_sw_ext_t * ext        = lv_obj_get_ext_attr(sw);
 240:..\..\..\lvgl\version_6.1.2\lvgl\src\lv_objx/lv_sw.c **** 
 241:..\..\..\lvgl\version_6.1.2\lvgl\src\lv_objx/lv_sw.c ****     switch(type) {
 242:..\..\..\lvgl\version_6.1.2\lvgl\src\lv_objx/lv_sw.c ****         case LV_SW_STYLE_BG: style = lv_slider_get_style(sw, LV_SLIDER_STYLE_BG); break;
 243:..\..\..\lvgl\version_6.1.2\lvgl\src\lv_objx/lv_sw.c ****         case LV_SW_STYLE_INDIC: style = lv_slider_get_style(sw, LV_SLIDER_STYLE_INDIC); break;
 244:..\..\..\lvgl\version_6.1.2\lvgl\src\lv_objx/lv_sw.c ****         case LV_SW_STYLE_KNOB_OFF: style = ext->style_knob_off; break;
 245:..\..\..\lvgl\version_6.1.2\lvgl\src\lv_objx/lv_sw.c ****         case LV_SW_STYLE_KNOB_ON: style = ext->style_knob_on; break;
 246:..\..\..\lvgl\version_6.1.2\lvgl\src\lv_objx/lv_sw.c ****         default: style = NULL; break;
 247:..\..\..\lvgl\version_6.1.2\lvgl\src\lv_objx/lv_sw.c ****     }
 248:..\..\..\lvgl\version_6.1.2\lvgl\src\lv_objx/lv_sw.c **** 
 249:..\..\..\lvgl\version_6.1.2\lvgl\src\lv_objx/lv_sw.c ****     return style;
 250:..\..\..\lvgl\version_6.1.2\lvgl\src\lv_objx/lv_sw.c **** }
 251:..\..\..\lvgl\version_6.1.2\lvgl\src\lv_objx/lv_sw.c **** 
 252:..\..\..\lvgl\version_6.1.2\lvgl\src\lv_objx/lv_sw.c **** uint16_t lv_sw_get_anim_time(const lv_obj_t * sw)
 253:..\..\..\lvgl\version_6.1.2\lvgl\src\lv_objx/lv_sw.c **** {
 254:..\..\..\lvgl\version_6.1.2\lvgl\src\lv_objx/lv_sw.c ****     LV_ASSERT_OBJ(sw, LV_OBJX_NAME);
 255:..\..\..\lvgl\version_6.1.2\lvgl\src\lv_objx/lv_sw.c **** 
 256:..\..\..\lvgl\version_6.1.2\lvgl\src\lv_objx/lv_sw.c **** #if LV_USE_ANIMATION
 257:..\..\..\lvgl\version_6.1.2\lvgl\src\lv_objx/lv_sw.c ****     lv_sw_ext_t * ext = lv_obj_get_ext_attr(sw);
 258:..\..\..\lvgl\version_6.1.2\lvgl\src\lv_objx/lv_sw.c ****     return ext->anim_time;
ARM GAS  C:\Users\pearlstl\AppData\Local\Temp\ccxJ2nMb.s 			page 6


 259:..\..\..\lvgl\version_6.1.2\lvgl\src\lv_objx/lv_sw.c **** #else
 260:..\..\..\lvgl\version_6.1.2\lvgl\src\lv_objx/lv_sw.c ****     (void)sw; /*Unused*/
 261:..\..\..\lvgl\version_6.1.2\lvgl\src\lv_objx/lv_sw.c ****     return 0;
 262:..\..\..\lvgl\version_6.1.2\lvgl\src\lv_objx/lv_sw.c **** #endif
 263:..\..\..\lvgl\version_6.1.2\lvgl\src\lv_objx/lv_sw.c **** }
 264:..\..\..\lvgl\version_6.1.2\lvgl\src\lv_objx/lv_sw.c **** 
 265:..\..\..\lvgl\version_6.1.2\lvgl\src\lv_objx/lv_sw.c **** /**********************
 266:..\..\..\lvgl\version_6.1.2\lvgl\src\lv_objx/lv_sw.c ****  *   STATIC FUNCTIONS
 267:..\..\..\lvgl\version_6.1.2\lvgl\src\lv_objx/lv_sw.c ****  **********************/
 268:..\..\..\lvgl\version_6.1.2\lvgl\src\lv_objx/lv_sw.c **** 
 269:..\..\..\lvgl\version_6.1.2\lvgl\src\lv_objx/lv_sw.c **** /**
 270:..\..\..\lvgl\version_6.1.2\lvgl\src\lv_objx/lv_sw.c ****  * Signal function of the switch
 271:..\..\..\lvgl\version_6.1.2\lvgl\src\lv_objx/lv_sw.c ****  * @param sw pointer to a switch object
 272:..\..\..\lvgl\version_6.1.2\lvgl\src\lv_objx/lv_sw.c ****  * @param sign a signal type from lv_signal_t enum
 273:..\..\..\lvgl\version_6.1.2\lvgl\src\lv_objx/lv_sw.c ****  * @param param pointer to a signal specific variable
 274:..\..\..\lvgl\version_6.1.2\lvgl\src\lv_objx/lv_sw.c ****  * @return LV_RES_OK: the object is not deleted in the function; LV_RES_INV: the object is deleted
 275:..\..\..\lvgl\version_6.1.2\lvgl\src\lv_objx/lv_sw.c ****  */
 276:..\..\..\lvgl\version_6.1.2\lvgl\src\lv_objx/lv_sw.c **** static lv_res_t lv_sw_signal(lv_obj_t * sw, lv_signal_t sign, void * param)
 277:..\..\..\lvgl\version_6.1.2\lvgl\src\lv_objx/lv_sw.c **** {
  28              		.loc 1 277 0
  29              		.cfi_startproc
  30              		@ args = 0, pretend = 0, frame = 8
  31              		@ frame_needed = 0, uses_anonymous_args = 0
  32              	.LVL0:
  33 0000 2DE9F047 		push	{r4, r5, r6, r7, r8, r9, r10, lr}
  34              		.cfi_def_cfa_offset 32
  35              		.cfi_offset 4, -32
  36              		.cfi_offset 5, -28
  37              		.cfi_offset 6, -24
  38              		.cfi_offset 7, -20
  39              		.cfi_offset 8, -16
  40              		.cfi_offset 9, -12
  41              		.cfi_offset 10, -8
  42              		.cfi_offset 14, -4
 278:..\..\..\lvgl\version_6.1.2\lvgl\src\lv_objx/lv_sw.c ****     lv_res_t res;
 279:..\..\..\lvgl\version_6.1.2\lvgl\src\lv_objx/lv_sw.c ****     if(sign == LV_SIGNAL_GET_TYPE) {
  43              		.loc 1 279 0
  44 0004 0729     		cmp	r1, #7
 277:..\..\..\lvgl\version_6.1.2\lvgl\src\lv_objx/lv_sw.c ****     lv_res_t res;
  45              		.loc 1 277 0
  46 0006 82B0     		sub	sp, sp, #8
  47              		.cfi_def_cfa_offset 40
 277:..\..\..\lvgl\version_6.1.2\lvgl\src\lv_objx/lv_sw.c ****     lv_res_t res;
  48              		.loc 1 277 0
  49 0008 1746     		mov	r7, r2
  50              		.loc 1 279 0
  51 000a 3BD0     		beq	.L57
  52 000c 0D46     		mov	r5, r1
  53 000e 0646     		mov	r6, r0
 280:..\..\..\lvgl\version_6.1.2\lvgl\src\lv_objx/lv_sw.c ****         res = ancestor_signal(sw, sign, param);
 281:..\..\..\lvgl\version_6.1.2\lvgl\src\lv_objx/lv_sw.c ****         if(res != LV_RES_OK) return res;
 282:..\..\..\lvgl\version_6.1.2\lvgl\src\lv_objx/lv_sw.c ****         return lv_obj_handle_get_type_signal(param, LV_OBJX_NAME);
 283:..\..\..\lvgl\version_6.1.2\lvgl\src\lv_objx/lv_sw.c ****     }
 284:..\..\..\lvgl\version_6.1.2\lvgl\src\lv_objx/lv_sw.c **** 
 285:..\..\..\lvgl\version_6.1.2\lvgl\src\lv_objx/lv_sw.c ****     lv_sw_ext_t * ext = lv_obj_get_ext_attr(sw);
  54              		.loc 1 285 0
  55 0010 FFF7FEFF 		bl	lv_obj_get_ext_attr
ARM GAS  C:\Users\pearlstl\AppData\Local\Temp\ccxJ2nMb.s 			page 7


  56              	.LVL1:
 286:..\..\..\lvgl\version_6.1.2\lvgl\src\lv_objx/lv_sw.c **** 
 287:..\..\..\lvgl\version_6.1.2\lvgl\src\lv_objx/lv_sw.c ****     /*Save the current (old) value before slider signal modifies it. It will be required in the
 288:..\..\..\lvgl\version_6.1.2\lvgl\src\lv_objx/lv_sw.c ****      * later calculations*/
 289:..\..\..\lvgl\version_6.1.2\lvgl\src\lv_objx/lv_sw.c ****     int16_t old_val;
 290:..\..\..\lvgl\version_6.1.2\lvgl\src\lv_objx/lv_sw.c ****     if(sign == LV_SIGNAL_PRESSING)
  57              		.loc 1 290 0
  58 0014 092D     		cmp	r5, #9
 285:..\..\..\lvgl\version_6.1.2\lvgl\src\lv_objx/lv_sw.c **** 
  59              		.loc 1 285 0
  60 0016 8046     		mov	r8, r0
  61              	.LVL2:
  62              		.loc 1 290 0
  63 0018 23D0     		beq	.L58
 291:..\..\..\lvgl\version_6.1.2\lvgl\src\lv_objx/lv_sw.c ****         old_val = ext->slider.drag_value;
 292:..\..\..\lvgl\version_6.1.2\lvgl\src\lv_objx/lv_sw.c ****     else
 293:..\..\..\lvgl\version_6.1.2\lvgl\src\lv_objx/lv_sw.c ****         old_val = lv_slider_get_value(sw);
  64              		.loc 1 293 0
  65 001a 3046     		mov	r0, r6
  66              	.LVL3:
  67 001c FFF7FEFF 		bl	lv_slider_get_value
  68              	.LVL4:
 294:..\..\..\lvgl\version_6.1.2\lvgl\src\lv_objx/lv_sw.c **** 
 295:..\..\..\lvgl\version_6.1.2\lvgl\src\lv_objx/lv_sw.c ****     /*Don't let the slider to call the action. Switch handles it differently*/
 296:..\..\..\lvgl\version_6.1.2\lvgl\src\lv_objx/lv_sw.c ****     lv_event_cb_t event_cb = sw->event_cb;
 297:..\..\..\lvgl\version_6.1.2\lvgl\src\lv_objx/lv_sw.c ****     sw->event_cb           = NULL;
 298:..\..\..\lvgl\version_6.1.2\lvgl\src\lv_objx/lv_sw.c **** 
 299:..\..\..\lvgl\version_6.1.2\lvgl\src\lv_objx/lv_sw.c ****     /* Include the ancient signal function */
 300:..\..\..\lvgl\version_6.1.2\lvgl\src\lv_objx/lv_sw.c ****     res = ancestor_signal(sw, sign, param);
  69              		.loc 1 300 0
  70 0020 9A4B     		ldr	r3, .L67
 296:..\..\..\lvgl\version_6.1.2\lvgl\src\lv_objx/lv_sw.c ****     sw->event_cb           = NULL;
  71              		.loc 1 296 0
  72 0022 D6F818A0 		ldr	r10, [r6, #24]
  73              	.LVL5:
  74              		.loc 1 300 0
  75 0026 1B68     		ldr	r3, [r3]
 297:..\..\..\lvgl\version_6.1.2\lvgl\src\lv_objx/lv_sw.c **** 
  76              		.loc 1 297 0
  77 0028 4FF00009 		mov	r9, #0
  78 002c C6F81890 		str	r9, [r6, #24]
  79              		.loc 1 300 0
  80 0030 3A46     		mov	r2, r7
  81 0032 2946     		mov	r1, r5
  82 0034 3046     		mov	r0, r6
  83 0036 9847     		blx	r3
  84              	.LVL6:
 301:..\..\..\lvgl\version_6.1.2\lvgl\src\lv_objx/lv_sw.c ****     if(res != LV_RES_OK) return res;
  85              		.loc 1 301 0
  86 0038 0128     		cmp	r0, #1
 300:..\..\..\lvgl\version_6.1.2\lvgl\src\lv_objx/lv_sw.c ****     if(res != LV_RES_OK) return res;
  87              		.loc 1 300 0
  88 003a 0446     		mov	r4, r0
  89              	.LVL7:
  90              		.loc 1 301 0
  91 003c 1FD1     		bne	.L48
 302:..\..\..\lvgl\version_6.1.2\lvgl\src\lv_objx/lv_sw.c **** 
ARM GAS  C:\Users\pearlstl\AppData\Local\Temp\ccxJ2nMb.s 			page 8


 303:..\..\..\lvgl\version_6.1.2\lvgl\src\lv_objx/lv_sw.c ****     sw->event_cb = event_cb;
  92              		.loc 1 303 0
  93 003e C6F818A0 		str	r10, [r6, #24]
 304:..\..\..\lvgl\version_6.1.2\lvgl\src\lv_objx/lv_sw.c **** 
 305:..\..\..\lvgl\version_6.1.2\lvgl\src\lv_objx/lv_sw.c ****     if(sign == LV_SIGNAL_CLEANUP) {
  94              		.loc 1 305 0
  95 0042 55B1     		cbz	r5, .L52
 306:..\..\..\lvgl\version_6.1.2\lvgl\src\lv_objx/lv_sw.c ****         /*Nothing to cleanup. (No dynamically allocated memory in 'ext')*/
 307:..\..\..\lvgl\version_6.1.2\lvgl\src\lv_objx/lv_sw.c ****     } else if(sign == LV_SIGNAL_PRESSED) {
  96              		.loc 1 307 0
  97 0044 082D     		cmp	r5, #8
  98 0046 4BD0     		beq	.L59
 308:..\..\..\lvgl\version_6.1.2\lvgl\src\lv_objx/lv_sw.c **** 
 309:..\..\..\lvgl\version_6.1.2\lvgl\src\lv_objx/lv_sw.c ****         /*Save the x coordinate of the pressed point to see if the switch was slid*/
 310:..\..\..\lvgl\version_6.1.2\lvgl\src\lv_objx/lv_sw.c ****         lv_indev_t * indev = lv_indev_get_act();
 311:..\..\..\lvgl\version_6.1.2\lvgl\src\lv_objx/lv_sw.c ****         if(indev) {
 312:..\..\..\lvgl\version_6.1.2\lvgl\src\lv_objx/lv_sw.c ****             lv_point_t p;
 313:..\..\..\lvgl\version_6.1.2\lvgl\src\lv_objx/lv_sw.c ****             lv_indev_get_point(indev, &p);
 314:..\..\..\lvgl\version_6.1.2\lvgl\src\lv_objx/lv_sw.c ****             ext->start_x = p.x;
 315:..\..\..\lvgl\version_6.1.2\lvgl\src\lv_objx/lv_sw.c ****         }
 316:..\..\..\lvgl\version_6.1.2\lvgl\src\lv_objx/lv_sw.c ****         ext->slided  = 0;
 317:..\..\..\lvgl\version_6.1.2\lvgl\src\lv_objx/lv_sw.c ****         ext->changed = 0;
 318:..\..\..\lvgl\version_6.1.2\lvgl\src\lv_objx/lv_sw.c ****     } else if(sign == LV_SIGNAL_PRESSING) {
 319:..\..\..\lvgl\version_6.1.2\lvgl\src\lv_objx/lv_sw.c ****         /*See if the switch was slid (moved at least a little)*/
 320:..\..\..\lvgl\version_6.1.2\lvgl\src\lv_objx/lv_sw.c ****         lv_indev_t * indev = lv_indev_get_act();
 321:..\..\..\lvgl\version_6.1.2\lvgl\src\lv_objx/lv_sw.c ****         if(indev) {
 322:..\..\..\lvgl\version_6.1.2\lvgl\src\lv_objx/lv_sw.c ****             lv_point_t p = {0, 0};
 323:..\..\..\lvgl\version_6.1.2\lvgl\src\lv_objx/lv_sw.c ****             lv_indev_get_point(indev, &p);
 324:..\..\..\lvgl\version_6.1.2\lvgl\src\lv_objx/lv_sw.c ****             if(LV_MATH_ABS(p.x - ext->start_x) > LV_INDEV_DEF_DRAG_LIMIT) ext->slided = 1;
 325:..\..\..\lvgl\version_6.1.2\lvgl\src\lv_objx/lv_sw.c ****         }
 326:..\..\..\lvgl\version_6.1.2\lvgl\src\lv_objx/lv_sw.c **** 
 327:..\..\..\lvgl\version_6.1.2\lvgl\src\lv_objx/lv_sw.c ****         /*If didn't slide then revert the min/max value. So click without slide won't move the
 328:..\..\..\lvgl\version_6.1.2\lvgl\src\lv_objx/lv_sw.c ****          * switch as a slider*/
 329:..\..\..\lvgl\version_6.1.2\lvgl\src\lv_objx/lv_sw.c ****         if(ext->slided == 0) {
 330:..\..\..\lvgl\version_6.1.2\lvgl\src\lv_objx/lv_sw.c ****             if(lv_sw_get_state(sw))
 331:..\..\..\lvgl\version_6.1.2\lvgl\src\lv_objx/lv_sw.c ****                 ext->slider.drag_value = LV_SW_MAX_VALUE;
 332:..\..\..\lvgl\version_6.1.2\lvgl\src\lv_objx/lv_sw.c ****             else
 333:..\..\..\lvgl\version_6.1.2\lvgl\src\lv_objx/lv_sw.c ****                 ext->slider.drag_value = 0;
 334:..\..\..\lvgl\version_6.1.2\lvgl\src\lv_objx/lv_sw.c ****         }
 335:..\..\..\lvgl\version_6.1.2\lvgl\src\lv_objx/lv_sw.c **** 
 336:..\..\..\lvgl\version_6.1.2\lvgl\src\lv_objx/lv_sw.c ****         /*If explicitly changed (by slide) don't need to be toggled on release*/
 337:..\..\..\lvgl\version_6.1.2\lvgl\src\lv_objx/lv_sw.c ****         int16_t threshold = LV_SW_MAX_VALUE / 2;
 338:..\..\..\lvgl\version_6.1.2\lvgl\src\lv_objx/lv_sw.c ****         if((old_val < threshold && ext->slider.drag_value > threshold) ||
 339:..\..\..\lvgl\version_6.1.2\lvgl\src\lv_objx/lv_sw.c ****            (old_val > threshold && ext->slider.drag_value < threshold)) {
 340:..\..\..\lvgl\version_6.1.2\lvgl\src\lv_objx/lv_sw.c ****             ext->changed = 1;
 341:..\..\..\lvgl\version_6.1.2\lvgl\src\lv_objx/lv_sw.c ****         }
 342:..\..\..\lvgl\version_6.1.2\lvgl\src\lv_objx/lv_sw.c ****     } else if(sign == LV_SIGNAL_PRESS_LOST) {
  99              		.loc 1 342 0
 100 0048 0A2D     		cmp	r5, #10
 101 004a 00F0AA80 		beq	.L60
 343:..\..\..\lvgl\version_6.1.2\lvgl\src\lv_objx/lv_sw.c ****         if(lv_sw_get_state(sw)) {
 344:..\..\..\lvgl\version_6.1.2\lvgl\src\lv_objx/lv_sw.c ****             lv_slider_set_style(sw, LV_SLIDER_STYLE_KNOB, ext->style_knob_on);
 345:..\..\..\lvgl\version_6.1.2\lvgl\src\lv_objx/lv_sw.c ****             lv_slider_set_value(sw, LV_SW_MAX_VALUE, LV_ANIM_ON);
 346:..\..\..\lvgl\version_6.1.2\lvgl\src\lv_objx/lv_sw.c ****             if(res != LV_RES_OK) return res;
 347:..\..\..\lvgl\version_6.1.2\lvgl\src\lv_objx/lv_sw.c ****         } else {
 348:..\..\..\lvgl\version_6.1.2\lvgl\src\lv_objx/lv_sw.c ****             lv_slider_set_style(sw, LV_SLIDER_STYLE_KNOB, ext->style_knob_off);
 349:..\..\..\lvgl\version_6.1.2\lvgl\src\lv_objx/lv_sw.c ****             lv_slider_set_value(sw, 0, LV_ANIM_ON);
ARM GAS  C:\Users\pearlstl\AppData\Local\Temp\ccxJ2nMb.s 			page 9


 350:..\..\..\lvgl\version_6.1.2\lvgl\src\lv_objx/lv_sw.c ****             if(res != LV_RES_OK) return res;
 351:..\..\..\lvgl\version_6.1.2\lvgl\src\lv_objx/lv_sw.c ****         }
 352:..\..\..\lvgl\version_6.1.2\lvgl\src\lv_objx/lv_sw.c ****     } else if(sign == LV_SIGNAL_RELEASED) {
 102              		.loc 1 352 0
 103 004e 0B2D     		cmp	r5, #11
 104 0050 25D0     		beq	.L61
 353:..\..\..\lvgl\version_6.1.2\lvgl\src\lv_objx/lv_sw.c ****         /*If not dragged then toggle the switch*/
 354:..\..\..\lvgl\version_6.1.2\lvgl\src\lv_objx/lv_sw.c ****         if(ext->changed == 0) {
 355:..\..\..\lvgl\version_6.1.2\lvgl\src\lv_objx/lv_sw.c ****             int32_t state;
 356:..\..\..\lvgl\version_6.1.2\lvgl\src\lv_objx/lv_sw.c ****             if(lv_sw_get_state(sw)) {
 357:..\..\..\lvgl\version_6.1.2\lvgl\src\lv_objx/lv_sw.c ****                 lv_sw_off(sw, LV_ANIM_ON);
 358:..\..\..\lvgl\version_6.1.2\lvgl\src\lv_objx/lv_sw.c ****                 state = 0;
 359:..\..\..\lvgl\version_6.1.2\lvgl\src\lv_objx/lv_sw.c ****             } else {
 360:..\..\..\lvgl\version_6.1.2\lvgl\src\lv_objx/lv_sw.c ****                 lv_sw_on(sw, LV_ANIM_ON);
 361:..\..\..\lvgl\version_6.1.2\lvgl\src\lv_objx/lv_sw.c ****                 state = 1;
 362:..\..\..\lvgl\version_6.1.2\lvgl\src\lv_objx/lv_sw.c ****             }
 363:..\..\..\lvgl\version_6.1.2\lvgl\src\lv_objx/lv_sw.c **** 
 364:..\..\..\lvgl\version_6.1.2\lvgl\src\lv_objx/lv_sw.c ****             res = lv_event_send(sw, LV_EVENT_VALUE_CHANGED, &state);
 365:..\..\..\lvgl\version_6.1.2\lvgl\src\lv_objx/lv_sw.c ****             if(res != LV_RES_OK) return res;
 366:..\..\..\lvgl\version_6.1.2\lvgl\src\lv_objx/lv_sw.c ****         }
 367:..\..\..\lvgl\version_6.1.2\lvgl\src\lv_objx/lv_sw.c ****         /*If the switch was dragged then calculate the new state based on the current position*/
 368:..\..\..\lvgl\version_6.1.2\lvgl\src\lv_objx/lv_sw.c ****         else {
 369:..\..\..\lvgl\version_6.1.2\lvgl\src\lv_objx/lv_sw.c ****             int16_t v = lv_slider_get_value(sw);
 370:..\..\..\lvgl\version_6.1.2\lvgl\src\lv_objx/lv_sw.c ****             int32_t state;
 371:..\..\..\lvgl\version_6.1.2\lvgl\src\lv_objx/lv_sw.c ****             if(v > LV_SW_MAX_VALUE / 2) {
 372:..\..\..\lvgl\version_6.1.2\lvgl\src\lv_objx/lv_sw.c ****                 lv_sw_on(sw, LV_ANIM_ON);
 373:..\..\..\lvgl\version_6.1.2\lvgl\src\lv_objx/lv_sw.c ****                 state = 1;
 374:..\..\..\lvgl\version_6.1.2\lvgl\src\lv_objx/lv_sw.c ****             } else {
 375:..\..\..\lvgl\version_6.1.2\lvgl\src\lv_objx/lv_sw.c ****                 lv_sw_off(sw, LV_ANIM_ON);
 376:..\..\..\lvgl\version_6.1.2\lvgl\src\lv_objx/lv_sw.c ****                 state = 0;
 377:..\..\..\lvgl\version_6.1.2\lvgl\src\lv_objx/lv_sw.c ****             }
 378:..\..\..\lvgl\version_6.1.2\lvgl\src\lv_objx/lv_sw.c ****             res = lv_event_send(sw, LV_EVENT_VALUE_CHANGED, &state);
 379:..\..\..\lvgl\version_6.1.2\lvgl\src\lv_objx/lv_sw.c ****             if(res != LV_RES_OK) return res;
 380:..\..\..\lvgl\version_6.1.2\lvgl\src\lv_objx/lv_sw.c ****         }
 381:..\..\..\lvgl\version_6.1.2\lvgl\src\lv_objx/lv_sw.c ****     } else if(sign == LV_SIGNAL_CONTROL) {
 105              		.loc 1 381 0
 106 0052 122D     		cmp	r5, #18
 107 0054 57D0     		beq	.L62
 382:..\..\..\lvgl\version_6.1.2\lvgl\src\lv_objx/lv_sw.c ****         char c = *((char *)param);
 383:..\..\..\lvgl\version_6.1.2\lvgl\src\lv_objx/lv_sw.c ****         uint32_t state;
 384:..\..\..\lvgl\version_6.1.2\lvgl\src\lv_objx/lv_sw.c ****         if(c == LV_KEY_RIGHT || c == LV_KEY_UP) {
 385:..\..\..\lvgl\version_6.1.2\lvgl\src\lv_objx/lv_sw.c ****             lv_slider_set_value(sw, LV_SW_MAX_VALUE, true);
 386:..\..\..\lvgl\version_6.1.2\lvgl\src\lv_objx/lv_sw.c ****             state = 1;
 387:..\..\..\lvgl\version_6.1.2\lvgl\src\lv_objx/lv_sw.c ****             res   = lv_event_send(sw, LV_EVENT_VALUE_CHANGED, &state);
 388:..\..\..\lvgl\version_6.1.2\lvgl\src\lv_objx/lv_sw.c ****             if(res != LV_RES_OK) return res;
 389:..\..\..\lvgl\version_6.1.2\lvgl\src\lv_objx/lv_sw.c ****         } else if(c == LV_KEY_LEFT || c == LV_KEY_DOWN) {
 390:..\..\..\lvgl\version_6.1.2\lvgl\src\lv_objx/lv_sw.c ****             lv_slider_set_value(sw, 0, true);
 391:..\..\..\lvgl\version_6.1.2\lvgl\src\lv_objx/lv_sw.c ****             state = 0;
 392:..\..\..\lvgl\version_6.1.2\lvgl\src\lv_objx/lv_sw.c ****             res   = lv_event_send(sw, LV_EVENT_VALUE_CHANGED, &state);
 393:..\..\..\lvgl\version_6.1.2\lvgl\src\lv_objx/lv_sw.c ****             if(res != LV_RES_OK) return res;
 394:..\..\..\lvgl\version_6.1.2\lvgl\src\lv_objx/lv_sw.c ****         }
 395:..\..\..\lvgl\version_6.1.2\lvgl\src\lv_objx/lv_sw.c ****     } else if(sign == LV_SIGNAL_GET_EDITABLE) {
 108              		.loc 1 395 0
 109 0056 132D     		cmp	r5, #19
 110 0058 1ED0     		beq	.L63
 111              	.LVL8:
 112              	.L52:
ARM GAS  C:\Users\pearlstl\AppData\Local\Temp\ccxJ2nMb.s 			page 10


 113 005a 0120     		movs	r0, #1
 396:..\..\..\lvgl\version_6.1.2\lvgl\src\lv_objx/lv_sw.c ****         bool * editable = (bool *)param;
 397:..\..\..\lvgl\version_6.1.2\lvgl\src\lv_objx/lv_sw.c ****         *editable       = false; /*The ancestor slider is editable the switch is not*/
 398:..\..\..\lvgl\version_6.1.2\lvgl\src\lv_objx/lv_sw.c ****     }
 399:..\..\..\lvgl\version_6.1.2\lvgl\src\lv_objx/lv_sw.c **** 
 400:..\..\..\lvgl\version_6.1.2\lvgl\src\lv_objx/lv_sw.c ****     return res;
 401:..\..\..\lvgl\version_6.1.2\lvgl\src\lv_objx/lv_sw.c **** }
 114              		.loc 1 401 0
 115 005c 02B0     		add	sp, sp, #8
 116              		.cfi_remember_state
 117              		.cfi_def_cfa_offset 32
 118              		@ sp needed
 119 005e BDE8F087 		pop	{r4, r5, r6, r7, r8, r9, r10, pc}
 120              	.LVL9:
 121              	.L58:
 122              		.cfi_restore_state
 300:..\..\..\lvgl\version_6.1.2\lvgl\src\lv_objx/lv_sw.c ****     if(res != LV_RES_OK) return res;
 123              		.loc 1 300 0
 124 0062 8A4B     		ldr	r3, .L67
 291:..\..\..\lvgl\version_6.1.2\lvgl\src\lv_objx/lv_sw.c ****     else
 125              		.loc 1 291 0
 126 0064 B0F91890 		ldrsh	r9, [r0, #24]
 127              	.LVL10:
 296:..\..\..\lvgl\version_6.1.2\lvgl\src\lv_objx/lv_sw.c ****     sw->event_cb           = NULL;
 128              		.loc 1 296 0
 129 0068 D6F818A0 		ldr	r10, [r6, #24]
 130              	.LVL11:
 300:..\..\..\lvgl\version_6.1.2\lvgl\src\lv_objx/lv_sw.c ****     if(res != LV_RES_OK) return res;
 131              		.loc 1 300 0
 132 006c 1B68     		ldr	r3, [r3]
 297:..\..\..\lvgl\version_6.1.2\lvgl\src\lv_objx/lv_sw.c **** 
 133              		.loc 1 297 0
 134 006e 0024     		movs	r4, #0
 300:..\..\..\lvgl\version_6.1.2\lvgl\src\lv_objx/lv_sw.c ****     if(res != LV_RES_OK) return res;
 135              		.loc 1 300 0
 136 0070 3A46     		mov	r2, r7
 137 0072 2946     		mov	r1, r5
 297:..\..\..\lvgl\version_6.1.2\lvgl\src\lv_objx/lv_sw.c **** 
 138              		.loc 1 297 0
 139 0074 B461     		str	r4, [r6, #24]
 300:..\..\..\lvgl\version_6.1.2\lvgl\src\lv_objx/lv_sw.c ****     if(res != LV_RES_OK) return res;
 140              		.loc 1 300 0
 141 0076 3046     		mov	r0, r6
 142              	.LVL12:
 143 0078 9847     		blx	r3
 144              	.LVL13:
 301:..\..\..\lvgl\version_6.1.2\lvgl\src\lv_objx/lv_sw.c **** 
 145              		.loc 1 301 0
 146 007a 0128     		cmp	r0, #1
 147 007c 5DD0     		beq	.L64
 148              	.LVL14:
 149              	.L48:
 150              		.loc 1 401 0
 151 007e 02B0     		add	sp, sp, #8
 152              		.cfi_remember_state
 153              		.cfi_def_cfa_offset 32
 154              		@ sp needed
ARM GAS  C:\Users\pearlstl\AppData\Local\Temp\ccxJ2nMb.s 			page 11


 155 0080 BDE8F087 		pop	{r4, r5, r6, r7, r8, r9, r10, pc}
 156              	.LVL15:
 157              	.L57:
 158              		.cfi_restore_state
 280:..\..\..\lvgl\version_6.1.2\lvgl\src\lv_objx/lv_sw.c ****         if(res != LV_RES_OK) return res;
 159              		.loc 1 280 0
 160 0084 814B     		ldr	r3, .L67
 161 0086 1B68     		ldr	r3, [r3]
 162 0088 9847     		blx	r3
 163              	.LVL16:
 281:..\..\..\lvgl\version_6.1.2\lvgl\src\lv_objx/lv_sw.c ****         return lv_obj_handle_get_type_signal(param, LV_OBJX_NAME);
 164              		.loc 1 281 0
 165 008a 0128     		cmp	r0, #1
 166 008c F7D1     		bne	.L48
 282:..\..\..\lvgl\version_6.1.2\lvgl\src\lv_objx/lv_sw.c ****     }
 167              		.loc 1 282 0
 168 008e 3846     		mov	r0, r7
 169              	.LVL17:
 170 0090 7F49     		ldr	r1, .L67+4
 171 0092 FFF7FEFF 		bl	lv_obj_handle_get_type_signal
 172              	.LVL18:
 173 0096 F2E7     		b	.L48
 174              	.LVL19:
 175              	.L63:
 176              	.LBB78:
 397:..\..\..\lvgl\version_6.1.2\lvgl\src\lv_objx/lv_sw.c ****     }
 177              		.loc 1 397 0
 178 0098 87F80090 		strb	r9, [r7]
 179 009c EFE7     		b	.L48
 180              	.LVL20:
 181              	.L61:
 182              	.LBE78:
 354:..\..\..\lvgl\version_6.1.2\lvgl\src\lv_objx/lv_sw.c ****             int32_t state;
 183              		.loc 1 354 0
 184 009e 98F82630 		ldrb	r3, [r8, #38]	@ zero_extendqisi2
 185 00a2 13F00105 		ands	r5, r3, #1
 186              	.LBB79:
 187              	.LBB80:
 188              	.LBB81:
 189              		.file 2 "..\\..\\..\\lvgl\\version_6.1.2\\lvgl\\src\\lv_objx\\lv_sw.h"
   1:..\..\..\lvgl\version_6.1.2\lvgl\src\lv_objx/lv_sw.h **** /**
   2:..\..\..\lvgl\version_6.1.2\lvgl\src\lv_objx/lv_sw.h ****  * @file lv_sw.h
   3:..\..\..\lvgl\version_6.1.2\lvgl\src\lv_objx/lv_sw.h ****  *
   4:..\..\..\lvgl\version_6.1.2\lvgl\src\lv_objx/lv_sw.h ****  */
   5:..\..\..\lvgl\version_6.1.2\lvgl\src\lv_objx/lv_sw.h **** 
   6:..\..\..\lvgl\version_6.1.2\lvgl\src\lv_objx/lv_sw.h **** #ifndef LV_SW_H
   7:..\..\..\lvgl\version_6.1.2\lvgl\src\lv_objx/lv_sw.h **** #define LV_SW_H
   8:..\..\..\lvgl\version_6.1.2\lvgl\src\lv_objx/lv_sw.h **** 
   9:..\..\..\lvgl\version_6.1.2\lvgl\src\lv_objx/lv_sw.h **** #ifdef __cplusplus
  10:..\..\..\lvgl\version_6.1.2\lvgl\src\lv_objx/lv_sw.h **** extern "C" {
  11:..\..\..\lvgl\version_6.1.2\lvgl\src\lv_objx/lv_sw.h **** #endif
  12:..\..\..\lvgl\version_6.1.2\lvgl\src\lv_objx/lv_sw.h **** 
  13:..\..\..\lvgl\version_6.1.2\lvgl\src\lv_objx/lv_sw.h **** /*********************
  14:..\..\..\lvgl\version_6.1.2\lvgl\src\lv_objx/lv_sw.h ****  *      INCLUDES
  15:..\..\..\lvgl\version_6.1.2\lvgl\src\lv_objx/lv_sw.h ****  *********************/
  16:..\..\..\lvgl\version_6.1.2\lvgl\src\lv_objx/lv_sw.h **** #ifdef LV_CONF_INCLUDE_SIMPLE
  17:..\..\..\lvgl\version_6.1.2\lvgl\src\lv_objx/lv_sw.h **** #include "lv_conf.h"
ARM GAS  C:\Users\pearlstl\AppData\Local\Temp\ccxJ2nMb.s 			page 12


  18:..\..\..\lvgl\version_6.1.2\lvgl\src\lv_objx/lv_sw.h **** #else
  19:..\..\..\lvgl\version_6.1.2\lvgl\src\lv_objx/lv_sw.h **** #include "../../../lv_conf.h"
  20:..\..\..\lvgl\version_6.1.2\lvgl\src\lv_objx/lv_sw.h **** #endif
  21:..\..\..\lvgl\version_6.1.2\lvgl\src\lv_objx/lv_sw.h **** 
  22:..\..\..\lvgl\version_6.1.2\lvgl\src\lv_objx/lv_sw.h **** #if LV_USE_SW != 0
  23:..\..\..\lvgl\version_6.1.2\lvgl\src\lv_objx/lv_sw.h **** 
  24:..\..\..\lvgl\version_6.1.2\lvgl\src\lv_objx/lv_sw.h **** /*Testing of dependencies*/
  25:..\..\..\lvgl\version_6.1.2\lvgl\src\lv_objx/lv_sw.h **** #if LV_USE_SLIDER == 0
  26:..\..\..\lvgl\version_6.1.2\lvgl\src\lv_objx/lv_sw.h **** #error "lv_sw: lv_slider is required. Enable it in lv_conf.h (LV_USE_SLIDER  1)"
  27:..\..\..\lvgl\version_6.1.2\lvgl\src\lv_objx/lv_sw.h **** #endif
  28:..\..\..\lvgl\version_6.1.2\lvgl\src\lv_objx/lv_sw.h **** 
  29:..\..\..\lvgl\version_6.1.2\lvgl\src\lv_objx/lv_sw.h **** #include "../lv_core/lv_obj.h"
  30:..\..\..\lvgl\version_6.1.2\lvgl\src\lv_objx/lv_sw.h **** #include "lv_slider.h"
  31:..\..\..\lvgl\version_6.1.2\lvgl\src\lv_objx/lv_sw.h **** 
  32:..\..\..\lvgl\version_6.1.2\lvgl\src\lv_objx/lv_sw.h **** /*********************
  33:..\..\..\lvgl\version_6.1.2\lvgl\src\lv_objx/lv_sw.h ****  *      DEFINES
  34:..\..\..\lvgl\version_6.1.2\lvgl\src\lv_objx/lv_sw.h ****  *********************/
  35:..\..\..\lvgl\version_6.1.2\lvgl\src\lv_objx/lv_sw.h **** #define LV_SW_MAX_VALUE 100
  36:..\..\..\lvgl\version_6.1.2\lvgl\src\lv_objx/lv_sw.h **** 
  37:..\..\..\lvgl\version_6.1.2\lvgl\src\lv_objx/lv_sw.h **** /**********************
  38:..\..\..\lvgl\version_6.1.2\lvgl\src\lv_objx/lv_sw.h ****  *      TYPEDEFS
  39:..\..\..\lvgl\version_6.1.2\lvgl\src\lv_objx/lv_sw.h ****  **********************/
  40:..\..\..\lvgl\version_6.1.2\lvgl\src\lv_objx/lv_sw.h **** /*Data of switch*/
  41:..\..\..\lvgl\version_6.1.2\lvgl\src\lv_objx/lv_sw.h **** typedef struct
  42:..\..\..\lvgl\version_6.1.2\lvgl\src\lv_objx/lv_sw.h **** {
  43:..\..\..\lvgl\version_6.1.2\lvgl\src\lv_objx/lv_sw.h ****     lv_slider_ext_t slider; /*Ext. of ancestor*/
  44:..\..\..\lvgl\version_6.1.2\lvgl\src\lv_objx/lv_sw.h ****     /*New data for this type */
  45:..\..\..\lvgl\version_6.1.2\lvgl\src\lv_objx/lv_sw.h ****     const lv_style_t * style_knob_off; /**< Style of the knob when the switch is OFF*/
  46:..\..\..\lvgl\version_6.1.2\lvgl\src\lv_objx/lv_sw.h ****     const lv_style_t * style_knob_on;  /**< Style of the knob when the switch is ON (NULL to use th
  47:..\..\..\lvgl\version_6.1.2\lvgl\src\lv_objx/lv_sw.h ****     lv_coord_t start_x;
  48:..\..\..\lvgl\version_6.1.2\lvgl\src\lv_objx/lv_sw.h ****     uint8_t changed : 1; /*Indicates the switch state explicitly changed by drag*/
  49:..\..\..\lvgl\version_6.1.2\lvgl\src\lv_objx/lv_sw.h ****     uint8_t slided : 1;
  50:..\..\..\lvgl\version_6.1.2\lvgl\src\lv_objx/lv_sw.h **** #if LV_USE_ANIMATION
  51:..\..\..\lvgl\version_6.1.2\lvgl\src\lv_objx/lv_sw.h ****     uint16_t anim_time; /*switch animation time */
  52:..\..\..\lvgl\version_6.1.2\lvgl\src\lv_objx/lv_sw.h **** #endif
  53:..\..\..\lvgl\version_6.1.2\lvgl\src\lv_objx/lv_sw.h **** } lv_sw_ext_t;
  54:..\..\..\lvgl\version_6.1.2\lvgl\src\lv_objx/lv_sw.h **** 
  55:..\..\..\lvgl\version_6.1.2\lvgl\src\lv_objx/lv_sw.h **** /**
  56:..\..\..\lvgl\version_6.1.2\lvgl\src\lv_objx/lv_sw.h ****  * Switch styles.
  57:..\..\..\lvgl\version_6.1.2\lvgl\src\lv_objx/lv_sw.h ****  */
  58:..\..\..\lvgl\version_6.1.2\lvgl\src\lv_objx/lv_sw.h **** enum {
  59:..\..\..\lvgl\version_6.1.2\lvgl\src\lv_objx/lv_sw.h ****     LV_SW_STYLE_BG, /**< Switch background. */
  60:..\..\..\lvgl\version_6.1.2\lvgl\src\lv_objx/lv_sw.h ****     LV_SW_STYLE_INDIC, /**< Switch fill area. */
  61:..\..\..\lvgl\version_6.1.2\lvgl\src\lv_objx/lv_sw.h ****     LV_SW_STYLE_KNOB_OFF, /**< Switch knob (when off). */
  62:..\..\..\lvgl\version_6.1.2\lvgl\src\lv_objx/lv_sw.h ****     LV_SW_STYLE_KNOB_ON, /**< Switch knob (when on). */
  63:..\..\..\lvgl\version_6.1.2\lvgl\src\lv_objx/lv_sw.h **** };
  64:..\..\..\lvgl\version_6.1.2\lvgl\src\lv_objx/lv_sw.h **** typedef uint8_t lv_sw_style_t;
  65:..\..\..\lvgl\version_6.1.2\lvgl\src\lv_objx/lv_sw.h **** 
  66:..\..\..\lvgl\version_6.1.2\lvgl\src\lv_objx/lv_sw.h **** /**********************
  67:..\..\..\lvgl\version_6.1.2\lvgl\src\lv_objx/lv_sw.h ****  * GLOBAL PROTOTYPES
  68:..\..\..\lvgl\version_6.1.2\lvgl\src\lv_objx/lv_sw.h ****  **********************/
  69:..\..\..\lvgl\version_6.1.2\lvgl\src\lv_objx/lv_sw.h **** 
  70:..\..\..\lvgl\version_6.1.2\lvgl\src\lv_objx/lv_sw.h **** /**
  71:..\..\..\lvgl\version_6.1.2\lvgl\src\lv_objx/lv_sw.h ****  * Create a switch objects
  72:..\..\..\lvgl\version_6.1.2\lvgl\src\lv_objx/lv_sw.h ****  * @param par pointer to an object, it will be the parent of the new switch
  73:..\..\..\lvgl\version_6.1.2\lvgl\src\lv_objx/lv_sw.h ****  * @param copy pointer to a switch object, if not NULL then the new object will be copied from it
  74:..\..\..\lvgl\version_6.1.2\lvgl\src\lv_objx/lv_sw.h ****  * @return pointer to the created switch
ARM GAS  C:\Users\pearlstl\AppData\Local\Temp\ccxJ2nMb.s 			page 13


  75:..\..\..\lvgl\version_6.1.2\lvgl\src\lv_objx/lv_sw.h ****  */
  76:..\..\..\lvgl\version_6.1.2\lvgl\src\lv_objx/lv_sw.h **** lv_obj_t * lv_sw_create(lv_obj_t * par, const lv_obj_t * copy);
  77:..\..\..\lvgl\version_6.1.2\lvgl\src\lv_objx/lv_sw.h **** 
  78:..\..\..\lvgl\version_6.1.2\lvgl\src\lv_objx/lv_sw.h **** /*=====================
  79:..\..\..\lvgl\version_6.1.2\lvgl\src\lv_objx/lv_sw.h ****  * Setter functions
  80:..\..\..\lvgl\version_6.1.2\lvgl\src\lv_objx/lv_sw.h ****  *====================*/
  81:..\..\..\lvgl\version_6.1.2\lvgl\src\lv_objx/lv_sw.h **** 
  82:..\..\..\lvgl\version_6.1.2\lvgl\src\lv_objx/lv_sw.h **** /**
  83:..\..\..\lvgl\version_6.1.2\lvgl\src\lv_objx/lv_sw.h ****  * Turn ON the switch
  84:..\..\..\lvgl\version_6.1.2\lvgl\src\lv_objx/lv_sw.h ****  * @param sw pointer to a switch object
  85:..\..\..\lvgl\version_6.1.2\lvgl\src\lv_objx/lv_sw.h ****  * @param anim LV_ANIM_ON: set the value with an animation; LV_ANIM_OFF: change the value immediate
  86:..\..\..\lvgl\version_6.1.2\lvgl\src\lv_objx/lv_sw.h ****  */
  87:..\..\..\lvgl\version_6.1.2\lvgl\src\lv_objx/lv_sw.h **** void lv_sw_on(lv_obj_t * sw, lv_anim_enable_t anim);
  88:..\..\..\lvgl\version_6.1.2\lvgl\src\lv_objx/lv_sw.h **** 
  89:..\..\..\lvgl\version_6.1.2\lvgl\src\lv_objx/lv_sw.h **** /**
  90:..\..\..\lvgl\version_6.1.2\lvgl\src\lv_objx/lv_sw.h ****  * Turn OFF the switch
  91:..\..\..\lvgl\version_6.1.2\lvgl\src\lv_objx/lv_sw.h ****  * @param sw pointer to a switch object
  92:..\..\..\lvgl\version_6.1.2\lvgl\src\lv_objx/lv_sw.h ****  * @param anim LV_ANIM_ON: set the value with an animation; LV_ANIM_OFF: change the value immediate
  93:..\..\..\lvgl\version_6.1.2\lvgl\src\lv_objx/lv_sw.h ****  */
  94:..\..\..\lvgl\version_6.1.2\lvgl\src\lv_objx/lv_sw.h **** void lv_sw_off(lv_obj_t * sw, lv_anim_enable_t anim);
  95:..\..\..\lvgl\version_6.1.2\lvgl\src\lv_objx/lv_sw.h **** 
  96:..\..\..\lvgl\version_6.1.2\lvgl\src\lv_objx/lv_sw.h **** /**
  97:..\..\..\lvgl\version_6.1.2\lvgl\src\lv_objx/lv_sw.h ****  * Toggle the position of the switch
  98:..\..\..\lvgl\version_6.1.2\lvgl\src\lv_objx/lv_sw.h ****  * @param sw pointer to a switch object
  99:..\..\..\lvgl\version_6.1.2\lvgl\src\lv_objx/lv_sw.h ****  * @param anim LV_ANIM_ON: set the value with an animation; LV_ANIM_OFF: change the value immediate
 100:..\..\..\lvgl\version_6.1.2\lvgl\src\lv_objx/lv_sw.h ****  * @return resulting state of the switch.
 101:..\..\..\lvgl\version_6.1.2\lvgl\src\lv_objx/lv_sw.h ****  */
 102:..\..\..\lvgl\version_6.1.2\lvgl\src\lv_objx/lv_sw.h **** bool lv_sw_toggle(lv_obj_t * sw, lv_anim_enable_t anim);
 103:..\..\..\lvgl\version_6.1.2\lvgl\src\lv_objx/lv_sw.h **** 
 104:..\..\..\lvgl\version_6.1.2\lvgl\src\lv_objx/lv_sw.h **** /**
 105:..\..\..\lvgl\version_6.1.2\lvgl\src\lv_objx/lv_sw.h ****  * Set a style of a switch
 106:..\..\..\lvgl\version_6.1.2\lvgl\src\lv_objx/lv_sw.h ****  * @param sw pointer to a switch object
 107:..\..\..\lvgl\version_6.1.2\lvgl\src\lv_objx/lv_sw.h ****  * @param type which style should be set
 108:..\..\..\lvgl\version_6.1.2\lvgl\src\lv_objx/lv_sw.h ****  * @param style pointer to a style
 109:..\..\..\lvgl\version_6.1.2\lvgl\src\lv_objx/lv_sw.h ****  */
 110:..\..\..\lvgl\version_6.1.2\lvgl\src\lv_objx/lv_sw.h **** void lv_sw_set_style(lv_obj_t * sw, lv_sw_style_t type, const lv_style_t * style);
 111:..\..\..\lvgl\version_6.1.2\lvgl\src\lv_objx/lv_sw.h **** 
 112:..\..\..\lvgl\version_6.1.2\lvgl\src\lv_objx/lv_sw.h **** /**
 113:..\..\..\lvgl\version_6.1.2\lvgl\src\lv_objx/lv_sw.h ****  * Set the animation time of the switch
 114:..\..\..\lvgl\version_6.1.2\lvgl\src\lv_objx/lv_sw.h ****  * @param sw pointer to a  switch object
 115:..\..\..\lvgl\version_6.1.2\lvgl\src\lv_objx/lv_sw.h ****  * @param anim_time animation time
 116:..\..\..\lvgl\version_6.1.2\lvgl\src\lv_objx/lv_sw.h ****  * @return style pointer to a style
 117:..\..\..\lvgl\version_6.1.2\lvgl\src\lv_objx/lv_sw.h ****  */
 118:..\..\..\lvgl\version_6.1.2\lvgl\src\lv_objx/lv_sw.h **** void lv_sw_set_anim_time(lv_obj_t * sw, uint16_t anim_time);
 119:..\..\..\lvgl\version_6.1.2\lvgl\src\lv_objx/lv_sw.h **** 
 120:..\..\..\lvgl\version_6.1.2\lvgl\src\lv_objx/lv_sw.h **** /*=====================
 121:..\..\..\lvgl\version_6.1.2\lvgl\src\lv_objx/lv_sw.h ****  * Getter functions
 122:..\..\..\lvgl\version_6.1.2\lvgl\src\lv_objx/lv_sw.h ****  *====================*/
 123:..\..\..\lvgl\version_6.1.2\lvgl\src\lv_objx/lv_sw.h **** 
 124:..\..\..\lvgl\version_6.1.2\lvgl\src\lv_objx/lv_sw.h **** /**
 125:..\..\..\lvgl\version_6.1.2\lvgl\src\lv_objx/lv_sw.h ****  * Get the state of a switch
 126:..\..\..\lvgl\version_6.1.2\lvgl\src\lv_objx/lv_sw.h ****  * @param sw pointer to a switch object
 127:..\..\..\lvgl\version_6.1.2\lvgl\src\lv_objx/lv_sw.h ****  * @return false: OFF; true: ON
 128:..\..\..\lvgl\version_6.1.2\lvgl\src\lv_objx/lv_sw.h ****  */
 129:..\..\..\lvgl\version_6.1.2\lvgl\src\lv_objx/lv_sw.h **** static inline bool lv_sw_get_state(const lv_obj_t * sw)
 130:..\..\..\lvgl\version_6.1.2\lvgl\src\lv_objx/lv_sw.h **** {
 131:..\..\..\lvgl\version_6.1.2\lvgl\src\lv_objx/lv_sw.h ****     return lv_bar_get_value(sw) < LV_SW_MAX_VALUE / 2 ? false : true;
ARM GAS  C:\Users\pearlstl\AppData\Local\Temp\ccxJ2nMb.s 			page 14


 190              		.loc 2 131 0
 191 00a6 3046     		mov	r0, r6
 192              	.LVL21:
 193              	.LBE81:
 194              	.LBE80:
 195              	.LBE79:
 354:..\..\..\lvgl\version_6.1.2\lvgl\src\lv_objx/lv_sw.c ****             int32_t state;
 196              		.loc 1 354 0
 197 00a8 40F09C80 		bne	.L19
 198              	.LVL22:
 199              	.LBB90:
 200              	.LBB83:
 201              	.LBB82:
 202              		.loc 2 131 0
 203 00ac FFF7FEFF 		bl	lv_bar_get_value
 204              	.LVL23:
 205              	.LBE82:
 206              	.LBE83:
 356:..\..\..\lvgl\version_6.1.2\lvgl\src\lv_objx/lv_sw.c ****                 lv_sw_off(sw, LV_ANIM_ON);
 207              		.loc 1 356 0
 208 00b0 3128     		cmp	r0, #49
 209              	.LBB84:
 210              	.LBB85:
 157:..\..\..\lvgl\version_6.1.2\lvgl\src\lv_objx/lv_sw.c ****     lv_slider_set_value(sw, 0, anim);
 211              		.loc 1 157 0
 212 00b2 3046     		mov	r0, r6
 213              	.LBE85:
 214              	.LBE84:
 356:..\..\..\lvgl\version_6.1.2\lvgl\src\lv_objx/lv_sw.c ****                 lv_sw_off(sw, LV_ANIM_ON);
 215              		.loc 1 356 0
 216 00b4 40F38780 		ble	.L53
 217              	.LVL24:
 218              	.LBB89:
 219              	.LBB88:
 157:..\..\..\lvgl\version_6.1.2\lvgl\src\lv_objx/lv_sw.c ****     lv_slider_set_value(sw, 0, anim);
 220              		.loc 1 157 0
 221 00b8 FFF7FEFF 		bl	lv_obj_get_ext_attr
 222              	.LVL25:
 223 00bc 0746     		mov	r7, r0
 224              	.LVL26:
 225              	.LBB86:
 226              	.LBB87:
 227              		.file 3 "..\\..\\..\\lvgl\\version_6.1.2\\lvgl\\src\\lv_objx\\lv_slider.h"
   1:..\..\..\lvgl\version_6.1.2\lvgl\src\lv_objx/lv_slider.h **** /**
   2:..\..\..\lvgl\version_6.1.2\lvgl\src\lv_objx/lv_slider.h ****  * @file lv_slider.h
   3:..\..\..\lvgl\version_6.1.2\lvgl\src\lv_objx/lv_slider.h ****  *
   4:..\..\..\lvgl\version_6.1.2\lvgl\src\lv_objx/lv_slider.h ****  */
   5:..\..\..\lvgl\version_6.1.2\lvgl\src\lv_objx/lv_slider.h **** 
   6:..\..\..\lvgl\version_6.1.2\lvgl\src\lv_objx/lv_slider.h **** #ifndef LV_SLIDER_H
   7:..\..\..\lvgl\version_6.1.2\lvgl\src\lv_objx/lv_slider.h **** #define LV_SLIDER_H
   8:..\..\..\lvgl\version_6.1.2\lvgl\src\lv_objx/lv_slider.h **** 
   9:..\..\..\lvgl\version_6.1.2\lvgl\src\lv_objx/lv_slider.h **** #ifdef __cplusplus
  10:..\..\..\lvgl\version_6.1.2\lvgl\src\lv_objx/lv_slider.h **** extern "C" {
  11:..\..\..\lvgl\version_6.1.2\lvgl\src\lv_objx/lv_slider.h **** #endif
  12:..\..\..\lvgl\version_6.1.2\lvgl\src\lv_objx/lv_slider.h **** 
  13:..\..\..\lvgl\version_6.1.2\lvgl\src\lv_objx/lv_slider.h **** /*********************
  14:..\..\..\lvgl\version_6.1.2\lvgl\src\lv_objx/lv_slider.h ****  *      INCLUDES
ARM GAS  C:\Users\pearlstl\AppData\Local\Temp\ccxJ2nMb.s 			page 15


  15:..\..\..\lvgl\version_6.1.2\lvgl\src\lv_objx/lv_slider.h ****  *********************/
  16:..\..\..\lvgl\version_6.1.2\lvgl\src\lv_objx/lv_slider.h **** #ifdef LV_CONF_INCLUDE_SIMPLE
  17:..\..\..\lvgl\version_6.1.2\lvgl\src\lv_objx/lv_slider.h **** #include "lv_conf.h"
  18:..\..\..\lvgl\version_6.1.2\lvgl\src\lv_objx/lv_slider.h **** #else
  19:..\..\..\lvgl\version_6.1.2\lvgl\src\lv_objx/lv_slider.h **** #include "../../../lv_conf.h"
  20:..\..\..\lvgl\version_6.1.2\lvgl\src\lv_objx/lv_slider.h **** #endif
  21:..\..\..\lvgl\version_6.1.2\lvgl\src\lv_objx/lv_slider.h **** 
  22:..\..\..\lvgl\version_6.1.2\lvgl\src\lv_objx/lv_slider.h **** #if LV_USE_SLIDER != 0
  23:..\..\..\lvgl\version_6.1.2\lvgl\src\lv_objx/lv_slider.h **** 
  24:..\..\..\lvgl\version_6.1.2\lvgl\src\lv_objx/lv_slider.h **** /*Testing of dependencies*/
  25:..\..\..\lvgl\version_6.1.2\lvgl\src\lv_objx/lv_slider.h **** #if LV_USE_BAR == 0
  26:..\..\..\lvgl\version_6.1.2\lvgl\src\lv_objx/lv_slider.h **** #error "lv_slider: lv_bar is required. Enable it in lv_conf.h (LV_USE_BAR  1) "
  27:..\..\..\lvgl\version_6.1.2\lvgl\src\lv_objx/lv_slider.h **** #endif
  28:..\..\..\lvgl\version_6.1.2\lvgl\src\lv_objx/lv_slider.h **** 
  29:..\..\..\lvgl\version_6.1.2\lvgl\src\lv_objx/lv_slider.h **** #include "../lv_core/lv_obj.h"
  30:..\..\..\lvgl\version_6.1.2\lvgl\src\lv_objx/lv_slider.h **** #include "lv_bar.h"
  31:..\..\..\lvgl\version_6.1.2\lvgl\src\lv_objx/lv_slider.h **** 
  32:..\..\..\lvgl\version_6.1.2\lvgl\src\lv_objx/lv_slider.h **** /*********************
  33:..\..\..\lvgl\version_6.1.2\lvgl\src\lv_objx/lv_slider.h ****  *      DEFINES
  34:..\..\..\lvgl\version_6.1.2\lvgl\src\lv_objx/lv_slider.h ****  *********************/
  35:..\..\..\lvgl\version_6.1.2\lvgl\src\lv_objx/lv_slider.h **** 
  36:..\..\..\lvgl\version_6.1.2\lvgl\src\lv_objx/lv_slider.h **** /**********************
  37:..\..\..\lvgl\version_6.1.2\lvgl\src\lv_objx/lv_slider.h ****  *      TYPEDEFS
  38:..\..\..\lvgl\version_6.1.2\lvgl\src\lv_objx/lv_slider.h ****  **********************/
  39:..\..\..\lvgl\version_6.1.2\lvgl\src\lv_objx/lv_slider.h **** /*Data of slider*/
  40:..\..\..\lvgl\version_6.1.2\lvgl\src\lv_objx/lv_slider.h **** typedef struct
  41:..\..\..\lvgl\version_6.1.2\lvgl\src\lv_objx/lv_slider.h **** {
  42:..\..\..\lvgl\version_6.1.2\lvgl\src\lv_objx/lv_slider.h ****     lv_bar_ext_t bar; /*Ext. of ancestor*/
  43:..\..\..\lvgl\version_6.1.2\lvgl\src\lv_objx/lv_slider.h ****     /*New data for this type */
  44:..\..\..\lvgl\version_6.1.2\lvgl\src\lv_objx/lv_slider.h ****     const lv_style_t * style_knob; /*Style of the knob*/
  45:..\..\..\lvgl\version_6.1.2\lvgl\src\lv_objx/lv_slider.h ****     int16_t drag_value;            /*Store a temporal value during press until release (Handled by 
  46:..\..\..\lvgl\version_6.1.2\lvgl\src\lv_objx/lv_slider.h ****     uint8_t knob_in : 1;           /*1: Draw the knob inside the bar*/
  47:..\..\..\lvgl\version_6.1.2\lvgl\src\lv_objx/lv_slider.h **** } lv_slider_ext_t;
  48:..\..\..\lvgl\version_6.1.2\lvgl\src\lv_objx/lv_slider.h **** 
  49:..\..\..\lvgl\version_6.1.2\lvgl\src\lv_objx/lv_slider.h **** /** Built-in styles of slider*/
  50:..\..\..\lvgl\version_6.1.2\lvgl\src\lv_objx/lv_slider.h **** enum {
  51:..\..\..\lvgl\version_6.1.2\lvgl\src\lv_objx/lv_slider.h ****     LV_SLIDER_STYLE_BG, /** Slider background style. */
  52:..\..\..\lvgl\version_6.1.2\lvgl\src\lv_objx/lv_slider.h ****     LV_SLIDER_STYLE_INDIC, /** Slider indicator (filled area) style. */
  53:..\..\..\lvgl\version_6.1.2\lvgl\src\lv_objx/lv_slider.h ****     LV_SLIDER_STYLE_KNOB, /** Slider knob style. */
  54:..\..\..\lvgl\version_6.1.2\lvgl\src\lv_objx/lv_slider.h **** };
  55:..\..\..\lvgl\version_6.1.2\lvgl\src\lv_objx/lv_slider.h **** typedef uint8_t lv_slider_style_t;
  56:..\..\..\lvgl\version_6.1.2\lvgl\src\lv_objx/lv_slider.h **** 
  57:..\..\..\lvgl\version_6.1.2\lvgl\src\lv_objx/lv_slider.h **** /**********************
  58:..\..\..\lvgl\version_6.1.2\lvgl\src\lv_objx/lv_slider.h ****  * GLOBAL PROTOTYPES
  59:..\..\..\lvgl\version_6.1.2\lvgl\src\lv_objx/lv_slider.h ****  **********************/
  60:..\..\..\lvgl\version_6.1.2\lvgl\src\lv_objx/lv_slider.h **** 
  61:..\..\..\lvgl\version_6.1.2\lvgl\src\lv_objx/lv_slider.h **** /**
  62:..\..\..\lvgl\version_6.1.2\lvgl\src\lv_objx/lv_slider.h ****  * Create a slider objects
  63:..\..\..\lvgl\version_6.1.2\lvgl\src\lv_objx/lv_slider.h ****  * @param par pointer to an object, it will be the parent of the new slider
  64:..\..\..\lvgl\version_6.1.2\lvgl\src\lv_objx/lv_slider.h ****  * @param copy pointer to a slider object, if not NULL then the new object will be copied from it
  65:..\..\..\lvgl\version_6.1.2\lvgl\src\lv_objx/lv_slider.h ****  * @return pointer to the created slider
  66:..\..\..\lvgl\version_6.1.2\lvgl\src\lv_objx/lv_slider.h ****  */
  67:..\..\..\lvgl\version_6.1.2\lvgl\src\lv_objx/lv_slider.h **** lv_obj_t * lv_slider_create(lv_obj_t * par, const lv_obj_t * copy);
  68:..\..\..\lvgl\version_6.1.2\lvgl\src\lv_objx/lv_slider.h **** 
  69:..\..\..\lvgl\version_6.1.2\lvgl\src\lv_objx/lv_slider.h **** /*=====================
  70:..\..\..\lvgl\version_6.1.2\lvgl\src\lv_objx/lv_slider.h ****  * Setter functions
  71:..\..\..\lvgl\version_6.1.2\lvgl\src\lv_objx/lv_slider.h ****  *====================*/
ARM GAS  C:\Users\pearlstl\AppData\Local\Temp\ccxJ2nMb.s 			page 16


  72:..\..\..\lvgl\version_6.1.2\lvgl\src\lv_objx/lv_slider.h **** 
  73:..\..\..\lvgl\version_6.1.2\lvgl\src\lv_objx/lv_slider.h **** /**
  74:..\..\..\lvgl\version_6.1.2\lvgl\src\lv_objx/lv_slider.h ****  * Set a new value on the slider
  75:..\..\..\lvgl\version_6.1.2\lvgl\src\lv_objx/lv_slider.h ****  * @param slider pointer to a slider object
  76:..\..\..\lvgl\version_6.1.2\lvgl\src\lv_objx/lv_slider.h ****  * @param value new value
  77:..\..\..\lvgl\version_6.1.2\lvgl\src\lv_objx/lv_slider.h ****  * @param anim LV_ANIM_ON: set the value with an animation; LV_ANIM_OFF: change the value immediate
  78:..\..\..\lvgl\version_6.1.2\lvgl\src\lv_objx/lv_slider.h ****  */
  79:..\..\..\lvgl\version_6.1.2\lvgl\src\lv_objx/lv_slider.h **** static inline void lv_slider_set_value(lv_obj_t * slider, int16_t value, lv_anim_enable_t anim)
  80:..\..\..\lvgl\version_6.1.2\lvgl\src\lv_objx/lv_slider.h **** {
  81:..\..\..\lvgl\version_6.1.2\lvgl\src\lv_objx/lv_slider.h ****     lv_bar_set_value(slider, value, anim);
 228              		.loc 3 81 0
 229 00be 2246     		mov	r2, r4
 230 00c0 2946     		mov	r1, r5
 231 00c2 3046     		mov	r0, r6
 232              	.LVL27:
 233 00c4 FFF7FEFF 		bl	lv_bar_set_value
 234              	.LVL28:
 235              	.LBE87:
 236              	.LBE86:
 159:..\..\..\lvgl\version_6.1.2\lvgl\src\lv_objx/lv_sw.c **** }
 237              		.loc 1 159 0
 238 00c8 FA69     		ldr	r2, [r7, #28]
 239 00ca 0221     		movs	r1, #2
 240 00cc 3046     		mov	r0, r6
 241 00ce FFF7FEFF 		bl	lv_slider_set_style
 242              	.LVL29:
 243              	.LBE88:
 244              	.LBE89:
 358:..\..\..\lvgl\version_6.1.2\lvgl\src\lv_objx/lv_sw.c ****             } else {
 245              		.loc 1 358 0
 246 00d2 0195     		str	r5, [sp, #4]
 247              	.L24:
 248              	.LBE90:
 249              	.LBB91:
 378:..\..\..\lvgl\version_6.1.2\lvgl\src\lv_objx/lv_sw.c ****             if(res != LV_RES_OK) return res;
 250              		.loc 1 378 0
 251 00d4 3046     		mov	r0, r6
 252 00d6 01AA     		add	r2, sp, #4
 253 00d8 0E21     		movs	r1, #14
 254 00da FFF7FEFF 		bl	lv_event_send
 255              	.LVL30:
 256 00de CEE7     		b	.L48
 257              	.LVL31:
 258              	.L59:
 259              	.LBE91:
 260              	.LBB102:
 310:..\..\..\lvgl\version_6.1.2\lvgl\src\lv_objx/lv_sw.c ****         if(indev) {
 261              		.loc 1 310 0
 262 00e0 FFF7FEFF 		bl	lv_indev_get_act
 263              	.LVL32:
 311:..\..\..\lvgl\version_6.1.2\lvgl\src\lv_objx/lv_sw.c ****             lv_point_t p;
 264              		.loc 1 311 0
 265 00e4 30B1     		cbz	r0, .L8
 266              	.LBB103:
 313:..\..\..\lvgl\version_6.1.2\lvgl\src\lv_objx/lv_sw.c ****             ext->start_x = p.x;
 267              		.loc 1 313 0
 268 00e6 01A9     		add	r1, sp, #4
ARM GAS  C:\Users\pearlstl\AppData\Local\Temp\ccxJ2nMb.s 			page 17


 269 00e8 FFF7FEFF 		bl	lv_indev_get_point
 270              	.LVL33:
 314:..\..\..\lvgl\version_6.1.2\lvgl\src\lv_objx/lv_sw.c ****         }
 271              		.loc 1 314 0
 272 00ec BDF80430 		ldrh	r3, [sp, #4]
 273 00f0 A8F82430 		strh	r3, [r8, #36]	@ movhi
 274              	.L8:
 275              	.LBE103:
 316:..\..\..\lvgl\version_6.1.2\lvgl\src\lv_objx/lv_sw.c ****         ext->changed = 0;
 276              		.loc 1 316 0
 277 00f4 98F82630 		ldrb	r3, [r8, #38]	@ zero_extendqisi2
 317:..\..\..\lvgl\version_6.1.2\lvgl\src\lv_objx/lv_sw.c ****     } else if(sign == LV_SIGNAL_PRESSING) {
 278              		.loc 1 317 0
 279 00f8 03F0FD03 		and	r3, r3, #253
 280 00fc 6FF30003 		bfc	r3, #0, #1
 281 0100 88F82630 		strb	r3, [r8, #38]
 282 0104 A9E7     		b	.L52
 283              	.LVL34:
 284              	.L62:
 285              	.LBE102:
 286              	.LBB104:
 382:..\..\..\lvgl\version_6.1.2\lvgl\src\lv_objx/lv_sw.c ****         uint32_t state;
 287              		.loc 1 382 0
 288 0106 3B78     		ldrb	r3, [r7]	@ zero_extendqisi2
 289              	.LVL35:
 384:..\..\..\lvgl\version_6.1.2\lvgl\src\lv_objx/lv_sw.c ****             lv_slider_set_value(sw, LV_SW_MAX_VALUE, true);
 290              		.loc 1 384 0
 291 0108 03F0FD02 		and	r2, r3, #253
 292 010c 112A     		cmp	r2, #17
 293 010e 00F08B80 		beq	.L65
 389:..\..\..\lvgl\version_6.1.2\lvgl\src\lv_objx/lv_sw.c ****             lv_slider_set_value(sw, 0, true);
 294              		.loc 1 389 0
 295 0112 142B     		cmp	r3, #20
 296 0114 01D0     		beq	.L29
 389:..\..\..\lvgl\version_6.1.2\lvgl\src\lv_objx/lv_sw.c ****             lv_slider_set_value(sw, 0, true);
 297              		.loc 1 389 0 is_stmt 0 discriminator 1
 298 0116 122B     		cmp	r3, #18
 299 0118 9FD1     		bne	.L52
 300              	.L29:
 301              	.LVL36:
 302              	.LBB105:
 303              	.LBB106:
 304              		.loc 3 81 0 is_stmt 1
 305 011a 0122     		movs	r2, #1
 306 011c 0021     		movs	r1, #0
 307 011e 3046     		mov	r0, r6
 308              	.LVL37:
 309 0120 FFF7FEFF 		bl	lv_bar_set_value
 310              	.LVL38:
 311              	.LBE106:
 312              	.LBE105:
 391:..\..\..\lvgl\version_6.1.2\lvgl\src\lv_objx/lv_sw.c ****             res   = lv_event_send(sw, LV_EVENT_VALUE_CHANGED, &state);
 313              		.loc 1 391 0
 314 0124 02AA     		add	r2, sp, #8
 315 0126 0023     		movs	r3, #0
 316 0128 42F8043D 		str	r3, [r2, #-4]!
 392:..\..\..\lvgl\version_6.1.2\lvgl\src\lv_objx/lv_sw.c ****             if(res != LV_RES_OK) return res;
ARM GAS  C:\Users\pearlstl\AppData\Local\Temp\ccxJ2nMb.s 			page 18


 317              		.loc 1 392 0
 318 012c 3046     		mov	r0, r6
 319 012e 0E21     		movs	r1, #14
 320 0130 FFF7FEFF 		bl	lv_event_send
 321              	.LVL39:
 393:..\..\..\lvgl\version_6.1.2\lvgl\src\lv_objx/lv_sw.c ****         }
 322              		.loc 1 393 0
 323 0134 0128     		cmp	r0, #1
 324 0136 A2D1     		bne	.L48
 325 0138 8FE7     		b	.L52
 326              	.LVL40:
 327              	.L64:
 328              	.LBE104:
 303:..\..\..\lvgl\version_6.1.2\lvgl\src\lv_objx/lv_sw.c **** 
 329              		.loc 1 303 0
 330 013a C6F818A0 		str	r10, [r6, #24]
 331              	.LBB109:
 320:..\..\..\lvgl\version_6.1.2\lvgl\src\lv_objx/lv_sw.c ****         if(indev) {
 332              		.loc 1 320 0
 333 013e FFF7FEFF 		bl	lv_indev_get_act
 334              	.LVL41:
 321:..\..\..\lvgl\version_6.1.2\lvgl\src\lv_objx/lv_sw.c ****             lv_point_t p = {0, 0};
 335              		.loc 1 321 0
 336 0142 B0B1     		cbz	r0, .L32
 337              	.LBB110:
 323:..\..\..\lvgl\version_6.1.2\lvgl\src\lv_objx/lv_sw.c ****             if(LV_MATH_ABS(p.x - ext->start_x) > LV_INDEV_DEF_DRAG_LIMIT) ext->slided = 1;
 338              		.loc 1 323 0
 339 0144 01A9     		add	r1, sp, #4
 322:..\..\..\lvgl\version_6.1.2\lvgl\src\lv_objx/lv_sw.c ****             lv_indev_get_point(indev, &p);
 340              		.loc 1 322 0
 341 0146 ADF80440 		strh	r4, [sp, #4]	@ movhi
 342 014a ADF80640 		strh	r4, [sp, #6]	@ movhi
 323:..\..\..\lvgl\version_6.1.2\lvgl\src\lv_objx/lv_sw.c ****             if(LV_MATH_ABS(p.x - ext->start_x) > LV_INDEV_DEF_DRAG_LIMIT) ext->slided = 1;
 343              		.loc 1 323 0
 344 014e FFF7FEFF 		bl	lv_indev_get_point
 345              	.LVL42:
 324:..\..\..\lvgl\version_6.1.2\lvgl\src\lv_objx/lv_sw.c ****         }
 346              		.loc 1 324 0
 347 0152 BDF90430 		ldrsh	r3, [sp, #4]
 348 0156 B8F92420 		ldrsh	r2, [r8, #36]
 349 015a 9B1A     		subs	r3, r3, r2
 350 015c 002B     		cmp	r3, #0
 351 015e B8BF     		it	lt
 352 0160 5B42     		rsblt	r3, r3, #0
 353 0162 0A2B     		cmp	r3, #10
 354 0164 05DD     		ble	.L32
 324:..\..\..\lvgl\version_6.1.2\lvgl\src\lv_objx/lv_sw.c ****         }
 355              		.loc 1 324 0 is_stmt 0 discriminator 1
 356 0166 98F82630 		ldrb	r3, [r8, #38]	@ zero_extendqisi2
 357 016a 43F00203 		orr	r3, r3, #2
 358 016e 88F82630 		strb	r3, [r8, #38]
 359              	.L32:
 360              	.LBE110:
 329:..\..\..\lvgl\version_6.1.2\lvgl\src\lv_objx/lv_sw.c ****             if(lv_sw_get_state(sw))
 361              		.loc 1 329 0 is_stmt 1
 362 0172 98F82630 		ldrb	r3, [r8, #38]	@ zero_extendqisi2
 363 0176 03F00203 		and	r3, r3, #2
ARM GAS  C:\Users\pearlstl\AppData\Local\Temp\ccxJ2nMb.s 			page 19


 364 017a 03F0FF04 		and	r4, r3, #255
 365 017e 002B     		cmp	r3, #0
 366 0180 6CD0     		beq	.L66
 367              	.LVL43:
 338:..\..\..\lvgl\version_6.1.2\lvgl\src\lv_objx/lv_sw.c ****            (old_val > threshold && ext->slider.drag_value < threshold)) {
 368              		.loc 1 338 0
 369 0182 B9F1310F 		cmp	r9, #49
 370 0186 5FDC     		bgt	.L14
 338:..\..\..\lvgl\version_6.1.2\lvgl\src\lv_objx/lv_sw.c ****            (old_val > threshold && ext->slider.drag_value < threshold)) {
 371              		.loc 1 338 0 is_stmt 0 discriminator 1
 372 0188 B8F91830 		ldrsh	r3, [r8, #24]
 373 018c 322B     		cmp	r3, #50
 374 018e 7FF764AF 		ble	.L52
 375              	.L15:
 340:..\..\..\lvgl\version_6.1.2\lvgl\src\lv_objx/lv_sw.c ****         }
 376              		.loc 1 340 0 is_stmt 1
 377 0192 98F82630 		ldrb	r3, [r8, #38]	@ zero_extendqisi2
 378 0196 43F00103 		orr	r3, r3, #1
 379 019a 88F82630 		strb	r3, [r8, #38]
 380 019e 0120     		movs	r0, #1
 381 01a0 6DE7     		b	.L48
 382              	.LVL44:
 383              	.L60:
 384              	.LBE109:
 385              	.LBB113:
 386              	.LBB114:
 387              		.loc 2 131 0
 388 01a2 3046     		mov	r0, r6
 389              	.LVL45:
 390 01a4 FFF7FEFF 		bl	lv_bar_get_value
 391              	.LVL46:
 392              	.LBE114:
 393              	.LBE113:
 343:..\..\..\lvgl\version_6.1.2\lvgl\src\lv_objx/lv_sw.c ****             lv_slider_set_style(sw, LV_SLIDER_STYLE_KNOB, ext->style_knob_on);
 394              		.loc 1 343 0
 395 01a8 3128     		cmp	r0, #49
 396 01aa 30DD     		ble	.L17
 344:..\..\..\lvgl\version_6.1.2\lvgl\src\lv_objx/lv_sw.c ****             lv_slider_set_value(sw, LV_SW_MAX_VALUE, LV_ANIM_ON);
 397              		.loc 1 344 0
 398 01ac D8F82020 		ldr	r2, [r8, #32]
 399 01b0 0221     		movs	r1, #2
 400 01b2 3046     		mov	r0, r6
 401 01b4 FFF7FEFF 		bl	lv_slider_set_style
 402              	.LVL47:
 403              	.LBB115:
 404              	.LBB116:
 405              		.loc 3 81 0
 406 01b8 3046     		mov	r0, r6
 407 01ba 2246     		mov	r2, r4
 408 01bc 6421     		movs	r1, #100
 409 01be FFF7FEFF 		bl	lv_bar_set_value
 410              	.LVL48:
 411              	.LBE116:
 412              	.LBE115:
 413 01c2 2046     		mov	r0, r4
 414 01c4 5BE7     		b	.L48
 415              	.LVL49:
ARM GAS  C:\Users\pearlstl\AppData\Local\Temp\ccxJ2nMb.s 			page 20


 416              	.L53:
 417              	.LBB117:
 418              	.LBB92:
 419              	.LBB93:
 140:..\..\..\lvgl\version_6.1.2\lvgl\src\lv_objx/lv_sw.c ****     lv_slider_set_value(sw, LV_SW_MAX_VALUE, anim);
 420              		.loc 1 140 0
 421 01c6 FFF7FEFF 		bl	lv_obj_get_ext_attr
 422              	.LVL50:
 423 01ca 0546     		mov	r5, r0
 424              	.LVL51:
 425              	.LBB94:
 426              	.LBB95:
 427              		.loc 3 81 0
 428 01cc 2246     		mov	r2, r4
 429 01ce 6421     		movs	r1, #100
 430 01d0 3046     		mov	r0, r6
 431              	.LVL52:
 432 01d2 FFF7FEFF 		bl	lv_bar_set_value
 433              	.LVL53:
 434              	.LBE95:
 435              	.LBE94:
 142:..\..\..\lvgl\version_6.1.2\lvgl\src\lv_objx/lv_sw.c **** }
 436              		.loc 1 142 0
 437 01d6 2A6A     		ldr	r2, [r5, #32]
 438 01d8 0221     		movs	r1, #2
 439 01da 3046     		mov	r0, r6
 440 01dc FFF7FEFF 		bl	lv_slider_set_style
 441              	.LVL54:
 442              	.LBE93:
 443              	.LBE92:
 373:..\..\..\lvgl\version_6.1.2\lvgl\src\lv_objx/lv_sw.c ****             } else {
 444              		.loc 1 373 0
 445 01e0 0194     		str	r4, [sp, #4]
 446 01e2 77E7     		b	.L24
 447              	.LVL55:
 448              	.L19:
 369:..\..\..\lvgl\version_6.1.2\lvgl\src\lv_objx/lv_sw.c ****             int32_t state;
 449              		.loc 1 369 0
 450 01e4 FFF7FEFF 		bl	lv_slider_get_value
 451              	.LVL56:
 371:..\..\..\lvgl\version_6.1.2\lvgl\src\lv_objx/lv_sw.c ****                 lv_sw_on(sw, LV_ANIM_ON);
 452              		.loc 1 371 0
 453 01e8 3228     		cmp	r0, #50
 454              	.LBB97:
 455              	.LBB96:
 140:..\..\..\lvgl\version_6.1.2\lvgl\src\lv_objx/lv_sw.c ****     lv_slider_set_value(sw, LV_SW_MAX_VALUE, anim);
 456              		.loc 1 140 0
 457 01ea 3046     		mov	r0, r6
 458              	.LVL57:
 459              	.LBE96:
 460              	.LBE97:
 371:..\..\..\lvgl\version_6.1.2\lvgl\src\lv_objx/lv_sw.c ****                 lv_sw_on(sw, LV_ANIM_ON);
 461              		.loc 1 371 0
 462 01ec EBDC     		bgt	.L53
 463              	.LVL58:
 464              	.LBB98:
 465              	.LBB99:
ARM GAS  C:\Users\pearlstl\AppData\Local\Temp\ccxJ2nMb.s 			page 21


 157:..\..\..\lvgl\version_6.1.2\lvgl\src\lv_objx/lv_sw.c ****     lv_slider_set_value(sw, 0, anim);
 466              		.loc 1 157 0
 467 01ee FFF7FEFF 		bl	lv_obj_get_ext_attr
 468              	.LVL59:
 469 01f2 0546     		mov	r5, r0
 470              	.LVL60:
 471              	.LBB100:
 472              	.LBB101:
 473              		.loc 3 81 0
 474 01f4 2246     		mov	r2, r4
 475 01f6 4946     		mov	r1, r9
 476 01f8 3046     		mov	r0, r6
 477              	.LVL61:
 478 01fa FFF7FEFF 		bl	lv_bar_set_value
 479              	.LVL62:
 480              	.LBE101:
 481              	.LBE100:
 159:..\..\..\lvgl\version_6.1.2\lvgl\src\lv_objx/lv_sw.c **** }
 482              		.loc 1 159 0
 483 01fe EA69     		ldr	r2, [r5, #28]
 484 0200 0221     		movs	r1, #2
 485 0202 3046     		mov	r0, r6
 486 0204 FFF7FEFF 		bl	lv_slider_set_style
 487              	.LVL63:
 488              	.LBE99:
 489              	.LBE98:
 376:..\..\..\lvgl\version_6.1.2\lvgl\src\lv_objx/lv_sw.c ****             }
 490              		.loc 1 376 0
 491 0208 CDF80490 		str	r9, [sp, #4]
 492 020c 62E7     		b	.L24
 493              	.L17:
 494              	.LBE117:
 348:..\..\..\lvgl\version_6.1.2\lvgl\src\lv_objx/lv_sw.c ****             lv_slider_set_value(sw, 0, LV_ANIM_ON);
 495              		.loc 1 348 0
 496 020e D8F81C20 		ldr	r2, [r8, #28]
 497 0212 0221     		movs	r1, #2
 498 0214 3046     		mov	r0, r6
 499 0216 FFF7FEFF 		bl	lv_slider_set_style
 500              	.LVL64:
 501              	.LBB118:
 502              	.LBB119:
 503              		.loc 3 81 0
 504 021a 3046     		mov	r0, r6
 505 021c 2246     		mov	r2, r4
 506 021e 4946     		mov	r1, r9
 507 0220 FFF7FEFF 		bl	lv_bar_set_value
 508              	.LVL65:
 509              	.LBE119:
 510              	.LBE118:
 511 0224 2046     		mov	r0, r4
 512 0226 2AE7     		b	.L48
 513              	.LVL66:
 514              	.L65:
 515              	.LBB120:
 516              	.LBB107:
 517              	.LBB108:
 518 0228 0246     		mov	r2, r0
ARM GAS  C:\Users\pearlstl\AppData\Local\Temp\ccxJ2nMb.s 			page 22


 519 022a 6421     		movs	r1, #100
 520 022c 3046     		mov	r0, r6
 521              	.LVL67:
 522 022e FFF7FEFF 		bl	lv_bar_set_value
 523              	.LVL68:
 524              	.LBE108:
 525              	.LBE107:
 386:..\..\..\lvgl\version_6.1.2\lvgl\src\lv_objx/lv_sw.c ****             res   = lv_event_send(sw, LV_EVENT_VALUE_CHANGED, &state);
 526              		.loc 1 386 0
 527 0232 02AA     		add	r2, sp, #8
 387:..\..\..\lvgl\version_6.1.2\lvgl\src\lv_objx/lv_sw.c ****             if(res != LV_RES_OK) return res;
 528              		.loc 1 387 0
 529 0234 3046     		mov	r0, r6
 386:..\..\..\lvgl\version_6.1.2\lvgl\src\lv_objx/lv_sw.c ****             res   = lv_event_send(sw, LV_EVENT_VALUE_CHANGED, &state);
 530              		.loc 1 386 0
 531 0236 42F8044D 		str	r4, [r2, #-4]!
 387:..\..\..\lvgl\version_6.1.2\lvgl\src\lv_objx/lv_sw.c ****             if(res != LV_RES_OK) return res;
 532              		.loc 1 387 0
 533 023a 0E21     		movs	r1, #14
 534 023c FFF7FEFF 		bl	lv_event_send
 535              	.LVL69:
 388:..\..\..\lvgl\version_6.1.2\lvgl\src\lv_objx/lv_sw.c ****         } else if(c == LV_KEY_LEFT || c == LV_KEY_DOWN) {
 536              		.loc 1 388 0
 537 0240 0128     		cmp	r0, #1
 538 0242 7FF41CAF 		bne	.L48
 539 0246 08E7     		b	.L52
 540              	.LVL70:
 541              	.L14:
 542              	.LBE120:
 543              	.LBB121:
 338:..\..\..\lvgl\version_6.1.2\lvgl\src\lv_objx/lv_sw.c ****            (old_val > threshold && ext->slider.drag_value < threshold)) {
 544              		.loc 1 338 0
 545 0248 B9F1320F 		cmp	r9, #50
 546 024c 3FF405AF 		beq	.L52
 339:..\..\..\lvgl\version_6.1.2\lvgl\src\lv_objx/lv_sw.c ****             ext->changed = 1;
 547              		.loc 1 339 0
 548 0250 B8F91830 		ldrsh	r3, [r8, #24]
 549 0254 312B     		cmp	r3, #49
 550 0256 3FF700AF 		bgt	.L52
 551 025a 9AE7     		b	.L15
 552              	.LVL71:
 553              	.L66:
 554              	.LBB111:
 555              	.LBB112:
 556              		.loc 2 131 0
 557 025c 3046     		mov	r0, r6
 558 025e FFF7FEFF 		bl	lv_bar_get_value
 559              	.LVL72:
 560              	.LBE112:
 561              	.LBE111:
 330:..\..\..\lvgl\version_6.1.2\lvgl\src\lv_objx/lv_sw.c ****                 ext->slider.drag_value = LV_SW_MAX_VALUE;
 562              		.loc 1 330 0
 563 0262 3128     		cmp	r0, #49
 564 0264 07DD     		ble	.L11
 331:..\..\..\lvgl\version_6.1.2\lvgl\src\lv_objx/lv_sw.c ****             else
 565              		.loc 1 331 0
 566 0266 6423     		movs	r3, #100
ARM GAS  C:\Users\pearlstl\AppData\Local\Temp\ccxJ2nMb.s 			page 23


 338:..\..\..\lvgl\version_6.1.2\lvgl\src\lv_objx/lv_sw.c ****            (old_val > threshold && ext->slider.drag_value < threshold)) {
 567              		.loc 1 338 0
 568 0268 B9F1310F 		cmp	r9, #49
 331:..\..\..\lvgl\version_6.1.2\lvgl\src\lv_objx/lv_sw.c ****             else
 569              		.loc 1 331 0
 570 026c A8F81830 		strh	r3, [r8, #24]	@ movhi
 571              	.LVL73:
 338:..\..\..\lvgl\version_6.1.2\lvgl\src\lv_objx/lv_sw.c ****            (old_val > threshold && ext->slider.drag_value < threshold)) {
 572              		.loc 1 338 0
 573 0270 3FF7F3AE 		bgt	.L52
 574 0274 8DE7     		b	.L15
 575              	.LVL74:
 576              	.L11:
 577 0276 B9F1310F 		cmp	r9, #49
 333:..\..\..\lvgl\version_6.1.2\lvgl\src\lv_objx/lv_sw.c ****         }
 578              		.loc 1 333 0
 579 027a A8F81840 		strh	r4, [r8, #24]	@ movhi
 580              	.LVL75:
 338:..\..\..\lvgl\version_6.1.2\lvgl\src\lv_objx/lv_sw.c ****            (old_val > threshold && ext->slider.drag_value < threshold)) {
 581              		.loc 1 338 0
 582 027e 7FF7ECAE 		ble	.L52
 583 0282 B9F1320F 		cmp	r9, #50
 584 0286 84D1     		bne	.L15
 585 0288 E7E6     		b	.L52
 586              	.L68:
 587 028a 00BF     		.align	2
 588              	.L67:
 589 028c 00000000 		.word	.LANCHOR0
 590 0290 00000000 		.word	.LC0
 591              	.LBE121:
 592              		.cfi_endproc
 593              	.LFE63:
 594              		.size	lv_sw_signal, .-lv_sw_signal
 595              		.section	.text.lv_sw_create,"ax",%progbits
 596              		.align	2
 597              		.global	lv_sw_create
 598              		.thumb
 599              		.thumb_func
 600              		.type	lv_sw_create, %function
 601              	lv_sw_create:
 602              	.LFB55:
  57:..\..\..\lvgl\version_6.1.2\lvgl\src\lv_objx/lv_sw.c ****     LV_LOG_TRACE("switch create started");
 603              		.loc 1 57 0
 604              		.cfi_startproc
 605              		@ args = 0, pretend = 0, frame = 0
 606              		@ frame_needed = 0, uses_anonymous_args = 0
 607              	.LVL76:
 608 0000 F8B5     		push	{r3, r4, r5, r6, r7, lr}
 609              		.cfi_def_cfa_offset 24
 610              		.cfi_offset 3, -24
 611              		.cfi_offset 4, -20
 612              		.cfi_offset 5, -16
 613              		.cfi_offset 6, -12
 614              		.cfi_offset 7, -8
 615              		.cfi_offset 14, -4
  57:..\..\..\lvgl\version_6.1.2\lvgl\src\lv_objx/lv_sw.c ****     LV_LOG_TRACE("switch create started");
 616              		.loc 1 57 0
ARM GAS  C:\Users\pearlstl\AppData\Local\Temp\ccxJ2nMb.s 			page 24


 617 0002 0E46     		mov	r6, r1
  61:..\..\..\lvgl\version_6.1.2\lvgl\src\lv_objx/lv_sw.c ****     LV_ASSERT_MEM(new_sw);
 618              		.loc 1 61 0
 619 0004 FFF7FEFF 		bl	lv_slider_create
 620              	.LVL77:
  63:..\..\..\lvgl\version_6.1.2\lvgl\src\lv_objx/lv_sw.c **** 
 621              		.loc 1 63 0
 622 0008 0028     		cmp	r0, #0
 623 000a 75D0     		beq	.L73
  65:..\..\..\lvgl\version_6.1.2\lvgl\src\lv_objx/lv_sw.c **** 
 624              		.loc 1 65 0
 625 000c 424C     		ldr	r4, .L88
 626 000e 2368     		ldr	r3, [r4]
 627 0010 0546     		mov	r5, r0
 628 0012 002B     		cmp	r3, #0
 629 0014 6CD0     		beq	.L84
 630              	.LVL78:
 631              	.L72:
  68:..\..\..\lvgl\version_6.1.2\lvgl\src\lv_objx/lv_sw.c ****     LV_ASSERT_MEM(ext);
 632              		.loc 1 68 0
 633 0016 2C21     		movs	r1, #44
 634 0018 2846     		mov	r0, r5
 635 001a FFF7FEFF 		bl	lv_obj_allocate_ext_attr
 636              	.LVL79:
  70:..\..\..\lvgl\version_6.1.2\lvgl\src\lv_objx/lv_sw.c **** 
 637              		.loc 1 70 0
 638 001e 0446     		mov	r4, r0
 639 0020 0028     		cmp	r0, #0
 640 0022 69D0     		beq	.L73
  73:..\..\..\lvgl\version_6.1.2\lvgl\src\lv_objx/lv_sw.c **** #if LV_USE_ANIMATION
 641              		.loc 1 73 0
 642 0024 90F82620 		ldrb	r2, [r0, #38]	@ zero_extendqisi2
  77:..\..\..\lvgl\version_6.1.2\lvgl\src\lv_objx/lv_sw.c ****     ext->style_knob_on  = ext->slider.style_knob;
 643              		.loc 1 77 0
 644 0028 4369     		ldr	r3, [r0, #20]
 645 002a C361     		str	r3, [r0, #28]
  75:..\..\..\lvgl\version_6.1.2\lvgl\src\lv_objx/lv_sw.c **** #endif
 646              		.loc 1 75 0
 647 002c 0021     		movs	r1, #0
  73:..\..\..\lvgl\version_6.1.2\lvgl\src\lv_objx/lv_sw.c **** #if LV_USE_ANIMATION
 648              		.loc 1 73 0
 649 002e 6FF30002 		bfc	r2, #0, #1
  75:..\..\..\lvgl\version_6.1.2\lvgl\src\lv_objx/lv_sw.c **** #endif
 650              		.loc 1 75 0
 651 0032 0185     		strh	r1, [r0, #40]	@ movhi
  73:..\..\..\lvgl\version_6.1.2\lvgl\src\lv_objx/lv_sw.c **** #if LV_USE_ANIMATION
 652              		.loc 1 73 0
 653 0034 80F82620 		strb	r2, [r0, #38]
  78:..\..\..\lvgl\version_6.1.2\lvgl\src\lv_objx/lv_sw.c **** 
 654              		.loc 1 78 0
 655 0038 0362     		str	r3, [r0, #32]
  81:..\..\..\lvgl\version_6.1.2\lvgl\src\lv_objx/lv_sw.c **** 
 656              		.loc 1 81 0
 657 003a 3849     		ldr	r1, .L88+4
 658 003c 2846     		mov	r0, r5
 659              	.LVL80:
 660 003e FFF7FEFF 		bl	lv_obj_set_signal_cb
ARM GAS  C:\Users\pearlstl\AppData\Local\Temp\ccxJ2nMb.s 			page 25


 661              	.LVL81:
  84:..\..\..\lvgl\version_6.1.2\lvgl\src\lv_objx/lv_sw.c ****         lv_obj_set_size(new_sw, 2 * LV_DPI / 3, LV_DPI / 3);
 662              		.loc 1 84 0
 663 0042 CEB1     		cbz	r6, .L85
 664              	.LBB152:
 103:..\..\..\lvgl\version_6.1.2\lvgl\src\lv_objx/lv_sw.c ****         ext->style_knob_off    = copy_ext->style_knob_off;
 665              		.loc 1 103 0
 666 0044 3046     		mov	r0, r6
 667 0046 FFF7FEFF 		bl	lv_obj_get_ext_attr
 668              	.LVL82:
 669 004a 0346     		mov	r3, r0
 670              	.LVL83:
 671              	.LBB153:
 672              	.LBB154:
 673              		.loc 2 131 0
 674 004c 2846     		mov	r0, r5
 675              	.LVL84:
 676              	.LBE154:
 677              	.LBE153:
 105:..\..\..\lvgl\version_6.1.2\lvgl\src\lv_objx/lv_sw.c **** #if LV_USE_ANIMATION
 678              		.loc 1 105 0
 679 004e 1A6A     		ldr	r2, [r3, #32]
 104:..\..\..\lvgl\version_6.1.2\lvgl\src\lv_objx/lv_sw.c ****         ext->style_knob_on     = copy_ext->style_knob_on;
 680              		.loc 1 104 0
 681 0050 D969     		ldr	r1, [r3, #28]
 107:..\..\..\lvgl\version_6.1.2\lvgl\src\lv_objx/lv_sw.c **** #endif
 682              		.loc 1 107 0
 683 0052 1B8D     		ldrh	r3, [r3, #40]
 684              	.LVL85:
 685 0054 2385     		strh	r3, [r4, #40]	@ movhi
 686              	.LVL86:
 105:..\..\..\lvgl\version_6.1.2\lvgl\src\lv_objx/lv_sw.c **** #if LV_USE_ANIMATION
 687              		.loc 1 105 0
 688 0056 2262     		str	r2, [r4, #32]
 104:..\..\..\lvgl\version_6.1.2\lvgl\src\lv_objx/lv_sw.c ****         ext->style_knob_on     = copy_ext->style_knob_on;
 689              		.loc 1 104 0
 690 0058 E161     		str	r1, [r4, #28]
 691              	.LBB156:
 692              	.LBB155:
 693              		.loc 2 131 0
 694 005a FFF7FEFF 		bl	lv_bar_get_value
 695              	.LVL87:
 696              	.LBE155:
 697              	.LBE156:
 110:..\..\..\lvgl\version_6.1.2\lvgl\src\lv_objx/lv_sw.c ****             lv_slider_set_style(new_sw, LV_SLIDER_STYLE_KNOB, ext->style_knob_on);
 698              		.loc 1 110 0
 699 005e 3128     		cmp	r0, #49
 111:..\..\..\lvgl\version_6.1.2\lvgl\src\lv_objx/lv_sw.c ****         else
 700              		.loc 1 111 0
 701 0060 CCBF     		ite	gt
 702 0062 226A     		ldrgt	r2, [r4, #32]
 113:..\..\..\lvgl\version_6.1.2\lvgl\src\lv_objx/lv_sw.c **** 
 703              		.loc 1 113 0
 704 0064 E269     		ldrle	r2, [r4, #28]
 705 0066 0221     		movs	r1, #2
 706 0068 2846     		mov	r0, r5
 707 006a FFF7FEFF 		bl	lv_slider_set_style
ARM GAS  C:\Users\pearlstl\AppData\Local\Temp\ccxJ2nMb.s 			page 26


 708              	.LVL88:
 116:..\..\..\lvgl\version_6.1.2\lvgl\src\lv_objx/lv_sw.c ****     }
 709              		.loc 1 116 0
 710 006e 2846     		mov	r0, r5
 711 0070 FFF7FEFF 		bl	lv_obj_refresh_style
 712              	.LVL89:
 713 0074 2846     		mov	r0, r5
 714 0076 F8BD     		pop	{r3, r4, r5, r6, r7, pc}
 715              	.LVL90:
 716              	.L85:
 717              	.LBE152:
 718              	.LBB157:
  85:..\..\..\lvgl\version_6.1.2\lvgl\src\lv_objx/lv_sw.c ****         lv_slider_set_knob_in(new_sw, true);
 719              		.loc 1 85 0
 720 0078 3222     		movs	r2, #50
 721 007a 6421     		movs	r1, #100
 722 007c 2846     		mov	r0, r5
 723 007e FFF7FEFF 		bl	lv_obj_set_size
 724              	.LVL91:
  86:..\..\..\lvgl\version_6.1.2\lvgl\src\lv_objx/lv_sw.c ****         lv_slider_set_range(new_sw, 0, LV_SW_MAX_VALUE);
 725              		.loc 1 86 0
 726 0082 0121     		movs	r1, #1
 727 0084 2846     		mov	r0, r5
 728 0086 FFF7FEFF 		bl	lv_slider_set_knob_in
 729              	.LVL92:
 730              	.LBB158:
 731              	.LBB159:
  82:..\..\..\lvgl\version_6.1.2\lvgl\src\lv_objx/lv_slider.h **** }
  83:..\..\..\lvgl\version_6.1.2\lvgl\src\lv_objx/lv_slider.h **** 
  84:..\..\..\lvgl\version_6.1.2\lvgl\src\lv_objx/lv_slider.h **** /**
  85:..\..\..\lvgl\version_6.1.2\lvgl\src\lv_objx/lv_slider.h ****  * Set minimum and the maximum values of a bar
  86:..\..\..\lvgl\version_6.1.2\lvgl\src\lv_objx/lv_slider.h ****  * @param slider pointer to the slider object
  87:..\..\..\lvgl\version_6.1.2\lvgl\src\lv_objx/lv_slider.h ****  * @param min minimum value
  88:..\..\..\lvgl\version_6.1.2\lvgl\src\lv_objx/lv_slider.h ****  * @param max maximum value
  89:..\..\..\lvgl\version_6.1.2\lvgl\src\lv_objx/lv_slider.h ****  */
  90:..\..\..\lvgl\version_6.1.2\lvgl\src\lv_objx/lv_slider.h **** static inline void lv_slider_set_range(lv_obj_t * slider, int16_t min, int16_t max)
  91:..\..\..\lvgl\version_6.1.2\lvgl\src\lv_objx/lv_slider.h **** {
  92:..\..\..\lvgl\version_6.1.2\lvgl\src\lv_objx/lv_slider.h ****     lv_bar_set_range(slider, min, max);
 732              		.loc 3 92 0
 733 008a 6422     		movs	r2, #100
 734 008c 3146     		mov	r1, r6
 735 008e 2846     		mov	r0, r5
 736 0090 FFF7FEFF 		bl	lv_bar_set_range
 737              	.LVL93:
 738              	.LBE159:
 739              	.LBE158:
  90:..\..\..\lvgl\version_6.1.2\lvgl\src\lv_objx/lv_sw.c ****         if(th) {
 740              		.loc 1 90 0
 741 0094 FFF7FEFF 		bl	lv_theme_get_current
 742              	.LVL94:
  91:..\..\..\lvgl\version_6.1.2\lvgl\src\lv_objx/lv_sw.c ****             lv_sw_set_style(new_sw, LV_SW_STYLE_BG, th->style.sw.bg);
 743              		.loc 1 91 0
 744 0098 0446     		mov	r4, r0
 745              	.LVL95:
 746 009a 38B3     		cbz	r0, .L79
  92:..\..\..\lvgl\version_6.1.2\lvgl\src\lv_objx/lv_sw.c ****             lv_sw_set_style(new_sw, LV_SW_STYLE_INDIC, th->style.sw.indic);
 747              		.loc 1 92 0
ARM GAS  C:\Users\pearlstl\AppData\Local\Temp\ccxJ2nMb.s 			page 27


 748 009c 876F     		ldr	r7, [r0, #120]
 749              	.LVL96:
 750              	.LBB160:
 751              	.LBB161:
 195:..\..\..\lvgl\version_6.1.2\lvgl\src\lv_objx/lv_sw.c **** 
 752              		.loc 1 195 0
 753 009e 2846     		mov	r0, r5
 754              	.LVL97:
 755 00a0 FFF7FEFF 		bl	lv_obj_get_ext_attr
 756              	.LVL98:
 198:..\..\..\lvgl\version_6.1.2\lvgl\src\lv_objx/lv_sw.c ****         case LV_SLIDER_STYLE_INDIC: lv_bar_set_style(sw, LV_SLIDER_STYLE_INDIC, style); break;
 757              		.loc 1 198 0
 758 00a4 3146     		mov	r1, r6
 759 00a6 3A46     		mov	r2, r7
 760 00a8 2846     		mov	r0, r5
 761 00aa FFF7FEFF 		bl	lv_slider_set_style
 762              	.LVL99:
 763              	.LBE161:
 764              	.LBE160:
  93:..\..\..\lvgl\version_6.1.2\lvgl\src\lv_objx/lv_sw.c ****             lv_sw_set_style(new_sw, LV_SW_STYLE_KNOB_OFF, th->style.sw.knob_off);
 765              		.loc 1 93 0
 766 00ae E66F     		ldr	r6, [r4, #124]
 767              	.LVL100:
 768              	.LBB162:
 769              	.LBB163:
 195:..\..\..\lvgl\version_6.1.2\lvgl\src\lv_objx/lv_sw.c **** 
 770              		.loc 1 195 0
 771 00b0 2846     		mov	r0, r5
 772 00b2 FFF7FEFF 		bl	lv_obj_get_ext_attr
 773              	.LVL101:
 199:..\..\..\lvgl\version_6.1.2\lvgl\src\lv_objx/lv_sw.c ****         case LV_SW_STYLE_KNOB_OFF:
 774              		.loc 1 199 0
 775 00b6 3246     		mov	r2, r6
 776 00b8 0121     		movs	r1, #1
 777 00ba 2846     		mov	r0, r5
 778 00bc FFF7FEFF 		bl	lv_bar_set_style
 779              	.LVL102:
 780              	.LBE163:
 781              	.LBE162:
 782              	.LBB164:
 783              	.LBB165:
 195:..\..\..\lvgl\version_6.1.2\lvgl\src\lv_objx/lv_sw.c **** 
 784              		.loc 1 195 0
 785 00c0 2846     		mov	r0, r5
 786              	.LBE165:
 787              	.LBE164:
  94:..\..\..\lvgl\version_6.1.2\lvgl\src\lv_objx/lv_sw.c ****             lv_sw_set_style(new_sw, LV_SW_STYLE_KNOB_ON, th->style.sw.knob_on);
 788              		.loc 1 94 0
 789 00c2 D4F88060 		ldr	r6, [r4, #128]
 790              	.LVL103:
 791              	.LBB170:
 792              	.LBB168:
 195:..\..\..\lvgl\version_6.1.2\lvgl\src\lv_objx/lv_sw.c **** 
 793              		.loc 1 195 0
 794 00c6 FFF7FEFF 		bl	lv_obj_get_ext_attr
 795              	.LVL104:
 201:..\..\..\lvgl\version_6.1.2\lvgl\src\lv_objx/lv_sw.c ****             if(lv_sw_get_state(sw) == 0) lv_slider_set_style(sw, LV_SLIDER_STYLE_KNOB, style);
ARM GAS  C:\Users\pearlstl\AppData\Local\Temp\ccxJ2nMb.s 			page 28


 796              		.loc 1 201 0
 797 00ca C661     		str	r6, [r0, #28]
 798              	.LVL105:
 799              	.LBB166:
 800              	.LBB167:
 801              		.loc 2 131 0
 802 00cc 2846     		mov	r0, r5
 803              	.LVL106:
 804 00ce FFF7FEFF 		bl	lv_bar_get_value
 805              	.LVL107:
 806              	.LBE167:
 807              	.LBE166:
 202:..\..\..\lvgl\version_6.1.2\lvgl\src\lv_objx/lv_sw.c ****             break;
 808              		.loc 1 202 0
 809 00d2 3128     		cmp	r0, #49
 810 00d4 19DD     		ble	.L86
 811              	.L75:
 812              	.LVL108:
 813              	.LBE168:
 814              	.LBE170:
 815              	.LBB171:
 816              	.LBB172:
 195:..\..\..\lvgl\version_6.1.2\lvgl\src\lv_objx/lv_sw.c **** 
 817              		.loc 1 195 0
 818 00d6 2846     		mov	r0, r5
 819              	.LBE172:
 820              	.LBE171:
  95:..\..\..\lvgl\version_6.1.2\lvgl\src\lv_objx/lv_sw.c ****         } else {
 821              		.loc 1 95 0
 822 00d8 D4F88440 		ldr	r4, [r4, #132]
 823              	.LVL109:
 824              	.LBB177:
 825              	.LBB175:
 195:..\..\..\lvgl\version_6.1.2\lvgl\src\lv_objx/lv_sw.c **** 
 826              		.loc 1 195 0
 827 00dc FFF7FEFF 		bl	lv_obj_get_ext_attr
 828              	.LVL110:
 205:..\..\..\lvgl\version_6.1.2\lvgl\src\lv_objx/lv_sw.c ****             if(lv_sw_get_state(sw) != 0) lv_slider_set_style(sw, LV_SLIDER_STYLE_KNOB, style);
 829              		.loc 1 205 0
 830 00e0 0462     		str	r4, [r0, #32]
 831              	.LVL111:
 832              	.LBB173:
 833              	.LBB174:
 834              		.loc 2 131 0
 835 00e2 2846     		mov	r0, r5
 836              	.LVL112:
 837 00e4 FFF7FEFF 		bl	lv_bar_get_value
 838              	.LVL113:
 839              	.LBE174:
 840              	.LBE173:
 206:..\..\..\lvgl\version_6.1.2\lvgl\src\lv_objx/lv_sw.c ****             break;
 841              		.loc 1 206 0
 842 00e8 3128     		cmp	r0, #49
 843 00ea 07DC     		bgt	.L87
 844              	.LVL114:
 845              	.L79:
 846 00ec 2846     		mov	r0, r5
ARM GAS  C:\Users\pearlstl\AppData\Local\Temp\ccxJ2nMb.s 			page 29


 847              	.LBE175:
 848              	.LBE177:
 849              	.LBE157:
 122:..\..\..\lvgl\version_6.1.2\lvgl\src\lv_objx/lv_sw.c **** 
 850              		.loc 1 122 0
 851 00ee F8BD     		pop	{r3, r4, r5, r6, r7, pc}
 852              	.LVL115:
 853              	.L84:
  65:..\..\..\lvgl\version_6.1.2\lvgl\src\lv_objx/lv_sw.c **** 
 854              		.loc 1 65 0 discriminator 1
 855 00f0 FFF7FEFF 		bl	lv_obj_get_signal_cb
 856              	.LVL116:
 857 00f4 2060     		str	r0, [r4]
 858 00f6 8EE7     		b	.L72
 859              	.LVL117:
 860              	.L73:
  63:..\..\..\lvgl\version_6.1.2\lvgl\src\lv_objx/lv_sw.c **** 
 861              		.loc 1 63 0
 862 00f8 0020     		movs	r0, #0
 863 00fa F8BD     		pop	{r3, r4, r5, r6, r7, pc}
 864              	.LVL118:
 865              	.L87:
 866              	.LBB180:
 867              	.LBB178:
 868              	.LBB176:
 206:..\..\..\lvgl\version_6.1.2\lvgl\src\lv_objx/lv_sw.c ****             break;
 869              		.loc 1 206 0
 870 00fc 2846     		mov	r0, r5
 871 00fe 2246     		mov	r2, r4
 872 0100 0221     		movs	r1, #2
 873 0102 FFF7FEFF 		bl	lv_slider_set_style
 874              	.LVL119:
 875 0106 2846     		mov	r0, r5
 876 0108 F8BD     		pop	{r3, r4, r5, r6, r7, pc}
 877              	.LVL120:
 878              	.L86:
 879              	.LBE176:
 880              	.LBE178:
 881              	.LBB179:
 882              	.LBB169:
 202:..\..\..\lvgl\version_6.1.2\lvgl\src\lv_objx/lv_sw.c ****             break;
 883              		.loc 1 202 0
 884 010a 3246     		mov	r2, r6
 885 010c 0221     		movs	r1, #2
 886 010e 2846     		mov	r0, r5
 887 0110 FFF7FEFF 		bl	lv_slider_set_style
 888              	.LVL121:
 889 0114 DFE7     		b	.L75
 890              	.L89:
 891 0116 00BF     		.align	2
 892              	.L88:
 893 0118 00000000 		.word	.LANCHOR0
 894 011c 00000000 		.word	lv_sw_signal
 895              	.LBE169:
 896              	.LBE179:
 897              	.LBE180:
 898              		.cfi_endproc
ARM GAS  C:\Users\pearlstl\AppData\Local\Temp\ccxJ2nMb.s 			page 30


 899              	.LFE55:
 900              		.size	lv_sw_create, .-lv_sw_create
 901              		.section	.text.lv_sw_on,"ax",%progbits
 902              		.align	2
 903              		.global	lv_sw_on
 904              		.thumb
 905              		.thumb_func
 906              		.type	lv_sw_on, %function
 907              	lv_sw_on:
 908              	.LFB56:
 134:..\..\..\lvgl\version_6.1.2\lvgl\src\lv_objx/lv_sw.c ****     LV_ASSERT_OBJ(sw, LV_OBJX_NAME);
 909              		.loc 1 134 0
 910              		.cfi_startproc
 911              		@ args = 0, pretend = 0, frame = 0
 912              		@ frame_needed = 0, uses_anonymous_args = 0
 913              	.LVL122:
 914 0000 70B5     		push	{r4, r5, r6, lr}
 915              		.cfi_def_cfa_offset 16
 916              		.cfi_offset 4, -16
 917              		.cfi_offset 5, -12
 918              		.cfi_offset 6, -8
 919              		.cfi_offset 14, -4
 134:..\..\..\lvgl\version_6.1.2\lvgl\src\lv_objx/lv_sw.c ****     LV_ASSERT_OBJ(sw, LV_OBJX_NAME);
 920              		.loc 1 134 0
 921 0002 0E46     		mov	r6, r1
 922 0004 0446     		mov	r4, r0
 140:..\..\..\lvgl\version_6.1.2\lvgl\src\lv_objx/lv_sw.c ****     lv_slider_set_value(sw, LV_SW_MAX_VALUE, anim);
 923              		.loc 1 140 0
 924 0006 FFF7FEFF 		bl	lv_obj_get_ext_attr
 925              	.LVL123:
 926 000a 0546     		mov	r5, r0
 927              	.LVL124:
 928              	.LBB183:
 929              	.LBB184:
  81:..\..\..\lvgl\version_6.1.2\lvgl\src\lv_objx/lv_slider.h **** }
 930              		.loc 3 81 0
 931 000c 3246     		mov	r2, r6
 932 000e 2046     		mov	r0, r4
 933              	.LVL125:
 934 0010 6421     		movs	r1, #100
 935 0012 FFF7FEFF 		bl	lv_bar_set_value
 936              	.LVL126:
 937              	.LBE184:
 938              	.LBE183:
 142:..\..\..\lvgl\version_6.1.2\lvgl\src\lv_objx/lv_sw.c **** }
 939              		.loc 1 142 0
 940 0016 2A6A     		ldr	r2, [r5, #32]
 941 0018 2046     		mov	r0, r4
 942 001a 0221     		movs	r1, #2
 143:..\..\..\lvgl\version_6.1.2\lvgl\src\lv_objx/lv_sw.c **** 
 943              		.loc 1 143 0
 944 001c BDE87040 		pop	{r4, r5, r6, lr}
 945              		.cfi_restore 14
 946              		.cfi_restore 6
 947              		.cfi_restore 5
 948              		.cfi_restore 4
 949              		.cfi_def_cfa_offset 0
ARM GAS  C:\Users\pearlstl\AppData\Local\Temp\ccxJ2nMb.s 			page 31


 950              	.LVL127:
 142:..\..\..\lvgl\version_6.1.2\lvgl\src\lv_objx/lv_sw.c **** }
 951              		.loc 1 142 0
 952 0020 FFF7FEBF 		b	lv_slider_set_style
 953              	.LVL128:
 954              		.cfi_endproc
 955              	.LFE56:
 956              		.size	lv_sw_on, .-lv_sw_on
 957              		.section	.text.lv_sw_off,"ax",%progbits
 958              		.align	2
 959              		.global	lv_sw_off
 960              		.thumb
 961              		.thumb_func
 962              		.type	lv_sw_off, %function
 963              	lv_sw_off:
 964              	.LFB57:
 151:..\..\..\lvgl\version_6.1.2\lvgl\src\lv_objx/lv_sw.c ****     LV_ASSERT_OBJ(sw, LV_OBJX_NAME);
 965              		.loc 1 151 0
 966              		.cfi_startproc
 967              		@ args = 0, pretend = 0, frame = 0
 968              		@ frame_needed = 0, uses_anonymous_args = 0
 969              	.LVL129:
 970 0000 70B5     		push	{r4, r5, r6, lr}
 971              		.cfi_def_cfa_offset 16
 972              		.cfi_offset 4, -16
 973              		.cfi_offset 5, -12
 974              		.cfi_offset 6, -8
 975              		.cfi_offset 14, -4
 151:..\..\..\lvgl\version_6.1.2\lvgl\src\lv_objx/lv_sw.c ****     LV_ASSERT_OBJ(sw, LV_OBJX_NAME);
 976              		.loc 1 151 0
 977 0002 0E46     		mov	r6, r1
 978 0004 0446     		mov	r4, r0
 157:..\..\..\lvgl\version_6.1.2\lvgl\src\lv_objx/lv_sw.c ****     lv_slider_set_value(sw, 0, anim);
 979              		.loc 1 157 0
 980 0006 FFF7FEFF 		bl	lv_obj_get_ext_attr
 981              	.LVL130:
 982 000a 0546     		mov	r5, r0
 983              	.LVL131:
 984              	.LBB187:
 985              	.LBB188:
  81:..\..\..\lvgl\version_6.1.2\lvgl\src\lv_objx/lv_slider.h **** }
 986              		.loc 3 81 0
 987 000c 3246     		mov	r2, r6
 988 000e 2046     		mov	r0, r4
 989              	.LVL132:
 990 0010 0021     		movs	r1, #0
 991 0012 FFF7FEFF 		bl	lv_bar_set_value
 992              	.LVL133:
 993              	.LBE188:
 994              	.LBE187:
 159:..\..\..\lvgl\version_6.1.2\lvgl\src\lv_objx/lv_sw.c **** }
 995              		.loc 1 159 0
 996 0016 EA69     		ldr	r2, [r5, #28]
 997 0018 2046     		mov	r0, r4
 998 001a 0221     		movs	r1, #2
 160:..\..\..\lvgl\version_6.1.2\lvgl\src\lv_objx/lv_sw.c **** 
 999              		.loc 1 160 0
ARM GAS  C:\Users\pearlstl\AppData\Local\Temp\ccxJ2nMb.s 			page 32


 1000 001c BDE87040 		pop	{r4, r5, r6, lr}
 1001              		.cfi_restore 14
 1002              		.cfi_restore 6
 1003              		.cfi_restore 5
 1004              		.cfi_restore 4
 1005              		.cfi_def_cfa_offset 0
 1006              	.LVL134:
 159:..\..\..\lvgl\version_6.1.2\lvgl\src\lv_objx/lv_sw.c **** }
 1007              		.loc 1 159 0
 1008 0020 FFF7FEBF 		b	lv_slider_set_style
 1009              	.LVL135:
 1010              		.cfi_endproc
 1011              	.LFE57:
 1012              		.size	lv_sw_off, .-lv_sw_off
 1013              		.section	.text.lv_sw_toggle,"ax",%progbits
 1014              		.align	2
 1015              		.global	lv_sw_toggle
 1016              		.thumb
 1017              		.thumb_func
 1018              		.type	lv_sw_toggle, %function
 1019              	lv_sw_toggle:
 1020              	.LFB58:
 169:..\..\..\lvgl\version_6.1.2\lvgl\src\lv_objx/lv_sw.c ****     LV_ASSERT_OBJ(sw, LV_OBJX_NAME);
 1021              		.loc 1 169 0
 1022              		.cfi_startproc
 1023              		@ args = 0, pretend = 0, frame = 0
 1024              		@ frame_needed = 0, uses_anonymous_args = 0
 1025              	.LVL136:
 1026 0000 F8B5     		push	{r3, r4, r5, r6, r7, lr}
 1027              		.cfi_def_cfa_offset 24
 1028              		.cfi_offset 3, -24
 1029              		.cfi_offset 4, -20
 1030              		.cfi_offset 5, -16
 1031              		.cfi_offset 6, -12
 1032              		.cfi_offset 7, -8
 1033              		.cfi_offset 14, -4
 169:..\..\..\lvgl\version_6.1.2\lvgl\src\lv_objx/lv_sw.c ****     LV_ASSERT_OBJ(sw, LV_OBJX_NAME);
 1034              		.loc 1 169 0
 1035 0002 0446     		mov	r4, r0
 1036              	.LVL137:
 1037 0004 0E46     		mov	r6, r1
 1038              	.LBB199:
 1039              	.LBB200:
 1040              		.loc 2 131 0
 1041 0006 FFF7FEFF 		bl	lv_bar_get_value
 1042              	.LVL138:
 1043              	.LBE200:
 1044              	.LBE199:
 177:..\..\..\lvgl\version_6.1.2\lvgl\src\lv_objx/lv_sw.c ****         lv_sw_off(sw, anim);
 1045              		.loc 1 177 0
 1046 000a 3128     		cmp	r0, #49
 1047              	.LBB202:
 1048              	.LBB201:
 1049              		.loc 2 131 0
 1050 000c 0546     		mov	r5, r0
 1051              	.LVL139:
 1052              	.LBE201:
ARM GAS  C:\Users\pearlstl\AppData\Local\Temp\ccxJ2nMb.s 			page 33


 1053              	.LBE202:
 1054              	.LBB203:
 1055              	.LBB204:
 157:..\..\..\lvgl\version_6.1.2\lvgl\src\lv_objx/lv_sw.c ****     lv_slider_set_value(sw, 0, anim);
 1056              		.loc 1 157 0
 1057 000e 2046     		mov	r0, r4
 1058              	.LBE204:
 1059              	.LBE203:
 177:..\..\..\lvgl\version_6.1.2\lvgl\src\lv_objx/lv_sw.c ****         lv_sw_off(sw, anim);
 1060              		.loc 1 177 0
 1061 0010 11DC     		bgt	.L98
 1062              	.LVL140:
 1063              	.LBB208:
 1064              	.LBB209:
 140:..\..\..\lvgl\version_6.1.2\lvgl\src\lv_objx/lv_sw.c ****     lv_slider_set_value(sw, LV_SW_MAX_VALUE, anim);
 1065              		.loc 1 140 0
 1066 0012 FFF7FEFF 		bl	lv_obj_get_ext_attr
 1067              	.LVL141:
 1068 0016 0746     		mov	r7, r0
 1069              	.LVL142:
 1070              	.LBB210:
 1071              	.LBB211:
  81:..\..\..\lvgl\version_6.1.2\lvgl\src\lv_objx/lv_slider.h **** }
 1072              		.loc 3 81 0
 1073 0018 3246     		mov	r2, r6
 1074 001a 6421     		movs	r1, #100
 1075 001c 2046     		mov	r0, r4
 1076              	.LVL143:
 1077 001e FFF7FEFF 		bl	lv_bar_set_value
 1078              	.LVL144:
 1079              	.LBE211:
 1080              	.LBE210:
 142:..\..\..\lvgl\version_6.1.2\lvgl\src\lv_objx/lv_sw.c **** }
 1081              		.loc 1 142 0
 1082 0022 3A6A     		ldr	r2, [r7, #32]
 1083 0024 2046     		mov	r0, r4
 1084 0026 0221     		movs	r1, #2
 1085 0028 FFF7FEFF 		bl	lv_slider_set_style
 1086              	.LVL145:
 1087              	.L96:
 1088              	.LBE209:
 1089              	.LBE208:
 183:..\..\..\lvgl\version_6.1.2\lvgl\src\lv_objx/lv_sw.c **** 
 1090              		.loc 1 183 0
 1091 002c 312D     		cmp	r5, #49
 1092 002e CCBF     		ite	gt
 1093 0030 0020     		movgt	r0, #0
 1094 0032 0120     		movle	r0, #1
 1095 0034 F8BD     		pop	{r3, r4, r5, r6, r7, pc}
 1096              	.LVL146:
 1097              	.L98:
 1098              	.LBB212:
 1099              	.LBB207:
 157:..\..\..\lvgl\version_6.1.2\lvgl\src\lv_objx/lv_sw.c ****     lv_slider_set_value(sw, 0, anim);
 1100              		.loc 1 157 0
 1101 0036 FFF7FEFF 		bl	lv_obj_get_ext_attr
 1102              	.LVL147:
ARM GAS  C:\Users\pearlstl\AppData\Local\Temp\ccxJ2nMb.s 			page 34


 1103 003a 0746     		mov	r7, r0
 1104              	.LVL148:
 1105              	.LBB205:
 1106              	.LBB206:
  81:..\..\..\lvgl\version_6.1.2\lvgl\src\lv_objx/lv_slider.h **** }
 1107              		.loc 3 81 0
 1108 003c 3246     		mov	r2, r6
 1109 003e 2046     		mov	r0, r4
 1110              	.LVL149:
 1111 0040 0021     		movs	r1, #0
 1112 0042 FFF7FEFF 		bl	lv_bar_set_value
 1113              	.LVL150:
 1114              	.LBE206:
 1115              	.LBE205:
 159:..\..\..\lvgl\version_6.1.2\lvgl\src\lv_objx/lv_sw.c **** }
 1116              		.loc 1 159 0
 1117 0046 FA69     		ldr	r2, [r7, #28]
 1118 0048 2046     		mov	r0, r4
 1119 004a 0221     		movs	r1, #2
 1120 004c FFF7FEFF 		bl	lv_slider_set_style
 1121              	.LVL151:
 1122 0050 ECE7     		b	.L96
 1123              	.LBE207:
 1124              	.LBE212:
 1125              		.cfi_endproc
 1126              	.LFE58:
 1127              		.size	lv_sw_toggle, .-lv_sw_toggle
 1128 0052 00BF     		.section	.text.lv_sw_set_style,"ax",%progbits
 1129              		.align	2
 1130              		.global	lv_sw_set_style
 1131              		.thumb
 1132              		.thumb_func
 1133              		.type	lv_sw_set_style, %function
 1134              	lv_sw_set_style:
 1135              	.LFB59:
 192:..\..\..\lvgl\version_6.1.2\lvgl\src\lv_objx/lv_sw.c ****     LV_ASSERT_OBJ(sw, LV_OBJX_NAME);
 1136              		.loc 1 192 0
 1137              		.cfi_startproc
 1138              		@ args = 0, pretend = 0, frame = 0
 1139              		@ frame_needed = 0, uses_anonymous_args = 0
 1140              	.LVL152:
 1141 0000 70B5     		push	{r4, r5, r6, lr}
 1142              		.cfi_def_cfa_offset 16
 1143              		.cfi_offset 4, -16
 1144              		.cfi_offset 5, -12
 1145              		.cfi_offset 6, -8
 1146              		.cfi_offset 14, -4
 192:..\..\..\lvgl\version_6.1.2\lvgl\src\lv_objx/lv_sw.c ****     LV_ASSERT_OBJ(sw, LV_OBJX_NAME);
 1147              		.loc 1 192 0
 1148 0002 0C46     		mov	r4, r1
 1149 0004 1646     		mov	r6, r2
 1150 0006 0546     		mov	r5, r0
 195:..\..\..\lvgl\version_6.1.2\lvgl\src\lv_objx/lv_sw.c **** 
 1151              		.loc 1 195 0
 1152 0008 FFF7FEFF 		bl	lv_obj_get_ext_attr
 1153              	.LVL153:
 197:..\..\..\lvgl\version_6.1.2\lvgl\src\lv_objx/lv_sw.c ****         case LV_SLIDER_STYLE_BG: lv_slider_set_style(sw, LV_SLIDER_STYLE_BG, style); break;
ARM GAS  C:\Users\pearlstl\AppData\Local\Temp\ccxJ2nMb.s 			page 35


 1154              		.loc 1 197 0
 1155 000c 032C     		cmp	r4, #3
 1156 000e 09D8     		bhi	.L99
 1157 0010 DFE804F0 		tbb	[pc, r4]
 1158              	.L102:
 1159 0014 1D       		.byte	(.L101-.L102)/2
 1160 0015 16       		.byte	(.L103-.L102)/2
 1161 0016 09       		.byte	(.L104-.L102)/2
 1162 0017 02       		.byte	(.L105-.L102)/2
 1163              		.p2align 1
 1164              	.L105:
 205:..\..\..\lvgl\version_6.1.2\lvgl\src\lv_objx/lv_sw.c ****             if(lv_sw_get_state(sw) != 0) lv_slider_set_style(sw, LV_SLIDER_STYLE_KNOB, style);
 1165              		.loc 1 205 0
 1166 0018 0662     		str	r6, [r0, #32]
 1167              	.LVL154:
 1168              	.LBB213:
 1169              	.LBB214:
 1170              		.loc 2 131 0
 1171 001a 2846     		mov	r0, r5
 1172              	.LVL155:
 1173 001c FFF7FEFF 		bl	lv_bar_get_value
 1174              	.LVL156:
 1175              	.LBE214:
 1176              	.LBE213:
 206:..\..\..\lvgl\version_6.1.2\lvgl\src\lv_objx/lv_sw.c ****             break;
 1177              		.loc 1 206 0
 1178 0020 3128     		cmp	r0, #49
 1179 0022 06DC     		bgt	.L106
 1180              	.L99:
 1181 0024 70BD     		pop	{r4, r5, r6, pc}
 1182              	.LVL157:
 1183              	.L104:
 201:..\..\..\lvgl\version_6.1.2\lvgl\src\lv_objx/lv_sw.c ****             if(lv_sw_get_state(sw) == 0) lv_slider_set_style(sw, LV_SLIDER_STYLE_KNOB, style);
 1184              		.loc 1 201 0
 1185 0026 C661     		str	r6, [r0, #28]
 1186              	.LVL158:
 1187              	.LBB215:
 1188              	.LBB216:
 1189              		.loc 2 131 0
 1190 0028 2846     		mov	r0, r5
 1191              	.LVL159:
 1192 002a FFF7FEFF 		bl	lv_bar_get_value
 1193              	.LVL160:
 1194              	.LBE216:
 1195              	.LBE215:
 202:..\..\..\lvgl\version_6.1.2\lvgl\src\lv_objx/lv_sw.c ****             break;
 1196              		.loc 1 202 0
 1197 002e 3128     		cmp	r0, #49
 1198 0030 F8DC     		bgt	.L99
 1199              	.L106:
 202:..\..\..\lvgl\version_6.1.2\lvgl\src\lv_objx/lv_sw.c ****             break;
 1200              		.loc 1 202 0 is_stmt 0 discriminator 1
 1201 0032 3246     		mov	r2, r6
 1202 0034 2846     		mov	r0, r5
 1203 0036 0221     		movs	r1, #2
 209:..\..\..\lvgl\version_6.1.2\lvgl\src\lv_objx/lv_sw.c **** 
 1204              		.loc 1 209 0 is_stmt 1 discriminator 1
ARM GAS  C:\Users\pearlstl\AppData\Local\Temp\ccxJ2nMb.s 			page 36


 1205 0038 BDE87040 		pop	{r4, r5, r6, lr}
 1206              		.cfi_remember_state
 1207              		.cfi_restore 14
 1208              		.cfi_restore 6
 1209              		.cfi_restore 5
 1210              		.cfi_restore 4
 1211              		.cfi_def_cfa_offset 0
 1212              	.LVL161:
 202:..\..\..\lvgl\version_6.1.2\lvgl\src\lv_objx/lv_sw.c ****             break;
 1213              		.loc 1 202 0 discriminator 1
 1214 003c FFF7FEBF 		b	lv_slider_set_style
 1215              	.LVL162:
 1216              	.L103:
 1217              		.cfi_restore_state
 199:..\..\..\lvgl\version_6.1.2\lvgl\src\lv_objx/lv_sw.c ****         case LV_SW_STYLE_KNOB_OFF:
 1218              		.loc 1 199 0
 1219 0040 3246     		mov	r2, r6
 1220 0042 2846     		mov	r0, r5
 1221              	.LVL163:
 1222 0044 0121     		movs	r1, #1
 209:..\..\..\lvgl\version_6.1.2\lvgl\src\lv_objx/lv_sw.c **** 
 1223              		.loc 1 209 0
 1224 0046 BDE87040 		pop	{r4, r5, r6, lr}
 1225              		.cfi_remember_state
 1226              		.cfi_restore 14
 1227              		.cfi_restore 6
 1228              		.cfi_restore 5
 1229              		.cfi_restore 4
 1230              		.cfi_def_cfa_offset 0
 1231              	.LVL164:
 199:..\..\..\lvgl\version_6.1.2\lvgl\src\lv_objx/lv_sw.c ****         case LV_SW_STYLE_KNOB_OFF:
 1232              		.loc 1 199 0
 1233 004a FFF7FEBF 		b	lv_bar_set_style
 1234              	.LVL165:
 1235              	.L101:
 1236              		.cfi_restore_state
 198:..\..\..\lvgl\version_6.1.2\lvgl\src\lv_objx/lv_sw.c ****         case LV_SLIDER_STYLE_INDIC: lv_bar_set_style(sw, LV_SLIDER_STYLE_INDIC, style); break;
 1237              		.loc 1 198 0
 1238 004e 3246     		mov	r2, r6
 1239 0050 2846     		mov	r0, r5
 1240              	.LVL166:
 1241 0052 0021     		movs	r1, #0
 209:..\..\..\lvgl\version_6.1.2\lvgl\src\lv_objx/lv_sw.c **** 
 1242              		.loc 1 209 0
 1243 0054 BDE87040 		pop	{r4, r5, r6, lr}
 1244              		.cfi_restore 14
 1245              		.cfi_restore 6
 1246              		.cfi_restore 5
 1247              		.cfi_restore 4
 1248              		.cfi_def_cfa_offset 0
 1249              	.LVL167:
 198:..\..\..\lvgl\version_6.1.2\lvgl\src\lv_objx/lv_sw.c ****         case LV_SLIDER_STYLE_INDIC: lv_bar_set_style(sw, LV_SLIDER_STYLE_INDIC, style); break;
 1250              		.loc 1 198 0
 1251 0058 FFF7FEBF 		b	lv_slider_set_style
 1252              	.LVL168:
 1253              		.cfi_endproc
 1254              	.LFE59:
ARM GAS  C:\Users\pearlstl\AppData\Local\Temp\ccxJ2nMb.s 			page 37


 1255              		.size	lv_sw_set_style, .-lv_sw_set_style
 1256              		.section	.text.lv_sw_set_anim_time,"ax",%progbits
 1257              		.align	2
 1258              		.global	lv_sw_set_anim_time
 1259              		.thumb
 1260              		.thumb_func
 1261              		.type	lv_sw_set_anim_time, %function
 1262              	lv_sw_set_anim_time:
 1263              	.LFB60:
 212:..\..\..\lvgl\version_6.1.2\lvgl\src\lv_objx/lv_sw.c ****     LV_ASSERT_OBJ(sw, LV_OBJX_NAME);
 1264              		.loc 1 212 0
 1265              		.cfi_startproc
 1266              		@ args = 0, pretend = 0, frame = 0
 1267              		@ frame_needed = 0, uses_anonymous_args = 0
 1268              	.LVL169:
 1269 0000 10B5     		push	{r4, lr}
 1270              		.cfi_def_cfa_offset 8
 1271              		.cfi_offset 4, -8
 1272              		.cfi_offset 14, -4
 212:..\..\..\lvgl\version_6.1.2\lvgl\src\lv_objx/lv_sw.c ****     LV_ASSERT_OBJ(sw, LV_OBJX_NAME);
 1273              		.loc 1 212 0
 1274 0002 0C46     		mov	r4, r1
 216:..\..\..\lvgl\version_6.1.2\lvgl\src\lv_objx/lv_sw.c ****     ext->anim_time    = anim_time;
 1275              		.loc 1 216 0
 1276 0004 FFF7FEFF 		bl	lv_obj_get_ext_attr
 1277              	.LVL170:
 217:..\..\..\lvgl\version_6.1.2\lvgl\src\lv_objx/lv_sw.c **** #else
 1278              		.loc 1 217 0
 1279 0008 0485     		strh	r4, [r0, #40]	@ movhi
 1280 000a 10BD     		pop	{r4, pc}
 1281              		.cfi_endproc
 1282              	.LFE60:
 1283              		.size	lv_sw_set_anim_time, .-lv_sw_set_anim_time
 1284              		.section	.text.lv_sw_get_style,"ax",%progbits
 1285              		.align	2
 1286              		.global	lv_sw_get_style
 1287              		.thumb
 1288              		.thumb_func
 1289              		.type	lv_sw_get_style, %function
 1290              	lv_sw_get_style:
 1291              	.LFB61:
 235:..\..\..\lvgl\version_6.1.2\lvgl\src\lv_objx/lv_sw.c ****     LV_ASSERT_OBJ(sw, LV_OBJX_NAME);
 1292              		.loc 1 235 0
 1293              		.cfi_startproc
 1294              		@ args = 0, pretend = 0, frame = 0
 1295              		@ frame_needed = 0, uses_anonymous_args = 0
 1296              	.LVL171:
 1297 0000 38B5     		push	{r3, r4, r5, lr}
 1298              		.cfi_def_cfa_offset 16
 1299              		.cfi_offset 3, -16
 1300              		.cfi_offset 4, -12
 1301              		.cfi_offset 5, -8
 1302              		.cfi_offset 14, -4
 235:..\..\..\lvgl\version_6.1.2\lvgl\src\lv_objx/lv_sw.c ****     LV_ASSERT_OBJ(sw, LV_OBJX_NAME);
 1303              		.loc 1 235 0
 1304 0002 0C46     		mov	r4, r1
 1305 0004 0546     		mov	r5, r0
ARM GAS  C:\Users\pearlstl\AppData\Local\Temp\ccxJ2nMb.s 			page 38


 239:..\..\..\lvgl\version_6.1.2\lvgl\src\lv_objx/lv_sw.c **** 
 1306              		.loc 1 239 0
 1307 0006 FFF7FEFF 		bl	lv_obj_get_ext_attr
 1308              	.LVL172:
 241:..\..\..\lvgl\version_6.1.2\lvgl\src\lv_objx/lv_sw.c ****         case LV_SW_STYLE_BG: style = lv_slider_get_style(sw, LV_SLIDER_STYLE_BG); break;
 1309              		.loc 1 241 0
 1310 000a 032C     		cmp	r4, #3
 1311 000c 13D8     		bhi	.L118
 1312 000e DFE804F0 		tbb	[pc, r4]
 1313              	.L114:
 1314 0012 0C       		.byte	(.L113-.L114)/2
 1315 0013 06       		.byte	(.L115-.L114)/2
 1316 0014 04       		.byte	(.L116-.L114)/2
 1317 0015 02       		.byte	(.L117-.L114)/2
 1318              		.p2align 1
 1319              	.L117:
 245:..\..\..\lvgl\version_6.1.2\lvgl\src\lv_objx/lv_sw.c ****         default: style = NULL; break;
 1320              		.loc 1 245 0
 1321 0016 006A     		ldr	r0, [r0, #32]
 1322              	.LVL173:
 1323 0018 38BD     		pop	{r3, r4, r5, pc}
 1324              	.LVL174:
 1325              	.L116:
 244:..\..\..\lvgl\version_6.1.2\lvgl\src\lv_objx/lv_sw.c ****         case LV_SW_STYLE_KNOB_ON: style = ext->style_knob_on; break;
 1326              		.loc 1 244 0
 1327 001a C069     		ldr	r0, [r0, #28]
 1328              	.LVL175:
 1329 001c 38BD     		pop	{r3, r4, r5, pc}
 1330              	.LVL176:
 1331              	.L115:
 243:..\..\..\lvgl\version_6.1.2\lvgl\src\lv_objx/lv_sw.c ****         case LV_SW_STYLE_KNOB_OFF: style = ext->style_knob_off; break;
 1332              		.loc 1 243 0
 1333 001e 2846     		mov	r0, r5
 1334              	.LVL177:
 1335 0020 0121     		movs	r1, #1
 250:..\..\..\lvgl\version_6.1.2\lvgl\src\lv_objx/lv_sw.c **** 
 1336              		.loc 1 250 0
 1337 0022 BDE83840 		pop	{r3, r4, r5, lr}
 1338              		.cfi_remember_state
 1339              		.cfi_restore 14
 1340              		.cfi_restore 5
 1341              		.cfi_restore 4
 1342              		.cfi_restore 3
 1343              		.cfi_def_cfa_offset 0
 1344              	.LVL178:
 243:..\..\..\lvgl\version_6.1.2\lvgl\src\lv_objx/lv_sw.c ****         case LV_SW_STYLE_KNOB_OFF: style = ext->style_knob_off; break;
 1345              		.loc 1 243 0
 1346 0026 FFF7FEBF 		b	lv_slider_get_style
 1347              	.LVL179:
 1348              	.L113:
 1349              		.cfi_restore_state
 242:..\..\..\lvgl\version_6.1.2\lvgl\src\lv_objx/lv_sw.c ****         case LV_SW_STYLE_INDIC: style = lv_slider_get_style(sw, LV_SLIDER_STYLE_INDIC); break;
 1350              		.loc 1 242 0
 1351 002a 2846     		mov	r0, r5
 1352              	.LVL180:
 1353 002c 0021     		movs	r1, #0
 250:..\..\..\lvgl\version_6.1.2\lvgl\src\lv_objx/lv_sw.c **** 
ARM GAS  C:\Users\pearlstl\AppData\Local\Temp\ccxJ2nMb.s 			page 39


 1354              		.loc 1 250 0
 1355 002e BDE83840 		pop	{r3, r4, r5, lr}
 1356              		.cfi_restore 14
 1357              		.cfi_restore 5
 1358              		.cfi_restore 4
 1359              		.cfi_restore 3
 1360              		.cfi_def_cfa_offset 0
 1361              	.LVL181:
 242:..\..\..\lvgl\version_6.1.2\lvgl\src\lv_objx/lv_sw.c ****         case LV_SW_STYLE_INDIC: style = lv_slider_get_style(sw, LV_SLIDER_STYLE_INDIC); break;
 1362              		.loc 1 242 0
 1363 0032 FFF7FEBF 		b	lv_slider_get_style
 1364              	.LVL182:
 1365              	.L118:
 246:..\..\..\lvgl\version_6.1.2\lvgl\src\lv_objx/lv_sw.c ****     }
 1366              		.loc 1 246 0
 1367 0036 0020     		movs	r0, #0
 1368              	.LVL183:
 250:..\..\..\lvgl\version_6.1.2\lvgl\src\lv_objx/lv_sw.c **** 
 1369              		.loc 1 250 0
 1370 0038 38BD     		pop	{r3, r4, r5, pc}
 1371              		.cfi_endproc
 1372              	.LFE61:
 1373              		.size	lv_sw_get_style, .-lv_sw_get_style
 1374 003a 00BF     		.section	.text.lv_sw_get_anim_time,"ax",%progbits
 1375              		.align	2
 1376              		.global	lv_sw_get_anim_time
 1377              		.thumb
 1378              		.thumb_func
 1379              		.type	lv_sw_get_anim_time, %function
 1380              	lv_sw_get_anim_time:
 1381              	.LFB62:
 253:..\..\..\lvgl\version_6.1.2\lvgl\src\lv_objx/lv_sw.c ****     LV_ASSERT_OBJ(sw, LV_OBJX_NAME);
 1382              		.loc 1 253 0
 1383              		.cfi_startproc
 1384              		@ args = 0, pretend = 0, frame = 0
 1385              		@ frame_needed = 0, uses_anonymous_args = 0
 1386              	.LVL184:
 1387 0000 08B5     		push	{r3, lr}
 1388              		.cfi_def_cfa_offset 8
 1389              		.cfi_offset 3, -8
 1390              		.cfi_offset 14, -4
 257:..\..\..\lvgl\version_6.1.2\lvgl\src\lv_objx/lv_sw.c ****     return ext->anim_time;
 1391              		.loc 1 257 0
 1392 0002 FFF7FEFF 		bl	lv_obj_get_ext_attr
 1393              	.LVL185:
 263:..\..\..\lvgl\version_6.1.2\lvgl\src\lv_objx/lv_sw.c **** 
 1394              		.loc 1 263 0
 1395 0006 008D     		ldrh	r0, [r0, #40]
 1396              	.LVL186:
 1397 0008 08BD     		pop	{r3, pc}
 1398              		.cfi_endproc
 1399              	.LFE62:
 1400              		.size	lv_sw_get_anim_time, .-lv_sw_get_anim_time
 1401 000a 00BF     		.section	.rodata.str1.4,"aMS",%progbits,1
 1402              		.align	2
 1403              	.LC0:
 1404 0000 6C765F73 		.ascii	"lv_sw\000"
ARM GAS  C:\Users\pearlstl\AppData\Local\Temp\ccxJ2nMb.s 			page 40


 1404      7700
 1405              		.bss
 1406              		.align	2
 1407              		.set	.LANCHOR0,. + 0
 1408              		.type	ancestor_signal, %object
 1409              		.size	ancestor_signal, 4
 1410              	ancestor_signal:
 1411 0000 00000000 		.space	4
 1412              		.text
 1413              	.Letext0:
 1414              		.file 4 "c:\\program files (x86)\\cypress\\psoc creator\\4.2\\psoc creator\\import\\gnu\\arm\\5.4.
 1415              		.file 5 "c:\\program files (x86)\\cypress\\psoc creator\\4.2\\psoc creator\\import\\gnu\\arm\\5.4.
 1416              		.file 6 "..\\..\\..\\lvgl\\version_6.1.2\\lvgl\\src\\lv_objx\\../../../lv_conf.h"
 1417              		.file 7 "..\\..\\..\\lvgl\\version_6.1.2\\lvgl\\src\\lv_objx\\../lv_core/../lv_font/lv_font.h"
 1418              		.file 8 "..\\..\\..\\lvgl\\version_6.1.2\\lvgl\\src\\lv_objx\\../lv_core/../lv_misc/lv_color.h"
 1419              		.file 9 "..\\..\\..\\lvgl\\version_6.1.2\\lvgl\\src\\lv_objx\\../lv_core/../lv_misc/lv_area.h"
 1420              		.file 10 "..\\..\\..\\lvgl\\version_6.1.2\\lvgl\\src\\lv_objx\\../lv_core/../lv_misc/lv_anim.h"
 1421              		.file 11 "..\\..\\..\\lvgl\\version_6.1.2\\lvgl\\src\\lv_objx\\../lv_core/lv_style.h"
 1422              		.file 12 "..\\..\\..\\lvgl\\version_6.1.2\\lvgl\\src\\lv_objx\\../lv_core/../lv_misc/lv_types.h"
 1423              		.file 13 "..\\..\\..\\lvgl\\version_6.1.2\\lvgl\\src\\lv_objx\\../lv_core/../lv_misc/lv_ll.h"
 1424              		.file 14 "..\\..\\..\\lvgl\\version_6.1.2\\lvgl\\src\\lv_objx\\../lv_core/../lv_misc/lv_bidi.h"
 1425              		.file 15 "..\\..\\..\\lvgl\\version_6.1.2\\lvgl\\src\\lv_objx\\../lv_core/../lv_hal/../lv_misc/lv_
 1426              		.file 16 "..\\..\\..\\lvgl\\version_6.1.2\\lvgl\\src\\lv_objx\\../lv_core/../lv_hal/lv_hal_disp.h"
 1427              		.file 17 "..\\..\\..\\lvgl\\version_6.1.2\\lvgl\\src\\lv_objx\\../lv_core/lv_obj.h"
 1428              		.file 18 "..\\..\\..\\lvgl\\version_6.1.2\\lvgl\\src\\lv_objx\\../lv_core/../lv_hal/lv_hal_indev.h
 1429              		.file 19 "..\\..\\..\\lvgl\\version_6.1.2\\lvgl\\src\\lv_objx\\../lv_core/../lv_core/lv_group.h"
 1430              		.file 20 "..\\..\\..\\lvgl\\version_6.1.2\\lvgl\\src\\lv_objx\\lv_btn.h"
 1431              		.file 21 "..\\..\\..\\lvgl\\version_6.1.2\\lvgl\\src\\lv_objx\\lv_bar.h"
 1432              		.file 22 "..\\..\\..\\lvgl\\version_6.1.2\\lvgl\\src\\lv_objx\\../lv_themes/lv_theme.h"
 1433              		.file 23 "..\\..\\..\\lvgl\\version_6.1.2\\lvgl\\src\\lv_objx\\../lv_core/lv_indev.h"