ARM GAS  C:\Users\pearlstl\AppData\Local\Temp\cc98wxIE.s 			page 1


   1              		.syntax unified
   2              		.cpu cortex-m4
   3              		.eabi_attribute 27, 1
   4              		.fpu fpv4-sp-d16
   5              		.eabi_attribute 20, 1
   6              		.eabi_attribute 21, 1
   7              		.eabi_attribute 23, 3
   8              		.eabi_attribute 24, 1
   9              		.eabi_attribute 25, 1
  10              		.eabi_attribute 26, 1
  11              		.eabi_attribute 30, 2
  12              		.eabi_attribute 34, 1
  13              		.eabi_attribute 18, 4
  14              		.thumb
  15              		.syntax unified
  16              		.file	"lv_spinbox.c"
  17              		.text
  18              	.Ltext0:
  19              		.cfi_sections	.debug_frame
  20              		.section	.text.lv_spinbox_updatevalue,"ax",%progbits
  21              		.align	2
  22              		.thumb
  23              		.thumb_func
  24              		.type	lv_spinbox_updatevalue, %function
  25              	lv_spinbox_updatevalue:
  26              	.LFB70:
  27              		.file 1 "..\\..\\..\\lvgl\\version_6.1.2\\lvgl\\src\\lv_objx\\lv_spinbox.c"
   1:..\..\..\lvgl\version_6.1.2\lvgl\src\lv_objx/lv_spinbox.c **** /**
   2:..\..\..\lvgl\version_6.1.2\lvgl\src\lv_objx/lv_spinbox.c ****  * @file lv_spinbox.c
   3:..\..\..\lvgl\version_6.1.2\lvgl\src\lv_objx/lv_spinbox.c ****  *
   4:..\..\..\lvgl\version_6.1.2\lvgl\src\lv_objx/lv_spinbox.c ****  */
   5:..\..\..\lvgl\version_6.1.2\lvgl\src\lv_objx/lv_spinbox.c **** 
   6:..\..\..\lvgl\version_6.1.2\lvgl\src\lv_objx/lv_spinbox.c **** /*********************
   7:..\..\..\lvgl\version_6.1.2\lvgl\src\lv_objx/lv_spinbox.c ****  *      INCLUDES
   8:..\..\..\lvgl\version_6.1.2\lvgl\src\lv_objx/lv_spinbox.c ****  *********************/
   9:..\..\..\lvgl\version_6.1.2\lvgl\src\lv_objx/lv_spinbox.c **** #include "lv_spinbox.h"
  10:..\..\..\lvgl\version_6.1.2\lvgl\src\lv_objx/lv_spinbox.c **** 
  11:..\..\..\lvgl\version_6.1.2\lvgl\src\lv_objx/lv_spinbox.c **** #if LV_USE_SPINBOX != 0
  12:..\..\..\lvgl\version_6.1.2\lvgl\src\lv_objx/lv_spinbox.c **** #include "../lv_core/lv_debug.h"
  13:..\..\..\lvgl\version_6.1.2\lvgl\src\lv_objx/lv_spinbox.c **** #include "../lv_themes/lv_theme.h"
  14:..\..\..\lvgl\version_6.1.2\lvgl\src\lv_objx/lv_spinbox.c **** #include "../lv_misc/lv_math.h"
  15:..\..\..\lvgl\version_6.1.2\lvgl\src\lv_objx/lv_spinbox.c **** #include "../lv_misc/lv_utils.h"
  16:..\..\..\lvgl\version_6.1.2\lvgl\src\lv_objx/lv_spinbox.c **** 
  17:..\..\..\lvgl\version_6.1.2\lvgl\src\lv_objx/lv_spinbox.c **** /*********************
  18:..\..\..\lvgl\version_6.1.2\lvgl\src\lv_objx/lv_spinbox.c ****  *      DEFINES
  19:..\..\..\lvgl\version_6.1.2\lvgl\src\lv_objx/lv_spinbox.c ****  *********************/
  20:..\..\..\lvgl\version_6.1.2\lvgl\src\lv_objx/lv_spinbox.c **** #define LV_OBJX_NAME "lv_spinbox"
  21:..\..\..\lvgl\version_6.1.2\lvgl\src\lv_objx/lv_spinbox.c **** 
  22:..\..\..\lvgl\version_6.1.2\lvgl\src\lv_objx/lv_spinbox.c **** /**********************
  23:..\..\..\lvgl\version_6.1.2\lvgl\src\lv_objx/lv_spinbox.c ****  *      TYPEDEFS
  24:..\..\..\lvgl\version_6.1.2\lvgl\src\lv_objx/lv_spinbox.c ****  **********************/
  25:..\..\..\lvgl\version_6.1.2\lvgl\src\lv_objx/lv_spinbox.c **** 
  26:..\..\..\lvgl\version_6.1.2\lvgl\src\lv_objx/lv_spinbox.c **** /**********************
  27:..\..\..\lvgl\version_6.1.2\lvgl\src\lv_objx/lv_spinbox.c ****  *  STATIC PROTOTYPES
  28:..\..\..\lvgl\version_6.1.2\lvgl\src\lv_objx/lv_spinbox.c ****  **********************/
  29:..\..\..\lvgl\version_6.1.2\lvgl\src\lv_objx/lv_spinbox.c **** static lv_res_t lv_spinbox_signal(lv_obj_t * spinbox, lv_signal_t sign, void * param);
  30:..\..\..\lvgl\version_6.1.2\lvgl\src\lv_objx/lv_spinbox.c **** static void lv_spinbox_updatevalue(lv_obj_t * spinbox);
ARM GAS  C:\Users\pearlstl\AppData\Local\Temp\cc98wxIE.s 			page 2


  31:..\..\..\lvgl\version_6.1.2\lvgl\src\lv_objx/lv_spinbox.c **** 
  32:..\..\..\lvgl\version_6.1.2\lvgl\src\lv_objx/lv_spinbox.c **** /**********************
  33:..\..\..\lvgl\version_6.1.2\lvgl\src\lv_objx/lv_spinbox.c ****  *  STATIC VARIABLES
  34:..\..\..\lvgl\version_6.1.2\lvgl\src\lv_objx/lv_spinbox.c ****  **********************/
  35:..\..\..\lvgl\version_6.1.2\lvgl\src\lv_objx/lv_spinbox.c **** static lv_signal_cb_t ancestor_signal;
  36:..\..\..\lvgl\version_6.1.2\lvgl\src\lv_objx/lv_spinbox.c **** static lv_design_cb_t ancestor_design;
  37:..\..\..\lvgl\version_6.1.2\lvgl\src\lv_objx/lv_spinbox.c **** 
  38:..\..\..\lvgl\version_6.1.2\lvgl\src\lv_objx/lv_spinbox.c **** /**********************
  39:..\..\..\lvgl\version_6.1.2\lvgl\src\lv_objx/lv_spinbox.c ****  *      MACROS
  40:..\..\..\lvgl\version_6.1.2\lvgl\src\lv_objx/lv_spinbox.c ****  **********************/
  41:..\..\..\lvgl\version_6.1.2\lvgl\src\lv_objx/lv_spinbox.c **** 
  42:..\..\..\lvgl\version_6.1.2\lvgl\src\lv_objx/lv_spinbox.c **** /**********************
  43:..\..\..\lvgl\version_6.1.2\lvgl\src\lv_objx/lv_spinbox.c ****  *   GLOBAL FUNCTIONS
  44:..\..\..\lvgl\version_6.1.2\lvgl\src\lv_objx/lv_spinbox.c ****  **********************/
  45:..\..\..\lvgl\version_6.1.2\lvgl\src\lv_objx/lv_spinbox.c **** 
  46:..\..\..\lvgl\version_6.1.2\lvgl\src\lv_objx/lv_spinbox.c **** /**
  47:..\..\..\lvgl\version_6.1.2\lvgl\src\lv_objx/lv_spinbox.c ****  * Create a spinbox object
  48:..\..\..\lvgl\version_6.1.2\lvgl\src\lv_objx/lv_spinbox.c ****  * @param par pointer to an object, it will be the parent of the new spinbox
  49:..\..\..\lvgl\version_6.1.2\lvgl\src\lv_objx/lv_spinbox.c ****  * @param copy pointer to a spinbox object, if not NULL then the new object will be copied from it
  50:..\..\..\lvgl\version_6.1.2\lvgl\src\lv_objx/lv_spinbox.c ****  * @return pointer to the created spinbox
  51:..\..\..\lvgl\version_6.1.2\lvgl\src\lv_objx/lv_spinbox.c ****  */
  52:..\..\..\lvgl\version_6.1.2\lvgl\src\lv_objx/lv_spinbox.c **** lv_obj_t * lv_spinbox_create(lv_obj_t * par, const lv_obj_t * copy)
  53:..\..\..\lvgl\version_6.1.2\lvgl\src\lv_objx/lv_spinbox.c **** {
  54:..\..\..\lvgl\version_6.1.2\lvgl\src\lv_objx/lv_spinbox.c ****     LV_LOG_TRACE("spinbox create started");
  55:..\..\..\lvgl\version_6.1.2\lvgl\src\lv_objx/lv_spinbox.c **** 
  56:..\..\..\lvgl\version_6.1.2\lvgl\src\lv_objx/lv_spinbox.c ****     /*Create the ancestor of spinbox*/
  57:..\..\..\lvgl\version_6.1.2\lvgl\src\lv_objx/lv_spinbox.c ****     lv_obj_t * new_spinbox = lv_ta_create(par, copy);
  58:..\..\..\lvgl\version_6.1.2\lvgl\src\lv_objx/lv_spinbox.c ****     LV_ASSERT_MEM(new_spinbox);
  59:..\..\..\lvgl\version_6.1.2\lvgl\src\lv_objx/lv_spinbox.c ****     if(new_spinbox == NULL) return NULL;
  60:..\..\..\lvgl\version_6.1.2\lvgl\src\lv_objx/lv_spinbox.c **** 
  61:..\..\..\lvgl\version_6.1.2\lvgl\src\lv_objx/lv_spinbox.c ****     /*Allocate the spinbox type specific extended data*/
  62:..\..\..\lvgl\version_6.1.2\lvgl\src\lv_objx/lv_spinbox.c ****     lv_spinbox_ext_t * ext = lv_obj_allocate_ext_attr(new_spinbox, sizeof(lv_spinbox_ext_t));
  63:..\..\..\lvgl\version_6.1.2\lvgl\src\lv_objx/lv_spinbox.c ****     LV_ASSERT_MEM(ext);
  64:..\..\..\lvgl\version_6.1.2\lvgl\src\lv_objx/lv_spinbox.c ****     if(ext == NULL) return NULL;
  65:..\..\..\lvgl\version_6.1.2\lvgl\src\lv_objx/lv_spinbox.c ****     if(ancestor_signal == NULL) ancestor_signal = lv_obj_get_signal_cb(new_spinbox);
  66:..\..\..\lvgl\version_6.1.2\lvgl\src\lv_objx/lv_spinbox.c ****     if(ancestor_design == NULL) ancestor_design = lv_obj_get_design_cb(new_spinbox);
  67:..\..\..\lvgl\version_6.1.2\lvgl\src\lv_objx/lv_spinbox.c **** 
  68:..\..\..\lvgl\version_6.1.2\lvgl\src\lv_objx/lv_spinbox.c ****     /*Initialize the allocated 'ext'*/
  69:..\..\..\lvgl\version_6.1.2\lvgl\src\lv_objx/lv_spinbox.c ****     ext->value              = 0;
  70:..\..\..\lvgl\version_6.1.2\lvgl\src\lv_objx/lv_spinbox.c ****     ext->dec_point_pos      = 0;
  71:..\..\..\lvgl\version_6.1.2\lvgl\src\lv_objx/lv_spinbox.c ****     ext->digit_count        = 5;
  72:..\..\..\lvgl\version_6.1.2\lvgl\src\lv_objx/lv_spinbox.c ****     ext->digit_padding_left = 0;
  73:..\..\..\lvgl\version_6.1.2\lvgl\src\lv_objx/lv_spinbox.c ****     ext->step               = 1;
  74:..\..\..\lvgl\version_6.1.2\lvgl\src\lv_objx/lv_spinbox.c ****     ext->range_max          = 99999;
  75:..\..\..\lvgl\version_6.1.2\lvgl\src\lv_objx/lv_spinbox.c ****     ext->range_min          = -99999;
  76:..\..\..\lvgl\version_6.1.2\lvgl\src\lv_objx/lv_spinbox.c **** 
  77:..\..\..\lvgl\version_6.1.2\lvgl\src\lv_objx/lv_spinbox.c ****     lv_ta_set_cursor_type(new_spinbox, LV_CURSOR_BLOCK);
  78:..\..\..\lvgl\version_6.1.2\lvgl\src\lv_objx/lv_spinbox.c ****     lv_ta_set_one_line(new_spinbox, true);
  79:..\..\..\lvgl\version_6.1.2\lvgl\src\lv_objx/lv_spinbox.c ****     lv_ta_set_cursor_click_pos(new_spinbox, false);
  80:..\..\..\lvgl\version_6.1.2\lvgl\src\lv_objx/lv_spinbox.c **** 
  81:..\..\..\lvgl\version_6.1.2\lvgl\src\lv_objx/lv_spinbox.c ****     /*The signal and design functions are not copied so set them here*/
  82:..\..\..\lvgl\version_6.1.2\lvgl\src\lv_objx/lv_spinbox.c ****     lv_obj_set_signal_cb(new_spinbox, lv_spinbox_signal);
  83:..\..\..\lvgl\version_6.1.2\lvgl\src\lv_objx/lv_spinbox.c ****     lv_obj_set_design_cb(new_spinbox, ancestor_design); /*Leave the Text area's design function*/
  84:..\..\..\lvgl\version_6.1.2\lvgl\src\lv_objx/lv_spinbox.c **** 
  85:..\..\..\lvgl\version_6.1.2\lvgl\src\lv_objx/lv_spinbox.c ****     /*Init the new spinbox spinbox*/
  86:..\..\..\lvgl\version_6.1.2\lvgl\src\lv_objx/lv_spinbox.c ****     if(copy == NULL) {
  87:..\..\..\lvgl\version_6.1.2\lvgl\src\lv_objx/lv_spinbox.c ****         /*Set the default styles*/
ARM GAS  C:\Users\pearlstl\AppData\Local\Temp\cc98wxIE.s 			page 3


  88:..\..\..\lvgl\version_6.1.2\lvgl\src\lv_objx/lv_spinbox.c ****         lv_theme_t * th = lv_theme_get_current();
  89:..\..\..\lvgl\version_6.1.2\lvgl\src\lv_objx/lv_spinbox.c ****         if(th) {
  90:..\..\..\lvgl\version_6.1.2\lvgl\src\lv_objx/lv_spinbox.c ****             lv_spinbox_set_style(new_spinbox, LV_SPINBOX_STYLE_BG, th->style.spinbox.bg);
  91:..\..\..\lvgl\version_6.1.2\lvgl\src\lv_objx/lv_spinbox.c ****             lv_spinbox_set_style(new_spinbox, LV_SPINBOX_STYLE_CURSOR, th->style.spinbox.cursor);
  92:..\..\..\lvgl\version_6.1.2\lvgl\src\lv_objx/lv_spinbox.c ****             lv_spinbox_set_style(new_spinbox, LV_SPINBOX_STYLE_SB, th->style.spinbox.sb);
  93:..\..\..\lvgl\version_6.1.2\lvgl\src\lv_objx/lv_spinbox.c ****         }
  94:..\..\..\lvgl\version_6.1.2\lvgl\src\lv_objx/lv_spinbox.c ****     }
  95:..\..\..\lvgl\version_6.1.2\lvgl\src\lv_objx/lv_spinbox.c ****     /*Copy an existing spinbox*/
  96:..\..\..\lvgl\version_6.1.2\lvgl\src\lv_objx/lv_spinbox.c ****     else {
  97:..\..\..\lvgl\version_6.1.2\lvgl\src\lv_objx/lv_spinbox.c ****         lv_spinbox_ext_t * copy_ext = lv_obj_get_ext_attr(copy);
  98:..\..\..\lvgl\version_6.1.2\lvgl\src\lv_objx/lv_spinbox.c **** 
  99:..\..\..\lvgl\version_6.1.2\lvgl\src\lv_objx/lv_spinbox.c ****         lv_spinbox_set_value(new_spinbox, copy_ext->value);
 100:..\..\..\lvgl\version_6.1.2\lvgl\src\lv_objx/lv_spinbox.c ****         lv_spinbox_set_digit_format(new_spinbox, (uint8_t)copy_ext->digit_count, (uint8_t)copy_ext-
 101:..\..\..\lvgl\version_6.1.2\lvgl\src\lv_objx/lv_spinbox.c ****         lv_spinbox_set_range(new_spinbox, copy_ext->range_min, copy_ext->range_max);
 102:..\..\..\lvgl\version_6.1.2\lvgl\src\lv_objx/lv_spinbox.c ****         lv_spinbox_set_step(new_spinbox, copy_ext->step);
 103:..\..\..\lvgl\version_6.1.2\lvgl\src\lv_objx/lv_spinbox.c **** 
 104:..\..\..\lvgl\version_6.1.2\lvgl\src\lv_objx/lv_spinbox.c ****         /*Refresh the style with new signal function*/
 105:..\..\..\lvgl\version_6.1.2\lvgl\src\lv_objx/lv_spinbox.c ****         lv_obj_refresh_style(new_spinbox);
 106:..\..\..\lvgl\version_6.1.2\lvgl\src\lv_objx/lv_spinbox.c ****     }
 107:..\..\..\lvgl\version_6.1.2\lvgl\src\lv_objx/lv_spinbox.c **** 
 108:..\..\..\lvgl\version_6.1.2\lvgl\src\lv_objx/lv_spinbox.c ****     lv_spinbox_updatevalue(new_spinbox);
 109:..\..\..\lvgl\version_6.1.2\lvgl\src\lv_objx/lv_spinbox.c **** 
 110:..\..\..\lvgl\version_6.1.2\lvgl\src\lv_objx/lv_spinbox.c ****     LV_LOG_INFO("spinbox created");
 111:..\..\..\lvgl\version_6.1.2\lvgl\src\lv_objx/lv_spinbox.c **** 
 112:..\..\..\lvgl\version_6.1.2\lvgl\src\lv_objx/lv_spinbox.c ****     return new_spinbox;
 113:..\..\..\lvgl\version_6.1.2\lvgl\src\lv_objx/lv_spinbox.c **** }
 114:..\..\..\lvgl\version_6.1.2\lvgl\src\lv_objx/lv_spinbox.c **** 
 115:..\..\..\lvgl\version_6.1.2\lvgl\src\lv_objx/lv_spinbox.c **** /*=====================
 116:..\..\..\lvgl\version_6.1.2\lvgl\src\lv_objx/lv_spinbox.c ****  * Setter functions
 117:..\..\..\lvgl\version_6.1.2\lvgl\src\lv_objx/lv_spinbox.c ****  *====================*/
 118:..\..\..\lvgl\version_6.1.2\lvgl\src\lv_objx/lv_spinbox.c **** 
 119:..\..\..\lvgl\version_6.1.2\lvgl\src\lv_objx/lv_spinbox.c **** /**
 120:..\..\..\lvgl\version_6.1.2\lvgl\src\lv_objx/lv_spinbox.c ****  * Set spinbox value
 121:..\..\..\lvgl\version_6.1.2\lvgl\src\lv_objx/lv_spinbox.c ****  * @param spinbox pointer to spinbox
 122:..\..\..\lvgl\version_6.1.2\lvgl\src\lv_objx/lv_spinbox.c ****  * @param i value to be set
 123:..\..\..\lvgl\version_6.1.2\lvgl\src\lv_objx/lv_spinbox.c ****  */
 124:..\..\..\lvgl\version_6.1.2\lvgl\src\lv_objx/lv_spinbox.c **** void lv_spinbox_set_value(lv_obj_t * spinbox, int32_t i)
 125:..\..\..\lvgl\version_6.1.2\lvgl\src\lv_objx/lv_spinbox.c **** {
 126:..\..\..\lvgl\version_6.1.2\lvgl\src\lv_objx/lv_spinbox.c ****     LV_ASSERT_OBJ(spinbox, LV_OBJX_NAME);
 127:..\..\..\lvgl\version_6.1.2\lvgl\src\lv_objx/lv_spinbox.c **** 
 128:..\..\..\lvgl\version_6.1.2\lvgl\src\lv_objx/lv_spinbox.c ****     lv_spinbox_ext_t * ext = lv_obj_get_ext_attr(spinbox);
 129:..\..\..\lvgl\version_6.1.2\lvgl\src\lv_objx/lv_spinbox.c ****     if(ext == NULL) return;
 130:..\..\..\lvgl\version_6.1.2\lvgl\src\lv_objx/lv_spinbox.c **** 
 131:..\..\..\lvgl\version_6.1.2\lvgl\src\lv_objx/lv_spinbox.c ****     if(i > ext->range_max) i = ext->range_max;
 132:..\..\..\lvgl\version_6.1.2\lvgl\src\lv_objx/lv_spinbox.c ****     if(i < ext->range_min) i = ext->range_min;
 133:..\..\..\lvgl\version_6.1.2\lvgl\src\lv_objx/lv_spinbox.c **** 
 134:..\..\..\lvgl\version_6.1.2\lvgl\src\lv_objx/lv_spinbox.c ****     ext->value = i;
 135:..\..\..\lvgl\version_6.1.2\lvgl\src\lv_objx/lv_spinbox.c **** 
 136:..\..\..\lvgl\version_6.1.2\lvgl\src\lv_objx/lv_spinbox.c ****     lv_spinbox_updatevalue(spinbox);
 137:..\..\..\lvgl\version_6.1.2\lvgl\src\lv_objx/lv_spinbox.c **** }
 138:..\..\..\lvgl\version_6.1.2\lvgl\src\lv_objx/lv_spinbox.c **** 
 139:..\..\..\lvgl\version_6.1.2\lvgl\src\lv_objx/lv_spinbox.c **** /**
 140:..\..\..\lvgl\version_6.1.2\lvgl\src\lv_objx/lv_spinbox.c ****  * Set spinbox digit format (digit count and decimal format)
 141:..\..\..\lvgl\version_6.1.2\lvgl\src\lv_objx/lv_spinbox.c ****  * @param spinbox pointer to spinbox
 142:..\..\..\lvgl\version_6.1.2\lvgl\src\lv_objx/lv_spinbox.c ****  * @param digit_count number of digit excluding the decimal separator and the sign
 143:..\..\..\lvgl\version_6.1.2\lvgl\src\lv_objx/lv_spinbox.c ****  * @param separator_position number of digit before the decimal point. If 0, decimal point is not
 144:..\..\..\lvgl\version_6.1.2\lvgl\src\lv_objx/lv_spinbox.c ****  * shown
ARM GAS  C:\Users\pearlstl\AppData\Local\Temp\cc98wxIE.s 			page 4


 145:..\..\..\lvgl\version_6.1.2\lvgl\src\lv_objx/lv_spinbox.c ****  */
 146:..\..\..\lvgl\version_6.1.2\lvgl\src\lv_objx/lv_spinbox.c **** void lv_spinbox_set_digit_format(lv_obj_t * spinbox, uint8_t digit_count, uint8_t separator_positio
 147:..\..\..\lvgl\version_6.1.2\lvgl\src\lv_objx/lv_spinbox.c **** {
 148:..\..\..\lvgl\version_6.1.2\lvgl\src\lv_objx/lv_spinbox.c ****     LV_ASSERT_OBJ(spinbox, LV_OBJX_NAME);
 149:..\..\..\lvgl\version_6.1.2\lvgl\src\lv_objx/lv_spinbox.c **** 
 150:..\..\..\lvgl\version_6.1.2\lvgl\src\lv_objx/lv_spinbox.c ****     lv_spinbox_ext_t * ext = lv_obj_get_ext_attr(spinbox);
 151:..\..\..\lvgl\version_6.1.2\lvgl\src\lv_objx/lv_spinbox.c ****     if(ext == NULL) return;
 152:..\..\..\lvgl\version_6.1.2\lvgl\src\lv_objx/lv_spinbox.c **** 
 153:..\..\..\lvgl\version_6.1.2\lvgl\src\lv_objx/lv_spinbox.c ****     if(digit_count > LV_SPINBOX_MAX_DIGIT_COUNT) digit_count = LV_SPINBOX_MAX_DIGIT_COUNT;
 154:..\..\..\lvgl\version_6.1.2\lvgl\src\lv_objx/lv_spinbox.c **** 
 155:..\..\..\lvgl\version_6.1.2\lvgl\src\lv_objx/lv_spinbox.c ****     if(separator_position > LV_SPINBOX_MAX_DIGIT_COUNT) separator_position = LV_SPINBOX_MAX_DIGIT_C
 156:..\..\..\lvgl\version_6.1.2\lvgl\src\lv_objx/lv_spinbox.c **** 
 157:..\..\..\lvgl\version_6.1.2\lvgl\src\lv_objx/lv_spinbox.c ****     ext->digit_count   = digit_count;
 158:..\..\..\lvgl\version_6.1.2\lvgl\src\lv_objx/lv_spinbox.c ****     ext->dec_point_pos = separator_position;
 159:..\..\..\lvgl\version_6.1.2\lvgl\src\lv_objx/lv_spinbox.c **** 
 160:..\..\..\lvgl\version_6.1.2\lvgl\src\lv_objx/lv_spinbox.c ****     lv_spinbox_updatevalue(spinbox);
 161:..\..\..\lvgl\version_6.1.2\lvgl\src\lv_objx/lv_spinbox.c **** }
 162:..\..\..\lvgl\version_6.1.2\lvgl\src\lv_objx/lv_spinbox.c **** 
 163:..\..\..\lvgl\version_6.1.2\lvgl\src\lv_objx/lv_spinbox.c **** /**
 164:..\..\..\lvgl\version_6.1.2\lvgl\src\lv_objx/lv_spinbox.c ****  * Set spinbox step
 165:..\..\..\lvgl\version_6.1.2\lvgl\src\lv_objx/lv_spinbox.c ****  * @param spinbox pointer to spinbox
 166:..\..\..\lvgl\version_6.1.2\lvgl\src\lv_objx/lv_spinbox.c ****  * @param step steps on increment/decrement
 167:..\..\..\lvgl\version_6.1.2\lvgl\src\lv_objx/lv_spinbox.c ****  */
 168:..\..\..\lvgl\version_6.1.2\lvgl\src\lv_objx/lv_spinbox.c **** void lv_spinbox_set_step(lv_obj_t * spinbox, uint32_t step)
 169:..\..\..\lvgl\version_6.1.2\lvgl\src\lv_objx/lv_spinbox.c **** {
 170:..\..\..\lvgl\version_6.1.2\lvgl\src\lv_objx/lv_spinbox.c ****     LV_ASSERT_OBJ(spinbox, LV_OBJX_NAME);
 171:..\..\..\lvgl\version_6.1.2\lvgl\src\lv_objx/lv_spinbox.c **** 
 172:..\..\..\lvgl\version_6.1.2\lvgl\src\lv_objx/lv_spinbox.c ****     lv_spinbox_ext_t * ext = lv_obj_get_ext_attr(spinbox);
 173:..\..\..\lvgl\version_6.1.2\lvgl\src\lv_objx/lv_spinbox.c ****     if(ext == NULL) return;
 174:..\..\..\lvgl\version_6.1.2\lvgl\src\lv_objx/lv_spinbox.c **** 
 175:..\..\..\lvgl\version_6.1.2\lvgl\src\lv_objx/lv_spinbox.c ****     ext->step = step;
 176:..\..\..\lvgl\version_6.1.2\lvgl\src\lv_objx/lv_spinbox.c **** }
 177:..\..\..\lvgl\version_6.1.2\lvgl\src\lv_objx/lv_spinbox.c **** 
 178:..\..\..\lvgl\version_6.1.2\lvgl\src\lv_objx/lv_spinbox.c **** /**
 179:..\..\..\lvgl\version_6.1.2\lvgl\src\lv_objx/lv_spinbox.c ****  * Set spinbox value range
 180:..\..\..\lvgl\version_6.1.2\lvgl\src\lv_objx/lv_spinbox.c ****  * @param spinbox pointer to spinbox
 181:..\..\..\lvgl\version_6.1.2\lvgl\src\lv_objx/lv_spinbox.c ****  * @param range_min maximum value, inclusive
 182:..\..\..\lvgl\version_6.1.2\lvgl\src\lv_objx/lv_spinbox.c ****  * @param range_max minimum value, inclusive
 183:..\..\..\lvgl\version_6.1.2\lvgl\src\lv_objx/lv_spinbox.c ****  */
 184:..\..\..\lvgl\version_6.1.2\lvgl\src\lv_objx/lv_spinbox.c **** void lv_spinbox_set_range(lv_obj_t * spinbox, int32_t range_min, int32_t range_max)
 185:..\..\..\lvgl\version_6.1.2\lvgl\src\lv_objx/lv_spinbox.c **** {
 186:..\..\..\lvgl\version_6.1.2\lvgl\src\lv_objx/lv_spinbox.c ****     LV_ASSERT_OBJ(spinbox, LV_OBJX_NAME);
 187:..\..\..\lvgl\version_6.1.2\lvgl\src\lv_objx/lv_spinbox.c **** 
 188:..\..\..\lvgl\version_6.1.2\lvgl\src\lv_objx/lv_spinbox.c ****     lv_spinbox_ext_t * ext = lv_obj_get_ext_attr(spinbox);
 189:..\..\..\lvgl\version_6.1.2\lvgl\src\lv_objx/lv_spinbox.c ****     if(ext == NULL) return;
 190:..\..\..\lvgl\version_6.1.2\lvgl\src\lv_objx/lv_spinbox.c **** 
 191:..\..\..\lvgl\version_6.1.2\lvgl\src\lv_objx/lv_spinbox.c ****     ext->range_max = range_max;
 192:..\..\..\lvgl\version_6.1.2\lvgl\src\lv_objx/lv_spinbox.c ****     ext->range_min = range_min;
 193:..\..\..\lvgl\version_6.1.2\lvgl\src\lv_objx/lv_spinbox.c **** 
 194:..\..\..\lvgl\version_6.1.2\lvgl\src\lv_objx/lv_spinbox.c ****     if(ext->value > ext->range_max) {
 195:..\..\..\lvgl\version_6.1.2\lvgl\src\lv_objx/lv_spinbox.c ****         ext->value = ext->range_max;
 196:..\..\..\lvgl\version_6.1.2\lvgl\src\lv_objx/lv_spinbox.c ****         lv_obj_invalidate(spinbox);
 197:..\..\..\lvgl\version_6.1.2\lvgl\src\lv_objx/lv_spinbox.c ****     }
 198:..\..\..\lvgl\version_6.1.2\lvgl\src\lv_objx/lv_spinbox.c ****     if(ext->value < ext->range_min) {
 199:..\..\..\lvgl\version_6.1.2\lvgl\src\lv_objx/lv_spinbox.c ****         ext->value = ext->range_min;
 200:..\..\..\lvgl\version_6.1.2\lvgl\src\lv_objx/lv_spinbox.c ****         lv_obj_invalidate(spinbox);
 201:..\..\..\lvgl\version_6.1.2\lvgl\src\lv_objx/lv_spinbox.c ****     }
ARM GAS  C:\Users\pearlstl\AppData\Local\Temp\cc98wxIE.s 			page 5


 202:..\..\..\lvgl\version_6.1.2\lvgl\src\lv_objx/lv_spinbox.c **** }
 203:..\..\..\lvgl\version_6.1.2\lvgl\src\lv_objx/lv_spinbox.c **** 
 204:..\..\..\lvgl\version_6.1.2\lvgl\src\lv_objx/lv_spinbox.c **** /**
 205:..\..\..\lvgl\version_6.1.2\lvgl\src\lv_objx/lv_spinbox.c ****  * Set spinbox left padding in digits count (added between sign and first digit)
 206:..\..\..\lvgl\version_6.1.2\lvgl\src\lv_objx/lv_spinbox.c ****  * @param spinbox pointer to spinbox
 207:..\..\..\lvgl\version_6.1.2\lvgl\src\lv_objx/lv_spinbox.c ****  * @param cb Callback function called on value change event
 208:..\..\..\lvgl\version_6.1.2\lvgl\src\lv_objx/lv_spinbox.c ****  */
 209:..\..\..\lvgl\version_6.1.2\lvgl\src\lv_objx/lv_spinbox.c **** void lv_spinbox_set_padding_left(lv_obj_t * spinbox, uint8_t padding)
 210:..\..\..\lvgl\version_6.1.2\lvgl\src\lv_objx/lv_spinbox.c **** {
 211:..\..\..\lvgl\version_6.1.2\lvgl\src\lv_objx/lv_spinbox.c ****     LV_ASSERT_OBJ(spinbox, LV_OBJX_NAME);
 212:..\..\..\lvgl\version_6.1.2\lvgl\src\lv_objx/lv_spinbox.c **** 
 213:..\..\..\lvgl\version_6.1.2\lvgl\src\lv_objx/lv_spinbox.c ****     lv_spinbox_ext_t * ext  = lv_obj_get_ext_attr(spinbox);
 214:..\..\..\lvgl\version_6.1.2\lvgl\src\lv_objx/lv_spinbox.c ****     ext->digit_padding_left = padding;
 215:..\..\..\lvgl\version_6.1.2\lvgl\src\lv_objx/lv_spinbox.c ****     lv_spinbox_updatevalue(spinbox);
 216:..\..\..\lvgl\version_6.1.2\lvgl\src\lv_objx/lv_spinbox.c **** }
 217:..\..\..\lvgl\version_6.1.2\lvgl\src\lv_objx/lv_spinbox.c **** 
 218:..\..\..\lvgl\version_6.1.2\lvgl\src\lv_objx/lv_spinbox.c **** /*=====================
 219:..\..\..\lvgl\version_6.1.2\lvgl\src\lv_objx/lv_spinbox.c ****  * Getter functions
 220:..\..\..\lvgl\version_6.1.2\lvgl\src\lv_objx/lv_spinbox.c ****  *====================*/
 221:..\..\..\lvgl\version_6.1.2\lvgl\src\lv_objx/lv_spinbox.c **** 
 222:..\..\..\lvgl\version_6.1.2\lvgl\src\lv_objx/lv_spinbox.c **** /**
 223:..\..\..\lvgl\version_6.1.2\lvgl\src\lv_objx/lv_spinbox.c ****  * Get the spinbox numeral value (user has to convert to float according to its digit format)
 224:..\..\..\lvgl\version_6.1.2\lvgl\src\lv_objx/lv_spinbox.c ****  * @param spinbox pointer to spinbox
 225:..\..\..\lvgl\version_6.1.2\lvgl\src\lv_objx/lv_spinbox.c ****  * @return value integer value of the spinbox
 226:..\..\..\lvgl\version_6.1.2\lvgl\src\lv_objx/lv_spinbox.c ****  */
 227:..\..\..\lvgl\version_6.1.2\lvgl\src\lv_objx/lv_spinbox.c **** int32_t lv_spinbox_get_value(lv_obj_t * spinbox)
 228:..\..\..\lvgl\version_6.1.2\lvgl\src\lv_objx/lv_spinbox.c **** {
 229:..\..\..\lvgl\version_6.1.2\lvgl\src\lv_objx/lv_spinbox.c ****     LV_ASSERT_OBJ(spinbox, LV_OBJX_NAME);
 230:..\..\..\lvgl\version_6.1.2\lvgl\src\lv_objx/lv_spinbox.c **** 
 231:..\..\..\lvgl\version_6.1.2\lvgl\src\lv_objx/lv_spinbox.c ****     lv_spinbox_ext_t * ext = lv_obj_get_ext_attr(spinbox);
 232:..\..\..\lvgl\version_6.1.2\lvgl\src\lv_objx/lv_spinbox.c **** 
 233:..\..\..\lvgl\version_6.1.2\lvgl\src\lv_objx/lv_spinbox.c ****     return ext->value;
 234:..\..\..\lvgl\version_6.1.2\lvgl\src\lv_objx/lv_spinbox.c **** }
 235:..\..\..\lvgl\version_6.1.2\lvgl\src\lv_objx/lv_spinbox.c **** 
 236:..\..\..\lvgl\version_6.1.2\lvgl\src\lv_objx/lv_spinbox.c **** /*=====================
 237:..\..\..\lvgl\version_6.1.2\lvgl\src\lv_objx/lv_spinbox.c ****  * Other functions
 238:..\..\..\lvgl\version_6.1.2\lvgl\src\lv_objx/lv_spinbox.c ****  *====================*/
 239:..\..\..\lvgl\version_6.1.2\lvgl\src\lv_objx/lv_spinbox.c **** 
 240:..\..\..\lvgl\version_6.1.2\lvgl\src\lv_objx/lv_spinbox.c **** /**
 241:..\..\..\lvgl\version_6.1.2\lvgl\src\lv_objx/lv_spinbox.c ****  * Select next lower digit for edition
 242:..\..\..\lvgl\version_6.1.2\lvgl\src\lv_objx/lv_spinbox.c ****  * @param spinbox pointer to spinbox
 243:..\..\..\lvgl\version_6.1.2\lvgl\src\lv_objx/lv_spinbox.c ****  */
 244:..\..\..\lvgl\version_6.1.2\lvgl\src\lv_objx/lv_spinbox.c **** void lv_spinbox_step_next(lv_obj_t * spinbox)
 245:..\..\..\lvgl\version_6.1.2\lvgl\src\lv_objx/lv_spinbox.c **** {
 246:..\..\..\lvgl\version_6.1.2\lvgl\src\lv_objx/lv_spinbox.c ****     LV_ASSERT_OBJ(spinbox, LV_OBJX_NAME);
 247:..\..\..\lvgl\version_6.1.2\lvgl\src\lv_objx/lv_spinbox.c **** 
 248:..\..\..\lvgl\version_6.1.2\lvgl\src\lv_objx/lv_spinbox.c ****     lv_spinbox_ext_t * ext = lv_obj_get_ext_attr(spinbox);
 249:..\..\..\lvgl\version_6.1.2\lvgl\src\lv_objx/lv_spinbox.c **** 
 250:..\..\..\lvgl\version_6.1.2\lvgl\src\lv_objx/lv_spinbox.c ****     int32_t new_step = ext->step / 10;
 251:..\..\..\lvgl\version_6.1.2\lvgl\src\lv_objx/lv_spinbox.c ****     if((new_step) > 0)
 252:..\..\..\lvgl\version_6.1.2\lvgl\src\lv_objx/lv_spinbox.c ****         ext->step = new_step;
 253:..\..\..\lvgl\version_6.1.2\lvgl\src\lv_objx/lv_spinbox.c ****     else
 254:..\..\..\lvgl\version_6.1.2\lvgl\src\lv_objx/lv_spinbox.c ****         ext->step = 1;
 255:..\..\..\lvgl\version_6.1.2\lvgl\src\lv_objx/lv_spinbox.c **** 
 256:..\..\..\lvgl\version_6.1.2\lvgl\src\lv_objx/lv_spinbox.c ****     lv_spinbox_updatevalue(spinbox);
 257:..\..\..\lvgl\version_6.1.2\lvgl\src\lv_objx/lv_spinbox.c **** }
 258:..\..\..\lvgl\version_6.1.2\lvgl\src\lv_objx/lv_spinbox.c **** 
ARM GAS  C:\Users\pearlstl\AppData\Local\Temp\cc98wxIE.s 			page 6


 259:..\..\..\lvgl\version_6.1.2\lvgl\src\lv_objx/lv_spinbox.c **** /**
 260:..\..\..\lvgl\version_6.1.2\lvgl\src\lv_objx/lv_spinbox.c ****  * Select next higher digit for edition
 261:..\..\..\lvgl\version_6.1.2\lvgl\src\lv_objx/lv_spinbox.c ****  * @param spinbox pointer to spinbox
 262:..\..\..\lvgl\version_6.1.2\lvgl\src\lv_objx/lv_spinbox.c ****  */
 263:..\..\..\lvgl\version_6.1.2\lvgl\src\lv_objx/lv_spinbox.c **** void lv_spinbox_step_prev(lv_obj_t * spinbox)
 264:..\..\..\lvgl\version_6.1.2\lvgl\src\lv_objx/lv_spinbox.c **** {
 265:..\..\..\lvgl\version_6.1.2\lvgl\src\lv_objx/lv_spinbox.c ****     LV_ASSERT_OBJ(spinbox, LV_OBJX_NAME);
 266:..\..\..\lvgl\version_6.1.2\lvgl\src\lv_objx/lv_spinbox.c **** 
 267:..\..\..\lvgl\version_6.1.2\lvgl\src\lv_objx/lv_spinbox.c ****     lv_spinbox_ext_t * ext = lv_obj_get_ext_attr(spinbox);
 268:..\..\..\lvgl\version_6.1.2\lvgl\src\lv_objx/lv_spinbox.c ****     int32_t step_limit;
 269:..\..\..\lvgl\version_6.1.2\lvgl\src\lv_objx/lv_spinbox.c ****     step_limit       = LV_MATH_MAX(ext->range_max, (ext->range_min < 0 ? (-ext->range_min) : ext->r
 270:..\..\..\lvgl\version_6.1.2\lvgl\src\lv_objx/lv_spinbox.c ****     int32_t new_step = ext->step * 10;
 271:..\..\..\lvgl\version_6.1.2\lvgl\src\lv_objx/lv_spinbox.c ****     if(new_step <= step_limit) ext->step = new_step;
 272:..\..\..\lvgl\version_6.1.2\lvgl\src\lv_objx/lv_spinbox.c **** 
 273:..\..\..\lvgl\version_6.1.2\lvgl\src\lv_objx/lv_spinbox.c ****     lv_spinbox_updatevalue(spinbox);
 274:..\..\..\lvgl\version_6.1.2\lvgl\src\lv_objx/lv_spinbox.c **** }
 275:..\..\..\lvgl\version_6.1.2\lvgl\src\lv_objx/lv_spinbox.c **** 
 276:..\..\..\lvgl\version_6.1.2\lvgl\src\lv_objx/lv_spinbox.c **** /**
 277:..\..\..\lvgl\version_6.1.2\lvgl\src\lv_objx/lv_spinbox.c ****  * Increment spinbox value by one step
 278:..\..\..\lvgl\version_6.1.2\lvgl\src\lv_objx/lv_spinbox.c ****  * @param spinbox pointer to spinbox
 279:..\..\..\lvgl\version_6.1.2\lvgl\src\lv_objx/lv_spinbox.c ****  */
 280:..\..\..\lvgl\version_6.1.2\lvgl\src\lv_objx/lv_spinbox.c **** void lv_spinbox_increment(lv_obj_t * spinbox)
 281:..\..\..\lvgl\version_6.1.2\lvgl\src\lv_objx/lv_spinbox.c **** {
 282:..\..\..\lvgl\version_6.1.2\lvgl\src\lv_objx/lv_spinbox.c ****     LV_ASSERT_OBJ(spinbox, LV_OBJX_NAME);
 283:..\..\..\lvgl\version_6.1.2\lvgl\src\lv_objx/lv_spinbox.c **** 
 284:..\..\..\lvgl\version_6.1.2\lvgl\src\lv_objx/lv_spinbox.c ****     lv_spinbox_ext_t * ext = lv_obj_get_ext_attr(spinbox);
 285:..\..\..\lvgl\version_6.1.2\lvgl\src\lv_objx/lv_spinbox.c **** 
 286:..\..\..\lvgl\version_6.1.2\lvgl\src\lv_objx/lv_spinbox.c ****     if(ext->value + ext->step <= ext->range_max) {
 287:..\..\..\lvgl\version_6.1.2\lvgl\src\lv_objx/lv_spinbox.c ****         /*Special mode when zero crossing*/
 288:..\..\..\lvgl\version_6.1.2\lvgl\src\lv_objx/lv_spinbox.c ****         if((ext->value + ext->step) > 0 && ext->value < 0) ext->value = -ext->value;
 289:..\..\..\lvgl\version_6.1.2\lvgl\src\lv_objx/lv_spinbox.c ****         ext->value += ext->step;
 290:..\..\..\lvgl\version_6.1.2\lvgl\src\lv_objx/lv_spinbox.c **** 
 291:..\..\..\lvgl\version_6.1.2\lvgl\src\lv_objx/lv_spinbox.c ****     } else {
 292:..\..\..\lvgl\version_6.1.2\lvgl\src\lv_objx/lv_spinbox.c ****         ext->value = ext->range_max;
 293:..\..\..\lvgl\version_6.1.2\lvgl\src\lv_objx/lv_spinbox.c ****     }
 294:..\..\..\lvgl\version_6.1.2\lvgl\src\lv_objx/lv_spinbox.c **** 
 295:..\..\..\lvgl\version_6.1.2\lvgl\src\lv_objx/lv_spinbox.c ****     lv_spinbox_updatevalue(spinbox);
 296:..\..\..\lvgl\version_6.1.2\lvgl\src\lv_objx/lv_spinbox.c **** }
 297:..\..\..\lvgl\version_6.1.2\lvgl\src\lv_objx/lv_spinbox.c **** 
 298:..\..\..\lvgl\version_6.1.2\lvgl\src\lv_objx/lv_spinbox.c **** /**
 299:..\..\..\lvgl\version_6.1.2\lvgl\src\lv_objx/lv_spinbox.c ****  * Decrement spinbox value by one step
 300:..\..\..\lvgl\version_6.1.2\lvgl\src\lv_objx/lv_spinbox.c ****  * @param spinbox pointer to spinbox
 301:..\..\..\lvgl\version_6.1.2\lvgl\src\lv_objx/lv_spinbox.c ****  */
 302:..\..\..\lvgl\version_6.1.2\lvgl\src\lv_objx/lv_spinbox.c **** void lv_spinbox_decrement(lv_obj_t * spinbox)
 303:..\..\..\lvgl\version_6.1.2\lvgl\src\lv_objx/lv_spinbox.c **** {
 304:..\..\..\lvgl\version_6.1.2\lvgl\src\lv_objx/lv_spinbox.c ****     LV_ASSERT_OBJ(spinbox, LV_OBJX_NAME);
 305:..\..\..\lvgl\version_6.1.2\lvgl\src\lv_objx/lv_spinbox.c **** 
 306:..\..\..\lvgl\version_6.1.2\lvgl\src\lv_objx/lv_spinbox.c ****     lv_spinbox_ext_t * ext = lv_obj_get_ext_attr(spinbox);
 307:..\..\..\lvgl\version_6.1.2\lvgl\src\lv_objx/lv_spinbox.c **** 
 308:..\..\..\lvgl\version_6.1.2\lvgl\src\lv_objx/lv_spinbox.c ****     if(ext->value - ext->step >= ext->range_min) {
 309:..\..\..\lvgl\version_6.1.2\lvgl\src\lv_objx/lv_spinbox.c ****         /*Special mode when zero crossing*/
 310:..\..\..\lvgl\version_6.1.2\lvgl\src\lv_objx/lv_spinbox.c ****         if((ext->value - ext->step) < 0 && ext->value > 0) ext->value = -ext->value;
 311:..\..\..\lvgl\version_6.1.2\lvgl\src\lv_objx/lv_spinbox.c ****         ext->value -= ext->step;
 312:..\..\..\lvgl\version_6.1.2\lvgl\src\lv_objx/lv_spinbox.c ****     } else {
 313:..\..\..\lvgl\version_6.1.2\lvgl\src\lv_objx/lv_spinbox.c ****         ext->value = ext->range_min;
 314:..\..\..\lvgl\version_6.1.2\lvgl\src\lv_objx/lv_spinbox.c ****     }
 315:..\..\..\lvgl\version_6.1.2\lvgl\src\lv_objx/lv_spinbox.c **** 
ARM GAS  C:\Users\pearlstl\AppData\Local\Temp\cc98wxIE.s 			page 7


 316:..\..\..\lvgl\version_6.1.2\lvgl\src\lv_objx/lv_spinbox.c ****     lv_spinbox_updatevalue(spinbox);
 317:..\..\..\lvgl\version_6.1.2\lvgl\src\lv_objx/lv_spinbox.c **** }
 318:..\..\..\lvgl\version_6.1.2\lvgl\src\lv_objx/lv_spinbox.c **** 
 319:..\..\..\lvgl\version_6.1.2\lvgl\src\lv_objx/lv_spinbox.c **** /**********************
 320:..\..\..\lvgl\version_6.1.2\lvgl\src\lv_objx/lv_spinbox.c ****  *   STATIC FUNCTIONS
 321:..\..\..\lvgl\version_6.1.2\lvgl\src\lv_objx/lv_spinbox.c ****  **********************/
 322:..\..\..\lvgl\version_6.1.2\lvgl\src\lv_objx/lv_spinbox.c **** 
 323:..\..\..\lvgl\version_6.1.2\lvgl\src\lv_objx/lv_spinbox.c **** /**
 324:..\..\..\lvgl\version_6.1.2\lvgl\src\lv_objx/lv_spinbox.c ****  * Signal function of the spinbox
 325:..\..\..\lvgl\version_6.1.2\lvgl\src\lv_objx/lv_spinbox.c ****  * @param spinbox pointer to a spinbox object
 326:..\..\..\lvgl\version_6.1.2\lvgl\src\lv_objx/lv_spinbox.c ****  * @param sign a signal type from lv_signal_t enum
 327:..\..\..\lvgl\version_6.1.2\lvgl\src\lv_objx/lv_spinbox.c ****  * @param param pointer to a signal specific variable
 328:..\..\..\lvgl\version_6.1.2\lvgl\src\lv_objx/lv_spinbox.c ****  * @return LV_RES_OK: the object is not deleted in the function; LV_RES_INV: the object is deleted
 329:..\..\..\lvgl\version_6.1.2\lvgl\src\lv_objx/lv_spinbox.c ****  */
 330:..\..\..\lvgl\version_6.1.2\lvgl\src\lv_objx/lv_spinbox.c **** static lv_res_t lv_spinbox_signal(lv_obj_t * spinbox, lv_signal_t sign, void * param)
 331:..\..\..\lvgl\version_6.1.2\lvgl\src\lv_objx/lv_spinbox.c **** {
 332:..\..\..\lvgl\version_6.1.2\lvgl\src\lv_objx/lv_spinbox.c **** 
 333:..\..\..\lvgl\version_6.1.2\lvgl\src\lv_objx/lv_spinbox.c ****     lv_res_t res = LV_RES_OK;
 334:..\..\..\lvgl\version_6.1.2\lvgl\src\lv_objx/lv_spinbox.c **** 
 335:..\..\..\lvgl\version_6.1.2\lvgl\src\lv_objx/lv_spinbox.c ****     /* Include the ancient signal function */
 336:..\..\..\lvgl\version_6.1.2\lvgl\src\lv_objx/lv_spinbox.c ****     if(sign != LV_SIGNAL_CONTROL) {
 337:..\..\..\lvgl\version_6.1.2\lvgl\src\lv_objx/lv_spinbox.c ****         res = ancestor_signal(spinbox, sign, param);
 338:..\..\..\lvgl\version_6.1.2\lvgl\src\lv_objx/lv_spinbox.c ****         if(res != LV_RES_OK) return res;
 339:..\..\..\lvgl\version_6.1.2\lvgl\src\lv_objx/lv_spinbox.c ****     }
 340:..\..\..\lvgl\version_6.1.2\lvgl\src\lv_objx/lv_spinbox.c ****     if(sign == LV_SIGNAL_GET_TYPE) return lv_obj_handle_get_type_signal(param, LV_OBJX_NAME);
 341:..\..\..\lvgl\version_6.1.2\lvgl\src\lv_objx/lv_spinbox.c **** 
 342:..\..\..\lvgl\version_6.1.2\lvgl\src\lv_objx/lv_spinbox.c **** 
 343:..\..\..\lvgl\version_6.1.2\lvgl\src\lv_objx/lv_spinbox.c ****     lv_spinbox_ext_t * ext = lv_obj_get_ext_attr(spinbox);
 344:..\..\..\lvgl\version_6.1.2\lvgl\src\lv_objx/lv_spinbox.c ****     if(sign == LV_SIGNAL_CLEANUP) {
 345:..\..\..\lvgl\version_6.1.2\lvgl\src\lv_objx/lv_spinbox.c ****         /*Nothing to cleanup. (No dynamically allocated memory in 'ext')*/
 346:..\..\..\lvgl\version_6.1.2\lvgl\src\lv_objx/lv_spinbox.c ****     } else if(sign == LV_SIGNAL_GET_TYPE) {
 347:..\..\..\lvgl\version_6.1.2\lvgl\src\lv_objx/lv_spinbox.c ****         lv_obj_type_t * buf = param;
 348:..\..\..\lvgl\version_6.1.2\lvgl\src\lv_objx/lv_spinbox.c ****         uint8_t i;
 349:..\..\..\lvgl\version_6.1.2\lvgl\src\lv_objx/lv_spinbox.c ****         for(i = 0; i < LV_MAX_ANCESTOR_NUM - 1; i++) { /*Find the last set data*/
 350:..\..\..\lvgl\version_6.1.2\lvgl\src\lv_objx/lv_spinbox.c ****             if(buf->type[i] == NULL) break;
 351:..\..\..\lvgl\version_6.1.2\lvgl\src\lv_objx/lv_spinbox.c ****         }
 352:..\..\..\lvgl\version_6.1.2\lvgl\src\lv_objx/lv_spinbox.c ****         buf->type[i] = "lv_spinbox";
 353:..\..\..\lvgl\version_6.1.2\lvgl\src\lv_objx/lv_spinbox.c ****     } else if(sign == LV_SIGNAL_RELEASED) {
 354:..\..\..\lvgl\version_6.1.2\lvgl\src\lv_objx/lv_spinbox.c ****         /*If released with an ENCODER then move to the next digit*/
 355:..\..\..\lvgl\version_6.1.2\lvgl\src\lv_objx/lv_spinbox.c **** #if LV_USE_GROUP
 356:..\..\..\lvgl\version_6.1.2\lvgl\src\lv_objx/lv_spinbox.c ****         lv_indev_t * indev = lv_indev_get_act();
 357:..\..\..\lvgl\version_6.1.2\lvgl\src\lv_objx/lv_spinbox.c ****         if(lv_indev_get_type(indev) == LV_INDEV_TYPE_ENCODER) {
 358:..\..\..\lvgl\version_6.1.2\lvgl\src\lv_objx/lv_spinbox.c ****             if(lv_group_get_editing(lv_obj_get_group(spinbox))) {
 359:..\..\..\lvgl\version_6.1.2\lvgl\src\lv_objx/lv_spinbox.c ****                 if(ext->step > 1) {
 360:..\..\..\lvgl\version_6.1.2\lvgl\src\lv_objx/lv_spinbox.c ****                     lv_spinbox_step_next(spinbox);
 361:..\..\..\lvgl\version_6.1.2\lvgl\src\lv_objx/lv_spinbox.c ****                 } else {
 362:..\..\..\lvgl\version_6.1.2\lvgl\src\lv_objx/lv_spinbox.c ****                     /*Restart from the MSB*/
 363:..\..\..\lvgl\version_6.1.2\lvgl\src\lv_objx/lv_spinbox.c ****                     ext->step = 1;
 364:..\..\..\lvgl\version_6.1.2\lvgl\src\lv_objx/lv_spinbox.c ****                     uint32_t i;
 365:..\..\..\lvgl\version_6.1.2\lvgl\src\lv_objx/lv_spinbox.c ****                     for(i = 0; i < ext->digit_count; i++) {
 366:..\..\..\lvgl\version_6.1.2\lvgl\src\lv_objx/lv_spinbox.c ****                         int32_t new_step = ext->step * 10;
 367:..\..\..\lvgl\version_6.1.2\lvgl\src\lv_objx/lv_spinbox.c ****                         if(new_step >= ext->range_max) break;
 368:..\..\..\lvgl\version_6.1.2\lvgl\src\lv_objx/lv_spinbox.c ****                         ext->step = new_step;
 369:..\..\..\lvgl\version_6.1.2\lvgl\src\lv_objx/lv_spinbox.c ****                     }
 370:..\..\..\lvgl\version_6.1.2\lvgl\src\lv_objx/lv_spinbox.c ****                     lv_spinbox_step_prev(spinbox);
 371:..\..\..\lvgl\version_6.1.2\lvgl\src\lv_objx/lv_spinbox.c ****                 }
 372:..\..\..\lvgl\version_6.1.2\lvgl\src\lv_objx/lv_spinbox.c ****             }
ARM GAS  C:\Users\pearlstl\AppData\Local\Temp\cc98wxIE.s 			page 8


 373:..\..\..\lvgl\version_6.1.2\lvgl\src\lv_objx/lv_spinbox.c ****         }
 374:..\..\..\lvgl\version_6.1.2\lvgl\src\lv_objx/lv_spinbox.c **** #endif
 375:..\..\..\lvgl\version_6.1.2\lvgl\src\lv_objx/lv_spinbox.c ****     } else if(sign == LV_SIGNAL_CONTROL) {
 376:..\..\..\lvgl\version_6.1.2\lvgl\src\lv_objx/lv_spinbox.c ****         lv_indev_type_t indev_type = lv_indev_get_type(lv_indev_get_act());
 377:..\..\..\lvgl\version_6.1.2\lvgl\src\lv_objx/lv_spinbox.c **** 
 378:..\..\..\lvgl\version_6.1.2\lvgl\src\lv_objx/lv_spinbox.c ****         uint32_t c = *((uint32_t *)param); /*uint32_t because can be UTF-8*/
 379:..\..\..\lvgl\version_6.1.2\lvgl\src\lv_objx/lv_spinbox.c ****         if(c == LV_KEY_RIGHT) {
 380:..\..\..\lvgl\version_6.1.2\lvgl\src\lv_objx/lv_spinbox.c ****             if(indev_type == LV_INDEV_TYPE_ENCODER)
 381:..\..\..\lvgl\version_6.1.2\lvgl\src\lv_objx/lv_spinbox.c ****                 lv_spinbox_increment(spinbox);
 382:..\..\..\lvgl\version_6.1.2\lvgl\src\lv_objx/lv_spinbox.c ****             else
 383:..\..\..\lvgl\version_6.1.2\lvgl\src\lv_objx/lv_spinbox.c ****                 lv_spinbox_step_next(spinbox);
 384:..\..\..\lvgl\version_6.1.2\lvgl\src\lv_objx/lv_spinbox.c ****         } else if(c == LV_KEY_LEFT) {
 385:..\..\..\lvgl\version_6.1.2\lvgl\src\lv_objx/lv_spinbox.c ****             if(indev_type == LV_INDEV_TYPE_ENCODER)
 386:..\..\..\lvgl\version_6.1.2\lvgl\src\lv_objx/lv_spinbox.c ****                 lv_spinbox_decrement(spinbox);
 387:..\..\..\lvgl\version_6.1.2\lvgl\src\lv_objx/lv_spinbox.c ****             else
 388:..\..\..\lvgl\version_6.1.2\lvgl\src\lv_objx/lv_spinbox.c ****                 lv_spinbox_step_prev(spinbox);
 389:..\..\..\lvgl\version_6.1.2\lvgl\src\lv_objx/lv_spinbox.c ****         } else if(c == LV_KEY_UP) {
 390:..\..\..\lvgl\version_6.1.2\lvgl\src\lv_objx/lv_spinbox.c ****             lv_spinbox_increment(spinbox);
 391:..\..\..\lvgl\version_6.1.2\lvgl\src\lv_objx/lv_spinbox.c ****         } else if(c == LV_KEY_DOWN) {
 392:..\..\..\lvgl\version_6.1.2\lvgl\src\lv_objx/lv_spinbox.c ****             lv_spinbox_decrement(spinbox);
 393:..\..\..\lvgl\version_6.1.2\lvgl\src\lv_objx/lv_spinbox.c ****         } else {
 394:..\..\..\lvgl\version_6.1.2\lvgl\src\lv_objx/lv_spinbox.c ****             lv_ta_add_char(spinbox, c);
 395:..\..\..\lvgl\version_6.1.2\lvgl\src\lv_objx/lv_spinbox.c ****         }
 396:..\..\..\lvgl\version_6.1.2\lvgl\src\lv_objx/lv_spinbox.c ****     }
 397:..\..\..\lvgl\version_6.1.2\lvgl\src\lv_objx/lv_spinbox.c **** 
 398:..\..\..\lvgl\version_6.1.2\lvgl\src\lv_objx/lv_spinbox.c ****     return res;
 399:..\..\..\lvgl\version_6.1.2\lvgl\src\lv_objx/lv_spinbox.c **** }
 400:..\..\..\lvgl\version_6.1.2\lvgl\src\lv_objx/lv_spinbox.c **** 
 401:..\..\..\lvgl\version_6.1.2\lvgl\src\lv_objx/lv_spinbox.c **** static void lv_spinbox_updatevalue(lv_obj_t * spinbox)
 402:..\..\..\lvgl\version_6.1.2\lvgl\src\lv_objx/lv_spinbox.c **** {
  28              		.loc 1 402 0
  29              		.cfi_startproc
  30              		@ args = 0, pretend = 0, frame = 88
  31              		@ frame_needed = 0, uses_anonymous_args = 0
  32              	.LVL0:
  33 0000 2DE9F047 		push	{r4, r5, r6, r7, r8, r9, r10, lr}
  34              		.cfi_def_cfa_offset 32
  35              		.cfi_offset 4, -32
  36              		.cfi_offset 5, -28
  37              		.cfi_offset 6, -24
  38              		.cfi_offset 7, -20
  39              		.cfi_offset 8, -16
  40              		.cfi_offset 9, -12
  41              		.cfi_offset 10, -8
  42              		.cfi_offset 14, -4
  43 0004 96B0     		sub	sp, sp, #88
  44              		.cfi_def_cfa_offset 120
  45              		.loc 1 402 0
  46 0006 8046     		mov	r8, r0
 403:..\..\..\lvgl\version_6.1.2\lvgl\src\lv_objx/lv_spinbox.c ****     lv_spinbox_ext_t * ext = lv_obj_get_ext_attr(spinbox);
  47              		.loc 1 403 0
  48 0008 FFF7FEFF 		bl	lv_obj_get_ext_attr
  49              	.LVL1:
 404:..\..\..\lvgl\version_6.1.2\lvgl\src\lv_objx/lv_spinbox.c **** 
 405:..\..\..\lvgl\version_6.1.2\lvgl\src\lv_objx/lv_spinbox.c ****     char buf[LV_SPINBOX_MAX_DIGIT_COUNT + 8];
 406:..\..\..\lvgl\version_6.1.2\lvgl\src\lv_objx/lv_spinbox.c ****     memset(buf, 0, sizeof(buf));
 407:..\..\..\lvgl\version_6.1.2\lvgl\src\lv_objx/lv_spinbox.c ****     char * buf_p = buf;
ARM GAS  C:\Users\pearlstl\AppData\Local\Temp\cc98wxIE.s 			page 9


 408:..\..\..\lvgl\version_6.1.2\lvgl\src\lv_objx/lv_spinbox.c ****     uint8_t cur_shift_left = 0;
 409:..\..\..\lvgl\version_6.1.2\lvgl\src\lv_objx/lv_spinbox.c **** 
 410:..\..\..\lvgl\version_6.1.2\lvgl\src\lv_objx/lv_spinbox.c ****     if (ext->range_min < 0) { // hide sign if there are only positive values
  50              		.loc 1 410 0
  51 000c 836E     		ldr	r3, [r0, #104]
 406:..\..\..\lvgl\version_6.1.2\lvgl\src\lv_objx/lv_spinbox.c ****     char * buf_p = buf;
  52              		.loc 1 406 0
  53 000e 0027     		movs	r7, #0
  54              		.loc 1 410 0
  55 0010 BB42     		cmp	r3, r7
 403:..\..\..\lvgl\version_6.1.2\lvgl\src\lv_objx/lv_spinbox.c ****     lv_spinbox_ext_t * ext = lv_obj_get_ext_attr(spinbox);
  56              		.loc 1 403 0
  57 0012 0646     		mov	r6, r0
  58              	.LVL2:
 406:..\..\..\lvgl\version_6.1.2\lvgl\src\lv_objx/lv_spinbox.c ****     char * buf_p = buf;
  59              		.loc 1 406 0
  60 0014 0197     		str	r7, [sp, #4]
  61 0016 0097     		str	r7, [sp]
  62 0018 0297     		str	r7, [sp, #8]
  63 001a 0397     		str	r7, [sp, #12]
  64 001c 0497     		str	r7, [sp, #16]
  65 001e 0597     		str	r7, [sp, #20]
  66              	.LVL3:
  67              		.loc 1 410 0
  68 0020 C0F24381 		blt	.L71
 411:..\..\..\lvgl\version_6.1.2\lvgl\src\lv_objx/lv_spinbox.c ****         /*Add the sign*/
 412:..\..\..\lvgl\version_6.1.2\lvgl\src\lv_objx/lv_spinbox.c ****         (*buf_p) = ext->value >= 0 ? '+' : '-';
 413:..\..\..\lvgl\version_6.1.2\lvgl\src\lv_objx/lv_spinbox.c ****         buf_p++;
 414:..\..\..\lvgl\version_6.1.2\lvgl\src\lv_objx/lv_spinbox.c ****     } else {
 415:..\..\..\lvgl\version_6.1.2\lvgl\src\lv_objx/lv_spinbox.c ****     	/*Cursor need shift to left*/
 416:..\..\..\lvgl\version_6.1.2\lvgl\src\lv_objx/lv_spinbox.c ****     	cur_shift_left++;
  69              		.loc 1 416 0
  70 0024 0127     		movs	r7, #1
 407:..\..\..\lvgl\version_6.1.2\lvgl\src\lv_objx/lv_spinbox.c ****     uint8_t cur_shift_left = 0;
  71              		.loc 1 407 0
  72 0026 6946     		mov	r1, sp
  73              	.LVL4:
  74              	.L2:
 417:..\..\..\lvgl\version_6.1.2\lvgl\src\lv_objx/lv_spinbox.c ****     }
 418:..\..\..\lvgl\version_6.1.2\lvgl\src\lv_objx/lv_spinbox.c **** 
 419:..\..\..\lvgl\version_6.1.2\lvgl\src\lv_objx/lv_spinbox.c ****     int32_t i;
 420:..\..\..\lvgl\version_6.1.2\lvgl\src\lv_objx/lv_spinbox.c ****     /*padding left*/
 421:..\..\..\lvgl\version_6.1.2\lvgl\src\lv_objx/lv_spinbox.c ****     for(i = 0; i < ext->digit_padding_left; i++) {
  75              		.loc 1 421 0
  76 0028 96F87130 		ldrb	r3, [r6, #113]	@ zero_extendqisi2
  77 002c 1B07     		lsls	r3, r3, #28
  78 002e 0C46     		mov	r4, r1
  79 0030 09D0     		beq	.L4
 422:..\..\..\lvgl\version_6.1.2\lvgl\src\lv_objx/lv_spinbox.c ****         (*buf_p) = ' ';
  80              		.loc 1 422 0 discriminator 3
  81 0032 2020     		movs	r0, #32
  82              	.LVL5:
  83              	.L5:
  84 0034 04F8010B 		strb	r0, [r4], #1
  85              	.LVL6:
 421:..\..\..\lvgl\version_6.1.2\lvgl\src\lv_objx/lv_spinbox.c ****         (*buf_p) = ' ';
  86              		.loc 1 421 0 discriminator 3
ARM GAS  C:\Users\pearlstl\AppData\Local\Temp\cc98wxIE.s 			page 10


  87 0038 96F87130 		ldrb	r3, [r6, #113]	@ zero_extendqisi2
  88 003c 621A     		subs	r2, r4, r1
  89 003e 03F00F03 		and	r3, r3, #15
  90 0042 9342     		cmp	r3, r2
  91 0044 F6DC     		bgt	.L5
  92              	.LVL7:
  93              	.L4:
 423:..\..\..\lvgl\version_6.1.2\lvgl\src\lv_objx/lv_spinbox.c ****         buf_p++;
 424:..\..\..\lvgl\version_6.1.2\lvgl\src\lv_objx/lv_spinbox.c ****     }
 425:..\..\..\lvgl\version_6.1.2\lvgl\src\lv_objx/lv_spinbox.c **** 
 426:..\..\..\lvgl\version_6.1.2\lvgl\src\lv_objx/lv_spinbox.c ****     char digits[64];
 427:..\..\..\lvgl\version_6.1.2\lvgl\src\lv_objx/lv_spinbox.c ****     /*Convert the numbers to string (the sign is already handled so always covert positive number)*
 428:..\..\..\lvgl\version_6.1.2\lvgl\src\lv_objx/lv_spinbox.c ****     lv_utils_num_to_str(ext->value < 0 ? -ext->value : ext->value, digits);
  94              		.loc 1 428 0
  95 0046 306E     		ldr	r0, [r6, #96]
  96 0048 06AD     		add	r5, sp, #24
  97 004a 0028     		cmp	r0, #0
  98 004c B8BF     		it	lt
  99 004e 4042     		rsblt	r0, r0, #0
 100 0050 2946     		mov	r1, r5
 101 0052 FFF7FEFF 		bl	lv_utils_num_to_str
 102              	.LVL8:
 429:..\..\..\lvgl\version_6.1.2\lvgl\src\lv_objx/lv_spinbox.c **** 
 430:..\..\..\lvgl\version_6.1.2\lvgl\src\lv_objx/lv_spinbox.c ****     /*Add leading zeros*/
 431:..\..\..\lvgl\version_6.1.2\lvgl\src\lv_objx/lv_spinbox.c ****     int lz_cnt = ext->digit_count - (int)strlen(digits);
 103              		.loc 1 431 0
 104 0056 2846     		mov	r0, r5
 105 0058 FFF7FEFF 		bl	strlen
 106              	.LVL9:
 107 005c 96F870A0 		ldrb	r10, [r6, #112]	@ zero_extendqisi2
 108 0060 0AF00F09 		and	r9, r10, #15
 109 0064 C0EB0902 		rsb	r2, r0, r9
 110              	.LVL10:
 432:..\..\..\lvgl\version_6.1.2\lvgl\src\lv_objx/lv_spinbox.c ****     if(lz_cnt > 0) {
 111              		.loc 1 432 0
 112 0068 002A     		cmp	r2, #0
 113 006a 11DD     		ble	.L10
 114              	.LVL11:
 115 006c 80B2     		uxth	r0, r0
 116              	.LVL12:
 117 006e 8118     		adds	r1, r0, r2
 118 0070 0131     		adds	r1, r1, #1
 119 0072 0130     		adds	r0, r0, #1
 120 0074 2944     		add	r1, r1, r5
 121 0076 2B18     		adds	r3, r5, r0
 122              	.L9:
 123              	.LVL13:
 433:..\..\..\lvgl\version_6.1.2\lvgl\src\lv_objx/lv_spinbox.c ****         for(i = (uint16_t)strlen(digits); i >= 0; i--) {
 434:..\..\..\lvgl\version_6.1.2\lvgl\src\lv_objx/lv_spinbox.c ****             digits[i + lz_cnt] = digits[i];
 124              		.loc 1 434 0 discriminator 3
 125 0078 13F8010D 		ldrb	r0, [r3, #-1]!	@ zero_extendqisi2
 126              	.LVL14:
 127 007c 01F8010D 		strb	r0, [r1, #-1]!
 128              	.LVL15:
 433:..\..\..\lvgl\version_6.1.2\lvgl\src\lv_objx/lv_spinbox.c ****         for(i = (uint16_t)strlen(digits); i >= 0; i--) {
 129              		.loc 1 433 0 discriminator 3
 130 0080 AB42     		cmp	r3, r5
ARM GAS  C:\Users\pearlstl\AppData\Local\Temp\cc98wxIE.s 			page 11


 131 0082 F9D1     		bne	.L9
 132 0084 3021     		movs	r1, #48
 133 0086 2846     		mov	r0, r5
 134 0088 FFF7FEFF 		bl	memset
 135              	.LVL16:
 136 008c 96F870A0 		ldrb	r10, [r6, #112]	@ zero_extendqisi2
 137              	.L10:
 435:..\..\..\lvgl\version_6.1.2\lvgl\src\lv_objx/lv_spinbox.c ****         }
 436:..\..\..\lvgl\version_6.1.2\lvgl\src\lv_objx/lv_spinbox.c ****         for(i = 0; i < lz_cnt; i++) {
 437:..\..\..\lvgl\version_6.1.2\lvgl\src\lv_objx/lv_spinbox.c ****             digits[i] = '0';
 438:..\..\..\lvgl\version_6.1.2\lvgl\src\lv_objx/lv_spinbox.c ****         }
 439:..\..\..\lvgl\version_6.1.2\lvgl\src\lv_objx/lv_spinbox.c ****     }
 440:..\..\..\lvgl\version_6.1.2\lvgl\src\lv_objx/lv_spinbox.c **** 
 441:..\..\..\lvgl\version_6.1.2\lvgl\src\lv_objx/lv_spinbox.c ****     int32_t intDigits;
 442:..\..\..\lvgl\version_6.1.2\lvgl\src\lv_objx/lv_spinbox.c ****     intDigits = (ext->dec_point_pos == 0) ? ext->digit_count : ext->dec_point_pos;
 138              		.loc 1 442 0
 139 0090 1AF0F00F 		tst	r10, #240
 140 0094 40F0FE80 		bne	.L72
 141              	.LVL17:
 443:..\..\..\lvgl\version_6.1.2\lvgl\src\lv_objx/lv_spinbox.c **** 
 444:..\..\..\lvgl\version_6.1.2\lvgl\src\lv_objx/lv_spinbox.c ****     /*Add the decimal part*/
 445:..\..\..\lvgl\version_6.1.2\lvgl\src\lv_objx/lv_spinbox.c ****     for(i = 0; i < intDigits && digits[i] != '\0'; i++) {
 142              		.loc 1 445 0
 143 0098 B9F1000F 		cmp	r9, #0
 144 009c 00F0AB80 		beq	.L16
 145 00a0 9DF81830 		ldrb	r3, [sp, #24]	@ zero_extendqisi2
 146 00a4 002B     		cmp	r3, #0
 147 00a6 00F0A680 		beq	.L16
 148              	.L21:
 446:..\..\..\lvgl\version_6.1.2\lvgl\src\lv_objx/lv_spinbox.c ****         (*buf_p) = digits[i];
 149              		.loc 1 446 0
 150 00aa 2246     		mov	r2, r4
 445:..\..\..\lvgl\version_6.1.2\lvgl\src\lv_objx/lv_spinbox.c ****         (*buf_p) = digits[i];
 151              		.loc 1 445 0
 152 00ac B9F1010F 		cmp	r9, #1
 153              		.loc 1 446 0
 154 00b0 02F8013B 		strb	r3, [r2], #1
 155              	.LVL18:
 445:..\..\..\lvgl\version_6.1.2\lvgl\src\lv_objx/lv_spinbox.c ****         (*buf_p) = digits[i];
 156              		.loc 1 445 0
 157 00b4 00F0C680 		beq	.L49
 158 00b8 9DF81930 		ldrb	r3, [sp, #25]	@ zero_extendqisi2
 159 00bc 002B     		cmp	r3, #0
 160 00be 00F01681 		beq	.L26
 161 00c2 B9F1020F 		cmp	r9, #2
 162              		.loc 1 446 0
 163 00c6 6370     		strb	r3, [r4, #1]
 447:..\..\..\lvgl\version_6.1.2\lvgl\src\lv_objx/lv_spinbox.c ****         buf_p++;
 164              		.loc 1 447 0
 165 00c8 04F10202 		add	r2, r4, #2
 166              	.LVL19:
 445:..\..\..\lvgl\version_6.1.2\lvgl\src\lv_objx/lv_spinbox.c ****         (*buf_p) = digits[i];
 167              		.loc 1 445 0
 168 00cc 00F0BA80 		beq	.L49
 169 00d0 9DF81A30 		ldrb	r3, [sp, #26]	@ zero_extendqisi2
 170 00d4 002B     		cmp	r3, #0
 171 00d6 00F00781 		beq	.L28
ARM GAS  C:\Users\pearlstl\AppData\Local\Temp\cc98wxIE.s 			page 12


 172 00da B9F1030F 		cmp	r9, #3
 446:..\..\..\lvgl\version_6.1.2\lvgl\src\lv_objx/lv_spinbox.c ****         (*buf_p) = digits[i];
 173              		.loc 1 446 0
 174 00de A370     		strb	r3, [r4, #2]
 175              		.loc 1 447 0
 176 00e0 04F10302 		add	r2, r4, #3
 177              	.LVL20:
 445:..\..\..\lvgl\version_6.1.2\lvgl\src\lv_objx/lv_spinbox.c ****         (*buf_p) = digits[i];
 178              		.loc 1 445 0
 179 00e4 00F0AE80 		beq	.L49
 180 00e8 9DF81B30 		ldrb	r3, [sp, #27]	@ zero_extendqisi2
 181 00ec 002B     		cmp	r3, #0
 182 00ee 00F0F880 		beq	.L30
 183 00f2 B9F1040F 		cmp	r9, #4
 446:..\..\..\lvgl\version_6.1.2\lvgl\src\lv_objx/lv_spinbox.c ****         (*buf_p) = digits[i];
 184              		.loc 1 446 0
 185 00f6 E370     		strb	r3, [r4, #3]
 186              		.loc 1 447 0
 187 00f8 04F10402 		add	r2, r4, #4
 188              	.LVL21:
 445:..\..\..\lvgl\version_6.1.2\lvgl\src\lv_objx/lv_spinbox.c ****         (*buf_p) = digits[i];
 189              		.loc 1 445 0
 190 00fc 00F0A280 		beq	.L49
 191 0100 9DF81C30 		ldrb	r3, [sp, #28]	@ zero_extendqisi2
 192 0104 002B     		cmp	r3, #0
 193 0106 00F0E980 		beq	.L32
 194 010a B9F1050F 		cmp	r9, #5
 446:..\..\..\lvgl\version_6.1.2\lvgl\src\lv_objx/lv_spinbox.c ****         (*buf_p) = digits[i];
 195              		.loc 1 446 0
 196 010e 2371     		strb	r3, [r4, #4]
 197              		.loc 1 447 0
 198 0110 04F10502 		add	r2, r4, #5
 199              	.LVL22:
 445:..\..\..\lvgl\version_6.1.2\lvgl\src\lv_objx/lv_spinbox.c ****         (*buf_p) = digits[i];
 200              		.loc 1 445 0
 201 0114 00F09680 		beq	.L49
 202 0118 9DF81D30 		ldrb	r3, [sp, #29]	@ zero_extendqisi2
 203 011c 002B     		cmp	r3, #0
 204 011e 00F0DA80 		beq	.L34
 205 0122 B9F1060F 		cmp	r9, #6
 446:..\..\..\lvgl\version_6.1.2\lvgl\src\lv_objx/lv_spinbox.c ****         (*buf_p) = digits[i];
 206              		.loc 1 446 0
 207 0126 6371     		strb	r3, [r4, #5]
 208              		.loc 1 447 0
 209 0128 04F10602 		add	r2, r4, #6
 210              	.LVL23:
 445:..\..\..\lvgl\version_6.1.2\lvgl\src\lv_objx/lv_spinbox.c ****         (*buf_p) = digits[i];
 211              		.loc 1 445 0
 212 012c 00F08A80 		beq	.L49
 213 0130 9DF81E30 		ldrb	r3, [sp, #30]	@ zero_extendqisi2
 214 0134 002B     		cmp	r3, #0
 215 0136 00F0CB80 		beq	.L36
 216 013a B9F1070F 		cmp	r9, #7
 446:..\..\..\lvgl\version_6.1.2\lvgl\src\lv_objx/lv_spinbox.c ****         (*buf_p) = digits[i];
 217              		.loc 1 446 0
 218 013e A371     		strb	r3, [r4, #6]
 219              		.loc 1 447 0
ARM GAS  C:\Users\pearlstl\AppData\Local\Temp\cc98wxIE.s 			page 13


 220 0140 04F10702 		add	r2, r4, #7
 221              	.LVL24:
 445:..\..\..\lvgl\version_6.1.2\lvgl\src\lv_objx/lv_spinbox.c ****         (*buf_p) = digits[i];
 222              		.loc 1 445 0
 223 0144 7ED0     		beq	.L49
 224 0146 9DF81F30 		ldrb	r3, [sp, #31]	@ zero_extendqisi2
 225 014a 002B     		cmp	r3, #0
 226 014c 00F0BA80 		beq	.L38
 227 0150 B9F1080F 		cmp	r9, #8
 446:..\..\..\lvgl\version_6.1.2\lvgl\src\lv_objx/lv_spinbox.c ****         (*buf_p) = digits[i];
 228              		.loc 1 446 0
 229 0154 E371     		strb	r3, [r4, #7]
 230              		.loc 1 447 0
 231 0156 04F10802 		add	r2, r4, #8
 232              	.LVL25:
 445:..\..\..\lvgl\version_6.1.2\lvgl\src\lv_objx/lv_spinbox.c ****         (*buf_p) = digits[i];
 233              		.loc 1 445 0
 234 015a 73D0     		beq	.L49
 235 015c 9DF82030 		ldrb	r3, [sp, #32]	@ zero_extendqisi2
 236 0160 002B     		cmp	r3, #0
 237 0162 00F0D380 		beq	.L40
 238 0166 B9F1090F 		cmp	r9, #9
 446:..\..\..\lvgl\version_6.1.2\lvgl\src\lv_objx/lv_spinbox.c ****         (*buf_p) = digits[i];
 239              		.loc 1 446 0
 240 016a 2372     		strb	r3, [r4, #8]
 241              		.loc 1 447 0
 242 016c 04F10902 		add	r2, r4, #9
 243              	.LVL26:
 445:..\..\..\lvgl\version_6.1.2\lvgl\src\lv_objx/lv_spinbox.c ****         (*buf_p) = digits[i];
 244              		.loc 1 445 0
 245 0170 68D0     		beq	.L49
 246 0172 9DF82130 		ldrb	r3, [sp, #33]	@ zero_extendqisi2
 247 0176 002B     		cmp	r3, #0
 248 0178 00F0C580 		beq	.L42
 249 017c B9F10A0F 		cmp	r9, #10
 446:..\..\..\lvgl\version_6.1.2\lvgl\src\lv_objx/lv_spinbox.c ****         (*buf_p) = digits[i];
 250              		.loc 1 446 0
 251 0180 6372     		strb	r3, [r4, #9]
 252              		.loc 1 447 0
 253 0182 04F10A02 		add	r2, r4, #10
 254              	.LVL27:
 445:..\..\..\lvgl\version_6.1.2\lvgl\src\lv_objx/lv_spinbox.c ****         (*buf_p) = digits[i];
 255              		.loc 1 445 0
 256 0186 5DD0     		beq	.L49
 257 0188 9DF82230 		ldrb	r3, [sp, #34]	@ zero_extendqisi2
 258 018c 002B     		cmp	r3, #0
 259 018e 00F0B780 		beq	.L44
 260 0192 B9F10B0F 		cmp	r9, #11
 446:..\..\..\lvgl\version_6.1.2\lvgl\src\lv_objx/lv_spinbox.c ****         (*buf_p) = digits[i];
 261              		.loc 1 446 0
 262 0196 A372     		strb	r3, [r4, #10]
 263              		.loc 1 447 0
 264 0198 04F10B02 		add	r2, r4, #11
 265              	.LVL28:
 445:..\..\..\lvgl\version_6.1.2\lvgl\src\lv_objx/lv_spinbox.c ****         (*buf_p) = digits[i];
 266              		.loc 1 445 0
 267 019c 52D0     		beq	.L49
ARM GAS  C:\Users\pearlstl\AppData\Local\Temp\cc98wxIE.s 			page 14


 268 019e 9DF82330 		ldrb	r3, [sp, #35]	@ zero_extendqisi2
 269 01a2 002B     		cmp	r3, #0
 270 01a4 00F0A980 		beq	.L46
 271 01a8 B9F10C0F 		cmp	r9, #12
 446:..\..\..\lvgl\version_6.1.2\lvgl\src\lv_objx/lv_spinbox.c ****         (*buf_p) = digits[i];
 272              		.loc 1 446 0
 273 01ac E372     		strb	r3, [r4, #11]
 274              		.loc 1 447 0
 275 01ae 04F10C02 		add	r2, r4, #12
 276              	.LVL29:
 445:..\..\..\lvgl\version_6.1.2\lvgl\src\lv_objx/lv_spinbox.c ****         (*buf_p) = digits[i];
 277              		.loc 1 445 0
 278 01b2 47D0     		beq	.L49
 279 01b4 9DF82430 		ldrb	r3, [sp, #36]	@ zero_extendqisi2
 280 01b8 002B     		cmp	r3, #0
 281 01ba 00F09B80 		beq	.L48
 282 01be B9F10D0F 		cmp	r9, #13
 446:..\..\..\lvgl\version_6.1.2\lvgl\src\lv_objx/lv_spinbox.c ****         (*buf_p) = digits[i];
 283              		.loc 1 446 0
 284 01c2 2373     		strb	r3, [r4, #12]
 285              		.loc 1 447 0
 286 01c4 04F10D02 		add	r2, r4, #13
 287              	.LVL30:
 445:..\..\..\lvgl\version_6.1.2\lvgl\src\lv_objx/lv_spinbox.c ****         (*buf_p) = digits[i];
 288              		.loc 1 445 0
 289 01c8 3CD0     		beq	.L49
 290 01ca 9DF82530 		ldrb	r3, [sp, #37]	@ zero_extendqisi2
 291 01ce 002B     		cmp	r3, #0
 292 01d0 7BD0     		beq	.L50
 293 01d2 B9F10F0F 		cmp	r9, #15
 446:..\..\..\lvgl\version_6.1.2\lvgl\src\lv_objx/lv_spinbox.c ****         (*buf_p) = digits[i];
 294              		.loc 1 446 0
 295 01d6 6373     		strb	r3, [r4, #13]
 296              		.loc 1 447 0
 297 01d8 04F10E02 		add	r2, r4, #14
 298              	.LVL31:
 445:..\..\..\lvgl\version_6.1.2\lvgl\src\lv_objx/lv_spinbox.c ****         (*buf_p) = digits[i];
 299              		.loc 1 445 0
 300 01dc 6FD1     		bne	.L52
 301 01de 9DF82630 		ldrb	r3, [sp, #38]	@ zero_extendqisi2
 302 01e2 002B     		cmp	r3, #0
 303 01e4 6BD0     		beq	.L52
 446:..\..\..\lvgl\version_6.1.2\lvgl\src\lv_objx/lv_spinbox.c ****         (*buf_p) = digits[i];
 304              		.loc 1 446 0 discriminator 4
 305 01e6 A373     		strb	r3, [r4, #14]
 445:..\..\..\lvgl\version_6.1.2\lvgl\src\lv_objx/lv_spinbox.c ****         (*buf_p) = digits[i];
 306              		.loc 1 445 0 discriminator 4
 307 01e8 4B46     		mov	r3, r9
 308              		.loc 1 447 0 discriminator 4
 309 01ea 0F34     		adds	r4, r4, #15
 310              	.LVL32:
 311              	.L14:
 312 01ec 96F87020 		ldrb	r2, [r6, #112]	@ zero_extendqisi2
 313 01f0 02F0F002 		and	r2, r2, #240
 448:..\..\..\lvgl\version_6.1.2\lvgl\src\lv_objx/lv_spinbox.c ****     }
 449:..\..\..\lvgl\version_6.1.2\lvgl\src\lv_objx/lv_spinbox.c **** 
 450:..\..\..\lvgl\version_6.1.2\lvgl\src\lv_objx/lv_spinbox.c ****     if(ext->dec_point_pos != 0) {
ARM GAS  C:\Users\pearlstl\AppData\Local\Temp\cc98wxIE.s 			page 15


 314              		.loc 1 450 0
 315 01f4 72BB     		cbnz	r2, .L12
 316              	.L16:
 451:..\..\..\lvgl\version_6.1.2\lvgl\src\lv_objx/lv_spinbox.c ****         /*Insert the decimal point*/
 452:..\..\..\lvgl\version_6.1.2\lvgl\src\lv_objx/lv_spinbox.c ****         (*buf_p) = '.';
 453:..\..\..\lvgl\version_6.1.2\lvgl\src\lv_objx/lv_spinbox.c ****         buf_p++;
 454:..\..\..\lvgl\version_6.1.2\lvgl\src\lv_objx/lv_spinbox.c **** 
 455:..\..\..\lvgl\version_6.1.2\lvgl\src\lv_objx/lv_spinbox.c ****         for(/*Leave i*/; i < ext->digit_count && digits[i] != '\0'; i++) {
 456:..\..\..\lvgl\version_6.1.2\lvgl\src\lv_objx/lv_spinbox.c ****             (*buf_p) = digits[i];
 457:..\..\..\lvgl\version_6.1.2\lvgl\src\lv_objx/lv_spinbox.c ****             buf_p++;
 458:..\..\..\lvgl\version_6.1.2\lvgl\src\lv_objx/lv_spinbox.c ****         }
 459:..\..\..\lvgl\version_6.1.2\lvgl\src\lv_objx/lv_spinbox.c ****     }
 460:..\..\..\lvgl\version_6.1.2\lvgl\src\lv_objx/lv_spinbox.c **** 
 461:..\..\..\lvgl\version_6.1.2\lvgl\src\lv_objx/lv_spinbox.c ****     /*Refresh the text*/
 462:..\..\..\lvgl\version_6.1.2\lvgl\src\lv_objx/lv_spinbox.c ****     lv_ta_set_text(spinbox, (char *)buf);
 317              		.loc 1 462 0
 318 01f6 6946     		mov	r1, sp
 319 01f8 4046     		mov	r0, r8
 320 01fa FFF7FEFF 		bl	lv_ta_set_text
 321              	.LVL33:
 463:..\..\..\lvgl\version_6.1.2\lvgl\src\lv_objx/lv_spinbox.c **** 
 464:..\..\..\lvgl\version_6.1.2\lvgl\src\lv_objx/lv_spinbox.c ****     /*Set the cursor position*/
 465:..\..\..\lvgl\version_6.1.2\lvgl\src\lv_objx/lv_spinbox.c ****     int32_t step    = ext->step;
 322              		.loc 1 465 0
 323 01fe F36E     		ldr	r3, [r6, #108]
 324              	.LVL34:
 466:..\..\..\lvgl\version_6.1.2\lvgl\src\lv_objx/lv_spinbox.c ****     uint8_t cur_pos = (uint8_t)ext->digit_count;
 325              		.loc 1 466 0
 326 0200 96F87020 		ldrb	r2, [r6, #112]	@ zero_extendqisi2
 467:..\..\..\lvgl\version_6.1.2\lvgl\src\lv_objx/lv_spinbox.c ****     while(step >= 10) {
 327              		.loc 1 467 0
 328 0204 092B     		cmp	r3, #9
 466:..\..\..\lvgl\version_6.1.2\lvgl\src\lv_objx/lv_spinbox.c ****     uint8_t cur_pos = (uint8_t)ext->digit_count;
 329              		.loc 1 466 0
 330 0206 02F00F02 		and	r2, r2, #15
 331              	.LVL35:
 332              		.loc 1 467 0
 333 020a 09DD     		ble	.L18
 468:..\..\..\lvgl\version_6.1.2\lvgl\src\lv_objx/lv_spinbox.c ****         step /= 10;
 334              		.loc 1 468 0
 335 020c 4148     		ldr	r0, .L74
 336              	.LVL36:
 337              	.L19:
 338 020e 80FB0341 		smull	r4, r1, r0, r3
 339 0212 DB17     		asrs	r3, r3, #31
 340              	.LVL37:
 341 0214 C3EBA103 		rsb	r3, r3, r1, asr #2
 342              	.LVL38:
 469:..\..\..\lvgl\version_6.1.2\lvgl\src\lv_objx/lv_spinbox.c ****         cur_pos--;
 343              		.loc 1 469 0
 344 0218 013A     		subs	r2, r2, #1
 345              	.LVL39:
 467:..\..\..\lvgl\version_6.1.2\lvgl\src\lv_objx/lv_spinbox.c ****     while(step >= 10) {
 346              		.loc 1 467 0
 347 021a 092B     		cmp	r3, #9
 348              		.loc 1 469 0
 349 021c D2B2     		uxtb	r2, r2
ARM GAS  C:\Users\pearlstl\AppData\Local\Temp\cc98wxIE.s 			page 16


 350              	.LVL40:
 467:..\..\..\lvgl\version_6.1.2\lvgl\src\lv_objx/lv_spinbox.c ****     while(step >= 10) {
 351              		.loc 1 467 0
 352 021e F6DC     		bgt	.L19
 353              	.LVL41:
 354              	.L18:
 470:..\..\..\lvgl\version_6.1.2\lvgl\src\lv_objx/lv_spinbox.c ****     }
 471:..\..\..\lvgl\version_6.1.2\lvgl\src\lv_objx/lv_spinbox.c **** 
 472:..\..\..\lvgl\version_6.1.2\lvgl\src\lv_objx/lv_spinbox.c ****     if(cur_pos > intDigits) cur_pos++; /*Skip teh decimal point*/
 473:..\..\..\lvgl\version_6.1.2\lvgl\src\lv_objx/lv_spinbox.c **** 
 474:..\..\..\lvgl\version_6.1.2\lvgl\src\lv_objx/lv_spinbox.c ****     cur_pos += (ext->digit_padding_left - cur_shift_left);
 355              		.loc 1 474 0
 356 0220 96F87110 		ldrb	r1, [r6, #113]	@ zero_extendqisi2
 472:..\..\..\lvgl\version_6.1.2\lvgl\src\lv_objx/lv_spinbox.c **** 
 357              		.loc 1 472 0
 358 0224 4A45     		cmp	r2, r9
 359 0226 C8BF     		it	gt
 360 0228 0132     		addgt	r2, r2, #1
 361              		.loc 1 474 0
 362 022a C1F30301 		ubfx	r1, r1, #0, #4
 472:..\..\..\lvgl\version_6.1.2\lvgl\src\lv_objx/lv_spinbox.c **** 
 363              		.loc 1 472 0
 364 022e C8BF     		it	gt
 365 0230 D2B2     		uxtbgt	r2, r2
 366              	.LVL42:
 475:..\..\..\lvgl\version_6.1.2\lvgl\src\lv_objx/lv_spinbox.c **** 
 476:..\..\..\lvgl\version_6.1.2\lvgl\src\lv_objx/lv_spinbox.c ****     lv_ta_set_cursor_pos(spinbox, cur_pos);
 367              		.loc 1 476 0
 368 0232 C91B     		subs	r1, r1, r7
 369 0234 1144     		add	r1, r1, r2
 370 0236 C9B2     		uxtb	r1, r1
 371 0238 4046     		mov	r0, r8
 372 023a FFF7FEFF 		bl	lv_ta_set_cursor_pos
 373              	.LVL43:
 477:..\..\..\lvgl\version_6.1.2\lvgl\src\lv_objx/lv_spinbox.c **** }
 374              		.loc 1 477 0
 375 023e 16B0     		add	sp, sp, #88
 376              		.cfi_remember_state
 377              		.cfi_def_cfa_offset 32
 378              		@ sp needed
 379 0240 BDE8F087 		pop	{r4, r5, r6, r7, r8, r9, r10, pc}
 380              	.LVL44:
 381              	.L49:
 382              		.cfi_restore_state
 447:..\..\..\lvgl\version_6.1.2\lvgl\src\lv_objx/lv_spinbox.c ****     }
 383              		.loc 1 447 0
 384 0244 1446     		mov	r4, r2
 385 0246 96F87020 		ldrb	r2, [r6, #112]	@ zero_extendqisi2
 386 024a 02F0F002 		and	r2, r2, #240
 445:..\..\..\lvgl\version_6.1.2\lvgl\src\lv_objx/lv_spinbox.c ****         (*buf_p) = digits[i];
 387              		.loc 1 445 0
 388 024e 4B46     		mov	r3, r9
 450:..\..\..\lvgl\version_6.1.2\lvgl\src\lv_objx/lv_spinbox.c ****         /*Insert the decimal point*/
 389              		.loc 1 450 0
 390 0250 002A     		cmp	r2, #0
 391 0252 D0D0     		beq	.L16
 392              	.L12:
ARM GAS  C:\Users\pearlstl\AppData\Local\Temp\cc98wxIE.s 			page 17


 452:..\..\..\lvgl\version_6.1.2\lvgl\src\lv_objx/lv_spinbox.c ****         buf_p++;
 393              		.loc 1 452 0
 394 0254 2E22     		movs	r2, #46
 395 0256 04F8012B 		strb	r2, [r4], #1
 396              	.LVL45:
 455:..\..\..\lvgl\version_6.1.2\lvgl\src\lv_objx/lv_spinbox.c ****             (*buf_p) = digits[i];
 397              		.loc 1 455 0
 398 025a 96F87020 		ldrb	r2, [r6, #112]	@ zero_extendqisi2
 399 025e 02F00F02 		and	r2, r2, #15
 400 0262 9A42     		cmp	r2, r3
 401 0264 C7DD     		ble	.L16
 402 0266 16AA     		add	r2, sp, #88
 403 0268 1A44     		add	r2, r2, r3
 404 026a 12F8402C 		ldrb	r2, [r2, #-64]	@ zero_extendqisi2
 405 026e 002A     		cmp	r2, #0
 406 0270 C1D0     		beq	.L16
 407 0272 0133     		adds	r3, r3, #1
 408 0274 E918     		adds	r1, r5, r3
 409 0276 03E0     		b	.L17
 410              	.LVL46:
 411              	.L73:
 455:..\..\..\lvgl\version_6.1.2\lvgl\src\lv_objx/lv_spinbox.c ****             (*buf_p) = digits[i];
 412              		.loc 1 455 0 is_stmt 0 discriminator 2
 413 0278 11F8012B 		ldrb	r2, [r1], #1	@ zero_extendqisi2
 414              	.LVL47:
 415 027c 002A     		cmp	r2, #0
 416 027e BAD0     		beq	.L16
 417              	.LVL48:
 418              	.L17:
 456:..\..\..\lvgl\version_6.1.2\lvgl\src\lv_objx/lv_spinbox.c ****             buf_p++;
 419              		.loc 1 456 0 is_stmt 1 discriminator 3
 420 0280 04F8012B 		strb	r2, [r4], #1
 421              	.LVL49:
 455:..\..\..\lvgl\version_6.1.2\lvgl\src\lv_objx/lv_spinbox.c ****             (*buf_p) = digits[i];
 422              		.loc 1 455 0 discriminator 3
 423 0284 96F87020 		ldrb	r2, [r6, #112]	@ zero_extendqisi2
 424 0288 4B1B     		subs	r3, r1, r5
 425 028a 02F00F02 		and	r2, r2, #15
 426 028e 9A42     		cmp	r2, r3
 427 0290 F2DC     		bgt	.L73
 428 0292 B0E7     		b	.L16
 429              	.LVL50:
 430              	.L72:
 445:..\..\..\lvgl\version_6.1.2\lvgl\src\lv_objx/lv_spinbox.c ****         (*buf_p) = digits[i];
 431              		.loc 1 445 0 discriminator 2
 432 0294 5FEA1A19 		lsrs	r9, r10, #4
 433              	.LVL51:
 434 0298 08BF     		it	eq
 435 029a 4B46     		moveq	r3, r9
 436 029c DAD0     		beq	.L12
 445:..\..\..\lvgl\version_6.1.2\lvgl\src\lv_objx/lv_spinbox.c ****         (*buf_p) = digits[i];
 437              		.loc 1 445 0 is_stmt 0
 438 029e 9DF81830 		ldrb	r3, [sp, #24]	@ zero_extendqisi2
 439 02a2 002B     		cmp	r3, #0
 440 02a4 7FF401AF 		bne	.L21
 441 02a8 D4E7     		b	.L12
 442              	.LVL52:
ARM GAS  C:\Users\pearlstl\AppData\Local\Temp\cc98wxIE.s 			page 18


 443              	.L71:
 412:..\..\..\lvgl\version_6.1.2\lvgl\src\lv_objx/lv_spinbox.c ****         buf_p++;
 444              		.loc 1 412 0 is_stmt 1
 445 02aa 036E     		ldr	r3, [r0, #96]
 446 02ac BB42     		cmp	r3, r7
 447 02ae B4BF     		ite	lt
 448 02b0 2D23     		movlt	r3, #45
 449 02b2 2B23     		movge	r3, #43
 450 02b4 8DF80030 		strb	r3, [sp]
 451              	.LVL53:
 413:..\..\..\lvgl\version_6.1.2\lvgl\src\lv_objx/lv_spinbox.c ****     } else {
 452              		.loc 1 413 0
 453 02b8 0DF10101 		add	r1, sp, #1
 454              	.LVL54:
 455 02bc B4E6     		b	.L2
 456              	.LVL55:
 457              	.L52:
 447:..\..\..\lvgl\version_6.1.2\lvgl\src\lv_objx/lv_spinbox.c ****     }
 458              		.loc 1 447 0
 459 02be 1446     		mov	r4, r2
 445:..\..\..\lvgl\version_6.1.2\lvgl\src\lv_objx/lv_spinbox.c ****         (*buf_p) = digits[i];
 460              		.loc 1 445 0
 461 02c0 0E23     		movs	r3, #14
 462 02c2 93E7     		b	.L14
 463              	.LVL56:
 464              	.L38:
 447:..\..\..\lvgl\version_6.1.2\lvgl\src\lv_objx/lv_spinbox.c ****     }
 465              		.loc 1 447 0
 466 02c4 1446     		mov	r4, r2
 445:..\..\..\lvgl\version_6.1.2\lvgl\src\lv_objx/lv_spinbox.c ****         (*buf_p) = digits[i];
 467              		.loc 1 445 0
 468 02c6 0723     		movs	r3, #7
 469 02c8 90E7     		b	.L14
 470              	.LVL57:
 471              	.L50:
 447:..\..\..\lvgl\version_6.1.2\lvgl\src\lv_objx/lv_spinbox.c ****     }
 472              		.loc 1 447 0
 473 02ca 1446     		mov	r4, r2
 445:..\..\..\lvgl\version_6.1.2\lvgl\src\lv_objx/lv_spinbox.c ****         (*buf_p) = digits[i];
 474              		.loc 1 445 0
 475 02cc 0D23     		movs	r3, #13
 476 02ce 8DE7     		b	.L14
 477              	.LVL58:
 478              	.L36:
 447:..\..\..\lvgl\version_6.1.2\lvgl\src\lv_objx/lv_spinbox.c ****     }
 479              		.loc 1 447 0
 480 02d0 1446     		mov	r4, r2
 445:..\..\..\lvgl\version_6.1.2\lvgl\src\lv_objx/lv_spinbox.c ****         (*buf_p) = digits[i];
 481              		.loc 1 445 0
 482 02d2 0623     		movs	r3, #6
 483 02d4 8AE7     		b	.L14
 484              	.LVL59:
 485              	.L34:
 447:..\..\..\lvgl\version_6.1.2\lvgl\src\lv_objx/lv_spinbox.c ****     }
 486              		.loc 1 447 0
 487 02d6 1446     		mov	r4, r2
 445:..\..\..\lvgl\version_6.1.2\lvgl\src\lv_objx/lv_spinbox.c ****         (*buf_p) = digits[i];
ARM GAS  C:\Users\pearlstl\AppData\Local\Temp\cc98wxIE.s 			page 19


 488              		.loc 1 445 0
 489 02d8 0523     		movs	r3, #5
 490 02da 87E7     		b	.L14
 491              	.LVL60:
 492              	.L32:
 447:..\..\..\lvgl\version_6.1.2\lvgl\src\lv_objx/lv_spinbox.c ****     }
 493              		.loc 1 447 0
 494 02dc 1446     		mov	r4, r2
 445:..\..\..\lvgl\version_6.1.2\lvgl\src\lv_objx/lv_spinbox.c ****         (*buf_p) = digits[i];
 495              		.loc 1 445 0
 496 02de 0423     		movs	r3, #4
 497 02e0 84E7     		b	.L14
 498              	.LVL61:
 499              	.L30:
 447:..\..\..\lvgl\version_6.1.2\lvgl\src\lv_objx/lv_spinbox.c ****     }
 500              		.loc 1 447 0
 501 02e2 1446     		mov	r4, r2
 445:..\..\..\lvgl\version_6.1.2\lvgl\src\lv_objx/lv_spinbox.c ****         (*buf_p) = digits[i];
 502              		.loc 1 445 0
 503 02e4 0323     		movs	r3, #3
 504 02e6 81E7     		b	.L14
 505              	.LVL62:
 506              	.L28:
 447:..\..\..\lvgl\version_6.1.2\lvgl\src\lv_objx/lv_spinbox.c ****     }
 507              		.loc 1 447 0
 508 02e8 1446     		mov	r4, r2
 445:..\..\..\lvgl\version_6.1.2\lvgl\src\lv_objx/lv_spinbox.c ****         (*buf_p) = digits[i];
 509              		.loc 1 445 0
 510 02ea 0223     		movs	r3, #2
 511 02ec 7EE7     		b	.L14
 512              	.LVL63:
 513              	.L26:
 447:..\..\..\lvgl\version_6.1.2\lvgl\src\lv_objx/lv_spinbox.c ****     }
 514              		.loc 1 447 0
 515 02ee 1446     		mov	r4, r2
 445:..\..\..\lvgl\version_6.1.2\lvgl\src\lv_objx/lv_spinbox.c ****         (*buf_p) = digits[i];
 516              		.loc 1 445 0
 517 02f0 0123     		movs	r3, #1
 518 02f2 7BE7     		b	.L14
 519              	.LVL64:
 520              	.L48:
 447:..\..\..\lvgl\version_6.1.2\lvgl\src\lv_objx/lv_spinbox.c ****     }
 521              		.loc 1 447 0
 522 02f4 1446     		mov	r4, r2
 445:..\..\..\lvgl\version_6.1.2\lvgl\src\lv_objx/lv_spinbox.c ****         (*buf_p) = digits[i];
 523              		.loc 1 445 0
 524 02f6 0C23     		movs	r3, #12
 525 02f8 78E7     		b	.L14
 526              	.LVL65:
 527              	.L46:
 447:..\..\..\lvgl\version_6.1.2\lvgl\src\lv_objx/lv_spinbox.c ****     }
 528              		.loc 1 447 0
 529 02fa 1446     		mov	r4, r2
 445:..\..\..\lvgl\version_6.1.2\lvgl\src\lv_objx/lv_spinbox.c ****         (*buf_p) = digits[i];
 530              		.loc 1 445 0
 531 02fc 0B23     		movs	r3, #11
 532 02fe 75E7     		b	.L14
ARM GAS  C:\Users\pearlstl\AppData\Local\Temp\cc98wxIE.s 			page 20


 533              	.LVL66:
 534              	.L44:
 447:..\..\..\lvgl\version_6.1.2\lvgl\src\lv_objx/lv_spinbox.c ****     }
 535              		.loc 1 447 0
 536 0300 1446     		mov	r4, r2
 445:..\..\..\lvgl\version_6.1.2\lvgl\src\lv_objx/lv_spinbox.c ****         (*buf_p) = digits[i];
 537              		.loc 1 445 0
 538 0302 0A23     		movs	r3, #10
 539 0304 72E7     		b	.L14
 540              	.LVL67:
 541              	.L42:
 447:..\..\..\lvgl\version_6.1.2\lvgl\src\lv_objx/lv_spinbox.c ****     }
 542              		.loc 1 447 0
 543 0306 1446     		mov	r4, r2
 445:..\..\..\lvgl\version_6.1.2\lvgl\src\lv_objx/lv_spinbox.c ****         (*buf_p) = digits[i];
 544              		.loc 1 445 0
 545 0308 0923     		movs	r3, #9
 546 030a 6FE7     		b	.L14
 547              	.LVL68:
 548              	.L40:
 447:..\..\..\lvgl\version_6.1.2\lvgl\src\lv_objx/lv_spinbox.c ****     }
 549              		.loc 1 447 0
 550 030c 1446     		mov	r4, r2
 445:..\..\..\lvgl\version_6.1.2\lvgl\src\lv_objx/lv_spinbox.c ****         (*buf_p) = digits[i];
 551              		.loc 1 445 0
 552 030e 0823     		movs	r3, #8
 553 0310 6CE7     		b	.L14
 554              	.L75:
 555 0312 00BF     		.align	2
 556              	.L74:
 557 0314 67666666 		.word	1717986919
 558              		.cfi_endproc
 559              	.LFE70:
 560              		.size	lv_spinbox_updatevalue, .-lv_spinbox_updatevalue
 561              		.section	.text.lv_spinbox_create,"ax",%progbits
 562              		.align	2
 563              		.global	lv_spinbox_create
 564              		.thumb
 565              		.thumb_func
 566              		.type	lv_spinbox_create, %function
 567              	lv_spinbox_create:
 568              	.LFB58:
  53:..\..\..\lvgl\version_6.1.2\lvgl\src\lv_objx/lv_spinbox.c ****     LV_LOG_TRACE("spinbox create started");
 569              		.loc 1 53 0
 570              		.cfi_startproc
 571              		@ args = 0, pretend = 0, frame = 0
 572              		@ frame_needed = 0, uses_anonymous_args = 0
 573              	.LVL69:
 574 0000 2DE9F843 		push	{r3, r4, r5, r6, r7, r8, r9, lr}
 575              		.cfi_def_cfa_offset 32
 576              		.cfi_offset 3, -32
 577              		.cfi_offset 4, -28
 578              		.cfi_offset 5, -24
 579              		.cfi_offset 6, -20
 580              		.cfi_offset 7, -16
 581              		.cfi_offset 8, -12
 582              		.cfi_offset 9, -8
ARM GAS  C:\Users\pearlstl\AppData\Local\Temp\cc98wxIE.s 			page 21


 583              		.cfi_offset 14, -4
  53:..\..\..\lvgl\version_6.1.2\lvgl\src\lv_objx/lv_spinbox.c ****     LV_LOG_TRACE("spinbox create started");
 584              		.loc 1 53 0
 585 0004 8946     		mov	r9, r1
  57:..\..\..\lvgl\version_6.1.2\lvgl\src\lv_objx/lv_spinbox.c ****     LV_ASSERT_MEM(new_spinbox);
 586              		.loc 1 57 0
 587 0006 FFF7FEFF 		bl	lv_ta_create
 588              	.LVL70:
  59:..\..\..\lvgl\version_6.1.2\lvgl\src\lv_objx/lv_spinbox.c **** 
 589              		.loc 1 59 0
 590 000a 0028     		cmp	r0, #0
 591 000c 00F0AA80 		beq	.L79
  62:..\..\..\lvgl\version_6.1.2\lvgl\src\lv_objx/lv_spinbox.c ****     LV_ASSERT_MEM(ext);
 592              		.loc 1 62 0
 593 0010 7421     		movs	r1, #116
 594 0012 0446     		mov	r4, r0
 595 0014 FFF7FEFF 		bl	lv_obj_allocate_ext_attr
 596              	.LVL71:
  64:..\..\..\lvgl\version_6.1.2\lvgl\src\lv_objx/lv_spinbox.c ****     if(ancestor_signal == NULL) ancestor_signal = lv_obj_get_signal_cb(new_spinbox);
 597              		.loc 1 64 0
 598 0018 0546     		mov	r5, r0
 599 001a 0028     		cmp	r0, #0
 600 001c 00F0A280 		beq	.L79
  65:..\..\..\lvgl\version_6.1.2\lvgl\src\lv_objx/lv_spinbox.c ****     if(ancestor_design == NULL) ancestor_design = lv_obj_get_design_cb(new_spinbox);
 601              		.loc 1 65 0
 602 0020 574E     		ldr	r6, .L117
 603 0022 3368     		ldr	r3, [r6]
 604 0024 002B     		cmp	r3, #0
 605 0026 00F0A080 		beq	.L111
 606              	.LVL72:
 607              	.L80:
  66:..\..\..\lvgl\version_6.1.2\lvgl\src\lv_objx/lv_spinbox.c **** 
 608              		.loc 1 66 0
 609 002a 7368     		ldr	r3, [r6, #4]
 610 002c 544F     		ldr	r7, .L117
 611 002e 002B     		cmp	r3, #0
 612 0030 00F0A080 		beq	.L112
 613              	.L81:
  72:..\..\..\lvgl\version_6.1.2\lvgl\src\lv_objx/lv_spinbox.c ****     ext->step               = 1;
 614              		.loc 1 72 0
 615 0034 95F87130 		ldrb	r3, [r5, #113]	@ zero_extendqisi2
  74:..\..\..\lvgl\version_6.1.2\lvgl\src\lv_objx/lv_spinbox.c ****     ext->range_min          = -99999;
 616              		.loc 1 74 0
 617 0038 524A     		ldr	r2, .L117+4
 618 003a 6A66     		str	r2, [r5, #100]
  69:..\..\..\lvgl\version_6.1.2\lvgl\src\lv_objx/lv_spinbox.c ****     ext->dec_point_pos      = 0;
 619              		.loc 1 69 0
 620 003c 0027     		movs	r7, #0
  72:..\..\..\lvgl\version_6.1.2\lvgl\src\lv_objx/lv_spinbox.c ****     ext->step               = 1;
 621              		.loc 1 72 0
 622 003e 67F30303 		bfi	r3, r7, #0, #4
  71:..\..\..\lvgl\version_6.1.2\lvgl\src\lv_objx/lv_spinbox.c ****     ext->digit_padding_left = 0;
 623              		.loc 1 71 0
 624 0042 0522     		movs	r2, #5
  73:..\..\..\lvgl\version_6.1.2\lvgl\src\lv_objx/lv_spinbox.c ****     ext->range_max          = 99999;
 625              		.loc 1 73 0
 626 0044 4FF00108 		mov	r8, #1
ARM GAS  C:\Users\pearlstl\AppData\Local\Temp\cc98wxIE.s 			page 22


  72:..\..\..\lvgl\version_6.1.2\lvgl\src\lv_objx/lv_spinbox.c ****     ext->step               = 1;
 627              		.loc 1 72 0
 628 0048 85F87130 		strb	r3, [r5, #113]
  75:..\..\..\lvgl\version_6.1.2\lvgl\src\lv_objx/lv_spinbox.c **** 
 629              		.loc 1 75 0
 630 004c 4E4B     		ldr	r3, .L117+8
  71:..\..\..\lvgl\version_6.1.2\lvgl\src\lv_objx/lv_spinbox.c ****     ext->digit_padding_left = 0;
 631              		.loc 1 71 0
 632 004e 85F87020 		strb	r2, [r5, #112]
  75:..\..\..\lvgl\version_6.1.2\lvgl\src\lv_objx/lv_spinbox.c **** 
 633              		.loc 1 75 0
 634 0052 AB66     		str	r3, [r5, #104]
  77:..\..\..\lvgl\version_6.1.2\lvgl\src\lv_objx/lv_spinbox.c ****     lv_ta_set_one_line(new_spinbox, true);
 635              		.loc 1 77 0
 636 0054 0221     		movs	r1, #2
 637 0056 2046     		mov	r0, r4
  69:..\..\..\lvgl\version_6.1.2\lvgl\src\lv_objx/lv_spinbox.c ****     ext->dec_point_pos      = 0;
 638              		.loc 1 69 0
 639 0058 2F66     		str	r7, [r5, #96]
  73:..\..\..\lvgl\version_6.1.2\lvgl\src\lv_objx/lv_spinbox.c ****     ext->range_max          = 99999;
 640              		.loc 1 73 0
 641 005a C5F86C80 		str	r8, [r5, #108]
  77:..\..\..\lvgl\version_6.1.2\lvgl\src\lv_objx/lv_spinbox.c ****     lv_ta_set_one_line(new_spinbox, true);
 642              		.loc 1 77 0
 643 005e FFF7FEFF 		bl	lv_ta_set_cursor_type
 644              	.LVL73:
  78:..\..\..\lvgl\version_6.1.2\lvgl\src\lv_objx/lv_spinbox.c ****     lv_ta_set_cursor_click_pos(new_spinbox, false);
 645              		.loc 1 78 0
 646 0062 4146     		mov	r1, r8
 647 0064 2046     		mov	r0, r4
 648 0066 FFF7FEFF 		bl	lv_ta_set_one_line
 649              	.LVL74:
  79:..\..\..\lvgl\version_6.1.2\lvgl\src\lv_objx/lv_spinbox.c **** 
 650              		.loc 1 79 0
 651 006a 3946     		mov	r1, r7
 652 006c 2046     		mov	r0, r4
 653 006e FFF7FEFF 		bl	lv_ta_set_cursor_click_pos
 654              	.LVL75:
  82:..\..\..\lvgl\version_6.1.2\lvgl\src\lv_objx/lv_spinbox.c ****     lv_obj_set_design_cb(new_spinbox, ancestor_design); /*Leave the Text area's design function*/
 655              		.loc 1 82 0
 656 0072 4649     		ldr	r1, .L117+12
 657 0074 2046     		mov	r0, r4
 658 0076 FFF7FEFF 		bl	lv_obj_set_signal_cb
 659              	.LVL76:
  83:..\..\..\lvgl\version_6.1.2\lvgl\src\lv_objx/lv_spinbox.c **** 
 660              		.loc 1 83 0
 661 007a 7168     		ldr	r1, [r6, #4]
 662 007c 2046     		mov	r0, r4
 663 007e FFF7FEFF 		bl	lv_obj_set_design_cb
 664              	.LVL77:
  86:..\..\..\lvgl\version_6.1.2\lvgl\src\lv_objx/lv_spinbox.c ****         /*Set the default styles*/
 665              		.loc 1 86 0
 666 0082 B9F1000F 		cmp	r9, #0
 667 0086 55D0     		beq	.L113
 668              	.LBB28:
  97:..\..\..\lvgl\version_6.1.2\lvgl\src\lv_objx/lv_spinbox.c **** 
 669              		.loc 1 97 0
ARM GAS  C:\Users\pearlstl\AppData\Local\Temp\cc98wxIE.s 			page 23


 670 0088 4846     		mov	r0, r9
 671 008a FFF7FEFF 		bl	lv_obj_get_ext_attr
 672              	.LVL78:
 673 008e 0546     		mov	r5, r0
 674              	.LVL79:
 675              	.LBB29:
 676              	.LBB30:
 128:..\..\..\lvgl\version_6.1.2\lvgl\src\lv_objx/lv_spinbox.c ****     if(ext == NULL) return;
 677              		.loc 1 128 0
 678 0090 2046     		mov	r0, r4
 679              	.LVL80:
 680              	.LBE30:
 681              	.LBE29:
  99:..\..\..\lvgl\version_6.1.2\lvgl\src\lv_objx/lv_spinbox.c ****         lv_spinbox_set_digit_format(new_spinbox, (uint8_t)copy_ext->digit_count, (uint8_t)copy_ext-
 682              		.loc 1 99 0
 683 0092 2E6E     		ldr	r6, [r5, #96]
 684              	.LVL81:
 685              	.LBB32:
 686              	.LBB31:
 128:..\..\..\lvgl\version_6.1.2\lvgl\src\lv_objx/lv_spinbox.c ****     if(ext == NULL) return;
 687              		.loc 1 128 0
 688 0094 FFF7FEFF 		bl	lv_obj_get_ext_attr
 689              	.LVL82:
 129:..\..\..\lvgl\version_6.1.2\lvgl\src\lv_objx/lv_spinbox.c **** 
 690              		.loc 1 129 0
 691 0098 58B1     		cbz	r0, .L84
 131:..\..\..\lvgl\version_6.1.2\lvgl\src\lv_objx/lv_spinbox.c ****     if(i < ext->range_min) i = ext->range_min;
 692              		.loc 1 131 0
 693 009a 436E     		ldr	r3, [r0, #100]
 132:..\..\..\lvgl\version_6.1.2\lvgl\src\lv_objx/lv_spinbox.c **** 
 694              		.loc 1 132 0
 695 009c 826E     		ldr	r2, [r0, #104]
 696 009e B342     		cmp	r3, r6
 697 00a0 A8BF     		it	ge
 698 00a2 3346     		movge	r3, r6
 699              	.LVL83:
 134:..\..\..\lvgl\version_6.1.2\lvgl\src\lv_objx/lv_spinbox.c **** 
 700              		.loc 1 134 0
 701 00a4 9342     		cmp	r3, r2
 702 00a6 B8BF     		it	lt
 703 00a8 1346     		movlt	r3, r2
 704              	.LVL84:
 705 00aa 0366     		str	r3, [r0, #96]
 136:..\..\..\lvgl\version_6.1.2\lvgl\src\lv_objx/lv_spinbox.c **** }
 706              		.loc 1 136 0
 707 00ac 2046     		mov	r0, r4
 708              	.LVL85:
 709 00ae FFF7FEFF 		bl	lv_spinbox_updatevalue
 710              	.LVL86:
 711              	.L84:
 712              	.LBE31:
 713              	.LBE32:
 100:..\..\..\lvgl\version_6.1.2\lvgl\src\lv_objx/lv_spinbox.c ****         lv_spinbox_set_range(new_spinbox, copy_ext->range_min, copy_ext->range_max);
 714              		.loc 1 100 0
 715 00b2 95F87030 		ldrb	r3, [r5, #112]	@ zero_extendqisi2
 716              	.LBB33:
 717              	.LBB34:
ARM GAS  C:\Users\pearlstl\AppData\Local\Temp\cc98wxIE.s 			page 24


 150:..\..\..\lvgl\version_6.1.2\lvgl\src\lv_objx/lv_spinbox.c ****     if(ext == NULL) return;
 718              		.loc 1 150 0
 719 00b6 2046     		mov	r0, r4
 720              	.LBE34:
 721              	.LBE33:
 100:..\..\..\lvgl\version_6.1.2\lvgl\src\lv_objx/lv_spinbox.c ****         lv_spinbox_set_range(new_spinbox, copy_ext->range_min, copy_ext->range_max);
 722              		.loc 1 100 0
 723 00b8 03F00F07 		and	r7, r3, #15
 724 00bc 1E09     		lsrs	r6, r3, #4
 725              	.LVL87:
 726              	.LBB37:
 727              	.LBB35:
 150:..\..\..\lvgl\version_6.1.2\lvgl\src\lv_objx/lv_spinbox.c ****     if(ext == NULL) return;
 728              		.loc 1 150 0
 729 00be FFF7FEFF 		bl	lv_obj_get_ext_attr
 730              	.LVL88:
 151:..\..\..\lvgl\version_6.1.2\lvgl\src\lv_objx/lv_spinbox.c **** 
 731              		.loc 1 151 0
 732 00c2 F0B9     		cbnz	r0, .L114
 733              	.LVL89:
 734              	.L90:
 735              	.LBE35:
 736              	.LBE37:
 737              	.LBB38:
 738              	.LBB39:
 188:..\..\..\lvgl\version_6.1.2\lvgl\src\lv_objx/lv_spinbox.c ****     if(ext == NULL) return;
 739              		.loc 1 188 0
 740 00c4 2046     		mov	r0, r4
 741              	.LBE39:
 742              	.LBE38:
 101:..\..\..\lvgl\version_6.1.2\lvgl\src\lv_objx/lv_spinbox.c ****         lv_spinbox_set_step(new_spinbox, copy_ext->step);
 743              		.loc 1 101 0
 744 00c6 AF6E     		ldr	r7, [r5, #104]
 745 00c8 D5F86480 		ldr	r8, [r5, #100]
 746              	.LVL90:
 747              	.LBB42:
 748              	.LBB40:
 188:..\..\..\lvgl\version_6.1.2\lvgl\src\lv_objx/lv_spinbox.c ****     if(ext == NULL) return;
 749              		.loc 1 188 0
 750 00cc FFF7FEFF 		bl	lv_obj_get_ext_attr
 751              	.LVL91:
 189:..\..\..\lvgl\version_6.1.2\lvgl\src\lv_objx/lv_spinbox.c **** 
 752              		.loc 1 189 0
 753 00d0 0646     		mov	r6, r0
 754 00d2 38B1     		cbz	r0, .L86
 194:..\..\..\lvgl\version_6.1.2\lvgl\src\lv_objx/lv_spinbox.c ****         ext->value = ext->range_max;
 755              		.loc 1 194 0
 756 00d4 036E     		ldr	r3, [r0, #96]
 191:..\..\..\lvgl\version_6.1.2\lvgl\src\lv_objx/lv_spinbox.c ****     ext->range_min = range_min;
 757              		.loc 1 191 0
 758 00d6 C0F86480 		str	r8, [r0, #100]
 194:..\..\..\lvgl\version_6.1.2\lvgl\src\lv_objx/lv_spinbox.c ****         ext->value = ext->range_max;
 759              		.loc 1 194 0
 760 00da 9845     		cmp	r8, r3
 192:..\..\..\lvgl\version_6.1.2\lvgl\src\lv_objx/lv_spinbox.c **** 
 761              		.loc 1 192 0
 762 00dc 8766     		str	r7, [r0, #104]
ARM GAS  C:\Users\pearlstl\AppData\Local\Temp\cc98wxIE.s 			page 25


 194:..\..\..\lvgl\version_6.1.2\lvgl\src\lv_objx/lv_spinbox.c ****         ext->value = ext->range_max;
 763              		.loc 1 194 0
 764 00de 21DB     		blt	.L115
 765              	.LVL92:
 766              	.L87:
 198:..\..\..\lvgl\version_6.1.2\lvgl\src\lv_objx/lv_spinbox.c ****         ext->value = ext->range_min;
 767              		.loc 1 198 0
 768 00e0 BB42     		cmp	r3, r7
 769 00e2 1ADB     		blt	.L116
 770              	.L86:
 771              	.LVL93:
 772              	.LBE40:
 773              	.LBE42:
 774              	.LBB43:
 775              	.LBB44:
 172:..\..\..\lvgl\version_6.1.2\lvgl\src\lv_objx/lv_spinbox.c ****     if(ext == NULL) return;
 776              		.loc 1 172 0
 777 00e4 2046     		mov	r0, r4
 778              	.LBE44:
 779              	.LBE43:
 102:..\..\..\lvgl\version_6.1.2\lvgl\src\lv_objx/lv_spinbox.c **** 
 780              		.loc 1 102 0
 781 00e6 ED6E     		ldr	r5, [r5, #108]
 782              	.LVL94:
 783              	.LBB46:
 784              	.LBB45:
 172:..\..\..\lvgl\version_6.1.2\lvgl\src\lv_objx/lv_spinbox.c ****     if(ext == NULL) return;
 785              		.loc 1 172 0
 786 00e8 FFF7FEFF 		bl	lv_obj_get_ext_attr
 787              	.LVL95:
 173:..\..\..\lvgl\version_6.1.2\lvgl\src\lv_objx/lv_spinbox.c **** 
 788              		.loc 1 173 0
 789 00ec 00B1     		cbz	r0, .L89
 175:..\..\..\lvgl\version_6.1.2\lvgl\src\lv_objx/lv_spinbox.c **** }
 790              		.loc 1 175 0
 791 00ee C566     		str	r5, [r0, #108]
 792              	.L89:
 793              	.LVL96:
 794              	.LBE45:
 795              	.LBE46:
 105:..\..\..\lvgl\version_6.1.2\lvgl\src\lv_objx/lv_spinbox.c ****     }
 796              		.loc 1 105 0
 797 00f0 2046     		mov	r0, r4
 798 00f2 FFF7FEFF 		bl	lv_obj_refresh_style
 799              	.LVL97:
 800              	.L83:
 801              	.LBE28:
 108:..\..\..\lvgl\version_6.1.2\lvgl\src\lv_objx/lv_spinbox.c **** 
 802              		.loc 1 108 0
 803 00f6 2046     		mov	r0, r4
 804 00f8 FFF7FEFF 		bl	lv_spinbox_updatevalue
 805              	.LVL98:
 112:..\..\..\lvgl\version_6.1.2\lvgl\src\lv_objx/lv_spinbox.c **** }
 806              		.loc 1 112 0
 807 00fc 2046     		mov	r0, r4
 808 00fe BDE8F883 		pop	{r3, r4, r5, r6, r7, r8, r9, pc}
 809              	.LVL99:
ARM GAS  C:\Users\pearlstl\AppData\Local\Temp\cc98wxIE.s 			page 26


 810              	.L114:
 811              	.LBB49:
 812              	.LBB47:
 813              	.LBB36:
 157:..\..\..\lvgl\version_6.1.2\lvgl\src\lv_objx/lv_spinbox.c ****     ext->dec_point_pos = separator_position;
 814              		.loc 1 157 0
 815 0102 90F87030 		ldrb	r3, [r0, #112]	@ zero_extendqisi2
 816 0106 67F30303 		bfi	r3, r7, #0, #4
 158:..\..\..\lvgl\version_6.1.2\lvgl\src\lv_objx/lv_spinbox.c **** 
 817              		.loc 1 158 0
 818 010a 66F30713 		bfi	r3, r6, #4, #4
 819 010e 80F87030 		strb	r3, [r0, #112]
 160:..\..\..\lvgl\version_6.1.2\lvgl\src\lv_objx/lv_spinbox.c **** }
 820              		.loc 1 160 0
 821 0112 2046     		mov	r0, r4
 822              	.LVL100:
 823 0114 FFF7FEFF 		bl	lv_spinbox_updatevalue
 824              	.LVL101:
 825 0118 D4E7     		b	.L90
 826              	.LVL102:
 827              	.L116:
 828              	.LBE36:
 829              	.LBE47:
 830              	.LBB48:
 831              	.LBB41:
 199:..\..\..\lvgl\version_6.1.2\lvgl\src\lv_objx/lv_spinbox.c ****         lv_obj_invalidate(spinbox);
 832              		.loc 1 199 0
 833 011a 3766     		str	r7, [r6, #96]
 200:..\..\..\lvgl\version_6.1.2\lvgl\src\lv_objx/lv_spinbox.c ****     }
 834              		.loc 1 200 0
 835 011c 2046     		mov	r0, r4
 836 011e FFF7FEFF 		bl	lv_obj_invalidate
 837              	.LVL103:
 838 0122 DFE7     		b	.L86
 839              	.LVL104:
 840              	.L115:
 195:..\..\..\lvgl\version_6.1.2\lvgl\src\lv_objx/lv_spinbox.c ****         lv_obj_invalidate(spinbox);
 841              		.loc 1 195 0
 842 0124 C0F86080 		str	r8, [r0, #96]
 196:..\..\..\lvgl\version_6.1.2\lvgl\src\lv_objx/lv_spinbox.c ****     }
 843              		.loc 1 196 0
 844 0128 2046     		mov	r0, r4
 845              	.LVL105:
 846 012a FFF7FEFF 		bl	lv_obj_invalidate
 847              	.LVL106:
 848 012e 336E     		ldr	r3, [r6, #96]
 849 0130 B76E     		ldr	r7, [r6, #104]
 850              	.LVL107:
 851 0132 D5E7     		b	.L87
 852              	.LVL108:
 853              	.L113:
 854              	.LBE41:
 855              	.LBE48:
 856              	.LBE49:
 857              	.LBB50:
  88:..\..\..\lvgl\version_6.1.2\lvgl\src\lv_objx/lv_spinbox.c ****         if(th) {
 858              		.loc 1 88 0
ARM GAS  C:\Users\pearlstl\AppData\Local\Temp\cc98wxIE.s 			page 27


 859 0134 FFF7FEFF 		bl	lv_theme_get_current
 860              	.LVL109:
  89:..\..\..\lvgl\version_6.1.2\lvgl\src\lv_objx/lv_spinbox.c ****             lv_spinbox_set_style(new_spinbox, LV_SPINBOX_STYLE_BG, th->style.spinbox.bg);
 861              		.loc 1 89 0
 862 0138 0546     		mov	r5, r0
 863              	.LVL110:
 864 013a 0028     		cmp	r0, #0
 865 013c DBD0     		beq	.L83
 866              	.LVL111:
 867              	.LBB51:
 868              	.LBB52:
 869              		.file 2 "..\\..\\..\\lvgl\\version_6.1.2\\lvgl\\src\\lv_objx\\lv_spinbox.h"
   1:..\..\..\lvgl\version_6.1.2\lvgl\src\lv_objx/lv_spinbox.h **** /**
   2:..\..\..\lvgl\version_6.1.2\lvgl\src\lv_objx/lv_spinbox.h ****  * @file lv_spinbox.h
   3:..\..\..\lvgl\version_6.1.2\lvgl\src\lv_objx/lv_spinbox.h ****  *
   4:..\..\..\lvgl\version_6.1.2\lvgl\src\lv_objx/lv_spinbox.h ****  */
   5:..\..\..\lvgl\version_6.1.2\lvgl\src\lv_objx/lv_spinbox.h **** 
   6:..\..\..\lvgl\version_6.1.2\lvgl\src\lv_objx/lv_spinbox.h **** #ifndef LV_SPINBOX_H
   7:..\..\..\lvgl\version_6.1.2\lvgl\src\lv_objx/lv_spinbox.h **** #define LV_SPINBOX_H
   8:..\..\..\lvgl\version_6.1.2\lvgl\src\lv_objx/lv_spinbox.h **** 
   9:..\..\..\lvgl\version_6.1.2\lvgl\src\lv_objx/lv_spinbox.h **** #ifdef __cplusplus
  10:..\..\..\lvgl\version_6.1.2\lvgl\src\lv_objx/lv_spinbox.h **** extern "C" {
  11:..\..\..\lvgl\version_6.1.2\lvgl\src\lv_objx/lv_spinbox.h **** #endif
  12:..\..\..\lvgl\version_6.1.2\lvgl\src\lv_objx/lv_spinbox.h **** 
  13:..\..\..\lvgl\version_6.1.2\lvgl\src\lv_objx/lv_spinbox.h **** /*********************
  14:..\..\..\lvgl\version_6.1.2\lvgl\src\lv_objx/lv_spinbox.h ****  *      INCLUDES
  15:..\..\..\lvgl\version_6.1.2\lvgl\src\lv_objx/lv_spinbox.h ****  *********************/
  16:..\..\..\lvgl\version_6.1.2\lvgl\src\lv_objx/lv_spinbox.h **** #ifdef LV_CONF_INCLUDE_SIMPLE
  17:..\..\..\lvgl\version_6.1.2\lvgl\src\lv_objx/lv_spinbox.h **** #include "lv_conf.h"
  18:..\..\..\lvgl\version_6.1.2\lvgl\src\lv_objx/lv_spinbox.h **** #else
  19:..\..\..\lvgl\version_6.1.2\lvgl\src\lv_objx/lv_spinbox.h **** #include "../../../lv_conf.h"
  20:..\..\..\lvgl\version_6.1.2\lvgl\src\lv_objx/lv_spinbox.h **** #endif
  21:..\..\..\lvgl\version_6.1.2\lvgl\src\lv_objx/lv_spinbox.h **** 
  22:..\..\..\lvgl\version_6.1.2\lvgl\src\lv_objx/lv_spinbox.h **** #if LV_USE_SPINBOX != 0
  23:..\..\..\lvgl\version_6.1.2\lvgl\src\lv_objx/lv_spinbox.h **** 
  24:..\..\..\lvgl\version_6.1.2\lvgl\src\lv_objx/lv_spinbox.h **** /*Testing of dependencies*/
  25:..\..\..\lvgl\version_6.1.2\lvgl\src\lv_objx/lv_spinbox.h **** #if LV_USE_TA == 0
  26:..\..\..\lvgl\version_6.1.2\lvgl\src\lv_objx/lv_spinbox.h **** #error "lv_spinbox: lv_ta is required. Enable it in lv_conf.h (LV_USE_TA  1) "
  27:..\..\..\lvgl\version_6.1.2\lvgl\src\lv_objx/lv_spinbox.h **** #endif
  28:..\..\..\lvgl\version_6.1.2\lvgl\src\lv_objx/lv_spinbox.h **** 
  29:..\..\..\lvgl\version_6.1.2\lvgl\src\lv_objx/lv_spinbox.h **** #include "../lv_core/lv_obj.h"
  30:..\..\..\lvgl\version_6.1.2\lvgl\src\lv_objx/lv_spinbox.h **** #include "../lv_objx/lv_ta.h"
  31:..\..\..\lvgl\version_6.1.2\lvgl\src\lv_objx/lv_spinbox.h **** 
  32:..\..\..\lvgl\version_6.1.2\lvgl\src\lv_objx/lv_spinbox.h **** /*********************
  33:..\..\..\lvgl\version_6.1.2\lvgl\src\lv_objx/lv_spinbox.h ****  *      DEFINES
  34:..\..\..\lvgl\version_6.1.2\lvgl\src\lv_objx/lv_spinbox.h ****  *********************/
  35:..\..\..\lvgl\version_6.1.2\lvgl\src\lv_objx/lv_spinbox.h **** #define LV_SPINBOX_MAX_DIGIT_COUNT 16
  36:..\..\..\lvgl\version_6.1.2\lvgl\src\lv_objx/lv_spinbox.h **** 
  37:..\..\..\lvgl\version_6.1.2\lvgl\src\lv_objx/lv_spinbox.h **** /**********************
  38:..\..\..\lvgl\version_6.1.2\lvgl\src\lv_objx/lv_spinbox.h ****  *      TYPEDEFS
  39:..\..\..\lvgl\version_6.1.2\lvgl\src\lv_objx/lv_spinbox.h ****  **********************/
  40:..\..\..\lvgl\version_6.1.2\lvgl\src\lv_objx/lv_spinbox.h **** 
  41:..\..\..\lvgl\version_6.1.2\lvgl\src\lv_objx/lv_spinbox.h **** /*Data of spinbox*/
  42:..\..\..\lvgl\version_6.1.2\lvgl\src\lv_objx/lv_spinbox.h **** typedef struct
  43:..\..\..\lvgl\version_6.1.2\lvgl\src\lv_objx/lv_spinbox.h **** {
  44:..\..\..\lvgl\version_6.1.2\lvgl\src\lv_objx/lv_spinbox.h ****     lv_ta_ext_t ta; /*Ext. of ancestor*/
  45:..\..\..\lvgl\version_6.1.2\lvgl\src\lv_objx/lv_spinbox.h ****     /*New data for this type */
ARM GAS  C:\Users\pearlstl\AppData\Local\Temp\cc98wxIE.s 			page 28


  46:..\..\..\lvgl\version_6.1.2\lvgl\src\lv_objx/lv_spinbox.h ****     int32_t value;
  47:..\..\..\lvgl\version_6.1.2\lvgl\src\lv_objx/lv_spinbox.h ****     int32_t range_max;
  48:..\..\..\lvgl\version_6.1.2\lvgl\src\lv_objx/lv_spinbox.h ****     int32_t range_min;
  49:..\..\..\lvgl\version_6.1.2\lvgl\src\lv_objx/lv_spinbox.h ****     int32_t step;
  50:..\..\..\lvgl\version_6.1.2\lvgl\src\lv_objx/lv_spinbox.h ****     uint16_t digit_count : 4;
  51:..\..\..\lvgl\version_6.1.2\lvgl\src\lv_objx/lv_spinbox.h ****     uint16_t dec_point_pos : 4; /*if 0, there is no separator and the number is an integer*/
  52:..\..\..\lvgl\version_6.1.2\lvgl\src\lv_objx/lv_spinbox.h ****     uint16_t digit_padding_left : 4;
  53:..\..\..\lvgl\version_6.1.2\lvgl\src\lv_objx/lv_spinbox.h **** } lv_spinbox_ext_t;
  54:..\..\..\lvgl\version_6.1.2\lvgl\src\lv_objx/lv_spinbox.h **** 
  55:..\..\..\lvgl\version_6.1.2\lvgl\src\lv_objx/lv_spinbox.h **** /*Styles*/
  56:..\..\..\lvgl\version_6.1.2\lvgl\src\lv_objx/lv_spinbox.h **** enum {
  57:..\..\..\lvgl\version_6.1.2\lvgl\src\lv_objx/lv_spinbox.h ****     LV_SPINBOX_STYLE_BG,
  58:..\..\..\lvgl\version_6.1.2\lvgl\src\lv_objx/lv_spinbox.h ****     LV_SPINBOX_STYLE_SB,
  59:..\..\..\lvgl\version_6.1.2\lvgl\src\lv_objx/lv_spinbox.h ****     LV_SPINBOX_STYLE_CURSOR,
  60:..\..\..\lvgl\version_6.1.2\lvgl\src\lv_objx/lv_spinbox.h **** };
  61:..\..\..\lvgl\version_6.1.2\lvgl\src\lv_objx/lv_spinbox.h **** typedef uint8_t lv_spinbox_style_t;
  62:..\..\..\lvgl\version_6.1.2\lvgl\src\lv_objx/lv_spinbox.h **** 
  63:..\..\..\lvgl\version_6.1.2\lvgl\src\lv_objx/lv_spinbox.h **** /**********************
  64:..\..\..\lvgl\version_6.1.2\lvgl\src\lv_objx/lv_spinbox.h ****  * GLOBAL PROTOTYPES
  65:..\..\..\lvgl\version_6.1.2\lvgl\src\lv_objx/lv_spinbox.h ****  **********************/
  66:..\..\..\lvgl\version_6.1.2\lvgl\src\lv_objx/lv_spinbox.h **** 
  67:..\..\..\lvgl\version_6.1.2\lvgl\src\lv_objx/lv_spinbox.h **** /**
  68:..\..\..\lvgl\version_6.1.2\lvgl\src\lv_objx/lv_spinbox.h ****  * Create a spinbox objects
  69:..\..\..\lvgl\version_6.1.2\lvgl\src\lv_objx/lv_spinbox.h ****  * @param par pointer to an object, it will be the parent of the new spinbox
  70:..\..\..\lvgl\version_6.1.2\lvgl\src\lv_objx/lv_spinbox.h ****  * @param copy pointer to a spinbox object, if not NULL then the new object will be copied from it
  71:..\..\..\lvgl\version_6.1.2\lvgl\src\lv_objx/lv_spinbox.h ****  * @return pointer to the created spinbox
  72:..\..\..\lvgl\version_6.1.2\lvgl\src\lv_objx/lv_spinbox.h ****  */
  73:..\..\..\lvgl\version_6.1.2\lvgl\src\lv_objx/lv_spinbox.h **** lv_obj_t * lv_spinbox_create(lv_obj_t * par, const lv_obj_t * copy);
  74:..\..\..\lvgl\version_6.1.2\lvgl\src\lv_objx/lv_spinbox.h **** 
  75:..\..\..\lvgl\version_6.1.2\lvgl\src\lv_objx/lv_spinbox.h **** /*=====================
  76:..\..\..\lvgl\version_6.1.2\lvgl\src\lv_objx/lv_spinbox.h ****  * Setter functions
  77:..\..\..\lvgl\version_6.1.2\lvgl\src\lv_objx/lv_spinbox.h ****  *====================*/
  78:..\..\..\lvgl\version_6.1.2\lvgl\src\lv_objx/lv_spinbox.h **** 
  79:..\..\..\lvgl\version_6.1.2\lvgl\src\lv_objx/lv_spinbox.h **** /**
  80:..\..\..\lvgl\version_6.1.2\lvgl\src\lv_objx/lv_spinbox.h ****  * Set a style of a spinbox.
  81:..\..\..\lvgl\version_6.1.2\lvgl\src\lv_objx/lv_spinbox.h ****  * @param templ pointer to template object
  82:..\..\..\lvgl\version_6.1.2\lvgl\src\lv_objx/lv_spinbox.h ****  * @param type which style should be set
  83:..\..\..\lvgl\version_6.1.2\lvgl\src\lv_objx/lv_spinbox.h ****  * @param style pointer to a style
  84:..\..\..\lvgl\version_6.1.2\lvgl\src\lv_objx/lv_spinbox.h ****  */
  85:..\..\..\lvgl\version_6.1.2\lvgl\src\lv_objx/lv_spinbox.h **** static inline void lv_spinbox_set_style(lv_obj_t * spinbox, lv_spinbox_style_t type, lv_style_t * s
  86:..\..\..\lvgl\version_6.1.2\lvgl\src\lv_objx/lv_spinbox.h **** {
  87:..\..\..\lvgl\version_6.1.2\lvgl\src\lv_objx/lv_spinbox.h ****     lv_ta_set_style(spinbox, type, style);
 870              		.loc 2 87 0
 871 013e 4946     		mov	r1, r9
 872 0140 D0F82021 		ldr	r2, [r0, #288]
 873 0144 2046     		mov	r0, r4
 874              	.LVL112:
 875 0146 FFF7FEFF 		bl	lv_ta_set_style
 876              	.LVL113:
 877              	.LBE52:
 878              	.LBE51:
 879              	.LBB53:
 880              	.LBB54:
 881 014a D5F82421 		ldr	r2, [r5, #292]
 882 014e 2046     		mov	r0, r4
 883 0150 0221     		movs	r1, #2
 884 0152 FFF7FEFF 		bl	lv_ta_set_style
ARM GAS  C:\Users\pearlstl\AppData\Local\Temp\cc98wxIE.s 			page 29


 885              	.LVL114:
 886              	.LBE54:
 887              	.LBE53:
 888              	.LBB55:
 889              	.LBB56:
 890 0156 D5F82821 		ldr	r2, [r5, #296]
 891 015a 4146     		mov	r1, r8
 892 015c 2046     		mov	r0, r4
 893 015e FFF7FEFF 		bl	lv_ta_set_style
 894              	.LVL115:
 895 0162 C8E7     		b	.L83
 896              	.LVL116:
 897              	.L79:
 898              	.LBE56:
 899              	.LBE55:
 900              	.LBE50:
  59:..\..\..\lvgl\version_6.1.2\lvgl\src\lv_objx/lv_spinbox.c **** 
 901              		.loc 1 59 0
 902 0164 0020     		movs	r0, #0
 903 0166 BDE8F883 		pop	{r3, r4, r5, r6, r7, r8, r9, pc}
 904              	.LVL117:
 905              	.L111:
  65:..\..\..\lvgl\version_6.1.2\lvgl\src\lv_objx/lv_spinbox.c ****     if(ancestor_design == NULL) ancestor_design = lv_obj_get_design_cb(new_spinbox);
 906              		.loc 1 65 0 discriminator 1
 907 016a 2046     		mov	r0, r4
 908              	.LVL118:
 909 016c FFF7FEFF 		bl	lv_obj_get_signal_cb
 910              	.LVL119:
 911 0170 3060     		str	r0, [r6]
 912 0172 5AE7     		b	.L80
 913              	.L112:
  66:..\..\..\lvgl\version_6.1.2\lvgl\src\lv_objx/lv_spinbox.c **** 
 914              		.loc 1 66 0 discriminator 1
 915 0174 2046     		mov	r0, r4
 916 0176 FFF7FEFF 		bl	lv_obj_get_design_cb
 917              	.LVL120:
 918 017a 7860     		str	r0, [r7, #4]
 919 017c 5AE7     		b	.L81
 920              	.L118:
 921 017e 00BF     		.align	2
 922              	.L117:
 923 0180 00000000 		.word	.LANCHOR0
 924 0184 9F860100 		.word	99999
 925 0188 6179FEFF 		.word	-99999
 926 018c 00000000 		.word	lv_spinbox_signal
 927              		.cfi_endproc
 928              	.LFE58:
 929              		.size	lv_spinbox_create, .-lv_spinbox_create
 930              		.section	.text.lv_spinbox_set_value,"ax",%progbits
 931              		.align	2
 932              		.global	lv_spinbox_set_value
 933              		.thumb
 934              		.thumb_func
 935              		.type	lv_spinbox_set_value, %function
 936              	lv_spinbox_set_value:
 937              	.LFB59:
 125:..\..\..\lvgl\version_6.1.2\lvgl\src\lv_objx/lv_spinbox.c ****     LV_ASSERT_OBJ(spinbox, LV_OBJX_NAME);
ARM GAS  C:\Users\pearlstl\AppData\Local\Temp\cc98wxIE.s 			page 30


 938              		.loc 1 125 0
 939              		.cfi_startproc
 940              		@ args = 0, pretend = 0, frame = 0
 941              		@ frame_needed = 0, uses_anonymous_args = 0
 942              	.LVL121:
 943 0000 38B5     		push	{r3, r4, r5, lr}
 944              		.cfi_def_cfa_offset 16
 945              		.cfi_offset 3, -16
 946              		.cfi_offset 4, -12
 947              		.cfi_offset 5, -8
 948              		.cfi_offset 14, -4
 125:..\..\..\lvgl\version_6.1.2\lvgl\src\lv_objx/lv_spinbox.c ****     LV_ASSERT_OBJ(spinbox, LV_OBJX_NAME);
 949              		.loc 1 125 0
 950 0002 0C46     		mov	r4, r1
 951 0004 0546     		mov	r5, r0
 128:..\..\..\lvgl\version_6.1.2\lvgl\src\lv_objx/lv_spinbox.c ****     if(ext == NULL) return;
 952              		.loc 1 128 0
 953 0006 FFF7FEFF 		bl	lv_obj_get_ext_attr
 954              	.LVL122:
 129:..\..\..\lvgl\version_6.1.2\lvgl\src\lv_objx/lv_spinbox.c **** 
 955              		.loc 1 129 0
 956 000a 70B1     		cbz	r0, .L119
 131:..\..\..\lvgl\version_6.1.2\lvgl\src\lv_objx/lv_spinbox.c ****     if(i < ext->range_min) i = ext->range_min;
 957              		.loc 1 131 0
 958 000c 416E     		ldr	r1, [r0, #100]
 132:..\..\..\lvgl\version_6.1.2\lvgl\src\lv_objx/lv_spinbox.c **** 
 959              		.loc 1 132 0
 960 000e 826E     		ldr	r2, [r0, #104]
 961 0010 8C42     		cmp	r4, r1
 962 0012 A8BF     		it	ge
 963 0014 0C46     		movge	r4, r1
 964              	.LVL123:
 965 0016 0346     		mov	r3, r0
 134:..\..\..\lvgl\version_6.1.2\lvgl\src\lv_objx/lv_spinbox.c **** 
 966              		.loc 1 134 0
 967 0018 9442     		cmp	r4, r2
 968 001a B8BF     		it	lt
 969 001c 1446     		movlt	r4, r2
 970              	.LVL124:
 136:..\..\..\lvgl\version_6.1.2\lvgl\src\lv_objx/lv_spinbox.c **** }
 971              		.loc 1 136 0
 972 001e 2846     		mov	r0, r5
 973              	.LVL125:
 134:..\..\..\lvgl\version_6.1.2\lvgl\src\lv_objx/lv_spinbox.c **** 
 974              		.loc 1 134 0
 975 0020 1C66     		str	r4, [r3, #96]
 137:..\..\..\lvgl\version_6.1.2\lvgl\src\lv_objx/lv_spinbox.c **** 
 976              		.loc 1 137 0
 977 0022 BDE83840 		pop	{r3, r4, r5, lr}
 978              		.cfi_remember_state
 979              		.cfi_restore 14
 980              		.cfi_restore 5
 981              		.cfi_restore 4
 982              		.cfi_restore 3
 983              		.cfi_def_cfa_offset 0
 984              	.LVL126:
 136:..\..\..\lvgl\version_6.1.2\lvgl\src\lv_objx/lv_spinbox.c **** }
ARM GAS  C:\Users\pearlstl\AppData\Local\Temp\cc98wxIE.s 			page 31


 985              		.loc 1 136 0
 986 0026 FFF7FEBF 		b	lv_spinbox_updatevalue
 987              	.LVL127:
 988              	.L119:
 989              		.cfi_restore_state
 990 002a 38BD     		pop	{r3, r4, r5, pc}
 991              		.cfi_endproc
 992              	.LFE59:
 993              		.size	lv_spinbox_set_value, .-lv_spinbox_set_value
 994              		.section	.text.lv_spinbox_set_digit_format,"ax",%progbits
 995              		.align	2
 996              		.global	lv_spinbox_set_digit_format
 997              		.thumb
 998              		.thumb_func
 999              		.type	lv_spinbox_set_digit_format, %function
 1000              	lv_spinbox_set_digit_format:
 1001              	.LFB60:
 147:..\..\..\lvgl\version_6.1.2\lvgl\src\lv_objx/lv_spinbox.c ****     LV_ASSERT_OBJ(spinbox, LV_OBJX_NAME);
 1002              		.loc 1 147 0
 1003              		.cfi_startproc
 1004              		@ args = 0, pretend = 0, frame = 0
 1005              		@ frame_needed = 0, uses_anonymous_args = 0
 1006              	.LVL128:
 1007 0000 F8B5     		push	{r3, r4, r5, r6, r7, lr}
 1008              		.cfi_def_cfa_offset 24
 1009              		.cfi_offset 3, -24
 1010              		.cfi_offset 4, -20
 1011              		.cfi_offset 5, -16
 1012              		.cfi_offset 6, -12
 1013              		.cfi_offset 7, -8
 1014              		.cfi_offset 14, -4
 147:..\..\..\lvgl\version_6.1.2\lvgl\src\lv_objx/lv_spinbox.c ****     LV_ASSERT_OBJ(spinbox, LV_OBJX_NAME);
 1015              		.loc 1 147 0
 1016 0002 0E46     		mov	r6, r1
 1017 0004 1546     		mov	r5, r2
 1018 0006 0746     		mov	r7, r0
 150:..\..\..\lvgl\version_6.1.2\lvgl\src\lv_objx/lv_spinbox.c ****     if(ext == NULL) return;
 1019              		.loc 1 150 0
 1020 0008 FFF7FEFF 		bl	lv_obj_get_ext_attr
 1021              	.LVL129:
 151:..\..\..\lvgl\version_6.1.2\lvgl\src\lv_objx/lv_spinbox.c **** 
 1022              		.loc 1 151 0
 1023 000c 98B1     		cbz	r0, .L122
 1024              	.LVL130:
 157:..\..\..\lvgl\version_6.1.2\lvgl\src\lv_objx/lv_spinbox.c ****     ext->dec_point_pos = separator_position;
 1025              		.loc 1 157 0
 1026 000e 90F87030 		ldrb	r3, [r0, #112]	@ zero_extendqisi2
 1027 0012 102E     		cmp	r6, #16
 1028 0014 28BF     		it	cs
 1029 0016 1026     		movcs	r6, #16
 1030              	.LVL131:
 158:..\..\..\lvgl\version_6.1.2\lvgl\src\lv_objx/lv_spinbox.c **** 
 1031              		.loc 1 158 0
 1032 0018 102D     		cmp	r5, #16
 1033 001a 0446     		mov	r4, r0
 157:..\..\..\lvgl\version_6.1.2\lvgl\src\lv_objx/lv_spinbox.c ****     ext->dec_point_pos = separator_position;
 1034              		.loc 1 157 0
ARM GAS  C:\Users\pearlstl\AppData\Local\Temp\cc98wxIE.s 			page 32


 1035 001c 66F30303 		bfi	r3, r6, #0, #4
 158:..\..\..\lvgl\version_6.1.2\lvgl\src\lv_objx/lv_spinbox.c **** 
 1036              		.loc 1 158 0
 1037 0020 28BF     		it	cs
 1038 0022 1025     		movcs	r5, #16
 1039              	.LVL132:
 1040 0024 65F30713 		bfi	r3, r5, #4, #4
 160:..\..\..\lvgl\version_6.1.2\lvgl\src\lv_objx/lv_spinbox.c **** }
 1041              		.loc 1 160 0
 1042 0028 3846     		mov	r0, r7
 1043              	.LVL133:
 158:..\..\..\lvgl\version_6.1.2\lvgl\src\lv_objx/lv_spinbox.c **** 
 1044              		.loc 1 158 0
 1045 002a 84F87030 		strb	r3, [r4, #112]
 161:..\..\..\lvgl\version_6.1.2\lvgl\src\lv_objx/lv_spinbox.c **** 
 1046              		.loc 1 161 0
 1047 002e BDE8F840 		pop	{r3, r4, r5, r6, r7, lr}
 1048              		.cfi_remember_state
 1049              		.cfi_restore 14
 1050              		.cfi_restore 7
 1051              		.cfi_restore 6
 1052              		.cfi_restore 5
 1053              		.cfi_restore 4
 1054              		.cfi_restore 3
 1055              		.cfi_def_cfa_offset 0
 1056              	.LVL134:
 160:..\..\..\lvgl\version_6.1.2\lvgl\src\lv_objx/lv_spinbox.c **** }
 1057              		.loc 1 160 0
 1058 0032 FFF7FEBF 		b	lv_spinbox_updatevalue
 1059              	.LVL135:
 1060              	.L122:
 1061              		.cfi_restore_state
 1062 0036 F8BD     		pop	{r3, r4, r5, r6, r7, pc}
 1063              		.cfi_endproc
 1064              	.LFE60:
 1065              		.size	lv_spinbox_set_digit_format, .-lv_spinbox_set_digit_format
 1066              		.section	.text.lv_spinbox_set_step,"ax",%progbits
 1067              		.align	2
 1068              		.global	lv_spinbox_set_step
 1069              		.thumb
 1070              		.thumb_func
 1071              		.type	lv_spinbox_set_step, %function
 1072              	lv_spinbox_set_step:
 1073              	.LFB61:
 169:..\..\..\lvgl\version_6.1.2\lvgl\src\lv_objx/lv_spinbox.c ****     LV_ASSERT_OBJ(spinbox, LV_OBJX_NAME);
 1074              		.loc 1 169 0
 1075              		.cfi_startproc
 1076              		@ args = 0, pretend = 0, frame = 0
 1077              		@ frame_needed = 0, uses_anonymous_args = 0
 1078              	.LVL136:
 1079 0000 10B5     		push	{r4, lr}
 1080              		.cfi_def_cfa_offset 8
 1081              		.cfi_offset 4, -8
 1082              		.cfi_offset 14, -4
 169:..\..\..\lvgl\version_6.1.2\lvgl\src\lv_objx/lv_spinbox.c ****     LV_ASSERT_OBJ(spinbox, LV_OBJX_NAME);
 1083              		.loc 1 169 0
 1084 0002 0C46     		mov	r4, r1
ARM GAS  C:\Users\pearlstl\AppData\Local\Temp\cc98wxIE.s 			page 33


 172:..\..\..\lvgl\version_6.1.2\lvgl\src\lv_objx/lv_spinbox.c ****     if(ext == NULL) return;
 1085              		.loc 1 172 0
 1086 0004 FFF7FEFF 		bl	lv_obj_get_ext_attr
 1087              	.LVL137:
 173:..\..\..\lvgl\version_6.1.2\lvgl\src\lv_objx/lv_spinbox.c **** 
 1088              		.loc 1 173 0
 1089 0008 00B1     		cbz	r0, .L125
 175:..\..\..\lvgl\version_6.1.2\lvgl\src\lv_objx/lv_spinbox.c **** }
 1090              		.loc 1 175 0
 1091 000a C466     		str	r4, [r0, #108]
 1092              	.L125:
 1093 000c 10BD     		pop	{r4, pc}
 1094              		.cfi_endproc
 1095              	.LFE61:
 1096              		.size	lv_spinbox_set_step, .-lv_spinbox_set_step
 1097 000e 00BF     		.section	.text.lv_spinbox_set_range,"ax",%progbits
 1098              		.align	2
 1099              		.global	lv_spinbox_set_range
 1100              		.thumb
 1101              		.thumb_func
 1102              		.type	lv_spinbox_set_range, %function
 1103              	lv_spinbox_set_range:
 1104              	.LFB62:
 185:..\..\..\lvgl\version_6.1.2\lvgl\src\lv_objx/lv_spinbox.c ****     LV_ASSERT_OBJ(spinbox, LV_OBJX_NAME);
 1105              		.loc 1 185 0
 1106              		.cfi_startproc
 1107              		@ args = 0, pretend = 0, frame = 0
 1108              		@ frame_needed = 0, uses_anonymous_args = 0
 1109              	.LVL138:
 1110 0000 F8B5     		push	{r3, r4, r5, r6, r7, lr}
 1111              		.cfi_def_cfa_offset 24
 1112              		.cfi_offset 3, -24
 1113              		.cfi_offset 4, -20
 1114              		.cfi_offset 5, -16
 1115              		.cfi_offset 6, -12
 1116              		.cfi_offset 7, -8
 1117              		.cfi_offset 14, -4
 185:..\..\..\lvgl\version_6.1.2\lvgl\src\lv_objx/lv_spinbox.c ****     LV_ASSERT_OBJ(spinbox, LV_OBJX_NAME);
 1118              		.loc 1 185 0
 1119 0002 0D46     		mov	r5, r1
 1120 0004 1646     		mov	r6, r2
 1121 0006 0746     		mov	r7, r0
 188:..\..\..\lvgl\version_6.1.2\lvgl\src\lv_objx/lv_spinbox.c ****     if(ext == NULL) return;
 1122              		.loc 1 188 0
 1123 0008 FFF7FEFF 		bl	lv_obj_get_ext_attr
 1124              	.LVL139:
 189:..\..\..\lvgl\version_6.1.2\lvgl\src\lv_objx/lv_spinbox.c **** 
 1125              		.loc 1 189 0
 1126 000c 38B1     		cbz	r0, .L131
 194:..\..\..\lvgl\version_6.1.2\lvgl\src\lv_objx/lv_spinbox.c ****         ext->value = ext->range_max;
 1127              		.loc 1 194 0
 1128 000e 036E     		ldr	r3, [r0, #96]
 191:..\..\..\lvgl\version_6.1.2\lvgl\src\lv_objx/lv_spinbox.c ****     ext->range_min = range_min;
 1129              		.loc 1 191 0
 1130 0010 4666     		str	r6, [r0, #100]
 194:..\..\..\lvgl\version_6.1.2\lvgl\src\lv_objx/lv_spinbox.c ****         ext->value = ext->range_max;
 1131              		.loc 1 194 0
ARM GAS  C:\Users\pearlstl\AppData\Local\Temp\cc98wxIE.s 			page 34


 1132 0012 9E42     		cmp	r6, r3
 1133 0014 0446     		mov	r4, r0
 192:..\..\..\lvgl\version_6.1.2\lvgl\src\lv_objx/lv_spinbox.c **** 
 1134              		.loc 1 192 0
 1135 0016 8566     		str	r5, [r0, #104]
 194:..\..\..\lvgl\version_6.1.2\lvgl\src\lv_objx/lv_spinbox.c ****         ext->value = ext->range_max;
 1136              		.loc 1 194 0
 1137 0018 08DB     		blt	.L138
 1138              	.LVL140:
 1139              	.L134:
 198:..\..\..\lvgl\version_6.1.2\lvgl\src\lv_objx/lv_spinbox.c ****         ext->value = ext->range_min;
 1140              		.loc 1 198 0
 1141 001a 9D42     		cmp	r5, r3
 1142 001c 00DC     		bgt	.L139
 1143              	.LVL141:
 1144              	.L131:
 1145 001e F8BD     		pop	{r3, r4, r5, r6, r7, pc}
 1146              	.LVL142:
 1147              	.L139:
 199:..\..\..\lvgl\version_6.1.2\lvgl\src\lv_objx/lv_spinbox.c ****         lv_obj_invalidate(spinbox);
 1148              		.loc 1 199 0
 1149 0020 2566     		str	r5, [r4, #96]
 200:..\..\..\lvgl\version_6.1.2\lvgl\src\lv_objx/lv_spinbox.c ****     }
 1150              		.loc 1 200 0
 1151 0022 3846     		mov	r0, r7
 202:..\..\..\lvgl\version_6.1.2\lvgl\src\lv_objx/lv_spinbox.c **** 
 1152              		.loc 1 202 0
 1153 0024 BDE8F840 		pop	{r3, r4, r5, r6, r7, lr}
 1154              		.cfi_remember_state
 1155              		.cfi_restore 14
 1156              		.cfi_restore 7
 1157              		.cfi_restore 6
 1158              		.cfi_restore 5
 1159              		.cfi_restore 4
 1160              		.cfi_restore 3
 1161              		.cfi_def_cfa_offset 0
 1162              	.LVL143:
 200:..\..\..\lvgl\version_6.1.2\lvgl\src\lv_objx/lv_spinbox.c ****     }
 1163              		.loc 1 200 0
 1164 0028 FFF7FEBF 		b	lv_obj_invalidate
 1165              	.LVL144:
 1166              	.L138:
 1167              		.cfi_restore_state
 195:..\..\..\lvgl\version_6.1.2\lvgl\src\lv_objx/lv_spinbox.c ****         lv_obj_invalidate(spinbox);
 1168              		.loc 1 195 0
 1169 002c 0666     		str	r6, [r0, #96]
 196:..\..\..\lvgl\version_6.1.2\lvgl\src\lv_objx/lv_spinbox.c ****     }
 1170              		.loc 1 196 0
 1171 002e 3846     		mov	r0, r7
 1172              	.LVL145:
 1173 0030 FFF7FEFF 		bl	lv_obj_invalidate
 1174              	.LVL146:
 1175 0034 236E     		ldr	r3, [r4, #96]
 1176 0036 A56E     		ldr	r5, [r4, #104]
 1177              	.LVL147:
 1178 0038 EFE7     		b	.L134
 1179              		.cfi_endproc
ARM GAS  C:\Users\pearlstl\AppData\Local\Temp\cc98wxIE.s 			page 35


 1180              	.LFE62:
 1181              		.size	lv_spinbox_set_range, .-lv_spinbox_set_range
 1182 003a 00BF     		.section	.text.lv_spinbox_set_padding_left,"ax",%progbits
 1183              		.align	2
 1184              		.global	lv_spinbox_set_padding_left
 1185              		.thumb
 1186              		.thumb_func
 1187              		.type	lv_spinbox_set_padding_left, %function
 1188              	lv_spinbox_set_padding_left:
 1189              	.LFB63:
 210:..\..\..\lvgl\version_6.1.2\lvgl\src\lv_objx/lv_spinbox.c ****     LV_ASSERT_OBJ(spinbox, LV_OBJX_NAME);
 1190              		.loc 1 210 0
 1191              		.cfi_startproc
 1192              		@ args = 0, pretend = 0, frame = 0
 1193              		@ frame_needed = 0, uses_anonymous_args = 0
 1194              	.LVL148:
 1195 0000 38B5     		push	{r3, r4, r5, lr}
 1196              		.cfi_def_cfa_offset 16
 1197              		.cfi_offset 3, -16
 1198              		.cfi_offset 4, -12
 1199              		.cfi_offset 5, -8
 1200              		.cfi_offset 14, -4
 210:..\..\..\lvgl\version_6.1.2\lvgl\src\lv_objx/lv_spinbox.c ****     LV_ASSERT_OBJ(spinbox, LV_OBJX_NAME);
 1201              		.loc 1 210 0
 1202 0002 0C46     		mov	r4, r1
 1203 0004 0546     		mov	r5, r0
 213:..\..\..\lvgl\version_6.1.2\lvgl\src\lv_objx/lv_spinbox.c ****     ext->digit_padding_left = padding;
 1204              		.loc 1 213 0
 1205 0006 FFF7FEFF 		bl	lv_obj_get_ext_attr
 1206              	.LVL149:
 1207 000a 0346     		mov	r3, r0
 1208              	.LVL150:
 215:..\..\..\lvgl\version_6.1.2\lvgl\src\lv_objx/lv_spinbox.c **** }
 1209              		.loc 1 215 0
 1210 000c 2846     		mov	r0, r5
 1211              	.LVL151:
 214:..\..\..\lvgl\version_6.1.2\lvgl\src\lv_objx/lv_spinbox.c ****     lv_spinbox_updatevalue(spinbox);
 1212              		.loc 1 214 0
 1213 000e 93F87120 		ldrb	r2, [r3, #113]	@ zero_extendqisi2
 1214 0012 64F30302 		bfi	r2, r4, #0, #4
 1215              	.LVL152:
 1216 0016 83F87120 		strb	r2, [r3, #113]
 216:..\..\..\lvgl\version_6.1.2\lvgl\src\lv_objx/lv_spinbox.c **** 
 1217              		.loc 1 216 0
 1218 001a BDE83840 		pop	{r3, r4, r5, lr}
 1219              		.cfi_restore 14
 1220              		.cfi_restore 5
 1221              		.cfi_restore 4
 1222              		.cfi_restore 3
 1223              		.cfi_def_cfa_offset 0
 1224              	.LVL153:
 215:..\..\..\lvgl\version_6.1.2\lvgl\src\lv_objx/lv_spinbox.c **** }
 1225              		.loc 1 215 0
 1226 001e FFF7FEBF 		b	lv_spinbox_updatevalue
 1227              	.LVL154:
 1228              		.cfi_endproc
 1229              	.LFE63:
ARM GAS  C:\Users\pearlstl\AppData\Local\Temp\cc98wxIE.s 			page 36


 1230              		.size	lv_spinbox_set_padding_left, .-lv_spinbox_set_padding_left
 1231              		.section	.text.lv_spinbox_get_value,"ax",%progbits
 1232              		.align	2
 1233              		.global	lv_spinbox_get_value
 1234              		.thumb
 1235              		.thumb_func
 1236              		.type	lv_spinbox_get_value, %function
 1237              	lv_spinbox_get_value:
 1238              	.LFB64:
 228:..\..\..\lvgl\version_6.1.2\lvgl\src\lv_objx/lv_spinbox.c ****     LV_ASSERT_OBJ(spinbox, LV_OBJX_NAME);
 1239              		.loc 1 228 0
 1240              		.cfi_startproc
 1241              		@ args = 0, pretend = 0, frame = 0
 1242              		@ frame_needed = 0, uses_anonymous_args = 0
 1243              	.LVL155:
 1244 0000 08B5     		push	{r3, lr}
 1245              		.cfi_def_cfa_offset 8
 1246              		.cfi_offset 3, -8
 1247              		.cfi_offset 14, -4
 231:..\..\..\lvgl\version_6.1.2\lvgl\src\lv_objx/lv_spinbox.c **** 
 1248              		.loc 1 231 0
 1249 0002 FFF7FEFF 		bl	lv_obj_get_ext_attr
 1250              	.LVL156:
 234:..\..\..\lvgl\version_6.1.2\lvgl\src\lv_objx/lv_spinbox.c **** 
 1251              		.loc 1 234 0
 1252 0006 006E     		ldr	r0, [r0, #96]
 1253              	.LVL157:
 1254 0008 08BD     		pop	{r3, pc}
 1255              		.cfi_endproc
 1256              	.LFE64:
 1257              		.size	lv_spinbox_get_value, .-lv_spinbox_get_value
 1258 000a 00BF     		.section	.text.lv_spinbox_step_next,"ax",%progbits
 1259              		.align	2
 1260              		.global	lv_spinbox_step_next
 1261              		.thumb
 1262              		.thumb_func
 1263              		.type	lv_spinbox_step_next, %function
 1264              	lv_spinbox_step_next:
 1265              	.LFB65:
 245:..\..\..\lvgl\version_6.1.2\lvgl\src\lv_objx/lv_spinbox.c ****     LV_ASSERT_OBJ(spinbox, LV_OBJX_NAME);
 1266              		.loc 1 245 0
 1267              		.cfi_startproc
 1268              		@ args = 0, pretend = 0, frame = 0
 1269              		@ frame_needed = 0, uses_anonymous_args = 0
 1270              	.LVL158:
 1271 0000 10B5     		push	{r4, lr}
 1272              		.cfi_def_cfa_offset 8
 1273              		.cfi_offset 4, -8
 1274              		.cfi_offset 14, -4
 245:..\..\..\lvgl\version_6.1.2\lvgl\src\lv_objx/lv_spinbox.c ****     LV_ASSERT_OBJ(spinbox, LV_OBJX_NAME);
 1275              		.loc 1 245 0
 1276 0002 0446     		mov	r4, r0
 248:..\..\..\lvgl\version_6.1.2\lvgl\src\lv_objx/lv_spinbox.c **** 
 1277              		.loc 1 248 0
 1278 0004 FFF7FEFF 		bl	lv_obj_get_ext_attr
 1279              	.LVL159:
 250:..\..\..\lvgl\version_6.1.2\lvgl\src\lv_objx/lv_spinbox.c ****     if((new_step) > 0)
ARM GAS  C:\Users\pearlstl\AppData\Local\Temp\cc98wxIE.s 			page 37


 1280              		.loc 1 250 0
 1281 0008 084A     		ldr	r2, .L148
 1282 000a C36E     		ldr	r3, [r0, #108]
 248:..\..\..\lvgl\version_6.1.2\lvgl\src\lv_objx/lv_spinbox.c **** 
 1283              		.loc 1 248 0
 1284 000c 0146     		mov	r1, r0
 1285              	.LVL160:
 250:..\..\..\lvgl\version_6.1.2\lvgl\src\lv_objx/lv_spinbox.c ****     if((new_step) > 0)
 1286              		.loc 1 250 0
 1287 000e 82FB0302 		smull	r0, r2, r2, r3
 1288              	.LVL161:
 1289 0012 DB17     		asrs	r3, r3, #31
 1290 0014 C3EBA203 		rsb	r3, r3, r2, asr #2
 1291              	.LVL162:
 251:..\..\..\lvgl\version_6.1.2\lvgl\src\lv_objx/lv_spinbox.c ****         ext->step = new_step;
 1292              		.loc 1 251 0
 1293 0018 012B     		cmp	r3, #1
 1294 001a B8BF     		it	lt
 1295 001c 0123     		movlt	r3, #1
 1296              	.LVL163:
 256:..\..\..\lvgl\version_6.1.2\lvgl\src\lv_objx/lv_spinbox.c **** }
 1297              		.loc 1 256 0
 1298 001e 2046     		mov	r0, r4
 1299 0020 CB66     		str	r3, [r1, #108]
 1300              	.LVL164:
 257:..\..\..\lvgl\version_6.1.2\lvgl\src\lv_objx/lv_spinbox.c **** 
 1301              		.loc 1 257 0
 1302 0022 BDE81040 		pop	{r4, lr}
 1303              		.cfi_restore 14
 1304              		.cfi_restore 4
 1305              		.cfi_def_cfa_offset 0
 1306              	.LVL165:
 256:..\..\..\lvgl\version_6.1.2\lvgl\src\lv_objx/lv_spinbox.c **** }
 1307              		.loc 1 256 0
 1308 0026 FFF7FEBF 		b	lv_spinbox_updatevalue
 1309              	.LVL166:
 1310              	.L149:
 1311 002a 00BF     		.align	2
 1312              	.L148:
 1313 002c 67666666 		.word	1717986919
 1314              		.cfi_endproc
 1315              	.LFE65:
 1316              		.size	lv_spinbox_step_next, .-lv_spinbox_step_next
 1317              		.section	.text.lv_spinbox_step_prev,"ax",%progbits
 1318              		.align	2
 1319              		.global	lv_spinbox_step_prev
 1320              		.thumb
 1321              		.thumb_func
 1322              		.type	lv_spinbox_step_prev, %function
 1323              	lv_spinbox_step_prev:
 1324              	.LFB66:
 264:..\..\..\lvgl\version_6.1.2\lvgl\src\lv_objx/lv_spinbox.c ****     LV_ASSERT_OBJ(spinbox, LV_OBJX_NAME);
 1325              		.loc 1 264 0
 1326              		.cfi_startproc
 1327              		@ args = 0, pretend = 0, frame = 0
 1328              		@ frame_needed = 0, uses_anonymous_args = 0
 1329              	.LVL167:
ARM GAS  C:\Users\pearlstl\AppData\Local\Temp\cc98wxIE.s 			page 38


 1330 0000 10B5     		push	{r4, lr}
 1331              		.cfi_def_cfa_offset 8
 1332              		.cfi_offset 4, -8
 1333              		.cfi_offset 14, -4
 264:..\..\..\lvgl\version_6.1.2\lvgl\src\lv_objx/lv_spinbox.c ****     LV_ASSERT_OBJ(spinbox, LV_OBJX_NAME);
 1334              		.loc 1 264 0
 1335 0002 0446     		mov	r4, r0
 267:..\..\..\lvgl\version_6.1.2\lvgl\src\lv_objx/lv_spinbox.c ****     int32_t step_limit;
 1336              		.loc 1 267 0
 1337 0004 FFF7FEFF 		bl	lv_obj_get_ext_attr
 1338              	.LVL168:
 271:..\..\..\lvgl\version_6.1.2\lvgl\src\lv_objx/lv_spinbox.c **** 
 1339              		.loc 1 271 0
 1340 0008 816E     		ldr	r1, [r0, #104]
 1341 000a 426E     		ldr	r2, [r0, #100]
 270:..\..\..\lvgl\version_6.1.2\lvgl\src\lv_objx/lv_spinbox.c ****     if(new_step <= step_limit) ext->step = new_step;
 1342              		.loc 1 270 0
 1343 000c C36E     		ldr	r3, [r0, #108]
 271:..\..\..\lvgl\version_6.1.2\lvgl\src\lv_objx/lv_spinbox.c **** 
 1344              		.loc 1 271 0
 1345 000e 0029     		cmp	r1, #0
 1346 0010 B8BF     		it	lt
 1347 0012 4942     		rsblt	r1, r1, #0
 1348 0014 8A42     		cmp	r2, r1
 270:..\..\..\lvgl\version_6.1.2\lvgl\src\lv_objx/lv_spinbox.c ****     if(new_step <= step_limit) ext->step = new_step;
 1349              		.loc 1 270 0
 1350 0016 03EB8303 		add	r3, r3, r3, lsl #2
 1351 001a 4FEA4303 		lsl	r3, r3, #1
 1352              	.LVL169:
 271:..\..\..\lvgl\version_6.1.2\lvgl\src\lv_objx/lv_spinbox.c **** 
 1353              		.loc 1 271 0
 1354 001e B8BF     		it	lt
 1355 0020 0A46     		movlt	r2, r1
 1356 0022 9A42     		cmp	r2, r3
 1357 0024 A8BF     		it	ge
 1358 0026 C366     		strge	r3, [r0, #108]
 273:..\..\..\lvgl\version_6.1.2\lvgl\src\lv_objx/lv_spinbox.c **** }
 1359              		.loc 1 273 0
 1360 0028 2046     		mov	r0, r4
 1361              	.LVL170:
 274:..\..\..\lvgl\version_6.1.2\lvgl\src\lv_objx/lv_spinbox.c **** 
 1362              		.loc 1 274 0
 1363 002a BDE81040 		pop	{r4, lr}
 1364              		.cfi_restore 14
 1365              		.cfi_restore 4
 1366              		.cfi_def_cfa_offset 0
 1367              	.LVL171:
 273:..\..\..\lvgl\version_6.1.2\lvgl\src\lv_objx/lv_spinbox.c **** }
 1368              		.loc 1 273 0
 1369 002e FFF7FEBF 		b	lv_spinbox_updatevalue
 1370              	.LVL172:
 1371              		.cfi_endproc
 1372              	.LFE66:
 1373              		.size	lv_spinbox_step_prev, .-lv_spinbox_step_prev
 1374 0032 00BF     		.section	.text.lv_spinbox_increment,"ax",%progbits
 1375              		.align	2
 1376              		.global	lv_spinbox_increment
ARM GAS  C:\Users\pearlstl\AppData\Local\Temp\cc98wxIE.s 			page 39


 1377              		.thumb
 1378              		.thumb_func
 1379              		.type	lv_spinbox_increment, %function
 1380              	lv_spinbox_increment:
 1381              	.LFB67:
 281:..\..\..\lvgl\version_6.1.2\lvgl\src\lv_objx/lv_spinbox.c ****     LV_ASSERT_OBJ(spinbox, LV_OBJX_NAME);
 1382              		.loc 1 281 0
 1383              		.cfi_startproc
 1384              		@ args = 0, pretend = 0, frame = 0
 1385              		@ frame_needed = 0, uses_anonymous_args = 0
 1386              	.LVL173:
 1387 0000 38B5     		push	{r3, r4, r5, lr}
 1388              		.cfi_def_cfa_offset 16
 1389              		.cfi_offset 3, -16
 1390              		.cfi_offset 4, -12
 1391              		.cfi_offset 5, -8
 1392              		.cfi_offset 14, -4
 281:..\..\..\lvgl\version_6.1.2\lvgl\src\lv_objx/lv_spinbox.c ****     LV_ASSERT_OBJ(spinbox, LV_OBJX_NAME);
 1393              		.loc 1 281 0
 1394 0002 0546     		mov	r5, r0
 284:..\..\..\lvgl\version_6.1.2\lvgl\src\lv_objx/lv_spinbox.c **** 
 1395              		.loc 1 284 0
 1396 0004 FFF7FEFF 		bl	lv_obj_get_ext_attr
 1397              	.LVL174:
 286:..\..\..\lvgl\version_6.1.2\lvgl\src\lv_objx/lv_spinbox.c ****         /*Special mode when zero crossing*/
 1398              		.loc 1 286 0
 1399 0008 026E     		ldr	r2, [r0, #96]
 1400 000a C46E     		ldr	r4, [r0, #108]
 1401 000c 416E     		ldr	r1, [r0, #100]
 1402 000e 1319     		adds	r3, r2, r4
 1403 0010 8B42     		cmp	r3, r1
 1404 0012 0ADC     		bgt	.L154
 288:..\..\..\lvgl\version_6.1.2\lvgl\src\lv_objx/lv_spinbox.c ****         ext->value += ext->step;
 1405              		.loc 1 288 0
 1406 0014 002B     		cmp	r3, #0
 1407 0016 02DD     		ble	.L155
 288:..\..\..\lvgl\version_6.1.2\lvgl\src\lv_objx/lv_spinbox.c ****         ext->value += ext->step;
 1408              		.loc 1 288 0 is_stmt 0 discriminator 1
 1409 0018 002A     		cmp	r2, #0
 1410 001a B8BF     		it	lt
 1411 001c A31A     		sublt	r3, r4, r2
 1412              	.L155:
 289:..\..\..\lvgl\version_6.1.2\lvgl\src\lv_objx/lv_spinbox.c **** 
 1413              		.loc 1 289 0 is_stmt 1
 1414 001e 0366     		str	r3, [r0, #96]
 295:..\..\..\lvgl\version_6.1.2\lvgl\src\lv_objx/lv_spinbox.c **** }
 1415              		.loc 1 295 0
 1416 0020 2846     		mov	r0, r5
 1417              	.LVL175:
 296:..\..\..\lvgl\version_6.1.2\lvgl\src\lv_objx/lv_spinbox.c **** 
 1418              		.loc 1 296 0
 1419 0022 BDE83840 		pop	{r3, r4, r5, lr}
 1420              		.cfi_remember_state
 1421              		.cfi_restore 14
 1422              		.cfi_restore 5
 1423              		.cfi_restore 4
 1424              		.cfi_restore 3
ARM GAS  C:\Users\pearlstl\AppData\Local\Temp\cc98wxIE.s 			page 40


 1425              		.cfi_def_cfa_offset 0
 1426              	.LVL176:
 295:..\..\..\lvgl\version_6.1.2\lvgl\src\lv_objx/lv_spinbox.c **** }
 1427              		.loc 1 295 0
 1428 0026 FFF7FEBF 		b	lv_spinbox_updatevalue
 1429              	.LVL177:
 1430              	.L154:
 1431              		.cfi_restore_state
 292:..\..\..\lvgl\version_6.1.2\lvgl\src\lv_objx/lv_spinbox.c ****     }
 1432              		.loc 1 292 0
 1433 002a 0166     		str	r1, [r0, #96]
 295:..\..\..\lvgl\version_6.1.2\lvgl\src\lv_objx/lv_spinbox.c **** }
 1434              		.loc 1 295 0
 1435 002c 2846     		mov	r0, r5
 1436              	.LVL178:
 296:..\..\..\lvgl\version_6.1.2\lvgl\src\lv_objx/lv_spinbox.c **** 
 1437              		.loc 1 296 0
 1438 002e BDE83840 		pop	{r3, r4, r5, lr}
 1439              		.cfi_restore 3
 1440              		.cfi_restore 4
 1441              		.cfi_restore 5
 1442              		.cfi_restore 14
 1443              		.cfi_def_cfa_offset 0
 1444              	.LVL179:
 295:..\..\..\lvgl\version_6.1.2\lvgl\src\lv_objx/lv_spinbox.c **** }
 1445              		.loc 1 295 0
 1446 0032 FFF7FEBF 		b	lv_spinbox_updatevalue
 1447              	.LVL180:
 1448              		.cfi_endproc
 1449              	.LFE67:
 1450              		.size	lv_spinbox_increment, .-lv_spinbox_increment
 1451 0036 00BF     		.section	.text.lv_spinbox_signal,"ax",%progbits
 1452              		.align	2
 1453              		.thumb
 1454              		.thumb_func
 1455              		.type	lv_spinbox_signal, %function
 1456              	lv_spinbox_signal:
 1457              	.LFB69:
 331:..\..\..\lvgl\version_6.1.2\lvgl\src\lv_objx/lv_spinbox.c **** 
 1458              		.loc 1 331 0
 1459              		.cfi_startproc
 1460              		@ args = 0, pretend = 0, frame = 0
 1461              		@ frame_needed = 0, uses_anonymous_args = 0
 1462              	.LVL181:
 336:..\..\..\lvgl\version_6.1.2\lvgl\src\lv_objx/lv_spinbox.c ****         res = ancestor_signal(spinbox, sign, param);
 1463              		.loc 1 336 0
 1464 0000 1229     		cmp	r1, #18
 331:..\..\..\lvgl\version_6.1.2\lvgl\src\lv_objx/lv_spinbox.c **** 
 1465              		.loc 1 331 0
 1466 0002 F8B5     		push	{r3, r4, r5, r6, r7, lr}
 1467              		.cfi_def_cfa_offset 24
 1468              		.cfi_offset 3, -24
 1469              		.cfi_offset 4, -20
 1470              		.cfi_offset 5, -16
 1471              		.cfi_offset 6, -12
 1472              		.cfi_offset 7, -8
 1473              		.cfi_offset 14, -4
ARM GAS  C:\Users\pearlstl\AppData\Local\Temp\cc98wxIE.s 			page 41


 331:..\..\..\lvgl\version_6.1.2\lvgl\src\lv_objx/lv_spinbox.c **** 
 1474              		.loc 1 331 0
 1475 0004 0746     		mov	r7, r0
 1476 0006 1646     		mov	r6, r2
 336:..\..\..\lvgl\version_6.1.2\lvgl\src\lv_objx/lv_spinbox.c ****         res = ancestor_signal(spinbox, sign, param);
 1477              		.loc 1 336 0
 1478 0008 08D0     		beq	.L159
 337:..\..\..\lvgl\version_6.1.2\lvgl\src\lv_objx/lv_spinbox.c ****         if(res != LV_RES_OK) return res;
 1479              		.loc 1 337 0
 1480 000a 484B     		ldr	r3, .L191
 1481 000c 1B68     		ldr	r3, [r3]
 1482 000e 0D46     		mov	r5, r1
 1483 0010 9847     		blx	r3
 1484              	.LVL182:
 338:..\..\..\lvgl\version_6.1.2\lvgl\src\lv_objx/lv_spinbox.c ****     }
 1485              		.loc 1 338 0
 1486 0012 0128     		cmp	r0, #1
 337:..\..\..\lvgl\version_6.1.2\lvgl\src\lv_objx/lv_spinbox.c ****         if(res != LV_RES_OK) return res;
 1487              		.loc 1 337 0
 1488 0014 0446     		mov	r4, r0
 1489              	.LVL183:
 338:..\..\..\lvgl\version_6.1.2\lvgl\src\lv_objx/lv_spinbox.c ****     }
 1490              		.loc 1 338 0
 1491 0016 15D0     		beq	.L184
 1492              	.LVL184:
 1493              	.L182:
 398:..\..\..\lvgl\version_6.1.2\lvgl\src\lv_objx/lv_spinbox.c **** }
 1494              		.loc 1 398 0
 1495 0018 2046     		mov	r0, r4
 399:..\..\..\lvgl\version_6.1.2\lvgl\src\lv_objx/lv_spinbox.c **** 
 1496              		.loc 1 399 0
 1497 001a F8BD     		pop	{r3, r4, r5, r6, r7, pc}
 1498              	.LVL185:
 1499              	.L159:
 343:..\..\..\lvgl\version_6.1.2\lvgl\src\lv_objx/lv_spinbox.c ****     if(sign == LV_SIGNAL_CLEANUP) {
 1500              		.loc 1 343 0
 1501 001c FFF7FEFF 		bl	lv_obj_get_ext_attr
 1502              	.LVL186:
 1503              	.LBB69:
 376:..\..\..\lvgl\version_6.1.2\lvgl\src\lv_objx/lv_spinbox.c **** 
 1504              		.loc 1 376 0
 1505 0020 FFF7FEFF 		bl	lv_indev_get_act
 1506              	.LVL187:
 1507 0024 FFF7FEFF 		bl	lv_indev_get_type
 1508              	.LVL188:
 378:..\..\..\lvgl\version_6.1.2\lvgl\src\lv_objx/lv_spinbox.c ****         if(c == LV_KEY_RIGHT) {
 1509              		.loc 1 378 0
 1510 0028 3168     		ldr	r1, [r6]
 1511              	.LVL189:
 379:..\..\..\lvgl\version_6.1.2\lvgl\src\lv_objx/lv_spinbox.c ****             if(indev_type == LV_INDEV_TYPE_ENCODER)
 1512              		.loc 1 379 0
 1513 002a 1329     		cmp	r1, #19
 1514 002c 30D0     		beq	.L185
 384:..\..\..\lvgl\version_6.1.2\lvgl\src\lv_objx/lv_spinbox.c ****             if(indev_type == LV_INDEV_TYPE_ENCODER)
 1515              		.loc 1 384 0
 1516 002e 1429     		cmp	r1, #20
 1517 0030 14D0     		beq	.L186
ARM GAS  C:\Users\pearlstl\AppData\Local\Temp\cc98wxIE.s 			page 42


 389:..\..\..\lvgl\version_6.1.2\lvgl\src\lv_objx/lv_spinbox.c ****             lv_spinbox_increment(spinbox);
 1518              		.loc 1 389 0
 1519 0032 1129     		cmp	r1, #17
 390:..\..\..\lvgl\version_6.1.2\lvgl\src\lv_objx/lv_spinbox.c ****         } else if(c == LV_KEY_DOWN) {
 1520              		.loc 1 390 0
 1521 0034 3846     		mov	r0, r7
 1522              	.LVL190:
 389:..\..\..\lvgl\version_6.1.2\lvgl\src\lv_objx/lv_spinbox.c ****             lv_spinbox_increment(spinbox);
 1523              		.loc 1 389 0
 1524 0036 75D0     		beq	.L187
 1525              	.LVL191:
 391:..\..\..\lvgl\version_6.1.2\lvgl\src\lv_objx/lv_spinbox.c ****             lv_spinbox_decrement(spinbox);
 1526              		.loc 1 391 0
 1527 0038 1229     		cmp	r1, #18
 1528 003a 3FD0     		beq	.L188
 394:..\..\..\lvgl\version_6.1.2\lvgl\src\lv_objx/lv_spinbox.c ****         }
 1529              		.loc 1 394 0
 1530 003c FFF7FEFF 		bl	lv_ta_add_char
 1531              	.LVL192:
 1532              	.LBE69:
 398:..\..\..\lvgl\version_6.1.2\lvgl\src\lv_objx/lv_spinbox.c **** }
 1533              		.loc 1 398 0
 1534 0040 0120     		movs	r0, #1
 1535 0042 F8BD     		pop	{r3, r4, r5, r6, r7, pc}
 1536              	.LVL193:
 1537              	.L184:
 340:..\..\..\lvgl\version_6.1.2\lvgl\src\lv_objx/lv_spinbox.c **** 
 1538              		.loc 1 340 0
 1539 0044 072D     		cmp	r5, #7
 1540 0046 05D1     		bne	.L161
 340:..\..\..\lvgl\version_6.1.2\lvgl\src\lv_objx/lv_spinbox.c **** 
 1541              		.loc 1 340 0 is_stmt 0 discriminator 1
 1542 0048 3046     		mov	r0, r6
 1543 004a 3949     		ldr	r1, .L191+4
 399:..\..\..\lvgl\version_6.1.2\lvgl\src\lv_objx/lv_spinbox.c **** 
 1544              		.loc 1 399 0 is_stmt 1 discriminator 1
 1545 004c BDE8F840 		pop	{r3, r4, r5, r6, r7, lr}
 1546              		.cfi_remember_state
 1547              		.cfi_restore 14
 1548              		.cfi_restore 7
 1549              		.cfi_restore 6
 1550              		.cfi_restore 5
 1551              		.cfi_restore 4
 1552              		.cfi_restore 3
 1553              		.cfi_def_cfa_offset 0
 1554              	.LVL194:
 340:..\..\..\lvgl\version_6.1.2\lvgl\src\lv_objx/lv_spinbox.c **** 
 1555              		.loc 1 340 0 discriminator 1
 1556 0050 FFF7FEBF 		b	lv_obj_handle_get_type_signal
 1557              	.LVL195:
 1558              	.L161:
 1559              		.cfi_restore_state
 343:..\..\..\lvgl\version_6.1.2\lvgl\src\lv_objx/lv_spinbox.c ****     if(sign == LV_SIGNAL_CLEANUP) {
 1560              		.loc 1 343 0
 1561 0054 3846     		mov	r0, r7
 1562 0056 FFF7FEFF 		bl	lv_obj_get_ext_attr
 1563              	.LVL196:
ARM GAS  C:\Users\pearlstl\AppData\Local\Temp\cc98wxIE.s 			page 43


 1564 005a DDE7     		b	.L182
 1565              	.LVL197:
 1566              	.L186:
 1567              	.LBB86:
 385:..\..\..\lvgl\version_6.1.2\lvgl\src\lv_objx/lv_spinbox.c ****                 lv_spinbox_decrement(spinbox);
 1568              		.loc 1 385 0
 1569 005c 0428     		cmp	r0, #4
 1570              	.LBB70:
 1571              	.LBB71:
 306:..\..\..\lvgl\version_6.1.2\lvgl\src\lv_objx/lv_spinbox.c **** 
 1572              		.loc 1 306 0
 1573 005e 3846     		mov	r0, r7
 1574              	.LVL198:
 1575              	.LBE71:
 1576              	.LBE70:
 385:..\..\..\lvgl\version_6.1.2\lvgl\src\lv_objx/lv_spinbox.c ****                 lv_spinbox_decrement(spinbox);
 1577              		.loc 1 385 0
 1578 0060 4FD0     		beq	.L189
 1579              	.LVL199:
 1580              	.LBB73:
 1581              	.LBB74:
 267:..\..\..\lvgl\version_6.1.2\lvgl\src\lv_objx/lv_spinbox.c ****     int32_t step_limit;
 1582              		.loc 1 267 0
 1583 0062 FFF7FEFF 		bl	lv_obj_get_ext_attr
 1584              	.LVL200:
 271:..\..\..\lvgl\version_6.1.2\lvgl\src\lv_objx/lv_spinbox.c **** 
 1585              		.loc 1 271 0
 1586 0066 816E     		ldr	r1, [r0, #104]
 1587 0068 426E     		ldr	r2, [r0, #100]
 270:..\..\..\lvgl\version_6.1.2\lvgl\src\lv_objx/lv_spinbox.c ****     if(new_step <= step_limit) ext->step = new_step;
 1588              		.loc 1 270 0
 1589 006a C36E     		ldr	r3, [r0, #108]
 271:..\..\..\lvgl\version_6.1.2\lvgl\src\lv_objx/lv_spinbox.c **** 
 1590              		.loc 1 271 0
 1591 006c 0029     		cmp	r1, #0
 1592 006e B8BF     		it	lt
 1593 0070 4942     		rsblt	r1, r1, #0
 1594 0072 8A42     		cmp	r2, r1
 270:..\..\..\lvgl\version_6.1.2\lvgl\src\lv_objx/lv_spinbox.c ****     if(new_step <= step_limit) ext->step = new_step;
 1595              		.loc 1 270 0
 1596 0074 03EB8303 		add	r3, r3, r3, lsl #2
 1597 0078 4FEA4303 		lsl	r3, r3, #1
 1598              	.LVL201:
 271:..\..\..\lvgl\version_6.1.2\lvgl\src\lv_objx/lv_spinbox.c **** 
 1599              		.loc 1 271 0
 1600 007c B8BF     		it	lt
 1601 007e 0A46     		movlt	r2, r1
 1602 0080 9A42     		cmp	r2, r3
 1603 0082 00DB     		blt	.L165
 1604 0084 C366     		str	r3, [r0, #108]
 1605              	.LVL202:
 1606              	.L165:
 1607              	.LBE74:
 1608              	.LBE73:
 1609              	.LBB75:
 1610              	.LBB76:
 295:..\..\..\lvgl\version_6.1.2\lvgl\src\lv_objx/lv_spinbox.c **** }
ARM GAS  C:\Users\pearlstl\AppData\Local\Temp\cc98wxIE.s 			page 44


 1611              		.loc 1 295 0
 1612 0086 3846     		mov	r0, r7
 1613 0088 FFF7FEFF 		bl	lv_spinbox_updatevalue
 1614              	.LVL203:
 1615              	.LBE76:
 1616              	.LBE75:
 1617              	.LBE86:
 398:..\..\..\lvgl\version_6.1.2\lvgl\src\lv_objx/lv_spinbox.c **** }
 1618              		.loc 1 398 0
 1619 008c 0120     		movs	r0, #1
 1620 008e F8BD     		pop	{r3, r4, r5, r6, r7, pc}
 1621              	.LVL204:
 1622              	.L185:
 1623              	.LBB87:
 380:..\..\..\lvgl\version_6.1.2\lvgl\src\lv_objx/lv_spinbox.c ****                 lv_spinbox_increment(spinbox);
 1624              		.loc 1 380 0
 1625 0090 0428     		cmp	r0, #4
 1626              	.LBB79:
 1627              	.LBB77:
 284:..\..\..\lvgl\version_6.1.2\lvgl\src\lv_objx/lv_spinbox.c **** 
 1628              		.loc 1 284 0
 1629 0092 3846     		mov	r0, r7
 1630              	.LVL205:
 1631              	.LBE77:
 1632              	.LBE79:
 380:..\..\..\lvgl\version_6.1.2\lvgl\src\lv_objx/lv_spinbox.c ****                 lv_spinbox_increment(spinbox);
 1633              		.loc 1 380 0
 1634 0094 24D0     		beq	.L190
 1635              	.LVL206:
 1636              	.LBB80:
 1637              	.LBB81:
 248:..\..\..\lvgl\version_6.1.2\lvgl\src\lv_objx/lv_spinbox.c **** 
 1638              		.loc 1 248 0
 1639 0096 FFF7FEFF 		bl	lv_obj_get_ext_attr
 1640              	.LVL207:
 250:..\..\..\lvgl\version_6.1.2\lvgl\src\lv_objx/lv_spinbox.c ****     if((new_step) > 0)
 1641              		.loc 1 250 0
 1642 009a 264A     		ldr	r2, .L191+8
 1643 009c C36E     		ldr	r3, [r0, #108]
 248:..\..\..\lvgl\version_6.1.2\lvgl\src\lv_objx/lv_spinbox.c **** 
 1644              		.loc 1 248 0
 1645 009e 0146     		mov	r1, r0
 1646              	.LVL208:
 250:..\..\..\lvgl\version_6.1.2\lvgl\src\lv_objx/lv_spinbox.c ****     if((new_step) > 0)
 1647              		.loc 1 250 0
 1648 00a0 82FB0302 		smull	r0, r2, r2, r3
 1649              	.LVL209:
 1650 00a4 DB17     		asrs	r3, r3, #31
 1651 00a6 C3EBA203 		rsb	r3, r3, r2, asr #2
 1652              	.LVL210:
 254:..\..\..\lvgl\version_6.1.2\lvgl\src\lv_objx/lv_spinbox.c **** 
 1653              		.loc 1 254 0
 1654 00aa 012B     		cmp	r3, #1
 1655 00ac B8BF     		it	lt
 1656 00ae 0123     		movlt	r3, #1
 1657              	.LVL211:
 256:..\..\..\lvgl\version_6.1.2\lvgl\src\lv_objx/lv_spinbox.c **** }
ARM GAS  C:\Users\pearlstl\AppData\Local\Temp\cc98wxIE.s 			page 45


 1658              		.loc 1 256 0
 1659 00b0 3846     		mov	r0, r7
 1660 00b2 CB66     		str	r3, [r1, #108]
 1661              	.LVL212:
 1662 00b4 FFF7FEFF 		bl	lv_spinbox_updatevalue
 1663              	.LVL213:
 1664              	.LBE81:
 1665              	.LBE80:
 1666              	.LBE87:
 398:..\..\..\lvgl\version_6.1.2\lvgl\src\lv_objx/lv_spinbox.c **** }
 1667              		.loc 1 398 0
 1668 00b8 0120     		movs	r0, #1
 1669 00ba F8BD     		pop	{r3, r4, r5, r6, r7, pc}
 1670              	.LVL214:
 1671              	.L188:
 1672              	.LBB88:
 1673              	.LBB82:
 1674              	.LBB83:
 306:..\..\..\lvgl\version_6.1.2\lvgl\src\lv_objx/lv_spinbox.c **** 
 1675              		.loc 1 306 0
 1676 00bc FFF7FEFF 		bl	lv_obj_get_ext_attr
 1677              	.LVL215:
 308:..\..\..\lvgl\version_6.1.2\lvgl\src\lv_objx/lv_spinbox.c ****         /*Special mode when zero crossing*/
 1678              		.loc 1 308 0
 1679 00c0 036E     		ldr	r3, [r0, #96]
 1680 00c2 C46E     		ldr	r4, [r0, #108]
 1681 00c4 816E     		ldr	r1, [r0, #104]
 1682 00c6 1A1B     		subs	r2, r3, r4
 1683 00c8 8A42     		cmp	r2, r1
 1684 00ca 07DB     		blt	.L163
 310:..\..\..\lvgl\version_6.1.2\lvgl\src\lv_objx/lv_spinbox.c ****         ext->value -= ext->step;
 1685              		.loc 1 310 0
 1686 00cc 002A     		cmp	r2, #0
 1687 00ce 03DA     		bge	.L174
 1688 00d0 002B     		cmp	r3, #0
 1689 00d2 C4BF     		itt	gt
 1690 00d4 5B42     		rsbgt	r3, r3, #0
 1691 00d6 1A1B     		subgt	r2, r3, r4
 1692              	.LVL216:
 1693              	.L174:
 311:..\..\..\lvgl\version_6.1.2\lvgl\src\lv_objx/lv_spinbox.c ****     } else {
 1694              		.loc 1 311 0
 1695 00d8 0266     		str	r2, [r0, #96]
 1696 00da D4E7     		b	.L165
 1697              	.L163:
 1698              	.LBE83:
 1699              	.LBE82:
 1700              	.LBB84:
 1701              	.LBB78:
 292:..\..\..\lvgl\version_6.1.2\lvgl\src\lv_objx/lv_spinbox.c ****     }
 1702              		.loc 1 292 0
 1703 00dc 0166     		str	r1, [r0, #96]
 1704 00de D2E7     		b	.L165
 1705              	.LVL217:
 1706              	.L190:
 284:..\..\..\lvgl\version_6.1.2\lvgl\src\lv_objx/lv_spinbox.c **** 
 1707              		.loc 1 284 0
ARM GAS  C:\Users\pearlstl\AppData\Local\Temp\cc98wxIE.s 			page 46


 1708 00e0 FFF7FEFF 		bl	lv_obj_get_ext_attr
 1709              	.LVL218:
 286:..\..\..\lvgl\version_6.1.2\lvgl\src\lv_objx/lv_spinbox.c ****         /*Special mode when zero crossing*/
 1710              		.loc 1 286 0
 1711 00e4 036E     		ldr	r3, [r0, #96]
 1712 00e6 C26E     		ldr	r2, [r0, #108]
 1713 00e8 416E     		ldr	r1, [r0, #100]
 1714 00ea 9C18     		adds	r4, r3, r2
 1715 00ec 8C42     		cmp	r4, r1
 1716 00ee F5DC     		bgt	.L163
 288:..\..\..\lvgl\version_6.1.2\lvgl\src\lv_objx/lv_spinbox.c ****         ext->value += ext->step;
 1717              		.loc 1 288 0
 1718 00f0 002C     		cmp	r4, #0
 1719 00f2 03DD     		ble	.L164
 1720 00f4 002B     		cmp	r3, #0
 1721 00f6 BCBF     		itt	lt
 1722 00f8 5B42     		rsblt	r3, r3, #0
 1723 00fa 0366     		strlt	r3, [r0, #96]
 1724              	.L164:
 289:..\..\..\lvgl\version_6.1.2\lvgl\src\lv_objx/lv_spinbox.c **** 
 1725              		.loc 1 289 0
 1726 00fc 1344     		add	r3, r3, r2
 1727 00fe 0366     		str	r3, [r0, #96]
 1728 0100 C1E7     		b	.L165
 1729              	.LVL219:
 1730              	.L189:
 1731              	.LBE78:
 1732              	.LBE84:
 1733              	.LBB85:
 1734              	.LBB72:
 306:..\..\..\lvgl\version_6.1.2\lvgl\src\lv_objx/lv_spinbox.c **** 
 1735              		.loc 1 306 0
 1736 0102 FFF7FEFF 		bl	lv_obj_get_ext_attr
 1737              	.LVL220:
 308:..\..\..\lvgl\version_6.1.2\lvgl\src\lv_objx/lv_spinbox.c ****         /*Special mode when zero crossing*/
 1738              		.loc 1 308 0
 1739 0106 036E     		ldr	r3, [r0, #96]
 1740 0108 C16E     		ldr	r1, [r0, #108]
 1741 010a 826E     		ldr	r2, [r0, #104]
 1742 010c 5C1A     		subs	r4, r3, r1
 1743 010e 9442     		cmp	r4, r2
 1744 0110 E2DB     		blt	.L174
 310:..\..\..\lvgl\version_6.1.2\lvgl\src\lv_objx/lv_spinbox.c ****         ext->value -= ext->step;
 1745              		.loc 1 310 0
 1746 0112 002C     		cmp	r4, #0
 1747 0114 03DA     		bge	.L170
 1748 0116 002B     		cmp	r3, #0
 1749 0118 C4BF     		itt	gt
 1750 011a 5B42     		rsbgt	r3, r3, #0
 1751 011c 0366     		strgt	r3, [r0, #96]
 1752              	.L170:
 311:..\..\..\lvgl\version_6.1.2\lvgl\src\lv_objx/lv_spinbox.c ****     } else {
 1753              		.loc 1 311 0
 1754 011e 5B1A     		subs	r3, r3, r1
 1755 0120 0366     		str	r3, [r0, #96]
 1756 0122 B0E7     		b	.L165
 1757              	.LVL221:
ARM GAS  C:\Users\pearlstl\AppData\Local\Temp\cc98wxIE.s 			page 47


 1758              	.L187:
 1759              	.LBE72:
 1760              	.LBE85:
 390:..\..\..\lvgl\version_6.1.2\lvgl\src\lv_objx/lv_spinbox.c ****         } else if(c == LV_KEY_DOWN) {
 1761              		.loc 1 390 0
 1762 0124 FFF7FEFF 		bl	lv_spinbox_increment
 1763              	.LVL222:
 1764              	.LBE88:
 398:..\..\..\lvgl\version_6.1.2\lvgl\src\lv_objx/lv_spinbox.c **** }
 1765              		.loc 1 398 0
 1766 0128 0120     		movs	r0, #1
 1767              	.LBB89:
 1768 012a F8BD     		pop	{r3, r4, r5, r6, r7, pc}
 1769              	.LVL223:
 1770              	.L192:
 1771              		.align	2
 1772              	.L191:
 1773 012c 00000000 		.word	.LANCHOR0
 1774 0130 00000000 		.word	.LC0
 1775 0134 67666666 		.word	1717986919
 1776              	.LBE89:
 1777              		.cfi_endproc
 1778              	.LFE69:
 1779              		.size	lv_spinbox_signal, .-lv_spinbox_signal
 1780              		.section	.text.lv_spinbox_decrement,"ax",%progbits
 1781              		.align	2
 1782              		.global	lv_spinbox_decrement
 1783              		.thumb
 1784              		.thumb_func
 1785              		.type	lv_spinbox_decrement, %function
 1786              	lv_spinbox_decrement:
 1787              	.LFB68:
 303:..\..\..\lvgl\version_6.1.2\lvgl\src\lv_objx/lv_spinbox.c ****     LV_ASSERT_OBJ(spinbox, LV_OBJX_NAME);
 1788              		.loc 1 303 0
 1789              		.cfi_startproc
 1790              		@ args = 0, pretend = 0, frame = 0
 1791              		@ frame_needed = 0, uses_anonymous_args = 0
 1792              	.LVL224:
 1793 0000 38B5     		push	{r3, r4, r5, lr}
 1794              		.cfi_def_cfa_offset 16
 1795              		.cfi_offset 3, -16
 1796              		.cfi_offset 4, -12
 1797              		.cfi_offset 5, -8
 1798              		.cfi_offset 14, -4
 303:..\..\..\lvgl\version_6.1.2\lvgl\src\lv_objx/lv_spinbox.c ****     LV_ASSERT_OBJ(spinbox, LV_OBJX_NAME);
 1799              		.loc 1 303 0
 1800 0002 0546     		mov	r5, r0
 306:..\..\..\lvgl\version_6.1.2\lvgl\src\lv_objx/lv_spinbox.c **** 
 1801              		.loc 1 306 0
 1802 0004 FFF7FEFF 		bl	lv_obj_get_ext_attr
 1803              	.LVL225:
 308:..\..\..\lvgl\version_6.1.2\lvgl\src\lv_objx/lv_spinbox.c ****         /*Special mode when zero crossing*/
 1804              		.loc 1 308 0
 1805 0008 026E     		ldr	r2, [r0, #96]
 1806 000a C46E     		ldr	r4, [r0, #108]
 1807 000c 816E     		ldr	r1, [r0, #104]
 1808 000e 131B     		subs	r3, r2, r4
ARM GAS  C:\Users\pearlstl\AppData\Local\Temp\cc98wxIE.s 			page 48


 1809 0010 8B42     		cmp	r3, r1
 1810 0012 07DB     		blt	.L194
 310:..\..\..\lvgl\version_6.1.2\lvgl\src\lv_objx/lv_spinbox.c ****         ext->value -= ext->step;
 1811              		.loc 1 310 0
 1812 0014 002B     		cmp	r3, #0
 1813 0016 0BDB     		blt	.L198
 1814              	.L195:
 311:..\..\..\lvgl\version_6.1.2\lvgl\src\lv_objx/lv_spinbox.c ****     } else {
 1815              		.loc 1 311 0
 1816 0018 0366     		str	r3, [r0, #96]
 316:..\..\..\lvgl\version_6.1.2\lvgl\src\lv_objx/lv_spinbox.c **** }
 1817              		.loc 1 316 0
 1818 001a 2846     		mov	r0, r5
 1819              	.LVL226:
 317:..\..\..\lvgl\version_6.1.2\lvgl\src\lv_objx/lv_spinbox.c **** 
 1820              		.loc 1 317 0
 1821 001c BDE83840 		pop	{r3, r4, r5, lr}
 1822              		.cfi_remember_state
 1823              		.cfi_restore 14
 1824              		.cfi_restore 5
 1825              		.cfi_restore 4
 1826              		.cfi_restore 3
 1827              		.cfi_def_cfa_offset 0
 1828              	.LVL227:
 316:..\..\..\lvgl\version_6.1.2\lvgl\src\lv_objx/lv_spinbox.c **** }
 1829              		.loc 1 316 0
 1830 0020 FFF7FEBF 		b	lv_spinbox_updatevalue
 1831              	.LVL228:
 1832              	.L194:
 1833              		.cfi_restore_state
 313:..\..\..\lvgl\version_6.1.2\lvgl\src\lv_objx/lv_spinbox.c ****     }
 1834              		.loc 1 313 0
 1835 0024 0166     		str	r1, [r0, #96]
 316:..\..\..\lvgl\version_6.1.2\lvgl\src\lv_objx/lv_spinbox.c **** }
 1836              		.loc 1 316 0
 1837 0026 2846     		mov	r0, r5
 1838              	.LVL229:
 317:..\..\..\lvgl\version_6.1.2\lvgl\src\lv_objx/lv_spinbox.c **** 
 1839              		.loc 1 317 0
 1840 0028 BDE83840 		pop	{r3, r4, r5, lr}
 1841              		.cfi_remember_state
 1842              		.cfi_restore 3
 1843              		.cfi_restore 4
 1844              		.cfi_restore 5
 1845              		.cfi_restore 14
 1846              		.cfi_def_cfa_offset 0
 1847              	.LVL230:
 316:..\..\..\lvgl\version_6.1.2\lvgl\src\lv_objx/lv_spinbox.c **** }
 1848              		.loc 1 316 0
 1849 002c FFF7FEBF 		b	lv_spinbox_updatevalue
 1850              	.LVL231:
 1851              	.L198:
 1852              		.cfi_restore_state
 310:..\..\..\lvgl\version_6.1.2\lvgl\src\lv_objx/lv_spinbox.c ****         ext->value -= ext->step;
 1853              		.loc 1 310 0 discriminator 1
 1854 0030 002A     		cmp	r2, #0
 1855 0032 C4BF     		itt	gt
ARM GAS  C:\Users\pearlstl\AppData\Local\Temp\cc98wxIE.s 			page 49


 1856 0034 5342     		rsbgt	r3, r2, #0
 1857 0036 1B1B     		subgt	r3, r3, r4
 1858 0038 EEE7     		b	.L195
 1859              		.cfi_endproc
 1860              	.LFE68:
 1861              		.size	lv_spinbox_decrement, .-lv_spinbox_decrement
 1862 003a 00BF     		.section	.rodata.str1.4,"aMS",%progbits,1
 1863              		.align	2
 1864              	.LC0:
 1865 0000 6C765F73 		.ascii	"lv_spinbox\000"
 1865      70696E62 
 1865      6F7800
 1866              		.bss
 1867              		.align	2
 1868              		.set	.LANCHOR0,. + 0
 1869              		.type	ancestor_signal, %object
 1870              		.size	ancestor_signal, 4
 1871              	ancestor_signal:
 1872 0000 00000000 		.space	4
 1873              		.type	ancestor_design, %object
 1874              		.size	ancestor_design, 4
 1875              	ancestor_design:
 1876 0004 00000000 		.space	4
 1877              		.text
 1878              	.Letext0:
 1879              		.file 3 "c:\\program files (x86)\\cypress\\psoc creator\\4.2\\psoc creator\\import\\gnu\\arm\\5.4.
 1880              		.file 4 "c:\\program files (x86)\\cypress\\psoc creator\\4.2\\psoc creator\\import\\gnu\\arm\\5.4.
 1881              		.file 5 "..\\..\\..\\lvgl\\version_6.1.2\\lvgl\\src\\lv_objx\\../../../lv_conf.h"
 1882              		.file 6 "..\\..\\..\\lvgl\\version_6.1.2\\lvgl\\src\\lv_objx\\../lv_core/../lv_font/lv_font.h"
 1883              		.file 7 "..\\..\\..\\lvgl\\version_6.1.2\\lvgl\\src\\lv_objx\\../lv_core/../lv_misc/lv_color.h"
 1884              		.file 8 "..\\..\\..\\lvgl\\version_6.1.2\\lvgl\\src\\lv_objx\\../lv_core/../lv_misc/lv_area.h"
 1885              		.file 9 "..\\..\\..\\lvgl\\version_6.1.2\\lvgl\\src\\lv_objx\\../lv_core/../lv_misc/lv_anim.h"
 1886              		.file 10 "..\\..\\..\\lvgl\\version_6.1.2\\lvgl\\src\\lv_objx\\../lv_core/lv_style.h"
 1887              		.file 11 "..\\..\\..\\lvgl\\version_6.1.2\\lvgl\\src\\lv_objx\\../lv_core/../lv_misc/lv_types.h"
 1888              		.file 12 "..\\..\\..\\lvgl\\version_6.1.2\\lvgl\\src\\lv_objx\\../lv_core/../lv_misc/lv_ll.h"
 1889              		.file 13 "..\\..\\..\\lvgl\\version_6.1.2\\lvgl\\src\\lv_objx\\../lv_core/../lv_misc/lv_bidi.h"
 1890              		.file 14 "..\\..\\..\\lvgl\\version_6.1.2\\lvgl\\src\\lv_objx\\../lv_core/lv_obj.h"
 1891              		.file 15 "..\\..\\..\\lvgl\\version_6.1.2\\lvgl\\src\\lv_objx\\../lv_core/../lv_hal/lv_hal_indev.h
 1892              		.file 16 "..\\..\\..\\lvgl\\version_6.1.2\\lvgl\\src\\lv_objx\\../lv_objx/lv_cont.h"
 1893              		.file 17 "..\\..\\..\\lvgl\\version_6.1.2\\lvgl\\src\\lv_objx\\../lv_objx/../lv_core/../lv_core/lv
 1894              		.file 18 "..\\..\\..\\lvgl\\version_6.1.2\\lvgl\\src\\lv_objx\\../lv_objx/lv_page.h"
 1895              		.file 19 "..\\..\\..\\lvgl\\version_6.1.2\\lvgl\\src\\lv_objx\\../lv_objx/lv_ta.h"
 1896              		.file 20 "..\\..\\..\\lvgl\\version_6.1.2\\lvgl\\src\\lv_objx\\../lv_themes/lv_theme.h"
 1897              		.file 21 "..\\..\\..\\lvgl\\version_6.1.2\\lvgl\\src\\lv_objx\\../lv_misc/lv_utils.h"
 1898              		.file 22 "c:\\program files (x86)\\cypress\\psoc creator\\4.2\\psoc creator\\import\\gnu\\arm\\5.4
 1899              		.file 23 "..\\..\\..\\lvgl\\version_6.1.2\\lvgl\\src\\lv_objx\\../lv_objx/../lv_core/lv_indev.h"
 1900              		.file 24 "<built-in>"