ARM GAS  C:\Users\pearlstl\AppData\Local\Temp\ccvteysW.s 			page 1


   1              		.syntax unified
   2              		.cpu cortex-m4
   3              		.eabi_attribute 27, 1
   4              		.fpu fpv4-sp-d16
   5              		.eabi_attribute 20, 1
   6              		.eabi_attribute 21, 1
   7              		.eabi_attribute 23, 3
   8              		.eabi_attribute 24, 1
   9              		.eabi_attribute 25, 1
  10              		.eabi_attribute 26, 1
  11              		.eabi_attribute 30, 2
  12              		.eabi_attribute 34, 1
  13              		.eabi_attribute 18, 4
  14              		.thumb
  15              		.syntax unified
  16              		.file	"lv_style.c"
  17              		.text
  18              	.Ltext0:
  19              		.cfi_sections	.debug_frame
  20              		.section	.text.style_animation_common_end_cb,"ax",%progbits
  21              		.align	2
  22              		.thumb
  23              		.thumb_func
  24              		.type	style_animation_common_end_cb, %function
  25              	style_animation_common_end_cb:
  26              	.LFB37:
  27              		.file 1 "..\\..\\..\\lvgl\\version_6.1.2\\lvgl\\src\\lv_core\\lv_style.c"
   1:..\..\..\lvgl\version_6.1.2\lvgl\src\lv_core/lv_style.c **** /**
   2:..\..\..\lvgl\version_6.1.2\lvgl\src\lv_core/lv_style.c ****  * @file lv_style.c
   3:..\..\..\lvgl\version_6.1.2\lvgl\src\lv_core/lv_style.c ****  *
   4:..\..\..\lvgl\version_6.1.2\lvgl\src\lv_core/lv_style.c ****  */
   5:..\..\..\lvgl\version_6.1.2\lvgl\src\lv_core/lv_style.c **** 
   6:..\..\..\lvgl\version_6.1.2\lvgl\src\lv_core/lv_style.c **** /*********************
   7:..\..\..\lvgl\version_6.1.2\lvgl\src\lv_core/lv_style.c ****  *      INCLUDES
   8:..\..\..\lvgl\version_6.1.2\lvgl\src\lv_core/lv_style.c ****  *********************/
   9:..\..\..\lvgl\version_6.1.2\lvgl\src\lv_core/lv_style.c **** #include "lv_obj.h"
  10:..\..\..\lvgl\version_6.1.2\lvgl\src\lv_core/lv_style.c **** #include "../lv_core/lv_debug.h"
  11:..\..\..\lvgl\version_6.1.2\lvgl\src\lv_core/lv_style.c **** #include "../lv_misc/lv_mem.h"
  12:..\..\..\lvgl\version_6.1.2\lvgl\src\lv_core/lv_style.c **** #include "../lv_misc/lv_anim.h"
  13:..\..\..\lvgl\version_6.1.2\lvgl\src\lv_core/lv_style.c **** 
  14:..\..\..\lvgl\version_6.1.2\lvgl\src\lv_core/lv_style.c **** /*********************
  15:..\..\..\lvgl\version_6.1.2\lvgl\src\lv_core/lv_style.c ****  *      DEFINES
  16:..\..\..\lvgl\version_6.1.2\lvgl\src\lv_core/lv_style.c ****  *********************/
  17:..\..\..\lvgl\version_6.1.2\lvgl\src\lv_core/lv_style.c **** #define STYLE_MIX_MAX 256
  18:..\..\..\lvgl\version_6.1.2\lvgl\src\lv_core/lv_style.c **** #define STYLE_MIX_SHIFT 8 /*log2(STYLE_MIX_MAX)*/
  19:..\..\..\lvgl\version_6.1.2\lvgl\src\lv_core/lv_style.c **** 
  20:..\..\..\lvgl\version_6.1.2\lvgl\src\lv_core/lv_style.c **** #define VAL_PROP(v1, v2, r) v1 + (((v2 - v1) * r) >> STYLE_MIX_SHIFT)
  21:..\..\..\lvgl\version_6.1.2\lvgl\src\lv_core/lv_style.c **** #define STYLE_ATTR_MIX(attr, r)                                                                    
  22:..\..\..\lvgl\version_6.1.2\lvgl\src\lv_core/lv_style.c ****     if(start->attr != end->attr) {                                                                 
  23:..\..\..\lvgl\version_6.1.2\lvgl\src\lv_core/lv_style.c ****         res->attr = VAL_PROP(start->attr, end->attr, r);                                           
  24:..\..\..\lvgl\version_6.1.2\lvgl\src\lv_core/lv_style.c ****     } else {                                                                                       
  25:..\..\..\lvgl\version_6.1.2\lvgl\src\lv_core/lv_style.c ****         res->attr = start->attr;                                                                   
  26:..\..\..\lvgl\version_6.1.2\lvgl\src\lv_core/lv_style.c ****     }
  27:..\..\..\lvgl\version_6.1.2\lvgl\src\lv_core/lv_style.c **** 
  28:..\..\..\lvgl\version_6.1.2\lvgl\src\lv_core/lv_style.c **** /**********************
  29:..\..\..\lvgl\version_6.1.2\lvgl\src\lv_core/lv_style.c ****  *      TYPEDEFS
  30:..\..\..\lvgl\version_6.1.2\lvgl\src\lv_core/lv_style.c ****  **********************/
ARM GAS  C:\Users\pearlstl\AppData\Local\Temp\ccvteysW.s 			page 2


  31:..\..\..\lvgl\version_6.1.2\lvgl\src\lv_core/lv_style.c **** 
  32:..\..\..\lvgl\version_6.1.2\lvgl\src\lv_core/lv_style.c **** /**********************
  33:..\..\..\lvgl\version_6.1.2\lvgl\src\lv_core/lv_style.c ****  *  STATIC PROTOTYPES
  34:..\..\..\lvgl\version_6.1.2\lvgl\src\lv_core/lv_style.c ****  **********************/
  35:..\..\..\lvgl\version_6.1.2\lvgl\src\lv_core/lv_style.c **** #if LV_USE_ANIMATION
  36:..\..\..\lvgl\version_6.1.2\lvgl\src\lv_core/lv_style.c **** static void style_animator(lv_style_anim_dsc_t * dsc, lv_anim_value_t val);
  37:..\..\..\lvgl\version_6.1.2\lvgl\src\lv_core/lv_style.c **** static void style_animation_common_end_cb(lv_anim_t * a);
  38:..\..\..\lvgl\version_6.1.2\lvgl\src\lv_core/lv_style.c **** #endif
  39:..\..\..\lvgl\version_6.1.2\lvgl\src\lv_core/lv_style.c **** 
  40:..\..\..\lvgl\version_6.1.2\lvgl\src\lv_core/lv_style.c **** /**********************
  41:..\..\..\lvgl\version_6.1.2\lvgl\src\lv_core/lv_style.c ****  *  STATIC VARIABLES
  42:..\..\..\lvgl\version_6.1.2\lvgl\src\lv_core/lv_style.c ****  **********************/
  43:..\..\..\lvgl\version_6.1.2\lvgl\src\lv_core/lv_style.c **** lv_style_t lv_style_scr;
  44:..\..\..\lvgl\version_6.1.2\lvgl\src\lv_core/lv_style.c **** lv_style_t lv_style_transp;
  45:..\..\..\lvgl\version_6.1.2\lvgl\src\lv_core/lv_style.c **** lv_style_t lv_style_transp_fit;
  46:..\..\..\lvgl\version_6.1.2\lvgl\src\lv_core/lv_style.c **** lv_style_t lv_style_transp_tight;
  47:..\..\..\lvgl\version_6.1.2\lvgl\src\lv_core/lv_style.c **** lv_style_t lv_style_plain;
  48:..\..\..\lvgl\version_6.1.2\lvgl\src\lv_core/lv_style.c **** lv_style_t lv_style_plain_color;
  49:..\..\..\lvgl\version_6.1.2\lvgl\src\lv_core/lv_style.c **** lv_style_t lv_style_pretty;
  50:..\..\..\lvgl\version_6.1.2\lvgl\src\lv_core/lv_style.c **** lv_style_t lv_style_pretty_color;
  51:..\..\..\lvgl\version_6.1.2\lvgl\src\lv_core/lv_style.c **** lv_style_t lv_style_btn_rel;
  52:..\..\..\lvgl\version_6.1.2\lvgl\src\lv_core/lv_style.c **** lv_style_t lv_style_btn_pr;
  53:..\..\..\lvgl\version_6.1.2\lvgl\src\lv_core/lv_style.c **** lv_style_t lv_style_btn_tgl_rel;
  54:..\..\..\lvgl\version_6.1.2\lvgl\src\lv_core/lv_style.c **** lv_style_t lv_style_btn_tgl_pr;
  55:..\..\..\lvgl\version_6.1.2\lvgl\src\lv_core/lv_style.c **** lv_style_t lv_style_btn_ina;
  56:..\..\..\lvgl\version_6.1.2\lvgl\src\lv_core/lv_style.c **** 
  57:..\..\..\lvgl\version_6.1.2\lvgl\src\lv_core/lv_style.c **** /**********************
  58:..\..\..\lvgl\version_6.1.2\lvgl\src\lv_core/lv_style.c ****  *      MACROS
  59:..\..\..\lvgl\version_6.1.2\lvgl\src\lv_core/lv_style.c ****  **********************/
  60:..\..\..\lvgl\version_6.1.2\lvgl\src\lv_core/lv_style.c **** 
  61:..\..\..\lvgl\version_6.1.2\lvgl\src\lv_core/lv_style.c **** /**********************
  62:..\..\..\lvgl\version_6.1.2\lvgl\src\lv_core/lv_style.c ****  *   GLOBAL FUNCTIONS
  63:..\..\..\lvgl\version_6.1.2\lvgl\src\lv_core/lv_style.c ****  **********************/
  64:..\..\..\lvgl\version_6.1.2\lvgl\src\lv_core/lv_style.c **** 
  65:..\..\..\lvgl\version_6.1.2\lvgl\src\lv_core/lv_style.c **** /**
  66:..\..\..\lvgl\version_6.1.2\lvgl\src\lv_core/lv_style.c ****  *  Init the basic styles
  67:..\..\..\lvgl\version_6.1.2\lvgl\src\lv_core/lv_style.c ****  */
  68:..\..\..\lvgl\version_6.1.2\lvgl\src\lv_core/lv_style.c **** void lv_style_init(void)
  69:..\..\..\lvgl\version_6.1.2\lvgl\src\lv_core/lv_style.c **** {
  70:..\..\..\lvgl\version_6.1.2\lvgl\src\lv_core/lv_style.c ****     /* Not White/Black/Gray colors are created by HSV model with
  71:..\..\..\lvgl\version_6.1.2\lvgl\src\lv_core/lv_style.c ****      * HUE = 210*/
  72:..\..\..\lvgl\version_6.1.2\lvgl\src\lv_core/lv_style.c **** 
  73:..\..\..\lvgl\version_6.1.2\lvgl\src\lv_core/lv_style.c ****     /*Screen style*/
  74:..\..\..\lvgl\version_6.1.2\lvgl\src\lv_core/lv_style.c ****     lv_style_scr.glass               = 0;
  75:..\..\..\lvgl\version_6.1.2\lvgl\src\lv_core/lv_style.c ****     lv_style_scr.body.opa            = LV_OPA_COVER;
  76:..\..\..\lvgl\version_6.1.2\lvgl\src\lv_core/lv_style.c ****     lv_style_scr.body.main_color     = LV_COLOR_WHITE;
  77:..\..\..\lvgl\version_6.1.2\lvgl\src\lv_core/lv_style.c ****     lv_style_scr.body.grad_color     = LV_COLOR_WHITE;
  78:..\..\..\lvgl\version_6.1.2\lvgl\src\lv_core/lv_style.c ****     lv_style_scr.body.radius         = 0;
  79:..\..\..\lvgl\version_6.1.2\lvgl\src\lv_core/lv_style.c ****     lv_style_scr.body.padding.left   = 0;
  80:..\..\..\lvgl\version_6.1.2\lvgl\src\lv_core/lv_style.c ****     lv_style_scr.body.padding.right  = 0;
  81:..\..\..\lvgl\version_6.1.2\lvgl\src\lv_core/lv_style.c ****     lv_style_scr.body.padding.top    = 0;
  82:..\..\..\lvgl\version_6.1.2\lvgl\src\lv_core/lv_style.c ****     lv_style_scr.body.padding.bottom = 0;
  83:..\..\..\lvgl\version_6.1.2\lvgl\src\lv_core/lv_style.c ****     lv_style_scr.body.padding.inner  = LV_DPI / 20;
  84:..\..\..\lvgl\version_6.1.2\lvgl\src\lv_core/lv_style.c **** 
  85:..\..\..\lvgl\version_6.1.2\lvgl\src\lv_core/lv_style.c ****     lv_style_scr.body.border.color = LV_COLOR_BLACK;
  86:..\..\..\lvgl\version_6.1.2\lvgl\src\lv_core/lv_style.c ****     lv_style_scr.body.border.opa   = LV_OPA_COVER;
  87:..\..\..\lvgl\version_6.1.2\lvgl\src\lv_core/lv_style.c ****     lv_style_scr.body.border.width = 0;
ARM GAS  C:\Users\pearlstl\AppData\Local\Temp\ccvteysW.s 			page 3


  88:..\..\..\lvgl\version_6.1.2\lvgl\src\lv_core/lv_style.c ****     lv_style_scr.body.border.part  = LV_BORDER_FULL;
  89:..\..\..\lvgl\version_6.1.2\lvgl\src\lv_core/lv_style.c **** 
  90:..\..\..\lvgl\version_6.1.2\lvgl\src\lv_core/lv_style.c ****     lv_style_scr.body.shadow.color = LV_COLOR_GRAY;
  91:..\..\..\lvgl\version_6.1.2\lvgl\src\lv_core/lv_style.c ****     lv_style_scr.body.shadow.type  = LV_SHADOW_FULL;
  92:..\..\..\lvgl\version_6.1.2\lvgl\src\lv_core/lv_style.c ****     lv_style_scr.body.shadow.width = 0;
  93:..\..\..\lvgl\version_6.1.2\lvgl\src\lv_core/lv_style.c **** 
  94:..\..\..\lvgl\version_6.1.2\lvgl\src\lv_core/lv_style.c ****     lv_style_scr.text.opa          = LV_OPA_COVER;
  95:..\..\..\lvgl\version_6.1.2\lvgl\src\lv_core/lv_style.c ****     lv_style_scr.text.color        = lv_color_make(0x30, 0x30, 0x30);
  96:..\..\..\lvgl\version_6.1.2\lvgl\src\lv_core/lv_style.c ****     lv_style_scr.text.sel_color    = lv_color_make(0x55, 0x96, 0xd8);
  97:..\..\..\lvgl\version_6.1.2\lvgl\src\lv_core/lv_style.c ****     lv_style_scr.text.font         = LV_FONT_DEFAULT;
  98:..\..\..\lvgl\version_6.1.2\lvgl\src\lv_core/lv_style.c ****     lv_style_scr.text.letter_space = 0;
  99:..\..\..\lvgl\version_6.1.2\lvgl\src\lv_core/lv_style.c ****     lv_style_scr.text.line_space   = 2;
 100:..\..\..\lvgl\version_6.1.2\lvgl\src\lv_core/lv_style.c **** 
 101:..\..\..\lvgl\version_6.1.2\lvgl\src\lv_core/lv_style.c ****     lv_style_scr.image.opa     = LV_OPA_COVER;
 102:..\..\..\lvgl\version_6.1.2\lvgl\src\lv_core/lv_style.c ****     lv_style_scr.image.color   = lv_color_make(0x20, 0x20, 0x20);
 103:..\..\..\lvgl\version_6.1.2\lvgl\src\lv_core/lv_style.c ****     lv_style_scr.image.intense = LV_OPA_TRANSP;
 104:..\..\..\lvgl\version_6.1.2\lvgl\src\lv_core/lv_style.c **** 
 105:..\..\..\lvgl\version_6.1.2\lvgl\src\lv_core/lv_style.c ****     lv_style_scr.line.opa     = LV_OPA_COVER;
 106:..\..\..\lvgl\version_6.1.2\lvgl\src\lv_core/lv_style.c ****     lv_style_scr.line.color   = lv_color_make(0x20, 0x20, 0x20);
 107:..\..\..\lvgl\version_6.1.2\lvgl\src\lv_core/lv_style.c ****     lv_style_scr.line.width   = 2;
 108:..\..\..\lvgl\version_6.1.2\lvgl\src\lv_core/lv_style.c ****     lv_style_scr.line.rounded = 0;
 109:..\..\..\lvgl\version_6.1.2\lvgl\src\lv_core/lv_style.c **** 
 110:..\..\..\lvgl\version_6.1.2\lvgl\src\lv_core/lv_style.c **** #if LV_USE_DEBUG
 111:..\..\..\lvgl\version_6.1.2\lvgl\src\lv_core/lv_style.c **** #if LV_USE_ASSERT_STYLE
 112:..\..\..\lvgl\version_6.1.2\lvgl\src\lv_core/lv_style.c ****     lv_style_scr.debug_sentinel = LV_STYLE_DEGUG_SENTINEL_VALUE;
 113:..\..\..\lvgl\version_6.1.2\lvgl\src\lv_core/lv_style.c **** #endif
 114:..\..\..\lvgl\version_6.1.2\lvgl\src\lv_core/lv_style.c **** #endif
 115:..\..\..\lvgl\version_6.1.2\lvgl\src\lv_core/lv_style.c **** 
 116:..\..\..\lvgl\version_6.1.2\lvgl\src\lv_core/lv_style.c ****     /*Plain style (by default near the same as the screen style)*/
 117:..\..\..\lvgl\version_6.1.2\lvgl\src\lv_core/lv_style.c ****     lv_style_copy(&lv_style_plain, &lv_style_scr);
 118:..\..\..\lvgl\version_6.1.2\lvgl\src\lv_core/lv_style.c ****     lv_style_plain.body.padding.left   = LV_DPI / 20;
 119:..\..\..\lvgl\version_6.1.2\lvgl\src\lv_core/lv_style.c ****     lv_style_plain.body.padding.right  = LV_DPI / 20;
 120:..\..\..\lvgl\version_6.1.2\lvgl\src\lv_core/lv_style.c ****     lv_style_plain.body.padding.top    = LV_DPI / 20;
 121:..\..\..\lvgl\version_6.1.2\lvgl\src\lv_core/lv_style.c ****     lv_style_plain.body.padding.bottom = LV_DPI / 20;
 122:..\..\..\lvgl\version_6.1.2\lvgl\src\lv_core/lv_style.c **** 
 123:..\..\..\lvgl\version_6.1.2\lvgl\src\lv_core/lv_style.c ****     /*Plain color style*/
 124:..\..\..\lvgl\version_6.1.2\lvgl\src\lv_core/lv_style.c ****     lv_style_copy(&lv_style_plain_color, &lv_style_plain);
 125:..\..\..\lvgl\version_6.1.2\lvgl\src\lv_core/lv_style.c ****     lv_style_plain_color.text.color      = lv_color_make(0xf0, 0xf0, 0xf0);
 126:..\..\..\lvgl\version_6.1.2\lvgl\src\lv_core/lv_style.c ****     lv_style_plain_color.image.color     = lv_color_make(0xf0, 0xf0, 0xf0);
 127:..\..\..\lvgl\version_6.1.2\lvgl\src\lv_core/lv_style.c ****     lv_style_plain_color.line.color      = lv_color_make(0xf0, 0xf0, 0xf0);
 128:..\..\..\lvgl\version_6.1.2\lvgl\src\lv_core/lv_style.c ****     lv_style_plain_color.body.main_color = lv_color_make(0x55, 0x96, 0xd8);
 129:..\..\..\lvgl\version_6.1.2\lvgl\src\lv_core/lv_style.c ****     lv_style_plain_color.body.grad_color = lv_style_plain_color.body.main_color;
 130:..\..\..\lvgl\version_6.1.2\lvgl\src\lv_core/lv_style.c **** 
 131:..\..\..\lvgl\version_6.1.2\lvgl\src\lv_core/lv_style.c ****     /*Pretty style */
 132:..\..\..\lvgl\version_6.1.2\lvgl\src\lv_core/lv_style.c ****     lv_style_copy(&lv_style_pretty, &lv_style_plain);
 133:..\..\..\lvgl\version_6.1.2\lvgl\src\lv_core/lv_style.c ****     lv_style_pretty.text.color        = lv_color_make(0x20, 0x20, 0x20);
 134:..\..\..\lvgl\version_6.1.2\lvgl\src\lv_core/lv_style.c ****     lv_style_pretty.image.color       = lv_color_make(0x20, 0x20, 0x20);
 135:..\..\..\lvgl\version_6.1.2\lvgl\src\lv_core/lv_style.c ****     lv_style_pretty.line.color        = lv_color_make(0x20, 0x20, 0x20);
 136:..\..\..\lvgl\version_6.1.2\lvgl\src\lv_core/lv_style.c ****     lv_style_pretty.body.main_color   = LV_COLOR_WHITE;
 137:..\..\..\lvgl\version_6.1.2\lvgl\src\lv_core/lv_style.c ****     lv_style_pretty.body.grad_color   = LV_COLOR_SILVER;
 138:..\..\..\lvgl\version_6.1.2\lvgl\src\lv_core/lv_style.c ****     lv_style_pretty.body.radius       = LV_DPI / 15;
 139:..\..\..\lvgl\version_6.1.2\lvgl\src\lv_core/lv_style.c ****     lv_style_pretty.body.border.color = lv_color_make(0x40, 0x40, 0x40);
 140:..\..\..\lvgl\version_6.1.2\lvgl\src\lv_core/lv_style.c ****     lv_style_pretty.body.border.width = LV_DPI / 50 >= 1 ? LV_DPI / 50 : 1;
 141:..\..\..\lvgl\version_6.1.2\lvgl\src\lv_core/lv_style.c ****     lv_style_pretty.body.border.opa   = LV_OPA_30;
 142:..\..\..\lvgl\version_6.1.2\lvgl\src\lv_core/lv_style.c **** 
 143:..\..\..\lvgl\version_6.1.2\lvgl\src\lv_core/lv_style.c ****     /*Pretty color style*/
 144:..\..\..\lvgl\version_6.1.2\lvgl\src\lv_core/lv_style.c ****     lv_style_copy(&lv_style_pretty_color, &lv_style_pretty);
ARM GAS  C:\Users\pearlstl\AppData\Local\Temp\ccvteysW.s 			page 4


 145:..\..\..\lvgl\version_6.1.2\lvgl\src\lv_core/lv_style.c ****     lv_style_pretty_color.text.color        = lv_color_make(0xe0, 0xe0, 0xe0);
 146:..\..\..\lvgl\version_6.1.2\lvgl\src\lv_core/lv_style.c ****     lv_style_pretty_color.image.color       = lv_color_make(0xe0, 0xe0, 0xe0);
 147:..\..\..\lvgl\version_6.1.2\lvgl\src\lv_core/lv_style.c ****     lv_style_pretty_color.line.color        = lv_color_make(0xc0, 0xc0, 0xc0);
 148:..\..\..\lvgl\version_6.1.2\lvgl\src\lv_core/lv_style.c ****     lv_style_pretty_color.body.main_color   = lv_color_make(0x6b, 0x9a, 0xc7);
 149:..\..\..\lvgl\version_6.1.2\lvgl\src\lv_core/lv_style.c ****     lv_style_pretty_color.body.grad_color   = lv_color_make(0x2b, 0x59, 0x8b);
 150:..\..\..\lvgl\version_6.1.2\lvgl\src\lv_core/lv_style.c ****     lv_style_pretty_color.body.border.color = lv_color_make(0x15, 0x2c, 0x42);
 151:..\..\..\lvgl\version_6.1.2\lvgl\src\lv_core/lv_style.c **** 
 152:..\..\..\lvgl\version_6.1.2\lvgl\src\lv_core/lv_style.c ****     /*Transparent style*/
 153:..\..\..\lvgl\version_6.1.2\lvgl\src\lv_core/lv_style.c ****     lv_style_copy(&lv_style_transp, &lv_style_plain);
 154:..\..\..\lvgl\version_6.1.2\lvgl\src\lv_core/lv_style.c ****     lv_style_transp.glass             = 1;
 155:..\..\..\lvgl\version_6.1.2\lvgl\src\lv_core/lv_style.c ****     lv_style_transp.body.border.width = 0;
 156:..\..\..\lvgl\version_6.1.2\lvgl\src\lv_core/lv_style.c ****     lv_style_transp.body.opa          = LV_OPA_TRANSP;
 157:..\..\..\lvgl\version_6.1.2\lvgl\src\lv_core/lv_style.c **** 
 158:..\..\..\lvgl\version_6.1.2\lvgl\src\lv_core/lv_style.c ****     /*Transparent fitting size*/
 159:..\..\..\lvgl\version_6.1.2\lvgl\src\lv_core/lv_style.c ****     lv_style_copy(&lv_style_transp_fit, &lv_style_transp);
 160:..\..\..\lvgl\version_6.1.2\lvgl\src\lv_core/lv_style.c ****     lv_style_transp_fit.body.padding.left   = 0;
 161:..\..\..\lvgl\version_6.1.2\lvgl\src\lv_core/lv_style.c ****     lv_style_transp_fit.body.padding.right  = 0;
 162:..\..\..\lvgl\version_6.1.2\lvgl\src\lv_core/lv_style.c ****     lv_style_transp_fit.body.padding.top    = 0;
 163:..\..\..\lvgl\version_6.1.2\lvgl\src\lv_core/lv_style.c ****     lv_style_transp_fit.body.padding.bottom = 0;
 164:..\..\..\lvgl\version_6.1.2\lvgl\src\lv_core/lv_style.c **** 
 165:..\..\..\lvgl\version_6.1.2\lvgl\src\lv_core/lv_style.c ****     /*Transparent tight style*/
 166:..\..\..\lvgl\version_6.1.2\lvgl\src\lv_core/lv_style.c ****     lv_style_copy(&lv_style_transp_tight, &lv_style_transp_fit);
 167:..\..\..\lvgl\version_6.1.2\lvgl\src\lv_core/lv_style.c ****     lv_style_transp_tight.body.padding.inner = 0;
 168:..\..\..\lvgl\version_6.1.2\lvgl\src\lv_core/lv_style.c **** 
 169:..\..\..\lvgl\version_6.1.2\lvgl\src\lv_core/lv_style.c ****     /*Button released style*/
 170:..\..\..\lvgl\version_6.1.2\lvgl\src\lv_core/lv_style.c ****     lv_style_copy(&lv_style_btn_rel, &lv_style_plain);
 171:..\..\..\lvgl\version_6.1.2\lvgl\src\lv_core/lv_style.c ****     lv_style_btn_rel.body.main_color     = lv_color_make(0x76, 0xa2, 0xd0);
 172:..\..\..\lvgl\version_6.1.2\lvgl\src\lv_core/lv_style.c ****     lv_style_btn_rel.body.grad_color     = lv_color_make(0x19, 0x3a, 0x5d);
 173:..\..\..\lvgl\version_6.1.2\lvgl\src\lv_core/lv_style.c ****     lv_style_btn_rel.body.radius         = LV_DPI / 15;
 174:..\..\..\lvgl\version_6.1.2\lvgl\src\lv_core/lv_style.c ****     lv_style_btn_rel.body.padding.left   = LV_DPI / 4;
 175:..\..\..\lvgl\version_6.1.2\lvgl\src\lv_core/lv_style.c ****     lv_style_btn_rel.body.padding.right  = LV_DPI / 4;
 176:..\..\..\lvgl\version_6.1.2\lvgl\src\lv_core/lv_style.c ****     lv_style_btn_rel.body.padding.top    = LV_DPI / 6;
 177:..\..\..\lvgl\version_6.1.2\lvgl\src\lv_core/lv_style.c ****     lv_style_btn_rel.body.padding.bottom = LV_DPI / 6;
 178:..\..\..\lvgl\version_6.1.2\lvgl\src\lv_core/lv_style.c ****     lv_style_btn_rel.body.padding.inner  = LV_DPI / 10;
 179:..\..\..\lvgl\version_6.1.2\lvgl\src\lv_core/lv_style.c ****     lv_style_btn_rel.body.border.color   = lv_color_make(0x0b, 0x19, 0x28);
 180:..\..\..\lvgl\version_6.1.2\lvgl\src\lv_core/lv_style.c ****     lv_style_btn_rel.body.border.width   = LV_DPI / 50 >= 1 ? LV_DPI / 50 : 1;
 181:..\..\..\lvgl\version_6.1.2\lvgl\src\lv_core/lv_style.c ****     lv_style_btn_rel.body.border.opa     = LV_OPA_70;
 182:..\..\..\lvgl\version_6.1.2\lvgl\src\lv_core/lv_style.c ****     lv_style_btn_rel.body.shadow.color   = LV_COLOR_GRAY;
 183:..\..\..\lvgl\version_6.1.2\lvgl\src\lv_core/lv_style.c ****     lv_style_btn_rel.body.shadow.width   = 0;
 184:..\..\..\lvgl\version_6.1.2\lvgl\src\lv_core/lv_style.c ****     lv_style_btn_rel.text.color          = lv_color_make(0xff, 0xff, 0xff);
 185:..\..\..\lvgl\version_6.1.2\lvgl\src\lv_core/lv_style.c ****     lv_style_btn_rel.image.color         = lv_color_make(0xff, 0xff, 0xff);
 186:..\..\..\lvgl\version_6.1.2\lvgl\src\lv_core/lv_style.c **** 
 187:..\..\..\lvgl\version_6.1.2\lvgl\src\lv_core/lv_style.c ****     /*Button pressed style*/
 188:..\..\..\lvgl\version_6.1.2\lvgl\src\lv_core/lv_style.c ****     lv_style_copy(&lv_style_btn_pr, &lv_style_btn_rel);
 189:..\..\..\lvgl\version_6.1.2\lvgl\src\lv_core/lv_style.c ****     lv_style_btn_pr.body.main_color = lv_color_make(0x33, 0x62, 0x94);
 190:..\..\..\lvgl\version_6.1.2\lvgl\src\lv_core/lv_style.c ****     lv_style_btn_pr.body.grad_color = lv_color_make(0x10, 0x26, 0x3c);
 191:..\..\..\lvgl\version_6.1.2\lvgl\src\lv_core/lv_style.c ****     lv_style_btn_pr.text.color      = lv_color_make(0xa4, 0xb5, 0xc6);
 192:..\..\..\lvgl\version_6.1.2\lvgl\src\lv_core/lv_style.c ****     lv_style_btn_pr.image.color     = lv_color_make(0xa4, 0xb5, 0xc6);
 193:..\..\..\lvgl\version_6.1.2\lvgl\src\lv_core/lv_style.c ****     lv_style_btn_pr.line.color      = lv_color_make(0xa4, 0xb5, 0xc6);
 194:..\..\..\lvgl\version_6.1.2\lvgl\src\lv_core/lv_style.c **** 
 195:..\..\..\lvgl\version_6.1.2\lvgl\src\lv_core/lv_style.c ****     /*Button toggle released style*/
 196:..\..\..\lvgl\version_6.1.2\lvgl\src\lv_core/lv_style.c ****     lv_style_copy(&lv_style_btn_tgl_rel, &lv_style_btn_rel);
 197:..\..\..\lvgl\version_6.1.2\lvgl\src\lv_core/lv_style.c ****     lv_style_btn_tgl_rel.body.main_color   = lv_color_make(0x0a, 0x11, 0x22);
 198:..\..\..\lvgl\version_6.1.2\lvgl\src\lv_core/lv_style.c ****     lv_style_btn_tgl_rel.body.grad_color   = lv_color_make(0x37, 0x62, 0x90);
 199:..\..\..\lvgl\version_6.1.2\lvgl\src\lv_core/lv_style.c ****     lv_style_btn_tgl_rel.body.border.color = lv_color_make(0x01, 0x07, 0x0d);
 200:..\..\..\lvgl\version_6.1.2\lvgl\src\lv_core/lv_style.c ****     lv_style_btn_tgl_rel.text.color        = lv_color_make(0xc8, 0xdd, 0xf4);
 201:..\..\..\lvgl\version_6.1.2\lvgl\src\lv_core/lv_style.c ****     lv_style_btn_tgl_rel.image.color       = lv_color_make(0xc8, 0xdd, 0xf4);
ARM GAS  C:\Users\pearlstl\AppData\Local\Temp\ccvteysW.s 			page 5


 202:..\..\..\lvgl\version_6.1.2\lvgl\src\lv_core/lv_style.c ****     lv_style_btn_tgl_rel.line.color        = lv_color_make(0xc8, 0xdd, 0xf4);
 203:..\..\..\lvgl\version_6.1.2\lvgl\src\lv_core/lv_style.c **** 
 204:..\..\..\lvgl\version_6.1.2\lvgl\src\lv_core/lv_style.c ****     /*Button toggle pressed style*/
 205:..\..\..\lvgl\version_6.1.2\lvgl\src\lv_core/lv_style.c ****     lv_style_copy(&lv_style_btn_tgl_pr, &lv_style_btn_tgl_rel);
 206:..\..\..\lvgl\version_6.1.2\lvgl\src\lv_core/lv_style.c ****     lv_style_btn_tgl_pr.body.main_color = lv_color_make(0x02, 0x14, 0x27);
 207:..\..\..\lvgl\version_6.1.2\lvgl\src\lv_core/lv_style.c ****     lv_style_btn_tgl_pr.body.grad_color = lv_color_make(0x2b, 0x4c, 0x70);
 208:..\..\..\lvgl\version_6.1.2\lvgl\src\lv_core/lv_style.c ****     lv_style_btn_tgl_pr.text.color      = lv_color_make(0xa4, 0xb5, 0xc6);
 209:..\..\..\lvgl\version_6.1.2\lvgl\src\lv_core/lv_style.c ****     lv_style_btn_tgl_pr.image.color     = lv_color_make(0xa4, 0xb5, 0xc6);
 210:..\..\..\lvgl\version_6.1.2\lvgl\src\lv_core/lv_style.c ****     lv_style_btn_tgl_pr.line.color      = lv_color_make(0xa4, 0xb5, 0xc6);
 211:..\..\..\lvgl\version_6.1.2\lvgl\src\lv_core/lv_style.c **** 
 212:..\..\..\lvgl\version_6.1.2\lvgl\src\lv_core/lv_style.c ****     /*Button inactive style*/
 213:..\..\..\lvgl\version_6.1.2\lvgl\src\lv_core/lv_style.c ****     lv_style_copy(&lv_style_btn_ina, &lv_style_btn_rel);
 214:..\..\..\lvgl\version_6.1.2\lvgl\src\lv_core/lv_style.c ****     lv_style_btn_ina.body.main_color   = lv_color_make(0xd8, 0xd8, 0xd8);
 215:..\..\..\lvgl\version_6.1.2\lvgl\src\lv_core/lv_style.c ****     lv_style_btn_ina.body.grad_color   = lv_color_make(0xd8, 0xd8, 0xd8);
 216:..\..\..\lvgl\version_6.1.2\lvgl\src\lv_core/lv_style.c ****     lv_style_btn_ina.body.border.color = lv_color_make(0x90, 0x90, 0x90);
 217:..\..\..\lvgl\version_6.1.2\lvgl\src\lv_core/lv_style.c ****     lv_style_btn_ina.text.color        = lv_color_make(0x70, 0x70, 0x70);
 218:..\..\..\lvgl\version_6.1.2\lvgl\src\lv_core/lv_style.c ****     lv_style_btn_ina.image.color       = lv_color_make(0x70, 0x70, 0x70);
 219:..\..\..\lvgl\version_6.1.2\lvgl\src\lv_core/lv_style.c ****     lv_style_btn_ina.line.color        = lv_color_make(0x70, 0x70, 0x70);
 220:..\..\..\lvgl\version_6.1.2\lvgl\src\lv_core/lv_style.c **** }
 221:..\..\..\lvgl\version_6.1.2\lvgl\src\lv_core/lv_style.c **** 
 222:..\..\..\lvgl\version_6.1.2\lvgl\src\lv_core/lv_style.c **** /**
 223:..\..\..\lvgl\version_6.1.2\lvgl\src\lv_core/lv_style.c ****  * Copy a style to an other
 224:..\..\..\lvgl\version_6.1.2\lvgl\src\lv_core/lv_style.c ****  * @param dest pointer to the destination style
 225:..\..\..\lvgl\version_6.1.2\lvgl\src\lv_core/lv_style.c ****  * @param src pointer to the source style
 226:..\..\..\lvgl\version_6.1.2\lvgl\src\lv_core/lv_style.c ****  */
 227:..\..\..\lvgl\version_6.1.2\lvgl\src\lv_core/lv_style.c **** void lv_style_copy(lv_style_t * dest, const lv_style_t * src)
 228:..\..\..\lvgl\version_6.1.2\lvgl\src\lv_core/lv_style.c **** {
 229:..\..\..\lvgl\version_6.1.2\lvgl\src\lv_core/lv_style.c ****     memcpy(dest, src, sizeof(lv_style_t));
 230:..\..\..\lvgl\version_6.1.2\lvgl\src\lv_core/lv_style.c **** }
 231:..\..\..\lvgl\version_6.1.2\lvgl\src\lv_core/lv_style.c **** 
 232:..\..\..\lvgl\version_6.1.2\lvgl\src\lv_core/lv_style.c **** /**
 233:..\..\..\lvgl\version_6.1.2\lvgl\src\lv_core/lv_style.c ****  * Mix two styles according to a given ratio
 234:..\..\..\lvgl\version_6.1.2\lvgl\src\lv_core/lv_style.c ****  * @param start start style
 235:..\..\..\lvgl\version_6.1.2\lvgl\src\lv_core/lv_style.c ****  * @param end end style
 236:..\..\..\lvgl\version_6.1.2\lvgl\src\lv_core/lv_style.c ****  * @param res store the result style here
 237:..\..\..\lvgl\version_6.1.2\lvgl\src\lv_core/lv_style.c ****  * @param ratio the ratio of mix [0..256]; 0: `start` style; 256: `end` style
 238:..\..\..\lvgl\version_6.1.2\lvgl\src\lv_core/lv_style.c ****  */
 239:..\..\..\lvgl\version_6.1.2\lvgl\src\lv_core/lv_style.c **** void lv_style_mix(const lv_style_t * start, const lv_style_t * end, lv_style_t * res, uint16_t rati
 240:..\..\..\lvgl\version_6.1.2\lvgl\src\lv_core/lv_style.c **** {
 241:..\..\..\lvgl\version_6.1.2\lvgl\src\lv_core/lv_style.c ****     STYLE_ATTR_MIX(body.opa, ratio);
 242:..\..\..\lvgl\version_6.1.2\lvgl\src\lv_core/lv_style.c ****     STYLE_ATTR_MIX(body.radius, ratio);
 243:..\..\..\lvgl\version_6.1.2\lvgl\src\lv_core/lv_style.c ****     STYLE_ATTR_MIX(body.border.width, ratio);
 244:..\..\..\lvgl\version_6.1.2\lvgl\src\lv_core/lv_style.c ****     STYLE_ATTR_MIX(body.border.opa, ratio);
 245:..\..\..\lvgl\version_6.1.2\lvgl\src\lv_core/lv_style.c ****     STYLE_ATTR_MIX(body.shadow.width, ratio);
 246:..\..\..\lvgl\version_6.1.2\lvgl\src\lv_core/lv_style.c ****     STYLE_ATTR_MIX(body.padding.left, ratio);
 247:..\..\..\lvgl\version_6.1.2\lvgl\src\lv_core/lv_style.c ****     STYLE_ATTR_MIX(body.padding.right, ratio);
 248:..\..\..\lvgl\version_6.1.2\lvgl\src\lv_core/lv_style.c ****     STYLE_ATTR_MIX(body.padding.top, ratio);
 249:..\..\..\lvgl\version_6.1.2\lvgl\src\lv_core/lv_style.c ****     STYLE_ATTR_MIX(body.padding.bottom, ratio);
 250:..\..\..\lvgl\version_6.1.2\lvgl\src\lv_core/lv_style.c ****     STYLE_ATTR_MIX(body.padding.inner, ratio);
 251:..\..\..\lvgl\version_6.1.2\lvgl\src\lv_core/lv_style.c ****     STYLE_ATTR_MIX(text.line_space, ratio);
 252:..\..\..\lvgl\version_6.1.2\lvgl\src\lv_core/lv_style.c ****     STYLE_ATTR_MIX(text.letter_space, ratio);
 253:..\..\..\lvgl\version_6.1.2\lvgl\src\lv_core/lv_style.c ****     STYLE_ATTR_MIX(text.opa, ratio);
 254:..\..\..\lvgl\version_6.1.2\lvgl\src\lv_core/lv_style.c ****     STYLE_ATTR_MIX(line.width, ratio);
 255:..\..\..\lvgl\version_6.1.2\lvgl\src\lv_core/lv_style.c ****     STYLE_ATTR_MIX(line.opa, ratio);
 256:..\..\..\lvgl\version_6.1.2\lvgl\src\lv_core/lv_style.c ****     STYLE_ATTR_MIX(image.intense, ratio);
 257:..\..\..\lvgl\version_6.1.2\lvgl\src\lv_core/lv_style.c ****     STYLE_ATTR_MIX(image.opa, ratio);
 258:..\..\..\lvgl\version_6.1.2\lvgl\src\lv_core/lv_style.c **** 
ARM GAS  C:\Users\pearlstl\AppData\Local\Temp\ccvteysW.s 			page 6


 259:..\..\..\lvgl\version_6.1.2\lvgl\src\lv_core/lv_style.c ****     lv_opa_t opa = ratio == STYLE_MIX_MAX ? LV_OPA_COVER : ratio;
 260:..\..\..\lvgl\version_6.1.2\lvgl\src\lv_core/lv_style.c **** 
 261:..\..\..\lvgl\version_6.1.2\lvgl\src\lv_core/lv_style.c ****     res->body.main_color   = lv_color_mix(end->body.main_color, start->body.main_color, opa);
 262:..\..\..\lvgl\version_6.1.2\lvgl\src\lv_core/lv_style.c ****     res->body.grad_color   = lv_color_mix(end->body.grad_color, start->body.grad_color, opa);
 263:..\..\..\lvgl\version_6.1.2\lvgl\src\lv_core/lv_style.c ****     res->body.border.color = lv_color_mix(end->body.border.color, start->body.border.color, opa);
 264:..\..\..\lvgl\version_6.1.2\lvgl\src\lv_core/lv_style.c ****     res->body.shadow.color = lv_color_mix(end->body.shadow.color, start->body.shadow.color, opa);
 265:..\..\..\lvgl\version_6.1.2\lvgl\src\lv_core/lv_style.c ****     res->text.color        = lv_color_mix(end->text.color, start->text.color, opa);
 266:..\..\..\lvgl\version_6.1.2\lvgl\src\lv_core/lv_style.c ****     res->image.color       = lv_color_mix(end->image.color, start->image.color, opa);
 267:..\..\..\lvgl\version_6.1.2\lvgl\src\lv_core/lv_style.c ****     res->line.color        = lv_color_mix(end->line.color, start->line.color, opa);
 268:..\..\..\lvgl\version_6.1.2\lvgl\src\lv_core/lv_style.c **** 
 269:..\..\..\lvgl\version_6.1.2\lvgl\src\lv_core/lv_style.c ****     if(ratio < (STYLE_MIX_MAX >> 1)) {
 270:..\..\..\lvgl\version_6.1.2\lvgl\src\lv_core/lv_style.c ****         res->body.border.part = start->body.border.part;
 271:..\..\..\lvgl\version_6.1.2\lvgl\src\lv_core/lv_style.c ****         res->glass            = start->glass;
 272:..\..\..\lvgl\version_6.1.2\lvgl\src\lv_core/lv_style.c ****         res->text.font        = start->text.font;
 273:..\..\..\lvgl\version_6.1.2\lvgl\src\lv_core/lv_style.c ****         res->body.shadow.type = start->body.shadow.type;
 274:..\..\..\lvgl\version_6.1.2\lvgl\src\lv_core/lv_style.c ****         res->line.rounded     = start->line.rounded;
 275:..\..\..\lvgl\version_6.1.2\lvgl\src\lv_core/lv_style.c ****     } else {
 276:..\..\..\lvgl\version_6.1.2\lvgl\src\lv_core/lv_style.c ****         res->body.border.part = end->body.border.part;
 277:..\..\..\lvgl\version_6.1.2\lvgl\src\lv_core/lv_style.c ****         res->glass            = end->glass;
 278:..\..\..\lvgl\version_6.1.2\lvgl\src\lv_core/lv_style.c ****         res->text.font        = end->text.font;
 279:..\..\..\lvgl\version_6.1.2\lvgl\src\lv_core/lv_style.c ****         res->body.shadow.type = end->body.shadow.type;
 280:..\..\..\lvgl\version_6.1.2\lvgl\src\lv_core/lv_style.c ****         res->line.rounded     = end->line.rounded;
 281:..\..\..\lvgl\version_6.1.2\lvgl\src\lv_core/lv_style.c ****     }
 282:..\..\..\lvgl\version_6.1.2\lvgl\src\lv_core/lv_style.c **** }
 283:..\..\..\lvgl\version_6.1.2\lvgl\src\lv_core/lv_style.c **** 
 284:..\..\..\lvgl\version_6.1.2\lvgl\src\lv_core/lv_style.c **** #if LV_USE_ANIMATION
 285:..\..\..\lvgl\version_6.1.2\lvgl\src\lv_core/lv_style.c **** 
 286:..\..\..\lvgl\version_6.1.2\lvgl\src\lv_core/lv_style.c **** void lv_style_anim_init(lv_anim_t * a)
 287:..\..\..\lvgl\version_6.1.2\lvgl\src\lv_core/lv_style.c **** {
 288:..\..\..\lvgl\version_6.1.2\lvgl\src\lv_core/lv_style.c ****     lv_anim_init(a);
 289:..\..\..\lvgl\version_6.1.2\lvgl\src\lv_core/lv_style.c ****     a->start    = 0;
 290:..\..\..\lvgl\version_6.1.2\lvgl\src\lv_core/lv_style.c ****     a->end      = STYLE_MIX_MAX;
 291:..\..\..\lvgl\version_6.1.2\lvgl\src\lv_core/lv_style.c ****     a->exec_cb  = (lv_anim_exec_xcb_t)style_animator;
 292:..\..\..\lvgl\version_6.1.2\lvgl\src\lv_core/lv_style.c ****     a->path_cb  = lv_anim_path_linear;
 293:..\..\..\lvgl\version_6.1.2\lvgl\src\lv_core/lv_style.c ****     a->ready_cb = style_animation_common_end_cb;
 294:..\..\..\lvgl\version_6.1.2\lvgl\src\lv_core/lv_style.c **** 
 295:..\..\..\lvgl\version_6.1.2\lvgl\src\lv_core/lv_style.c ****     lv_style_anim_dsc_t * dsc;
 296:..\..\..\lvgl\version_6.1.2\lvgl\src\lv_core/lv_style.c ****     dsc = lv_mem_alloc(sizeof(lv_style_anim_dsc_t));
 297:..\..\..\lvgl\version_6.1.2\lvgl\src\lv_core/lv_style.c ****     LV_ASSERT_MEM(dsc);
 298:..\..\..\lvgl\version_6.1.2\lvgl\src\lv_core/lv_style.c ****     if(dsc == NULL) return;
 299:..\..\..\lvgl\version_6.1.2\lvgl\src\lv_core/lv_style.c ****     dsc->ready_cb   = NULL;
 300:..\..\..\lvgl\version_6.1.2\lvgl\src\lv_core/lv_style.c ****     dsc->style_anim = NULL;
 301:..\..\..\lvgl\version_6.1.2\lvgl\src\lv_core/lv_style.c ****     lv_style_copy(&dsc->style_start, &lv_style_plain);
 302:..\..\..\lvgl\version_6.1.2\lvgl\src\lv_core/lv_style.c ****     lv_style_copy(&dsc->style_end, &lv_style_plain);
 303:..\..\..\lvgl\version_6.1.2\lvgl\src\lv_core/lv_style.c **** 
 304:..\..\..\lvgl\version_6.1.2\lvgl\src\lv_core/lv_style.c ****     a->var = (void *)dsc;
 305:..\..\..\lvgl\version_6.1.2\lvgl\src\lv_core/lv_style.c **** }
 306:..\..\..\lvgl\version_6.1.2\lvgl\src\lv_core/lv_style.c **** 
 307:..\..\..\lvgl\version_6.1.2\lvgl\src\lv_core/lv_style.c **** void lv_style_anim_set_styles(lv_anim_t * a, lv_style_t * to_anim, const lv_style_t * start, const 
 308:..\..\..\lvgl\version_6.1.2\lvgl\src\lv_core/lv_style.c **** {
 309:..\..\..\lvgl\version_6.1.2\lvgl\src\lv_core/lv_style.c **** 
 310:..\..\..\lvgl\version_6.1.2\lvgl\src\lv_core/lv_style.c ****     lv_style_anim_dsc_t * dsc = a->var;
 311:..\..\..\lvgl\version_6.1.2\lvgl\src\lv_core/lv_style.c ****     dsc->style_anim           = to_anim;
 312:..\..\..\lvgl\version_6.1.2\lvgl\src\lv_core/lv_style.c ****     memcpy(&dsc->style_start, start, sizeof(lv_style_t));
 313:..\..\..\lvgl\version_6.1.2\lvgl\src\lv_core/lv_style.c ****     memcpy(&dsc->style_end, end, sizeof(lv_style_t));
 314:..\..\..\lvgl\version_6.1.2\lvgl\src\lv_core/lv_style.c ****     memcpy(dsc->style_anim, start, sizeof(lv_style_t));
 315:..\..\..\lvgl\version_6.1.2\lvgl\src\lv_core/lv_style.c **** }
ARM GAS  C:\Users\pearlstl\AppData\Local\Temp\ccvteysW.s 			page 7


 316:..\..\..\lvgl\version_6.1.2\lvgl\src\lv_core/lv_style.c **** #endif
 317:..\..\..\lvgl\version_6.1.2\lvgl\src\lv_core/lv_style.c **** /**********************
 318:..\..\..\lvgl\version_6.1.2\lvgl\src\lv_core/lv_style.c ****  *   STATIC FUNCTIONS
 319:..\..\..\lvgl\version_6.1.2\lvgl\src\lv_core/lv_style.c ****  **********************/
 320:..\..\..\lvgl\version_6.1.2\lvgl\src\lv_core/lv_style.c **** #if LV_USE_ANIMATION
 321:..\..\..\lvgl\version_6.1.2\lvgl\src\lv_core/lv_style.c **** /**
 322:..\..\..\lvgl\version_6.1.2\lvgl\src\lv_core/lv_style.c ****  * Used by the style animations to set the values of a style according to start and end style.
 323:..\..\..\lvgl\version_6.1.2\lvgl\src\lv_core/lv_style.c ****  * @param dsc the 'animated variable' set by lv_style_anim_create()
 324:..\..\..\lvgl\version_6.1.2\lvgl\src\lv_core/lv_style.c ****  * @param val the current state of the animation between 0 and LV_ANIM_RESOLUTION
 325:..\..\..\lvgl\version_6.1.2\lvgl\src\lv_core/lv_style.c ****  */
 326:..\..\..\lvgl\version_6.1.2\lvgl\src\lv_core/lv_style.c **** static void style_animator(lv_style_anim_dsc_t * dsc, lv_anim_value_t val)
 327:..\..\..\lvgl\version_6.1.2\lvgl\src\lv_core/lv_style.c **** {
 328:..\..\..\lvgl\version_6.1.2\lvgl\src\lv_core/lv_style.c ****     const lv_style_t * start = &dsc->style_start;
 329:..\..\..\lvgl\version_6.1.2\lvgl\src\lv_core/lv_style.c ****     const lv_style_t * end   = &dsc->style_end;
 330:..\..\..\lvgl\version_6.1.2\lvgl\src\lv_core/lv_style.c ****     lv_style_t * act         = dsc->style_anim;
 331:..\..\..\lvgl\version_6.1.2\lvgl\src\lv_core/lv_style.c **** 
 332:..\..\..\lvgl\version_6.1.2\lvgl\src\lv_core/lv_style.c ****     lv_style_mix(start, end, act, val);
 333:..\..\..\lvgl\version_6.1.2\lvgl\src\lv_core/lv_style.c **** 
 334:..\..\..\lvgl\version_6.1.2\lvgl\src\lv_core/lv_style.c ****     lv_obj_report_style_mod(dsc->style_anim);
 335:..\..\..\lvgl\version_6.1.2\lvgl\src\lv_core/lv_style.c **** }
 336:..\..\..\lvgl\version_6.1.2\lvgl\src\lv_core/lv_style.c **** 
 337:..\..\..\lvgl\version_6.1.2\lvgl\src\lv_core/lv_style.c **** /**
 338:..\..\..\lvgl\version_6.1.2\lvgl\src\lv_core/lv_style.c ****  * Called when a style animation is ready
 339:..\..\..\lvgl\version_6.1.2\lvgl\src\lv_core/lv_style.c ****  * It called the user defined call back and free the allocated memories
 340:..\..\..\lvgl\version_6.1.2\lvgl\src\lv_core/lv_style.c ****  * @param a pointer to the animation
 341:..\..\..\lvgl\version_6.1.2\lvgl\src\lv_core/lv_style.c ****  */
 342:..\..\..\lvgl\version_6.1.2\lvgl\src\lv_core/lv_style.c **** static void style_animation_common_end_cb(lv_anim_t * a)
 343:..\..\..\lvgl\version_6.1.2\lvgl\src\lv_core/lv_style.c **** {
  28              		.loc 1 343 0
  29              		.cfi_startproc
  30              		@ args = 0, pretend = 0, frame = 0
  31              		@ frame_needed = 0, uses_anonymous_args = 0
  32              	.LVL0:
  33 0000 10B5     		push	{r4, lr}
  34              		.cfi_def_cfa_offset 8
  35              		.cfi_offset 4, -8
  36              		.cfi_offset 14, -4
 344:..\..\..\lvgl\version_6.1.2\lvgl\src\lv_core/lv_style.c **** 
 345:..\..\..\lvgl\version_6.1.2\lvgl\src\lv_core/lv_style.c ****     (void)a;                            /*Unused*/
 346:..\..\..\lvgl\version_6.1.2\lvgl\src\lv_core/lv_style.c ****     lv_style_anim_dsc_t * dsc = a->var; /*To avoid casting*/
  37              		.loc 1 346 0
  38 0002 0468     		ldr	r4, [r0]
  39              	.LVL1:
 347:..\..\..\lvgl\version_6.1.2\lvgl\src\lv_core/lv_style.c **** 
 348:..\..\..\lvgl\version_6.1.2\lvgl\src\lv_core/lv_style.c ****     if(dsc->ready_cb) dsc->ready_cb(a);
  40              		.loc 1 348 0
  41 0004 D4F8A430 		ldr	r3, [r4, #164]
  42 0008 03B1     		cbz	r3, .L2
  43              		.loc 1 348 0 is_stmt 0 discriminator 1
  44 000a 9847     		blx	r3
  45              	.LVL2:
  46              	.L2:
 349:..\..\..\lvgl\version_6.1.2\lvgl\src\lv_core/lv_style.c **** 
 350:..\..\..\lvgl\version_6.1.2\lvgl\src\lv_core/lv_style.c ****     lv_mem_free(dsc);
  47              		.loc 1 350 0 is_stmt 1
  48 000c 2046     		mov	r0, r4
 351:..\..\..\lvgl\version_6.1.2\lvgl\src\lv_core/lv_style.c **** }
ARM GAS  C:\Users\pearlstl\AppData\Local\Temp\ccvteysW.s 			page 8


  49              		.loc 1 351 0
  50 000e BDE81040 		pop	{r4, lr}
  51              		.cfi_restore 14
  52              		.cfi_restore 4
  53              		.cfi_def_cfa_offset 0
  54              	.LVL3:
 350:..\..\..\lvgl\version_6.1.2\lvgl\src\lv_core/lv_style.c **** }
  55              		.loc 1 350 0
  56 0012 FFF7FEBF 		b	lv_mem_free
  57              	.LVL4:
  58              		.cfi_endproc
  59              	.LFE37:
  60              		.size	style_animation_common_end_cb, .-style_animation_common_end_cb
  61 0016 00BF     		.section	.text.style_animator,"ax",%progbits
  62              		.align	2
  63              		.thumb
  64              		.thumb_func
  65              		.type	style_animator, %function
  66              	style_animator:
  67              	.LFB36:
 327:..\..\..\lvgl\version_6.1.2\lvgl\src\lv_core/lv_style.c ****     const lv_style_t * start = &dsc->style_start;
  68              		.loc 1 327 0
  69              		.cfi_startproc
  70              		@ args = 0, pretend = 0, frame = 0
  71              		@ frame_needed = 0, uses_anonymous_args = 0
  72              	.LVL5:
  73 0000 2DE9F043 		push	{r4, r5, r6, r7, r8, r9, lr}
  74              		.cfi_def_cfa_offset 28
  75              		.cfi_offset 4, -28
  76              		.cfi_offset 5, -24
  77              		.cfi_offset 6, -20
  78              		.cfi_offset 7, -16
  79              		.cfi_offset 8, -12
  80              		.cfi_offset 9, -8
  81              		.cfi_offset 14, -4
  82              	.LBB150:
  83              	.LBB151:
 241:..\..\..\lvgl\version_6.1.2\lvgl\src\lv_core/lv_style.c ****     STYLE_ATTR_MIX(body.radius, ratio);
  84              		.loc 1 241 0
  85 0004 857B     		ldrb	r5, [r0, #14]	@ zero_extendqisi2
  86 0006 90F85E20 		ldrb	r2, [r0, #94]	@ zero_extendqisi2
  87              	.LBE151:
  88              	.LBE150:
 330:..\..\..\lvgl\version_6.1.2\lvgl\src\lv_core/lv_style.c **** 
  89              		.loc 1 330 0
  90 000a D0F8A030 		ldr	r3, [r0, #160]
  91              	.LVL6:
  92              	.LBB226:
  93              	.LBB222:
 241:..\..\..\lvgl\version_6.1.2\lvgl\src\lv_core/lv_style.c ****     STYLE_ATTR_MIX(body.radius, ratio);
  94              		.loc 1 241 0
  95 000e 9542     		cmp	r5, r2
  96              	.LBE222:
  97              	.LBE226:
 332:..\..\..\lvgl\version_6.1.2\lvgl\src\lv_core/lv_style.c **** 
  98              		.loc 1 332 0
  99 0010 8CB2     		uxth	r4, r1
ARM GAS  C:\Users\pearlstl\AppData\Local\Temp\ccvteysW.s 			page 9


 100              	.LVL7:
 101              	.LBB227:
 102              	.LBB223:
 241:..\..\..\lvgl\version_6.1.2\lvgl\src\lv_core/lv_style.c ****     STYLE_ATTR_MIX(body.radius, ratio);
 103              		.loc 1 241 0
 104 0012 05D0     		beq	.L9
 105 0014 521B     		subs	r2, r2, r5
 106 0016 04FB02F2 		mul	r2, r4, r2
 107 001a 05EB2222 		add	r2, r5, r2, asr #8
 108 001e D2B2     		uxtb	r2, r2
 109              	.L9:
 110 0020 9A73     		strb	r2, [r3, #14]
 242:..\..\..\lvgl\version_6.1.2\lvgl\src\lv_core/lv_style.c ****     STYLE_ATTR_MIX(body.border.width, ratio);
 111              		.loc 1 242 0
 112 0022 B0F90C20 		ldrsh	r2, [r0, #12]
 113 0026 B0F95C50 		ldrsh	r5, [r0, #92]
 114 002a AA42     		cmp	r2, r5
 115 002c 05D0     		beq	.L10
 116 002e AD1A     		subs	r5, r5, r2
 117 0030 04FB05F5 		mul	r5, r4, r5
 118 0034 02EB2525 		add	r5, r2, r5, asr #8
 119 0038 2DB2     		sxth	r5, r5
 120              	.L10:
 243:..\..\..\lvgl\version_6.1.2\lvgl\src\lv_core/lv_style.c ****     STYLE_ATTR_MIX(body.border.opa, ratio);
 121              		.loc 1 243 0
 122 003a B0F91460 		ldrsh	r6, [r0, #20]
 123 003e B0F96420 		ldrsh	r2, [r0, #100]
 124 0042 9D81     		strh	r5, [r3, #12]	@ movhi
 125 0044 9642     		cmp	r6, r2
 126 0046 05D0     		beq	.L11
 127 0048 921B     		subs	r2, r2, r6
 128 004a 04FB02F2 		mul	r2, r4, r2
 129 004e 06EB2222 		add	r2, r6, r2, asr #8
 130 0052 12B2     		sxth	r2, r2
 131              	.L11:
 132 0054 9A82     		strh	r2, [r3, #20]	@ movhi
 244:..\..\..\lvgl\version_6.1.2\lvgl\src\lv_core/lv_style.c ****     STYLE_ATTR_MIX(body.shadow.width, ratio);
 133              		.loc 1 244 0
 134 0056 C57D     		ldrb	r5, [r0, #23]	@ zero_extendqisi2
 135 0058 90F86720 		ldrb	r2, [r0, #103]	@ zero_extendqisi2
 136 005c 9542     		cmp	r5, r2
 137 005e 05D0     		beq	.L12
 138 0060 521B     		subs	r2, r2, r5
 139 0062 04FB02F2 		mul	r2, r4, r2
 140 0066 05EB2222 		add	r2, r5, r2, asr #8
 141 006a D2B2     		uxtb	r2, r2
 142              	.L12:
 143 006c DA75     		strb	r2, [r3, #23]
 245:..\..\..\lvgl\version_6.1.2\lvgl\src\lv_core/lv_style.c ****     STYLE_ATTR_MIX(body.padding.left, ratio);
 144              		.loc 1 245 0
 145 006e B0F91C20 		ldrsh	r2, [r0, #28]
 146 0072 B0F96C50 		ldrsh	r5, [r0, #108]
 147 0076 AA42     		cmp	r2, r5
 148 0078 05D0     		beq	.L13
 149 007a AD1A     		subs	r5, r5, r2
 150 007c 04FB05F5 		mul	r5, r4, r5
 151 0080 02EB2525 		add	r5, r2, r5, asr #8
ARM GAS  C:\Users\pearlstl\AppData\Local\Temp\ccvteysW.s 			page 10


 152 0084 2DB2     		sxth	r5, r5
 153              	.L13:
 246:..\..\..\lvgl\version_6.1.2\lvgl\src\lv_core/lv_style.c ****     STYLE_ATTR_MIX(body.padding.right, ratio);
 154              		.loc 1 246 0
 155 0086 B0F92460 		ldrsh	r6, [r0, #36]
 156 008a B0F97420 		ldrsh	r2, [r0, #116]
 157 008e 9D83     		strh	r5, [r3, #28]	@ movhi
 158 0090 9642     		cmp	r6, r2
 159 0092 05D0     		beq	.L14
 160 0094 921B     		subs	r2, r2, r6
 161 0096 04FB02F2 		mul	r2, r4, r2
 162 009a 06EB2222 		add	r2, r6, r2, asr #8
 163 009e 12B2     		sxth	r2, r2
 164              	.L14:
 247:..\..\..\lvgl\version_6.1.2\lvgl\src\lv_core/lv_style.c ****     STYLE_ATTR_MIX(body.padding.top, ratio);
 165              		.loc 1 247 0
 166 00a0 B0F92660 		ldrsh	r6, [r0, #38]
 167 00a4 B0F97650 		ldrsh	r5, [r0, #118]
 168 00a8 9A84     		strh	r2, [r3, #36]	@ movhi
 169 00aa AE42     		cmp	r6, r5
 170 00ac 05D0     		beq	.L15
 171 00ae AD1B     		subs	r5, r5, r6
 172 00b0 04FB05F5 		mul	r5, r4, r5
 173 00b4 06EB2525 		add	r5, r6, r5, asr #8
 174 00b8 2DB2     		sxth	r5, r5
 175              	.L15:
 248:..\..\..\lvgl\version_6.1.2\lvgl\src\lv_core/lv_style.c ****     STYLE_ATTR_MIX(body.padding.bottom, ratio);
 176              		.loc 1 248 0
 177 00ba B0F92060 		ldrsh	r6, [r0, #32]
 178 00be B0F97020 		ldrsh	r2, [r0, #112]
 179 00c2 DD84     		strh	r5, [r3, #38]	@ movhi
 180 00c4 9642     		cmp	r6, r2
 181 00c6 05D0     		beq	.L16
 182 00c8 921B     		subs	r2, r2, r6
 183 00ca 04FB02F2 		mul	r2, r4, r2
 184 00ce 06EB2222 		add	r2, r6, r2, asr #8
 185 00d2 12B2     		sxth	r2, r2
 186              	.L16:
 249:..\..\..\lvgl\version_6.1.2\lvgl\src\lv_core/lv_style.c ****     STYLE_ATTR_MIX(body.padding.inner, ratio);
 187              		.loc 1 249 0
 188 00d4 B0F92260 		ldrsh	r6, [r0, #34]
 189 00d8 B0F97250 		ldrsh	r5, [r0, #114]
 190 00dc 1A84     		strh	r2, [r3, #32]	@ movhi
 191 00de AE42     		cmp	r6, r5
 192 00e0 05D0     		beq	.L17
 193 00e2 AD1B     		subs	r5, r5, r6
 194 00e4 04FB05F5 		mul	r5, r4, r5
 195 00e8 06EB2525 		add	r5, r6, r5, asr #8
 196 00ec 2DB2     		sxth	r5, r5
 197              	.L17:
 250:..\..\..\lvgl\version_6.1.2\lvgl\src\lv_core/lv_style.c ****     STYLE_ATTR_MIX(text.line_space, ratio);
 198              		.loc 1 250 0
 199 00ee B0F92860 		ldrsh	r6, [r0, #40]
 200 00f2 B0F97820 		ldrsh	r2, [r0, #120]
 201 00f6 5D84     		strh	r5, [r3, #34]	@ movhi
 202 00f8 9642     		cmp	r6, r2
 203 00fa 05D0     		beq	.L18
ARM GAS  C:\Users\pearlstl\AppData\Local\Temp\ccvteysW.s 			page 11


 204 00fc 921B     		subs	r2, r2, r6
 205 00fe 04FB02F2 		mul	r2, r4, r2
 206 0102 06EB2222 		add	r2, r6, r2, asr #8
 207 0106 12B2     		sxth	r2, r2
 208              	.L18:
 251:..\..\..\lvgl\version_6.1.2\lvgl\src\lv_core/lv_style.c ****     STYLE_ATTR_MIX(text.letter_space, ratio);
 209              		.loc 1 251 0
 210 0108 B0F93A60 		ldrsh	r6, [r0, #58]
 211 010c B0F98A50 		ldrsh	r5, [r0, #138]
 212 0110 1A85     		strh	r2, [r3, #40]	@ movhi
 213 0112 AE42     		cmp	r6, r5
 214 0114 05D0     		beq	.L19
 215 0116 AD1B     		subs	r5, r5, r6
 216 0118 04FB05F5 		mul	r5, r4, r5
 217 011c 06EB2525 		add	r5, r6, r5, asr #8
 218 0120 2DB2     		sxth	r5, r5
 219              	.L19:
 252:..\..\..\lvgl\version_6.1.2\lvgl\src\lv_core/lv_style.c ****     STYLE_ATTR_MIX(text.opa, ratio);
 220              		.loc 1 252 0
 221 0122 B0F93860 		ldrsh	r6, [r0, #56]
 222 0126 B0F98820 		ldrsh	r2, [r0, #136]
 223 012a 5D87     		strh	r5, [r3, #58]	@ movhi
 224 012c 9642     		cmp	r6, r2
 225 012e 05D0     		beq	.L20
 226 0130 921B     		subs	r2, r2, r6
 227 0132 04FB02F2 		mul	r2, r4, r2
 228 0136 06EB2222 		add	r2, r6, r2, asr #8
 229 013a 12B2     		sxth	r2, r2
 230              	.L20:
 231 013c 1A87     		strh	r2, [r3, #56]	@ movhi
 253:..\..\..\lvgl\version_6.1.2\lvgl\src\lv_core/lv_style.c ****     STYLE_ATTR_MIX(line.width, ratio);
 232              		.loc 1 253 0
 233 013e 90F83C50 		ldrb	r5, [r0, #60]	@ zero_extendqisi2
 234 0142 90F88C20 		ldrb	r2, [r0, #140]	@ zero_extendqisi2
 235 0146 9542     		cmp	r5, r2
 236 0148 05D0     		beq	.L21
 237 014a 521B     		subs	r2, r2, r5
 238 014c 04FB02F2 		mul	r2, r4, r2
 239 0150 05EB2222 		add	r2, r5, r2, asr #8
 240 0154 D2B2     		uxtb	r2, r2
 241              	.L21:
 242 0156 83F83C20 		strb	r2, [r3, #60]
 254:..\..\..\lvgl\version_6.1.2\lvgl\src\lv_core/lv_style.c ****     STYLE_ATTR_MIX(line.opa, ratio);
 243              		.loc 1 254 0
 244 015a B0F94C50 		ldrsh	r5, [r0, #76]
 245 015e B0F99C20 		ldrsh	r2, [r0, #156]
 246 0162 9542     		cmp	r5, r2
 247 0164 05D0     		beq	.L22
 248 0166 521B     		subs	r2, r2, r5
 249 0168 04FB02F2 		mul	r2, r4, r2
 250 016c 05EB2222 		add	r2, r5, r2, asr #8
 251 0170 12B2     		sxth	r2, r2
 252              	.L22:
 253 0172 A3F84C20 		strh	r2, [r3, #76]	@ movhi
 255:..\..\..\lvgl\version_6.1.2\lvgl\src\lv_core/lv_style.c ****     STYLE_ATTR_MIX(image.intense, ratio);
 254              		.loc 1 255 0
 255 0176 90F84E50 		ldrb	r5, [r0, #78]	@ zero_extendqisi2
ARM GAS  C:\Users\pearlstl\AppData\Local\Temp\ccvteysW.s 			page 12


 256 017a 90F89E20 		ldrb	r2, [r0, #158]	@ zero_extendqisi2
 257 017e 9542     		cmp	r5, r2
 258 0180 05D0     		beq	.L23
 259 0182 521B     		subs	r2, r2, r5
 260 0184 04FB02F2 		mul	r2, r4, r2
 261 0188 05EB2222 		add	r2, r5, r2, asr #8
 262 018c D2B2     		uxtb	r2, r2
 263              	.L23:
 264 018e 83F84E20 		strb	r2, [r3, #78]
 256:..\..\..\lvgl\version_6.1.2\lvgl\src\lv_core/lv_style.c ****     STYLE_ATTR_MIX(image.opa, ratio);
 265              		.loc 1 256 0
 266 0192 90F84450 		ldrb	r5, [r0, #68]	@ zero_extendqisi2
 267 0196 90F89420 		ldrb	r2, [r0, #148]	@ zero_extendqisi2
 268 019a 9542     		cmp	r5, r2
 269 019c 05D0     		beq	.L24
 270 019e 521B     		subs	r2, r2, r5
 271 01a0 04FB02F2 		mul	r2, r4, r2
 272 01a4 05EB2222 		add	r2, r5, r2, asr #8
 273 01a8 D2B2     		uxtb	r2, r2
 274              	.L24:
 275 01aa 83F84420 		strb	r2, [r3, #68]
 257:..\..\..\lvgl\version_6.1.2\lvgl\src\lv_core/lv_style.c **** 
 276              		.loc 1 257 0
 277 01ae 90F84550 		ldrb	r5, [r0, #69]	@ zero_extendqisi2
 278 01b2 90F89520 		ldrb	r2, [r0, #149]	@ zero_extendqisi2
 279 01b6 9542     		cmp	r5, r2
 280 01b8 05D0     		beq	.L25
 281 01ba 521B     		subs	r2, r2, r5
 282 01bc 04FB02F2 		mul	r2, r4, r2
 283 01c0 05EB2222 		add	r2, r5, r2, asr #8
 284 01c4 D2B2     		uxtb	r2, r2
 285              	.L25:
 259:..\..\..\lvgl\version_6.1.2\lvgl\src\lv_core/lv_style.c **** 
 286              		.loc 1 259 0
 287 01c6 B4F5807F 		cmp	r4, #256
 288 01ca 83F84520 		strb	r2, [r3, #69]
 289 01ce 00F03781 		beq	.L29
 290 01d2 C9B2     		uxtb	r1, r1
 291              	.LVL8:
 292 01d4 C1F1FF02 		rsb	r2, r1, #255
 293 01d8 92B2     		uxth	r2, r2
 294 01da 89B2     		uxth	r1, r1
 295              	.L26:
 296              	.LBB152:
 297              	.LBB153:
 298              		.file 2 "..\\..\\..\\lvgl\\version_6.1.2\\lvgl\\src\\lv_core\\../lv_misc/lv_color.h"
   1:..\..\..\lvgl\version_6.1.2\lvgl\src\lv_core\../lv_misc/lv_color.h **** /**
   2:..\..\..\lvgl\version_6.1.2\lvgl\src\lv_core\../lv_misc/lv_color.h ****  * @file lv_color.h
   3:..\..\..\lvgl\version_6.1.2\lvgl\src\lv_core\../lv_misc/lv_color.h ****  *
   4:..\..\..\lvgl\version_6.1.2\lvgl\src\lv_core\../lv_misc/lv_color.h ****  */
   5:..\..\..\lvgl\version_6.1.2\lvgl\src\lv_core\../lv_misc/lv_color.h **** 
   6:..\..\..\lvgl\version_6.1.2\lvgl\src\lv_core\../lv_misc/lv_color.h **** #ifndef LV_COLOR_H
   7:..\..\..\lvgl\version_6.1.2\lvgl\src\lv_core\../lv_misc/lv_color.h **** #define LV_COLOR_H
   8:..\..\..\lvgl\version_6.1.2\lvgl\src\lv_core\../lv_misc/lv_color.h **** 
   9:..\..\..\lvgl\version_6.1.2\lvgl\src\lv_core\../lv_misc/lv_color.h **** #ifdef __cplusplus
  10:..\..\..\lvgl\version_6.1.2\lvgl\src\lv_core\../lv_misc/lv_color.h **** extern "C" {
  11:..\..\..\lvgl\version_6.1.2\lvgl\src\lv_core\../lv_misc/lv_color.h **** #endif
ARM GAS  C:\Users\pearlstl\AppData\Local\Temp\ccvteysW.s 			page 13


  12:..\..\..\lvgl\version_6.1.2\lvgl\src\lv_core\../lv_misc/lv_color.h **** 
  13:..\..\..\lvgl\version_6.1.2\lvgl\src\lv_core\../lv_misc/lv_color.h **** /*********************
  14:..\..\..\lvgl\version_6.1.2\lvgl\src\lv_core\../lv_misc/lv_color.h ****  *      INCLUDES
  15:..\..\..\lvgl\version_6.1.2\lvgl\src\lv_core\../lv_misc/lv_color.h ****  *********************/
  16:..\..\..\lvgl\version_6.1.2\lvgl\src\lv_core\../lv_misc/lv_color.h **** #ifdef LV_CONF_INCLUDE_SIMPLE
  17:..\..\..\lvgl\version_6.1.2\lvgl\src\lv_core\../lv_misc/lv_color.h **** #include "lv_conf.h"
  18:..\..\..\lvgl\version_6.1.2\lvgl\src\lv_core\../lv_misc/lv_color.h **** #else
  19:..\..\..\lvgl\version_6.1.2\lvgl\src\lv_core\../lv_misc/lv_color.h **** #include "../../../lv_conf.h"
  20:..\..\..\lvgl\version_6.1.2\lvgl\src\lv_core\../lv_misc/lv_color.h **** #endif
  21:..\..\..\lvgl\version_6.1.2\lvgl\src\lv_core\../lv_misc/lv_color.h **** 
  22:..\..\..\lvgl\version_6.1.2\lvgl\src\lv_core\../lv_misc/lv_color.h **** /*Error checking*/
  23:..\..\..\lvgl\version_6.1.2\lvgl\src\lv_core\../lv_misc/lv_color.h **** #if LV_COLOR_DEPTH == 24
  24:..\..\..\lvgl\version_6.1.2\lvgl\src\lv_core\../lv_misc/lv_color.h **** #error "LV_COLOR_DEPTH  24 is deprecated. Use LV_COLOR_DEPTH  32 instead (lv_conf.h)"
  25:..\..\..\lvgl\version_6.1.2\lvgl\src\lv_core\../lv_misc/lv_color.h **** #endif
  26:..\..\..\lvgl\version_6.1.2\lvgl\src\lv_core\../lv_misc/lv_color.h **** 
  27:..\..\..\lvgl\version_6.1.2\lvgl\src\lv_core\../lv_misc/lv_color.h **** #if LV_COLOR_DEPTH != 32 && LV_COLOR_SCREEN_TRANSP != 0
  28:..\..\..\lvgl\version_6.1.2\lvgl\src\lv_core\../lv_misc/lv_color.h **** #error "LV_COLOR_SCREEN_TRANSP requires LV_COLOR_DEPTH == 32. Set it in lv_conf.h"
  29:..\..\..\lvgl\version_6.1.2\lvgl\src\lv_core\../lv_misc/lv_color.h **** #endif
  30:..\..\..\lvgl\version_6.1.2\lvgl\src\lv_core\../lv_misc/lv_color.h **** 
  31:..\..\..\lvgl\version_6.1.2\lvgl\src\lv_core\../lv_misc/lv_color.h **** #if LV_COLOR_DEPTH != 16 && LV_COLOR_16_SWAP != 0
  32:..\..\..\lvgl\version_6.1.2\lvgl\src\lv_core\../lv_misc/lv_color.h **** #error "LV_COLOR_16_SWAP requires LV_COLOR_DEPTH == 16. Set it in lv_conf.h"
  33:..\..\..\lvgl\version_6.1.2\lvgl\src\lv_core\../lv_misc/lv_color.h **** #endif
  34:..\..\..\lvgl\version_6.1.2\lvgl\src\lv_core\../lv_misc/lv_color.h **** 
  35:..\..\..\lvgl\version_6.1.2\lvgl\src\lv_core\../lv_misc/lv_color.h **** #include <stdint.h>
  36:..\..\..\lvgl\version_6.1.2\lvgl\src\lv_core\../lv_misc/lv_color.h **** 
  37:..\..\..\lvgl\version_6.1.2\lvgl\src\lv_core\../lv_misc/lv_color.h **** /*********************
  38:..\..\..\lvgl\version_6.1.2\lvgl\src\lv_core\../lv_misc/lv_color.h ****  *      DEFINES
  39:..\..\..\lvgl\version_6.1.2\lvgl\src\lv_core\../lv_misc/lv_color.h ****  *********************/
  40:..\..\..\lvgl\version_6.1.2\lvgl\src\lv_core\../lv_misc/lv_color.h **** #define LV_COLOR_WHITE LV_COLOR_MAKE(0xFF, 0xFF, 0xFF)
  41:..\..\..\lvgl\version_6.1.2\lvgl\src\lv_core\../lv_misc/lv_color.h **** #define LV_COLOR_SILVER LV_COLOR_MAKE(0xC0, 0xC0, 0xC0)
  42:..\..\..\lvgl\version_6.1.2\lvgl\src\lv_core\../lv_misc/lv_color.h **** #define LV_COLOR_GRAY LV_COLOR_MAKE(0x80, 0x80, 0x80)
  43:..\..\..\lvgl\version_6.1.2\lvgl\src\lv_core\../lv_misc/lv_color.h **** #define LV_COLOR_BLACK LV_COLOR_MAKE(0x00, 0x00, 0x00)
  44:..\..\..\lvgl\version_6.1.2\lvgl\src\lv_core\../lv_misc/lv_color.h **** #define LV_COLOR_RED LV_COLOR_MAKE(0xFF, 0x00, 0x00)
  45:..\..\..\lvgl\version_6.1.2\lvgl\src\lv_core\../lv_misc/lv_color.h **** #define LV_COLOR_MAROON LV_COLOR_MAKE(0x80, 0x00, 0x00)
  46:..\..\..\lvgl\version_6.1.2\lvgl\src\lv_core\../lv_misc/lv_color.h **** #define LV_COLOR_YELLOW LV_COLOR_MAKE(0xFF, 0xFF, 0x00)
  47:..\..\..\lvgl\version_6.1.2\lvgl\src\lv_core\../lv_misc/lv_color.h **** #define LV_COLOR_OLIVE LV_COLOR_MAKE(0x80, 0x80, 0x00)
  48:..\..\..\lvgl\version_6.1.2\lvgl\src\lv_core\../lv_misc/lv_color.h **** #define LV_COLOR_LIME LV_COLOR_MAKE(0x00, 0xFF, 0x00)
  49:..\..\..\lvgl\version_6.1.2\lvgl\src\lv_core\../lv_misc/lv_color.h **** #define LV_COLOR_GREEN LV_COLOR_MAKE(0x00, 0x80, 0x00)
  50:..\..\..\lvgl\version_6.1.2\lvgl\src\lv_core\../lv_misc/lv_color.h **** #define LV_COLOR_CYAN LV_COLOR_MAKE(0x00, 0xFF, 0xFF)
  51:..\..\..\lvgl\version_6.1.2\lvgl\src\lv_core\../lv_misc/lv_color.h **** #define LV_COLOR_AQUA LV_COLOR_CYAN
  52:..\..\..\lvgl\version_6.1.2\lvgl\src\lv_core\../lv_misc/lv_color.h **** #define LV_COLOR_TEAL LV_COLOR_MAKE(0x00, 0x80, 0x80)
  53:..\..\..\lvgl\version_6.1.2\lvgl\src\lv_core\../lv_misc/lv_color.h **** #define LV_COLOR_BLUE LV_COLOR_MAKE(0x00, 0x00, 0xFF)
  54:..\..\..\lvgl\version_6.1.2\lvgl\src\lv_core\../lv_misc/lv_color.h **** #define LV_COLOR_NAVY LV_COLOR_MAKE(0x00, 0x00, 0x80)
  55:..\..\..\lvgl\version_6.1.2\lvgl\src\lv_core\../lv_misc/lv_color.h **** #define LV_COLOR_MAGENTA LV_COLOR_MAKE(0xFF, 0x00, 0xFF)
  56:..\..\..\lvgl\version_6.1.2\lvgl\src\lv_core\../lv_misc/lv_color.h **** #define LV_COLOR_PURPLE LV_COLOR_MAKE(0x80, 0x00, 0x80)
  57:..\..\..\lvgl\version_6.1.2\lvgl\src\lv_core\../lv_misc/lv_color.h **** #define LV_COLOR_ORANGE LV_COLOR_MAKE(0xFF, 0xA5, 0x00)
  58:..\..\..\lvgl\version_6.1.2\lvgl\src\lv_core\../lv_misc/lv_color.h **** 
  59:..\..\..\lvgl\version_6.1.2\lvgl\src\lv_core\../lv_misc/lv_color.h **** /**
  60:..\..\..\lvgl\version_6.1.2\lvgl\src\lv_core\../lv_misc/lv_color.h ****  * Opacity percentages.
  61:..\..\..\lvgl\version_6.1.2\lvgl\src\lv_core\../lv_misc/lv_color.h ****  */
  62:..\..\..\lvgl\version_6.1.2\lvgl\src\lv_core\../lv_misc/lv_color.h **** enum {
  63:..\..\..\lvgl\version_6.1.2\lvgl\src\lv_core\../lv_misc/lv_color.h ****     LV_OPA_TRANSP = 0,
  64:..\..\..\lvgl\version_6.1.2\lvgl\src\lv_core\../lv_misc/lv_color.h ****     LV_OPA_0      = 0,
  65:..\..\..\lvgl\version_6.1.2\lvgl\src\lv_core\../lv_misc/lv_color.h ****     LV_OPA_10     = 25,
  66:..\..\..\lvgl\version_6.1.2\lvgl\src\lv_core\../lv_misc/lv_color.h ****     LV_OPA_20     = 51,
  67:..\..\..\lvgl\version_6.1.2\lvgl\src\lv_core\../lv_misc/lv_color.h ****     LV_OPA_30     = 76,
  68:..\..\..\lvgl\version_6.1.2\lvgl\src\lv_core\../lv_misc/lv_color.h ****     LV_OPA_40     = 102,
ARM GAS  C:\Users\pearlstl\AppData\Local\Temp\ccvteysW.s 			page 14


  69:..\..\..\lvgl\version_6.1.2\lvgl\src\lv_core\../lv_misc/lv_color.h ****     LV_OPA_50     = 127,
  70:..\..\..\lvgl\version_6.1.2\lvgl\src\lv_core\../lv_misc/lv_color.h ****     LV_OPA_60     = 153,
  71:..\..\..\lvgl\version_6.1.2\lvgl\src\lv_core\../lv_misc/lv_color.h ****     LV_OPA_70     = 178,
  72:..\..\..\lvgl\version_6.1.2\lvgl\src\lv_core\../lv_misc/lv_color.h ****     LV_OPA_80     = 204,
  73:..\..\..\lvgl\version_6.1.2\lvgl\src\lv_core\../lv_misc/lv_color.h ****     LV_OPA_90     = 229,
  74:..\..\..\lvgl\version_6.1.2\lvgl\src\lv_core\../lv_misc/lv_color.h ****     LV_OPA_100    = 255,
  75:..\..\..\lvgl\version_6.1.2\lvgl\src\lv_core\../lv_misc/lv_color.h ****     LV_OPA_COVER  = 255,
  76:..\..\..\lvgl\version_6.1.2\lvgl\src\lv_core\../lv_misc/lv_color.h **** };
  77:..\..\..\lvgl\version_6.1.2\lvgl\src\lv_core\../lv_misc/lv_color.h **** 
  78:..\..\..\lvgl\version_6.1.2\lvgl\src\lv_core\../lv_misc/lv_color.h **** #define LV_OPA_MIN 16  /*Opacities below this will be transparent*/
  79:..\..\..\lvgl\version_6.1.2\lvgl\src\lv_core\../lv_misc/lv_color.h **** #define LV_OPA_MAX 251 /*Opacities above this will fully cover*/
  80:..\..\..\lvgl\version_6.1.2\lvgl\src\lv_core\../lv_misc/lv_color.h **** 
  81:..\..\..\lvgl\version_6.1.2\lvgl\src\lv_core\../lv_misc/lv_color.h **** #if LV_COLOR_DEPTH == 1
  82:..\..\..\lvgl\version_6.1.2\lvgl\src\lv_core\../lv_misc/lv_color.h **** #define LV_COLOR_SIZE 8
  83:..\..\..\lvgl\version_6.1.2\lvgl\src\lv_core\../lv_misc/lv_color.h **** #elif LV_COLOR_DEPTH == 8
  84:..\..\..\lvgl\version_6.1.2\lvgl\src\lv_core\../lv_misc/lv_color.h **** #define LV_COLOR_SIZE 8
  85:..\..\..\lvgl\version_6.1.2\lvgl\src\lv_core\../lv_misc/lv_color.h **** #elif LV_COLOR_DEPTH == 16
  86:..\..\..\lvgl\version_6.1.2\lvgl\src\lv_core\../lv_misc/lv_color.h **** #define LV_COLOR_SIZE 16
  87:..\..\..\lvgl\version_6.1.2\lvgl\src\lv_core\../lv_misc/lv_color.h **** #elif LV_COLOR_DEPTH == 32
  88:..\..\..\lvgl\version_6.1.2\lvgl\src\lv_core\../lv_misc/lv_color.h **** #define LV_COLOR_SIZE 32
  89:..\..\..\lvgl\version_6.1.2\lvgl\src\lv_core\../lv_misc/lv_color.h **** #else
  90:..\..\..\lvgl\version_6.1.2\lvgl\src\lv_core\../lv_misc/lv_color.h **** #error "Invalid LV_COLOR_DEPTH in lv_conf.h! Set it to 1, 8, 16 or 32!"
  91:..\..\..\lvgl\version_6.1.2\lvgl\src\lv_core\../lv_misc/lv_color.h **** #endif
  92:..\..\..\lvgl\version_6.1.2\lvgl\src\lv_core\../lv_misc/lv_color.h **** 
  93:..\..\..\lvgl\version_6.1.2\lvgl\src\lv_core\../lv_misc/lv_color.h **** /*---------------------------------------
  94:..\..\..\lvgl\version_6.1.2\lvgl\src\lv_core\../lv_misc/lv_color.h ****  * Macros for all existing  color depths
  95:..\..\..\lvgl\version_6.1.2\lvgl\src\lv_core\../lv_misc/lv_color.h ****  * to set/get values of the color channels
  96:..\..\..\lvgl\version_6.1.2\lvgl\src\lv_core\../lv_misc/lv_color.h ****  *------------------------------------------*/
  97:..\..\..\lvgl\version_6.1.2\lvgl\src\lv_core\../lv_misc/lv_color.h **** # define LV_COLOR_SET_R1(c, v) (c).ch.red = (uint8_t)((v) & 0x1);
  98:..\..\..\lvgl\version_6.1.2\lvgl\src\lv_core\../lv_misc/lv_color.h **** # define LV_COLOR_SET_G1(c, v) (c).ch.green = (uint8_t)((v) & 0x1);
  99:..\..\..\lvgl\version_6.1.2\lvgl\src\lv_core\../lv_misc/lv_color.h **** # define LV_COLOR_SET_B1(c, v) (c).ch.blue = (uint8_t)((v) & 0x1);
 100:..\..\..\lvgl\version_6.1.2\lvgl\src\lv_core\../lv_misc/lv_color.h **** # define LV_COLOR_SET_A1(c, v)
 101:..\..\..\lvgl\version_6.1.2\lvgl\src\lv_core\../lv_misc/lv_color.h **** 
 102:..\..\..\lvgl\version_6.1.2\lvgl\src\lv_core\../lv_misc/lv_color.h **** # define LV_COLOR_GET_R1(c) (c).ch.red
 103:..\..\..\lvgl\version_6.1.2\lvgl\src\lv_core\../lv_misc/lv_color.h **** # define LV_COLOR_GET_G1(c) (c).ch.green
 104:..\..\..\lvgl\version_6.1.2\lvgl\src\lv_core\../lv_misc/lv_color.h **** # define LV_COLOR_GET_B1(c) (c).ch.blue
 105:..\..\..\lvgl\version_6.1.2\lvgl\src\lv_core\../lv_misc/lv_color.h **** # define LV_COLOR_GET_A1(c) 1
 106:..\..\..\lvgl\version_6.1.2\lvgl\src\lv_core\../lv_misc/lv_color.h **** 
 107:..\..\..\lvgl\version_6.1.2\lvgl\src\lv_core\../lv_misc/lv_color.h **** # define LV_COLOR_SET_R8(c, v) (c).ch.red = (uint8_t)(v) & 0x7U;
 108:..\..\..\lvgl\version_6.1.2\lvgl\src\lv_core\../lv_misc/lv_color.h **** # define LV_COLOR_SET_G8(c, v) (c).ch.green = (uint8_t)(v) & 0x7U;
 109:..\..\..\lvgl\version_6.1.2\lvgl\src\lv_core\../lv_misc/lv_color.h **** # define LV_COLOR_SET_B8(c, v) (c).ch.blue = (uint8_t)(v) & 0x3U;
 110:..\..\..\lvgl\version_6.1.2\lvgl\src\lv_core\../lv_misc/lv_color.h **** # define LV_COLOR_SET_A8(c, v) do {} while(0)
 111:..\..\..\lvgl\version_6.1.2\lvgl\src\lv_core\../lv_misc/lv_color.h **** 
 112:..\..\..\lvgl\version_6.1.2\lvgl\src\lv_core\../lv_misc/lv_color.h **** # define LV_COLOR_GET_R8(c) (c).ch.red
 113:..\..\..\lvgl\version_6.1.2\lvgl\src\lv_core\../lv_misc/lv_color.h **** # define LV_COLOR_GET_G8(c) (c).ch.green
 114:..\..\..\lvgl\version_6.1.2\lvgl\src\lv_core\../lv_misc/lv_color.h **** # define LV_COLOR_GET_B8(c) (c).ch.blue
 115:..\..\..\lvgl\version_6.1.2\lvgl\src\lv_core\../lv_misc/lv_color.h **** # define LV_COLOR_GET_A8(c) 0xFF
 116:..\..\..\lvgl\version_6.1.2\lvgl\src\lv_core\../lv_misc/lv_color.h **** 
 117:..\..\..\lvgl\version_6.1.2\lvgl\src\lv_core\../lv_misc/lv_color.h **** # define LV_COLOR_SET_R16(c, v) (c).ch.red = (uint8_t)(v) & 0x1FU;
 118:..\..\..\lvgl\version_6.1.2\lvgl\src\lv_core\../lv_misc/lv_color.h **** # define LV_COLOR_SET_G16(c, v) (c).ch.green = (uint8_t)(v) & 0x3FU;
 119:..\..\..\lvgl\version_6.1.2\lvgl\src\lv_core\../lv_misc/lv_color.h **** # define LV_COLOR_SET_G16_SWAP(c, v) {(c).ch.green_h = (uint8_t)(((v) >> 3) & 0x7); (c).ch.green_l 
 120:..\..\..\lvgl\version_6.1.2\lvgl\src\lv_core\../lv_misc/lv_color.h **** # define LV_COLOR_SET_B16(c, v) (c).ch.blue = (uint8_t)(v) & 0x1FU;
 121:..\..\..\lvgl\version_6.1.2\lvgl\src\lv_core\../lv_misc/lv_color.h **** # define LV_COLOR_SET_A16(c, v) do {} while(0)
 122:..\..\..\lvgl\version_6.1.2\lvgl\src\lv_core\../lv_misc/lv_color.h **** 
 123:..\..\..\lvgl\version_6.1.2\lvgl\src\lv_core\../lv_misc/lv_color.h **** # define LV_COLOR_GET_R16(c) (c).ch.red
 124:..\..\..\lvgl\version_6.1.2\lvgl\src\lv_core\../lv_misc/lv_color.h **** # define LV_COLOR_GET_G16(c) (c).ch.green
 125:..\..\..\lvgl\version_6.1.2\lvgl\src\lv_core\../lv_misc/lv_color.h **** # define LV_COLOR_GET_G16_SWAP(c) (((c).ch.green_h << 3) + (c).ch.green_l)
ARM GAS  C:\Users\pearlstl\AppData\Local\Temp\ccvteysW.s 			page 15


 126:..\..\..\lvgl\version_6.1.2\lvgl\src\lv_core\../lv_misc/lv_color.h **** # define LV_COLOR_GET_B16(c) (c).ch.blue
 127:..\..\..\lvgl\version_6.1.2\lvgl\src\lv_core\../lv_misc/lv_color.h **** # define LV_COLOR_GET_A16(c) 0xFF
 128:..\..\..\lvgl\version_6.1.2\lvgl\src\lv_core\../lv_misc/lv_color.h **** 
 129:..\..\..\lvgl\version_6.1.2\lvgl\src\lv_core\../lv_misc/lv_color.h **** # define LV_COLOR_SET_R32(c, v) (c).ch.red = (uint32_t)((v) & 0xFF);
 130:..\..\..\lvgl\version_6.1.2\lvgl\src\lv_core\../lv_misc/lv_color.h **** # define LV_COLOR_SET_G32(c, v) (c).ch.green = (uint32_t)((v) & 0xFF);
 131:..\..\..\lvgl\version_6.1.2\lvgl\src\lv_core\../lv_misc/lv_color.h **** # define LV_COLOR_SET_B32(c, v) (c).ch.blue = (uint32_t)((v) & 0xFF);
 132:..\..\..\lvgl\version_6.1.2\lvgl\src\lv_core\../lv_misc/lv_color.h **** # define LV_COLOR_SET_A32(c, v) (c).ch.alpha = (uint32_t)((v) & 0xFF);
 133:..\..\..\lvgl\version_6.1.2\lvgl\src\lv_core\../lv_misc/lv_color.h **** 
 134:..\..\..\lvgl\version_6.1.2\lvgl\src\lv_core\../lv_misc/lv_color.h **** # define LV_COLOR_GET_R32(c) (c).ch.red
 135:..\..\..\lvgl\version_6.1.2\lvgl\src\lv_core\../lv_misc/lv_color.h **** # define LV_COLOR_GET_G32(c) (c).ch.green
 136:..\..\..\lvgl\version_6.1.2\lvgl\src\lv_core\../lv_misc/lv_color.h **** # define LV_COLOR_GET_B32(c) (c).ch.blue
 137:..\..\..\lvgl\version_6.1.2\lvgl\src\lv_core\../lv_misc/lv_color.h **** # define LV_COLOR_GET_A32(c) (c).ch.alpha
 138:..\..\..\lvgl\version_6.1.2\lvgl\src\lv_core\../lv_misc/lv_color.h **** 
 139:..\..\..\lvgl\version_6.1.2\lvgl\src\lv_core\../lv_misc/lv_color.h **** 
 140:..\..\..\lvgl\version_6.1.2\lvgl\src\lv_core\../lv_misc/lv_color.h **** /*---------------------------------------
 141:..\..\..\lvgl\version_6.1.2\lvgl\src\lv_core\../lv_misc/lv_color.h ****  * Macros for the current color depth
 142:..\..\..\lvgl\version_6.1.2\lvgl\src\lv_core\../lv_misc/lv_color.h ****  * to set/get values of the color channels
 143:..\..\..\lvgl\version_6.1.2\lvgl\src\lv_core\../lv_misc/lv_color.h ****  *------------------------------------------*/
 144:..\..\..\lvgl\version_6.1.2\lvgl\src\lv_core\../lv_misc/lv_color.h **** #if LV_COLOR_DEPTH == 1
 145:..\..\..\lvgl\version_6.1.2\lvgl\src\lv_core\../lv_misc/lv_color.h **** # define LV_COLOR_SET_R(c, v) LV_COLOR_SET_R1(c,v)
 146:..\..\..\lvgl\version_6.1.2\lvgl\src\lv_core\../lv_misc/lv_color.h **** # define LV_COLOR_SET_G(c, v) LV_COLOR_SET_G1(c,v)
 147:..\..\..\lvgl\version_6.1.2\lvgl\src\lv_core\../lv_misc/lv_color.h **** # define LV_COLOR_SET_B(c, v) LV_COLOR_SET_B1(c,v)
 148:..\..\..\lvgl\version_6.1.2\lvgl\src\lv_core\../lv_misc/lv_color.h **** # define LV_COLOR_SET_A(c, v) LV_COLOR_SET_A1(c,v)
 149:..\..\..\lvgl\version_6.1.2\lvgl\src\lv_core\../lv_misc/lv_color.h **** 
 150:..\..\..\lvgl\version_6.1.2\lvgl\src\lv_core\../lv_misc/lv_color.h **** # define LV_COLOR_GET_R(c) LV_COLOR_GET_R1(c)
 151:..\..\..\lvgl\version_6.1.2\lvgl\src\lv_core\../lv_misc/lv_color.h **** # define LV_COLOR_GET_G(c) LV_COLOR_GET_G1(c)
 152:..\..\..\lvgl\version_6.1.2\lvgl\src\lv_core\../lv_misc/lv_color.h **** # define LV_COLOR_GET_B(c) LV_COLOR_GET_B1(c)
 153:..\..\..\lvgl\version_6.1.2\lvgl\src\lv_core\../lv_misc/lv_color.h **** # define LV_COLOR_GET_A(c) LV_COLOR_GET_A1(c)
 154:..\..\..\lvgl\version_6.1.2\lvgl\src\lv_core\../lv_misc/lv_color.h **** 
 155:..\..\..\lvgl\version_6.1.2\lvgl\src\lv_core\../lv_misc/lv_color.h **** #elif LV_COLOR_DEPTH == 8
 156:..\..\..\lvgl\version_6.1.2\lvgl\src\lv_core\../lv_misc/lv_color.h **** # define LV_COLOR_SET_R(c, v) LV_COLOR_SET_R8(c,v)
 157:..\..\..\lvgl\version_6.1.2\lvgl\src\lv_core\../lv_misc/lv_color.h **** # define LV_COLOR_SET_G(c, v) LV_COLOR_SET_G8(c,v)
 158:..\..\..\lvgl\version_6.1.2\lvgl\src\lv_core\../lv_misc/lv_color.h **** # define LV_COLOR_SET_B(c, v) LV_COLOR_SET_B8(c,v)
 159:..\..\..\lvgl\version_6.1.2\lvgl\src\lv_core\../lv_misc/lv_color.h **** # define LV_COLOR_SET_A(c, v) LV_COLOR_SET_A8(c,v)
 160:..\..\..\lvgl\version_6.1.2\lvgl\src\lv_core\../lv_misc/lv_color.h **** 
 161:..\..\..\lvgl\version_6.1.2\lvgl\src\lv_core\../lv_misc/lv_color.h **** # define LV_COLOR_GET_R(c) LV_COLOR_GET_R8(c)
 162:..\..\..\lvgl\version_6.1.2\lvgl\src\lv_core\../lv_misc/lv_color.h **** # define LV_COLOR_GET_G(c) LV_COLOR_GET_G8(c)
 163:..\..\..\lvgl\version_6.1.2\lvgl\src\lv_core\../lv_misc/lv_color.h **** # define LV_COLOR_GET_B(c) LV_COLOR_GET_B8(c)
 164:..\..\..\lvgl\version_6.1.2\lvgl\src\lv_core\../lv_misc/lv_color.h **** # define LV_COLOR_GET_A(c) LV_COLOR_GET_A8(c)
 165:..\..\..\lvgl\version_6.1.2\lvgl\src\lv_core\../lv_misc/lv_color.h **** 
 166:..\..\..\lvgl\version_6.1.2\lvgl\src\lv_core\../lv_misc/lv_color.h **** #elif LV_COLOR_DEPTH == 16
 167:..\..\..\lvgl\version_6.1.2\lvgl\src\lv_core\../lv_misc/lv_color.h **** # define LV_COLOR_SET_R(c, v) LV_COLOR_SET_R16(c,v)
 168:..\..\..\lvgl\version_6.1.2\lvgl\src\lv_core\../lv_misc/lv_color.h **** # if LV_COLOR_16_SWAP == 0
 169:..\..\..\lvgl\version_6.1.2\lvgl\src\lv_core\../lv_misc/lv_color.h **** #   define LV_COLOR_SET_G(c, v) LV_COLOR_SET_G16(c,v)
 170:..\..\..\lvgl\version_6.1.2\lvgl\src\lv_core\../lv_misc/lv_color.h **** # else
 171:..\..\..\lvgl\version_6.1.2\lvgl\src\lv_core\../lv_misc/lv_color.h **** #   define LV_COLOR_SET_G(c, v) LV_COLOR_SET_G16_SWAP(c,v)
 172:..\..\..\lvgl\version_6.1.2\lvgl\src\lv_core\../lv_misc/lv_color.h **** # endif
 173:..\..\..\lvgl\version_6.1.2\lvgl\src\lv_core\../lv_misc/lv_color.h **** # define LV_COLOR_SET_B(c, v) LV_COLOR_SET_B16(c,v)
 174:..\..\..\lvgl\version_6.1.2\lvgl\src\lv_core\../lv_misc/lv_color.h **** # define LV_COLOR_SET_A(c, v) LV_COLOR_SET_A16(c,v)
 175:..\..\..\lvgl\version_6.1.2\lvgl\src\lv_core\../lv_misc/lv_color.h **** 
 176:..\..\..\lvgl\version_6.1.2\lvgl\src\lv_core\../lv_misc/lv_color.h **** # define LV_COLOR_GET_R(c) LV_COLOR_GET_R16(c)
 177:..\..\..\lvgl\version_6.1.2\lvgl\src\lv_core\../lv_misc/lv_color.h **** # if LV_COLOR_16_SWAP == 0
 178:..\..\..\lvgl\version_6.1.2\lvgl\src\lv_core\../lv_misc/lv_color.h **** #   define LV_COLOR_GET_G(c) LV_COLOR_GET_G16(c)
 179:..\..\..\lvgl\version_6.1.2\lvgl\src\lv_core\../lv_misc/lv_color.h **** # else
 180:..\..\..\lvgl\version_6.1.2\lvgl\src\lv_core\../lv_misc/lv_color.h **** #   define LV_COLOR_GET_G(c) LV_COLOR_GET_G16_SWAP(c)
 181:..\..\..\lvgl\version_6.1.2\lvgl\src\lv_core\../lv_misc/lv_color.h **** # endif
 182:..\..\..\lvgl\version_6.1.2\lvgl\src\lv_core\../lv_misc/lv_color.h **** # define LV_COLOR_GET_B(c)   LV_COLOR_GET_B16(c)
ARM GAS  C:\Users\pearlstl\AppData\Local\Temp\ccvteysW.s 			page 16


 183:..\..\..\lvgl\version_6.1.2\lvgl\src\lv_core\../lv_misc/lv_color.h **** # define LV_COLOR_GET_A(c)   LV_COLOR_GET_A16(c)
 184:..\..\..\lvgl\version_6.1.2\lvgl\src\lv_core\../lv_misc/lv_color.h **** 
 185:..\..\..\lvgl\version_6.1.2\lvgl\src\lv_core\../lv_misc/lv_color.h **** #elif LV_COLOR_DEPTH == 32
 186:..\..\..\lvgl\version_6.1.2\lvgl\src\lv_core\../lv_misc/lv_color.h **** # define LV_COLOR_SET_R(c, v) LV_COLOR_SET_R32(c,v)
 187:..\..\..\lvgl\version_6.1.2\lvgl\src\lv_core\../lv_misc/lv_color.h **** # define LV_COLOR_SET_G(c, v) LV_COLOR_SET_G32(c,v)
 188:..\..\..\lvgl\version_6.1.2\lvgl\src\lv_core\../lv_misc/lv_color.h **** # define LV_COLOR_SET_B(c, v) LV_COLOR_SET_B32(c,v)
 189:..\..\..\lvgl\version_6.1.2\lvgl\src\lv_core\../lv_misc/lv_color.h **** # define LV_COLOR_SET_A(c, v) LV_COLOR_SET_A32(c,v)
 190:..\..\..\lvgl\version_6.1.2\lvgl\src\lv_core\../lv_misc/lv_color.h **** 
 191:..\..\..\lvgl\version_6.1.2\lvgl\src\lv_core\../lv_misc/lv_color.h **** # define LV_COLOR_GET_R(c) LV_COLOR_GET_R32(c)
 192:..\..\..\lvgl\version_6.1.2\lvgl\src\lv_core\../lv_misc/lv_color.h **** # define LV_COLOR_GET_G(c) LV_COLOR_GET_G32(c)
 193:..\..\..\lvgl\version_6.1.2\lvgl\src\lv_core\../lv_misc/lv_color.h **** # define LV_COLOR_GET_B(c) LV_COLOR_GET_B32(c)
 194:..\..\..\lvgl\version_6.1.2\lvgl\src\lv_core\../lv_misc/lv_color.h **** # define LV_COLOR_GET_A(c) LV_COLOR_GET_A32(c)
 195:..\..\..\lvgl\version_6.1.2\lvgl\src\lv_core\../lv_misc/lv_color.h **** #endif
 196:..\..\..\lvgl\version_6.1.2\lvgl\src\lv_core\../lv_misc/lv_color.h **** 
 197:..\..\..\lvgl\version_6.1.2\lvgl\src\lv_core\../lv_misc/lv_color.h **** /**********************
 198:..\..\..\lvgl\version_6.1.2\lvgl\src\lv_core\../lv_misc/lv_color.h ****  *      TYPEDEFS
 199:..\..\..\lvgl\version_6.1.2\lvgl\src\lv_core\../lv_misc/lv_color.h ****  **********************/
 200:..\..\..\lvgl\version_6.1.2\lvgl\src\lv_core\../lv_misc/lv_color.h **** 
 201:..\..\..\lvgl\version_6.1.2\lvgl\src\lv_core\../lv_misc/lv_color.h **** typedef union
 202:..\..\..\lvgl\version_6.1.2\lvgl\src\lv_core\../lv_misc/lv_color.h **** {
 203:..\..\..\lvgl\version_6.1.2\lvgl\src\lv_core\../lv_misc/lv_color.h ****     struct
 204:..\..\..\lvgl\version_6.1.2\lvgl\src\lv_core\../lv_misc/lv_color.h ****     {
 205:..\..\..\lvgl\version_6.1.2\lvgl\src\lv_core\../lv_misc/lv_color.h ****         uint8_t blue : 1;
 206:..\..\..\lvgl\version_6.1.2\lvgl\src\lv_core\../lv_misc/lv_color.h ****         uint8_t green : 1;
 207:..\..\..\lvgl\version_6.1.2\lvgl\src\lv_core\../lv_misc/lv_color.h ****         uint8_t red : 1;
 208:..\..\..\lvgl\version_6.1.2\lvgl\src\lv_core\../lv_misc/lv_color.h ****     } ch;
 209:..\..\..\lvgl\version_6.1.2\lvgl\src\lv_core\../lv_misc/lv_color.h ****     uint8_t full;
 210:..\..\..\lvgl\version_6.1.2\lvgl\src\lv_core\../lv_misc/lv_color.h **** } lv_color1_t;
 211:..\..\..\lvgl\version_6.1.2\lvgl\src\lv_core\../lv_misc/lv_color.h **** 
 212:..\..\..\lvgl\version_6.1.2\lvgl\src\lv_core\../lv_misc/lv_color.h **** typedef union
 213:..\..\..\lvgl\version_6.1.2\lvgl\src\lv_core\../lv_misc/lv_color.h **** {
 214:..\..\..\lvgl\version_6.1.2\lvgl\src\lv_core\../lv_misc/lv_color.h ****     struct
 215:..\..\..\lvgl\version_6.1.2\lvgl\src\lv_core\../lv_misc/lv_color.h ****     {
 216:..\..\..\lvgl\version_6.1.2\lvgl\src\lv_core\../lv_misc/lv_color.h ****         uint8_t blue : 2;
 217:..\..\..\lvgl\version_6.1.2\lvgl\src\lv_core\../lv_misc/lv_color.h ****         uint8_t green : 3;
 218:..\..\..\lvgl\version_6.1.2\lvgl\src\lv_core\../lv_misc/lv_color.h ****         uint8_t red : 3;
 219:..\..\..\lvgl\version_6.1.2\lvgl\src\lv_core\../lv_misc/lv_color.h ****     } ch;
 220:..\..\..\lvgl\version_6.1.2\lvgl\src\lv_core\../lv_misc/lv_color.h ****     uint8_t full;
 221:..\..\..\lvgl\version_6.1.2\lvgl\src\lv_core\../lv_misc/lv_color.h **** } lv_color8_t;
 222:..\..\..\lvgl\version_6.1.2\lvgl\src\lv_core\../lv_misc/lv_color.h **** 
 223:..\..\..\lvgl\version_6.1.2\lvgl\src\lv_core\../lv_misc/lv_color.h **** typedef union
 224:..\..\..\lvgl\version_6.1.2\lvgl\src\lv_core\../lv_misc/lv_color.h **** {
 225:..\..\..\lvgl\version_6.1.2\lvgl\src\lv_core\../lv_misc/lv_color.h ****     struct
 226:..\..\..\lvgl\version_6.1.2\lvgl\src\lv_core\../lv_misc/lv_color.h ****     {
 227:..\..\..\lvgl\version_6.1.2\lvgl\src\lv_core\../lv_misc/lv_color.h **** #if LV_COLOR_16_SWAP == 0
 228:..\..\..\lvgl\version_6.1.2\lvgl\src\lv_core\../lv_misc/lv_color.h ****         uint16_t blue : 5;
 229:..\..\..\lvgl\version_6.1.2\lvgl\src\lv_core\../lv_misc/lv_color.h ****         uint16_t green : 6;
 230:..\..\..\lvgl\version_6.1.2\lvgl\src\lv_core\../lv_misc/lv_color.h ****         uint16_t red : 5;
 231:..\..\..\lvgl\version_6.1.2\lvgl\src\lv_core\../lv_misc/lv_color.h **** #else
 232:..\..\..\lvgl\version_6.1.2\lvgl\src\lv_core\../lv_misc/lv_color.h ****         uint16_t green_h : 3;
 233:..\..\..\lvgl\version_6.1.2\lvgl\src\lv_core\../lv_misc/lv_color.h ****         uint16_t red : 5;
 234:..\..\..\lvgl\version_6.1.2\lvgl\src\lv_core\../lv_misc/lv_color.h ****         uint16_t blue : 5;
 235:..\..\..\lvgl\version_6.1.2\lvgl\src\lv_core\../lv_misc/lv_color.h ****         uint16_t green_l : 3;
 236:..\..\..\lvgl\version_6.1.2\lvgl\src\lv_core\../lv_misc/lv_color.h **** #endif
 237:..\..\..\lvgl\version_6.1.2\lvgl\src\lv_core\../lv_misc/lv_color.h ****     } ch;
 238:..\..\..\lvgl\version_6.1.2\lvgl\src\lv_core\../lv_misc/lv_color.h ****     uint16_t full;
 239:..\..\..\lvgl\version_6.1.2\lvgl\src\lv_core\../lv_misc/lv_color.h **** } lv_color16_t;
ARM GAS  C:\Users\pearlstl\AppData\Local\Temp\ccvteysW.s 			page 17


 240:..\..\..\lvgl\version_6.1.2\lvgl\src\lv_core\../lv_misc/lv_color.h **** 
 241:..\..\..\lvgl\version_6.1.2\lvgl\src\lv_core\../lv_misc/lv_color.h **** typedef union
 242:..\..\..\lvgl\version_6.1.2\lvgl\src\lv_core\../lv_misc/lv_color.h **** {
 243:..\..\..\lvgl\version_6.1.2\lvgl\src\lv_core\../lv_misc/lv_color.h ****     struct
 244:..\..\..\lvgl\version_6.1.2\lvgl\src\lv_core\../lv_misc/lv_color.h ****     {
 245:..\..\..\lvgl\version_6.1.2\lvgl\src\lv_core\../lv_misc/lv_color.h ****         uint8_t blue;
 246:..\..\..\lvgl\version_6.1.2\lvgl\src\lv_core\../lv_misc/lv_color.h ****         uint8_t green;
 247:..\..\..\lvgl\version_6.1.2\lvgl\src\lv_core\../lv_misc/lv_color.h ****         uint8_t red;
 248:..\..\..\lvgl\version_6.1.2\lvgl\src\lv_core\../lv_misc/lv_color.h ****         uint8_t alpha;
 249:..\..\..\lvgl\version_6.1.2\lvgl\src\lv_core\../lv_misc/lv_color.h ****     } ch;
 250:..\..\..\lvgl\version_6.1.2\lvgl\src\lv_core\../lv_misc/lv_color.h ****     uint32_t full;
 251:..\..\..\lvgl\version_6.1.2\lvgl\src\lv_core\../lv_misc/lv_color.h **** } lv_color32_t;
 252:..\..\..\lvgl\version_6.1.2\lvgl\src\lv_core\../lv_misc/lv_color.h **** 
 253:..\..\..\lvgl\version_6.1.2\lvgl\src\lv_core\../lv_misc/lv_color.h **** #if LV_COLOR_DEPTH == 1
 254:..\..\..\lvgl\version_6.1.2\lvgl\src\lv_core\../lv_misc/lv_color.h **** typedef uint8_t lv_color_int_t;
 255:..\..\..\lvgl\version_6.1.2\lvgl\src\lv_core\../lv_misc/lv_color.h **** typedef lv_color1_t lv_color_t;
 256:..\..\..\lvgl\version_6.1.2\lvgl\src\lv_core\../lv_misc/lv_color.h **** #elif LV_COLOR_DEPTH == 8
 257:..\..\..\lvgl\version_6.1.2\lvgl\src\lv_core\../lv_misc/lv_color.h **** typedef uint8_t lv_color_int_t;
 258:..\..\..\lvgl\version_6.1.2\lvgl\src\lv_core\../lv_misc/lv_color.h **** typedef lv_color8_t lv_color_t;
 259:..\..\..\lvgl\version_6.1.2\lvgl\src\lv_core\../lv_misc/lv_color.h **** #elif LV_COLOR_DEPTH == 16
 260:..\..\..\lvgl\version_6.1.2\lvgl\src\lv_core\../lv_misc/lv_color.h **** typedef uint16_t lv_color_int_t;
 261:..\..\..\lvgl\version_6.1.2\lvgl\src\lv_core\../lv_misc/lv_color.h **** typedef lv_color16_t lv_color_t;
 262:..\..\..\lvgl\version_6.1.2\lvgl\src\lv_core\../lv_misc/lv_color.h **** #elif LV_COLOR_DEPTH == 32
 263:..\..\..\lvgl\version_6.1.2\lvgl\src\lv_core\../lv_misc/lv_color.h **** typedef uint32_t lv_color_int_t;
 264:..\..\..\lvgl\version_6.1.2\lvgl\src\lv_core\../lv_misc/lv_color.h **** typedef lv_color32_t lv_color_t;
 265:..\..\..\lvgl\version_6.1.2\lvgl\src\lv_core\../lv_misc/lv_color.h **** #else
 266:..\..\..\lvgl\version_6.1.2\lvgl\src\lv_core\../lv_misc/lv_color.h **** #error "Invalid LV_COLOR_DEPTH in lv_conf.h! Set it to 1, 8, 16 or 32!"
 267:..\..\..\lvgl\version_6.1.2\lvgl\src\lv_core\../lv_misc/lv_color.h **** #endif
 268:..\..\..\lvgl\version_6.1.2\lvgl\src\lv_core\../lv_misc/lv_color.h **** 
 269:..\..\..\lvgl\version_6.1.2\lvgl\src\lv_core\../lv_misc/lv_color.h **** typedef uint8_t lv_opa_t;
 270:..\..\..\lvgl\version_6.1.2\lvgl\src\lv_core\../lv_misc/lv_color.h **** 
 271:..\..\..\lvgl\version_6.1.2\lvgl\src\lv_core\../lv_misc/lv_color.h **** typedef struct
 272:..\..\..\lvgl\version_6.1.2\lvgl\src\lv_core\../lv_misc/lv_color.h **** {
 273:..\..\..\lvgl\version_6.1.2\lvgl\src\lv_core\../lv_misc/lv_color.h ****     uint16_t h;
 274:..\..\..\lvgl\version_6.1.2\lvgl\src\lv_core\../lv_misc/lv_color.h ****     uint8_t s;
 275:..\..\..\lvgl\version_6.1.2\lvgl\src\lv_core\../lv_misc/lv_color.h ****     uint8_t v;
 276:..\..\..\lvgl\version_6.1.2\lvgl\src\lv_core\../lv_misc/lv_color.h **** } lv_color_hsv_t;
 277:..\..\..\lvgl\version_6.1.2\lvgl\src\lv_core\../lv_misc/lv_color.h **** 
 278:..\..\..\lvgl\version_6.1.2\lvgl\src\lv_core\../lv_misc/lv_color.h **** /**********************
 279:..\..\..\lvgl\version_6.1.2\lvgl\src\lv_core\../lv_misc/lv_color.h ****  * GLOBAL PROTOTYPES
 280:..\..\..\lvgl\version_6.1.2\lvgl\src\lv_core\../lv_misc/lv_color.h ****  **********************/
 281:..\..\..\lvgl\version_6.1.2\lvgl\src\lv_core\../lv_misc/lv_color.h **** 
 282:..\..\..\lvgl\version_6.1.2\lvgl\src\lv_core\../lv_misc/lv_color.h **** /*In color conversations:
 283:..\..\..\lvgl\version_6.1.2\lvgl\src\lv_core\../lv_misc/lv_color.h ****  * - When converting to bigger color type the LSB weight of 1 LSB is calculated
 284:..\..\..\lvgl\version_6.1.2\lvgl\src\lv_core\../lv_misc/lv_color.h ****  *   E.g. 16 bit Red has 5 bits
 285:..\..\..\lvgl\version_6.1.2\lvgl\src\lv_core\../lv_misc/lv_color.h ****  *         8 bit Red has 2 bits
 286:..\..\..\lvgl\version_6.1.2\lvgl\src\lv_core\../lv_misc/lv_color.h ****  *        ----------------------
 287:..\..\..\lvgl\version_6.1.2\lvgl\src\lv_core\../lv_misc/lv_color.h ****  *        8 bit red LSB = (2^5 - 1) / (2^2 - 1) = 31 / 3 = 10
 288:..\..\..\lvgl\version_6.1.2\lvgl\src\lv_core\../lv_misc/lv_color.h ****  *
 289:..\..\..\lvgl\version_6.1.2\lvgl\src\lv_core\../lv_misc/lv_color.h ****  * - When calculating to smaller color type simply shift out the LSBs
 290:..\..\..\lvgl\version_6.1.2\lvgl\src\lv_core\../lv_misc/lv_color.h ****  *   E.g.  8 bit Red has 2 bits
 291:..\..\..\lvgl\version_6.1.2\lvgl\src\lv_core\../lv_misc/lv_color.h ****  *        16 bit Red has 5 bits
 292:..\..\..\lvgl\version_6.1.2\lvgl\src\lv_core\../lv_misc/lv_color.h ****  *        ----------------------
 293:..\..\..\lvgl\version_6.1.2\lvgl\src\lv_core\../lv_misc/lv_color.h ****  *         Shift right with 5 - 3 = 2
 294:..\..\..\lvgl\version_6.1.2\lvgl\src\lv_core\../lv_misc/lv_color.h ****  */
 295:..\..\..\lvgl\version_6.1.2\lvgl\src\lv_core\../lv_misc/lv_color.h **** 
 296:..\..\..\lvgl\version_6.1.2\lvgl\src\lv_core\../lv_misc/lv_color.h **** static inline uint8_t lv_color_to1(lv_color_t color)
ARM GAS  C:\Users\pearlstl\AppData\Local\Temp\ccvteysW.s 			page 18


 297:..\..\..\lvgl\version_6.1.2\lvgl\src\lv_core\../lv_misc/lv_color.h **** {
 298:..\..\..\lvgl\version_6.1.2\lvgl\src\lv_core\../lv_misc/lv_color.h **** #if LV_COLOR_DEPTH == 1
 299:..\..\..\lvgl\version_6.1.2\lvgl\src\lv_core\../lv_misc/lv_color.h ****     return color.full;
 300:..\..\..\lvgl\version_6.1.2\lvgl\src\lv_core\../lv_misc/lv_color.h **** #elif LV_COLOR_DEPTH == 8
 301:..\..\..\lvgl\version_6.1.2\lvgl\src\lv_core\../lv_misc/lv_color.h ****     if((LV_COLOR_GET_R(color) & 0x4) || (LV_COLOR_GET_G(color) & 0x4) || (LV_COLOR_GET_B(color) & 0
 302:..\..\..\lvgl\version_6.1.2\lvgl\src\lv_core\../lv_misc/lv_color.h ****         return 1;
 303:..\..\..\lvgl\version_6.1.2\lvgl\src\lv_core\../lv_misc/lv_color.h ****     } else {
 304:..\..\..\lvgl\version_6.1.2\lvgl\src\lv_core\../lv_misc/lv_color.h ****         return 0;
 305:..\..\..\lvgl\version_6.1.2\lvgl\src\lv_core\../lv_misc/lv_color.h ****     }
 306:..\..\..\lvgl\version_6.1.2\lvgl\src\lv_core\../lv_misc/lv_color.h **** #elif LV_COLOR_DEPTH == 16
 307:..\..\..\lvgl\version_6.1.2\lvgl\src\lv_core\../lv_misc/lv_color.h ****     if((LV_COLOR_GET_R(color) & 0x10) || (LV_COLOR_GET_G(color) & 0x20) || (LV_COLOR_GET_B(color) &
 308:..\..\..\lvgl\version_6.1.2\lvgl\src\lv_core\../lv_misc/lv_color.h ****         return 1;
 309:..\..\..\lvgl\version_6.1.2\lvgl\src\lv_core\../lv_misc/lv_color.h ****     } else {
 310:..\..\..\lvgl\version_6.1.2\lvgl\src\lv_core\../lv_misc/lv_color.h ****         return 0;
 311:..\..\..\lvgl\version_6.1.2\lvgl\src\lv_core\../lv_misc/lv_color.h ****     }
 312:..\..\..\lvgl\version_6.1.2\lvgl\src\lv_core\../lv_misc/lv_color.h **** #elif LV_COLOR_DEPTH == 32
 313:..\..\..\lvgl\version_6.1.2\lvgl\src\lv_core\../lv_misc/lv_color.h ****     if((LV_COLOR_GET_R(color) & 0x80) || (LV_COLOR_GET_G(color) & 0x80) || (LV_COLOR_GET_B(color) &
 314:..\..\..\lvgl\version_6.1.2\lvgl\src\lv_core\../lv_misc/lv_color.h ****         return 1;
 315:..\..\..\lvgl\version_6.1.2\lvgl\src\lv_core\../lv_misc/lv_color.h ****     } else {
 316:..\..\..\lvgl\version_6.1.2\lvgl\src\lv_core\../lv_misc/lv_color.h ****         return 0;
 317:..\..\..\lvgl\version_6.1.2\lvgl\src\lv_core\../lv_misc/lv_color.h ****     }
 318:..\..\..\lvgl\version_6.1.2\lvgl\src\lv_core\../lv_misc/lv_color.h **** #endif
 319:..\..\..\lvgl\version_6.1.2\lvgl\src\lv_core\../lv_misc/lv_color.h **** }
 320:..\..\..\lvgl\version_6.1.2\lvgl\src\lv_core\../lv_misc/lv_color.h **** 
 321:..\..\..\lvgl\version_6.1.2\lvgl\src\lv_core\../lv_misc/lv_color.h **** static inline uint8_t lv_color_to8(lv_color_t color)
 322:..\..\..\lvgl\version_6.1.2\lvgl\src\lv_core\../lv_misc/lv_color.h **** {
 323:..\..\..\lvgl\version_6.1.2\lvgl\src\lv_core\../lv_misc/lv_color.h **** #if LV_COLOR_DEPTH == 1
 324:..\..\..\lvgl\version_6.1.2\lvgl\src\lv_core\../lv_misc/lv_color.h ****     if(color.full == 0)
 325:..\..\..\lvgl\version_6.1.2\lvgl\src\lv_core\../lv_misc/lv_color.h ****         return 0;
 326:..\..\..\lvgl\version_6.1.2\lvgl\src\lv_core\../lv_misc/lv_color.h ****     else
 327:..\..\..\lvgl\version_6.1.2\lvgl\src\lv_core\../lv_misc/lv_color.h ****         return 0xFF;
 328:..\..\..\lvgl\version_6.1.2\lvgl\src\lv_core\../lv_misc/lv_color.h **** #elif LV_COLOR_DEPTH == 8
 329:..\..\..\lvgl\version_6.1.2\lvgl\src\lv_core\../lv_misc/lv_color.h ****     return color.full;
 330:..\..\..\lvgl\version_6.1.2\lvgl\src\lv_core\../lv_misc/lv_color.h **** #elif LV_COLOR_DEPTH == 16
 331:..\..\..\lvgl\version_6.1.2\lvgl\src\lv_core\../lv_misc/lv_color.h ****     lv_color8_t ret;
 332:..\..\..\lvgl\version_6.1.2\lvgl\src\lv_core\../lv_misc/lv_color.h ****     LV_COLOR_SET_R8(ret, LV_COLOR_GET_R(color) >> 2);   /* 5 - 3  = 2*/
 333:..\..\..\lvgl\version_6.1.2\lvgl\src\lv_core\../lv_misc/lv_color.h ****     LV_COLOR_SET_G8(ret, LV_COLOR_GET_G(color) >> 3); /* 6 - 3  = 3*/
 334:..\..\..\lvgl\version_6.1.2\lvgl\src\lv_core\../lv_misc/lv_color.h ****     LV_COLOR_SET_B8(ret, LV_COLOR_GET_B(color) >> 3);  /* 5 - 2  = 3*/
 335:..\..\..\lvgl\version_6.1.2\lvgl\src\lv_core\../lv_misc/lv_color.h ****     return ret.full;
 336:..\..\..\lvgl\version_6.1.2\lvgl\src\lv_core\../lv_misc/lv_color.h **** #elif LV_COLOR_DEPTH == 32
 337:..\..\..\lvgl\version_6.1.2\lvgl\src\lv_core\../lv_misc/lv_color.h ****     lv_color8_t ret;
 338:..\..\..\lvgl\version_6.1.2\lvgl\src\lv_core\../lv_misc/lv_color.h ****     LV_COLOR_SET_R8(ret, LV_COLOR_GET_R(color) >> 5);   /* 8 - 3  = 5*/
 339:..\..\..\lvgl\version_6.1.2\lvgl\src\lv_core\../lv_misc/lv_color.h ****     LV_COLOR_SET_G8(ret, LV_COLOR_GET_G(color) >> 5); /* 8 - 3  = 5*/
 340:..\..\..\lvgl\version_6.1.2\lvgl\src\lv_core\../lv_misc/lv_color.h ****     LV_COLOR_SET_B8(ret, LV_COLOR_GET_B(color) >> 6);  /* 8 - 2  = 6*/
 341:..\..\..\lvgl\version_6.1.2\lvgl\src\lv_core\../lv_misc/lv_color.h ****     return ret.full;
 342:..\..\..\lvgl\version_6.1.2\lvgl\src\lv_core\../lv_misc/lv_color.h **** #endif
 343:..\..\..\lvgl\version_6.1.2\lvgl\src\lv_core\../lv_misc/lv_color.h **** }
 344:..\..\..\lvgl\version_6.1.2\lvgl\src\lv_core\../lv_misc/lv_color.h **** 
 345:..\..\..\lvgl\version_6.1.2\lvgl\src\lv_core\../lv_misc/lv_color.h **** static inline uint16_t lv_color_to16(lv_color_t color)
 346:..\..\..\lvgl\version_6.1.2\lvgl\src\lv_core\../lv_misc/lv_color.h **** {
 347:..\..\..\lvgl\version_6.1.2\lvgl\src\lv_core\../lv_misc/lv_color.h **** #if LV_COLOR_DEPTH == 1
 348:..\..\..\lvgl\version_6.1.2\lvgl\src\lv_core\../lv_misc/lv_color.h ****     if(color.full == 0)
 349:..\..\..\lvgl\version_6.1.2\lvgl\src\lv_core\../lv_misc/lv_color.h ****         return 0;
 350:..\..\..\lvgl\version_6.1.2\lvgl\src\lv_core\../lv_misc/lv_color.h ****     else
 351:..\..\..\lvgl\version_6.1.2\lvgl\src\lv_core\../lv_misc/lv_color.h ****         return 0xFFFF;
 352:..\..\..\lvgl\version_6.1.2\lvgl\src\lv_core\../lv_misc/lv_color.h **** #elif LV_COLOR_DEPTH == 8
 353:..\..\..\lvgl\version_6.1.2\lvgl\src\lv_core\../lv_misc/lv_color.h ****     lv_color16_t ret;
ARM GAS  C:\Users\pearlstl\AppData\Local\Temp\ccvteysW.s 			page 19


 354:..\..\..\lvgl\version_6.1.2\lvgl\src\lv_core\../lv_misc/lv_color.h ****     LV_COLOR_SET_R16(ret, LV_COLOR_GET_R(color) * 4);     /*(2^5 - 1)/(2^3 - 1) = 31/7 = 4*/
 355:..\..\..\lvgl\version_6.1.2\lvgl\src\lv_core\../lv_misc/lv_color.h **** #if LV_COLOR_16_SWAP == 0
 356:..\..\..\lvgl\version_6.1.2\lvgl\src\lv_core\../lv_misc/lv_color.h ****     LV_COLOR_SET_G16(ret,  LV_COLOR_GET_G(color) * 9); /*(2^6 - 1)/(2^3 - 1) = 63/7 = 9*/
 357:..\..\..\lvgl\version_6.1.2\lvgl\src\lv_core\../lv_misc/lv_color.h **** #else
 358:..\..\..\lvgl\version_6.1.2\lvgl\src\lv_core\../lv_misc/lv_color.h ****     LV_COLOR_SET_G16_SWAP(ret, (LV_COLOR_GET_G(color) * 9)); /*(2^6 - 1)/(2^3 - 1) = 63/7 = 9*/
 359:..\..\..\lvgl\version_6.1.2\lvgl\src\lv_core\../lv_misc/lv_color.h **** #endif
 360:..\..\..\lvgl\version_6.1.2\lvgl\src\lv_core\../lv_misc/lv_color.h ****     LV_COLOR_SET_B16(ret, LV_COLOR_GET_B(color) * 10);  /*(2^5 - 1)/(2^2 - 1) = 31/3 = 10*/
 361:..\..\..\lvgl\version_6.1.2\lvgl\src\lv_core\../lv_misc/lv_color.h ****     return ret.full;
 362:..\..\..\lvgl\version_6.1.2\lvgl\src\lv_core\../lv_misc/lv_color.h **** #elif LV_COLOR_DEPTH == 16
 363:..\..\..\lvgl\version_6.1.2\lvgl\src\lv_core\../lv_misc/lv_color.h ****     return color.full;
 364:..\..\..\lvgl\version_6.1.2\lvgl\src\lv_core\../lv_misc/lv_color.h **** #elif LV_COLOR_DEPTH == 32
 365:..\..\..\lvgl\version_6.1.2\lvgl\src\lv_core\../lv_misc/lv_color.h ****     lv_color16_t ret;
 366:..\..\..\lvgl\version_6.1.2\lvgl\src\lv_core\../lv_misc/lv_color.h ****     LV_COLOR_SET_R16(ret, LV_COLOR_GET_R(color) >> 3);   /* 8 - 5  = 3*/
 367:..\..\..\lvgl\version_6.1.2\lvgl\src\lv_core\../lv_misc/lv_color.h **** 
 368:..\..\..\lvgl\version_6.1.2\lvgl\src\lv_core\../lv_misc/lv_color.h **** #if LV_COLOR_16_SWAP == 0
 369:..\..\..\lvgl\version_6.1.2\lvgl\src\lv_core\../lv_misc/lv_color.h ****     LV_COLOR_SET_G16(ret, LV_COLOR_GET_G(color) >> 2); /* 8 - 6  = 2*/
 370:..\..\..\lvgl\version_6.1.2\lvgl\src\lv_core\../lv_misc/lv_color.h **** #else
 371:..\..\..\lvgl\version_6.1.2\lvgl\src\lv_core\../lv_misc/lv_color.h ****     LV_COLOR_SET_G16_SWAP(ret, ret.ch.green_h = (LV_COLOR_GET_G(color) >> 2); /*(2^6 - 1)/(2^3 - 1)
 372:..\..\..\lvgl\version_6.1.2\lvgl\src\lv_core\../lv_misc/lv_color.h **** #endif
 373:..\..\..\lvgl\version_6.1.2\lvgl\src\lv_core\../lv_misc/lv_color.h ****     LV_COLOR_SET_B16(ret, LV_COLOR_GET_B(color) >> 3);  /* 8 - 5  = 3*/
 374:..\..\..\lvgl\version_6.1.2\lvgl\src\lv_core\../lv_misc/lv_color.h ****     return ret.full;
 375:..\..\..\lvgl\version_6.1.2\lvgl\src\lv_core\../lv_misc/lv_color.h **** #endif                         
 376:..\..\..\lvgl\version_6.1.2\lvgl\src\lv_core\../lv_misc/lv_color.h **** }
 377:..\..\..\lvgl\version_6.1.2\lvgl\src\lv_core\../lv_misc/lv_color.h **** 
 378:..\..\..\lvgl\version_6.1.2\lvgl\src\lv_core\../lv_misc/lv_color.h **** static inline uint32_t lv_color_to32(lv_color_t color)
 379:..\..\..\lvgl\version_6.1.2\lvgl\src\lv_core\../lv_misc/lv_color.h **** {
 380:..\..\..\lvgl\version_6.1.2\lvgl\src\lv_core\../lv_misc/lv_color.h **** #if LV_COLOR_DEPTH == 1
 381:..\..\..\lvgl\version_6.1.2\lvgl\src\lv_core\../lv_misc/lv_color.h ****     if(color.full == 0)
 382:..\..\..\lvgl\version_6.1.2\lvgl\src\lv_core\../lv_misc/lv_color.h ****         return 0;
 383:..\..\..\lvgl\version_6.1.2\lvgl\src\lv_core\../lv_misc/lv_color.h ****     else
 384:..\..\..\lvgl\version_6.1.2\lvgl\src\lv_core\../lv_misc/lv_color.h ****         return 0xFFFFFFFF;
 385:..\..\..\lvgl\version_6.1.2\lvgl\src\lv_core\../lv_misc/lv_color.h **** #elif LV_COLOR_DEPTH == 8
 386:..\..\..\lvgl\version_6.1.2\lvgl\src\lv_core\../lv_misc/lv_color.h ****     lv_color32_t ret;
 387:..\..\..\lvgl\version_6.1.2\lvgl\src\lv_core\../lv_misc/lv_color.h ****     LV_COLOR_SET_R32(ret, LV_COLOR_GET_R(color) * 36);     /*(2^8 - 1)/(2^3 - 1) = 255/7 = 36*/
 388:..\..\..\lvgl\version_6.1.2\lvgl\src\lv_core\../lv_misc/lv_color.h ****     LV_COLOR_SET_G32(ret, LV_COLOR_GET_G(color) * 36); /*(2^8 - 1)/(2^3 - 1) = 255/7 = 36*/
 389:..\..\..\lvgl\version_6.1.2\lvgl\src\lv_core\../lv_misc/lv_color.h ****     LV_COLOR_SET_B32(ret, LV_COLOR_GET_B(color) * 85);   /*(2^8 - 1)/(2^2 - 1) = 255/3 = 85*/
 390:..\..\..\lvgl\version_6.1.2\lvgl\src\lv_core\../lv_misc/lv_color.h ****     LV_COLOR_SET_A32(ret, 0xFF);
 391:..\..\..\lvgl\version_6.1.2\lvgl\src\lv_core\../lv_misc/lv_color.h ****     return ret.full;
 392:..\..\..\lvgl\version_6.1.2\lvgl\src\lv_core\../lv_misc/lv_color.h **** #elif LV_COLOR_DEPTH == 16
 393:..\..\..\lvgl\version_6.1.2\lvgl\src\lv_core\../lv_misc/lv_color.h ****     /**
 394:..\..\..\lvgl\version_6.1.2\lvgl\src\lv_core\../lv_misc/lv_color.h ****      * The floating point math for conversion is:
 395:..\..\..\lvgl\version_6.1.2\lvgl\src\lv_core\../lv_misc/lv_color.h ****      *  valueto = valuefrom * ( (2^bitsto - 1) / (float)(2^bitsfrom - 1) )
 396:..\..\..\lvgl\version_6.1.2\lvgl\src\lv_core\../lv_misc/lv_color.h ****      * The faster integer math for conversion is:
 397:..\..\..\lvgl\version_6.1.2\lvgl\src\lv_core\../lv_misc/lv_color.h ****      *  valueto = ( valuefrom * multiplier + adder ) >> divisor
 398:..\..\..\lvgl\version_6.1.2\lvgl\src\lv_core\../lv_misc/lv_color.h ****      *   multiplier = FLOOR( ( (2^bitsto - 1) << divisor ) / (float)(2^bitsfrom - 1) )
 399:..\..\..\lvgl\version_6.1.2\lvgl\src\lv_core\../lv_misc/lv_color.h ****      * 
 400:..\..\..\lvgl\version_6.1.2\lvgl\src\lv_core\../lv_misc/lv_color.h ****      * Find the first divisor where ( adder >> divisor ) <= 0
 401:..\..\..\lvgl\version_6.1.2\lvgl\src\lv_core\../lv_misc/lv_color.h ****      * 
 402:..\..\..\lvgl\version_6.1.2\lvgl\src\lv_core\../lv_misc/lv_color.h ****      * 5-bit to 8-bit: ( 31 * multiplier + adder ) >> divisor = 255
 403:..\..\..\lvgl\version_6.1.2\lvgl\src\lv_core\../lv_misc/lv_color.h ****      * divisor  multiplier  adder  min (0)  max (31)
 404:..\..\..\lvgl\version_6.1.2\lvgl\src\lv_core\../lv_misc/lv_color.h ****      *       0           8      7        7       255
 405:..\..\..\lvgl\version_6.1.2\lvgl\src\lv_core\../lv_misc/lv_color.h ****      *       1          16     14        7       255
 406:..\..\..\lvgl\version_6.1.2\lvgl\src\lv_core\../lv_misc/lv_color.h ****      *       2          32     28        7       255
 407:..\..\..\lvgl\version_6.1.2\lvgl\src\lv_core\../lv_misc/lv_color.h ****      *       3          65     25        3       255
 408:..\..\..\lvgl\version_6.1.2\lvgl\src\lv_core\../lv_misc/lv_color.h ****      *       4         131     19        1       255
 409:..\..\..\lvgl\version_6.1.2\lvgl\src\lv_core\../lv_misc/lv_color.h ****      *       5         263      7        0       255
 410:..\..\..\lvgl\version_6.1.2\lvgl\src\lv_core\../lv_misc/lv_color.h ****      * 
ARM GAS  C:\Users\pearlstl\AppData\Local\Temp\ccvteysW.s 			page 20


 411:..\..\..\lvgl\version_6.1.2\lvgl\src\lv_core\../lv_misc/lv_color.h ****      * 6-bit to 8-bit: 255 = ( 63 * multiplier + adder ) >> divisor
 412:..\..\..\lvgl\version_6.1.2\lvgl\src\lv_core\../lv_misc/lv_color.h ****      * divisor  multiplier  adder  min (0)  max (63)
 413:..\..\..\lvgl\version_6.1.2\lvgl\src\lv_core\../lv_misc/lv_color.h ****      *       0           4      3        3       255
 414:..\..\..\lvgl\version_6.1.2\lvgl\src\lv_core\../lv_misc/lv_color.h ****      *       1           8      6        3       255
 415:..\..\..\lvgl\version_6.1.2\lvgl\src\lv_core\../lv_misc/lv_color.h ****      *       2          16     12        3       255
 416:..\..\..\lvgl\version_6.1.2\lvgl\src\lv_core\../lv_misc/lv_color.h ****      *       3          32     24        3       255
 417:..\..\..\lvgl\version_6.1.2\lvgl\src\lv_core\../lv_misc/lv_color.h ****      *       4          64     48        3       255
 418:..\..\..\lvgl\version_6.1.2\lvgl\src\lv_core\../lv_misc/lv_color.h ****      *       5         129     33        1       255
 419:..\..\..\lvgl\version_6.1.2\lvgl\src\lv_core\../lv_misc/lv_color.h ****      *       6         259      3        0       255
 420:..\..\..\lvgl\version_6.1.2\lvgl\src\lv_core\../lv_misc/lv_color.h ****      */
 421:..\..\..\lvgl\version_6.1.2\lvgl\src\lv_core\../lv_misc/lv_color.h ****     lv_color32_t ret;
 422:..\..\..\lvgl\version_6.1.2\lvgl\src\lv_core\../lv_misc/lv_color.h ****     LV_COLOR_SET_R32(ret, (LV_COLOR_GET_R(color) * 263 + 7 ) >> 5);
 423:..\..\..\lvgl\version_6.1.2\lvgl\src\lv_core\../lv_misc/lv_color.h ****     LV_COLOR_SET_G32(ret, (LV_COLOR_GET_G(color) * 259 + 3 ) >> 6);
 424:..\..\..\lvgl\version_6.1.2\lvgl\src\lv_core\../lv_misc/lv_color.h ****     LV_COLOR_SET_B32(ret, (LV_COLOR_GET_B(color) * 263 + 7 ) >> 5);
 425:..\..\..\lvgl\version_6.1.2\lvgl\src\lv_core\../lv_misc/lv_color.h ****     LV_COLOR_SET_A32(ret, 0xFF);
 426:..\..\..\lvgl\version_6.1.2\lvgl\src\lv_core\../lv_misc/lv_color.h ****     return ret.full;
 427:..\..\..\lvgl\version_6.1.2\lvgl\src\lv_core\../lv_misc/lv_color.h **** #elif LV_COLOR_DEPTH == 32
 428:..\..\..\lvgl\version_6.1.2\lvgl\src\lv_core\../lv_misc/lv_color.h ****     return color.full;
 429:..\..\..\lvgl\version_6.1.2\lvgl\src\lv_core\../lv_misc/lv_color.h **** #endif
 430:..\..\..\lvgl\version_6.1.2\lvgl\src\lv_core\../lv_misc/lv_color.h **** }
 431:..\..\..\lvgl\version_6.1.2\lvgl\src\lv_core\../lv_misc/lv_color.h **** 
 432:..\..\..\lvgl\version_6.1.2\lvgl\src\lv_core\../lv_misc/lv_color.h **** static inline lv_color_t lv_color_mix(lv_color_t c1, lv_color_t c2, uint8_t mix)
 433:..\..\..\lvgl\version_6.1.2\lvgl\src\lv_core\../lv_misc/lv_color.h **** {
 434:..\..\..\lvgl\version_6.1.2\lvgl\src\lv_core\../lv_misc/lv_color.h ****     lv_color_t ret;
 435:..\..\..\lvgl\version_6.1.2\lvgl\src\lv_core\../lv_misc/lv_color.h **** #if LV_COLOR_DEPTH != 1
 436:..\..\..\lvgl\version_6.1.2\lvgl\src\lv_core\../lv_misc/lv_color.h ****     /*LV_COLOR_DEPTH == 8, 16 or 32*/
 437:..\..\..\lvgl\version_6.1.2\lvgl\src\lv_core\../lv_misc/lv_color.h ****     LV_COLOR_SET_R(ret, (uint16_t)((uint16_t) LV_COLOR_GET_R(c1) * mix + LV_COLOR_GET_R(c2) * (255 
 299              		.loc 2 437 0
 300 01dc 90F806C0 		ldrb	ip, [r0, #6]	@ zero_extendqisi2
 438:..\..\..\lvgl\version_6.1.2\lvgl\src\lv_core\../lv_misc/lv_color.h ****     LV_COLOR_SET_G(ret, (uint16_t)((uint16_t) LV_COLOR_GET_G(c1) * mix + LV_COLOR_GET_G(c2) * (255 
 301              		.loc 2 438 0
 302 01e0 4779     		ldrb	r7, [r0, #5]	@ zero_extendqisi2
 303              	.LBE153:
 304              	.LBE152:
 261:..\..\..\lvgl\version_6.1.2\lvgl\src\lv_core/lv_style.c ****     res->body.grad_color   = lv_color_mix(end->body.grad_color, start->body.grad_color, opa);
 305              		.loc 1 261 0
 306 01e2 0679     		ldrb	r6, [r0, #4]	@ zero_extendqisi2
 307              	.LBB159:
 308              	.LBB154:
 437:..\..\..\lvgl\version_6.1.2\lvgl\src\lv_core\../lv_misc/lv_color.h ****     LV_COLOR_SET_G(ret, (uint16_t)((uint16_t) LV_COLOR_GET_G(c1) * mix + LV_COLOR_GET_G(c2) * (255 
 309              		.loc 2 437 0
 310 01e4 90F85680 		ldrb	r8, [r0, #86]	@ zero_extendqisi2
 311              		.loc 2 438 0
 312 01e8 90F855E0 		ldrb	lr, [r0, #85]	@ zero_extendqisi2
 313              	.LBE154:
 314              	.LBE159:
 261:..\..\..\lvgl\version_6.1.2\lvgl\src\lv_core/lv_style.c ****     res->body.grad_color   = lv_color_mix(end->body.grad_color, start->body.grad_color, opa);
 315              		.loc 1 261 0
 316 01ec 90F85450 		ldrb	r5, [r0, #84]	@ zero_extendqisi2
 317              	.LBB160:
 318              	.LBB155:
 437:..\..\..\lvgl\version_6.1.2\lvgl\src\lv_core\../lv_misc/lv_color.h ****     LV_COLOR_SET_G(ret, (uint16_t)((uint16_t) LV_COLOR_GET_G(c1) * mix + LV_COLOR_GET_G(c2) * (255 
 319              		.loc 2 437 0
 320 01f0 1CFB02FC 		smulbb	ip, ip, r2
 321              		.loc 2 438 0
 322 01f4 17FB02F7 		smulbb	r7, r7, r2
 323              	.LBE155:
ARM GAS  C:\Users\pearlstl\AppData\Local\Temp\ccvteysW.s 			page 21


 324              	.LBE160:
 261:..\..\..\lvgl\version_6.1.2\lvgl\src\lv_core/lv_style.c ****     res->body.grad_color   = lv_color_mix(end->body.grad_color, start->body.grad_color, opa);
 325              		.loc 1 261 0
 326 01f8 16FB02F6 		smulbb	r6, r6, r2
 327              	.LBB161:
 328              	.LBB156:
 437:..\..\..\lvgl\version_6.1.2\lvgl\src\lv_core\../lv_misc/lv_color.h ****     LV_COLOR_SET_G(ret, (uint16_t)((uint16_t) LV_COLOR_GET_G(c1) * mix + LV_COLOR_GET_G(c2) * (255 
 329              		.loc 2 437 0
 330 01fc 08FB01CC 		mla	ip, r8, r1, ip
 331              		.loc 2 438 0
 332 0200 0EFB0177 		mla	r7, lr, r1, r7
 333              	.LBE156:
 334              	.LBE161:
 261:..\..\..\lvgl\version_6.1.2\lvgl\src\lv_core/lv_style.c ****     res->body.grad_color   = lv_color_mix(end->body.grad_color, start->body.grad_color, opa);
 335              		.loc 1 261 0
 336 0204 05FB0166 		mla	r6, r5, r1, r6
 337              	.LBB162:
 338              	.LBB157:
 437:..\..\..\lvgl\version_6.1.2\lvgl\src\lv_core\../lv_misc/lv_color.h ****     LV_COLOR_SET_G(ret, (uint16_t)((uint16_t) LV_COLOR_GET_G(c1) * mix + LV_COLOR_GET_G(c2) * (255 
 339              		.loc 2 437 0
 340 0208 CCF3072E 		ubfx	lr, ip, #8, #8
 341              	.LVL9:
 342              	.LBE157:
 343              	.LBE162:
 261:..\..\..\lvgl\version_6.1.2\lvgl\src\lv_core/lv_style.c ****     res->body.grad_color   = lv_color_mix(end->body.grad_color, start->body.grad_color, opa);
 344              		.loc 1 261 0
 345 020c FF25     		movs	r5, #255
 346              	.LBB163:
 347              	.LBB158:
 348              		.loc 2 438 0
 349 020e C7F30727 		ubfx	r7, r7, #8, #8
 350              	.LVL10:
 351              	.LBE158:
 352              	.LBE163:
 261:..\..\..\lvgl\version_6.1.2\lvgl\src\lv_core/lv_style.c ****     res->body.grad_color   = lv_color_mix(end->body.grad_color, start->body.grad_color, opa);
 353              		.loc 1 261 0
 354 0212 C6F30726 		ubfx	r6, r6, #8, #8
 355 0216 DD71     		strb	r5, [r3, #7]
 356 0218 83F806E0 		strb	lr, [r3, #6]
 357 021c 5F71     		strb	r7, [r3, #5]
 358 021e 1E71     		strb	r6, [r3, #4]
 359              	.LBB164:
 360              	.LBB165:
 437:..\..\..\lvgl\version_6.1.2\lvgl\src\lv_core\../lv_misc/lv_color.h ****     LV_COLOR_SET_G(ret, (uint16_t)((uint16_t) LV_COLOR_GET_G(c1) * mix + LV_COLOR_GET_G(c2) * (255 
 361              		.loc 2 437 0
 362 0220 90F80A80 		ldrb	r8, [r0, #10]	@ zero_extendqisi2
 363              		.loc 2 438 0
 364 0224 90F809E0 		ldrb	lr, [r0, #9]	@ zero_extendqisi2
 365              	.LBE165:
 366              	.LBE164:
 262:..\..\..\lvgl\version_6.1.2\lvgl\src\lv_core/lv_style.c ****     res->body.border.color = lv_color_mix(end->body.border.color, start->body.border.color, opa);
 367              		.loc 1 262 0
 368 0228 067A     		ldrb	r6, [r0, #8]	@ zero_extendqisi2
 369              	.LBB170:
 370              	.LBB166:
 437:..\..\..\lvgl\version_6.1.2\lvgl\src\lv_core\../lv_misc/lv_color.h ****     LV_COLOR_SET_G(ret, (uint16_t)((uint16_t) LV_COLOR_GET_G(c1) * mix + LV_COLOR_GET_G(c2) * (255 
 371              		.loc 2 437 0
ARM GAS  C:\Users\pearlstl\AppData\Local\Temp\ccvteysW.s 			page 22


 372 022a 90F85A90 		ldrb	r9, [r0, #90]	@ zero_extendqisi2
 373              		.loc 2 438 0
 374 022e 90F859C0 		ldrb	ip, [r0, #89]	@ zero_extendqisi2
 375              	.LBE166:
 376              	.LBE170:
 262:..\..\..\lvgl\version_6.1.2\lvgl\src\lv_core/lv_style.c ****     res->body.border.color = lv_color_mix(end->body.border.color, start->body.border.color, opa);
 377              		.loc 1 262 0
 378 0232 90F85870 		ldrb	r7, [r0, #88]	@ zero_extendqisi2
 379 0236 DD72     		strb	r5, [r3, #11]
 380              	.LBB171:
 381              	.LBB167:
 437:..\..\..\lvgl\version_6.1.2\lvgl\src\lv_core\../lv_misc/lv_color.h ****     LV_COLOR_SET_G(ret, (uint16_t)((uint16_t) LV_COLOR_GET_G(c1) * mix + LV_COLOR_GET_G(c2) * (255 
 382              		.loc 2 437 0
 383 0238 18FB02F8 		smulbb	r8, r8, r2
 384              		.loc 2 438 0
 385 023c 1EFB02FE 		smulbb	lr, lr, r2
 386              	.LBE167:
 387              	.LBE171:
 262:..\..\..\lvgl\version_6.1.2\lvgl\src\lv_core/lv_style.c ****     res->body.border.color = lv_color_mix(end->body.border.color, start->body.border.color, opa);
 388              		.loc 1 262 0
 389 0240 16FB02F6 		smulbb	r6, r6, r2
 390              	.LBB172:
 391              	.LBB168:
 437:..\..\..\lvgl\version_6.1.2\lvgl\src\lv_core\../lv_misc/lv_color.h ****     LV_COLOR_SET_G(ret, (uint16_t)((uint16_t) LV_COLOR_GET_G(c1) * mix + LV_COLOR_GET_G(c2) * (255 
 392              		.loc 2 437 0
 393 0244 09FB0188 		mla	r8, r9, r1, r8
 394              		.loc 2 438 0
 395 0248 0CFB01EE 		mla	lr, ip, r1, lr
 396              	.LBE168:
 397              	.LBE172:
 262:..\..\..\lvgl\version_6.1.2\lvgl\src\lv_core/lv_style.c ****     res->body.border.color = lv_color_mix(end->body.border.color, start->body.border.color, opa);
 398              		.loc 1 262 0
 399 024c 07FB0166 		mla	r6, r7, r1, r6
 400              	.LBB173:
 401              	.LBB169:
 437:..\..\..\lvgl\version_6.1.2\lvgl\src\lv_core\../lv_misc/lv_color.h ****     LV_COLOR_SET_G(ret, (uint16_t)((uint16_t) LV_COLOR_GET_G(c1) * mix + LV_COLOR_GET_G(c2) * (255 
 402              		.loc 2 437 0
 403 0250 C8F3072C 		ubfx	ip, r8, #8, #8
 404              	.LVL11:
 405              		.loc 2 438 0
 406 0254 CEF30727 		ubfx	r7, lr, #8, #8
 407              	.LVL12:
 408              	.LBE169:
 409              	.LBE173:
 262:..\..\..\lvgl\version_6.1.2\lvgl\src\lv_core/lv_style.c ****     res->body.border.color = lv_color_mix(end->body.border.color, start->body.border.color, opa);
 410              		.loc 1 262 0
 411 0258 C6F30726 		ubfx	r6, r6, #8, #8
 412 025c 83F80AC0 		strb	ip, [r3, #10]
 413 0260 5F72     		strb	r7, [r3, #9]
 414 0262 1E72     		strb	r6, [r3, #8]
 415              	.LBB174:
 416              	.LBB175:
 437:..\..\..\lvgl\version_6.1.2\lvgl\src\lv_core\../lv_misc/lv_color.h ****     LV_COLOR_SET_G(ret, (uint16_t)((uint16_t) LV_COLOR_GET_G(c1) * mix + LV_COLOR_GET_G(c2) * (255 
 417              		.loc 2 437 0
 418 0264 90F81280 		ldrb	r8, [r0, #18]	@ zero_extendqisi2
 419              		.loc 2 438 0
 420 0268 90F811E0 		ldrb	lr, [r0, #17]	@ zero_extendqisi2
ARM GAS  C:\Users\pearlstl\AppData\Local\Temp\ccvteysW.s 			page 23


 421              	.LBE175:
 422              	.LBE174:
 263:..\..\..\lvgl\version_6.1.2\lvgl\src\lv_core/lv_style.c ****     res->body.shadow.color = lv_color_mix(end->body.shadow.color, start->body.shadow.color, opa);
 423              		.loc 1 263 0
 424 026c 067C     		ldrb	r6, [r0, #16]	@ zero_extendqisi2
 425              	.LBB180:
 426              	.LBB176:
 437:..\..\..\lvgl\version_6.1.2\lvgl\src\lv_core\../lv_misc/lv_color.h ****     LV_COLOR_SET_G(ret, (uint16_t)((uint16_t) LV_COLOR_GET_G(c1) * mix + LV_COLOR_GET_G(c2) * (255 
 427              		.loc 2 437 0
 428 026e 90F86290 		ldrb	r9, [r0, #98]	@ zero_extendqisi2
 429              		.loc 2 438 0
 430 0272 90F861C0 		ldrb	ip, [r0, #97]	@ zero_extendqisi2
 431              	.LBE176:
 432              	.LBE180:
 263:..\..\..\lvgl\version_6.1.2\lvgl\src\lv_core/lv_style.c ****     res->body.shadow.color = lv_color_mix(end->body.shadow.color, start->body.shadow.color, opa);
 433              		.loc 1 263 0
 434 0276 90F86070 		ldrb	r7, [r0, #96]	@ zero_extendqisi2
 435 027a DD74     		strb	r5, [r3, #19]
 436              	.LBB181:
 437              	.LBB177:
 437:..\..\..\lvgl\version_6.1.2\lvgl\src\lv_core\../lv_misc/lv_color.h ****     LV_COLOR_SET_G(ret, (uint16_t)((uint16_t) LV_COLOR_GET_G(c1) * mix + LV_COLOR_GET_G(c2) * (255 
 438              		.loc 2 437 0
 439 027c 18FB02F8 		smulbb	r8, r8, r2
 440              		.loc 2 438 0
 441 0280 1EFB02FE 		smulbb	lr, lr, r2
 442              	.LBE177:
 443              	.LBE181:
 263:..\..\..\lvgl\version_6.1.2\lvgl\src\lv_core/lv_style.c ****     res->body.shadow.color = lv_color_mix(end->body.shadow.color, start->body.shadow.color, opa);
 444              		.loc 1 263 0
 445 0284 16FB02F6 		smulbb	r6, r6, r2
 446              	.LBB182:
 447              	.LBB178:
 437:..\..\..\lvgl\version_6.1.2\lvgl\src\lv_core\../lv_misc/lv_color.h ****     LV_COLOR_SET_G(ret, (uint16_t)((uint16_t) LV_COLOR_GET_G(c1) * mix + LV_COLOR_GET_G(c2) * (255 
 448              		.loc 2 437 0
 449 0288 09FB0188 		mla	r8, r9, r1, r8
 450              		.loc 2 438 0
 451 028c 0CFB01EE 		mla	lr, ip, r1, lr
 452              	.LBE178:
 453              	.LBE182:
 263:..\..\..\lvgl\version_6.1.2\lvgl\src\lv_core/lv_style.c ****     res->body.shadow.color = lv_color_mix(end->body.shadow.color, start->body.shadow.color, opa);
 454              		.loc 1 263 0
 455 0290 07FB0166 		mla	r6, r7, r1, r6
 456              	.LBB183:
 457              	.LBB179:
 437:..\..\..\lvgl\version_6.1.2\lvgl\src\lv_core\../lv_misc/lv_color.h ****     LV_COLOR_SET_G(ret, (uint16_t)((uint16_t) LV_COLOR_GET_G(c1) * mix + LV_COLOR_GET_G(c2) * (255 
 458              		.loc 2 437 0
 459 0294 C8F3072C 		ubfx	ip, r8, #8, #8
 460              	.LVL13:
 461              		.loc 2 438 0
 462 0298 CEF30727 		ubfx	r7, lr, #8, #8
 463              	.LVL14:
 464              	.LBE179:
 465              	.LBE183:
 263:..\..\..\lvgl\version_6.1.2\lvgl\src\lv_core/lv_style.c ****     res->body.shadow.color = lv_color_mix(end->body.shadow.color, start->body.shadow.color, opa);
 466              		.loc 1 263 0
 467 029c C6F30726 		ubfx	r6, r6, #8, #8
 468 02a0 5F74     		strb	r7, [r3, #17]
ARM GAS  C:\Users\pearlstl\AppData\Local\Temp\ccvteysW.s 			page 24


 469 02a2 1E74     		strb	r6, [r3, #16]
 470 02a4 83F812C0 		strb	ip, [r3, #18]
 471              	.LBB184:
 472              	.LBB185:
 437:..\..\..\lvgl\version_6.1.2\lvgl\src\lv_core\../lv_misc/lv_color.h ****     LV_COLOR_SET_G(ret, (uint16_t)((uint16_t) LV_COLOR_GET_G(c1) * mix + LV_COLOR_GET_G(c2) * (255 
 473              		.loc 2 437 0
 474 02a8 90F86A90 		ldrb	r9, [r0, #106]	@ zero_extendqisi2
 475 02ac 90F81A80 		ldrb	r8, [r0, #26]	@ zero_extendqisi2
 476              		.loc 2 438 0
 477 02b0 90F869C0 		ldrb	ip, [r0, #105]	@ zero_extendqisi2
 478 02b4 90F819E0 		ldrb	lr, [r0, #25]	@ zero_extendqisi2
 479              	.LBE185:
 480              	.LBE184:
 264:..\..\..\lvgl\version_6.1.2\lvgl\src\lv_core/lv_style.c ****     res->text.color        = lv_color_mix(end->text.color, start->text.color, opa);
 481              		.loc 1 264 0
 482 02b8 067E     		ldrb	r6, [r0, #24]	@ zero_extendqisi2
 483 02ba 90F86870 		ldrb	r7, [r0, #104]	@ zero_extendqisi2
 484 02be DD76     		strb	r5, [r3, #27]
 485              	.LBB189:
 486              	.LBB186:
 437:..\..\..\lvgl\version_6.1.2\lvgl\src\lv_core\../lv_misc/lv_color.h ****     LV_COLOR_SET_G(ret, (uint16_t)((uint16_t) LV_COLOR_GET_G(c1) * mix + LV_COLOR_GET_G(c2) * (255 
 487              		.loc 2 437 0
 488 02c0 18FB02F8 		smulbb	r8, r8, r2
 489              		.loc 2 438 0
 490 02c4 1EFB02FE 		smulbb	lr, lr, r2
 491              	.LBE186:
 492              	.LBE189:
 264:..\..\..\lvgl\version_6.1.2\lvgl\src\lv_core/lv_style.c ****     res->text.color        = lv_color_mix(end->text.color, start->text.color, opa);
 493              		.loc 1 264 0
 494 02c8 16FB02F6 		smulbb	r6, r6, r2
 495              	.LBB190:
 496              	.LBB187:
 437:..\..\..\lvgl\version_6.1.2\lvgl\src\lv_core\../lv_misc/lv_color.h ****     LV_COLOR_SET_G(ret, (uint16_t)((uint16_t) LV_COLOR_GET_G(c1) * mix + LV_COLOR_GET_G(c2) * (255 
 497              		.loc 2 437 0
 498 02cc 09FB0188 		mla	r8, r9, r1, r8
 499              		.loc 2 438 0
 500 02d0 0CFB01EE 		mla	lr, ip, r1, lr
 501              	.LBE187:
 502              	.LBE190:
 264:..\..\..\lvgl\version_6.1.2\lvgl\src\lv_core/lv_style.c ****     res->text.color        = lv_color_mix(end->text.color, start->text.color, opa);
 503              		.loc 1 264 0
 504 02d4 07FB0166 		mla	r6, r7, r1, r6
 505              	.LBB191:
 506              	.LBB188:
 437:..\..\..\lvgl\version_6.1.2\lvgl\src\lv_core\../lv_misc/lv_color.h ****     LV_COLOR_SET_G(ret, (uint16_t)((uint16_t) LV_COLOR_GET_G(c1) * mix + LV_COLOR_GET_G(c2) * (255 
 507              		.loc 2 437 0
 508 02d8 C8F3072C 		ubfx	ip, r8, #8, #8
 509              	.LVL15:
 510              		.loc 2 438 0
 511 02dc CEF30727 		ubfx	r7, lr, #8, #8
 512              	.LVL16:
 513              	.LBE188:
 514              	.LBE191:
 264:..\..\..\lvgl\version_6.1.2\lvgl\src\lv_core/lv_style.c ****     res->text.color        = lv_color_mix(end->text.color, start->text.color, opa);
 515              		.loc 1 264 0
 516 02e0 C6F30726 		ubfx	r6, r6, #8, #8
 517 02e4 83F81AC0 		strb	ip, [r3, #26]
ARM GAS  C:\Users\pearlstl\AppData\Local\Temp\ccvteysW.s 			page 25


 518 02e8 5F76     		strb	r7, [r3, #25]
 519 02ea 1E76     		strb	r6, [r3, #24]
 520              	.LBB192:
 521              	.LBB193:
 437:..\..\..\lvgl\version_6.1.2\lvgl\src\lv_core\../lv_misc/lv_color.h ****     LV_COLOR_SET_G(ret, (uint16_t)((uint16_t) LV_COLOR_GET_G(c1) * mix + LV_COLOR_GET_G(c2) * (255 
 522              		.loc 2 437 0
 523 02ec 90F82E80 		ldrb	r8, [r0, #46]	@ zero_extendqisi2
 524              		.loc 2 438 0
 525 02f0 90F82DE0 		ldrb	lr, [r0, #45]	@ zero_extendqisi2
 526              	.LBE193:
 527              	.LBE192:
 265:..\..\..\lvgl\version_6.1.2\lvgl\src\lv_core/lv_style.c ****     res->image.color       = lv_color_mix(end->image.color, start->image.color, opa);
 528              		.loc 1 265 0
 529 02f4 90F82C60 		ldrb	r6, [r0, #44]	@ zero_extendqisi2
 530              	.LBB198:
 531              	.LBB194:
 437:..\..\..\lvgl\version_6.1.2\lvgl\src\lv_core\../lv_misc/lv_color.h ****     LV_COLOR_SET_G(ret, (uint16_t)((uint16_t) LV_COLOR_GET_G(c1) * mix + LV_COLOR_GET_G(c2) * (255 
 532              		.loc 2 437 0
 533 02f8 90F87E90 		ldrb	r9, [r0, #126]	@ zero_extendqisi2
 534              		.loc 2 438 0
 535 02fc 90F87DC0 		ldrb	ip, [r0, #125]	@ zero_extendqisi2
 536              	.LBE194:
 537              	.LBE198:
 265:..\..\..\lvgl\version_6.1.2\lvgl\src\lv_core/lv_style.c ****     res->image.color       = lv_color_mix(end->image.color, start->image.color, opa);
 538              		.loc 1 265 0
 539 0300 90F87C70 		ldrb	r7, [r0, #124]	@ zero_extendqisi2
 540 0304 83F82F50 		strb	r5, [r3, #47]
 541              	.LBB199:
 542              	.LBB195:
 437:..\..\..\lvgl\version_6.1.2\lvgl\src\lv_core\../lv_misc/lv_color.h ****     LV_COLOR_SET_G(ret, (uint16_t)((uint16_t) LV_COLOR_GET_G(c1) * mix + LV_COLOR_GET_G(c2) * (255 
 543              		.loc 2 437 0
 544 0308 18FB02F8 		smulbb	r8, r8, r2
 545              		.loc 2 438 0
 546 030c 1EFB02FE 		smulbb	lr, lr, r2
 547              	.LBE195:
 548              	.LBE199:
 265:..\..\..\lvgl\version_6.1.2\lvgl\src\lv_core/lv_style.c ****     res->image.color       = lv_color_mix(end->image.color, start->image.color, opa);
 549              		.loc 1 265 0
 550 0310 16FB02F6 		smulbb	r6, r6, r2
 551              	.LBB200:
 552              	.LBB196:
 437:..\..\..\lvgl\version_6.1.2\lvgl\src\lv_core\../lv_misc/lv_color.h ****     LV_COLOR_SET_G(ret, (uint16_t)((uint16_t) LV_COLOR_GET_G(c1) * mix + LV_COLOR_GET_G(c2) * (255 
 553              		.loc 2 437 0
 554 0314 09FB0188 		mla	r8, r9, r1, r8
 555              		.loc 2 438 0
 556 0318 0CFB01EE 		mla	lr, ip, r1, lr
 557              	.LBE196:
 558              	.LBE200:
 265:..\..\..\lvgl\version_6.1.2\lvgl\src\lv_core/lv_style.c ****     res->image.color       = lv_color_mix(end->image.color, start->image.color, opa);
 559              		.loc 1 265 0
 560 031c 07FB0166 		mla	r6, r7, r1, r6
 561              	.LBB201:
 562              	.LBB197:
 437:..\..\..\lvgl\version_6.1.2\lvgl\src\lv_core\../lv_misc/lv_color.h ****     LV_COLOR_SET_G(ret, (uint16_t)((uint16_t) LV_COLOR_GET_G(c1) * mix + LV_COLOR_GET_G(c2) * (255 
 563              		.loc 2 437 0
 564 0320 C8F3072C 		ubfx	ip, r8, #8, #8
 565              	.LVL17:
ARM GAS  C:\Users\pearlstl\AppData\Local\Temp\ccvteysW.s 			page 26


 566              		.loc 2 438 0
 567 0324 CEF30727 		ubfx	r7, lr, #8, #8
 568              	.LVL18:
 569              	.LBE197:
 570              	.LBE201:
 265:..\..\..\lvgl\version_6.1.2\lvgl\src\lv_core/lv_style.c ****     res->image.color       = lv_color_mix(end->image.color, start->image.color, opa);
 571              		.loc 1 265 0
 572 0328 C6F30726 		ubfx	r6, r6, #8, #8
 573 032c 83F82EC0 		strb	ip, [r3, #46]
 574 0330 83F82D70 		strb	r7, [r3, #45]
 575 0334 83F82C60 		strb	r6, [r3, #44]
 576              	.LBB202:
 577              	.LBB203:
 437:..\..\..\lvgl\version_6.1.2\lvgl\src\lv_core\../lv_misc/lv_color.h ****     LV_COLOR_SET_G(ret, (uint16_t)((uint16_t) LV_COLOR_GET_G(c1) * mix + LV_COLOR_GET_G(c2) * (255 
 578              		.loc 2 437 0
 579 0338 90F84280 		ldrb	r8, [r0, #66]	@ zero_extendqisi2
 580              		.loc 2 438 0
 581 033c 90F841E0 		ldrb	lr, [r0, #65]	@ zero_extendqisi2
 582              	.LBE203:
 583              	.LBE202:
 266:..\..\..\lvgl\version_6.1.2\lvgl\src\lv_core/lv_style.c ****     res->line.color        = lv_color_mix(end->line.color, start->line.color, opa);
 584              		.loc 1 266 0
 585 0340 90F84060 		ldrb	r6, [r0, #64]	@ zero_extendqisi2
 586              	.LBB208:
 587              	.LBB204:
 437:..\..\..\lvgl\version_6.1.2\lvgl\src\lv_core\../lv_misc/lv_color.h ****     LV_COLOR_SET_G(ret, (uint16_t)((uint16_t) LV_COLOR_GET_G(c1) * mix + LV_COLOR_GET_G(c2) * (255 
 588              		.loc 2 437 0
 589 0344 90F89290 		ldrb	r9, [r0, #146]	@ zero_extendqisi2
 590              		.loc 2 438 0
 591 0348 90F891C0 		ldrb	ip, [r0, #145]	@ zero_extendqisi2
 592              	.LBE204:
 593              	.LBE208:
 266:..\..\..\lvgl\version_6.1.2\lvgl\src\lv_core/lv_style.c ****     res->line.color        = lv_color_mix(end->line.color, start->line.color, opa);
 594              		.loc 1 266 0
 595 034c 90F89070 		ldrb	r7, [r0, #144]	@ zero_extendqisi2
 596 0350 83F84350 		strb	r5, [r3, #67]
 597              	.LBB209:
 598              	.LBB205:
 437:..\..\..\lvgl\version_6.1.2\lvgl\src\lv_core\../lv_misc/lv_color.h ****     LV_COLOR_SET_G(ret, (uint16_t)((uint16_t) LV_COLOR_GET_G(c1) * mix + LV_COLOR_GET_G(c2) * (255 
 599              		.loc 2 437 0
 600 0354 18FB02F8 		smulbb	r8, r8, r2
 601              		.loc 2 438 0
 602 0358 1EFB02FE 		smulbb	lr, lr, r2
 603              	.LBE205:
 604              	.LBE209:
 266:..\..\..\lvgl\version_6.1.2\lvgl\src\lv_core/lv_style.c ****     res->line.color        = lv_color_mix(end->line.color, start->line.color, opa);
 605              		.loc 1 266 0
 606 035c 16FB02F6 		smulbb	r6, r6, r2
 607              	.LBB210:
 608              	.LBB206:
 437:..\..\..\lvgl\version_6.1.2\lvgl\src\lv_core\../lv_misc/lv_color.h ****     LV_COLOR_SET_G(ret, (uint16_t)((uint16_t) LV_COLOR_GET_G(c1) * mix + LV_COLOR_GET_G(c2) * (255 
 609              		.loc 2 437 0
 610 0360 09FB0188 		mla	r8, r9, r1, r8
 611              		.loc 2 438 0
 612 0364 0CFB01EE 		mla	lr, ip, r1, lr
 613              	.LBE206:
 614              	.LBE210:
ARM GAS  C:\Users\pearlstl\AppData\Local\Temp\ccvteysW.s 			page 27


 266:..\..\..\lvgl\version_6.1.2\lvgl\src\lv_core/lv_style.c ****     res->line.color        = lv_color_mix(end->line.color, start->line.color, opa);
 615              		.loc 1 266 0
 616 0368 07FB0166 		mla	r6, r7, r1, r6
 617              	.LBB211:
 618              	.LBB207:
 437:..\..\..\lvgl\version_6.1.2\lvgl\src\lv_core\../lv_misc/lv_color.h ****     LV_COLOR_SET_G(ret, (uint16_t)((uint16_t) LV_COLOR_GET_G(c1) * mix + LV_COLOR_GET_G(c2) * (255 
 619              		.loc 2 437 0
 620 036c C8F3072C 		ubfx	ip, r8, #8, #8
 621              	.LVL19:
 622              		.loc 2 438 0
 623 0370 CEF30727 		ubfx	r7, lr, #8, #8
 624              	.LVL20:
 625              	.LBE207:
 626              	.LBE211:
 266:..\..\..\lvgl\version_6.1.2\lvgl\src\lv_core/lv_style.c ****     res->line.color        = lv_color_mix(end->line.color, start->line.color, opa);
 627              		.loc 1 266 0
 628 0374 C6F30726 		ubfx	r6, r6, #8, #8
 629 0378 83F842C0 		strb	ip, [r3, #66]
 630 037c 83F84170 		strb	r7, [r3, #65]
 631 0380 83F84060 		strb	r6, [r3, #64]
 632              	.LBB212:
 633              	.LBB213:
 437:..\..\..\lvgl\version_6.1.2\lvgl\src\lv_core\../lv_misc/lv_color.h ****     LV_COLOR_SET_G(ret, (uint16_t)((uint16_t) LV_COLOR_GET_G(c1) * mix + LV_COLOR_GET_G(c2) * (255 
 634              		.loc 2 437 0
 635 0384 90F89A60 		ldrb	r6, [r0, #154]	@ zero_extendqisi2
 636 0388 90F84A80 		ldrb	r8, [r0, #74]	@ zero_extendqisi2
 637              		.loc 2 438 0
 638 038c 90F89970 		ldrb	r7, [r0, #153]	@ zero_extendqisi2
 639 0390 90F849E0 		ldrb	lr, [r0, #73]	@ zero_extendqisi2
 640              	.LBE213:
 641              	.LBE212:
 267:..\..\..\lvgl\version_6.1.2\lvgl\src\lv_core/lv_style.c **** 
 642              		.loc 1 267 0
 643 0394 90F898C0 		ldrb	ip, [r0, #152]	@ zero_extendqisi2
 644 0398 90F84890 		ldrb	r9, [r0, #72]	@ zero_extendqisi2
 645 039c 83F84B50 		strb	r5, [r3, #75]
 646              	.LBB218:
 647              	.LBB214:
 648              		.loc 2 438 0
 649 03a0 1EFB02FE 		smulbb	lr, lr, r2
 437:..\..\..\lvgl\version_6.1.2\lvgl\src\lv_core\../lv_misc/lv_color.h ****     LV_COLOR_SET_G(ret, (uint16_t)((uint16_t) LV_COLOR_GET_G(c1) * mix + LV_COLOR_GET_G(c2) * (255 
 650              		.loc 2 437 0
 651 03a4 18FB02F5 		smulbb	r5, r8, r2
 652              	.LBE214:
 653              	.LBE218:
 267:..\..\..\lvgl\version_6.1.2\lvgl\src\lv_core/lv_style.c **** 
 654              		.loc 1 267 0
 655 03a8 19FB02F2 		smulbb	r2, r9, r2
 656              	.LBB219:
 657              	.LBB215:
 437:..\..\..\lvgl\version_6.1.2\lvgl\src\lv_core\../lv_misc/lv_color.h ****     LV_COLOR_SET_G(ret, (uint16_t)((uint16_t) LV_COLOR_GET_G(c1) * mix + LV_COLOR_GET_G(c2) * (255 
 658              		.loc 2 437 0
 659 03ac 06FB0155 		mla	r5, r6, r1, r5
 660              		.loc 2 438 0
 661 03b0 07FB01E6 		mla	r6, r7, r1, lr
 662              	.LBE215:
 663              	.LBE219:
ARM GAS  C:\Users\pearlstl\AppData\Local\Temp\ccvteysW.s 			page 28


 267:..\..\..\lvgl\version_6.1.2\lvgl\src\lv_core/lv_style.c **** 
 664              		.loc 1 267 0
 665 03b4 0CFB0121 		mla	r1, ip, r1, r2
 666 03b8 C1F30721 		ubfx	r1, r1, #8, #8
 667              	.LBB220:
 668              	.LBB216:
 437:..\..\..\lvgl\version_6.1.2\lvgl\src\lv_core\../lv_misc/lv_color.h ****     LV_COLOR_SET_G(ret, (uint16_t)((uint16_t) LV_COLOR_GET_G(c1) * mix + LV_COLOR_GET_G(c2) * (255 
 669              		.loc 2 437 0
 670 03bc C5F30722 		ubfx	r2, r5, #8, #8
 671              	.LVL21:
 672              	.LBE216:
 673              	.LBE220:
 269:..\..\..\lvgl\version_6.1.2\lvgl\src\lv_core/lv_style.c ****         res->body.border.part = start->body.border.part;
 674              		.loc 1 269 0
 675 03c0 7F2C     		cmp	r4, #127
 676              	.LBB221:
 677              	.LBB217:
 678              		.loc 2 438 0
 679 03c2 C6F30725 		ubfx	r5, r6, #8, #8
 680              	.LVL22:
 681              	.LBE217:
 682              	.LBE221:
 267:..\..\..\lvgl\version_6.1.2\lvgl\src\lv_core/lv_style.c **** 
 683              		.loc 1 267 0
 684 03c6 83F84950 		strb	r5, [r3, #73]
 685 03ca 83F84A20 		strb	r2, [r3, #74]
 686 03ce 83F84810 		strb	r1, [r3, #72]
 269:..\..\..\lvgl\version_6.1.2\lvgl\src\lv_core/lv_style.c ****         res->body.border.part = start->body.border.part;
 687              		.loc 1 269 0
 688 03d2 1CD9     		bls	.L31
 689              	.LVL23:
 276:..\..\..\lvgl\version_6.1.2\lvgl\src\lv_core/lv_style.c ****         res->glass            = end->glass;
 690              		.loc 1 276 0
 691 03d4 90F86620 		ldrb	r2, [r0, #102]	@ zero_extendqisi2
 692 03d8 9A75     		strb	r2, [r3, #22]
 277:..\..\..\lvgl\version_6.1.2\lvgl\src\lv_core/lv_style.c ****         res->text.font        = end->text.font;
 693              		.loc 1 277 0
 694 03da 90F85040 		ldrb	r4, [r0, #80]	@ zero_extendqisi2
 695              	.LVL24:
 696 03de 1978     		ldrb	r1, [r3]	@ zero_extendqisi2
 280:..\..\..\lvgl\version_6.1.2\lvgl\src\lv_core/lv_style.c ****     }
 697              		.loc 1 280 0
 698 03e0 93F84F20 		ldrb	r2, [r3, #79]	@ zero_extendqisi2
 277:..\..\..\lvgl\version_6.1.2\lvgl\src\lv_core/lv_style.c ****         res->text.font        = end->text.font;
 699              		.loc 1 277 0
 700 03e4 64F30001 		bfi	r1, r4, #0, #1
 701 03e8 1970     		strb	r1, [r3]
 278:..\..\..\lvgl\version_6.1.2\lvgl\src\lv_core/lv_style.c ****         res->body.shadow.type = end->body.shadow.type;
 702              		.loc 1 278 0
 703 03ea D0F88410 		ldr	r1, [r0, #132]
 704 03ee 5963     		str	r1, [r3, #52]
 279:..\..\..\lvgl\version_6.1.2\lvgl\src\lv_core/lv_style.c ****         res->line.rounded     = end->line.rounded;
 705              		.loc 1 279 0
 706 03f0 90F86E10 		ldrb	r1, [r0, #110]	@ zero_extendqisi2
 707 03f4 9977     		strb	r1, [r3, #30]
 280:..\..\..\lvgl\version_6.1.2\lvgl\src\lv_core/lv_style.c ****     }
 708              		.loc 1 280 0
ARM GAS  C:\Users\pearlstl\AppData\Local\Temp\ccvteysW.s 			page 29


 709 03f6 90F89F10 		ldrb	r1, [r0, #159]	@ zero_extendqisi2
 710 03fa 61F30002 		bfi	r2, r1, #0, #1
 711 03fe 83F84F20 		strb	r2, [r3, #79]
 712              	.LBE223:
 713              	.LBE227:
 334:..\..\..\lvgl\version_6.1.2\lvgl\src\lv_core/lv_style.c **** }
 714              		.loc 1 334 0
 715 0402 D0F8A000 		ldr	r0, [r0, #160]
 716              	.LVL25:
 335:..\..\..\lvgl\version_6.1.2\lvgl\src\lv_core/lv_style.c **** 
 717              		.loc 1 335 0
 718 0406 BDE8F043 		pop	{r4, r5, r6, r7, r8, r9, lr}
 719              		.cfi_remember_state
 720              		.cfi_restore 14
 721              		.cfi_restore 9
 722              		.cfi_restore 8
 723              		.cfi_restore 7
 724              		.cfi_restore 6
 725              		.cfi_restore 5
 726              		.cfi_restore 4
 727              		.cfi_def_cfa_offset 0
 334:..\..\..\lvgl\version_6.1.2\lvgl\src\lv_core/lv_style.c **** }
 728              		.loc 1 334 0
 729 040a FFF7FEBF 		b	lv_obj_report_style_mod
 730              	.LVL26:
 731              	.L31:
 732              		.cfi_restore_state
 733              	.LBB228:
 734              	.LBB224:
 270:..\..\..\lvgl\version_6.1.2\lvgl\src\lv_core/lv_style.c ****         res->glass            = start->glass;
 735              		.loc 1 270 0
 736 040e 827D     		ldrb	r2, [r0, #22]	@ zero_extendqisi2
 737 0410 9A75     		strb	r2, [r3, #22]
 271:..\..\..\lvgl\version_6.1.2\lvgl\src\lv_core/lv_style.c ****         res->text.font        = start->text.font;
 738              		.loc 1 271 0
 739 0412 0478     		ldrb	r4, [r0]	@ zero_extendqisi2
 740              	.LVL27:
 741 0414 1978     		ldrb	r1, [r3]	@ zero_extendqisi2
 274:..\..\..\lvgl\version_6.1.2\lvgl\src\lv_core/lv_style.c ****     } else {
 742              		.loc 1 274 0
 743 0416 93F84F20 		ldrb	r2, [r3, #79]	@ zero_extendqisi2
 271:..\..\..\lvgl\version_6.1.2\lvgl\src\lv_core/lv_style.c ****         res->text.font        = start->text.font;
 744              		.loc 1 271 0
 745 041a 64F30001 		bfi	r1, r4, #0, #1
 746 041e 1970     		strb	r1, [r3]
 272:..\..\..\lvgl\version_6.1.2\lvgl\src\lv_core/lv_style.c ****         res->body.shadow.type = start->body.shadow.type;
 747              		.loc 1 272 0
 748 0420 416B     		ldr	r1, [r0, #52]
 749 0422 5963     		str	r1, [r3, #52]
 273:..\..\..\lvgl\version_6.1.2\lvgl\src\lv_core/lv_style.c ****         res->line.rounded     = start->line.rounded;
 750              		.loc 1 273 0
 751 0424 817F     		ldrb	r1, [r0, #30]	@ zero_extendqisi2
 752 0426 9977     		strb	r1, [r3, #30]
 274:..\..\..\lvgl\version_6.1.2\lvgl\src\lv_core/lv_style.c ****     } else {
 753              		.loc 1 274 0
 754 0428 90F84F10 		ldrb	r1, [r0, #79]	@ zero_extendqisi2
 755 042c 61F30002 		bfi	r2, r1, #0, #1
ARM GAS  C:\Users\pearlstl\AppData\Local\Temp\ccvteysW.s 			page 30


 756 0430 83F84F20 		strb	r2, [r3, #79]
 757              	.LVL28:
 758              	.LBE224:
 759              	.LBE228:
 334:..\..\..\lvgl\version_6.1.2\lvgl\src\lv_core/lv_style.c **** }
 760              		.loc 1 334 0
 761 0434 D0F8A000 		ldr	r0, [r0, #160]
 762              	.LVL29:
 335:..\..\..\lvgl\version_6.1.2\lvgl\src\lv_core/lv_style.c **** 
 763              		.loc 1 335 0
 764 0438 BDE8F043 		pop	{r4, r5, r6, r7, r8, r9, lr}
 765              		.cfi_remember_state
 766              		.cfi_restore 4
 767              		.cfi_restore 5
 768              		.cfi_restore 6
 769              		.cfi_restore 7
 770              		.cfi_restore 8
 771              		.cfi_restore 9
 772              		.cfi_restore 14
 773              		.cfi_def_cfa_offset 0
 334:..\..\..\lvgl\version_6.1.2\lvgl\src\lv_core/lv_style.c **** }
 774              		.loc 1 334 0
 775 043c FFF7FEBF 		b	lv_obj_report_style_mod
 776              	.LVL30:
 777              	.L29:
 778              		.cfi_restore_state
 779              	.LBB229:
 780              	.LBB225:
 259:..\..\..\lvgl\version_6.1.2\lvgl\src\lv_core/lv_style.c **** 
 781              		.loc 1 259 0
 782 0440 0022     		movs	r2, #0
 783 0442 FF21     		movs	r1, #255
 784              	.LVL31:
 785 0444 CAE6     		b	.L26
 786              	.LBE225:
 787              	.LBE229:
 788              		.cfi_endproc
 789              	.LFE36:
 790              		.size	style_animator, .-style_animator
 791 0446 00BF     		.section	.text.lv_style_init,"ax",%progbits
 792              		.align	2
 793              		.global	lv_style_init
 794              		.thumb
 795              		.thumb_func
 796              		.type	lv_style_init, %function
 797              	lv_style_init:
 798              	.LFB31:
  69:..\..\..\lvgl\version_6.1.2\lvgl\src\lv_core/lv_style.c ****     /* Not White/Black/Gray colors are created by HSV model with
 799              		.loc 1 69 0
 800              		.cfi_startproc
 801              		@ args = 0, pretend = 0, frame = 8
 802              		@ frame_needed = 0, uses_anonymous_args = 0
 803 0000 2DE9F04F 		push	{r4, r5, r6, r7, r8, r9, r10, fp, lr}
 804              		.cfi_def_cfa_offset 36
 805              		.cfi_offset 4, -36
 806              		.cfi_offset 5, -32
 807              		.cfi_offset 6, -28
ARM GAS  C:\Users\pearlstl\AppData\Local\Temp\ccvteysW.s 			page 31


 808              		.cfi_offset 7, -24
 809              		.cfi_offset 8, -20
 810              		.cfi_offset 9, -16
 811              		.cfi_offset 10, -12
 812              		.cfi_offset 11, -8
 813              		.cfi_offset 14, -4
  74:..\..\..\lvgl\version_6.1.2\lvgl\src\lv_core/lv_style.c ****     lv_style_scr.body.opa            = LV_OPA_COVER;
 814              		.loc 1 74 0
 815 0004 F24A     		ldr	r2, .L34
 816              	.LBB230:
 817              	.LBB231:
 229:..\..\..\lvgl\version_6.1.2\lvgl\src\lv_core/lv_style.c **** }
 818              		.loc 1 229 0
 819 0006 DFF8EC93 		ldr	r9, .L34+36
 820              	.LBE231:
 821              	.LBE230:
  74:..\..\..\lvgl\version_6.1.2\lvgl\src\lv_core/lv_style.c ****     lv_style_scr.body.opa            = LV_OPA_COVER;
 822              		.loc 1 74 0
 823 000a 1178     		ldrb	r1, [r2]	@ zero_extendqisi2
  97:..\..\..\lvgl\version_6.1.2\lvgl\src\lv_core/lv_style.c ****     lv_style_scr.text.letter_space = 0;
 824              		.loc 1 97 0
 825 000c DFF8E8E3 		ldr	lr, .L34+40
 826              	.LBB234:
 827              	.LBB235:
 229:..\..\..\lvgl\version_6.1.2\lvgl\src\lv_core/lv_style.c **** }
 828              		.loc 1 229 0
 829 0010 F04F     		ldr	r7, .L34+4
 830              	.LBE235:
 831              	.LBE234:
 832              	.LBB238:
 833              	.LBB239:
 834 0012 F14D     		ldr	r5, .L34+8
 835              	.LBE239:
 836              	.LBE238:
 837              	.LBB242:
 838              	.LBB243:
 839 0014 F14E     		ldr	r6, .L34+12
 840              	.LBE243:
 841              	.LBE242:
  74:..\..\..\lvgl\version_6.1.2\lvgl\src\lv_core/lv_style.c ****     lv_style_scr.body.opa            = LV_OPA_COVER;
 842              		.loc 1 74 0
 843 0016 6FF30001 		bfc	r1, #0, #1
 844 001a 1170     		strb	r1, [r2]
  83:..\..\..\lvgl\version_6.1.2\lvgl\src\lv_core/lv_style.c **** 
 845              		.loc 1 83 0
 846 001c 4FF00701 		mov	r1, #7	@ movhi
 847 0020 1185     		strh	r1, [r2, #40]	@ movhi
  88:..\..\..\lvgl\version_6.1.2\lvgl\src\lv_core/lv_style.c **** 
 848              		.loc 1 88 0
 849 0022 4FF00F01 		mov	r1, #15
 850 0026 9175     		strb	r1, [r2, #22]
  90:..\..\..\lvgl\version_6.1.2\lvgl\src\lv_core/lv_style.c ****     lv_style_scr.body.shadow.type  = LV_SHADOW_FULL;
 851              		.loc 1 90 0
 852 0028 6FF07F01 		mvn	r1, #127
  75:..\..\..\lvgl\version_6.1.2\lvgl\src\lv_core/lv_style.c ****     lv_style_scr.body.main_color     = LV_COLOR_WHITE;
 853              		.loc 1 75 0
 854 002c FF24     		movs	r4, #255
ARM GAS  C:\Users\pearlstl\AppData\Local\Temp\ccvteysW.s 			page 32


  78:..\..\..\lvgl\version_6.1.2\lvgl\src\lv_core/lv_style.c ****     lv_style_scr.body.padding.left   = 0;
 855              		.loc 1 78 0
 856 002e 4FF00008 		mov	r8, #0
  95:..\..\..\lvgl\version_6.1.2\lvgl\src\lv_core/lv_style.c ****     lv_style_scr.text.sel_color    = lv_color_make(0x55, 0x96, 0xd8);
 857              		.loc 1 95 0
 858 0032 3023     		movs	r3, #48
  90:..\..\..\lvgl\version_6.1.2\lvgl\src\lv_core/lv_style.c ****     lv_style_scr.body.shadow.type  = LV_SHADOW_FULL;
 859              		.loc 1 90 0
 860 0034 1176     		strb	r1, [r2, #24]
 861 0036 5176     		strb	r1, [r2, #25]
 862 0038 9176     		strb	r1, [r2, #26]
  91:..\..\..\lvgl\version_6.1.2\lvgl\src\lv_core/lv_style.c ****     lv_style_scr.body.shadow.width = 0;
 863              		.loc 1 91 0
 864 003a 4FF00101 		mov	r1, #1
  69:..\..\..\lvgl\version_6.1.2\lvgl\src\lv_core/lv_style.c ****     /* Not White/Black/Gray colors are created by HSV model with
 865              		.loc 1 69 0
 866 003e 83B0     		sub	sp, sp, #12
 867              		.cfi_def_cfa_offset 48
  75:..\..\..\lvgl\version_6.1.2\lvgl\src\lv_core/lv_style.c ****     lv_style_scr.body.main_color     = LV_COLOR_WHITE;
 868              		.loc 1 75 0
 869 0040 9473     		strb	r4, [r2, #14]
  76:..\..\..\lvgl\version_6.1.2\lvgl\src\lv_core/lv_style.c ****     lv_style_scr.body.grad_color     = LV_COLOR_WHITE;
 870              		.loc 1 76 0
 871 0042 1471     		strb	r4, [r2, #4]
 872 0044 5471     		strb	r4, [r2, #5]
 873 0046 9471     		strb	r4, [r2, #6]
 874 0048 D471     		strb	r4, [r2, #7]
  77:..\..\..\lvgl\version_6.1.2\lvgl\src\lv_core/lv_style.c ****     lv_style_scr.body.radius         = 0;
 875              		.loc 1 77 0
 876 004a 1472     		strb	r4, [r2, #8]
 877 004c 5472     		strb	r4, [r2, #9]
 878 004e 9472     		strb	r4, [r2, #10]
 879 0050 D472     		strb	r4, [r2, #11]
  85:..\..\..\lvgl\version_6.1.2\lvgl\src\lv_core/lv_style.c ****     lv_style_scr.body.border.opa   = LV_OPA_COVER;
 880              		.loc 1 85 0
 881 0052 D474     		strb	r4, [r2, #19]
  86:..\..\..\lvgl\version_6.1.2\lvgl\src\lv_core/lv_style.c ****     lv_style_scr.body.border.width = 0;
 882              		.loc 1 86 0
 883 0054 D475     		strb	r4, [r2, #23]
  90:..\..\..\lvgl\version_6.1.2\lvgl\src\lv_core/lv_style.c ****     lv_style_scr.body.shadow.type  = LV_SHADOW_FULL;
 884              		.loc 1 90 0
 885 0056 D476     		strb	r4, [r2, #27]
  94:..\..\..\lvgl\version_6.1.2\lvgl\src\lv_core/lv_style.c ****     lv_style_scr.text.color        = lv_color_make(0x30, 0x30, 0x30);
 886              		.loc 1 94 0
 887 0058 82F83C40 		strb	r4, [r2, #60]
  78:..\..\..\lvgl\version_6.1.2\lvgl\src\lv_core/lv_style.c ****     lv_style_scr.body.padding.left   = 0;
 888              		.loc 1 78 0
 889 005c A2F80C80 		strh	r8, [r2, #12]	@ movhi
  79:..\..\..\lvgl\version_6.1.2\lvgl\src\lv_core/lv_style.c ****     lv_style_scr.body.padding.right  = 0;
 890              		.loc 1 79 0
 891 0060 A2F82480 		strh	r8, [r2, #36]	@ movhi
  80:..\..\..\lvgl\version_6.1.2\lvgl\src\lv_core/lv_style.c ****     lv_style_scr.body.padding.top    = 0;
 892              		.loc 1 80 0
 893 0064 A2F82680 		strh	r8, [r2, #38]	@ movhi
  81:..\..\..\lvgl\version_6.1.2\lvgl\src\lv_core/lv_style.c ****     lv_style_scr.body.padding.bottom = 0;
 894              		.loc 1 81 0
 895 0068 A2F82080 		strh	r8, [r2, #32]	@ movhi
ARM GAS  C:\Users\pearlstl\AppData\Local\Temp\ccvteysW.s 			page 33


  82:..\..\..\lvgl\version_6.1.2\lvgl\src\lv_core/lv_style.c ****     lv_style_scr.body.padding.inner  = LV_DPI / 20;
 896              		.loc 1 82 0
 897 006c A2F82280 		strh	r8, [r2, #34]	@ movhi
  85:..\..\..\lvgl\version_6.1.2\lvgl\src\lv_core/lv_style.c ****     lv_style_scr.body.border.opa   = LV_OPA_COVER;
 898              		.loc 1 85 0
 899 0070 82F81080 		strb	r8, [r2, #16]
 900 0074 82F81180 		strb	r8, [r2, #17]
 901 0078 82F81280 		strb	r8, [r2, #18]
  87:..\..\..\lvgl\version_6.1.2\lvgl\src\lv_core/lv_style.c ****     lv_style_scr.body.border.part  = LV_BORDER_FULL;
 902              		.loc 1 87 0
 903 007c A2F81480 		strh	r8, [r2, #20]	@ movhi
  92:..\..\..\lvgl\version_6.1.2\lvgl\src\lv_core/lv_style.c **** 
 904              		.loc 1 92 0
 905 0080 A2F81C80 		strh	r8, [r2, #28]	@ movhi
  91:..\..\..\lvgl\version_6.1.2\lvgl\src\lv_core/lv_style.c ****     lv_style_scr.body.shadow.width = 0;
 906              		.loc 1 91 0
 907 0084 9177     		strb	r1, [r2, #30]
  95:..\..\..\lvgl\version_6.1.2\lvgl\src\lv_core/lv_style.c ****     lv_style_scr.text.sel_color    = lv_color_make(0x55, 0x96, 0xd8);
 908              		.loc 1 95 0
 909 0086 82F82C30 		strb	r3, [r2, #44]
 108:..\..\..\lvgl\version_6.1.2\lvgl\src\lv_core/lv_style.c **** 
 910              		.loc 1 108 0
 911 008a 92F84F00 		ldrb	r0, [r2, #79]	@ zero_extendqisi2
  95:..\..\..\lvgl\version_6.1.2\lvgl\src\lv_core/lv_style.c ****     lv_style_scr.text.sel_color    = lv_color_make(0x55, 0x96, 0xd8);
 912              		.loc 1 95 0
 913 008e 82F82D30 		strb	r3, [r2, #45]
 914 0092 82F82E30 		strb	r3, [r2, #46]
  96:..\..\..\lvgl\version_6.1.2\lvgl\src\lv_core/lv_style.c ****     lv_style_scr.text.font         = LV_FONT_DEFAULT;
 915              		.loc 1 96 0
 916 0096 9623     		movs	r3, #150
 102:..\..\..\lvgl\version_6.1.2\lvgl\src\lv_core/lv_style.c ****     lv_style_scr.image.intense = LV_OPA_TRANSP;
 917              		.loc 1 102 0
 918 0098 4FF0200A 		mov	r10, #32
 108:..\..\..\lvgl\version_6.1.2\lvgl\src\lv_core/lv_style.c **** 
 919              		.loc 1 108 0
 920 009c 68F30000 		bfi	r0, r8, #0, #1
  96:..\..\..\lvgl\version_6.1.2\lvgl\src\lv_core/lv_style.c ****     lv_style_scr.text.font         = LV_FONT_DEFAULT;
 921              		.loc 1 96 0
 922 00a0 4FF0550B 		mov	fp, #85
  97:..\..\..\lvgl\version_6.1.2\lvgl\src\lv_core/lv_style.c ****     lv_style_scr.text.letter_space = 0;
 923              		.loc 1 97 0
 924 00a4 C2F834E0 		str	lr, [r2, #52]
  96:..\..\..\lvgl\version_6.1.2\lvgl\src\lv_core/lv_style.c ****     lv_style_scr.text.font         = LV_FONT_DEFAULT;
 925              		.loc 1 96 0
 926 00a8 82F83130 		strb	r3, [r2, #49]
 927 00ac 6FF0270E 		mvn	lr, #39
 928 00b0 0193     		str	r3, [sp, #4]
  99:..\..\..\lvgl\version_6.1.2\lvgl\src\lv_core/lv_style.c **** 
 929              		.loc 1 99 0
 930 00b2 4FF00203 		mov	r3, #2	@ movhi
  96:..\..\..\lvgl\version_6.1.2\lvgl\src\lv_core/lv_style.c ****     lv_style_scr.text.font         = LV_FONT_DEFAULT;
 931              		.loc 1 96 0
 932 00b6 82F830E0 		strb	lr, [r2, #48]
 933              	.LBB248:
 934              	.LBB232:
 229:..\..\..\lvgl\version_6.1.2\lvgl\src\lv_core/lv_style.c **** }
 935              		.loc 1 229 0
ARM GAS  C:\Users\pearlstl\AppData\Local\Temp\ccvteysW.s 			page 34


 936 00ba 1146     		mov	r1, r2
 937              	.LBE232:
 938              	.LBE248:
  95:..\..\..\lvgl\version_6.1.2\lvgl\src\lv_core/lv_style.c ****     lv_style_scr.text.sel_color    = lv_color_make(0x55, 0x96, 0xd8);
 939              		.loc 1 95 0
 940 00bc 82F82F40 		strb	r4, [r2, #47]
  96:..\..\..\lvgl\version_6.1.2\lvgl\src\lv_core/lv_style.c ****     lv_style_scr.text.font         = LV_FONT_DEFAULT;
 941              		.loc 1 96 0
 942 00c0 82F83340 		strb	r4, [r2, #51]
  98:..\..\..\lvgl\version_6.1.2\lvgl\src\lv_core/lv_style.c ****     lv_style_scr.text.line_space   = 2;
 943              		.loc 1 98 0
 944 00c4 A2F83880 		strh	r8, [r2, #56]	@ movhi
 101:..\..\..\lvgl\version_6.1.2\lvgl\src\lv_core/lv_style.c ****     lv_style_scr.image.color   = lv_color_make(0x20, 0x20, 0x20);
 945              		.loc 1 101 0
 946 00c8 82F84540 		strb	r4, [r2, #69]
 102:..\..\..\lvgl\version_6.1.2\lvgl\src\lv_core/lv_style.c ****     lv_style_scr.image.intense = LV_OPA_TRANSP;
 947              		.loc 1 102 0
 948 00cc 82F84340 		strb	r4, [r2, #67]
 103:..\..\..\lvgl\version_6.1.2\lvgl\src\lv_core/lv_style.c **** 
 949              		.loc 1 103 0
 950 00d0 82F84480 		strb	r8, [r2, #68]
 105:..\..\..\lvgl\version_6.1.2\lvgl\src\lv_core/lv_style.c ****     lv_style_scr.line.color   = lv_color_make(0x20, 0x20, 0x20);
 951              		.loc 1 105 0
 952 00d4 82F84E40 		strb	r4, [r2, #78]
 106:..\..\..\lvgl\version_6.1.2\lvgl\src\lv_core/lv_style.c ****     lv_style_scr.line.width   = 2;
 953              		.loc 1 106 0
 954 00d8 82F84B40 		strb	r4, [r2, #75]
 108:..\..\..\lvgl\version_6.1.2\lvgl\src\lv_core/lv_style.c **** 
 955              		.loc 1 108 0
 956 00dc 82F84F00 		strb	r0, [r2, #79]
 957              	.LVL32:
  96:..\..\..\lvgl\version_6.1.2\lvgl\src\lv_core/lv_style.c ****     lv_style_scr.text.font         = LV_FONT_DEFAULT;
 958              		.loc 1 96 0
 959 00e0 82F832B0 		strb	fp, [r2, #50]
  99:..\..\..\lvgl\version_6.1.2\lvgl\src\lv_core/lv_style.c **** 
 960              		.loc 1 99 0
 961 00e4 5387     		strh	r3, [r2, #58]	@ movhi
 107:..\..\..\lvgl\version_6.1.2\lvgl\src\lv_core/lv_style.c ****     lv_style_scr.line.rounded = 0;
 962              		.loc 1 107 0
 963 00e6 A2F84C30 		strh	r3, [r2, #76]	@ movhi
 102:..\..\..\lvgl\version_6.1.2\lvgl\src\lv_core/lv_style.c ****     lv_style_scr.image.intense = LV_OPA_TRANSP;
 964              		.loc 1 102 0
 965 00ea 82F840A0 		strb	r10, [r2, #64]
 966 00ee 82F841A0 		strb	r10, [r2, #65]
 967 00f2 82F842A0 		strb	r10, [r2, #66]
 106:..\..\..\lvgl\version_6.1.2\lvgl\src\lv_core/lv_style.c ****     lv_style_scr.line.width   = 2;
 968              		.loc 1 106 0
 969 00f6 82F848A0 		strb	r10, [r2, #72]
 970 00fa 82F849A0 		strb	r10, [r2, #73]
 971 00fe 82F84AA0 		strb	r10, [r2, #74]
 972              	.LBB249:
 973              	.LBB233:
 229:..\..\..\lvgl\version_6.1.2\lvgl\src\lv_core/lv_style.c **** }
 974              		.loc 1 229 0
 975 0102 4846     		mov	r0, r9
 976 0104 5022     		movs	r2, #80
 977 0106 FFF7FEFF 		bl	memcpy
ARM GAS  C:\Users\pearlstl\AppData\Local\Temp\ccvteysW.s 			page 35


 978              	.LVL33:
 979              	.LBE233:
 980              	.LBE249:
 118:..\..\..\lvgl\version_6.1.2\lvgl\src\lv_core/lv_style.c ****     lv_style_plain.body.padding.right  = LV_DPI / 20;
 981              		.loc 1 118 0
 982 010a 4FF00703 		mov	r3, #7	@ movhi
 983              	.LBB250:
 984              	.LBB236:
 229:..\..\..\lvgl\version_6.1.2\lvgl\src\lv_core/lv_style.c **** }
 985              		.loc 1 229 0
 986 010e 4946     		mov	r1, r9
 987 0110 5022     		movs	r2, #80
 988 0112 3846     		mov	r0, r7
 989              	.LBE236:
 990              	.LBE250:
 118:..\..\..\lvgl\version_6.1.2\lvgl\src\lv_core/lv_style.c ****     lv_style_plain.body.padding.right  = LV_DPI / 20;
 991              		.loc 1 118 0
 992 0114 A9F82430 		strh	r3, [r9, #36]	@ movhi
 119:..\..\..\lvgl\version_6.1.2\lvgl\src\lv_core/lv_style.c ****     lv_style_plain.body.padding.top    = LV_DPI / 20;
 993              		.loc 1 119 0
 994 0118 A9F82630 		strh	r3, [r9, #38]	@ movhi
 120:..\..\..\lvgl\version_6.1.2\lvgl\src\lv_core/lv_style.c ****     lv_style_plain.body.padding.bottom = LV_DPI / 20;
 995              		.loc 1 120 0
 996 011c A9F82030 		strh	r3, [r9, #32]	@ movhi
 121:..\..\..\lvgl\version_6.1.2\lvgl\src\lv_core/lv_style.c **** 
 997              		.loc 1 121 0
 998 0120 A9F82230 		strh	r3, [r9, #34]	@ movhi
 999              	.LVL34:
 1000              	.LBB251:
 1001              	.LBB237:
 229:..\..\..\lvgl\version_6.1.2\lvgl\src\lv_core/lv_style.c **** }
 1002              		.loc 1 229 0
 1003 0124 FFF7FEFF 		bl	memcpy
 1004              	.LVL35:
 1005              	.LBE237:
 1006              	.LBE251:
 128:..\..\..\lvgl\version_6.1.2\lvgl\src\lv_core/lv_style.c ****     lv_style_plain_color.body.grad_color = lv_style_plain_color.body.main_color;
 1007              		.loc 1 128 0
 1008 0128 019B     		ldr	r3, [sp, #4]
 1009 012a 7B71     		strb	r3, [r7, #5]
 1010 012c 6FF02703 		mvn	r3, #39
 1011 0130 3B71     		strb	r3, [r7, #4]
 1012 0132 87F806B0 		strb	fp, [r7, #6]
 1013 0136 FC71     		strb	r4, [r7, #7]
 125:..\..\..\lvgl\version_6.1.2\lvgl\src\lv_core/lv_style.c ****     lv_style_plain_color.image.color     = lv_color_make(0xf0, 0xf0, 0xf0);
 1014              		.loc 1 125 0
 1015 0138 F023     		movs	r3, #240
 129:..\..\..\lvgl\version_6.1.2\lvgl\src\lv_core/lv_style.c **** 
 1016              		.loc 1 129 0
 1017 013a 7868     		ldr	r0, [r7, #4]
 125:..\..\..\lvgl\version_6.1.2\lvgl\src\lv_core/lv_style.c ****     lv_style_plain_color.image.color     = lv_color_make(0xf0, 0xf0, 0xf0);
 1018              		.loc 1 125 0
 1019 013c 87F82F40 		strb	r4, [r7, #47]
 1020              	.LBB252:
 1021              	.LBB240:
 229:..\..\..\lvgl\version_6.1.2\lvgl\src\lv_core/lv_style.c **** }
 1022              		.loc 1 229 0
ARM GAS  C:\Users\pearlstl\AppData\Local\Temp\ccvteysW.s 			page 36


 1023 0140 4946     		mov	r1, r9
 1024              	.LBE240:
 1025              	.LBE252:
 126:..\..\..\lvgl\version_6.1.2\lvgl\src\lv_core/lv_style.c ****     lv_style_plain_color.line.color      = lv_color_make(0xf0, 0xf0, 0xf0);
 1026              		.loc 1 126 0
 1027 0142 87F84340 		strb	r4, [r7, #67]
 127:..\..\..\lvgl\version_6.1.2\lvgl\src\lv_core/lv_style.c ****     lv_style_plain_color.body.main_color = lv_color_make(0x55, 0x96, 0xd8);
 1028              		.loc 1 127 0
 1029 0146 87F84B40 		strb	r4, [r7, #75]
 129:..\..\..\lvgl\version_6.1.2\lvgl\src\lv_core/lv_style.c **** 
 1030              		.loc 1 129 0
 1031 014a B860     		str	r0, [r7, #8]
 1032              	.LVL36:
 125:..\..\..\lvgl\version_6.1.2\lvgl\src\lv_core/lv_style.c ****     lv_style_plain_color.image.color     = lv_color_make(0xf0, 0xf0, 0xf0);
 1033              		.loc 1 125 0
 1034 014c 87F82C30 		strb	r3, [r7, #44]
 1035 0150 87F82D30 		strb	r3, [r7, #45]
 1036 0154 87F82E30 		strb	r3, [r7, #46]
 126:..\..\..\lvgl\version_6.1.2\lvgl\src\lv_core/lv_style.c ****     lv_style_plain_color.line.color      = lv_color_make(0xf0, 0xf0, 0xf0);
 1037              		.loc 1 126 0
 1038 0158 87F84030 		strb	r3, [r7, #64]
 1039 015c 87F84130 		strb	r3, [r7, #65]
 1040 0160 87F84230 		strb	r3, [r7, #66]
 127:..\..\..\lvgl\version_6.1.2\lvgl\src\lv_core/lv_style.c ****     lv_style_plain_color.body.main_color = lv_color_make(0x55, 0x96, 0xd8);
 1041              		.loc 1 127 0
 1042 0164 87F84830 		strb	r3, [r7, #72]
 1043 0168 87F84930 		strb	r3, [r7, #73]
 1044 016c 87F84A30 		strb	r3, [r7, #74]
 1045              	.LBB253:
 1046              	.LBB241:
 229:..\..\..\lvgl\version_6.1.2\lvgl\src\lv_core/lv_style.c **** }
 1047              		.loc 1 229 0
 1048 0170 5022     		movs	r2, #80
 1049 0172 2846     		mov	r0, r5
 1050 0174 FFF7FEFF 		bl	memcpy
 1051              	.LVL37:
 1052              	.LBE241:
 1053              	.LBE253:
 139:..\..\..\lvgl\version_6.1.2\lvgl\src\lv_core/lv_style.c ****     lv_style_pretty.body.border.width = LV_DPI / 50 >= 1 ? LV_DPI / 50 : 1;
 1054              		.loc 1 139 0
 1055 0178 4023     		movs	r3, #64
 138:..\..\..\lvgl\version_6.1.2\lvgl\src\lv_core/lv_style.c ****     lv_style_pretty.body.border.color = lv_color_make(0x40, 0x40, 0x40);
 1056              		.loc 1 138 0
 1057 017a 4FF00A00 		mov	r0, #10	@ movhi
 137:..\..\..\lvgl\version_6.1.2\lvgl\src\lv_core/lv_style.c ****     lv_style_pretty.body.radius       = LV_DPI / 15;
 1058              		.loc 1 137 0
 1059 017e C027     		movs	r7, #192
 1060              	.LBB254:
 1061              	.LBB244:
 229:..\..\..\lvgl\version_6.1.2\lvgl\src\lv_core/lv_style.c **** }
 1062              		.loc 1 229 0
 1063 0180 2946     		mov	r1, r5
 1064              	.LBE244:
 1065              	.LBE254:
 133:..\..\..\lvgl\version_6.1.2\lvgl\src\lv_core/lv_style.c ****     lv_style_pretty.image.color       = lv_color_make(0x20, 0x20, 0x20);
 1066              		.loc 1 133 0
 1067 0182 85F82CA0 		strb	r10, [r5, #44]
ARM GAS  C:\Users\pearlstl\AppData\Local\Temp\ccvteysW.s 			page 37


 1068 0186 85F82DA0 		strb	r10, [r5, #45]
 1069 018a 85F82EA0 		strb	r10, [r5, #46]
 1070 018e 85F82F40 		strb	r4, [r5, #47]
 134:..\..\..\lvgl\version_6.1.2\lvgl\src\lv_core/lv_style.c ****     lv_style_pretty.line.color        = lv_color_make(0x20, 0x20, 0x20);
 1071              		.loc 1 134 0
 1072 0192 85F840A0 		strb	r10, [r5, #64]
 1073 0196 85F841A0 		strb	r10, [r5, #65]
 1074 019a 85F842A0 		strb	r10, [r5, #66]
 1075 019e 85F84340 		strb	r4, [r5, #67]
 135:..\..\..\lvgl\version_6.1.2\lvgl\src\lv_core/lv_style.c ****     lv_style_pretty.body.main_color   = LV_COLOR_WHITE;
 1076              		.loc 1 135 0
 1077 01a2 85F848A0 		strb	r10, [r5, #72]
 1078 01a6 85F849A0 		strb	r10, [r5, #73]
 1079 01aa 85F84AA0 		strb	r10, [r5, #74]
 1080 01ae 85F84B40 		strb	r4, [r5, #75]
 140:..\..\..\lvgl\version_6.1.2\lvgl\src\lv_core/lv_style.c ****     lv_style_pretty.body.border.opa   = LV_OPA_30;
 1081              		.loc 1 140 0
 1082 01b2 4FF0030A 		mov	r10, #3
 139:..\..\..\lvgl\version_6.1.2\lvgl\src\lv_core/lv_style.c ****     lv_style_pretty.body.border.width = LV_DPI / 50 >= 1 ? LV_DPI / 50 : 1;
 1083              		.loc 1 139 0
 1084 01b6 EC74     		strb	r4, [r5, #19]
 138:..\..\..\lvgl\version_6.1.2\lvgl\src\lv_core/lv_style.c ****     lv_style_pretty.body.border.color = lv_color_make(0x40, 0x40, 0x40);
 1085              		.loc 1 138 0
 1086 01b8 A881     		strh	r0, [r5, #12]	@ movhi
 139:..\..\..\lvgl\version_6.1.2\lvgl\src\lv_core/lv_style.c ****     lv_style_pretty.body.border.width = LV_DPI / 50 >= 1 ? LV_DPI / 50 : 1;
 1087              		.loc 1 139 0
 1088 01ba 2B74     		strb	r3, [r5, #16]
 1089 01bc 6B74     		strb	r3, [r5, #17]
 1090 01be AB74     		strb	r3, [r5, #18]
 1091              	.LBB255:
 1092              	.LBB245:
 229:..\..\..\lvgl\version_6.1.2\lvgl\src\lv_core/lv_style.c **** }
 1093              		.loc 1 229 0
 1094 01c0 5022     		movs	r2, #80
 1095              	.LBE245:
 1096              	.LBE255:
 141:..\..\..\lvgl\version_6.1.2\lvgl\src\lv_core/lv_style.c **** 
 1097              		.loc 1 141 0
 1098 01c2 4FF04C03 		mov	r3, #76
 1099              	.LBB256:
 1100              	.LBB246:
 229:..\..\..\lvgl\version_6.1.2\lvgl\src\lv_core/lv_style.c **** }
 1101              		.loc 1 229 0
 1102 01c6 3046     		mov	r0, r6
 1103              	.LBE246:
 1104              	.LBE256:
 136:..\..\..\lvgl\version_6.1.2\lvgl\src\lv_core/lv_style.c ****     lv_style_pretty.body.grad_color   = LV_COLOR_SILVER;
 1105              		.loc 1 136 0
 1106 01c8 2C71     		strb	r4, [r5, #4]
 1107 01ca 6C71     		strb	r4, [r5, #5]
 1108 01cc AC71     		strb	r4, [r5, #6]
 1109 01ce EC71     		strb	r4, [r5, #7]
 137:..\..\..\lvgl\version_6.1.2\lvgl\src\lv_core/lv_style.c ****     lv_style_pretty.body.radius       = LV_DPI / 15;
 1110              		.loc 1 137 0
 1111 01d0 EC72     		strb	r4, [r5, #11]
 1112 01d2 2F72     		strb	r7, [r5, #8]
 1113 01d4 6F72     		strb	r7, [r5, #9]
ARM GAS  C:\Users\pearlstl\AppData\Local\Temp\ccvteysW.s 			page 38


 1114 01d6 AF72     		strb	r7, [r5, #10]
 140:..\..\..\lvgl\version_6.1.2\lvgl\src\lv_core/lv_style.c ****     lv_style_pretty.body.border.opa   = LV_OPA_30;
 1115              		.loc 1 140 0
 1116 01d8 A5F814A0 		strh	r10, [r5, #20]	@ movhi
 141:..\..\..\lvgl\version_6.1.2\lvgl\src\lv_core/lv_style.c **** 
 1117              		.loc 1 141 0
 1118 01dc EB75     		strb	r3, [r5, #23]
 1119              	.LVL38:
 1120              	.LBB257:
 1121              	.LBB247:
 229:..\..\..\lvgl\version_6.1.2\lvgl\src\lv_core/lv_style.c **** }
 1122              		.loc 1 229 0
 1123 01de FFF7FEFF 		bl	memcpy
 1124              	.LVL39:
 1125              	.LBE247:
 1126              	.LBE257:
 148:..\..\..\lvgl\version_6.1.2\lvgl\src\lv_core/lv_style.c ****     lv_style_pretty_color.body.grad_color   = lv_color_make(0x2b, 0x59, 0x8b);
 1127              		.loc 1 148 0
 1128 01e2 6B23     		movs	r3, #107
 1129 01e4 B371     		strb	r3, [r6, #6]
 150:..\..\..\lvgl\version_6.1.2\lvgl\src\lv_core/lv_style.c **** 
 1130              		.loc 1 150 0
 1131 01e6 2C23     		movs	r3, #44
 1132              	.LBB258:
 1133              	.LBB259:
 229:..\..\..\lvgl\version_6.1.2\lvgl\src\lv_core/lv_style.c **** }
 1134              		.loc 1 229 0
 1135 01e8 DFF810B2 		ldr	fp, .L34+44
 1136              	.LBE259:
 1137              	.LBE258:
 150:..\..\..\lvgl\version_6.1.2\lvgl\src\lv_core/lv_style.c **** 
 1138              		.loc 1 150 0
 1139 01ec 7374     		strb	r3, [r6, #17]
 148:..\..\..\lvgl\version_6.1.2\lvgl\src\lv_core/lv_style.c ****     lv_style_pretty_color.body.grad_color   = lv_color_make(0x2b, 0x59, 0x8b);
 1140              		.loc 1 148 0
 1141 01ee C722     		movs	r2, #199
 145:..\..\..\lvgl\version_6.1.2\lvgl\src\lv_core/lv_style.c ****     lv_style_pretty_color.image.color       = lv_color_make(0xe0, 0xe0, 0xe0);
 1142              		.loc 1 145 0
 1143 01f0 E023     		movs	r3, #224
 148:..\..\..\lvgl\version_6.1.2\lvgl\src\lv_core/lv_style.c ****     lv_style_pretty_color.body.grad_color   = lv_color_make(0x2b, 0x59, 0x8b);
 1144              		.loc 1 148 0
 1145 01f2 9A21     		movs	r1, #154
 149:..\..\..\lvgl\version_6.1.2\lvgl\src\lv_core/lv_style.c ****     lv_style_pretty_color.body.border.color = lv_color_make(0x15, 0x2c, 0x42);
 1146              		.loc 1 149 0
 1147 01f4 8B20     		movs	r0, #139
 148:..\..\..\lvgl\version_6.1.2\lvgl\src\lv_core/lv_style.c ****     lv_style_pretty_color.body.grad_color   = lv_color_make(0x2b, 0x59, 0x8b);
 1148              		.loc 1 148 0
 1149 01f6 3271     		strb	r2, [r6, #4]
 1150 01f8 7171     		strb	r1, [r6, #5]
 149:..\..\..\lvgl\version_6.1.2\lvgl\src\lv_core/lv_style.c ****     lv_style_pretty_color.body.border.color = lv_color_make(0x15, 0x2c, 0x42);
 1151              		.loc 1 149 0
 1152 01fa 3072     		strb	r0, [r6, #8]
 145:..\..\..\lvgl\version_6.1.2\lvgl\src\lv_core/lv_style.c ****     lv_style_pretty_color.image.color       = lv_color_make(0xe0, 0xe0, 0xe0);
 1153              		.loc 1 145 0
 1154 01fc 86F82C30 		strb	r3, [r6, #44]
 1155 0200 86F82D30 		strb	r3, [r6, #45]
 1156 0204 86F82E30 		strb	r3, [r6, #46]
ARM GAS  C:\Users\pearlstl\AppData\Local\Temp\ccvteysW.s 			page 39


 146:..\..\..\lvgl\version_6.1.2\lvgl\src\lv_core/lv_style.c ****     lv_style_pretty_color.line.color        = lv_color_make(0xc0, 0xc0, 0xc0);
 1157              		.loc 1 146 0
 1158 0208 86F84030 		strb	r3, [r6, #64]
 1159 020c 86F84130 		strb	r3, [r6, #65]
 1160 0210 86F84230 		strb	r3, [r6, #66]
 149:..\..\..\lvgl\version_6.1.2\lvgl\src\lv_core/lv_style.c ****     lv_style_pretty_color.body.border.color = lv_color_make(0x15, 0x2c, 0x42);
 1161              		.loc 1 149 0
 1162 0214 5922     		movs	r2, #89
 1163 0216 4FF02B03 		mov	r3, #43
 150:..\..\..\lvgl\version_6.1.2\lvgl\src\lv_core/lv_style.c **** 
 1164              		.loc 1 150 0
 1165 021a 4221     		movs	r1, #66
 1166 021c 1520     		movs	r0, #21
 145:..\..\..\lvgl\version_6.1.2\lvgl\src\lv_core/lv_style.c ****     lv_style_pretty_color.image.color       = lv_color_make(0xe0, 0xe0, 0xe0);
 1167              		.loc 1 145 0
 1168 021e 86F82F40 		strb	r4, [r6, #47]
 146:..\..\..\lvgl\version_6.1.2\lvgl\src\lv_core/lv_style.c ****     lv_style_pretty_color.line.color        = lv_color_make(0xc0, 0xc0, 0xc0);
 1169              		.loc 1 146 0
 1170 0222 86F84340 		strb	r4, [r6, #67]
 147:..\..\..\lvgl\version_6.1.2\lvgl\src\lv_core/lv_style.c ****     lv_style_pretty_color.body.main_color   = lv_color_make(0x6b, 0x9a, 0xc7);
 1171              		.loc 1 147 0
 1172 0226 86F84870 		strb	r7, [r6, #72]
 1173 022a 86F84970 		strb	r7, [r6, #73]
 1174 022e 86F84A70 		strb	r7, [r6, #74]
 1175 0232 86F84B40 		strb	r4, [r6, #75]
 148:..\..\..\lvgl\version_6.1.2\lvgl\src\lv_core/lv_style.c ****     lv_style_pretty_color.body.grad_color   = lv_color_make(0x2b, 0x59, 0x8b);
 1176              		.loc 1 148 0
 1177 0236 F471     		strb	r4, [r6, #7]
 149:..\..\..\lvgl\version_6.1.2\lvgl\src\lv_core/lv_style.c ****     lv_style_pretty_color.body.border.color = lv_color_make(0x15, 0x2c, 0x42);
 1178              		.loc 1 149 0
 1179 0238 F472     		strb	r4, [r6, #11]
 150:..\..\..\lvgl\version_6.1.2\lvgl\src\lv_core/lv_style.c **** 
 1180              		.loc 1 150 0
 1181 023a F474     		strb	r4, [r6, #19]
 1182              	.LVL40:
 149:..\..\..\lvgl\version_6.1.2\lvgl\src\lv_core/lv_style.c ****     lv_style_pretty_color.body.border.color = lv_color_make(0x15, 0x2c, 0x42);
 1183              		.loc 1 149 0
 1184 023c 7272     		strb	r2, [r6, #9]
 150:..\..\..\lvgl\version_6.1.2\lvgl\src\lv_core/lv_style.c **** 
 1185              		.loc 1 150 0
 1186 023e 3174     		strb	r1, [r6, #16]
 1187 0240 B074     		strb	r0, [r6, #18]
 1188              	.LBB262:
 1189              	.LBB260:
 229:..\..\..\lvgl\version_6.1.2\lvgl\src\lv_core/lv_style.c **** }
 1190              		.loc 1 229 0
 1191 0242 4946     		mov	r1, r9
 1192              	.LBE260:
 1193              	.LBE262:
 149:..\..\..\lvgl\version_6.1.2\lvgl\src\lv_core/lv_style.c ****     lv_style_pretty_color.body.border.color = lv_color_make(0x15, 0x2c, 0x42);
 1194              		.loc 1 149 0
 1195 0244 B372     		strb	r3, [r6, #10]
 1196              	.LBB263:
 1197              	.LBB261:
 229:..\..\..\lvgl\version_6.1.2\lvgl\src\lv_core/lv_style.c **** }
 1198              		.loc 1 229 0
 1199 0246 5022     		movs	r2, #80
ARM GAS  C:\Users\pearlstl\AppData\Local\Temp\ccvteysW.s 			page 40


 1200 0248 5846     		mov	r0, fp
 1201 024a FFF7FEFF 		bl	memcpy
 1202              	.LVL41:
 1203              	.LBE261:
 1204              	.LBE263:
 154:..\..\..\lvgl\version_6.1.2\lvgl\src\lv_core/lv_style.c ****     lv_style_transp.body.border.width = 0;
 1205              		.loc 1 154 0
 1206 024e 9BF80020 		ldrb	r2, [fp]	@ zero_extendqisi2
 1207              	.LBB264:
 1208              	.LBB265:
 229:..\..\..\lvgl\version_6.1.2\lvgl\src\lv_core/lv_style.c **** }
 1209              		.loc 1 229 0
 1210 0252 634B     		ldr	r3, .L34+16
 1211              	.LBE265:
 1212              	.LBE264:
 155:..\..\..\lvgl\version_6.1.2\lvgl\src\lv_core/lv_style.c ****     lv_style_transp.body.opa          = LV_OPA_TRANSP;
 1213              		.loc 1 155 0
 1214 0254 ABF81480 		strh	r8, [fp, #20]	@ movhi
 154:..\..\..\lvgl\version_6.1.2\lvgl\src\lv_core/lv_style.c ****     lv_style_transp.body.border.width = 0;
 1215              		.loc 1 154 0
 1216 0258 42F00102 		orr	r2, r2, #1
 1217              	.LBB269:
 1218              	.LBB266:
 229:..\..\..\lvgl\version_6.1.2\lvgl\src\lv_core/lv_style.c **** }
 1219              		.loc 1 229 0
 1220 025c 5946     		mov	r1, fp
 1221              	.LBE266:
 1222              	.LBE269:
 154:..\..\..\lvgl\version_6.1.2\lvgl\src\lv_core/lv_style.c ****     lv_style_transp.body.border.width = 0;
 1223              		.loc 1 154 0
 1224 025e 8BF80020 		strb	r2, [fp]
 1225              	.LBB270:
 1226              	.LBB267:
 229:..\..\..\lvgl\version_6.1.2\lvgl\src\lv_core/lv_style.c **** }
 1227              		.loc 1 229 0
 1228 0262 1846     		mov	r0, r3
 1229 0264 5022     		movs	r2, #80
 1230              	.LBE267:
 1231              	.LBE270:
 156:..\..\..\lvgl\version_6.1.2\lvgl\src\lv_core/lv_style.c **** 
 1232              		.loc 1 156 0
 1233 0266 8BF80E80 		strb	r8, [fp, #14]
 1234              	.LVL42:
 1235              	.LBB271:
 1236              	.LBB268:
 229:..\..\..\lvgl\version_6.1.2\lvgl\src\lv_core/lv_style.c **** }
 1237              		.loc 1 229 0
 1238 026a FFF7FEFF 		bl	memcpy
 1239              	.LVL43:
 1240              	.LBE268:
 1241              	.LBE271:
 1242              	.LBB272:
 1243              	.LBB273:
 1244 026e 5D4D     		ldr	r5, .L34+20
 1245              	.LBE273:
 1246              	.LBE272:
 160:..\..\..\lvgl\version_6.1.2\lvgl\src\lv_core/lv_style.c ****     lv_style_transp_fit.body.padding.right  = 0;
ARM GAS  C:\Users\pearlstl\AppData\Local\Temp\ccvteysW.s 			page 41


 1247              		.loc 1 160 0
 1248 0270 A0F82480 		strh	r8, [r0, #36]	@ movhi
 1249              	.LBB276:
 1250              	.LBB277:
 229:..\..\..\lvgl\version_6.1.2\lvgl\src\lv_core/lv_style.c **** }
 1251              		.loc 1 229 0
 1252 0274 0146     		mov	r1, r0
 1253              	.LBE277:
 1254              	.LBE276:
 161:..\..\..\lvgl\version_6.1.2\lvgl\src\lv_core/lv_style.c ****     lv_style_transp_fit.body.padding.top    = 0;
 1255              		.loc 1 161 0
 1256 0276 A0F82680 		strh	r8, [r0, #38]	@ movhi
 162:..\..\..\lvgl\version_6.1.2\lvgl\src\lv_core/lv_style.c ****     lv_style_transp_fit.body.padding.bottom = 0;
 1257              		.loc 1 162 0
 1258 027a A0F82080 		strh	r8, [r0, #32]	@ movhi
 163:..\..\..\lvgl\version_6.1.2\lvgl\src\lv_core/lv_style.c **** 
 1259              		.loc 1 163 0
 1260 027e A0F82280 		strh	r8, [r0, #34]	@ movhi
 1261              	.LVL44:
 1262              	.LBB280:
 1263              	.LBB278:
 229:..\..\..\lvgl\version_6.1.2\lvgl\src\lv_core/lv_style.c **** }
 1264              		.loc 1 229 0
 1265 0282 5022     		movs	r2, #80
 1266 0284 5848     		ldr	r0, .L34+24
 1267              	.LBE278:
 1268              	.LBE280:
 1269              	.LBB281:
 1270              	.LBB282:
 1271 0286 594F     		ldr	r7, .L34+28
 1272              	.LBE282:
 1273              	.LBE281:
 1274              	.LBB286:
 1275              	.LBB287:
 1276 0288 594E     		ldr	r6, .L34+32
 1277              	.LBE287:
 1278              	.LBE286:
 1279              	.LBB290:
 1280              	.LBB279:
 1281 028a FFF7FEFF 		bl	memcpy
 1282              	.LVL45:
 1283              	.LBE279:
 1284              	.LBE290:
 167:..\..\..\lvgl\version_6.1.2\lvgl\src\lv_core/lv_style.c **** 
 1285              		.loc 1 167 0
 1286 028e 564B     		ldr	r3, .L34+24
 1287              	.LBB291:
 1288              	.LBB274:
 229:..\..\..\lvgl\version_6.1.2\lvgl\src\lv_core/lv_style.c **** }
 1289              		.loc 1 229 0
 1290 0290 4946     		mov	r1, r9
 1291 0292 5022     		movs	r2, #80
 1292 0294 2846     		mov	r0, r5
 1293              	.LBE274:
 1294              	.LBE291:
 167:..\..\..\lvgl\version_6.1.2\lvgl\src\lv_core/lv_style.c **** 
 1295              		.loc 1 167 0
ARM GAS  C:\Users\pearlstl\AppData\Local\Temp\ccvteysW.s 			page 42


 1296 0296 A3F82880 		strh	r8, [r3, #40]	@ movhi
 1297              	.LVL46:
 1298              	.LBB292:
 1299              	.LBB275:
 229:..\..\..\lvgl\version_6.1.2\lvgl\src\lv_core/lv_style.c **** }
 1300              		.loc 1 229 0
 1301 029a FFF7FEFF 		bl	memcpy
 1302              	.LVL47:
 1303              	.LBE275:
 1304              	.LBE292:
 182:..\..\..\lvgl\version_6.1.2\lvgl\src\lv_core/lv_style.c ****     lv_style_btn_rel.body.shadow.width   = 0;
 1305              		.loc 1 182 0
 1306 029e 6FF07F00 		mvn	r0, #127
 178:..\..\..\lvgl\version_6.1.2\lvgl\src\lv_core/lv_style.c ****     lv_style_btn_rel.body.border.color   = lv_color_make(0x0b, 0x19, 0x28);
 1307              		.loc 1 178 0
 1308 02a2 4FF00F02 		mov	r2, #15	@ movhi
 173:..\..\..\lvgl\version_6.1.2\lvgl\src\lv_core/lv_style.c ****     lv_style_btn_rel.body.padding.left   = LV_DPI / 4;
 1309              		.loc 1 173 0
 1310 02a6 4FF00A01 		mov	r1, #10	@ movhi
 178:..\..\..\lvgl\version_6.1.2\lvgl\src\lv_core/lv_style.c ****     lv_style_btn_rel.body.border.color   = lv_color_make(0x0b, 0x19, 0x28);
 1311              		.loc 1 178 0
 1312 02aa 2A85     		strh	r2, [r5, #40]	@ movhi
 173:..\..\..\lvgl\version_6.1.2\lvgl\src\lv_core/lv_style.c ****     lv_style_btn_rel.body.padding.left   = LV_DPI / 4;
 1313              		.loc 1 173 0
 1314 02ac A981     		strh	r1, [r5, #12]	@ movhi
 182:..\..\..\lvgl\version_6.1.2\lvgl\src\lv_core/lv_style.c ****     lv_style_btn_rel.body.shadow.width   = 0;
 1315              		.loc 1 182 0
 1316 02ae 2876     		strb	r0, [r5, #24]
 1317 02b0 6876     		strb	r0, [r5, #25]
 1318 02b2 A876     		strb	r0, [r5, #26]
 171:..\..\..\lvgl\version_6.1.2\lvgl\src\lv_core/lv_style.c ****     lv_style_btn_rel.body.grad_color     = lv_color_make(0x19, 0x3a, 0x5d);
 1319              		.loc 1 171 0
 1320 02b4 4FF0D00C 		mov	ip, #208
 1321 02b8 A223     		movs	r3, #162
 1322 02ba 4FF0760E 		mov	lr, #118
 172:..\..\..\lvgl\version_6.1.2\lvgl\src\lv_core/lv_style.c ****     lv_style_btn_rel.body.radius         = LV_DPI / 15;
 1323              		.loc 1 172 0
 1324 02be 5D22     		movs	r2, #93
 1325 02c0 3A21     		movs	r1, #58
 179:..\..\..\lvgl\version_6.1.2\lvgl\src\lv_core/lv_style.c ****     lv_style_btn_rel.body.border.width   = LV_DPI / 50 >= 1 ? LV_DPI / 50 : 1;
 1326              		.loc 1 179 0
 1327 02c2 2820     		movs	r0, #40
 183:..\..\..\lvgl\version_6.1.2\lvgl\src\lv_core/lv_style.c ****     lv_style_btn_rel.text.color          = lv_color_make(0xff, 0xff, 0xff);
 1328              		.loc 1 183 0
 1329 02c4 A5F81C80 		strh	r8, [r5, #28]	@ movhi
 171:..\..\..\lvgl\version_6.1.2\lvgl\src\lv_core/lv_style.c ****     lv_style_btn_rel.body.grad_color     = lv_color_make(0x19, 0x3a, 0x5d);
 1330              		.loc 1 171 0
 1331 02c8 85F804C0 		strb	ip, [r5, #4]
 1332 02cc 6B71     		strb	r3, [r5, #5]
 181:..\..\..\lvgl\version_6.1.2\lvgl\src\lv_core/lv_style.c ****     lv_style_btn_rel.body.shadow.color   = LV_COLOR_GRAY;
 1333              		.loc 1 181 0
 1334 02ce 4FF0B20C 		mov	ip, #178
 172:..\..\..\lvgl\version_6.1.2\lvgl\src\lv_core/lv_style.c ****     lv_style_btn_rel.body.radius         = LV_DPI / 15;
 1335              		.loc 1 172 0
 1336 02d2 1923     		movs	r3, #25
 171:..\..\..\lvgl\version_6.1.2\lvgl\src\lv_core/lv_style.c ****     lv_style_btn_rel.body.grad_color     = lv_color_make(0x19, 0x3a, 0x5d);
 1337              		.loc 1 171 0
ARM GAS  C:\Users\pearlstl\AppData\Local\Temp\ccvteysW.s 			page 43


 1338 02d4 85F806E0 		strb	lr, [r5, #6]
 172:..\..\..\lvgl\version_6.1.2\lvgl\src\lv_core/lv_style.c ****     lv_style_btn_rel.body.radius         = LV_DPI / 15;
 1339              		.loc 1 172 0
 1340 02d8 2A72     		strb	r2, [r5, #8]
 174:..\..\..\lvgl\version_6.1.2\lvgl\src\lv_core/lv_style.c ****     lv_style_btn_rel.body.padding.right  = LV_DPI / 4;
 1341              		.loc 1 174 0
 1342 02da 4FF0250E 		mov	lr, #37
 172:..\..\..\lvgl\version_6.1.2\lvgl\src\lv_core/lv_style.c ****     lv_style_btn_rel.body.radius         = LV_DPI / 15;
 1343              		.loc 1 172 0
 1344 02de 6972     		strb	r1, [r5, #9]
 179:..\..\..\lvgl\version_6.1.2\lvgl\src\lv_core/lv_style.c ****     lv_style_btn_rel.body.border.width   = LV_DPI / 50 >= 1 ? LV_DPI / 50 : 1;
 1345              		.loc 1 179 0
 1346 02e0 2874     		strb	r0, [r5, #16]
 1347              	.LBB293:
 1348              	.LBB283:
 229:..\..\..\lvgl\version_6.1.2\lvgl\src\lv_core/lv_style.c **** }
 1349              		.loc 1 229 0
 1350 02e2 2946     		mov	r1, r5
 1351              	.LBE283:
 1352              	.LBE293:
 179:..\..\..\lvgl\version_6.1.2\lvgl\src\lv_core/lv_style.c ****     lv_style_btn_rel.body.border.width   = LV_DPI / 50 >= 1 ? LV_DPI / 50 : 1;
 1353              		.loc 1 179 0
 1354 02e4 4FF00B08 		mov	r8, #11
 1355              	.LBB294:
 1356              	.LBB284:
 229:..\..\..\lvgl\version_6.1.2\lvgl\src\lv_core/lv_style.c **** }
 1357              		.loc 1 229 0
 1358 02e8 5022     		movs	r2, #80
 1359 02ea 3846     		mov	r0, r7
 1360              	.LBE284:
 1361              	.LBE294:
 181:..\..\..\lvgl\version_6.1.2\lvgl\src\lv_core/lv_style.c ****     lv_style_btn_rel.body.shadow.color   = LV_COLOR_GRAY;
 1362              		.loc 1 181 0
 1363 02ec 85F817C0 		strb	ip, [r5, #23]
 174:..\..\..\lvgl\version_6.1.2\lvgl\src\lv_core/lv_style.c ****     lv_style_btn_rel.body.padding.right  = LV_DPI / 4;
 1364              		.loc 1 174 0
 1365 02f0 A5F824E0 		strh	lr, [r5, #36]	@ movhi
 175:..\..\..\lvgl\version_6.1.2\lvgl\src\lv_core/lv_style.c ****     lv_style_btn_rel.body.padding.top    = LV_DPI / 6;
 1366              		.loc 1 175 0
 1367 02f4 A5F826E0 		strh	lr, [r5, #38]	@ movhi
 172:..\..\..\lvgl\version_6.1.2\lvgl\src\lv_core/lv_style.c ****     lv_style_btn_rel.body.radius         = LV_DPI / 15;
 1368              		.loc 1 172 0
 1369 02f8 AB72     		strb	r3, [r5, #10]
 176:..\..\..\lvgl\version_6.1.2\lvgl\src\lv_core/lv_style.c ****     lv_style_btn_rel.body.padding.bottom = LV_DPI / 6;
 1370              		.loc 1 176 0
 1371 02fa 2B84     		strh	r3, [r5, #32]	@ movhi
 177:..\..\..\lvgl\version_6.1.2\lvgl\src\lv_core/lv_style.c ****     lv_style_btn_rel.body.padding.inner  = LV_DPI / 10;
 1372              		.loc 1 177 0
 1373 02fc 6B84     		strh	r3, [r5, #34]	@ movhi
 179:..\..\..\lvgl\version_6.1.2\lvgl\src\lv_core/lv_style.c ****     lv_style_btn_rel.body.border.width   = LV_DPI / 50 >= 1 ? LV_DPI / 50 : 1;
 1374              		.loc 1 179 0
 1375 02fe 6B74     		strb	r3, [r5, #17]
 171:..\..\..\lvgl\version_6.1.2\lvgl\src\lv_core/lv_style.c ****     lv_style_btn_rel.body.grad_color     = lv_color_make(0x19, 0x3a, 0x5d);
 1376              		.loc 1 171 0
 1377 0300 EC71     		strb	r4, [r5, #7]
 172:..\..\..\lvgl\version_6.1.2\lvgl\src\lv_core/lv_style.c ****     lv_style_btn_rel.body.radius         = LV_DPI / 15;
 1378              		.loc 1 172 0
ARM GAS  C:\Users\pearlstl\AppData\Local\Temp\ccvteysW.s 			page 44


 1379 0302 EC72     		strb	r4, [r5, #11]
 179:..\..\..\lvgl\version_6.1.2\lvgl\src\lv_core/lv_style.c ****     lv_style_btn_rel.body.border.width   = LV_DPI / 50 >= 1 ? LV_DPI / 50 : 1;
 1380              		.loc 1 179 0
 1381 0304 EC74     		strb	r4, [r5, #19]
 180:..\..\..\lvgl\version_6.1.2\lvgl\src\lv_core/lv_style.c ****     lv_style_btn_rel.body.border.opa     = LV_OPA_70;
 1382              		.loc 1 180 0
 1383 0306 A5F814A0 		strh	r10, [r5, #20]	@ movhi
 182:..\..\..\lvgl\version_6.1.2\lvgl\src\lv_core/lv_style.c ****     lv_style_btn_rel.body.shadow.width   = 0;
 1384              		.loc 1 182 0
 1385 030a EC76     		strb	r4, [r5, #27]
 184:..\..\..\lvgl\version_6.1.2\lvgl\src\lv_core/lv_style.c ****     lv_style_btn_rel.image.color         = lv_color_make(0xff, 0xff, 0xff);
 1386              		.loc 1 184 0
 1387 030c 85F82C40 		strb	r4, [r5, #44]
 1388 0310 85F82D40 		strb	r4, [r5, #45]
 1389 0314 85F82E40 		strb	r4, [r5, #46]
 1390 0318 85F82F40 		strb	r4, [r5, #47]
 185:..\..\..\lvgl\version_6.1.2\lvgl\src\lv_core/lv_style.c **** 
 1391              		.loc 1 185 0
 1392 031c 85F84040 		strb	r4, [r5, #64]
 1393 0320 85F84140 		strb	r4, [r5, #65]
 1394 0324 85F84240 		strb	r4, [r5, #66]
 179:..\..\..\lvgl\version_6.1.2\lvgl\src\lv_core/lv_style.c ****     lv_style_btn_rel.body.border.width   = LV_DPI / 50 >= 1 ? LV_DPI / 50 : 1;
 1395              		.loc 1 179 0
 1396 0328 85F81280 		strb	r8, [r5, #18]
 185:..\..\..\lvgl\version_6.1.2\lvgl\src\lv_core/lv_style.c **** 
 1397              		.loc 1 185 0
 1398 032c 85F84340 		strb	r4, [r5, #67]
 1399              	.LVL48:
 1400              	.LBB295:
 1401              	.LBB285:
 229:..\..\..\lvgl\version_6.1.2\lvgl\src\lv_core/lv_style.c **** }
 1402              		.loc 1 229 0
 1403 0330 FFF7FEFF 		bl	memcpy
 1404              	.LVL49:
 1405              	.LBE285:
 1406              	.LBE295:
 189:..\..\..\lvgl\version_6.1.2\lvgl\src\lv_core/lv_style.c ****     lv_style_btn_pr.body.grad_color = lv_color_make(0x10, 0x26, 0x3c);
 1407              		.loc 1 189 0
 1408 0334 3323     		movs	r3, #51
 1409 0336 BB71     		strb	r3, [r7, #6]
 1410 0338 9421     		movs	r1, #148
 190:..\..\..\lvgl\version_6.1.2\lvgl\src\lv_core/lv_style.c ****     lv_style_btn_pr.text.color      = lv_color_make(0xa4, 0xb5, 0xc6);
 1411              		.loc 1 190 0
 1412 033a 1023     		movs	r3, #16
 191:..\..\..\lvgl\version_6.1.2\lvgl\src\lv_core/lv_style.c ****     lv_style_btn_pr.image.color     = lv_color_make(0xa4, 0xb5, 0xc6);
 1413              		.loc 1 191 0
 1414 033c 4FF0C60B 		mov	fp, #198
 1415 0340 4FF0B50A 		mov	r10, #181
 1416 0344 4FF0A409 		mov	r9, #164
 189:..\..\..\lvgl\version_6.1.2\lvgl\src\lv_core/lv_style.c ****     lv_style_btn_pr.body.grad_color = lv_color_make(0x10, 0x26, 0x3c);
 1417              		.loc 1 189 0
 1418 0348 3971     		strb	r1, [r7, #4]
 190:..\..\..\lvgl\version_6.1.2\lvgl\src\lv_core/lv_style.c ****     lv_style_btn_pr.text.color      = lv_color_make(0xa4, 0xb5, 0xc6);
 1419              		.loc 1 190 0
 1420 034a BB72     		strb	r3, [r7, #10]
 1421 034c 3C22     		movs	r2, #60
 189:..\..\..\lvgl\version_6.1.2\lvgl\src\lv_core/lv_style.c ****     lv_style_btn_pr.body.grad_color = lv_color_make(0x10, 0x26, 0x3c);
ARM GAS  C:\Users\pearlstl\AppData\Local\Temp\ccvteysW.s 			page 45


 1422              		.loc 1 189 0
 1423 034e 4FF06203 		mov	r3, #98
 190:..\..\..\lvgl\version_6.1.2\lvgl\src\lv_core/lv_style.c ****     lv_style_btn_pr.text.color      = lv_color_make(0xa4, 0xb5, 0xc6);
 1424              		.loc 1 190 0
 1425 0352 2621     		movs	r1, #38
 189:..\..\..\lvgl\version_6.1.2\lvgl\src\lv_core/lv_style.c ****     lv_style_btn_pr.body.grad_color = lv_color_make(0x10, 0x26, 0x3c);
 1426              		.loc 1 189 0
 1427 0354 FC71     		strb	r4, [r7, #7]
 190:..\..\..\lvgl\version_6.1.2\lvgl\src\lv_core/lv_style.c ****     lv_style_btn_pr.text.color      = lv_color_make(0xa4, 0xb5, 0xc6);
 1428              		.loc 1 190 0
 1429 0356 FC72     		strb	r4, [r7, #11]
 191:..\..\..\lvgl\version_6.1.2\lvgl\src\lv_core/lv_style.c ****     lv_style_btn_pr.image.color     = lv_color_make(0xa4, 0xb5, 0xc6);
 1430              		.loc 1 191 0
 1431 0358 87F82F40 		strb	r4, [r7, #47]
 192:..\..\..\lvgl\version_6.1.2\lvgl\src\lv_core/lv_style.c ****     lv_style_btn_pr.line.color      = lv_color_make(0xa4, 0xb5, 0xc6);
 1432              		.loc 1 192 0
 1433 035c 87F84340 		strb	r4, [r7, #67]
 193:..\..\..\lvgl\version_6.1.2\lvgl\src\lv_core/lv_style.c **** 
 1434              		.loc 1 193 0
 1435 0360 87F84B40 		strb	r4, [r7, #75]
 1436              	.LVL50:
 190:..\..\..\lvgl\version_6.1.2\lvgl\src\lv_core/lv_style.c ****     lv_style_btn_pr.text.color      = lv_color_make(0xa4, 0xb5, 0xc6);
 1437              		.loc 1 190 0
 1438 0364 3A72     		strb	r2, [r7, #8]
 1439 0366 7972     		strb	r1, [r7, #9]
 189:..\..\..\lvgl\version_6.1.2\lvgl\src\lv_core/lv_style.c ****     lv_style_btn_pr.body.grad_color = lv_color_make(0x10, 0x26, 0x3c);
 1440              		.loc 1 189 0
 1441 0368 7B71     		strb	r3, [r7, #5]
 1442              	.LBB296:
 1443              	.LBB288:
 229:..\..\..\lvgl\version_6.1.2\lvgl\src\lv_core/lv_style.c **** }
 1444              		.loc 1 229 0
 1445 036a 2946     		mov	r1, r5
 1446              	.LBE288:
 1447              	.LBE296:
 191:..\..\..\lvgl\version_6.1.2\lvgl\src\lv_core/lv_style.c ****     lv_style_btn_pr.image.color     = lv_color_make(0xa4, 0xb5, 0xc6);
 1448              		.loc 1 191 0
 1449 036c 87F82CB0 		strb	fp, [r7, #44]
 192:..\..\..\lvgl\version_6.1.2\lvgl\src\lv_core/lv_style.c ****     lv_style_btn_pr.line.color      = lv_color_make(0xa4, 0xb5, 0xc6);
 1450              		.loc 1 192 0
 1451 0370 87F840B0 		strb	fp, [r7, #64]
 193:..\..\..\lvgl\version_6.1.2\lvgl\src\lv_core/lv_style.c **** 
 1452              		.loc 1 193 0
 1453 0374 87F848B0 		strb	fp, [r7, #72]
 191:..\..\..\lvgl\version_6.1.2\lvgl\src\lv_core/lv_style.c ****     lv_style_btn_pr.image.color     = lv_color_make(0xa4, 0xb5, 0xc6);
 1454              		.loc 1 191 0
 1455 0378 87F82DA0 		strb	r10, [r7, #45]
 192:..\..\..\lvgl\version_6.1.2\lvgl\src\lv_core/lv_style.c ****     lv_style_btn_pr.line.color      = lv_color_make(0xa4, 0xb5, 0xc6);
 1456              		.loc 1 192 0
 1457 037c 87F841A0 		strb	r10, [r7, #65]
 193:..\..\..\lvgl\version_6.1.2\lvgl\src\lv_core/lv_style.c **** 
 1458              		.loc 1 193 0
 1459 0380 87F849A0 		strb	r10, [r7, #73]
 191:..\..\..\lvgl\version_6.1.2\lvgl\src\lv_core/lv_style.c ****     lv_style_btn_pr.image.color     = lv_color_make(0xa4, 0xb5, 0xc6);
 1460              		.loc 1 191 0
 1461 0384 87F82E90 		strb	r9, [r7, #46]
 192:..\..\..\lvgl\version_6.1.2\lvgl\src\lv_core/lv_style.c ****     lv_style_btn_pr.line.color      = lv_color_make(0xa4, 0xb5, 0xc6);
ARM GAS  C:\Users\pearlstl\AppData\Local\Temp\ccvteysW.s 			page 46


 1462              		.loc 1 192 0
 1463 0388 87F84290 		strb	r9, [r7, #66]
 193:..\..\..\lvgl\version_6.1.2\lvgl\src\lv_core/lv_style.c **** 
 1464              		.loc 1 193 0
 1465 038c 87F84A90 		strb	r9, [r7, #74]
 1466              	.LBB297:
 1467              	.LBB289:
 229:..\..\..\lvgl\version_6.1.2\lvgl\src\lv_core/lv_style.c **** }
 1468              		.loc 1 229 0
 1469 0390 5022     		movs	r2, #80
 1470 0392 3046     		mov	r0, r6
 1471 0394 FFF7FEFF 		bl	memcpy
 1472              	.LVL51:
 1473              	.LBE289:
 1474              	.LBE297:
 197:..\..\..\lvgl\version_6.1.2\lvgl\src\lv_core/lv_style.c ****     lv_style_btn_tgl_rel.body.grad_color   = lv_color_make(0x37, 0x62, 0x90);
 1475              		.loc 1 197 0
 1476 0398 4FF00A03 		mov	r3, #10
 1477              	.LBB298:
 1478              	.LBB299:
 229:..\..\..\lvgl\version_6.1.2\lvgl\src\lv_core/lv_style.c **** }
 1479              		.loc 1 229 0
 1480 039c DFF86080 		ldr	r8, .L34+48
 1481              	.LBE299:
 1482              	.LBE298:
 197:..\..\..\lvgl\version_6.1.2\lvgl\src\lv_core/lv_style.c ****     lv_style_btn_tgl_rel.body.grad_color   = lv_color_make(0x37, 0x62, 0x90);
 1483              		.loc 1 197 0
 1484 03a0 B371     		strb	r3, [r6, #6]
 1485 03a2 1120     		movs	r0, #17
 1486 03a4 2223     		movs	r3, #34
 198:..\..\..\lvgl\version_6.1.2\lvgl\src\lv_core/lv_style.c ****     lv_style_btn_tgl_rel.body.border.color = lv_color_make(0x01, 0x07, 0x0d);
 1487              		.loc 1 198 0
 1488 03a6 4FF0370C 		mov	ip, #55
 1489 03aa 4FF06202 		mov	r2, #98
 199:..\..\..\lvgl\version_6.1.2\lvgl\src\lv_core/lv_style.c ****     lv_style_btn_tgl_rel.text.color        = lv_color_make(0xc8, 0xdd, 0xf4);
 1490              		.loc 1 199 0
 1491 03ae 4FF00D0E 		mov	lr, #13
 198:..\..\..\lvgl\version_6.1.2\lvgl\src\lv_core/lv_style.c ****     lv_style_btn_tgl_rel.body.border.color = lv_color_make(0x01, 0x07, 0x0d);
 1492              		.loc 1 198 0
 1493 03b2 7272     		strb	r2, [r6, #9]
 197:..\..\..\lvgl\version_6.1.2\lvgl\src\lv_core/lv_style.c ****     lv_style_btn_tgl_rel.body.grad_color   = lv_color_make(0x37, 0x62, 0x90);
 1494              		.loc 1 197 0
 1495 03b4 3371     		strb	r3, [r6, #4]
 1496 03b6 7071     		strb	r0, [r6, #5]
 198:..\..\..\lvgl\version_6.1.2\lvgl\src\lv_core/lv_style.c ****     lv_style_btn_tgl_rel.body.border.color = lv_color_make(0x01, 0x07, 0x0d);
 1497              		.loc 1 198 0
 1498 03b8 9023     		movs	r3, #144
 200:..\..\..\lvgl\version_6.1.2\lvgl\src\lv_core/lv_style.c ****     lv_style_btn_tgl_rel.image.color       = lv_color_make(0xc8, 0xdd, 0xf4);
 1499              		.loc 1 200 0
 1500 03ba F420     		movs	r0, #244
 198:..\..\..\lvgl\version_6.1.2\lvgl\src\lv_core/lv_style.c ****     lv_style_btn_tgl_rel.body.border.color = lv_color_make(0x01, 0x07, 0x0d);
 1501              		.loc 1 198 0
 1502 03bc 86F80AC0 		strb	ip, [r6, #10]
 199:..\..\..\lvgl\version_6.1.2\lvgl\src\lv_core/lv_style.c ****     lv_style_btn_tgl_rel.text.color        = lv_color_make(0xc8, 0xdd, 0xf4);
 1503              		.loc 1 199 0
 1504 03c0 86F810E0 		strb	lr, [r6, #16]
 200:..\..\..\lvgl\version_6.1.2\lvgl\src\lv_core/lv_style.c ****     lv_style_btn_tgl_rel.image.color       = lv_color_make(0xc8, 0xdd, 0xf4);
ARM GAS  C:\Users\pearlstl\AppData\Local\Temp\ccvteysW.s 			page 47


 1505              		.loc 1 200 0
 1506 03c4 4FF0DD0C 		mov	ip, #221
 1507 03c8 4FF0C80E 		mov	lr, #200
 1508 03cc 1AE0     		b	.L35
 1509              	.L36:
 1510 03ce 00BF     		.align	2
 1511              	.L34:
 1512 03d0 00000000 		.word	lv_style_scr
 1513 03d4 00000000 		.word	lv_style_plain_color
 1514 03d8 00000000 		.word	lv_style_pretty
 1515 03dc 00000000 		.word	lv_style_pretty_color
 1516 03e0 00000000 		.word	lv_style_transp_fit
 1517 03e4 00000000 		.word	lv_style_btn_rel
 1518 03e8 00000000 		.word	lv_style_transp_tight
 1519 03ec 00000000 		.word	lv_style_btn_pr
 1520 03f0 00000000 		.word	lv_style_btn_tgl_rel
 1521 03f4 00000000 		.word	lv_style_plain
 1522 03f8 00000000 		.word	lv_font_roboto_16
 1523 03fc 00000000 		.word	lv_style_transp
 1524 0400 00000000 		.word	lv_style_btn_tgl_pr
 1525              	.L35:
 199:..\..\..\lvgl\version_6.1.2\lvgl\src\lv_core/lv_style.c ****     lv_style_btn_tgl_rel.text.color        = lv_color_make(0xc8, 0xdd, 0xf4);
 1526              		.loc 1 199 0
 1527 0404 4FF00102 		mov	r2, #1
 1528 0408 4FF00701 		mov	r1, #7
 200:..\..\..\lvgl\version_6.1.2\lvgl\src\lv_core/lv_style.c ****     lv_style_btn_tgl_rel.image.color       = lv_color_make(0xc8, 0xdd, 0xf4);
 1529              		.loc 1 200 0
 1530 040c 86F82DC0 		strb	ip, [r6, #45]
 201:..\..\..\lvgl\version_6.1.2\lvgl\src\lv_core/lv_style.c ****     lv_style_btn_tgl_rel.line.color        = lv_color_make(0xc8, 0xdd, 0xf4);
 1531              		.loc 1 201 0
 1532 0410 86F841C0 		strb	ip, [r6, #65]
 202:..\..\..\lvgl\version_6.1.2\lvgl\src\lv_core/lv_style.c **** 
 1533              		.loc 1 202 0
 1534 0414 86F849C0 		strb	ip, [r6, #73]
 199:..\..\..\lvgl\version_6.1.2\lvgl\src\lv_core/lv_style.c ****     lv_style_btn_tgl_rel.text.color        = lv_color_make(0xc8, 0xdd, 0xf4);
 1535              		.loc 1 199 0
 1536 0418 B274     		strb	r2, [r6, #18]
 1537 041a 7174     		strb	r1, [r6, #17]
 197:..\..\..\lvgl\version_6.1.2\lvgl\src\lv_core/lv_style.c ****     lv_style_btn_tgl_rel.body.grad_color   = lv_color_make(0x37, 0x62, 0x90);
 1538              		.loc 1 197 0
 1539 041c F471     		strb	r4, [r6, #7]
 1540              	.LBB303:
 1541              	.LBB300:
 229:..\..\..\lvgl\version_6.1.2\lvgl\src\lv_core/lv_style.c **** }
 1542              		.loc 1 229 0
 1543 041e 3146     		mov	r1, r6
 1544              	.LBE300:
 1545              	.LBE303:
 198:..\..\..\lvgl\version_6.1.2\lvgl\src\lv_core/lv_style.c ****     lv_style_btn_tgl_rel.body.border.color = lv_color_make(0x01, 0x07, 0x0d);
 1546              		.loc 1 198 0
 1547 0420 F472     		strb	r4, [r6, #11]
 199:..\..\..\lvgl\version_6.1.2\lvgl\src\lv_core/lv_style.c ****     lv_style_btn_tgl_rel.text.color        = lv_color_make(0xc8, 0xdd, 0xf4);
 1548              		.loc 1 199 0
 1549 0422 F474     		strb	r4, [r6, #19]
 200:..\..\..\lvgl\version_6.1.2\lvgl\src\lv_core/lv_style.c ****     lv_style_btn_tgl_rel.image.color       = lv_color_make(0xc8, 0xdd, 0xf4);
 1550              		.loc 1 200 0
 1551 0424 86F82F40 		strb	r4, [r6, #47]
ARM GAS  C:\Users\pearlstl\AppData\Local\Temp\ccvteysW.s 			page 48


 201:..\..\..\lvgl\version_6.1.2\lvgl\src\lv_core/lv_style.c ****     lv_style_btn_tgl_rel.line.color        = lv_color_make(0xc8, 0xdd, 0xf4);
 1552              		.loc 1 201 0
 1553 0428 86F84340 		strb	r4, [r6, #67]
 202:..\..\..\lvgl\version_6.1.2\lvgl\src\lv_core/lv_style.c **** 
 1554              		.loc 1 202 0
 1555 042c 86F84B40 		strb	r4, [r6, #75]
 1556              	.LVL52:
 198:..\..\..\lvgl\version_6.1.2\lvgl\src\lv_core/lv_style.c ****     lv_style_btn_tgl_rel.body.border.color = lv_color_make(0x01, 0x07, 0x0d);
 1557              		.loc 1 198 0
 1558 0430 3372     		strb	r3, [r6, #8]
 200:..\..\..\lvgl\version_6.1.2\lvgl\src\lv_core/lv_style.c ****     lv_style_btn_tgl_rel.image.color       = lv_color_make(0xc8, 0xdd, 0xf4);
 1559              		.loc 1 200 0
 1560 0432 86F82C00 		strb	r0, [r6, #44]
 201:..\..\..\lvgl\version_6.1.2\lvgl\src\lv_core/lv_style.c ****     lv_style_btn_tgl_rel.line.color        = lv_color_make(0xc8, 0xdd, 0xf4);
 1561              		.loc 1 201 0
 1562 0436 86F84000 		strb	r0, [r6, #64]
 202:..\..\..\lvgl\version_6.1.2\lvgl\src\lv_core/lv_style.c **** 
 1563              		.loc 1 202 0
 1564 043a 86F84800 		strb	r0, [r6, #72]
 200:..\..\..\lvgl\version_6.1.2\lvgl\src\lv_core/lv_style.c ****     lv_style_btn_tgl_rel.image.color       = lv_color_make(0xc8, 0xdd, 0xf4);
 1565              		.loc 1 200 0
 1566 043e 86F82EE0 		strb	lr, [r6, #46]
 201:..\..\..\lvgl\version_6.1.2\lvgl\src\lv_core/lv_style.c ****     lv_style_btn_tgl_rel.line.color        = lv_color_make(0xc8, 0xdd, 0xf4);
 1567              		.loc 1 201 0
 1568 0442 86F842E0 		strb	lr, [r6, #66]
 202:..\..\..\lvgl\version_6.1.2\lvgl\src\lv_core/lv_style.c **** 
 1569              		.loc 1 202 0
 1570 0446 86F84AE0 		strb	lr, [r6, #74]
 1571              	.LBB304:
 1572              	.LBB301:
 229:..\..\..\lvgl\version_6.1.2\lvgl\src\lv_core/lv_style.c **** }
 1573              		.loc 1 229 0
 1574 044a 5022     		movs	r2, #80
 1575 044c 4046     		mov	r0, r8
 1576              	.LBE301:
 1577              	.LBE304:
 198:..\..\..\lvgl\version_6.1.2\lvgl\src\lv_core/lv_style.c ****     lv_style_btn_tgl_rel.body.border.color = lv_color_make(0x01, 0x07, 0x0d);
 1578              		.loc 1 198 0
 1579 044e 0193     		str	r3, [sp, #4]
 1580              	.LBB305:
 1581              	.LBB302:
 229:..\..\..\lvgl\version_6.1.2\lvgl\src\lv_core/lv_style.c **** }
 1582              		.loc 1 229 0
 1583 0450 FFF7FEFF 		bl	memcpy
 1584              	.LVL53:
 1585              	.LBE302:
 1586              	.LBE305:
 206:..\..\..\lvgl\version_6.1.2\lvgl\src\lv_core/lv_style.c ****     lv_style_btn_tgl_pr.body.grad_color = lv_color_make(0x2b, 0x4c, 0x70);
 1587              		.loc 1 206 0
 1588 0454 4FF00203 		mov	r3, #2
 1589              	.LBB306:
 1590              	.LBB307:
 229:..\..\..\lvgl\version_6.1.2\lvgl\src\lv_core/lv_style.c **** }
 1591              		.loc 1 229 0
 1592 0458 2F4F     		ldr	r7, .L37
 1593              	.LBE307:
 1594              	.LBE306:
ARM GAS  C:\Users\pearlstl\AppData\Local\Temp\ccvteysW.s 			page 49


 206:..\..\..\lvgl\version_6.1.2\lvgl\src\lv_core/lv_style.c ****     lv_style_btn_tgl_pr.body.grad_color = lv_color_make(0x2b, 0x4c, 0x70);
 1595              		.loc 1 206 0
 1596 045a 88F80630 		strb	r3, [r8, #6]
 207:..\..\..\lvgl\version_6.1.2\lvgl\src\lv_core/lv_style.c ****     lv_style_btn_tgl_pr.text.color      = lv_color_make(0xa4, 0xb5, 0xc6);
 1597              		.loc 1 207 0
 1598 045e 4FF04C03 		mov	r3, #76
 1599 0462 7026     		movs	r6, #112
 1600              	.LBB311:
 1601              	.LBB308:
 229:..\..\..\lvgl\version_6.1.2\lvgl\src\lv_core/lv_style.c **** }
 1602              		.loc 1 229 0
 1603 0464 2946     		mov	r1, r5
 1604              	.LBE308:
 1605              	.LBE311:
 206:..\..\..\lvgl\version_6.1.2\lvgl\src\lv_core/lv_style.c ****     lv_style_btn_tgl_pr.body.grad_color = lv_color_make(0x2b, 0x4c, 0x70);
 1606              		.loc 1 206 0
 1607 0466 4FF0270E 		mov	lr, #39
 207:..\..\..\lvgl\version_6.1.2\lvgl\src\lv_core/lv_style.c ****     lv_style_btn_tgl_pr.text.color      = lv_color_make(0xa4, 0xb5, 0xc6);
 1608              		.loc 1 207 0
 1609 046a 88F80930 		strb	r3, [r8, #9]
 206:..\..\..\lvgl\version_6.1.2\lvgl\src\lv_core/lv_style.c ****     lv_style_btn_tgl_pr.body.grad_color = lv_color_make(0x2b, 0x4c, 0x70);
 1610              		.loc 1 206 0
 1611 046e 1425     		movs	r5, #20
 207:..\..\..\lvgl\version_6.1.2\lvgl\src\lv_core/lv_style.c ****     lv_style_btn_tgl_pr.text.color      = lv_color_make(0xa4, 0xb5, 0xc6);
 1612              		.loc 1 207 0
 1613 0470 4FF02B03 		mov	r3, #43
 1614 0474 88F80A30 		strb	r3, [r8, #10]
 1615              	.LBB312:
 1616              	.LBB309:
 229:..\..\..\lvgl\version_6.1.2\lvgl\src\lv_core/lv_style.c **** }
 1617              		.loc 1 229 0
 1618 0478 5022     		movs	r2, #80
 1619 047a 3846     		mov	r0, r7
 1620              	.LBE309:
 1621              	.LBE312:
 206:..\..\..\lvgl\version_6.1.2\lvgl\src\lv_core/lv_style.c ****     lv_style_btn_tgl_pr.body.grad_color = lv_color_make(0x2b, 0x4c, 0x70);
 1622              		.loc 1 206 0
 1623 047c 88F80740 		strb	r4, [r8, #7]
 207:..\..\..\lvgl\version_6.1.2\lvgl\src\lv_core/lv_style.c ****     lv_style_btn_tgl_pr.text.color      = lv_color_make(0xa4, 0xb5, 0xc6);
 1624              		.loc 1 207 0
 1625 0480 88F80B40 		strb	r4, [r8, #11]
 208:..\..\..\lvgl\version_6.1.2\lvgl\src\lv_core/lv_style.c ****     lv_style_btn_tgl_pr.image.color     = lv_color_make(0xa4, 0xb5, 0xc6);
 1626              		.loc 1 208 0
 1627 0484 88F82CB0 		strb	fp, [r8, #44]
 1628 0488 88F82DA0 		strb	r10, [r8, #45]
 1629 048c 88F82E90 		strb	r9, [r8, #46]
 209:..\..\..\lvgl\version_6.1.2\lvgl\src\lv_core/lv_style.c ****     lv_style_btn_tgl_pr.line.color      = lv_color_make(0xa4, 0xb5, 0xc6);
 1630              		.loc 1 209 0
 1631 0490 88F840B0 		strb	fp, [r8, #64]
 1632 0494 88F841A0 		strb	r10, [r8, #65]
 1633 0498 88F84290 		strb	r9, [r8, #66]
 210:..\..\..\lvgl\version_6.1.2\lvgl\src\lv_core/lv_style.c **** 
 1634              		.loc 1 210 0
 1635 049c 88F848B0 		strb	fp, [r8, #72]
 1636 04a0 88F849A0 		strb	r10, [r8, #73]
 1637 04a4 88F84A90 		strb	r9, [r8, #74]
 208:..\..\..\lvgl\version_6.1.2\lvgl\src\lv_core/lv_style.c ****     lv_style_btn_tgl_pr.image.color     = lv_color_make(0xa4, 0xb5, 0xc6);
ARM GAS  C:\Users\pearlstl\AppData\Local\Temp\ccvteysW.s 			page 50


 1638              		.loc 1 208 0
 1639 04a8 88F82F40 		strb	r4, [r8, #47]
 209:..\..\..\lvgl\version_6.1.2\lvgl\src\lv_core/lv_style.c ****     lv_style_btn_tgl_pr.line.color      = lv_color_make(0xa4, 0xb5, 0xc6);
 1640              		.loc 1 209 0
 1641 04ac 88F84340 		strb	r4, [r8, #67]
 210:..\..\..\lvgl\version_6.1.2\lvgl\src\lv_core/lv_style.c **** 
 1642              		.loc 1 210 0
 1643 04b0 88F84B40 		strb	r4, [r8, #75]
 1644              	.LVL54:
 206:..\..\..\lvgl\version_6.1.2\lvgl\src\lv_core/lv_style.c ****     lv_style_btn_tgl_pr.body.grad_color = lv_color_make(0x2b, 0x4c, 0x70);
 1645              		.loc 1 206 0
 1646 04b4 88F804E0 		strb	lr, [r8, #4]
 1647 04b8 88F80550 		strb	r5, [r8, #5]
 207:..\..\..\lvgl\version_6.1.2\lvgl\src\lv_core/lv_style.c ****     lv_style_btn_tgl_pr.text.color      = lv_color_make(0xa4, 0xb5, 0xc6);
 1648              		.loc 1 207 0
 1649 04bc 88F80860 		strb	r6, [r8, #8]
 1650              	.LBB313:
 1651              	.LBB310:
 229:..\..\..\lvgl\version_6.1.2\lvgl\src\lv_core/lv_style.c **** }
 1652              		.loc 1 229 0
 1653 04c0 FFF7FEFF 		bl	memcpy
 1654              	.LVL55:
 1655              	.LBE310:
 1656              	.LBE313:
 214:..\..\..\lvgl\version_6.1.2\lvgl\src\lv_core/lv_style.c ****     lv_style_btn_ina.body.grad_color   = lv_color_make(0xd8, 0xd8, 0xd8);
 1657              		.loc 1 214 0
 1658 04c4 6FF02703 		mvn	r3, #39
 1659 04c8 3B71     		strb	r3, [r7, #4]
 1660 04ca 7B71     		strb	r3, [r7, #5]
 1661 04cc BB71     		strb	r3, [r7, #6]
 215:..\..\..\lvgl\version_6.1.2\lvgl\src\lv_core/lv_style.c ****     lv_style_btn_ina.body.border.color = lv_color_make(0x90, 0x90, 0x90);
 1662              		.loc 1 215 0
 1663 04ce 3B72     		strb	r3, [r7, #8]
 1664 04d0 7B72     		strb	r3, [r7, #9]
 1665 04d2 BB72     		strb	r3, [r7, #10]
 216:..\..\..\lvgl\version_6.1.2\lvgl\src\lv_core/lv_style.c ****     lv_style_btn_ina.text.color        = lv_color_make(0x70, 0x70, 0x70);
 1666              		.loc 1 216 0
 1667 04d4 019B     		ldr	r3, [sp, #4]
 214:..\..\..\lvgl\version_6.1.2\lvgl\src\lv_core/lv_style.c ****     lv_style_btn_ina.body.grad_color   = lv_color_make(0xd8, 0xd8, 0xd8);
 1668              		.loc 1 214 0
 1669 04d6 FC71     		strb	r4, [r7, #7]
 215:..\..\..\lvgl\version_6.1.2\lvgl\src\lv_core/lv_style.c ****     lv_style_btn_ina.body.border.color = lv_color_make(0x90, 0x90, 0x90);
 1670              		.loc 1 215 0
 1671 04d8 FC72     		strb	r4, [r7, #11]
 216:..\..\..\lvgl\version_6.1.2\lvgl\src\lv_core/lv_style.c ****     lv_style_btn_ina.text.color        = lv_color_make(0x70, 0x70, 0x70);
 1672              		.loc 1 216 0
 1673 04da 3B74     		strb	r3, [r7, #16]
 1674 04dc 7B74     		strb	r3, [r7, #17]
 1675 04de BB74     		strb	r3, [r7, #18]
 1676 04e0 FC74     		strb	r4, [r7, #19]
 217:..\..\..\lvgl\version_6.1.2\lvgl\src\lv_core/lv_style.c ****     lv_style_btn_ina.image.color       = lv_color_make(0x70, 0x70, 0x70);
 1677              		.loc 1 217 0
 1678 04e2 87F82C60 		strb	r6, [r7, #44]
 1679 04e6 87F82D60 		strb	r6, [r7, #45]
 1680 04ea 87F82E60 		strb	r6, [r7, #46]
 1681 04ee 87F82F40 		strb	r4, [r7, #47]
 218:..\..\..\lvgl\version_6.1.2\lvgl\src\lv_core/lv_style.c ****     lv_style_btn_ina.line.color        = lv_color_make(0x70, 0x70, 0x70);
ARM GAS  C:\Users\pearlstl\AppData\Local\Temp\ccvteysW.s 			page 51


 1682              		.loc 1 218 0
 1683 04f2 87F84060 		strb	r6, [r7, #64]
 1684 04f6 87F84160 		strb	r6, [r7, #65]
 1685 04fa 87F84260 		strb	r6, [r7, #66]
 1686 04fe 87F84340 		strb	r4, [r7, #67]
 219:..\..\..\lvgl\version_6.1.2\lvgl\src\lv_core/lv_style.c **** }
 1687              		.loc 1 219 0
 1688 0502 87F84860 		strb	r6, [r7, #72]
 1689 0506 87F84960 		strb	r6, [r7, #73]
 1690 050a 87F84A60 		strb	r6, [r7, #74]
 1691 050e 87F84B40 		strb	r4, [r7, #75]
 220:..\..\..\lvgl\version_6.1.2\lvgl\src\lv_core/lv_style.c **** 
 1692              		.loc 1 220 0
 1693 0512 03B0     		add	sp, sp, #12
 1694              		.cfi_def_cfa_offset 36
 1695              		@ sp needed
 1696 0514 BDE8F08F 		pop	{r4, r5, r6, r7, r8, r9, r10, fp, pc}
 1697              	.L38:
 1698              		.align	2
 1699              	.L37:
 1700 0518 00000000 		.word	lv_style_btn_ina
 1701              		.cfi_endproc
 1702              	.LFE31:
 1703              		.size	lv_style_init, .-lv_style_init
 1704              		.section	.text.lv_style_copy,"ax",%progbits
 1705              		.align	2
 1706              		.global	lv_style_copy
 1707              		.thumb
 1708              		.thumb_func
 1709              		.type	lv_style_copy, %function
 1710              	lv_style_copy:
 1711              	.LFB32:
 228:..\..\..\lvgl\version_6.1.2\lvgl\src\lv_core/lv_style.c ****     memcpy(dest, src, sizeof(lv_style_t));
 1712              		.loc 1 228 0
 1713              		.cfi_startproc
 1714              		@ args = 0, pretend = 0, frame = 0
 1715              		@ frame_needed = 0, uses_anonymous_args = 0
 1716              		@ link register save eliminated.
 1717              	.LVL56:
 229:..\..\..\lvgl\version_6.1.2\lvgl\src\lv_core/lv_style.c **** }
 1718              		.loc 1 229 0
 1719 0000 5022     		movs	r2, #80
 1720 0002 FFF7FEBF 		b	memcpy
 1721              	.LVL57:
 1722              		.cfi_endproc
 1723              	.LFE32:
 1724              		.size	lv_style_copy, .-lv_style_copy
 1725 0006 00BF     		.section	.text.lv_style_mix,"ax",%progbits
 1726              		.align	2
 1727              		.global	lv_style_mix
 1728              		.thumb
 1729              		.thumb_func
 1730              		.type	lv_style_mix, %function
 1731              	lv_style_mix:
 1732              	.LFB33:
 240:..\..\..\lvgl\version_6.1.2\lvgl\src\lv_core/lv_style.c ****     STYLE_ATTR_MIX(body.opa, ratio);
 1733              		.loc 1 240 0
ARM GAS  C:\Users\pearlstl\AppData\Local\Temp\ccvteysW.s 			page 52


 1734              		.cfi_startproc
 1735              		@ args = 0, pretend = 0, frame = 0
 1736              		@ frame_needed = 0, uses_anonymous_args = 0
 1737              	.LVL58:
 1738 0000 2DE9F047 		push	{r4, r5, r6, r7, r8, r9, r10, lr}
 1739              		.cfi_def_cfa_offset 32
 1740              		.cfi_offset 4, -32
 1741              		.cfi_offset 5, -28
 1742              		.cfi_offset 6, -24
 1743              		.cfi_offset 7, -20
 1744              		.cfi_offset 8, -16
 1745              		.cfi_offset 9, -12
 1746              		.cfi_offset 10, -8
 1747              		.cfi_offset 14, -4
 241:..\..\..\lvgl\version_6.1.2\lvgl\src\lv_core/lv_style.c ****     STYLE_ATTR_MIX(body.radius, ratio);
 1748              		.loc 1 241 0
 1749 0004 857B     		ldrb	r5, [r0, #14]	@ zero_extendqisi2
 1750 0006 8C7B     		ldrb	r4, [r1, #14]	@ zero_extendqisi2
 1751 0008 A542     		cmp	r5, r4
 1752 000a 05D0     		beq	.L41
 241:..\..\..\lvgl\version_6.1.2\lvgl\src\lv_core/lv_style.c ****     STYLE_ATTR_MIX(body.radius, ratio);
 1753              		.loc 1 241 0 is_stmt 0 discriminator 1
 1754 000c 641B     		subs	r4, r4, r5
 1755 000e 03FB04F4 		mul	r4, r3, r4
 1756 0012 05EB2424 		add	r4, r5, r4, asr #8
 1757 0016 E4B2     		uxtb	r4, r4
 1758              	.L41:
 1759 0018 9473     		strb	r4, [r2, #14]
 242:..\..\..\lvgl\version_6.1.2\lvgl\src\lv_core/lv_style.c ****     STYLE_ATTR_MIX(body.border.width, ratio);
 1760              		.loc 1 242 0 is_stmt 1
 1761 001a B0F90C40 		ldrsh	r4, [r0, #12]
 1762 001e B1F90C50 		ldrsh	r5, [r1, #12]
 1763 0022 AC42     		cmp	r4, r5
 1764 0024 05D0     		beq	.L42
 242:..\..\..\lvgl\version_6.1.2\lvgl\src\lv_core/lv_style.c ****     STYLE_ATTR_MIX(body.border.width, ratio);
 1765              		.loc 1 242 0 is_stmt 0 discriminator 1
 1766 0026 2D1B     		subs	r5, r5, r4
 1767 0028 03FB05F5 		mul	r5, r3, r5
 1768 002c 04EB2525 		add	r5, r4, r5, asr #8
 1769 0030 2DB2     		sxth	r5, r5
 1770              	.L42:
 243:..\..\..\lvgl\version_6.1.2\lvgl\src\lv_core/lv_style.c ****     STYLE_ATTR_MIX(body.border.opa, ratio);
 1771              		.loc 1 243 0 is_stmt 1
 1772 0032 B0F91460 		ldrsh	r6, [r0, #20]
 1773 0036 B1F91440 		ldrsh	r4, [r1, #20]
 1774 003a 9581     		strh	r5, [r2, #12]	@ movhi
 1775 003c A642     		cmp	r6, r4
 1776 003e 05D0     		beq	.L43
 243:..\..\..\lvgl\version_6.1.2\lvgl\src\lv_core/lv_style.c ****     STYLE_ATTR_MIX(body.border.opa, ratio);
 1777              		.loc 1 243 0 is_stmt 0 discriminator 1
 1778 0040 A41B     		subs	r4, r4, r6
 1779 0042 03FB04F4 		mul	r4, r3, r4
 1780 0046 06EB2424 		add	r4, r6, r4, asr #8
 1781 004a 24B2     		sxth	r4, r4
 1782              	.L43:
 1783 004c 9482     		strh	r4, [r2, #20]	@ movhi
 244:..\..\..\lvgl\version_6.1.2\lvgl\src\lv_core/lv_style.c ****     STYLE_ATTR_MIX(body.shadow.width, ratio);
ARM GAS  C:\Users\pearlstl\AppData\Local\Temp\ccvteysW.s 			page 53


 1784              		.loc 1 244 0 is_stmt 1
 1785 004e C57D     		ldrb	r5, [r0, #23]	@ zero_extendqisi2
 1786 0050 CC7D     		ldrb	r4, [r1, #23]	@ zero_extendqisi2
 1787 0052 A542     		cmp	r5, r4
 1788 0054 05D0     		beq	.L44
 244:..\..\..\lvgl\version_6.1.2\lvgl\src\lv_core/lv_style.c ****     STYLE_ATTR_MIX(body.shadow.width, ratio);
 1789              		.loc 1 244 0 is_stmt 0 discriminator 1
 1790 0056 641B     		subs	r4, r4, r5
 1791 0058 03FB04F4 		mul	r4, r3, r4
 1792 005c 05EB2424 		add	r4, r5, r4, asr #8
 1793 0060 E4B2     		uxtb	r4, r4
 1794              	.L44:
 1795 0062 D475     		strb	r4, [r2, #23]
 245:..\..\..\lvgl\version_6.1.2\lvgl\src\lv_core/lv_style.c ****     STYLE_ATTR_MIX(body.padding.left, ratio);
 1796              		.loc 1 245 0 is_stmt 1
 1797 0064 B0F91C40 		ldrsh	r4, [r0, #28]
 1798 0068 B1F91C50 		ldrsh	r5, [r1, #28]
 1799 006c AC42     		cmp	r4, r5
 1800 006e 05D0     		beq	.L45
 245:..\..\..\lvgl\version_6.1.2\lvgl\src\lv_core/lv_style.c ****     STYLE_ATTR_MIX(body.padding.left, ratio);
 1801              		.loc 1 245 0 is_stmt 0 discriminator 1
 1802 0070 2D1B     		subs	r5, r5, r4
 1803 0072 03FB05F5 		mul	r5, r3, r5
 1804 0076 04EB2525 		add	r5, r4, r5, asr #8
 1805 007a 2DB2     		sxth	r5, r5
 1806              	.L45:
 246:..\..\..\lvgl\version_6.1.2\lvgl\src\lv_core/lv_style.c ****     STYLE_ATTR_MIX(body.padding.right, ratio);
 1807              		.loc 1 246 0 is_stmt 1
 1808 007c B0F92460 		ldrsh	r6, [r0, #36]
 1809 0080 B1F92440 		ldrsh	r4, [r1, #36]
 1810 0084 9583     		strh	r5, [r2, #28]	@ movhi
 1811 0086 A642     		cmp	r6, r4
 1812 0088 05D0     		beq	.L46
 246:..\..\..\lvgl\version_6.1.2\lvgl\src\lv_core/lv_style.c ****     STYLE_ATTR_MIX(body.padding.right, ratio);
 1813              		.loc 1 246 0 is_stmt 0 discriminator 1
 1814 008a A41B     		subs	r4, r4, r6
 1815 008c 03FB04F4 		mul	r4, r3, r4
 1816 0090 06EB2424 		add	r4, r6, r4, asr #8
 1817 0094 24B2     		sxth	r4, r4
 1818              	.L46:
 247:..\..\..\lvgl\version_6.1.2\lvgl\src\lv_core/lv_style.c ****     STYLE_ATTR_MIX(body.padding.top, ratio);
 1819              		.loc 1 247 0 is_stmt 1
 1820 0096 B0F92660 		ldrsh	r6, [r0, #38]
 1821 009a B1F92650 		ldrsh	r5, [r1, #38]
 1822 009e 9484     		strh	r4, [r2, #36]	@ movhi
 1823 00a0 AE42     		cmp	r6, r5
 1824 00a2 05D0     		beq	.L47
 247:..\..\..\lvgl\version_6.1.2\lvgl\src\lv_core/lv_style.c ****     STYLE_ATTR_MIX(body.padding.top, ratio);
 1825              		.loc 1 247 0 is_stmt 0 discriminator 1
 1826 00a4 AD1B     		subs	r5, r5, r6
 1827 00a6 03FB05F5 		mul	r5, r3, r5
 1828 00aa 06EB2525 		add	r5, r6, r5, asr #8
 1829 00ae 2DB2     		sxth	r5, r5
 1830              	.L47:
 248:..\..\..\lvgl\version_6.1.2\lvgl\src\lv_core/lv_style.c ****     STYLE_ATTR_MIX(body.padding.bottom, ratio);
 1831              		.loc 1 248 0 is_stmt 1
 1832 00b0 B0F92060 		ldrsh	r6, [r0, #32]
ARM GAS  C:\Users\pearlstl\AppData\Local\Temp\ccvteysW.s 			page 54


 1833 00b4 B1F92040 		ldrsh	r4, [r1, #32]
 1834 00b8 D584     		strh	r5, [r2, #38]	@ movhi
 1835 00ba A642     		cmp	r6, r4
 1836 00bc 05D0     		beq	.L48
 248:..\..\..\lvgl\version_6.1.2\lvgl\src\lv_core/lv_style.c ****     STYLE_ATTR_MIX(body.padding.bottom, ratio);
 1837              		.loc 1 248 0 is_stmt 0 discriminator 1
 1838 00be A41B     		subs	r4, r4, r6
 1839 00c0 03FB04F4 		mul	r4, r3, r4
 1840 00c4 06EB2424 		add	r4, r6, r4, asr #8
 1841 00c8 24B2     		sxth	r4, r4
 1842              	.L48:
 249:..\..\..\lvgl\version_6.1.2\lvgl\src\lv_core/lv_style.c ****     STYLE_ATTR_MIX(body.padding.inner, ratio);
 1843              		.loc 1 249 0 is_stmt 1
 1844 00ca B0F92260 		ldrsh	r6, [r0, #34]
 1845 00ce B1F92250 		ldrsh	r5, [r1, #34]
 1846 00d2 1484     		strh	r4, [r2, #32]	@ movhi
 1847 00d4 AE42     		cmp	r6, r5
 1848 00d6 05D0     		beq	.L49
 249:..\..\..\lvgl\version_6.1.2\lvgl\src\lv_core/lv_style.c ****     STYLE_ATTR_MIX(body.padding.inner, ratio);
 1849              		.loc 1 249 0 is_stmt 0 discriminator 1
 1850 00d8 AD1B     		subs	r5, r5, r6
 1851 00da 03FB05F5 		mul	r5, r3, r5
 1852 00de 06EB2525 		add	r5, r6, r5, asr #8
 1853 00e2 2DB2     		sxth	r5, r5
 1854              	.L49:
 250:..\..\..\lvgl\version_6.1.2\lvgl\src\lv_core/lv_style.c ****     STYLE_ATTR_MIX(text.line_space, ratio);
 1855              		.loc 1 250 0 is_stmt 1
 1856 00e4 B0F92860 		ldrsh	r6, [r0, #40]
 1857 00e8 B1F92840 		ldrsh	r4, [r1, #40]
 1858 00ec 5584     		strh	r5, [r2, #34]	@ movhi
 1859 00ee A642     		cmp	r6, r4
 1860 00f0 05D0     		beq	.L50
 250:..\..\..\lvgl\version_6.1.2\lvgl\src\lv_core/lv_style.c ****     STYLE_ATTR_MIX(text.line_space, ratio);
 1861              		.loc 1 250 0 is_stmt 0 discriminator 1
 1862 00f2 A41B     		subs	r4, r4, r6
 1863 00f4 03FB04F4 		mul	r4, r3, r4
 1864 00f8 06EB2424 		add	r4, r6, r4, asr #8
 1865 00fc 24B2     		sxth	r4, r4
 1866              	.L50:
 251:..\..\..\lvgl\version_6.1.2\lvgl\src\lv_core/lv_style.c ****     STYLE_ATTR_MIX(text.letter_space, ratio);
 1867              		.loc 1 251 0 is_stmt 1
 1868 00fe B0F93A60 		ldrsh	r6, [r0, #58]
 1869 0102 B1F93A50 		ldrsh	r5, [r1, #58]
 1870 0106 1485     		strh	r4, [r2, #40]	@ movhi
 1871 0108 AE42     		cmp	r6, r5
 1872 010a 05D0     		beq	.L51
 251:..\..\..\lvgl\version_6.1.2\lvgl\src\lv_core/lv_style.c ****     STYLE_ATTR_MIX(text.letter_space, ratio);
 1873              		.loc 1 251 0 is_stmt 0 discriminator 1
 1874 010c AD1B     		subs	r5, r5, r6
 1875 010e 03FB05F5 		mul	r5, r3, r5
 1876 0112 06EB2525 		add	r5, r6, r5, asr #8
 1877 0116 2DB2     		sxth	r5, r5
 1878              	.L51:
 252:..\..\..\lvgl\version_6.1.2\lvgl\src\lv_core/lv_style.c ****     STYLE_ATTR_MIX(text.opa, ratio);
 1879              		.loc 1 252 0 is_stmt 1
 1880 0118 B0F93860 		ldrsh	r6, [r0, #56]
 1881 011c B1F93840 		ldrsh	r4, [r1, #56]
ARM GAS  C:\Users\pearlstl\AppData\Local\Temp\ccvteysW.s 			page 55


 1882 0120 5587     		strh	r5, [r2, #58]	@ movhi
 1883 0122 A642     		cmp	r6, r4
 1884 0124 05D0     		beq	.L52
 252:..\..\..\lvgl\version_6.1.2\lvgl\src\lv_core/lv_style.c ****     STYLE_ATTR_MIX(text.opa, ratio);
 1885              		.loc 1 252 0 is_stmt 0 discriminator 1
 1886 0126 A41B     		subs	r4, r4, r6
 1887 0128 03FB04F4 		mul	r4, r3, r4
 1888 012c 06EB2424 		add	r4, r6, r4, asr #8
 1889 0130 24B2     		sxth	r4, r4
 1890              	.L52:
 1891 0132 1487     		strh	r4, [r2, #56]	@ movhi
 253:..\..\..\lvgl\version_6.1.2\lvgl\src\lv_core/lv_style.c ****     STYLE_ATTR_MIX(line.width, ratio);
 1892              		.loc 1 253 0 is_stmt 1
 1893 0134 90F83C50 		ldrb	r5, [r0, #60]	@ zero_extendqisi2
 1894 0138 91F83C40 		ldrb	r4, [r1, #60]	@ zero_extendqisi2
 1895 013c A542     		cmp	r5, r4
 1896 013e 05D0     		beq	.L53
 253:..\..\..\lvgl\version_6.1.2\lvgl\src\lv_core/lv_style.c ****     STYLE_ATTR_MIX(line.width, ratio);
 1897              		.loc 1 253 0 is_stmt 0 discriminator 1
 1898 0140 641B     		subs	r4, r4, r5
 1899 0142 03FB04F4 		mul	r4, r3, r4
 1900 0146 05EB2424 		add	r4, r5, r4, asr #8
 1901 014a E4B2     		uxtb	r4, r4
 1902              	.L53:
 1903 014c 82F83C40 		strb	r4, [r2, #60]
 254:..\..\..\lvgl\version_6.1.2\lvgl\src\lv_core/lv_style.c ****     STYLE_ATTR_MIX(line.opa, ratio);
 1904              		.loc 1 254 0 is_stmt 1
 1905 0150 B0F94C50 		ldrsh	r5, [r0, #76]
 1906 0154 B1F94C40 		ldrsh	r4, [r1, #76]
 1907 0158 A542     		cmp	r5, r4
 1908 015a 05D0     		beq	.L54
 254:..\..\..\lvgl\version_6.1.2\lvgl\src\lv_core/lv_style.c ****     STYLE_ATTR_MIX(line.opa, ratio);
 1909              		.loc 1 254 0 is_stmt 0 discriminator 1
 1910 015c 641B     		subs	r4, r4, r5
 1911 015e 03FB04F4 		mul	r4, r3, r4
 1912 0162 05EB2424 		add	r4, r5, r4, asr #8
 1913 0166 24B2     		sxth	r4, r4
 1914              	.L54:
 1915 0168 A2F84C40 		strh	r4, [r2, #76]	@ movhi
 255:..\..\..\lvgl\version_6.1.2\lvgl\src\lv_core/lv_style.c ****     STYLE_ATTR_MIX(image.intense, ratio);
 1916              		.loc 1 255 0 is_stmt 1
 1917 016c 90F84E50 		ldrb	r5, [r0, #78]	@ zero_extendqisi2
 1918 0170 91F84E40 		ldrb	r4, [r1, #78]	@ zero_extendqisi2
 1919 0174 A542     		cmp	r5, r4
 1920 0176 05D0     		beq	.L55
 255:..\..\..\lvgl\version_6.1.2\lvgl\src\lv_core/lv_style.c ****     STYLE_ATTR_MIX(image.intense, ratio);
 1921              		.loc 1 255 0 is_stmt 0 discriminator 1
 1922 0178 641B     		subs	r4, r4, r5
 1923 017a 03FB04F4 		mul	r4, r3, r4
 1924 017e 05EB2424 		add	r4, r5, r4, asr #8
 1925 0182 E4B2     		uxtb	r4, r4
 1926              	.L55:
 1927 0184 82F84E40 		strb	r4, [r2, #78]
 256:..\..\..\lvgl\version_6.1.2\lvgl\src\lv_core/lv_style.c ****     STYLE_ATTR_MIX(image.opa, ratio);
 1928              		.loc 1 256 0 is_stmt 1
 1929 0188 90F84450 		ldrb	r5, [r0, #68]	@ zero_extendqisi2
 1930 018c 91F84440 		ldrb	r4, [r1, #68]	@ zero_extendqisi2
ARM GAS  C:\Users\pearlstl\AppData\Local\Temp\ccvteysW.s 			page 56


 1931 0190 A542     		cmp	r5, r4
 1932 0192 05D0     		beq	.L56
 256:..\..\..\lvgl\version_6.1.2\lvgl\src\lv_core/lv_style.c ****     STYLE_ATTR_MIX(image.opa, ratio);
 1933              		.loc 1 256 0 is_stmt 0 discriminator 1
 1934 0194 641B     		subs	r4, r4, r5
 1935 0196 03FB04F4 		mul	r4, r3, r4
 1936 019a 05EB2424 		add	r4, r5, r4, asr #8
 1937 019e E4B2     		uxtb	r4, r4
 1938              	.L56:
 1939 01a0 82F84440 		strb	r4, [r2, #68]
 257:..\..\..\lvgl\version_6.1.2\lvgl\src\lv_core/lv_style.c **** 
 1940              		.loc 1 257 0 is_stmt 1
 1941 01a4 90F84550 		ldrb	r5, [r0, #69]	@ zero_extendqisi2
 1942 01a8 91F84540 		ldrb	r4, [r1, #69]	@ zero_extendqisi2
 1943 01ac A542     		cmp	r5, r4
 1944 01ae 05D0     		beq	.L57
 257:..\..\..\lvgl\version_6.1.2\lvgl\src\lv_core/lv_style.c **** 
 1945              		.loc 1 257 0 is_stmt 0 discriminator 1
 1946 01b0 641B     		subs	r4, r4, r5
 1947 01b2 03FB04F4 		mul	r4, r3, r4
 1948 01b6 05EB2424 		add	r4, r5, r4, asr #8
 1949 01ba E4B2     		uxtb	r4, r4
 1950              	.L57:
 259:..\..\..\lvgl\version_6.1.2\lvgl\src\lv_core/lv_style.c **** 
 1951              		.loc 1 259 0 is_stmt 1
 1952 01bc B3F5807F 		cmp	r3, #256
 1953 01c0 82F84540 		strb	r4, [r2, #69]
 1954 01c4 00F02F81 		beq	.L61
 1955 01c8 DCB2     		uxtb	r4, r3
 1956 01ca C4F1FF05 		rsb	r5, r4, #255
 1957 01ce ADB2     		uxth	r5, r5
 1958 01d0 A4B2     		uxth	r4, r4
 1959              	.L58:
 1960              	.LBB314:
 1961              	.LBB315:
 437:..\..\..\lvgl\version_6.1.2\lvgl\src\lv_core\../lv_misc/lv_color.h ****     LV_COLOR_SET_G(ret, (uint16_t)((uint16_t) LV_COLOR_GET_G(c1) * mix + LV_COLOR_GET_G(c2) * (255 
 1962              		.loc 2 437 0 discriminator 4
 1963 01d2 90F80680 		ldrb	r8, [r0, #6]	@ zero_extendqisi2
 1964              		.loc 2 438 0 discriminator 4
 1965 01d6 90F805E0 		ldrb	lr, [r0, #5]	@ zero_extendqisi2
 1966              	.LBE315:
 1967              	.LBE314:
 261:..\..\..\lvgl\version_6.1.2\lvgl\src\lv_core/lv_style.c ****     res->body.grad_color   = lv_color_mix(end->body.grad_color, start->body.grad_color, opa);
 1968              		.loc 1 261 0 discriminator 4
 1969 01da 0779     		ldrb	r7, [r0, #4]	@ zero_extendqisi2
 1970              	.LBB321:
 1971              	.LBB316:
 437:..\..\..\lvgl\version_6.1.2\lvgl\src\lv_core\../lv_misc/lv_color.h ****     LV_COLOR_SET_G(ret, (uint16_t)((uint16_t) LV_COLOR_GET_G(c1) * mix + LV_COLOR_GET_G(c2) * (255 
 1972              		.loc 2 437 0 discriminator 4
 1973 01dc 91F80690 		ldrb	r9, [r1, #6]	@ zero_extendqisi2
 1974              		.loc 2 438 0 discriminator 4
 1975 01e0 91F805C0 		ldrb	ip, [r1, #5]	@ zero_extendqisi2
 1976              	.LBE316:
 1977              	.LBE321:
 261:..\..\..\lvgl\version_6.1.2\lvgl\src\lv_core/lv_style.c ****     res->body.grad_color   = lv_color_mix(end->body.grad_color, start->body.grad_color, opa);
 1978              		.loc 1 261 0 discriminator 4
 1979 01e4 0E79     		ldrb	r6, [r1, #4]	@ zero_extendqisi2
ARM GAS  C:\Users\pearlstl\AppData\Local\Temp\ccvteysW.s 			page 57


 1980              	.LBB322:
 1981              	.LBB317:
 437:..\..\..\lvgl\version_6.1.2\lvgl\src\lv_core\../lv_misc/lv_color.h ****     LV_COLOR_SET_G(ret, (uint16_t)((uint16_t) LV_COLOR_GET_G(c1) * mix + LV_COLOR_GET_G(c2) * (255 
 1982              		.loc 2 437 0 discriminator 4
 1983 01e6 18FB05F8 		smulbb	r8, r8, r5
 1984              		.loc 2 438 0 discriminator 4
 1985 01ea 1EFB05FE 		smulbb	lr, lr, r5
 1986              	.LBE317:
 1987              	.LBE322:
 261:..\..\..\lvgl\version_6.1.2\lvgl\src\lv_core/lv_style.c ****     res->body.grad_color   = lv_color_mix(end->body.grad_color, start->body.grad_color, opa);
 1988              		.loc 1 261 0 discriminator 4
 1989 01ee 17FB05F7 		smulbb	r7, r7, r5
 1990              	.LBB323:
 1991              	.LBB318:
 437:..\..\..\lvgl\version_6.1.2\lvgl\src\lv_core\../lv_misc/lv_color.h ****     LV_COLOR_SET_G(ret, (uint16_t)((uint16_t) LV_COLOR_GET_G(c1) * mix + LV_COLOR_GET_G(c2) * (255 
 1992              		.loc 2 437 0 discriminator 4
 1993 01f2 09FB0488 		mla	r8, r9, r4, r8
 1994              		.loc 2 438 0 discriminator 4
 1995 01f6 0CFB04EE 		mla	lr, ip, r4, lr
 1996              	.LBE318:
 1997              	.LBE323:
 261:..\..\..\lvgl\version_6.1.2\lvgl\src\lv_core/lv_style.c ****     res->body.grad_color   = lv_color_mix(end->body.grad_color, start->body.grad_color, opa);
 1998              		.loc 1 261 0 discriminator 4
 1999 01fa 06FB0477 		mla	r7, r6, r4, r7
 2000              	.LBB324:
 2001              	.LBB319:
 437:..\..\..\lvgl\version_6.1.2\lvgl\src\lv_core\../lv_misc/lv_color.h ****     LV_COLOR_SET_G(ret, (uint16_t)((uint16_t) LV_COLOR_GET_G(c1) * mix + LV_COLOR_GET_G(c2) * (255 
 2002              		.loc 2 437 0 discriminator 4
 2003 01fe C8F3072C 		ubfx	ip, r8, #8, #8
 2004              	.LVL59:
 2005              	.LBE319:
 2006              	.LBE324:
 261:..\..\..\lvgl\version_6.1.2\lvgl\src\lv_core/lv_style.c ****     res->body.grad_color   = lv_color_mix(end->body.grad_color, start->body.grad_color, opa);
 2007              		.loc 1 261 0 discriminator 4
 2008 0202 FF26     		movs	r6, #255
 2009              	.LBB325:
 2010              	.LBB320:
 2011              		.loc 2 438 0 discriminator 4
 2012 0204 CEF3072E 		ubfx	lr, lr, #8, #8
 2013              	.LVL60:
 2014              	.LBE320:
 2015              	.LBE325:
 261:..\..\..\lvgl\version_6.1.2\lvgl\src\lv_core/lv_style.c ****     res->body.grad_color   = lv_color_mix(end->body.grad_color, start->body.grad_color, opa);
 2016              		.loc 1 261 0 discriminator 4
 2017 0208 C7F30727 		ubfx	r7, r7, #8, #8
 2018 020c D671     		strb	r6, [r2, #7]
 2019 020e 82F806C0 		strb	ip, [r2, #6]
 2020 0212 82F805E0 		strb	lr, [r2, #5]
 2021 0216 1771     		strb	r7, [r2, #4]
 2022              	.LBB326:
 2023              	.LBB327:
 437:..\..\..\lvgl\version_6.1.2\lvgl\src\lv_core\../lv_misc/lv_color.h ****     LV_COLOR_SET_G(ret, (uint16_t)((uint16_t) LV_COLOR_GET_G(c1) * mix + LV_COLOR_GET_G(c2) * (255 
 2024              		.loc 2 437 0 discriminator 4
 2025 0218 90F80A90 		ldrb	r9, [r0, #10]	@ zero_extendqisi2
 2026              		.loc 2 438 0 discriminator 4
 2027 021c 90F809C0 		ldrb	ip, [r0, #9]	@ zero_extendqisi2
 2028              	.LBE327:
ARM GAS  C:\Users\pearlstl\AppData\Local\Temp\ccvteysW.s 			page 58


 2029              	.LBE326:
 262:..\..\..\lvgl\version_6.1.2\lvgl\src\lv_core/lv_style.c ****     res->body.border.color = lv_color_mix(end->body.border.color, start->body.border.color, opa);
 2030              		.loc 1 262 0 discriminator 4
 2031 0220 077A     		ldrb	r7, [r0, #8]	@ zero_extendqisi2
 2032              	.LBB332:
 2033              	.LBB328:
 437:..\..\..\lvgl\version_6.1.2\lvgl\src\lv_core\../lv_misc/lv_color.h ****     LV_COLOR_SET_G(ret, (uint16_t)((uint16_t) LV_COLOR_GET_G(c1) * mix + LV_COLOR_GET_G(c2) * (255 
 2034              		.loc 2 437 0 discriminator 4
 2035 0222 91F80AA0 		ldrb	r10, [r1, #10]	@ zero_extendqisi2
 2036              		.loc 2 438 0 discriminator 4
 2037 0226 91F80980 		ldrb	r8, [r1, #9]	@ zero_extendqisi2
 2038              	.LBE328:
 2039              	.LBE332:
 262:..\..\..\lvgl\version_6.1.2\lvgl\src\lv_core/lv_style.c ****     res->body.border.color = lv_color_mix(end->body.border.color, start->body.border.color, opa);
 2040              		.loc 1 262 0 discriminator 4
 2041 022a 91F808E0 		ldrb	lr, [r1, #8]	@ zero_extendqisi2
 2042 022e D672     		strb	r6, [r2, #11]
 2043              	.LBB333:
 2044              	.LBB329:
 437:..\..\..\lvgl\version_6.1.2\lvgl\src\lv_core\../lv_misc/lv_color.h ****     LV_COLOR_SET_G(ret, (uint16_t)((uint16_t) LV_COLOR_GET_G(c1) * mix + LV_COLOR_GET_G(c2) * (255 
 2045              		.loc 2 437 0 discriminator 4
 2046 0230 19FB05F9 		smulbb	r9, r9, r5
 2047              		.loc 2 438 0 discriminator 4
 2048 0234 1CFB05FC 		smulbb	ip, ip, r5
 2049              	.LBE329:
 2050              	.LBE333:
 262:..\..\..\lvgl\version_6.1.2\lvgl\src\lv_core/lv_style.c ****     res->body.border.color = lv_color_mix(end->body.border.color, start->body.border.color, opa);
 2051              		.loc 1 262 0 discriminator 4
 2052 0238 17FB05F7 		smulbb	r7, r7, r5
 2053              	.LBB334:
 2054              	.LBB330:
 437:..\..\..\lvgl\version_6.1.2\lvgl\src\lv_core\../lv_misc/lv_color.h ****     LV_COLOR_SET_G(ret, (uint16_t)((uint16_t) LV_COLOR_GET_G(c1) * mix + LV_COLOR_GET_G(c2) * (255 
 2055              		.loc 2 437 0 discriminator 4
 2056 023c 0AFB0499 		mla	r9, r10, r4, r9
 2057              		.loc 2 438 0 discriminator 4
 2058 0240 08FB04CC 		mla	ip, r8, r4, ip
 2059              	.LBE330:
 2060              	.LBE334:
 262:..\..\..\lvgl\version_6.1.2\lvgl\src\lv_core/lv_style.c ****     res->body.border.color = lv_color_mix(end->body.border.color, start->body.border.color, opa);
 2061              		.loc 1 262 0 discriminator 4
 2062 0244 0EFB0477 		mla	r7, lr, r4, r7
 2063              	.LBB335:
 2064              	.LBB331:
 437:..\..\..\lvgl\version_6.1.2\lvgl\src\lv_core\../lv_misc/lv_color.h ****     LV_COLOR_SET_G(ret, (uint16_t)((uint16_t) LV_COLOR_GET_G(c1) * mix + LV_COLOR_GET_G(c2) * (255 
 2065              		.loc 2 437 0 discriminator 4
 2066 0248 C9F30728 		ubfx	r8, r9, #8, #8
 2067              	.LVL61:
 2068              		.loc 2 438 0 discriminator 4
 2069 024c CCF3072E 		ubfx	lr, ip, #8, #8
 2070              	.LVL62:
 2071              	.LBE331:
 2072              	.LBE335:
 262:..\..\..\lvgl\version_6.1.2\lvgl\src\lv_core/lv_style.c ****     res->body.border.color = lv_color_mix(end->body.border.color, start->body.border.color, opa);
 2073              		.loc 1 262 0 discriminator 4
 2074 0250 C7F30727 		ubfx	r7, r7, #8, #8
 2075 0254 82F80A80 		strb	r8, [r2, #10]
 2076 0258 82F809E0 		strb	lr, [r2, #9]
ARM GAS  C:\Users\pearlstl\AppData\Local\Temp\ccvteysW.s 			page 59


 2077 025c 1772     		strb	r7, [r2, #8]
 2078              	.LBB336:
 2079              	.LBB337:
 437:..\..\..\lvgl\version_6.1.2\lvgl\src\lv_core\../lv_misc/lv_color.h ****     LV_COLOR_SET_G(ret, (uint16_t)((uint16_t) LV_COLOR_GET_G(c1) * mix + LV_COLOR_GET_G(c2) * (255 
 2080              		.loc 2 437 0 discriminator 4
 2081 025e 90F81290 		ldrb	r9, [r0, #18]	@ zero_extendqisi2
 2082              		.loc 2 438 0 discriminator 4
 2083 0262 90F811C0 		ldrb	ip, [r0, #17]	@ zero_extendqisi2
 2084              	.LBE337:
 2085              	.LBE336:
 263:..\..\..\lvgl\version_6.1.2\lvgl\src\lv_core/lv_style.c ****     res->body.shadow.color = lv_color_mix(end->body.shadow.color, start->body.shadow.color, opa);
 2086              		.loc 1 263 0 discriminator 4
 2087 0266 077C     		ldrb	r7, [r0, #16]	@ zero_extendqisi2
 2088              	.LBB342:
 2089              	.LBB338:
 437:..\..\..\lvgl\version_6.1.2\lvgl\src\lv_core\../lv_misc/lv_color.h ****     LV_COLOR_SET_G(ret, (uint16_t)((uint16_t) LV_COLOR_GET_G(c1) * mix + LV_COLOR_GET_G(c2) * (255 
 2090              		.loc 2 437 0 discriminator 4
 2091 0268 91F812A0 		ldrb	r10, [r1, #18]	@ zero_extendqisi2
 2092              		.loc 2 438 0 discriminator 4
 2093 026c 91F81180 		ldrb	r8, [r1, #17]	@ zero_extendqisi2
 2094              	.LBE338:
 2095              	.LBE342:
 263:..\..\..\lvgl\version_6.1.2\lvgl\src\lv_core/lv_style.c ****     res->body.shadow.color = lv_color_mix(end->body.shadow.color, start->body.shadow.color, opa);
 2096              		.loc 1 263 0 discriminator 4
 2097 0270 91F810E0 		ldrb	lr, [r1, #16]	@ zero_extendqisi2
 2098 0274 D674     		strb	r6, [r2, #19]
 2099              	.LBB343:
 2100              	.LBB339:
 437:..\..\..\lvgl\version_6.1.2\lvgl\src\lv_core\../lv_misc/lv_color.h ****     LV_COLOR_SET_G(ret, (uint16_t)((uint16_t) LV_COLOR_GET_G(c1) * mix + LV_COLOR_GET_G(c2) * (255 
 2101              		.loc 2 437 0 discriminator 4
 2102 0276 19FB05F9 		smulbb	r9, r9, r5
 2103              		.loc 2 438 0 discriminator 4
 2104 027a 1CFB05FC 		smulbb	ip, ip, r5
 2105              	.LBE339:
 2106              	.LBE343:
 263:..\..\..\lvgl\version_6.1.2\lvgl\src\lv_core/lv_style.c ****     res->body.shadow.color = lv_color_mix(end->body.shadow.color, start->body.shadow.color, opa);
 2107              		.loc 1 263 0 discriminator 4
 2108 027e 17FB05F7 		smulbb	r7, r7, r5
 2109              	.LBB344:
 2110              	.LBB340:
 437:..\..\..\lvgl\version_6.1.2\lvgl\src\lv_core\../lv_misc/lv_color.h ****     LV_COLOR_SET_G(ret, (uint16_t)((uint16_t) LV_COLOR_GET_G(c1) * mix + LV_COLOR_GET_G(c2) * (255 
 2111              		.loc 2 437 0 discriminator 4
 2112 0282 0AFB0499 		mla	r9, r10, r4, r9
 2113              		.loc 2 438 0 discriminator 4
 2114 0286 08FB04CC 		mla	ip, r8, r4, ip
 2115              	.LBE340:
 2116              	.LBE344:
 263:..\..\..\lvgl\version_6.1.2\lvgl\src\lv_core/lv_style.c ****     res->body.shadow.color = lv_color_mix(end->body.shadow.color, start->body.shadow.color, opa);
 2117              		.loc 1 263 0 discriminator 4
 2118 028a 0EFB0477 		mla	r7, lr, r4, r7
 2119              	.LBB345:
 2120              	.LBB341:
 437:..\..\..\lvgl\version_6.1.2\lvgl\src\lv_core\../lv_misc/lv_color.h ****     LV_COLOR_SET_G(ret, (uint16_t)((uint16_t) LV_COLOR_GET_G(c1) * mix + LV_COLOR_GET_G(c2) * (255 
 2121              		.loc 2 437 0 discriminator 4
 2122 028e C9F30728 		ubfx	r8, r9, #8, #8
 2123              	.LVL63:
 2124              		.loc 2 438 0 discriminator 4
ARM GAS  C:\Users\pearlstl\AppData\Local\Temp\ccvteysW.s 			page 60


 2125 0292 CCF3072E 		ubfx	lr, ip, #8, #8
 2126              	.LVL64:
 2127              	.LBE341:
 2128              	.LBE345:
 263:..\..\..\lvgl\version_6.1.2\lvgl\src\lv_core/lv_style.c ****     res->body.shadow.color = lv_color_mix(end->body.shadow.color, start->body.shadow.color, opa);
 2129              		.loc 1 263 0 discriminator 4
 2130 0296 C7F30727 		ubfx	r7, r7, #8, #8
 2131 029a 82F811E0 		strb	lr, [r2, #17]
 2132 029e 1774     		strb	r7, [r2, #16]
 2133 02a0 82F81280 		strb	r8, [r2, #18]
 2134              	.LBB346:
 2135              	.LBB347:
 437:..\..\..\lvgl\version_6.1.2\lvgl\src\lv_core\../lv_misc/lv_color.h ****     LV_COLOR_SET_G(ret, (uint16_t)((uint16_t) LV_COLOR_GET_G(c1) * mix + LV_COLOR_GET_G(c2) * (255 
 2136              		.loc 2 437 0 discriminator 4
 2137 02a4 91F81AA0 		ldrb	r10, [r1, #26]	@ zero_extendqisi2
 2138 02a8 90F81A90 		ldrb	r9, [r0, #26]	@ zero_extendqisi2
 2139              		.loc 2 438 0 discriminator 4
 2140 02ac 91F81980 		ldrb	r8, [r1, #25]	@ zero_extendqisi2
 2141 02b0 90F819C0 		ldrb	ip, [r0, #25]	@ zero_extendqisi2
 2142              	.LBE347:
 2143              	.LBE346:
 264:..\..\..\lvgl\version_6.1.2\lvgl\src\lv_core/lv_style.c ****     res->text.color        = lv_color_mix(end->text.color, start->text.color, opa);
 2144              		.loc 1 264 0 discriminator 4
 2145 02b4 077E     		ldrb	r7, [r0, #24]	@ zero_extendqisi2
 2146 02b6 91F818E0 		ldrb	lr, [r1, #24]	@ zero_extendqisi2
 2147 02ba D676     		strb	r6, [r2, #27]
 2148              	.LBB351:
 2149              	.LBB348:
 437:..\..\..\lvgl\version_6.1.2\lvgl\src\lv_core\../lv_misc/lv_color.h ****     LV_COLOR_SET_G(ret, (uint16_t)((uint16_t) LV_COLOR_GET_G(c1) * mix + LV_COLOR_GET_G(c2) * (255 
 2150              		.loc 2 437 0 discriminator 4
 2151 02bc 19FB05F9 		smulbb	r9, r9, r5
 2152              		.loc 2 438 0 discriminator 4
 2153 02c0 1CFB05FC 		smulbb	ip, ip, r5
 2154              	.LBE348:
 2155              	.LBE351:
 264:..\..\..\lvgl\version_6.1.2\lvgl\src\lv_core/lv_style.c ****     res->text.color        = lv_color_mix(end->text.color, start->text.color, opa);
 2156              		.loc 1 264 0 discriminator 4
 2157 02c4 17FB05F7 		smulbb	r7, r7, r5
 2158              	.LBB352:
 2159              	.LBB349:
 437:..\..\..\lvgl\version_6.1.2\lvgl\src\lv_core\../lv_misc/lv_color.h ****     LV_COLOR_SET_G(ret, (uint16_t)((uint16_t) LV_COLOR_GET_G(c1) * mix + LV_COLOR_GET_G(c2) * (255 
 2160              		.loc 2 437 0 discriminator 4
 2161 02c8 0AFB0499 		mla	r9, r10, r4, r9
 2162              		.loc 2 438 0 discriminator 4
 2163 02cc 08FB04CC 		mla	ip, r8, r4, ip
 2164              	.LBE349:
 2165              	.LBE352:
 264:..\..\..\lvgl\version_6.1.2\lvgl\src\lv_core/lv_style.c ****     res->text.color        = lv_color_mix(end->text.color, start->text.color, opa);
 2166              		.loc 1 264 0 discriminator 4
 2167 02d0 0EFB0477 		mla	r7, lr, r4, r7
 2168              	.LBB353:
 2169              	.LBB350:
 437:..\..\..\lvgl\version_6.1.2\lvgl\src\lv_core\../lv_misc/lv_color.h ****     LV_COLOR_SET_G(ret, (uint16_t)((uint16_t) LV_COLOR_GET_G(c1) * mix + LV_COLOR_GET_G(c2) * (255 
 2170              		.loc 2 437 0 discriminator 4
 2171 02d4 C9F30728 		ubfx	r8, r9, #8, #8
 2172              	.LVL65:
 2173              		.loc 2 438 0 discriminator 4
ARM GAS  C:\Users\pearlstl\AppData\Local\Temp\ccvteysW.s 			page 61


 2174 02d8 CCF3072E 		ubfx	lr, ip, #8, #8
 2175              	.LVL66:
 2176              	.LBE350:
 2177              	.LBE353:
 264:..\..\..\lvgl\version_6.1.2\lvgl\src\lv_core/lv_style.c ****     res->text.color        = lv_color_mix(end->text.color, start->text.color, opa);
 2178              		.loc 1 264 0 discriminator 4
 2179 02dc C7F30727 		ubfx	r7, r7, #8, #8
 2180 02e0 82F81A80 		strb	r8, [r2, #26]
 2181 02e4 82F819E0 		strb	lr, [r2, #25]
 2182 02e8 1776     		strb	r7, [r2, #24]
 2183              	.LBB354:
 2184              	.LBB355:
 437:..\..\..\lvgl\version_6.1.2\lvgl\src\lv_core\../lv_misc/lv_color.h ****     LV_COLOR_SET_G(ret, (uint16_t)((uint16_t) LV_COLOR_GET_G(c1) * mix + LV_COLOR_GET_G(c2) * (255 
 2185              		.loc 2 437 0 discriminator 4
 2186 02ea 90F82E90 		ldrb	r9, [r0, #46]	@ zero_extendqisi2
 2187              		.loc 2 438 0 discriminator 4
 2188 02ee 90F82DC0 		ldrb	ip, [r0, #45]	@ zero_extendqisi2
 2189              	.LBE355:
 2190              	.LBE354:
 265:..\..\..\lvgl\version_6.1.2\lvgl\src\lv_core/lv_style.c ****     res->image.color       = lv_color_mix(end->image.color, start->image.color, opa);
 2191              		.loc 1 265 0 discriminator 4
 2192 02f2 90F82C70 		ldrb	r7, [r0, #44]	@ zero_extendqisi2
 2193              	.LBB360:
 2194              	.LBB356:
 437:..\..\..\lvgl\version_6.1.2\lvgl\src\lv_core\../lv_misc/lv_color.h ****     LV_COLOR_SET_G(ret, (uint16_t)((uint16_t) LV_COLOR_GET_G(c1) * mix + LV_COLOR_GET_G(c2) * (255 
 2195              		.loc 2 437 0 discriminator 4
 2196 02f6 91F82EA0 		ldrb	r10, [r1, #46]	@ zero_extendqisi2
 2197              		.loc 2 438 0 discriminator 4
 2198 02fa 91F82D80 		ldrb	r8, [r1, #45]	@ zero_extendqisi2
 2199              	.LBE356:
 2200              	.LBE360:
 265:..\..\..\lvgl\version_6.1.2\lvgl\src\lv_core/lv_style.c ****     res->image.color       = lv_color_mix(end->image.color, start->image.color, opa);
 2201              		.loc 1 265 0 discriminator 4
 2202 02fe 91F82CE0 		ldrb	lr, [r1, #44]	@ zero_extendqisi2
 2203 0302 82F82F60 		strb	r6, [r2, #47]
 2204              	.LBB361:
 2205              	.LBB357:
 437:..\..\..\lvgl\version_6.1.2\lvgl\src\lv_core\../lv_misc/lv_color.h ****     LV_COLOR_SET_G(ret, (uint16_t)((uint16_t) LV_COLOR_GET_G(c1) * mix + LV_COLOR_GET_G(c2) * (255 
 2206              		.loc 2 437 0 discriminator 4
 2207 0306 19FB05F9 		smulbb	r9, r9, r5
 2208              		.loc 2 438 0 discriminator 4
 2209 030a 1CFB05FC 		smulbb	ip, ip, r5
 2210              	.LBE357:
 2211              	.LBE361:
 265:..\..\..\lvgl\version_6.1.2\lvgl\src\lv_core/lv_style.c ****     res->image.color       = lv_color_mix(end->image.color, start->image.color, opa);
 2212              		.loc 1 265 0 discriminator 4
 2213 030e 17FB05F7 		smulbb	r7, r7, r5
 2214              	.LBB362:
 2215              	.LBB358:
 437:..\..\..\lvgl\version_6.1.2\lvgl\src\lv_core\../lv_misc/lv_color.h ****     LV_COLOR_SET_G(ret, (uint16_t)((uint16_t) LV_COLOR_GET_G(c1) * mix + LV_COLOR_GET_G(c2) * (255 
 2216              		.loc 2 437 0 discriminator 4
 2217 0312 0AFB0499 		mla	r9, r10, r4, r9
 2218              		.loc 2 438 0 discriminator 4
 2219 0316 08FB04CC 		mla	ip, r8, r4, ip
 2220              	.LBE358:
 2221              	.LBE362:
 265:..\..\..\lvgl\version_6.1.2\lvgl\src\lv_core/lv_style.c ****     res->image.color       = lv_color_mix(end->image.color, start->image.color, opa);
ARM GAS  C:\Users\pearlstl\AppData\Local\Temp\ccvteysW.s 			page 62


 2222              		.loc 1 265 0 discriminator 4
 2223 031a 0EFB0477 		mla	r7, lr, r4, r7
 2224              	.LBB363:
 2225              	.LBB359:
 437:..\..\..\lvgl\version_6.1.2\lvgl\src\lv_core\../lv_misc/lv_color.h ****     LV_COLOR_SET_G(ret, (uint16_t)((uint16_t) LV_COLOR_GET_G(c1) * mix + LV_COLOR_GET_G(c2) * (255 
 2226              		.loc 2 437 0 discriminator 4
 2227 031e C9F30728 		ubfx	r8, r9, #8, #8
 2228              	.LVL67:
 2229              		.loc 2 438 0 discriminator 4
 2230 0322 CCF3072E 		ubfx	lr, ip, #8, #8
 2231              	.LVL68:
 2232              	.LBE359:
 2233              	.LBE363:
 265:..\..\..\lvgl\version_6.1.2\lvgl\src\lv_core/lv_style.c ****     res->image.color       = lv_color_mix(end->image.color, start->image.color, opa);
 2234              		.loc 1 265 0 discriminator 4
 2235 0326 C7F30727 		ubfx	r7, r7, #8, #8
 2236 032a 82F82E80 		strb	r8, [r2, #46]
 2237 032e 82F82DE0 		strb	lr, [r2, #45]
 2238 0332 82F82C70 		strb	r7, [r2, #44]
 2239              	.LBB364:
 2240              	.LBB365:
 437:..\..\..\lvgl\version_6.1.2\lvgl\src\lv_core\../lv_misc/lv_color.h ****     LV_COLOR_SET_G(ret, (uint16_t)((uint16_t) LV_COLOR_GET_G(c1) * mix + LV_COLOR_GET_G(c2) * (255 
 2241              		.loc 2 437 0 discriminator 4
 2242 0336 90F84290 		ldrb	r9, [r0, #66]	@ zero_extendqisi2
 2243              		.loc 2 438 0 discriminator 4
 2244 033a 90F841C0 		ldrb	ip, [r0, #65]	@ zero_extendqisi2
 2245              	.LBE365:
 2246              	.LBE364:
 266:..\..\..\lvgl\version_6.1.2\lvgl\src\lv_core/lv_style.c ****     res->line.color        = lv_color_mix(end->line.color, start->line.color, opa);
 2247              		.loc 1 266 0 discriminator 4
 2248 033e 90F84070 		ldrb	r7, [r0, #64]	@ zero_extendqisi2
 2249              	.LBB370:
 2250              	.LBB366:
 437:..\..\..\lvgl\version_6.1.2\lvgl\src\lv_core\../lv_misc/lv_color.h ****     LV_COLOR_SET_G(ret, (uint16_t)((uint16_t) LV_COLOR_GET_G(c1) * mix + LV_COLOR_GET_G(c2) * (255 
 2251              		.loc 2 437 0 discriminator 4
 2252 0342 91F842A0 		ldrb	r10, [r1, #66]	@ zero_extendqisi2
 2253              		.loc 2 438 0 discriminator 4
 2254 0346 91F84180 		ldrb	r8, [r1, #65]	@ zero_extendqisi2
 2255              	.LBE366:
 2256              	.LBE370:
 266:..\..\..\lvgl\version_6.1.2\lvgl\src\lv_core/lv_style.c ****     res->line.color        = lv_color_mix(end->line.color, start->line.color, opa);
 2257              		.loc 1 266 0 discriminator 4
 2258 034a 91F840E0 		ldrb	lr, [r1, #64]	@ zero_extendqisi2
 2259 034e 82F84360 		strb	r6, [r2, #67]
 2260              	.LBB371:
 2261              	.LBB367:
 437:..\..\..\lvgl\version_6.1.2\lvgl\src\lv_core\../lv_misc/lv_color.h ****     LV_COLOR_SET_G(ret, (uint16_t)((uint16_t) LV_COLOR_GET_G(c1) * mix + LV_COLOR_GET_G(c2) * (255 
 2262              		.loc 2 437 0 discriminator 4
 2263 0352 19FB05F9 		smulbb	r9, r9, r5
 2264              		.loc 2 438 0 discriminator 4
 2265 0356 1CFB05FC 		smulbb	ip, ip, r5
 2266              	.LBE367:
 2267              	.LBE371:
 266:..\..\..\lvgl\version_6.1.2\lvgl\src\lv_core/lv_style.c ****     res->line.color        = lv_color_mix(end->line.color, start->line.color, opa);
 2268              		.loc 1 266 0 discriminator 4
 2269 035a 17FB05F7 		smulbb	r7, r7, r5
 2270              	.LBB372:
ARM GAS  C:\Users\pearlstl\AppData\Local\Temp\ccvteysW.s 			page 63


 2271              	.LBB368:
 437:..\..\..\lvgl\version_6.1.2\lvgl\src\lv_core\../lv_misc/lv_color.h ****     LV_COLOR_SET_G(ret, (uint16_t)((uint16_t) LV_COLOR_GET_G(c1) * mix + LV_COLOR_GET_G(c2) * (255 
 2272              		.loc 2 437 0 discriminator 4
 2273 035e 0AFB0499 		mla	r9, r10, r4, r9
 2274              		.loc 2 438 0 discriminator 4
 2275 0362 08FB04CC 		mla	ip, r8, r4, ip
 2276              	.LBE368:
 2277              	.LBE372:
 266:..\..\..\lvgl\version_6.1.2\lvgl\src\lv_core/lv_style.c ****     res->line.color        = lv_color_mix(end->line.color, start->line.color, opa);
 2278              		.loc 1 266 0 discriminator 4
 2279 0366 0EFB0477 		mla	r7, lr, r4, r7
 2280              	.LBB373:
 2281              	.LBB369:
 437:..\..\..\lvgl\version_6.1.2\lvgl\src\lv_core\../lv_misc/lv_color.h ****     LV_COLOR_SET_G(ret, (uint16_t)((uint16_t) LV_COLOR_GET_G(c1) * mix + LV_COLOR_GET_G(c2) * (255 
 2282              		.loc 2 437 0 discriminator 4
 2283 036a C9F30728 		ubfx	r8, r9, #8, #8
 2284              	.LVL69:
 2285              		.loc 2 438 0 discriminator 4
 2286 036e CCF3072E 		ubfx	lr, ip, #8, #8
 2287              	.LVL70:
 2288              	.LBE369:
 2289              	.LBE373:
 266:..\..\..\lvgl\version_6.1.2\lvgl\src\lv_core/lv_style.c ****     res->line.color        = lv_color_mix(end->line.color, start->line.color, opa);
 2290              		.loc 1 266 0 discriminator 4
 2291 0372 C7F30727 		ubfx	r7, r7, #8, #8
 2292 0376 82F84280 		strb	r8, [r2, #66]
 2293 037a 82F841E0 		strb	lr, [r2, #65]
 2294 037e 82F84070 		strb	r7, [r2, #64]
 2295              	.LBB374:
 2296              	.LBB375:
 437:..\..\..\lvgl\version_6.1.2\lvgl\src\lv_core\../lv_misc/lv_color.h ****     LV_COLOR_SET_G(ret, (uint16_t)((uint16_t) LV_COLOR_GET_G(c1) * mix + LV_COLOR_GET_G(c2) * (255 
 2297              		.loc 2 437 0 discriminator 4
 2298 0382 91F84A70 		ldrb	r7, [r1, #74]	@ zero_extendqisi2
 2299 0386 90F84AA0 		ldrb	r10, [r0, #74]	@ zero_extendqisi2
 2300              		.loc 2 438 0 discriminator 4
 2301 038a 91F849E0 		ldrb	lr, [r1, #73]	@ zero_extendqisi2
 2302 038e 90F849C0 		ldrb	ip, [r0, #73]	@ zero_extendqisi2
 2303              	.LBE375:
 2304              	.LBE374:
 267:..\..\..\lvgl\version_6.1.2\lvgl\src\lv_core/lv_style.c **** 
 2305              		.loc 1 267 0 discriminator 4
 2306 0392 91F84880 		ldrb	r8, [r1, #72]	@ zero_extendqisi2
 2307 0396 90F84890 		ldrb	r9, [r0, #72]	@ zero_extendqisi2
 2308 039a 82F84B60 		strb	r6, [r2, #75]
 2309              	.LBB380:
 2310              	.LBB376:
 2311              		.loc 2 438 0 discriminator 4
 2312 039e 1CFB05FC 		smulbb	ip, ip, r5
 437:..\..\..\lvgl\version_6.1.2\lvgl\src\lv_core\../lv_misc/lv_color.h ****     LV_COLOR_SET_G(ret, (uint16_t)((uint16_t) LV_COLOR_GET_G(c1) * mix + LV_COLOR_GET_G(c2) * (255 
 2313              		.loc 2 437 0 discriminator 4
 2314 03a2 1AFB05F6 		smulbb	r6, r10, r5
 2315              	.LBE376:
 2316              	.LBE380:
 267:..\..\..\lvgl\version_6.1.2\lvgl\src\lv_core/lv_style.c **** 
 2317              		.loc 1 267 0 discriminator 4
 2318 03a6 19FB05F5 		smulbb	r5, r9, r5
 2319              	.LBB381:
ARM GAS  C:\Users\pearlstl\AppData\Local\Temp\ccvteysW.s 			page 64


 2320              	.LBB377:
 437:..\..\..\lvgl\version_6.1.2\lvgl\src\lv_core\../lv_misc/lv_color.h ****     LV_COLOR_SET_G(ret, (uint16_t)((uint16_t) LV_COLOR_GET_G(c1) * mix + LV_COLOR_GET_G(c2) * (255 
 2321              		.loc 2 437 0 discriminator 4
 2322 03aa 07FB0466 		mla	r6, r7, r4, r6
 2323              		.loc 2 438 0 discriminator 4
 2324 03ae 0EFB04C7 		mla	r7, lr, r4, ip
 2325              	.LBE377:
 2326              	.LBE381:
 267:..\..\..\lvgl\version_6.1.2\lvgl\src\lv_core/lv_style.c **** 
 2327              		.loc 1 267 0 discriminator 4
 2328 03b2 08FB0454 		mla	r4, r8, r4, r5
 2329 03b6 C4F30724 		ubfx	r4, r4, #8, #8
 2330              	.LBB382:
 2331              	.LBB378:
 437:..\..\..\lvgl\version_6.1.2\lvgl\src\lv_core\../lv_misc/lv_color.h ****     LV_COLOR_SET_G(ret, (uint16_t)((uint16_t) LV_COLOR_GET_G(c1) * mix + LV_COLOR_GET_G(c2) * (255 
 2332              		.loc 2 437 0 discriminator 4
 2333 03ba C6F30725 		ubfx	r5, r6, #8, #8
 2334              	.LVL71:
 2335              	.LBE378:
 2336              	.LBE382:
 269:..\..\..\lvgl\version_6.1.2\lvgl\src\lv_core/lv_style.c ****         res->body.border.part = start->body.border.part;
 2337              		.loc 1 269 0 discriminator 4
 2338 03be 7F2B     		cmp	r3, #127
 2339              	.LBB383:
 2340              	.LBB379:
 2341              		.loc 2 438 0 discriminator 4
 2342 03c0 C7F30726 		ubfx	r6, r7, #8, #8
 2343              	.LVL72:
 2344              	.LBE379:
 2345              	.LBE383:
 267:..\..\..\lvgl\version_6.1.2\lvgl\src\lv_core/lv_style.c **** 
 2346              		.loc 1 267 0 discriminator 4
 2347 03c4 82F84960 		strb	r6, [r2, #73]
 2348 03c8 82F84A50 		strb	r5, [r2, #74]
 2349 03cc 82F84840 		strb	r4, [r2, #72]
 269:..\..\..\lvgl\version_6.1.2\lvgl\src\lv_core/lv_style.c ****         res->body.border.part = start->body.border.part;
 2350              		.loc 1 269 0 discriminator 4
 2351 03d0 14D9     		bls	.L63
 276:..\..\..\lvgl\version_6.1.2\lvgl\src\lv_core/lv_style.c ****         res->glass            = end->glass;
 2352              		.loc 1 276 0
 2353 03d2 8B7D     		ldrb	r3, [r1, #22]	@ zero_extendqisi2
 2354              	.LVL73:
 2355 03d4 9375     		strb	r3, [r2, #22]
 277:..\..\..\lvgl\version_6.1.2\lvgl\src\lv_core/lv_style.c ****         res->text.font        = end->text.font;
 2356              		.loc 1 277 0
 2357 03d6 0C78     		ldrb	r4, [r1]	@ zero_extendqisi2
 2358 03d8 1078     		ldrb	r0, [r2]	@ zero_extendqisi2
 2359              	.LVL74:
 280:..\..\..\lvgl\version_6.1.2\lvgl\src\lv_core/lv_style.c ****     }
 2360              		.loc 1 280 0
 2361 03da 92F84F30 		ldrb	r3, [r2, #79]	@ zero_extendqisi2
 277:..\..\..\lvgl\version_6.1.2\lvgl\src\lv_core/lv_style.c ****         res->text.font        = end->text.font;
 2362              		.loc 1 277 0
 2363 03de 64F30000 		bfi	r0, r4, #0, #1
 2364 03e2 1070     		strb	r0, [r2]
 278:..\..\..\lvgl\version_6.1.2\lvgl\src\lv_core/lv_style.c ****         res->body.shadow.type = end->body.shadow.type;
 2365              		.loc 1 278 0
ARM GAS  C:\Users\pearlstl\AppData\Local\Temp\ccvteysW.s 			page 65


 2366 03e4 486B     		ldr	r0, [r1, #52]
 2367 03e6 5063     		str	r0, [r2, #52]
 279:..\..\..\lvgl\version_6.1.2\lvgl\src\lv_core/lv_style.c ****         res->line.rounded     = end->line.rounded;
 2368              		.loc 1 279 0
 2369 03e8 887F     		ldrb	r0, [r1, #30]	@ zero_extendqisi2
 2370 03ea 9077     		strb	r0, [r2, #30]
 280:..\..\..\lvgl\version_6.1.2\lvgl\src\lv_core/lv_style.c ****     }
 2371              		.loc 1 280 0
 2372 03ec 91F84F10 		ldrb	r1, [r1, #79]	@ zero_extendqisi2
 2373              	.LVL75:
 2374 03f0 61F30003 		bfi	r3, r1, #0, #1
 2375 03f4 82F84F30 		strb	r3, [r2, #79]
 2376 03f8 BDE8F087 		pop	{r4, r5, r6, r7, r8, r9, r10, pc}
 2377              	.LVL76:
 2378              	.L63:
 270:..\..\..\lvgl\version_6.1.2\lvgl\src\lv_core/lv_style.c ****         res->glass            = start->glass;
 2379              		.loc 1 270 0
 2380 03fc 837D     		ldrb	r3, [r0, #22]	@ zero_extendqisi2
 2381              	.LVL77:
 2382 03fe 9375     		strb	r3, [r2, #22]
 271:..\..\..\lvgl\version_6.1.2\lvgl\src\lv_core/lv_style.c ****         res->text.font        = start->text.font;
 2383              		.loc 1 271 0
 2384 0400 0478     		ldrb	r4, [r0]	@ zero_extendqisi2
 2385 0402 1178     		ldrb	r1, [r2]	@ zero_extendqisi2
 2386              	.LVL78:
 274:..\..\..\lvgl\version_6.1.2\lvgl\src\lv_core/lv_style.c ****     } else {
 2387              		.loc 1 274 0
 2388 0404 92F84F30 		ldrb	r3, [r2, #79]	@ zero_extendqisi2
 271:..\..\..\lvgl\version_6.1.2\lvgl\src\lv_core/lv_style.c ****         res->text.font        = start->text.font;
 2389              		.loc 1 271 0
 2390 0408 64F30001 		bfi	r1, r4, #0, #1
 2391 040c 1170     		strb	r1, [r2]
 272:..\..\..\lvgl\version_6.1.2\lvgl\src\lv_core/lv_style.c ****         res->body.shadow.type = start->body.shadow.type;
 2392              		.loc 1 272 0
 2393 040e 416B     		ldr	r1, [r0, #52]
 2394 0410 5163     		str	r1, [r2, #52]
 273:..\..\..\lvgl\version_6.1.2\lvgl\src\lv_core/lv_style.c ****         res->line.rounded     = start->line.rounded;
 2395              		.loc 1 273 0
 2396 0412 817F     		ldrb	r1, [r0, #30]	@ zero_extendqisi2
 2397 0414 9177     		strb	r1, [r2, #30]
 274:..\..\..\lvgl\version_6.1.2\lvgl\src\lv_core/lv_style.c ****     } else {
 2398              		.loc 1 274 0
 2399 0416 90F84F10 		ldrb	r1, [r0, #79]	@ zero_extendqisi2
 2400 041a 61F30003 		bfi	r3, r1, #0, #1
 2401 041e 82F84F30 		strb	r3, [r2, #79]
 2402 0422 BDE8F087 		pop	{r4, r5, r6, r7, r8, r9, r10, pc}
 2403              	.LVL79:
 2404              	.L61:
 2405 0426 0025     		movs	r5, #0
 2406 0428 FF24     		movs	r4, #255
 2407 042a D2E6     		b	.L58
 2408              		.cfi_endproc
 2409              	.LFE33:
 2410              		.size	lv_style_mix, .-lv_style_mix
 2411              		.section	.text.lv_style_anim_init,"ax",%progbits
 2412              		.align	2
 2413              		.global	lv_style_anim_init
ARM GAS  C:\Users\pearlstl\AppData\Local\Temp\ccvteysW.s 			page 66


 2414              		.thumb
 2415              		.thumb_func
 2416              		.type	lv_style_anim_init, %function
 2417              	lv_style_anim_init:
 2418              	.LFB34:
 287:..\..\..\lvgl\version_6.1.2\lvgl\src\lv_core/lv_style.c ****     lv_anim_init(a);
 2419              		.loc 1 287 0
 2420              		.cfi_startproc
 2421              		@ args = 0, pretend = 0, frame = 0
 2422              		@ frame_needed = 0, uses_anonymous_args = 0
 2423              	.LVL80:
 2424 0000 70B5     		push	{r4, r5, r6, lr}
 2425              		.cfi_def_cfa_offset 16
 2426              		.cfi_offset 4, -16
 2427              		.cfi_offset 5, -12
 2428              		.cfi_offset 6, -8
 2429              		.cfi_offset 14, -4
 287:..\..\..\lvgl\version_6.1.2\lvgl\src\lv_core/lv_style.c ****     lv_anim_init(a);
 2430              		.loc 1 287 0
 2431 0002 0446     		mov	r4, r0
 289:..\..\..\lvgl\version_6.1.2\lvgl\src\lv_core/lv_style.c ****     a->end      = STYLE_MIX_MAX;
 2432              		.loc 1 289 0
 2433 0004 0026     		movs	r6, #0
 288:..\..\..\lvgl\version_6.1.2\lvgl\src\lv_core/lv_style.c ****     a->start    = 0;
 2434              		.loc 1 288 0
 2435 0006 FFF7FEFF 		bl	lv_anim_init
 2436              	.LVL81:
 290:..\..\..\lvgl\version_6.1.2\lvgl\src\lv_core/lv_style.c ****     a->exec_cb  = (lv_anim_exec_xcb_t)style_animator;
 2437              		.loc 1 290 0
 2438 000a 4FF48070 		mov	r0, #256
 291:..\..\..\lvgl\version_6.1.2\lvgl\src\lv_core/lv_style.c ****     a->path_cb  = lv_anim_path_linear;
 2439              		.loc 1 291 0
 2440 000e 0E49     		ldr	r1, .L70
 292:..\..\..\lvgl\version_6.1.2\lvgl\src\lv_core/lv_style.c ****     a->ready_cb = style_animation_common_end_cb;
 2441              		.loc 1 292 0
 2442 0010 0E4A     		ldr	r2, .L70+4
 293:..\..\..\lvgl\version_6.1.2\lvgl\src\lv_core/lv_style.c **** 
 2443              		.loc 1 293 0
 2444 0012 0F4B     		ldr	r3, .L70+8
 290:..\..\..\lvgl\version_6.1.2\lvgl\src\lv_core/lv_style.c ****     a->exec_cb  = (lv_anim_exec_xcb_t)style_animator;
 2445              		.loc 1 290 0
 2446 0014 6061     		str	r0, [r4, #20]
 291:..\..\..\lvgl\version_6.1.2\lvgl\src\lv_core/lv_style.c ****     a->path_cb  = lv_anim_path_linear;
 2447              		.loc 1 291 0
 2448 0016 6160     		str	r1, [r4, #4]
 292:..\..\..\lvgl\version_6.1.2\lvgl\src\lv_core/lv_style.c ****     a->ready_cb = style_animation_common_end_cb;
 2449              		.loc 1 292 0
 2450 0018 A260     		str	r2, [r4, #8]
 293:..\..\..\lvgl\version_6.1.2\lvgl\src\lv_core/lv_style.c **** 
 2451              		.loc 1 293 0
 2452 001a E360     		str	r3, [r4, #12]
 289:..\..\..\lvgl\version_6.1.2\lvgl\src\lv_core/lv_style.c ****     a->end      = STYLE_MIX_MAX;
 2453              		.loc 1 289 0
 2454 001c 2661     		str	r6, [r4, #16]
 296:..\..\..\lvgl\version_6.1.2\lvgl\src\lv_core/lv_style.c ****     LV_ASSERT_MEM(dsc);
 2455              		.loc 1 296 0
 2456 001e A820     		movs	r0, #168
ARM GAS  C:\Users\pearlstl\AppData\Local\Temp\ccvteysW.s 			page 67


 2457 0020 FFF7FEFF 		bl	lv_mem_alloc
 2458              	.LVL82:
 298:..\..\..\lvgl\version_6.1.2\lvgl\src\lv_core/lv_style.c ****     dsc->ready_cb   = NULL;
 2459              		.loc 1 298 0
 2460 0024 70B1     		cbz	r0, .L64
 2461              	.LBB384:
 2462              	.LBB385:
 229:..\..\..\lvgl\version_6.1.2\lvgl\src\lv_core/lv_style.c **** }
 2463              		.loc 1 229 0
 2464 0026 5022     		movs	r2, #80
 2465 0028 0A49     		ldr	r1, .L70+12
 2466              	.LBE385:
 2467              	.LBE384:
 299:..\..\..\lvgl\version_6.1.2\lvgl\src\lv_core/lv_style.c ****     dsc->style_anim = NULL;
 2468              		.loc 1 299 0
 2469 002a C0F8A460 		str	r6, [r0, #164]
 300:..\..\..\lvgl\version_6.1.2\lvgl\src\lv_core/lv_style.c ****     lv_style_copy(&dsc->style_start, &lv_style_plain);
 2470              		.loc 1 300 0
 2471 002e C0F8A060 		str	r6, [r0, #160]
 2472 0032 0546     		mov	r5, r0
 2473              	.LVL83:
 2474              	.LBB387:
 2475              	.LBB386:
 229:..\..\..\lvgl\version_6.1.2\lvgl\src\lv_core/lv_style.c **** }
 2476              		.loc 1 229 0
 2477 0034 FFF7FEFF 		bl	memcpy
 2478              	.LVL84:
 2479              	.LBE386:
 2480              	.LBE387:
 2481              	.LBB388:
 2482              	.LBB389:
 2483 0038 5022     		movs	r2, #80
 2484 003a 0649     		ldr	r1, .L70+12
 2485 003c A818     		adds	r0, r5, r2
 2486              	.LVL85:
 2487 003e FFF7FEFF 		bl	memcpy
 2488              	.LVL86:
 2489              	.LBE389:
 2490              	.LBE388:
 304:..\..\..\lvgl\version_6.1.2\lvgl\src\lv_core/lv_style.c **** }
 2491              		.loc 1 304 0
 2492 0042 2560     		str	r5, [r4]
 2493              	.LVL87:
 2494              	.L64:
 2495 0044 70BD     		pop	{r4, r5, r6, pc}
 2496              	.LVL88:
 2497              	.L71:
 2498 0046 00BF     		.align	2
 2499              	.L70:
 2500 0048 00000000 		.word	style_animator
 2501 004c 00000000 		.word	lv_anim_path_linear
 2502 0050 00000000 		.word	style_animation_common_end_cb
 2503 0054 00000000 		.word	lv_style_plain
 2504              		.cfi_endproc
 2505              	.LFE34:
 2506              		.size	lv_style_anim_init, .-lv_style_anim_init
 2507              		.section	.text.lv_style_anim_set_styles,"ax",%progbits
ARM GAS  C:\Users\pearlstl\AppData\Local\Temp\ccvteysW.s 			page 68


 2508              		.align	2
 2509              		.global	lv_style_anim_set_styles
 2510              		.thumb
 2511              		.thumb_func
 2512              		.type	lv_style_anim_set_styles, %function
 2513              	lv_style_anim_set_styles:
 2514              	.LFB35:
 308:..\..\..\lvgl\version_6.1.2\lvgl\src\lv_core/lv_style.c **** 
 2515              		.loc 1 308 0
 2516              		.cfi_startproc
 2517              		@ args = 0, pretend = 0, frame = 0
 2518              		@ frame_needed = 0, uses_anonymous_args = 0
 2519              	.LVL89:
 2520 0000 2DE9F041 		push	{r4, r5, r6, r7, r8, lr}
 2521              		.cfi_def_cfa_offset 24
 2522              		.cfi_offset 4, -24
 2523              		.cfi_offset 5, -20
 2524              		.cfi_offset 6, -16
 2525              		.cfi_offset 7, -12
 2526              		.cfi_offset 8, -8
 2527              		.cfi_offset 14, -4
 310:..\..\..\lvgl\version_6.1.2\lvgl\src\lv_core/lv_style.c ****     dsc->style_anim           = to_anim;
 2528              		.loc 1 310 0
 2529 0004 0568     		ldr	r5, [r0]
 2530              	.LVL90:
 312:..\..\..\lvgl\version_6.1.2\lvgl\src\lv_core/lv_style.c ****     memcpy(&dsc->style_end, end, sizeof(lv_style_t));
 2531              		.loc 1 312 0
 2532 0006 5024     		movs	r4, #80
 308:..\..\..\lvgl\version_6.1.2\lvgl\src\lv_core/lv_style.c **** 
 2533              		.loc 1 308 0
 2534 0008 9846     		mov	r8, r3
 2535 000a 0E46     		mov	r6, r1
 2536 000c 1746     		mov	r7, r2
 311:..\..\..\lvgl\version_6.1.2\lvgl\src\lv_core/lv_style.c ****     memcpy(&dsc->style_start, start, sizeof(lv_style_t));
 2537              		.loc 1 311 0
 2538 000e C5F8A010 		str	r1, [r5, #160]
 312:..\..\..\lvgl\version_6.1.2\lvgl\src\lv_core/lv_style.c ****     memcpy(&dsc->style_end, end, sizeof(lv_style_t));
 2539              		.loc 1 312 0
 2540 0012 2846     		mov	r0, r5
 2541              	.LVL91:
 2542 0014 1146     		mov	r1, r2
 2543              	.LVL92:
 2544 0016 2246     		mov	r2, r4
 2545              	.LVL93:
 2546 0018 FFF7FEFF 		bl	memcpy
 2547              	.LVL94:
 313:..\..\..\lvgl\version_6.1.2\lvgl\src\lv_core/lv_style.c ****     memcpy(dsc->style_anim, start, sizeof(lv_style_t));
 2548              		.loc 1 313 0
 2549 001c 2246     		mov	r2, r4
 2550 001e 4146     		mov	r1, r8
 2551 0020 2819     		adds	r0, r5, r4
 2552 0022 FFF7FEFF 		bl	memcpy
 2553              	.LVL95:
 314:..\..\..\lvgl\version_6.1.2\lvgl\src\lv_core/lv_style.c **** }
 2554              		.loc 1 314 0
 2555 0026 2246     		mov	r2, r4
 2556 0028 3946     		mov	r1, r7
ARM GAS  C:\Users\pearlstl\AppData\Local\Temp\ccvteysW.s 			page 69


 2557 002a 3046     		mov	r0, r6
 315:..\..\..\lvgl\version_6.1.2\lvgl\src\lv_core/lv_style.c **** #endif
 2558              		.loc 1 315 0
 2559 002c BDE8F041 		pop	{r4, r5, r6, r7, r8, lr}
 2560              		.cfi_restore 14
 2561              		.cfi_restore 8
 2562              		.cfi_restore 7
 2563              		.cfi_restore 6
 2564              		.cfi_restore 5
 2565              		.cfi_restore 4
 2566              		.cfi_def_cfa_offset 0
 2567              	.LVL96:
 314:..\..\..\lvgl\version_6.1.2\lvgl\src\lv_core/lv_style.c **** }
 2568              		.loc 1 314 0
 2569 0030 FFF7FEBF 		b	memcpy
 2570              	.LVL97:
 2571              		.cfi_endproc
 2572              	.LFE35:
 2573              		.size	lv_style_anim_set_styles, .-lv_style_anim_set_styles
 2574              		.comm	lv_style_btn_ina,80,4
 2575              		.comm	lv_style_btn_tgl_pr,80,4
 2576              		.comm	lv_style_btn_tgl_rel,80,4
 2577              		.comm	lv_style_btn_pr,80,4
 2578              		.comm	lv_style_btn_rel,80,4
 2579              		.comm	lv_style_pretty_color,80,4
 2580              		.comm	lv_style_pretty,80,4
 2581              		.comm	lv_style_plain_color,80,4
 2582              		.comm	lv_style_plain,80,4
 2583              		.comm	lv_style_transp_tight,80,4
 2584              		.comm	lv_style_transp_fit,80,4
 2585              		.comm	lv_style_transp,80,4
 2586              		.comm	lv_style_scr,80,4
 2587              		.text
 2588              	.Letext0:
 2589              		.file 3 "c:\\program files (x86)\\cypress\\psoc creator\\4.2\\psoc creator\\import\\gnu\\arm\\5.4.
 2590              		.file 4 "c:\\program files (x86)\\cypress\\psoc creator\\4.2\\psoc creator\\import\\gnu\\arm\\5.4.
 2591              		.file 5 "..\\..\\..\\lvgl\\version_6.1.2\\lvgl\\src\\lv_core\\../../../lv_conf.h"
 2592              		.file 6 "..\\..\\..\\lvgl\\version_6.1.2\\lvgl\\src\\lv_core\\../lv_font/lv_font.h"
 2593              		.file 7 "..\\..\\..\\lvgl\\version_6.1.2\\lvgl\\src\\lv_core\\../lv_misc/lv_anim.h"
 2594              		.file 8 "..\\..\\..\\lvgl\\version_6.1.2\\lvgl\\src\\lv_core\\lv_style.h"
 2595              		.file 9 "..\\..\\..\\lvgl\\version_6.1.2\\lvgl\\src\\lv_core\\../lv_misc/lv_mem.h"
 2596              		.file 10 "..\\..\\..\\lvgl\\version_6.1.2\\lvgl\\src\\lv_core\\lv_obj.h"
 2597              		.section	.debug_info,"",%progbits
 2598              	.Ldebug_info0:
 2599 0000 8A110000 		.4byte	0x118a
 2600 0004 0400     		.2byte	0x4
 2601 0006 00000000 		.4byte	.Ldebug_abbrev0
 2602 000a 04       		.byte	0x4
 2603 000b 01       		.uleb128 0x1
 2604 000c B7000000 		.4byte	.LASF148
 2605 0010 0C       		.byte	0xc
 2606 0011 DB040000 		.4byte	.LASF149
 2607 0015 77070000 		.4byte	.LASF150
 2608 0019 98040000 		.4byte	.Ldebug_ranges0+0x498
 2609 001d 00000000 		.4byte	0
 2610 0021 00000000 		.4byte	.Ldebug_line0
 2611 0025 02       		.uleb128 0x2
ARM GAS  C:\Users\pearlstl\AppData\Local\Temp\ccvteysW.s 			page 70


 2612 0026 81040000 		.4byte	.LASF0
 2613 002a 03       		.byte	0x3
 2614 002b 1B       		.byte	0x1b
 2615 002c 30000000 		.4byte	0x30
 2616 0030 03       		.uleb128 0x3
 2617 0031 01       		.byte	0x1
 2618 0032 06       		.byte	0x6
 2619 0033 1B070000 		.4byte	.LASF2
 2620 0037 02       		.uleb128 0x2
 2621 0038 DD050000 		.4byte	.LASF1
 2622 003c 03       		.byte	0x3
 2623 003d 1D       		.byte	0x1d
 2624 003e 42000000 		.4byte	0x42
 2625 0042 03       		.uleb128 0x3
 2626 0043 01       		.byte	0x1
 2627 0044 08       		.byte	0x8
 2628 0045 A2060000 		.4byte	.LASF3
 2629 0049 02       		.uleb128 0x2
 2630 004a 1F040000 		.4byte	.LASF4
 2631 004e 03       		.byte	0x3
 2632 004f 29       		.byte	0x29
 2633 0050 54000000 		.4byte	0x54
 2634 0054 03       		.uleb128 0x3
 2635 0055 02       		.byte	0x2
 2636 0056 05       		.byte	0x5
 2637 0057 68050000 		.4byte	.LASF5
 2638 005b 02       		.uleb128 0x2
 2639 005c 9B020000 		.4byte	.LASF6
 2640 0060 03       		.byte	0x3
 2641 0061 2B       		.byte	0x2b
 2642 0062 66000000 		.4byte	0x66
 2643 0066 03       		.uleb128 0x3
 2644 0067 02       		.byte	0x2
 2645 0068 07       		.byte	0x7
 2646 0069 2F070000 		.4byte	.LASF7
 2647 006d 02       		.uleb128 0x2
 2648 006e 83010000 		.4byte	.LASF8
 2649 0072 03       		.byte	0x3
 2650 0073 3F       		.byte	0x3f
 2651 0074 78000000 		.4byte	0x78
 2652 0078 03       		.uleb128 0x3
 2653 0079 04       		.byte	0x4
 2654 007a 05       		.byte	0x5
 2655 007b 9D050000 		.4byte	.LASF9
 2656 007f 02       		.uleb128 0x2
 2657 0080 B0060000 		.4byte	.LASF10
 2658 0084 03       		.byte	0x3
 2659 0085 41       		.byte	0x41
 2660 0086 8A000000 		.4byte	0x8a
 2661 008a 03       		.uleb128 0x3
 2662 008b 04       		.byte	0x4
 2663 008c 07       		.byte	0x7
 2664 008d 37060000 		.4byte	.LASF11
 2665 0091 03       		.uleb128 0x3
 2666 0092 08       		.byte	0x8
 2667 0093 05       		.byte	0x5
 2668 0094 D1030000 		.4byte	.LASF12
ARM GAS  C:\Users\pearlstl\AppData\Local\Temp\ccvteysW.s 			page 71


 2669 0098 03       		.uleb128 0x3
 2670 0099 08       		.byte	0x8
 2671 009a 07       		.byte	0x7
 2672 009b 5D020000 		.4byte	.LASF13
 2673 009f 04       		.uleb128 0x4
 2674 00a0 04       		.byte	0x4
 2675 00a1 05       		.byte	0x5
 2676 00a2 696E7400 		.ascii	"int\000"
 2677 00a6 03       		.uleb128 0x3
 2678 00a7 04       		.byte	0x4
 2679 00a8 07       		.byte	0x7
 2680 00a9 9E000000 		.4byte	.LASF14
 2681 00ad 02       		.uleb128 0x2
 2682 00ae 0F020000 		.4byte	.LASF15
 2683 00b2 04       		.byte	0x4
 2684 00b3 14       		.byte	0x14
 2685 00b4 25000000 		.4byte	0x25
 2686 00b8 02       		.uleb128 0x2
 2687 00b9 9A030000 		.4byte	.LASF16
 2688 00bd 04       		.byte	0x4
 2689 00be 18       		.byte	0x18
 2690 00bf 37000000 		.4byte	0x37
 2691 00c3 02       		.uleb128 0x2
 2692 00c4 40020000 		.4byte	.LASF17
 2693 00c8 04       		.byte	0x4
 2694 00c9 20       		.byte	0x20
 2695 00ca 49000000 		.4byte	0x49
 2696 00ce 02       		.uleb128 0x2
 2697 00cf C3040000 		.4byte	.LASF18
 2698 00d3 04       		.byte	0x4
 2699 00d4 24       		.byte	0x24
 2700 00d5 5B000000 		.4byte	0x5b
 2701 00d9 02       		.uleb128 0x2
 2702 00da 75060000 		.4byte	.LASF19
 2703 00de 04       		.byte	0x4
 2704 00df 2C       		.byte	0x2c
 2705 00e0 6D000000 		.4byte	0x6d
 2706 00e4 02       		.uleb128 0x2
 2707 00e5 06020000 		.4byte	.LASF20
 2708 00e9 04       		.byte	0x4
 2709 00ea 30       		.byte	0x30
 2710 00eb 7F000000 		.4byte	0x7f
 2711 00ef 02       		.uleb128 0x2
 2712 00f0 C2050000 		.4byte	.LASF21
 2713 00f4 05       		.byte	0x5
 2714 00f5 3A       		.byte	0x3a
 2715 00f6 C3000000 		.4byte	0xc3
 2716 00fa 05       		.uleb128 0x5
 2717 00fb 04       		.byte	0x4
 2718 00fc 03       		.uleb128 0x3
 2719 00fd 08       		.byte	0x8
 2720 00fe 04       		.byte	0x4
 2721 00ff B7040000 		.4byte	.LASF22
 2722 0103 06       		.uleb128 0x6
 2723 0104 08       		.byte	0x8
 2724 0105 06       		.byte	0x6
 2725 0106 2E       		.byte	0x2e
ARM GAS  C:\Users\pearlstl\AppData\Local\Temp\ccvteysW.s 			page 72


 2726 0107 54010000 		.4byte	0x154
 2727 010b 07       		.uleb128 0x7
 2728 010c 2E080000 		.4byte	.LASF23
 2729 0110 06       		.byte	0x6
 2730 0111 30       		.byte	0x30
 2731 0112 CE000000 		.4byte	0xce
 2732 0116 00       		.byte	0
 2733 0117 07       		.uleb128 0x7
 2734 0118 16060000 		.4byte	.LASF24
 2735 011c 06       		.byte	0x6
 2736 011d 31       		.byte	0x31
 2737 011e B8000000 		.4byte	0xb8
 2738 0122 02       		.byte	0x2
 2739 0123 07       		.uleb128 0x7
 2740 0124 0B060000 		.4byte	.LASF25
 2741 0128 06       		.byte	0x6
 2742 0129 32       		.byte	0x32
 2743 012a B8000000 		.4byte	0xb8
 2744 012e 03       		.byte	0x3
 2745 012f 07       		.uleb128 0x7
 2746 0130 AB000000 		.4byte	.LASF26
 2747 0134 06       		.byte	0x6
 2748 0135 33       		.byte	0x33
 2749 0136 AD000000 		.4byte	0xad
 2750 013a 04       		.byte	0x4
 2751 013b 07       		.uleb128 0x7
 2752 013c B1000000 		.4byte	.LASF27
 2753 0140 06       		.byte	0x6
 2754 0141 34       		.byte	0x34
 2755 0142 AD000000 		.4byte	0xad
 2756 0146 05       		.byte	0x5
 2757 0147 08       		.uleb128 0x8
 2758 0148 62707000 		.ascii	"bpp\000"
 2759 014c 06       		.byte	0x6
 2760 014d 35       		.byte	0x35
 2761 014e B8000000 		.4byte	0xb8
 2762 0152 06       		.byte	0x6
 2763 0153 00       		.byte	0
 2764 0154 02       		.uleb128 0x2
 2765 0155 86030000 		.4byte	.LASF28
 2766 0159 06       		.byte	0x6
 2767 015a 36       		.byte	0x36
 2768 015b 03010000 		.4byte	0x103
 2769 015f 09       		.uleb128 0x9
 2770 0160 2A030000 		.4byte	.LASF59
 2771 0164 10       		.byte	0x10
 2772 0165 06       		.byte	0x6
 2773 0166 44       		.byte	0x44
 2774 0167 B7010000 		.4byte	0x1b7
 2775 016b 07       		.uleb128 0x7
 2776 016c 6A010000 		.4byte	.LASF29
 2777 0170 06       		.byte	0x6
 2778 0171 47       		.byte	0x47
 2779 0172 ED010000 		.4byte	0x1ed
 2780 0176 00       		.byte	0
 2781 0177 07       		.uleb128 0x7
 2782 0178 DE060000 		.4byte	.LASF30
ARM GAS  C:\Users\pearlstl\AppData\Local\Temp\ccvteysW.s 			page 73


 2783 017c 06       		.byte	0x6
 2784 017d 4A       		.byte	0x4a
 2785 017e 12020000 		.4byte	0x212
 2786 0182 04       		.byte	0x4
 2787 0183 07       		.uleb128 0x7
 2788 0184 4F030000 		.4byte	.LASF31
 2789 0188 06       		.byte	0x6
 2790 0189 4D       		.byte	0x4d
 2791 018a B8000000 		.4byte	0xb8
 2792 018e 08       		.byte	0x8
 2793 018f 07       		.uleb128 0x7
 2794 0190 7D060000 		.4byte	.LASF32
 2795 0194 06       		.byte	0x6
 2796 0195 4E       		.byte	0x4e
 2797 0196 AD000000 		.4byte	0xad
 2798 019a 09       		.byte	0x9
 2799 019b 0A       		.uleb128 0xa
 2800 019c 70040000 		.4byte	.LASF69
 2801 01a0 06       		.byte	0x6
 2802 01a1 4F       		.byte	0x4f
 2803 01a2 B8000000 		.4byte	0xb8
 2804 01a6 01       		.byte	0x1
 2805 01a7 02       		.byte	0x2
 2806 01a8 06       		.byte	0x6
 2807 01a9 0A       		.byte	0xa
 2808 01aa 08       		.uleb128 0x8
 2809 01ab 64736300 		.ascii	"dsc\000"
 2810 01af 06       		.byte	0x6
 2811 01b0 50       		.byte	0x50
 2812 01b1 FA000000 		.4byte	0xfa
 2813 01b5 0C       		.byte	0xc
 2814 01b6 00       		.byte	0
 2815 01b7 0B       		.uleb128 0xb
 2816 01b8 D5010000 		.4byte	0x1d5
 2817 01bc D5010000 		.4byte	0x1d5
 2818 01c0 0C       		.uleb128 0xc
 2819 01c1 DC010000 		.4byte	0x1dc
 2820 01c5 0C       		.uleb128 0xc
 2821 01c6 E7010000 		.4byte	0x1e7
 2822 01ca 0C       		.uleb128 0xc
 2823 01cb E4000000 		.4byte	0xe4
 2824 01cf 0C       		.uleb128 0xc
 2825 01d0 E4000000 		.4byte	0xe4
 2826 01d4 00       		.byte	0
 2827 01d5 03       		.uleb128 0x3
 2828 01d6 01       		.byte	0x1
 2829 01d7 02       		.byte	0x2
 2830 01d8 0E030000 		.4byte	.LASF33
 2831 01dc 0D       		.uleb128 0xd
 2832 01dd 04       		.byte	0x4
 2833 01de E2010000 		.4byte	0x1e2
 2834 01e2 0E       		.uleb128 0xe
 2835 01e3 5F010000 		.4byte	0x15f
 2836 01e7 0D       		.uleb128 0xd
 2837 01e8 04       		.byte	0x4
 2838 01e9 54010000 		.4byte	0x154
 2839 01ed 0D       		.uleb128 0xd
ARM GAS  C:\Users\pearlstl\AppData\Local\Temp\ccvteysW.s 			page 74


 2840 01ee 04       		.byte	0x4
 2841 01ef B7010000 		.4byte	0x1b7
 2842 01f3 0B       		.uleb128 0xb
 2843 01f4 07020000 		.4byte	0x207
 2844 01f8 07020000 		.4byte	0x207
 2845 01fc 0C       		.uleb128 0xc
 2846 01fd DC010000 		.4byte	0x1dc
 2847 0201 0C       		.uleb128 0xc
 2848 0202 E4000000 		.4byte	0xe4
 2849 0206 00       		.byte	0
 2850 0207 0D       		.uleb128 0xd
 2851 0208 04       		.byte	0x4
 2852 0209 0D020000 		.4byte	0x20d
 2853 020d 0E       		.uleb128 0xe
 2854 020e B8000000 		.4byte	0xb8
 2855 0212 0D       		.uleb128 0xd
 2856 0213 04       		.byte	0x4
 2857 0214 F3010000 		.4byte	0x1f3
 2858 0218 02       		.uleb128 0x2
 2859 0219 34050000 		.4byte	.LASF34
 2860 021d 06       		.byte	0x6
 2861 021e 56       		.byte	0x56
 2862 021f 5F010000 		.4byte	0x15f
 2863 0223 0F       		.uleb128 0xf
 2864 0224 01       		.byte	0x1
 2865 0225 42000000 		.4byte	0x42
 2866 0229 02       		.byte	0x2
 2867 022a 3E       		.byte	0x3e
 2868 022b 7E020000 		.4byte	0x27e
 2869 022f 10       		.uleb128 0x10
 2870 0230 8D020000 		.4byte	.LASF35
 2871 0234 00       		.byte	0
 2872 0235 10       		.uleb128 0x10
 2873 0236 85000000 		.4byte	.LASF36
 2874 023a 00       		.byte	0
 2875 023b 10       		.uleb128 0x10
 2876 023c C7030000 		.4byte	.LASF37
 2877 0240 19       		.byte	0x19
 2878 0241 10       		.uleb128 0x10
 2879 0242 41040000 		.4byte	.LASF38
 2880 0246 33       		.byte	0x33
 2881 0247 10       		.uleb128 0x10
 2882 0248 AD040000 		.4byte	.LASF39
 2883 024c 4C       		.byte	0x4c
 2884 024d 10       		.uleb128 0x10
 2885 024e A6050000 		.4byte	.LASF40
 2886 0252 66       		.byte	0x66
 2887 0253 10       		.uleb128 0x10
 2888 0254 E7050000 		.4byte	.LASF41
 2889 0258 7F       		.byte	0x7f
 2890 0259 10       		.uleb128 0x10
 2891 025a 93060000 		.4byte	.LASF42
 2892 025e 99       		.byte	0x99
 2893 025f 10       		.uleb128 0x10
 2894 0260 FE060000 		.4byte	.LASF43
 2895 0264 B2       		.byte	0xb2
 2896 0265 10       		.uleb128 0x10
ARM GAS  C:\Users\pearlstl\AppData\Local\Temp\ccvteysW.s 			page 75


 2897 0266 56070000 		.4byte	.LASF44
 2898 026a CC       		.byte	0xcc
 2899 026b 10       		.uleb128 0x10
 2900 026c 42000000 		.4byte	.LASF45
 2901 0270 E5       		.byte	0xe5
 2902 0271 10       		.uleb128 0x10
 2903 0272 D2050000 		.4byte	.LASF46
 2904 0276 FF       		.byte	0xff
 2905 0277 10       		.uleb128 0x10
 2906 0278 21000000 		.4byte	.LASF47
 2907 027c FF       		.byte	0xff
 2908 027d 00       		.byte	0
 2909 027e 06       		.uleb128 0x6
 2910 027f 04       		.byte	0x4
 2911 0280 02       		.byte	0x2
 2912 0281 F3       		.byte	0xf3
 2913 0282 B7020000 		.4byte	0x2b7
 2914 0286 07       		.uleb128 0x7
 2915 0287 BD050000 		.4byte	.LASF48
 2916 028b 02       		.byte	0x2
 2917 028c F5       		.byte	0xf5
 2918 028d B8000000 		.4byte	0xb8
 2919 0291 00       		.byte	0
 2920 0292 07       		.uleb128 0x7
 2921 0293 A7040000 		.4byte	.LASF49
 2922 0297 02       		.byte	0x2
 2923 0298 F6       		.byte	0xf6
 2924 0299 B8000000 		.4byte	0xb8
 2925 029d 01       		.byte	0x1
 2926 029e 08       		.uleb128 0x8
 2927 029f 72656400 		.ascii	"red\000"
 2928 02a3 02       		.byte	0x2
 2929 02a4 F7       		.byte	0xf7
 2930 02a5 B8000000 		.4byte	0xb8
 2931 02a9 02       		.byte	0x2
 2932 02aa 07       		.uleb128 0x7
 2933 02ab 6F060000 		.4byte	.LASF50
 2934 02af 02       		.byte	0x2
 2935 02b0 F8       		.byte	0xf8
 2936 02b1 B8000000 		.4byte	0xb8
 2937 02b5 03       		.byte	0x3
 2938 02b6 00       		.byte	0
 2939 02b7 11       		.uleb128 0x11
 2940 02b8 04       		.byte	0x4
 2941 02b9 02       		.byte	0x2
 2942 02ba F1       		.byte	0xf1
 2943 02bb D5020000 		.4byte	0x2d5
 2944 02bf 12       		.uleb128 0x12
 2945 02c0 636800   		.ascii	"ch\000"
 2946 02c3 02       		.byte	0x2
 2947 02c4 F9       		.byte	0xf9
 2948 02c5 7E020000 		.4byte	0x27e
 2949 02c9 13       		.uleb128 0x13
 2950 02ca 3D000000 		.4byte	.LASF51
 2951 02ce 02       		.byte	0x2
 2952 02cf FA       		.byte	0xfa
 2953 02d0 E4000000 		.4byte	0xe4
ARM GAS  C:\Users\pearlstl\AppData\Local\Temp\ccvteysW.s 			page 76


 2954 02d4 00       		.byte	0
 2955 02d5 02       		.uleb128 0x2
 2956 02d6 16020000 		.4byte	.LASF52
 2957 02da 02       		.byte	0x2
 2958 02db FB       		.byte	0xfb
 2959 02dc B7020000 		.4byte	0x2b7
 2960 02e0 14       		.uleb128 0x14
 2961 02e1 76040000 		.4byte	.LASF53
 2962 02e5 02       		.byte	0x2
 2963 02e6 0801     		.2byte	0x108
 2964 02e8 D5020000 		.4byte	0x2d5
 2965 02ec 14       		.uleb128 0x14
 2966 02ed 78050000 		.4byte	.LASF54
 2967 02f1 02       		.byte	0x2
 2968 02f2 0D01     		.2byte	0x10d
 2969 02f4 B8000000 		.4byte	0xb8
 2970 02f8 03       		.uleb128 0x3
 2971 02f9 04       		.byte	0x4
 2972 02fa 07       		.byte	0x7
 2973 02fb 2B050000 		.4byte	.LASF55
 2974 02ff 03       		.uleb128 0x3
 2975 0300 01       		.byte	0x1
 2976 0301 08       		.byte	0x8
 2977 0302 73030000 		.4byte	.LASF56
 2978 0306 02       		.uleb128 0x2
 2979 0307 0B080000 		.4byte	.LASF57
 2980 030b 07       		.byte	0x7
 2981 030c 2B       		.byte	0x2b
 2982 030d EF000000 		.4byte	0xef
 2983 0311 02       		.uleb128 0x2
 2984 0312 C3010000 		.4byte	.LASF58
 2985 0316 07       		.byte	0x7
 2986 0317 37       		.byte	0x37
 2987 0318 1C030000 		.4byte	0x31c
 2988 031c 0D       		.uleb128 0xd
 2989 031d 04       		.byte	0x4
 2990 031e 22030000 		.4byte	0x322
 2991 0322 15       		.uleb128 0x15
 2992 0323 32030000 		.4byte	0x332
 2993 0327 0C       		.uleb128 0xc
 2994 0328 FA000000 		.4byte	0xfa
 2995 032c 0C       		.uleb128 0xc
 2996 032d 06030000 		.4byte	0x306
 2997 0331 00       		.byte	0
 2998 0332 0D       		.uleb128 0xd
 2999 0333 04       		.byte	0x4
 3000 0334 38030000 		.4byte	0x338
 3001 0338 09       		.uleb128 0x9
 3002 0339 F5010000 		.4byte	.LASF60
 3003 033d 24       		.byte	0x24
 3004 033e 07       		.byte	0x7
 3005 033f 44       		.byte	0x44
 3006 0340 F9030000 		.4byte	0x3f9
 3007 0344 08       		.uleb128 0x8
 3008 0345 76617200 		.ascii	"var\000"
 3009 0349 07       		.byte	0x7
 3010 034a 46       		.byte	0x46
ARM GAS  C:\Users\pearlstl\AppData\Local\Temp\ccvteysW.s 			page 77


 3011 034b FA000000 		.4byte	0xfa
 3012 034f 00       		.byte	0
 3013 0350 07       		.uleb128 0x7
 3014 0351 19000000 		.4byte	.LASF61
 3015 0355 07       		.byte	0x7
 3016 0356 47       		.byte	0x47
 3017 0357 11030000 		.4byte	0x311
 3018 035b 04       		.byte	0x4
 3019 035c 07       		.uleb128 0x7
 3020 035d 39040000 		.4byte	.LASF62
 3021 0361 07       		.byte	0x7
 3022 0362 48       		.byte	0x48
 3023 0363 F9030000 		.4byte	0x3f9
 3024 0367 08       		.byte	0x8
 3025 0368 07       		.uleb128 0x7
 3026 0369 8D010000 		.4byte	.LASF63
 3027 036d 07       		.byte	0x7
 3028 036e 49       		.byte	0x49
 3029 036f 24040000 		.4byte	0x424
 3030 0373 0C       		.byte	0xc
 3031 0374 07       		.uleb128 0x7
 3032 0375 F1050000 		.4byte	.LASF64
 3033 0379 07       		.byte	0x7
 3034 037a 4A       		.byte	0x4a
 3035 037b D9000000 		.4byte	0xd9
 3036 037f 10       		.byte	0x10
 3037 0380 08       		.uleb128 0x8
 3038 0381 656E6400 		.ascii	"end\000"
 3039 0385 07       		.byte	0x7
 3040 0386 4B       		.byte	0x4b
 3041 0387 D9000000 		.4byte	0xd9
 3042 038b 14       		.byte	0x14
 3043 038c 07       		.uleb128 0x7
 3044 038d C0020000 		.4byte	.LASF65
 3045 0391 07       		.byte	0x7
 3046 0392 4C       		.byte	0x4c
 3047 0393 CE000000 		.4byte	0xce
 3048 0397 18       		.byte	0x18
 3049 0398 07       		.uleb128 0x7
 3050 0399 2E060000 		.4byte	.LASF66
 3051 039d 07       		.byte	0x7
 3052 039e 4D       		.byte	0x4d
 3053 039f C3000000 		.4byte	0xc3
 3054 03a3 1A       		.byte	0x1a
 3055 03a4 07       		.uleb128 0x7
 3056 03a5 2E000000 		.4byte	.LASF67
 3057 03a9 07       		.byte	0x7
 3058 03aa 4E       		.byte	0x4e
 3059 03ab CE000000 		.4byte	0xce
 3060 03af 1C       		.byte	0x1c
 3061 03b0 07       		.uleb128 0x7
 3062 03b1 13050000 		.4byte	.LASF68
 3063 03b5 07       		.byte	0x7
 3064 03b6 4F       		.byte	0x4f
 3065 03b7 CE000000 		.4byte	0xce
 3066 03bb 1E       		.byte	0x1e
 3067 03bc 0A       		.uleb128 0xa
ARM GAS  C:\Users\pearlstl\AppData\Local\Temp\ccvteysW.s 			page 78


 3068 03bd F2030000 		.4byte	.LASF70
 3069 03c1 07       		.byte	0x7
 3070 03c2 54       		.byte	0x54
 3071 03c3 B8000000 		.4byte	0xb8
 3072 03c7 01       		.byte	0x1
 3073 03c8 01       		.byte	0x1
 3074 03c9 07       		.byte	0x7
 3075 03ca 20       		.byte	0x20
 3076 03cb 0A       		.uleb128 0xa
 3077 03cc 7F030000 		.4byte	.LASF71
 3078 03d0 07       		.byte	0x7
 3079 03d1 55       		.byte	0x55
 3080 03d2 B8000000 		.4byte	0xb8
 3081 03d6 01       		.byte	0x1
 3082 03d7 01       		.byte	0x1
 3083 03d8 06       		.byte	0x6
 3084 03d9 20       		.byte	0x20
 3085 03da 0A       		.uleb128 0xa
 3086 03db 81050000 		.4byte	.LASF72
 3087 03df 07       		.byte	0x7
 3088 03e0 57       		.byte	0x57
 3089 03e1 B8000000 		.4byte	0xb8
 3090 03e5 01       		.byte	0x1
 3091 03e6 01       		.byte	0x1
 3092 03e7 05       		.byte	0x5
 3093 03e8 20       		.byte	0x20
 3094 03e9 0A       		.uleb128 0xa
 3095 03ea 27070000 		.4byte	.LASF73
 3096 03ee 07       		.byte	0x7
 3097 03ef 58       		.byte	0x58
 3098 03f0 E4000000 		.4byte	0xe4
 3099 03f4 04       		.byte	0x4
 3100 03f5 01       		.byte	0x1
 3101 03f6 1C       		.byte	0x1c
 3102 03f7 20       		.byte	0x20
 3103 03f8 00       		.byte	0
 3104 03f9 02       		.uleb128 0x2
 3105 03fa 56050000 		.4byte	.LASF74
 3106 03fe 07       		.byte	0x7
 3107 03ff 3E       		.byte	0x3e
 3108 0400 04040000 		.4byte	0x404
 3109 0404 0D       		.uleb128 0xd
 3110 0405 04       		.byte	0x4
 3111 0406 0A040000 		.4byte	0x40a
 3112 040a 0B       		.uleb128 0xb
 3113 040b 06030000 		.4byte	0x306
 3114 040f 19040000 		.4byte	0x419
 3115 0413 0C       		.uleb128 0xc
 3116 0414 19040000 		.4byte	0x419
 3117 0418 00       		.byte	0
 3118 0419 0D       		.uleb128 0xd
 3119 041a 04       		.byte	0x4
 3120 041b 1F040000 		.4byte	0x41f
 3121 041f 0E       		.uleb128 0xe
 3122 0420 38030000 		.4byte	0x338
 3123 0424 02       		.uleb128 0x2
 3124 0425 DF020000 		.4byte	.LASF75
ARM GAS  C:\Users\pearlstl\AppData\Local\Temp\ccvteysW.s 			page 79


 3125 0429 07       		.byte	0x7
 3126 042a 41       		.byte	0x41
 3127 042b 2F040000 		.4byte	0x42f
 3128 042f 0D       		.uleb128 0xd
 3129 0430 04       		.byte	0x4
 3130 0431 35040000 		.4byte	0x435
 3131 0435 15       		.uleb128 0x15
 3132 0436 40040000 		.4byte	0x440
 3133 043a 0C       		.uleb128 0xc
 3134 043b 32030000 		.4byte	0x332
 3135 043f 00       		.byte	0
 3136 0440 02       		.uleb128 0x2
 3137 0441 45030000 		.4byte	.LASF76
 3138 0445 07       		.byte	0x7
 3139 0446 59       		.byte	0x59
 3140 0447 38030000 		.4byte	0x338
 3141 044b 0F       		.uleb128 0xf
 3142 044c 01       		.byte	0x1
 3143 044d 42000000 		.4byte	0x42
 3144 0451 08       		.byte	0x8
 3145 0452 23       		.byte	0x23
 3146 0453 82040000 		.4byte	0x482
 3147 0457 10       		.uleb128 0x10
 3148 0458 EF060000 		.4byte	.LASF77
 3149 045c 00       		.byte	0
 3150 045d 10       		.uleb128 0x10
 3151 045e 51040000 		.4byte	.LASF78
 3152 0462 01       		.byte	0x1
 3153 0463 10       		.uleb128 0x10
 3154 0464 00030000 		.4byte	.LASF79
 3155 0468 02       		.byte	0x2
 3156 0469 10       		.uleb128 0x10
 3157 046a 8E050000 		.4byte	.LASF80
 3158 046e 04       		.byte	0x4
 3159 046f 10       		.uleb128 0x10
 3160 0470 8E000000 		.4byte	.LASF81
 3161 0474 08       		.byte	0x8
 3162 0475 10       		.uleb128 0x10
 3163 0476 FB030000 		.4byte	.LASF82
 3164 047a 0F       		.byte	0xf
 3165 047b 10       		.uleb128 0x10
 3166 047c AD020000 		.4byte	.LASF83
 3167 0480 10       		.byte	0x10
 3168 0481 00       		.byte	0
 3169 0482 02       		.uleb128 0x2
 3170 0483 FA070000 		.4byte	.LASF84
 3171 0487 08       		.byte	0x8
 3172 0488 2C       		.byte	0x2c
 3173 0489 B8000000 		.4byte	0xb8
 3174 048d 0F       		.uleb128 0xf
 3175 048e 01       		.byte	0x1
 3176 048f 42000000 		.4byte	0x42
 3177 0493 08       		.byte	0x8
 3178 0494 2F       		.byte	0x2f
 3179 0495 A6040000 		.4byte	0x4a6
 3180 0499 10       		.uleb128 0x10
 3181 049a 96010000 		.4byte	.LASF85
ARM GAS  C:\Users\pearlstl\AppData\Local\Temp\ccvteysW.s 			page 80


 3182 049e 00       		.byte	0
 3183 049f 10       		.uleb128 0x10
 3184 04a0 CC040000 		.4byte	.LASF86
 3185 04a4 01       		.byte	0x1
 3186 04a5 00       		.byte	0
 3187 04a6 02       		.uleb128 0x2
 3188 04a7 A2030000 		.4byte	.LASF87
 3189 04ab 08       		.byte	0x8
 3190 04ac 33       		.byte	0x33
 3191 04ad B8000000 		.4byte	0xb8
 3192 04b1 06       		.uleb128 0x6
 3193 04b2 08       		.byte	0x8
 3194 04b3 08       		.byte	0x8
 3195 04b4 48       		.byte	0x48
 3196 04b5 EA040000 		.4byte	0x4ea
 3197 04b9 07       		.uleb128 0x7
 3198 04ba D9020000 		.4byte	.LASF88
 3199 04be 08       		.byte	0x8
 3200 04bf 4A       		.byte	0x4a
 3201 04c0 E0020000 		.4byte	0x2e0
 3202 04c4 00       		.byte	0
 3203 04c5 07       		.uleb128 0x7
 3204 04c6 FA020000 		.4byte	.LASF89
 3205 04ca 08       		.byte	0x8
 3206 04cb 4B       		.byte	0x4b
 3207 04cc EF000000 		.4byte	0xef
 3208 04d0 04       		.byte	0x4
 3209 04d1 07       		.uleb128 0x7
 3210 04d2 74020000 		.4byte	.LASF90
 3211 04d6 08       		.byte	0x8
 3212 04d7 4C       		.byte	0x4c
 3213 04d8 82040000 		.4byte	0x482
 3214 04dc 06       		.byte	0x6
 3215 04dd 08       		.uleb128 0x8
 3216 04de 6F706100 		.ascii	"opa\000"
 3217 04e2 08       		.byte	0x8
 3218 04e3 4D       		.byte	0x4d
 3219 04e4 EC020000 		.4byte	0x2ec
 3220 04e8 07       		.byte	0x7
 3221 04e9 00       		.byte	0
 3222 04ea 06       		.uleb128 0x6
 3223 04eb 08       		.byte	0x8
 3224 04ec 08       		.byte	0x8
 3225 04ed 51       		.byte	0x51
 3226 04ee 17050000 		.4byte	0x517
 3227 04f2 07       		.uleb128 0x7
 3228 04f3 D9020000 		.4byte	.LASF88
 3229 04f7 08       		.byte	0x8
 3230 04f8 53       		.byte	0x53
 3231 04f9 E0020000 		.4byte	0x2e0
 3232 04fd 00       		.byte	0
 3233 04fe 07       		.uleb128 0x7
 3234 04ff FA020000 		.4byte	.LASF89
 3235 0503 08       		.byte	0x8
 3236 0504 54       		.byte	0x54
 3237 0505 EF000000 		.4byte	0xef
 3238 0509 04       		.byte	0x4
ARM GAS  C:\Users\pearlstl\AppData\Local\Temp\ccvteysW.s 			page 81


 3239 050a 07       		.uleb128 0x7
 3240 050b 9D060000 		.4byte	.LASF91
 3241 050f 08       		.byte	0x8
 3242 0510 55       		.byte	0x55
 3243 0511 A6040000 		.4byte	0x4a6
 3244 0515 06       		.byte	0x6
 3245 0516 00       		.byte	0
 3246 0517 06       		.uleb128 0x6
 3247 0518 0A       		.byte	0xa
 3248 0519 08       		.byte	0x8
 3249 051a 58       		.byte	0x58
 3250 051b 5C050000 		.4byte	0x55c
 3251 051f 08       		.uleb128 0x8
 3252 0520 746F7000 		.ascii	"top\000"
 3253 0524 08       		.byte	0x8
 3254 0525 5A       		.byte	0x5a
 3255 0526 EF000000 		.4byte	0xef
 3256 052a 00       		.byte	0
 3257 052b 07       		.uleb128 0x7
 3258 052c 78030000 		.4byte	.LASF92
 3259 0530 08       		.byte	0x8
 3260 0531 5B       		.byte	0x5b
 3261 0532 EF000000 		.4byte	0xef
 3262 0536 02       		.byte	0x2
 3263 0537 07       		.uleb128 0x7
 3264 0538 CD050000 		.4byte	.LASF93
 3265 053c 08       		.byte	0x8
 3266 053d 5C       		.byte	0x5c
 3267 053e EF000000 		.4byte	0xef
 3268 0542 04       		.byte	0x4
 3269 0543 07       		.uleb128 0x7
 3270 0544 C1030000 		.4byte	.LASF94
 3271 0548 08       		.byte	0x8
 3272 0549 5D       		.byte	0x5d
 3273 054a EF000000 		.4byte	0xef
 3274 054e 06       		.byte	0x6
 3275 054f 07       		.uleb128 0x7
 3276 0550 00020000 		.4byte	.LASF95
 3277 0554 08       		.byte	0x8
 3278 0555 5E       		.byte	0x5e
 3279 0556 EF000000 		.4byte	0xef
 3280 055a 08       		.byte	0x8
 3281 055b 00       		.byte	0
 3282 055c 06       		.uleb128 0x6
 3283 055d 28       		.byte	0x28
 3284 055e 08       		.byte	0x8
 3285 055f 41       		.byte	0x41
 3286 0560 B9050000 		.4byte	0x5b9
 3287 0564 07       		.uleb128 0x7
 3288 0565 4B050000 		.4byte	.LASF96
 3289 0569 08       		.byte	0x8
 3290 056a 43       		.byte	0x43
 3291 056b E0020000 		.4byte	0x2e0
 3292 056f 00       		.byte	0
 3293 0570 07       		.uleb128 0x7
 3294 0571 20050000 		.4byte	.LASF97
 3295 0575 08       		.byte	0x8
ARM GAS  C:\Users\pearlstl\AppData\Local\Temp\ccvteysW.s 			page 82


 3296 0576 44       		.byte	0x44
 3297 0577 E0020000 		.4byte	0x2e0
 3298 057b 04       		.byte	0x4
 3299 057c 07       		.uleb128 0x7
 3300 057d 87060000 		.4byte	.LASF98
 3301 0581 08       		.byte	0x8
 3302 0582 45       		.byte	0x45
 3303 0583 EF000000 		.4byte	0xef
 3304 0587 08       		.byte	0x8
 3305 0588 08       		.uleb128 0x8
 3306 0589 6F706100 		.ascii	"opa\000"
 3307 058d 08       		.byte	0x8
 3308 058e 46       		.byte	0x46
 3309 058f EC020000 		.4byte	0x2ec
 3310 0593 0A       		.byte	0xa
 3311 0594 07       		.uleb128 0x7
 3312 0595 A6020000 		.4byte	.LASF99
 3313 0599 08       		.byte	0x8
 3314 059a 4E       		.byte	0x4e
 3315 059b B1040000 		.4byte	0x4b1
 3316 059f 0C       		.byte	0xc
 3317 05a0 07       		.uleb128 0x7
 3318 05a1 08070000 		.4byte	.LASF100
 3319 05a5 08       		.byte	0x8
 3320 05a6 56       		.byte	0x56
 3321 05a7 EA040000 		.4byte	0x4ea
 3322 05ab 14       		.byte	0x14
 3323 05ac 07       		.uleb128 0x7
 3324 05ad EA030000 		.4byte	.LASF101
 3325 05b1 08       		.byte	0x8
 3326 05b2 5F       		.byte	0x5f
 3327 05b3 17050000 		.4byte	0x517
 3328 05b7 1C       		.byte	0x1c
 3329 05b8 00       		.byte	0
 3330 05b9 06       		.uleb128 0x6
 3331 05ba 14       		.byte	0x14
 3332 05bb 08       		.byte	0x8
 3333 05bc 63       		.byte	0x63
 3334 05bd 0A060000 		.4byte	0x60a
 3335 05c1 07       		.uleb128 0x7
 3336 05c2 D9020000 		.4byte	.LASF88
 3337 05c6 08       		.byte	0x8
 3338 05c7 65       		.byte	0x65
 3339 05c8 E0020000 		.4byte	0x2e0
 3340 05cc 00       		.byte	0
 3341 05cd 07       		.uleb128 0x7
 3342 05ce 23020000 		.4byte	.LASF102
 3343 05d2 08       		.byte	0x8
 3344 05d3 66       		.byte	0x66
 3345 05d4 E0020000 		.4byte	0x2e0
 3346 05d8 04       		.byte	0x4
 3347 05d9 07       		.uleb128 0x7
 3348 05da 11060000 		.4byte	.LASF103
 3349 05de 08       		.byte	0x8
 3350 05df 67       		.byte	0x67
 3351 05e0 0A060000 		.4byte	0x60a
 3352 05e4 08       		.byte	0x8
ARM GAS  C:\Users\pearlstl\AppData\Local\Temp\ccvteysW.s 			page 83


 3353 05e5 07       		.uleb128 0x7
 3354 05e6 3E050000 		.4byte	.LASF104
 3355 05ea 08       		.byte	0x8
 3356 05eb 68       		.byte	0x68
 3357 05ec EF000000 		.4byte	0xef
 3358 05f0 0C       		.byte	0xc
 3359 05f1 07       		.uleb128 0x7
 3360 05f2 3A030000 		.4byte	.LASF105
 3361 05f6 08       		.byte	0x8
 3362 05f7 69       		.byte	0x69
 3363 05f8 EF000000 		.4byte	0xef
 3364 05fc 0E       		.byte	0xe
 3365 05fd 08       		.uleb128 0x8
 3366 05fe 6F706100 		.ascii	"opa\000"
 3367 0602 08       		.byte	0x8
 3368 0603 6A       		.byte	0x6a
 3369 0604 EC020000 		.4byte	0x2ec
 3370 0608 10       		.byte	0x10
 3371 0609 00       		.byte	0
 3372 060a 0D       		.uleb128 0xd
 3373 060b 04       		.byte	0x4
 3374 060c 10060000 		.4byte	0x610
 3375 0610 0E       		.uleb128 0xe
 3376 0611 18020000 		.4byte	0x218
 3377 0615 06       		.uleb128 0x6
 3378 0616 08       		.byte	0x8
 3379 0617 08       		.byte	0x8
 3380 0618 6E       		.byte	0x6e
 3381 0619 42060000 		.4byte	0x642
 3382 061d 07       		.uleb128 0x7
 3383 061e D9020000 		.4byte	.LASF88
 3384 0622 08       		.byte	0x8
 3385 0623 70       		.byte	0x70
 3386 0624 E0020000 		.4byte	0x2e0
 3387 0628 00       		.byte	0
 3388 0629 07       		.uleb128 0x7
 3389 062a 67060000 		.4byte	.LASF106
 3390 062e 08       		.byte	0x8
 3391 062f 71       		.byte	0x71
 3392 0630 EC020000 		.4byte	0x2ec
 3393 0634 04       		.byte	0x4
 3394 0635 08       		.uleb128 0x8
 3395 0636 6F706100 		.ascii	"opa\000"
 3396 063a 08       		.byte	0x8
 3397 063b 72       		.byte	0x72
 3398 063c EC020000 		.4byte	0x2ec
 3399 0640 05       		.byte	0x5
 3400 0641 00       		.byte	0
 3401 0642 06       		.uleb128 0x6
 3402 0643 08       		.byte	0x8
 3403 0644 08       		.byte	0x8
 3404 0645 76       		.byte	0x76
 3405 0646 7E060000 		.4byte	0x67e
 3406 064a 07       		.uleb128 0x7
 3407 064b D9020000 		.4byte	.LASF88
 3408 064f 08       		.byte	0x8
 3409 0650 78       		.byte	0x78
ARM GAS  C:\Users\pearlstl\AppData\Local\Temp\ccvteysW.s 			page 84


 3410 0651 E0020000 		.4byte	0x2e0
 3411 0655 00       		.byte	0
 3412 0656 07       		.uleb128 0x7
 3413 0657 FA020000 		.4byte	.LASF89
 3414 065b 08       		.byte	0x8
 3415 065c 79       		.byte	0x79
 3416 065d EF000000 		.4byte	0xef
 3417 0661 04       		.byte	0x4
 3418 0662 08       		.uleb128 0x8
 3419 0663 6F706100 		.ascii	"opa\000"
 3420 0667 08       		.byte	0x8
 3421 0668 7A       		.byte	0x7a
 3422 0669 EC020000 		.4byte	0x2ec
 3423 066d 06       		.byte	0x6
 3424 066e 0A       		.uleb128 0xa
 3425 066f F2020000 		.4byte	.LASF107
 3426 0673 08       		.byte	0x8
 3427 0674 7B       		.byte	0x7b
 3428 0675 B8000000 		.4byte	0xb8
 3429 0679 01       		.byte	0x1
 3430 067a 01       		.byte	0x1
 3431 067b 07       		.byte	0x7
 3432 067c 07       		.byte	0x7
 3433 067d 00       		.byte	0
 3434 067e 06       		.uleb128 0x6
 3435 067f 50       		.byte	0x50
 3436 0680 08       		.byte	0x8
 3437 0681 3C       		.byte	0x3c
 3438 0682 C6060000 		.4byte	0x6c6
 3439 0686 0A       		.uleb128 0xa
 3440 0687 DF030000 		.4byte	.LASF108
 3441 068b 08       		.byte	0x8
 3442 068c 3E       		.byte	0x3e
 3443 068d B8000000 		.4byte	0xb8
 3444 0691 01       		.byte	0x1
 3445 0692 01       		.byte	0x1
 3446 0693 07       		.byte	0x7
 3447 0694 00       		.byte	0
 3448 0695 07       		.uleb128 0x7
 3449 0696 8E060000 		.4byte	.LASF109
 3450 069a 08       		.byte	0x8
 3451 069b 60       		.byte	0x60
 3452 069c 5C050000 		.4byte	0x55c
 3453 06a0 04       		.byte	0x4
 3454 06a1 07       		.uleb128 0x7
 3455 06a2 E5030000 		.4byte	.LASF110
 3456 06a6 08       		.byte	0x8
 3457 06a7 6B       		.byte	0x6b
 3458 06a8 B9050000 		.4byte	0x5b9
 3459 06ac 2C       		.byte	0x2c
 3460 06ad 07       		.uleb128 0x7
 3461 06ae 4B040000 		.4byte	.LASF111
 3462 06b2 08       		.byte	0x8
 3463 06b3 73       		.byte	0x73
 3464 06b4 15060000 		.4byte	0x615
 3465 06b8 40       		.byte	0x40
 3466 06b9 07       		.uleb128 0x7
ARM GAS  C:\Users\pearlstl\AppData\Local\Temp\ccvteysW.s 			page 85


 3467 06ba BB060000 		.4byte	.LASF112
 3468 06be 08       		.byte	0x8
 3469 06bf 7C       		.byte	0x7c
 3470 06c0 42060000 		.4byte	0x642
 3471 06c4 48       		.byte	0x48
 3472 06c5 00       		.byte	0
 3473 06c6 02       		.uleb128 0x2
 3474 06c7 78010000 		.4byte	.LASF113
 3475 06cb 08       		.byte	0x8
 3476 06cc 84       		.byte	0x84
 3477 06cd 7E060000 		.4byte	0x67e
 3478 06d1 06       		.uleb128 0x6
 3479 06d2 A8       		.byte	0xa8
 3480 06d3 08       		.byte	0x8
 3481 06d4 88       		.byte	0x88
 3482 06d5 0A070000 		.4byte	0x70a
 3483 06d9 07       		.uleb128 0x7
 3484 06da 79000000 		.4byte	.LASF114
 3485 06de 08       		.byte	0x8
 3486 06df 8A       		.byte	0x8a
 3487 06e0 C6060000 		.4byte	0x6c6
 3488 06e4 00       		.byte	0
 3489 06e5 07       		.uleb128 0x7
 3490 06e6 60070000 		.4byte	.LASF115
 3491 06ea 08       		.byte	0x8
 3492 06eb 8C       		.byte	0x8c
 3493 06ec C6060000 		.4byte	0x6c6
 3494 06f0 50       		.byte	0x50
 3495 06f1 07       		.uleb128 0x7
 3496 06f2 4C000000 		.4byte	.LASF116
 3497 06f6 08       		.byte	0x8
 3498 06f7 8D       		.byte	0x8d
 3499 06f8 0A070000 		.4byte	0x70a
 3500 06fc A0       		.byte	0xa0
 3501 06fd 07       		.uleb128 0x7
 3502 06fe 8D010000 		.4byte	.LASF63
 3503 0702 08       		.byte	0x8
 3504 0703 8E       		.byte	0x8e
 3505 0704 24040000 		.4byte	0x424
 3506 0708 A4       		.byte	0xa4
 3507 0709 00       		.byte	0
 3508 070a 0D       		.uleb128 0xd
 3509 070b 04       		.byte	0x4
 3510 070c C6060000 		.4byte	0x6c6
 3511 0710 02       		.uleb128 0x2
 3512 0711 79020000 		.4byte	.LASF117
 3513 0715 08       		.byte	0x8
 3514 0716 8F       		.byte	0x8f
 3515 0717 D1060000 		.4byte	0x6d1
 3516 071b 0D       		.uleb128 0xd
 3517 071c 04       		.byte	0x4
 3518 071d 21070000 		.4byte	0x721
 3519 0721 0E       		.uleb128 0xe
 3520 0722 C6060000 		.4byte	0x6c6
 3521 0726 16       		.uleb128 0x16
 3522 0727 B0050000 		.4byte	.LASF118
 3523 072b 02       		.byte	0x2
ARM GAS  C:\Users\pearlstl\AppData\Local\Temp\ccvteysW.s 			page 86


 3524 072c B001     		.2byte	0x1b0
 3525 072e E0020000 		.4byte	0x2e0
 3526 0732 03       		.byte	0x3
 3527 0733 66070000 		.4byte	0x766
 3528 0737 17       		.uleb128 0x17
 3529 0738 633100   		.ascii	"c1\000"
 3530 073b 02       		.byte	0x2
 3531 073c B001     		.2byte	0x1b0
 3532 073e E0020000 		.4byte	0x2e0
 3533 0742 17       		.uleb128 0x17
 3534 0743 633200   		.ascii	"c2\000"
 3535 0746 02       		.byte	0x2
 3536 0747 B001     		.2byte	0x1b0
 3537 0749 E0020000 		.4byte	0x2e0
 3538 074d 17       		.uleb128 0x17
 3539 074e 6D697800 		.ascii	"mix\000"
 3540 0752 02       		.byte	0x2
 3541 0753 B001     		.2byte	0x1b0
 3542 0755 B8000000 		.4byte	0xb8
 3543 0759 18       		.uleb128 0x18
 3544 075a 72657400 		.ascii	"ret\000"
 3545 075e 02       		.byte	0x2
 3546 075f B201     		.2byte	0x1b2
 3547 0761 E0020000 		.4byte	0x2e0
 3548 0765 00       		.byte	0
 3549 0766 16       		.uleb128 0x16
 3550 0767 B3030000 		.4byte	.LASF119
 3551 076b 02       		.byte	0x2
 3552 076c DD01     		.2byte	0x1dd
 3553 076e E0020000 		.4byte	0x2e0
 3554 0772 03       		.byte	0x3
 3555 0773 96070000 		.4byte	0x796
 3556 0777 17       		.uleb128 0x17
 3557 0778 7200     		.ascii	"r\000"
 3558 077a 02       		.byte	0x2
 3559 077b DD01     		.2byte	0x1dd
 3560 077d B8000000 		.4byte	0xb8
 3561 0781 17       		.uleb128 0x17
 3562 0782 6700     		.ascii	"g\000"
 3563 0784 02       		.byte	0x2
 3564 0785 DD01     		.2byte	0x1dd
 3565 0787 B8000000 		.4byte	0xb8
 3566 078b 17       		.uleb128 0x17
 3567 078c 6200     		.ascii	"b\000"
 3568 078e 02       		.byte	0x2
 3569 078f DD01     		.2byte	0x1dd
 3570 0791 B8000000 		.4byte	0xb8
 3571 0795 00       		.byte	0
 3572 0796 19       		.uleb128 0x19
 3573 0797 20080000 		.4byte	.LASF121
 3574 079b 01       		.byte	0x1
 3575 079c E3       		.byte	0xe3
 3576 079d 01       		.byte	0x1
 3577 079e B9070000 		.4byte	0x7b9
 3578 07a2 1A       		.uleb128 0x1a
 3579 07a3 1B080000 		.4byte	.LASF120
 3580 07a7 01       		.byte	0x1
ARM GAS  C:\Users\pearlstl\AppData\Local\Temp\ccvteysW.s 			page 87


 3581 07a8 E3       		.byte	0xe3
 3582 07a9 0A070000 		.4byte	0x70a
 3583 07ad 1B       		.uleb128 0x1b
 3584 07ae 73726300 		.ascii	"src\000"
 3585 07b2 01       		.byte	0x1
 3586 07b3 E3       		.byte	0xe3
 3587 07b4 1B070000 		.4byte	0x71b
 3588 07b8 00       		.byte	0
 3589 07b9 1C       		.uleb128 0x1c
 3590 07ba 49060000 		.4byte	.LASF124
 3591 07be 01       		.byte	0x1
 3592 07bf 5601     		.2byte	0x156
 3593 07c1 00000000 		.4byte	.LFB37
 3594 07c5 16000000 		.4byte	.LFE37-.LFB37
 3595 07c9 01       		.uleb128 0x1
 3596 07ca 9C       		.byte	0x9c
 3597 07cb 08080000 		.4byte	0x808
 3598 07cf 1D       		.uleb128 0x1d
 3599 07d0 6100     		.ascii	"a\000"
 3600 07d2 01       		.byte	0x1
 3601 07d3 5601     		.2byte	0x156
 3602 07d5 08080000 		.4byte	0x808
 3603 07d9 00000000 		.4byte	.LLST0
 3604 07dd 1E       		.uleb128 0x1e
 3605 07de 64736300 		.ascii	"dsc\000"
 3606 07e2 01       		.byte	0x1
 3607 07e3 5A01     		.2byte	0x15a
 3608 07e5 0E080000 		.4byte	0x80e
 3609 07e9 21000000 		.4byte	.LLST1
 3610 07ed 1F       		.uleb128 0x1f
 3611 07ee 0C000000 		.4byte	.LVL2
 3612 07f2 FE070000 		.4byte	0x7fe
 3613 07f6 20       		.uleb128 0x20
 3614 07f7 01       		.uleb128 0x1
 3615 07f8 50       		.byte	0x50
 3616 07f9 03       		.uleb128 0x3
 3617 07fa F3       		.byte	0xf3
 3618 07fb 01       		.uleb128 0x1
 3619 07fc 50       		.byte	0x50
 3620 07fd 00       		.byte	0
 3621 07fe 21       		.uleb128 0x21
 3622 07ff 16000000 		.4byte	.LVL4
 3623 0803 57110000 		.4byte	0x1157
 3624 0807 00       		.byte	0
 3625 0808 0D       		.uleb128 0xd
 3626 0809 04       		.byte	0x4
 3627 080a 40040000 		.4byte	0x440
 3628 080e 0D       		.uleb128 0xd
 3629 080f 04       		.byte	0x4
 3630 0810 10070000 		.4byte	0x710
 3631 0814 19       		.uleb128 0x19
 3632 0815 6A070000 		.4byte	.LASF122
 3633 0819 01       		.byte	0x1
 3634 081a EF       		.byte	0xef
 3635 081b 01       		.byte	0x1
 3636 081c 59080000 		.4byte	0x859
 3637 0820 1A       		.uleb128 0x1a
ARM GAS  C:\Users\pearlstl\AppData\Local\Temp\ccvteysW.s 			page 88


 3638 0821 F1050000 		.4byte	.LASF64
 3639 0825 01       		.byte	0x1
 3640 0826 EF       		.byte	0xef
 3641 0827 1B070000 		.4byte	0x71b
 3642 082b 1B       		.uleb128 0x1b
 3643 082c 656E6400 		.ascii	"end\000"
 3644 0830 01       		.byte	0x1
 3645 0831 EF       		.byte	0xef
 3646 0832 1B070000 		.4byte	0x71b
 3647 0836 1B       		.uleb128 0x1b
 3648 0837 72657300 		.ascii	"res\000"
 3649 083b 01       		.byte	0x1
 3650 083c EF       		.byte	0xef
 3651 083d 0A070000 		.4byte	0x70a
 3652 0841 1A       		.uleb128 0x1a
 3653 0842 72050000 		.4byte	.LASF123
 3654 0846 01       		.byte	0x1
 3655 0847 EF       		.byte	0xef
 3656 0848 CE000000 		.4byte	0xce
 3657 084c 18       		.uleb128 0x18
 3658 084d 6F706100 		.ascii	"opa\000"
 3659 0851 01       		.byte	0x1
 3660 0852 0301     		.2byte	0x103
 3661 0854 EC020000 		.4byte	0x2ec
 3662 0858 00       		.byte	0
 3663 0859 1C       		.uleb128 0x1c
 3664 085a A7010000 		.4byte	.LASF125
 3665 085e 01       		.byte	0x1
 3666 085f 4601     		.2byte	0x146
 3667 0861 00000000 		.4byte	.LFB36
 3668 0865 46040000 		.4byte	.LFE36-.LFB36
 3669 0869 01       		.uleb128 0x1
 3670 086a 9C       		.byte	0x9c
 3671 086b 150A0000 		.4byte	0xa15
 3672 086f 1D       		.uleb128 0x1d
 3673 0870 64736300 		.ascii	"dsc\000"
 3674 0874 01       		.byte	0x1
 3675 0875 4601     		.2byte	0x146
 3676 0877 0E080000 		.4byte	0x80e
 3677 087b 3F000000 		.4byte	.LLST2
 3678 087f 1D       		.uleb128 0x1d
 3679 0880 76616C00 		.ascii	"val\000"
 3680 0884 01       		.byte	0x1
 3681 0885 4601     		.2byte	0x146
 3682 0887 06030000 		.4byte	0x306
 3683 088b 84000000 		.4byte	.LLST3
 3684 088f 22       		.uleb128 0x22
 3685 0890 F1050000 		.4byte	.LASF64
 3686 0894 01       		.byte	0x1
 3687 0895 4801     		.2byte	0x148
 3688 0897 1B070000 		.4byte	0x71b
 3689 089b C6000000 		.4byte	.LLST4
 3690 089f 1E       		.uleb128 0x1e
 3691 08a0 656E6400 		.ascii	"end\000"
 3692 08a4 01       		.byte	0x1
 3693 08a5 4901     		.2byte	0x149
 3694 08a7 1B070000 		.4byte	0x71b
ARM GAS  C:\Users\pearlstl\AppData\Local\Temp\ccvteysW.s 			page 89


 3695 08ab 0B010000 		.4byte	.LLST5
 3696 08af 1E       		.uleb128 0x1e
 3697 08b0 61637400 		.ascii	"act\000"
 3698 08b4 01       		.byte	0x1
 3699 08b5 4A01     		.2byte	0x14a
 3700 08b7 0A070000 		.4byte	0x70a
 3701 08bb 5D010000 		.4byte	.LLST6
 3702 08bf 23       		.uleb128 0x23
 3703 08c0 14080000 		.4byte	0x814
 3704 08c4 04000000 		.4byte	.LBB150
 3705 08c8 00000000 		.4byte	.Ldebug_ranges0+0
 3706 08cc 01       		.byte	0x1
 3707 08cd 4C01     		.2byte	0x14c
 3708 08cf 020A0000 		.4byte	0xa02
 3709 08d3 24       		.uleb128 0x24
 3710 08d4 41080000 		.4byte	0x841
 3711 08d8 86010000 		.4byte	.LLST7
 3712 08dc 24       		.uleb128 0x24
 3713 08dd 36080000 		.4byte	0x836
 3714 08e1 BD010000 		.4byte	.LLST8
 3715 08e5 24       		.uleb128 0x24
 3716 08e6 2B080000 		.4byte	0x82b
 3717 08ea E6010000 		.4byte	.LLST9
 3718 08ee 24       		.uleb128 0x24
 3719 08ef 20080000 		.4byte	0x820
 3720 08f3 18020000 		.4byte	.LLST10
 3721 08f7 25       		.uleb128 0x25
 3722 08f8 00000000 		.4byte	.Ldebug_ranges0+0
 3723 08fc 26       		.uleb128 0x26
 3724 08fd 4C080000 		.4byte	0x84c
 3725 0901 23       		.uleb128 0x23
 3726 0902 26070000 		.4byte	0x726
 3727 0906 DC010000 		.4byte	.LBB152
 3728 090a 30000000 		.4byte	.Ldebug_ranges0+0x30
 3729 090e 01       		.byte	0x1
 3730 090f 0501     		.2byte	0x105
 3731 0911 26090000 		.4byte	0x926
 3732 0915 27       		.uleb128 0x27
 3733 0916 4D070000 		.4byte	0x74d
 3734 091a 25       		.uleb128 0x25
 3735 091b 30000000 		.4byte	.Ldebug_ranges0+0x30
 3736 091f 26       		.uleb128 0x26
 3737 0920 59070000 		.4byte	0x759
 3738 0924 00       		.byte	0
 3739 0925 00       		.byte	0
 3740 0926 23       		.uleb128 0x23
 3741 0927 26070000 		.4byte	0x726
 3742 092b 20020000 		.4byte	.LBB164
 3743 092f 68000000 		.4byte	.Ldebug_ranges0+0x68
 3744 0933 01       		.byte	0x1
 3745 0934 0601     		.2byte	0x106
 3746 0936 4B090000 		.4byte	0x94b
 3747 093a 27       		.uleb128 0x27
 3748 093b 4D070000 		.4byte	0x74d
 3749 093f 25       		.uleb128 0x25
 3750 0940 68000000 		.4byte	.Ldebug_ranges0+0x68
 3751 0944 26       		.uleb128 0x26
ARM GAS  C:\Users\pearlstl\AppData\Local\Temp\ccvteysW.s 			page 90


 3752 0945 59070000 		.4byte	0x759
 3753 0949 00       		.byte	0
 3754 094a 00       		.byte	0
 3755 094b 23       		.uleb128 0x23
 3756 094c 26070000 		.4byte	0x726
 3757 0950 64020000 		.4byte	.LBB174
 3758 0954 98000000 		.4byte	.Ldebug_ranges0+0x98
 3759 0958 01       		.byte	0x1
 3760 0959 0701     		.2byte	0x107
 3761 095b 70090000 		.4byte	0x970
 3762 095f 27       		.uleb128 0x27
 3763 0960 4D070000 		.4byte	0x74d
 3764 0964 25       		.uleb128 0x25
 3765 0965 98000000 		.4byte	.Ldebug_ranges0+0x98
 3766 0969 26       		.uleb128 0x26
 3767 096a 59070000 		.4byte	0x759
 3768 096e 00       		.byte	0
 3769 096f 00       		.byte	0
 3770 0970 23       		.uleb128 0x23
 3771 0971 26070000 		.4byte	0x726
 3772 0975 A8020000 		.4byte	.LBB184
 3773 0979 C8000000 		.4byte	.Ldebug_ranges0+0xc8
 3774 097d 01       		.byte	0x1
 3775 097e 0801     		.2byte	0x108
 3776 0980 95090000 		.4byte	0x995
 3777 0984 27       		.uleb128 0x27
 3778 0985 4D070000 		.4byte	0x74d
 3779 0989 25       		.uleb128 0x25
 3780 098a C8000000 		.4byte	.Ldebug_ranges0+0xc8
 3781 098e 26       		.uleb128 0x26
 3782 098f 59070000 		.4byte	0x759
 3783 0993 00       		.byte	0
 3784 0994 00       		.byte	0
 3785 0995 23       		.uleb128 0x23
 3786 0996 26070000 		.4byte	0x726
 3787 099a EC020000 		.4byte	.LBB192
 3788 099e F0000000 		.4byte	.Ldebug_ranges0+0xf0
 3789 09a2 01       		.byte	0x1
 3790 09a3 0901     		.2byte	0x109
 3791 09a5 BA090000 		.4byte	0x9ba
 3792 09a9 27       		.uleb128 0x27
 3793 09aa 4D070000 		.4byte	0x74d
 3794 09ae 25       		.uleb128 0x25
 3795 09af F0000000 		.4byte	.Ldebug_ranges0+0xf0
 3796 09b3 26       		.uleb128 0x26
 3797 09b4 59070000 		.4byte	0x759
 3798 09b8 00       		.byte	0
 3799 09b9 00       		.byte	0
 3800 09ba 23       		.uleb128 0x23
 3801 09bb 26070000 		.4byte	0x726
 3802 09bf 38030000 		.4byte	.LBB202
 3803 09c3 20010000 		.4byte	.Ldebug_ranges0+0x120
 3804 09c7 01       		.byte	0x1
 3805 09c8 0A01     		.2byte	0x10a
 3806 09ca DF090000 		.4byte	0x9df
 3807 09ce 27       		.uleb128 0x27
 3808 09cf 4D070000 		.4byte	0x74d
ARM GAS  C:\Users\pearlstl\AppData\Local\Temp\ccvteysW.s 			page 91


 3809 09d3 25       		.uleb128 0x25
 3810 09d4 20010000 		.4byte	.Ldebug_ranges0+0x120
 3811 09d8 26       		.uleb128 0x26
 3812 09d9 59070000 		.4byte	0x759
 3813 09dd 00       		.byte	0
 3814 09de 00       		.byte	0
 3815 09df 28       		.uleb128 0x28
 3816 09e0 26070000 		.4byte	0x726
 3817 09e4 84030000 		.4byte	.LBB212
 3818 09e8 50010000 		.4byte	.Ldebug_ranges0+0x150
 3819 09ec 01       		.byte	0x1
 3820 09ed 0B01     		.2byte	0x10b
 3821 09ef 27       		.uleb128 0x27
 3822 09f0 4D070000 		.4byte	0x74d
 3823 09f4 25       		.uleb128 0x25
 3824 09f5 50010000 		.4byte	.Ldebug_ranges0+0x150
 3825 09f9 26       		.uleb128 0x26
 3826 09fa 59070000 		.4byte	0x759
 3827 09fe 00       		.byte	0
 3828 09ff 00       		.byte	0
 3829 0a00 00       		.byte	0
 3830 0a01 00       		.byte	0
 3831 0a02 21       		.uleb128 0x21
 3832 0a03 0E040000 		.4byte	.LVL26
 3833 0a07 62110000 		.4byte	0x1162
 3834 0a0b 21       		.uleb128 0x21
 3835 0a0c 40040000 		.4byte	.LVL30
 3836 0a10 62110000 		.4byte	0x1162
 3837 0a14 00       		.byte	0
 3838 0a15 29       		.uleb128 0x29
 3839 0a16 62040000 		.4byte	.LASF126
 3840 0a1a 01       		.byte	0x1
 3841 0a1b 44       		.byte	0x44
 3842 0a1c 00000000 		.4byte	.LFB31
 3843 0a20 1C050000 		.4byte	.LFE31-.LFB31
 3844 0a24 01       		.uleb128 0x1
 3845 0a25 9C       		.byte	0x9c
 3846 0a26 450D0000 		.4byte	0xd45
 3847 0a2a 2A       		.uleb128 0x2a
 3848 0a2b 96070000 		.4byte	0x796
 3849 0a2f 06000000 		.4byte	.LBB230
 3850 0a33 80010000 		.4byte	.Ldebug_ranges0+0x180
 3851 0a37 01       		.byte	0x1
 3852 0a38 75       		.byte	0x75
 3853 0a39 6F0A0000 		.4byte	0xa6f
 3854 0a3d 24       		.uleb128 0x24
 3855 0a3e AD070000 		.4byte	0x7ad
 3856 0a42 41020000 		.4byte	.LLST11
 3857 0a46 24       		.uleb128 0x24
 3858 0a47 A2070000 		.4byte	0x7a2
 3859 0a4b 59020000 		.4byte	.LLST12
 3860 0a4f 2B       		.uleb128 0x2b
 3861 0a50 0A010000 		.4byte	.LVL33
 3862 0a54 6E110000 		.4byte	0x116e
 3863 0a58 20       		.uleb128 0x20
 3864 0a59 01       		.uleb128 0x1
 3865 0a5a 50       		.byte	0x50
ARM GAS  C:\Users\pearlstl\AppData\Local\Temp\ccvteysW.s 			page 92


 3866 0a5b 02       		.uleb128 0x2
 3867 0a5c 79       		.byte	0x79
 3868 0a5d 00       		.sleb128 0
 3869 0a5e 20       		.uleb128 0x20
 3870 0a5f 01       		.uleb128 0x1
 3871 0a60 51       		.byte	0x51
 3872 0a61 05       		.uleb128 0x5
 3873 0a62 03       		.byte	0x3
 3874 0a63 00000000 		.4byte	lv_style_scr
 3875 0a67 20       		.uleb128 0x20
 3876 0a68 01       		.uleb128 0x1
 3877 0a69 52       		.byte	0x52
 3878 0a6a 02       		.uleb128 0x2
 3879 0a6b 08       		.byte	0x8
 3880 0a6c 50       		.byte	0x50
 3881 0a6d 00       		.byte	0
 3882 0a6e 00       		.byte	0
 3883 0a6f 2A       		.uleb128 0x2a
 3884 0a70 96070000 		.4byte	0x796
 3885 0a74 10000000 		.4byte	.LBB234
 3886 0a78 A0010000 		.4byte	.Ldebug_ranges0+0x1a0
 3887 0a7c 01       		.byte	0x1
 3888 0a7d 7C       		.byte	0x7c
 3889 0a7e B10A0000 		.4byte	0xab1
 3890 0a82 24       		.uleb128 0x24
 3891 0a83 AD070000 		.4byte	0x7ad
 3892 0a87 71020000 		.4byte	.LLST13
 3893 0a8b 24       		.uleb128 0x24
 3894 0a8c A2070000 		.4byte	0x7a2
 3895 0a90 89020000 		.4byte	.LLST14
 3896 0a94 2B       		.uleb128 0x2b
 3897 0a95 28010000 		.4byte	.LVL35
 3898 0a99 6E110000 		.4byte	0x116e
 3899 0a9d 20       		.uleb128 0x20
 3900 0a9e 01       		.uleb128 0x1
 3901 0a9f 50       		.byte	0x50
 3902 0aa0 02       		.uleb128 0x2
 3903 0aa1 77       		.byte	0x77
 3904 0aa2 00       		.sleb128 0
 3905 0aa3 20       		.uleb128 0x20
 3906 0aa4 01       		.uleb128 0x1
 3907 0aa5 51       		.byte	0x51
 3908 0aa6 02       		.uleb128 0x2
 3909 0aa7 79       		.byte	0x79
 3910 0aa8 00       		.sleb128 0
 3911 0aa9 20       		.uleb128 0x20
 3912 0aaa 01       		.uleb128 0x1
 3913 0aab 52       		.byte	0x52
 3914 0aac 02       		.uleb128 0x2
 3915 0aad 08       		.byte	0x8
 3916 0aae 50       		.byte	0x50
 3917 0aaf 00       		.byte	0
 3918 0ab0 00       		.byte	0
 3919 0ab1 2A       		.uleb128 0x2a
 3920 0ab2 96070000 		.4byte	0x796
 3921 0ab6 12000000 		.4byte	.LBB238
 3922 0aba C0010000 		.4byte	.Ldebug_ranges0+0x1c0
ARM GAS  C:\Users\pearlstl\AppData\Local\Temp\ccvteysW.s 			page 93


 3923 0abe 01       		.byte	0x1
 3924 0abf 84       		.byte	0x84
 3925 0ac0 F30A0000 		.4byte	0xaf3
 3926 0ac4 24       		.uleb128 0x24
 3927 0ac5 AD070000 		.4byte	0x7ad
 3928 0ac9 A1020000 		.4byte	.LLST15
 3929 0acd 24       		.uleb128 0x24
 3930 0ace A2070000 		.4byte	0x7a2
 3931 0ad2 B9020000 		.4byte	.LLST16
 3932 0ad6 2B       		.uleb128 0x2b
 3933 0ad7 78010000 		.4byte	.LVL37
 3934 0adb 6E110000 		.4byte	0x116e
 3935 0adf 20       		.uleb128 0x20
 3936 0ae0 01       		.uleb128 0x1
 3937 0ae1 50       		.byte	0x50
 3938 0ae2 02       		.uleb128 0x2
 3939 0ae3 75       		.byte	0x75
 3940 0ae4 00       		.sleb128 0
 3941 0ae5 20       		.uleb128 0x20
 3942 0ae6 01       		.uleb128 0x1
 3943 0ae7 51       		.byte	0x51
 3944 0ae8 02       		.uleb128 0x2
 3945 0ae9 79       		.byte	0x79
 3946 0aea 00       		.sleb128 0
 3947 0aeb 20       		.uleb128 0x20
 3948 0aec 01       		.uleb128 0x1
 3949 0aed 52       		.byte	0x52
 3950 0aee 02       		.uleb128 0x2
 3951 0aef 08       		.byte	0x8
 3952 0af0 50       		.byte	0x50
 3953 0af1 00       		.byte	0
 3954 0af2 00       		.byte	0
 3955 0af3 2A       		.uleb128 0x2a
 3956 0af4 96070000 		.4byte	0x796
 3957 0af8 14000000 		.4byte	.LBB242
 3958 0afc E0010000 		.4byte	.Ldebug_ranges0+0x1e0
 3959 0b00 01       		.byte	0x1
 3960 0b01 90       		.byte	0x90
 3961 0b02 350B0000 		.4byte	0xb35
 3962 0b06 24       		.uleb128 0x24
 3963 0b07 AD070000 		.4byte	0x7ad
 3964 0b0b D1020000 		.4byte	.LLST17
 3965 0b0f 24       		.uleb128 0x24
 3966 0b10 A2070000 		.4byte	0x7a2
 3967 0b14 E9020000 		.4byte	.LLST18
 3968 0b18 2B       		.uleb128 0x2b
 3969 0b19 E2010000 		.4byte	.LVL39
 3970 0b1d 6E110000 		.4byte	0x116e
 3971 0b21 20       		.uleb128 0x20
 3972 0b22 01       		.uleb128 0x1
 3973 0b23 50       		.byte	0x50
 3974 0b24 02       		.uleb128 0x2
 3975 0b25 76       		.byte	0x76
 3976 0b26 00       		.sleb128 0
 3977 0b27 20       		.uleb128 0x20
 3978 0b28 01       		.uleb128 0x1
 3979 0b29 51       		.byte	0x51
ARM GAS  C:\Users\pearlstl\AppData\Local\Temp\ccvteysW.s 			page 94


 3980 0b2a 02       		.uleb128 0x2
 3981 0b2b 75       		.byte	0x75
 3982 0b2c 00       		.sleb128 0
 3983 0b2d 20       		.uleb128 0x20
 3984 0b2e 01       		.uleb128 0x1
 3985 0b2f 52       		.byte	0x52
 3986 0b30 02       		.uleb128 0x2
 3987 0b31 08       		.byte	0x8
 3988 0b32 50       		.byte	0x50
 3989 0b33 00       		.byte	0
 3990 0b34 00       		.byte	0
 3991 0b35 2A       		.uleb128 0x2a
 3992 0b36 96070000 		.4byte	0x796
 3993 0b3a E8010000 		.4byte	.LBB258
 3994 0b3e 10020000 		.4byte	.Ldebug_ranges0+0x210
 3995 0b42 01       		.byte	0x1
 3996 0b43 99       		.byte	0x99
 3997 0b44 770B0000 		.4byte	0xb77
 3998 0b48 24       		.uleb128 0x24
 3999 0b49 AD070000 		.4byte	0x7ad
 4000 0b4d 01030000 		.4byte	.LLST19
 4001 0b51 24       		.uleb128 0x24
 4002 0b52 A2070000 		.4byte	0x7a2
 4003 0b56 19030000 		.4byte	.LLST20
 4004 0b5a 2B       		.uleb128 0x2b
 4005 0b5b 4E020000 		.4byte	.LVL41
 4006 0b5f 6E110000 		.4byte	0x116e
 4007 0b63 20       		.uleb128 0x20
 4008 0b64 01       		.uleb128 0x1
 4009 0b65 50       		.byte	0x50
 4010 0b66 02       		.uleb128 0x2
 4011 0b67 7B       		.byte	0x7b
 4012 0b68 00       		.sleb128 0
 4013 0b69 20       		.uleb128 0x20
 4014 0b6a 01       		.uleb128 0x1
 4015 0b6b 51       		.byte	0x51
 4016 0b6c 02       		.uleb128 0x2
 4017 0b6d 79       		.byte	0x79
 4018 0b6e 00       		.sleb128 0
 4019 0b6f 20       		.uleb128 0x20
 4020 0b70 01       		.uleb128 0x1
 4021 0b71 52       		.byte	0x52
 4022 0b72 02       		.uleb128 0x2
 4023 0b73 08       		.byte	0x8
 4024 0b74 50       		.byte	0x50
 4025 0b75 00       		.byte	0
 4026 0b76 00       		.byte	0
 4027 0b77 2A       		.uleb128 0x2a
 4028 0b78 96070000 		.4byte	0x796
 4029 0b7c 52020000 		.4byte	.LBB264
 4030 0b80 30020000 		.4byte	.Ldebug_ranges0+0x230
 4031 0b84 01       		.byte	0x1
 4032 0b85 9F       		.byte	0x9f
 4033 0b86 BC0B0000 		.4byte	0xbbc
 4034 0b8a 24       		.uleb128 0x24
 4035 0b8b AD070000 		.4byte	0x7ad
 4036 0b8f 31030000 		.4byte	.LLST21
ARM GAS  C:\Users\pearlstl\AppData\Local\Temp\ccvteysW.s 			page 95


 4037 0b93 24       		.uleb128 0x24
 4038 0b94 A2070000 		.4byte	0x7a2
 4039 0b98 49030000 		.4byte	.LLST22
 4040 0b9c 2B       		.uleb128 0x2b
 4041 0b9d 6E020000 		.4byte	.LVL43
 4042 0ba1 6E110000 		.4byte	0x116e
 4043 0ba5 20       		.uleb128 0x20
 4044 0ba6 01       		.uleb128 0x1
 4045 0ba7 50       		.byte	0x50
 4046 0ba8 05       		.uleb128 0x5
 4047 0ba9 03       		.byte	0x3
 4048 0baa 00000000 		.4byte	lv_style_transp_fit
 4049 0bae 20       		.uleb128 0x20
 4050 0baf 01       		.uleb128 0x1
 4051 0bb0 51       		.byte	0x51
 4052 0bb1 02       		.uleb128 0x2
 4053 0bb2 7B       		.byte	0x7b
 4054 0bb3 00       		.sleb128 0
 4055 0bb4 20       		.uleb128 0x20
 4056 0bb5 01       		.uleb128 0x1
 4057 0bb6 52       		.byte	0x52
 4058 0bb7 02       		.uleb128 0x2
 4059 0bb8 08       		.byte	0x8
 4060 0bb9 50       		.byte	0x50
 4061 0bba 00       		.byte	0
 4062 0bbb 00       		.byte	0
 4063 0bbc 2A       		.uleb128 0x2a
 4064 0bbd 96070000 		.4byte	0x796
 4065 0bc1 6E020000 		.4byte	.LBB272
 4066 0bc5 58020000 		.4byte	.Ldebug_ranges0+0x258
 4067 0bc9 01       		.byte	0x1
 4068 0bca AA       		.byte	0xaa
 4069 0bcb FE0B0000 		.4byte	0xbfe
 4070 0bcf 24       		.uleb128 0x24
 4071 0bd0 AD070000 		.4byte	0x7ad
 4072 0bd4 61030000 		.4byte	.LLST23
 4073 0bd8 24       		.uleb128 0x24
 4074 0bd9 A2070000 		.4byte	0x7a2
 4075 0bdd 79030000 		.4byte	.LLST24
 4076 0be1 2B       		.uleb128 0x2b
 4077 0be2 9E020000 		.4byte	.LVL47
 4078 0be6 6E110000 		.4byte	0x116e
 4079 0bea 20       		.uleb128 0x20
 4080 0beb 01       		.uleb128 0x1
 4081 0bec 50       		.byte	0x50
 4082 0bed 02       		.uleb128 0x2
 4083 0bee 75       		.byte	0x75
 4084 0bef 00       		.sleb128 0
 4085 0bf0 20       		.uleb128 0x20
 4086 0bf1 01       		.uleb128 0x1
 4087 0bf2 51       		.byte	0x51
 4088 0bf3 02       		.uleb128 0x2
 4089 0bf4 79       		.byte	0x79
 4090 0bf5 00       		.sleb128 0
 4091 0bf6 20       		.uleb128 0x20
 4092 0bf7 01       		.uleb128 0x1
 4093 0bf8 52       		.byte	0x52
ARM GAS  C:\Users\pearlstl\AppData\Local\Temp\ccvteysW.s 			page 96


 4094 0bf9 02       		.uleb128 0x2
 4095 0bfa 08       		.byte	0x8
 4096 0bfb 50       		.byte	0x50
 4097 0bfc 00       		.byte	0
 4098 0bfd 00       		.byte	0
 4099 0bfe 2A       		.uleb128 0x2a
 4100 0bff 96070000 		.4byte	0x796
 4101 0c03 74020000 		.4byte	.LBB276
 4102 0c07 78020000 		.4byte	.Ldebug_ranges0+0x278
 4103 0c0b 01       		.byte	0x1
 4104 0c0c A6       		.byte	0xa6
 4105 0c0d 3D0C0000 		.4byte	0xc3d
 4106 0c11 24       		.uleb128 0x24
 4107 0c12 AD070000 		.4byte	0x7ad
 4108 0c16 91030000 		.4byte	.LLST25
 4109 0c1a 24       		.uleb128 0x24
 4110 0c1b A2070000 		.4byte	0x7a2
 4111 0c1f A9030000 		.4byte	.LLST26
 4112 0c23 2B       		.uleb128 0x2b
 4113 0c24 8E020000 		.4byte	.LVL45
 4114 0c28 6E110000 		.4byte	0x116e
 4115 0c2c 20       		.uleb128 0x20
 4116 0c2d 01       		.uleb128 0x1
 4117 0c2e 50       		.byte	0x50
 4118 0c2f 05       		.uleb128 0x5
 4119 0c30 03       		.byte	0x3
 4120 0c31 00000000 		.4byte	lv_style_transp_tight
 4121 0c35 20       		.uleb128 0x20
 4122 0c36 01       		.uleb128 0x1
 4123 0c37 52       		.byte	0x52
 4124 0c38 02       		.uleb128 0x2
 4125 0c39 08       		.byte	0x8
 4126 0c3a 50       		.byte	0x50
 4127 0c3b 00       		.byte	0
 4128 0c3c 00       		.byte	0
 4129 0c3d 2A       		.uleb128 0x2a
 4130 0c3e 96070000 		.4byte	0x796
 4131 0c42 86020000 		.4byte	.LBB281
 4132 0c46 98020000 		.4byte	.Ldebug_ranges0+0x298
 4133 0c4a 01       		.byte	0x1
 4134 0c4b BC       		.byte	0xbc
 4135 0c4c 7F0C0000 		.4byte	0xc7f
 4136 0c50 24       		.uleb128 0x24
 4137 0c51 AD070000 		.4byte	0x7ad
 4138 0c55 C1030000 		.4byte	.LLST27
 4139 0c59 24       		.uleb128 0x24
 4140 0c5a A2070000 		.4byte	0x7a2
 4141 0c5e D9030000 		.4byte	.LLST28
 4142 0c62 2B       		.uleb128 0x2b
 4143 0c63 34030000 		.4byte	.LVL49
 4144 0c67 6E110000 		.4byte	0x116e
 4145 0c6b 20       		.uleb128 0x20
 4146 0c6c 01       		.uleb128 0x1
 4147 0c6d 50       		.byte	0x50
 4148 0c6e 02       		.uleb128 0x2
 4149 0c6f 77       		.byte	0x77
 4150 0c70 00       		.sleb128 0
ARM GAS  C:\Users\pearlstl\AppData\Local\Temp\ccvteysW.s 			page 97


 4151 0c71 20       		.uleb128 0x20
 4152 0c72 01       		.uleb128 0x1
 4153 0c73 51       		.byte	0x51
 4154 0c74 02       		.uleb128 0x2
 4155 0c75 75       		.byte	0x75
 4156 0c76 00       		.sleb128 0
 4157 0c77 20       		.uleb128 0x20
 4158 0c78 01       		.uleb128 0x1
 4159 0c79 52       		.byte	0x52
 4160 0c7a 02       		.uleb128 0x2
 4161 0c7b 08       		.byte	0x8
 4162 0c7c 50       		.byte	0x50
 4163 0c7d 00       		.byte	0
 4164 0c7e 00       		.byte	0
 4165 0c7f 2A       		.uleb128 0x2a
 4166 0c80 96070000 		.4byte	0x796
 4167 0c84 88020000 		.4byte	.LBB286
 4168 0c88 C0020000 		.4byte	.Ldebug_ranges0+0x2c0
 4169 0c8c 01       		.byte	0x1
 4170 0c8d C4       		.byte	0xc4
 4171 0c8e C10C0000 		.4byte	0xcc1
 4172 0c92 24       		.uleb128 0x24
 4173 0c93 AD070000 		.4byte	0x7ad
 4174 0c97 F1030000 		.4byte	.LLST29
 4175 0c9b 24       		.uleb128 0x24
 4176 0c9c A2070000 		.4byte	0x7a2
 4177 0ca0 09040000 		.4byte	.LLST30
 4178 0ca4 2B       		.uleb128 0x2b
 4179 0ca5 98030000 		.4byte	.LVL51
 4180 0ca9 6E110000 		.4byte	0x116e
 4181 0cad 20       		.uleb128 0x20
 4182 0cae 01       		.uleb128 0x1
 4183 0caf 50       		.byte	0x50
 4184 0cb0 02       		.uleb128 0x2
 4185 0cb1 76       		.byte	0x76
 4186 0cb2 00       		.sleb128 0
 4187 0cb3 20       		.uleb128 0x20
 4188 0cb4 01       		.uleb128 0x1
 4189 0cb5 51       		.byte	0x51
 4190 0cb6 02       		.uleb128 0x2
 4191 0cb7 75       		.byte	0x75
 4192 0cb8 00       		.sleb128 0
 4193 0cb9 20       		.uleb128 0x20
 4194 0cba 01       		.uleb128 0x1
 4195 0cbb 52       		.byte	0x52
 4196 0cbc 02       		.uleb128 0x2
 4197 0cbd 08       		.byte	0x8
 4198 0cbe 50       		.byte	0x50
 4199 0cbf 00       		.byte	0
 4200 0cc0 00       		.byte	0
 4201 0cc1 2A       		.uleb128 0x2a
 4202 0cc2 96070000 		.4byte	0x796
 4203 0cc6 9C030000 		.4byte	.LBB298
 4204 0cca E0020000 		.4byte	.Ldebug_ranges0+0x2e0
 4205 0cce 01       		.byte	0x1
 4206 0ccf CD       		.byte	0xcd
 4207 0cd0 030D0000 		.4byte	0xd03
ARM GAS  C:\Users\pearlstl\AppData\Local\Temp\ccvteysW.s 			page 98


 4208 0cd4 24       		.uleb128 0x24
 4209 0cd5 AD070000 		.4byte	0x7ad
 4210 0cd9 21040000 		.4byte	.LLST31
 4211 0cdd 24       		.uleb128 0x24
 4212 0cde A2070000 		.4byte	0x7a2
 4213 0ce2 39040000 		.4byte	.LLST32
 4214 0ce6 2B       		.uleb128 0x2b
 4215 0ce7 54040000 		.4byte	.LVL53
 4216 0ceb 6E110000 		.4byte	0x116e
 4217 0cef 20       		.uleb128 0x20
 4218 0cf0 01       		.uleb128 0x1
 4219 0cf1 50       		.byte	0x50
 4220 0cf2 02       		.uleb128 0x2
 4221 0cf3 78       		.byte	0x78
 4222 0cf4 00       		.sleb128 0
 4223 0cf5 20       		.uleb128 0x20
 4224 0cf6 01       		.uleb128 0x1
 4225 0cf7 51       		.byte	0x51
 4226 0cf8 02       		.uleb128 0x2
 4227 0cf9 76       		.byte	0x76
 4228 0cfa 00       		.sleb128 0
 4229 0cfb 20       		.uleb128 0x20
 4230 0cfc 01       		.uleb128 0x1
 4231 0cfd 52       		.byte	0x52
 4232 0cfe 02       		.uleb128 0x2
 4233 0cff 08       		.byte	0x8
 4234 0d00 50       		.byte	0x50
 4235 0d01 00       		.byte	0
 4236 0d02 00       		.byte	0
 4237 0d03 2C       		.uleb128 0x2c
 4238 0d04 96070000 		.4byte	0x796
 4239 0d08 58040000 		.4byte	.LBB306
 4240 0d0c 08030000 		.4byte	.Ldebug_ranges0+0x308
 4241 0d10 01       		.byte	0x1
 4242 0d11 D5       		.byte	0xd5
 4243 0d12 24       		.uleb128 0x24
 4244 0d13 AD070000 		.4byte	0x7ad
 4245 0d17 51040000 		.4byte	.LLST33
 4246 0d1b 24       		.uleb128 0x24
 4247 0d1c A2070000 		.4byte	0x7a2
 4248 0d20 69040000 		.4byte	.LLST34
 4249 0d24 2B       		.uleb128 0x2b
 4250 0d25 C4040000 		.4byte	.LVL55
 4251 0d29 6E110000 		.4byte	0x116e
 4252 0d2d 20       		.uleb128 0x20
 4253 0d2e 01       		.uleb128 0x1
 4254 0d2f 50       		.byte	0x50
 4255 0d30 02       		.uleb128 0x2
 4256 0d31 77       		.byte	0x77
 4257 0d32 00       		.sleb128 0
 4258 0d33 20       		.uleb128 0x20
 4259 0d34 01       		.uleb128 0x1
 4260 0d35 51       		.byte	0x51
 4261 0d36 05       		.uleb128 0x5
 4262 0d37 03       		.byte	0x3
 4263 0d38 00000000 		.4byte	lv_style_btn_rel
 4264 0d3c 20       		.uleb128 0x20
ARM GAS  C:\Users\pearlstl\AppData\Local\Temp\ccvteysW.s 			page 99


 4265 0d3d 01       		.uleb128 0x1
 4266 0d3e 52       		.byte	0x52
 4267 0d3f 02       		.uleb128 0x2
 4268 0d40 08       		.byte	0x8
 4269 0d41 50       		.byte	0x50
 4270 0d42 00       		.byte	0
 4271 0d43 00       		.byte	0
 4272 0d44 00       		.byte	0
 4273 0d45 2D       		.uleb128 0x2d
 4274 0d46 96070000 		.4byte	0x796
 4275 0d4a 00000000 		.4byte	.LFB32
 4276 0d4e 06000000 		.4byte	.LFE32-.LFB32
 4277 0d52 01       		.uleb128 0x1
 4278 0d53 9C       		.byte	0x9c
 4279 0d54 890D0000 		.4byte	0xd89
 4280 0d58 24       		.uleb128 0x24
 4281 0d59 A2070000 		.4byte	0x7a2
 4282 0d5d 81040000 		.4byte	.LLST35
 4283 0d61 24       		.uleb128 0x24
 4284 0d62 AD070000 		.4byte	0x7ad
 4285 0d66 A2040000 		.4byte	.LLST36
 4286 0d6a 2E       		.uleb128 0x2e
 4287 0d6b 06000000 		.4byte	.LVL57
 4288 0d6f 6E110000 		.4byte	0x116e
 4289 0d73 20       		.uleb128 0x20
 4290 0d74 01       		.uleb128 0x1
 4291 0d75 50       		.byte	0x50
 4292 0d76 03       		.uleb128 0x3
 4293 0d77 F3       		.byte	0xf3
 4294 0d78 01       		.uleb128 0x1
 4295 0d79 50       		.byte	0x50
 4296 0d7a 20       		.uleb128 0x20
 4297 0d7b 01       		.uleb128 0x1
 4298 0d7c 51       		.byte	0x51
 4299 0d7d 03       		.uleb128 0x3
 4300 0d7e F3       		.byte	0xf3
 4301 0d7f 01       		.uleb128 0x1
 4302 0d80 51       		.byte	0x51
 4303 0d81 20       		.uleb128 0x20
 4304 0d82 01       		.uleb128 0x1
 4305 0d83 52       		.byte	0x52
 4306 0d84 02       		.uleb128 0x2
 4307 0d85 08       		.byte	0x8
 4308 0d86 50       		.byte	0x50
 4309 0d87 00       		.byte	0
 4310 0d88 00       		.byte	0
 4311 0d89 2D       		.uleb128 0x2d
 4312 0d8a 14080000 		.4byte	0x814
 4313 0d8e 00000000 		.4byte	.LFB33
 4314 0d92 2C040000 		.4byte	.LFE33-.LFB33
 4315 0d96 01       		.uleb128 0x1
 4316 0d97 9C       		.byte	0x9c
 4317 0d98 C30E0000 		.4byte	0xec3
 4318 0d9c 24       		.uleb128 0x24
 4319 0d9d 20080000 		.4byte	0x820
 4320 0da1 C3040000 		.4byte	.LLST37
 4321 0da5 24       		.uleb128 0x24
ARM GAS  C:\Users\pearlstl\AppData\Local\Temp\ccvteysW.s 			page 100


 4322 0da6 2B080000 		.4byte	0x82b
 4323 0daa EF040000 		.4byte	.LLST38
 4324 0dae 2F       		.uleb128 0x2f
 4325 0daf 36080000 		.4byte	0x836
 4326 0db3 01       		.uleb128 0x1
 4327 0db4 52       		.byte	0x52
 4328 0db5 24       		.uleb128 0x24
 4329 0db6 41080000 		.4byte	0x841
 4330 0dba 34050000 		.4byte	.LLST39
 4331 0dbe 26       		.uleb128 0x26
 4332 0dbf 4C080000 		.4byte	0x84c
 4333 0dc3 23       		.uleb128 0x23
 4334 0dc4 26070000 		.4byte	0x726
 4335 0dc8 D2010000 		.4byte	.LBB314
 4336 0dcc 30030000 		.4byte	.Ldebug_ranges0+0x330
 4337 0dd0 01       		.byte	0x1
 4338 0dd1 0501     		.2byte	0x105
 4339 0dd3 E80D0000 		.4byte	0xde8
 4340 0dd7 27       		.uleb128 0x27
 4341 0dd8 4D070000 		.4byte	0x74d
 4342 0ddc 25       		.uleb128 0x25
 4343 0ddd 30030000 		.4byte	.Ldebug_ranges0+0x330
 4344 0de1 26       		.uleb128 0x26
 4345 0de2 59070000 		.4byte	0x759
 4346 0de6 00       		.byte	0
 4347 0de7 00       		.byte	0
 4348 0de8 23       		.uleb128 0x23
 4349 0de9 26070000 		.4byte	0x726
 4350 0ded 18020000 		.4byte	.LBB326
 4351 0df1 68030000 		.4byte	.Ldebug_ranges0+0x368
 4352 0df5 01       		.byte	0x1
 4353 0df6 0601     		.2byte	0x106
 4354 0df8 0D0E0000 		.4byte	0xe0d
 4355 0dfc 27       		.uleb128 0x27
 4356 0dfd 4D070000 		.4byte	0x74d
 4357 0e01 25       		.uleb128 0x25
 4358 0e02 68030000 		.4byte	.Ldebug_ranges0+0x368
 4359 0e06 26       		.uleb128 0x26
 4360 0e07 59070000 		.4byte	0x759
 4361 0e0b 00       		.byte	0
 4362 0e0c 00       		.byte	0
 4363 0e0d 23       		.uleb128 0x23
 4364 0e0e 26070000 		.4byte	0x726
 4365 0e12 5E020000 		.4byte	.LBB336
 4366 0e16 98030000 		.4byte	.Ldebug_ranges0+0x398
 4367 0e1a 01       		.byte	0x1
 4368 0e1b 0701     		.2byte	0x107
 4369 0e1d 320E0000 		.4byte	0xe32
 4370 0e21 27       		.uleb128 0x27
 4371 0e22 4D070000 		.4byte	0x74d
 4372 0e26 25       		.uleb128 0x25
 4373 0e27 98030000 		.4byte	.Ldebug_ranges0+0x398
 4374 0e2b 26       		.uleb128 0x26
 4375 0e2c 59070000 		.4byte	0x759
 4376 0e30 00       		.byte	0
 4377 0e31 00       		.byte	0
 4378 0e32 23       		.uleb128 0x23
ARM GAS  C:\Users\pearlstl\AppData\Local\Temp\ccvteysW.s 			page 101


 4379 0e33 26070000 		.4byte	0x726
 4380 0e37 A4020000 		.4byte	.LBB346
 4381 0e3b C8030000 		.4byte	.Ldebug_ranges0+0x3c8
 4382 0e3f 01       		.byte	0x1
 4383 0e40 0801     		.2byte	0x108
 4384 0e42 570E0000 		.4byte	0xe57
 4385 0e46 27       		.uleb128 0x27
 4386 0e47 4D070000 		.4byte	0x74d
 4387 0e4b 25       		.uleb128 0x25
 4388 0e4c C8030000 		.4byte	.Ldebug_ranges0+0x3c8
 4389 0e50 26       		.uleb128 0x26
 4390 0e51 59070000 		.4byte	0x759
 4391 0e55 00       		.byte	0
 4392 0e56 00       		.byte	0
 4393 0e57 23       		.uleb128 0x23
 4394 0e58 26070000 		.4byte	0x726
 4395 0e5c EA020000 		.4byte	.LBB354
 4396 0e60 F0030000 		.4byte	.Ldebug_ranges0+0x3f0
 4397 0e64 01       		.byte	0x1
 4398 0e65 0901     		.2byte	0x109
 4399 0e67 7C0E0000 		.4byte	0xe7c
 4400 0e6b 27       		.uleb128 0x27
 4401 0e6c 4D070000 		.4byte	0x74d
 4402 0e70 25       		.uleb128 0x25
 4403 0e71 F0030000 		.4byte	.Ldebug_ranges0+0x3f0
 4404 0e75 26       		.uleb128 0x26
 4405 0e76 59070000 		.4byte	0x759
 4406 0e7a 00       		.byte	0
 4407 0e7b 00       		.byte	0
 4408 0e7c 23       		.uleb128 0x23
 4409 0e7d 26070000 		.4byte	0x726
 4410 0e81 36030000 		.4byte	.LBB364
 4411 0e85 20040000 		.4byte	.Ldebug_ranges0+0x420
 4412 0e89 01       		.byte	0x1
 4413 0e8a 0A01     		.2byte	0x10a
 4414 0e8c A10E0000 		.4byte	0xea1
 4415 0e90 27       		.uleb128 0x27
 4416 0e91 4D070000 		.4byte	0x74d
 4417 0e95 25       		.uleb128 0x25
 4418 0e96 20040000 		.4byte	.Ldebug_ranges0+0x420
 4419 0e9a 26       		.uleb128 0x26
 4420 0e9b 59070000 		.4byte	0x759
 4421 0e9f 00       		.byte	0
 4422 0ea0 00       		.byte	0
 4423 0ea1 28       		.uleb128 0x28
 4424 0ea2 26070000 		.4byte	0x726
 4425 0ea6 82030000 		.4byte	.LBB374
 4426 0eaa 50040000 		.4byte	.Ldebug_ranges0+0x450
 4427 0eae 01       		.byte	0x1
 4428 0eaf 0B01     		.2byte	0x10b
 4429 0eb1 27       		.uleb128 0x27
 4430 0eb2 4D070000 		.4byte	0x74d
 4431 0eb6 25       		.uleb128 0x25
 4432 0eb7 50040000 		.4byte	.Ldebug_ranges0+0x450
 4433 0ebb 26       		.uleb128 0x26
 4434 0ebc 59070000 		.4byte	0x759
 4435 0ec0 00       		.byte	0
ARM GAS  C:\Users\pearlstl\AppData\Local\Temp\ccvteysW.s 			page 102


 4436 0ec1 00       		.byte	0
 4437 0ec2 00       		.byte	0
 4438 0ec3 30       		.uleb128 0x30
 4439 0ec4 2D020000 		.4byte	.LASF127
 4440 0ec8 01       		.byte	0x1
 4441 0ec9 1E01     		.2byte	0x11e
 4442 0ecb 00000000 		.4byte	.LFB34
 4443 0ecf 58000000 		.4byte	.LFE34-.LFB34
 4444 0ed3 01       		.uleb128 0x1
 4445 0ed4 9C       		.byte	0x9c
 4446 0ed5 A90F0000 		.4byte	0xfa9
 4447 0ed9 1D       		.uleb128 0x1d
 4448 0eda 6100     		.ascii	"a\000"
 4449 0edc 01       		.byte	0x1
 4450 0edd 1E01     		.2byte	0x11e
 4451 0edf 08080000 		.4byte	0x808
 4452 0ee3 79050000 		.4byte	.LLST40
 4453 0ee7 1E       		.uleb128 0x1e
 4454 0ee8 64736300 		.ascii	"dsc\000"
 4455 0eec 01       		.byte	0x1
 4456 0eed 2701     		.2byte	0x127
 4457 0eef 0E080000 		.4byte	0x80e
 4458 0ef3 A5050000 		.4byte	.LLST41
 4459 0ef7 23       		.uleb128 0x23
 4460 0ef8 96070000 		.4byte	0x796
 4461 0efc 26000000 		.4byte	.LBB384
 4462 0f00 80040000 		.4byte	.Ldebug_ranges0+0x480
 4463 0f04 01       		.byte	0x1
 4464 0f05 2D01     		.2byte	0x12d
 4465 0f07 3D0F0000 		.4byte	0xf3d
 4466 0f0b 24       		.uleb128 0x24
 4467 0f0c AD070000 		.4byte	0x7ad
 4468 0f10 C3050000 		.4byte	.LLST42
 4469 0f14 24       		.uleb128 0x24
 4470 0f15 A2070000 		.4byte	0x7a2
 4471 0f19 DB050000 		.4byte	.LLST43
 4472 0f1d 2B       		.uleb128 0x2b
 4473 0f1e 38000000 		.4byte	.LVL84
 4474 0f22 6E110000 		.4byte	0x116e
 4475 0f26 20       		.uleb128 0x20
 4476 0f27 01       		.uleb128 0x1
 4477 0f28 50       		.byte	0x50
 4478 0f29 02       		.uleb128 0x2
 4479 0f2a 75       		.byte	0x75
 4480 0f2b 00       		.sleb128 0
 4481 0f2c 20       		.uleb128 0x20
 4482 0f2d 01       		.uleb128 0x1
 4483 0f2e 51       		.byte	0x51
 4484 0f2f 05       		.uleb128 0x5
 4485 0f30 03       		.byte	0x3
 4486 0f31 00000000 		.4byte	lv_style_plain
 4487 0f35 20       		.uleb128 0x20
 4488 0f36 01       		.uleb128 0x1
 4489 0f37 52       		.byte	0x52
 4490 0f38 02       		.uleb128 0x2
 4491 0f39 08       		.byte	0x8
 4492 0f3a 50       		.byte	0x50
ARM GAS  C:\Users\pearlstl\AppData\Local\Temp\ccvteysW.s 			page 103


 4493 0f3b 00       		.byte	0
 4494 0f3c 00       		.byte	0
 4495 0f3d 31       		.uleb128 0x31
 4496 0f3e 96070000 		.4byte	0x796
 4497 0f42 38000000 		.4byte	.LBB388
 4498 0f46 0A000000 		.4byte	.LBE388-.LBB388
 4499 0f4a 01       		.byte	0x1
 4500 0f4b 2E01     		.2byte	0x12e
 4501 0f4d 840F0000 		.4byte	0xf84
 4502 0f51 24       		.uleb128 0x24
 4503 0f52 AD070000 		.4byte	0x7ad
 4504 0f56 F9050000 		.4byte	.LLST44
 4505 0f5a 24       		.uleb128 0x24
 4506 0f5b A2070000 		.4byte	0x7a2
 4507 0f5f 11060000 		.4byte	.LLST45
 4508 0f63 2B       		.uleb128 0x2b
 4509 0f64 42000000 		.4byte	.LVL86
 4510 0f68 6E110000 		.4byte	0x116e
 4511 0f6c 20       		.uleb128 0x20
 4512 0f6d 01       		.uleb128 0x1
 4513 0f6e 50       		.byte	0x50
 4514 0f6f 03       		.uleb128 0x3
 4515 0f70 75       		.byte	0x75
 4516 0f71 D000     		.sleb128 80
 4517 0f73 20       		.uleb128 0x20
 4518 0f74 01       		.uleb128 0x1
 4519 0f75 51       		.byte	0x51
 4520 0f76 05       		.uleb128 0x5
 4521 0f77 03       		.byte	0x3
 4522 0f78 00000000 		.4byte	lv_style_plain
 4523 0f7c 20       		.uleb128 0x20
 4524 0f7d 01       		.uleb128 0x1
 4525 0f7e 52       		.byte	0x52
 4526 0f7f 02       		.uleb128 0x2
 4527 0f80 08       		.byte	0x8
 4528 0f81 50       		.byte	0x50
 4529 0f82 00       		.byte	0
 4530 0f83 00       		.byte	0
 4531 0f84 32       		.uleb128 0x32
 4532 0f85 0A000000 		.4byte	.LVL81
 4533 0f89 77110000 		.4byte	0x1177
 4534 0f8d 980F0000 		.4byte	0xf98
 4535 0f91 20       		.uleb128 0x20
 4536 0f92 01       		.uleb128 0x1
 4537 0f93 50       		.byte	0x50
 4538 0f94 02       		.uleb128 0x2
 4539 0f95 74       		.byte	0x74
 4540 0f96 00       		.sleb128 0
 4541 0f97 00       		.byte	0
 4542 0f98 2B       		.uleb128 0x2b
 4543 0f99 24000000 		.4byte	.LVL82
 4544 0f9d 82110000 		.4byte	0x1182
 4545 0fa1 20       		.uleb128 0x20
 4546 0fa2 01       		.uleb128 0x1
 4547 0fa3 50       		.byte	0x50
 4548 0fa4 02       		.uleb128 0x2
 4549 0fa5 08       		.byte	0x8
ARM GAS  C:\Users\pearlstl\AppData\Local\Temp\ccvteysW.s 			page 104


 4550 0fa6 A8       		.byte	0xa8
 4551 0fa7 00       		.byte	0
 4552 0fa8 00       		.byte	0
 4553 0fa9 30       		.uleb128 0x30
 4554 0faa 00000000 		.4byte	.LASF128
 4555 0fae 01       		.byte	0x1
 4556 0faf 3301     		.2byte	0x133
 4557 0fb1 00000000 		.4byte	.LFB35
 4558 0fb5 34000000 		.4byte	.LFE35-.LFB35
 4559 0fb9 01       		.uleb128 0x1
 4560 0fba 9C       		.byte	0x9c
 4561 0fbb 6F100000 		.4byte	0x106f
 4562 0fbf 1D       		.uleb128 0x1d
 4563 0fc0 6100     		.ascii	"a\000"
 4564 0fc2 01       		.byte	0x1
 4565 0fc3 3301     		.2byte	0x133
 4566 0fc5 08080000 		.4byte	0x808
 4567 0fc9 40060000 		.4byte	.LLST46
 4568 0fcd 33       		.uleb128 0x33
 4569 0fce D6060000 		.4byte	.LASF129
 4570 0fd2 01       		.byte	0x1
 4571 0fd3 3301     		.2byte	0x133
 4572 0fd5 0A070000 		.4byte	0x70a
 4573 0fd9 61060000 		.4byte	.LLST47
 4574 0fdd 33       		.uleb128 0x33
 4575 0fde F1050000 		.4byte	.LASF64
 4576 0fe2 01       		.byte	0x1
 4577 0fe3 3301     		.2byte	0x133
 4578 0fe5 1B070000 		.4byte	0x71b
 4579 0fe9 98060000 		.4byte	.LLST48
 4580 0fed 1D       		.uleb128 0x1d
 4581 0fee 656E6400 		.ascii	"end\000"
 4582 0ff2 01       		.byte	0x1
 4583 0ff3 3301     		.2byte	0x133
 4584 0ff5 1B070000 		.4byte	0x71b
 4585 0ff9 DA060000 		.4byte	.LLST49
 4586 0ffd 1E       		.uleb128 0x1e
 4587 0ffe 64736300 		.ascii	"dsc\000"
 4588 1002 01       		.byte	0x1
 4589 1003 3601     		.2byte	0x136
 4590 1005 0E080000 		.4byte	0x80e
 4591 1009 06070000 		.4byte	.LLST50
 4592 100d 32       		.uleb128 0x32
 4593 100e 1C000000 		.4byte	.LVL94
 4594 1012 6E110000 		.4byte	0x116e
 4595 1016 2D100000 		.4byte	0x102d
 4596 101a 20       		.uleb128 0x20
 4597 101b 01       		.uleb128 0x1
 4598 101c 50       		.byte	0x50
 4599 101d 02       		.uleb128 0x2
 4600 101e 75       		.byte	0x75
 4601 101f 00       		.sleb128 0
 4602 1020 20       		.uleb128 0x20
 4603 1021 01       		.uleb128 0x1
 4604 1022 51       		.byte	0x51
 4605 1023 02       		.uleb128 0x2
 4606 1024 77       		.byte	0x77
ARM GAS  C:\Users\pearlstl\AppData\Local\Temp\ccvteysW.s 			page 105


 4607 1025 00       		.sleb128 0
 4608 1026 20       		.uleb128 0x20
 4609 1027 01       		.uleb128 0x1
 4610 1028 52       		.byte	0x52
 4611 1029 02       		.uleb128 0x2
 4612 102a 74       		.byte	0x74
 4613 102b 00       		.sleb128 0
 4614 102c 00       		.byte	0
 4615 102d 32       		.uleb128 0x32
 4616 102e 26000000 		.4byte	.LVL95
 4617 1032 6E110000 		.4byte	0x116e
 4618 1036 50100000 		.4byte	0x1050
 4619 103a 20       		.uleb128 0x20
 4620 103b 01       		.uleb128 0x1
 4621 103c 50       		.byte	0x50
 4622 103d 05       		.uleb128 0x5
 4623 103e 75       		.byte	0x75
 4624 103f 00       		.sleb128 0
 4625 1040 74       		.byte	0x74
 4626 1041 00       		.sleb128 0
 4627 1042 22       		.byte	0x22
 4628 1043 20       		.uleb128 0x20
 4629 1044 01       		.uleb128 0x1
 4630 1045 51       		.byte	0x51
 4631 1046 02       		.uleb128 0x2
 4632 1047 78       		.byte	0x78
 4633 1048 00       		.sleb128 0
 4634 1049 20       		.uleb128 0x20
 4635 104a 01       		.uleb128 0x1
 4636 104b 52       		.byte	0x52
 4637 104c 02       		.uleb128 0x2
 4638 104d 74       		.byte	0x74
 4639 104e 00       		.sleb128 0
 4640 104f 00       		.byte	0
 4641 1050 2E       		.uleb128 0x2e
 4642 1051 34000000 		.4byte	.LVL97
 4643 1055 6E110000 		.4byte	0x116e
 4644 1059 20       		.uleb128 0x20
 4645 105a 01       		.uleb128 0x1
 4646 105b 50       		.byte	0x50
 4647 105c 03       		.uleb128 0x3
 4648 105d F3       		.byte	0xf3
 4649 105e 01       		.uleb128 0x1
 4650 105f 51       		.byte	0x51
 4651 1060 20       		.uleb128 0x20
 4652 1061 01       		.uleb128 0x1
 4653 1062 51       		.byte	0x51
 4654 1063 03       		.uleb128 0x3
 4655 1064 F3       		.byte	0xf3
 4656 1065 01       		.uleb128 0x1
 4657 1066 52       		.byte	0x52
 4658 1067 20       		.uleb128 0x20
 4659 1068 01       		.uleb128 0x1
 4660 1069 52       		.byte	0x52
 4661 106a 02       		.uleb128 0x2
 4662 106b 08       		.byte	0x8
 4663 106c 50       		.byte	0x50
ARM GAS  C:\Users\pearlstl\AppData\Local\Temp\ccvteysW.s 			page 106


 4664 106d 00       		.byte	0
 4665 106e 00       		.byte	0
 4666 106f 34       		.uleb128 0x34
 4667 1070 1C060000 		.4byte	.LASF130
 4668 1074 06       		.byte	0x6
 4669 1075 8C       		.byte	0x8c
 4670 1076 18020000 		.4byte	0x218
 4671 107a 35       		.uleb128 0x35
 4672 107b 49070000 		.4byte	.LASF131
 4673 107f 01       		.byte	0x1
 4674 1080 2B       		.byte	0x2b
 4675 1081 C6060000 		.4byte	0x6c6
 4676 1085 05       		.uleb128 0x5
 4677 1086 03       		.byte	0x3
 4678 1087 00000000 		.4byte	lv_style_scr
 4679 108b 35       		.uleb128 0x35
 4680 108c 8A040000 		.4byte	.LASF132
 4681 1090 01       		.byte	0x1
 4682 1091 2C       		.byte	0x2c
 4683 1092 C6060000 		.4byte	0x6c6
 4684 1096 05       		.uleb128 0x5
 4685 1097 03       		.byte	0x3
 4686 1098 00000000 		.4byte	lv_style_transp
 4687 109c 35       		.uleb128 0x35
 4688 109d F7050000 		.4byte	.LASF133
 4689 10a1 01       		.byte	0x1
 4690 10a2 2D       		.byte	0x2d
 4691 10a3 C6060000 		.4byte	0x6c6
 4692 10a7 05       		.uleb128 0x5
 4693 10a8 03       		.byte	0x3
 4694 10a9 00000000 		.4byte	lv_style_transp_fit
 4695 10ad 35       		.uleb128 0x35
 4696 10ae 14030000 		.4byte	.LASF134
 4697 10b2 01       		.byte	0x1
 4698 10b3 2E       		.byte	0x2e
 4699 10b4 C6060000 		.4byte	0x6c6
 4700 10b8 05       		.uleb128 0x5
 4701 10b9 03       		.byte	0x3
 4702 10ba 00000000 		.4byte	lv_style_transp_tight
 4703 10be 35       		.uleb128 0x35
 4704 10bf E6010000 		.4byte	.LASF135
 4705 10c3 01       		.byte	0x1
 4706 10c4 2F       		.byte	0x2f
 4707 10c5 C6060000 		.4byte	0x6c6
 4708 10c9 05       		.uleb128 0x5
 4709 10ca 03       		.byte	0x3
 4710 10cb 00000000 		.4byte	lv_style_plain
 4711 10cf 35       		.uleb128 0x35
 4712 10d0 0A040000 		.4byte	.LASF136
 4713 10d4 01       		.byte	0x1
 4714 10d5 30       		.byte	0x30
 4715 10d6 C6060000 		.4byte	0x6c6
 4716 10da 05       		.uleb128 0x5
 4717 10db 03       		.byte	0x3
 4718 10dc 00000000 		.4byte	lv_style_plain_color
 4719 10e0 35       		.uleb128 0x35
 4720 10e1 D6010000 		.4byte	.LASF137
ARM GAS  C:\Users\pearlstl\AppData\Local\Temp\ccvteysW.s 			page 107


 4721 10e5 01       		.byte	0x1
 4722 10e6 31       		.byte	0x31
 4723 10e7 C6060000 		.4byte	0x6c6
 4724 10eb 05       		.uleb128 0x5
 4725 10ec 03       		.byte	0x3
 4726 10ed 00000000 		.4byte	lv_style_pretty
 4727 10f1 35       		.uleb128 0x35
 4728 10f2 C0060000 		.4byte	.LASF138
 4729 10f6 01       		.byte	0x1
 4730 10f7 32       		.byte	0x32
 4731 10f8 C6060000 		.4byte	0x6c6
 4732 10fc 05       		.uleb128 0x5
 4733 10fd 03       		.byte	0x3
 4734 10fe 00000000 		.4byte	lv_style_pretty_color
 4735 1102 35       		.uleb128 0x35
 4736 1103 57000000 		.4byte	.LASF139
 4737 1107 01       		.byte	0x1
 4738 1108 33       		.byte	0x33
 4739 1109 C6060000 		.4byte	0x6c6
 4740 110d 05       		.uleb128 0x5
 4741 110e 03       		.byte	0x3
 4742 110f 00000000 		.4byte	lv_style_btn_rel
 4743 1113 35       		.uleb128 0x35
 4744 1114 29040000 		.4byte	.LASF140
 4745 1118 01       		.byte	0x1
 4746 1119 34       		.byte	0x34
 4747 111a C6060000 		.4byte	0x6c6
 4748 111e 05       		.uleb128 0x5
 4749 111f 03       		.byte	0x3
 4750 1120 00000000 		.4byte	lv_style_btn_pr
 4751 1124 35       		.uleb128 0x35
 4752 1125 48020000 		.4byte	.LASF141
 4753 1129 01       		.byte	0x1
 4754 112a 35       		.byte	0x35
 4755 112b C6060000 		.4byte	0x6c6
 4756 112f 05       		.uleb128 0x5
 4757 1130 03       		.byte	0x3
 4758 1131 00000000 		.4byte	lv_style_btn_tgl_rel
 4759 1135 35       		.uleb128 0x35
 4760 1136 C5020000 		.4byte	.LASF142
 4761 113a 01       		.byte	0x1
 4762 113b 36       		.byte	0x36
 4763 113c C6060000 		.4byte	0x6c6
 4764 1140 05       		.uleb128 0x5
 4765 1141 03       		.byte	0x3
 4766 1142 00000000 		.4byte	lv_style_btn_tgl_pr
 4767 1146 35       		.uleb128 0x35
 4768 1147 68000000 		.4byte	.LASF143
 4769 114b 01       		.byte	0x1
 4770 114c 37       		.byte	0x37
 4771 114d C6060000 		.4byte	0x6c6
 4772 1151 05       		.uleb128 0x5
 4773 1152 03       		.byte	0x3
 4774 1153 00000000 		.4byte	lv_style_btn_ina
 4775 1157 36       		.uleb128 0x36
 4776 1158 0F070000 		.4byte	.LASF144
 4777 115c 0F070000 		.4byte	.LASF144
ARM GAS  C:\Users\pearlstl\AppData\Local\Temp\ccvteysW.s 			page 108


 4778 1160 09       		.byte	0x9
 4779 1161 4B       		.byte	0x4b
 4780 1162 37       		.uleb128 0x37
 4781 1163 5B030000 		.4byte	.LASF145
 4782 1167 5B030000 		.4byte	.LASF145
 4783 116b 0A       		.byte	0xa
 4784 116c D701     		.2byte	0x1d7
 4785 116e 38       		.uleb128 0x38
 4786 116f 42070000 		.4byte	.LASF151
 4787 1173 42070000 		.4byte	.LASF151
 4788 1177 36       		.uleb128 0x36
 4789 1178 9A040000 		.4byte	.LASF146
 4790 117c 9A040000 		.4byte	.LASF146
 4791 1180 07       		.byte	0x7
 4792 1181 6E       		.byte	0x6e
 4793 1182 36       		.uleb128 0x36
 4794 1183 B6010000 		.4byte	.LASF147
 4795 1187 B6010000 		.4byte	.LASF147
 4796 118b 09       		.byte	0x9
 4797 118c 45       		.byte	0x45
 4798 118d 00       		.byte	0
 4799              		.section	.debug_abbrev,"",%progbits
 4800              	.Ldebug_abbrev0:
 4801 0000 01       		.uleb128 0x1
 4802 0001 11       		.uleb128 0x11
 4803 0002 01       		.byte	0x1
 4804 0003 25       		.uleb128 0x25
 4805 0004 0E       		.uleb128 0xe
 4806 0005 13       		.uleb128 0x13
 4807 0006 0B       		.uleb128 0xb
 4808 0007 03       		.uleb128 0x3
 4809 0008 0E       		.uleb128 0xe
 4810 0009 1B       		.uleb128 0x1b
 4811 000a 0E       		.uleb128 0xe
 4812 000b 55       		.uleb128 0x55
 4813 000c 17       		.uleb128 0x17
 4814 000d 11       		.uleb128 0x11
 4815 000e 01       		.uleb128 0x1
 4816 000f 10       		.uleb128 0x10
 4817 0010 17       		.uleb128 0x17
 4818 0011 00       		.byte	0
 4819 0012 00       		.byte	0
 4820 0013 02       		.uleb128 0x2
 4821 0014 16       		.uleb128 0x16
 4822 0015 00       		.byte	0
 4823 0016 03       		.uleb128 0x3
 4824 0017 0E       		.uleb128 0xe
 4825 0018 3A       		.uleb128 0x3a
 4826 0019 0B       		.uleb128 0xb
 4827 001a 3B       		.uleb128 0x3b
 4828 001b 0B       		.uleb128 0xb
 4829 001c 49       		.uleb128 0x49
 4830 001d 13       		.uleb128 0x13
 4831 001e 00       		.byte	0
 4832 001f 00       		.byte	0
 4833 0020 03       		.uleb128 0x3
 4834 0021 24       		.uleb128 0x24
ARM GAS  C:\Users\pearlstl\AppData\Local\Temp\ccvteysW.s 			page 109


 4835 0022 00       		.byte	0
 4836 0023 0B       		.uleb128 0xb
 4837 0024 0B       		.uleb128 0xb
 4838 0025 3E       		.uleb128 0x3e
 4839 0026 0B       		.uleb128 0xb
 4840 0027 03       		.uleb128 0x3
 4841 0028 0E       		.uleb128 0xe
 4842 0029 00       		.byte	0
 4843 002a 00       		.byte	0
 4844 002b 04       		.uleb128 0x4
 4845 002c 24       		.uleb128 0x24
 4846 002d 00       		.byte	0
 4847 002e 0B       		.uleb128 0xb
 4848 002f 0B       		.uleb128 0xb
 4849 0030 3E       		.uleb128 0x3e
 4850 0031 0B       		.uleb128 0xb
 4851 0032 03       		.uleb128 0x3
 4852 0033 08       		.uleb128 0x8
 4853 0034 00       		.byte	0
 4854 0035 00       		.byte	0
 4855 0036 05       		.uleb128 0x5
 4856 0037 0F       		.uleb128 0xf
 4857 0038 00       		.byte	0
 4858 0039 0B       		.uleb128 0xb
 4859 003a 0B       		.uleb128 0xb
 4860 003b 00       		.byte	0
 4861 003c 00       		.byte	0
 4862 003d 06       		.uleb128 0x6
 4863 003e 13       		.uleb128 0x13
 4864 003f 01       		.byte	0x1
 4865 0040 0B       		.uleb128 0xb
 4866 0041 0B       		.uleb128 0xb
 4867 0042 3A       		.uleb128 0x3a
 4868 0043 0B       		.uleb128 0xb
 4869 0044 3B       		.uleb128 0x3b
 4870 0045 0B       		.uleb128 0xb
 4871 0046 01       		.uleb128 0x1
 4872 0047 13       		.uleb128 0x13
 4873 0048 00       		.byte	0
 4874 0049 00       		.byte	0
 4875 004a 07       		.uleb128 0x7
 4876 004b 0D       		.uleb128 0xd
 4877 004c 00       		.byte	0
 4878 004d 03       		.uleb128 0x3
 4879 004e 0E       		.uleb128 0xe
 4880 004f 3A       		.uleb128 0x3a
 4881 0050 0B       		.uleb128 0xb
 4882 0051 3B       		.uleb128 0x3b
 4883 0052 0B       		.uleb128 0xb
 4884 0053 49       		.uleb128 0x49
 4885 0054 13       		.uleb128 0x13
 4886 0055 38       		.uleb128 0x38
 4887 0056 0B       		.uleb128 0xb
 4888 0057 00       		.byte	0
 4889 0058 00       		.byte	0
 4890 0059 08       		.uleb128 0x8
 4891 005a 0D       		.uleb128 0xd
ARM GAS  C:\Users\pearlstl\AppData\Local\Temp\ccvteysW.s 			page 110


 4892 005b 00       		.byte	0
 4893 005c 03       		.uleb128 0x3
 4894 005d 08       		.uleb128 0x8
 4895 005e 3A       		.uleb128 0x3a
 4896 005f 0B       		.uleb128 0xb
 4897 0060 3B       		.uleb128 0x3b
 4898 0061 0B       		.uleb128 0xb
 4899 0062 49       		.uleb128 0x49
 4900 0063 13       		.uleb128 0x13
 4901 0064 38       		.uleb128 0x38
 4902 0065 0B       		.uleb128 0xb
 4903 0066 00       		.byte	0
 4904 0067 00       		.byte	0
 4905 0068 09       		.uleb128 0x9
 4906 0069 13       		.uleb128 0x13
 4907 006a 01       		.byte	0x1
 4908 006b 03       		.uleb128 0x3
 4909 006c 0E       		.uleb128 0xe
 4910 006d 0B       		.uleb128 0xb
 4911 006e 0B       		.uleb128 0xb
 4912 006f 3A       		.uleb128 0x3a
 4913 0070 0B       		.uleb128 0xb
 4914 0071 3B       		.uleb128 0x3b
 4915 0072 0B       		.uleb128 0xb
 4916 0073 01       		.uleb128 0x1
 4917 0074 13       		.uleb128 0x13
 4918 0075 00       		.byte	0
 4919 0076 00       		.byte	0
 4920 0077 0A       		.uleb128 0xa
 4921 0078 0D       		.uleb128 0xd
 4922 0079 00       		.byte	0
 4923 007a 03       		.uleb128 0x3
 4924 007b 0E       		.uleb128 0xe
 4925 007c 3A       		.uleb128 0x3a
 4926 007d 0B       		.uleb128 0xb
 4927 007e 3B       		.uleb128 0x3b
 4928 007f 0B       		.uleb128 0xb
 4929 0080 49       		.uleb128 0x49
 4930 0081 13       		.uleb128 0x13
 4931 0082 0B       		.uleb128 0xb
 4932 0083 0B       		.uleb128 0xb
 4933 0084 0D       		.uleb128 0xd
 4934 0085 0B       		.uleb128 0xb
 4935 0086 0C       		.uleb128 0xc
 4936 0087 0B       		.uleb128 0xb
 4937 0088 38       		.uleb128 0x38
 4938 0089 0B       		.uleb128 0xb
 4939 008a 00       		.byte	0
 4940 008b 00       		.byte	0
 4941 008c 0B       		.uleb128 0xb
 4942 008d 15       		.uleb128 0x15
 4943 008e 01       		.byte	0x1
 4944 008f 27       		.uleb128 0x27
 4945 0090 19       		.uleb128 0x19
 4946 0091 49       		.uleb128 0x49
 4947 0092 13       		.uleb128 0x13
 4948 0093 01       		.uleb128 0x1
ARM GAS  C:\Users\pearlstl\AppData\Local\Temp\ccvteysW.s 			page 111


 4949 0094 13       		.uleb128 0x13
 4950 0095 00       		.byte	0
 4951 0096 00       		.byte	0
 4952 0097 0C       		.uleb128 0xc
 4953 0098 05       		.uleb128 0x5
 4954 0099 00       		.byte	0
 4955 009a 49       		.uleb128 0x49
 4956 009b 13       		.uleb128 0x13
 4957 009c 00       		.byte	0
 4958 009d 00       		.byte	0
 4959 009e 0D       		.uleb128 0xd
 4960 009f 0F       		.uleb128 0xf
 4961 00a0 00       		.byte	0
 4962 00a1 0B       		.uleb128 0xb
 4963 00a2 0B       		.uleb128 0xb
 4964 00a3 49       		.uleb128 0x49
 4965 00a4 13       		.uleb128 0x13
 4966 00a5 00       		.byte	0
 4967 00a6 00       		.byte	0
 4968 00a7 0E       		.uleb128 0xe
 4969 00a8 26       		.uleb128 0x26
 4970 00a9 00       		.byte	0
 4971 00aa 49       		.uleb128 0x49
 4972 00ab 13       		.uleb128 0x13
 4973 00ac 00       		.byte	0
 4974 00ad 00       		.byte	0
 4975 00ae 0F       		.uleb128 0xf
 4976 00af 04       		.uleb128 0x4
 4977 00b0 01       		.byte	0x1
 4978 00b1 0B       		.uleb128 0xb
 4979 00b2 0B       		.uleb128 0xb
 4980 00b3 49       		.uleb128 0x49
 4981 00b4 13       		.uleb128 0x13
 4982 00b5 3A       		.uleb128 0x3a
 4983 00b6 0B       		.uleb128 0xb
 4984 00b7 3B       		.uleb128 0x3b
 4985 00b8 0B       		.uleb128 0xb
 4986 00b9 01       		.uleb128 0x1
 4987 00ba 13       		.uleb128 0x13
 4988 00bb 00       		.byte	0
 4989 00bc 00       		.byte	0
 4990 00bd 10       		.uleb128 0x10
 4991 00be 28       		.uleb128 0x28
 4992 00bf 00       		.byte	0
 4993 00c0 03       		.uleb128 0x3
 4994 00c1 0E       		.uleb128 0xe
 4995 00c2 1C       		.uleb128 0x1c
 4996 00c3 0B       		.uleb128 0xb
 4997 00c4 00       		.byte	0
 4998 00c5 00       		.byte	0
 4999 00c6 11       		.uleb128 0x11
 5000 00c7 17       		.uleb128 0x17
 5001 00c8 01       		.byte	0x1
 5002 00c9 0B       		.uleb128 0xb
 5003 00ca 0B       		.uleb128 0xb
 5004 00cb 3A       		.uleb128 0x3a
 5005 00cc 0B       		.uleb128 0xb
ARM GAS  C:\Users\pearlstl\AppData\Local\Temp\ccvteysW.s 			page 112


 5006 00cd 3B       		.uleb128 0x3b
 5007 00ce 0B       		.uleb128 0xb
 5008 00cf 01       		.uleb128 0x1
 5009 00d0 13       		.uleb128 0x13
 5010 00d1 00       		.byte	0
 5011 00d2 00       		.byte	0
 5012 00d3 12       		.uleb128 0x12
 5013 00d4 0D       		.uleb128 0xd
 5014 00d5 00       		.byte	0
 5015 00d6 03       		.uleb128 0x3
 5016 00d7 08       		.uleb128 0x8
 5017 00d8 3A       		.uleb128 0x3a
 5018 00d9 0B       		.uleb128 0xb
 5019 00da 3B       		.uleb128 0x3b
 5020 00db 0B       		.uleb128 0xb
 5021 00dc 49       		.uleb128 0x49
 5022 00dd 13       		.uleb128 0x13
 5023 00de 00       		.byte	0
 5024 00df 00       		.byte	0
 5025 00e0 13       		.uleb128 0x13
 5026 00e1 0D       		.uleb128 0xd
 5027 00e2 00       		.byte	0
 5028 00e3 03       		.uleb128 0x3
 5029 00e4 0E       		.uleb128 0xe
 5030 00e5 3A       		.uleb128 0x3a
 5031 00e6 0B       		.uleb128 0xb
 5032 00e7 3B       		.uleb128 0x3b
 5033 00e8 0B       		.uleb128 0xb
 5034 00e9 49       		.uleb128 0x49
 5035 00ea 13       		.uleb128 0x13
 5036 00eb 00       		.byte	0
 5037 00ec 00       		.byte	0
 5038 00ed 14       		.uleb128 0x14
 5039 00ee 16       		.uleb128 0x16
 5040 00ef 00       		.byte	0
 5041 00f0 03       		.uleb128 0x3
 5042 00f1 0E       		.uleb128 0xe
 5043 00f2 3A       		.uleb128 0x3a
 5044 00f3 0B       		.uleb128 0xb
 5045 00f4 3B       		.uleb128 0x3b
 5046 00f5 05       		.uleb128 0x5
 5047 00f6 49       		.uleb128 0x49
 5048 00f7 13       		.uleb128 0x13
 5049 00f8 00       		.byte	0
 5050 00f9 00       		.byte	0
 5051 00fa 15       		.uleb128 0x15
 5052 00fb 15       		.uleb128 0x15
 5053 00fc 01       		.byte	0x1
 5054 00fd 27       		.uleb128 0x27
 5055 00fe 19       		.uleb128 0x19
 5056 00ff 01       		.uleb128 0x1
 5057 0100 13       		.uleb128 0x13
 5058 0101 00       		.byte	0
 5059 0102 00       		.byte	0
 5060 0103 16       		.uleb128 0x16
 5061 0104 2E       		.uleb128 0x2e
 5062 0105 01       		.byte	0x1
ARM GAS  C:\Users\pearlstl\AppData\Local\Temp\ccvteysW.s 			page 113


 5063 0106 03       		.uleb128 0x3
 5064 0107 0E       		.uleb128 0xe
 5065 0108 3A       		.uleb128 0x3a
 5066 0109 0B       		.uleb128 0xb
 5067 010a 3B       		.uleb128 0x3b
 5068 010b 05       		.uleb128 0x5
 5069 010c 27       		.uleb128 0x27
 5070 010d 19       		.uleb128 0x19
 5071 010e 49       		.uleb128 0x49
 5072 010f 13       		.uleb128 0x13
 5073 0110 20       		.uleb128 0x20
 5074 0111 0B       		.uleb128 0xb
 5075 0112 01       		.uleb128 0x1
 5076 0113 13       		.uleb128 0x13
 5077 0114 00       		.byte	0
 5078 0115 00       		.byte	0
 5079 0116 17       		.uleb128 0x17
 5080 0117 05       		.uleb128 0x5
 5081 0118 00       		.byte	0
 5082 0119 03       		.uleb128 0x3
 5083 011a 08       		.uleb128 0x8
 5084 011b 3A       		.uleb128 0x3a
 5085 011c 0B       		.uleb128 0xb
 5086 011d 3B       		.uleb128 0x3b
 5087 011e 05       		.uleb128 0x5
 5088 011f 49       		.uleb128 0x49
 5089 0120 13       		.uleb128 0x13
 5090 0121 00       		.byte	0
 5091 0122 00       		.byte	0
 5092 0123 18       		.uleb128 0x18
 5093 0124 34       		.uleb128 0x34
 5094 0125 00       		.byte	0
 5095 0126 03       		.uleb128 0x3
 5096 0127 08       		.uleb128 0x8
 5097 0128 3A       		.uleb128 0x3a
 5098 0129 0B       		.uleb128 0xb
 5099 012a 3B       		.uleb128 0x3b
 5100 012b 05       		.uleb128 0x5
 5101 012c 49       		.uleb128 0x49
 5102 012d 13       		.uleb128 0x13
 5103 012e 00       		.byte	0
 5104 012f 00       		.byte	0
 5105 0130 19       		.uleb128 0x19
 5106 0131 2E       		.uleb128 0x2e
 5107 0132 01       		.byte	0x1
 5108 0133 3F       		.uleb128 0x3f
 5109 0134 19       		.uleb128 0x19
 5110 0135 03       		.uleb128 0x3
 5111 0136 0E       		.uleb128 0xe
 5112 0137 3A       		.uleb128 0x3a
 5113 0138 0B       		.uleb128 0xb
 5114 0139 3B       		.uleb128 0x3b
 5115 013a 0B       		.uleb128 0xb
 5116 013b 27       		.uleb128 0x27
 5117 013c 19       		.uleb128 0x19
 5118 013d 20       		.uleb128 0x20
 5119 013e 0B       		.uleb128 0xb
ARM GAS  C:\Users\pearlstl\AppData\Local\Temp\ccvteysW.s 			page 114


 5120 013f 01       		.uleb128 0x1
 5121 0140 13       		.uleb128 0x13
 5122 0141 00       		.byte	0
 5123 0142 00       		.byte	0
 5124 0143 1A       		.uleb128 0x1a
 5125 0144 05       		.uleb128 0x5
 5126 0145 00       		.byte	0
 5127 0146 03       		.uleb128 0x3
 5128 0147 0E       		.uleb128 0xe
 5129 0148 3A       		.uleb128 0x3a
 5130 0149 0B       		.uleb128 0xb
 5131 014a 3B       		.uleb128 0x3b
 5132 014b 0B       		.uleb128 0xb
 5133 014c 49       		.uleb128 0x49
 5134 014d 13       		.uleb128 0x13
 5135 014e 00       		.byte	0
 5136 014f 00       		.byte	0
 5137 0150 1B       		.uleb128 0x1b
 5138 0151 05       		.uleb128 0x5
 5139 0152 00       		.byte	0
 5140 0153 03       		.uleb128 0x3
 5141 0154 08       		.uleb128 0x8
 5142 0155 3A       		.uleb128 0x3a
 5143 0156 0B       		.uleb128 0xb
 5144 0157 3B       		.uleb128 0x3b
 5145 0158 0B       		.uleb128 0xb
 5146 0159 49       		.uleb128 0x49
 5147 015a 13       		.uleb128 0x13
 5148 015b 00       		.byte	0
 5149 015c 00       		.byte	0
 5150 015d 1C       		.uleb128 0x1c
 5151 015e 2E       		.uleb128 0x2e
 5152 015f 01       		.byte	0x1
 5153 0160 03       		.uleb128 0x3
 5154 0161 0E       		.uleb128 0xe
 5155 0162 3A       		.uleb128 0x3a
 5156 0163 0B       		.uleb128 0xb
 5157 0164 3B       		.uleb128 0x3b
 5158 0165 05       		.uleb128 0x5
 5159 0166 27       		.uleb128 0x27
 5160 0167 19       		.uleb128 0x19
 5161 0168 11       		.uleb128 0x11
 5162 0169 01       		.uleb128 0x1
 5163 016a 12       		.uleb128 0x12
 5164 016b 06       		.uleb128 0x6
 5165 016c 40       		.uleb128 0x40
 5166 016d 18       		.uleb128 0x18
 5167 016e 9742     		.uleb128 0x2117
 5168 0170 19       		.uleb128 0x19
 5169 0171 01       		.uleb128 0x1
 5170 0172 13       		.uleb128 0x13
 5171 0173 00       		.byte	0
 5172 0174 00       		.byte	0
 5173 0175 1D       		.uleb128 0x1d
 5174 0176 05       		.uleb128 0x5
 5175 0177 00       		.byte	0
 5176 0178 03       		.uleb128 0x3
ARM GAS  C:\Users\pearlstl\AppData\Local\Temp\ccvteysW.s 			page 115


 5177 0179 08       		.uleb128 0x8
 5178 017a 3A       		.uleb128 0x3a
 5179 017b 0B       		.uleb128 0xb
 5180 017c 3B       		.uleb128 0x3b
 5181 017d 05       		.uleb128 0x5
 5182 017e 49       		.uleb128 0x49
 5183 017f 13       		.uleb128 0x13
 5184 0180 02       		.uleb128 0x2
 5185 0181 17       		.uleb128 0x17
 5186 0182 00       		.byte	0
 5187 0183 00       		.byte	0
 5188 0184 1E       		.uleb128 0x1e
 5189 0185 34       		.uleb128 0x34
 5190 0186 00       		.byte	0
 5191 0187 03       		.uleb128 0x3
 5192 0188 08       		.uleb128 0x8
 5193 0189 3A       		.uleb128 0x3a
 5194 018a 0B       		.uleb128 0xb
 5195 018b 3B       		.uleb128 0x3b
 5196 018c 05       		.uleb128 0x5
 5197 018d 49       		.uleb128 0x49
 5198 018e 13       		.uleb128 0x13
 5199 018f 02       		.uleb128 0x2
 5200 0190 17       		.uleb128 0x17
 5201 0191 00       		.byte	0
 5202 0192 00       		.byte	0
 5203 0193 1F       		.uleb128 0x1f
 5204 0194 898201   		.uleb128 0x4109
 5205 0197 01       		.byte	0x1
 5206 0198 11       		.uleb128 0x11
 5207 0199 01       		.uleb128 0x1
 5208 019a 01       		.uleb128 0x1
 5209 019b 13       		.uleb128 0x13
 5210 019c 00       		.byte	0
 5211 019d 00       		.byte	0
 5212 019e 20       		.uleb128 0x20
 5213 019f 8A8201   		.uleb128 0x410a
 5214 01a2 00       		.byte	0
 5215 01a3 02       		.uleb128 0x2
 5216 01a4 18       		.uleb128 0x18
 5217 01a5 9142     		.uleb128 0x2111
 5218 01a7 18       		.uleb128 0x18
 5219 01a8 00       		.byte	0
 5220 01a9 00       		.byte	0
 5221 01aa 21       		.uleb128 0x21
 5222 01ab 898201   		.uleb128 0x4109
 5223 01ae 00       		.byte	0
 5224 01af 11       		.uleb128 0x11
 5225 01b0 01       		.uleb128 0x1
 5226 01b1 9542     		.uleb128 0x2115
 5227 01b3 19       		.uleb128 0x19
 5228 01b4 31       		.uleb128 0x31
 5229 01b5 13       		.uleb128 0x13
 5230 01b6 00       		.byte	0
 5231 01b7 00       		.byte	0
 5232 01b8 22       		.uleb128 0x22
 5233 01b9 34       		.uleb128 0x34
ARM GAS  C:\Users\pearlstl\AppData\Local\Temp\ccvteysW.s 			page 116


 5234 01ba 00       		.byte	0
 5235 01bb 03       		.uleb128 0x3
 5236 01bc 0E       		.uleb128 0xe
 5237 01bd 3A       		.uleb128 0x3a
 5238 01be 0B       		.uleb128 0xb
 5239 01bf 3B       		.uleb128 0x3b
 5240 01c0 05       		.uleb128 0x5
 5241 01c1 49       		.uleb128 0x49
 5242 01c2 13       		.uleb128 0x13
 5243 01c3 02       		.uleb128 0x2
 5244 01c4 17       		.uleb128 0x17
 5245 01c5 00       		.byte	0
 5246 01c6 00       		.byte	0
 5247 01c7 23       		.uleb128 0x23
 5248 01c8 1D       		.uleb128 0x1d
 5249 01c9 01       		.byte	0x1
 5250 01ca 31       		.uleb128 0x31
 5251 01cb 13       		.uleb128 0x13
 5252 01cc 52       		.uleb128 0x52
 5253 01cd 01       		.uleb128 0x1
 5254 01ce 55       		.uleb128 0x55
 5255 01cf 17       		.uleb128 0x17
 5256 01d0 58       		.uleb128 0x58
 5257 01d1 0B       		.uleb128 0xb
 5258 01d2 59       		.uleb128 0x59
 5259 01d3 05       		.uleb128 0x5
 5260 01d4 01       		.uleb128 0x1
 5261 01d5 13       		.uleb128 0x13
 5262 01d6 00       		.byte	0
 5263 01d7 00       		.byte	0
 5264 01d8 24       		.uleb128 0x24
 5265 01d9 05       		.uleb128 0x5
 5266 01da 00       		.byte	0
 5267 01db 31       		.uleb128 0x31
 5268 01dc 13       		.uleb128 0x13
 5269 01dd 02       		.uleb128 0x2
 5270 01de 17       		.uleb128 0x17
 5271 01df 00       		.byte	0
 5272 01e0 00       		.byte	0
 5273 01e1 25       		.uleb128 0x25
 5274 01e2 0B       		.uleb128 0xb
 5275 01e3 01       		.byte	0x1
 5276 01e4 55       		.uleb128 0x55
 5277 01e5 17       		.uleb128 0x17
 5278 01e6 00       		.byte	0
 5279 01e7 00       		.byte	0
 5280 01e8 26       		.uleb128 0x26
 5281 01e9 34       		.uleb128 0x34
 5282 01ea 00       		.byte	0
 5283 01eb 31       		.uleb128 0x31
 5284 01ec 13       		.uleb128 0x13
 5285 01ed 00       		.byte	0
 5286 01ee 00       		.byte	0
 5287 01ef 27       		.uleb128 0x27
 5288 01f0 05       		.uleb128 0x5
 5289 01f1 00       		.byte	0
 5290 01f2 31       		.uleb128 0x31
ARM GAS  C:\Users\pearlstl\AppData\Local\Temp\ccvteysW.s 			page 117


 5291 01f3 13       		.uleb128 0x13
 5292 01f4 00       		.byte	0
 5293 01f5 00       		.byte	0
 5294 01f6 28       		.uleb128 0x28
 5295 01f7 1D       		.uleb128 0x1d
 5296 01f8 01       		.byte	0x1
 5297 01f9 31       		.uleb128 0x31
 5298 01fa 13       		.uleb128 0x13
 5299 01fb 52       		.uleb128 0x52
 5300 01fc 01       		.uleb128 0x1
 5301 01fd 55       		.uleb128 0x55
 5302 01fe 17       		.uleb128 0x17
 5303 01ff 58       		.uleb128 0x58
 5304 0200 0B       		.uleb128 0xb
 5305 0201 59       		.uleb128 0x59
 5306 0202 05       		.uleb128 0x5
 5307 0203 00       		.byte	0
 5308 0204 00       		.byte	0
 5309 0205 29       		.uleb128 0x29
 5310 0206 2E       		.uleb128 0x2e
 5311 0207 01       		.byte	0x1
 5312 0208 3F       		.uleb128 0x3f
 5313 0209 19       		.uleb128 0x19
 5314 020a 03       		.uleb128 0x3
 5315 020b 0E       		.uleb128 0xe
 5316 020c 3A       		.uleb128 0x3a
 5317 020d 0B       		.uleb128 0xb
 5318 020e 3B       		.uleb128 0x3b
 5319 020f 0B       		.uleb128 0xb
 5320 0210 27       		.uleb128 0x27
 5321 0211 19       		.uleb128 0x19
 5322 0212 11       		.uleb128 0x11
 5323 0213 01       		.uleb128 0x1
 5324 0214 12       		.uleb128 0x12
 5325 0215 06       		.uleb128 0x6
 5326 0216 40       		.uleb128 0x40
 5327 0217 18       		.uleb128 0x18
 5328 0218 9742     		.uleb128 0x2117
 5329 021a 19       		.uleb128 0x19
 5330 021b 01       		.uleb128 0x1
 5331 021c 13       		.uleb128 0x13
 5332 021d 00       		.byte	0
 5333 021e 00       		.byte	0
 5334 021f 2A       		.uleb128 0x2a
 5335 0220 1D       		.uleb128 0x1d
 5336 0221 01       		.byte	0x1
 5337 0222 31       		.uleb128 0x31
 5338 0223 13       		.uleb128 0x13
 5339 0224 52       		.uleb128 0x52
 5340 0225 01       		.uleb128 0x1
 5341 0226 55       		.uleb128 0x55
 5342 0227 17       		.uleb128 0x17
 5343 0228 58       		.uleb128 0x58
 5344 0229 0B       		.uleb128 0xb
 5345 022a 59       		.uleb128 0x59
 5346 022b 0B       		.uleb128 0xb
 5347 022c 01       		.uleb128 0x1
ARM GAS  C:\Users\pearlstl\AppData\Local\Temp\ccvteysW.s 			page 118


 5348 022d 13       		.uleb128 0x13
 5349 022e 00       		.byte	0
 5350 022f 00       		.byte	0
 5351 0230 2B       		.uleb128 0x2b
 5352 0231 898201   		.uleb128 0x4109
 5353 0234 01       		.byte	0x1
 5354 0235 11       		.uleb128 0x11
 5355 0236 01       		.uleb128 0x1
 5356 0237 31       		.uleb128 0x31
 5357 0238 13       		.uleb128 0x13
 5358 0239 00       		.byte	0
 5359 023a 00       		.byte	0
 5360 023b 2C       		.uleb128 0x2c
 5361 023c 1D       		.uleb128 0x1d
 5362 023d 01       		.byte	0x1
 5363 023e 31       		.uleb128 0x31
 5364 023f 13       		.uleb128 0x13
 5365 0240 52       		.uleb128 0x52
 5366 0241 01       		.uleb128 0x1
 5367 0242 55       		.uleb128 0x55
 5368 0243 17       		.uleb128 0x17
 5369 0244 58       		.uleb128 0x58
 5370 0245 0B       		.uleb128 0xb
 5371 0246 59       		.uleb128 0x59
 5372 0247 0B       		.uleb128 0xb
 5373 0248 00       		.byte	0
 5374 0249 00       		.byte	0
 5375 024a 2D       		.uleb128 0x2d
 5376 024b 2E       		.uleb128 0x2e
 5377 024c 01       		.byte	0x1
 5378 024d 31       		.uleb128 0x31
 5379 024e 13       		.uleb128 0x13
 5380 024f 11       		.uleb128 0x11
 5381 0250 01       		.uleb128 0x1
 5382 0251 12       		.uleb128 0x12
 5383 0252 06       		.uleb128 0x6
 5384 0253 40       		.uleb128 0x40
 5385 0254 18       		.uleb128 0x18
 5386 0255 9742     		.uleb128 0x2117
 5387 0257 19       		.uleb128 0x19
 5388 0258 01       		.uleb128 0x1
 5389 0259 13       		.uleb128 0x13
 5390 025a 00       		.byte	0
 5391 025b 00       		.byte	0
 5392 025c 2E       		.uleb128 0x2e
 5393 025d 898201   		.uleb128 0x4109
 5394 0260 01       		.byte	0x1
 5395 0261 11       		.uleb128 0x11
 5396 0262 01       		.uleb128 0x1
 5397 0263 9542     		.uleb128 0x2115
 5398 0265 19       		.uleb128 0x19
 5399 0266 31       		.uleb128 0x31
 5400 0267 13       		.uleb128 0x13
 5401 0268 00       		.byte	0
 5402 0269 00       		.byte	0
 5403 026a 2F       		.uleb128 0x2f
 5404 026b 05       		.uleb128 0x5
ARM GAS  C:\Users\pearlstl\AppData\Local\Temp\ccvteysW.s 			page 119


 5405 026c 00       		.byte	0
 5406 026d 31       		.uleb128 0x31
 5407 026e 13       		.uleb128 0x13
 5408 026f 02       		.uleb128 0x2
 5409 0270 18       		.uleb128 0x18
 5410 0271 00       		.byte	0
 5411 0272 00       		.byte	0
 5412 0273 30       		.uleb128 0x30
 5413 0274 2E       		.uleb128 0x2e
 5414 0275 01       		.byte	0x1
 5415 0276 3F       		.uleb128 0x3f
 5416 0277 19       		.uleb128 0x19
 5417 0278 03       		.uleb128 0x3
 5418 0279 0E       		.uleb128 0xe
 5419 027a 3A       		.uleb128 0x3a
 5420 027b 0B       		.uleb128 0xb
 5421 027c 3B       		.uleb128 0x3b
 5422 027d 05       		.uleb128 0x5
 5423 027e 27       		.uleb128 0x27
 5424 027f 19       		.uleb128 0x19
 5425 0280 11       		.uleb128 0x11
 5426 0281 01       		.uleb128 0x1
 5427 0282 12       		.uleb128 0x12
 5428 0283 06       		.uleb128 0x6
 5429 0284 40       		.uleb128 0x40
 5430 0285 18       		.uleb128 0x18
 5431 0286 9742     		.uleb128 0x2117
 5432 0288 19       		.uleb128 0x19
 5433 0289 01       		.uleb128 0x1
 5434 028a 13       		.uleb128 0x13
 5435 028b 00       		.byte	0
 5436 028c 00       		.byte	0
 5437 028d 31       		.uleb128 0x31
 5438 028e 1D       		.uleb128 0x1d
 5439 028f 01       		.byte	0x1
 5440 0290 31       		.uleb128 0x31
 5441 0291 13       		.uleb128 0x13
 5442 0292 11       		.uleb128 0x11
 5443 0293 01       		.uleb128 0x1
 5444 0294 12       		.uleb128 0x12
 5445 0295 06       		.uleb128 0x6
 5446 0296 58       		.uleb128 0x58
 5447 0297 0B       		.uleb128 0xb
 5448 0298 59       		.uleb128 0x59
 5449 0299 05       		.uleb128 0x5
 5450 029a 01       		.uleb128 0x1
 5451 029b 13       		.uleb128 0x13
 5452 029c 00       		.byte	0
 5453 029d 00       		.byte	0
 5454 029e 32       		.uleb128 0x32
 5455 029f 898201   		.uleb128 0x4109
 5456 02a2 01       		.byte	0x1
 5457 02a3 11       		.uleb128 0x11
 5458 02a4 01       		.uleb128 0x1
 5459 02a5 31       		.uleb128 0x31
 5460 02a6 13       		.uleb128 0x13
 5461 02a7 01       		.uleb128 0x1
ARM GAS  C:\Users\pearlstl\AppData\Local\Temp\ccvteysW.s 			page 120


 5462 02a8 13       		.uleb128 0x13
 5463 02a9 00       		.byte	0
 5464 02aa 00       		.byte	0
 5465 02ab 33       		.uleb128 0x33
 5466 02ac 05       		.uleb128 0x5
 5467 02ad 00       		.byte	0
 5468 02ae 03       		.uleb128 0x3
 5469 02af 0E       		.uleb128 0xe
 5470 02b0 3A       		.uleb128 0x3a
 5471 02b1 0B       		.uleb128 0xb
 5472 02b2 3B       		.uleb128 0x3b
 5473 02b3 05       		.uleb128 0x5
 5474 02b4 49       		.uleb128 0x49
 5475 02b5 13       		.uleb128 0x13
 5476 02b6 02       		.uleb128 0x2
 5477 02b7 17       		.uleb128 0x17
 5478 02b8 00       		.byte	0
 5479 02b9 00       		.byte	0
 5480 02ba 34       		.uleb128 0x34
 5481 02bb 34       		.uleb128 0x34
 5482 02bc 00       		.byte	0
 5483 02bd 03       		.uleb128 0x3
 5484 02be 0E       		.uleb128 0xe
 5485 02bf 3A       		.uleb128 0x3a
 5486 02c0 0B       		.uleb128 0xb
 5487 02c1 3B       		.uleb128 0x3b
 5488 02c2 0B       		.uleb128 0xb
 5489 02c3 49       		.uleb128 0x49
 5490 02c4 13       		.uleb128 0x13
 5491 02c5 3F       		.uleb128 0x3f
 5492 02c6 19       		.uleb128 0x19
 5493 02c7 3C       		.uleb128 0x3c
 5494 02c8 19       		.uleb128 0x19
 5495 02c9 00       		.byte	0
 5496 02ca 00       		.byte	0
 5497 02cb 35       		.uleb128 0x35
 5498 02cc 34       		.uleb128 0x34
 5499 02cd 00       		.byte	0
 5500 02ce 03       		.uleb128 0x3
 5501 02cf 0E       		.uleb128 0xe
 5502 02d0 3A       		.uleb128 0x3a
 5503 02d1 0B       		.uleb128 0xb
 5504 02d2 3B       		.uleb128 0x3b
 5505 02d3 0B       		.uleb128 0xb
 5506 02d4 49       		.uleb128 0x49
 5507 02d5 13       		.uleb128 0x13
 5508 02d6 3F       		.uleb128 0x3f
 5509 02d7 19       		.uleb128 0x19
 5510 02d8 02       		.uleb128 0x2
 5511 02d9 18       		.uleb128 0x18
 5512 02da 00       		.byte	0
 5513 02db 00       		.byte	0
 5514 02dc 36       		.uleb128 0x36
 5515 02dd 2E       		.uleb128 0x2e
 5516 02de 00       		.byte	0
 5517 02df 3F       		.uleb128 0x3f
 5518 02e0 19       		.uleb128 0x19
ARM GAS  C:\Users\pearlstl\AppData\Local\Temp\ccvteysW.s 			page 121


 5519 02e1 3C       		.uleb128 0x3c
 5520 02e2 19       		.uleb128 0x19
 5521 02e3 6E       		.uleb128 0x6e
 5522 02e4 0E       		.uleb128 0xe
 5523 02e5 03       		.uleb128 0x3
 5524 02e6 0E       		.uleb128 0xe
 5525 02e7 3A       		.uleb128 0x3a
 5526 02e8 0B       		.uleb128 0xb
 5527 02e9 3B       		.uleb128 0x3b
 5528 02ea 0B       		.uleb128 0xb
 5529 02eb 00       		.byte	0
 5530 02ec 00       		.byte	0
 5531 02ed 37       		.uleb128 0x37
 5532 02ee 2E       		.uleb128 0x2e
 5533 02ef 00       		.byte	0
 5534 02f0 3F       		.uleb128 0x3f
 5535 02f1 19       		.uleb128 0x19
 5536 02f2 3C       		.uleb128 0x3c
 5537 02f3 19       		.uleb128 0x19
 5538 02f4 6E       		.uleb128 0x6e
 5539 02f5 0E       		.uleb128 0xe
 5540 02f6 03       		.uleb128 0x3
 5541 02f7 0E       		.uleb128 0xe
 5542 02f8 3A       		.uleb128 0x3a
 5543 02f9 0B       		.uleb128 0xb
 5544 02fa 3B       		.uleb128 0x3b
 5545 02fb 05       		.uleb128 0x5
 5546 02fc 00       		.byte	0
 5547 02fd 00       		.byte	0
 5548 02fe 38       		.uleb128 0x38
 5549 02ff 2E       		.uleb128 0x2e
 5550 0300 00       		.byte	0
 5551 0301 3F       		.uleb128 0x3f
 5552 0302 19       		.uleb128 0x19
 5553 0303 3C       		.uleb128 0x3c
 5554 0304 19       		.uleb128 0x19
 5555 0305 6E       		.uleb128 0x6e
 5556 0306 0E       		.uleb128 0xe
 5557 0307 03       		.uleb128 0x3
 5558 0308 0E       		.uleb128 0xe
 5559 0309 00       		.byte	0
 5560 030a 00       		.byte	0
 5561 030b 00       		.byte	0
 5562              		.section	.debug_loc,"",%progbits
 5563              	.Ldebug_loc0:
 5564              	.LLST0:
 5565 0000 00000000 		.4byte	.LVL0
 5566 0004 0B000000 		.4byte	.LVL2-1
 5567 0008 0100     		.2byte	0x1
 5568 000a 50       		.byte	0x50
 5569 000b 0B000000 		.4byte	.LVL2-1
 5570 000f 16000000 		.4byte	.LFE37
 5571 0013 0400     		.2byte	0x4
 5572 0015 F3       		.byte	0xf3
 5573 0016 01       		.uleb128 0x1
 5574 0017 50       		.byte	0x50
 5575 0018 9F       		.byte	0x9f
ARM GAS  C:\Users\pearlstl\AppData\Local\Temp\ccvteysW.s 			page 122


 5576 0019 00000000 		.4byte	0
 5577 001d 00000000 		.4byte	0
 5578              	.LLST1:
 5579 0021 04000000 		.4byte	.LVL1
 5580 0025 12000000 		.4byte	.LVL3
 5581 0029 0100     		.2byte	0x1
 5582 002b 54       		.byte	0x54
 5583 002c 12000000 		.4byte	.LVL3
 5584 0030 15000000 		.4byte	.LVL4-1
 5585 0034 0100     		.2byte	0x1
 5586 0036 50       		.byte	0x50
 5587 0037 00000000 		.4byte	0
 5588 003b 00000000 		.4byte	0
 5589              	.LLST2:
 5590 003f 00000000 		.4byte	.LVL5
 5591 0043 06040000 		.4byte	.LVL25
 5592 0047 0100     		.2byte	0x1
 5593 0049 50       		.byte	0x50
 5594 004a 06040000 		.4byte	.LVL25
 5595 004e 0E040000 		.4byte	.LVL26
 5596 0052 0400     		.2byte	0x4
 5597 0054 F3       		.byte	0xf3
 5598 0055 01       		.uleb128 0x1
 5599 0056 50       		.byte	0x50
 5600 0057 9F       		.byte	0x9f
 5601 0058 0E040000 		.4byte	.LVL26
 5602 005c 38040000 		.4byte	.LVL29
 5603 0060 0100     		.2byte	0x1
 5604 0062 50       		.byte	0x50
 5605 0063 38040000 		.4byte	.LVL29
 5606 0067 40040000 		.4byte	.LVL30
 5607 006b 0400     		.2byte	0x4
 5608 006d F3       		.byte	0xf3
 5609 006e 01       		.uleb128 0x1
 5610 006f 50       		.byte	0x50
 5611 0070 9F       		.byte	0x9f
 5612 0071 40040000 		.4byte	.LVL30
 5613 0075 46040000 		.4byte	.LFE36
 5614 0079 0100     		.2byte	0x1
 5615 007b 50       		.byte	0x50
 5616 007c 00000000 		.4byte	0
 5617 0080 00000000 		.4byte	0
 5618              	.LLST3:
 5619 0084 00000000 		.4byte	.LVL5
 5620 0088 D4010000 		.4byte	.LVL8
 5621 008c 0100     		.2byte	0x1
 5622 008e 51       		.byte	0x51
 5623 008f D4010000 		.4byte	.LVL8
 5624 0093 DE030000 		.4byte	.LVL24
 5625 0097 0100     		.2byte	0x1
 5626 0099 54       		.byte	0x54
 5627 009a DE030000 		.4byte	.LVL24
 5628 009e 40040000 		.4byte	.LVL30
 5629 00a2 0400     		.2byte	0x4
 5630 00a4 F3       		.byte	0xf3
 5631 00a5 01       		.uleb128 0x1
 5632 00a6 51       		.byte	0x51
ARM GAS  C:\Users\pearlstl\AppData\Local\Temp\ccvteysW.s 			page 123


 5633 00a7 9F       		.byte	0x9f
 5634 00a8 40040000 		.4byte	.LVL30
 5635 00ac 44040000 		.4byte	.LVL31
 5636 00b0 0100     		.2byte	0x1
 5637 00b2 51       		.byte	0x51
 5638 00b3 44040000 		.4byte	.LVL31
 5639 00b7 46040000 		.4byte	.LFE36
 5640 00bb 0100     		.2byte	0x1
 5641 00bd 54       		.byte	0x54
 5642 00be 00000000 		.4byte	0
 5643 00c2 00000000 		.4byte	0
 5644              	.LLST4:
 5645 00c6 00000000 		.4byte	.LVL5
 5646 00ca 06040000 		.4byte	.LVL25
 5647 00ce 0100     		.2byte	0x1
 5648 00d0 50       		.byte	0x50
 5649 00d1 06040000 		.4byte	.LVL25
 5650 00d5 0E040000 		.4byte	.LVL26
 5651 00d9 0400     		.2byte	0x4
 5652 00db F3       		.byte	0xf3
 5653 00dc 01       		.uleb128 0x1
 5654 00dd 50       		.byte	0x50
 5655 00de 9F       		.byte	0x9f
 5656 00df 0E040000 		.4byte	.LVL26
 5657 00e3 38040000 		.4byte	.LVL29
 5658 00e7 0100     		.2byte	0x1
 5659 00e9 50       		.byte	0x50
 5660 00ea 38040000 		.4byte	.LVL29
 5661 00ee 40040000 		.4byte	.LVL30
 5662 00f2 0400     		.2byte	0x4
 5663 00f4 F3       		.byte	0xf3
 5664 00f5 01       		.uleb128 0x1
 5665 00f6 50       		.byte	0x50
 5666 00f7 9F       		.byte	0x9f
 5667 00f8 40040000 		.4byte	.LVL30
 5668 00fc 46040000 		.4byte	.LFE36
 5669 0100 0100     		.2byte	0x1
 5670 0102 50       		.byte	0x50
 5671 0103 00000000 		.4byte	0
 5672 0107 00000000 		.4byte	0
 5673              	.LLST5:
 5674 010b 00000000 		.4byte	.LVL5
 5675 010f 06040000 		.4byte	.LVL25
 5676 0113 0400     		.2byte	0x4
 5677 0115 70       		.byte	0x70
 5678 0116 D000     		.sleb128 80
 5679 0118 9F       		.byte	0x9f
 5680 0119 06040000 		.4byte	.LVL25
 5681 011d 0E040000 		.4byte	.LVL26
 5682 0121 0600     		.2byte	0x6
 5683 0123 F3       		.byte	0xf3
 5684 0124 01       		.uleb128 0x1
 5685 0125 50       		.byte	0x50
 5686 0126 23       		.byte	0x23
 5687 0127 50       		.uleb128 0x50
 5688 0128 9F       		.byte	0x9f
 5689 0129 0E040000 		.4byte	.LVL26
ARM GAS  C:\Users\pearlstl\AppData\Local\Temp\ccvteysW.s 			page 124


 5690 012d 38040000 		.4byte	.LVL29
 5691 0131 0400     		.2byte	0x4
 5692 0133 70       		.byte	0x70
 5693 0134 D000     		.sleb128 80
 5694 0136 9F       		.byte	0x9f
 5695 0137 38040000 		.4byte	.LVL29
 5696 013b 40040000 		.4byte	.LVL30
 5697 013f 0600     		.2byte	0x6
 5698 0141 F3       		.byte	0xf3
 5699 0142 01       		.uleb128 0x1
 5700 0143 50       		.byte	0x50
 5701 0144 23       		.byte	0x23
 5702 0145 50       		.uleb128 0x50
 5703 0146 9F       		.byte	0x9f
 5704 0147 40040000 		.4byte	.LVL30
 5705 014b 46040000 		.4byte	.LFE36
 5706 014f 0400     		.2byte	0x4
 5707 0151 70       		.byte	0x70
 5708 0152 D000     		.sleb128 80
 5709 0154 9F       		.byte	0x9f
 5710 0155 00000000 		.4byte	0
 5711 0159 00000000 		.4byte	0
 5712              	.LLST6:
 5713 015d 0E000000 		.4byte	.LVL6
 5714 0161 0D040000 		.4byte	.LVL26-1
 5715 0165 0100     		.2byte	0x1
 5716 0167 53       		.byte	0x53
 5717 0168 0E040000 		.4byte	.LVL26
 5718 016c 3F040000 		.4byte	.LVL30-1
 5719 0170 0100     		.2byte	0x1
 5720 0172 53       		.byte	0x53
 5721 0173 40040000 		.4byte	.LVL30
 5722 0177 46040000 		.4byte	.LFE36
 5723 017b 0100     		.2byte	0x1
 5724 017d 53       		.byte	0x53
 5725 017e 00000000 		.4byte	0
 5726 0182 00000000 		.4byte	0
 5727              	.LLST7:
 5728 0186 12000000 		.4byte	.LVL7
 5729 018a D4030000 		.4byte	.LVL23
 5730 018e 0100     		.2byte	0x1
 5731 0190 54       		.byte	0x54
 5732 0191 0E040000 		.4byte	.LVL26
 5733 0195 14040000 		.4byte	.LVL27
 5734 0199 0100     		.2byte	0x1
 5735 019b 54       		.byte	0x54
 5736 019c 14040000 		.4byte	.LVL27
 5737 01a0 34040000 		.4byte	.LVL28
 5738 01a4 0400     		.2byte	0x4
 5739 01a6 F3       		.byte	0xf3
 5740 01a7 01       		.uleb128 0x1
 5741 01a8 51       		.byte	0x51
 5742 01a9 9F       		.byte	0x9f
 5743 01aa 40040000 		.4byte	.LVL30
 5744 01ae 46040000 		.4byte	.LFE36
 5745 01b2 0100     		.2byte	0x1
 5746 01b4 54       		.byte	0x54
ARM GAS  C:\Users\pearlstl\AppData\Local\Temp\ccvteysW.s 			page 125


 5747 01b5 00000000 		.4byte	0
 5748 01b9 00000000 		.4byte	0
 5749              	.LLST8:
 5750 01bd 12000000 		.4byte	.LVL7
 5751 01c1 D4030000 		.4byte	.LVL23
 5752 01c5 0100     		.2byte	0x1
 5753 01c7 53       		.byte	0x53
 5754 01c8 0E040000 		.4byte	.LVL26
 5755 01cc 34040000 		.4byte	.LVL28
 5756 01d0 0100     		.2byte	0x1
 5757 01d2 53       		.byte	0x53
 5758 01d3 40040000 		.4byte	.LVL30
 5759 01d7 46040000 		.4byte	.LFE36
 5760 01db 0100     		.2byte	0x1
 5761 01dd 53       		.byte	0x53
 5762 01de 00000000 		.4byte	0
 5763 01e2 00000000 		.4byte	0
 5764              	.LLST9:
 5765 01e6 12000000 		.4byte	.LVL7
 5766 01ea D4030000 		.4byte	.LVL23
 5767 01ee 0400     		.2byte	0x4
 5768 01f0 70       		.byte	0x70
 5769 01f1 D000     		.sleb128 80
 5770 01f3 9F       		.byte	0x9f
 5771 01f4 0E040000 		.4byte	.LVL26
 5772 01f8 34040000 		.4byte	.LVL28
 5773 01fc 0400     		.2byte	0x4
 5774 01fe 70       		.byte	0x70
 5775 01ff D000     		.sleb128 80
 5776 0201 9F       		.byte	0x9f
 5777 0202 40040000 		.4byte	.LVL30
 5778 0206 46040000 		.4byte	.LFE36
 5779 020a 0400     		.2byte	0x4
 5780 020c 70       		.byte	0x70
 5781 020d D000     		.sleb128 80
 5782 020f 9F       		.byte	0x9f
 5783 0210 00000000 		.4byte	0
 5784 0214 00000000 		.4byte	0
 5785              	.LLST10:
 5786 0218 12000000 		.4byte	.LVL7
 5787 021c D4030000 		.4byte	.LVL23
 5788 0220 0100     		.2byte	0x1
 5789 0222 50       		.byte	0x50
 5790 0223 0E040000 		.4byte	.LVL26
 5791 0227 34040000 		.4byte	.LVL28
 5792 022b 0100     		.2byte	0x1
 5793 022d 50       		.byte	0x50
 5794 022e 40040000 		.4byte	.LVL30
 5795 0232 46040000 		.4byte	.LFE36
 5796 0236 0100     		.2byte	0x1
 5797 0238 50       		.byte	0x50
 5798 0239 00000000 		.4byte	0
 5799 023d 00000000 		.4byte	0
 5800              	.LLST11:
 5801 0241 E0000000 		.4byte	.LVL32
 5802 0245 0A010000 		.4byte	.LVL33
 5803 0249 0600     		.2byte	0x6
ARM GAS  C:\Users\pearlstl\AppData\Local\Temp\ccvteysW.s 			page 126


 5804 024b 03       		.byte	0x3
 5805 024c 00000000 		.4byte	lv_style_scr
 5806 0250 9F       		.byte	0x9f
 5807 0251 00000000 		.4byte	0
 5808 0255 00000000 		.4byte	0
 5809              	.LLST12:
 5810 0259 E0000000 		.4byte	.LVL32
 5811 025d 0A010000 		.4byte	.LVL33
 5812 0261 0600     		.2byte	0x6
 5813 0263 03       		.byte	0x3
 5814 0264 00000000 		.4byte	lv_style_plain
 5815 0268 9F       		.byte	0x9f
 5816 0269 00000000 		.4byte	0
 5817 026d 00000000 		.4byte	0
 5818              	.LLST13:
 5819 0271 24010000 		.4byte	.LVL34
 5820 0275 28010000 		.4byte	.LVL35
 5821 0279 0600     		.2byte	0x6
 5822 027b 03       		.byte	0x3
 5823 027c 00000000 		.4byte	lv_style_plain
 5824 0280 9F       		.byte	0x9f
 5825 0281 00000000 		.4byte	0
 5826 0285 00000000 		.4byte	0
 5827              	.LLST14:
 5828 0289 24010000 		.4byte	.LVL34
 5829 028d 28010000 		.4byte	.LVL35
 5830 0291 0600     		.2byte	0x6
 5831 0293 03       		.byte	0x3
 5832 0294 00000000 		.4byte	lv_style_plain_color
 5833 0298 9F       		.byte	0x9f
 5834 0299 00000000 		.4byte	0
 5835 029d 00000000 		.4byte	0
 5836              	.LLST15:
 5837 02a1 4C010000 		.4byte	.LVL36
 5838 02a5 78010000 		.4byte	.LVL37
 5839 02a9 0600     		.2byte	0x6
 5840 02ab 03       		.byte	0x3
 5841 02ac 00000000 		.4byte	lv_style_plain
 5842 02b0 9F       		.byte	0x9f
 5843 02b1 00000000 		.4byte	0
 5844 02b5 00000000 		.4byte	0
 5845              	.LLST16:
 5846 02b9 4C010000 		.4byte	.LVL36
 5847 02bd 78010000 		.4byte	.LVL37
 5848 02c1 0600     		.2byte	0x6
 5849 02c3 03       		.byte	0x3
 5850 02c4 00000000 		.4byte	lv_style_pretty
 5851 02c8 9F       		.byte	0x9f
 5852 02c9 00000000 		.4byte	0
 5853 02cd 00000000 		.4byte	0
 5854              	.LLST17:
 5855 02d1 DE010000 		.4byte	.LVL38
 5856 02d5 E2010000 		.4byte	.LVL39
 5857 02d9 0600     		.2byte	0x6
 5858 02db 03       		.byte	0x3
 5859 02dc 00000000 		.4byte	lv_style_pretty
 5860 02e0 9F       		.byte	0x9f
ARM GAS  C:\Users\pearlstl\AppData\Local\Temp\ccvteysW.s 			page 127


 5861 02e1 00000000 		.4byte	0
 5862 02e5 00000000 		.4byte	0
 5863              	.LLST18:
 5864 02e9 DE010000 		.4byte	.LVL38
 5865 02ed E2010000 		.4byte	.LVL39
 5866 02f1 0600     		.2byte	0x6
 5867 02f3 03       		.byte	0x3
 5868 02f4 00000000 		.4byte	lv_style_pretty_color
 5869 02f8 9F       		.byte	0x9f
 5870 02f9 00000000 		.4byte	0
 5871 02fd 00000000 		.4byte	0
 5872              	.LLST19:
 5873 0301 3C020000 		.4byte	.LVL40
 5874 0305 4E020000 		.4byte	.LVL41
 5875 0309 0600     		.2byte	0x6
 5876 030b 03       		.byte	0x3
 5877 030c 00000000 		.4byte	lv_style_plain
 5878 0310 9F       		.byte	0x9f
 5879 0311 00000000 		.4byte	0
 5880 0315 00000000 		.4byte	0
 5881              	.LLST20:
 5882 0319 3C020000 		.4byte	.LVL40
 5883 031d 4E020000 		.4byte	.LVL41
 5884 0321 0600     		.2byte	0x6
 5885 0323 03       		.byte	0x3
 5886 0324 00000000 		.4byte	lv_style_transp
 5887 0328 9F       		.byte	0x9f
 5888 0329 00000000 		.4byte	0
 5889 032d 00000000 		.4byte	0
 5890              	.LLST21:
 5891 0331 6A020000 		.4byte	.LVL42
 5892 0335 6E020000 		.4byte	.LVL43
 5893 0339 0600     		.2byte	0x6
 5894 033b 03       		.byte	0x3
 5895 033c 00000000 		.4byte	lv_style_transp
 5896 0340 9F       		.byte	0x9f
 5897 0341 00000000 		.4byte	0
 5898 0345 00000000 		.4byte	0
 5899              	.LLST22:
 5900 0349 6A020000 		.4byte	.LVL42
 5901 034d 6E020000 		.4byte	.LVL43
 5902 0351 0600     		.2byte	0x6
 5903 0353 03       		.byte	0x3
 5904 0354 00000000 		.4byte	lv_style_transp_fit
 5905 0358 9F       		.byte	0x9f
 5906 0359 00000000 		.4byte	0
 5907 035d 00000000 		.4byte	0
 5908              	.LLST23:
 5909 0361 9A020000 		.4byte	.LVL46
 5910 0365 9E020000 		.4byte	.LVL47
 5911 0369 0600     		.2byte	0x6
 5912 036b 03       		.byte	0x3
 5913 036c 00000000 		.4byte	lv_style_plain
 5914 0370 9F       		.byte	0x9f
 5915 0371 00000000 		.4byte	0
 5916 0375 00000000 		.4byte	0
 5917              	.LLST24:
ARM GAS  C:\Users\pearlstl\AppData\Local\Temp\ccvteysW.s 			page 128


 5918 0379 9A020000 		.4byte	.LVL46
 5919 037d 9E020000 		.4byte	.LVL47
 5920 0381 0600     		.2byte	0x6
 5921 0383 03       		.byte	0x3
 5922 0384 00000000 		.4byte	lv_style_btn_rel
 5923 0388 9F       		.byte	0x9f
 5924 0389 00000000 		.4byte	0
 5925 038d 00000000 		.4byte	0
 5926              	.LLST25:
 5927 0391 82020000 		.4byte	.LVL44
 5928 0395 8E020000 		.4byte	.LVL45
 5929 0399 0600     		.2byte	0x6
 5930 039b 03       		.byte	0x3
 5931 039c 00000000 		.4byte	lv_style_transp_fit
 5932 03a0 9F       		.byte	0x9f
 5933 03a1 00000000 		.4byte	0
 5934 03a5 00000000 		.4byte	0
 5935              	.LLST26:
 5936 03a9 82020000 		.4byte	.LVL44
 5937 03ad 8E020000 		.4byte	.LVL45
 5938 03b1 0600     		.2byte	0x6
 5939 03b3 03       		.byte	0x3
 5940 03b4 00000000 		.4byte	lv_style_transp_tight
 5941 03b8 9F       		.byte	0x9f
 5942 03b9 00000000 		.4byte	0
 5943 03bd 00000000 		.4byte	0
 5944              	.LLST27:
 5945 03c1 30030000 		.4byte	.LVL48
 5946 03c5 34030000 		.4byte	.LVL49
 5947 03c9 0600     		.2byte	0x6
 5948 03cb 03       		.byte	0x3
 5949 03cc 00000000 		.4byte	lv_style_btn_rel
 5950 03d0 9F       		.byte	0x9f
 5951 03d1 00000000 		.4byte	0
 5952 03d5 00000000 		.4byte	0
 5953              	.LLST28:
 5954 03d9 30030000 		.4byte	.LVL48
 5955 03dd 34030000 		.4byte	.LVL49
 5956 03e1 0600     		.2byte	0x6
 5957 03e3 03       		.byte	0x3
 5958 03e4 00000000 		.4byte	lv_style_btn_pr
 5959 03e8 9F       		.byte	0x9f
 5960 03e9 00000000 		.4byte	0
 5961 03ed 00000000 		.4byte	0
 5962              	.LLST29:
 5963 03f1 64030000 		.4byte	.LVL50
 5964 03f5 98030000 		.4byte	.LVL51
 5965 03f9 0600     		.2byte	0x6
 5966 03fb 03       		.byte	0x3
 5967 03fc 00000000 		.4byte	lv_style_btn_rel
 5968 0400 9F       		.byte	0x9f
 5969 0401 00000000 		.4byte	0
 5970 0405 00000000 		.4byte	0
 5971              	.LLST30:
 5972 0409 64030000 		.4byte	.LVL50
 5973 040d 98030000 		.4byte	.LVL51
 5974 0411 0600     		.2byte	0x6
ARM GAS  C:\Users\pearlstl\AppData\Local\Temp\ccvteysW.s 			page 129


 5975 0413 03       		.byte	0x3
 5976 0414 00000000 		.4byte	lv_style_btn_tgl_rel
 5977 0418 9F       		.byte	0x9f
 5978 0419 00000000 		.4byte	0
 5979 041d 00000000 		.4byte	0
 5980              	.LLST31:
 5981 0421 30040000 		.4byte	.LVL52
 5982 0425 54040000 		.4byte	.LVL53
 5983 0429 0600     		.2byte	0x6
 5984 042b 03       		.byte	0x3
 5985 042c 00000000 		.4byte	lv_style_btn_tgl_rel
 5986 0430 9F       		.byte	0x9f
 5987 0431 00000000 		.4byte	0
 5988 0435 00000000 		.4byte	0
 5989              	.LLST32:
 5990 0439 30040000 		.4byte	.LVL52
 5991 043d 54040000 		.4byte	.LVL53
 5992 0441 0600     		.2byte	0x6
 5993 0443 03       		.byte	0x3
 5994 0444 00000000 		.4byte	lv_style_btn_tgl_pr
 5995 0448 9F       		.byte	0x9f
 5996 0449 00000000 		.4byte	0
 5997 044d 00000000 		.4byte	0
 5998              	.LLST33:
 5999 0451 B4040000 		.4byte	.LVL54
 6000 0455 C4040000 		.4byte	.LVL55
 6001 0459 0600     		.2byte	0x6
 6002 045b 03       		.byte	0x3
 6003 045c 00000000 		.4byte	lv_style_btn_rel
 6004 0460 9F       		.byte	0x9f
 6005 0461 00000000 		.4byte	0
 6006 0465 00000000 		.4byte	0
 6007              	.LLST34:
 6008 0469 B4040000 		.4byte	.LVL54
 6009 046d C4040000 		.4byte	.LVL55
 6010 0471 0600     		.2byte	0x6
 6011 0473 03       		.byte	0x3
 6012 0474 00000000 		.4byte	lv_style_btn_ina
 6013 0478 9F       		.byte	0x9f
 6014 0479 00000000 		.4byte	0
 6015 047d 00000000 		.4byte	0
 6016              	.LLST35:
 6017 0481 00000000 		.4byte	.LVL56
 6018 0485 05000000 		.4byte	.LVL57-1
 6019 0489 0100     		.2byte	0x1
 6020 048b 50       		.byte	0x50
 6021 048c 05000000 		.4byte	.LVL57-1
 6022 0490 06000000 		.4byte	.LFE32
 6023 0494 0400     		.2byte	0x4
 6024 0496 F3       		.byte	0xf3
 6025 0497 01       		.uleb128 0x1
 6026 0498 50       		.byte	0x50
 6027 0499 9F       		.byte	0x9f
 6028 049a 00000000 		.4byte	0
 6029 049e 00000000 		.4byte	0
 6030              	.LLST36:
 6031 04a2 00000000 		.4byte	.LVL56
ARM GAS  C:\Users\pearlstl\AppData\Local\Temp\ccvteysW.s 			page 130


 6032 04a6 05000000 		.4byte	.LVL57-1
 6033 04aa 0100     		.2byte	0x1
 6034 04ac 51       		.byte	0x51
 6035 04ad 05000000 		.4byte	.LVL57-1
 6036 04b1 06000000 		.4byte	.LFE32
 6037 04b5 0400     		.2byte	0x4
 6038 04b7 F3       		.byte	0xf3
 6039 04b8 01       		.uleb128 0x1
 6040 04b9 51       		.byte	0x51
 6041 04ba 9F       		.byte	0x9f
 6042 04bb 00000000 		.4byte	0
 6043 04bf 00000000 		.4byte	0
 6044              	.LLST37:
 6045 04c3 00000000 		.4byte	.LVL58
 6046 04c7 DA030000 		.4byte	.LVL74
 6047 04cb 0100     		.2byte	0x1
 6048 04cd 50       		.byte	0x50
 6049 04ce DA030000 		.4byte	.LVL74
 6050 04d2 FC030000 		.4byte	.LVL76
 6051 04d6 0400     		.2byte	0x4
 6052 04d8 F3       		.byte	0xf3
 6053 04d9 01       		.uleb128 0x1
 6054 04da 50       		.byte	0x50
 6055 04db 9F       		.byte	0x9f
 6056 04dc FC030000 		.4byte	.LVL76
 6057 04e0 2C040000 		.4byte	.LFE33
 6058 04e4 0100     		.2byte	0x1
 6059 04e6 50       		.byte	0x50
 6060 04e7 00000000 		.4byte	0
 6061 04eb 00000000 		.4byte	0
 6062              	.LLST38:
 6063 04ef 00000000 		.4byte	.LVL58
 6064 04f3 F0030000 		.4byte	.LVL75
 6065 04f7 0100     		.2byte	0x1
 6066 04f9 51       		.byte	0x51
 6067 04fa F0030000 		.4byte	.LVL75
 6068 04fe FC030000 		.4byte	.LVL76
 6069 0502 0400     		.2byte	0x4
 6070 0504 F3       		.byte	0xf3
 6071 0505 01       		.uleb128 0x1
 6072 0506 51       		.byte	0x51
 6073 0507 9F       		.byte	0x9f
 6074 0508 FC030000 		.4byte	.LVL76
 6075 050c 04040000 		.4byte	.LVL78
 6076 0510 0100     		.2byte	0x1
 6077 0512 51       		.byte	0x51
 6078 0513 04040000 		.4byte	.LVL78
 6079 0517 26040000 		.4byte	.LVL79
 6080 051b 0400     		.2byte	0x4
 6081 051d F3       		.byte	0xf3
 6082 051e 01       		.uleb128 0x1
 6083 051f 51       		.byte	0x51
 6084 0520 9F       		.byte	0x9f
 6085 0521 26040000 		.4byte	.LVL79
 6086 0525 2C040000 		.4byte	.LFE33
 6087 0529 0100     		.2byte	0x1
 6088 052b 51       		.byte	0x51
ARM GAS  C:\Users\pearlstl\AppData\Local\Temp\ccvteysW.s 			page 131


 6089 052c 00000000 		.4byte	0
 6090 0530 00000000 		.4byte	0
 6091              	.LLST39:
 6092 0534 00000000 		.4byte	.LVL58
 6093 0538 D4030000 		.4byte	.LVL73
 6094 053c 0100     		.2byte	0x1
 6095 053e 53       		.byte	0x53
 6096 053f D4030000 		.4byte	.LVL73
 6097 0543 FC030000 		.4byte	.LVL76
 6098 0547 0400     		.2byte	0x4
 6099 0549 F3       		.byte	0xf3
 6100 054a 01       		.uleb128 0x1
 6101 054b 53       		.byte	0x53
 6102 054c 9F       		.byte	0x9f
 6103 054d FC030000 		.4byte	.LVL76
 6104 0551 FE030000 		.4byte	.LVL77
 6105 0555 0100     		.2byte	0x1
 6106 0557 53       		.byte	0x53
 6107 0558 FE030000 		.4byte	.LVL77
 6108 055c 26040000 		.4byte	.LVL79
 6109 0560 0400     		.2byte	0x4
 6110 0562 F3       		.byte	0xf3
 6111 0563 01       		.uleb128 0x1
 6112 0564 53       		.byte	0x53
 6113 0565 9F       		.byte	0x9f
 6114 0566 26040000 		.4byte	.LVL79
 6115 056a 2C040000 		.4byte	.LFE33
 6116 056e 0100     		.2byte	0x1
 6117 0570 53       		.byte	0x53
 6118 0571 00000000 		.4byte	0
 6119 0575 00000000 		.4byte	0
 6120              	.LLST40:
 6121 0579 00000000 		.4byte	.LVL80
 6122 057d 09000000 		.4byte	.LVL81-1
 6123 0581 0100     		.2byte	0x1
 6124 0583 50       		.byte	0x50
 6125 0584 09000000 		.4byte	.LVL81-1
 6126 0588 46000000 		.4byte	.LVL88
 6127 058c 0100     		.2byte	0x1
 6128 058e 54       		.byte	0x54
 6129 058f 46000000 		.4byte	.LVL88
 6130 0593 58000000 		.4byte	.LFE34
 6131 0597 0400     		.2byte	0x4
 6132 0599 F3       		.byte	0xf3
 6133 059a 01       		.uleb128 0x1
 6134 059b 50       		.byte	0x50
 6135 059c 9F       		.byte	0x9f
 6136 059d 00000000 		.4byte	0
 6137 05a1 00000000 		.4byte	0
 6138              	.LLST41:
 6139 05a5 24000000 		.4byte	.LVL82
 6140 05a9 37000000 		.4byte	.LVL84-1
 6141 05ad 0100     		.2byte	0x1
 6142 05af 50       		.byte	0x50
 6143 05b0 37000000 		.4byte	.LVL84-1
 6144 05b4 44000000 		.4byte	.LVL87
 6145 05b8 0100     		.2byte	0x1
ARM GAS  C:\Users\pearlstl\AppData\Local\Temp\ccvteysW.s 			page 132


 6146 05ba 55       		.byte	0x55
 6147 05bb 00000000 		.4byte	0
 6148 05bf 00000000 		.4byte	0
 6149              	.LLST42:
 6150 05c3 34000000 		.4byte	.LVL83
 6151 05c7 38000000 		.4byte	.LVL84
 6152 05cb 0600     		.2byte	0x6
 6153 05cd 03       		.byte	0x3
 6154 05ce 00000000 		.4byte	lv_style_plain
 6155 05d2 9F       		.byte	0x9f
 6156 05d3 00000000 		.4byte	0
 6157 05d7 00000000 		.4byte	0
 6158              	.LLST43:
 6159 05db 34000000 		.4byte	.LVL83
 6160 05df 37000000 		.4byte	.LVL84-1
 6161 05e3 0100     		.2byte	0x1
 6162 05e5 50       		.byte	0x50
 6163 05e6 37000000 		.4byte	.LVL84-1
 6164 05ea 38000000 		.4byte	.LVL84
 6165 05ee 0100     		.2byte	0x1
 6166 05f0 55       		.byte	0x55
 6167 05f1 00000000 		.4byte	0
 6168 05f5 00000000 		.4byte	0
 6169              	.LLST44:
 6170 05f9 38000000 		.4byte	.LVL84
 6171 05fd 42000000 		.4byte	.LVL86
 6172 0601 0600     		.2byte	0x6
 6173 0603 03       		.byte	0x3
 6174 0604 00000000 		.4byte	lv_style_plain
 6175 0608 9F       		.byte	0x9f
 6176 0609 00000000 		.4byte	0
 6177 060d 00000000 		.4byte	0
 6178              	.LLST45:
 6179 0611 38000000 		.4byte	.LVL84
 6180 0615 3E000000 		.4byte	.LVL85
 6181 0619 0400     		.2byte	0x4
 6182 061b 75       		.byte	0x75
 6183 061c D000     		.sleb128 80
 6184 061e 9F       		.byte	0x9f
 6185 061f 3E000000 		.4byte	.LVL85
 6186 0623 41000000 		.4byte	.LVL86-1
 6187 0627 0100     		.2byte	0x1
 6188 0629 50       		.byte	0x50
 6189 062a 41000000 		.4byte	.LVL86-1
 6190 062e 42000000 		.4byte	.LVL86
 6191 0632 0400     		.2byte	0x4
 6192 0634 75       		.byte	0x75
 6193 0635 D000     		.sleb128 80
 6194 0637 9F       		.byte	0x9f
 6195 0638 00000000 		.4byte	0
 6196 063c 00000000 		.4byte	0
 6197              	.LLST46:
 6198 0640 00000000 		.4byte	.LVL89
 6199 0644 14000000 		.4byte	.LVL91
 6200 0648 0100     		.2byte	0x1
 6201 064a 50       		.byte	0x50
 6202 064b 14000000 		.4byte	.LVL91
ARM GAS  C:\Users\pearlstl\AppData\Local\Temp\ccvteysW.s 			page 133


 6203 064f 34000000 		.4byte	.LFE35
 6204 0653 0400     		.2byte	0x4
 6205 0655 F3       		.byte	0xf3
 6206 0656 01       		.uleb128 0x1
 6207 0657 50       		.byte	0x50
 6208 0658 9F       		.byte	0x9f
 6209 0659 00000000 		.4byte	0
 6210 065d 00000000 		.4byte	0
 6211              	.LLST47:
 6212 0661 00000000 		.4byte	.LVL89
 6213 0665 16000000 		.4byte	.LVL92
 6214 0669 0100     		.2byte	0x1
 6215 066b 51       		.byte	0x51
 6216 066c 16000000 		.4byte	.LVL92
 6217 0670 30000000 		.4byte	.LVL96
 6218 0674 0100     		.2byte	0x1
 6219 0676 56       		.byte	0x56
 6220 0677 30000000 		.4byte	.LVL96
 6221 067b 33000000 		.4byte	.LVL97-1
 6222 067f 0100     		.2byte	0x1
 6223 0681 50       		.byte	0x50
 6224 0682 33000000 		.4byte	.LVL97-1
 6225 0686 34000000 		.4byte	.LFE35
 6226 068a 0400     		.2byte	0x4
 6227 068c F3       		.byte	0xf3
 6228 068d 01       		.uleb128 0x1
 6229 068e 51       		.byte	0x51
 6230 068f 9F       		.byte	0x9f
 6231 0690 00000000 		.4byte	0
 6232 0694 00000000 		.4byte	0
 6233              	.LLST48:
 6234 0698 00000000 		.4byte	.LVL89
 6235 069c 18000000 		.4byte	.LVL93
 6236 06a0 0100     		.2byte	0x1
 6237 06a2 52       		.byte	0x52
 6238 06a3 18000000 		.4byte	.LVL93
 6239 06a7 1B000000 		.4byte	.LVL94-1
 6240 06ab 0100     		.2byte	0x1
 6241 06ad 51       		.byte	0x51
 6242 06ae 1B000000 		.4byte	.LVL94-1
 6243 06b2 30000000 		.4byte	.LVL96
 6244 06b6 0100     		.2byte	0x1
 6245 06b8 57       		.byte	0x57
 6246 06b9 30000000 		.4byte	.LVL96
 6247 06bd 33000000 		.4byte	.LVL97-1
 6248 06c1 0100     		.2byte	0x1
 6249 06c3 51       		.byte	0x51
 6250 06c4 33000000 		.4byte	.LVL97-1
 6251 06c8 34000000 		.4byte	.LFE35
 6252 06cc 0400     		.2byte	0x4
 6253 06ce F3       		.byte	0xf3
 6254 06cf 01       		.uleb128 0x1
 6255 06d0 52       		.byte	0x52
 6256 06d1 9F       		.byte	0x9f
 6257 06d2 00000000 		.4byte	0
 6258 06d6 00000000 		.4byte	0
 6259              	.LLST49:
ARM GAS  C:\Users\pearlstl\AppData\Local\Temp\ccvteysW.s 			page 134


 6260 06da 00000000 		.4byte	.LVL89
 6261 06de 1B000000 		.4byte	.LVL94-1
 6262 06e2 0100     		.2byte	0x1
 6263 06e4 53       		.byte	0x53
 6264 06e5 1B000000 		.4byte	.LVL94-1
 6265 06e9 30000000 		.4byte	.LVL96
 6266 06ed 0100     		.2byte	0x1
 6267 06ef 58       		.byte	0x58
 6268 06f0 30000000 		.4byte	.LVL96
 6269 06f4 34000000 		.4byte	.LFE35
 6270 06f8 0400     		.2byte	0x4
 6271 06fa F3       		.byte	0xf3
 6272 06fb 01       		.uleb128 0x1
 6273 06fc 53       		.byte	0x53
 6274 06fd 9F       		.byte	0x9f
 6275 06fe 00000000 		.4byte	0
 6276 0702 00000000 		.4byte	0
 6277              	.LLST50:
 6278 0706 06000000 		.4byte	.LVL90
 6279 070a 30000000 		.4byte	.LVL96
 6280 070e 0100     		.2byte	0x1
 6281 0710 55       		.byte	0x55
 6282 0711 00000000 		.4byte	0
 6283 0715 00000000 		.4byte	0
 6284              		.section	.debug_aranges,"",%progbits
 6285 0000 4C000000 		.4byte	0x4c
 6286 0004 0200     		.2byte	0x2
 6287 0006 00000000 		.4byte	.Ldebug_info0
 6288 000a 04       		.byte	0x4
 6289 000b 00       		.byte	0
 6290 000c 0000     		.2byte	0
 6291 000e 0000     		.2byte	0
 6292 0010 00000000 		.4byte	.LFB37
 6293 0014 16000000 		.4byte	.LFE37-.LFB37
 6294 0018 00000000 		.4byte	.LFB36
 6295 001c 46040000 		.4byte	.LFE36-.LFB36
 6296 0020 00000000 		.4byte	.LFB31
 6297 0024 1C050000 		.4byte	.LFE31-.LFB31
 6298 0028 00000000 		.4byte	.LFB32
 6299 002c 06000000 		.4byte	.LFE32-.LFB32
 6300 0030 00000000 		.4byte	.LFB33
 6301 0034 2C040000 		.4byte	.LFE33-.LFB33
 6302 0038 00000000 		.4byte	.LFB34
 6303 003c 58000000 		.4byte	.LFE34-.LFB34
 6304 0040 00000000 		.4byte	.LFB35
 6305 0044 34000000 		.4byte	.LFE35-.LFB35
 6306 0048 00000000 		.4byte	0
 6307 004c 00000000 		.4byte	0
 6308              		.section	.debug_ranges,"",%progbits
 6309              	.Ldebug_ranges0:
 6310 0000 04000000 		.4byte	.LBB150
 6311 0004 0A000000 		.4byte	.LBE150
 6312 0008 0E000000 		.4byte	.LBB226
 6313 000c 10000000 		.4byte	.LBE226
 6314 0010 12000000 		.4byte	.LBB227
 6315 0014 02040000 		.4byte	.LBE227
 6316 0018 0E040000 		.4byte	.LBB228
ARM GAS  C:\Users\pearlstl\AppData\Local\Temp\ccvteysW.s 			page 135


 6317 001c 34040000 		.4byte	.LBE228
 6318 0020 40040000 		.4byte	.LBB229
 6319 0024 46040000 		.4byte	.LBE229
 6320 0028 00000000 		.4byte	0
 6321 002c 00000000 		.4byte	0
 6322 0030 DC010000 		.4byte	.LBB152
 6323 0034 E2010000 		.4byte	.LBE152
 6324 0038 E4010000 		.4byte	.LBB159
 6325 003c EC010000 		.4byte	.LBE159
 6326 0040 F0010000 		.4byte	.LBB160
 6327 0044 F8010000 		.4byte	.LBE160
 6328 0048 FC010000 		.4byte	.LBB161
 6329 004c 04020000 		.4byte	.LBE161
 6330 0050 08020000 		.4byte	.LBB162
 6331 0054 0C020000 		.4byte	.LBE162
 6332 0058 0E020000 		.4byte	.LBB163
 6333 005c 12020000 		.4byte	.LBE163
 6334 0060 00000000 		.4byte	0
 6335 0064 00000000 		.4byte	0
 6336 0068 20020000 		.4byte	.LBB164
 6337 006c 28020000 		.4byte	.LBE164
 6338 0070 2A020000 		.4byte	.LBB170
 6339 0074 32020000 		.4byte	.LBE170
 6340 0078 38020000 		.4byte	.LBB171
 6341 007c 40020000 		.4byte	.LBE171
 6342 0080 44020000 		.4byte	.LBB172
 6343 0084 4C020000 		.4byte	.LBE172
 6344 0088 50020000 		.4byte	.LBB173
 6345 008c 58020000 		.4byte	.LBE173
 6346 0090 00000000 		.4byte	0
 6347 0094 00000000 		.4byte	0
 6348 0098 64020000 		.4byte	.LBB174
 6349 009c 6C020000 		.4byte	.LBE174
 6350 00a0 6E020000 		.4byte	.LBB180
 6351 00a4 76020000 		.4byte	.LBE180
 6352 00a8 7C020000 		.4byte	.LBB181
 6353 00ac 84020000 		.4byte	.LBE181
 6354 00b0 88020000 		.4byte	.LBB182
 6355 00b4 90020000 		.4byte	.LBE182
 6356 00b8 94020000 		.4byte	.LBB183
 6357 00bc 9C020000 		.4byte	.LBE183
 6358 00c0 00000000 		.4byte	0
 6359 00c4 00000000 		.4byte	0
 6360 00c8 A8020000 		.4byte	.LBB184
 6361 00cc B8020000 		.4byte	.LBE184
 6362 00d0 C0020000 		.4byte	.LBB189
 6363 00d4 C8020000 		.4byte	.LBE189
 6364 00d8 CC020000 		.4byte	.LBB190
 6365 00dc D4020000 		.4byte	.LBE190
 6366 00e0 D8020000 		.4byte	.LBB191
 6367 00e4 E0020000 		.4byte	.LBE191
 6368 00e8 00000000 		.4byte	0
 6369 00ec 00000000 		.4byte	0
 6370 00f0 EC020000 		.4byte	.LBB192
 6371 00f4 F4020000 		.4byte	.LBE192
 6372 00f8 F8020000 		.4byte	.LBB198
 6373 00fc 00030000 		.4byte	.LBE198
ARM GAS  C:\Users\pearlstl\AppData\Local\Temp\ccvteysW.s 			page 136


 6374 0100 08030000 		.4byte	.LBB199
 6375 0104 10030000 		.4byte	.LBE199
 6376 0108 14030000 		.4byte	.LBB200
 6377 010c 1C030000 		.4byte	.LBE200
 6378 0110 20030000 		.4byte	.LBB201
 6379 0114 28030000 		.4byte	.LBE201
 6380 0118 00000000 		.4byte	0
 6381 011c 00000000 		.4byte	0
 6382 0120 38030000 		.4byte	.LBB202
 6383 0124 40030000 		.4byte	.LBE202
 6384 0128 44030000 		.4byte	.LBB208
 6385 012c 4C030000 		.4byte	.LBE208
 6386 0130 54030000 		.4byte	.LBB209
 6387 0134 5C030000 		.4byte	.LBE209
 6388 0138 60030000 		.4byte	.LBB210
 6389 013c 68030000 		.4byte	.LBE210
 6390 0140 6C030000 		.4byte	.LBB211
 6391 0144 74030000 		.4byte	.LBE211
 6392 0148 00000000 		.4byte	0
 6393 014c 00000000 		.4byte	0
 6394 0150 84030000 		.4byte	.LBB212
 6395 0154 94030000 		.4byte	.LBE212
 6396 0158 A0030000 		.4byte	.LBB218
 6397 015c A8030000 		.4byte	.LBE218
 6398 0160 AC030000 		.4byte	.LBB219
 6399 0164 B4030000 		.4byte	.LBE219
 6400 0168 BC030000 		.4byte	.LBB220
 6401 016c C0030000 		.4byte	.LBE220
 6402 0170 C2030000 		.4byte	.LBB221
 6403 0174 C6030000 		.4byte	.LBE221
 6404 0178 00000000 		.4byte	0
 6405 017c 00000000 		.4byte	0
 6406 0180 06000000 		.4byte	.LBB230
 6407 0184 0A000000 		.4byte	.LBE230
 6408 0188 BA000000 		.4byte	.LBB248
 6409 018c BC000000 		.4byte	.LBE248
 6410 0190 02010000 		.4byte	.LBB249
 6411 0194 0A010000 		.4byte	.LBE249
 6412 0198 00000000 		.4byte	0
 6413 019c 00000000 		.4byte	0
 6414 01a0 10000000 		.4byte	.LBB234
 6415 01a4 12000000 		.4byte	.LBE234
 6416 01a8 0E010000 		.4byte	.LBB250
 6417 01ac 14010000 		.4byte	.LBE250
 6418 01b0 24010000 		.4byte	.LBB251
 6419 01b4 28010000 		.4byte	.LBE251
 6420 01b8 00000000 		.4byte	0
 6421 01bc 00000000 		.4byte	0
 6422 01c0 12000000 		.4byte	.LBB238
 6423 01c4 14000000 		.4byte	.LBE238
 6424 01c8 40010000 		.4byte	.LBB252
 6425 01cc 42010000 		.4byte	.LBE252
 6426 01d0 70010000 		.4byte	.LBB253
 6427 01d4 78010000 		.4byte	.LBE253
 6428 01d8 00000000 		.4byte	0
 6429 01dc 00000000 		.4byte	0
 6430 01e0 14000000 		.4byte	.LBB242
ARM GAS  C:\Users\pearlstl\AppData\Local\Temp\ccvteysW.s 			page 137


 6431 01e4 16000000 		.4byte	.LBE242
 6432 01e8 80010000 		.4byte	.LBB254
 6433 01ec 82010000 		.4byte	.LBE254
 6434 01f0 C0010000 		.4byte	.LBB255
 6435 01f4 C2010000 		.4byte	.LBE255
 6436 01f8 C6010000 		.4byte	.LBB256
 6437 01fc C8010000 		.4byte	.LBE256
 6438 0200 DE010000 		.4byte	.LBB257
 6439 0204 E2010000 		.4byte	.LBE257
 6440 0208 00000000 		.4byte	0
 6441 020c 00000000 		.4byte	0
 6442 0210 E8010000 		.4byte	.LBB258
 6443 0214 EC010000 		.4byte	.LBE258
 6444 0218 42020000 		.4byte	.LBB262
 6445 021c 44020000 		.4byte	.LBE262
 6446 0220 46020000 		.4byte	.LBB263
 6447 0224 4E020000 		.4byte	.LBE263
 6448 0228 00000000 		.4byte	0
 6449 022c 00000000 		.4byte	0
 6450 0230 52020000 		.4byte	.LBB264
 6451 0234 54020000 		.4byte	.LBE264
 6452 0238 5C020000 		.4byte	.LBB269
 6453 023c 5E020000 		.4byte	.LBE269
 6454 0240 62020000 		.4byte	.LBB270
 6455 0244 66020000 		.4byte	.LBE270
 6456 0248 6A020000 		.4byte	.LBB271
 6457 024c 6E020000 		.4byte	.LBE271
 6458 0250 00000000 		.4byte	0
 6459 0254 00000000 		.4byte	0
 6460 0258 6E020000 		.4byte	.LBB272
 6461 025c 70020000 		.4byte	.LBE272
 6462 0260 90020000 		.4byte	.LBB291
 6463 0264 96020000 		.4byte	.LBE291
 6464 0268 9A020000 		.4byte	.LBB292
 6465 026c 9E020000 		.4byte	.LBE292
 6466 0270 00000000 		.4byte	0
 6467 0274 00000000 		.4byte	0
 6468 0278 74020000 		.4byte	.LBB276
 6469 027c 76020000 		.4byte	.LBE276
 6470 0280 82020000 		.4byte	.LBB280
 6471 0284 86020000 		.4byte	.LBE280
 6472 0288 8A020000 		.4byte	.LBB290
 6473 028c 8E020000 		.4byte	.LBE290
 6474 0290 00000000 		.4byte	0
 6475 0294 00000000 		.4byte	0
 6476 0298 86020000 		.4byte	.LBB281
 6477 029c 88020000 		.4byte	.LBE281
 6478 02a0 E2020000 		.4byte	.LBB293
 6479 02a4 E4020000 		.4byte	.LBE293
 6480 02a8 E8020000 		.4byte	.LBB294
 6481 02ac EC020000 		.4byte	.LBE294
 6482 02b0 30030000 		.4byte	.LBB295
 6483 02b4 34030000 		.4byte	.LBE295
 6484 02b8 00000000 		.4byte	0
 6485 02bc 00000000 		.4byte	0
 6486 02c0 88020000 		.4byte	.LBB286
 6487 02c4 8A020000 		.4byte	.LBE286
ARM GAS  C:\Users\pearlstl\AppData\Local\Temp\ccvteysW.s 			page 138


 6488 02c8 6A030000 		.4byte	.LBB296
 6489 02cc 6C030000 		.4byte	.LBE296
 6490 02d0 90030000 		.4byte	.LBB297
 6491 02d4 98030000 		.4byte	.LBE297
 6492 02d8 00000000 		.4byte	0
 6493 02dc 00000000 		.4byte	0
 6494 02e0 9C030000 		.4byte	.LBB298
 6495 02e4 A0030000 		.4byte	.LBE298
 6496 02e8 1E040000 		.4byte	.LBB303
 6497 02ec 20040000 		.4byte	.LBE303
 6498 02f0 4A040000 		.4byte	.LBB304
 6499 02f4 4E040000 		.4byte	.LBE304
 6500 02f8 50040000 		.4byte	.LBB305
 6501 02fc 54040000 		.4byte	.LBE305
 6502 0300 00000000 		.4byte	0
 6503 0304 00000000 		.4byte	0
 6504 0308 58040000 		.4byte	.LBB306
 6505 030c 5A040000 		.4byte	.LBE306
 6506 0310 64040000 		.4byte	.LBB311
 6507 0314 66040000 		.4byte	.LBE311
 6508 0318 78040000 		.4byte	.LBB312
 6509 031c 7C040000 		.4byte	.LBE312
 6510 0320 C0040000 		.4byte	.LBB313
 6511 0324 C4040000 		.4byte	.LBE313
 6512 0328 00000000 		.4byte	0
 6513 032c 00000000 		.4byte	0
 6514 0330 D2010000 		.4byte	.LBB314
 6515 0334 DA010000 		.4byte	.LBE314
 6516 0338 DC010000 		.4byte	.LBB321
 6517 033c E4010000 		.4byte	.LBE321
 6518 0340 E6010000 		.4byte	.LBB322
 6519 0344 EE010000 		.4byte	.LBE322
 6520 0348 F2010000 		.4byte	.LBB323
 6521 034c FA010000 		.4byte	.LBE323
 6522 0350 FE010000 		.4byte	.LBB324
 6523 0354 02020000 		.4byte	.LBE324
 6524 0358 04020000 		.4byte	.LBB325
 6525 035c 08020000 		.4byte	.LBE325
 6526 0360 00000000 		.4byte	0
 6527 0364 00000000 		.4byte	0
 6528 0368 18020000 		.4byte	.LBB326
 6529 036c 20020000 		.4byte	.LBE326
 6530 0370 22020000 		.4byte	.LBB332
 6531 0374 2A020000 		.4byte	.LBE332
 6532 0378 30020000 		.4byte	.LBB333
 6533 037c 38020000 		.4byte	.LBE333
 6534 0380 3C020000 		.4byte	.LBB334
 6535 0384 44020000 		.4byte	.LBE334
 6536 0388 48020000 		.4byte	.LBB335
 6537 038c 50020000 		.4byte	.LBE335
 6538 0390 00000000 		.4byte	0
 6539 0394 00000000 		.4byte	0
 6540 0398 5E020000 		.4byte	.LBB336
 6541 039c 66020000 		.4byte	.LBE336
 6542 03a0 68020000 		.4byte	.LBB342
 6543 03a4 70020000 		.4byte	.LBE342
 6544 03a8 76020000 		.4byte	.LBB343
ARM GAS  C:\Users\pearlstl\AppData\Local\Temp\ccvteysW.s 			page 139


 6545 03ac 7E020000 		.4byte	.LBE343
 6546 03b0 82020000 		.4byte	.LBB344
 6547 03b4 8A020000 		.4byte	.LBE344
 6548 03b8 8E020000 		.4byte	.LBB345
 6549 03bc 96020000 		.4byte	.LBE345
 6550 03c0 00000000 		.4byte	0
 6551 03c4 00000000 		.4byte	0
 6552 03c8 A4020000 		.4byte	.LBB346
 6553 03cc B4020000 		.4byte	.LBE346
 6554 03d0 BC020000 		.4byte	.LBB351
 6555 03d4 C4020000 		.4byte	.LBE351
 6556 03d8 C8020000 		.4byte	.LBB352
 6557 03dc D0020000 		.4byte	.LBE352
 6558 03e0 D4020000 		.4byte	.LBB353
 6559 03e4 DC020000 		.4byte	.LBE353
 6560 03e8 00000000 		.4byte	0
 6561 03ec 00000000 		.4byte	0
 6562 03f0 EA020000 		.4byte	.LBB354
 6563 03f4 F2020000 		.4byte	.LBE354
 6564 03f8 F6020000 		.4byte	.LBB360
 6565 03fc FE020000 		.4byte	.LBE360
 6566 0400 06030000 		.4byte	.LBB361
 6567 0404 0E030000 		.4byte	.LBE361
 6568 0408 12030000 		.4byte	.LBB362
 6569 040c 1A030000 		.4byte	.LBE362
 6570 0410 1E030000 		.4byte	.LBB363
 6571 0414 26030000 		.4byte	.LBE363
 6572 0418 00000000 		.4byte	0
 6573 041c 00000000 		.4byte	0
 6574 0420 36030000 		.4byte	.LBB364
 6575 0424 3E030000 		.4byte	.LBE364
 6576 0428 42030000 		.4byte	.LBB370
 6577 042c 4A030000 		.4byte	.LBE370
 6578 0430 52030000 		.4byte	.LBB371
 6579 0434 5A030000 		.4byte	.LBE371
 6580 0438 5E030000 		.4byte	.LBB372
 6581 043c 66030000 		.4byte	.LBE372
 6582 0440 6A030000 		.4byte	.LBB373
 6583 0444 72030000 		.4byte	.LBE373
 6584 0448 00000000 		.4byte	0
 6585 044c 00000000 		.4byte	0
 6586 0450 82030000 		.4byte	.LBB374
 6587 0454 92030000 		.4byte	.LBE374
 6588 0458 9E030000 		.4byte	.LBB380
 6589 045c A6030000 		.4byte	.LBE380
 6590 0460 AA030000 		.4byte	.LBB381
 6591 0464 B2030000 		.4byte	.LBE381
 6592 0468 BA030000 		.4byte	.LBB382
 6593 046c BE030000 		.4byte	.LBE382
 6594 0470 C0030000 		.4byte	.LBB383
 6595 0474 C4030000 		.4byte	.LBE383
 6596 0478 00000000 		.4byte	0
 6597 047c 00000000 		.4byte	0
 6598 0480 26000000 		.4byte	.LBB384
 6599 0484 2A000000 		.4byte	.LBE384
 6600 0488 34000000 		.4byte	.LBB387
 6601 048c 38000000 		.4byte	.LBE387
ARM GAS  C:\Users\pearlstl\AppData\Local\Temp\ccvteysW.s 			page 140


 6602 0490 00000000 		.4byte	0
 6603 0494 00000000 		.4byte	0
 6604 0498 00000000 		.4byte	.LFB37
 6605 049c 16000000 		.4byte	.LFE37
 6606 04a0 00000000 		.4byte	.LFB36
 6607 04a4 46040000 		.4byte	.LFE36
 6608 04a8 00000000 		.4byte	.LFB31
 6609 04ac 1C050000 		.4byte	.LFE31
 6610 04b0 00000000 		.4byte	.LFB32
 6611 04b4 06000000 		.4byte	.LFE32
 6612 04b8 00000000 		.4byte	.LFB33
 6613 04bc 2C040000 		.4byte	.LFE33
 6614 04c0 00000000 		.4byte	.LFB34
 6615 04c4 58000000 		.4byte	.LFE34
 6616 04c8 00000000 		.4byte	.LFB35
 6617 04cc 34000000 		.4byte	.LFE35
 6618 04d0 00000000 		.4byte	0
 6619 04d4 00000000 		.4byte	0
 6620              		.section	.debug_line,"",%progbits
 6621              	.Ldebug_line0:
 6622 0000 DD0A0000 		.section	.debug_str,"MS",%progbits,1
 6622      02004C02 
 6622      00000201 
 6622      FB0E0D00 
 6622      01010101 
 6623              	.LASF128:
 6624 0000 6C765F73 		.ascii	"lv_style_anim_set_styles\000"
 6624      74796C65 
 6624      5F616E69 
 6624      6D5F7365 
 6624      745F7374 
 6625              	.LASF61:
 6626 0019 65786563 		.ascii	"exec_cb\000"
 6626      5F636200 
 6627              	.LASF47:
 6628 0021 4C565F4F 		.ascii	"LV_OPA_COVER\000"
 6628      50415F43 
 6628      4F564552 
 6628      00
 6629              	.LASF67:
 6630 002e 706C6179 		.ascii	"playback_pause\000"
 6630      6261636B 
 6630      5F706175 
 6630      736500
 6631              	.LASF51:
 6632 003d 66756C6C 		.ascii	"full\000"
 6632      00
 6633              	.LASF45:
 6634 0042 4C565F4F 		.ascii	"LV_OPA_90\000"
 6634      50415F39 
 6634      3000
 6635              	.LASF116:
 6636 004c 7374796C 		.ascii	"style_anim\000"
 6636      655F616E 
 6636      696D00
 6637              	.LASF139:
 6638 0057 6C765F73 		.ascii	"lv_style_btn_rel\000"
ARM GAS  C:\Users\pearlstl\AppData\Local\Temp\ccvteysW.s 			page 141


 6638      74796C65 
 6638      5F62746E 
 6638      5F72656C 
 6638      00
 6639              	.LASF143:
 6640 0068 6C765F73 		.ascii	"lv_style_btn_ina\000"
 6640      74796C65 
 6640      5F62746E 
 6640      5F696E61 
 6640      00
 6641              	.LASF114:
 6642 0079 7374796C 		.ascii	"style_start\000"
 6642      655F7374 
 6642      61727400 
 6643              	.LASF36:
 6644 0085 4C565F4F 		.ascii	"LV_OPA_0\000"
 6644      50415F30 
 6644      00
 6645              	.LASF81:
 6646 008e 4C565F42 		.ascii	"LV_BORDER_RIGHT\000"
 6646      4F524445 
 6646      525F5249 
 6646      47485400 
 6647              	.LASF14:
 6648 009e 756E7369 		.ascii	"unsigned int\000"
 6648      676E6564 
 6648      20696E74 
 6648      00
 6649              	.LASF26:
 6650 00ab 6F66735F 		.ascii	"ofs_x\000"
 6650      7800
 6651              	.LASF27:
 6652 00b1 6F66735F 		.ascii	"ofs_y\000"
 6652      7900
 6653              	.LASF148:
 6654 00b7 474E5520 		.ascii	"GNU C11 5.4.1 20160609 (release) [ARM/embedded-5-br"
 6654      43313120 
 6654      352E342E 
 6654      31203230 
 6654      31363036 
 6655 00ea 616E6368 		.ascii	"anch revision 237715] -mcpu=cortex-m4 -mfloat-abi=s"
 6655      20726576 
 6655      6973696F 
 6655      6E203233 
 6655      37373135 
 6656 011d 6F667466 		.ascii	"oftfp -mfpu=fpv4-sp-d16 -mthumb -g -O3 -ffunction-s"
 6656      70202D6D 
 6656      6670753D 
 6656      66707634 
 6656      2D73702D 
 6657 0150 65637469 		.ascii	"ections -ffat-lto-objects\000"
 6657      6F6E7320 
 6657      2D666661 
 6657      742D6C74 
 6657      6F2D6F62 
 6658              	.LASF29:
 6659 016a 6765745F 		.ascii	"get_glyph_dsc\000"
ARM GAS  C:\Users\pearlstl\AppData\Local\Temp\ccvteysW.s 			page 142


 6659      676C7970 
 6659      685F6473 
 6659      6300
 6660              	.LASF113:
 6661 0178 6C765F73 		.ascii	"lv_style_t\000"
 6661      74796C65 
 6661      5F7400
 6662              	.LASF8:
 6663 0183 5F5F696E 		.ascii	"__int32_t\000"
 6663      7433325F 
 6663      7400
 6664              	.LASF63:
 6665 018d 72656164 		.ascii	"ready_cb\000"
 6665      795F6362 
 6665      00
 6666              	.LASF85:
 6667 0196 4C565F53 		.ascii	"LV_SHADOW_BOTTOM\000"
 6667      4841444F 
 6667      575F424F 
 6667      54544F4D 
 6667      00
 6668              	.LASF125:
 6669 01a7 7374796C 		.ascii	"style_animator\000"
 6669      655F616E 
 6669      696D6174 
 6669      6F7200
 6670              	.LASF147:
 6671 01b6 6C765F6D 		.ascii	"lv_mem_alloc\000"
 6671      656D5F61 
 6671      6C6C6F63 
 6671      00
 6672              	.LASF58:
 6673 01c3 6C765F61 		.ascii	"lv_anim_exec_xcb_t\000"
 6673      6E696D5F 
 6673      65786563 
 6673      5F786362 
 6673      5F7400
 6674              	.LASF137:
 6675 01d6 6C765F73 		.ascii	"lv_style_pretty\000"
 6675      74796C65 
 6675      5F707265 
 6675      74747900 
 6676              	.LASF135:
 6677 01e6 6C765F73 		.ascii	"lv_style_plain\000"
 6677      74796C65 
 6677      5F706C61 
 6677      696E00
 6678              	.LASF60:
 6679 01f5 5F6C765F 		.ascii	"_lv_anim_t\000"
 6679      616E696D 
 6679      5F7400
 6680              	.LASF95:
 6681 0200 696E6E65 		.ascii	"inner\000"
 6681      7200
 6682              	.LASF20:
 6683 0206 75696E74 		.ascii	"uint32_t\000"
 6683      33325F74 
ARM GAS  C:\Users\pearlstl\AppData\Local\Temp\ccvteysW.s 			page 143


 6683      00
 6684              	.LASF15:
 6685 020f 696E7438 		.ascii	"int8_t\000"
 6685      5F7400
 6686              	.LASF52:
 6687 0216 6C765F63 		.ascii	"lv_color32_t\000"
 6687      6F6C6F72 
 6687      33325F74 
 6687      00
 6688              	.LASF102:
 6689 0223 73656C5F 		.ascii	"sel_color\000"
 6689      636F6C6F 
 6689      7200
 6690              	.LASF127:
 6691 022d 6C765F73 		.ascii	"lv_style_anim_init\000"
 6691      74796C65 
 6691      5F616E69 
 6691      6D5F696E 
 6691      697400
 6692              	.LASF17:
 6693 0240 696E7431 		.ascii	"int16_t\000"
 6693      365F7400 
 6694              	.LASF141:
 6695 0248 6C765F73 		.ascii	"lv_style_btn_tgl_rel\000"
 6695      74796C65 
 6695      5F62746E 
 6695      5F74676C 
 6695      5F72656C 
 6696              	.LASF13:
 6697 025d 6C6F6E67 		.ascii	"long long unsigned int\000"
 6697      206C6F6E 
 6697      6720756E 
 6697      7369676E 
 6697      65642069 
 6698              	.LASF90:
 6699 0274 70617274 		.ascii	"part\000"
 6699      00
 6700              	.LASF117:
 6701 0279 6C765F73 		.ascii	"lv_style_anim_dsc_t\000"
 6701      74796C65 
 6701      5F616E69 
 6701      6D5F6473 
 6701      635F7400 
 6702              	.LASF35:
 6703 028d 4C565F4F 		.ascii	"LV_OPA_TRANSP\000"
 6703      50415F54 
 6703      52414E53 
 6703      5000
 6704              	.LASF6:
 6705 029b 5F5F7569 		.ascii	"__uint16_t\000"
 6705      6E743136 
 6705      5F7400
 6706              	.LASF99:
 6707 02a6 626F7264 		.ascii	"border\000"
 6707      657200
 6708              	.LASF83:
 6709 02ad 4C565F42 		.ascii	"LV_BORDER_INTERNAL\000"
ARM GAS  C:\Users\pearlstl\AppData\Local\Temp\ccvteysW.s 			page 144


 6709      4F524445 
 6709      525F494E 
 6709      5445524E 
 6709      414C00
 6710              	.LASF65:
 6711 02c0 74696D65 		.ascii	"time\000"
 6711      00
 6712              	.LASF142:
 6713 02c5 6C765F73 		.ascii	"lv_style_btn_tgl_pr\000"
 6713      74796C65 
 6713      5F62746E 
 6713      5F74676C 
 6713      5F707200 
 6714              	.LASF88:
 6715 02d9 636F6C6F 		.ascii	"color\000"
 6715      7200
 6716              	.LASF75:
 6717 02df 6C765F61 		.ascii	"lv_anim_ready_cb_t\000"
 6717      6E696D5F 
 6717      72656164 
 6717      795F6362 
 6717      5F7400
 6718              	.LASF107:
 6719 02f2 726F756E 		.ascii	"rounded\000"
 6719      64656400 
 6720              	.LASF89:
 6721 02fa 77696474 		.ascii	"width\000"
 6721      6800
 6722              	.LASF79:
 6723 0300 4C565F42 		.ascii	"LV_BORDER_TOP\000"
 6723      4F524445 
 6723      525F544F 
 6723      5000
 6724              	.LASF33:
 6725 030e 5F426F6F 		.ascii	"_Bool\000"
 6725      6C00
 6726              	.LASF134:
 6727 0314 6C765F73 		.ascii	"lv_style_transp_tight\000"
 6727      74796C65 
 6727      5F747261 
 6727      6E73705F 
 6727      74696768 
 6728              	.LASF59:
 6729 032a 5F6C765F 		.ascii	"_lv_font_struct\000"
 6729      666F6E74 
 6729      5F737472 
 6729      75637400 
 6730              	.LASF105:
 6731 033a 6C696E65 		.ascii	"line_space\000"
 6731      5F737061 
 6731      636500
 6732              	.LASF76:
 6733 0345 6C765F61 		.ascii	"lv_anim_t\000"
 6733      6E696D5F 
 6733      7400
 6734              	.LASF31:
 6735 034f 6C696E65 		.ascii	"line_height\000"
ARM GAS  C:\Users\pearlstl\AppData\Local\Temp\ccvteysW.s 			page 145


 6735      5F686569 
 6735      67687400 
 6736              	.LASF145:
 6737 035b 6C765F6F 		.ascii	"lv_obj_report_style_mod\000"
 6737      626A5F72 
 6737      65706F72 
 6737      745F7374 
 6737      796C655F 
 6738              	.LASF56:
 6739 0373 63686172 		.ascii	"char\000"
 6739      00
 6740              	.LASF92:
 6741 0378 626F7474 		.ascii	"bottom\000"
 6741      6F6D00
 6742              	.LASF71:
 6743 037f 72657065 		.ascii	"repeat\000"
 6743      617400
 6744              	.LASF28:
 6745 0386 6C765F66 		.ascii	"lv_font_glyph_dsc_t\000"
 6745      6F6E745F 
 6745      676C7970 
 6745      685F6473 
 6745      635F7400 
 6746              	.LASF16:
 6747 039a 75696E74 		.ascii	"uint8_t\000"
 6747      385F7400 
 6748              	.LASF87:
 6749 03a2 6C765F73 		.ascii	"lv_shadow_type_t\000"
 6749      6861646F 
 6749      775F7479 
 6749      70655F74 
 6749      00
 6750              	.LASF119:
 6751 03b3 6C765F63 		.ascii	"lv_color_make\000"
 6751      6F6C6F72 
 6751      5F6D616B 
 6751      6500
 6752              	.LASF94:
 6753 03c1 72696768 		.ascii	"right\000"
 6753      7400
 6754              	.LASF37:
 6755 03c7 4C565F4F 		.ascii	"LV_OPA_10\000"
 6755      50415F31 
 6755      3000
 6756              	.LASF12:
 6757 03d1 6C6F6E67 		.ascii	"long long int\000"
 6757      206C6F6E 
 6757      6720696E 
 6757      7400
 6758              	.LASF108:
 6759 03df 676C6173 		.ascii	"glass\000"
 6759      7300
 6760              	.LASF110:
 6761 03e5 74657874 		.ascii	"text\000"
 6761      00
 6762              	.LASF101:
 6763 03ea 70616464 		.ascii	"padding\000"
ARM GAS  C:\Users\pearlstl\AppData\Local\Temp\ccvteysW.s 			page 146


 6763      696E6700 
 6764              	.LASF70:
 6765 03f2 706C6179 		.ascii	"playback\000"
 6765      6261636B 
 6765      00
 6766              	.LASF82:
 6767 03fb 4C565F42 		.ascii	"LV_BORDER_FULL\000"
 6767      4F524445 
 6767      525F4655 
 6767      4C4C00
 6768              	.LASF136:
 6769 040a 6C765F73 		.ascii	"lv_style_plain_color\000"
 6769      74796C65 
 6769      5F706C61 
 6769      696E5F63 
 6769      6F6C6F72 
 6770              	.LASF4:
 6771 041f 5F5F696E 		.ascii	"__int16_t\000"
 6771      7431365F 
 6771      7400
 6772              	.LASF140:
 6773 0429 6C765F73 		.ascii	"lv_style_btn_pr\000"
 6773      74796C65 
 6773      5F62746E 
 6773      5F707200 
 6774              	.LASF62:
 6775 0439 70617468 		.ascii	"path_cb\000"
 6775      5F636200 
 6776              	.LASF38:
 6777 0441 4C565F4F 		.ascii	"LV_OPA_20\000"
 6777      50415F32 
 6777      3000
 6778              	.LASF111:
 6779 044b 696D6167 		.ascii	"image\000"
 6779      6500
 6780              	.LASF78:
 6781 0451 4C565F42 		.ascii	"LV_BORDER_BOTTOM\000"
 6781      4F524445 
 6781      525F424F 
 6781      54544F4D 
 6781      00
 6782              	.LASF126:
 6783 0462 6C765F73 		.ascii	"lv_style_init\000"
 6783      74796C65 
 6783      5F696E69 
 6783      7400
 6784              	.LASF69:
 6785 0470 73756270 		.ascii	"subpx\000"
 6785      7800
 6786              	.LASF53:
 6787 0476 6C765F63 		.ascii	"lv_color_t\000"
 6787      6F6C6F72 
 6787      5F7400
 6788              	.LASF0:
 6789 0481 5F5F696E 		.ascii	"__int8_t\000"
 6789      74385F74 
 6789      00
ARM GAS  C:\Users\pearlstl\AppData\Local\Temp\ccvteysW.s 			page 147


 6790              	.LASF132:
 6791 048a 6C765F73 		.ascii	"lv_style_transp\000"
 6791      74796C65 
 6791      5F747261 
 6791      6E737000 
 6792              	.LASF146:
 6793 049a 6C765F61 		.ascii	"lv_anim_init\000"
 6793      6E696D5F 
 6793      696E6974 
 6793      00
 6794              	.LASF49:
 6795 04a7 67726565 		.ascii	"green\000"
 6795      6E00
 6796              	.LASF39:
 6797 04ad 4C565F4F 		.ascii	"LV_OPA_30\000"
 6797      50415F33 
 6797      3000
 6798              	.LASF22:
 6799 04b7 6C6F6E67 		.ascii	"long double\000"
 6799      20646F75 
 6799      626C6500 
 6800              	.LASF18:
 6801 04c3 75696E74 		.ascii	"uint16_t\000"
 6801      31365F74 
 6801      00
 6802              	.LASF86:
 6803 04cc 4C565F53 		.ascii	"LV_SHADOW_FULL\000"
 6803      4841444F 
 6803      575F4655 
 6803      4C4C00
 6804              	.LASF149:
 6805 04db 2E2E5C2E 		.ascii	"..\\..\\..\\lvgl\\version_6.1.2\\lvgl\\src\\lv_core"
 6805      2E5C2E2E 
 6805      5C6C7667 
 6805      6C5C7665 
 6805      7273696F 
 6806 0507 5C6C765F 		.ascii	"\\lv_style.c\000"
 6806      7374796C 
 6806      652E6300 
 6807              	.LASF68:
 6808 0513 72657065 		.ascii	"repeat_pause\000"
 6808      61745F70 
 6808      61757365 
 6808      00
 6809              	.LASF97:
 6810 0520 67726164 		.ascii	"grad_color\000"
 6810      5F636F6C 
 6810      6F7200
 6811              	.LASF55:
 6812 052b 73697A65 		.ascii	"sizetype\000"
 6812      74797065 
 6812      00
 6813              	.LASF34:
 6814 0534 6C765F66 		.ascii	"lv_font_t\000"
 6814      6F6E745F 
 6814      7400
 6815              	.LASF104:
ARM GAS  C:\Users\pearlstl\AppData\Local\Temp\ccvteysW.s 			page 148


 6816 053e 6C657474 		.ascii	"letter_space\000"
 6816      65725F73 
 6816      70616365 
 6816      00
 6817              	.LASF96:
 6818 054b 6D61696E 		.ascii	"main_color\000"
 6818      5F636F6C 
 6818      6F7200
 6819              	.LASF74:
 6820 0556 6C765F61 		.ascii	"lv_anim_path_cb_t\000"
 6820      6E696D5F 
 6820      70617468 
 6820      5F63625F 
 6820      7400
 6821              	.LASF5:
 6822 0568 73686F72 		.ascii	"short int\000"
 6822      7420696E 
 6822      7400
 6823              	.LASF123:
 6824 0572 72617469 		.ascii	"ratio\000"
 6824      6F00
 6825              	.LASF54:
 6826 0578 6C765F6F 		.ascii	"lv_opa_t\000"
 6826      70615F74 
 6826      00
 6827              	.LASF72:
 6828 0581 706C6179 		.ascii	"playback_now\000"
 6828      6261636B 
 6828      5F6E6F77 
 6828      00
 6829              	.LASF80:
 6830 058e 4C565F42 		.ascii	"LV_BORDER_LEFT\000"
 6830      4F524445 
 6830      525F4C45 
 6830      465400
 6831              	.LASF9:
 6832 059d 6C6F6E67 		.ascii	"long int\000"
 6832      20696E74 
 6832      00
 6833              	.LASF40:
 6834 05a6 4C565F4F 		.ascii	"LV_OPA_40\000"
 6834      50415F34 
 6834      3000
 6835              	.LASF118:
 6836 05b0 6C765F63 		.ascii	"lv_color_mix\000"
 6836      6F6C6F72 
 6836      5F6D6978 
 6836      00
 6837              	.LASF48:
 6838 05bd 626C7565 		.ascii	"blue\000"
 6838      00
 6839              	.LASF21:
 6840 05c2 6C765F63 		.ascii	"lv_coord_t\000"
 6840      6F6F7264 
 6840      5F7400
 6841              	.LASF93:
 6842 05cd 6C656674 		.ascii	"left\000"
ARM GAS  C:\Users\pearlstl\AppData\Local\Temp\ccvteysW.s 			page 149


 6842      00
 6843              	.LASF46:
 6844 05d2 4C565F4F 		.ascii	"LV_OPA_100\000"
 6844      50415F31 
 6844      303000
 6845              	.LASF1:
 6846 05dd 5F5F7569 		.ascii	"__uint8_t\000"
 6846      6E74385F 
 6846      7400
 6847              	.LASF41:
 6848 05e7 4C565F4F 		.ascii	"LV_OPA_50\000"
 6848      50415F35 
 6848      3000
 6849              	.LASF64:
 6850 05f1 73746172 		.ascii	"start\000"
 6850      7400
 6851              	.LASF133:
 6852 05f7 6C765F73 		.ascii	"lv_style_transp_fit\000"
 6852      74796C65 
 6852      5F747261 
 6852      6E73705F 
 6852      66697400 
 6853              	.LASF25:
 6854 060b 626F785F 		.ascii	"box_h\000"
 6854      6800
 6855              	.LASF103:
 6856 0611 666F6E74 		.ascii	"font\000"
 6856      00
 6857              	.LASF24:
 6858 0616 626F785F 		.ascii	"box_w\000"
 6858      7700
 6859              	.LASF130:
 6860 061c 6C765F66 		.ascii	"lv_font_roboto_16\000"
 6860      6F6E745F 
 6860      726F626F 
 6860      746F5F31 
 6860      3600
 6861              	.LASF66:
 6862 062e 6163745F 		.ascii	"act_time\000"
 6862      74696D65 
 6862      00
 6863              	.LASF11:
 6864 0637 6C6F6E67 		.ascii	"long unsigned int\000"
 6864      20756E73 
 6864      69676E65 
 6864      6420696E 
 6864      7400
 6865              	.LASF124:
 6866 0649 7374796C 		.ascii	"style_animation_common_end_cb\000"
 6866      655F616E 
 6866      696D6174 
 6866      696F6E5F 
 6866      636F6D6D 
 6867              	.LASF106:
 6868 0667 696E7465 		.ascii	"intense\000"
 6868      6E736500 
 6869              	.LASF50:
ARM GAS  C:\Users\pearlstl\AppData\Local\Temp\ccvteysW.s 			page 150


 6870 066f 616C7068 		.ascii	"alpha\000"
 6870      6100
 6871              	.LASF19:
 6872 0675 696E7433 		.ascii	"int32_t\000"
 6872      325F7400 
 6873              	.LASF32:
 6874 067d 62617365 		.ascii	"base_line\000"
 6874      5F6C696E 
 6874      6500
 6875              	.LASF98:
 6876 0687 72616469 		.ascii	"radius\000"
 6876      757300
 6877              	.LASF109:
 6878 068e 626F6479 		.ascii	"body\000"
 6878      00
 6879              	.LASF42:
 6880 0693 4C565F4F 		.ascii	"LV_OPA_60\000"
 6880      50415F36 
 6880      3000
 6881              	.LASF91:
 6882 069d 74797065 		.ascii	"type\000"
 6882      00
 6883              	.LASF3:
 6884 06a2 756E7369 		.ascii	"unsigned char\000"
 6884      676E6564 
 6884      20636861 
 6884      7200
 6885              	.LASF10:
 6886 06b0 5F5F7569 		.ascii	"__uint32_t\000"
 6886      6E743332 
 6886      5F7400
 6887              	.LASF112:
 6888 06bb 6C696E65 		.ascii	"line\000"
 6888      00
 6889              	.LASF138:
 6890 06c0 6C765F73 		.ascii	"lv_style_pretty_color\000"
 6890      74796C65 
 6890      5F707265 
 6890      7474795F 
 6890      636F6C6F 
 6891              	.LASF129:
 6892 06d6 746F5F61 		.ascii	"to_anim\000"
 6892      6E696D00 
 6893              	.LASF30:
 6894 06de 6765745F 		.ascii	"get_glyph_bitmap\000"
 6894      676C7970 
 6894      685F6269 
 6894      746D6170 
 6894      00
 6895              	.LASF77:
 6896 06ef 4C565F42 		.ascii	"LV_BORDER_NONE\000"
 6896      4F524445 
 6896      525F4E4F 
 6896      4E4500
 6897              	.LASF43:
 6898 06fe 4C565F4F 		.ascii	"LV_OPA_70\000"
 6898      50415F37 
ARM GAS  C:\Users\pearlstl\AppData\Local\Temp\ccvteysW.s 			page 151


 6898      3000
 6899              	.LASF100:
 6900 0708 73686164 		.ascii	"shadow\000"
 6900      6F7700
 6901              	.LASF144:
 6902 070f 6C765F6D 		.ascii	"lv_mem_free\000"
 6902      656D5F66 
 6902      72656500 
 6903              	.LASF2:
 6904 071b 7369676E 		.ascii	"signed char\000"
 6904      65642063 
 6904      68617200 
 6905              	.LASF73:
 6906 0727 6861735F 		.ascii	"has_run\000"
 6906      72756E00 
 6907              	.LASF7:
 6908 072f 73686F72 		.ascii	"short unsigned int\000"
 6908      7420756E 
 6908      7369676E 
 6908      65642069 
 6908      6E7400
 6909              	.LASF151:
 6910 0742 6D656D63 		.ascii	"memcpy\000"
 6910      707900
 6911              	.LASF131:
 6912 0749 6C765F73 		.ascii	"lv_style_scr\000"
 6912      74796C65 
 6912      5F736372 
 6912      00
 6913              	.LASF44:
 6914 0756 4C565F4F 		.ascii	"LV_OPA_80\000"
 6914      50415F38 
 6914      3000
 6915              	.LASF115:
 6916 0760 7374796C 		.ascii	"style_end\000"
 6916      655F656E 
 6916      6400
 6917              	.LASF122:
 6918 076a 6C765F73 		.ascii	"lv_style_mix\000"
 6918      74796C65 
 6918      5F6D6978 
 6918      00
 6919              	.LASF150:
 6920 0777 433A5C55 		.ascii	"C:\\Users\\pearlstl\\Documents\\_Research\\projects"
 6920      73657273 
 6920      5C706561 
 6920      726C7374 
 6920      6C5C446F 
 6921 07a5 5C74636F 		.ascii	"\\tcom_engineering\\embed_sw\\tcom_app\\tcom_app_ps"
 6921      6D5F656E 
 6921      67696E65 
 6921      6572696E 
 6921      675C656D 
 6922 07d4 6F63365F 		.ascii	"oc6_lvgl6\\tcom_displ_test_psoc6.cydsn\000"
 6922      6C76676C 
 6922      365C7463 
 6922      6F6D5F64 
ARM GAS  C:\Users\pearlstl\AppData\Local\Temp\ccvteysW.s 			page 152


 6922      6973706C 
 6923              	.LASF84:
 6924 07fa 6C765F62 		.ascii	"lv_border_part_t\000"
 6924      6F726465 
 6924      725F7061 
 6924      72745F74 
 6924      00
 6925              	.LASF57:
 6926 080b 6C765F61 		.ascii	"lv_anim_value_t\000"
 6926      6E696D5F 
 6926      76616C75 
 6926      655F7400 
 6927              	.LASF120:
 6928 081b 64657374 		.ascii	"dest\000"
 6928      00
 6929              	.LASF121:
 6930 0820 6C765F73 		.ascii	"lv_style_copy\000"
 6930      74796C65 
 6930      5F636F70 
 6930      7900
 6931              	.LASF23:
 6932 082e 6164765F 		.ascii	"adv_w\000"
 6932      7700
 6933              		.ident	"GCC: (GNU Tools for ARM Embedded Processors) 5.4.1 20160609 (release) [ARM/embedded-5-bran
