ARM GAS  C:\Users\pearlstl\AppData\Local\Temp\ccvteysW.s 			page 1


   1              		.syntax unified
   2              		.cpu cortex-m4
   3              		.eabi_attribute 27, 1
   4              		.fpu fpv4-sp-d16
   5              		.eabi_attribute 20, 1
   6              		.eabi_attribute 21, 1
   7              		.eabi_attribute 23, 3
   8              		.eabi_attribute 24, 1
   9              		.eabi_attribute 25, 1
  10              		.eabi_attribute 26, 1
  11              		.eabi_attribute 30, 2
  12              		.eabi_attribute 34, 1
  13              		.eabi_attribute 18, 4
  14              		.thumb
  15              		.syntax unified
  16              		.file	"lv_style.c"
  17              		.text
  18              	.Ltext0:
  19              		.cfi_sections	.debug_frame
  20              		.section	.text.style_animation_common_end_cb,"ax",%progbits
  21              		.align	2
  22              		.thumb
  23              		.thumb_func
  24              		.type	style_animation_common_end_cb, %function
  25              	style_animation_common_end_cb:
  26              	.LFB37:
  27              		.file 1 "..\\..\\..\\lvgl\\version_6.1.2\\lvgl\\src\\lv_core\\lv_style.c"
   1:..\..\..\lvgl\version_6.1.2\lvgl\src\lv_core/lv_style.c **** /**
   2:..\..\..\lvgl\version_6.1.2\lvgl\src\lv_core/lv_style.c ****  * @file lv_style.c
   3:..\..\..\lvgl\version_6.1.2\lvgl\src\lv_core/lv_style.c ****  *
   4:..\..\..\lvgl\version_6.1.2\lvgl\src\lv_core/lv_style.c ****  */
   5:..\..\..\lvgl\version_6.1.2\lvgl\src\lv_core/lv_style.c **** 
   6:..\..\..\lvgl\version_6.1.2\lvgl\src\lv_core/lv_style.c **** /*********************
   7:..\..\..\lvgl\version_6.1.2\lvgl\src\lv_core/lv_style.c ****  *      INCLUDES
   8:..\..\..\lvgl\version_6.1.2\lvgl\src\lv_core/lv_style.c ****  *********************/
   9:..\..\..\lvgl\version_6.1.2\lvgl\src\lv_core/lv_style.c **** #include "lv_obj.h"
  10:..\..\..\lvgl\version_6.1.2\lvgl\src\lv_core/lv_style.c **** #include "../lv_core/lv_debug.h"
  11:..\..\..\lvgl\version_6.1.2\lvgl\src\lv_core/lv_style.c **** #include "../lv_misc/lv_mem.h"
  12:..\..\..\lvgl\version_6.1.2\lvgl\src\lv_core/lv_style.c **** #include "../lv_misc/lv_anim.h"
  13:..\..\..\lvgl\version_6.1.2\lvgl\src\lv_core/lv_style.c **** 
  14:..\..\..\lvgl\version_6.1.2\lvgl\src\lv_core/lv_style.c **** /*********************
  15:..\..\..\lvgl\version_6.1.2\lvgl\src\lv_core/lv_style.c ****  *      DEFINES
  16:..\..\..\lvgl\version_6.1.2\lvgl\src\lv_core/lv_style.c ****  *********************/
  17:..\..\..\lvgl\version_6.1.2\lvgl\src\lv_core/lv_style.c **** #define STYLE_MIX_MAX 256
  18:..\..\..\lvgl\version_6.1.2\lvgl\src\lv_core/lv_style.c **** #define STYLE_MIX_SHIFT 8 /*log2(STYLE_MIX_MAX)*/
  19:..\..\..\lvgl\version_6.1.2\lvgl\src\lv_core/lv_style.c **** 
  20:..\..\..\lvgl\version_6.1.2\lvgl\src\lv_core/lv_style.c **** #define VAL_PROP(v1, v2, r) v1 + (((v2 - v1) * r) >> STYLE_MIX_SHIFT)
  21:..\..\..\lvgl\version_6.1.2\lvgl\src\lv_core/lv_style.c **** #define STYLE_ATTR_MIX(attr, r)                                                                    
  22:..\..\..\lvgl\version_6.1.2\lvgl\src\lv_core/lv_style.c ****     if(start->attr != end->attr) {                                                                 
  23:..\..\..\lvgl\version_6.1.2\lvgl\src\lv_core/lv_style.c ****         res->attr = VAL_PROP(start->attr, end->attr, r);                                           
  24:..\..\..\lvgl\version_6.1.2\lvgl\src\lv_core/lv_style.c ****     } else {                                                                                       
  25:..\..\..\lvgl\version_6.1.2\lvgl\src\lv_core/lv_style.c ****         res->attr = start->attr;                                                                   
  26:..\..\..\lvgl\version_6.1.2\lvgl\src\lv_core/lv_style.c ****     }
  27:..\..\..\lvgl\version_6.1.2\lvgl\src\lv_core/lv_style.c **** 
  28:..\..\..\lvgl\version_6.1.2\lvgl\src\lv_core/lv_style.c **** /**********************
  29:..\..\..\lvgl\version_6.1.2\lvgl\src\lv_core/lv_style.c ****  *      TYPEDEFS
  30:..\..\..\lvgl\version_6.1.2\lvgl\src\lv_core/lv_style.c ****  **********************/
ARM GAS  C:\Users\pearlstl\AppData\Local\Temp\ccvteysW.s 			page 2


  31:..\..\..\lvgl\version_6.1.2\lvgl\src\lv_core/lv_style.c **** 
  32:..\..\..\lvgl\version_6.1.2\lvgl\src\lv_core/lv_style.c **** /**********************
  33:..\..\..\lvgl\version_6.1.2\lvgl\src\lv_core/lv_style.c ****  *  STATIC PROTOTYPES
  34:..\..\..\lvgl\version_6.1.2\lvgl\src\lv_core/lv_style.c ****  **********************/
  35:..\..\..\lvgl\version_6.1.2\lvgl\src\lv_core/lv_style.c **** #if LV_USE_ANIMATION
  36:..\..\..\lvgl\version_6.1.2\lvgl\src\lv_core/lv_style.c **** static void style_animator(lv_style_anim_dsc_t * dsc, lv_anim_value_t val);
  37:..\..\..\lvgl\version_6.1.2\lvgl\src\lv_core/lv_style.c **** static void style_animation_common_end_cb(lv_anim_t * a);
  38:..\..\..\lvgl\version_6.1.2\lvgl\src\lv_core/lv_style.c **** #endif
  39:..\..\..\lvgl\version_6.1.2\lvgl\src\lv_core/lv_style.c **** 
  40:..\..\..\lvgl\version_6.1.2\lvgl\src\lv_core/lv_style.c **** /**********************
  41:..\..\..\lvgl\version_6.1.2\lvgl\src\lv_core/lv_style.c ****  *  STATIC VARIABLES
  42:..\..\..\lvgl\version_6.1.2\lvgl\src\lv_core/lv_style.c ****  **********************/
  43:..\..\..\lvgl\version_6.1.2\lvgl\src\lv_core/lv_style.c **** lv_style_t lv_style_scr;
  44:..\..\..\lvgl\version_6.1.2\lvgl\src\lv_core/lv_style.c **** lv_style_t lv_style_transp;
  45:..\..\..\lvgl\version_6.1.2\lvgl\src\lv_core/lv_style.c **** lv_style_t lv_style_transp_fit;
  46:..\..\..\lvgl\version_6.1.2\lvgl\src\lv_core/lv_style.c **** lv_style_t lv_style_transp_tight;
  47:..\..\..\lvgl\version_6.1.2\lvgl\src\lv_core/lv_style.c **** lv_style_t lv_style_plain;
  48:..\..\..\lvgl\version_6.1.2\lvgl\src\lv_core/lv_style.c **** lv_style_t lv_style_plain_color;
  49:..\..\..\lvgl\version_6.1.2\lvgl\src\lv_core/lv_style.c **** lv_style_t lv_style_pretty;
  50:..\..\..\lvgl\version_6.1.2\lvgl\src\lv_core/lv_style.c **** lv_style_t lv_style_pretty_color;
  51:..\..\..\lvgl\version_6.1.2\lvgl\src\lv_core/lv_style.c **** lv_style_t lv_style_btn_rel;
  52:..\..\..\lvgl\version_6.1.2\lvgl\src\lv_core/lv_style.c **** lv_style_t lv_style_btn_pr;
  53:..\..\..\lvgl\version_6.1.2\lvgl\src\lv_core/lv_style.c **** lv_style_t lv_style_btn_tgl_rel;
  54:..\..\..\lvgl\version_6.1.2\lvgl\src\lv_core/lv_style.c **** lv_style_t lv_style_btn_tgl_pr;
  55:..\..\..\lvgl\version_6.1.2\lvgl\src\lv_core/lv_style.c **** lv_style_t lv_style_btn_ina;
  56:..\..\..\lvgl\version_6.1.2\lvgl\src\lv_core/lv_style.c **** 
  57:..\..\..\lvgl\version_6.1.2\lvgl\src\lv_core/lv_style.c **** /**********************
  58:..\..\..\lvgl\version_6.1.2\lvgl\src\lv_core/lv_style.c ****  *      MACROS
  59:..\..\..\lvgl\version_6.1.2\lvgl\src\lv_core/lv_style.c ****  **********************/
  60:..\..\..\lvgl\version_6.1.2\lvgl\src\lv_core/lv_style.c **** 
  61:..\..\..\lvgl\version_6.1.2\lvgl\src\lv_core/lv_style.c **** /**********************
  62:..\..\..\lvgl\version_6.1.2\lvgl\src\lv_core/lv_style.c ****  *   GLOBAL FUNCTIONS
  63:..\..\..\lvgl\version_6.1.2\lvgl\src\lv_core/lv_style.c ****  **********************/
  64:..\..\..\lvgl\version_6.1.2\lvgl\src\lv_core/lv_style.c **** 
  65:..\..\..\lvgl\version_6.1.2\lvgl\src\lv_core/lv_style.c **** /**
  66:..\..\..\lvgl\version_6.1.2\lvgl\src\lv_core/lv_style.c ****  *  Init the basic styles
  67:..\..\..\lvgl\version_6.1.2\lvgl\src\lv_core/lv_style.c ****  */
  68:..\..\..\lvgl\version_6.1.2\lvgl\src\lv_core/lv_style.c **** void lv_style_init(void)
  69:..\..\..\lvgl\version_6.1.2\lvgl\src\lv_core/lv_style.c **** {
  70:..\..\..\lvgl\version_6.1.2\lvgl\src\lv_core/lv_style.c ****     /* Not White/Black/Gray colors are created by HSV model with
  71:..\..\..\lvgl\version_6.1.2\lvgl\src\lv_core/lv_style.c ****      * HUE = 210*/
  72:..\..\..\lvgl\version_6.1.2\lvgl\src\lv_core/lv_style.c **** 
  73:..\..\..\lvgl\version_6.1.2\lvgl\src\lv_core/lv_style.c ****     /*Screen style*/
  74:..\..\..\lvgl\version_6.1.2\lvgl\src\lv_core/lv_style.c ****     lv_style_scr.glass               = 0;
  75:..\..\..\lvgl\version_6.1.2\lvgl\src\lv_core/lv_style.c ****     lv_style_scr.body.opa            = LV_OPA_COVER;
  76:..\..\..\lvgl\version_6.1.2\lvgl\src\lv_core/lv_style.c ****     lv_style_scr.body.main_color     = LV_COLOR_WHITE;
  77:..\..\..\lvgl\version_6.1.2\lvgl\src\lv_core/lv_style.c ****     lv_style_scr.body.grad_color     = LV_COLOR_WHITE;
  78:..\..\..\lvgl\version_6.1.2\lvgl\src\lv_core/lv_style.c ****     lv_style_scr.body.radius         = 0;
  79:..\..\..\lvgl\version_6.1.2\lvgl\src\lv_core/lv_style.c ****     lv_style_scr.body.padding.left   = 0;
  80:..\..\..\lvgl\version_6.1.2\lvgl\src\lv_core/lv_style.c ****     lv_style_scr.body.padding.right  = 0;
  81:..\..\..\lvgl\version_6.1.2\lvgl\src\lv_core/lv_style.c ****     lv_style_scr.body.padding.top    = 0;
  82:..\..\..\lvgl\version_6.1.2\lvgl\src\lv_core/lv_style.c ****     lv_style_scr.body.padding.bottom = 0;
  83:..\..\..\lvgl\version_6.1.2\lvgl\src\lv_core/lv_style.c ****     lv_style_scr.body.padding.inner  = LV_DPI / 20;
  84:..\..\..\lvgl\version_6.1.2\lvgl\src\lv_core/lv_style.c **** 
  85:..\..\..\lvgl\version_6.1.2\lvgl\src\lv_core/lv_style.c ****     lv_style_scr.body.border.color = LV_COLOR_BLACK;
  86:..\..\..\lvgl\version_6.1.2\lvgl\src\lv_core/lv_style.c ****     lv_style_scr.body.border.opa   = LV_OPA_COVER;
  87:..\..\..\lvgl\version_6.1.2\lvgl\src\lv_core/lv_style.c ****     lv_style_scr.body.border.width = 0;
ARM GAS  C:\Users\pearlstl\AppData\Local\Temp\ccvteysW.s 			page 3


  88:..\..\..\lvgl\version_6.1.2\lvgl\src\lv_core/lv_style.c ****     lv_style_scr.body.border.part  = LV_BORDER_FULL;
  89:..\..\..\lvgl\version_6.1.2\lvgl\src\lv_core/lv_style.c **** 
  90:..\..\..\lvgl\version_6.1.2\lvgl\src\lv_core/lv_style.c ****     lv_style_scr.body.shadow.color = LV_COLOR_GRAY;
  91:..\..\..\lvgl\version_6.1.2\lvgl\src\lv_core/lv_style.c ****     lv_style_scr.body.shadow.type  = LV_SHADOW_FULL;
  92:..\..\..\lvgl\version_6.1.2\lvgl\src\lv_core/lv_style.c ****     lv_style_scr.body.shadow.width = 0;
  93:..\..\..\lvgl\version_6.1.2\lvgl\src\lv_core/lv_style.c **** 
  94:..\..\..\lvgl\version_6.1.2\lvgl\src\lv_core/lv_style.c ****     lv_style_scr.text.opa          = LV_OPA_COVER;
  95:..\..\..\lvgl\version_6.1.2\lvgl\src\lv_core/lv_style.c ****     lv_style_scr.text.color        = lv_color_make(0x30, 0x30, 0x30);
  96:..\..\..\lvgl\version_6.1.2\lvgl\src\lv_core/lv_style.c ****     lv_style_scr.text.sel_color    = lv_color_make(0x55, 0x96, 0xd8);
  97:..\..\..\lvgl\version_6.1.2\lvgl\src\lv_core/lv_style.c ****     lv_style_scr.text.font         = LV_FONT_DEFAULT;
  98:..\..\..\lvgl\version_6.1.2\lvgl\src\lv_core/lv_style.c ****     lv_style_scr.text.letter_space = 0;
  99:..\..\..\lvgl\version_6.1.2\lvgl\src\lv_core/lv_style.c ****     lv_style_scr.text.line_space   = 2;
 100:..\..\..\lvgl\version_6.1.2\lvgl\src\lv_core/lv_style.c **** 
 101:..\..\..\lvgl\version_6.1.2\lvgl\src\lv_core/lv_style.c ****     lv_style_scr.image.opa     = LV_OPA_COVER;
 102:..\..\..\lvgl\version_6.1.2\lvgl\src\lv_core/lv_style.c ****     lv_style_scr.image.color   = lv_color_make(0x20, 0x20, 0x20);
 103:..\..\..\lvgl\version_6.1.2\lvgl\src\lv_core/lv_style.c ****     lv_style_scr.image.intense = LV_OPA_TRANSP;
 104:..\..\..\lvgl\version_6.1.2\lvgl\src\lv_core/lv_style.c **** 
 105:..\..\..\lvgl\version_6.1.2\lvgl\src\lv_core/lv_style.c ****     lv_style_scr.line.opa     = LV_OPA_COVER;
 106:..\..\..\lvgl\version_6.1.2\lvgl\src\lv_core/lv_style.c ****     lv_style_scr.line.color   = lv_color_make(0x20, 0x20, 0x20);
 107:..\..\..\lvgl\version_6.1.2\lvgl\src\lv_core/lv_style.c ****     lv_style_scr.line.width   = 2;
 108:..\..\..\lvgl\version_6.1.2\lvgl\src\lv_core/lv_style.c ****     lv_style_scr.line.rounded = 0;
 109:..\..\..\lvgl\version_6.1.2\lvgl\src\lv_core/lv_style.c **** 
 110:..\..\..\lvgl\version_6.1.2\lvgl\src\lv_core/lv_style.c **** #if LV_USE_DEBUG
 111:..\..\..\lvgl\version_6.1.2\lvgl\src\lv_core/lv_style.c **** #if LV_USE_ASSERT_STYLE
 112:..\..\..\lvgl\version_6.1.2\lvgl\src\lv_core/lv_style.c ****     lv_style_scr.debug_sentinel = LV_STYLE_DEGUG_SENTINEL_VALUE;
 113:..\..\..\lvgl\version_6.1.2\lvgl\src\lv_core/lv_style.c **** #endif
 114:..\..\..\lvgl\version_6.1.2\lvgl\src\lv_core/lv_style.c **** #endif
 115:..\..\..\lvgl\version_6.1.2\lvgl\src\lv_core/lv_style.c **** 
 116:..\..\..\lvgl\version_6.1.2\lvgl\src\lv_core/lv_style.c ****     /*Plain style (by default near the same as the screen style)*/
 117:..\..\..\lvgl\version_6.1.2\lvgl\src\lv_core/lv_style.c ****     lv_style_copy(&lv_style_plain, &lv_style_scr);
 118:..\..\..\lvgl\version_6.1.2\lvgl\src\lv_core/lv_style.c ****     lv_style_plain.body.padding.left   = LV_DPI / 20;
 119:..\..\..\lvgl\version_6.1.2\lvgl\src\lv_core/lv_style.c ****     lv_style_plain.body.padding.right  = LV_DPI / 20;
 120:..\..\..\lvgl\version_6.1.2\lvgl\src\lv_core/lv_style.c ****     lv_style_plain.body.padding.top    = LV_DPI / 20;
 121:..\..\..\lvgl\version_6.1.2\lvgl\src\lv_core/lv_style.c ****     lv_style_plain.body.padding.bottom = LV_DPI / 20;
 122:..\..\..\lvgl\version_6.1.2\lvgl\src\lv_core/lv_style.c **** 
 123:..\..\..\lvgl\version_6.1.2\lvgl\src\lv_core/lv_style.c ****     /*Plain color style*/
 124:..\..\..\lvgl\version_6.1.2\lvgl\src\lv_core/lv_style.c ****     lv_style_copy(&lv_style_plain_color, &lv_style_plain);
 125:..\..\..\lvgl\version_6.1.2\lvgl\src\lv_core/lv_style.c ****     lv_style_plain_color.text.color      = lv_color_make(0xf0, 0xf0, 0xf0);
 126:..\..\..\lvgl\version_6.1.2\lvgl\src\lv_core/lv_style.c ****     lv_style_plain_color.image.color     = lv_color_make(0xf0, 0xf0, 0xf0);
 127:..\..\..\lvgl\version_6.1.2\lvgl\src\lv_core/lv_style.c ****     lv_style_plain_color.line.color      = lv_color_make(0xf0, 0xf0, 0xf0);
 128:..\..\..\lvgl\version_6.1.2\lvgl\src\lv_core/lv_style.c ****     lv_style_plain_color.body.main_color = lv_color_make(0x55, 0x96, 0xd8);
 129:..\..\..\lvgl\version_6.1.2\lvgl\src\lv_core/lv_style.c ****     lv_style_plain_color.body.grad_color = lv_style_plain_color.body.main_color;
 130:..\..\..\lvgl\version_6.1.2\lvgl\src\lv_core/lv_style.c **** 
 131:..\..\..\lvgl\version_6.1.2\lvgl\src\lv_core/lv_style.c ****     /*Pretty style */
 132:..\..\..\lvgl\version_6.1.2\lvgl\src\lv_core/lv_style.c ****     lv_style_copy(&lv_style_pretty, &lv_style_plain);
 133:..\..\..\lvgl\version_6.1.2\lvgl\src\lv_core/lv_style.c ****     lv_style_pretty.text.color        = lv_color_make(0x20, 0x20, 0x20);
 134:..\..\..\lvgl\version_6.1.2\lvgl\src\lv_core/lv_style.c ****     lv_style_pretty.image.color       = lv_color_make(0x20, 0x20, 0x20);
 135:..\..\..\lvgl\version_6.1.2\lvgl\src\lv_core/lv_style.c ****     lv_style_pretty.line.color        = lv_color_make(0x20, 0x20, 0x20);
 136:..\..\..\lvgl\version_6.1.2\lvgl\src\lv_core/lv_style.c ****     lv_style_pretty.body.main_color   = LV_COLOR_WHITE;
 137:..\..\..\lvgl\version_6.1.2\lvgl\src\lv_core/lv_style.c ****     lv_style_pretty.body.grad_color   = LV_COLOR_SILVER;
 138:..\..\..\lvgl\version_6.1.2\lvgl\src\lv_core/lv_style.c ****     lv_style_pretty.body.radius       = LV_DPI / 15;
 139:..\..\..\lvgl\version_6.1.2\lvgl\src\lv_core/lv_style.c ****     lv_style_pretty.body.border.color = lv_color_make(0x40, 0x40, 0x40);
 140:..\..\..\lvgl\version_6.1.2\lvgl\src\lv_core/lv_style.c ****     lv_style_pretty.body.border.width = LV_DPI / 50 >= 1 ? LV_DPI / 50 : 1;
 141:..\..\..\lvgl\version_6.1.2\lvgl\src\lv_core/lv_style.c ****     lv_style_pretty.body.border.opa   = LV_OPA_30;
 142:..\..\..\lvgl\version_6.1.2\lvgl\src\lv_core/lv_style.c **** 
 143:..\..\..\lvgl\version_6.1.2\lvgl\src\lv_core/lv_style.c ****     /*Pretty color style*/
 144:..\..\..\lvgl\version_6.1.2\lvgl\src\lv_core/lv_style.c ****     lv_style_copy(&lv_style_pretty_color, &lv_style_pretty);
ARM GAS  C:\Users\pearlstl\AppData\Local\Temp\ccvteysW.s 			page 4


 145:..\..\..\lvgl\version_6.1.2\lvgl\src\lv_core/lv_style.c ****     lv_style_pretty_color.text.color        = lv_color_make(0xe0, 0xe0, 0xe0);
 146:..\..\..\lvgl\version_6.1.2\lvgl\src\lv_core/lv_style.c ****     lv_style_pretty_color.image.color       = lv_color_make(0xe0, 0xe0, 0xe0);
 147:..\..\..\lvgl\version_6.1.2\lvgl\src\lv_core/lv_style.c ****     lv_style_pretty_color.line.color        = lv_color_make(0xc0, 0xc0, 0xc0);
 148:..\..\..\lvgl\version_6.1.2\lvgl\src\lv_core/lv_style.c ****     lv_style_pretty_color.body.main_color   = lv_color_make(0x6b, 0x9a, 0xc7);
 149:..\..\..\lvgl\version_6.1.2\lvgl\src\lv_core/lv_style.c ****     lv_style_pretty_color.body.grad_color   = lv_color_make(0x2b, 0x59, 0x8b);
 150:..\..\..\lvgl\version_6.1.2\lvgl\src\lv_core/lv_style.c ****     lv_style_pretty_color.body.border.color = lv_color_make(0x15, 0x2c, 0x42);
 151:..\..\..\lvgl\version_6.1.2\lvgl\src\lv_core/lv_style.c **** 
 152:..\..\..\lvgl\version_6.1.2\lvgl\src\lv_core/lv_style.c ****     /*Transparent style*/
 153:..\..\..\lvgl\version_6.1.2\lvgl\src\lv_core/lv_style.c ****     lv_style_copy(&lv_style_transp, &lv_style_plain);
 154:..\..\..\lvgl\version_6.1.2\lvgl\src\lv_core/lv_style.c ****     lv_style_transp.glass             = 1;
 155:..\..\..\lvgl\version_6.1.2\lvgl\src\lv_core/lv_style.c ****     lv_style_transp.body.border.width = 0;
 156:..\..\..\lvgl\version_6.1.2\lvgl\src\lv_core/lv_style.c ****     lv_style_transp.body.opa          = LV_OPA_TRANSP;
 157:..\..\..\lvgl\version_6.1.2\lvgl\src\lv_core/lv_style.c **** 
 158:..\..\..\lvgl\version_6.1.2\lvgl\src\lv_core/lv_style.c ****     /*Transparent fitting size*/
 159:..\..\..\lvgl\version_6.1.2\lvgl\src\lv_core/lv_style.c ****     lv_style_copy(&lv_style_transp_fit, &lv_style_transp);
 160:..\..\..\lvgl\version_6.1.2\lvgl\src\lv_core/lv_style.c ****     lv_style_transp_fit.body.padding.left   = 0;
 161:..\..\..\lvgl\version_6.1.2\lvgl\src\lv_core/lv_style.c ****     lv_style_transp_fit.body.padding.right  = 0;
 162:..\..\..\lvgl\version_6.1.2\lvgl\src\lv_core/lv_style.c ****     lv_style_transp_fit.body.padding.top    = 0;
 163:..\..\..\lvgl\version_6.1.2\lvgl\src\lv_core/lv_style.c ****     lv_style_transp_fit.body.padding.bottom = 0;
 164:..\..\..\lvgl\version_6.1.2\lvgl\src\lv_core/lv_style.c **** 
 165:..\..\..\lvgl\version_6.1.2\lvgl\src\lv_core/lv_style.c ****     /*Transparent tight style*/
 166:..\..\..\lvgl\version_6.1.2\lvgl\src\lv_core/lv_style.c ****     lv_style_copy(&lv_style_transp_tight, &lv_style_transp_fit);
 167:..\..\..\lvgl\version_6.1.2\lvgl\src\lv_core/lv_style.c ****     lv_style_transp_tight.body.padding.inner = 0;
 168:..\..\..\lvgl\version_6.1.2\lvgl\src\lv_core/lv_style.c **** 
 169:..\..\..\lvgl\version_6.1.2\lvgl\src\lv_core/lv_style.c ****     /*Button released style*/
 170:..\..\..\lvgl\version_6.1.2\lvgl\src\lv_core/lv_style.c ****     lv_style_copy(&lv_style_btn_rel, &lv_style_plain);
 171:..\..\..\lvgl\version_6.1.2\lvgl\src\lv_core/lv_style.c ****     lv_style_btn_rel.body.main_color     = lv_color_make(0x76, 0xa2, 0xd0);
 172:..\..\..\lvgl\version_6.1.2\lvgl\src\lv_core/lv_style.c ****     lv_style_btn_rel.body.grad_color     = lv_color_make(0x19, 0x3a, 0x5d);
 173:..\..\..\lvgl\version_6.1.2\lvgl\src\lv_core/lv_style.c ****     lv_style_btn_rel.body.radius         = LV_DPI / 15;
 174:..\..\..\lvgl\version_6.1.2\lvgl\src\lv_core/lv_style.c ****     lv_style_btn_rel.body.padding.left   = LV_DPI / 4;
 175:..\..\..\lvgl\version_6.1.2\lvgl\src\lv_core/lv_style.c ****     lv_style_btn_rel.body.padding.right  = LV_DPI / 4;
 176:..\..\..\lvgl\version_6.1.2\lvgl\src\lv_core/lv_style.c ****     lv_style_btn_rel.body.padding.top    = LV_DPI / 6;
 177:..\..\..\lvgl\version_6.1.2\lvgl\src\lv_core/lv_style.c ****     lv_style_btn_rel.body.padding.bottom = LV_DPI / 6;
 178:..\..\..\lvgl\version_6.1.2\lvgl\src\lv_core/lv_style.c ****     lv_style_btn_rel.body.padding.inner  = LV_DPI / 10;
 179:..\..\..\lvgl\version_6.1.2\lvgl\src\lv_core/lv_style.c ****     lv_style_btn_rel.body.border.color   = lv_color_make(0x0b, 0x19, 0x28);
 180:..\..\..\lvgl\version_6.1.2\lvgl\src\lv_core/lv_style.c ****     lv_style_btn_rel.body.border.width   = LV_DPI / 50 >= 1 ? LV_DPI / 50 : 1;
 181:..\..\..\lvgl\version_6.1.2\lvgl\src\lv_core/lv_style.c ****     lv_style_btn_rel.body.border.opa     = LV_OPA_70;
 182:..\..\..\lvgl\version_6.1.2\lvgl\src\lv_core/lv_style.c ****     lv_style_btn_rel.body.shadow.color   = LV_COLOR_GRAY;
 183:..\..\..\lvgl\version_6.1.2\lvgl\src\lv_core/lv_style.c ****     lv_style_btn_rel.body.shadow.width   = 0;
 184:..\..\..\lvgl\version_6.1.2\lvgl\src\lv_core/lv_style.c ****     lv_style_btn_rel.text.color          = lv_color_make(0xff, 0xff, 0xff);
 185:..\..\..\lvgl\version_6.1.2\lvgl\src\lv_core/lv_style.c ****     lv_style_btn_rel.image.color         = lv_color_make(0xff, 0xff, 0xff);
 186:..\..\..\lvgl\version_6.1.2\lvgl\src\lv_core/lv_style.c **** 
 187:..\..\..\lvgl\version_6.1.2\lvgl\src\lv_core/lv_style.c ****     /*Button pressed style*/
 188:..\..\..\lvgl\version_6.1.2\lvgl\src\lv_core/lv_style.c ****     lv_style_copy(&lv_style_btn_pr, &lv_style_btn_rel);
 189:..\..\..\lvgl\version_6.1.2\lvgl\src\lv_core/lv_style.c ****     lv_style_btn_pr.body.main_color = lv_color_make(0x33, 0x62, 0x94);
 190:..\..\..\lvgl\version_6.1.2\lvgl\src\lv_core/lv_style.c ****     lv_style_btn_pr.body.grad_color = lv_color_make(0x10, 0x26, 0x3c);
 191:..\..\..\lvgl\version_6.1.2\lvgl\src\lv_core/lv_style.c ****     lv_style_btn_pr.text.color      = lv_color_make(0xa4, 0xb5, 0xc6);
 192:..\..\..\lvgl\version_6.1.2\lvgl\src\lv_core/lv_style.c ****     lv_style_btn_pr.image.color     = lv_color_make(0xa4, 0xb5, 0xc6);
 193:..\..\..\lvgl\version_6.1.2\lvgl\src\lv_core/lv_style.c ****     lv_style_btn_pr.line.color      = lv_color_make(0xa4, 0xb5, 0xc6);
 194:..\..\..\lvgl\version_6.1.2\lvgl\src\lv_core/lv_style.c **** 
 195:..\..\..\lvgl\version_6.1.2\lvgl\src\lv_core/lv_style.c ****     /*Button toggle released style*/
 196:..\..\..\lvgl\version_6.1.2\lvgl\src\lv_core/lv_style.c ****     lv_style_copy(&lv_style_btn_tgl_rel, &lv_style_btn_rel);
 197:..\..\..\lvgl\version_6.1.2\lvgl\src\lv_core/lv_style.c ****     lv_style_btn_tgl_rel.body.main_color   = lv_color_make(0x0a, 0x11, 0x22);
 198:..\..\..\lvgl\version_6.1.2\lvgl\src\lv_core/lv_style.c ****     lv_style_btn_tgl_rel.body.grad_color   = lv_color_make(0x37, 0x62, 0x90);
 199:..\..\..\lvgl\version_6.1.2\lvgl\src\lv_core/lv_style.c ****     lv_style_btn_tgl_rel.body.border.color = lv_color_make(0x01, 0x07, 0x0d);
 200:..\..\..\lvgl\version_6.1.2\lvgl\src\lv_core/lv_style.c ****     lv_style_btn_tgl_rel.text.color        = lv_color_make(0xc8, 0xdd, 0xf4);
 201:..\..\..\lvgl\version_6.1.2\lvgl\src\lv_core/lv_style.c ****     lv_style_btn_tgl_rel.image.color       = lv_color_make(0xc8, 0xdd, 0xf4);
ARM GAS  C:\Users\pearlstl\AppData\Local\Temp\ccvteysW.s 			page 5


 202:..\..\..\lvgl\version_6.1.2\lvgl\src\lv_core/lv_style.c ****     lv_style_btn_tgl_rel.line.color        = lv_color_make(0xc8, 0xdd, 0xf4);
 203:..\..\..\lvgl\version_6.1.2\lvgl\src\lv_core/lv_style.c **** 
 204:..\..\..\lvgl\version_6.1.2\lvgl\src\lv_core/lv_style.c ****     /*Button toggle pressed style*/
 205:..\..\..\lvgl\version_6.1.2\lvgl\src\lv_core/lv_style.c ****     lv_style_copy(&lv_style_btn_tgl_pr, &lv_style_btn_tgl_rel);
 206:..\..\..\lvgl\version_6.1.2\lvgl\src\lv_core/lv_style.c ****     lv_style_btn_tgl_pr.body.main_color = lv_color_make(0x02, 0x14, 0x27);
 207:..\..\..\lvgl\version_6.1.2\lvgl\src\lv_core/lv_style.c ****     lv_style_btn_tgl_pr.body.grad_color = lv_color_make(0x2b, 0x4c, 0x70);
 208:..\..\..\lvgl\version_6.1.2\lvgl\src\lv_core/lv_style.c ****     lv_style_btn_tgl_pr.text.color      = lv_color_make(0xa4, 0xb5, 0xc6);
 209:..\..\..\lvgl\version_6.1.2\lvgl\src\lv_core/lv_style.c ****     lv_style_btn_tgl_pr.image.color     = lv_color_make(0xa4, 0xb5, 0xc6);
 210:..\..\..\lvgl\version_6.1.2\lvgl\src\lv_core/lv_style.c ****     lv_style_btn_tgl_pr.line.color      = lv_color_make(0xa4, 0xb5, 0xc6);
 211:..\..\..\lvgl\version_6.1.2\lvgl\src\lv_core/lv_style.c **** 
 212:..\..\..\lvgl\version_6.1.2\lvgl\src\lv_core/lv_style.c ****     /*Button inactive style*/
 213:..\..\..\lvgl\version_6.1.2\lvgl\src\lv_core/lv_style.c ****     lv_style_copy(&lv_style_btn_ina, &lv_style_btn_rel);
 214:..\..\..\lvgl\version_6.1.2\lvgl\src\lv_core/lv_style.c ****     lv_style_btn_ina.body.main_color   = lv_color_make(0xd8, 0xd8, 0xd8);
 215:..\..\..\lvgl\version_6.1.2\lvgl\src\lv_core/lv_style.c ****     lv_style_btn_ina.body.grad_color   = lv_color_make(0xd8, 0xd8, 0xd8);
 216:..\..\..\lvgl\version_6.1.2\lvgl\src\lv_core/lv_style.c ****     lv_style_btn_ina.body.border.color = lv_color_make(0x90, 0x90, 0x90);
 217:..\..\..\lvgl\version_6.1.2\lvgl\src\lv_core/lv_style.c ****     lv_style_btn_ina.text.color        = lv_color_make(0x70, 0x70, 0x70);
 218:..\..\..\lvgl\version_6.1.2\lvgl\src\lv_core/lv_style.c ****     lv_style_btn_ina.image.color       = lv_color_make(0x70, 0x70, 0x70);
 219:..\..\..\lvgl\version_6.1.2\lvgl\src\lv_core/lv_style.c ****     lv_style_btn_ina.line.color        = lv_color_make(0x70, 0x70, 0x70);
 220:..\..\..\lvgl\version_6.1.2\lvgl\src\lv_core/lv_style.c **** }
 221:..\..\..\lvgl\version_6.1.2\lvgl\src\lv_core/lv_style.c **** 
 222:..\..\..\lvgl\version_6.1.2\lvgl\src\lv_core/lv_style.c **** /**
 223:..\..\..\lvgl\version_6.1.2\lvgl\src\lv_core/lv_style.c ****  * Copy a style to an other
 224:..\..\..\lvgl\version_6.1.2\lvgl\src\lv_core/lv_style.c ****  * @param dest pointer to the destination style
 225:..\..\..\lvgl\version_6.1.2\lvgl\src\lv_core/lv_style.c ****  * @param src pointer to the source style
 226:..\..\..\lvgl\version_6.1.2\lvgl\src\lv_core/lv_style.c ****  */
 227:..\..\..\lvgl\version_6.1.2\lvgl\src\lv_core/lv_style.c **** void lv_style_copy(lv_style_t * dest, const lv_style_t * src)
 228:..\..\..\lvgl\version_6.1.2\lvgl\src\lv_core/lv_style.c **** {
 229:..\..\..\lvgl\version_6.1.2\lvgl\src\lv_core/lv_style.c ****     memcpy(dest, src, sizeof(lv_style_t));
 230:..\..\..\lvgl\version_6.1.2\lvgl\src\lv_core/lv_style.c **** }
 231:..\..\..\lvgl\version_6.1.2\lvgl\src\lv_core/lv_style.c **** 
 232:..\..\..\lvgl\version_6.1.2\lvgl\src\lv_core/lv_style.c **** /**
 233:..\..\..\lvgl\version_6.1.2\lvgl\src\lv_core/lv_style.c ****  * Mix two styles according to a given ratio
 234:..\..\..\lvgl\version_6.1.2\lvgl\src\lv_core/lv_style.c ****  * @param start start style
 235:..\..\..\lvgl\version_6.1.2\lvgl\src\lv_core/lv_style.c ****  * @param end end style
 236:..\..\..\lvgl\version_6.1.2\lvgl\src\lv_core/lv_style.c ****  * @param res store the result style here
 237:..\..\..\lvgl\version_6.1.2\lvgl\src\lv_core/lv_style.c ****  * @param ratio the ratio of mix [0..256]; 0: `start` style; 256: `end` style
 238:..\..\..\lvgl\version_6.1.2\lvgl\src\lv_core/lv_style.c ****  */
 239:..\..\..\lvgl\version_6.1.2\lvgl\src\lv_core/lv_style.c **** void lv_style_mix(const lv_style_t * start, const lv_style_t * end, lv_style_t * res, uint16_t rati
 240:..\..\..\lvgl\version_6.1.2\lvgl\src\lv_core/lv_style.c **** {
 241:..\..\..\lvgl\version_6.1.2\lvgl\src\lv_core/lv_style.c ****     STYLE_ATTR_MIX(body.opa, ratio);
 242:..\..\..\lvgl\version_6.1.2\lvgl\src\lv_core/lv_style.c ****     STYLE_ATTR_MIX(body.radius, ratio);
 243:..\..\..\lvgl\version_6.1.2\lvgl\src\lv_core/lv_style.c ****     STYLE_ATTR_MIX(body.border.width, ratio);
 244:..\..\..\lvgl\version_6.1.2\lvgl\src\lv_core/lv_style.c ****     STYLE_ATTR_MIX(body.border.opa, ratio);
 245:..\..\..\lvgl\version_6.1.2\lvgl\src\lv_core/lv_style.c ****     STYLE_ATTR_MIX(body.shadow.width, ratio);
 246:..\..\..\lvgl\version_6.1.2\lvgl\src\lv_core/lv_style.c ****     STYLE_ATTR_MIX(body.padding.left, ratio);
 247:..\..\..\lvgl\version_6.1.2\lvgl\src\lv_core/lv_style.c ****     STYLE_ATTR_MIX(body.padding.right, ratio);
 248:..\..\..\lvgl\version_6.1.2\lvgl\src\lv_core/lv_style.c ****     STYLE_ATTR_MIX(body.padding.top, ratio);
 249:..\..\..\lvgl\version_6.1.2\lvgl\src\lv_core/lv_style.c ****     STYLE_ATTR_MIX(body.padding.bottom, ratio);
 250:..\..\..\lvgl\version_6.1.2\lvgl\src\lv_core/lv_style.c ****     STYLE_ATTR_MIX(body.padding.inner, ratio);
 251:..\..\..\lvgl\version_6.1.2\lvgl\src\lv_core/lv_style.c ****     STYLE_ATTR_MIX(text.line_space, ratio);
 252:..\..\..\lvgl\version_6.1.2\lvgl\src\lv_core/lv_style.c ****     STYLE_ATTR_MIX(text.letter_space, ratio);
 253:..\..\..\lvgl\version_6.1.2\lvgl\src\lv_core/lv_style.c ****     STYLE_ATTR_MIX(text.opa, ratio);
 254:..\..\..\lvgl\version_6.1.2\lvgl\src\lv_core/lv_style.c ****     STYLE_ATTR_MIX(line.width, ratio);
 255:..\..\..\lvgl\version_6.1.2\lvgl\src\lv_core/lv_style.c ****     STYLE_ATTR_MIX(line.opa, ratio);
 256:..\..\..\lvgl\version_6.1.2\lvgl\src\lv_core/lv_style.c ****     STYLE_ATTR_MIX(image.intense, ratio);
 257:..\..\..\lvgl\version_6.1.2\lvgl\src\lv_core/lv_style.c ****     STYLE_ATTR_MIX(image.opa, ratio);
 258:..\..\..\lvgl\version_6.1.2\lvgl\src\lv_core/lv_style.c **** 
ARM GAS  C:\Users\pearlstl\AppData\Local\Temp\ccvteysW.s 			page 6


 259:..\..\..\lvgl\version_6.1.2\lvgl\src\lv_core/lv_style.c ****     lv_opa_t opa = ratio == STYLE_MIX_MAX ? LV_OPA_COVER : ratio;
 260:..\..\..\lvgl\version_6.1.2\lvgl\src\lv_core/lv_style.c **** 
 261:..\..\..\lvgl\version_6.1.2\lvgl\src\lv_core/lv_style.c ****     res->body.main_color   = lv_color_mix(end->body.main_color, start->body.main_color, opa);
 262:..\..\..\lvgl\version_6.1.2\lvgl\src\lv_core/lv_style.c ****     res->body.grad_color   = lv_color_mix(end->body.grad_color, start->body.grad_color, opa);
 263:..\..\..\lvgl\version_6.1.2\lvgl\src\lv_core/lv_style.c ****     res->body.border.color = lv_color_mix(end->body.border.color, start->body.border.color, opa);
 264:..\..\..\lvgl\version_6.1.2\lvgl\src\lv_core/lv_style.c ****     res->body.shadow.color = lv_color_mix(end->body.shadow.color, start->body.shadow.color, opa);
 265:..\..\..\lvgl\version_6.1.2\lvgl\src\lv_core/lv_style.c ****     res->text.color        = lv_color_mix(end->text.color, start->text.color, opa);
 266:..\..\..\lvgl\version_6.1.2\lvgl\src\lv_core/lv_style.c ****     res->image.color       = lv_color_mix(end->image.color, start->image.color, opa);
 267:..\..\..\lvgl\version_6.1.2\lvgl\src\lv_core/lv_style.c ****     res->line.color        = lv_color_mix(end->line.color, start->line.color, opa);
 268:..\..\..\lvgl\version_6.1.2\lvgl\src\lv_core/lv_style.c **** 
 269:..\..\..\lvgl\version_6.1.2\lvgl\src\lv_core/lv_style.c ****     if(ratio < (STYLE_MIX_MAX >> 1)) {
 270:..\..\..\lvgl\version_6.1.2\lvgl\src\lv_core/lv_style.c ****         res->body.border.part = start->body.border.part;
 271:..\..\..\lvgl\version_6.1.2\lvgl\src\lv_core/lv_style.c ****         res->glass            = start->glass;
 272:..\..\..\lvgl\version_6.1.2\lvgl\src\lv_core/lv_style.c ****         res->text.font        = start->text.font;
 273:..\..\..\lvgl\version_6.1.2\lvgl\src\lv_core/lv_style.c ****         res->body.shadow.type = start->body.shadow.type;
 274:..\..\..\lvgl\version_6.1.2\lvgl\src\lv_core/lv_style.c ****         res->line.rounded     = start->line.rounded;
 275:..\..\..\lvgl\version_6.1.2\lvgl\src\lv_core/lv_style.c ****     } else {
 276:..\..\..\lvgl\version_6.1.2\lvgl\src\lv_core/lv_style.c ****         res->body.border.part = end->body.border.part;
 277:..\..\..\lvgl\version_6.1.2\lvgl\src\lv_core/lv_style.c ****         res->glass            = end->glass;
 278:..\..\..\lvgl\version_6.1.2\lvgl\src\lv_core/lv_style.c ****         res->text.font        = end->text.font;
 279:..\..\..\lvgl\version_6.1.2\lvgl\src\lv_core/lv_style.c ****         res->body.shadow.type = end->body.shadow.type;
 280:..\..\..\lvgl\version_6.1.2\lvgl\src\lv_core/lv_style.c ****         res->line.rounded     = end->line.rounded;
 281:..\..\..\lvgl\version_6.1.2\lvgl\src\lv_core/lv_style.c ****     }
 282:..\..\..\lvgl\version_6.1.2\lvgl\src\lv_core/lv_style.c **** }
 283:..\..\..\lvgl\version_6.1.2\lvgl\src\lv_core/lv_style.c **** 
 284:..\..\..\lvgl\version_6.1.2\lvgl\src\lv_core/lv_style.c **** #if LV_USE_ANIMATION
 285:..\..\..\lvgl\version_6.1.2\lvgl\src\lv_core/lv_style.c **** 
 286:..\..\..\lvgl\version_6.1.2\lvgl\src\lv_core/lv_style.c **** void lv_style_anim_init(lv_anim_t * a)
 287:..\..\..\lvgl\version_6.1.2\lvgl\src\lv_core/lv_style.c **** {
 288:..\..\..\lvgl\version_6.1.2\lvgl\src\lv_core/lv_style.c ****     lv_anim_init(a);
 289:..\..\..\lvgl\version_6.1.2\lvgl\src\lv_core/lv_style.c ****     a->start    = 0;
 290:..\..\..\lvgl\version_6.1.2\lvgl\src\lv_core/lv_style.c ****     a->end      = STYLE_MIX_MAX;
 291:..\..\..\lvgl\version_6.1.2\lvgl\src\lv_core/lv_style.c ****     a->exec_cb  = (lv_anim_exec_xcb_t)style_animator;
 292:..\..\..\lvgl\version_6.1.2\lvgl\src\lv_core/lv_style.c ****     a->path_cb  = lv_anim_path_linear;
 293:..\..\..\lvgl\version_6.1.2\lvgl\src\lv_core/lv_style.c ****     a->ready_cb = style_animation_common_end_cb;
 294:..\..\..\lvgl\version_6.1.2\lvgl\src\lv_core/lv_style.c **** 
 295:..\..\..\lvgl\version_6.1.2\lvgl\src\lv_core/lv_style.c ****     lv_style_anim_dsc_t * dsc;
 296:..\..\..\lvgl\version_6.1.2\lvgl\src\lv_core/lv_style.c ****     dsc = lv_mem_alloc(sizeof(lv_style_anim_dsc_t));
 297:..\..\..\lvgl\version_6.1.2\lvgl\src\lv_core/lv_style.c ****     LV_ASSERT_MEM(dsc);
 298:..\..\..\lvgl\version_6.1.2\lvgl\src\lv_core/lv_style.c ****     if(dsc == NULL) return;
 299:..\..\..\lvgl\version_6.1.2\lvgl\src\lv_core/lv_style.c ****     dsc->ready_cb   = NULL;
 300:..\..\..\lvgl\version_6.1.2\lvgl\src\lv_core/lv_style.c ****     dsc->style_anim = NULL;
 301:..\..\..\lvgl\version_6.1.2\lvgl\src\lv_core/lv_style.c ****     lv_style_copy(&dsc->style_start, &lv_style_plain);
 302:..\..\..\lvgl\version_6.1.2\lvgl\src\lv_core/lv_style.c ****     lv_style_copy(&dsc->style_end, &lv_style_plain);
 303:..\..\..\lvgl\version_6.1.2\lvgl\src\lv_core/lv_style.c **** 
 304:..\..\..\lvgl\version_6.1.2\lvgl\src\lv_core/lv_style.c ****     a->var = (void *)dsc;
 305:..\..\..\lvgl\version_6.1.2\lvgl\src\lv_core/lv_style.c **** }
 306:..\..\..\lvgl\version_6.1.2\lvgl\src\lv_core/lv_style.c **** 
 307:..\..\..\lvgl\version_6.1.2\lvgl\src\lv_core/lv_style.c **** void lv_style_anim_set_styles(lv_anim_t * a, lv_style_t * to_anim, const lv_style_t * start, const 
 308:..\..\..\lvgl\version_6.1.2\lvgl\src\lv_core/lv_style.c **** {
 309:..\..\..\lvgl\version_6.1.2\lvgl\src\lv_core/lv_style.c **** 
 310:..\..\..\lvgl\version_6.1.2\lvgl\src\lv_core/lv_style.c ****     lv_style_anim_dsc_t * dsc = a->var;
 311:..\..\..\lvgl\version_6.1.2\lvgl\src\lv_core/lv_style.c ****     dsc->style_anim           = to_anim;
 312:..\..\..\lvgl\version_6.1.2\lvgl\src\lv_core/lv_style.c ****     memcpy(&dsc->style_start, start, sizeof(lv_style_t));
 313:..\..\..\lvgl\version_6.1.2\lvgl\src\lv_core/lv_style.c ****     memcpy(&dsc->style_end, end, sizeof(lv_style_t));
 314:..\..\..\lvgl\version_6.1.2\lvgl\src\lv_core/lv_style.c ****     memcpy(dsc->style_anim, start, sizeof(lv_style_t));
 315:..\..\..\lvgl\version_6.1.2\lvgl\src\lv_core/lv_style.c **** }
ARM GAS  C:\Users\pearlstl\AppData\Local\Temp\ccvteysW.s 			page 7


 316:..\..\..\lvgl\version_6.1.2\lvgl\src\lv_core/lv_style.c **** #endif
 317:..\..\..\lvgl\version_6.1.2\lvgl\src\lv_core/lv_style.c **** /**********************
 318:..\..\..\lvgl\version_6.1.2\lvgl\src\lv_core/lv_style.c ****  *   STATIC FUNCTIONS
 319:..\..\..\lvgl\version_6.1.2\lvgl\src\lv_core/lv_style.c ****  **********************/
 320:..\..\..\lvgl\version_6.1.2\lvgl\src\lv_core/lv_style.c **** #if LV_USE_ANIMATION
 321:..\..\..\lvgl\version_6.1.2\lvgl\src\lv_core/lv_style.c **** /**
 322:..\..\..\lvgl\version_6.1.2\lvgl\src\lv_core/lv_style.c ****  * Used by the style animations to set the values of a style according to start and end style.
 323:..\..\..\lvgl\version_6.1.2\lvgl\src\lv_core/lv_style.c ****  * @param dsc the 'animated variable' set by lv_style_anim_create()
 324:..\..\..\lvgl\version_6.1.2\lvgl\src\lv_core/lv_style.c ****  * @param val the current state of the animation between 0 and LV_ANIM_RESOLUTION
 325:..\..\..\lvgl\version_6.1.2\lvgl\src\lv_core/lv_style.c ****  */
 326:..\..\..\lvgl\version_6.1.2\lvgl\src\lv_core/lv_style.c **** static void style_animator(lv_style_anim_dsc_t * dsc, lv_anim_value_t val)
 327:..\..\..\lvgl\version_6.1.2\lvgl\src\lv_core/lv_style.c **** {
 328:..\..\..\lvgl\version_6.1.2\lvgl\src\lv_core/lv_style.c ****     const lv_style_t * start = &dsc->style_start;
 329:..\..\..\lvgl\version_6.1.2\lvgl\src\lv_core/lv_style.c ****     const lv_style_t * end   = &dsc->style_end;
 330:..\..\..\lvgl\version_6.1.2\lvgl\src\lv_core/lv_style.c ****     lv_style_t * act         = dsc->style_anim;
 331:..\..\..\lvgl\version_6.1.2\lvgl\src\lv_core/lv_style.c **** 
 332:..\..\..\lvgl\version_6.1.2\lvgl\src\lv_core/lv_style.c ****     lv_style_mix(start, end, act, val);
 333:..\..\..\lvgl\version_6.1.2\lvgl\src\lv_core/lv_style.c **** 
 334:..\..\..\lvgl\version_6.1.2\lvgl\src\lv_core/lv_style.c ****     lv_obj_report_style_mod(dsc->style_anim);
 335:..\..\..\lvgl\version_6.1.2\lvgl\src\lv_core/lv_style.c **** }
 336:..\..\..\lvgl\version_6.1.2\lvgl\src\lv_core/lv_style.c **** 
 337:..\..\..\lvgl\version_6.1.2\lvgl\src\lv_core/lv_style.c **** /**
 338:..\..\..\lvgl\version_6.1.2\lvgl\src\lv_core/lv_style.c ****  * Called when a style animation is ready
 339:..\..\..\lvgl\version_6.1.2\lvgl\src\lv_core/lv_style.c ****  * It called the user defined call back and free the allocated memories
 340:..\..\..\lvgl\version_6.1.2\lvgl\src\lv_core/lv_style.c ****  * @param a pointer to the animation
 341:..\..\..\lvgl\version_6.1.2\lvgl\src\lv_core/lv_style.c ****  */
 342:..\..\..\lvgl\version_6.1.2\lvgl\src\lv_core/lv_style.c **** static void style_animation_common_end_cb(lv_anim_t * a)
 343:..\..\..\lvgl\version_6.1.2\lvgl\src\lv_core/lv_style.c **** {
  28              		.loc 1 343 0
  29              		.cfi_startproc
  30              		@ args = 0, pretend = 0, frame = 0
  31              		@ frame_needed = 0, uses_anonymous_args = 0
  32              	.LVL0:
  33 0000 10B5     		push	{r4, lr}
  34              		.cfi_def_cfa_offset 8
  35              		.cfi_offset 4, -8
  36              		.cfi_offset 14, -4
 344:..\..\..\lvgl\version_6.1.2\lvgl\src\lv_core/lv_style.c **** 
 345:..\..\..\lvgl\version_6.1.2\lvgl\src\lv_core/lv_style.c ****     (void)a;                            /*Unused*/
 346:..\..\..\lvgl\version_6.1.2\lvgl\src\lv_core/lv_style.c ****     lv_style_anim_dsc_t * dsc = a->var; /*To avoid casting*/
  37              		.loc 1 346 0
  38 0002 0468     		ldr	r4, [r0]
  39              	.LVL1:
 347:..\..\..\lvgl\version_6.1.2\lvgl\src\lv_core/lv_style.c **** 
 348:..\..\..\lvgl\version_6.1.2\lvgl\src\lv_core/lv_style.c ****     if(dsc->ready_cb) dsc->ready_cb(a);
  40              		.loc 1 348 0
  41 0004 D4F8A430 		ldr	r3, [r4, #164]
  42 0008 03B1     		cbz	r3, .L2
  43              		.loc 1 348 0 is_stmt 0 discriminator 1
  44 000a 9847     		blx	r3
  45              	.LVL2:
  46              	.L2:
 349:..\..\..\lvgl\version_6.1.2\lvgl\src\lv_core/lv_style.c **** 
 350:..\..\..\lvgl\version_6.1.2\lvgl\src\lv_core/lv_style.c ****     lv_mem_free(dsc);
  47              		.loc 1 350 0 is_stmt 1
  48 000c 2046     		mov	r0, r4
 351:..\..\..\lvgl\version_6.1.2\lvgl\src\lv_core/lv_style.c **** }
ARM GAS  C:\Users\pearlstl\AppData\Local\Temp\ccvteysW.s 			page 8


  49              		.loc 1 351 0
  50 000e BDE81040 		pop	{r4, lr}
  51              		.cfi_restore 14
  52              		.cfi_restore 4
  53              		.cfi_def_cfa_offset 0
  54              	.LVL3:
 350:..\..\..\lvgl\version_6.1.2\lvgl\src\lv_core/lv_style.c **** }
  55              		.loc 1 350 0
  56 0012 FFF7FEBF 		b	lv_mem_free
  57              	.LVL4:
  58              		.cfi_endproc
  59              	.LFE37:
  60              		.size	style_animation_common_end_cb, .-style_animation_common_end_cb
  61 0016 00BF     		.section	.text.style_animator,"ax",%progbits
  62              		.align	2
  63              		.thumb
  64              		.thumb_func
  65              		.type	style_animator, %function
  66              	style_animator:
  67              	.LFB36:
 327:..\..\..\lvgl\version_6.1.2\lvgl\src\lv_core/lv_style.c ****     const lv_style_t * start = &dsc->style_start;
  68              		.loc 1 327 0
  69              		.cfi_startproc
  70              		@ args = 0, pretend = 0, frame = 0
  71              		@ frame_needed = 0, uses_anonymous_args = 0
  72              	.LVL5:
  73 0000 2DE9F043 		push	{r4, r5, r6, r7, r8, r9, lr}
  74              		.cfi_def_cfa_offset 28
  75              		.cfi_offset 4, -28
  76              		.cfi_offset 5, -24
  77              		.cfi_offset 6, -20
  78              		.cfi_offset 7, -16
  79              		.cfi_offset 8, -12
  80              		.cfi_offset 9, -8
  81              		.cfi_offset 14, -4
  82              	.LBB150:
  83              	.LBB151:
 241:..\..\..\lvgl\version_6.1.2\lvgl\src\lv_core/lv_style.c ****     STYLE_ATTR_MIX(body.radius, ratio);
  84              		.loc 1 241 0
  85 0004 857B     		ldrb	r5, [r0, #14]	@ zero_extendqisi2
  86 0006 90F85E20 		ldrb	r2, [r0, #94]	@ zero_extendqisi2
  87              	.LBE151:
  88              	.LBE150:
 330:..\..\..\lvgl\version_6.1.2\lvgl\src\lv_core/lv_style.c **** 
  89              		.loc 1 330 0
  90 000a D0F8A030 		ldr	r3, [r0, #160]
  91              	.LVL6:
  92              	.LBB226:
  93              	.LBB222:
 241:..\..\..\lvgl\version_6.1.2\lvgl\src\lv_core/lv_style.c ****     STYLE_ATTR_MIX(body.radius, ratio);
  94              		.loc 1 241 0
  95 000e 9542     		cmp	r5, r2
  96              	.LBE222:
  97              	.LBE226:
 332:..\..\..\lvgl\version_6.1.2\lvgl\src\lv_core/lv_style.c **** 
  98              		.loc 1 332 0
  99 0010 8CB2     		uxth	r4, r1
ARM GAS  C:\Users\pearlstl\AppData\Local\Temp\ccvteysW.s 			page 9


 100              	.LVL7:
 101              	.LBB227:
 102              	.LBB223:
 241:..\..\..\lvgl\version_6.1.2\lvgl\src\lv_core/lv_style.c ****     STYLE_ATTR_MIX(body.radius, ratio);
 103              		.loc 1 241 0
 104 0012 05D0     		beq	.L9
 105 0014 521B     		subs	r2, r2, r5
 106 0016 04FB02F2 		mul	r2, r4, r2
 107 001a 05EB2222 		add	r2, r5, r2, asr #8
 108 001e D2B2     		uxtb	r2, r2
 109              	.L9:
 110 0020 9A73     		strb	r2, [r3, #14]
 242:..\..\..\lvgl\version_6.1.2\lvgl\src\lv_core/lv_style.c ****     STYLE_ATTR_MIX(body.border.width, ratio);
 111              		.loc 1 242 0
 112 0022 B0F90C20 		ldrsh	r2, [r0, #12]
 113 0026 B0F95C50 		ldrsh	r5, [r0, #92]
 114 002a AA42     		cmp	r2, r5
 115 002c 05D0     		beq	.L10
 116 002e AD1A     		subs	r5, r5, r2
 117 0030 04FB05F5 		mul	r5, r4, r5
 118 0034 02EB2525 		add	r5, r2, r5, asr #8
 119 0038 2DB2     		sxth	r5, r5
 120              	.L10:
 243:..\..\..\lvgl\version_6.1.2\lvgl\src\lv_core/lv_style.c ****     STYLE_ATTR_MIX(body.border.opa, ratio);
 121              		.loc 1 243 0
 122 003a B0F91460 		ldrsh	r6, [r0, #20]
 123 003e B0F96420 		ldrsh	r2, [r0, #100]
 124 0042 9D81     		strh	r5, [r3, #12]	@ movhi
 125 0044 9642     		cmp	r6, r2
 126 0046 05D0     		beq	.L11
 127 0048 921B     		subs	r2, r2, r6
 128 004a 04FB02F2 		mul	r2, r4, r2
 129 004e 06EB2222 		add	r2, r6, r2, asr #8
 130 0052 12B2     		sxth	r2, r2
 131              	.L11:
 132 0054 9A82     		strh	r2, [r3, #20]	@ movhi
 244:..\..\..\lvgl\version_6.1.2\lvgl\src\lv_core/lv_style.c ****     STYLE_ATTR_MIX(body.shadow.width, ratio);
 133              		.loc 1 244 0
 134 0056 C57D     		ldrb	r5, [r0, #23]	@ zero_extendqisi2
 135 0058 90F86720 		ldrb	r2, [r0, #103]	@ zero_extendqisi2
 136 005c 9542     		cmp	r5, r2
 137 005e 05D0     		beq	.L12
 138 0060 521B     		subs	r2, r2, r5
 139 0062 04FB02F2 		mul	r2, r4, r2
 140 0066 05EB2222 		add	r2, r5, r2, asr #8
 141 006a D2B2     		uxtb	r2, r2
 142              	.L12:
 143 006c DA75     		strb	r2, [r3, #23]
 245:..\..\..\lvgl\version_6.1.2\lvgl\src\lv_core/lv_style.c ****     STYLE_ATTR_MIX(body.padding.left, ratio);
 144              		.loc 1 245 0
 145 006e B0F91C20 		ldrsh	r2, [r0, #28]
 146 0072 B0F96C50 		ldrsh	r5, [r0, #108]
 147 0076 AA42     		cmp	r2, r5
 148 0078 05D0     		beq	.L13
 149 007a AD1A     		subs	r5, r5, r2
 150 007c 04FB05F5 		mul	r5, r4, r5
 151 0080 02EB2525 		add	r5, r2, r5, asr #8
ARM GAS  C:\Users\pearlstl\AppData\Local\Temp\ccvteysW.s 			page 10


 152 0084 2DB2     		sxth	r5, r5
 153              	.L13:
 246:..\..\..\lvgl\version_6.1.2\lvgl\src\lv_core/lv_style.c ****     STYLE_ATTR_MIX(body.padding.right, ratio);
 154              		.loc 1 246 0
 155 0086 B0F92460 		ldrsh	r6, [r0, #36]
 156 008a B0F97420 		ldrsh	r2, [r0, #116]
 157 008e 9D83     		strh	r5, [r3, #28]	@ movhi
 158 0090 9642     		cmp	r6, r2
 159 0092 05D0     		beq	.L14
 160 0094 921B     		subs	r2, r2, r6
 161 0096 04FB02F2 		mul	r2, r4, r2
 162 009a 06EB2222 		add	r2, r6, r2, asr #8
 163 009e 12B2     		sxth	r2, r2
 164              	.L14:
 247:..\..\..\lvgl\version_6.1.2\lvgl\src\lv_core/lv_style.c ****     STYLE_ATTR_MIX(body.padding.top, ratio);
 165              		.loc 1 247 0
 166 00a0 B0F92660 		ldrsh	r6, [r0, #38]
 167 00a4 B0F97650 		ldrsh	r5, [r0, #118]
 168 00a8 9A84     		strh	r2, [r3, #36]	@ movhi
 169 00aa AE42     		cmp	r6, r5
 170 00ac 05D0     		beq	.L15
 171 00ae AD1B     		subs	r5, r5, r6
 172 00b0 04FB05F5 		mul	r5, r4, r5
 173 00b4 06EB2525 		add	r5, r6, r5, asr #8
 174 00b8 2DB2     		sxth	r5, r5
 175              	.L15:
 248:..\..\..\lvgl\version_6.1.2\lvgl\src\lv_core/lv_style.c ****     STYLE_ATTR_MIX(body.padding.bottom, ratio);
 176              		.loc 1 248 0
 177 00ba B0F92060 		ldrsh	r6, [r0, #32]
 178 00be B0F97020 		ldrsh	r2, [r0, #112]
 179 00c2 DD84     		strh	r5, [r3, #38]	@ movhi
 180 00c4 9642     		cmp	r6, r2
 181 00c6 05D0     		beq	.L16
 182 00c8 921B     		subs	r2, r2, r6
 183 00ca 04FB02F2 		mul	r2, r4, r2
 184 00ce 06EB2222 		add	r2, r6, r2, asr #8
 185 00d2 12B2     		sxth	r2, r2
 186              	.L16:
 249:..\..\..\lvgl\version_6.1.2\lvgl\src\lv_core/lv_style.c ****     STYLE_ATTR_MIX(body.padding.inner, ratio);
 187              		.loc 1 249 0
 188 00d4 B0F92260 		ldrsh	r6, [r0, #34]
 189 00d8 B0F97250 		ldrsh	r5, [r0, #114]
 190 00dc 1A84     		strh	r2, [r3, #32]	@ movhi
 191 00de AE42     		cmp	r6, r5
 192 00e0 05D0     		beq	.L17
 193 00e2 AD1B     		subs	r5, r5, r6
 194 00e4 04FB05F5 		mul	r5, r4, r5
 195 00e8 06EB2525 		add	r5, r6, r5, asr #8
 196 00ec 2DB2     		sxth	r5, r5
 197              	.L17:
 250:..\..\..\lvgl\version_6.1.2\lvgl\src\lv_core/lv_style.c ****     STYLE_ATTR_MIX(text.line_space, ratio);
 198              		.loc 1 250 0
 199 00ee B0F92860 		ldrsh	r6, [r0, #40]
 200 00f2 B0F97820 		ldrsh	r2, [r0, #120]
 201 00f6 5D84     		strh	r5, [r3, #34]	@ movhi
 202 00f8 9642     		cmp	r6, r2
 203 00fa 05D0     		beq	.L18
ARM GAS  C:\Users\pearlstl\AppData\Local\Temp\ccvteysW.s 			page 11


 204 00fc 921B     		subs	r2, r2, r6
 205 00fe 04FB02F2 		mul	r2, r4, r2
 206 0102 06EB2222 		add	r2, r6, r2, asr #8
 207 0106 12B2     		sxth	r2, r2
 208              	.L18:
 251:..\..\..\lvgl\version_6.1.2\lvgl\src\lv_core/lv_style.c ****     STYLE_ATTR_MIX(text.letter_space, ratio);
 209              		.loc 1 251 0
 210 0108 B0F93A60 		ldrsh	r6, [r0, #58]
 211 010c B0F98A50 		ldrsh	r5, [r0, #138]
 212 0110 1A85     		strh	r2, [r3, #40]	@ movhi
 213 0112 AE42     		cmp	r6, r5
 214 0114 05D0     		beq	.L19
 215 0116 AD1B     		subs	r5, r5, r6
 216 0118 04FB05F5 		mul	r5, r4, r5
 217 011c 06EB2525 		add	r5, r6, r5, asr #8
 218 0120 2DB2     		sxth	r5, r5
 219              	.L19:
 252:..\..\..\lvgl\version_6.1.2\lvgl\src\lv_core/lv_style.c ****     STYLE_ATTR_MIX(text.opa, ratio);
 220              		.loc 1 252 0
 221 0122 B0F93860 		ldrsh	r6, [r0, #56]
 222 0126 B0F98820 		ldrsh	r2, [r0, #136]
 223 012a 5D87     		strh	r5, [r3, #58]	@ movhi
 224 012c 9642     		cmp	r6, r2
 225 012e 05D0     		beq	.L20
 226 0130 921B     		subs	r2, r2, r6
 227 0132 04FB02F2 		mul	r2, r4, r2
 228 0136 06EB2222 		add	r2, r6, r2, asr #8
 229 013a 12B2     		sxth	r2, r2
 230              	.L20:
 231 013c 1A87     		strh	r2, [r3, #56]	@ movhi
 253:..\..\..\lvgl\version_6.1.2\lvgl\src\lv_core/lv_style.c ****     STYLE_ATTR_MIX(line.width, ratio);
 232              		.loc 1 253 0
 233 013e 90F83C50 		ldrb	r5, [r0, #60]	@ zero_extendqisi2
 234 0142 90F88C20 		ldrb	r2, [r0, #140]	@ zero_extendqisi2
 235 0146 9542     		cmp	r5, r2
 236 0148 05D0     		beq	.L21
 237 014a 521B     		subs	r2, r2, r5
 238 014c 04FB02F2 		mul	r2, r4, r2
 239 0150 05EB2222 		add	r2, r5, r2, asr #8
 240 0154 D2B2     		uxtb	r2, r2
 241              	.L21:
 242 0156 83F83C20 		strb	r2, [r3, #60]
 254:..\..\..\lvgl\version_6.1.2\lvgl\src\lv_core/lv_style.c ****     STYLE_ATTR_MIX(line.opa, ratio);
 243              		.loc 1 254 0
 244 015a B0F94C50 		ldrsh	r5, [r0, #76]
 245 015e B0F99C20 		ldrsh	r2, [r0, #156]
 246 0162 9542     		cmp	r5, r2
 247 0164 05D0     		beq	.L22
 248 0166 521B     		subs	r2, r2, r5
 249 0168 04FB02F2 		mul	r2, r4, r2
 250 016c 05EB2222 		add	r2, r5, r2, asr #8
 251 0170 12B2     		sxth	r2, r2
 252              	.L22:
 253 0172 A3F84C20 		strh	r2, [r3, #76]	@ movhi
 255:..\..\..\lvgl\version_6.1.2\lvgl\src\lv_core/lv_style.c ****     STYLE_ATTR_MIX(image.intense, ratio);
 254              		.loc 1 255 0
 255 0176 90F84E50 		ldrb	r5, [r0, #78]	@ zero_extendqisi2
ARM GAS  C:\Users\pearlstl\AppData\Local\Temp\ccvteysW.s 			page 12


 256 017a 90F89E20 		ldrb	r2, [r0, #158]	@ zero_extendqisi2
 257 017e 9542     		cmp	r5, r2
 258 0180 05D0     		beq	.L23
 259 0182 521B     		subs	r2, r2, r5
 260 0184 04FB02F2 		mul	r2, r4, r2
 261 0188 05EB2222 		add	r2, r5, r2, asr #8
 262 018c D2B2     		uxtb	r2, r2
 263              	.L23:
 264 018e 83F84E20 		strb	r2, [r3, #78]
 256:..\..\..\lvgl\version_6.1.2\lvgl\src\lv_core/lv_style.c ****     STYLE_ATTR_MIX(image.opa, ratio);
 265              		.loc 1 256 0
 266 0192 90F84450 		ldrb	r5, [r0, #68]	@ zero_extendqisi2
 267 0196 90F89420 		ldrb	r2, [r0, #148]	@ zero_extendqisi2
 268 019a 9542     		cmp	r5, r2
 269 019c 05D0     		beq	.L24
 270 019e 521B     		subs	r2, r2, r5
 271 01a0 04FB02F2 		mul	r2, r4, r2
 272 01a4 05EB2222 		add	r2, r5, r2, asr #8
 273 01a8 D2B2     		uxtb	r2, r2
 274              	.L24:
 275 01aa 83F84420 		strb	r2, [r3, #68]
 257:..\..\..\lvgl\version_6.1.2\lvgl\src\lv_core/lv_style.c **** 
 276              		.loc 1 257 0
 277 01ae 90F84550 		ldrb	r5, [r0, #69]	@ zero_extendqisi2
 278 01b2 90F89520 		ldrb	r2, [r0, #149]	@ zero_extendqisi2
 279 01b6 9542     		cmp	r5, r2
 280 01b8 05D0     		beq	.L25
 281 01ba 521B     		subs	r2, r2, r5
 282 01bc 04FB02F2 		mul	r2, r4, r2
 283 01c0 05EB2222 		add	r2, r5, r2, asr #8
 284 01c4 D2B2     		uxtb	r2, r2
 285              	.L25:
 259:..\..\..\lvgl\version_6.1.2\lvgl\src\lv_core/lv_style.c **** 
 286              		.loc 1 259 0
 287 01c6 B4F5807F 		cmp	r4, #256
 288 01ca 83F84520 		strb	r2, [r3, #69]
 289 01ce 00F03781 		beq	.L29
 290 01d2 C9B2     		uxtb	r1, r1
 291              	.LVL8:
 292 01d4 C1F1FF02 		rsb	r2, r1, #255
 293 01d8 92B2     		uxth	r2, r2
 294 01da 89B2     		uxth	r1, r1
 295              	.L26:
 296              	.LBB152:
 297              	.LBB153:
 298              		.file 2 "..\\..\\..\\lvgl\\version_6.1.2\\lvgl\\src\\lv_core\\../lv_misc/lv_color.h"
   1:..\..\..\lvgl\version_6.1.2\lvgl\src\lv_core\../lv_misc/lv_color.h **** /**
   2:..\..\..\lvgl\version_6.1.2\lvgl\src\lv_core\../lv_misc/lv_color.h ****  * @file lv_color.h
   3:..\..\..\lvgl\version_6.1.2\lvgl\src\lv_core\../lv_misc/lv_color.h ****  *
   4:..\..\..\lvgl\version_6.1.2\lvgl\src\lv_core\../lv_misc/lv_color.h ****  */
   5:..\..\..\lvgl\version_6.1.2\lvgl\src\lv_core\../lv_misc/lv_color.h **** 
   6:..\..\..\lvgl\version_6.1.2\lvgl\src\lv_core\../lv_misc/lv_color.h **** #ifndef LV_COLOR_H
   7:..\..\..\lvgl\version_6.1.2\lvgl\src\lv_core\../lv_misc/lv_color.h **** #define LV_COLOR_H
   8:..\..\..\lvgl\version_6.1.2\lvgl\src\lv_core\../lv_misc/lv_color.h **** 
   9:..\..\..\lvgl\version_6.1.2\lvgl\src\lv_core\../lv_misc/lv_color.h **** #ifdef __cplusplus
  10:..\..\..\lvgl\version_6.1.2\lvgl\src\lv_core\../lv_misc/lv_color.h **** extern "C" {
  11:..\..\..\lvgl\version_6.1.2\lvgl\src\lv_core\../lv_misc/lv_color.h **** #endif
ARM GAS  C:\Users\pearlstl\AppData\Local\Temp\ccvteysW.s 			page 13


  12:..\..\..\lvgl\version_6.1.2\lvgl\src\lv_core\../lv_misc/lv_color.h **** 
  13:..\..\..\lvgl\version_6.1.2\lvgl\src\lv_core\../lv_misc/lv_color.h **** /*********************
  14:..\..\..\lvgl\version_6.1.2\lvgl\src\lv_core\../lv_misc/lv_color.h ****  *      INCLUDES
  15:..\..\..\lvgl\version_6.1.2\lvgl\src\lv_core\../lv_misc/lv_color.h ****  *********************/
  16:..\..\..\lvgl\version_6.1.2\lvgl\src\lv_core\../lv_misc/lv_color.h **** #ifdef LV_CONF_INCLUDE_SIMPLE
  17:..\..\..\lvgl\version_6.1.2\lvgl\src\lv_core\../lv_misc/lv_color.h **** #include "lv_conf.h"
  18:..\..\..\lvgl\version_6.1.2\lvgl\src\lv_core\../lv_misc/lv_color.h **** #else
  19:..\..\..\lvgl\version_6.1.2\lvgl\src\lv_core\../lv_misc/lv_color.h **** #include "../../../lv_conf.h"
  20:..\..\..\lvgl\version_6.1.2\lvgl\src\lv_core\../lv_misc/lv_color.h **** #endif
  21:..\..\..\lvgl\version_6.1.2\lvgl\src\lv_core\../lv_misc/lv_color.h **** 
  22:..\..\..\lvgl\version_6.1.2\lvgl\src\lv_core\../lv_misc/lv_color.h **** /*Error checking*/
  23:..\..\..\lvgl\version_6.1.2\lvgl\src\lv_core\../lv_misc/lv_color.h **** #if LV_COLOR_DEPTH == 24
  24:..\..\..\lvgl\version_6.1.2\lvgl\src\lv_core\../lv_misc/lv_color.h **** #error "LV_COLOR_DEPTH  24 is deprecated. Use LV_COLOR_DEPTH  32 instead (lv_conf.h)"
  25:..\..\..\lvgl\version_6.1.2\lvgl\src\lv_core\../lv_misc/lv_color.h **** #endif
  26:..\..\..\lvgl\version_6.1.2\lvgl\src\lv_core\../lv_misc/lv_color.h **** 
  27:..\..\..\lvgl\version_6.1.2\lvgl\src\lv_core\../lv_misc/lv_color.h **** #if LV_COLOR_DEPTH != 32 && LV_COLOR_SCREEN_TRANSP != 0
  28:..\..\..\lvgl\version_6.1.2\lvgl\src\lv_core\../lv_misc/lv_color.h **** #error "LV_COLOR_SCREEN_TRANSP requires LV_COLOR_DEPTH == 32. Set it in lv_conf.h"
  29:..\..\..\lvgl\version_6.1.2\lvgl\src\lv_core\../lv_misc/lv_color.h **** #endif
  30:..\..\..\lvgl\version_6.1.2\lvgl\src\lv_core\../lv_misc/lv_color.h **** 
  31:..\..\..\lvgl\version_6.1.2\lvgl\src\lv_core\../lv_misc/lv_color.h **** #if LV_COLOR_DEPTH != 16 && LV_COLOR_16_SWAP != 0
  32:..\..\..\lvgl\version_6.1.2\lvgl\src\lv_core\../lv_misc/lv_color.h **** #error "LV_COLOR_16_SWAP requires LV_COLOR_DEPTH == 16. Set it in lv_conf.h"
  33:..\..\..\lvgl\version_6.1.2\lvgl\src\lv_core\../lv_misc/lv_color.h **** #endif
  34:..\..\..\lvgl\version_6.1.2\lvgl\src\lv_core\../lv_misc/lv_color.h **** 
  35:..\..\..\lvgl\version_6.1.2\lvgl\src\lv_core\../lv_misc/lv_color.h **** #include <stdint.h>
  36:..\..\..\lvgl\version_6.1.2\lvgl\src\lv_core\../lv_misc/lv_color.h **** 
  37:..\..\..\lvgl\version_6.1.2\lvgl\src\lv_core\../lv_misc/lv_color.h **** /*********************
  38:..\..\..\lvgl\version_6.1.2\lvgl\src\lv_core\../lv_misc/lv_color.h ****  *      DEFINES
  39:..\..\..\lvgl\version_6.1.2\lvgl\src\lv_core\../lv_misc/lv_color.h ****  *********************/
  40:..\..\..\lvgl\version_6.1.2\lvgl\src\lv_core\../lv_misc/lv_color.h **** #define LV_COLOR_WHITE LV_COLOR_MAKE(0xFF, 0xFF, 0xFF)
  41:..\..\..\lvgl\version_6.1.2\lvgl\src\lv_core\../lv_misc/lv_color.h **** #define LV_COLOR_SILVER LV_COLOR_MAKE(0xC0, 0xC0, 0xC0)
  42:..\..\..\lvgl\version_6.1.2\lvgl\src\lv_core\../lv_misc/lv_color.h **** #define LV_COLOR_GRAY LV_COLOR_MAKE(0x80, 0x80, 0x80)
  43:..\..\..\lvgl\version_6.1.2\lvgl\src\lv_core\../lv_misc/lv_color.h **** #define LV_COLOR_BLACK LV_COLOR_MAKE(0x00, 0x00, 0x00)
  44:..\..\..\lvgl\version_6.1.2\lvgl\src\lv_core\../lv_misc/lv_color.h **** #define LV_COLOR_RED LV_COLOR_MAKE(0xFF, 0x00, 0x00)
  45:..\..\..\lvgl\version_6.1.2\lvgl\src\lv_core\../lv_misc/lv_color.h **** #define LV_COLOR_MAROON LV_COLOR_MAKE(0x80, 0x00, 0x00)
  46:..\..\..\lvgl\version_6.1.2\lvgl\src\lv_core\../lv_misc/lv_color.h **** #define LV_COLOR_YELLOW LV_COLOR_MAKE(0xFF, 0xFF, 0x00)
  47:..\..\..\lvgl\version_6.1.2\lvgl\src\lv_core\../lv_misc/lv_color.h **** #define LV_COLOR_OLIVE LV_COLOR_MAKE(0x80, 0x80, 0x00)
  48:..\..\..\lvgl\version_6.1.2\lvgl\src\lv_core\../lv_misc/lv_color.h **** #define LV_COLOR_LIME LV_COLOR_MAKE(0x00, 0xFF, 0x00)
  49:..\..\..\lvgl\version_6.1.2\lvgl\src\lv_core\../lv_misc/lv_color.h **** #define LV_COLOR_GREEN LV_COLOR_MAKE(0x00, 0x80, 0x00)
  50:..\..\..\lvgl\version_6.1.2\lvgl\src\lv_core\../lv_misc/lv_color.h **** #define LV_COLOR_CYAN LV_COLOR_MAKE(0x00, 0xFF, 0xFF)
  51:..\..\..\lvgl\version_6.1.2\lvgl\src\lv_core\../lv_misc/lv_color.h **** #define LV_COLOR_AQUA LV_COLOR_CYAN
  52:..\..\..\lvgl\version_6.1.2\lvgl\src\lv_core\../lv_misc/lv_color.h **** #define LV_COLOR_TEAL LV_COLOR_MAKE(0x00, 0x80, 0x80)
  53:..\..\..\lvgl\version_6.1.2\lvgl\src\lv_core\../lv_misc/lv_color.h **** #define LV_COLOR_BLUE LV_COLOR_MAKE(0x00, 0x00, 0xFF)
  54:..\..\..\lvgl\version_6.1.2\lvgl\src\lv_core\../lv_misc/lv_color.h **** #define LV_COLOR_NAVY LV_COLOR_MAKE(0x00, 0x00, 0x80)
  55:..\..\..\lvgl\version_6.1.2\lvgl\src\lv_core\../lv_misc/lv_color.h **** #define LV_COLOR_MAGENTA LV_COLOR_MAKE(0xFF, 0x00, 0xFF)
  56:..\..\..\lvgl\version_6.1.2\lvgl\src\lv_core\../lv_misc/lv_color.h **** #define LV_COLOR_PURPLE LV_COLOR_MAKE(0x80, 0x00, 0x80)
  57:..\..\..\lvgl\version_6.1.2\lvgl\src\lv_core\../lv_misc/lv_color.h **** #define LV_COLOR_ORANGE LV_COLOR_MAKE(0xFF, 0xA5, 0x00)
  58:..\..\..\lvgl\version_6.1.2\lvgl\src\lv_core\../lv_misc/lv_color.h **** 
  59:..\..\..\lvgl\version_6.1.2\lvgl\src\lv_core\../lv_misc/lv_color.h **** /**
  60:..\..\..\lvgl\version_6.1.2\lvgl\src\lv_core\../lv_misc/lv_color.h ****  * Opacity percentages.
  61:..\..\..\lvgl\version_6.1.2\lvgl\src\lv_core\../lv_misc/lv_color.h ****  */
  62:..\..\..\lvgl\version_6.1.2\lvgl\src\lv_core\../lv_misc/lv_color.h **** enum {
  63:..\..\..\lvgl\version_6.1.2\lvgl\src\lv_core\../lv_misc/lv_color.h ****     LV_OPA_TRANSP = 0,
  64:..\..\..\lvgl\version_6.1.2\lvgl\src\lv_core\../lv_misc/lv_color.h ****     LV_OPA_0      = 0,
  65:..\..\..\lvgl\version_6.1.2\lvgl\src\lv_core\../lv_misc/lv_color.h ****     LV_OPA_10     = 25,
  66:..\..\..\lvgl\version_6.1.2\lvgl\src\lv_core\../lv_misc/lv_color.h ****     LV_OPA_20     = 51,
  67:..\..\..\lvgl\version_6.1.2\lvgl\src\lv_core\../lv_misc/lv_color.h ****     LV_OPA_30     = 76,
  68:..\..\..\lvgl\version_6.1.2\lvgl\src\lv_core\../lv_misc/lv_color.h ****     LV_OPA_40     = 102,
ARM GAS  C:\Users\pearlstl\AppData\Local\Temp\ccvteysW.s 			page 14


  69:..\..\..\lvgl\version_6.1.2\lvgl\src\lv_core\../lv_misc/lv_color.h ****     LV_OPA_50     = 127,
  70:..\..\..\lvgl\version_6.1.2\lvgl\src\lv_core\../lv_misc/lv_color.h ****     LV_OPA_60     = 153,
  71:..\..\..\lvgl\version_6.1.2\lvgl\src\lv_core\../lv_misc/lv_color.h ****     LV_OPA_70     = 178,
  72:..\..\..\lvgl\version_6.1.2\lvgl\src\lv_core\../lv_misc/lv_color.h ****     LV_OPA_80     = 204,
  73:..\..\..\lvgl\version_6.1.2\lvgl\src\lv_core\../lv_misc/lv_color.h ****     LV_OPA_90     = 229,
  74:..\..\..\lvgl\version_6.1.2\lvgl\src\lv_core\../lv_misc/lv_color.h ****     LV_OPA_100    = 255,
  75:..\..\..\lvgl\version_6.1.2\lvgl\src\lv_core\../lv_misc/lv_color.h ****     LV_OPA_COVER  = 255,
  76:..\..\..\lvgl\version_6.1.2\lvgl\src\lv_core\../lv_misc/lv_color.h **** };
  77:..\..\..\lvgl\version_6.1.2\lvgl\src\lv_core\../lv_misc/lv_color.h **** 
  78:..\..\..\lvgl\version_6.1.2\lvgl\src\lv_core\../lv_misc/lv_color.h **** #define LV_OPA_MIN 16  /*Opacities below this will be transparent*/
  79:..\..\..\lvgl\version_6.1.2\lvgl\src\lv_core\../lv_misc/lv_color.h **** #define LV_OPA_MAX 251 /*Opacities above this will fully cover*/
  80:..\..\..\lvgl\version_6.1.2\lvgl\src\lv_core\../lv_misc/lv_color.h **** 
  81:..\..\..\lvgl\version_6.1.2\lvgl\src\lv_core\../lv_misc/lv_color.h **** #if LV_COLOR_DEPTH == 1
  82:..\..\..\lvgl\version_6.1.2\lvgl\src\lv_core\../lv_misc/lv_color.h **** #define LV_COLOR_SIZE 8
  83:..\..\..\lvgl\version_6.1.2\lvgl\src\lv_core\../lv_misc/lv_color.h **** #elif LV_COLOR_DEPTH == 8
  84:..\..\..\lvgl\version_6.1.2\lvgl\src\lv_core\../lv_misc/lv_color.h **** #define LV_COLOR_SIZE 8
  85:..\..\..\lvgl\version_6.1.2\lvgl\src\lv_core\../lv_misc/lv_color.h **** #elif LV_COLOR_DEPTH == 16
  86:..\..\..\lvgl\version_6.1.2\lvgl\src\lv_core\../lv_misc/lv_color.h **** #define LV_COLOR_SIZE 16
  87:..\..\..\lvgl\version_6.1.2\lvgl\src\lv_core\../lv_misc/lv_color.h **** #elif LV_COLOR_DEPTH == 32
  88:..\..\..\lvgl\version_6.1.2\lvgl\src\lv_core\../lv_misc/lv_color.h **** #define LV_COLOR_SIZE 32
  89:..\..\..\lvgl\version_6.1.2\lvgl\src\lv_core\../lv_misc/lv_color.h **** #else
  90:..\..\..\lvgl\version_6.1.2\lvgl\src\lv_core\../lv_misc/lv_color.h **** #error "Invalid LV_COLOR_DEPTH in lv_conf.h! Set it to 1, 8, 16 or 32!"
  91:..\..\..\lvgl\version_6.1.2\lvgl\src\lv_core\../lv_misc/lv_color.h **** #endif
  92:..\..\..\lvgl\version_6.1.2\lvgl\src\lv_core\../lv_misc/lv_color.h **** 
  93:..\..\..\lvgl\version_6.1.2\lvgl\src\lv_core\../lv_misc/lv_color.h **** /*---------------------------------------
  94:..\..\..\lvgl\version_6.1.2\lvgl\src\lv_core\../lv_misc/lv_color.h ****  * Macros for all existing  color depths
  95:..\..\..\lvgl\version_6.1.2\lvgl\src\lv_core\../lv_misc/lv_color.h ****  * to set/get values of the color channels
  96:..\..\..\lvgl\version_6.1.2\lvgl\src\lv_core\../lv_misc/lv_color.h ****  *------------------------------------------*/
  97:..\..\..\lvgl\version_6.1.2\lvgl\src\lv_core\../lv_misc/lv_color.h **** # define LV_COLOR_SET_R1(c, v) (c).ch.red = (uint8_t)((v) & 0x1);
  98:..\..\..\lvgl\version_6.1.2\lvgl\src\lv_core\../lv_misc/lv_color.h **** # define LV_COLOR_SET_G1(c, v) (c).ch.green = (uint8_t)((v) & 0x1);
  99:..\..\..\lvgl\version_6.1.2\lvgl\src\lv_core\../lv_misc/lv_color.h **** # define LV_COLOR_SET_B1(c, v) (c).ch.blue = (uint8_t)((v) & 0x1);
 100:..\..\..\lvgl\version_6.1.2\lvgl\src\lv_core\../lv_misc/lv_color.h **** # define LV_COLOR_SET_A1(c, v)
 101:..\..\..\lvgl\version_6.1.2\lvgl\src\lv_core\../lv_misc/lv_color.h **** 
 102:..\..\..\lvgl\version_6.1.2\lvgl\src\lv_core\../lv_misc/lv_color.h **** # define LV_COLOR_GET_R1(c) (c).ch.red
 103:..\..\..\lvgl\version_6.1.2\lvgl\src\lv_core\../lv_misc/lv_color.h **** # define LV_COLOR_GET_G1(c) (c).ch.green
 104:..\..\..\lvgl\version_6.1.2\lvgl\src\lv_core\../lv_misc/lv_color.h **** # define LV_COLOR_GET_B1(c) (c).ch.blue
 105:..\..\..\lvgl\version_6.1.2\lvgl\src\lv_core\../lv_misc/lv_color.h **** # define LV_COLOR_GET_A1(c) 1
 106:..\..\..\lvgl\version_6.1.2\lvgl\src\lv_core\../lv_misc/lv_color.h **** 
 107:..\..\..\lvgl\version_6.1.2\lvgl\src\lv_core\../lv_misc/lv_color.h **** # define LV_COLOR_SET_R8(c, v) (c).ch.red = (uint8_t)(v) & 0x7U;
 108:..\..\..\lvgl\version_6.1.2\lvgl\src\lv_core\../lv_misc/lv_color.h **** # define LV_COLOR_SET_G8(c, v) (c).ch.green = (uint8_t)(v) & 0x7U;
 109:..\..\..\lvgl\version_6.1.2\lvgl\src\lv_core\../lv_misc/lv_color.h **** # define LV_COLOR_SET_B8(c, v) (c).ch.blue = (uint8_t)(v) & 0x3U;
 110:..\..\..\lvgl\version_6.1.2\lvgl\src\lv_core\../lv_misc/lv_color.h **** # define LV_COLOR_SET_A8(c, v) do {} while(0)
 111:..\..\..\lvgl\version_6.1.2\lvgl\src\lv_core\../lv_misc/lv_color.h **** 
 112:..\..\..\lvgl\version_6.1.2\lvgl\src\lv_core\../lv_misc/lv_color.h **** # define LV_COLOR_GET_R8(c) (c).ch.red
 113:..\..\..\lvgl\version_6.1.2\lvgl\src\lv_core\../lv_misc/lv_color.h **** # define LV_COLOR_GET_G8(c) (c).ch.green
 114:..\..\..\lvgl\version_6.1.2\lvgl\src\lv_core\../lv_misc/lv_color.h **** # define LV_COLOR_GET_B8(c) (c).ch.blue
 115:..\..\..\lvgl\version_6.1.2\lvgl\src\lv_core\../lv_misc/lv_color.h **** # define LV_COLOR_GET_A8(c) 0xFF
 116:..\..\..\lvgl\version_6.1.2\lvgl\src\lv_core\../lv_misc/lv_color.h **** 
 117:..\..\..\lvgl\version_6.1.2\lvgl\src\lv_core\../lv_misc/lv_color.h **** # define LV_COLOR_SET_R16(c, v) (c).ch.red = (uint8_t)(v) & 0x1FU;
 118:..\..\..\lvgl\version_6.1.2\lvgl\src\lv_core\../lv_misc/lv_color.h **** # define LV_COLOR_SET_G16(c, v) (c).ch.green = (uint8_t)(v) & 0x3FU;
 119:..\..\..\lvgl\version_6.1.2\lvgl\src\lv_core\../lv_misc/lv_color.h **** # define LV_COLOR_SET_G16_SWAP(c, v) {(c).ch.green_h = (uint8_t)(((v) >> 3) & 0x7); (c).ch.green_l 
 120:..\..\..\lvgl\version_6.1.2\lvgl\src\lv_core\../lv_misc/lv_color.h **** # define LV_COLOR_SET_B16(c, v) (c).ch.blue = (uint8_t)(v) & 0x1FU;
 121:..\..\..\lvgl\version_6.1.2\lvgl\src\lv_core\../lv_misc/lv_color.h **** # define LV_COLOR_SET_A16(c, v) do {} while(0)
 122:..\..\..\lvgl\version_6.1.2\lvgl\src\lv_core\../lv_misc/lv_color.h **** 
 123:..\..\..\lvgl\version_6.1.2\lvgl\src\lv_core\../lv_misc/lv_color.h **** # define LV_COLOR_GET_R16(c) (c).ch.red
 124:..\..\..\lvgl\version_6.1.2\lvgl\src\lv_core\../lv_misc/lv_color.h **** # define LV_COLOR_GET_G16(c) (c).ch.green
 125:..\..\..\lvgl\version_6.1.2\lvgl\src\lv_core\../lv_misc/lv_color.h **** # define LV_COLOR_GET_G16_SWAP(c) (((c).ch.green_h << 3) + (c).ch.green_l)
ARM GAS  C:\Users\pearlstl\AppData\Local\Temp\ccvteysW.s 			page 15


 126:..\..\..\lvgl\version_6.1.2\lvgl\src\lv_core\../lv_misc/lv_color.h **** # define LV_COLOR_GET_B16(c) (c).ch.blue
 127:..\..\..\lvgl\version_6.1.2\lvgl\src\lv_core\../lv_misc/lv_color.h **** # define LV_COLOR_GET_A16(c) 0xFF
 128:..\..\..\lvgl\version_6.1.2\lvgl\src\lv_core\../lv_misc/lv_color.h **** 
 129:..\..\..\lvgl\version_6.1.2\lvgl\src\lv_core\../lv_misc/lv_color.h **** # define LV_COLOR_SET_R32(c, v) (c).ch.red = (uint32_t)((v) & 0xFF);
 130:..\..\..\lvgl\version_6.1.2\lvgl\src\lv_core\../lv_misc/lv_color.h **** # define LV_COLOR_SET_G32(c, v) (c).ch.green = (uint32_t)((v) & 0xFF);
 131:..\..\..\lvgl\version_6.1.2\lvgl\src\lv_core\../lv_misc/lv_color.h **** # define LV_COLOR_SET_B32(c, v) (c).ch.blue = (uint32_t)((v) & 0xFF);
 132:..\..\..\lvgl\version_6.1.2\lvgl\src\lv_core\../lv_misc/lv_color.h **** # define LV_COLOR_SET_A32(c, v) (c).ch.alpha = (uint32_t)((v) & 0xFF);
 133:..\..\..\lvgl\version_6.1.2\lvgl\src\lv_core\../lv_misc/lv_color.h **** 
 134:..\..\..\lvgl\version_6.1.2\lvgl\src\lv_core\../lv_misc/lv_color.h **** # define LV_COLOR_GET_R32(c) (c).ch.red
 135:..\..\..\lvgl\version_6.1.2\lvgl\src\lv_core\../lv_misc/lv_color.h **** # define LV_COLOR_GET_G32(c) (c).ch.green
 136:..\..\..\lvgl\version_6.1.2\lvgl\src\lv_core\../lv_misc/lv_color.h **** # define LV_COLOR_GET_B32(c) (c).ch.blue
 137:..\..\..\lvgl\version_6.1.2\lvgl\src\lv_core\../lv_misc/lv_color.h **** # define LV_COLOR_GET_A32(c) (c).ch.alpha
 138:..\..\..\lvgl\version_6.1.2\lvgl\src\lv_core\../lv_misc/lv_color.h **** 
 139:..\..\..\lvgl\version_6.1.2\lvgl\src\lv_core\../lv_misc/lv_color.h **** 
 140:..\..\..\lvgl\version_6.1.2\lvgl\src\lv_core\../lv_misc/lv_color.h **** /*---------------------------------------
 141:..\..\..\lvgl\version_6.1.2\lvgl\src\lv_core\../lv_misc/lv_color.h ****  * Macros for the current color depth
 142:..\..\..\lvgl\version_6.1.2\lvgl\src\lv_core\../lv_misc/lv_color.h ****  * to set/get values of the color channels
 143:..\..\..\lvgl\version_6.1.2\lvgl\src\lv_core\../lv_misc/lv_color.h ****  *------------------------------------------*/
 144:..\..\..\lvgl\version_6.1.2\lvgl\src\lv_core\../lv_misc/lv_color.h **** #if LV_COLOR_DEPTH == 1
 145:..\..\..\lvgl\version_6.1.2\lvgl\src\lv_core\../lv_misc/lv_color.h **** # define LV_COLOR_SET_R(c, v) LV_COLOR_SET_R1(c,v)
 146:..\..\..\lvgl\version_6.1.2\lvgl\src\lv_core\../lv_misc/lv_color.h **** # define LV_COLOR_SET_G(c, v) LV_COLOR_SET_G1(c,v)
 147:..\..\..\lvgl\version_6.1.2\lvgl\src\lv_core\../lv_misc/lv_color.h **** # define LV_COLOR_SET_B(c, v) LV_COLOR_SET_B1(c,v)
 148:..\..\..\lvgl\version_6.1.2\lvgl\src\lv_core\../lv_misc/lv_color.h **** # define LV_COLOR_SET_A(c, v) LV_COLOR_SET_A1(c,v)
 149:..\..\..\lvgl\version_6.1.2\lvgl\src\lv_core\../lv_misc/lv_color.h **** 
 150:..\..\..\lvgl\version_6.1.2\lvgl\src\lv_core\../lv_misc/lv_color.h **** # define LV_COLOR_GET_R(c) LV_COLOR_GET_R1(c)
 151:..\..\..\lvgl\version_6.1.2\lvgl\src\lv_core\../lv_misc/lv_color.h **** # define LV_COLOR_GET_G(c) LV_COLOR_GET_G1(c)
 152:..\..\..\lvgl\version_6.1.2\lvgl\src\lv_core\../lv_misc/lv_color.h **** # define LV_COLOR_GET_B(c) LV_COLOR_GET_B1(c)
 153:..\..\..\lvgl\version_6.1.2\lvgl\src\lv_core\../lv_misc/lv_color.h **** # define LV_COLOR_GET_A(c) LV_COLOR_GET_A1(c)
 154:..\..\..\lvgl\version_6.1.2\lvgl\src\lv_core\../lv_misc/lv_color.h **** 
 155:..\..\..\lvgl\version_6.1.2\lvgl\src\lv_core\../lv_misc/lv_color.h **** #elif LV_COLOR_DEPTH == 8
 156:..\..\..\lvgl\version_6.1.2\lvgl\src\lv_core\../lv_misc/lv_color.h **** # define LV_COLOR_SET_R(c, v) LV_COLOR_SET_R8(c,v)
 157:..\..\..\lvgl\version_6.1.2\lvgl\src\lv_core\../lv_misc/lv_color.h **** # define LV_COLOR_SET_G(c, v) LV_COLOR_SET_G8(c,v)
 158:..\..\..\lvgl\version_6.1.2\lvgl\src\lv_core\../lv_misc/lv_color.h **** # define LV_COLOR_SET_B(c, v) LV_COLOR_SET_B8(c,v)
 159:..\..\..\lvgl\version_6.1.2\lvgl\src\lv_core\../lv_misc/lv_color.h **** # define LV_COLOR_SET_A(c, v) LV_COLOR_SET_A8(c,v)
 160:..\..\..\lvgl\version_6.1.2\lvgl\src\lv_core\../lv_misc/lv_color.h **** 
 161:..\..\..\lvgl\version_6.1.2\lvgl\src\lv_core\../lv_misc/lv_color.h **** # define LV_COLOR_GET_R(c) LV_COLOR_GET_R8(c)
 162:..\..\..\lvgl\version_6.1.2\lvgl\src\lv_core\../lv_misc/lv_color.h **** # define LV_COLOR_GET_G(c) LV_COLOR_GET_G8(c)
 163:..\..\..\lvgl\version_6.1.2\lvgl\src\lv_core\../lv_misc/lv_color.h **** # define LV_COLOR_GET_B(c) LV_COLOR_GET_B8(c)
 164:..\..\..\lvgl\version_6.1.2\lvgl\src\lv_core\../lv_misc/lv_color.h **** # define LV_COLOR_GET_A(c) LV_COLOR_GET_A8(c)
 165:..\..\..\lvgl\version_6.1.2\lvgl\src\lv_core\../lv_misc/lv_color.h **** 
 166:..\..\..\lvgl\version_6.1.2\lvgl\src\lv_core\../lv_misc/lv_color.h **** #elif LV_COLOR_DEPTH == 16
 167:..\..\..\lvgl\version_6.1.2\lvgl\src\lv_core\../lv_misc/lv_color.h **** # define LV_COLOR_SET_R(c, v) LV_COLOR_SET_R16(c,v)
 168:..\..\..\lvgl\version_6.1.2\lvgl\src\lv_core\../lv_misc/lv_color.h **** # if LV_COLOR_16_SWAP == 0
 169:..\..\..\lvgl\version_6.1.2\lvgl\src\lv_core\../lv_misc/lv_color.h **** #   define LV_COLOR_SET_G(c, v) LV_COLOR_SET_G16(c,v)
 170:..\..\..\lvgl\version_6.1.2\lvgl\src\lv_core\../lv_misc/lv_color.h **** # else
 171:..\..\..\lvgl\version_6.1.2\lvgl\src\lv_core\../lv_misc/lv_color.h **** #   define LV_COLOR_SET_G(c, v) LV_COLOR_SET_G16_SWAP(c,v)
 172:..\..\..\lvgl\version_6.1.2\lvgl\src\lv_core\../lv_misc/lv_color.h **** # endif
 173:..\..\..\lvgl\version_6.1.2\lvgl\src\lv_core\../lv_misc/lv_color.h **** # define LV_COLOR_SET_B(c, v) LV_COLOR_SET_B16(c,v)
 174:..\..\..\lvgl\version_6.1.2\lvgl\src\lv_core\../lv_misc/lv_color.h **** # define LV_COLOR_SET_A(c, v) LV_COLOR_SET_A16(c,v)
 175:..\..\..\lvgl\version_6.1.2\lvgl\src\lv_core\../lv_misc/lv_color.h **** 
 176:..\..\..\lvgl\version_6.1.2\lvgl\src\lv_core\../lv_misc/lv_color.h **** # define LV_COLOR_GET_R(c) LV_COLOR_GET_R16(c)
 177:..\..\..\lvgl\version_6.1.2\lvgl\src\lv_core\../lv_misc/lv_color.h **** # if LV_COLOR_16_SWAP == 0
 178:..\..\..\lvgl\version_6.1.2\lvgl\src\lv_core\../lv_misc/lv_color.h **** #   define LV_COLOR_GET_G(c) LV_COLOR_GET_G16(c)
 179:..\..\..\lvgl\version_6.1.2\lvgl\src\lv_core\../lv_misc/lv_color.h **** # else
 180:..\..\..\lvgl\version_6.1.2\lvgl\src\lv_core\../lv_misc/lv_color.h **** #   define LV_COLOR_GET_G(c) LV_COLOR_GET_G16_SWAP(c)
 181:..\..\..\lvgl\version_6.1.2\lvgl\src\lv_core\../lv_misc/lv_color.h **** # endif
 182:..\..\..\lvgl\version_6.1.2\lvgl\src\lv_core\../lv_misc/lv_color.h **** # define LV_COLOR_GET_B(c)   LV_COLOR_GET_B16(c)
ARM GAS  C:\Users\pearlstl\AppData\Local\Temp\ccvteysW.s 			page 16


 183:..\..\..\lvgl\version_6.1.2\lvgl\src\lv_core\../lv_misc/lv_color.h **** # define LV_COLOR_GET_A(c)   LV_COLOR_GET_A16(c)
 184:..\..\..\lvgl\version_6.1.2\lvgl\src\lv_core\../lv_misc/lv_color.h **** 
 185:..\..\..\lvgl\version_6.1.2\lvgl\src\lv_core\../lv_misc/lv_color.h **** #elif LV_COLOR_DEPTH == 32
 186:..\..\..\lvgl\version_6.1.2\lvgl\src\lv_core\../lv_misc/lv_color.h **** # define LV_COLOR_SET_R(c, v) LV_COLOR_SET_R32(c,v)
 187:..\..\..\lvgl\version_6.1.2\lvgl\src\lv_core\../lv_misc/lv_color.h **** # define LV_COLOR_SET_G(c, v) LV_COLOR_SET_G32(c,v)
 188:..\..\..\lvgl\version_6.1.2\lvgl\src\lv_core\../lv_misc/lv_color.h **** # define LV_COLOR_SET_B(c, v) LV_COLOR_SET_B32(c,v)
 189:..\..\..\lvgl\version_6.1.2\lvgl\src\lv_core\../lv_misc/lv_color.h **** # define LV_COLOR_SET_A(c, v) LV_COLOR_SET_A32(c,v)
 190:..\..\..\lvgl\version_6.1.2\lvgl\src\lv_core\../lv_misc/lv_color.h **** 
 191:..\..\..\lvgl\version_6.1.2\lvgl\src\lv_core\../lv_misc/lv_color.h **** # define LV_COLOR_GET_R(c) LV_COLOR_GET_R32(c)
 192:..\..\..\lvgl\version_6.1.2\lvgl\src\lv_core\../lv_misc/lv_color.h **** # define LV_COLOR_GET_G(c) LV_COLOR_GET_G32(c)
 193:..\..\..\lvgl\version_6.1.2\lvgl\src\lv_core\../lv_misc/lv_color.h **** # define LV_COLOR_GET_B(c) LV_COLOR_GET_B32(c)
 194:..\..\..\lvgl\version_6.1.2\lvgl\src\lv_core\../lv_misc/lv_color.h **** # define LV_COLOR_GET_A(c) LV_COLOR_GET_A32(c)
 195:..\..\..\lvgl\version_6.1.2\lvgl\src\lv_core\../lv_misc/lv_color.h **** #endif
 196:..\..\..\lvgl\version_6.1.2\lvgl\src\lv_core\../lv_misc/lv_color.h **** 
 197:..\..\..\lvgl\version_6.1.2\lvgl\src\lv_core\../lv_misc/lv_color.h **** /**********************
 198:..\..\..\lvgl\version_6.1.2\lvgl\src\lv_core\../lv_misc/lv_color.h ****  *      TYPEDEFS
 199:..\..\..\lvgl\version_6.1.2\lvgl\src\lv_core\../lv_misc/lv_color.h ****  **********************/
 200:..\..\..\lvgl\version_6.1.2\lvgl\src\lv_core\../lv_misc/lv_color.h **** 
 201:..\..\..\lvgl\version_6.1.2\lvgl\src\lv_core\../lv_misc/lv_color.h **** typedef union
 202:..\..\..\lvgl\version_6.1.2\lvgl\src\lv_core\../lv_misc/lv_color.h **** {
 203:..\..\..\lvgl\version_6.1.2\lvgl\src\lv_core\../lv_misc/lv_color.h ****     struct
 204:..\..\..\lvgl\version_6.1.2\lvgl\src\lv_core\../lv_misc/lv_color.h ****     {
 205:..\..\..\lvgl\version_6.1.2\lvgl\src\lv_core\../lv_misc/lv_color.h ****         uint8_t blue : 1;
 206:..\..\..\lvgl\version_6.1.2\lvgl\src\lv_core\../lv_misc/lv_color.h ****         uint8_t green : 1;
 207:..\..\..\lvgl\version_6.1.2\lvgl\src\lv_core\../lv_misc/lv_color.h ****         uint8_t red : 1;
 208:..\..\..\lvgl\version_6.1.2\lvgl\src\lv_core\../lv_misc/lv_color.h ****     } ch;
 209:..\..\..\lvgl\version_6.1.2\lvgl\src\lv_core\../lv_misc/lv_color.h ****     uint8_t full;
 210:..\..\..\lvgl\version_6.1.2\lvgl\src\lv_core\../lv_misc/lv_color.h **** } lv_color1_t;
 211:..\..\..\lvgl\version_6.1.2\lvgl\src\lv_core\../lv_misc/lv_color.h **** 
 212:..\..\..\lvgl\version_6.1.2\lvgl\src\lv_core\../lv_misc/lv_color.h **** typedef union
 213:..\..\..\lvgl\version_6.1.2\lvgl\src\lv_core\../lv_misc/lv_color.h **** {
 214:..\..\..\lvgl\version_6.1.2\lvgl\src\lv_core\../lv_misc/lv_color.h ****     struct
 215:..\..\..\lvgl\version_6.1.2\lvgl\src\lv_core\../lv_misc/lv_color.h ****     {
 216:..\..\..\lvgl\version_6.1.2\lvgl\src\lv_core\../lv_misc/lv_color.h ****         uint8_t blue : 2;
 217:..\..\..\lvgl\version_6.1.2\lvgl\src\lv_core\../lv_misc/lv_color.h ****         uint8_t green : 3;
 218:..\..\..\lvgl\version_6.1.2\lvgl\src\lv_core\../lv_misc/lv_color.h ****         uint8_t red : 3;
 219:..\..\..\lvgl\version_6.1.2\lvgl\src\lv_core\../lv_misc/lv_color.h ****     } ch;
 220:..\..\..\lvgl\version_6.1.2\lvgl\src\lv_core\../lv_misc/lv_color.h ****     uint8_t full;
 221:..\..\..\lvgl\version_6.1.2\lvgl\src\lv_core\../lv_misc/lv_color.h **** } lv_color8_t;
 222:..\..\..\lvgl\version_6.1.2\lvgl\src\lv_core\../lv_misc/lv_color.h **** 
 223:..\..\..\lvgl\version_6.1.2\lvgl\src\lv_core\../lv_misc/lv_color.h **** typedef union
 224:..\..\..\lvgl\version_6.1.2\lvgl\src\lv_core\../lv_misc/lv_color.h **** {
 225:..\..\..\lvgl\version_6.1.2\lvgl\src\lv_core\../lv_misc/lv_color.h ****     struct
 226:..\..\..\lvgl\version_6.1.2\lvgl\src\lv_core\../lv_misc/lv_color.h ****     {
 227:..\..\..\lvgl\version_6.1.2\lvgl\src\lv_core\../lv_misc/lv_color.h **** #if LV_COLOR_16_SWAP == 0
 228:..\..\..\lvgl\version_6.1.2\lvgl\src\lv_core\../lv_misc/lv_color.h ****         uint16_t blue : 5;
 229:..\..\..\lvgl\version_6.1.2\lvgl\src\lv_core\../lv_misc/lv_color.h ****         uint16_t green : 6;
 230:..\..\..\lvgl\version_6.1.2\lvgl\src\lv_core\../lv_misc/lv_color.h ****         uint16_t red : 5;
 231:..\..\..\lvgl\version_6.1.2\lvgl\src\lv_core\../lv_misc/lv_color.h **** #else
 232:..\..\..\lvgl\version_6.1.2\lvgl\src\lv_core\../lv_misc/lv_color.h ****         uint16_t green_h : 3;
 233:..\..\..\lvgl\version_6.1.2\lvgl\src\lv_core\../lv_misc/lv_color.h ****         uint16_t red : 5;
 234:..\..\..\lvgl\version_6.1.2\lvgl\src\lv_core\../lv_misc/lv_color.h ****         uint16_t blue : 5;
 235:..\..\..\lvgl\version_6.1.2\lvgl\src\lv_core\../lv_misc/lv_color.h ****         uint16_t green_l : 3;
 236:..\..\..\lvgl\version_6.1.2\lvgl\src\lv_core\../lv_misc/lv_color.h **** #endif
 237:..\..\..\lvgl\version_6.1.2\lvgl\src\lv_core\../lv_misc/lv_color.h ****     } ch;
 238:..\..\..\lvgl\version_6.1.2\lvgl\src\lv_core\../lv_misc/lv_color.h ****     uint16_t full;
 239:..\..\..\lvgl\version_6.1.2\lvgl\src\lv_core\../lv_misc/lv_color.h **** } lv_color16_t;
ARM GAS  C:\Users\pearlstl\AppData\Local\Temp\ccvteysW.s 			page 17


 240:..\..\..\lvgl\version_6.1.2\lvgl\src\lv_core\../lv_misc/lv_color.h **** 
 241:..\..\..\lvgl\version_6.1.2\lvgl\src\lv_core\../lv_misc/lv_color.h **** typedef union
 242:..\..\..\lvgl\version_6.1.2\lvgl\src\lv_core\../lv_misc/lv_color.h **** {
 243:..\..\..\lvgl\version_6.1.2\lvgl\src\lv_core\../lv_misc/lv_color.h ****     struct
 244:..\..\..\lvgl\version_6.1.2\lvgl\src\lv_core\../lv_misc/lv_color.h ****     {
 245:..\..\..\lvgl\version_6.1.2\lvgl\src\lv_core\../lv_misc/lv_color.h ****         uint8_t blue;
 246:..\..\..\lvgl\version_6.1.2\lvgl\src\lv_core\../lv_misc/lv_color.h ****         uint8_t green;
 247:..\..\..\lvgl\version_6.1.2\lvgl\src\lv_core\../lv_misc/lv_color.h ****         uint8_t red;
 248:..\..\..\lvgl\version_6.1.2\lvgl\src\lv_core\../lv_misc/lv_color.h ****         uint8_t alpha;
 249:..\..\..\lvgl\version_6.1.2\lvgl\src\lv_core\../lv_misc/lv_color.h ****     } ch;
 250:..\..\..\lvgl\version_6.1.2\lvgl\src\lv_core\../lv_misc/lv_color.h ****     uint32_t full;
 251:..\..\..\lvgl\version_6.1.2\lvgl\src\lv_core\../lv_misc/lv_color.h **** } lv_color32_t;
 252:..\..\..\lvgl\version_6.1.2\lvgl\src\lv_core\../lv_misc/lv_color.h **** 
 253:..\..\..\lvgl\version_6.1.2\lvgl\src\lv_core\../lv_misc/lv_color.h **** #if LV_COLOR_DEPTH == 1
 254:..\..\..\lvgl\version_6.1.2\lvgl\src\lv_core\../lv_misc/lv_color.h **** typedef uint8_t lv_color_int_t;
 255:..\..\..\lvgl\version_6.1.2\lvgl\src\lv_core\../lv_misc/lv_color.h **** typedef lv_color1_t lv_color_t;
 256:..\..\..\lvgl\version_6.1.2\lvgl\src\lv_core\../lv_misc/lv_color.h **** #elif LV_COLOR_DEPTH == 8
 257:..\..\..\lvgl\version_6.1.2\lvgl\src\lv_core\../lv_misc/lv_color.h **** typedef uint8_t lv_color_int_t;
 258:..\..\..\lvgl\version_6.1.2\lvgl\src\lv_core\../lv_misc/lv_color.h **** typedef lv_color8_t lv_color_t;
 259:..\..\..\lvgl\version_6.1.2\lvgl\src\lv_core\../lv_misc/lv_color.h **** #elif LV_COLOR_DEPTH == 16
 260:..\..\..\lvgl\version_6.1.2\lvgl\src\lv_core\../lv_misc/lv_color.h **** typedef uint16_t lv_color_int_t;
 261:..\..\..\lvgl\version_6.1.2\lvgl\src\lv_core\../lv_misc/lv_color.h **** typedef lv_color16_t lv_color_t;
 262:..\..\..\lvgl\version_6.1.2\lvgl\src\lv_core\../lv_misc/lv_color.h **** #elif LV_COLOR_DEPTH == 32
 263:..\..\..\lvgl\version_6.1.2\lvgl\src\lv_core\../lv_misc/lv_color.h **** typedef uint32_t lv_color_int_t;
 264:..\..\..\lvgl\version_6.1.2\lvgl\src\lv_core\../lv_misc/lv_color.h **** typedef lv_color32_t lv_color_t;
 265:..\..\..\lvgl\version_6.1.2\lvgl\src\lv_core\../lv_misc/lv_color.h **** #else
 266:..\..\..\lvgl\version_6.1.2\lvgl\src\lv_core\../lv_misc/lv_color.h **** #error "Invalid LV_COLOR_DEPTH in lv_conf.h! Set it to 1, 8, 16 or 32!"
 267:..\..\..\lvgl\version_6.1.2\lvgl\src\lv_core\../lv_misc/lv_color.h **** #endif
 268:..\..\..\lvgl\version_6.1.2\lvgl\src\lv_core\../lv_misc/lv_color.h **** 
 269:..\..\..\lvgl\version_6.1.2\lvgl\src\lv_core\../lv_misc/lv_color.h **** typedef uint8_t lv_opa_t;
 270:..\..\..\lvgl\version_6.1.2\lvgl\src\lv_core\../lv_misc/lv_color.h **** 
 271:..\..\..\lvgl\version_6.1.2\lvgl\src\lv_core\../lv_misc/lv_color.h **** typedef struct
 272:..\..\..\lvgl\version_6.1.2\lvgl\src\lv_core\../lv_misc/lv_color.h **** {
 273:..\..\..\lvgl\version_6.1.2\lvgl\src\lv_core\../lv_misc/lv_color.h ****     uint16_t h;
 274:..\..\..\lvgl\version_6.1.2\lvgl\src\lv_core\../lv_misc/lv_color.h ****     uint8_t s;
 275:..\..\..\lvgl\version_6.1.2\lvgl\src\lv_core\../lv_misc/lv_color.h ****     uint8_t v;
 276:..\..\..\lvgl\version_6.1.2\lvgl\src\lv_core\../lv_misc/lv_color.h **** } lv_color_hsv_t;
 277:..\..\..\lvgl\version_6.1.2\lvgl\src\lv_core\../lv_misc/lv_color.h **** 
 278:..\..\..\lvgl\version_6.1.2\lvgl\src\lv_core\../lv_misc/lv_color.h **** /**********************
 279:..\..\..\lvgl\version_6.1.2\lvgl\src\lv_core\../lv_misc/lv_color.h ****  * GLOBAL PROTOTYPES
 280:..\..\..\lvgl\version_6.1.2\lvgl\src\lv_core\../lv_misc/lv_color.h ****  **********************/
 281:..\..\..\lvgl\version_6.1.2\lvgl\src\lv_core\../lv_misc/lv_color.h **** 
 282:..\..\..\lvgl\version_6.1.2\lvgl\src\lv_core\../lv_misc/lv_color.h **** /*In color conversations:
 283:..\..\..\lvgl\version_6.1.2\lvgl\src\lv_core\../lv_misc/lv_color.h ****  * - When converting to bigger color type the LSB weight of 1 LSB is calculated
 284:..\..\..\lvgl\version_6.1.2\lvgl\src\lv_core\../lv_misc/lv_color.h ****  *   E.g. 16 bit Red has 5 bits
 285:..\..\..\lvgl\version_6.1.2\lvgl\src\lv_core\../lv_misc/lv_color.h ****  *         8 bit Red has 2 bits
 286:..\..\..\lvgl\version_6.1.2\lvgl\src\lv_core\../lv_misc/lv_color.h ****  *        ----------------------
 287:..\..\..\lvgl\version_6.1.2\lvgl\src\lv_core\../lv_misc/lv_color.h ****  *        8 bit red LSB = (2^5 - 1) / (2^2 - 1) = 31 / 3 = 10
 288:..\..\..\lvgl\version_6.1.2\lvgl\src\lv_core\../lv_misc/lv_color.h ****  *
 289:..\..\..\lvgl\version_6.1.2\lvgl\src\lv_core\../lv_misc/lv_color.h ****  * - When calculating to smaller color type simply shift out the LSBs
 290:..\..\..\lvgl\version_6.1.2\lvgl\src\lv_core\../lv_misc/lv_color.h ****  *   E.g.  8 bit Red has 2 bits
 291:..\..\..\lvgl\version_6.1.2\lvgl\src\lv_core\../lv_misc/lv_color.h ****  *        16 bit Red has 5 bits
 292:..\..\..\lvgl\version_6.1.2\lvgl\src\lv_core\../lv_misc/lv_color.h ****  *        ----------------------
 293:..\..\..\lvgl\version_6.1.2\lvgl\src\lv_core\../lv_misc/lv_color.h ****  *         Shift right with 5 - 3 = 2
 294:..\..\..\lvgl\version_6.1.2\lvgl\src\lv_core\../lv_misc/lv_color.h ****  */
 295:..\..\..\lvgl\version_6.1.2\lvgl\src\lv_core\../lv_misc/lv_color.h **** 
 296:..\..\..\lvgl\version_6.1.2\lvgl\src\lv_core\../lv_misc/lv_color.h **** static inline uint8_t lv_color_to1(lv_color_t color)
ARM GAS  C:\Users\pearlstl\AppData\Local\Temp\ccvteysW.s 			page 18


 297:..\..\..\lvgl\version_6.1.2\lvgl\src\lv_core\../lv_misc/lv_color.h **** {
 298:..\..\..\lvgl\version_6.1.2\lvgl\src\lv_core\../lv_misc/lv_color.h **** #if LV_COLOR_DEPTH == 1
 299:..\..\..\lvgl\version_6.1.2\lvgl\src\lv_core\../lv_misc/lv_color.h ****     return color.full;
 300:..\..\..\lvgl\version_6.1.2\lvgl\src\lv_core\../lv_misc/lv_color.h **** #elif LV_COLOR_DEPTH == 8
 301:..\..\..\lvgl\version_6.1.2\lvgl\src\lv_core\../lv_misc/lv_color.h ****     if((LV_COLOR_GET_R(color) & 0x4) || (LV_COLOR_GET_G(color) & 0x4) || (LV_COLOR_GET_B(color) & 0
 302:..\..\..\lvgl\version_6.1.2\lvgl\src\lv_core\../lv_misc/lv_color.h ****         return 1;
 303:..\..\..\lvgl\version_6.1.2\lvgl\src\lv_core\../lv_misc/lv_color.h ****     } else {
 304:..\..\..\lvgl\version_6.1.2\lvgl\src\lv_core\../lv_misc/lv_color.h ****         return 0;
 305:..\..\..\lvgl\version_6.1.2\lvgl\src\lv_core\../lv_misc/lv_color.h ****     }
 306:..\..\..\lvgl\version_6.1.2\lvgl\src\lv_core\../lv_misc/lv_color.h **** #elif LV_COLOR_DEPTH == 16
 307:..\..\..\lvgl\version_6.1.2\lvgl\src\lv_core\../lv_misc/lv_color.h ****     if((LV_COLOR_GET_R(color) & 0x10) || (LV_COLOR_GET_G(color) & 0x20) || (LV_COLOR_GET_B(color) &
 308:..\..\..\lvgl\version_6.1.2\lvgl\src\lv_core\../lv_misc/lv_color.h ****         return 1;
 309:..\..\..\lvgl\version_6.1.2\lvgl\src\lv_core\../lv_misc/lv_color.h ****     } else {
 310:..\..\..\lvgl\version_6.1.2\lvgl\src\lv_core\../lv_misc/lv_color.h ****         return 0;
 311:..\..\..\lvgl\version_6.1.2\lvgl\src\lv_core\../lv_misc/lv_color.h ****     }
 312:..\..\..\lvgl\version_6.1.2\lvgl\src\lv_core\../lv_misc/lv_color.h **** #elif LV_COLOR_DEPTH == 32
 313:..\..\..\lvgl\version_6.1.2\lvgl\src\lv_core\../lv_misc/lv_color.h ****     if((LV_COLOR_GET_R(color) & 0x80) || (LV_COLOR_GET_G(color) & 0x80) || (LV_COLOR_GET_B(color) &
 314:..\..\..\lvgl\version_6.1.2\lvgl\src\lv_core\../lv_misc/lv_color.h ****         return 1;
 315:..\..\..\lvgl\version_6.1.2\lvgl\src\lv_core\../lv_misc/lv_color.h ****     } else {
 316:..\..\..\lvgl\version_6.1.2\lvgl\src\lv_core\../lv_misc/lv_color.h ****         return 0;
 317:..\..\..\lvgl\version_6.1.2\lvgl\src\lv_core\../lv_misc/lv_color.h ****     }
 318:..\..\..\lvgl\version_6.1.2\lvgl\src\lv_core\../lv_misc/lv_color.h **** #endif
 319:..\..\..\lvgl\version_6.1.2\lvgl\src\lv_core\../lv_misc/lv_color.h **** }
 320:..\..\..\lvgl\version_6.1.2\lvgl\src\lv_core\../lv_misc/lv_color.h **** 
 321:..\..\..\lvgl\version_6.1.2\lvgl\src\lv_core\../lv_misc/lv_color.h **** static inline uint8_t lv_color_to8(lv_color_t color)
 322:..\..\..\lvgl\version_6.1.2\lvgl\src\lv_core\../lv_misc/lv_color.h **** {
 323:..\..\..\lvgl\version_6.1.2\lvgl\src\lv_core\../lv_misc/lv_color.h **** #if LV_COLOR_DEPTH == 1
 324:..\..\..\lvgl\version_6.1.2\lvgl\src\lv_core\../lv_misc/lv_color.h ****     if(color.full == 0)
 325:..\..\..\lvgl\version_6.1.2\lvgl\src\lv_core\../lv_misc/lv_color.h ****         return 0;
 326:..\..\..\lvgl\version_6.1.2\lvgl\src\lv_core\../lv_misc/lv_color.h ****     else
 327:..\..\..\lvgl\version_6.1.2\lvgl\src\lv_core\../lv_misc/lv_color.h ****         return 0xFF;
 328:..\..\..\lvgl\version_6.1.2\lvgl\src\lv_core\../lv_misc/lv_color.h **** #elif LV_COLOR_DEPTH == 8
 329:..\..\..\lvgl\version_6.1.2\lvgl\src\lv_core\../lv_misc/lv_color.h ****     return color.full;
 330:..\..\..\lvgl\version_6.1.2\lvgl\src\lv_core\../lv_misc/lv_color.h **** #elif LV_COLOR_DEPTH == 16
 331:..\..\..\lvgl\version_6.1.2\lvgl\src\lv_core\../lv_misc/lv_color.h ****     lv_color8_t ret;
 332:..\..\..\lvgl\version_6.1.2\lvgl\src\lv_core\../lv_misc/lv_color.h ****     LV_COLOR_SET_R8(ret, LV_COLOR_GET_R(color) >> 2);   /* 5 - 3  = 2*/
 333:..\..\..\lvgl\version_6.1.2\lvgl\src\lv_core\../lv_misc/lv_color.h ****     LV_COLOR_SET_G8(ret, LV_COLOR_GET_G(color) >> 3); /* 6 - 3  = 3*/
 334:..\..\..\lvgl\version_6.1.2\lvgl\src\lv_core\../lv_misc/lv_color.h ****     LV_COLOR_SET_B8(ret, LV_COLOR_GET_B(color) >> 3);  /* 5 - 2  = 3*/
 335:..\..\..\lvgl\version_6.1.2\lvgl\src\lv_core\../lv_misc/lv_color.h ****     return ret.full;
 336:..\..\..\lvgl\version_6.1.2\lvgl\src\lv_core\../lv_misc/lv_color.h **** #elif LV_COLOR_DEPTH == 32
 337:..\..\..\lvgl\version_6.1.2\lvgl\src\lv_core\../lv_misc/lv_color.h ****     lv_color8_t ret;
 338:..\..\..\lvgl\version_6.1.2\lvgl\src\lv_core\../lv_misc/lv_color.h ****     LV_COLOR_SET_R8(ret, LV_COLOR_GET_R(color) >> 5);   /* 8 - 3  = 5*/
 339:..\..\..\lvgl\version_6.1.2\lvgl\src\lv_core\../lv_misc/lv_color.h ****     LV_COLOR_SET_G8(ret, LV_COLOR_GET_G(color) >> 5); /* 8 - 3  = 5*/
 340:..\..\..\lvgl\version_6.1.2\lvgl\src\lv_core\../lv_misc/lv_color.h ****     LV_COLOR_SET_B8(ret, LV_COLOR_GET_B(color) >> 6);  /* 8 - 2  = 6*/
 341:..\..\..\lvgl\version_6.1.2\lvgl\src\lv_core\../lv_misc/lv_color.h ****     return ret.full;
 342:..\..\..\lvgl\version_6.1.2\lvgl\src\lv_core\../lv_misc/lv_color.h **** #endif
 343:..\..\..\lvgl\version_6.1.2\lvgl\src\lv_core\../lv_misc/lv_color.h **** }
 344:..\..\..\lvgl\version_6.1.2\lvgl\src\lv_core\../lv_misc/lv_color.h **** 
 345:..\..\..\lvgl\version_6.1.2\lvgl\src\lv_core\../lv_misc/lv_color.h **** static inline uint16_t lv_color_to16(lv_color_t color)
 346:..\..\..\lvgl\version_6.1.2\lvgl\src\lv_core\../lv_misc/lv_color.h **** {
 347:..\..\..\lvgl\version_6.1.2\lvgl\src\lv_core\../lv_misc/lv_color.h **** #if LV_COLOR_DEPTH == 1
 348:..\..\..\lvgl\version_6.1.2\lvgl\src\lv_core\../lv_misc/lv_color.h ****     if(color.full == 0)
 349:..\..\..\lvgl\version_6.1.2\lvgl\src\lv_core\../lv_misc/lv_color.h ****         return 0;
 350:..\..\..\lvgl\version_6.1.2\lvgl\src\lv_core\../lv_misc/lv_color.h ****     else
 351:..\..\..\lvgl\version_6.1.2\lvgl\src\lv_core\../lv_misc/lv_color.h ****         return 0xFFFF;
 352:..\..\..\lvgl\version_6.1.2\lvgl\src\lv_core\../lv_misc/lv_color.h **** #elif LV_COLOR_DEPTH == 8
 353:..\..\..\lvgl\version_6.1.2\lvgl\src\lv_core\../lv_misc/lv_color.h ****     lv_color16_t ret;
ARM GAS  C:\Users\pearlstl\AppData\Local\Temp\ccvteysW.s 			page 19


 354:..\..\..\lvgl\version_6.1.2\lvgl\src\lv_core\../lv_misc/lv_color.h ****     LV_COLOR_SET_R16(ret, LV_COLOR_GET_R(color) * 4);     /*(2^5 - 1)/(2^3 - 1) = 31/7 = 4*/
 355:..\..\..\lvgl\version_6.1.2\lvgl\src\lv_core\../lv_misc/lv_color.h **** #if LV_COLOR_16_SWAP == 0
 356:..\..\..\lvgl\version_6.1.2\lvgl\src\lv_core\../lv_misc/lv_color.h ****     LV_COLOR_SET_G16(ret,  LV_COLOR_GET_G(color) * 9); /*(2^6 - 1)/(2^3 - 1) = 63/7 = 9*/
 357:..\..\..\lvgl\version_6.1.2\lvgl\src\lv_core\../lv_misc/lv_color.h **** #else
 358:..\..\..\lvgl\version_6.1.2\lvgl\src\lv_core\../lv_misc/lv_color.h ****     LV_COLOR_SET_G16_SWAP(ret, (LV_COLOR_GET_G(color) * 9)); /*(2^6 - 1)/(2^3 - 1) = 63/7 = 9*/
 359:..\..\..\lvgl\version_6.1.2\lvgl\src\lv_core\../lv_misc/lv_color.h **** #endif
 360:..\..\..\lvgl\version_6.1.2\lvgl\src\lv_core\../lv_misc/lv_color.h ****     LV_COLOR_SET_B16(ret, LV_COLOR_GET_B(color) * 10);  /*(2^5 - 1)/(2^2 - 1) = 31/3 = 10*/
 361:..\..\..\lvgl\version_6.1.2\lvgl\src\lv_core\../lv_misc/lv_color.h ****     return ret.full;
 362:..\..\..\lvgl\version_6.1.2\lvgl\src\lv_core\../lv_misc/lv_color.h **** #elif LV_COLOR_DEPTH == 16
 363:..\..\..\lvgl\version_6.1.2\lvgl\src\lv_core\../lv_misc/lv_color.h ****     return color.full;
 364:..\..\..\lvgl\version_6.1.2\lvgl\src\lv_core\../lv_misc/lv_color.h **** #elif LV_COLOR_DEPTH == 32
 365:..\..\..\lvgl\version_6.1.2\lvgl\src\lv_core\../lv_misc/lv_color.h ****     lv_color16_t ret;
 366:..\..\..\lvgl\version_6.1.2\lvgl\src\lv_core\../lv_misc/lv_color.h ****     LV_COLOR_SET_R16(ret, LV_COLOR_GET_R(color) >> 3);   /* 8 - 5  = 3*/
 367:..\..\..\lvgl\version_6.1.2\lvgl\src\lv_core\../lv_misc/lv_color.h **** 
 368:..\..\..\lvgl\version_6.1.2\lvgl\src\lv_core\../lv_misc/lv_color.h **** #if LV_COLOR_16_SWAP == 0
 369:..\..\..\lvgl\version_6.1.2\lvgl\src\lv_core\../lv_misc/lv_color.h ****     LV_COLOR_SET_G16(ret, LV_COLOR_GET_G(color) >> 2); /* 8 - 6  = 2*/
 370:..\..\..\lvgl\version_6.1.2\lvgl\src\lv_core\../lv_misc/lv_color.h **** #else
 371:..\..\..\lvgl\version_6.1.2\lvgl\src\lv_core\../lv_misc/lv_color.h ****     LV_COLOR_SET_G16_SWAP(ret, ret.ch.green_h = (LV_COLOR_GET_G(color) >> 2); /*(2^6 - 1)/(2^3 - 1)
 372:..\..\..\lvgl\version_6.1.2\lvgl\src\lv_core\../lv_misc/lv_color.h **** #endif
 373:..\..\..\lvgl\version_6.1.2\lvgl\src\lv_core\../lv_misc/lv_color.h ****     LV_COLOR_SET_B16(ret, LV_COLOR_GET_B(color) >> 3);  /* 8 - 5  = 3*/
 374:..\..\..\lvgl\version_6.1.2\lvgl\src\lv_core\../lv_misc/lv_color.h ****     return ret.full;
 375:..\..\..\lvgl\version_6.1.2\lvgl\src\lv_core\../lv_misc/lv_color.h **** #endif                         
 376:..\..\..\lvgl\version_6.1.2\lvgl\src\lv_core\../lv_misc/lv_color.h **** }
 377:..\..\..\lvgl\version_6.1.2\lvgl\src\lv_core\../lv_misc/lv_color.h **** 
 378:..\..\..\lvgl\version_6.1.2\lvgl\src\lv_core\../lv_misc/lv_color.h **** static inline uint32_t lv_color_to32(lv_color_t color)
 379:..\..\..\lvgl\version_6.1.2\lvgl\src\lv_core\../lv_misc/lv_color.h **** {
 380:..\..\..\lvgl\version_6.1.2\lvgl\src\lv_core\../lv_misc/lv_color.h **** #if LV_COLOR_DEPTH == 1
 381:..\..\..\lvgl\version_6.1.2\lvgl\src\lv_core\../lv_misc/lv_color.h ****     if(color.full == 0)
 382:..\..\..\lvgl\version_6.1.2\lvgl\src\lv_core\../lv_misc/lv_color.h ****         return 0;
 383:..\..\..\lvgl\version_6.1.2\lvgl\src\lv_core\../lv_misc/lv_color.h ****     else
 384:..\..\..\lvgl\version_6.1.2\lvgl\src\lv_core\../lv_misc/lv_color.h ****         return 0xFFFFFFFF;
 385:..\..\..\lvgl\version_6.1.2\lvgl\src\lv_core\../lv_misc/lv_color.h **** #elif LV_COLOR_DEPTH == 8
 386:..\..\..\lvgl\version_6.1.2\lvgl\src\lv_core\../lv_misc/lv_color.h ****     lv_color32_t ret;
 387:..\..\..\lvgl\version_6.1.2\lvgl\src\lv_core\../lv_misc/lv_color.h ****     LV_COLOR_SET_R32(ret, LV_COLOR_GET_R(color) * 36);     /*(2^8 - 1)/(2^3 - 1) = 255/7 = 36*/
 388:..\..\..\lvgl\version_6.1.2\lvgl\src\lv_core\../lv_misc/lv_color.h ****     LV_COLOR_SET_G32(ret, LV_COLOR_GET_G(color) * 36); /*(2^8 - 1)/(2^3 - 1) = 255/7 = 36*/
 389:..\..\..\lvgl\version_6.1.2\lvgl\src\lv_core\../lv_misc/lv_color.h ****     LV_COLOR_SET_B32(ret, LV_COLOR_GET_B(color) * 85);   /*(2^8 - 1)/(2^2 - 1) = 255/3 = 85*/
 390:..\..\..\lvgl\version_6.1.2\lvgl\src\lv_core\../lv_misc/lv_color.h ****     LV_COLOR_SET_A32(ret, 0xFF);
 391:..\..\..\lvgl\version_6.1.2\lvgl\src\lv_core\../lv_misc/lv_color.h ****     return ret.full;
 392:..\..\..\lvgl\version_6.1.2\lvgl\src\lv_core\../lv_misc/lv_color.h **** #elif LV_COLOR_DEPTH == 16
 393:..\..\..\lvgl\version_6.1.2\lvgl\src\lv_core\../lv_misc/lv_color.h ****     /**
 394:..\..\..\lvgl\version_6.1.2\lvgl\src\lv_core\../lv_misc/lv_color.h ****      * The floating point math for conversion is:
 395:..\..\..\lvgl\version_6.1.2\lvgl\src\lv_core\../lv_misc/lv_color.h ****      *  valueto = valuefrom * ( (2^bitsto - 1) / (float)(2^bitsfrom - 1) )
 396:..\..\..\lvgl\version_6.1.2\lvgl\src\lv_core\../lv_misc/lv_color.h ****      * The faster integer math for conversion is:
 397:..\..\..\lvgl\version_6.1.2\lvgl\src\lv_core\../lv_misc/lv_color.h ****      *  valueto = ( valuefrom * multiplier + adder ) >> divisor
 398:..\..\..\lvgl\version_6.1.2\lvgl\src\lv_core\../lv_misc/lv_color.h ****      *   multiplier = FLOOR( ( (2^bitsto - 1) << divisor ) / (float)(2^bitsfrom - 1) )
 399:..\..\..\lvgl\version_6.1.2\lvgl\src\lv_core\../lv_misc/lv_color.h ****      * 
 400:..\..\..\lvgl\version_6.1.2\lvgl\src\lv_core\../lv_misc/lv_color.h ****      * Find the first divisor where ( adder >> divisor ) <= 0
 401:..\..\..\lvgl\version_6.1.2\lvgl\src\lv_core\../lv_misc/lv_color.h ****      * 
 402:..\..\..\lvgl\version_6.1.2\lvgl\src\lv_core\../lv_misc/lv_color.h ****      * 5-bit to 8-bit: ( 31 * multiplier + adder ) >> divisor = 255
 403:..\..\..\lvgl\version_6.1.2\lvgl\src\lv_core\../lv_misc/lv_color.h ****      * divisor  multiplier  adder  min (0)  max (31)
 404:..\..\..\lvgl\version_6.1.2\lvgl\src\lv_core\../lv_misc/lv_color.h ****      *       0           8      7        7       255
 405:..\..\..\lvgl\version_6.1.2\lvgl\src\lv_core\../lv_misc/lv_color.h ****      *       1          16     14        7       255
 406:..\..\..\lvgl\version_6.1.2\lvgl\src\lv_core\../lv_misc/lv_color.h ****      *       2          32     28        7       255
 407:..\..\..\lvgl\version_6.1.2\lvgl\src\lv_core\../lv_misc/lv_color.h ****      *       3          65     25        3       255
 408:..\..\..\lvgl\version_6.1.2\lvgl\src\lv_core\../lv_misc/lv_color.h ****      *       4         131     19        1       255
 409:..\..\..\lvgl\version_6.1.2\lvgl\src\lv_core\../lv_misc/lv_color.h ****      *       5         263      7        0       255
 410:..\..\..\lvgl\version_6.1.2\lvgl\src\lv_core\../lv_misc/lv_color.h ****      * 
ARM GAS  C:\Users\pearlstl\AppData\Local\Temp\ccvteysW.s 			page 20


 411:..\..\..\lvgl\version_6.1.2\lvgl\src\lv_core\../lv_misc/lv_color.h ****      * 6-bit to 8-bit: 255 = ( 63 * multiplier + adder ) >> divisor
 412:..\..\..\lvgl\version_6.1.2\lvgl\src\lv_core\../lv_misc/lv_color.h ****      * divisor  multiplier  adder  min (0)  max (63)
 413:..\..\..\lvgl\version_6.1.2\lvgl\src\lv_core\../lv_misc/lv_color.h ****      *       0           4      3        3       255
 414:..\..\..\lvgl\version_6.1.2\lvgl\src\lv_core\../lv_misc/lv_color.h ****      *       1           8      6        3       255
 415:..\..\..\lvgl\version_6.1.2\lvgl\src\lv_core\../lv_misc/lv_color.h ****      *       2          16     12        3       255
 416:..\..\..\lvgl\version_6.1.2\lvgl\src\lv_core\../lv_misc/lv_color.h ****      *       3          32     24        3       255
 417:..\..\..\lvgl\version_6.1.2\lvgl\src\lv_core\../lv_misc/lv_color.h ****      *       4          64     48        3       255
 418:..\..\..\lvgl\version_6.1.2\lvgl\src\lv_core\../lv_misc/lv_color.h ****      *       5         129     33        1       255
 419:..\..\..\lvgl\version_6.1.2\lvgl\src\lv_core\../lv_misc/lv_color.h ****      *       6         259      3        0       255
 420:..\..\..\lvgl\version_6.1.2\lvgl\src\lv_core\../lv_misc/lv_color.h ****      */
 421:..\..\..\lvgl\version_6.1.2\lvgl\src\lv_core\../lv_misc/lv_color.h ****     lv_color32_t ret;
 422:..\..\..\lvgl\version_6.1.2\lvgl\src\lv_core\../lv_misc/lv_color.h ****     LV_COLOR_SET_R32(ret, (LV_COLOR_GET_R(color) * 263 + 7 ) >> 5);
 423:..\..\..\lvgl\version_6.1.2\lvgl\src\lv_core\../lv_misc/lv_color.h ****     LV_COLOR_SET_G32(ret, (LV_COLOR_GET_G(color) * 259 + 3 ) >> 6);
 424:..\..\..\lvgl\version_6.1.2\lvgl\src\lv_core\../lv_misc/lv_color.h ****     LV_COLOR_SET_B32(ret, (LV_COLOR_GET_B(color) * 263 + 7 ) >> 5);
 425:..\..\..\lvgl\version_6.1.2\lvgl\src\lv_core\../lv_misc/lv_color.h ****     LV_COLOR_SET_A32(ret, 0xFF);
 426:..\..\..\lvgl\version_6.1.2\lvgl\src\lv_core\../lv_misc/lv_color.h ****     return ret.full;
 427:..\..\..\lvgl\version_6.1.2\lvgl\src\lv_core\../lv_misc/lv_color.h **** #elif LV_COLOR_DEPTH == 32
 428:..\..\..\lvgl\version_6.1.2\lvgl\src\lv_core\../lv_misc/lv_color.h ****     return color.full;
 429:..\..\..\lvgl\version_6.1.2\lvgl\src\lv_core\../lv_misc/lv_color.h **** #endif
 430:..\..\..\lvgl\version_6.1.2\lvgl\src\lv_core\../lv_misc/lv_color.h **** }
 431:..\..\..\lvgl\version_6.1.2\lvgl\src\lv_core\../lv_misc/lv_color.h **** 
 432:..\..\..\lvgl\version_6.1.2\lvgl\src\lv_core\../lv_misc/lv_color.h **** static inline lv_color_t lv_color_mix(lv_color_t c1, lv_color_t c2, uint8_t mix)
 433:..\..\..\lvgl\version_6.1.2\lvgl\src\lv_core\../lv_misc/lv_color.h **** {
 434:..\..\..\lvgl\version_6.1.2\lvgl\src\lv_core\../lv_misc/lv_color.h ****     lv_color_t ret;
 435:..\..\..\lvgl\version_6.1.2\lvgl\src\lv_core\../lv_misc/lv_color.h **** #if LV_COLOR_DEPTH != 1
 436:..\..\..\lvgl\version_6.1.2\lvgl\src\lv_core\../lv_misc/lv_color.h ****     /*LV_COLOR_DEPTH == 8, 16 or 32*/
 437:..\..\..\lvgl\version_6.1.2\lvgl\src\lv_core\../lv_misc/lv_color.h ****     LV_COLOR_SET_R(ret, (uint16_t)((uint16_t) LV_COLOR_GET_R(c1) * mix + LV_COLOR_GET_R(c2) * (255 
 299              		.loc 2 437 0
 300 01dc 90F806C0 		ldrb	ip, [r0, #6]	@ zero_extendqisi2
 438:..\..\..\lvgl\version_6.1.2\lvgl\src\lv_core\../lv_misc/lv_color.h ****     LV_COLOR_SET_G(ret, (uint16_t)((uint16_t) LV_COLOR_GET_G(c1) * mix + LV_COLOR_GET_G(c2) * (255 
 301              		.loc 2 438 0
 302 01e0 4779     		ldrb	r7, [r0, #5]	@ zero_extendqisi2
 303              	.LBE153:
 304              	.LBE152:
 261:..\..\..\lvgl\version_6.1.2\lvgl\src\lv_core/lv_style.c ****     res->body.grad_color   = lv_color_mix(end->body.grad_color, start->body.grad_color, opa);
 305              		.loc 1 261 0
 306 01e2 0679     		ldrb	r6, [r0, #4]	@ zero_extendqisi2
 307              	.LBB159:
 308              	.LBB154:
 437:..\..\..\lvgl\version_6.1.2\lvgl\src\lv_core\../lv_misc/lv_color.h ****     LV_COLOR_SET_G(ret, (uint16_t)((uint16_t) LV_COLOR_GET_G(c1) * mix + LV_COLOR_GET_G(c2) * (255 
 309              		.loc 2 437 0
 310 01e4 90F85680 		ldrb	r8, [r0, #86]	@ zero_extendqisi2
 311              		.loc 2 438 0
 312 01e8 90F855E0 		ldrb	lr, [r0, #85]	@ zero_extendqisi2
 313              	.LBE154:
 314              	.LBE159:
 261:..\..\..\lvgl\version_6.1.2\lvgl\src\lv_core/lv_style.c ****     res->body.grad_color   = lv_color_mix(end->body.grad_color, start->body.grad_color, opa);
 315              		.loc 1 261 0
 316 01ec 90F85450 		ldrb	r5, [r0, #84]	@ zero_extendqisi2
 317              	.LBB160:
 318              	.LBB155:
 437:..\..\..\lvgl\version_6.1.2\lvgl\src\lv_core\../lv_misc/lv_color.h ****     LV_COLOR_SET_G(ret, (uint16_t)((uint16_t) LV_COLOR_GET_G(c1) * mix + LV_COLOR_GET_G(c2) * (255 
 319              		.loc 2 437 0
 320 01f0 1CFB02FC 		smulbb	ip, ip, r2
 321              		.loc 2 438 0
 322 01f4 17FB02F7 		smulbb	r7, r7, r2
 323              	.LBE155:
ARM GAS  C:\Users\pearlstl\AppData\Local\Temp\ccvteysW.s 			page 21


 324              	.LBE160:
 261:..\..\..\lvgl\version_6.1.2\lvgl\src\lv_core/lv_style.c ****     res->body.grad_color   = lv_color_mix(end->body.grad_color, start->body.grad_color, opa);
 325              		.loc 1 261 0
 326 01f8 16FB02F6 		smulbb	r6, r6, r2
 327              	.LBB161:
 328              	.LBB156:
 437:..\..\..\lvgl\version_6.1.2\lvgl\src\lv_core\../lv_misc/lv_color.h ****     LV_COLOR_SET_G(ret, (uint16_t)((uint16_t) LV_COLOR_GET_G(c1) * mix + LV_COLOR_GET_G(c2) * (255 
 329              		.loc 2 437 0
 330 01fc 08FB01CC 		mla	ip, r8, r1, ip
 331              		.loc 2 438 0
 332 0200 0EFB0177 		mla	r7, lr, r1, r7
 333              	.LBE156:
 334              	.LBE161:
 261:..\..\..\lvgl\version_6.1.2\lvgl\src\lv_core/lv_style.c ****     res->body.grad_color   = lv_color_mix(end->body.grad_color, start->body.grad_color, opa);
 335              		.loc 1 261 0
 336 0204 05FB0166 		mla	r6, r5, r1, r6
 337              	.LBB162:
 338              	.LBB157:
 437:..\..\..\lvgl\version_6.1.2\lvgl\src\lv_core\../lv_misc/lv_color.h ****     LV_COLOR_SET_G(ret, (uint16_t)((uint16_t) LV_COLOR_GET_G(c1) * mix + LV_COLOR_GET_G(c2) * (255 
 339              		.loc 2 437 0
 340 0208 CCF3072E 		ubfx	lr, ip, #8, #8
 341              	.LVL9:
 342              	.LBE157:
 343              	.LBE162:
 261:..\..\..\lvgl\version_6.1.2\lvgl\src\lv_core/lv_style.c ****     res->body.grad_color   = lv_color_mix(end->body.grad_color, start->body.grad_color, opa);
 344              		.loc 1 261 0
 345 020c FF25     		movs	r5, #255
 346              	.LBB163:
 347              	.LBB158:
 348              		.loc 2 438 0
 349 020e C7F30727 		ubfx	r7, r7, #8, #8
 350              	.LVL10:
 351              	.LBE158:
 352              	.LBE163:
 261:..\..\..\lvgl\version_6.1.2\lvgl\src\lv_core/lv_style.c ****     res->body.grad_color   = lv_color_mix(end->body.grad_color, start->body.grad_color, opa);
 353              		.loc 1 261 0
 354 0212 C6F30726 		ubfx	r6, r6, #8, #8
 355 0216 DD71     		strb	r5, [r3, #7]
 356 0218 83F806E0 		strb	lr, [r3, #6]
 357 021c 5F71     		strb	r7, [r3, #5]
 358 021e 1E71     		strb	r6, [r3, #4]
 359              	.LBB164:
 360              	.LBB165:
 437:..\..\..\lvgl\version_6.1.2\lvgl\src\lv_core\../lv_misc/lv_color.h ****     LV_COLOR_SET_G(ret, (uint16_t)((uint16_t) LV_COLOR_GET_G(c1) * mix + LV_COLOR_GET_G(c2) * (255 
 361              		.loc 2 437 0
 362 0220 90F80A80 		ldrb	r8, [r0, #10]	@ zero_extendqisi2
 363              		.loc 2 438 0
 364 0224 90F809E0 		ldrb	lr, [r0, #9]	@ zero_extendqisi2
 365              	.LBE165:
 366              	.LBE164:
 262:..\..\..\lvgl\version_6.1.2\lvgl\src\lv_core/lv_style.c ****     res->body.border.color = lv_color_mix(end->body.border.color, start->body.border.color, opa);
 367              		.loc 1 262 0
 368 0228 067A     		ldrb	r6, [r0, #8]	@ zero_extendqisi2
 369              	.LBB170:
 370              	.LBB166:
 437:..\..\..\lvgl\version_6.1.2\lvgl\src\lv_core\../lv_misc/lv_color.h ****     LV_COLOR_SET_G(ret, (uint16_t)((uint16_t) LV_COLOR_GET_G(c1) * mix + LV_COLOR_GET_G(c2) * (255 
 371              		.loc 2 437 0
ARM GAS  C:\Users\pearlstl\AppData\Local\Temp\ccvteysW.s 			page 22


 372 022a 90F85A90 		ldrb	r9, [r0, #90]	@ zero_extendqisi2
 373              		.loc 2 438 0
 374 022e 90F859C0 		ldrb	ip, [r0, #89]	@ zero_extendqisi2
 375              	.LBE166:
 376              	.LBE170:
 262:..\..\..\lvgl\version_6.1.2\lvgl\src\lv_core/lv_style.c ****     res->body.border.color = lv_color_mix(end->body.border.color, start->body.border.color, opa);
 377              		.loc 1 262 0
 378 0232 90F85870 		ldrb	r7, [r0, #88]	@ zero_extendqisi2
 379 0236 DD72     		strb	r5, [r3, #11]
 380              	.LBB171:
 381              	.LBB167:
 437:..\..\..\lvgl\version_6.1.2\lvgl\src\lv_core\../lv_misc/lv_color.h ****     LV_COLOR_SET_G(ret, (uint16_t)((uint16_t) LV_COLOR_GET_G(c1) * mix + LV_COLOR_GET_G(c2) * (255 
 382              		.loc 2 437 0
 383 0238 18FB02F8 		smulbb	r8, r8, r2
 384              		.loc 2 438 0
 385 023c 1EFB02FE 		smulbb	lr, lr, r2
 386              	.LBE167:
 387              	.LBE171:
 262:..\..\..\lvgl\version_6.1.2\lvgl\src\lv_core/lv_style.c ****     res->body.border.color = lv_color_mix(end->body.border.color, start->body.border.color, opa);
 388              		.loc 1 262 0
 389 0240 16FB02F6 		smulbb	r6, r6, r2
 390              	.LBB172:
 391              	.LBB168:
 437:..\..\..\lvgl\version_6.1.2\lvgl\src\lv_core\../lv_misc/lv_color.h ****     LV_COLOR_SET_G(ret, (uint16_t)((uint16_t) LV_COLOR_GET_G(c1) * mix + LV_COLOR_GET_G(c2) * (255 
 392              		.loc 2 437 0
 393 0244 09FB0188 		mla	r8, r9, r1, r8
 394              		.loc 2 438 0
 395 0248 0CFB01EE 		mla	lr, ip, r1, lr
 396              	.LBE168:
 397              	.LBE172:
 262:..\..\..\lvgl\version_6.1.2\lvgl\src\lv_core/lv_style.c ****     res->body.border.color = lv_color_mix(end->body.border.color, start->body.border.color, opa);
 398              		.loc 1 262 0
 399 024c 07FB0166 		mla	r6, r7, r1, r6
 400              	.LBB173:
 401              	.LBB169:
 437:..\..\..\lvgl\version_6.1.2\lvgl\src\lv_core\../lv_misc/lv_color.h ****     LV_COLOR_SET_G(ret, (uint16_t)((uint16_t) LV_COLOR_GET_G(c1) * mix + LV_COLOR_GET_G(c2) * (255 
 402              		.loc 2 437 0
 403 0250 C8F3072C 		ubfx	ip, r8, #8, #8
 404              	.LVL11:
 405              		.loc 2 438 0
 406 0254 CEF30727 		ubfx	r7, lr, #8, #8
 407              	.LVL12:
 408              	.LBE169:
 409              	.LBE173:
 262:..\..\..\lvgl\version_6.1.2\lvgl\src\lv_core/lv_style.c ****     res->body.border.color = lv_color_mix(end->body.border.color, start->body.border.color, opa);
 410              		.loc 1 262 0
 411 0258 C6F30726 		ubfx	r6, r6, #8, #8
 412 025c 83F80AC0 		strb	ip, [r3, #10]
 413 0260 5F72     		strb	r7, [r3, #9]
 414 0262 1E72     		strb	r6, [r3, #8]
 415              	.LBB174:
 416              	.LBB175:
 437:..\..\..\lvgl\version_6.1.2\lvgl\src\lv_core\../lv_misc/lv_color.h ****     LV_COLOR_SET_G(ret, (uint16_t)((uint16_t) LV_COLOR_GET_G(c1) * mix + LV_COLOR_GET_G(c2) * (255 
 417              		.loc 2 437 0
 418 0264 90F81280 		ldrb	r8, [r0, #18]	@ zero_extendqisi2
 419              		.loc 2 438 0
 420 0268 90F811E0 		ldrb	lr, [r0, #17]	@ zero_extendqisi2
ARM GAS  C:\Users\pearlstl\AppData\Local\Temp\ccvteysW.s 			page 23


 421              	.LBE175:
 422              	.LBE174:
 263:..\..\..\lvgl\version_6.1.2\lvgl\src\lv_core/lv_style.c ****     res->body.shadow.color = lv_color_mix(end->body.shadow.color, start->body.shadow.color, opa);
 423              		.loc 1 263 0
 424 026c 067C     		ldrb	r6, [r0, #16]	@ zero_extendqisi2
 425              	.LBB180:
 426              	.LBB176:
 437:..\..\..\lvgl\version_6.1.2\lvgl\src\lv_core\../lv_misc/lv_color.h ****     LV_COLOR_SET_G(ret, (uint16_t)((uint16_t) LV_COLOR_GET_G(c1) * mix + LV_COLOR_GET_G(c2) * (255 
 427              		.loc 2 437 0
 428 026e 90F86290 		ldrb	r9, [r0, #98]	@ zero_extendqisi2
 429              		.loc 2 438 0
 430 0272 90F861C0 		ldrb	ip, [r0, #97]	@ zero_extendqisi2
 431              	.LBE176:
 432              	.LBE180:
 263:..\..\..\lvgl\version_6.1.2\lvgl\src\lv_core/lv_style.c ****     res->body.shadow.color = lv_color_mix(end->body.shadow.color, start->body.shadow.color, opa);
 433              		.loc 1 263 0
 434 0276 90F86070 		ldrb	r7, [r0, #96]	@ zero_extendqisi2
 435 027a DD74     		strb	r5, [r3, #19]
 436              	.LBB181:
 437              	.LBB177:
 437:..\..\..\lvgl\version_6.1.2\lvgl\src\lv_core\../lv_misc/lv_color.h ****     LV_COLOR_SET_G(ret, (uint16_t)((uint16_t) LV_COLOR_GET_G(c1) * mix + LV_COLOR_GET_G(c2) * (255 
 438              		.loc 2 437 0
 439 027c 18FB02F8 		smulbb	r8, r8, r2
 440              		.loc 2 438 0
 441 0280 1EFB02FE 		smulbb	lr, lr, r2
 442              	.LBE177:
 443              	.LBE181:
 263:..\..\..\lvgl\version_6.1.2\lvgl\src\lv_core/lv_style.c ****     res->body.shadow.color = lv_color_mix(end->body.shadow.color, start->body.shadow.color, opa);
 444              		.loc 1 263 0
 445 0284 16FB02F6 		smulbb	r6, r6, r2
 446              	.LBB182:
 447              	.LBB178:
 437:..\..\..\lvgl\version_6.1.2\lvgl\src\lv_core\../lv_misc/lv_color.h ****     LV_COLOR_SET_G(ret, (uint16_t)((uint16_t) LV_COLOR_GET_G(c1) * mix + LV_COLOR_GET_G(c2) * (255 
 448              		.loc 2 437 0
 449 0288 09FB0188 		mla	r8, r9, r1, r8
 450              		.loc 2 438 0
 451 028c 0CFB01EE 		mla	lr, ip, r1, lr
 452              	.LBE178:
 453              	.LBE182:
 263:..\..\..\lvgl\version_6.1.2\lvgl\src\lv_core/lv_style.c ****     res->body.shadow.color = lv_color_mix(end->body.shadow.color, start->body.shadow.color, opa);
 454              		.loc 1 263 0
 455 0290 07FB0166 		mla	r6, r7, r1, r6
 456              	.LBB183:
 457              	.LBB179:
 437:..\..\..\lvgl\version_6.1.2\lvgl\src\lv_core\../lv_misc/lv_color.h ****     LV_COLOR_SET_G(ret, (uint16_t)((uint16_t) LV_COLOR_GET_G(c1) * mix + LV_COLOR_GET_G(c2) * (255 
 458              		.loc 2 437 0
 459 0294 C8F3072C 		ubfx	ip, r8, #8, #8
 460              	.LVL13:
 461              		.loc 2 438 0
 462 0298 CEF30727 		ubfx	r7, lr, #8, #8
 463              	.LVL14:
 464              	.LBE179:
 465              	.LBE183:
 263:..\..\..\lvgl\version_6.1.2\lvgl\src\lv_core/lv_style.c ****     res->body.shadow.color = lv_color_mix(end->body.shadow.color, start->body.shadow.color, opa);
 466              		.loc 1 263 0
 467 029c C6F30726 		ubfx	r6, r6, #8, #8
 468 02a0 5F74     		strb	r7, [r3, #17]
ARM GAS  C:\Users\pearlstl\AppData\Local\Temp\ccvteysW.s 			page 24


 469 02a2 1E74     		strb	r6, [r3, #16]
 470 02a4 83F812C0 		strb	ip, [r3, #18]
 471              	.LBB184:
 472              	.LBB185:
 437:..\..\..\lvgl\version_6.1.2\lvgl\src\lv_core\../lv_misc/lv_color.h ****     LV_COLOR_SET_G(ret, (uint16_t)((uint16_t) LV_COLOR_GET_G(c1) * mix + LV_COLOR_GET_G(c2) * (255 
 473              		.loc 2 437 0
 474 02a8 90F86A90 		ldrb	r9, [r0, #106]	@ zero_extendqisi2
 475 02ac 90F81A80 		ldrb	r8, [r0, #26]	@ zero_extendqisi2
 476              		.loc 2 438 0
 477 02b0 90F869C0 		ldrb	ip, [r0, #105]	@ zero_extendqisi2
 478 02b4 90F819E0 		ldrb	lr, [r0, #25]	@ zero_extendqisi2
 479              	.LBE185:
 480              	.LBE184:
 264:..\..\..\lvgl\version_6.1.2\lvgl\src\lv_core/lv_style.c ****     res->text.color        = lv_color_mix(end->text.color, start->text.color, opa);
 481              		.loc 1 264 0
 482 02b8 067E     		ldrb	r6, [r0, #24]	@ zero_extendqisi2
 483 02ba 90F86870 		ldrb	r7, [r0, #104]	@ zero_extendqisi2
 484 02be DD76     		strb	r5, [r3, #27]
 485              	.LBB189:
 486              	.LBB186:
 437:..\..\..\lvgl\version_6.1.2\lvgl\src\lv_core\../lv_misc/lv_color.h ****     LV_COLOR_SET_G(ret, (uint16_t)((uint16_t) LV_COLOR_GET_G(c1) * mix + LV_COLOR_GET_G(c2) * (255 
 487              		.loc 2 437 0
 488 02c0 18FB02F8 		smulbb	r8, r8, r2
 489              		.loc 2 438 0
 490 02c4 1EFB02FE 		smulbb	lr, lr, r2
 491              	.LBE186:
 492              	.LBE189:
 264:..\..\..\lvgl\version_6.1.2\lvgl\src\lv_core/lv_style.c ****     res->text.color        = lv_color_mix(end->text.color, start->text.color, opa);
 493              		.loc 1 264 0
 494 02c8 16FB02F6 		smulbb	r6, r6, r2
 495              	.LBB190:
 496              	.LBB187:
 437:..\..\..\lvgl\version_6.1.2\lvgl\src\lv_core\../lv_misc/lv_color.h ****     LV_COLOR_SET_G(ret, (uint16_t)((uint16_t) LV_COLOR_GET_G(c1) * mix + LV_COLOR_GET_G(c2) * (255 
 497              		.loc 2 437 0
 498 02cc 09FB0188 		mla	r8, r9, r1, r8
 499              		.loc 2 438 0
 500 02d0 0CFB01EE 		mla	lr, ip, r1, lr
 501              	.LBE187:
 502              	.LBE190:
 264:..\..\..\lvgl\version_6.1.2\lvgl\src\lv_core/lv_style.c ****     res->text.color        = lv_color_mix(end->text.color, start->text.color, opa);
 503              		.loc 1 264 0
 504 02d4 07FB0166 		mla	r6, r7, r1, r6
 505              	.LBB191:
 506              	.LBB188:
 437:..\..\..\lvgl\version_6.1.2\lvgl\src\lv_core\../lv_misc/lv_color.h ****     LV_COLOR_SET_G(ret, (uint16_t)((uint16_t) LV_COLOR_GET_G(c1) * mix + LV_COLOR_GET_G(c2) * (255 
 507              		.loc 2 437 0
 508 02d8 C8F3072C 		ubfx	ip, r8, #8, #8
 509              	.LVL15:
 510              		.loc 2 438 0
 511 02dc CEF30727 		ubfx	r7, lr, #8, #8
 512              	.LVL16:
 513              	.LBE188:
 514              	.LBE191:
 264:..\..\..\lvgl\version_6.1.2\lvgl\src\lv_core/lv_style.c ****     res->text.color        = lv_color_mix(end->text.color, start->text.color, opa);
 515              		.loc 1 264 0
 516 02e0 C6F30726 		ubfx	r6, r6, #8, #8
 517 02e4 83F81AC0 		strb	ip, [r3, #26]
ARM GAS  C:\Users\pearlstl\AppData\Local\Temp\ccvteysW.s 			page 25


 518 02e8 5F76     		strb	r7, [r3, #25]
 519 02ea 1E76     		strb	r6, [r3, #24]
 520              	.LBB192:
 521              	.LBB193:
 437:..\..\..\lvgl\version_6.1.2\lvgl\src\lv_core\../lv_misc/lv_color.h ****     LV_COLOR_SET_G(ret, (uint16_t)((uint16_t) LV_COLOR_GET_G(c1) * mix + LV_COLOR_GET_G(c2) * (255 
 522              		.loc 2 437 0
 523 02ec 90F82E80 		ldrb	r8, [r0, #46]	@ zero_extendqisi2
 524              		.loc 2 438 0
 525 02f0 90F82DE0 		ldrb	lr, [r0, #45]	@ zero_extendqisi2
 526              	.LBE193:
 527              	.LBE192:
 265:..\..\..\lvgl\version_6.1.2\lvgl\src\lv_core/lv_style.c ****     res->image.color       = lv_color_mix(end->image.color, start->image.color, opa);
 528              		.loc 1 265 0
 529 02f4 90F82C60 		ldrb	r6, [r0, #44]	@ zero_extendqisi2
 530              	.LBB198:
 531              	.LBB194:
 437:..\..\..\lvgl\version_6.1.2\lvgl\src\lv_core\../lv_misc/lv_color.h ****     LV_COLOR_SET_G(ret, (uint16_t)((uint16_t) LV_COLOR_GET_G(c1) * mix + LV_COLOR_GET_G(c2) * (255 
 532              		.loc 2 437 0
 533 02f8 90F87E90 		ldrb	r9, [r0, #126]	@ zero_extendqisi2
 534              		.loc 2 438 0
 535 02fc 90F87DC0 		ldrb	ip, [r0, #125]	@ zero_extendqisi2
 536              	.LBE194:
 537              	.LBE198:
 265:..\..\..\lvgl\version_6.1.2\lvgl\src\lv_core/lv_style.c ****     res->image.color       = lv_color_mix(end->image.color, start->image.color, opa);
 538              		.loc 1 265 0
 539 0300 90F87C70 		ldrb	r7, [r0, #124]	@ zero_extendqisi2
 540 0304 83F82F50 		strb	r5, [r3, #47]
 541              	.LBB199:
 542              	.LBB195:
 437:..\..\..\lvgl\version_6.1.2\lvgl\src\lv_core\../lv_misc/lv_color.h ****     LV_COLOR_SET_G(ret, (uint16_t)((uint16_t) LV_COLOR_GET_G(c1) * mix + LV_COLOR_GET_G(c2) * (255 
 543              		.loc 2 437 0
 544 0308 18FB02F8 		smulbb	r8, r8, r2
 545              		.loc 2 438 0
 546 030c 1EFB02FE 		smulbb	lr, lr, r2
 547              	.LBE195:
 548              	.LBE199:
 265:..\..\..\lvgl\version_6.1.2\lvgl\src\lv_core/lv_style.c ****     res->image.color       = lv_color_mix(end->image.color, start->image.color, opa);
 549              		.loc 1 265 0
 550 0310 16FB02F6 		smulbb	r6, r6, r2
 551              	.LBB200:
 552              	.LBB196:
 437:..\..\..\lvgl\version_6.1.2\lvgl\src\lv_core\../lv_misc/lv_color.h ****     LV_COLOR_SET_G(ret, (uint16_t)((uint16_t) LV_COLOR_GET_G(c1) * mix + LV_COLOR_GET_G(c2) * (255 
 553              		.loc 2 437 0
 554 0314 09FB0188 		mla	r8, r9, r1, r8
 555              		.loc 2 438 0
 556 0318 0CFB01EE 		mla	lr, ip, r1, lr
 557              	.LBE196:
 558              	.LBE200:
 265:..\..\..\lvgl\version_6.1.2\lvgl\src\lv_core/lv_style.c ****     res->image.color       = lv_color_mix(end->image.color, start->image.color, opa);
 559              		.loc 1 265 0
 560 031c 07FB0166 		mla	r6, r7, r1, r6
 561              	.LBB201:
 562              	.LBB197:
 437:..\..\..\lvgl\version_6.1.2\lvgl\src\lv_core\../lv_misc/lv_color.h ****     LV_COLOR_SET_G(ret, (uint16_t)((uint16_t) LV_COLOR_GET_G(c1) * mix + LV_COLOR_GET_G(c2) * (255 
 563              		.loc 2 437 0
 564 0320 C8F3072C 		ubfx	ip, r8, #8, #8
 565              	.LVL17:
ARM GAS  C:\Users\pearlstl\AppData\Local\Temp\ccvteysW.s 			page 26


 566              		.loc 2 438 0
 567 0324 CEF30727 		ubfx	r7, lr, #8, #8
 568              	.LVL18:
 569              	.LBE197:
 570              	.LBE201:
 265:..\..\..\lvgl\version_6.1.2\lvgl\src\lv_core/lv_style.c ****     res->image.color       = lv_color_mix(end->image.color, start->image.color, opa);
 571              		.loc 1 265 0
 572 0328 C6F30726 		ubfx	r6, r6, #8, #8
 573 032c 83F82EC0 		strb	ip, [r3, #46]
 574 0330 83F82D70 		strb	r7, [r3, #45]
 575 0334 83F82C60 		strb	r6, [r3, #44]
 576              	.LBB202:
 577              	.LBB203:
 437:..\..\..\lvgl\version_6.1.2\lvgl\src\lv_core\../lv_misc/lv_color.h ****     LV_COLOR_SET_G(ret, (uint16_t)((uint16_t) LV_COLOR_GET_G(c1) * mix + LV_COLOR_GET_G(c2) * (255 
 578              		.loc 2 437 0
 579 0338 90F84280 		ldrb	r8, [r0, #66]	@ zero_extendqisi2
 580              		.loc 2 438 0
 581 033c 90F841E0 		ldrb	lr, [r0, #65]	@ zero_extendqisi2
 582              	.LBE203:
 583              	.LBE202:
 266:..\..\..\lvgl\version_6.1.2\lvgl\src\lv_core/lv_style.c ****     res->line.color        = lv_color_mix(end->line.color, start->line.color, opa);
 584              		.loc 1 266 0
 585 0340 90F84060 		ldrb	r6, [r0, #64]	@ zero_extendqisi2
 586              	.LBB208:
 587              	.LBB204:
 437:..\..\..\lvgl\version_6.1.2\lvgl\src\lv_core\../lv_misc/lv_color.h ****     LV_COLOR_SET_G(ret, (uint16_t)((uint16_t) LV_COLOR_GET_G(c1) * mix + LV_COLOR_GET_G(c2) * (255 
 588              		.loc 2 437 0
 589 0344 90F89290 		ldrb	r9, [r0, #146]	@ zero_extendqisi2
 590              		.loc 2 438 0
 591 0348 90F891C0 		ldrb	ip, [r0, #145]	@ zero_extendqisi2
 592              	.LBE204:
 593              	.LBE208:
 266:..\..\..\lvgl\version_6.1.2\lvgl\src\lv_core/lv_style.c ****     res->line.color        = lv_color_mix(end->line.color, start->line.color, opa);
 594              		.loc 1 266 0
 595 034c 90F89070 		ldrb	r7, [r0, #144]	@ zero_extendqisi2
 596 0350 83F84350 		strb	r5, [r3, #67]
 597              	.LBB209:
 598              	.LBB205:
 437:..\..\..\lvgl\version_6.1.2\lvgl\src\lv_core\../lv_misc/lv_color.h ****     LV_COLOR_SET_G(ret, (uint16_t)((uint16_t) LV_COLOR_GET_G(c1) * mix + LV_COLOR_GET_G(c2) * (255 
 599              		.loc 2 437 0
 600 0354 18FB02F8 		smulbb	r8, r8, r2
 601              		.loc 2 438 0
 602 0358 1EFB02FE 		smulbb	lr, lr, r2
 603              	.LBE205:
 604              	.LBE209:
 266:..\..\..\lvgl\version_6.1.2\lvgl\src\lv_core/lv_style.c ****     res->line.color        = lv_color_mix(end->line.color, start->line.color, opa);
 605              		.loc 1 266 0
 606 035c 16FB02F6 		smulbb	r6, r6, r2
 607              	.LBB210:
 608              	.LBB206:
 437:..\..\..\lvgl\version_6.1.2\lvgl\src\lv_core\../lv_misc/lv_color.h ****     LV_COLOR_SET_G(ret, (uint16_t)((uint16_t) LV_COLOR_GET_G(c1) * mix + LV_COLOR_GET_G(c2) * (255 
 609              		.loc 2 437 0
 610 0360 09FB0188 		mla	r8, r9, r1, r8
 611              		.loc 2 438 0
 612 0364 0CFB01EE 		mla	lr, ip, r1, lr
 613              	.LBE206:
 614              	.LBE210:
ARM GAS  C:\Users\pearlstl\AppData\Local\Temp\ccvteysW.s 			page 27


 266:..\..\..\lvgl\version_6.1.2\lvgl\src\lv_core/lv_style.c ****     res->line.color        = lv_color_mix(end->line.color, start->line.color, opa);
 615              		.loc 1 266 0
 616 0368 07FB0166 		mla	r6, r7, r1, r6
 617              	.LBB211:
 618              	.LBB207:
 437:..\..\..\lvgl\version_6.1.2\lvgl\src\lv_core\../lv_misc/lv_color.h ****     LV_COLOR_SET_G(ret, (uint16_t)((uint16_t) LV_COLOR_GET_G(c1) * mix + LV_COLOR_GET_G(c2) * (255 
 619              		.loc 2 437 0
 620 036c C8F3072C 		ubfx	ip, r8, #8, #8
 621              	.LVL19:
 622              		.loc 2 438 0
 623 0370 CEF30727 		ubfx	r7, lr, #8, #8
 624              	.LVL20:
 625              	.LBE207:
 626              	.LBE211:
 266:..\..\..\lvgl\version_6.1.2\lvgl\src\lv_core/lv_style.c ****     res->line.color        = lv_color_mix(end->line.color, start->line.color, opa);
 627              		.loc 1 266 0
 628 0374 C6F30726 		ubfx	r6, r6, #8, #8
 629 0378 83F842C0 		strb	ip, [r3, #66]
 630 037c 83F84170 		strb	r7, [r3, #65]
 631 0380 83F84060 		strb	r6, [r3, #64]
 632              	.LBB212:
 633              	.LBB213:
 437:..\..\..\lvgl\version_6.1.2\lvgl\src\lv_core\../lv_misc/lv_color.h ****     LV_COLOR_SET_G(ret, (uint16_t)((uint16_t) LV_COLOR_GET_G(c1) * mix + LV_COLOR_GET_G(c2) * (255 
 634              		.loc 2 437 0
 635 0384 90F89A60 		ldrb	r6, [r0, #154]	@ zero_extendqisi2
 636 0388 90F84A80 		ldrb	r8, [r0, #74]	@ zero_extendqisi2
 637              		.loc 2 438 0
 638 038c 90F89970 		ldrb	r7, [r0, #153]	@ zero_extendqisi2
 639 0390 90F849E0 		ldrb	lr, [r0, #73]	@ zero_extendqisi2
 640              	.LBE213:
 641              	.LBE212:
 267:..\..\..\lvgl\version_6.1.2\lvgl\src\lv_core/lv_style.c **** 
 642              		.loc 1 267 0
 643 0394 90F898C0 		ldrb	ip, [r0, #152]	@ zero_extendqisi2
 644 0398 90F84890 		ldrb	r9, [r0, #72]	@ zero_extendqisi2
 645 039c 83F84B50 		strb	r5, [r3, #75]
 646              	.LBB218:
 647              	.LBB214:
 648              		.loc 2 438 0
 649 03a0 1EFB02FE 		smulbb	lr, lr, r2
 437:..\..\..\lvgl\version_6.1.2\lvgl\src\lv_core\../lv_misc/lv_color.h ****     LV_COLOR_SET_G(ret, (uint16_t)((uint16_t) LV_COLOR_GET_G(c1) * mix + LV_COLOR_GET_G(c2) * (255 
 650              		.loc 2 437 0
 651 03a4 18FB02F5 		smulbb	r5, r8, r2
 652              	.LBE214:
 653              	.LBE218:
 267:..\..\..\lvgl\version_6.1.2\lvgl\src\lv_core/lv_style.c **** 
 654              		.loc 1 267 0
 655 03a8 19FB02F2 		smulbb	r2, r9, r2
 656              	.LBB219:
 657              	.LBB215:
 437:..\..\..\lvgl\version_6.1.2\lvgl\src\lv_core\../lv_misc/lv_color.h ****     LV_COLOR_SET_G(ret, (uint16_t)((uint16_t) LV_COLOR_GET_G(c1) * mix + LV_COLOR_GET_G(c2) * (255 
 658              		.loc 2 437 0
 659 03ac 06FB0155 		mla	r5, r6, r1, r5
 660              		.loc 2 438 0
 661 03b0 07FB01E6 		mla	r6, r7, r1, lr
 662              	.LBE215:
 663              	.LBE219:
ARM GAS  C:\Users\pearlstl\AppData\Local\Temp\ccvteysW.s 			page 28


 267:..\..\..\lvgl\version_6.1.2\lvgl\src\lv_core/lv_style.c **** 
 664              		.loc 1 267 0
 665 03b4 0CFB0121 		mla	r1, ip, r1, r2
 666 03b8 C1F30721 		ubfx	r1, r1, #8, #8
 667              	.LBB220:
 668              	.LBB216:
 437:..\..\..\lvgl\version_6.1.2\lvgl\src\lv_core\../lv_misc/lv_color.h ****     LV_COLOR_SET_G(ret, (uint16_t)((uint16_t) LV_COLOR_GET_G(c1) * mix + LV_COLOR_GET_G(c2) * (255 
 669              		.loc 2 437 0
 670 03bc C5F30722 		ubfx	r2, r5, #8, #8
 671              	.LVL21:
 672              	.LBE216:
 673              	.LBE220:
 269:..\..\..\lvgl\version_6.1.2\lvgl\src\lv_core/lv_style.c ****         res->body.border.part = start->body.border.part;
 674              		.loc 1 269 0
 675 03c0 7F2C     		cmp	r4, #127
 676              	.LBB221:
 677              	.LBB217:
 678              		.loc 2 438 0
 679 03c2 C6F30725 		ubfx	r5, r6, #8, #8
 680              	.LVL22:
 681              	.LBE217:
 682              	.LBE221:
 267:..\..\..\lvgl\version_6.1.2\lvgl\src\lv_core/lv_style.c **** 
 683              		.loc 1 267 0
 684 03c6 83F84950 		strb	r5, [r3, #73]
 685 03ca 83F84A20 		strb	r2, [r3, #74]
 686 03ce 83F84810 		strb	r1, [r3, #72]
 269:..\..\..\lvgl\version_6.1.2\lvgl\src\lv_core/lv_style.c ****         res->body.border.part = start->body.border.part;
 687              		.loc 1 269 0
 688 03d2 1CD9     		bls	.L31
 689              	.LVL23:
 276:..\..\..\lvgl\version_6.1.2\lvgl\src\lv_core/lv_style.c ****         res->glass            = end->glass;
 690              		.loc 1 276 0
 691 03d4 90F86620 		ldrb	r2, [r0, #102]	@ zero_extendqisi2
 692 03d8 9A75     		strb	r2, [r3, #22]
 277:..\..\..\lvgl\version_6.1.2\lvgl\src\lv_core/lv_style.c ****         res->text.font        = end->text.font;
 693              		.loc 1 277 0
 694 03da 90F85040 		ldrb	r4, [r0, #80]	@ zero_extendqisi2
 695              	.LVL24:
 696 03de 1978     		ldrb	r1, [r3]	@ zero_extendqisi2
 280:..\..\..\lvgl\version_6.1.2\lvgl\src\lv_core/lv_style.c ****     }
 697              		.loc 1 280 0
 698 03e0 93F84F20 		ldrb	r2, [r3, #79]	@ zero_extendqisi2
 277:..\..\..\lvgl\version_6.1.2\lvgl\src\lv_core/lv_style.c ****         res->text.font        = end->text.font;
 699              		.loc 1 277 0
 700 03e4 64F30001 		bfi	r1, r4, #0, #1
 701 03e8 1970     		strb	r1, [r3]
 278:..\..\..\lvgl\version_6.1.2\lvgl\src\lv_core/lv_style.c ****         res->body.shadow.type = end->body.shadow.type;
 702              		.loc 1 278 0
 703 03ea D0F88410 		ldr	r1, [r0, #132]
 704 03ee 5963     		str	r1, [r3, #52]
 279:..\..\..\lvgl\version_6.1.2\lvgl\src\lv_core/lv_style.c ****         res->line.rounded     = end->line.rounded;
 705              		.loc 1 279 0
 706 03f0 90F86E10 		ldrb	r1, [r0, #110]	@ zero_extendqisi2
 707 03f4 9977     		strb	r1, [r3, #30]
 280:..\..\..\lvgl\version_6.1.2\lvgl\src\lv_core/lv_style.c ****     }
 708              		.loc 1 280 0
ARM GAS  C:\Users\pearlstl\AppData\Local\Temp\ccvteysW.s 			page 29


 709 03f6 90F89F10 		ldrb	r1, [r0, #159]	@ zero_extendqisi2
 710 03fa 61F30002 		bfi	r2, r1, #0, #1
 711 03fe 83F84F20 		strb	r2, [r3, #79]
 712              	.LBE223:
 713              	.LBE227:
 334:..\..\..\lvgl\version_6.1.2\lvgl\src\lv_core/lv_style.c **** }
 714              		.loc 1 334 0
 715 0402 D0F8A000 		ldr	r0, [r0, #160]
 716              	.LVL25:
 335:..\..\..\lvgl\version_6.1.2\lvgl\src\lv_core/lv_style.c **** 
 717              		.loc 1 335 0
 718 0406 BDE8F043 		pop	{r4, r5, r6, r7, r8, r9, lr}
 719              		.cfi_remember_state
 720              		.cfi_restore 14
 721              		.cfi_restore 9
 722              		.cfi_restore 8
 723              		.cfi_restore 7
 724              		.cfi_restore 6
 725              		.cfi_restore 5
 726              		.cfi_restore 4
 727              		.cfi_def_cfa_offset 0
 334:..\..\..\lvgl\version_6.1.2\lvgl\src\lv_core/lv_style.c **** }
 728              		.loc 1 334 0
 729 040a FFF7FEBF 		b	lv_obj_report_style_mod
 730              	.LVL26:
 731              	.L31:
 732              		.cfi_restore_state
 733              	.LBB228:
 734              	.LBB224:
 270:..\..\..\lvgl\version_6.1.2\lvgl\src\lv_core/lv_style.c ****         res->glass            = start->glass;
 735              		.loc 1 270 0
 736 040e 827D     		ldrb	r2, [r0, #22]	@ zero_extendqisi2
 737 0410 9A75     		strb	r2, [r3, #22]
 271:..\..\..\lvgl\version_6.1.2\lvgl\src\lv_core/lv_style.c ****         res->text.font        = start->text.font;
 738              		.loc 1 271 0
 739 0412 0478     		ldrb	r4, [r0]	@ zero_extendqisi2
 740              	.LVL27:
 741 0414 1978     		ldrb	r1, [r3]	@ zero_extendqisi2
 274:..\..\..\lvgl\version_6.1.2\lvgl\src\lv_core/lv_style.c ****     } else {
 742              		.loc 1 274 0
 743 0416 93F84F20 		ldrb	r2, [r3, #79]	@ zero_extendqisi2
 271:..\..\..\lvgl\version_6.1.2\lvgl\src\lv_core/lv_style.c ****         res->text.font        = start->text.font;
 744              		.loc 1 271 0
 745 041a 64F30001 		bfi	r1, r4, #0, #1
 746 041e 1970     		strb	r1, [r3]
 272:..\..\..\lvgl\version_6.1.2\lvgl\src\lv_core/lv_style.c ****         res->body.shadow.type = start->body.shadow.type;
 747              		.loc 1 272 0
 748 0420 416B     		ldr	r1, [r0, #52]
 749 0422 5963     		str	r1, [r3, #52]
 273:..\..\..\lvgl\version_6.1.2\lvgl\src\lv_core/lv_style.c ****         res->line.rounded     = start->line.rounded;
 750              		.loc 1 273 0
 751 0424 817F     		ldrb	r1, [r0, #30]	@ zero_extendqisi2
 752 0426 9977     		strb	r1, [r3, #30]
 274:..\..\..\lvgl\version_6.1.2\lvgl\src\lv_core/lv_style.c ****     } else {
 753              		.loc 1 274 0
 754 0428 90F84F10 		ldrb	r1, [r0, #79]	@ zero_extendqisi2
 755 042c 61F30002 		bfi	r2, r1, #0, #1
ARM GAS  C:\Users\pearlstl\AppData\Local\Temp\ccvteysW.s 			page 30


 756 0430 83F84F20 		strb	r2, [r3, #79]
 757              	.LVL28:
 758              	.LBE224:
 759              	.LBE228:
 334:..\..\..\lvgl\version_6.1.2\lvgl\src\lv_core/lv_style.c **** }
 760              		.loc 1 334 0
 761 0434 D0F8A000 		ldr	r0, [r0, #160]
 762              	.LVL29:
 335:..\..\..\lvgl\version_6.1.2\lvgl\src\lv_core/lv_style.c **** 
 763              		.loc 1 335 0
 764 0438 BDE8F043 		pop	{r4, r5, r6, r7, r8, r9, lr}
 765              		.cfi_remember_state
 766              		.cfi_restore 4
 767              		.cfi_restore 5
 768              		.cfi_restore 6
 769              		.cfi_restore 7
 770              		.cfi_restore 8
 771              		.cfi_restore 9
 772              		.cfi_restore 14
 773              		.cfi_def_cfa_offset 0
 334:..\..\..\lvgl\version_6.1.2\lvgl\src\lv_core/lv_style.c **** }
 774              		.loc 1 334 0
 775 043c FFF7FEBF 		b	lv_obj_report_style_mod
 776              	.LVL30:
 777              	.L29:
 778              		.cfi_restore_state
 779              	.LBB229:
 780              	.LBB225:
 259:..\..\..\lvgl\version_6.1.2\lvgl\src\lv_core/lv_style.c **** 
 781              		.loc 1 259 0
 782 0440 0022     		movs	r2, #0
 783 0442 FF21     		movs	r1, #255
 784              	.LVL31:
 785 0444 CAE6     		b	.L26
 786              	.LBE225:
 787              	.LBE229:
 788              		.cfi_endproc
 789              	.LFE36:
 790              		.size	style_animator, .-style_animator
 791 0446 00BF     		.section	.text.lv_style_init,"ax",%progbits
 792              		.align	2
 793              		.global	lv_style_init
 794              		.thumb
 795              		.thumb_func
 796              		.type	lv_style_init, %function
 797              	lv_style_init:
 798              	.LFB31:
  69:..\..\..\lvgl\version_6.1.2\lvgl\src\lv_core/lv_style.c ****     /* Not White/Black/Gray colors are created by HSV model with
 799              		.loc 1 69 0
 800              		.cfi_startproc
 801              		@ args = 0, pretend = 0, frame = 8
 802              		@ frame_needed = 0, uses_anonymous_args = 0
 803 0000 2DE9F04F 		push	{r4, r5, r6, r7, r8, r9, r10, fp, lr}
 804              		.cfi_def_cfa_offset 36
 805              		.cfi_offset 4, -36
 806              		.cfi_offset 5, -32
 807              		.cfi_offset 6, -28
ARM GAS  C:\Users\pearlstl\AppData\Local\Temp\ccvteysW.s 			page 31


 808              		.cfi_offset 7, -24
 809              		.cfi_offset 8, -20
 810              		.cfi_offset 9, -16
 811              		.cfi_offset 10, -12
 812              		.cfi_offset 11, -8
 813              		.cfi_offset 14, -4
  74:..\..\..\lvgl\version_6.1.2\lvgl\src\lv_core/lv_style.c ****     lv_style_scr.body.opa            = LV_OPA_COVER;
 814              		.loc 1 74 0
 815 0004 F24A     		ldr	r2, .L34
 816              	.LBB230:
 817              	.LBB231:
 229:..\..\..\lvgl\version_6.1.2\lvgl\src\lv_core/lv_style.c **** }
 818              		.loc 1 229 0
 819 0006 DFF8EC93 		ldr	r9, .L34+36
 820              	.LBE231:
 821              	.LBE230:
  74:..\..\..\lvgl\version_6.1.2\lvgl\src\lv_core/lv_style.c ****     lv_style_scr.body.opa            = LV_OPA_COVER;
 822              		.loc 1 74 0
 823 000a 1178     		ldrb	r1, [r2]	@ zero_extendqisi2
  97:..\..\..\lvgl\version_6.1.2\lvgl\src\lv_core/lv_style.c ****     lv_style_scr.text.letter_space = 0;
 824              		.loc 1 97 0
 825 000c DFF8E8E3 		ldr	lr, .L34+40
 826              	.LBB234:
 827              	.LBB235:
 229:..\..\..\lvgl\version_6.1.2\lvgl\src\lv_core/lv_style.c **** }
 828              		.loc 1 229 0
 829 0010 F04F     		ldr	r7, .L34+4
 830              	.LBE235:
 831              	.LBE234:
 832              	.LBB238:
 833              	.LBB239:
 834 0012 F14D     		ldr	r5, .L34+8
 835              	.LBE239:
 836              	.LBE238:
 837              	.LBB242:
 838              	.LBB243:
 839 0014 F14E     		ldr	r6, .L34+12
 840              	.LBE243:
 841              	.LBE242:
  74:..\..\..\lvgl\version_6.1.2\lvgl\src\lv_core/lv_style.c ****     lv_style_scr.body.opa            = LV_OPA_COVER;
 842              		.loc 1 74 0
 843 0016 6FF30001 		bfc	r1, #0, #1
 844 001a 1170     		strb	r1, [r2]
  83:..\..\..\lvgl\version_6.1.2\lvgl\src\lv_core/lv_style.c **** 
 845              		.loc 1 83 0
 846 001c 4FF00701 		mov	r1, #7	@ movhi
 847 0020 1185     		strh	r1, [r2, #40]	@ movhi
  88:..\..\..\lvgl\version_6.1.2\lvgl\src\lv_core/lv_style.c **** 
 848              		.loc 1 88 0
 849 0022 4FF00F01 		mov	r1, #15
 850 0026 9175     		strb	r1, [r2, #22]
  90:..\..\..\lvgl\version_6.1.2\lvgl\src\lv_core/lv_style.c ****     lv_style_scr.body.shadow.type  = LV_SHADOW_FULL;
 851              		.loc 1 90 0
 852 0028 6FF07F01 		mvn	r1, #127
  75:..\..\..\lvgl\version_6.1.2\lvgl\src\lv_core/lv_style.c ****     lv_style_scr.body.main_color     = LV_COLOR_WHITE;
 853              		.loc 1 75 0
 854 002c FF24     		movs	r4, #255
ARM GAS  C:\Users\pearlstl\AppData\Local\Temp\ccvteysW.s 			page 32


  78:..\..\..\lvgl\version_6.1.2\lvgl\src\lv_core/lv_style.c ****     lv_style_scr.body.padding.left   = 0;
 855              		.loc 1 78 0
 856 002e 4FF00008 		mov	r8, #0
  95:..\..\..\lvgl\version_6.1.2\lvgl\src\lv_core/lv_style.c ****     lv_style_scr.text.sel_color    = lv_color_make(0x55, 0x96, 0xd8);
 857              		.loc 1 95 0
 858 0032 3023     		movs	r3, #48
  90:..\..\..\lvgl\version_6.1.2\lvgl\src\lv_core/lv_style.c ****     lv_style_scr.body.shadow.type  = LV_SHADOW_FULL;
 859              		.loc 1 90 0
 860 0034 1176     		strb	r1, [r2, #24]
 861 0036 5176     		strb	r1, [r2, #25]
 862 0038 9176     		strb	r1, [r2, #26]
  91:..\..\..\lvgl\version_6.1.2\lvgl\src\lv_core/lv_style.c ****     lv_style_scr.body.shadow.width = 0;
 863              		.loc 1 91 0
 864 003a 4FF00101 		mov	r1, #1
  69:..\..\..\lvgl\version_6.1.2\lvgl\src\lv_core/lv_style.c ****     /* Not White/Black/Gray colors are created by HSV model with
 865              		.loc 1 69 0
 866 003e 83B0     		sub	sp, sp, #12
 867              		.cfi_def_cfa_offset 48
  75:..\..\..\lvgl\version_6.1.2\lvgl\src\lv_core/lv_style.c ****     lv_style_scr.body.main_color     = LV_COLOR_WHITE;
 868              		.loc 1 75 0
 869 0040 9473     		strb	r4, [r2, #14]
  76:..\..\..\lvgl\version_6.1.2\lvgl\src\lv_core/lv_style.c ****     lv_style_scr.body.grad_color     = LV_COLOR_WHITE;
 870              		.loc 1 76 0
 871 0042 1471     		strb	r4, [r2, #4]
 872 0044 5471     		strb	r4, [r2, #5]
 873 0046 9471     		strb	r4, [r2, #6]
 874 0048 D471     		strb	r4, [r2, #7]
  77:..\..\..\lvgl\version_6.1.2\lvgl\src\lv_core/lv_style.c ****     lv_style_scr.body.radius         = 0;
 875              		.loc 1 77 0
 876 004a 1472     		strb	r4, [r2, #8]
 877 004c 5472     		strb	r4, [r2, #9]
 878 004e 9472     		strb	r4, [r2, #10]
 879 0050 D472     		strb	r4, [r2, #11]
  85:..\..\..\lvgl\version_6.1.2\lvgl\src\lv_core/lv_style.c ****     lv_style_scr.body.border.opa   = LV_OPA_COVER;
 880              		.loc 1 85 0
 881 0052 D474     		strb	r4, [r2, #19]
  86:..\..\..\lvgl\version_6.1.2\lvgl\src\lv_core/lv_style.c ****     lv_style_scr.body.border.width = 0;
 882              		.loc 1 86 0
 883 0054 D475     		strb	r4, [r2, #23]
  90:..\..\..\lvgl\version_6.1.2\lvgl\src\lv_core/lv_style.c ****     lv_style_scr.body.shadow.type  = LV_SHADOW_FULL;
 884              		.loc 1 90 0
 885 0056 D476     		strb	r4, [r2, #27]
  94:..\..\..\lvgl\version_6.1.2\lvgl\src\lv_core/lv_style.c ****     lv_style_scr.text.color        = lv_color_make(0x30, 0x30, 0x30);
 886              		.loc 1 94 0
 887 0058 82F83C40 		strb	r4, [r2, #60]
  78:..\..\..\lvgl\version_6.1.2\lvgl\src\lv_core/lv_style.c ****     lv_style_scr.body.padding.left   = 0;
 888              		.loc 1 78 0
 889 005c A2F80C80 		strh	r8, [r2, #12]	@ movhi
  79:..\..\..\lvgl\version_6.1.2\lvgl\src\lv_core/lv_style.c ****     lv_style_scr.body.padding.right  = 0;
 890              		.loc 1 79 0
 891 0060 A2F82480 		strh	r8, [r2, #36]	@ movhi
  80:..\..\..\lvgl\version_6.1.2\lvgl\src\lv_core/lv_style.c ****     lv_style_scr.body.padding.top    = 0;
 892              		.loc 1 80 0
 893 0064 A2F82680 		strh	r8, [r2, #38]	@ movhi
  81:..\..\..\lvgl\version_6.1.2\lvgl\src\lv_core/lv_style.c ****     lv_style_scr.body.padding.bottom = 0;
 894              		.loc 1 81 0
 895 0068 A2F82080 		strh	r8, [r2, #32]	@ movhi
ARM GAS  C:\Users\pearlstl\AppData\Local\Temp\ccvteysW.s 			page 33


  82:..\..\..\lvgl\version_6.1.2\lvgl\src\lv_core/lv_style.c ****     lv_style_scr.body.padding.inner  = LV_DPI / 20;
 896              		.loc 1 82 0
 897 006c A2F82280 		strh	r8, [r2, #34]	@ movhi
  85:..\..\..\lvgl\version_6.1.2\lvgl\src\lv_core/lv_style.c ****     lv_style_scr.body.border.opa   = LV_OPA_COVER;
 898              		.loc 1 85 0
 899 0070 82F81080 		strb	r8, [r2, #16]
 900 0074 82F81180 		strb	r8, [r2, #17]
 901 0078 82F81280 		strb	r8, [r2, #18]
  87:..\..\..\lvgl\version_6.1.2\lvgl\src\lv_core/lv_style.c ****     lv_style_scr.body.border.part  = LV_BORDER_FULL;
 902              		.loc 1 87 0
 903 007c A2F81480 		strh	r8, [r2, #20]	@ movhi
  92:..\..\..\lvgl\version_6.1.2\lvgl\src\lv_core/lv_style.c **** 
 904              		.loc 1 92 0
 905 0080 A2F81C80 		strh	r8, [r2, #28]	@ movhi
  91:..\..\..\lvgl\version_6.1.2\lvgl\src\lv_core/lv_style.c ****     lv_style_scr.body.shadow.width = 0;
 906              		.loc 1 91 0
 907 0084 9177     		strb	r1, [r2, #30]
  95:..\..\..\lvgl\version_6.1.2\lvgl\src\lv_core/lv_style.c ****     lv_style_scr.text.sel_color    = lv_color_make(0x55, 0x96, 0xd8);
 908              		.loc 1 95 0
 909 0086 82F82C30 		strb	r3, [r2, #44]
 108:..\..\..\lvgl\version_6.1.2\lvgl\src\lv_core/lv_style.c **** 
 910              		.loc 1 108 0
 911 008a 92F84F00 		ldrb	r0, [r2, #79]	@ zero_extendqisi2
  95:..\..\..\lvgl\version_6.1.2\lvgl\src\lv_core/lv_style.c ****     lv_style_scr.text.sel_color    = lv_color_make(0x55, 0x96, 0xd8);
 912              		.loc 1 95 0
 913 008e 82F82D30 		strb	r3, [r2, #45]
 914 0092 82F82E30 		strb	r3, [r2, #46]
  96:..\..\..\lvgl\version_6.1.2\lvgl\src\lv_core/lv_style.c ****     lv_style_scr.text.font         = LV_FONT_DEFAULT;
 915              		.loc 1 96 0
 916 0096 9623     		movs	r3, #150
 102:..\..\..\lvgl\version_6.1.2\lvgl\src\lv_core/lv_style.c ****     lv_style_scr.image.intense = LV_OPA_TRANSP;
 917              		.loc 1 102 0
 918 0098 4FF0200A 		mov	r10, #32
 108:..\..\..\lvgl\version_6.1.2\lvgl\src\lv_core/lv_style.c **** 
 919              		.loc 1 108 0
 920 009c 68F30000 		bfi	r0, r8, #0, #1
  96:..\..\..\lvgl\version_6.1.2\lvgl\src\lv_core/lv_style.c ****     lv_style_scr.text.font         = LV_FONT_DEFAULT;
 921              		.loc 1 96 0
 922 00a0 4FF0550B 		mov	fp, #85
  97:..\..\..\lvgl\version_6.1.2\lvgl\src\lv_core/lv_style.c ****     lv_style_scr.text.letter_space = 0;
 923              		.loc 1 97 0
 924 00a4 C2F834E0 		str	lr, [r2, #52]
  96:..\..\..\lvgl\version_6.1.2\lvgl\src\lv_core/lv_style.c ****     lv_style_scr.text.font         = LV_FONT_DEFAULT;
 925              		.loc 1 96 0
 926 00a8 82F83130 		strb	r3, [r2, #49]
 927 00ac 6FF0270E 		mvn	lr, #39
 928 00b0 0193     		str	r3, [sp, #4]
  99:..\..\..\lvgl\version_6.1.2\lvgl\src\lv_core/lv_style.c **** 
 929              		.loc 1 99 0
 930 00b2 4FF00203 		mov	r3, #2	@ movhi
  96:..\..\..\lvgl\version_6.1.2\lvgl\src\lv_core/lv_style.c ****     lv_style_scr.text.font         = LV_FONT_DEFAULT;
 931              		.loc 1 96 0
 932 00b6 82F830E0 		strb	lr, [r2, #48]
 933              	.LBB248:
 934              	.LBB232:
 229:..\..\..\lvgl\version_6.1.2\lvgl\src\lv_core/lv_style.c **** }
 935              		.loc 1 229 0
ARM GAS  C:\Users\pearlstl\AppData\Local\Temp\ccvteysW.s 			page 34


 936 00ba 1146     		mov	r1, r2
 937              	.LBE232:
 938              	.LBE248:
  95:..\..\..\lvgl\version_6.1.2\lvgl\src\lv_core/lv_style.c ****     lv_style_scr.text.sel_color    = lv_color_make(0x55, 0x96, 0xd8);
 939              		.loc 1 95 0
 940 00bc 82F82F40 		strb	r4, [r2, #47]
  96:..\..\..\lvgl\version_6.1.2\lvgl\src\lv_core/lv_style.c ****     lv_style_scr.text.font         = LV_FONT_DEFAULT;
 941              		.loc 1 96 0
 942 00c0 82F83340 		strb	r4, [r2, #51]
  98:..\..\..\lvgl\version_6.1.2\lvgl\src\lv_core/lv_style.c ****     lv_style_scr.text.line_space   = 2;
 943              		.loc 1 98 0
 944 00c4 A2F83880 		strh	r8, [r2, #56]	@ movhi
 101:..\..\..\lvgl\version_6.1.2\lvgl\src\lv_core/lv_style.c ****     lv_style_scr.image.color   = lv_color_make(0x20, 0x20, 0x20);
 945              		.loc 1 101 0
 946 00c8 82F84540 		strb	r4, [r2, #69]
 102:..\..\..\lvgl\version_6.1.2\lvgl\src\lv_core/lv_style.c ****     lv_style_scr.image.intense = LV_OPA_TRANSP;
 947              		.loc 1 102 0
 948 00cc 82F84340 		strb	r4, [r2, #67]
 103:..\..\..\lvgl\version_6.1.2\lvgl\src\lv_core/lv_style.c **** 
 949              		.loc 1 103 0
 950 00d0 82F84480 		strb	r8, [r2, #68]
 105:..\..\..\lvgl\version_6.1.2\lvgl\src\lv_core/lv_style.c ****     lv_style_scr.line.color   = lv_color_make(0x20, 0x20, 0x20);
 951              		.loc 1 105 0
 952 00d4 82F84E40 		strb	r4, [r2, #78]
 106:..\..\..\lvgl\version_6.1.2\lvgl\src\lv_core/lv_style.c ****     lv_style_scr.line.width   = 2;
 953              		.loc 1 106 0
 954 00d8 82F84B40 		strb	r4, [r2, #75]
 108:..\..\..\lvgl\version_6.1.2\lvgl\src\lv_core/lv_style.c **** 
 955              		.loc 1 108 0
 956 00dc 82F84F00 		strb	r0, [r2, #79]
 957              	.LVL32:
  96:..\..\..\lvgl\version_6.1.2\lvgl\src\lv_core/lv_style.c ****     lv_style_scr.text.font         = LV_FONT_DEFAULT;
 958              		.loc 1 96 0
 959 00e0 82F832B0 		strb	fp, [r2, #50]
  99:..\..\..\lvgl\version_6.1.2\lvgl\src\lv_core/lv_style.c **** 
 960              		.loc 1 99 0
 961 00e4 5387     		strh	r3, [r2, #58]	@ movhi
 107:..\..\..\lvgl\version_6.1.2\lvgl\src\lv_core/lv_style.c ****     lv_style_scr.line.rounded = 0;
 962              		.loc 1 107 0
 963 00e6 A2F84C30 		strh	r3, [r2, #76]	@ movhi
 102:..\..\..\lvgl\version_6.1.2\lvgl\src\lv_core/lv_style.c ****     lv_style_scr.image.intense = LV_OPA_TRANSP;
 964              		.loc 1 102 0
 965 00ea 82F840A0 		strb	r10, [r2, #64]
 966 00ee 82F841A0 		strb	r10, [r2, #65]
 967 00f2 82F842A0 		strb	r10, [r2, #66]
 106:..\..\..\lvgl\version_6.1.2\lvgl\src\lv_core/lv_style.c ****     lv_style_scr.line.width   = 2;
 968              		.loc 1 106 0
 969 00f6 82F848A0 		strb	r10, [r2, #72]
 970 00fa 82F849A0 		strb	r10, [r2, #73]
 971 00fe 82F84AA0 		strb	r10, [r2, #74]
 972              	.LBB249:
 973              	.LBB233:
 229:..\..\..\lvgl\version_6.1.2\lvgl\src\lv_core/lv_style.c **** }
 974              		.loc 1 229 0
 975 0102 4846     		mov	r0, r9
 976 0104 5022     		movs	r2, #80
 977 0106 FFF7FEFF 		bl	memcpy
ARM GAS  C:\Users\pearlstl\AppData\Local\Temp\ccvteysW.s 			page 35


 978              	.LVL33:
 979              	.LBE233:
 980              	.LBE249:
 118:..\..\..\lvgl\version_6.1.2\lvgl\src\lv_core/lv_style.c ****     lv_style_plain.body.padding.right  = LV_DPI / 20;
 981              		.loc 1 118 0
 982 010a 4FF00703 		mov	r3, #7	@ movhi
 983              	.LBB250:
 984              	.LBB236:
 229:..\..\..\lvgl\version_6.1.2\lvgl\src\lv_core/lv_style.c **** }
 985              		.loc 1 229 0
 986 010e 4946     		mov	r1, r9
 987 0110 5022     		movs	r2, #80
 988 0112 3846     		mov	r0, r7
 989              	.LBE236:
 990              	.LBE250:
 118:..\..\..\lvgl\version_6.1.2\lvgl\src\lv_core/lv_style.c ****     lv_style_plain.body.padding.right  = LV_DPI / 20;
 991              		.loc 1 118 0
 992 0114 A9F82430 		strh	r3, [r9, #36]	@ movhi
 119:..\..\..\lvgl\version_6.1.2\lvgl\src\lv_core/lv_style.c ****     lv_style_plain.body.padding.top    = LV_DPI / 20;
 993              		.loc 1 119 0
 994 0118 A9F82630 		strh	r3, [r9, #38]	@ movhi
 120:..\..\..\lvgl\version_6.1.2\lvgl\src\lv_core/lv_style.c ****     lv_style_plain.body.padding.bottom = LV_DPI / 20;
 995              		.loc 1 120 0
 996 011c A9F82030 		strh	r3, [r9, #32]	@ movhi
 121:..\..\..\lvgl\version_6.1.2\lvgl\src\lv_core/lv_style.c **** 
 997              		.loc 1 121 0
 998 0120 A9F82230 		strh	r3, [r9, #34]	@ movhi
 999              	.LVL34:
 1000              	.LBB251:
 1001              	.LBB237:
 229:..\..\..\lvgl\version_6.1.2\lvgl\src\lv_core/lv_style.c **** }
 1002              		.loc 1 229 0
 1003 0124 FFF7FEFF 		bl	memcpy
 1004              	.LVL35:
 1005              	.LBE237:
 1006              	.LBE251:
 128:..\..\..\lvgl\version_6.1.2\lvgl\src\lv_core/lv_style.c ****     lv_style_plain_color.body.grad_color = lv_style_plain_color.body.main_color;
 1007              		.loc 1 128 0
 1008 0128 019B     		ldr	r3, [sp, #4]
 1009 012a 7B71     		strb	r3, [r7, #5]
 1010 012c 6FF02703 		mvn	r3, #39
 1011 0130 3B71     		strb	r3, [r7, #4]
 1012 0132 87F806B0 		strb	fp, [r7, #6]
 1013 0136 FC71     		strb	r4, [r7, #7]
 125:..\..\..\lvgl\version_6.1.2\lvgl\src\lv_core/lv_style.c ****     lv_style_plain_color.image.color     = lv_color_make(0xf0, 0xf0, 0xf0);
 1014              		.loc 1 125 0
 1015 0138 F023     		movs	r3, #240
 129:..\..\..\lvgl\version_6.1.2\lvgl\src\lv_core/lv_style.c **** 
 1016              		.loc 1 129 0
 1017 013a 7868     		ldr	r0, [r7, #4]
 125:..\..\..\lvgl\version_6.1.2\lvgl\src\lv_core/lv_style.c ****     lv_style_plain_color.image.color     = lv_color_make(0xf0, 0xf0, 0xf0);
 1018              		.loc 1 125 0
 1019 013c 87F82F40 		strb	r4, [r7, #47]
 1020              	.LBB252:
 1021              	.LBB240:
 229:..\..\..\lvgl\version_6.1.2\lvgl\src\lv_core/lv_style.c **** }
 1022              		.loc 1 229 0
ARM GAS  C:\Users\pearlstl\AppData\Local\Temp\ccvteysW.s 			page 36


 1023 0140 4946     		mov	r1, r9
 1024              	.LBE240:
 1025              	.LBE252:
 126:..\..\..\lvgl\version_6.1.2\lvgl\src\lv_core/lv_style.c ****     lv_style_plain_color.line.color      = lv_color_make(0xf0, 0xf0, 0xf0);
 1026              		.loc 1 126 0
 1027 0142 87F84340 		strb	r4, [r7, #67]
 127:..\..\..\lvgl\version_6.1.2\lvgl\src\lv_core/lv_style.c ****     lv_style_plain_color.body.main_color = lv_color_make(0x55, 0x96, 0xd8);
 1028              		.loc 1 127 0
 1029 0146 87F84B40 		strb	r4, [r7, #75]
 129:..\..\..\lvgl\version_6.1.2\lvgl\src\lv_core/lv_style.c **** 
 1030              		.loc 1 129 0
 1031 014a B860     		str	r0, [r7, #8]
 1032              	.LVL36:
 125:..\..\..\lvgl\version_6.1.2\lvgl\src\lv_core/lv_style.c ****     lv_style_plain_color.image.color     = lv_color_make(0xf0, 0xf0, 0xf0);
 1033              		.loc 1 125 0
 1034 014c 87F82C30 		strb	r3, [r7, #44]
 1035 0150 87F82D30 		strb	r3, [r7, #45]
 1036 0154 87F82E30 		strb	r3, [r7, #46]
 126:..\..\..\lvgl\version_6.1.2\lvgl\src\lv_core/lv_style.c ****     lv_style_plain_color.line.color      = lv_color_make(0xf0, 0xf0, 0xf0);
 1037              		.loc 1 126 0
 1038 0158 87F84030 		strb	r3, [r7, #64]
 1039 015c 87F84130 		strb	r3, [r7, #65]
 1040 0160 87F84230 		strb	r3, [r7, #66]
 127:..\..\..\lvgl\version_6.1.2\lvgl\src\lv_core/lv_style.c ****     lv_style_plain_color.body.main_color = lv_color_make(0x55, 0x96, 0xd8);
 1041              		.loc 1 127 0
 1042 0164 87F84830 		strb	r3, [r7, #72]
 1043 0168 87F84930 		strb	r3, [r7, #73]
 1044 016c 87F84A30 		strb	r3, [r7, #74]
 1045              	.LBB253:
 1046              	.LBB241:
 229:..\..\..\lvgl\version_6.1.2\lvgl\src\lv_core/lv_style.c **** }
 1047              		.loc 1 229 0
 1048 0170 5022     		movs	r2, #80
 1049 0172 2846     		mov	r0, r5
 1050 0174 FFF7FEFF 		bl	memcpy
 1051              	.LVL37:
 1052              	.LBE241:
 1053              	.LBE253:
 139:..\..\..\lvgl\version_6.1.2\lvgl\src\lv_core/lv_style.c ****     lv_style_pretty.body.border.width = LV_DPI / 50 >= 1 ? LV_DPI / 50 : 1;
 1054              		.loc 1 139 0
 1055 0178 4023     		movs	r3, #64
 138:..\..\..\lvgl\version_6.1.2\lvgl\src\lv_core/lv_style.c ****     lv_style_pretty.body.border.color = lv_color_make(0x40, 0x40, 0x40);
 1056              		.loc 1 138 0
 1057 017a 4FF00A00 		mov	r0, #10	@ movhi
 137:..\..\..\lvgl\version_6.1.2\lvgl\src\lv_core/lv_style.c ****     lv_style_pretty.body.radius       = LV_DPI / 15;
 1058              		.loc 1 137 0
 1059 017e C027     		movs	r7, #192
 1060              	.LBB254:
 1061              	.LBB244:
 229:..\..\..\lvgl\version_6.1.2\lvgl\src\lv_core/lv_style.c **** }
 1062              		.loc 1 229 0
 1063 0180 2946     		mov	r1, r5
 1064              	.LBE244:
 1065              	.LBE254:
 133:..\..\..\lvgl\version_6.1.2\lvgl\src\lv_core/lv_style.c ****     lv_style_pretty.image.color       = lv_color_make(0x20, 0x20, 0x20);
 1066              		.loc 1 133 0
 1067 0182 85F82CA0 		strb	r10, [r5, #44]
ARM GAS  C:\Users\pearlstl\AppData\Local\Temp\ccvteysW.s 			page 37


 1068 0186 85F82DA0 		strb	r10, [r5, #45]
 1069 018a 85F82EA0 		strb	r10, [r5, #46]
 1070 018e 85F82F40 		strb	r4, [r5, #47]
 134:..\..\..\lvgl\version_6.1.2\lvgl\src\lv_core/lv_style.c ****     lv_style_pretty.line.color        = lv_color_make(0x20, 0x20, 0x20);
 1071              		.loc 1 134 0
 1072 0192 85F840A0 		strb	r10, [r5, #64]
 1073 0196 85F841A0 		strb	r10, [r5, #65]
 1074 019a 85F842A0 		strb	r10, [r5, #66]
 1075 019e 85F84340 		strb	r4, [r5, #67]
 135:..\..\..\lvgl\version_6.1.2\lvgl\src\lv_core/lv_style.c ****     lv_style_pretty.body.main_color   = LV_COLOR_WHITE;
 1076              		.loc 1 135 0
 1077 01a2 85F848A0 		strb	r10, [r5, #72]
 1078 01a6 85F849A0 		strb	r10, [r5, #73]
 1079 01aa 85F84AA0 		strb	r10, [r5, #74]
 1080 01ae 85F84B40 		strb	r4, [r5, #75]
 140:..\..\..\lvgl\version_6.1.2\lvgl\src\lv_core/lv_style.c ****     lv_style_pretty.body.border.opa   = LV_OPA_30;
 1081              		.loc 1 140 0
 1082 01b2 4FF0030A 		mov	r10, #3
 139:..\..\..\lvgl\version_6.1.2\lvgl\src\lv_core/lv_style.c ****     lv_style_pretty.body.border.width = LV_DPI / 50 >= 1 ? LV_DPI / 50 : 1;
 1083              		.loc 1 139 0
 1084 01b6 EC74     		strb	r4, [r5, #19]
 138:..\..\..\lvgl\version_6.1.2\lvgl\src\lv_core/lv_style.c ****     lv_style_pretty.body.border.color = lv_color_make(0x40, 0x40, 0x40);
 1085              		.loc 1 138 0
 1086 01b8 A881     		strh	r0, [r5, #12]	@ movhi
 139:..\..\..\lvgl\version_6.1.2\lvgl\src\lv_core/lv_style.c ****     lv_style_pretty.body.border.width = LV_DPI / 50 >= 1 ? LV_DPI / 50 : 1;
 1087              		.loc 1 139 0
 1088 01ba 2B74     		strb	r3, [r5, #16]
 1089 01bc 6B74     		strb	r3, [r5, #17]
 1090 01be AB74     		strb	r3, [r5, #18]
 1091              	.LBB255:
 1092              	.LBB245:
 229:..\..\..\lvgl\version_6.1.2\lvgl\src\lv_core/lv_style.c **** }
 1093              		.loc 1 229 0
 1094 01c0 5022     		movs	r2, #80
 1095              	.LBE245:
 1096              	.LBE255:
 141:..\..\..\lvgl\version_6.1.2\lvgl\src\lv_core/lv_style.c **** 
 1097              		.loc 1 141 0
 1098 01c2 4FF04C03 		mov	r3, #76
 1099              	.LBB256:
 1100              	.LBB246:
 229:..\..\..\lvgl\version_6.1.2\lvgl\src\lv_core/lv_style.c **** }
 1101              		.loc 1 229 0
 1102 01c6 3046     		mov	r0, r6
 1103              	.LBE246:
 1104              	.LBE256:
 136:..\..\..\lvgl\version_6.1.2\lvgl\src\lv_core/lv_style.c ****     lv_style_pretty.body.grad_color   = LV_COLOR_SILVER;
 1105              		.loc 1 136 0
 1106 01c8 2C71     		strb	r4, [r5, #4]
 1107 01ca 6C71     		strb	r4, [r5, #5]
 1108 01cc AC71     		strb	r4, [r5, #6]
 1109 01ce EC71     		strb	r4, [r5, #7]
 137:..\..\..\lvgl\version_6.1.2\lvgl\src\lv_core/lv_style.c ****     lv_style_pretty.body.radius       = LV_DPI / 15;
 1110              		.loc 1 137 0
 1111 01d0 EC72     		strb	r4, [r5, #11]
 1112 01d2 2F72     		strb	r7, [r5, #8]
 1113 01d4 6F72     		strb	r7, [r5, #9]
ARM GAS  C:\Users\pearlstl\AppData\Local\Temp\ccvteysW.s 			page 38


 1114 01d6 AF72     		strb	r7, [r5, #10]
 140:..\..\..\lvgl\version_6.1.2\lvgl\src\lv_core/lv_style.c ****     lv_style_pretty.body.border.opa   = LV_OPA_30;
 1115              		.loc 1 140 0
 1116 01d8 A5F814A0 		strh	r10, [r5, #20]	@ movhi
 141:..\..\..\lvgl\version_6.1.2\lvgl\src\lv_core/lv_style.c **** 
 1117              		.loc 1 141 0
 1118 01dc EB75     		strb	r3, [r5, #23]
 1119              	.LVL38:
 1120              	.LBB257:
 1121              	.LBB247:
 229:..\..\..\lvgl\version_6.1.2\lvgl\src\lv_core/lv_style.c **** }
 1122              		.loc 1 229 0
 1123 01de FFF7FEFF 		bl	memcpy
 1124              	.LVL39:
 1125              	.LBE247:
 1126              	.LBE257:
 148:..\..\..\lvgl\version_6.1.2\lvgl\src\lv_core/lv_style.c ****     lv_style_pretty_color.body.grad_color   = lv_color_make(0x2b, 0x59, 0x8b);
 1127              		.loc 1 148 0
 1128 01e2 6B23     		movs	r3, #107
 1129 01e4 B371     		strb	r3, [r6, #6]
 150:..\..\..\lvgl\version_6.1.2\lvgl\src\lv_core/lv_style.c **** 
 1130              		.loc 1 150 0
 1131 01e6 2C23     		movs	r3, #44
 1132              	.LBB258:
 1133              	.LBB259:
 229:..\..\..\lvgl\version_6.1.2\lvgl\src\lv_core/lv_style.c **** }
 1134              		.loc 1 229 0
 1135 01e8 DFF810B2 		ldr	fp, .L34+44
 1136              	.LBE259:
 1137              	.LBE258:
 150:..\..\..\lvgl\version_6.1.2\lvgl\src\lv_core/lv_style.c **** 
 1138              		.loc 1 150 0
 1139 01ec 7374     		strb	r3, [r6, #17]
 148:..\..\..\lvgl\version_6.1.2\lvgl\src\lv_core/lv_style.c ****     lv_style_pretty_color.body.grad_color   = lv_color_make(0x2b, 0x59, 0x8b);
 1140              		.loc 1 148 0
 1141 01ee C722     		movs	r2, #199
 145:..\..\..\lvgl\version_6.1.2\lvgl\src\lv_core/lv_style.c ****     lv_style_pretty_color.image.color       = lv_color_make(0xe0, 0xe0, 0xe0);
 1142              		.loc 1 145 0
 1143 01f0 E023     		movs	r3, #224
 148:..\..\..\lvgl\version_6.1.2\lvgl\src\lv_core/lv_style.c ****     lv_style_pretty_color.body.grad_color   = lv_color_make(0x2b, 0x59, 0x8b);
 1144              		.loc 1 148 0
 1145 01f2 9A21     		movs	r1, #154
 149:..\..\..\lvgl\version_6.1.2\lvgl\src\lv_core/lv_style.c ****     lv_style_pretty_color.body.border.color = lv_color_make(0x15, 0x2c, 0x42);
 1146              		.loc 1 149 0
 1147 01f4 8B20     		movs	r0, #139
 148:..\..\..\lvgl\version_6.1.2\lvgl\src\lv_core/lv_style.c ****     lv_style_pretty_color.body.grad_color   = lv_color_make(0x2b, 0x59, 0x8b);
 1148              		.loc 1 148 0
 1149 01f6 3271     		strb	r2, [r6, #4]
 1150 01f8 7171     		strb	r1, [r6, #5]
 149:..\..\..\lvgl\version_6.1.2\lvgl\src\lv_core/lv_style.c ****     lv_style_pretty_color.body.border.color = lv_color_make(0x15, 0x2c, 0x42);
 1151              		.loc 1 149 0
 1152 01fa 3072     		strb	r0, [r6, #8]
 145:..\..\..\lvgl\version_6.1.2\lvgl\src\lv_core/lv_style.c ****     lv_style_pretty_color.image.color       = lv_color_make(0xe0, 0xe0, 0xe0);
 1153              		.loc 1 145 0
 1154 01fc 86F82C30 		strb	r3, [r6, #44]
 1155 0200 86F82D30 		strb	r3, [r6, #45]
 1156 0204 86F82E30 		strb	r3, [r6, #46]
ARM GAS  C:\Users\pearlstl\AppData\Local\Temp\ccvteysW.s 			page 39


 146:..\..\..\lvgl\version_6.1.2\lvgl\src\lv_core/lv_style.c ****     lv_style_pretty_color.line.color        = lv_color_make(0xc0, 0xc0, 0xc0);
 1157              		.loc 1 146 0
 1158 0208 86F84030 		strb	r3, [r6, #64]
 1159 020c 86F84130 		strb	r3, [r6, #65]
 1160 0210 86F84230 		strb	r3, [r6, #66]
 149:..\..\..\lvgl\version_6.1.2\lvgl\src\lv_core/lv_style.c ****     lv_style_pretty_color.body.border.color = lv_color_make(0x15, 0x2c, 0x42);
 1161              		.loc 1 149 0
 1162 0214 5922     		movs	r2, #89
 1163 0216 4FF02B03 		mov	r3, #43
 150:..\..\..\lvgl\version_6.1.2\lvgl\src\lv_core/lv_style.c **** 
 1164              		.loc 1 150 0
 1165 021a 4221     		movs	r1, #66
 1166 021c 1520     		movs	r0, #21
 145:..\..\..\lvgl\version_6.1.2\lvgl\src\lv_core/lv_style.c ****     lv_style_pretty_color.image.color       = lv_color_make(0xe0, 0xe0, 0xe0);
 1167              		.loc 1 145 0
 1168 021e 86F82F40 		strb	r4, [r6, #47]
 146:..\..\..\lvgl\version_6.1.2\lvgl\src\lv_core/lv_style.c ****     lv_style_pretty_color.line.color        = lv_color_make(0xc0, 0xc0, 0xc0);
 1169              		.loc 1 146 0
 1170 0222 86F84340 		strb	r4, [r6, #67]
 147:..\..\..\lvgl\version_6.1.2\lvgl\src\lv_core/lv_style.c ****     lv_style_pretty_color.body.main_color   = lv_color_make(0x6b, 0x9a, 0xc7);
 1171              		.loc 1 147 0
 1172 0226 86F84870 		strb	r7, [r6, #72]
 1173 022a 86F84970 		strb	r7, [r6, #73]
 1174 022e 86F84A70 		strb	r7, [r6, #74]
 1175 0232 86F84B40 		strb	r4, [r6, #75]
 148:..\..\..\lvgl\version_6.1.2\lvgl\src\lv_core/lv_style.c ****     lv_style_pretty_color.body.grad_color   = lv_color_make(0x2b, 0x59, 0x8b);
 1176              		.loc 1 148 0
 1177 0236 F471     		strb	r4, [r6, #7]
 149:..\..\..\lvgl\version_6.1.2\lvgl\src\lv_core/lv_style.c ****     lv_style_pretty_color.body.border.color = lv_color_make(0x15, 0x2c, 0x42);
 1178              		.loc 1 149 0
 1179 0238 F472     		strb	r4, [r6, #11]
 150:..\..\..\lvgl\version_6.1.2\lvgl\src\lv_core/lv_style.c **** 
 1180              		.loc 1 150 0
 1181 023a F474     		strb	r4, [r6, #19]
 1182              	.LVL40:
 149:..\..\..\lvgl\version_6.1.2\lvgl\src\lv_core/lv_style.c ****     lv_style_pretty_color.body.border.color = lv_color_make(0x15, 0x2c, 0x42);
 1183              		.loc 1 149 0
 1184 023c 7272     		strb	r2, [r6, #9]
 150:..\..\..\lvgl\version_6.1.2\lvgl\src\lv_core/lv_style.c **** 
 1185              		.loc 1 150 0
 1186 023e 3174     		strb	r1, [r6, #16]
 1187 0240 B074     		strb	r0, [r6, #18]
 1188              	.LBB262:
 1189              	.LBB260:
 229:..\..\..\lvgl\version_6.1.2\lvgl\src\lv_core/lv_style.c **** }
 1190              		.loc 1 229 0
 1191 0242 4946     		mov	r1, r9
 1192              	.LBE260:
 1193              	.LBE262:
 149:..\..\..\lvgl\version_6.1.2\lvgl\src\lv_core/lv_style.c ****     lv_style_pretty_color.body.border.color = lv_color_make(0x15, 0x2c, 0x42);
 1194              		.loc 1 149 0
 1195 0244 B372     		strb	r3, [r6, #10]
 1196              	.LBB263:
 1197              	.LBB261:
 229:..\..\..\lvgl\version_6.1.2\lvgl\src\lv_core/lv_style.c **** }
 1198              		.loc 1 229 0
 1199 0246 5022     		movs	r2, #80
ARM GAS  C:\Users\pearlstl\AppData\Local\Temp\ccvteysW.s 			page 40


 1200 0248 5846     		mov	r0, fp
 1201 024a FFF7FEFF 		bl	memcpy
 1202              	.LVL41:
 1203              	.LBE261:
 1204              	.LBE263:
 154:..\..\..\lvgl\version_6.1.2\lvgl\src\lv_core/lv_style.c ****     lv_style_transp.body.border.width = 0;
 1205              		.loc 1 154 0
 1206 024e 9BF80020 		ldrb	r2, [fp]	@ zero_extendqisi2
 1207              	.LBB264:
 1208              	.LBB265:
 229:..\..\..\lvgl\version_6.1.2\lvgl\src\lv_core/lv_style.c **** }
 1209              		.loc 1 229 0
 1210 0252 634B     		ldr	r3, .L34+16
 1211              	.LBE265:
 1212              	.LBE264:
 155:..\..\..\lvgl\version_6.1.2\lvgl\src\lv_core/lv_style.c ****     lv_style_transp.body.opa          = LV_OPA_TRANSP;
 1213              		.loc 1 155 0
 1214 0254 ABF81480 		strh	r8, [fp, #20]	@ movhi
 154:..\..\..\lvgl\version_6.1.2\lvgl\src\lv_core/lv_style.c ****     lv_style_transp.body.border.width = 0;
 1215              		.loc 1 154 0
 1216 0258 42F00102 		orr	r2, r2, #1
 1217              	.LBB269:
 1218              	.LBB266:
 229:..\..\..\lvgl\version_6.1.2\lvgl\src\lv_core/lv_style.c **** }
 1219              		.loc 1 229 0
 1220 025c 5946     		mov	r1, fp
 1221              	.LBE266:
 1222              	.LBE269:
 154:..\..\..\lvgl\version_6.1.2\lvgl\src\lv_core/lv_style.c ****     lv_style_transp.body.border.width = 0;
 1223              		.loc 1 154 0
 1224 025e 8BF80020 		strb	r2, [fp]
 1225              	.LBB270:
 1226              	.LBB267:
 229:..\..\..\lvgl\version_6.1.2\lvgl\src\lv_core/lv_style.c **** }
 1227              		.loc 1 229 0
 1228 0262 1846     		mov	r0, r3
 1229 0264 5022     		movs	r2, #80
 1230              	.LBE267:
 1231              	.LBE270:
 156:..\..\..\lvgl\version_6.1.2\lvgl\src\lv_core/lv_style.c **** 
 1232              		.loc 1 156 0
 1233 0266 8BF80E80 		strb	r8, [fp, #14]
 1234              	.LVL42:
 1235              	.LBB271:
 1236              	.LBB268:
 229:..\..\..\lvgl\version_6.1.2\lvgl\src\lv_core/lv_style.c **** }
 1237              		.loc 1 229 0
 1238 026a FFF7FEFF 		bl	memcpy
 1239              	.LVL43:
 1240              	.LBE268:
 1241              	.LBE271:
 1242              	.LBB272:
 1243              	.LBB273:
 1244 026e 5D4D     		ldr	r5, .L34+20
 1245              	.LBE273:
 1246              	.LBE272:
 160:..\..\..\lvgl\version_6.1.2\lvgl\src\lv_core/lv_style.c ****     lv_style_transp_fit.body.padding.right  = 0;
ARM GAS  C:\Users\pearlstl\AppData\Local\Temp\ccvteysW.s 			page 41


 1247              		.loc 1 160 0
 1248 0270 A0F82480 		strh	r8, [r0, #36]	@ movhi
 1249              	.LBB276:
 1250              	.LBB277:
 229:..\..\..\lvgl\version_6.1.2\lvgl\src\lv_core/lv_style.c **** }
 1251              		.loc 1 229 0
 1252 0274 0146     		mov	r1, r0
 1253              	.LBE277:
 1254              	.LBE276:
 161:..\..\..\lvgl\version_6.1.2\lvgl\src\lv_core/lv_style.c ****     lv_style_transp_fit.body.padding.top    = 0;
 1255              		.loc 1 161 0
 1256 0276 A0F82680 		strh	r8, [r0, #38]	@ movhi
 162:..\..\..\lvgl\version_6.1.2\lvgl\src\lv_core/lv_style.c ****     lv_style_transp_fit.body.padding.bottom = 0;
 1257              		.loc 1 162 0
 1258 027a A0F82080 		strh	r8, [r0, #32]	@ movhi
 163:..\..\..\lvgl\version_6.1.2\lvgl\src\lv_core/lv_style.c **** 
 1259              		.loc 1 163 0
 1260 027e A0F82280 		strh	r8, [r0, #34]	@ movhi
 1261              	.LVL44:
 1262              	.LBB280:
 1263              	.LBB278:
 229:..\..\..\lvgl\version_6.1.2\lvgl\src\lv_core/lv_style.c **** }
 1264              		.loc 1 229 0
 1265 0282 5022     		movs	r2, #80
 1266 0284 5848     		ldr	r0, .L34+24
 1267              	.LBE278:
 1268              	.LBE280:
 1269              	.LBB281:
 1270              	.LBB282:
 1271 0286 594F     		ldr	r7, .L34+28
 1272              	.LBE282:
 1273              	.LBE281:
 1274              	.LBB286:
 1275              	.LBB287:
 1276 0288 594E     		ldr	r6, .L34+32
 1277              	.LBE287:
 1278              	.LBE286:
 1279              	.LBB290:
 1280              	.LBB279:
 1281 028a FFF7FEFF 		bl	memcpy
 1282              	.LVL45:
 1283              	.LBE279:
 1284              	.LBE290:
 167:..\..\..\lvgl\version_6.1.2\lvgl\src\lv_core/lv_style.c **** 
 1285              		.loc 1 167 0
 1286 028e 564B     		ldr	r3, .L34+24
 1287              	.LBB291:
 1288              	.LBB274:
 229:..\..\..\lvgl\version_6.1.2\lvgl\src\lv_core/lv_style.c **** }
 1289              		.loc 1 229 0
 1290 0290 4946     		mov	r1, r9
 1291 0292 5022     		movs	r2, #80
 1292 0294 2846     		mov	r0, r5
 1293              	.LBE274:
 1294              	.LBE291:
 167:..\..\..\lvgl\version_6.1.2\lvgl\src\lv_core/lv_style.c **** 
 1295              		.loc 1 167 0
ARM GAS  C:\Users\pearlstl\AppData\Local\Temp\ccvteysW.s 			page 42


 1296 0296 A3F82880 		strh	r8, [r3, #40]	@ movhi
 1297              	.LVL46:
 1298              	.LBB292:
 1299              	.LBB275:
 229:..\..\..\lvgl\version_6.1.2\lvgl\src\lv_core/lv_style.c **** }
 1300              		.loc 1 229 0
 1301 029a FFF7FEFF 		bl	memcpy
 1302              	.LVL47:
 1303              	.LBE275:
 1304              	.LBE292:
 182:..\..\..\lvgl\version_6.1.2\lvgl\src\lv_core/lv_style.c ****     lv_style_btn_rel.body.shadow.width   = 0;
 1305              		.loc 1 182 0
 1306 029e 6FF07F00 		mvn	r0, #127
 178:..\..\..\lvgl\version_6.1.2\lvgl\src\lv_core/lv_style.c ****     lv_style_btn_rel.body.border.color   = lv_color_make(0x0b, 0x19, 0x28);
 1307              		.loc 1 178 0
 1308 02a2 4FF00F02 		mov	r2, #15	@ movhi
 173:..\..\..\lvgl\version_6.1.2\lvgl\src\lv_core/lv_style.c ****     lv_style_btn_rel.body.padding.left   = LV_DPI / 4;
 1309              		.loc 1 173 0
 1310 02a6 4FF00A01 		mov	r1, #10	@ movhi
 178:..\..\..\lvgl\version_6.1.2\lvgl\src\lv_core/lv_style.c ****     lv_style_btn_rel.body.border.color   = lv_color_make(0x0b, 0x19, 0x28);
 1311              		.loc 1 178 0
 1312 02aa 2A85     		strh	r2, [r5, #40]	@ movhi
 173:..\..\..\lvgl\version_6.1.2\lvgl\src\lv_core/lv_style.c ****     lv_style_btn_rel.body.padding.left   = LV_DPI / 4;
 1313              		.loc 1 173 0
 1314 02ac A981     		strh	r1, [r5, #12]	@ movhi
 182:..\..\..\lvgl\version_6.1.2\lvgl\src\lv_core/lv_style.c ****     lv_style_btn_rel.body.shadow.width   = 0;
 1315              		.loc 1 182 0
 1316 02ae 2876     		strb	r0, [r5, #24]
 1317 02b0 6876     		strb	r0, [r5, #25]
 1318 02b2 A876     		strb	r0, [r5, #26]
 171:..\..\..\lvgl\version_6.1.2\lvgl\src\lv_core/lv_style.c ****     lv_style_btn_rel.body.grad_color     = lv_color_make(0x19, 0x3a, 0x5d);
 1319              		.loc 1 171 0
 1320 02b4 4FF0D00C 		mov	ip, #208
 1321 02b8 A223     		movs	r3, #162
 1322 02ba 4FF0760E 		mov	lr, #118
 172:..\..\..\lvgl\version_6.1.2\lvgl\src\lv_core/lv_style.c ****     lv_style_btn_rel.body.radius         = LV_DPI / 15;
 1323              		.loc 1 172 0
 1324 02be 5D22     		movs	r2, #93
 1325 02c0 3A21     		movs	r1, #58
 179:..\..\..\lvgl\version_6.1.2\lvgl\src\lv_core/lv_style.c ****     lv_style_btn_rel.body.border.width   = LV_DPI / 50 >= 1 ? LV_DPI / 50 : 1;
 1326              		.loc 1 179 0
 1327 02c2 2820     		movs	r0, #40
 183:..\..\..\lvgl\version_6.1.2\lvgl\src\lv_core/lv_style.c ****     lv_style_btn_rel.text.color          = lv_color_make(0xff, 0xff, 0xff);
 1328              		.loc 1 183 0
 1329 02c4 A5F81C80 		strh	r8, [r5, #28]	@ movhi
 171:..\..\..\lvgl\version_6.1.2\lvgl\src\lv_core/lv_style.c ****     lv_style_btn_rel.body.grad_color     = lv_color_make(0x19, 0x3a, 0x5d);
 1330              		.loc 1 171 0
 1331 02c8 85F804C0 		strb	ip, [r5, #4]
 1332 02cc 6B71     		strb	r3, [r5, #5]
 181:..\..\..\lvgl\version_6.1.2\lvgl\src\lv_core/lv_style.c ****     lv_style_btn_rel.body.shadow.color   = LV_COLOR_GRAY;
 1333              		.loc 1 181 0
 1334 02ce 4FF0B20C 		mov	ip, #178
 172:..\..\..\lvgl\version_6.1.2\lvgl\src\lv_core/lv_style.c ****     lv_style_btn_rel.body.radius         = LV_DPI / 15;
 1335              		.loc 1 172 0
 1336 02d2 1923     		movs	r3, #25
 171:..\..\..\lvgl\version_6.1.2\lvgl\src\lv_core/lv_style.c ****     lv_style_btn_rel.body.grad_color     = lv_color_make(0x19, 0x3a, 0x5d);
 1337              		.loc 1 171 0
ARM GAS  C:\Users\pearlstl\AppData\Local\Temp\ccvteysW.s 			page 43


 1338 02d4 85F806E0 		strb	lr, [r5, #6]
 172:..\..\..\lvgl\version_6.1.2\lvgl\src\lv_core/lv_style.c ****     lv_style_btn_rel.body.radius         = LV_DPI / 15;
 1339              		.loc 1 172 0
 1340 02d8 2A72     		strb	r2, [r5, #8]
 174:..\..\..\lvgl\version_6.1.2\lvgl\src\lv_core/lv_style.c ****     lv_style_btn_rel.body.padding.right  = LV_DPI / 4;
 1341              		.loc 1 174 0
 1342 02da 4FF0250E 		mov	lr, #37
 172:..\..\..\lvgl\version_6.1.2\lvgl\src\lv_core/lv_style.c ****     lv_style_btn_rel.body.radius         = LV_DPI / 15;
 1343              		.loc 1 172 0
 1344 02de 6972     		strb	r1, [r5, #9]
 179:..\..\..\lvgl\version_6.1.2\lvgl\src\lv_core/lv_style.c ****     lv_style_btn_rel.body.border.width   = LV_DPI / 50 >= 1 ? LV_DPI / 50 : 1;
 1345              		.loc 1 179 0
 1346 02e0 2874     		strb	r0, [r5, #16]
 1347              	.LBB293:
 1348              	.LBB283:
 229:..\..\..\lvgl\version_6.1.2\lvgl\src\lv_core/lv_style.c **** }
 1349              		.loc 1 229 0
 1350 02e2 2946     		mov	r1, r5
 1351              	.LBE283:
 1352              	.LBE293:
 179:..\..\..\lvgl\version_6.1.2\lvgl\src\lv_core/lv_style.c ****     lv_style_btn_rel.body.border.width   = LV_DPI / 50 >= 1 ? LV_DPI / 50 : 1;
 1353              		.loc 1 179 0
 1354 02e4 4FF00B08 		mov	r8, #11
 1355              	.LBB294:
 1356              	.LBB284:
 229:..\..\..\lvgl\version_6.1.2\lvgl\src\lv_core/lv_style.c **** }
 1357              		.loc 1 229 0
 1358 02e8 5022     		movs	r2, #80
 1359 02ea 3846     		mov	r0, r7
 1360              	.LBE284:
 1361              	.LBE294:
 181:..\..\..\lvgl\version_6.1.2\lvgl\src\lv_core/lv_style.c ****     lv_style_btn_rel.body.shadow.color   = LV_COLOR_GRAY;
 1362              		.loc 1 181 0
 1363 02ec 85F817C0 		strb	ip, [r5, #23]
 174:..\..\..\lvgl\version_6.1.2\lvgl\src\lv_core/lv_style.c ****     lv_style_btn_rel.body.padding.right  = LV_DPI / 4;
 1364              		.loc 1 174 0
 1365 02f0 A5F824E0 		strh	lr, [r5, #36]	@ movhi
 175:..\..\..\lvgl\version_6.1.2\lvgl\src\lv_core/lv_style.c ****     lv_style_btn_rel.body.padding.top    = LV_DPI / 6;
 1366              		.loc 1 175 0
 1367 02f4 A5F826E0 		strh	lr, [r5, #38]	@ movhi
 172:..\..\..\lvgl\version_6.1.2\lvgl\src\lv_core/lv_style.c ****     lv_style_btn_rel.body.radius         = LV_DPI / 15;
 1368              		.loc 1 172 0
 1369 02f8 AB72     		strb	r3, [r5, #10]
 176:..\..\..\lvgl\version_6.1.2\lvgl\src\lv_core/lv_style.c ****     lv_style_btn_rel.body.padding.bottom = LV_DPI / 6;
 1370              		.loc 1 176 0
 1371 02fa 2B84     		strh	r3, [r5, #32]	@ movhi
 177:..\..\..\lvgl\version_6.1.2\lvgl\src\lv_core/lv_style.c ****     lv_style_btn_rel.body.padding.inner  = LV_DPI / 10;
 1372              		.loc 1 177 0
 1373 02fc 6B84     		strh	r3, [r5, #34]	@ movhi
 179:..\..\..\lvgl\version_6.1.2\lvgl\src\lv_core/lv_style.c ****     lv_style_btn_rel.body.border.width   = LV_DPI / 50 >= 1 ? LV_DPI / 50 : 1;
 1374              		.loc 1 179 0
 1375 02fe 6B74     		strb	r3, [r5, #17]
 171:..\..\..\lvgl\version_6.1.2\lvgl\src\lv_core/lv_style.c ****     lv_style_btn_rel.body.grad_color     = lv_color_make(0x19, 0x3a, 0x5d);
 1376              		.loc 1 171 0
 1377 0300 EC71     		strb	r4, [r5, #7]
 172:..\..\..\lvgl\version_6.1.2\lvgl\src\lv_core/lv_style.c ****     lv_style_btn_rel.body.radius         = LV_DPI / 15;
 1378              		.loc 1 172 0
ARM GAS  C:\Users\pearlstl\AppData\Local\Temp\ccvteysW.s 			page 44


 1379 0302 EC72     		strb	r4, [r5, #11]
 179:..\..\..\lvgl\version_6.1.2\lvgl\src\lv_core/lv_style.c ****     lv_style_btn_rel.body.border.width   = LV_DPI / 50 >= 1 ? LV_DPI / 50 : 1;
 1380              		.loc 1 179 0
 1381 0304 EC74     		strb	r4, [r5, #19]
 180:..\..\..\lvgl\version_6.1.2\lvgl\src\lv_core/lv_style.c ****     lv_style_btn_rel.body.border.opa     = LV_OPA_70;
 1382              		.loc 1 180 0
 1383 0306 A5F814A0 		strh	r10, [r5, #20]	@ movhi
 182:..\..\..\lvgl\version_6.1.2\lvgl\src\lv_core/lv_style.c ****     lv_style_btn_rel.body.shadow.width   = 0;
 1384              		.loc 1 182 0
 1385 030a EC76     		strb	r4, [r5, #27]
 184:..\..\..\lvgl\version_6.1.2\lvgl\src\lv_core/lv_style.c ****     lv_style_btn_rel.image.color         = lv_color_make(0xff, 0xff, 0xff);
 1386              		.loc 1 184 0
 1387 030c 85F82C40 		strb	r4, [r5, #44]
 1388 0310 85F82D40 		strb	r4, [r5, #45]
 1389 0314 85F82E40 		strb	r4, [r5, #46]
 1390 0318 85F82F40 		strb	r4, [r5, #47]
 185:..\..\..\lvgl\version_6.1.2\lvgl\src\lv_core/lv_style.c **** 
 1391              		.loc 1 185 0
 1392 031c 85F84040 		strb	r4, [r5, #64]
 1393 0320 85F84140 		strb	r4, [r5, #65]
 1394 0324 85F84240 		strb	r4, [r5, #66]
 179:..\..\..\lvgl\version_6.1.2\lvgl\src\lv_core/lv_style.c ****     lv_style_btn_rel.body.border.width   = LV_DPI / 50 >= 1 ? LV_DPI / 50 : 1;
 1395              		.loc 1 179 0
 1396 0328 85F81280 		strb	r8, [r5, #18]
 185:..\..\..\lvgl\version_6.1.2\lvgl\src\lv_core/lv_style.c **** 
 1397              		.loc 1 185 0
 1398 032c 85F84340 		strb	r4, [r5, #67]
 1399              	.LVL48:
 1400              	.LBB295:
 1401              	.LBB285:
 229:..\..\..\lvgl\version_6.1.2\lvgl\src\lv_core/lv_style.c **** }
 1402              		.loc 1 229 0
 1403 0330 FFF7FEFF 		bl	memcpy
 1404              	.LVL49:
 1405              	.LBE285:
 1406              	.LBE295:
 189:..\..\..\lvgl\version_6.1.2\lvgl\src\lv_core/lv_style.c ****     lv_style_btn_pr.body.grad_color = lv_color_make(0x10, 0x26, 0x3c);
 1407              		.loc 1 189 0
 1408 0334 3323     		movs	r3, #51
 1409 0336 BB71     		strb	r3, [r7, #6]
 1410 0338 9421     		movs	r1, #148
 190:..\..\..\lvgl\version_6.1.2\lvgl\src\lv_core/lv_style.c ****     lv_style_btn_pr.text.color      = lv_color_make(0xa4, 0xb5, 0xc6);
 1411              		.loc 1 190 0
 1412 033a 1023     		movs	r3, #16
 191:..\..\..\lvgl\version_6.1.2\lvgl\src\lv_core/lv_style.c ****     lv_style_btn_pr.image.color     = lv_color_make(0xa4, 0xb5, 0xc6);
 1413              		.loc 1 191 0
 1414 033c 4FF0C60B 		mov	fp, #198
 1415 0340 4FF0B50A 		mov	r10, #181
 1416 0344 4FF0A409 		mov	r9, #164
 189:..\..\..\lvgl\version_6.1.2\lvgl\src\lv_core/lv_style.c ****     lv_style_btn_pr.body.grad_color = lv_color_make(0x10, 0x26, 0x3c);
 1417              		.loc 1 189 0
 1418 0348 3971     		strb	r1, [r7, #4]
 190:..\..\..\lvgl\version_6.1.2\lvgl\src\lv_core/lv_style.c ****     lv_style_btn_pr.text.color      = lv_color_make(0xa4, 0xb5, 0xc6);
 1419              		.loc 1 190 0
 1420 034a BB72     		strb	r3, [r7, #10]
 1421 034c 3C22     		movs	r2, #60
 189:..\..\..\lvgl\version_6.1.2\lvgl\src\lv_core/lv_style.c ****     lv_style_btn_pr.body.grad_color = lv_color_make(0x10, 0x26, 0x3c);
ARM GAS  C:\Users\pearlstl\AppData\Local\Temp\ccvteysW.s 			page 45


 1422              		.loc 1 189 0
 1423 034e 4FF06203 		mov	r3, #98
 190:..\..\..\lvgl\version_6.1.2\lvgl\src\lv_core/lv_style.c ****     lv_style_btn_pr.text.color      = lv_color_make(0xa4, 0xb5, 0xc6);
 1424              		.loc 1 190 0
 1425 0352 2621     		movs	r1, #38
 189:..\..\..\lvgl\version_6.1.2\lvgl\src\lv_core/lv_style.c ****     lv_style_btn_pr.body.grad_color = lv_color_make(0x10, 0x26, 0x3c);
 1426              		.loc 1 189 0
 1427 0354 FC71     		strb	r4, [r7, #7]
 190:..\..\..\lvgl\version_6.1.2\lvgl\src\lv_core/lv_style.c ****     lv_style_btn_pr.text.color      = lv_color_make(0xa4, 0xb5, 0xc6);
 1428              		.loc 1 190 0
 1429 0356 FC72     		strb	r4, [r7, #11]
 191:..\..\..\lvgl\version_6.1.2\lvgl\src\lv_core/lv_style.c ****     lv_style_btn_pr.image.color     = lv_color_make(0xa4, 0xb5, 0xc6);
 1430              		.loc 1 191 0
 1431 0358 87F82F40 		strb	r4, [r7, #47]
 192:..\..\..\lvgl\version_6.1.2\lvgl\src\lv_core/lv_style.c ****     lv_style_btn_pr.line.color      = lv_color_make(0xa4, 0xb5, 0xc6);
 1432              		.loc 1 192 0
 1433 035c 87F84340 		strb	r4, [r7, #67]
 193:..\..\..\lvgl\version_6.1.2\lvgl\src\lv_core/lv_style.c **** 
 1434              		.loc 1 193 0
 1435 0360 87F84B40 		strb	r4, [r7, #75]
 1436              	.LVL50:
 190:..\..\..\lvgl\version_6.1.2\lvgl\src\lv_core/lv_style.c ****     lv_style_btn_pr.text.color      = lv_color_make(0xa4, 0xb5, 0xc6);
 1437              		.loc 1 190 0
 1438 0364 3A72     		strb	r2, [r7, #8]
 1439 0366 7972     		strb	r1, [r7, #9]
 189:..\..\..\lvgl\version_6.1.2\lvgl\src\lv_core/lv_style.c ****     lv_style_btn_pr.body.grad_color = lv_color_make(0x10, 0x26, 0x3c);
 1440              		.loc 1 189 0
 1441 0368 7B71     		strb	r3, [r7, #5]
 1442              	.LBB296:
 1443              	.LBB288:
 229:..\..\..\lvgl\version_6.1.2\lvgl\src\lv_core/lv_style.c **** }
 1444              		.loc 1 229 0
 1445 036a 2946     		mov	r1, r5
 1446              	.LBE288:
 1447              	.LBE296:
 191:..\..\..\lvgl\version_6.1.2\lvgl\src\lv_core/lv_style.c ****     lv_style_btn_pr.image.color     = lv_color_make(0xa4, 0xb5, 0xc6);
 1448              		.loc 1 191 0
 1449 036c 87F82CB0 		strb	fp, [r7, #44]
 192:..\..\..\lvgl\version_6.1.2\lvgl\src\lv_core/lv_style.c ****     lv_style_btn_pr.line.color      = lv_color_make(0xa4, 0xb5, 0xc6);
 1450              		.loc 1 192 0
 1451 0370 87F840B0 		strb	fp, [r7, #64]
 193:..\..\..\lvgl\version_6.1.2\lvgl\src\lv_core/lv_style.c **** 
 1452              		.loc 1 193 0
 1453 0374 87F848B0 		strb	fp, [r7, #72]
 191:..\..\..\lvgl\version_6.1.2\lvgl\src\lv_core/lv_style.c ****     lv_style_btn_pr.image.color     = lv_color_make(0xa4, 0xb5, 0xc6);
 1454              		.loc 1 191 0
 1455 0378 87F82DA0 		strb	r10, [r7, #45]
 192:..\..\..\lvgl\version_6.1.2\lvgl\src\lv_core/lv_style.c ****     lv_style_btn_pr.line.color      = lv_color_make(0xa4, 0xb5, 0xc6);
 1456              		.loc 1 192 0
 1457 037c 87F841A0 		strb	r10, [r7, #65]
 193:..\..\..\lvgl\version_6.1.2\lvgl\src\lv_core/lv_style.c **** 
 1458              		.loc 1 193 0
 1459 0380 87F849A0 		strb	r10, [r7, #73]
 191:..\..\..\lvgl\version_6.1.2\lvgl\src\lv_core/lv_style.c ****     lv_style_btn_pr.image.color     = lv_color_make(0xa4, 0xb5, 0xc6);
 1460              		.loc 1 191 0
 1461 0384 87F82E90 		strb	r9, [r7, #46]
 192:..\..\..\lvgl\version_6.1.2\lvgl\src\lv_core/lv_style.c ****     lv_style_btn_pr.line.color      = lv_color_make(0xa4, 0xb5, 0xc6);
ARM GAS  C:\Users\pearlstl\AppData\Local\Temp\ccvteysW.s 			page 46


 1462              		.loc 1 192 0
 1463 0388 87F84290 		strb	r9, [r7, #66]
 193:..\..\..\lvgl\version_6.1.2\lvgl\src\lv_core/lv_style.c **** 
 1464              		.loc 1 193 0
 1465 038c 87F84A90 		strb	r9, [r7, #74]
 1466              	.LBB297:
 1467              	.LBB289:
 229:..\..\..\lvgl\version_6.1.2\lvgl\src\lv_core/lv_style.c **** }
 1468              		.loc 1 229 0
 1469 0390 5022     		movs	r2, #80
 1470 0392 3046     		mov	r0, r6
 1471 0394 FFF7FEFF 		bl	memcpy
 1472              	.LVL51:
 1473              	.LBE289:
 1474              	.LBE297:
 197:..\..\..\lvgl\version_6.1.2\lvgl\src\lv_core/lv_style.c ****     lv_style_btn_tgl_rel.body.grad_color   = lv_color_make(0x37, 0x62, 0x90);
 1475              		.loc 1 197 0
 1476 0398 4FF00A03 		mov	r3, #10
 1477              	.LBB298:
 1478              	.LBB299:
 229:..\..\..\lvgl\version_6.1.2\lvgl\src\lv_core/lv_style.c **** }
 1479              		.loc 1 229 0
 1480 039c DFF86080 		ldr	r8, .L34+48
 1481              	.LBE299:
 1482              	.LBE298:
 197:..\..\..\lvgl\version_6.1.2\lvgl\src\lv_core/lv_style.c ****     lv_style_btn_tgl_rel.body.grad_color   = lv_color_make(0x37, 0x62, 0x90);
 1483              		.loc 1 197 0
 1484 03a0 B371     		strb	r3, [r6, #6]
 1485 03a2 1120     		movs	r0, #17
 1486 03a4 2223     		movs	r3, #34
 198:..\..\..\lvgl\version_6.1.2\lvgl\src\lv_core/lv_style.c ****     lv_style_btn_tgl_rel.body.border.color = lv_color_make(0x01, 0x07, 0x0d);
 1487              		.loc 1 198 0
 1488 03a6 4FF0370C 		mov	ip, #55
 1489 03aa 4FF06202 		mov	r2, #98
 199:..\..\..\lvgl\version_6.1.2\lvgl\src\lv_core/lv_style.c ****     lv_style_btn_tgl_rel.text.color        = lv_color_make(0xc8, 0xdd, 0xf4);
 1490              		.loc 1 199 0
 1491 03ae 4FF00D0E 		mov	lr, #13
 198:..\..\..\lvgl\version_6.1.2\lvgl\src\lv_core/lv_style.c ****     lv_style_btn_tgl_rel.body.border.color = lv_color_make(0x01, 0x07, 0x0d);
 1492              		.loc 1 198 0
 1493 03b2 7272     		strb	r2, [r6, #9]
 197:..\..\..\lvgl\version_6.1.2\lvgl\src\lv_core/lv_style.c ****     lv_style_btn_tgl_rel.body.grad_color   = lv_color_make(0x37, 0x62, 0x90);
 1494              		.loc 1 197 0
 1495 03b4 3371     		strb	r3, [r6, #4]
 1496 03b6 7071     		strb	r0, [r6, #5]
 198:..\..\..\lvgl\version_6.1.2\lvgl\src\lv_core/lv_style.c ****     lv_style_btn_tgl_rel.body.border.color = lv_color_make(0x01, 0x07, 0x0d);
 1497              		.loc 1 198 0
 1498 03b8 9023     		movs	r3, #144
 200:..\..\..\lvgl\version_6.1.2\lvgl\src\lv_core/lv_style.c ****     lv_style_btn_tgl_rel.image.color       = lv_color_make(0xc8, 0xdd, 0xf4);
 1499              		.loc 1 200 0
 1500 03ba F420     		movs	r0, #244
 198:..\..\..\lvgl\version_6.1.2\lvgl\src\lv_core/lv_style.c ****     lv_style_btn_tgl_rel.body.border.color = lv_color_make(0x01, 0x07, 0x0d);
 1501              		.loc 1 198 0
 1502 03bc 86F80AC0 		strb	ip, [r6, #10]
 199:..\..\..\lvgl\version_6.1.2\lvgl\src\lv_core/lv_style.c ****     lv_style_btn_tgl_rel.text.color        = lv_color_make(0xc8, 0xdd, 0xf4);
 1503              		.loc 1 199 0
 1504 03c0 86F810E0 		strb	lr, [r6, #16]
 200:..\..\..\lvgl\version_6.1.2\lvgl\src\lv_core/lv_style.c ****     lv_style_btn_tgl_rel.image.color       = lv_color_make(0xc8, 0xdd, 0xf4);
ARM GAS  C:\Users\pearlstl\AppData\Local\Temp\ccvteysW.s 			page 47


 1505              		.loc 1 200 0
 1506 03c4 4FF0DD0C 		mov	ip, #221
 1507 03c8 4FF0C80E 		mov	lr, #200
 1508 03cc 1AE0     		b	.L35
 1509              	.L36:
 1510 03ce 00BF     		.align	2
 1511              	.L34:
 1512 03d0 00000000 		.word	lv_style_scr
 1513 03d4 00000000 		.word	lv_style_plain_color
 1514 03d8 00000000 		.word	lv_style_pretty
 1515 03dc 00000000 		.word	lv_style_pretty_color
 1516 03e0 00000000 		.word	lv_style_transp_fit
 1517 03e4 00000000 		.word	lv_style_btn_rel
 1518 03e8 00000000 		.word	lv_style_transp_tight
 1519 03ec 00000000 		.word	lv_style_btn_pr
 1520 03f0 00000000 		.word	lv_style_btn_tgl_rel
 1521 03f4 00000000 		.word	lv_style_plain
 1522 03f8 00000000 		.word	lv_font_roboto_16
 1523 03fc 00000000 		.word	lv_style_transp
 1524 0400 00000000 		.word	lv_style_btn_tgl_pr
 1525              	.L35:
 199:..\..\..\lvgl\version_6.1.2\lvgl\src\lv_core/lv_style.c ****     lv_style_btn_tgl_rel.text.color        = lv_color_make(0xc8, 0xdd, 0xf4);
 1526              		.loc 1 199 0
 1527 0404 4FF00102 		mov	r2, #1
 1528 0408 4FF00701 		mov	r1, #7
 200:..\..\..\lvgl\version_6.1.2\lvgl\src\lv_core/lv_style.c ****     lv_style_btn_tgl_rel.image.color       = lv_color_make(0xc8, 0xdd, 0xf4);
 1529              		.loc 1 200 0
 1530 040c 86F82DC0 		strb	ip, [r6, #45]
 201:..\..\..\lvgl\version_6.1.2\lvgl\src\lv_core/lv_style.c ****     lv_style_btn_tgl_rel.line.color        = lv_color_make(0xc8, 0xdd, 0xf4);
 1531              		.loc 1 201 0
 1532 0410 86F841C0 		strb	ip, [r6, #65]
 202:..\..\..\lvgl\version_6.1.2\lvgl\src\lv_core/lv_style.c **** 
 1533              		.loc 1 202 0
 1534 0414 86F849C0 		strb	ip, [r6, #73]
 199:..\..\..\lvgl\version_6.1.2\lvgl\src\lv_core/lv_style.c ****     lv_style_btn_tgl_rel.text.color        = lv_color_make(0xc8, 0xdd, 0xf4);
 1535              		.loc 1 199 0
 1536 0418 B274     		strb	r2, [r6, #18]
 1537 041a 7174     		strb	r1, [r6, #17]
 197:..\..\..\lvgl\version_6.1.2\lvgl\src\lv_core/lv_style.c ****     lv_style_btn_tgl_rel.body.grad_color   = lv_color_make(0x37, 0x62, 0x90);
 1538              		.loc 1 197 0
 1539 041c F471     		strb	r4, [r6, #7]
 1540              	.LBB303:
 1541              	.LBB300:
 229:..\..\..\lvgl\version_6.1.2\lvgl\src\lv_core/lv_style.c **** }
 1542              		.loc 1 229 0
 1543 041e 3146     		mov	r1, r6
 1544              	.LBE300:
 1545              	.LBE303:
 198:..\..\..\lvgl\version_6.1.2\lvgl\src\lv_core/lv_style.c ****     lv_style_btn_tgl_rel.body.border.color = lv_color_make(0x01, 0x07, 0x0d);
 1546              		.loc 1 198 0
 1547 0420 F472     		strb	r4, [r6, #11]
 199:..\..\..\lvgl\version_6.1.2\lvgl\src\lv_core/lv_style.c ****     lv_style_btn_tgl_rel.text.color        = lv_color_make(0xc8, 0xdd, 0xf4);
 1548              		.loc 1 199 0
 1549 0422 F474     		strb	r4, [r6, #19]
 200:..\..\..\lvgl\version_6.1.2\lvgl\src\lv_core/lv_style.c ****     lv_style_btn_tgl_rel.image.color       = lv_color_make(0xc8, 0xdd, 0xf4);
 1550              		.loc 1 200 0
 1551 0424 86F82F40 		strb	r4, [r6, #47]
ARM GAS  C:\Users\pearlstl\AppData\Local\Temp\ccvteysW.s 			page 48


 201:..\..\..\lvgl\version_6.1.2\lvgl\src\lv_core/lv_style.c ****     lv_style_btn_tgl_rel.line.color        = lv_color_make(0xc8, 0xdd, 0xf4);
 1552              		.loc 1 201 0
 1553 0428 86F84340 		strb	r4, [r6, #67]
 202:..\..\..\lvgl\version_6.1.2\lvgl\src\lv_core/lv_style.c **** 
 1554              		.loc 1 202 0
 1555 042c 86F84B40 		strb	r4, [r6, #75]
 1556              	.LVL52:
 198:..\..\..\lvgl\version_6.1.2\lvgl\src\lv_core/lv_style.c ****     lv_style_btn_tgl_rel.body.border.color = lv_color_make(0x01, 0x07, 0x0d);
 1557              		.loc 1 198 0
 1558 0430 3372     		strb	r3, [r6, #8]
 200:..\..\..\lvgl\version_6.1.2\lvgl\src\lv_core/lv_style.c ****     lv_style_btn_tgl_rel.image.color       = lv_color_make(0xc8, 0xdd, 0xf4);
 1559              		.loc 1 200 0
 1560 0432 86F82C00 		strb	r0, [r6, #44]
 201:..\..\..\lvgl\version_6.1.2\lvgl\src\lv_core/lv_style.c ****     lv_style_btn_tgl_rel.line.color        = lv_color_make(0xc8, 0xdd, 0xf4);
 1561              		.loc 1 201 0
 1562 0436 86F84000 		strb	r0, [r6, #64]
 202:..\..\..\lvgl\version_6.1.2\lvgl\src\lv_core/lv_style.c **** 
 1563              		.loc 1 202 0
 1564 043a 86F84800 		strb	r0, [r6, #72]
 200:..\..\..\lvgl\version_6.1.2\lvgl\src\lv_core/lv_style.c ****     lv_style_btn_tgl_rel.image.color       = lv_color_make(0xc8, 0xdd, 0xf4);
 1565              		.loc 1 200 0
 1566 043e 86F82EE0 		strb	lr, [r6, #46]
 201:..\..\..\lvgl\version_6.1.2\lvgl\src\lv_core/lv_style.c ****     lv_style_btn_tgl_rel.line.color        = lv_color_make(0xc8, 0xdd, 0xf4);
 1567              		.loc 1 201 0
 1568 0442 86F842E0 		strb	lr, [r6, #66]
 202:..\..\..\lvgl\version_6.1.2\lvgl\src\lv_core/lv_style.c **** 
 1569              		.loc 1 202 0
 1570 0446 86F84AE0 		strb	lr, [r6, #74]
 1571              	.LBB304:
 1572              	.LBB301:
 229:..\..\..\lvgl\version_6.1.2\lvgl\src\lv_core/lv_style.c **** }
 1573              		.loc 1 229 0
 1574 044a 5022     		movs	r2, #80
 1575 044c 4046     		mov	r0, r8
 1576              	.LBE301:
 1577              	.LBE304:
 198:..\..\..\lvgl\version_6.1.2\lvgl\src\lv_core/lv_style.c ****     lv_style_btn_tgl_rel.body.border.color = lv_color_make(0x01, 0x07, 0x0d);
 1578              		.loc 1 198 0
 1579 044e 0193     		str	r3, [sp, #4]
 1580              	.LBB305:
 1581              	.LBB302:
 229:..\..\..\lvgl\version_6.1.2\lvgl\src\lv_core/lv_style.c **** }
 1582              		.loc 1 229 0
 1583 0450 FFF7FEFF 		bl	memcpy
 1584              	.LVL53:
 1585              	.LBE302:
 1586              	.LBE305:
 206:..\..\..\lvgl\version_6.1.2\lvgl\src\lv_core/lv_style.c ****     lv_style_btn_tgl_pr.body.grad_color = lv_color_make(0x2b, 0x4c, 0x70);
 1587              		.loc 1 206 0
 1588 0454 4FF00203 		mov	r3, #2
 1589              	.LBB306:
 1590              	.LBB307:
 229:..\..\..\lvgl\version_6.1.2\lvgl\src\lv_core/lv_style.c **** }
 1591              		.loc 1 229 0
 1592 0458 2F4F     		ldr	r7, .L37
 1593              	.LBE307:
 1594              	.LBE306:
ARM GAS  C:\Users\pearlstl\AppData\Local\Temp\ccvteysW.s 			page 49


 206:..\..\..\lvgl\version_6.1.2\lvgl\src\lv_core/lv_style.c ****     lv_style_btn_tgl_pr.body.grad_color = lv_color_make(0x2b, 0x4c, 0x70);
 1595              		.loc 1 206 0
 1596 045a 88F80630 		strb	r3, [r8, #6]
 207:..\..\..\lvgl\version_6.1.2\lvgl\src\lv_core/lv_style.c ****     lv_style_btn_tgl_pr.text.color      = lv_color_make(0xa4, 0xb5, 0xc6);
 1597              		.loc 1 207 0
 1598 045e 4FF04C03 		mov	r3, #76
 1599 0462 7026     		movs	r6, #112
 1600              	.LBB311:
 1601              	.LBB308:
 229:..\..\..\lvgl\version_6.1.2\lvgl\src\lv_core/lv_style.c **** }
 1602              		.loc 1 229 0
 1603 0464 2946     		mov	r1, r5
 1604              	.LBE308:
 1605              	.LBE311:
 206:..\..\..\lvgl\version_6.1.2\lvgl\src\lv_core/lv_style.c ****     lv_style_btn_tgl_pr.body.grad_color = lv_color_make(0x2b, 0x4c, 0x70);
 1606              		.loc 1 206 0
 1607 0466 4FF0270E 		mov	lr, #39
 207:..\..\..\lvgl\version_6.1.2\lvgl\src\lv_core/lv_style.c ****     lv_style_btn_tgl_pr.text.color      = lv_color_make(0xa4, 0xb5, 0xc6);
 1608              		.loc 1 207 0
 1609 046a 88F80930 		strb	r3, [r8, #9]
 206:..\..\..\lvgl\version_6.1.2\lvgl\src\lv_core/lv_style.c ****     lv_style_btn_tgl_pr.body.grad_color = lv_color_make(0x2b, 0x4c, 0x70);
 1610              		.loc 1 206 0
 1611 046e 1425     		movs	r5, #20
 207:..\..\..\lvgl\version_6.1.2\lvgl\src\lv_core/lv_style.c ****     lv_style_btn_tgl_pr.text.color      = lv_color_make(0xa4, 0xb5, 0xc6);
 1612              		.loc 1 207 0
 1613 0470 4FF02B03 		mov	r3, #43
 1614 0474 88F80A30 		strb	r3, [r8, #10]
 1615              	.LBB312:
 1616              	.LBB309:
 229:..\..\..\lvgl\version_6.1.2\lvgl\src\lv_core/lv_style.c **** }
 1617              		.loc 1 229 0
 1618 0478 5022     		movs	r2, #80
 1619 047a 3846     		mov	r0, r7
 1620              	.LBE309:
 1621              	.LBE312:
 206:..\..\..\lvgl\version_6.1.2\lvgl\src\lv_core/lv_style.c ****     lv_style_btn_tgl_pr.body.grad_color = lv_color_make(0x2b, 0x4c, 0x70);
 1622              		.loc 1 206 0
 1623 047c 88F80740 		strb	r4, [r8, #7]
 207:..\..\..\lvgl\version_6.1.2\lvgl\src\lv_core/lv_style.c ****     lv_style_btn_tgl_pr.text.color      = lv_color_make(0xa4, 0xb5, 0xc6);
 1624              		.loc 1 207 0
 1625 0480 88F80B40 		strb	r4, [r8, #11]
 208:..\..\..\lvgl\version_6.1.2\lvgl\src\lv_core/lv_style.c ****     lv_style_btn_tgl_pr.image.color     = lv_color_make(0xa4, 0xb5, 0xc6);
 1626              		.loc 1 208 0
 1627 0484 88F82CB0 		strb	fp, [r8, #44]
 1628 0488 88F82DA0 		strb	r10, [r8, #45]
 1629 048c 88F82E90 		strb	r9, [r8, #46]
 209:..\..\..\lvgl\version_6.1.2\lvgl\src\lv_core/lv_style.c ****     lv_style_btn_tgl_pr.line.color      = lv_color_make(0xa4, 0xb5, 0xc6);
 1630              		.loc 1 209 0
 1631 0490 88F840B0 		strb	fp, [r8, #64]
 1632 0494 88F841A0 		strb	r10, [r8, #65]
 1633 0498 88F84290 		strb	r9, [r8, #66]
 210:..\..\..\lvgl\version_6.1.2\lvgl\src\lv_core/lv_style.c **** 
 1634              		.loc 1 210 0
 1635 049c 88F848B0 		strb	fp, [r8, #72]
 1636 04a0 88F849A0 		strb	r10, [r8, #73]
 1637 04a4 88F84A90 		strb	r9, [r8, #74]
 208:..\..\..\lvgl\version_6.1.2\lvgl\src\lv_core/lv_style.c ****     lv_style_btn_tgl_pr.image.color     = lv_color_make(0xa4, 0xb5, 0xc6);
ARM GAS  C:\Users\pearlstl\AppData\Local\Temp\ccvteysW.s 			page 50


 1638              		.loc 1 208 0
 1639 04a8 88F82F40 		strb	r4, [r8, #47]
 209:..\..\..\lvgl\version_6.1.2\lvgl\src\lv_core/lv_style.c ****     lv_style_btn_tgl_pr.line.color      = lv_color_make(0xa4, 0xb5, 0xc6);
 1640              		.loc 1 209 0
 1641 04ac 88F84340 		strb	r4, [r8, #67]
 210:..\..\..\lvgl\version_6.1.2\lvgl\src\lv_core/lv_style.c **** 
 1642              		.loc 1 210 0
 1643 04b0 88F84B40 		strb	r4, [r8, #75]
 1644              	.LVL54:
 206:..\..\..\lvgl\version_6.1.2\lvgl\src\lv_core/lv_style.c ****     lv_style_btn_tgl_pr.body.grad_color = lv_color_make(0x2b, 0x4c, 0x70);
 1645              		.loc 1 206 0
 1646 04b4 88F804E0 		strb	lr, [r8, #4]
 1647 04b8 88F80550 		strb	r5, [r8, #5]
 207:..\..\..\lvgl\version_6.1.2\lvgl\src\lv_core/lv_style.c ****     lv_style_btn_tgl_pr.text.color      = lv_color_make(0xa4, 0xb5, 0xc6);
 1648              		.loc 1 207 0
 1649 04bc 88F80860 		strb	r6, [r8, #8]
 1650              	.LBB313:
 1651              	.LBB310:
 229:..\..\..\lvgl\version_6.1.2\lvgl\src\lv_core/lv_style.c **** }
 1652              		.loc 1 229 0
 1653 04c0 FFF7FEFF 		bl	memcpy
 1654              	.LVL55:
 1655              	.LBE310:
 1656              	.LBE313:
 214:..\..\..\lvgl\version_6.1.2\lvgl\src\lv_core/lv_style.c ****     lv_style_btn_ina.body.grad_color   = lv_color_make(0xd8, 0xd8, 0xd8);
 1657              		.loc 1 214 0
 1658 04c4 6FF02703 		mvn	r3, #39
 1659 04c8 3B71     		strb	r3, [r7, #4]
 1660 04ca 7B71     		strb	r3, [r7, #5]
 1661 04cc BB71     		strb	r3, [r7, #6]
 215:..\..\..\lvgl\version_6.1.2\lvgl\src\lv_core/lv_style.c ****     lv_style_btn_ina.body.border.color = lv_color_make(0x90, 0x90, 0x90);
 1662              		.loc 1 215 0
 1663 04ce 3B72     		strb	r3, [r7, #8]
 1664 04d0 7B72     		strb	r3, [r7, #9]
 1665 04d2 BB72     		strb	r3, [r7, #10]
 216:..\..\..\lvgl\version_6.1.2\lvgl\src\lv_core/lv_style.c ****     lv_style_btn_ina.text.color        = lv_color_make(0x70, 0x70, 0x70);
 1666              		.loc 1 216 0
 1667 04d4 019B     		ldr	r3, [sp, #4]
 214:..\..\..\lvgl\version_6.1.2\lvgl\src\lv_core/lv_style.c ****     lv_style_btn_ina.body.grad_color   = lv_color_make(0xd8, 0xd8, 0xd8);
 1668              		.loc 1 214 0
 1669 04d6 FC71     		strb	r4, [r7, #7]
 215:..\..\..\lvgl\version_6.1.2\lvgl\src\lv_core/lv_style.c ****     lv_style_btn_ina.body.border.color = lv_color_make(0x90, 0x90, 0x90);
 1670              		.loc 1 215 0
 1671 04d8 FC72     		strb	r4, [r7, #11]
 216:..\..\..\lvgl\version_6.1.2\lvgl\src\lv_core/lv_style.c ****     lv_style_btn_ina.text.color        = lv_color_make(0x70, 0x70, 0x70);
 1672              		.loc 1 216 0
 1673 04da 3B74     		strb	r3, [r7, #16]
 1674 04dc 7B74     		strb	r3, [r7, #17]
 1675 04de BB74     		strb	r3, [r7, #18]
 1676 04e0 FC74     		strb	r4, [r7, #19]
 217:..\..\..\lvgl\version_6.1.2\lvgl\src\lv_core/lv_style.c ****     lv_style_btn_ina.image.color       = lv_color_make(0x70, 0x70, 0x70);
 1677              		.loc 1 217 0
 1678 04e2 87F82C60 		strb	r6, [r7, #44]
 1679 04e6 87F82D60 		strb	r6, [r7, #45]
 1680 04ea 87F82E60 		strb	r6, [r7, #46]
 1681 04ee 87F82F40 		strb	r4, [r7, #47]
 218:..\..\..\lvgl\version_6.1.2\lvgl\src\lv_core/lv_style.c ****     lv_style_btn_ina.line.color        = lv_color_make(0x70, 0x70, 0x70);
ARM GAS  C:\Users\pearlstl\AppData\Local\Temp\ccvteysW.s 			page 51


 1682              		.loc 1 218 0
 1683 04f2 87F84060 		strb	r6, [r7, #64]
 1684 04f6 87F84160 		strb	r6, [r7, #65]
 1685 04fa 87F84260 		strb	r6, [r7, #66]
 1686 04fe 87F84340 		strb	r4, [r7, #67]
 219:..\..\..\lvgl\version_6.1.2\lvgl\src\lv_core/lv_style.c **** }
 1687              		.loc 1 219 0
 1688 0502 87F84860 		strb	r6, [r7, #72]
 1689 0506 87F84960 		strb	r6, [r7, #73]
 1690 050a 87F84A60 		strb	r6, [r7, #74]
 1691 050e 87F84B40 		strb	r4, [r7, #75]
 220:..\..\..\lvgl\version_6.1.2\lvgl\src\lv_core/lv_style.c **** 
 1692              		.loc 1 220 0
 1693 0512 03B0     		add	sp, sp, #12
 1694              		.cfi_def_cfa_offset 36
 1695              		@ sp needed
 1696 0514 BDE8F08F 		pop	{r4, r5, r6, r7, r8, r9, r10, fp, pc}
 1697              	.L38:
 1698              		.align	2
 1699              	.L37:
 1700 0518 00000000 		.word	lv_style_btn_ina
 1701              		.cfi_endproc
 1702              	.LFE31:
 1703              		.size	lv_style_init, .-lv_style_init
 1704              		.section	.text.lv_style_copy,"ax",%progbits
 1705              		.align	2
 1706              		.global	lv_style_copy
 1707              		.thumb
 1708              		.thumb_func
 1709              		.type	lv_style_copy, %function
 1710              	lv_style_copy:
 1711              	.LFB32:
 228:..\..\..\lvgl\version_6.1.2\lvgl\src\lv_core/lv_style.c ****     memcpy(dest, src, sizeof(lv_style_t));
 1712              		.loc 1 228 0
 1713              		.cfi_startproc
 1714              		@ args = 0, pretend = 0, frame = 0
 1715              		@ frame_needed = 0, uses_anonymous_args = 0
 1716              		@ link register save eliminated.
 1717              	.LVL56:
 229:..\..\..\lvgl\version_6.1.2\lvgl\src\lv_core/lv_style.c **** }
 1718              		.loc 1 229 0
 1719 0000 5022     		movs	r2, #80
 1720 0002 FFF7FEBF 		b	memcpy
 1721              	.LVL57:
 1722              		.cfi_endproc
 1723              	.LFE32:
 1724              		.size	lv_style_copy, .-lv_style_copy
 1725 0006 00BF     		.section	.text.lv_style_mix,"ax",%progbits
 1726              		.align	2
 1727              		.global	lv_style_mix
 1728              		.thumb
 1729              		.thumb_func
 1730              		.type	lv_style_mix, %function
 1731              	lv_style_mix:
 1732              	.LFB33:
 240:..\..\..\lvgl\version_6.1.2\lvgl\src\lv_core/lv_style.c ****     STYLE_ATTR_MIX(body.opa, ratio);
 1733              		.loc 1 240 0
ARM GAS  C:\Users\pearlstl\AppData\Local\Temp\ccvteysW.s 			page 52


 1734              		.cfi_startproc
 1735              		@ args = 0, pretend = 0, frame = 0
 1736              		@ frame_needed = 0, uses_anonymous_args = 0
 1737              	.LVL58:
 1738 0000 2DE9F047 		push	{r4, r5, r6, r7, r8, r9, r10, lr}
 1739              		.cfi_def_cfa_offset 32
 1740              		.cfi_offset 4, -32
 1741              		.cfi_offset 5, -28
 1742              		.cfi_offset 6, -24
 1743              		.cfi_offset 7, -20
 1744              		.cfi_offset 8, -16
 1745              		.cfi_offset 9, -12
 1746              		.cfi_offset 10, -8
 1747              		.cfi_offset 14, -4
 241:..\..\..\lvgl\version_6.1.2\lvgl\src\lv_core/lv_style.c ****     STYLE_ATTR_MIX(body.radius, ratio);
 1748              		.loc 1 241 0
 1749 0004 857B     		ldrb	r5, [r0, #14]	@ zero_extendqisi2
 1750 0006 8C7B     		ldrb	r4, [r1, #14]	@ zero_extendqisi2
 1751 0008 A542     		cmp	r5, r4
 1752 000a 05D0     		beq	.L41
 241:..\..\..\lvgl\version_6.1.2\lvgl\src\lv_core/lv_style.c ****     STYLE_ATTR_MIX(body.radius, ratio);
 1753              		.loc 1 241 0 is_stmt 0 discriminator 1
 1754 000c 641B     		subs	r4, r4, r5
 1755 000e 03FB04F4 		mul	r4, r3, r4
 1756 0012 05EB2424 		add	r4, r5, r4, asr #8
 1757 0016 E4B2     		uxtb	r4, r4
 1758              	.L41:
 1759 0018 9473     		strb	r4, [r2, #14]
 242:..\..\..\lvgl\version_6.1.2\lvgl\src\lv_core/lv_style.c ****     STYLE_ATTR_MIX(body.border.width, ratio);
 1760              		.loc 1 242 0 is_stmt 1
 1761 001a B0F90C40 		ldrsh	r4, [r0, #12]
 1762 001e B1F90C50 		ldrsh	r5, [r1, #12]
 1763 0022 AC42     		cmp	r4, r5
 1764 0024 05D0     		beq	.L42
 242:..\..\..\lvgl\version_6.1.2\lvgl\src\lv_core/lv_style.c ****     STYLE_ATTR_MIX(body.border.width, ratio);
 1765              		.loc 1 242 0 is_stmt 0 discriminator 1
 1766 0026 2D1B     		subs	r5, r5, r4
 1767 0028 03FB05F5 		mul	r5, r3, r5
 1768 002c 04EB2525 		add	r5, r4, r5, asr #8
 1769 0030 2DB2     		sxth	r5, r5
 1770              	.L42:
 243:..\..\..\lvgl\version_6.1.2\lvgl\src\lv_core/lv_style.c ****     STYLE_ATTR_MIX(body.border.opa, ratio);
 1771              		.loc 1 243 0 is_stmt 1
 1772 0032 B0F91460 		ldrsh	r6, [r0, #20]
 1773 0036 B1F91440 		ldrsh	r4, [r1, #20]
 1774 003a 9581     		strh	r5, [r2, #12]	@ movhi
 1775 003c A642     		cmp	r6, r4
 1776 003e 05D0     		beq	.L43
 243:..\..\..\lvgl\version_6.1.2\lvgl\src\lv_core/lv_style.c ****     STYLE_ATTR_MIX(body.border.opa, ratio);
 1777              		.loc 1 243 0 is_stmt 0 discriminator 1
 1778 0040 A41B     		subs	r4, r4, r6
 1779 0042 03FB04F4 		mul	r4, r3, r4
 1780 0046 06EB2424 		add	r4, r6, r4, asr #8
 1781 004a 24B2     		sxth	r4, r4
 1782              	.L43:
 1783 004c 9482     		strh	r4, [r2, #20]	@ movhi
 244:..\..\..\lvgl\version_6.1.2\lvgl\src\lv_core/lv_style.c ****     STYLE_ATTR_MIX(body.shadow.width, ratio);
ARM GAS  C:\Users\pearlstl\AppData\Local\Temp\ccvteysW.s 			page 53


 1784              		.loc 1 244 0 is_stmt 1
 1785 004e C57D     		ldrb	r5, [r0, #23]	@ zero_extendqisi2
 1786 0050 CC7D     		ldrb	r4, [r1, #23]	@ zero_extendqisi2
 1787 0052 A542     		cmp	r5, r4
 1788 0054 05D0     		beq	.L44
 244:..\..\..\lvgl\version_6.1.2\lvgl\src\lv_core/lv_style.c ****     STYLE_ATTR_MIX(body.shadow.width, ratio);
 1789              		.loc 1 244 0 is_stmt 0 discriminator 1
 1790 0056 641B     		subs	r4, r4, r5
 1791 0058 03FB04F4 		mul	r4, r3, r4
 1792 005c 05EB2424 		add	r4, r5, r4, asr #8
 1793 0060 E4B2     		uxtb	r4, r4
 1794              	.L44:
 1795 0062 D475     		strb	r4, [r2, #23]
 245:..\..\..\lvgl\version_6.1.2\lvgl\src\lv_core/lv_style.c ****     STYLE_ATTR_MIX(body.padding.left, ratio);
 1796              		.loc 1 245 0 is_stmt 1
 1797 0064 B0F91C40 		ldrsh	r4, [r0, #28]
 1798 0068 B1F91C50 		ldrsh	r5, [r1, #28]
 1799 006c AC42     		cmp	r4, r5
 1800 006e 05D0     		beq	.L45
 245:..\..\..\lvgl\version_6.1.2\lvgl\src\lv_core/lv_style.c ****     STYLE_ATTR_MIX(body.padding.left, ratio);
 1801              		.loc 1 245 0 is_stmt 0 discriminator 1
 1802 0070 2D1B     		subs	r5, r5, r4
 1803 0072 03FB05F5 		mul	r5, r3, r5
 1804 0076 04EB2525 		add	r5, r4, r5, asr #8
 1805 007a 2DB2     		sxth	r5, r5
 1806              	.L45:
 246:..\..\..\lvgl\version_6.1.2\lvgl\src\lv_core/lv_style.c ****     STYLE_ATTR_MIX(body.padding.right, ratio);
 1807              		.loc 1 246 0 is_stmt 1
 1808 007c B0F92460 		ldrsh	r6, [r0, #36]
 1809 0080 B1F92440 		ldrsh	r4, [r1, #36]
 1810 0084 9583     		strh	r5, [r2, #28]	@ movhi
 1811 0086 A642     		cmp	r6, r4
 1812 0088 05D0     		beq	.L46
 246:..\..\..\lvgl\version_6.1.2\lvgl\src\lv_core/lv_style.c ****     STYLE_ATTR_MIX(body.padding.right, ratio);
 1813              		.loc 1 246 0 is_stmt 0 discriminator 1
 1814 008a A41B     		subs	r4, r4, r6
 1815 008c 03FB04F4 		mul	r4, r3, r4
 1816 0090 06EB2424 		add	r4, r6, r4, asr #8
 1817 0094 24B2     		sxth	r4, r4
 1818              	.L46:
 247:..\..\..\lvgl\version_6.1.2\lvgl\src\lv_core/lv_style.c ****     STYLE_ATTR_MIX(body.padding.top, ratio);
 1819              		.loc 1 247 0 is_stmt 1
 1820 0096 B0F92660 		ldrsh	r6, [r0, #38]
 1821 009a B1F92650 		ldrsh	r5, [r1, #38]
 1822 009e 9484     		strh	r4, [r2, #36]	@ movhi
 1823 00a0 AE42     		cmp	r6, r5
 1824 00a2 05D0     		beq	.L47
 247:..\..\..\lvgl\version_6.1.2\lvgl\src\lv_core/lv_style.c ****     STYLE_ATTR_MIX(body.padding.top, ratio);
 1825              		.loc 1 247 0 is_stmt 0 discriminator 1
 1826 00a4 AD1B     		subs	r5, r5, r6
 1827 00a6 03FB05F5 		mul	r5, r3, r5
 1828 00aa 06EB2525 		add	r5, r6, r5, asr #8
 1829 00ae 2DB2     		sxth	r5, r5
 1830              	.L47:
 248:..\..\..\lvgl\version_6.1.2\lvgl\src\lv_core/lv_style.c ****     STYLE_ATTR_MIX(body.padding.bottom, ratio);
 1831              		.loc 1 248 0 is_stmt 1
 1832 00b0 B0F92060 		ldrsh	r6, [r0, #32]
ARM GAS  C:\Users\pearlstl\AppData\Local\Temp\ccvteysW.s 			page 54


 1833 00b4 B1F92040 		ldrsh	r4, [r1, #32]
 1834 00b8 D584     		strh	r5, [r2, #38]	@ movhi
 1835 00ba A642     		cmp	r6, r4
 1836 00bc 05D0     		beq	.L48
 248:..\..\..\lvgl\version_6.1.2\lvgl\src\lv_core/lv_style.c ****     STYLE_ATTR_MIX(body.padding.bottom, ratio);
 1837              		.loc 1 248 0 is_stmt 0 discriminator 1
 1838 00be A41B     		subs	r4, r4, r6
 1839 00c0 03FB04F4 		mul	r4, r3, r4
 1840 00c4 06EB2424 		add	r4, r6, r4, asr #8
 1841 00c8 24B2     		sxth	r4, r4
 1842              	.L48:
 249:..\..\..\lvgl\version_6.1.2\lvgl\src\lv_core/lv_style.c ****     STYLE_ATTR_MIX(body.padding.inner, ratio);
 1843              		.loc 1 249 0 is_stmt 1
 1844 00ca B0F92260 		ldrsh	r6, [r0, #34]
 1845 00ce B1F92250 		ldrsh	r5, [r1, #34]
 1846 00d2 1484     		strh	r4, [r2, #32]	@ movhi
 1847 00d4 AE42     		cmp	r6, r5
 1848 00d6 05D0     		beq	.L49
 249:..\..\..\lvgl\version_6.1.2\lvgl\src\lv_core/lv_style.c ****     STYLE_ATTR_MIX(body.padding.inner, ratio);
 1849              		.loc 1 249 0 is_stmt 0 discriminator 1
 1850 00d8 AD1B     		subs	r5, r5, r6
 1851 00da 03FB05F5 		mul	r5, r3, r5
 1852 00de 06EB2525 		add	r5, r6, r5, asr #8
 1853 00e2 2DB2     		sxth	r5, r5
 1854              	.L49:
 250:..\..\..\lvgl\version_6.1.2\lvgl\src\lv_core/lv_style.c ****     STYLE_ATTR_MIX(text.line_space, ratio);
 1855              		.loc 1 250 0 is_stmt 1
 1856 00e4 B0F92860 		ldrsh	r6, [r0, #40]
 1857 00e8 B1F92840 		ldrsh	r4, [r1, #40]
 1858 00ec 5584     		strh	r5, [r2, #34]	@ movhi
 1859 00ee A642     		cmp	r6, r4
 1860 00f0 05D0     		beq	.L50
 250:..\..\..\lvgl\version_6.1.2\lvgl\src\lv_core/lv_style.c ****     STYLE_ATTR_MIX(text.line_space, ratio);
 1861              		.loc 1 250 0 is_stmt 0 discriminator 1
 1862 00f2 A41B     		subs	r4, r4, r6
 1863 00f4 03FB04F4 		mul	r4, r3, r4
 1864 00f8 06EB2424 		add	r4, r6, r4, asr #8
 1865 00fc 24B2     		sxth	r4, r4
 1866              	.L50:
 251:..\..\..\lvgl\version_6.1.2\lvgl\src\lv_core/lv_style.c ****     STYLE_ATTR_MIX(text.letter_space, ratio);
 1867              		.loc 1 251 0 is_stmt 1
 1868 00fe B0F93A60 		ldrsh	r6, [r0, #58]
 1869 0102 B1F93A50 		ldrsh	r5, [r1, #58]
 1870 0106 1485     		strh	r4, [r2, #40]	@ movhi
 1871 0108 AE42     		cmp	r6, r5
 1872 010a 05D0     		beq	.L51
 251:..\..\..\lvgl\version_6.1.2\lvgl\src\lv_core/lv_style.c ****     STYLE_ATTR_MIX(text.letter_space, ratio);
 1873              		.loc 1 251 0 is_stmt 0 discriminator 1
 1874 010c AD1B     		subs	r5, r5, r6
 1875 010e 03FB05F5 		mul	r5, r3, r5
 1876 0112 06EB2525 		add	r5, r6, r5, asr #8
 1877 0116 2DB2     		sxth	r5, r5
 1878              	.L51:
 252:..\..\..\lvgl\version_6.1.2\lvgl\src\lv_core/lv_style.c ****     STYLE_ATTR_MIX(text.opa, ratio);
 1879              		.loc 1 252 0 is_stmt 1
 1880 0118 B0F93860 		ldrsh	r6, [r0, #56]
 1881 011c B1F93840 		ldrsh	r4, [r1, #56]
ARM GAS  C:\Users\pearlstl\AppData\Local\Temp\ccvteysW.s 			page 55


 1882 0120 5587     		strh	r5, [r2, #58]	@ movhi
 1883 0122 A642     		cmp	r6, r4
 1884 0124 05D0     		beq	.L52
 252:..\..\..\lvgl\version_6.1.2\lvgl\src\lv_core/lv_style.c ****     STYLE_ATTR_MIX(text.opa, ratio);
 1885              		.loc 1 252 0 is_stmt 0 discriminator 1
 1886 0126 A41B     		subs	r4, r4, r6
 1887 0128 03FB04F4 		mul	r4, r3, r4
 1888 012c 06EB2424 		add	r4, r6, r4, asr #8
 1889 0130 24B2     		sxth	r4, r4
 1890              	.L52:
 1891 0132 1487     		strh	r4, [r2, #56]	@ movhi
 253:..\..\..\lvgl\version_6.1.2\lvgl\src\lv_core/lv_style.c ****     STYLE_ATTR_MIX(line.width, ratio);
 1892              		.loc 1 253 0 is_stmt 1
 1893 0134 90F83C50 		ldrb	r5, [r0, #60]	@ zero_extendqisi2
 1894 0138 91F83C40 		ldrb	r4, [r1, #60]	@ zero_extendqisi2
 1895 013c A542     		cmp	r5, r4
 1896 013e 05D0     		beq	.L53
 253:..\..\..\lvgl\version_6.1.2\lvgl\src\lv_core/lv_style.c ****     STYLE_ATTR_MIX(line.width, ratio);
 1897              		.loc 1 253 0 is_stmt 0 discriminator 1
 1898 0140 641B     		subs	r4, r4, r5
 1899 0142 03FB04F4 		mul	r4, r3, r4
 1900 0146 05EB2424 		add	r4, r5, r4, asr #8
 1901 014a E4B2     		uxtb	r4, r4
 1902              	.L53:
 1903 014c 82F83C40 		strb	r4, [r2, #60]
 254:..\..\..\lvgl\version_6.1.2\lvgl\src\lv_core/lv_style.c ****     STYLE_ATTR_MIX(line.opa, ratio);
 1904              		.loc 1 254 0 is_stmt 1
 1905 0150 B0F94C50 		ldrsh	r5, [r0, #76]
 1906 0154 B1F94C40 		ldrsh	r4, [r1, #76]
 1907 0158 A542     		cmp	r5, r4
 1908 015a 05D0     		beq	.L54
 254:..\..\..\lvgl\version_6.1.2\lvgl\src\lv_core/lv_style.c ****     STYLE_ATTR_MIX(line.opa, ratio);
 1909              		.loc 1 254 0 is_stmt 0 discriminator 1
 1910 015c 641B     		subs	r4, r4, r5
 1911 015e 03FB04F4 		mul	r4, r3, r4
 1912 0162 05EB2424 		add	r4, r5, r4, asr #8
 1913 0166 24B2     		sxth	r4, r4
 1914              	.L54:
 1915 0168 A2F84C40 		strh	r4, [r2, #76]	@ movhi
 255:..\..\..\lvgl\version_6.1.2\lvgl\src\lv_core/lv_style.c ****     STYLE_ATTR_MIX(image.intense, ratio);
 1916              		.loc 1 255 0 is_stmt 1
 1917 016c 90F84E50 		ldrb	r5, [r0, #78]	@ zero_extendqisi2
 1918 0170 91F84E40 		ldrb	r4, [r1, #78]	@ zero_extendqisi2
 1919 0174 A542     		cmp	r5, r4
 1920 0176 05D0     		beq	.L55
 255:..\..\..\lvgl\version_6.1.2\lvgl\src\lv_core/lv_style.c ****     STYLE_ATTR_MIX(image.intense, ratio);
 1921              		.loc 1 255 0 is_stmt 0 discriminator 1
 1922 0178 641B     		subs	r4, r4, r5
 1923 017a 03FB04F4 		mul	r4, r3, r4
 1924 017e 05EB2424 		add	r4, r5, r4, asr #8
 1925 0182 E4B2     		uxtb	r4, r4
 1926              	.L55:
 1927 0184 82F84E40 		strb	r4, [r2, #78]
 256:..\..\..\lvgl\version_6.1.2\lvgl\src\lv_core/lv_style.c ****     STYLE_ATTR_MIX(image.opa, ratio);
 1928              		.loc 1 256 0 is_stmt 1
 1929 0188 90F84450 		ldrb	r5, [r0, #68]	@ zero_extendqisi2
 1930 018c 91F84440 		ldrb	r4, [r1, #68]	@ zero_extendqisi2
ARM GAS  C:\Users\pearlstl\AppData\Local\Temp\ccvteysW.s 			page 56


 1931 0190 A542     		cmp	r5, r4
 1932 0192 05D0     		beq	.L56
 256:..\..\..\lvgl\version_6.1.2\lvgl\src\lv_core/lv_style.c ****     STYLE_ATTR_MIX(image.opa, ratio);
 1933              		.loc 1 256 0 is_stmt 0 discriminator 1
 1934 0194 641B     		subs	r4, r4, r5
 1935 0196 03FB04F4 		mul	r4, r3, r4
 1936 019a 05EB2424 		add	r4, r5, r4, asr #8
 1937 019e E4B2     		uxtb	r4, r4
 1938              	.L56:
 1939 01a0 82F84440 		strb	r4, [r2, #68]
 257:..\..\..\lvgl\version_6.1.2\lvgl\src\lv_core/lv_style.c **** 
 1940              		.loc 1 257 0 is_stmt 1
 1941 01a4 90F84550 		ldrb	r5, [r0, #69]	@ zero_extendqisi2
 1942 01a8 91F84540 		ldrb	r4, [r1, #69]	@ zero_extendqisi2
 1943 01ac A542     		cmp	r5, r4
 1944 01ae 05D0     		beq	.L57
 257:..\..\..\lvgl\version_6.1.2\lvgl\src\lv_core/lv_style.c **** 
 1945              		.loc 1 257 0 is_stmt 0 discriminator 1
 1946 01b0 641B     		subs	r4, r4, r5
 1947 01b2 03FB04F4 		mul	r4, r3, r4
 1948 01b6 05EB2424 		add	r4, r5, r4, asr #8
 1949 01ba E4B2     		uxtb	r4, r4
 1950              	.L57:
 259:..\..\..\lvgl\version_6.1.2\lvgl\src\lv_core/lv_style.c **** 
 1951              		.loc 1 259 0 is_stmt 1
 1952 01bc B3F5807F 		cmp	r3, #256
 1953 01c0 82F84540 		strb	r4, [r2, #69]
 1954 01c4 00F02F81 		beq	.L61
 1955 01c8 DCB2     		uxtb	r4, r3
 1956 01ca C4F1FF05 		rsb	r5, r4, #255
 1957 01ce ADB2     		uxth	r5, r5
 1958 01d0 A4B2     		uxth	r4, r4
 1959              	.L58:
 1960              	.LBB314:
 1961              	.LBB315:
 437:..\..\..\lvgl\version_6.1.2\lvgl\src\lv_core\../lv_misc/lv_color.h ****     LV_COLOR_SET_G(ret, (uint16_t)((uint16_t) LV_COLOR_GET_G(c1) * mix + LV_COLOR_GET_G(c2) * (255 
 1962              		.loc 2 437 0 discriminator 4
 1963 01d2 90F80680 		ldrb	r8, [r0, #6]	@ zero_extendqisi2
 1964              		.loc 2 438 0 discriminator 4
 1965 01d6 90F805E0 		ldrb	lr, [r0, #5]	@ zero_extendqisi2
 1966              	.LBE315:
 1967              	.LBE314:
 261:..\..\..\lvgl\version_6.1.2\lvgl\src\lv_core/lv_style.c ****     res->body.grad_color   = lv_color_mix(end->body.grad_color, start->body.grad_color, opa);
 1968              		.loc 1 261 0 discriminator 4
 1969 01da 0779     		ldrb	r7, [r0, #4]	@ zero_extendqisi2
 1970              	.LBB321:
 1971              	.LBB316:
 437:..\..\..\lvgl\version_6.1.2\lvgl\src\lv_core\../lv_misc/lv_color.h ****     LV_COLOR_SET_G(ret, (uint16_t)((uint16_t) LV_COLOR_GET_G(c1) * mix + LV_COLOR_GET_G(c2) * (255 
 1972              		.loc 2 437 0 discriminator 4
 1973 01dc 91F80690 		ldrb	r9, [r1, #6]	@ zero_extendqisi2
 1974              		.loc 2 438 0 discriminator 4
 1975 01e0 91F805C0 		ldrb	ip, [r1, #5]	@ zero_extendqisi2
 1976              	.LBE316:
 1977              	.LBE321:
 261:..\..\..\lvgl\version_6.1.2\lvgl\src\lv_core/lv_style.c ****     res->body.grad_color   = lv_color_mix(end->body.grad_color, start->body.grad_color, opa);
 1978              		.loc 1 261 0 discriminator 4
 1979 01e4 0E79     		ldrb	r6, [r1, #4]	@ zero_extendqisi2
ARM GAS  C:\Users\pearlstl\AppData\Local\Temp\ccvteysW.s 			page 57


 1980              	.LBB322:
 1981              	.LBB317:
 437:..\..\..\lvgl\version_6.1.2\lvgl\src\lv_core\../lv_misc/lv_color.h ****     LV_COLOR_SET_G(ret, (uint16_t)((uint16_t) LV_COLOR_GET_G(c1) * mix + LV_COLOR_GET_G(c2) * (255 
 1982              		.loc 2 437 0 discriminator 4
 1983 01e6 18FB05F8 		smulbb	r8, r8, r5
 1984              		.loc 2 438 0 discriminator 4
 1985 01ea 1EFB05FE 		smulbb	lr, lr, r5
 1986              	.LBE317:
 1987              	.LBE322:
 261:..\..\..\lvgl\version_6.1.2\lvgl\src\lv_core/lv_style.c ****     res->body.grad_color   = lv_color_mix(end->body.grad_color, start->body.grad_color, opa);
 1988              		.loc 1 261 0 discriminator 4
 1989 01ee 17FB05F7 		smulbb	r7, r7, r5
 1990              	.LBB323:
 1991              	.LBB318:
 437:..\..\..\lvgl\version_6.1.2\lvgl\src\lv_core\../lv_misc/lv_color.h ****     LV_COLOR_SET_G(ret, (uint16_t)((uint16_t) LV_COLOR_GET_G(c1) * mix + LV_COLOR_GET_G(c2) * (255 
 1992              		.loc 2 437 0 discriminator 4
 1993 01f2 09FB0488 		mla	r8, r9, r4, r8
 1994              		.loc 2 438 0 discriminator 4
 1995 01f6 0CFB04EE 		mla	lr, ip, r4, lr
 1996              	.LBE318:
 1997              	.LBE323:
 261:..\..\..\lvgl\version_6.1.2\lvgl\src\lv_core/lv_style.c ****     res->body.grad_color   = lv_color_mix(end->body.grad_color, start->body.grad_color, opa);
 1998              		.loc 1 261 0 discriminator 4
 1999 01fa 06FB0477 		mla	r7, r6, r4, r7
 2000              	.LBB324:
 2001              	.LBB319:
 437:..\..\..\lvgl\version_6.1.2\lvgl\src\lv_core\../lv_misc/lv_color.h ****     LV_COLOR_SET_G(ret, (uint16_t)((uint16_t) LV_COLOR_GET_G(c1) * mix + LV_COLOR_GET_G(c2) * (255 
 2002              		.loc 2 437 0 discriminator 4
 2003 01fe C8F3072C 		ubfx	ip, r8, #8, #8
 2004              	.LVL59:
 2005              	.LBE319:
 2006              	.LBE324:
 261:..\..\..\lvgl\version_6.1.2\lvgl\src\lv_core/lv_style.c ****     res->body.grad_color   = lv_color_mix(end->body.grad_color, start->body.grad_color, opa);
 2007              		.loc 1 261 0 discriminator 4
 2008 0202 FF26     		movs	r6, #255
 2009              	.LBB325:
 2010              	.LBB320:
 2011              		.loc 2 438 0 discriminator 4
 2012 0204 CEF3072E 		ubfx	lr, lr, #8, #8
 2013              	.LVL60:
 2014              	.LBE320:
 2015              	.LBE325:
 261:..\..\..\lvgl\version_6.1.2\lvgl\src\lv_core/lv_style.c ****     res->body.grad_color   = lv_color_mix(end->body.grad_color, start->body.grad_color, opa);
 2016              		.loc 1 261 0 discriminator 4
 2017 0208 C7F30727 		ubfx	r7, r7, #8, #8
 2018 020c D671     		strb	r6, [r2, #7]
 2019 020e 82F806C0 		strb	ip, [r2, #6]
 2020 0212 82F805E0 		strb	lr, [r2, #5]
 2021 0216 1771     		strb	r7, [r2, #4]
 2022              	.LBB326:
 2023              	.LBB327:
 437:..\..\..\lvgl\version_6.1.2\lvgl\src\lv_core\../lv_misc/lv_color.h ****     LV_COLOR_SET_G(ret, (uint16_t)((uint16_t) LV_COLOR_GET_G(c1) * mix + LV_COLOR_GET_G(c2) * (255 
 2024              		.loc 2 437 0 discriminator 4
 2025 0218 90F80A90 		ldrb	r9, [r0, #10]	@ zero_extendqisi2
 2026              		.loc 2 438 0 discriminator 4
 2027 021c 90F809C0 		ldrb	ip, [r0, #9]	@ zero_extendqisi2
 2028              	.LBE327:
ARM GAS  C:\Users\pearlstl\AppData\Local\Temp\ccvteysW.s 			page 58


 2029              	.LBE326:
 262:..\..\..\lvgl\version_6.1.2\lvgl\src\lv_core/lv_style.c ****     res->body.border.color = lv_color_mix(end->body.border.color, start->body.border.color, opa);
 2030              		.loc 1 262 0 discriminator 4
 2031 0220 077A     		ldrb	r7, [r0, #8]	@ zero_extendqisi2
 2032              	.LBB332:
 2033              	.LBB328:
 437:..\..\..\lvgl\version_6.1.2\lvgl\src\lv_core\../lv_misc/lv_color.h ****     LV_COLOR_SET_G(ret, (uint16_t)((uint16_t) LV_COLOR_GET_G(c1) * mix + LV_COLOR_GET_G(c2) * (255 
 2034              		.loc 2 437 0 discriminator 4
 2035 0222 91F80AA0 		ldrb	r10, [r1, #10]	@ zero_extendqisi2
 2036              		.loc 2 438 0 discriminator 4
 2037 0226 91F80980 		ldrb	r8, [r1, #9]	@ zero_extendqisi2
 2038              	.LBE328:
 2039              	.LBE332:
 262:..\..\..\lvgl\version_6.1.2\lvgl\src\lv_core/lv_style.c ****     res->body.border.color = lv_color_mix(end->body.border.color, start->body.border.color, opa);
 2040              		.loc 1 262 0 discriminator 4
 2041 022a 91F808E0 		ldrb	lr, [r1, #8]	@ zero_extendqisi2
 2042 022e D672     		strb	r6, [r2, #11]
 2043              	.LBB333:
 2044              	.LBB329:
 437:..\..\..\lvgl\version_6.1.2\lvgl\src\lv_core\../lv_misc/lv_color.h ****     LV_COLOR_SET_G(ret, (uint16_t)((uint16_t) LV_COLOR_GET_G(c1) * mix + LV_COLOR_GET_G(c2) * (255 
 2045              		.loc 2 437 0 discriminator 4
 2046 0230 19FB05F9 		smulbb	r9, r9, r5
 2047              		.loc 2 438 0 discriminator 4
 2048 0234 1CFB05FC 		smulbb	ip, ip, r5
 2049              	.LBE329:
 2050              	.LBE333:
 262:..\..\..\lvgl\version_6.1.2\lvgl\src\lv_core/lv_style.c ****     res->body.border.color = lv_color_mix(end->body.border.color, start->body.border.color, opa);
 2051              		.loc 1 262 0 discriminator 4
 2052 0238 17FB05F7 		smulbb	r7, r7, r5
 2053              	.LBB334:
 2054              	.LBB330:
 437:..\..\..\lvgl\version_6.1.2\lvgl\src\lv_core\../lv_misc/lv_color.h ****     LV_COLOR_SET_G(ret, (uint16_t)((uint16_t) LV_COLOR_GET_G(c1) * mix + LV_COLOR_GET_G(c2) * (255 
 2055              		.loc 2 437 0 discriminator 4
 2056 023c 0AFB0499 		mla	r9, r10, r4, r9
 2057              		.loc 2 438 0 discriminator 4
 2058 0240 08FB04CC 		mla	ip, r8, r4, ip
 2059              	.LBE330:
 2060              	.LBE334:
 262:..\..\..\lvgl\version_6.1.2\lvgl\src\lv_core/lv_style.c ****     res->body.border.color = lv_color_mix(end->body.border.color, start->body.border.color, opa);
 2061              		.loc 1 262 0 discriminator 4
 2062 0244 0EFB0477 		mla	r7, lr, r4, r7
 2063              	.LBB335:
 2064              	.LBB331:
 437:..\..\..\lvgl\version_6.1.2\lvgl\src\lv_core\../lv_misc/lv_color.h ****     LV_COLOR_SET_G(ret, (uint16_t)((uint16_t) LV_COLOR_GET_G(c1) * mix + LV_COLOR_GET_G(c2) * (255 
 2065              		.loc 2 437 0 discriminator 4
 2066 0248 C9F30728 		ubfx	r8, r9, #8, #8
 2067              	.LVL61:
 2068              		.loc 2 438 0 discriminator 4
 2069 024c CCF3072E 		ubfx	lr, ip, #8, #8
 2070              	.LVL62:
 2071              	.LBE331:
 2072              	.LBE335:
 262:..\..\..\lvgl\version_6.1.2\lvgl\src\lv_core/lv_style.c ****     res->body.border.color = lv_color_mix(end->body.border.color, start->body.border.color, opa);
 2073              		.loc 1 262 0 discriminator 4
 2074 0250 C7F30727 		ubfx	r7, r7, #8, #8
 2075 0254 82F80A80 		strb	r8, [r2, #10]
 2076 0258 82F809E0 		strb	lr, [r2, #9]
ARM GAS  C:\Users\pearlstl\AppData\Local\Temp\ccvteysW.s 			page 59


 2077 025c 1772     		strb	r7, [r2, #8]
 2078              	.LBB336:
 2079              	.LBB337:
 437:..\..\..\lvgl\version_6.1.2\lvgl\src\lv_core\../lv_misc/lv_color.h ****     LV_COLOR_SET_G(ret, (uint16_t)((uint16_t) LV_COLOR_GET_G(c1) * mix + LV_COLOR_GET_G(c2) * (255 
 2080              		.loc 2 437 0 discriminator 4
 2081 025e 90F81290 		ldrb	r9, [r0, #18]	@ zero_extendqisi2
 2082              		.loc 2 438 0 discriminator 4
 2083 0262 90F811C0 		ldrb	ip, [r0, #17]	@ zero_extendqisi2
 2084              	.LBE337:
 2085              	.LBE336:
 263:..\..\..\lvgl\version_6.1.2\lvgl\src\lv_core/lv_style.c ****     res->body.shadow.color = lv_color_mix(end->body.shadow.color, start->body.shadow.color, opa);
 2086              		.loc 1 263 0 discriminator 4
 2087 0266 077C     		ldrb	r7, [r0, #16]	@ zero_extendqisi2
 2088              	.LBB342:
 2089              	.LBB338:
 437:..\..\..\lvgl\version_6.1.2\lvgl\src\lv_core\../lv_misc/lv_color.h ****     LV_COLOR_SET_G(ret, (uint16_t)((uint16_t) LV_COLOR_GET_G(c1) * mix + LV_COLOR_GET_G(c2) * (255 
 2090              		.loc 2 437 0 discriminator 4
 2091 0268 91F812A0 		ldrb	r10, [r1, #18]	@ zero_extendqisi2
 2092              		.loc 2 438 0 discriminator 4
 2093 026c 91F81180 		ldrb	r8, [r1, #17]	@ zero_extendqisi2
 2094              	.LBE338:
 2095              	.LBE342:
 263:..\..\..\lvgl\version_6.1.2\lvgl\src\lv_core/lv_style.c ****     res->body.shadow.color = lv_color_mix(end->body.shadow.color, start->body.shadow.color, opa);
 2096              		.loc 1 263 0 discriminator 4
 2097 0270 91F810E0 		ldrb	lr, [r1, #16]	@ zero_extendqisi2
 2098 0274 D674     		strb	r6, [r2, #19]
 2099              	.LBB343:
 2100              	.LBB339:
 437:..\..\..\lvgl\version_6.1.2\lvgl\src\lv_core\../lv_misc/lv_color.h ****     LV_COLOR_SET_G(ret, (uint16_t)((uint16_t) LV_COLOR_GET_G(c1) * mix + LV_COLOR_GET_G(c2) * (255 
 2101              		.loc 2 437 0 discriminator 4
 2102 0276 19FB05F9 		smulbb	r9, r9, r5
 2103              		.loc 2 438 0 discriminator 4
 2104 027a 1CFB05FC 		smulbb	ip, ip, r5
 2105              	.LBE339:
 2106              	.LBE343:
 263:..\..\..\lvgl\version_6.1.2\lvgl\src\lv_core/lv_style.c ****     res->body.shadow.color = lv_color_mix(end->body.shadow.color, start->body.shadow.color, opa);
 2107              		.loc 1 263 0 discriminator 4
 2108 027e 17FB05F7 		smulbb	r7, r7, r5
 2109              	.LBB344:
 2110              	.LBB340:
 437:..\..\..\lvgl\version_6.1.2\lvgl\src\lv_core\../lv_misc/lv_color.h ****     LV_COLOR_SET_G(ret, (uint16_t)((uint16_t) LV_COLOR_GET_G(c1) * mix + LV_COLOR_GET_G(c2) * (255 
 2111              		.loc 2 437 0 discriminator 4
 2112 0282 0AFB0499 		mla	r9, r10, r4, r9
 2113              		.loc 2 438 0 discriminator 4
 2114 0286 08FB04CC 		mla	ip, r8, r4, ip
 2115              	.LBE340:
 2116              	.LBE344:
 263:..\..\..\lvgl\version_6.1.2\lvgl\src\lv_core/lv_style.c ****     res->body.shadow.color = lv_color_mix(end->body.shadow.color, start->body.shadow.color, opa);
 2117              		.loc 1 263 0 discriminator 4
 2118 028a 0EFB0477 		mla	r7, lr, r4, r7
 2119              	.LBB345:
 2120              	.LBB341:
 437:..\..\..\lvgl\version_6.1.2\lvgl\src\lv_core\../lv_misc/lv_color.h ****     LV_COLOR_SET_G(ret, (uint16_t)((uint16_t) LV_COLOR_GET_G(c1) * mix + LV_COLOR_GET_G(c2) * (255 
 2121              		.loc 2 437 0 discriminator 4
 2122 028e C9F30728 		ubfx	r8, r9, #8, #8
 2123              	.LVL63:
 2124              		.loc 2 438 0 discriminator 4
ARM GAS  C:\Users\pearlstl\AppData\Local\Temp\ccvteysW.s 			page 60


 2125 0292 CCF3072E 		ubfx	lr, ip, #8, #8
 2126              	.LVL64:
 2127              	.LBE341:
 2128              	.LBE345:
 263:..\..\..\lvgl\version_6.1.2\lvgl\src\lv_core/lv_style.c ****     res->body.shadow.color = lv_color_mix(end->body.shadow.color, start->body.shadow.color, opa);
 2129              		.loc 1 263 0 discriminator 4
 2130 0296 C7F30727 		ubfx	r7, r7, #8, #8
 2131 029a 82F811E0 		strb	lr, [r2, #17]
 2132 029e 1774     		strb	r7, [r2, #16]
 2133 02a0 82F81280 		strb	r8, [r2, #18]
 2134              	.LBB346:
 2135              	.LBB347:
 437:..\..\..\lvgl\version_6.1.2\lvgl\src\lv_core\../lv_misc/lv_color.h ****     LV_COLOR_SET_G(ret, (uint16_t)((uint16_t) LV_COLOR_GET_G(c1) * mix + LV_COLOR_GET_G(c2) * (255 
 2136              		.loc 2 437 0 discriminator 4
 2137 02a4 91F81AA0 		ldrb	r10, [r1, #26]	@ zero_extendqisi2
 2138 02a8 90F81A90 		ldrb	r9, [r0, #26]	@ zero_extendqisi2
 2139              		.loc 2 438 0 discriminator 4
 2140 02ac 91F81980 		ldrb	r8, [r1, #25]	@ zero_extendqisi2
 2141 02b0 90F819C0 		ldrb	ip, [r0, #25]	@ zero_extendqisi2
 2142              	.LBE347:
 2143              	.LBE346:
 264:..\..\..\lvgl\version_6.1.2\lvgl\src\lv_core/lv_style.c ****     res->text.color        = lv_color_mix(end->text.color, start->text.color, opa);
 2144              		.loc 1 264 0 discriminator 4
 2145 02b4 077E     		ldrb	r7, [r0, #24]	@ zero_extendqisi2
 2146 02b6 91F818E0 		ldrb	lr, [r1, #24]	@ zero_extendqisi2
 2147 02ba D676     		strb	r6, [r2, #27]
 2148              	.LBB351:
 2149              	.LBB348:
 437:..\..\..\lvgl\version_6.1.2\lvgl\src\lv_core\../lv_misc/lv_color.h ****     LV_COLOR_SET_G(ret, (uint16_t)((uint16_t) LV_COLOR_GET_G(c1) * mix + LV_COLOR_GET_G(c2) * (255 
 2150              		.loc 2 437 0 discriminator 4
 2151 02bc 19FB05F9 		smulbb	r9, r9, r5
 2152              		.loc 2 438 0 discriminator 4
 2153 02c0 1CFB05FC 		smulbb	ip, ip, r5
 2154              	.LBE348:
 2155              	.LBE351:
 264:..\..\..\lvgl\version_6.1.2\lvgl\src\lv_core/lv_style.c ****     res->text.color        = lv_color_mix(end->text.color, start->text.color, opa);
 2156              		.loc 1 264 0 discriminator 4
 2157 02c4 17FB05F7 		smulbb	r7, r7, r5
 2158              	.LBB352:
 2159              	.LBB349:
 437:..\..\..\lvgl\version_6.1.2\lvgl\src\lv_core\../lv_misc/lv_color.h ****     LV_COLOR_SET_G(ret, (uint16_t)((uint16_t) LV_COLOR_GET_G(c1) * mix + LV_COLOR_GET_G(c2) * (255 
 2160              		.loc 2 437 0 discriminator 4
 2161 02c8 0AFB0499 		mla	r9, r10, r4, r9
 2162              		.loc 2 438 0 discriminator 4
 2163 02cc 08FB04CC 		mla	ip, r8, r4, ip
 2164              	.LBE349:
 2165              	.LBE352:
 264:..\..\..\lvgl\version_6.1.2\lvgl\src\lv_core/lv_style.c ****     res->text.color        = lv_color_mix(end->text.color, start->text.color, opa);
 2166              		.loc 1 264 0 discriminator 4
 2167 02d0 0EFB0477 		mla	r7, lr, r4, r7
 2168              	.LBB353:
 2169              	.LBB350:
 437:..\..\..\lvgl\version_6.1.2\lvgl\src\lv_core\../lv_misc/lv_color.h ****     LV_COLOR_SET_G(ret, (uint16_t)((uint16_t) LV_COLOR_GET_G(c1) * mix + LV_COLOR_GET_G(c2) * (255 
 2170              		.loc 2 437 0 discriminator 4
 2171 02d4 C9F30728 		ubfx	r8, r9, #8, #8
 2172              	.LVL65:
 2173              		.loc 2 438 0 discriminator 4
ARM GAS  C:\Users\pearlstl\AppData\Local\Temp\ccvteysW.s 			page 61


 2174 02d8 CCF3072E 		ubfx	lr, ip, #8, #8
 2175              	.LVL66:
 2176              	.LBE350:
 2177              	.LBE353:
 264:..\..\..\lvgl\version_6.1.2\lvgl\src\lv_core/lv_style.c ****     res->text.color        = lv_color_mix(end->text.color, start->text.color, opa);
 2178              		.loc 1 264 0 discriminator 4
 2179 02dc C7F30727 		ubfx	r7, r7, #8, #8
 2180 02e0 82F81A80 		strb	r8, [r2, #26]
 2181 02e4 82F819E0 		strb	lr, [r2, #25]
 2182 02e8 1776     		strb	r7, [r2, #24]
 2183              	.LBB354:
 2184              	.LBB355:
 437:..\..\..\lvgl\version_6.1.2\lvgl\src\lv_core\../lv_misc/lv_color.h ****     LV_COLOR_SET_G(ret, (uint16_t)((uint16_t) LV_COLOR_GET_G(c1) * mix + LV_COLOR_GET_G(c2) * (255 
 2185              		.loc 2 437 0 discriminator 4
 2186 02ea 90F82E90 		ldrb	r9, [r0, #46]	@ zero_extendqisi2
 2187              		.loc 2 438 0 discriminator 4
 2188 02ee 90F82DC0 		ldrb	ip, [r0, #45]	@ zero_extendqisi2
 2189              	.LBE355:
 2190              	.LBE354:
 265:..\..\..\lvgl\version_6.1.2\lvgl\src\lv_core/lv_style.c ****     res->image.color       = lv_color_mix(end->image.color, start->image.color, opa);
 2191              		.loc 1 265 0 discriminator 4
 2192 02f2 90F82C70 		ldrb	r7, [r0, #44]	@ zero_extendqisi2
 2193              	.LBB360:
 2194              	.LBB356:
 437:..\..\..\lvgl\version_6.1.2\lvgl\src\lv_core\../lv_misc/lv_color.h ****     LV_COLOR_SET_G(ret, (uint16_t)((uint16_t) LV_COLOR_GET_G(c1) * mix + LV_COLOR_GET_G(c2) * (255 
 2195              		.loc 2 437 0 discriminator 4
 2196 02f6 91F82EA0 		ldrb	r10, [r1, #46]	@ zero_extendqisi2
 2197              		.loc 2 438 0 discriminator 4
 2198 02fa 91F82D80 		ldrb	r8, [r1, #45]	@ zero_extendqisi2
 2199              	.LBE356:
 2200              	.LBE360:
 265:..\..\..\lvgl\version_6.1.2\lvgl\src\lv_core/lv_style.c ****     res->image.color       = lv_color_mix(end->image.color, start->image.color, opa);
 2201              		.loc 1 265 0 discriminator 4
 2202 02fe 91F82CE0 		ldrb	lr, [r1, #44]	@ zero_extendqisi2
 2203 0302 82F82F60 		strb	r6, [r2, #47]
 2204              	.LBB361:
 2205              	.LBB357:
 437:..\..\..\lvgl\version_6.1.2\lvgl\src\lv_core\../lv_misc/lv_color.h ****     LV_COLOR_SET_G(ret, (uint16_t)((uint16_t) LV_COLOR_GET_G(c1) * mix + LV_COLOR_GET_G(c2) * (255 
 2206              		.loc 2 437 0 discriminator 4
 2207 0306 19FB05F9 		smulbb	r9, r9, r5
 2208              		.loc 2 438 0 discriminator 4
 2209 030a 1CFB05FC 		smulbb	ip, ip, r5
 2210              	.LBE357:
 2211              	.LBE361:
 265:..\..\..\lvgl\version_6.1.2\lvgl\src\lv_core/lv_style.c ****     res->image.color       = lv_color_mix(end->image.color, start->image.color, opa);
 2212              		.loc 1 265 0 discriminator 4
 2213 030e 17FB05F7 		smulbb	r7, r7, r5
 2214              	.LBB362:
 2215              	.LBB358:
 437:..\..\..\lvgl\version_6.1.2\lvgl\src\lv_core\../lv_misc/lv_color.h ****     LV_COLOR_SET_G(ret, (uint16_t)((uint16_t) LV_COLOR_GET_G(c1) * mix + LV_COLOR_GET_G(c2) * (255 
 2216              		.loc 2 437 0 discriminator 4
 2217 0312 0AFB0499 		mla	r9, r10, r4, r9
 2218              		.loc 2 438 0 discriminator 4
 2219 0316 08FB04CC 		mla	ip, r8, r4, ip
 2220              	.LBE358:
 2221              	.LBE362:
 265:..\..\..\lvgl\version_6.1.2\lvgl\src\lv_core/lv_style.c ****     res->image.color       = lv_color_mix(end->image.color, start->image.color, opa);
ARM GAS  C:\Users\pearlstl\AppData\Local\Temp\ccvteysW.s 			page 62


 2222              		.loc 1 265 0 discriminator 4
 2223 031a 0EFB0477 		mla	r7, lr, r4, r7
 2224              	.LBB363:
 2225              	.LBB359:
 437:..\..\..\lvgl\version_6.1.2\lvgl\src\lv_core\../lv_misc/lv_color.h ****     LV_COLOR_SET_G(ret, (uint16_t)((uint16_t) LV_COLOR_GET_G(c1) * mix + LV_COLOR_GET_G(c2) * (255 
 2226              		.loc 2 437 0 discriminator 4
 2227 031e C9F30728 		ubfx	r8, r9, #8, #8
 2228              	.LVL67:
 2229              		.loc 2 438 0 discriminator 4
 2230 0322 CCF3072E 		ubfx	lr, ip, #8, #8
 2231              	.LVL68:
 2232              	.LBE359:
 2233              	.LBE363:
 265:..\..\..\lvgl\version_6.1.2\lvgl\src\lv_core/lv_style.c ****     res->image.color       = lv_color_mix(end->image.color, start->image.color, opa);
 2234              		.loc 1 265 0 discriminator 4
 2235 0326 C7F30727 		ubfx	r7, r7, #8, #8
 2236 032a 82F82E80 		strb	r8, [r2, #46]
 2237 032e 82F82DE0 		strb	lr, [r2, #45]
 2238 0332 82F82C70 		strb	r7, [r2, #44]
 2239              	.LBB364:
 2240              	.LBB365:
 437:..\..\..\lvgl\version_6.1.2\lvgl\src\lv_core\../lv_misc/lv_color.h ****     LV_COLOR_SET_G(ret, (uint16_t)((uint16_t) LV_COLOR_GET_G(c1) * mix + LV_COLOR_GET_G(c2) * (255 
 2241              		.loc 2 437 0 discriminator 4
 2242 0336 90F84290 		ldrb	r9, [r0, #66]	@ zero_extendqisi2
 2243              		.loc 2 438 0 discriminator 4
 2244 033a 90F841C0 		ldrb	ip, [r0, #65]	@ zero_extendqisi2
 2245              	.LBE365:
 2246              	.LBE364:
 266:..\..\..\lvgl\version_6.1.2\lvgl\src\lv_core/lv_style.c ****     res->line.color        = lv_color_mix(end->line.color, start->line.color, opa);
 2247              		.loc 1 266 0 discriminator 4
 2248 033e 90F84070 		ldrb	r7, [r0, #64]	@ zero_extendqisi2
 2249              	.LBB370:
 2250              	.LBB366:
 437:..\..\..\lvgl\version_6.1.2\lvgl\src\lv_core\../lv_misc/lv_color.h ****     LV_COLOR_SET_G(ret, (uint16_t)((uint16_t) LV_COLOR_GET_G(c1) * mix + LV_COLOR_GET_G(c2) * (255 
 2251              		.loc 2 437 0 discriminator 4
 2252 0342 91F842A0 		ldrb	r10, [r1, #66]	@ zero_extendqisi2
 2253              		.loc 2 438 0 discriminator 4
 2254 0346 91F84180 		ldrb	r8, [r1, #65]	@ zero_extendqisi2
 2255              	.LBE366:
 2256              	.LBE370:
 266:..\..\..\lvgl\version_6.1.2\lvgl\src\lv_core/lv_style.c ****     res->line.color        = lv_color_mix(end->line.color, start->line.color, opa);
 2257              		.loc 1 266 0 discriminator 4
 2258 034a 91F840E0 		ldrb	lr, [r1, #64]	@ zero_extendqisi2
 2259 034e 82F84360 		strb	r6, [r2, #67]
 2260              	.LBB371:
 2261              	.LBB367:
 437:..\..\..\lvgl\version_6.1.2\lvgl\src\lv_core\../lv_misc/lv_color.h ****     LV_COLOR_SET_G(ret, (uint16_t)((uint16_t) LV_COLOR_GET_G(c1) * mix + LV_COLOR_GET_G(c2) * (255 
 2262              		.loc 2 437 0 discriminator 4
 2263 0352 19FB05F9 		smulbb	r9, r9, r5
 2264              		.loc 2 438 0 discriminator 4
 2265 0356 1CFB05FC 		smulbb	ip, ip, r5
 2266              	.LBE367:
 2267              	.LBE371:
 266:..\..\..\lvgl\version_6.1.2\lvgl\src\lv_core/lv_style.c ****     res->line.color        = lv_color_mix(end->line.color, start->line.color, opa);
 2268              		.loc 1 266 0 discriminator 4
 2269 035a 17FB05F7 		smulbb	r7, r7, r5
 2270              	.LBB372:
ARM GAS  C:\Users\pearlstl\AppData\Local\Temp\ccvteysW.s 			page 63


 2271              	.LBB368:
 437:..\..\..\lvgl\version_6.1.2\lvgl\src\lv_core\../lv_misc/lv_color.h ****     LV_COLOR_SET_G(ret, (uint16_t)((uint16_t) LV_COLOR_GET_G(c1) * mix + LV_COLOR_GET_G(c2) * (255 
 2272              		.loc 2 437 0 discriminator 4
 2273 035e 0AFB0499 		mla	r9, r10, r4, r9
 2274              		.loc 2 438 0 discriminator 4
 2275 0362 08FB04CC 		mla	ip, r8, r4, ip
 2276              	.LBE368:
 2277              	.LBE372:
 266:..\..\..\lvgl\version_6.1.2\lvgl\src\lv_core/lv_style.c ****     res->line.color        = lv_color_mix(end->line.color, start->line.color, opa);
 2278              		.loc 1 266 0 discriminator 4
 2279 0366 0EFB0477 		mla	r7, lr, r4, r7
 2280              	.LBB373:
 2281              	.LBB369:
 437:..\..\..\lvgl\version_6.1.2\lvgl\src\lv_core\../lv_misc/lv_color.h ****     LV_COLOR_SET_G(ret, (uint16_t)((uint16_t) LV_COLOR_GET_G(c1) * mix + LV_COLOR_GET_G(c2) * (255 
 2282              		.loc 2 437 0 discriminator 4
 2283 036a C9F30728 		ubfx	r8, r9, #8, #8
 2284              	.LVL69:
 2285              		.loc 2 438 0 discriminator 4
 2286 036e CCF3072E 		ubfx	lr, ip, #8, #8
 2287              	.LVL70:
 2288              	.LBE369:
 2289              	.LBE373:
 266:..\..\..\lvgl\version_6.1.2\lvgl\src\lv_core/lv_style.c ****     res->line.color        = lv_color_mix(end->line.color, start->line.color, opa);
 2290              		.loc 1 266 0 discriminator 4
 2291 0372 C7F30727 		ubfx	r7, r7, #8, #8
 2292 0376 82F84280 		strb	r8, [r2, #66]
 2293 037a 82F841E0 		strb	lr, [r2, #65]
 2294 037e 82F84070 		strb	r7, [r2, #64]
 2295              	.LBB374:
 2296              	.LBB375:
 437:..\..\..\lvgl\version_6.1.2\lvgl\src\lv_core\../lv_misc/lv_color.h ****     LV_COLOR_SET_G(ret, (uint16_t)((uint16_t) LV_COLOR_GET_G(c1) * mix + LV_COLOR_GET_G(c2) * (255 
 2297              		.loc 2 437 0 discriminator 4
 2298 0382 91F84A70 		ldrb	r7, [r1, #74]	@ zero_extendqisi2
 2299 0386 90F84AA0 		ldrb	r10, [r0, #74]	@ zero_extendqisi2
 2300              		.loc 2 438 0 discriminator 4
 2301 038a 91F849E0 		ldrb	lr, [r1, #73]	@ zero_extendqisi2
 2302 038e 90F849C0 		ldrb	ip, [r0, #73]	@ zero_extendqisi2
 2303              	.LBE375:
 2304              	.LBE374:
 267:..\..\..\lvgl\version_6.1.2\lvgl\src\lv_core/lv_style.c **** 
 2305              		.loc 1 267 0 discriminator 4
 2306 0392 91F84880 		ldrb	r8, [r1, #72]	@ zero_extendqisi2
 2307 0396 90F84890 		ldrb	r9, [r0, #72]	@ zero_extendqisi2
 2308 039a 82F84B60 		strb	r6, [r2, #75]
 2309              	.LBB380:
 2310              	.LBB376:
 2311              		.loc 2 438 0 discriminator 4
 2312 039e 1CFB05FC 		smulbb	ip, ip, r5
 437:..\..\..\lvgl\version_6.1.2\lvgl\src\lv_core\../lv_misc/lv_color.h ****     LV_COLOR_SET_G(ret, (uint16_t)((uint16_t) LV_COLOR_GET_G(c1) * mix + LV_COLOR_GET_G(c2) * (255 
 2313              		.loc 2 437 0 discriminator 4
 2314 03a2 1AFB05F6 		smulbb	r6, r10, r5
 2315              	.LBE376:
 2316              	.LBE380:
 267:..\..\..\lvgl\version_6.1.2\lvgl\src\lv_core/lv_style.c **** 
 2317              		.loc 1 267 0 discriminator 4
 2318 03a6 19FB05F5 		smulbb	r5, r9, r5
 2319              	.LBB381:
ARM GAS  C:\Users\pearlstl\AppData\Local\Temp\ccvteysW.s 			page 64


 2320              	.LBB377:
 437:..\..\..\lvgl\version_6.1.2\lvgl\src\lv_core\../lv_misc/lv_color.h ****     LV_COLOR_SET_G(ret, (uint16_t)((uint16_t) LV_COLOR_GET_G(c1) * mix + LV_COLOR_GET_G(c2) * (255 
 2321              		.loc 2 437 0 discriminator 4
 2322 03aa 07FB0466 		mla	r6, r7, r4, r6
 2323              		.loc 2 438 0 discriminator 4
 2324 03ae 0EFB04C7 		mla	r7, lr, r4, ip
 2325              	.LBE377:
 2326              	.LBE381:
 267:..\..\..\lvgl\version_6.1.2\lvgl\src\lv_core/lv_style.c **** 
 2327              		.loc 1 267 0 discriminator 4
 2328 03b2 08FB0454 		mla	r4, r8, r4, r5
 2329 03b6 C4F30724 		ubfx	r4, r4, #8, #8
 2330              	.LBB382:
 2331              	.LBB378:
 437:..\..\..\lvgl\version_6.1.2\lvgl\src\lv_core\../lv_misc/lv_color.h ****     LV_COLOR_SET_G(ret, (uint16_t)((uint16_t) LV_COLOR_GET_G(c1) * mix + LV_COLOR_GET_G(c2) * (255 
 2332              		.loc 2 437 0 discriminator 4
 2333 03ba C6F30725 		ubfx	r5, r6, #8, #8
 2334              	.LVL71:
 2335              	.LBE378:
 2336              	.LBE382:
 269:..\..\..\lvgl\version_6.1.2\lvgl\src\lv_core/lv_style.c ****         res->body.border.part = start->body.border.part;
 2337              		.loc 1 269 0 discriminator 4
 2338 03be 7F2B     		cmp	r3, #127
 2339              	.LBB383:
 2340              	.LBB379:
 2341              		.loc 2 438 0 discriminator 4
 2342 03c0 C7F30726 		ubfx	r6, r7, #8, #8
 2343              	.LVL72:
 2344              	.LBE379:
 2345              	.LBE383:
 267:..\..\..\lvgl\version_6.1.2\lvgl\src\lv_core/lv_style.c **** 
 2346              		.loc 1 267 0 discriminator 4
 2347 03c4 82F84960 		strb	r6, [r2, #73]
 2348 03c8 82F84A50 		strb	r5, [r2, #74]
 2349 03cc 82F84840 		strb	r4, [r2, #72]
 269:..\..\..\lvgl\version_6.1.2\lvgl\src\lv_core/lv_style.c ****         res->body.border.part = start->body.border.part;
 2350              		.loc 1 269 0 discriminator 4
 2351 03d0 14D9     		bls	.L63
 276:..\..\..\lvgl\version_6.1.2\lvgl\src\lv_core/lv_style.c ****         res->glass            = end->glass;
 2352              		.loc 1 276 0
 2353 03d2 8B7D     		ldrb	r3, [r1, #22]	@ zero_extendqisi2
 2354              	.LVL73:
 2355 03d4 9375     		strb	r3, [r2, #22]
 277:..\..\..\lvgl\version_6.1.2\lvgl\src\lv_core/lv_style.c ****         res->text.font        = end->text.font;
 2356              		.loc 1 277 0
 2357 03d6 0C78     		ldrb	r4, [r1]	@ zero_extendqisi2
 2358 03d8 1078     		ldrb	r0, [r2]	@ zero_extendqisi2
 2359              	.LVL74:
 280:..\..\..\lvgl\version_6.1.2\lvgl\src\lv_core/lv_style.c ****     }
 2360              		.loc 1 280 0
 2361 03da 92F84F30 		ldrb	r3, [r2, #79]	@ zero_extendqisi2
 277:..\..\..\lvgl\version_6.1.2\lvgl\src\lv_core/lv_style.c ****         res->text.font        = end->text.font;
 2362              		.loc 1 277 0
 2363 03de 64F30000 		bfi	r0, r4, #0, #1
 2364 03e2 1070     		strb	r0, [r2]
 278:..\..\..\lvgl\version_6.1.2\lvgl\src\lv_core/lv_style.c ****         res->body.shadow.type = end->body.shadow.type;
 2365              		.loc 1 278 0
ARM GAS  C:\Users\pearlstl\AppData\Local\Temp\ccvteysW.s 			page 65


 2366 03e4 486B     		ldr	r0, [r1, #52]
 2367 03e6 5063     		str	r0, [r2, #52]
 279:..\..\..\lvgl\version_6.1.2\lvgl\src\lv_core/lv_style.c ****         res->line.rounded     = end->line.rounded;
 2368              		.loc 1 279 0
 2369 03e8 887F     		ldrb	r0, [r1, #30]	@ zero_extendqisi2
 2370 03ea 9077     		strb	r0, [r2, #30]
 280:..\..\..\lvgl\version_6.1.2\lvgl\src\lv_core/lv_style.c ****     }
 2371              		.loc 1 280 0
 2372 03ec 91F84F10 		ldrb	r1, [r1, #79]	@ zero_extendqisi2
 2373              	.LVL75:
 2374 03f0 61F30003 		bfi	r3, r1, #0, #1
 2375 03f4 82F84F30 		strb	r3, [r2, #79]
 2376 03f8 BDE8F087 		pop	{r4, r5, r6, r7, r8, r9, r10, pc}
 2377              	.LVL76:
 2378              	.L63:
 270:..\..\..\lvgl\version_6.1.2\lvgl\src\lv_core/lv_style.c ****         res->glass            = start->glass;
 2379              		.loc 1 270 0
 2380 03fc 837D     		ldrb	r3, [r0, #22]	@ zero_extendqisi2
 2381              	.LVL77:
 2382 03fe 9375     		strb	r3, [r2, #22]
 271:..\..\..\lvgl\version_6.1.2\lvgl\src\lv_core/lv_style.c ****         res->text.font        = start->text.font;
 2383              		.loc 1 271 0
 2384 0400 0478     		ldrb	r4, [r0]	@ zero_extendqisi2
 2385 0402 1178     		ldrb	r1, [r2]	@ zero_extendqisi2
 2386              	.LVL78:
 274:..\..\..\lvgl\version_6.1.2\lvgl\src\lv_core/lv_style.c ****     } else {
 2387              		.loc 1 274 0
 2388 0404 92F84F30 		ldrb	r3, [r2, #79]	@ zero_extendqisi2
 271:..\..\..\lvgl\version_6.1.2\lvgl\src\lv_core/lv_style.c ****         res->text.font        = start->text.font;
 2389              		.loc 1 271 0
 2390 0408 64F30001 		bfi	r1, r4, #0, #1
 2391 040c 1170     		strb	r1, [r2]
 272:..\..\..\lvgl\version_6.1.2\lvgl\src\lv_core/lv_style.c ****         res->body.shadow.type = start->body.shadow.type;
 2392              		.loc 1 272 0
 2393 040e 416B     		ldr	r1, [r0, #52]
 2394 0410 5163     		str	r1, [r2, #52]
 273:..\..\..\lvgl\version_6.1.2\lvgl\src\lv_core/lv_style.c ****         res->line.rounded     = start->line.rounded;
 2395              		.loc 1 273 0
 2396 0412 817F     		ldrb	r1, [r0, #30]	@ zero_extendqisi2
 2397 0414 9177     		strb	r1, [r2, #30]
 274:..\..\..\lvgl\version_6.1.2\lvgl\src\lv_core/lv_style.c ****     } else {
 2398              		.loc 1 274 0
 2399 0416 90F84F10 		ldrb	r1, [r0, #79]	@ zero_extendqisi2
 2400 041a 61F30003 		bfi	r3, r1, #0, #1
 2401 041e 82F84F30 		strb	r3, [r2, #79]
 2402 0422 BDE8F087 		pop	{r4, r5, r6, r7, r8, r9, r10, pc}
 2403              	.LVL79:
 2404              	.L61:
 2405 0426 0025     		movs	r5, #0
 2406 0428 FF24     		movs	r4, #255
 2407 042a D2E6     		b	.L58
 2408              		.cfi_endproc
 2409              	.LFE33:
 2410              		.size	lv_style_mix, .-lv_style_mix
 2411              		.section	.text.lv_style_anim_init,"ax",%progbits
 2412              		.align	2
 2413              		.global	lv_style_anim_init
ARM GAS  C:\Users\pearlstl\AppData\Local\Temp\ccvteysW.s 			page 66


 2414              		.thumb
 2415              		.thumb_func
 2416              		.type	lv_style_anim_init, %function
 2417              	lv_style_anim_init:
 2418              	.LFB34:
 287:..\..\..\lvgl\version_6.1.2\lvgl\src\lv_core/lv_style.c ****     lv_anim_init(a);
 2419              		.loc 1 287 0
 2420              		.cfi_startproc
 2421              		@ args = 0, pretend = 0, frame = 0
 2422              		@ frame_needed = 0, uses_anonymous_args = 0
 2423              	.LVL80:
 2424 0000 70B5     		push	{r4, r5, r6, lr}
 2425              		.cfi_def_cfa_offset 16
 2426              		.cfi_offset 4, -16
 2427              		.cfi_offset 5, -12
 2428              		.cfi_offset 6, -8
 2429              		.cfi_offset 14, -4
 287:..\..\..\lvgl\version_6.1.2\lvgl\src\lv_core/lv_style.c ****     lv_anim_init(a);
 2430              		.loc 1 287 0
 2431 0002 0446     		mov	r4, r0
 289:..\..\..\lvgl\version_6.1.2\lvgl\src\lv_core/lv_style.c ****     a->end      = STYLE_MIX_MAX;
 2432              		.loc 1 289 0
 2433 0004 0026     		movs	r6, #0
 288:..\..\..\lvgl\version_6.1.2\lvgl\src\lv_core/lv_style.c ****     a->start    = 0;
 2434              		.loc 1 288 0
 2435 0006 FFF7FEFF 		bl	lv_anim_init
 2436              	.LVL81:
 290:..\..\..\lvgl\version_6.1.2\lvgl\src\lv_core/lv_style.c ****     a->exec_cb  = (lv_anim_exec_xcb_t)style_animator;
 2437              		.loc 1 290 0
 2438 000a 4FF48070 		mov	r0, #256
 291:..\..\..\lvgl\version_6.1.2\lvgl\src\lv_core/lv_style.c ****     a->path_cb  = lv_anim_path_linear;
 2439              		.loc 1 291 0
 2440 000e 0E49     		ldr	r1, .L70
 292:..\..\..\lvgl\version_6.1.2\lvgl\src\lv_core/lv_style.c ****     a->ready_cb = style_animation_common_end_cb;
 2441              		.loc 1 292 0
 2442 0010 0E4A     		ldr	r2, .L70+4
 293:..\..\..\lvgl\version_6.1.2\lvgl\src\lv_core/lv_style.c **** 
 2443              		.loc 1 293 0
 2444 0012 0F4B     		ldr	r3, .L70+8
 290:..\..\..\lvgl\version_6.1.2\lvgl\src\lv_core/lv_style.c ****     a->exec_cb  = (lv_anim_exec_xcb_t)style_animator;
 2445              		.loc 1 290 0
 2446 0014 6061     		str	r0, [r4, #20]
 291:..\..\..\lvgl\version_6.1.2\lvgl\src\lv_core/lv_style.c ****     a->path_cb  = lv_anim_path_linear;
 2447              		.loc 1 291 0
 2448 0016 6160     		str	r1, [r4, #4]
 292:..\..\..\lvgl\version_6.1.2\lvgl\src\lv_core/lv_style.c ****     a->ready_cb = style_animation_common_end_cb;
 2449              		.loc 1 292 0
 2450 0018 A260     		str	r2, [r4, #8]
 293:..\..\..\lvgl\version_6.1.2\lvgl\src\lv_core/lv_style.c **** 
 2451              		.loc 1 293 0
 2452 001a E360     		str	r3, [r4, #12]
 289:..\..\..\lvgl\version_6.1.2\lvgl\src\lv_core/lv_style.c ****     a->end      = STYLE_MIX_MAX;
 2453              		.loc 1 289 0
 2454 001c 2661     		str	r6, [r4, #16]
 296:..\..\..\lvgl\version_6.1.2\lvgl\src\lv_core/lv_style.c ****     LV_ASSERT_MEM(dsc);
 2455              		.loc 1 296 0
 2456 001e A820     		movs	r0, #168
ARM GAS  C:\Users\pearlstl\AppData\Local\Temp\ccvteysW.s 			page 67


 2457 0020 FFF7FEFF 		bl	lv_mem_alloc
 2458              	.LVL82:
 298:..\..\..\lvgl\version_6.1.2\lvgl\src\lv_core/lv_style.c ****     dsc->ready_cb   = NULL;
 2459              		.loc 1 298 0
 2460 0024 70B1     		cbz	r0, .L64
 2461              	.LBB384:
 2462              	.LBB385:
 229:..\..\..\lvgl\version_6.1.2\lvgl\src\lv_core/lv_style.c **** }
 2463              		.loc 1 229 0
 2464 0026 5022     		movs	r2, #80
 2465 0028 0A49     		ldr	r1, .L70+12
 2466              	.LBE385:
 2467              	.LBE384:
 299:..\..\..\lvgl\version_6.1.2\lvgl\src\lv_core/lv_style.c ****     dsc->style_anim = NULL;
 2468              		.loc 1 299 0
 2469 002a C0F8A460 		str	r6, [r0, #164]
 300:..\..\..\lvgl\version_6.1.2\lvgl\src\lv_core/lv_style.c ****     lv_style_copy(&dsc->style_start, &lv_style_plain);
 2470              		.loc 1 300 0
 2471 002e C0F8A060 		str	r6, [r0, #160]
 2472 0032 0546     		mov	r5, r0
 2473              	.LVL83:
 2474              	.LBB387:
 2475              	.LBB386:
 229:..\..\..\lvgl\version_6.1.2\lvgl\src\lv_core/lv_style.c **** }
 2476              		.loc 1 229 0
 2477 0034 FFF7FEFF 		bl	memcpy
 2478              	.LVL84:
 2479              	.LBE386:
 2480              	.LBE387:
 2481              	.LBB388:
 2482              	.LBB389:
 2483 0038 5022     		movs	r2, #80
 2484 003a 0649     		ldr	r1, .L70+12
 2485 003c A818     		adds	r0, r5, r2
 2486              	.LVL85:
 2487 003e FFF7FEFF 		bl	memcpy
 2488              	.LVL86:
 2489              	.LBE389:
 2490              	.LBE388:
 304:..\..\..\lvgl\version_6.1.2\lvgl\src\lv_core/lv_style.c **** }
 2491              		.loc 1 304 0
 2492 0042 2560     		str	r5, [r4]
 2493              	.LVL87:
 2494              	.L64:
 2495 0044 70BD     		pop	{r4, r5, r6, pc}
 2496              	.LVL88:
 2497              	.L71:
 2498 0046 00BF     		.align	2
 2499              	.L70:
 2500 0048 00000000 		.word	style_animator
 2501 004c 00000000 		.word	lv_anim_path_linear
 2502 0050 00000000 		.word	style_animation_common_end_cb
 2503 0054 00000000 		.word	lv_style_plain
 2504              		.cfi_endproc
 2505              	.LFE34:
 2506              		.size	lv_style_anim_init, .-lv_style_anim_init
 2507              		.section	.text.lv_style_anim_set_styles,"ax",%progbits
ARM GAS  C:\Users\pearlstl\AppData\Local\Temp\ccvteysW.s 			page 68


 2508              		.align	2
 2509              		.global	lv_style_anim_set_styles
 2510              		.thumb
 2511              		.thumb_func
 2512              		.type	lv_style_anim_set_styles, %function
 2513              	lv_style_anim_set_styles:
 2514              	.LFB35:
 308:..\..\..\lvgl\version_6.1.2\lvgl\src\lv_core/lv_style.c **** 
 2515              		.loc 1 308 0
 2516              		.cfi_startproc
 2517              		@ args = 0, pretend = 0, frame = 0
 2518              		@ frame_needed = 0, uses_anonymous_args = 0
 2519              	.LVL89:
 2520 0000 2DE9F041 		push	{r4, r5, r6, r7, r8, lr}
 2521              		.cfi_def_cfa_offset 24
 2522              		.cfi_offset 4, -24
 2523              		.cfi_offset 5, -20
 2524              		.cfi_offset 6, -16
 2525              		.cfi_offset 7, -12
 2526              		.cfi_offset 8, -8
 2527              		.cfi_offset 14, -4
 310:..\..\..\lvgl\version_6.1.2\lvgl\src\lv_core/lv_style.c ****     dsc->style_anim           = to_anim;
 2528              		.loc 1 310 0
 2529 0004 0568     		ldr	r5, [r0]
 2530              	.LVL90:
 312:..\..\..\lvgl\version_6.1.2\lvgl\src\lv_core/lv_style.c ****     memcpy(&dsc->style_end, end, sizeof(lv_style_t));
 2531              		.loc 1 312 0
 2532 0006 5024     		movs	r4, #80
 308:..\..\..\lvgl\version_6.1.2\lvgl\src\lv_core/lv_style.c **** 
 2533              		.loc 1 308 0
 2534 0008 9846     		mov	r8, r3
 2535 000a 0E46     		mov	r6, r1
 2536 000c 1746     		mov	r7, r2
 311:..\..\..\lvgl\version_6.1.2\lvgl\src\lv_core/lv_style.c ****     memcpy(&dsc->style_start, start, sizeof(lv_style_t));
 2537              		.loc 1 311 0
 2538 000e C5F8A010 		str	r1, [r5, #160]
 312:..\..\..\lvgl\version_6.1.2\lvgl\src\lv_core/lv_style.c ****     memcpy(&dsc->style_end, end, sizeof(lv_style_t));
 2539              		.loc 1 312 0
 2540 0012 2846     		mov	r0, r5
 2541              	.LVL91:
 2542 0014 1146     		mov	r1, r2
 2543              	.LVL92:
 2544 0016 2246     		mov	r2, r4
 2545              	.LVL93:
 2546 0018 FFF7FEFF 		bl	memcpy
 2547              	.LVL94:
 313:..\..\..\lvgl\version_6.1.2\lvgl\src\lv_core/lv_style.c ****     memcpy(dsc->style_anim, start, sizeof(lv_style_t));
 2548              		.loc 1 313 0
 2549 001c 2246     		mov	r2, r4
 2550 001e 4146     		mov	r1, r8
 2551 0020 2819     		adds	r0, r5, r4
 2552 0022 FFF7FEFF 		bl	memcpy
 2553              	.LVL95:
 314:..\..\..\lvgl\version_6.1.2\lvgl\src\lv_core/lv_style.c **** }
 2554              		.loc 1 314 0
 2555 0026 2246     		mov	r2, r4
 2556 0028 3946     		mov	r1, r7
ARM GAS  C:\Users\pearlstl\AppData\Local\Temp\ccvteysW.s 			page 69


 2557 002a 3046     		mov	r0, r6
