ARM GAS  C:\Users\pearlstl\AppData\Local\Temp\ccIMJlIA.s 			page 1


   1              		.syntax unified
   2              		.cpu cortex-m4
   3              		.eabi_attribute 27, 1
   4              		.fpu fpv4-sp-d16
   5              		.eabi_attribute 20, 1
   6              		.eabi_attribute 21, 1
   7              		.eabi_attribute 23, 3
   8              		.eabi_attribute 24, 1
   9              		.eabi_attribute 25, 1
  10              		.eabi_attribute 26, 1
  11              		.eabi_attribute 30, 2
  12              		.eabi_attribute 34, 1
  13              		.eabi_attribute 18, 4
  14              		.thumb
  15              		.syntax unified
  16              		.file	"lv_tileview.c"
  17              		.text
  18              	.Ltext0:
  19              		.cfi_sections	.debug_frame
  20              		.section	.text.lv_tileview_scrl_signal,"ax",%progbits
  21              		.align	2
  22              		.thumb
  23              		.thumb_func
  24              		.type	lv_tileview_scrl_signal, %function
  25              	lv_tileview_scrl_signal:
  26              	.LFB59:
  27              		.file 1 "..\\..\\..\\lvgl\\version_6.1.2\\lvgl\\src\\lv_objx\\lv_tileview.c"
   1:..\..\..\lvgl\version_6.1.2\lvgl\src\lv_objx/lv_tileview.c **** /**
   2:..\..\..\lvgl\version_6.1.2\lvgl\src\lv_objx/lv_tileview.c ****  * @file lv_tileview.c
   3:..\..\..\lvgl\version_6.1.2\lvgl\src\lv_objx/lv_tileview.c ****  *
   4:..\..\..\lvgl\version_6.1.2\lvgl\src\lv_objx/lv_tileview.c ****  */
   5:..\..\..\lvgl\version_6.1.2\lvgl\src\lv_objx/lv_tileview.c **** 
   6:..\..\..\lvgl\version_6.1.2\lvgl\src\lv_objx/lv_tileview.c **** /*********************
   7:..\..\..\lvgl\version_6.1.2\lvgl\src\lv_objx/lv_tileview.c ****  *      INCLUDES
   8:..\..\..\lvgl\version_6.1.2\lvgl\src\lv_objx/lv_tileview.c ****  *********************/
   9:..\..\..\lvgl\version_6.1.2\lvgl\src\lv_objx/lv_tileview.c **** #include "lv_tileview.h"
  10:..\..\..\lvgl\version_6.1.2\lvgl\src\lv_objx/lv_tileview.c **** #if LV_USE_TILEVIEW != 0
  11:..\..\..\lvgl\version_6.1.2\lvgl\src\lv_objx/lv_tileview.c **** 
  12:..\..\..\lvgl\version_6.1.2\lvgl\src\lv_objx/lv_tileview.c **** #include <stdbool.h>
  13:..\..\..\lvgl\version_6.1.2\lvgl\src\lv_objx/lv_tileview.c **** #include "lv_cont.h"
  14:..\..\..\lvgl\version_6.1.2\lvgl\src\lv_objx/lv_tileview.c **** #include "../lv_core/lv_debug.h"
  15:..\..\..\lvgl\version_6.1.2\lvgl\src\lv_objx/lv_tileview.c **** #include "../lv_themes/lv_theme.h"
  16:..\..\..\lvgl\version_6.1.2\lvgl\src\lv_objx/lv_tileview.c **** 
  17:..\..\..\lvgl\version_6.1.2\lvgl\src\lv_objx/lv_tileview.c **** /*********************
  18:..\..\..\lvgl\version_6.1.2\lvgl\src\lv_objx/lv_tileview.c ****  *      DEFINES
  19:..\..\..\lvgl\version_6.1.2\lvgl\src\lv_objx/lv_tileview.c ****  *********************/
  20:..\..\..\lvgl\version_6.1.2\lvgl\src\lv_objx/lv_tileview.c **** #define LV_OBJX_NAME "lv_tileview"
  21:..\..\..\lvgl\version_6.1.2\lvgl\src\lv_objx/lv_tileview.c **** 
  22:..\..\..\lvgl\version_6.1.2\lvgl\src\lv_objx/lv_tileview.c **** #if LV_USE_ANIMATION
  23:..\..\..\lvgl\version_6.1.2\lvgl\src\lv_objx/lv_tileview.c **** #ifndef LV_TILEVIEW_DEF_ANIM_TIME
  24:..\..\..\lvgl\version_6.1.2\lvgl\src\lv_objx/lv_tileview.c **** #define LV_TILEVIEW_DEF_ANIM_TIME 300 /*Animation time loading a tile [ms] (0: no animation)  */
  25:..\..\..\lvgl\version_6.1.2\lvgl\src\lv_objx/lv_tileview.c **** #endif
  26:..\..\..\lvgl\version_6.1.2\lvgl\src\lv_objx/lv_tileview.c **** #else
  27:..\..\..\lvgl\version_6.1.2\lvgl\src\lv_objx/lv_tileview.c **** #undef LV_TILEVIEW_DEF_ANIM_TIME
  28:..\..\..\lvgl\version_6.1.2\lvgl\src\lv_objx/lv_tileview.c **** #define LV_TILEVIEW_DEF_ANIM_TIME 0 /*No animations*/
  29:..\..\..\lvgl\version_6.1.2\lvgl\src\lv_objx/lv_tileview.c **** #endif
  30:..\..\..\lvgl\version_6.1.2\lvgl\src\lv_objx/lv_tileview.c **** 
ARM GAS  C:\Users\pearlstl\AppData\Local\Temp\ccIMJlIA.s 			page 2


  31:..\..\..\lvgl\version_6.1.2\lvgl\src\lv_objx/lv_tileview.c **** /**********************
  32:..\..\..\lvgl\version_6.1.2\lvgl\src\lv_objx/lv_tileview.c ****  *      TYPEDEFS
  33:..\..\..\lvgl\version_6.1.2\lvgl\src\lv_objx/lv_tileview.c ****  **********************/
  34:..\..\..\lvgl\version_6.1.2\lvgl\src\lv_objx/lv_tileview.c **** 
  35:..\..\..\lvgl\version_6.1.2\lvgl\src\lv_objx/lv_tileview.c **** /**********************
  36:..\..\..\lvgl\version_6.1.2\lvgl\src\lv_objx/lv_tileview.c ****  *  STATIC PROTOTYPES
  37:..\..\..\lvgl\version_6.1.2\lvgl\src\lv_objx/lv_tileview.c ****  **********************/
  38:..\..\..\lvgl\version_6.1.2\lvgl\src\lv_objx/lv_tileview.c **** static lv_res_t lv_tileview_signal(lv_obj_t * tileview, lv_signal_t sign, void * param);
  39:..\..\..\lvgl\version_6.1.2\lvgl\src\lv_objx/lv_tileview.c **** static lv_res_t lv_tileview_scrl_signal(lv_obj_t * scrl, lv_signal_t sign, void * param);
  40:..\..\..\lvgl\version_6.1.2\lvgl\src\lv_objx/lv_tileview.c **** static void tileview_scrl_event_cb(lv_obj_t * scrl, lv_event_t event);
  41:..\..\..\lvgl\version_6.1.2\lvgl\src\lv_objx/lv_tileview.c **** static void drag_end_handler(lv_obj_t * tileview);
  42:..\..\..\lvgl\version_6.1.2\lvgl\src\lv_objx/lv_tileview.c **** static bool set_valid_drag_dirs(lv_obj_t * tileview);
  43:..\..\..\lvgl\version_6.1.2\lvgl\src\lv_objx/lv_tileview.c **** 
  44:..\..\..\lvgl\version_6.1.2\lvgl\src\lv_objx/lv_tileview.c **** /**********************
  45:..\..\..\lvgl\version_6.1.2\lvgl\src\lv_objx/lv_tileview.c ****  *  STATIC VARIABLES
  46:..\..\..\lvgl\version_6.1.2\lvgl\src\lv_objx/lv_tileview.c ****  **********************/
  47:..\..\..\lvgl\version_6.1.2\lvgl\src\lv_objx/lv_tileview.c **** static lv_signal_cb_t ancestor_signal;
  48:..\..\..\lvgl\version_6.1.2\lvgl\src\lv_objx/lv_tileview.c **** static lv_signal_cb_t ancestor_scrl_signal;
  49:..\..\..\lvgl\version_6.1.2\lvgl\src\lv_objx/lv_tileview.c **** static lv_design_cb_t ancestor_design;
  50:..\..\..\lvgl\version_6.1.2\lvgl\src\lv_objx/lv_tileview.c **** 
  51:..\..\..\lvgl\version_6.1.2\lvgl\src\lv_objx/lv_tileview.c **** /**********************
  52:..\..\..\lvgl\version_6.1.2\lvgl\src\lv_objx/lv_tileview.c ****  *      MACROS
  53:..\..\..\lvgl\version_6.1.2\lvgl\src\lv_objx/lv_tileview.c ****  **********************/
  54:..\..\..\lvgl\version_6.1.2\lvgl\src\lv_objx/lv_tileview.c **** 
  55:..\..\..\lvgl\version_6.1.2\lvgl\src\lv_objx/lv_tileview.c **** /**********************
  56:..\..\..\lvgl\version_6.1.2\lvgl\src\lv_objx/lv_tileview.c ****  *   GLOBAL FUNCTIONS
  57:..\..\..\lvgl\version_6.1.2\lvgl\src\lv_objx/lv_tileview.c ****  **********************/
  58:..\..\..\lvgl\version_6.1.2\lvgl\src\lv_objx/lv_tileview.c **** 
  59:..\..\..\lvgl\version_6.1.2\lvgl\src\lv_objx/lv_tileview.c **** /**
  60:..\..\..\lvgl\version_6.1.2\lvgl\src\lv_objx/lv_tileview.c ****  * Create a tileview object
  61:..\..\..\lvgl\version_6.1.2\lvgl\src\lv_objx/lv_tileview.c ****  * @param par pointer to an object, it will be the parent of the new tileview
  62:..\..\..\lvgl\version_6.1.2\lvgl\src\lv_objx/lv_tileview.c ****  * @param copy pointer to a tileview object, if not NULL then the new object will be copied from it
  63:..\..\..\lvgl\version_6.1.2\lvgl\src\lv_objx/lv_tileview.c ****  * @return pointer to the created tileview
  64:..\..\..\lvgl\version_6.1.2\lvgl\src\lv_objx/lv_tileview.c ****  */
  65:..\..\..\lvgl\version_6.1.2\lvgl\src\lv_objx/lv_tileview.c **** lv_obj_t * lv_tileview_create(lv_obj_t * par, const lv_obj_t * copy)
  66:..\..\..\lvgl\version_6.1.2\lvgl\src\lv_objx/lv_tileview.c **** {
  67:..\..\..\lvgl\version_6.1.2\lvgl\src\lv_objx/lv_tileview.c ****     LV_LOG_TRACE("tileview create started");
  68:..\..\..\lvgl\version_6.1.2\lvgl\src\lv_objx/lv_tileview.c **** 
  69:..\..\..\lvgl\version_6.1.2\lvgl\src\lv_objx/lv_tileview.c ****     /*Create the ancestor of tileview*/
  70:..\..\..\lvgl\version_6.1.2\lvgl\src\lv_objx/lv_tileview.c ****     lv_obj_t * new_tileview = lv_page_create(par, copy);
  71:..\..\..\lvgl\version_6.1.2\lvgl\src\lv_objx/lv_tileview.c ****     LV_ASSERT_MEM(new_tileview);
  72:..\..\..\lvgl\version_6.1.2\lvgl\src\lv_objx/lv_tileview.c ****     if(new_tileview == NULL) return NULL;
  73:..\..\..\lvgl\version_6.1.2\lvgl\src\lv_objx/lv_tileview.c **** 
  74:..\..\..\lvgl\version_6.1.2\lvgl\src\lv_objx/lv_tileview.c ****     /*Allocate the tileview type specific extended data*/
  75:..\..\..\lvgl\version_6.1.2\lvgl\src\lv_objx/lv_tileview.c ****     lv_tileview_ext_t * ext = lv_obj_allocate_ext_attr(new_tileview, sizeof(lv_tileview_ext_t));
  76:..\..\..\lvgl\version_6.1.2\lvgl\src\lv_objx/lv_tileview.c ****     LV_ASSERT_MEM(ext);
  77:..\..\..\lvgl\version_6.1.2\lvgl\src\lv_objx/lv_tileview.c ****     if(ext == NULL) return NULL;
  78:..\..\..\lvgl\version_6.1.2\lvgl\src\lv_objx/lv_tileview.c ****     if(ancestor_signal == NULL) ancestor_signal = lv_obj_get_signal_cb(new_tileview);
  79:..\..\..\lvgl\version_6.1.2\lvgl\src\lv_objx/lv_tileview.c ****     if(ancestor_scrl_signal == NULL) ancestor_scrl_signal = lv_obj_get_signal_cb(lv_page_get_scrl(n
  80:..\..\..\lvgl\version_6.1.2\lvgl\src\lv_objx/lv_tileview.c ****     if(ancestor_design == NULL) ancestor_design = lv_obj_get_design_cb(new_tileview);
  81:..\..\..\lvgl\version_6.1.2\lvgl\src\lv_objx/lv_tileview.c **** 
  82:..\..\..\lvgl\version_6.1.2\lvgl\src\lv_objx/lv_tileview.c ****         /*Initialize the allocated 'ext' */
  83:..\..\..\lvgl\version_6.1.2\lvgl\src\lv_objx/lv_tileview.c **** #if LV_USE_ANIMATION
  84:..\..\..\lvgl\version_6.1.2\lvgl\src\lv_objx/lv_tileview.c ****     ext->anim_time = LV_TILEVIEW_DEF_ANIM_TIME;
  85:..\..\..\lvgl\version_6.1.2\lvgl\src\lv_objx/lv_tileview.c **** #endif
  86:..\..\..\lvgl\version_6.1.2\lvgl\src\lv_objx/lv_tileview.c ****     ext->act_id.x      = 0;
  87:..\..\..\lvgl\version_6.1.2\lvgl\src\lv_objx/lv_tileview.c ****     ext->act_id.y      = 0;
ARM GAS  C:\Users\pearlstl\AppData\Local\Temp\ccIMJlIA.s 			page 3


  88:..\..\..\lvgl\version_6.1.2\lvgl\src\lv_objx/lv_tileview.c ****     ext->valid_pos     = NULL;
  89:..\..\..\lvgl\version_6.1.2\lvgl\src\lv_objx/lv_tileview.c ****     ext->valid_pos_cnt = 0;
  90:..\..\..\lvgl\version_6.1.2\lvgl\src\lv_objx/lv_tileview.c **** 
  91:..\..\..\lvgl\version_6.1.2\lvgl\src\lv_objx/lv_tileview.c ****     /*The signal and design functions are not copied so set them here*/
  92:..\..\..\lvgl\version_6.1.2\lvgl\src\lv_objx/lv_tileview.c ****     lv_obj_set_signal_cb(new_tileview, lv_tileview_signal);
  93:..\..\..\lvgl\version_6.1.2\lvgl\src\lv_objx/lv_tileview.c ****     lv_obj_set_signal_cb(lv_page_get_scrl(new_tileview), lv_tileview_scrl_signal);
  94:..\..\..\lvgl\version_6.1.2\lvgl\src\lv_objx/lv_tileview.c **** 
  95:..\..\..\lvgl\version_6.1.2\lvgl\src\lv_objx/lv_tileview.c ****     /*Init the new tileview*/
  96:..\..\..\lvgl\version_6.1.2\lvgl\src\lv_objx/lv_tileview.c ****     if(copy == NULL) {
  97:..\..\..\lvgl\version_6.1.2\lvgl\src\lv_objx/lv_tileview.c ****         /* Set a size which fits into the parent.
  98:..\..\..\lvgl\version_6.1.2\lvgl\src\lv_objx/lv_tileview.c ****          * Don't use `par` directly because if the tileview is created on a page it is moved to the
  99:..\..\..\lvgl\version_6.1.2\lvgl\src\lv_objx/lv_tileview.c ****          * scrollable so the parent has changed */
 100:..\..\..\lvgl\version_6.1.2\lvgl\src\lv_objx/lv_tileview.c ****         lv_coord_t w;
 101:..\..\..\lvgl\version_6.1.2\lvgl\src\lv_objx/lv_tileview.c ****         lv_coord_t h;
 102:..\..\..\lvgl\version_6.1.2\lvgl\src\lv_objx/lv_tileview.c ****         if(par) {
 103:..\..\..\lvgl\version_6.1.2\lvgl\src\lv_objx/lv_tileview.c ****             w = lv_obj_get_width_fit(lv_obj_get_parent(new_tileview));
 104:..\..\..\lvgl\version_6.1.2\lvgl\src\lv_objx/lv_tileview.c ****             h = lv_obj_get_height_fit(lv_obj_get_parent(new_tileview));
 105:..\..\..\lvgl\version_6.1.2\lvgl\src\lv_objx/lv_tileview.c ****         } else {
 106:..\..\..\lvgl\version_6.1.2\lvgl\src\lv_objx/lv_tileview.c ****             w = lv_disp_get_hor_res(NULL);
 107:..\..\..\lvgl\version_6.1.2\lvgl\src\lv_objx/lv_tileview.c ****             h = lv_disp_get_ver_res(NULL);
 108:..\..\..\lvgl\version_6.1.2\lvgl\src\lv_objx/lv_tileview.c ****         }
 109:..\..\..\lvgl\version_6.1.2\lvgl\src\lv_objx/lv_tileview.c **** 
 110:..\..\..\lvgl\version_6.1.2\lvgl\src\lv_objx/lv_tileview.c ****         lv_obj_set_size(new_tileview, w, h);
 111:..\..\..\lvgl\version_6.1.2\lvgl\src\lv_objx/lv_tileview.c **** 
 112:..\..\..\lvgl\version_6.1.2\lvgl\src\lv_objx/lv_tileview.c ****         lv_obj_set_drag_throw(lv_page_get_scrl(new_tileview), false);
 113:..\..\..\lvgl\version_6.1.2\lvgl\src\lv_objx/lv_tileview.c ****         lv_page_set_scrl_fit(new_tileview, LV_FIT_TIGHT);
 114:..\..\..\lvgl\version_6.1.2\lvgl\src\lv_objx/lv_tileview.c ****         lv_obj_set_event_cb(ext->page.scrl, tileview_scrl_event_cb);
 115:..\..\..\lvgl\version_6.1.2\lvgl\src\lv_objx/lv_tileview.c ****         /*Set the default styles*/
 116:..\..\..\lvgl\version_6.1.2\lvgl\src\lv_objx/lv_tileview.c ****         lv_theme_t * th = lv_theme_get_current();
 117:..\..\..\lvgl\version_6.1.2\lvgl\src\lv_objx/lv_tileview.c ****         if(th) {
 118:..\..\..\lvgl\version_6.1.2\lvgl\src\lv_objx/lv_tileview.c ****             lv_page_set_style(new_tileview, LV_PAGE_STYLE_BG, th->style.tileview.bg);
 119:..\..\..\lvgl\version_6.1.2\lvgl\src\lv_objx/lv_tileview.c ****             lv_page_set_style(new_tileview, LV_PAGE_STYLE_SCRL, th->style.tileview.scrl);
 120:..\..\..\lvgl\version_6.1.2\lvgl\src\lv_objx/lv_tileview.c ****             lv_page_set_style(new_tileview, LV_PAGE_STYLE_SB, th->style.tileview.sb);
 121:..\..\..\lvgl\version_6.1.2\lvgl\src\lv_objx/lv_tileview.c ****         } else {
 122:..\..\..\lvgl\version_6.1.2\lvgl\src\lv_objx/lv_tileview.c ****             lv_page_set_style(new_tileview, LV_PAGE_STYLE_BG, &lv_style_transp_tight);
 123:..\..\..\lvgl\version_6.1.2\lvgl\src\lv_objx/lv_tileview.c ****             lv_page_set_style(new_tileview, LV_PAGE_STYLE_SCRL, &lv_style_transp_tight);
 124:..\..\..\lvgl\version_6.1.2\lvgl\src\lv_objx/lv_tileview.c ****         }
 125:..\..\..\lvgl\version_6.1.2\lvgl\src\lv_objx/lv_tileview.c ****     }
 126:..\..\..\lvgl\version_6.1.2\lvgl\src\lv_objx/lv_tileview.c ****     /*Copy an existing tileview*/
 127:..\..\..\lvgl\version_6.1.2\lvgl\src\lv_objx/lv_tileview.c ****     else {
 128:..\..\..\lvgl\version_6.1.2\lvgl\src\lv_objx/lv_tileview.c ****         lv_tileview_ext_t * copy_ext = lv_obj_get_ext_attr(copy);
 129:..\..\..\lvgl\version_6.1.2\lvgl\src\lv_objx/lv_tileview.c ****         ext->act_id.x                = copy_ext->act_id.x;
 130:..\..\..\lvgl\version_6.1.2\lvgl\src\lv_objx/lv_tileview.c ****         ext->act_id.y                = copy_ext->act_id.y;
 131:..\..\..\lvgl\version_6.1.2\lvgl\src\lv_objx/lv_tileview.c ****         ext->valid_pos               = copy_ext->valid_pos;
 132:..\..\..\lvgl\version_6.1.2\lvgl\src\lv_objx/lv_tileview.c ****         ext->valid_pos_cnt           = copy_ext->valid_pos_cnt;
 133:..\..\..\lvgl\version_6.1.2\lvgl\src\lv_objx/lv_tileview.c **** #if LV_USE_ANIMATION
 134:..\..\..\lvgl\version_6.1.2\lvgl\src\lv_objx/lv_tileview.c ****         ext->anim_time = copy_ext->anim_time;
 135:..\..\..\lvgl\version_6.1.2\lvgl\src\lv_objx/lv_tileview.c **** #endif
 136:..\..\..\lvgl\version_6.1.2\lvgl\src\lv_objx/lv_tileview.c **** 
 137:..\..\..\lvgl\version_6.1.2\lvgl\src\lv_objx/lv_tileview.c ****         /*Refresh the style with new signal function*/
 138:..\..\..\lvgl\version_6.1.2\lvgl\src\lv_objx/lv_tileview.c ****         lv_obj_refresh_style(new_tileview);
 139:..\..\..\lvgl\version_6.1.2\lvgl\src\lv_objx/lv_tileview.c ****     }
 140:..\..\..\lvgl\version_6.1.2\lvgl\src\lv_objx/lv_tileview.c **** 
 141:..\..\..\lvgl\version_6.1.2\lvgl\src\lv_objx/lv_tileview.c ****     LV_LOG_INFO("tileview created");
 142:..\..\..\lvgl\version_6.1.2\lvgl\src\lv_objx/lv_tileview.c **** 
 143:..\..\..\lvgl\version_6.1.2\lvgl\src\lv_objx/lv_tileview.c ****     return new_tileview;
 144:..\..\..\lvgl\version_6.1.2\lvgl\src\lv_objx/lv_tileview.c **** }
ARM GAS  C:\Users\pearlstl\AppData\Local\Temp\ccIMJlIA.s 			page 4


 145:..\..\..\lvgl\version_6.1.2\lvgl\src\lv_objx/lv_tileview.c **** 
 146:..\..\..\lvgl\version_6.1.2\lvgl\src\lv_objx/lv_tileview.c **** /*======================
 147:..\..\..\lvgl\version_6.1.2\lvgl\src\lv_objx/lv_tileview.c ****  * Add/remove functions
 148:..\..\..\lvgl\version_6.1.2\lvgl\src\lv_objx/lv_tileview.c ****  *=====================*/
 149:..\..\..\lvgl\version_6.1.2\lvgl\src\lv_objx/lv_tileview.c **** 
 150:..\..\..\lvgl\version_6.1.2\lvgl\src\lv_objx/lv_tileview.c **** /**
 151:..\..\..\lvgl\version_6.1.2\lvgl\src\lv_objx/lv_tileview.c ****  * Register an object on the tileview. The register object will able to slide the tileview
 152:..\..\..\lvgl\version_6.1.2\lvgl\src\lv_objx/lv_tileview.c ****  * @param tileview pointer to a Tileview object
 153:..\..\..\lvgl\version_6.1.2\lvgl\src\lv_objx/lv_tileview.c ****  * @param element pointer to an object
 154:..\..\..\lvgl\version_6.1.2\lvgl\src\lv_objx/lv_tileview.c ****  */
 155:..\..\..\lvgl\version_6.1.2\lvgl\src\lv_objx/lv_tileview.c **** void lv_tileview_add_element(lv_obj_t * tileview, lv_obj_t * element)
 156:..\..\..\lvgl\version_6.1.2\lvgl\src\lv_objx/lv_tileview.c **** {
 157:..\..\..\lvgl\version_6.1.2\lvgl\src\lv_objx/lv_tileview.c ****     LV_ASSERT_OBJ(tileview, LV_OBJX_NAME);
 158:..\..\..\lvgl\version_6.1.2\lvgl\src\lv_objx/lv_tileview.c ****     LV_ASSERT_NULL(tileview);
 159:..\..\..\lvgl\version_6.1.2\lvgl\src\lv_objx/lv_tileview.c **** 
 160:..\..\..\lvgl\version_6.1.2\lvgl\src\lv_objx/lv_tileview.c ****     /* Let the objects event to propagate to the scrollable part of the tileview.
 161:..\..\..\lvgl\version_6.1.2\lvgl\src\lv_objx/lv_tileview.c ****      * It is required the handle dargging of the tileview with the element.*/
 162:..\..\..\lvgl\version_6.1.2\lvgl\src\lv_objx/lv_tileview.c ****     element->parent_event = 1;
 163:..\..\..\lvgl\version_6.1.2\lvgl\src\lv_objx/lv_tileview.c ****     lv_obj_set_drag_parent(element, true);
 164:..\..\..\lvgl\version_6.1.2\lvgl\src\lv_objx/lv_tileview.c **** 
 165:..\..\..\lvgl\version_6.1.2\lvgl\src\lv_objx/lv_tileview.c ****     /* When adding a new element the coordinates may shift.
 166:..\..\..\lvgl\version_6.1.2\lvgl\src\lv_objx/lv_tileview.c ****      * For example y=1 can become y=1 if an element is added to the top.
 167:..\..\..\lvgl\version_6.1.2\lvgl\src\lv_objx/lv_tileview.c ****      * So be sure the current tile is correctly shown*/
 168:..\..\..\lvgl\version_6.1.2\lvgl\src\lv_objx/lv_tileview.c ****     lv_tileview_ext_t * ext = lv_obj_get_ext_attr(tileview);
 169:..\..\..\lvgl\version_6.1.2\lvgl\src\lv_objx/lv_tileview.c ****     lv_tileview_set_tile_act(tileview, ext->act_id.x, ext->act_id.y, false);
 170:..\..\..\lvgl\version_6.1.2\lvgl\src\lv_objx/lv_tileview.c **** }
 171:..\..\..\lvgl\version_6.1.2\lvgl\src\lv_objx/lv_tileview.c **** 
 172:..\..\..\lvgl\version_6.1.2\lvgl\src\lv_objx/lv_tileview.c **** /*=====================
 173:..\..\..\lvgl\version_6.1.2\lvgl\src\lv_objx/lv_tileview.c ****  * Setter functions
 174:..\..\..\lvgl\version_6.1.2\lvgl\src\lv_objx/lv_tileview.c ****  *====================*/
 175:..\..\..\lvgl\version_6.1.2\lvgl\src\lv_objx/lv_tileview.c **** 
 176:..\..\..\lvgl\version_6.1.2\lvgl\src\lv_objx/lv_tileview.c **** /**
 177:..\..\..\lvgl\version_6.1.2\lvgl\src\lv_objx/lv_tileview.c ****  * Set the valid position's indices. The scrolling will be possible only to these positions.
 178:..\..\..\lvgl\version_6.1.2\lvgl\src\lv_objx/lv_tileview.c ****  * @param tileview pointer to a Tileview object
 179:..\..\..\lvgl\version_6.1.2\lvgl\src\lv_objx/lv_tileview.c ****  * @param valid_pos array width the indices. E.g. `lv_point_t p[] = {{0,0}, {1,0}, {1,1}`.
 180:..\..\..\lvgl\version_6.1.2\lvgl\src\lv_objx/lv_tileview.c ****  * Only the pointer is saved so can't be a local variable.
 181:..\..\..\lvgl\version_6.1.2\lvgl\src\lv_objx/lv_tileview.c ****  * @param valid_pos_cnt numner of elements in `valid_pos` array
 182:..\..\..\lvgl\version_6.1.2\lvgl\src\lv_objx/lv_tileview.c ****  */
 183:..\..\..\lvgl\version_6.1.2\lvgl\src\lv_objx/lv_tileview.c **** void lv_tileview_set_valid_positions(lv_obj_t * tileview, const lv_point_t valid_pos[], uint16_t va
 184:..\..\..\lvgl\version_6.1.2\lvgl\src\lv_objx/lv_tileview.c **** {
 185:..\..\..\lvgl\version_6.1.2\lvgl\src\lv_objx/lv_tileview.c ****     LV_ASSERT_OBJ(tileview, LV_OBJX_NAME);
 186:..\..\..\lvgl\version_6.1.2\lvgl\src\lv_objx/lv_tileview.c ****     LV_ASSERT_NULL(valid_pos);
 187:..\..\..\lvgl\version_6.1.2\lvgl\src\lv_objx/lv_tileview.c **** 
 188:..\..\..\lvgl\version_6.1.2\lvgl\src\lv_objx/lv_tileview.c ****     lv_tileview_ext_t * ext = lv_obj_get_ext_attr(tileview);
 189:..\..\..\lvgl\version_6.1.2\lvgl\src\lv_objx/lv_tileview.c ****     ext->valid_pos          = valid_pos;
 190:..\..\..\lvgl\version_6.1.2\lvgl\src\lv_objx/lv_tileview.c ****     ext->valid_pos_cnt      = valid_pos_cnt;
 191:..\..\..\lvgl\version_6.1.2\lvgl\src\lv_objx/lv_tileview.c **** 
 192:..\..\..\lvgl\version_6.1.2\lvgl\src\lv_objx/lv_tileview.c ****     /*If valid pos. is selected do nothing*/
 193:..\..\..\lvgl\version_6.1.2\lvgl\src\lv_objx/lv_tileview.c ****     uint16_t i;
 194:..\..\..\lvgl\version_6.1.2\lvgl\src\lv_objx/lv_tileview.c ****     for(i = 0; i < valid_pos_cnt; i++) {
 195:..\..\..\lvgl\version_6.1.2\lvgl\src\lv_objx/lv_tileview.c ****         if(valid_pos[i].x == ext->act_id.x && valid_pos[i].y == ext->act_id.y) {
 196:..\..\..\lvgl\version_6.1.2\lvgl\src\lv_objx/lv_tileview.c ****             return;
 197:..\..\..\lvgl\version_6.1.2\lvgl\src\lv_objx/lv_tileview.c ****         }
 198:..\..\..\lvgl\version_6.1.2\lvgl\src\lv_objx/lv_tileview.c ****     }
 199:..\..\..\lvgl\version_6.1.2\lvgl\src\lv_objx/lv_tileview.c **** 
 200:..\..\..\lvgl\version_6.1.2\lvgl\src\lv_objx/lv_tileview.c ****     /*Set a valid position if now an invalid is selected*/
 201:..\..\..\lvgl\version_6.1.2\lvgl\src\lv_objx/lv_tileview.c ****     if(valid_pos_cnt > 0) {
ARM GAS  C:\Users\pearlstl\AppData\Local\Temp\ccIMJlIA.s 			page 5


 202:..\..\..\lvgl\version_6.1.2\lvgl\src\lv_objx/lv_tileview.c ****         lv_tileview_set_tile_act(tileview, valid_pos[0].x, valid_pos[0].y, LV_ANIM_OFF);
 203:..\..\..\lvgl\version_6.1.2\lvgl\src\lv_objx/lv_tileview.c ****     }
 204:..\..\..\lvgl\version_6.1.2\lvgl\src\lv_objx/lv_tileview.c **** }
 205:..\..\..\lvgl\version_6.1.2\lvgl\src\lv_objx/lv_tileview.c **** 
 206:..\..\..\lvgl\version_6.1.2\lvgl\src\lv_objx/lv_tileview.c **** /**
 207:..\..\..\lvgl\version_6.1.2\lvgl\src\lv_objx/lv_tileview.c ****  * Set the tile to be shown
 208:..\..\..\lvgl\version_6.1.2\lvgl\src\lv_objx/lv_tileview.c ****  * @param tileview pointer to a tileview object
 209:..\..\..\lvgl\version_6.1.2\lvgl\src\lv_objx/lv_tileview.c ****  * @param x column id (0, 1, 2...)
 210:..\..\..\lvgl\version_6.1.2\lvgl\src\lv_objx/lv_tileview.c ****  * @param y line id (0, 1, 2...)
 211:..\..\..\lvgl\version_6.1.2\lvgl\src\lv_objx/lv_tileview.c ****  * @param anim LV_ANIM_ON: set the value with an animation; LV_ANIM_OFF: change the value immediate
 212:..\..\..\lvgl\version_6.1.2\lvgl\src\lv_objx/lv_tileview.c ****  */
 213:..\..\..\lvgl\version_6.1.2\lvgl\src\lv_objx/lv_tileview.c **** void lv_tileview_set_tile_act(lv_obj_t * tileview, lv_coord_t x, lv_coord_t y, lv_anim_enable_t ani
 214:..\..\..\lvgl\version_6.1.2\lvgl\src\lv_objx/lv_tileview.c **** {
 215:..\..\..\lvgl\version_6.1.2\lvgl\src\lv_objx/lv_tileview.c ****     LV_ASSERT_OBJ(tileview, LV_OBJX_NAME);
 216:..\..\..\lvgl\version_6.1.2\lvgl\src\lv_objx/lv_tileview.c **** 
 217:..\..\..\lvgl\version_6.1.2\lvgl\src\lv_objx/lv_tileview.c **** #if LV_USE_ANIMATION == 0
 218:..\..\..\lvgl\version_6.1.2\lvgl\src\lv_objx/lv_tileview.c ****     anim = LV_ANIM_OFF;
 219:..\..\..\lvgl\version_6.1.2\lvgl\src\lv_objx/lv_tileview.c **** #endif
 220:..\..\..\lvgl\version_6.1.2\lvgl\src\lv_objx/lv_tileview.c **** 
 221:..\..\..\lvgl\version_6.1.2\lvgl\src\lv_objx/lv_tileview.c ****     lv_tileview_ext_t * ext = lv_obj_get_ext_attr(tileview);
 222:..\..\..\lvgl\version_6.1.2\lvgl\src\lv_objx/lv_tileview.c **** 
 223:..\..\..\lvgl\version_6.1.2\lvgl\src\lv_objx/lv_tileview.c ****     uint32_t tile_id;
 224:..\..\..\lvgl\version_6.1.2\lvgl\src\lv_objx/lv_tileview.c ****     bool valid = false;
 225:..\..\..\lvgl\version_6.1.2\lvgl\src\lv_objx/lv_tileview.c ****     for(tile_id = 0; tile_id < ext->valid_pos_cnt; tile_id++) {
 226:..\..\..\lvgl\version_6.1.2\lvgl\src\lv_objx/lv_tileview.c ****         if(ext->valid_pos[tile_id].x == x && ext->valid_pos[tile_id].y == y) {
 227:..\..\..\lvgl\version_6.1.2\lvgl\src\lv_objx/lv_tileview.c ****             valid = true;
 228:..\..\..\lvgl\version_6.1.2\lvgl\src\lv_objx/lv_tileview.c ****             break;
 229:..\..\..\lvgl\version_6.1.2\lvgl\src\lv_objx/lv_tileview.c ****         }
 230:..\..\..\lvgl\version_6.1.2\lvgl\src\lv_objx/lv_tileview.c ****     }
 231:..\..\..\lvgl\version_6.1.2\lvgl\src\lv_objx/lv_tileview.c **** 
 232:..\..\..\lvgl\version_6.1.2\lvgl\src\lv_objx/lv_tileview.c ****     if(valid == false) return; /*Don't load not valid tiles*/
 233:..\..\..\lvgl\version_6.1.2\lvgl\src\lv_objx/lv_tileview.c **** 
 234:..\..\..\lvgl\version_6.1.2\lvgl\src\lv_objx/lv_tileview.c ****     ext->act_id.x = x;
 235:..\..\..\lvgl\version_6.1.2\lvgl\src\lv_objx/lv_tileview.c ****     ext->act_id.y = y;
 236:..\..\..\lvgl\version_6.1.2\lvgl\src\lv_objx/lv_tileview.c **** 
 237:..\..\..\lvgl\version_6.1.2\lvgl\src\lv_objx/lv_tileview.c ****     lv_coord_t x_coord = -x * lv_obj_get_width(tileview);
 238:..\..\..\lvgl\version_6.1.2\lvgl\src\lv_objx/lv_tileview.c ****     lv_coord_t y_coord = -y * lv_obj_get_height(tileview);
 239:..\..\..\lvgl\version_6.1.2\lvgl\src\lv_objx/lv_tileview.c ****     lv_obj_t * scrl    = lv_page_get_scrl(tileview);
 240:..\..\..\lvgl\version_6.1.2\lvgl\src\lv_objx/lv_tileview.c ****     if(anim) {
 241:..\..\..\lvgl\version_6.1.2\lvgl\src\lv_objx/lv_tileview.c **** #if LV_USE_ANIMATION
 242:..\..\..\lvgl\version_6.1.2\lvgl\src\lv_objx/lv_tileview.c ****         lv_coord_t x_act = lv_obj_get_x(scrl);
 243:..\..\..\lvgl\version_6.1.2\lvgl\src\lv_objx/lv_tileview.c ****         lv_coord_t y_act = lv_obj_get_y(scrl);
 244:..\..\..\lvgl\version_6.1.2\lvgl\src\lv_objx/lv_tileview.c **** 
 245:..\..\..\lvgl\version_6.1.2\lvgl\src\lv_objx/lv_tileview.c ****         lv_anim_t a;
 246:..\..\..\lvgl\version_6.1.2\lvgl\src\lv_objx/lv_tileview.c ****         a.var            = scrl;
 247:..\..\..\lvgl\version_6.1.2\lvgl\src\lv_objx/lv_tileview.c ****         a.exec_cb        = (lv_anim_exec_xcb_t)lv_obj_set_x;
 248:..\..\..\lvgl\version_6.1.2\lvgl\src\lv_objx/lv_tileview.c ****         a.path_cb        = lv_anim_path_linear;
 249:..\..\..\lvgl\version_6.1.2\lvgl\src\lv_objx/lv_tileview.c ****         a.ready_cb       = NULL;
 250:..\..\..\lvgl\version_6.1.2\lvgl\src\lv_objx/lv_tileview.c ****         a.act_time       = 0;
 251:..\..\..\lvgl\version_6.1.2\lvgl\src\lv_objx/lv_tileview.c ****         a.time           = ext->anim_time;
 252:..\..\..\lvgl\version_6.1.2\lvgl\src\lv_objx/lv_tileview.c ****         a.playback       = 0;
 253:..\..\..\lvgl\version_6.1.2\lvgl\src\lv_objx/lv_tileview.c ****         a.playback_pause = 0;
 254:..\..\..\lvgl\version_6.1.2\lvgl\src\lv_objx/lv_tileview.c ****         a.repeat         = 0;
 255:..\..\..\lvgl\version_6.1.2\lvgl\src\lv_objx/lv_tileview.c ****         a.repeat_pause   = 0;
 256:..\..\..\lvgl\version_6.1.2\lvgl\src\lv_objx/lv_tileview.c **** 
 257:..\..\..\lvgl\version_6.1.2\lvgl\src\lv_objx/lv_tileview.c ****         if(x_coord != x_act) {
 258:..\..\..\lvgl\version_6.1.2\lvgl\src\lv_objx/lv_tileview.c ****             a.start = x_act;
ARM GAS  C:\Users\pearlstl\AppData\Local\Temp\ccIMJlIA.s 			page 6


 259:..\..\..\lvgl\version_6.1.2\lvgl\src\lv_objx/lv_tileview.c ****             a.end   = x_coord;
 260:..\..\..\lvgl\version_6.1.2\lvgl\src\lv_objx/lv_tileview.c ****             lv_anim_create(&a);
 261:..\..\..\lvgl\version_6.1.2\lvgl\src\lv_objx/lv_tileview.c ****         }
 262:..\..\..\lvgl\version_6.1.2\lvgl\src\lv_objx/lv_tileview.c **** 
 263:..\..\..\lvgl\version_6.1.2\lvgl\src\lv_objx/lv_tileview.c ****         if(y_coord != y_act) {
 264:..\..\..\lvgl\version_6.1.2\lvgl\src\lv_objx/lv_tileview.c ****             a.start   = y_act;
 265:..\..\..\lvgl\version_6.1.2\lvgl\src\lv_objx/lv_tileview.c ****             a.end     = y_coord;
 266:..\..\..\lvgl\version_6.1.2\lvgl\src\lv_objx/lv_tileview.c ****             a.exec_cb = (lv_anim_exec_xcb_t)lv_obj_set_y;
 267:..\..\..\lvgl\version_6.1.2\lvgl\src\lv_objx/lv_tileview.c ****             lv_anim_create(&a);
 268:..\..\..\lvgl\version_6.1.2\lvgl\src\lv_objx/lv_tileview.c ****         }
 269:..\..\..\lvgl\version_6.1.2\lvgl\src\lv_objx/lv_tileview.c **** #endif
 270:..\..\..\lvgl\version_6.1.2\lvgl\src\lv_objx/lv_tileview.c ****     } else {
 271:..\..\..\lvgl\version_6.1.2\lvgl\src\lv_objx/lv_tileview.c ****         lv_obj_set_pos(scrl, x_coord, y_coord);
 272:..\..\..\lvgl\version_6.1.2\lvgl\src\lv_objx/lv_tileview.c ****     }
 273:..\..\..\lvgl\version_6.1.2\lvgl\src\lv_objx/lv_tileview.c **** 
 274:..\..\..\lvgl\version_6.1.2\lvgl\src\lv_objx/lv_tileview.c ****     lv_res_t res = LV_RES_OK;
 275:..\..\..\lvgl\version_6.1.2\lvgl\src\lv_objx/lv_tileview.c ****     res          = lv_event_send(tileview, LV_EVENT_VALUE_CHANGED, &tile_id);
 276:..\..\..\lvgl\version_6.1.2\lvgl\src\lv_objx/lv_tileview.c ****     if(res != LV_RES_OK) return; /*Prevent the tile loading*/
 277:..\..\..\lvgl\version_6.1.2\lvgl\src\lv_objx/lv_tileview.c **** }
 278:..\..\..\lvgl\version_6.1.2\lvgl\src\lv_objx/lv_tileview.c **** 
 279:..\..\..\lvgl\version_6.1.2\lvgl\src\lv_objx/lv_tileview.c **** /**
 280:..\..\..\lvgl\version_6.1.2\lvgl\src\lv_objx/lv_tileview.c ****  * Set a style of a tileview.
 281:..\..\..\lvgl\version_6.1.2\lvgl\src\lv_objx/lv_tileview.c ****  * @param tileview pointer to tileview object
 282:..\..\..\lvgl\version_6.1.2\lvgl\src\lv_objx/lv_tileview.c ****  * @param type which style should be set
 283:..\..\..\lvgl\version_6.1.2\lvgl\src\lv_objx/lv_tileview.c ****  * @param style pointer to a style
 284:..\..\..\lvgl\version_6.1.2\lvgl\src\lv_objx/lv_tileview.c ****  */
 285:..\..\..\lvgl\version_6.1.2\lvgl\src\lv_objx/lv_tileview.c **** void lv_tileview_set_style(lv_obj_t * tileview, lv_tileview_style_t type, const lv_style_t * style)
 286:..\..\..\lvgl\version_6.1.2\lvgl\src\lv_objx/lv_tileview.c **** {
 287:..\..\..\lvgl\version_6.1.2\lvgl\src\lv_objx/lv_tileview.c ****     LV_ASSERT_OBJ(tileview, LV_OBJX_NAME);
 288:..\..\..\lvgl\version_6.1.2\lvgl\src\lv_objx/lv_tileview.c **** 
 289:..\..\..\lvgl\version_6.1.2\lvgl\src\lv_objx/lv_tileview.c ****     switch(type) {
 290:..\..\..\lvgl\version_6.1.2\lvgl\src\lv_objx/lv_tileview.c ****         case LV_TILEVIEW_STYLE_MAIN: lv_obj_set_style(tileview, style); break;
 291:..\..\..\lvgl\version_6.1.2\lvgl\src\lv_objx/lv_tileview.c ****     }
 292:..\..\..\lvgl\version_6.1.2\lvgl\src\lv_objx/lv_tileview.c **** }
 293:..\..\..\lvgl\version_6.1.2\lvgl\src\lv_objx/lv_tileview.c **** 
 294:..\..\..\lvgl\version_6.1.2\lvgl\src\lv_objx/lv_tileview.c **** /*=====================
 295:..\..\..\lvgl\version_6.1.2\lvgl\src\lv_objx/lv_tileview.c ****  * Getter functions
 296:..\..\..\lvgl\version_6.1.2\lvgl\src\lv_objx/lv_tileview.c ****  *====================*/
 297:..\..\..\lvgl\version_6.1.2\lvgl\src\lv_objx/lv_tileview.c **** 
 298:..\..\..\lvgl\version_6.1.2\lvgl\src\lv_objx/lv_tileview.c **** /*
 299:..\..\..\lvgl\version_6.1.2\lvgl\src\lv_objx/lv_tileview.c ****  * New object specific "get" functions come here
 300:..\..\..\lvgl\version_6.1.2\lvgl\src\lv_objx/lv_tileview.c ****  */
 301:..\..\..\lvgl\version_6.1.2\lvgl\src\lv_objx/lv_tileview.c **** 
 302:..\..\..\lvgl\version_6.1.2\lvgl\src\lv_objx/lv_tileview.c **** /**
 303:..\..\..\lvgl\version_6.1.2\lvgl\src\lv_objx/lv_tileview.c ****  * Get style of a tileview.
 304:..\..\..\lvgl\version_6.1.2\lvgl\src\lv_objx/lv_tileview.c ****  * @param tileview pointer to tileview object
 305:..\..\..\lvgl\version_6.1.2\lvgl\src\lv_objx/lv_tileview.c ****  * @param type which style should be get
 306:..\..\..\lvgl\version_6.1.2\lvgl\src\lv_objx/lv_tileview.c ****  * @return style pointer to the style
 307:..\..\..\lvgl\version_6.1.2\lvgl\src\lv_objx/lv_tileview.c ****  */
 308:..\..\..\lvgl\version_6.1.2\lvgl\src\lv_objx/lv_tileview.c **** const lv_style_t * lv_tileview_get_style(const lv_obj_t * tileview, lv_tileview_style_t type)
 309:..\..\..\lvgl\version_6.1.2\lvgl\src\lv_objx/lv_tileview.c **** {
 310:..\..\..\lvgl\version_6.1.2\lvgl\src\lv_objx/lv_tileview.c ****     LV_ASSERT_OBJ(tileview, LV_OBJX_NAME);
 311:..\..\..\lvgl\version_6.1.2\lvgl\src\lv_objx/lv_tileview.c **** 
 312:..\..\..\lvgl\version_6.1.2\lvgl\src\lv_objx/lv_tileview.c ****     const lv_style_t * style = NULL;
 313:..\..\..\lvgl\version_6.1.2\lvgl\src\lv_objx/lv_tileview.c ****     switch(type) {
 314:..\..\..\lvgl\version_6.1.2\lvgl\src\lv_objx/lv_tileview.c ****         case LV_TILEVIEW_STYLE_MAIN: style = lv_obj_get_style(tileview); break;
 315:..\..\..\lvgl\version_6.1.2\lvgl\src\lv_objx/lv_tileview.c ****         default: style = NULL;
ARM GAS  C:\Users\pearlstl\AppData\Local\Temp\ccIMJlIA.s 			page 7


 316:..\..\..\lvgl\version_6.1.2\lvgl\src\lv_objx/lv_tileview.c ****     }
 317:..\..\..\lvgl\version_6.1.2\lvgl\src\lv_objx/lv_tileview.c **** 
 318:..\..\..\lvgl\version_6.1.2\lvgl\src\lv_objx/lv_tileview.c ****     return style;
 319:..\..\..\lvgl\version_6.1.2\lvgl\src\lv_objx/lv_tileview.c **** }
 320:..\..\..\lvgl\version_6.1.2\lvgl\src\lv_objx/lv_tileview.c **** 
 321:..\..\..\lvgl\version_6.1.2\lvgl\src\lv_objx/lv_tileview.c **** /*=====================
 322:..\..\..\lvgl\version_6.1.2\lvgl\src\lv_objx/lv_tileview.c ****  * Other functions
 323:..\..\..\lvgl\version_6.1.2\lvgl\src\lv_objx/lv_tileview.c ****  *====================*/
 324:..\..\..\lvgl\version_6.1.2\lvgl\src\lv_objx/lv_tileview.c **** 
 325:..\..\..\lvgl\version_6.1.2\lvgl\src\lv_objx/lv_tileview.c **** /*
 326:..\..\..\lvgl\version_6.1.2\lvgl\src\lv_objx/lv_tileview.c ****  * New object specific "other" functions come here
 327:..\..\..\lvgl\version_6.1.2\lvgl\src\lv_objx/lv_tileview.c ****  */
 328:..\..\..\lvgl\version_6.1.2\lvgl\src\lv_objx/lv_tileview.c **** 
 329:..\..\..\lvgl\version_6.1.2\lvgl\src\lv_objx/lv_tileview.c **** /**********************
 330:..\..\..\lvgl\version_6.1.2\lvgl\src\lv_objx/lv_tileview.c ****  *   STATIC FUNCTIONS
 331:..\..\..\lvgl\version_6.1.2\lvgl\src\lv_objx/lv_tileview.c ****  **********************/
 332:..\..\..\lvgl\version_6.1.2\lvgl\src\lv_objx/lv_tileview.c **** 
 333:..\..\..\lvgl\version_6.1.2\lvgl\src\lv_objx/lv_tileview.c **** /**
 334:..\..\..\lvgl\version_6.1.2\lvgl\src\lv_objx/lv_tileview.c ****  * Signal function of the tileview
 335:..\..\..\lvgl\version_6.1.2\lvgl\src\lv_objx/lv_tileview.c ****  * @param tileview pointer to a tileview object
 336:..\..\..\lvgl\version_6.1.2\lvgl\src\lv_objx/lv_tileview.c ****  * @param sign a signal type from lv_signal_t enum
 337:..\..\..\lvgl\version_6.1.2\lvgl\src\lv_objx/lv_tileview.c ****  * @param param pointer to a signal specific variable
 338:..\..\..\lvgl\version_6.1.2\lvgl\src\lv_objx/lv_tileview.c ****  * @return LV_RES_OK: the object is not deleted in the function; LV_RES_INV: the object is deleted
 339:..\..\..\lvgl\version_6.1.2\lvgl\src\lv_objx/lv_tileview.c ****  */
 340:..\..\..\lvgl\version_6.1.2\lvgl\src\lv_objx/lv_tileview.c **** static lv_res_t lv_tileview_signal(lv_obj_t * tileview, lv_signal_t sign, void * param)
 341:..\..\..\lvgl\version_6.1.2\lvgl\src\lv_objx/lv_tileview.c **** {
 342:..\..\..\lvgl\version_6.1.2\lvgl\src\lv_objx/lv_tileview.c ****     lv_res_t res;
 343:..\..\..\lvgl\version_6.1.2\lvgl\src\lv_objx/lv_tileview.c **** 
 344:..\..\..\lvgl\version_6.1.2\lvgl\src\lv_objx/lv_tileview.c ****     /* Include the ancient signal function */
 345:..\..\..\lvgl\version_6.1.2\lvgl\src\lv_objx/lv_tileview.c ****     res = ancestor_signal(tileview, sign, param);
 346:..\..\..\lvgl\version_6.1.2\lvgl\src\lv_objx/lv_tileview.c ****     if(res != LV_RES_OK) return res;
 347:..\..\..\lvgl\version_6.1.2\lvgl\src\lv_objx/lv_tileview.c ****     if(sign == LV_SIGNAL_GET_TYPE) return lv_obj_handle_get_type_signal(param, LV_OBJX_NAME);
 348:..\..\..\lvgl\version_6.1.2\lvgl\src\lv_objx/lv_tileview.c **** 
 349:..\..\..\lvgl\version_6.1.2\lvgl\src\lv_objx/lv_tileview.c ****     if(sign == LV_SIGNAL_CLEANUP) {
 350:..\..\..\lvgl\version_6.1.2\lvgl\src\lv_objx/lv_tileview.c ****         /*Nothing to cleanup. (No dynamically allocated memory in 'ext')*/
 351:..\..\..\lvgl\version_6.1.2\lvgl\src\lv_objx/lv_tileview.c ****     }
 352:..\..\..\lvgl\version_6.1.2\lvgl\src\lv_objx/lv_tileview.c **** 
 353:..\..\..\lvgl\version_6.1.2\lvgl\src\lv_objx/lv_tileview.c ****     return res;
 354:..\..\..\lvgl\version_6.1.2\lvgl\src\lv_objx/lv_tileview.c **** }
 355:..\..\..\lvgl\version_6.1.2\lvgl\src\lv_objx/lv_tileview.c **** 
 356:..\..\..\lvgl\version_6.1.2\lvgl\src\lv_objx/lv_tileview.c **** /**
 357:..\..\..\lvgl\version_6.1.2\lvgl\src\lv_objx/lv_tileview.c ****  * Signal function of the tileview scrollable
 358:..\..\..\lvgl\version_6.1.2\lvgl\src\lv_objx/lv_tileview.c ****  * @param tileview pointer to the scrollable part of the tileview object
 359:..\..\..\lvgl\version_6.1.2\lvgl\src\lv_objx/lv_tileview.c ****  * @param sign a signal type from lv_signal_t enum
 360:..\..\..\lvgl\version_6.1.2\lvgl\src\lv_objx/lv_tileview.c ****  * @param param pointer to a signal specific variable
 361:..\..\..\lvgl\version_6.1.2\lvgl\src\lv_objx/lv_tileview.c ****  * @return LV_RES_OK: the object is not deleted in the function; LV_RES_INV: the object is deleted
 362:..\..\..\lvgl\version_6.1.2\lvgl\src\lv_objx/lv_tileview.c ****  */
 363:..\..\..\lvgl\version_6.1.2\lvgl\src\lv_objx/lv_tileview.c **** static lv_res_t lv_tileview_scrl_signal(lv_obj_t * scrl, lv_signal_t sign, void * param)
 364:..\..\..\lvgl\version_6.1.2\lvgl\src\lv_objx/lv_tileview.c **** {
  28              		.loc 1 364 0
  29              		.cfi_startproc
  30              		@ args = 0, pretend = 0, frame = 8
  31              		@ frame_needed = 0, uses_anonymous_args = 0
  32              	.LVL0:
  33 0000 2DE9F04F 		push	{r4, r5, r6, r7, r8, r9, r10, fp, lr}
  34              		.cfi_def_cfa_offset 36
  35              		.cfi_offset 4, -36
ARM GAS  C:\Users\pearlstl\AppData\Local\Temp\ccIMJlIA.s 			page 8


  36              		.cfi_offset 5, -32
  37              		.cfi_offset 6, -28
  38              		.cfi_offset 7, -24
  39              		.cfi_offset 8, -20
  40              		.cfi_offset 9, -16
  41              		.cfi_offset 10, -12
  42              		.cfi_offset 11, -8
  43              		.cfi_offset 14, -4
 365:..\..\..\lvgl\version_6.1.2\lvgl\src\lv_objx/lv_tileview.c **** 
 366:..\..\..\lvgl\version_6.1.2\lvgl\src\lv_objx/lv_tileview.c ****     lv_res_t res;
 367:..\..\..\lvgl\version_6.1.2\lvgl\src\lv_objx/lv_tileview.c **** 
 368:..\..\..\lvgl\version_6.1.2\lvgl\src\lv_objx/lv_tileview.c ****     /* Include the ancient signal function */
 369:..\..\..\lvgl\version_6.1.2\lvgl\src\lv_objx/lv_tileview.c ****     res = ancestor_scrl_signal(scrl, sign, param);
  44              		.loc 1 369 0
  45 0004 B54B     		ldr	r3, .L68
 364:..\..\..\lvgl\version_6.1.2\lvgl\src\lv_objx/lv_tileview.c **** 
  46              		.loc 1 364 0
  47 0006 83B0     		sub	sp, sp, #12
  48              		.cfi_def_cfa_offset 48
  49              		.loc 1 369 0
  50 0008 1B68     		ldr	r3, [r3]
 364:..\..\..\lvgl\version_6.1.2\lvgl\src\lv_objx/lv_tileview.c **** 
  51              		.loc 1 364 0
  52 000a 0546     		mov	r5, r0
  53 000c 0C46     		mov	r4, r1
  54 000e 1646     		mov	r6, r2
  55              		.loc 1 369 0
  56 0010 9847     		blx	r3
  57              	.LVL1:
 370:..\..\..\lvgl\version_6.1.2\lvgl\src\lv_objx/lv_tileview.c ****     if(res != LV_RES_OK) return res;
  58              		.loc 1 370 0
  59 0012 0128     		cmp	r0, #1
  60 0014 02D0     		beq	.L58
 371:..\..\..\lvgl\version_6.1.2\lvgl\src\lv_objx/lv_tileview.c ****     if(sign == LV_SIGNAL_GET_TYPE) return lv_obj_handle_get_type_signal(param, "");
 372:..\..\..\lvgl\version_6.1.2\lvgl\src\lv_objx/lv_tileview.c **** 
 373:..\..\..\lvgl\version_6.1.2\lvgl\src\lv_objx/lv_tileview.c ****     lv_obj_t * tileview         = lv_obj_get_parent(scrl);
 374:..\..\..\lvgl\version_6.1.2\lvgl\src\lv_objx/lv_tileview.c ****     const lv_style_t * style_bg = lv_tileview_get_style(tileview, LV_TILEVIEW_STYLE_MAIN);
 375:..\..\..\lvgl\version_6.1.2\lvgl\src\lv_objx/lv_tileview.c **** 
 376:..\..\..\lvgl\version_6.1.2\lvgl\src\lv_objx/lv_tileview.c ****     /*Apply constraint on moving of the tileview*/
 377:..\..\..\lvgl\version_6.1.2\lvgl\src\lv_objx/lv_tileview.c ****     if(sign == LV_SIGNAL_CORD_CHG) {
 378:..\..\..\lvgl\version_6.1.2\lvgl\src\lv_objx/lv_tileview.c ****         lv_indev_t * indev = lv_indev_get_act();
 379:..\..\..\lvgl\version_6.1.2\lvgl\src\lv_objx/lv_tileview.c ****         if(indev) {
 380:..\..\..\lvgl\version_6.1.2\lvgl\src\lv_objx/lv_tileview.c ****             lv_tileview_ext_t * ext = lv_obj_get_ext_attr(tileview);
 381:..\..\..\lvgl\version_6.1.2\lvgl\src\lv_objx/lv_tileview.c **** 
 382:..\..\..\lvgl\version_6.1.2\lvgl\src\lv_objx/lv_tileview.c ****             /*Set horizontal drag constraint if no vertical constraint an dragged to valid x
 383:..\..\..\lvgl\version_6.1.2\lvgl\src\lv_objx/lv_tileview.c ****              * direction */
 384:..\..\..\lvgl\version_6.1.2\lvgl\src\lv_objx/lv_tileview.c ****             if(ext->drag_ver == 0 &&
 385:..\..\..\lvgl\version_6.1.2\lvgl\src\lv_objx/lv_tileview.c ****                ((ext->drag_right_en && indev->proc.types.pointer.drag_sum.x <= -LV_INDEV_DEF_DRAG_L
 386:..\..\..\lvgl\version_6.1.2\lvgl\src\lv_objx/lv_tileview.c ****                 (ext->drag_left_en && indev->proc.types.pointer.drag_sum.x >= LV_INDEV_DEF_DRAG_LIM
 387:..\..\..\lvgl\version_6.1.2\lvgl\src\lv_objx/lv_tileview.c ****                 ext->drag_hor = 1;
 388:..\..\..\lvgl\version_6.1.2\lvgl\src\lv_objx/lv_tileview.c ****             }
 389:..\..\..\lvgl\version_6.1.2\lvgl\src\lv_objx/lv_tileview.c ****             /*Set vertical drag constraint if no horizontal constraint an dragged to valid y
 390:..\..\..\lvgl\version_6.1.2\lvgl\src\lv_objx/lv_tileview.c ****              * direction */
 391:..\..\..\lvgl\version_6.1.2\lvgl\src\lv_objx/lv_tileview.c ****             if(ext->drag_hor == 0 &&
 392:..\..\..\lvgl\version_6.1.2\lvgl\src\lv_objx/lv_tileview.c ****                ((ext->drag_bottom_en && indev->proc.types.pointer.drag_sum.y <= -LV_INDEV_DEF_DRAG_
 393:..\..\..\lvgl\version_6.1.2\lvgl\src\lv_objx/lv_tileview.c ****                 (ext->drag_top_en && indev->proc.types.pointer.drag_sum.y >= LV_INDEV_DEF_DRAG_LIMI
 394:..\..\..\lvgl\version_6.1.2\lvgl\src\lv_objx/lv_tileview.c ****                 ext->drag_ver = 1;
ARM GAS  C:\Users\pearlstl\AppData\Local\Temp\ccIMJlIA.s 			page 9


 395:..\..\..\lvgl\version_6.1.2\lvgl\src\lv_objx/lv_tileview.c ****             }
 396:..\..\..\lvgl\version_6.1.2\lvgl\src\lv_objx/lv_tileview.c **** 
 397:..\..\..\lvgl\version_6.1.2\lvgl\src\lv_objx/lv_tileview.c **** #if LV_USE_ANIMATION
 398:..\..\..\lvgl\version_6.1.2\lvgl\src\lv_objx/lv_tileview.c ****             if(ext->drag_hor) {
 399:..\..\..\lvgl\version_6.1.2\lvgl\src\lv_objx/lv_tileview.c ****                 ext->page.edge_flash.top_ip    = 0;
 400:..\..\..\lvgl\version_6.1.2\lvgl\src\lv_objx/lv_tileview.c ****                 ext->page.edge_flash.bottom_ip = 0;
 401:..\..\..\lvgl\version_6.1.2\lvgl\src\lv_objx/lv_tileview.c ****             }
 402:..\..\..\lvgl\version_6.1.2\lvgl\src\lv_objx/lv_tileview.c **** 
 403:..\..\..\lvgl\version_6.1.2\lvgl\src\lv_objx/lv_tileview.c ****             if(ext->drag_ver) {
 404:..\..\..\lvgl\version_6.1.2\lvgl\src\lv_objx/lv_tileview.c ****                 ext->page.edge_flash.right_ip = 0;
 405:..\..\..\lvgl\version_6.1.2\lvgl\src\lv_objx/lv_tileview.c ****                 ext->page.edge_flash.left_ip  = 0;
 406:..\..\..\lvgl\version_6.1.2\lvgl\src\lv_objx/lv_tileview.c ****             }
 407:..\..\..\lvgl\version_6.1.2\lvgl\src\lv_objx/lv_tileview.c **** #endif
 408:..\..\..\lvgl\version_6.1.2\lvgl\src\lv_objx/lv_tileview.c **** 
 409:..\..\..\lvgl\version_6.1.2\lvgl\src\lv_objx/lv_tileview.c ****             lv_coord_t x = lv_obj_get_x(scrl);
 410:..\..\..\lvgl\version_6.1.2\lvgl\src\lv_objx/lv_tileview.c ****             lv_coord_t y = lv_obj_get_y(scrl);
 411:..\..\..\lvgl\version_6.1.2\lvgl\src\lv_objx/lv_tileview.c ****             lv_coord_t h = lv_obj_get_height(tileview);
 412:..\..\..\lvgl\version_6.1.2\lvgl\src\lv_objx/lv_tileview.c ****             lv_coord_t w = lv_obj_get_width(tileview);
 413:..\..\..\lvgl\version_6.1.2\lvgl\src\lv_objx/lv_tileview.c ****             if(ext->drag_top_en == 0) {
 414:..\..\..\lvgl\version_6.1.2\lvgl\src\lv_objx/lv_tileview.c ****                 if(y > -(ext->act_id.y * h) && indev->proc.types.pointer.vect.y > 0 && ext->drag_ho
 415:..\..\..\lvgl\version_6.1.2\lvgl\src\lv_objx/lv_tileview.c **** #if LV_USE_ANIMATION
 416:..\..\..\lvgl\version_6.1.2\lvgl\src\lv_objx/lv_tileview.c ****                     if(ext->page.edge_flash.enabled && ext->page.edge_flash.left_ip == 0 &&
 417:..\..\..\lvgl\version_6.1.2\lvgl\src\lv_objx/lv_tileview.c ****                        ext->page.edge_flash.right_ip == 0 && ext->page.edge_flash.top_ip == 0 &&
 418:..\..\..\lvgl\version_6.1.2\lvgl\src\lv_objx/lv_tileview.c ****                        ext->page.edge_flash.bottom_ip == 0) {
 419:..\..\..\lvgl\version_6.1.2\lvgl\src\lv_objx/lv_tileview.c ****                         ext->page.edge_flash.top_ip = 1;
 420:..\..\..\lvgl\version_6.1.2\lvgl\src\lv_objx/lv_tileview.c ****                         lv_page_start_edge_flash(tileview);
 421:..\..\..\lvgl\version_6.1.2\lvgl\src\lv_objx/lv_tileview.c ****                     }
 422:..\..\..\lvgl\version_6.1.2\lvgl\src\lv_objx/lv_tileview.c **** #endif
 423:..\..\..\lvgl\version_6.1.2\lvgl\src\lv_objx/lv_tileview.c **** 
 424:..\..\..\lvgl\version_6.1.2\lvgl\src\lv_objx/lv_tileview.c ****                     lv_obj_set_y(scrl, -ext->act_id.y * h + style_bg->body.padding.top);
 425:..\..\..\lvgl\version_6.1.2\lvgl\src\lv_objx/lv_tileview.c ****                 }
 426:..\..\..\lvgl\version_6.1.2\lvgl\src\lv_objx/lv_tileview.c ****             }
 427:..\..\..\lvgl\version_6.1.2\lvgl\src\lv_objx/lv_tileview.c ****             if(ext->drag_bottom_en == 0 && indev->proc.types.pointer.vect.y < 0 && ext->drag_hor ==
 428:..\..\..\lvgl\version_6.1.2\lvgl\src\lv_objx/lv_tileview.c ****                 if(y < -(ext->act_id.y * h)) {
 429:..\..\..\lvgl\version_6.1.2\lvgl\src\lv_objx/lv_tileview.c **** #if LV_USE_ANIMATION
 430:..\..\..\lvgl\version_6.1.2\lvgl\src\lv_objx/lv_tileview.c ****                     if(ext->page.edge_flash.enabled && ext->page.edge_flash.left_ip == 0 &&
 431:..\..\..\lvgl\version_6.1.2\lvgl\src\lv_objx/lv_tileview.c ****                        ext->page.edge_flash.right_ip == 0 && ext->page.edge_flash.top_ip == 0 &&
 432:..\..\..\lvgl\version_6.1.2\lvgl\src\lv_objx/lv_tileview.c ****                        ext->page.edge_flash.bottom_ip == 0) {
 433:..\..\..\lvgl\version_6.1.2\lvgl\src\lv_objx/lv_tileview.c ****                         ext->page.edge_flash.bottom_ip = 1;
 434:..\..\..\lvgl\version_6.1.2\lvgl\src\lv_objx/lv_tileview.c ****                         lv_page_start_edge_flash(tileview);
 435:..\..\..\lvgl\version_6.1.2\lvgl\src\lv_objx/lv_tileview.c ****                     }
 436:..\..\..\lvgl\version_6.1.2\lvgl\src\lv_objx/lv_tileview.c **** #endif
 437:..\..\..\lvgl\version_6.1.2\lvgl\src\lv_objx/lv_tileview.c ****                 }
 438:..\..\..\lvgl\version_6.1.2\lvgl\src\lv_objx/lv_tileview.c **** 
 439:..\..\..\lvgl\version_6.1.2\lvgl\src\lv_objx/lv_tileview.c ****                 lv_obj_set_y(scrl, -ext->act_id.y * h + style_bg->body.padding.top);
 440:..\..\..\lvgl\version_6.1.2\lvgl\src\lv_objx/lv_tileview.c ****             }
 441:..\..\..\lvgl\version_6.1.2\lvgl\src\lv_objx/lv_tileview.c ****             if(ext->drag_left_en == 0) {
 442:..\..\..\lvgl\version_6.1.2\lvgl\src\lv_objx/lv_tileview.c ****                 if(x > -(ext->act_id.x * w) && indev->proc.types.pointer.vect.x > 0 && ext->drag_ve
 443:..\..\..\lvgl\version_6.1.2\lvgl\src\lv_objx/lv_tileview.c **** #if LV_USE_ANIMATION
 444:..\..\..\lvgl\version_6.1.2\lvgl\src\lv_objx/lv_tileview.c ****                     if(ext->page.edge_flash.enabled && ext->page.edge_flash.left_ip == 0 &&
 445:..\..\..\lvgl\version_6.1.2\lvgl\src\lv_objx/lv_tileview.c ****                        ext->page.edge_flash.right_ip == 0 && ext->page.edge_flash.top_ip == 0 &&
 446:..\..\..\lvgl\version_6.1.2\lvgl\src\lv_objx/lv_tileview.c ****                        ext->page.edge_flash.bottom_ip == 0) {
 447:..\..\..\lvgl\version_6.1.2\lvgl\src\lv_objx/lv_tileview.c ****                         ext->page.edge_flash.left_ip = 1;
 448:..\..\..\lvgl\version_6.1.2\lvgl\src\lv_objx/lv_tileview.c ****                         lv_page_start_edge_flash(tileview);
 449:..\..\..\lvgl\version_6.1.2\lvgl\src\lv_objx/lv_tileview.c ****                     }
 450:..\..\..\lvgl\version_6.1.2\lvgl\src\lv_objx/lv_tileview.c **** #endif
 451:..\..\..\lvgl\version_6.1.2\lvgl\src\lv_objx/lv_tileview.c **** 
ARM GAS  C:\Users\pearlstl\AppData\Local\Temp\ccIMJlIA.s 			page 10


 452:..\..\..\lvgl\version_6.1.2\lvgl\src\lv_objx/lv_tileview.c ****                     lv_obj_set_x(scrl, -ext->act_id.x * w + style_bg->body.padding.left);
 453:..\..\..\lvgl\version_6.1.2\lvgl\src\lv_objx/lv_tileview.c ****                 }
 454:..\..\..\lvgl\version_6.1.2\lvgl\src\lv_objx/lv_tileview.c ****             }
 455:..\..\..\lvgl\version_6.1.2\lvgl\src\lv_objx/lv_tileview.c ****             if(ext->drag_right_en == 0 && indev->proc.types.pointer.vect.x < 0 && ext->drag_ver == 
 456:..\..\..\lvgl\version_6.1.2\lvgl\src\lv_objx/lv_tileview.c ****                 if(x < -(ext->act_id.x * w)) {
 457:..\..\..\lvgl\version_6.1.2\lvgl\src\lv_objx/lv_tileview.c **** #if LV_USE_ANIMATION
 458:..\..\..\lvgl\version_6.1.2\lvgl\src\lv_objx/lv_tileview.c ****                     if(ext->page.edge_flash.enabled && ext->page.edge_flash.left_ip == 0 &&
 459:..\..\..\lvgl\version_6.1.2\lvgl\src\lv_objx/lv_tileview.c ****                        ext->page.edge_flash.right_ip == 0 && ext->page.edge_flash.top_ip == 0 &&
 460:..\..\..\lvgl\version_6.1.2\lvgl\src\lv_objx/lv_tileview.c ****                        ext->page.edge_flash.bottom_ip == 0) {
 461:..\..\..\lvgl\version_6.1.2\lvgl\src\lv_objx/lv_tileview.c ****                         ext->page.edge_flash.right_ip = 1;
 462:..\..\..\lvgl\version_6.1.2\lvgl\src\lv_objx/lv_tileview.c ****                         lv_page_start_edge_flash(tileview);
 463:..\..\..\lvgl\version_6.1.2\lvgl\src\lv_objx/lv_tileview.c ****                     }
 464:..\..\..\lvgl\version_6.1.2\lvgl\src\lv_objx/lv_tileview.c **** #endif
 465:..\..\..\lvgl\version_6.1.2\lvgl\src\lv_objx/lv_tileview.c ****                 }
 466:..\..\..\lvgl\version_6.1.2\lvgl\src\lv_objx/lv_tileview.c **** 
 467:..\..\..\lvgl\version_6.1.2\lvgl\src\lv_objx/lv_tileview.c ****                 lv_obj_set_x(scrl, -ext->act_id.x * w + style_bg->body.padding.top);
 468:..\..\..\lvgl\version_6.1.2\lvgl\src\lv_objx/lv_tileview.c ****             }
 469:..\..\..\lvgl\version_6.1.2\lvgl\src\lv_objx/lv_tileview.c **** 
 470:..\..\..\lvgl\version_6.1.2\lvgl\src\lv_objx/lv_tileview.c ****             /*Apply the drag constraints*/
 471:..\..\..\lvgl\version_6.1.2\lvgl\src\lv_objx/lv_tileview.c ****             if(ext->drag_ver == 0)
 472:..\..\..\lvgl\version_6.1.2\lvgl\src\lv_objx/lv_tileview.c ****                 lv_obj_set_y(scrl, -ext->act_id.y * lv_obj_get_height(tileview) + style_bg->body.pa
 473:..\..\..\lvgl\version_6.1.2\lvgl\src\lv_objx/lv_tileview.c ****             if(ext->drag_hor == 0)
 474:..\..\..\lvgl\version_6.1.2\lvgl\src\lv_objx/lv_tileview.c ****                 lv_obj_set_x(scrl, -ext->act_id.x * lv_obj_get_width(tileview) + style_bg->body.pad
 475:..\..\..\lvgl\version_6.1.2\lvgl\src\lv_objx/lv_tileview.c ****         }
 476:..\..\..\lvgl\version_6.1.2\lvgl\src\lv_objx/lv_tileview.c ****     }
 477:..\..\..\lvgl\version_6.1.2\lvgl\src\lv_objx/lv_tileview.c ****     return res;
 478:..\..\..\lvgl\version_6.1.2\lvgl\src\lv_objx/lv_tileview.c **** }
  61              		.loc 1 478 0
  62 0016 03B0     		add	sp, sp, #12
  63              		.cfi_remember_state
  64              		.cfi_def_cfa_offset 36
  65              		@ sp needed
  66 0018 BDE8F08F 		pop	{r4, r5, r6, r7, r8, r9, r10, fp, pc}
  67              	.LVL2:
  68              	.L58:
  69              		.cfi_restore_state
 371:..\..\..\lvgl\version_6.1.2\lvgl\src\lv_objx/lv_tileview.c ****     if(sign == LV_SIGNAL_GET_TYPE) return lv_obj_handle_get_type_signal(param, "");
  70              		.loc 1 371 0
  71 001c 072C     		cmp	r4, #7
  72 001e 0CD0     		beq	.L59
 373:..\..\..\lvgl\version_6.1.2\lvgl\src\lv_objx/lv_tileview.c ****     const lv_style_t * style_bg = lv_tileview_get_style(tileview, LV_TILEVIEW_STYLE_MAIN);
  73              		.loc 1 373 0
  74 0020 2846     		mov	r0, r5
  75              	.LVL3:
  76 0022 FFF7FEFF 		bl	lv_obj_get_parent
  77              	.LVL4:
  78 0026 0646     		mov	r6, r0
  79              	.LVL5:
  80              	.LBB10:
  81              	.LBB11:
 314:..\..\..\lvgl\version_6.1.2\lvgl\src\lv_objx/lv_tileview.c ****         default: style = NULL;
  82              		.loc 1 314 0
  83 0028 FFF7FEFF 		bl	lv_obj_get_style
  84              	.LVL6:
  85              	.LBE11:
  86              	.LBE10:
 377:..\..\..\lvgl\version_6.1.2\lvgl\src\lv_objx/lv_tileview.c ****         lv_indev_t * indev = lv_indev_get_act();
ARM GAS  C:\Users\pearlstl\AppData\Local\Temp\ccIMJlIA.s 			page 11


  87              		.loc 1 377 0
  88 002c 022C     		cmp	r4, #2
  89              	.LBB13:
  90              	.LBB12:
 314:..\..\..\lvgl\version_6.1.2\lvgl\src\lv_objx/lv_tileview.c ****         default: style = NULL;
  91              		.loc 1 314 0
  92 002e 0746     		mov	r7, r0
  93              	.LVL7:
  94              	.LBE12:
  95              	.LBE13:
 377:..\..\..\lvgl\version_6.1.2\lvgl\src\lv_objx/lv_tileview.c ****         lv_indev_t * indev = lv_indev_get_act();
  96              		.loc 1 377 0
  97 0030 0AD0     		beq	.L60
  98              	.L56:
  99              	.LBB14:
 100              	.LBB15:
 474:..\..\..\lvgl\version_6.1.2\lvgl\src\lv_objx/lv_tileview.c ****         }
 101              		.loc 1 474 0
 102 0032 0120     		movs	r0, #1
 103              	.LBE15:
 104              	.LBE14:
 105              		.loc 1 478 0
 106 0034 03B0     		add	sp, sp, #12
 107              		.cfi_remember_state
 108              		.cfi_def_cfa_offset 36
 109              		@ sp needed
 110 0036 BDE8F08F 		pop	{r4, r5, r6, r7, r8, r9, r10, fp, pc}
 111              	.LVL8:
 112              	.L59:
 113              		.cfi_restore_state
 371:..\..\..\lvgl\version_6.1.2\lvgl\src\lv_objx/lv_tileview.c **** 
 114              		.loc 1 371 0 discriminator 1
 115 003a A949     		ldr	r1, .L68+4
 116 003c 3046     		mov	r0, r6
 117              	.LVL9:
 118              		.loc 1 478 0 discriminator 1
 119 003e 03B0     		add	sp, sp, #12
 120              		.cfi_remember_state
 121              		.cfi_def_cfa_offset 36
 122              		@ sp needed
 123 0040 BDE8F04F 		pop	{r4, r5, r6, r7, r8, r9, r10, fp, lr}
 124              		.cfi_restore 14
 125              		.cfi_restore 11
 126              		.cfi_restore 10
 127              		.cfi_restore 9
 128              		.cfi_restore 8
 129              		.cfi_restore 7
 130              		.cfi_restore 6
 131              		.cfi_restore 5
 132              		.cfi_restore 4
 133              		.cfi_def_cfa_offset 0
 134              	.LVL10:
 371:..\..\..\lvgl\version_6.1.2\lvgl\src\lv_objx/lv_tileview.c **** 
 135              		.loc 1 371 0 discriminator 1
 136 0044 FFF7FEBF 		b	lv_obj_handle_get_type_signal
 137              	.LVL11:
 138              	.L60:
ARM GAS  C:\Users\pearlstl\AppData\Local\Temp\ccIMJlIA.s 			page 12


 139              		.cfi_restore_state
 140              	.LBB17:
 378:..\..\..\lvgl\version_6.1.2\lvgl\src\lv_objx/lv_tileview.c ****         if(indev) {
 141              		.loc 1 378 0
 142 0048 FFF7FEFF 		bl	lv_indev_get_act
 143              	.LVL12:
 379:..\..\..\lvgl\version_6.1.2\lvgl\src\lv_objx/lv_tileview.c ****             lv_tileview_ext_t * ext = lv_obj_get_ext_attr(tileview);
 144              		.loc 1 379 0
 145 004c 8046     		mov	r8, r0
 146 004e 0028     		cmp	r0, #0
 147 0050 EFD0     		beq	.L56
 148              	.LBB16:
 380:..\..\..\lvgl\version_6.1.2\lvgl\src\lv_objx/lv_tileview.c **** 
 149              		.loc 1 380 0
 150 0052 3046     		mov	r0, r6
 151              	.LVL13:
 152 0054 FFF7FEFF 		bl	lv_obj_get_ext_attr
 153              	.LVL14:
 384:..\..\..\lvgl\version_6.1.2\lvgl\src\lv_objx/lv_tileview.c ****                ((ext->drag_right_en && indev->proc.types.pointer.drag_sum.x <= -LV_INDEV_DEF_DRAG_L
 154              		.loc 1 384 0
 155 0058 90F83C30 		ldrb	r3, [r0, #60]	@ zero_extendqisi2
 156 005c 9A06     		lsls	r2, r3, #26
 380:..\..\..\lvgl\version_6.1.2\lvgl\src\lv_objx/lv_tileview.c **** 
 157              		.loc 1 380 0
 158 005e 0446     		mov	r4, r0
 159              	.LVL15:
 384:..\..\..\lvgl\version_6.1.2\lvgl\src\lv_objx/lv_tileview.c ****                ((ext->drag_right_en && indev->proc.types.pointer.drag_sum.x <= -LV_INDEV_DEF_DRAG_L
 160              		.loc 1 384 0
 161 0060 0DD4     		bmi	.L6
 384:..\..\..\lvgl\version_6.1.2\lvgl\src\lv_objx/lv_tileview.c ****                ((ext->drag_right_en && indev->proc.types.pointer.drag_sum.x <= -LV_INDEV_DEF_DRAG_L
 162              		.loc 1 384 0 is_stmt 0 discriminator 1
 163 0062 1807     		lsls	r0, r3, #28
 164              	.LVL16:
 165 0064 40F1B580 		bpl	.L7
 385:..\..\..\lvgl\version_6.1.2\lvgl\src\lv_objx/lv_tileview.c ****                 (ext->drag_left_en && indev->proc.types.pointer.drag_sum.x >= LV_INDEV_DEF_DRAG_LIM
 166              		.loc 1 385 0 is_stmt 1
 167 0068 B8F92C20 		ldrsh	r2, [r8, #44]
 168 006c 0932     		adds	r2, r2, #9
 169 006e 80F2B080 		bge	.L7
 170              	.L8:
 387:..\..\..\lvgl\version_6.1.2\lvgl\src\lv_objx/lv_tileview.c ****             }
 171              		.loc 1 387 0
 172 0072 94F83C30 		ldrb	r3, [r4, #60]	@ zero_extendqisi2
 173 0076 43F01003 		orr	r3, r3, #16
 174 007a 84F83C30 		strb	r3, [r4, #60]
 175              	.L6:
 391:..\..\..\lvgl\version_6.1.2\lvgl\src\lv_objx/lv_tileview.c ****                ((ext->drag_bottom_en && indev->proc.types.pointer.drag_sum.y <= -LV_INDEV_DEF_DRAG_
 176              		.loc 1 391 0
 177 007e DA06     		lsls	r2, r3, #27
 178 0080 00F19580 		bmi	.L9
 391:..\..\..\lvgl\version_6.1.2\lvgl\src\lv_objx/lv_tileview.c ****                ((ext->drag_bottom_en && indev->proc.types.pointer.drag_sum.y <= -LV_INDEV_DEF_DRAG_
 179              		.loc 1 391 0 is_stmt 0 discriminator 1
 180 0084 9807     		lsls	r0, r3, #30
 181 0086 40F19B80 		bpl	.L10
 392:..\..\..\lvgl\version_6.1.2\lvgl\src\lv_objx/lv_tileview.c ****                 (ext->drag_top_en && indev->proc.types.pointer.drag_sum.y >= LV_INDEV_DEF_DRAG_LIMI
 182              		.loc 1 392 0 is_stmt 1
 183 008a B8F92E20 		ldrsh	r2, [r8, #46]
ARM GAS  C:\Users\pearlstl\AppData\Local\Temp\ccIMJlIA.s 			page 13


 184 008e 0932     		adds	r2, r2, #9
 185 0090 80F29680 		bge	.L10
 186              	.L11:
 394:..\..\..\lvgl\version_6.1.2\lvgl\src\lv_objx/lv_tileview.c ****             }
 187              		.loc 1 394 0
 188 0094 94F83C20 		ldrb	r2, [r4, #60]	@ zero_extendqisi2
 189 0098 42F02002 		orr	r2, r2, #32
 398:..\..\..\lvgl\version_6.1.2\lvgl\src\lv_objx/lv_tileview.c ****                 ext->page.edge_flash.top_ip    = 0;
 190              		.loc 1 398 0
 191 009c 1346     		mov	r3, r2
 394:..\..\..\lvgl\version_6.1.2\lvgl\src\lv_objx/lv_tileview.c ****             }
 192              		.loc 1 394 0
 193 009e 84F83C20 		strb	r2, [r4, #60]
 398:..\..\..\lvgl\version_6.1.2\lvgl\src\lv_objx/lv_tileview.c ****                 ext->page.edge_flash.top_ip    = 0;
 194              		.loc 1 398 0
 195 00a2 DA06     		lsls	r2, r3, #27
 196 00a4 00F18380 		bmi	.L9
 197              	.L12:
 403:..\..\..\lvgl\version_6.1.2\lvgl\src\lv_objx/lv_tileview.c ****                 ext->page.edge_flash.right_ip = 0;
 198              		.loc 1 403 0
 199 00a8 9B06     		lsls	r3, r3, #26
 200 00aa 07D5     		bpl	.L13
 404:..\..\..\lvgl\version_6.1.2\lvgl\src\lv_objx/lv_tileview.c ****                 ext->page.edge_flash.left_ip  = 0;
 201              		.loc 1 404 0
 202 00ac 94F82830 		ldrb	r3, [r4, #40]	@ zero_extendqisi2
 405:..\..\..\lvgl\version_6.1.2\lvgl\src\lv_objx/lv_tileview.c ****             }
 203              		.loc 1 405 0
 204 00b0 03F0F703 		and	r3, r3, #247
 205 00b4 6FF30413 		bfc	r3, #4, #1
 206 00b8 84F82830 		strb	r3, [r4, #40]
 207              	.L13:
 409:..\..\..\lvgl\version_6.1.2\lvgl\src\lv_objx/lv_tileview.c ****             lv_coord_t y = lv_obj_get_y(scrl);
 208              		.loc 1 409 0
 209 00bc 2846     		mov	r0, r5
 210 00be FFF7FEFF 		bl	lv_obj_get_x
 211              	.LVL17:
 212 00c2 8246     		mov	r10, r0
 213              	.LVL18:
 410:..\..\..\lvgl\version_6.1.2\lvgl\src\lv_objx/lv_tileview.c ****             lv_coord_t h = lv_obj_get_height(tileview);
 214              		.loc 1 410 0
 215 00c4 2846     		mov	r0, r5
 216 00c6 FFF7FEFF 		bl	lv_obj_get_y
 217              	.LVL19:
 218 00ca 8346     		mov	fp, r0
 219              	.LVL20:
 411:..\..\..\lvgl\version_6.1.2\lvgl\src\lv_objx/lv_tileview.c ****             lv_coord_t w = lv_obj_get_width(tileview);
 220              		.loc 1 411 0
 221 00cc 3046     		mov	r0, r6
 222 00ce FFF7FEFF 		bl	lv_obj_get_height
 223              	.LVL21:
 224 00d2 8146     		mov	r9, r0
 225              	.LVL22:
 412:..\..\..\lvgl\version_6.1.2\lvgl\src\lv_objx/lv_tileview.c ****             if(ext->drag_top_en == 0) {
 226              		.loc 1 412 0
 227 00d4 3046     		mov	r0, r6
 228 00d6 FFF7FEFF 		bl	lv_obj_get_width
 229              	.LVL23:
ARM GAS  C:\Users\pearlstl\AppData\Local\Temp\ccIMJlIA.s 			page 14


 413:..\..\..\lvgl\version_6.1.2\lvgl\src\lv_objx/lv_tileview.c ****                 if(y > -(ext->act_id.y * h) && indev->proc.types.pointer.vect.y > 0 && ext->drag_ho
 230              		.loc 1 413 0
 231 00da 94F83C30 		ldrb	r3, [r4, #60]	@ zero_extendqisi2
 412:..\..\..\lvgl\version_6.1.2\lvgl\src\lv_objx/lv_tileview.c ****             if(ext->drag_top_en == 0) {
 232              		.loc 1 412 0
 233 00de 0246     		mov	r2, r0
 234              	.LVL24:
 413:..\..\..\lvgl\version_6.1.2\lvgl\src\lv_objx/lv_tileview.c ****                 if(y > -(ext->act_id.y * h) && indev->proc.types.pointer.vect.y > 0 && ext->drag_ho
 235              		.loc 1 413 0
 236 00e0 D807     		lsls	r0, r3, #31
 237 00e2 1FD4     		bmi	.L14
 414:..\..\..\lvgl\version_6.1.2\lvgl\src\lv_objx/lv_tileview.c **** #if LV_USE_ANIMATION
 238              		.loc 1 414 0
 239 00e4 B4F93A00 		ldrsh	r0, [r4, #58]
 240 00e8 00FB09F1 		mul	r1, r0, r9
 241 00ec 4942     		negs	r1, r1
 242 00ee 8B45     		cmp	fp, r1
 243 00f0 18DD     		ble	.L14
 414:..\..\..\lvgl\version_6.1.2\lvgl\src\lv_objx/lv_tileview.c **** #if LV_USE_ANIMATION
 244              		.loc 1 414 0 is_stmt 0 discriminator 1
 245 00f2 B8F92A10 		ldrsh	r1, [r8, #42]
 246 00f6 0029     		cmp	r1, #0
 247 00f8 14DD     		ble	.L14
 414:..\..\..\lvgl\version_6.1.2\lvgl\src\lv_objx/lv_tileview.c **** #if LV_USE_ANIMATION
 248              		.loc 1 414 0 discriminator 2
 249 00fa D906     		lsls	r1, r3, #27
 250 00fc 12D4     		bmi	.L14
 416:..\..\..\lvgl\version_6.1.2\lvgl\src\lv_objx/lv_tileview.c ****                        ext->page.edge_flash.right_ip == 0 && ext->page.edge_flash.top_ip == 0 &&
 251              		.loc 1 416 0 is_stmt 1
 252 00fe 94F82830 		ldrb	r3, [r4, #40]	@ zero_extendqisi2
 253 0102 03F01F01 		and	r1, r3, #31
 254 0106 0129     		cmp	r1, #1
 255 0108 00F0C480 		beq	.L61
 256              	.LVL25:
 257              	.L15:
 424:..\..\..\lvgl\version_6.1.2\lvgl\src\lv_objx/lv_tileview.c ****                 }
 258              		.loc 1 424 0
 259 010c 398C     		ldrh	r1, [r7, #32]
 260 010e 0192     		str	r2, [sp, #4]
 261 0110 4042     		negs	r0, r0
 262 0112 10FB0911 		smlabb	r1, r0, r9, r1
 263 0116 09B2     		sxth	r1, r1
 264 0118 2846     		mov	r0, r5
 265 011a FFF7FEFF 		bl	lv_obj_set_y
 266              	.LVL26:
 267 011e 94F83C30 		ldrb	r3, [r4, #60]	@ zero_extendqisi2
 268 0122 019A     		ldr	r2, [sp, #4]
 269              	.L14:
 427:..\..\..\lvgl\version_6.1.2\lvgl\src\lv_objx/lv_tileview.c ****                 if(y < -(ext->act_id.y * h)) {
 270              		.loc 1 427 0
 271 0124 9807     		lsls	r0, r3, #30
 272 0126 03D4     		bmi	.L16
 427:..\..\..\lvgl\version_6.1.2\lvgl\src\lv_objx/lv_tileview.c ****                 if(y < -(ext->act_id.y * h)) {
 273              		.loc 1 427 0 is_stmt 0 discriminator 1
 274 0128 B8F92A10 		ldrsh	r1, [r8, #42]
 275 012c 0029     		cmp	r1, #0
 276 012e 6CDB     		blt	.L62
ARM GAS  C:\Users\pearlstl\AppData\Local\Temp\ccIMJlIA.s 			page 15


 277              	.L16:
 441:..\..\..\lvgl\version_6.1.2\lvgl\src\lv_objx/lv_tileview.c ****                 if(x > -(ext->act_id.x * w) && indev->proc.types.pointer.vect.x > 0 && ext->drag_ve
 278              		.loc 1 441 0 is_stmt 1
 279 0130 5807     		lsls	r0, r3, #29
 280 0132 21D4     		bmi	.L18
 442:..\..\..\lvgl\version_6.1.2\lvgl\src\lv_objx/lv_tileview.c **** #if LV_USE_ANIMATION
 281              		.loc 1 442 0
 282 0134 B4F93800 		ldrsh	r0, [r4, #56]
 283 0138 00FB02F1 		mul	r1, r0, r2
 284 013c 4942     		negs	r1, r1
 285 013e 8A45     		cmp	r10, r1
 286 0140 1ADD     		ble	.L18
 442:..\..\..\lvgl\version_6.1.2\lvgl\src\lv_objx/lv_tileview.c **** #if LV_USE_ANIMATION
 287              		.loc 1 442 0 is_stmt 0 discriminator 1
 288 0142 B8F92810 		ldrsh	r1, [r8, #40]
 289 0146 0029     		cmp	r1, #0
 290 0148 16DD     		ble	.L18
 442:..\..\..\lvgl\version_6.1.2\lvgl\src\lv_objx/lv_tileview.c **** #if LV_USE_ANIMATION
 291              		.loc 1 442 0 discriminator 2
 292 014a 13F02001 		ands	r1, r3, #32
 293 014e 40F09280 		bne	.L19
 444:..\..\..\lvgl\version_6.1.2\lvgl\src\lv_objx/lv_tileview.c ****                        ext->page.edge_flash.right_ip == 0 && ext->page.edge_flash.top_ip == 0 &&
 294              		.loc 1 444 0 is_stmt 1
 295 0152 94F82830 		ldrb	r3, [r4, #40]	@ zero_extendqisi2
 296 0156 03F01F01 		and	r1, r3, #31
 297 015a 0129     		cmp	r1, #1
 298 015c 00F08E80 		beq	.L63
 299              	.L20:
 452:..\..\..\lvgl\version_6.1.2\lvgl\src\lv_objx/lv_tileview.c ****                 }
 300              		.loc 1 452 0
 301 0160 B98C     		ldrh	r1, [r7, #36]
 302 0162 0192     		str	r2, [sp, #4]
 303 0164 4042     		negs	r0, r0
 304 0166 10FB0211 		smlabb	r1, r0, r2, r1
 305 016a 09B2     		sxth	r1, r1
 306 016c 2846     		mov	r0, r5
 307 016e FFF7FEFF 		bl	lv_obj_set_x
 308              	.LVL27:
 309 0172 94F83C30 		ldrb	r3, [r4, #60]	@ zero_extendqisi2
 310 0176 019A     		ldr	r2, [sp, #4]
 311              	.L18:
 455:..\..\..\lvgl\version_6.1.2\lvgl\src\lv_objx/lv_tileview.c ****                 if(x < -(ext->act_id.x * w)) {
 312              		.loc 1 455 0
 313 0178 1907     		lsls	r1, r3, #28
 314 017a 03D4     		bmi	.L55
 315 017c B8F92810 		ldrsh	r1, [r8, #40]
 316 0180 0029     		cmp	r1, #0
 317 0182 5EDB     		blt	.L64
 318              	.L55:
 319 0184 03F02001 		and	r1, r3, #32
 320              	.L21:
 471:..\..\..\lvgl\version_6.1.2\lvgl\src\lv_objx/lv_tileview.c ****                 lv_obj_set_y(scrl, -ext->act_id.y * lv_obj_get_height(tileview) + style_bg->body.pa
 321              		.loc 1 471 0
 322 0188 61B3     		cbz	r1, .L65
 323              	.LVL28:
 324              	.L22:
 473:..\..\..\lvgl\version_6.1.2\lvgl\src\lv_objx/lv_tileview.c ****                 lv_obj_set_x(scrl, -ext->act_id.x * lv_obj_get_width(tileview) + style_bg->body.pad
ARM GAS  C:\Users\pearlstl\AppData\Local\Temp\ccIMJlIA.s 			page 16


 325              		.loc 1 473 0
 326 018a D906     		lsls	r1, r3, #27
 327 018c 3FF551AF 		bmi	.L56
 474:..\..\..\lvgl\version_6.1.2\lvgl\src\lv_objx/lv_tileview.c ****         }
 328              		.loc 1 474 0
 329 0190 B4F93840 		ldrsh	r4, [r4, #56]
 330              	.LVL29:
 331 0194 3046     		mov	r0, r6
 332 0196 FFF7FEFF 		bl	lv_obj_get_width
 333              	.LVL30:
 334 019a 6442     		negs	r4, r4
 335 019c B98C     		ldrh	r1, [r7, #36]
 336 019e A4B2     		uxth	r4, r4
 337 01a0 10FB0411 		smlabb	r1, r0, r4, r1
 338 01a4 09B2     		sxth	r1, r1
 339 01a6 2846     		mov	r0, r5
 340 01a8 FFF7FEFF 		bl	lv_obj_set_x
 341              	.LVL31:
 342 01ac 41E7     		b	.L56
 343              	.LVL32:
 344              	.L9:
 399:..\..\..\lvgl\version_6.1.2\lvgl\src\lv_objx/lv_tileview.c ****                 ext->page.edge_flash.bottom_ip = 0;
 345              		.loc 1 399 0
 346 01ae 94F82820 		ldrb	r2, [r4, #40]	@ zero_extendqisi2
 400:..\..\..\lvgl\version_6.1.2\lvgl\src\lv_objx/lv_tileview.c ****             }
 347              		.loc 1 400 0
 348 01b2 02F0FD02 		and	r2, r2, #253
 349 01b6 6FF38202 		bfc	r2, #2, #1
 350 01ba 84F82820 		strb	r2, [r4, #40]
 351 01be 73E7     		b	.L12
 352              	.L10:
 392:..\..\..\lvgl\version_6.1.2\lvgl\src\lv_objx/lv_tileview.c ****                 (ext->drag_top_en && indev->proc.types.pointer.drag_sum.y >= LV_INDEV_DEF_DRAG_LIMI
 353              		.loc 1 392 0 discriminator 1
 354 01c0 D907     		lsls	r1, r3, #31
 355 01c2 7FF571AF 		bpl	.L12
 393:..\..\..\lvgl\version_6.1.2\lvgl\src\lv_objx/lv_tileview.c ****                 ext->drag_ver = 1;
 356              		.loc 1 393 0
 357 01c6 B8F92E20 		ldrsh	r2, [r8, #46]
 358 01ca 092A     		cmp	r2, #9
 359 01cc 7FF76CAF 		ble	.L12
 360 01d0 60E7     		b	.L11
 361              	.L7:
 385:..\..\..\lvgl\version_6.1.2\lvgl\src\lv_objx/lv_tileview.c ****                 (ext->drag_left_en && indev->proc.types.pointer.drag_sum.x >= LV_INDEV_DEF_DRAG_LIM
 362              		.loc 1 385 0 discriminator 1
 363 01d2 5907     		lsls	r1, r3, #29
 364 01d4 7FF553AF 		bpl	.L6
 386:..\..\..\lvgl\version_6.1.2\lvgl\src\lv_objx/lv_tileview.c ****                 ext->drag_hor = 1;
 365              		.loc 1 386 0
 366 01d8 B8F92C20 		ldrsh	r2, [r8, #44]
 367 01dc 092A     		cmp	r2, #9
 368 01de 7FF74EAF 		ble	.L6
 369 01e2 46E7     		b	.L8
 370              	.LVL33:
 371              	.L65:
 472:..\..\..\lvgl\version_6.1.2\lvgl\src\lv_objx/lv_tileview.c ****             if(ext->drag_hor == 0)
 372              		.loc 1 472 0
 373 01e4 B4F93A80 		ldrsh	r8, [r4, #58]
ARM GAS  C:\Users\pearlstl\AppData\Local\Temp\ccIMJlIA.s 			page 17


 374              	.LVL34:
 375 01e8 3046     		mov	r0, r6
 376 01ea FFF7FEFF 		bl	lv_obj_get_height
 377              	.LVL35:
 378 01ee C8F10008 		rsb	r8, r8, #0
 379 01f2 398C     		ldrh	r1, [r7, #32]
 380 01f4 1FFA88F8 		uxth	r8, r8
 381 01f8 10FB0811 		smlabb	r1, r0, r8, r1
 382 01fc 09B2     		sxth	r1, r1
 383 01fe 2846     		mov	r0, r5
 384 0200 FFF7FEFF 		bl	lv_obj_set_y
 385              	.LVL36:
 386 0204 94F83C30 		ldrb	r3, [r4, #60]	@ zero_extendqisi2
 387 0208 BFE7     		b	.L22
 388              	.LVL37:
 389              	.L62:
 427:..\..\..\lvgl\version_6.1.2\lvgl\src\lv_objx/lv_tileview.c ****                 if(y < -(ext->act_id.y * h)) {
 390              		.loc 1 427 0 discriminator 2
 391 020a D906     		lsls	r1, r3, #27
 392 020c 90D4     		bmi	.L16
 428:..\..\..\lvgl\version_6.1.2\lvgl\src\lv_objx/lv_tileview.c **** #if LV_USE_ANIMATION
 393              		.loc 1 428 0
 394 020e B4F93A30 		ldrsh	r3, [r4, #58]
 395 0212 03FB09F1 		mul	r1, r3, r9
 396 0216 4942     		negs	r1, r1
 397 0218 8B45     		cmp	fp, r1
 398 021a 05DA     		bge	.L17
 430:..\..\..\lvgl\version_6.1.2\lvgl\src\lv_objx/lv_tileview.c ****                        ext->page.edge_flash.right_ip == 0 && ext->page.edge_flash.top_ip == 0 &&
 399              		.loc 1 430 0
 400 021c 94F82810 		ldrb	r1, [r4, #40]	@ zero_extendqisi2
 401 0220 01F01F00 		and	r0, r1, #31
 402 0224 0128     		cmp	r0, #1
 403 0226 4DD0     		beq	.L66
 404              	.L17:
 439:..\..\..\lvgl\version_6.1.2\lvgl\src\lv_objx/lv_tileview.c ****             }
 405              		.loc 1 439 0
 406 0228 398C     		ldrh	r1, [r7, #32]
 407 022a 0192     		str	r2, [sp, #4]
 408 022c 5B42     		negs	r3, r3
 409 022e 13FB0911 		smlabb	r1, r3, r9, r1
 410 0232 09B2     		sxth	r1, r1
 411 0234 2846     		mov	r0, r5
 412 0236 FFF7FEFF 		bl	lv_obj_set_y
 413              	.LVL38:
 414 023a 94F83C30 		ldrb	r3, [r4, #60]	@ zero_extendqisi2
 415 023e 019A     		ldr	r2, [sp, #4]
 416 0240 76E7     		b	.L16
 417              	.L64:
 455:..\..\..\lvgl\version_6.1.2\lvgl\src\lv_objx/lv_tileview.c ****                 if(x < -(ext->act_id.x * w)) {
 418              		.loc 1 455 0 discriminator 2
 419 0242 9806     		lsls	r0, r3, #26
 420 0244 A1D4     		bmi	.L22
 456:..\..\..\lvgl\version_6.1.2\lvgl\src\lv_objx/lv_tileview.c **** #if LV_USE_ANIMATION
 421              		.loc 1 456 0
 422 0246 B4F93830 		ldrsh	r3, [r4, #56]
 423 024a 03FB02F1 		mul	r1, r3, r2
 424 024e 4942     		negs	r1, r1
ARM GAS  C:\Users\pearlstl\AppData\Local\Temp\ccIMJlIA.s 			page 18


 425 0250 8A45     		cmp	r10, r1
 426 0252 05DA     		bge	.L23
 458:..\..\..\lvgl\version_6.1.2\lvgl\src\lv_objx/lv_tileview.c ****                        ext->page.edge_flash.right_ip == 0 && ext->page.edge_flash.top_ip == 0 &&
 427              		.loc 1 458 0
 428 0254 94F82810 		ldrb	r1, [r4, #40]	@ zero_extendqisi2
 429 0258 01F01F00 		and	r0, r1, #31
 430 025c 0128     		cmp	r0, #1
 431 025e 25D0     		beq	.L67
 432              	.L23:
 467:..\..\..\lvgl\version_6.1.2\lvgl\src\lv_objx/lv_tileview.c ****             }
 433              		.loc 1 467 0
 434 0260 398C     		ldrh	r1, [r7, #32]
 435 0262 5B42     		negs	r3, r3
 436 0264 13FB0211 		smlabb	r1, r3, r2, r1
 437 0268 09B2     		sxth	r1, r1
 438 026a 2846     		mov	r0, r5
 439 026c FFF7FEFF 		bl	lv_obj_set_x
 440              	.LVL39:
 441 0270 94F83C30 		ldrb	r3, [r4, #60]	@ zero_extendqisi2
 442 0274 86E7     		b	.L55
 443              	.L19:
 455:..\..\..\lvgl\version_6.1.2\lvgl\src\lv_objx/lv_tileview.c ****                 if(x < -(ext->act_id.x * w)) {
 444              		.loc 1 455 0
 445 0276 1A07     		lsls	r2, r3, #28
 446 0278 86D5     		bpl	.L21
 447 027a 86E7     		b	.L22
 448              	.L63:
 447:..\..\..\lvgl\version_6.1.2\lvgl\src\lv_objx/lv_tileview.c ****                         lv_page_start_edge_flash(tileview);
 449              		.loc 1 447 0
 450 027c 43F01003 		orr	r3, r3, #16
 448:..\..\..\lvgl\version_6.1.2\lvgl\src\lv_objx/lv_tileview.c ****                     }
 451              		.loc 1 448 0
 452 0280 3046     		mov	r0, r6
 447:..\..\..\lvgl\version_6.1.2\lvgl\src\lv_objx/lv_tileview.c ****                         lv_page_start_edge_flash(tileview);
 453              		.loc 1 447 0
 454 0282 84F82830 		strb	r3, [r4, #40]
 455 0286 0192     		str	r2, [sp, #4]
 448:..\..\..\lvgl\version_6.1.2\lvgl\src\lv_objx/lv_tileview.c ****                     }
 456              		.loc 1 448 0
 457 0288 FFF7FEFF 		bl	lv_page_start_edge_flash
 458              	.LVL40:
 459 028c B4F93800 		ldrsh	r0, [r4, #56]
 460 0290 019A     		ldr	r2, [sp, #4]
 461 0292 65E7     		b	.L20
 462              	.LVL41:
 463              	.L61:
 419:..\..\..\lvgl\version_6.1.2\lvgl\src\lv_objx/lv_tileview.c ****                         lv_page_start_edge_flash(tileview);
 464              		.loc 1 419 0
 465 0294 43F00203 		orr	r3, r3, #2
 420:..\..\..\lvgl\version_6.1.2\lvgl\src\lv_objx/lv_tileview.c ****                     }
 466              		.loc 1 420 0
 467 0298 3046     		mov	r0, r6
 419:..\..\..\lvgl\version_6.1.2\lvgl\src\lv_objx/lv_tileview.c ****                         lv_page_start_edge_flash(tileview);
 468              		.loc 1 419 0
 469 029a 84F82830 		strb	r3, [r4, #40]
 470 029e 0192     		str	r2, [sp, #4]
 420:..\..\..\lvgl\version_6.1.2\lvgl\src\lv_objx/lv_tileview.c ****                     }
ARM GAS  C:\Users\pearlstl\AppData\Local\Temp\ccIMJlIA.s 			page 19


 471              		.loc 1 420 0
 472 02a0 FFF7FEFF 		bl	lv_page_start_edge_flash
 473              	.LVL42:
 474 02a4 B4F93A00 		ldrsh	r0, [r4, #58]
 475 02a8 019A     		ldr	r2, [sp, #4]
 476 02aa 2FE7     		b	.L15
 477              	.L67:
 461:..\..\..\lvgl\version_6.1.2\lvgl\src\lv_objx/lv_tileview.c ****                         lv_page_start_edge_flash(tileview);
 478              		.loc 1 461 0
 479 02ac 41F00801 		orr	r1, r1, #8
 480 02b0 84F82810 		strb	r1, [r4, #40]
 462:..\..\..\lvgl\version_6.1.2\lvgl\src\lv_objx/lv_tileview.c ****                     }
 481              		.loc 1 462 0
 482 02b4 3046     		mov	r0, r6
 483 02b6 0192     		str	r2, [sp, #4]
 484 02b8 FFF7FEFF 		bl	lv_page_start_edge_flash
 485              	.LVL43:
 486 02bc B4F93830 		ldrsh	r3, [r4, #56]
 487 02c0 019A     		ldr	r2, [sp, #4]
 488 02c2 CDE7     		b	.L23
 489              	.L66:
 433:..\..\..\lvgl\version_6.1.2\lvgl\src\lv_objx/lv_tileview.c ****                         lv_page_start_edge_flash(tileview);
 490              		.loc 1 433 0
 491 02c4 41F00401 		orr	r1, r1, #4
 492 02c8 84F82810 		strb	r1, [r4, #40]
 434:..\..\..\lvgl\version_6.1.2\lvgl\src\lv_objx/lv_tileview.c ****                     }
 493              		.loc 1 434 0
 494 02cc 3046     		mov	r0, r6
 495 02ce 0192     		str	r2, [sp, #4]
 496 02d0 FFF7FEFF 		bl	lv_page_start_edge_flash
 497              	.LVL44:
 498 02d4 B4F93A30 		ldrsh	r3, [r4, #58]
 499 02d8 019A     		ldr	r2, [sp, #4]
 500 02da A5E7     		b	.L17
 501              	.L69:
 502              		.align	2
 503              	.L68:
 504 02dc 00000000 		.word	.LANCHOR0
 505 02e0 00000000 		.word	.LC0
 506              	.LBE16:
 507              	.LBE17:
 508              		.cfi_endproc
 509              	.LFE59:
 510              		.size	lv_tileview_scrl_signal, .-lv_tileview_scrl_signal
 511              		.section	.text.lv_tileview_signal,"ax",%progbits
 512              		.align	2
 513              		.thumb
 514              		.thumb_func
 515              		.type	lv_tileview_signal, %function
 516              	lv_tileview_signal:
 517              	.LFB58:
 341:..\..\..\lvgl\version_6.1.2\lvgl\src\lv_objx/lv_tileview.c ****     lv_res_t res;
 518              		.loc 1 341 0
 519              		.cfi_startproc
 520              		@ args = 0, pretend = 0, frame = 0
 521              		@ frame_needed = 0, uses_anonymous_args = 0
 522              	.LVL45:
ARM GAS  C:\Users\pearlstl\AppData\Local\Temp\ccIMJlIA.s 			page 20


 523 0000 38B5     		push	{r3, r4, r5, lr}
 524              		.cfi_def_cfa_offset 16
 525              		.cfi_offset 3, -16
 526              		.cfi_offset 4, -12
 527              		.cfi_offset 5, -8
 528              		.cfi_offset 14, -4
 345:..\..\..\lvgl\version_6.1.2\lvgl\src\lv_objx/lv_tileview.c ****     if(res != LV_RES_OK) return res;
 529              		.loc 1 345 0
 530 0002 084B     		ldr	r3, .L76
 531 0004 5B68     		ldr	r3, [r3, #4]
 341:..\..\..\lvgl\version_6.1.2\lvgl\src\lv_objx/lv_tileview.c ****     lv_res_t res;
 532              		.loc 1 341 0
 533 0006 0C46     		mov	r4, r1
 534 0008 1546     		mov	r5, r2
 345:..\..\..\lvgl\version_6.1.2\lvgl\src\lv_objx/lv_tileview.c ****     if(res != LV_RES_OK) return res;
 535              		.loc 1 345 0
 536 000a 9847     		blx	r3
 537              	.LVL46:
 346:..\..\..\lvgl\version_6.1.2\lvgl\src\lv_objx/lv_tileview.c ****     if(sign == LV_SIGNAL_GET_TYPE) return lv_obj_handle_get_type_signal(param, LV_OBJX_NAME);
 538              		.loc 1 346 0
 539 000c 0128     		cmp	r0, #1
 540 000e 00D0     		beq	.L75
 541              	.L71:
 354:..\..\..\lvgl\version_6.1.2\lvgl\src\lv_objx/lv_tileview.c **** 
 542              		.loc 1 354 0
 543 0010 38BD     		pop	{r3, r4, r5, pc}
 544              	.LVL47:
 545              	.L75:
 347:..\..\..\lvgl\version_6.1.2\lvgl\src\lv_objx/lv_tileview.c **** 
 546              		.loc 1 347 0
 547 0012 072C     		cmp	r4, #7
 548 0014 FCD1     		bne	.L71
 549              	.LVL48:
 550              	.LBB20:
 551              	.LBB21:
 552 0016 2846     		mov	r0, r5
 553              	.LVL49:
 554 0018 0349     		ldr	r1, .L76+4
 555              	.LBE21:
 556              	.LBE20:
 354:..\..\..\lvgl\version_6.1.2\lvgl\src\lv_objx/lv_tileview.c **** 
 557              		.loc 1 354 0
 558 001a BDE83840 		pop	{r3, r4, r5, lr}
 559              		.cfi_restore 14
 560              		.cfi_restore 5
 561              		.cfi_restore 4
 562              		.cfi_restore 3
 563              		.cfi_def_cfa_offset 0
 564              	.LVL50:
 565              	.LBB23:
 566              	.LBB22:
 347:..\..\..\lvgl\version_6.1.2\lvgl\src\lv_objx/lv_tileview.c **** 
 567              		.loc 1 347 0
 568 001e FFF7FEBF 		b	lv_obj_handle_get_type_signal
 569              	.LVL51:
 570              	.L77:
 571 0022 00BF     		.align	2
ARM GAS  C:\Users\pearlstl\AppData\Local\Temp\ccIMJlIA.s 			page 21


 572              	.L76:
 573 0024 00000000 		.word	.LANCHOR0
 574 0028 04000000 		.word	.LC1
 575              	.LBE22:
 576              	.LBE23:
 577              		.cfi_endproc
 578              	.LFE58:
 579              		.size	lv_tileview_signal, .-lv_tileview_signal
 580              		.section	.text.lv_tileview_create,"ax",%progbits
 581              		.align	2
 582              		.global	lv_tileview_create
 583              		.thumb
 584              		.thumb_func
 585              		.type	lv_tileview_create, %function
 586              	lv_tileview_create:
 587              	.LFB52:
  66:..\..\..\lvgl\version_6.1.2\lvgl\src\lv_objx/lv_tileview.c ****     LV_LOG_TRACE("tileview create started");
 588              		.loc 1 66 0
 589              		.cfi_startproc
 590              		@ args = 0, pretend = 0, frame = 8
 591              		@ frame_needed = 0, uses_anonymous_args = 0
 592              	.LVL52:
 593 0000 2DE9F041 		push	{r4, r5, r6, r7, r8, lr}
 594              		.cfi_def_cfa_offset 24
 595              		.cfi_offset 4, -24
 596              		.cfi_offset 5, -20
 597              		.cfi_offset 6, -16
 598              		.cfi_offset 7, -12
 599              		.cfi_offset 8, -8
 600              		.cfi_offset 14, -4
 601 0004 84B0     		sub	sp, sp, #16
 602              		.cfi_def_cfa_offset 40
  66:..\..\..\lvgl\version_6.1.2\lvgl\src\lv_objx/lv_tileview.c ****     LV_LOG_TRACE("tileview create started");
 603              		.loc 1 66 0
 604 0006 8046     		mov	r8, r0
 605 0008 0F46     		mov	r7, r1
  70:..\..\..\lvgl\version_6.1.2\lvgl\src\lv_objx/lv_tileview.c ****     LV_ASSERT_MEM(new_tileview);
 606              		.loc 1 70 0
 607 000a FFF7FEFF 		bl	lv_page_create
 608              	.LVL53:
  72:..\..\..\lvgl\version_6.1.2\lvgl\src\lv_objx/lv_tileview.c **** 
 609              		.loc 1 72 0
 610 000e 0028     		cmp	r0, #0
 611 0010 7ED0     		beq	.L81
  75:..\..\..\lvgl\version_6.1.2\lvgl\src\lv_objx/lv_tileview.c ****     LV_ASSERT_MEM(ext);
 612              		.loc 1 75 0
 613 0012 4021     		movs	r1, #64
 614 0014 0546     		mov	r5, r0
 615 0016 FFF7FEFF 		bl	lv_obj_allocate_ext_attr
 616              	.LVL54:
  77:..\..\..\lvgl\version_6.1.2\lvgl\src\lv_objx/lv_tileview.c ****     if(ancestor_signal == NULL) ancestor_signal = lv_obj_get_signal_cb(new_tileview);
 617              		.loc 1 77 0
 618 001a 0446     		mov	r4, r0
 619 001c 0028     		cmp	r0, #0
 620 001e 77D0     		beq	.L81
  78:..\..\..\lvgl\version_6.1.2\lvgl\src\lv_objx/lv_tileview.c ****     if(ancestor_scrl_signal == NULL) ancestor_scrl_signal = lv_obj_get_signal_cb(lv_page_get_scrl(n
 621              		.loc 1 78 0
ARM GAS  C:\Users\pearlstl\AppData\Local\Temp\ccIMJlIA.s 			page 22


 622 0020 504E     		ldr	r6, .L97
 623 0022 7368     		ldr	r3, [r6, #4]
 624 0024 002B     		cmp	r3, #0
 625 0026 00F08380 		beq	.L93
 626              	.LVL55:
 627              	.L82:
  79:..\..\..\lvgl\version_6.1.2\lvgl\src\lv_objx/lv_tileview.c ****     if(ancestor_design == NULL) ancestor_design = lv_obj_get_design_cb(new_tileview);
 628              		.loc 1 79 0
 629 002a 3368     		ldr	r3, [r6]
 630 002c 4D4A     		ldr	r2, .L97
 631 002e 002B     		cmp	r3, #0
 632 0030 70D0     		beq	.L94
 633              	.L83:
  80:..\..\..\lvgl\version_6.1.2\lvgl\src\lv_objx/lv_tileview.c **** 
 634              		.loc 1 80 0
 635 0032 B368     		ldr	r3, [r6, #8]
 636 0034 4B4E     		ldr	r6, .L97
 637 0036 002B     		cmp	r3, #0
 638 0038 75D0     		beq	.L95
 639              	.L84:
  86:..\..\..\lvgl\version_6.1.2\lvgl\src\lv_objx/lv_tileview.c ****     ext->act_id.y      = 0;
 640              		.loc 1 86 0
 641 003a 0023     		movs	r3, #0
  84:..\..\..\lvgl\version_6.1.2\lvgl\src\lv_objx/lv_tileview.c **** #endif
 642              		.loc 1 84 0
 643 003c 4FF49672 		mov	r2, #300
  92:..\..\..\lvgl\version_6.1.2\lvgl\src\lv_objx/lv_tileview.c ****     lv_obj_set_signal_cb(lv_page_get_scrl(new_tileview), lv_tileview_scrl_signal);
 644              		.loc 1 92 0
 645 0040 4949     		ldr	r1, .L97+4
  84:..\..\..\lvgl\version_6.1.2\lvgl\src\lv_objx/lv_tileview.c **** #endif
 646              		.loc 1 84 0
 647 0042 E286     		strh	r2, [r4, #54]	@ movhi
  86:..\..\..\lvgl\version_6.1.2\lvgl\src\lv_objx/lv_tileview.c ****     ext->act_id.y      = 0;
 648              		.loc 1 86 0
 649 0044 2387     		strh	r3, [r4, #56]	@ movhi
  87:..\..\..\lvgl\version_6.1.2\lvgl\src\lv_objx/lv_tileview.c ****     ext->valid_pos     = NULL;
 650              		.loc 1 87 0
 651 0046 6387     		strh	r3, [r4, #58]	@ movhi
  88:..\..\..\lvgl\version_6.1.2\lvgl\src\lv_objx/lv_tileview.c ****     ext->valid_pos_cnt = 0;
 652              		.loc 1 88 0
 653 0048 2363     		str	r3, [r4, #48]
  89:..\..\..\lvgl\version_6.1.2\lvgl\src\lv_objx/lv_tileview.c **** 
 654              		.loc 1 89 0
 655 004a A386     		strh	r3, [r4, #52]	@ movhi
  92:..\..\..\lvgl\version_6.1.2\lvgl\src\lv_objx/lv_tileview.c ****     lv_obj_set_signal_cb(lv_page_get_scrl(new_tileview), lv_tileview_scrl_signal);
 656              		.loc 1 92 0
 657 004c 2846     		mov	r0, r5
 658 004e FFF7FEFF 		bl	lv_obj_set_signal_cb
 659              	.LVL56:
  93:..\..\..\lvgl\version_6.1.2\lvgl\src\lv_objx/lv_tileview.c **** 
 660              		.loc 1 93 0
 661 0052 2846     		mov	r0, r5
 662 0054 FFF7FEFF 		bl	lv_page_get_scrl
 663              	.LVL57:
 664 0058 4449     		ldr	r1, .L97+8
 665 005a FFF7FEFF 		bl	lv_obj_set_signal_cb
 666              	.LVL58:
ARM GAS  C:\Users\pearlstl\AppData\Local\Temp\ccIMJlIA.s 			page 23


  96:..\..\..\lvgl\version_6.1.2\lvgl\src\lv_objx/lv_tileview.c ****         /* Set a size which fits into the parent.
 667              		.loc 1 96 0
 668 005e B7B1     		cbz	r7, .L96
 669              	.LBB30:
 128:..\..\..\lvgl\version_6.1.2\lvgl\src\lv_objx/lv_tileview.c ****         ext->act_id.x                = copy_ext->act_id.x;
 670              		.loc 1 128 0
 671 0060 3846     		mov	r0, r7
 672 0062 FFF7FEFF 		bl	lv_obj_get_ext_attr
 673              	.LVL59:
 674 0066 0346     		mov	r3, r0
 675              	.LVL60:
 138:..\..\..\lvgl\version_6.1.2\lvgl\src\lv_objx/lv_tileview.c ****     }
 676              		.loc 1 138 0
 677 0068 2846     		mov	r0, r5
 678              	.LVL61:
 129:..\..\..\lvgl\version_6.1.2\lvgl\src\lv_objx/lv_tileview.c ****         ext->act_id.y                = copy_ext->act_id.y;
 679              		.loc 1 129 0
 680 006a B3F93870 		ldrsh	r7, [r3, #56]
 681              	.LVL62:
 130:..\..\..\lvgl\version_6.1.2\lvgl\src\lv_objx/lv_tileview.c ****         ext->valid_pos               = copy_ext->valid_pos;
 682              		.loc 1 130 0
 683 006e B3F93A60 		ldrsh	r6, [r3, #58]
 131:..\..\..\lvgl\version_6.1.2\lvgl\src\lv_objx/lv_tileview.c ****         ext->valid_pos_cnt           = copy_ext->valid_pos_cnt;
 684              		.loc 1 131 0
 685 0072 196B     		ldr	r1, [r3, #48]
 132:..\..\..\lvgl\version_6.1.2\lvgl\src\lv_objx/lv_tileview.c **** #if LV_USE_ANIMATION
 686              		.loc 1 132 0
 687 0074 9A8E     		ldrh	r2, [r3, #52]
 134:..\..\..\lvgl\version_6.1.2\lvgl\src\lv_objx/lv_tileview.c **** #endif
 688              		.loc 1 134 0
 689 0076 DB8E     		ldrh	r3, [r3, #54]
 690              	.LVL63:
 691 0078 E386     		strh	r3, [r4, #54]	@ movhi
 129:..\..\..\lvgl\version_6.1.2\lvgl\src\lv_objx/lv_tileview.c ****         ext->act_id.y                = copy_ext->act_id.y;
 692              		.loc 1 129 0
 693 007a 2787     		strh	r7, [r4, #56]	@ movhi
 130:..\..\..\lvgl\version_6.1.2\lvgl\src\lv_objx/lv_tileview.c ****         ext->valid_pos               = copy_ext->valid_pos;
 694              		.loc 1 130 0
 695 007c 6687     		strh	r6, [r4, #58]	@ movhi
 131:..\..\..\lvgl\version_6.1.2\lvgl\src\lv_objx/lv_tileview.c ****         ext->valid_pos_cnt           = copy_ext->valid_pos_cnt;
 696              		.loc 1 131 0
 697 007e 2163     		str	r1, [r4, #48]
 132:..\..\..\lvgl\version_6.1.2\lvgl\src\lv_objx/lv_tileview.c **** #if LV_USE_ANIMATION
 698              		.loc 1 132 0
 699 0080 A286     		strh	r2, [r4, #52]	@ movhi
 138:..\..\..\lvgl\version_6.1.2\lvgl\src\lv_objx/lv_tileview.c ****     }
 700              		.loc 1 138 0
 701 0082 FFF7FEFF 		bl	lv_obj_refresh_style
 702              	.LVL64:
 703 0086 2846     		mov	r0, r5
 704              	.LVL65:
 705              	.L80:
 706              	.LBE30:
 144:..\..\..\lvgl\version_6.1.2\lvgl\src\lv_objx/lv_tileview.c **** 
 707              		.loc 1 144 0
 708 0088 04B0     		add	sp, sp, #16
 709              		.cfi_remember_state
ARM GAS  C:\Users\pearlstl\AppData\Local\Temp\ccIMJlIA.s 			page 24


 710              		.cfi_def_cfa_offset 24
 711              		@ sp needed
 712 008a BDE8F081 		pop	{r4, r5, r6, r7, r8, pc}
 713              	.LVL66:
 714              	.L96:
 715              		.cfi_restore_state
 716              	.LBB31:
 102:..\..\..\lvgl\version_6.1.2\lvgl\src\lv_objx/lv_tileview.c ****             w = lv_obj_get_width_fit(lv_obj_get_parent(new_tileview));
 717              		.loc 1 102 0
 718 008e B8F1000F 		cmp	r8, #0
 719 0092 5ED0     		beq	.L86
 103:..\..\..\lvgl\version_6.1.2\lvgl\src\lv_objx/lv_tileview.c ****             h = lv_obj_get_height_fit(lv_obj_get_parent(new_tileview));
 720              		.loc 1 103 0
 721 0094 2846     		mov	r0, r5
 722 0096 FFF7FEFF 		bl	lv_obj_get_parent
 723              	.LVL67:
 724 009a FFF7FEFF 		bl	lv_obj_get_width_fit
 725              	.LVL68:
 726 009e 0646     		mov	r6, r0
 727              	.LVL69:
 104:..\..\..\lvgl\version_6.1.2\lvgl\src\lv_objx/lv_tileview.c ****         } else {
 728              		.loc 1 104 0
 729 00a0 2846     		mov	r0, r5
 730 00a2 FFF7FEFF 		bl	lv_obj_get_parent
 731              	.LVL70:
 732 00a6 FFF7FEFF 		bl	lv_obj_get_height_fit
 733              	.LVL71:
 734 00aa 0246     		mov	r2, r0
 735              	.LVL72:
 736              	.L87:
 110:..\..\..\lvgl\version_6.1.2\lvgl\src\lv_objx/lv_tileview.c **** 
 737              		.loc 1 110 0
 738 00ac 3146     		mov	r1, r6
 739 00ae 2846     		mov	r0, r5
 740 00b0 FFF7FEFF 		bl	lv_obj_set_size
 741              	.LVL73:
 112:..\..\..\lvgl\version_6.1.2\lvgl\src\lv_objx/lv_tileview.c ****         lv_page_set_scrl_fit(new_tileview, LV_FIT_TIGHT);
 742              		.loc 1 112 0
 743 00b4 2846     		mov	r0, r5
 744 00b6 FFF7FEFF 		bl	lv_page_get_scrl
 745              	.LVL74:
 746 00ba 0021     		movs	r1, #0
 747 00bc FFF7FEFF 		bl	lv_obj_set_drag_throw
 748              	.LVL75:
 749              	.LBB32:
 750              	.LBB33:
 751              	.LBB34:
 752              	.LBB35:
 753              		.file 2 "..\\..\\..\\lvgl\\version_6.1.2\\lvgl\\src\\lv_objx\\../lv_objx/lv_cont.h"
   1:..\..\..\lvgl\version_6.1.2\lvgl\src\lv_objx\../lv_objx/lv_cont.h **** /**
   2:..\..\..\lvgl\version_6.1.2\lvgl\src\lv_objx\../lv_objx/lv_cont.h ****  * @file lv_cont.h
   3:..\..\..\lvgl\version_6.1.2\lvgl\src\lv_objx\../lv_objx/lv_cont.h ****  *
   4:..\..\..\lvgl\version_6.1.2\lvgl\src\lv_objx\../lv_objx/lv_cont.h ****  */
   5:..\..\..\lvgl\version_6.1.2\lvgl\src\lv_objx\../lv_objx/lv_cont.h **** 
   6:..\..\..\lvgl\version_6.1.2\lvgl\src\lv_objx\../lv_objx/lv_cont.h **** #ifndef LV_CONT_H
   7:..\..\..\lvgl\version_6.1.2\lvgl\src\lv_objx\../lv_objx/lv_cont.h **** #define LV_CONT_H
   8:..\..\..\lvgl\version_6.1.2\lvgl\src\lv_objx\../lv_objx/lv_cont.h **** 
ARM GAS  C:\Users\pearlstl\AppData\Local\Temp\ccIMJlIA.s 			page 25


   9:..\..\..\lvgl\version_6.1.2\lvgl\src\lv_objx\../lv_objx/lv_cont.h **** #ifdef __cplusplus
  10:..\..\..\lvgl\version_6.1.2\lvgl\src\lv_objx\../lv_objx/lv_cont.h **** extern "C" {
  11:..\..\..\lvgl\version_6.1.2\lvgl\src\lv_objx\../lv_objx/lv_cont.h **** #endif
  12:..\..\..\lvgl\version_6.1.2\lvgl\src\lv_objx\../lv_objx/lv_cont.h **** 
  13:..\..\..\lvgl\version_6.1.2\lvgl\src\lv_objx\../lv_objx/lv_cont.h **** /*********************
  14:..\..\..\lvgl\version_6.1.2\lvgl\src\lv_objx\../lv_objx/lv_cont.h ****  *      INCLUDES
  15:..\..\..\lvgl\version_6.1.2\lvgl\src\lv_objx\../lv_objx/lv_cont.h ****  *********************/
  16:..\..\..\lvgl\version_6.1.2\lvgl\src\lv_objx\../lv_objx/lv_cont.h **** #ifdef LV_CONF_INCLUDE_SIMPLE
  17:..\..\..\lvgl\version_6.1.2\lvgl\src\lv_objx\../lv_objx/lv_cont.h **** #include "lv_conf.h"
  18:..\..\..\lvgl\version_6.1.2\lvgl\src\lv_objx\../lv_objx/lv_cont.h **** #else
  19:..\..\..\lvgl\version_6.1.2\lvgl\src\lv_objx\../lv_objx/lv_cont.h **** #include "../../../lv_conf.h"
  20:..\..\..\lvgl\version_6.1.2\lvgl\src\lv_objx\../lv_objx/lv_cont.h **** #endif
  21:..\..\..\lvgl\version_6.1.2\lvgl\src\lv_objx\../lv_objx/lv_cont.h **** 
  22:..\..\..\lvgl\version_6.1.2\lvgl\src\lv_objx\../lv_objx/lv_cont.h **** #if LV_USE_CONT != 0
  23:..\..\..\lvgl\version_6.1.2\lvgl\src\lv_objx\../lv_objx/lv_cont.h **** 
  24:..\..\..\lvgl\version_6.1.2\lvgl\src\lv_objx\../lv_objx/lv_cont.h **** #include "../lv_core/lv_obj.h"
  25:..\..\..\lvgl\version_6.1.2\lvgl\src\lv_objx\../lv_objx/lv_cont.h **** 
  26:..\..\..\lvgl\version_6.1.2\lvgl\src\lv_objx\../lv_objx/lv_cont.h **** /*********************
  27:..\..\..\lvgl\version_6.1.2\lvgl\src\lv_objx\../lv_objx/lv_cont.h ****  *      DEFINES
  28:..\..\..\lvgl\version_6.1.2\lvgl\src\lv_objx\../lv_objx/lv_cont.h ****  *********************/
  29:..\..\..\lvgl\version_6.1.2\lvgl\src\lv_objx\../lv_objx/lv_cont.h **** 
  30:..\..\..\lvgl\version_6.1.2\lvgl\src\lv_objx\../lv_objx/lv_cont.h **** /**********************
  31:..\..\..\lvgl\version_6.1.2\lvgl\src\lv_objx\../lv_objx/lv_cont.h ****  *      TYPEDEFS
  32:..\..\..\lvgl\version_6.1.2\lvgl\src\lv_objx\../lv_objx/lv_cont.h ****  **********************/
  33:..\..\..\lvgl\version_6.1.2\lvgl\src\lv_objx\../lv_objx/lv_cont.h **** 
  34:..\..\..\lvgl\version_6.1.2\lvgl\src\lv_objx\../lv_objx/lv_cont.h **** /** Container layout options*/
  35:..\..\..\lvgl\version_6.1.2\lvgl\src\lv_objx\../lv_objx/lv_cont.h **** enum {
  36:..\..\..\lvgl\version_6.1.2\lvgl\src\lv_objx\../lv_objx/lv_cont.h ****     LV_LAYOUT_OFF = 0, /**< No layout */
  37:..\..\..\lvgl\version_6.1.2\lvgl\src\lv_objx\../lv_objx/lv_cont.h ****     LV_LAYOUT_CENTER, /**< Center objects */
  38:..\..\..\lvgl\version_6.1.2\lvgl\src\lv_objx\../lv_objx/lv_cont.h ****     LV_LAYOUT_COL_L,  /**< Column left align*/
  39:..\..\..\lvgl\version_6.1.2\lvgl\src\lv_objx\../lv_objx/lv_cont.h ****     LV_LAYOUT_COL_M,  /**< Column middle align*/
  40:..\..\..\lvgl\version_6.1.2\lvgl\src\lv_objx\../lv_objx/lv_cont.h ****     LV_LAYOUT_COL_R,  /**< Column right align*/
  41:..\..\..\lvgl\version_6.1.2\lvgl\src\lv_objx\../lv_objx/lv_cont.h ****     LV_LAYOUT_ROW_T,  /**< Row top align*/
  42:..\..\..\lvgl\version_6.1.2\lvgl\src\lv_objx\../lv_objx/lv_cont.h ****     LV_LAYOUT_ROW_M,  /**< Row middle align*/
  43:..\..\..\lvgl\version_6.1.2\lvgl\src\lv_objx\../lv_objx/lv_cont.h ****     LV_LAYOUT_ROW_B,  /**< Row bottom align*/
  44:..\..\..\lvgl\version_6.1.2\lvgl\src\lv_objx\../lv_objx/lv_cont.h ****     LV_LAYOUT_PRETTY, /**< Put as many object as possible in row and begin a new row*/
  45:..\..\..\lvgl\version_6.1.2\lvgl\src\lv_objx\../lv_objx/lv_cont.h ****     LV_LAYOUT_GRID,   /**< Align same-sized object into a grid*/
  46:..\..\..\lvgl\version_6.1.2\lvgl\src\lv_objx\../lv_objx/lv_cont.h ****     _LV_LAYOUT_NUM
  47:..\..\..\lvgl\version_6.1.2\lvgl\src\lv_objx\../lv_objx/lv_cont.h **** };
  48:..\..\..\lvgl\version_6.1.2\lvgl\src\lv_objx\../lv_objx/lv_cont.h **** typedef uint8_t lv_layout_t;
  49:..\..\..\lvgl\version_6.1.2\lvgl\src\lv_objx\../lv_objx/lv_cont.h **** 
  50:..\..\..\lvgl\version_6.1.2\lvgl\src\lv_objx\../lv_objx/lv_cont.h **** /**
  51:..\..\..\lvgl\version_6.1.2\lvgl\src\lv_objx\../lv_objx/lv_cont.h ****  * How to resize the container around the children.
  52:..\..\..\lvgl\version_6.1.2\lvgl\src\lv_objx\../lv_objx/lv_cont.h ****  */
  53:..\..\..\lvgl\version_6.1.2\lvgl\src\lv_objx\../lv_objx/lv_cont.h **** enum {
  54:..\..\..\lvgl\version_6.1.2\lvgl\src\lv_objx\../lv_objx/lv_cont.h ****     LV_FIT_NONE,  /**< Do not change the size automatically*/
  55:..\..\..\lvgl\version_6.1.2\lvgl\src\lv_objx\../lv_objx/lv_cont.h ****     LV_FIT_TIGHT, /**< Shrink wrap around the children */
  56:..\..\..\lvgl\version_6.1.2\lvgl\src\lv_objx\../lv_objx/lv_cont.h ****     LV_FIT_FLOOD, /**< Align the size to the parent's edge*/
  57:..\..\..\lvgl\version_6.1.2\lvgl\src\lv_objx\../lv_objx/lv_cont.h ****     LV_FIT_FILL,  /**< Align the size to the parent's edge first but if there is an object out of i
  58:..\..\..\lvgl\version_6.1.2\lvgl\src\lv_objx\../lv_objx/lv_cont.h ****                      then get larger */
  59:..\..\..\lvgl\version_6.1.2\lvgl\src\lv_objx\../lv_objx/lv_cont.h ****     _LV_FIT_NUM
  60:..\..\..\lvgl\version_6.1.2\lvgl\src\lv_objx\../lv_objx/lv_cont.h **** };
  61:..\..\..\lvgl\version_6.1.2\lvgl\src\lv_objx\../lv_objx/lv_cont.h **** typedef uint8_t lv_fit_t;
  62:..\..\..\lvgl\version_6.1.2\lvgl\src\lv_objx\../lv_objx/lv_cont.h **** 
  63:..\..\..\lvgl\version_6.1.2\lvgl\src\lv_objx\../lv_objx/lv_cont.h **** typedef struct
  64:..\..\..\lvgl\version_6.1.2\lvgl\src\lv_objx\../lv_objx/lv_cont.h **** {
  65:..\..\..\lvgl\version_6.1.2\lvgl\src\lv_objx\../lv_objx/lv_cont.h ****     /*Inherited from 'base_obj' so no inherited ext. */ /*Ext. of ancestor*/
ARM GAS  C:\Users\pearlstl\AppData\Local\Temp\ccIMJlIA.s 			page 26


  66:..\..\..\lvgl\version_6.1.2\lvgl\src\lv_objx\../lv_objx/lv_cont.h ****     /*New data for this type */
  67:..\..\..\lvgl\version_6.1.2\lvgl\src\lv_objx\../lv_objx/lv_cont.h ****     uint8_t layout : 4;     /*A layout from 'lv_layout_t' enum*/
  68:..\..\..\lvgl\version_6.1.2\lvgl\src\lv_objx\../lv_objx/lv_cont.h ****     uint8_t fit_left : 2;   /*A fit type from `lv_fit_t` enum */
  69:..\..\..\lvgl\version_6.1.2\lvgl\src\lv_objx\../lv_objx/lv_cont.h ****     uint8_t fit_right : 2;  /*A fit type from `lv_fit_t` enum */
  70:..\..\..\lvgl\version_6.1.2\lvgl\src\lv_objx\../lv_objx/lv_cont.h ****     uint8_t fit_top : 2;    /*A fit type from `lv_fit_t` enum */
  71:..\..\..\lvgl\version_6.1.2\lvgl\src\lv_objx\../lv_objx/lv_cont.h ****     uint8_t fit_bottom : 2; /*A fit type from `lv_fit_t` enum */
  72:..\..\..\lvgl\version_6.1.2\lvgl\src\lv_objx\../lv_objx/lv_cont.h **** } lv_cont_ext_t;
  73:..\..\..\lvgl\version_6.1.2\lvgl\src\lv_objx\../lv_objx/lv_cont.h **** 
  74:..\..\..\lvgl\version_6.1.2\lvgl\src\lv_objx\../lv_objx/lv_cont.h **** /*Styles*/
  75:..\..\..\lvgl\version_6.1.2\lvgl\src\lv_objx\../lv_objx/lv_cont.h **** enum {
  76:..\..\..\lvgl\version_6.1.2\lvgl\src\lv_objx\../lv_objx/lv_cont.h ****     LV_CONT_STYLE_MAIN,
  77:..\..\..\lvgl\version_6.1.2\lvgl\src\lv_objx\../lv_objx/lv_cont.h **** };
  78:..\..\..\lvgl\version_6.1.2\lvgl\src\lv_objx\../lv_objx/lv_cont.h **** typedef uint8_t lv_cont_style_t;
  79:..\..\..\lvgl\version_6.1.2\lvgl\src\lv_objx\../lv_objx/lv_cont.h **** 
  80:..\..\..\lvgl\version_6.1.2\lvgl\src\lv_objx\../lv_objx/lv_cont.h **** /**********************
  81:..\..\..\lvgl\version_6.1.2\lvgl\src\lv_objx\../lv_objx/lv_cont.h ****  * GLOBAL PROTOTYPES
  82:..\..\..\lvgl\version_6.1.2\lvgl\src\lv_objx\../lv_objx/lv_cont.h ****  **********************/
  83:..\..\..\lvgl\version_6.1.2\lvgl\src\lv_objx\../lv_objx/lv_cont.h **** 
  84:..\..\..\lvgl\version_6.1.2\lvgl\src\lv_objx\../lv_objx/lv_cont.h **** /**
  85:..\..\..\lvgl\version_6.1.2\lvgl\src\lv_objx\../lv_objx/lv_cont.h ****  * Create a container objects
  86:..\..\..\lvgl\version_6.1.2\lvgl\src\lv_objx\../lv_objx/lv_cont.h ****  * @param par pointer to an object, it will be the parent of the new container
  87:..\..\..\lvgl\version_6.1.2\lvgl\src\lv_objx\../lv_objx/lv_cont.h ****  * @param copy pointer to a container object, if not NULL then the new object will be copied from i
  88:..\..\..\lvgl\version_6.1.2\lvgl\src\lv_objx\../lv_objx/lv_cont.h ****  * @return pointer to the created container
  89:..\..\..\lvgl\version_6.1.2\lvgl\src\lv_objx\../lv_objx/lv_cont.h ****  */
  90:..\..\..\lvgl\version_6.1.2\lvgl\src\lv_objx\../lv_objx/lv_cont.h **** lv_obj_t * lv_cont_create(lv_obj_t * par, const lv_obj_t * copy);
  91:..\..\..\lvgl\version_6.1.2\lvgl\src\lv_objx\../lv_objx/lv_cont.h **** 
  92:..\..\..\lvgl\version_6.1.2\lvgl\src\lv_objx\../lv_objx/lv_cont.h **** /*=====================
  93:..\..\..\lvgl\version_6.1.2\lvgl\src\lv_objx\../lv_objx/lv_cont.h ****  * Setter functions
  94:..\..\..\lvgl\version_6.1.2\lvgl\src\lv_objx\../lv_objx/lv_cont.h ****  *====================*/
  95:..\..\..\lvgl\version_6.1.2\lvgl\src\lv_objx\../lv_objx/lv_cont.h **** 
  96:..\..\..\lvgl\version_6.1.2\lvgl\src\lv_objx\../lv_objx/lv_cont.h **** /**
  97:..\..\..\lvgl\version_6.1.2\lvgl\src\lv_objx\../lv_objx/lv_cont.h ****  * Set a layout on a container
  98:..\..\..\lvgl\version_6.1.2\lvgl\src\lv_objx\../lv_objx/lv_cont.h ****  * @param cont pointer to a container object
  99:..\..\..\lvgl\version_6.1.2\lvgl\src\lv_objx\../lv_objx/lv_cont.h ****  * @param layout a layout from 'lv_cont_layout_t'
 100:..\..\..\lvgl\version_6.1.2\lvgl\src\lv_objx\../lv_objx/lv_cont.h ****  */
 101:..\..\..\lvgl\version_6.1.2\lvgl\src\lv_objx\../lv_objx/lv_cont.h **** void lv_cont_set_layout(lv_obj_t * cont, lv_layout_t layout);
 102:..\..\..\lvgl\version_6.1.2\lvgl\src\lv_objx\../lv_objx/lv_cont.h **** 
 103:..\..\..\lvgl\version_6.1.2\lvgl\src\lv_objx\../lv_objx/lv_cont.h **** /**
 104:..\..\..\lvgl\version_6.1.2\lvgl\src\lv_objx\../lv_objx/lv_cont.h ****  * Set the fit policy in all 4 directions separately.
 105:..\..\..\lvgl\version_6.1.2\lvgl\src\lv_objx\../lv_objx/lv_cont.h ****  * It tell how to change the container's size automatically.
 106:..\..\..\lvgl\version_6.1.2\lvgl\src\lv_objx\../lv_objx/lv_cont.h ****  * @param cont pointer to a container object
 107:..\..\..\lvgl\version_6.1.2\lvgl\src\lv_objx\../lv_objx/lv_cont.h ****  * @param left left fit policy from `lv_fit_t`
 108:..\..\..\lvgl\version_6.1.2\lvgl\src\lv_objx\../lv_objx/lv_cont.h ****  * @param right right fit policy from `lv_fit_t`
 109:..\..\..\lvgl\version_6.1.2\lvgl\src\lv_objx\../lv_objx/lv_cont.h ****  * @param top top fit policy from `lv_fit_t`
 110:..\..\..\lvgl\version_6.1.2\lvgl\src\lv_objx\../lv_objx/lv_cont.h ****  * @param bottom bottom fit policy from `lv_fit_t`
 111:..\..\..\lvgl\version_6.1.2\lvgl\src\lv_objx\../lv_objx/lv_cont.h ****  */
 112:..\..\..\lvgl\version_6.1.2\lvgl\src\lv_objx\../lv_objx/lv_cont.h **** void lv_cont_set_fit4(lv_obj_t * cont, lv_fit_t left, lv_fit_t right, lv_fit_t top, lv_fit_t bottom
 113:..\..\..\lvgl\version_6.1.2\lvgl\src\lv_objx\../lv_objx/lv_cont.h **** 
 114:..\..\..\lvgl\version_6.1.2\lvgl\src\lv_objx\../lv_objx/lv_cont.h **** /**
 115:..\..\..\lvgl\version_6.1.2\lvgl\src\lv_objx\../lv_objx/lv_cont.h ****  * Set the fit policy horizontally and vertically separately.
 116:..\..\..\lvgl\version_6.1.2\lvgl\src\lv_objx\../lv_objx/lv_cont.h ****  * It tells how to change the container's size automatically.
 117:..\..\..\lvgl\version_6.1.2\lvgl\src\lv_objx\../lv_objx/lv_cont.h ****  * @param cont pointer to a container object
 118:..\..\..\lvgl\version_6.1.2\lvgl\src\lv_objx\../lv_objx/lv_cont.h ****  * @param hor horizontal fit policy from `lv_fit_t`
 119:..\..\..\lvgl\version_6.1.2\lvgl\src\lv_objx\../lv_objx/lv_cont.h ****  * @param ver vertical fit policy from `lv_fit_t`
 120:..\..\..\lvgl\version_6.1.2\lvgl\src\lv_objx\../lv_objx/lv_cont.h ****  */
 121:..\..\..\lvgl\version_6.1.2\lvgl\src\lv_objx\../lv_objx/lv_cont.h **** static inline void lv_cont_set_fit2(lv_obj_t * cont, lv_fit_t hor, lv_fit_t ver)
 122:..\..\..\lvgl\version_6.1.2\lvgl\src\lv_objx\../lv_objx/lv_cont.h **** {
ARM GAS  C:\Users\pearlstl\AppData\Local\Temp\ccIMJlIA.s 			page 27


 123:..\..\..\lvgl\version_6.1.2\lvgl\src\lv_objx\../lv_objx/lv_cont.h ****     lv_cont_set_fit4(cont, hor, hor, ver, ver);
 124:..\..\..\lvgl\version_6.1.2\lvgl\src\lv_objx\../lv_objx/lv_cont.h **** }
 125:..\..\..\lvgl\version_6.1.2\lvgl\src\lv_objx\../lv_objx/lv_cont.h **** 
 126:..\..\..\lvgl\version_6.1.2\lvgl\src\lv_objx\../lv_objx/lv_cont.h **** /**
 127:..\..\..\lvgl\version_6.1.2\lvgl\src\lv_objx\../lv_objx/lv_cont.h ****  * Set the fit policy in all 4 direction at once.
 128:..\..\..\lvgl\version_6.1.2\lvgl\src\lv_objx\../lv_objx/lv_cont.h ****  * It tells how to change the container's size automatically.
 129:..\..\..\lvgl\version_6.1.2\lvgl\src\lv_objx\../lv_objx/lv_cont.h ****  * @param cont pointer to a container object
 130:..\..\..\lvgl\version_6.1.2\lvgl\src\lv_objx\../lv_objx/lv_cont.h ****  * @param fit fit policy from `lv_fit_t`
 131:..\..\..\lvgl\version_6.1.2\lvgl\src\lv_objx\../lv_objx/lv_cont.h ****  */
 132:..\..\..\lvgl\version_6.1.2\lvgl\src\lv_objx\../lv_objx/lv_cont.h **** static inline void lv_cont_set_fit(lv_obj_t * cont, lv_fit_t fit)
 133:..\..\..\lvgl\version_6.1.2\lvgl\src\lv_objx\../lv_objx/lv_cont.h **** {
 134:..\..\..\lvgl\version_6.1.2\lvgl\src\lv_objx\../lv_objx/lv_cont.h ****     lv_cont_set_fit4(cont, fit, fit, fit, fit);
 754              		.loc 2 134 0
 755 00c0 0126     		movs	r6, #1
 756              	.LVL76:
 757              	.LBE35:
 758              	.LBE34:
 759              		.file 3 "..\\..\\..\\lvgl\\version_6.1.2\\lvgl\\src\\lv_objx\\../lv_objx/lv_page.h"
   1:..\..\..\lvgl\version_6.1.2\lvgl\src\lv_objx\../lv_objx/lv_page.h **** /**
   2:..\..\..\lvgl\version_6.1.2\lvgl\src\lv_objx\../lv_objx/lv_page.h ****  * @file lv_page.h
   3:..\..\..\lvgl\version_6.1.2\lvgl\src\lv_objx\../lv_objx/lv_page.h ****  *
   4:..\..\..\lvgl\version_6.1.2\lvgl\src\lv_objx\../lv_objx/lv_page.h ****  */
   5:..\..\..\lvgl\version_6.1.2\lvgl\src\lv_objx\../lv_objx/lv_page.h **** 
   6:..\..\..\lvgl\version_6.1.2\lvgl\src\lv_objx\../lv_objx/lv_page.h **** #ifndef LV_PAGE_H
   7:..\..\..\lvgl\version_6.1.2\lvgl\src\lv_objx\../lv_objx/lv_page.h **** #define LV_PAGE_H
   8:..\..\..\lvgl\version_6.1.2\lvgl\src\lv_objx\../lv_objx/lv_page.h **** 
   9:..\..\..\lvgl\version_6.1.2\lvgl\src\lv_objx\../lv_objx/lv_page.h **** #ifdef __cplusplus
  10:..\..\..\lvgl\version_6.1.2\lvgl\src\lv_objx\../lv_objx/lv_page.h **** extern "C" {
  11:..\..\..\lvgl\version_6.1.2\lvgl\src\lv_objx\../lv_objx/lv_page.h **** #endif
  12:..\..\..\lvgl\version_6.1.2\lvgl\src\lv_objx\../lv_objx/lv_page.h **** 
  13:..\..\..\lvgl\version_6.1.2\lvgl\src\lv_objx\../lv_objx/lv_page.h **** /*********************
  14:..\..\..\lvgl\version_6.1.2\lvgl\src\lv_objx\../lv_objx/lv_page.h ****  *      INCLUDES
  15:..\..\..\lvgl\version_6.1.2\lvgl\src\lv_objx\../lv_objx/lv_page.h ****  *********************/
  16:..\..\..\lvgl\version_6.1.2\lvgl\src\lv_objx\../lv_objx/lv_page.h **** #ifdef LV_CONF_INCLUDE_SIMPLE
  17:..\..\..\lvgl\version_6.1.2\lvgl\src\lv_objx\../lv_objx/lv_page.h **** #include "lv_conf.h"
  18:..\..\..\lvgl\version_6.1.2\lvgl\src\lv_objx\../lv_objx/lv_page.h **** #else
  19:..\..\..\lvgl\version_6.1.2\lvgl\src\lv_objx\../lv_objx/lv_page.h **** #include "../../../lv_conf.h"
  20:..\..\..\lvgl\version_6.1.2\lvgl\src\lv_objx\../lv_objx/lv_page.h **** #endif
  21:..\..\..\lvgl\version_6.1.2\lvgl\src\lv_objx\../lv_objx/lv_page.h **** 
  22:..\..\..\lvgl\version_6.1.2\lvgl\src\lv_objx\../lv_objx/lv_page.h **** #if LV_USE_PAGE != 0
  23:..\..\..\lvgl\version_6.1.2\lvgl\src\lv_objx\../lv_objx/lv_page.h **** 
  24:..\..\..\lvgl\version_6.1.2\lvgl\src\lv_objx\../lv_objx/lv_page.h **** /*Testing of dependencies*/
  25:..\..\..\lvgl\version_6.1.2\lvgl\src\lv_objx\../lv_objx/lv_page.h **** #if LV_USE_CONT == 0
  26:..\..\..\lvgl\version_6.1.2\lvgl\src\lv_objx\../lv_objx/lv_page.h **** #error "lv_page: lv_cont is required. Enable it in lv_conf.h (LV_USE_CONT  1) "
  27:..\..\..\lvgl\version_6.1.2\lvgl\src\lv_objx\../lv_objx/lv_page.h **** #endif
  28:..\..\..\lvgl\version_6.1.2\lvgl\src\lv_objx\../lv_objx/lv_page.h **** 
  29:..\..\..\lvgl\version_6.1.2\lvgl\src\lv_objx\../lv_objx/lv_page.h **** #include "lv_cont.h"
  30:..\..\..\lvgl\version_6.1.2\lvgl\src\lv_objx\../lv_objx/lv_page.h **** #include "../lv_core/lv_indev.h"
  31:..\..\..\lvgl\version_6.1.2\lvgl\src\lv_objx\../lv_objx/lv_page.h **** #include "../lv_misc/lv_anim.h"
  32:..\..\..\lvgl\version_6.1.2\lvgl\src\lv_objx\../lv_objx/lv_page.h **** 
  33:..\..\..\lvgl\version_6.1.2\lvgl\src\lv_objx\../lv_objx/lv_page.h **** /*********************
  34:..\..\..\lvgl\version_6.1.2\lvgl\src\lv_objx\../lv_objx/lv_page.h ****  *      DEFINES
  35:..\..\..\lvgl\version_6.1.2\lvgl\src\lv_objx\../lv_objx/lv_page.h ****  *********************/
  36:..\..\..\lvgl\version_6.1.2\lvgl\src\lv_objx\../lv_objx/lv_page.h **** 
  37:..\..\..\lvgl\version_6.1.2\lvgl\src\lv_objx\../lv_objx/lv_page.h **** /**********************
  38:..\..\..\lvgl\version_6.1.2\lvgl\src\lv_objx\../lv_objx/lv_page.h ****  *      TYPEDEFS
  39:..\..\..\lvgl\version_6.1.2\lvgl\src\lv_objx\../lv_objx/lv_page.h ****  **********************/
ARM GAS  C:\Users\pearlstl\AppData\Local\Temp\ccIMJlIA.s 			page 28


  40:..\..\..\lvgl\version_6.1.2\lvgl\src\lv_objx\../lv_objx/lv_page.h **** 
  41:..\..\..\lvgl\version_6.1.2\lvgl\src\lv_objx\../lv_objx/lv_page.h **** /** Scrollbar modes: shows when should the scrollbars be visible*/
  42:..\..\..\lvgl\version_6.1.2\lvgl\src\lv_objx\../lv_objx/lv_page.h **** enum {
  43:..\..\..\lvgl\version_6.1.2\lvgl\src\lv_objx\../lv_objx/lv_page.h ****     LV_SB_MODE_OFF    = 0x0, /**< Never show scrollbars*/
  44:..\..\..\lvgl\version_6.1.2\lvgl\src\lv_objx\../lv_objx/lv_page.h ****     LV_SB_MODE_ON     = 0x1, /**< Always show scrollbars*/
  45:..\..\..\lvgl\version_6.1.2\lvgl\src\lv_objx\../lv_objx/lv_page.h ****     LV_SB_MODE_DRAG   = 0x2, /**< Show scrollbars when page is being dragged*/
  46:..\..\..\lvgl\version_6.1.2\lvgl\src\lv_objx\../lv_objx/lv_page.h ****     LV_SB_MODE_AUTO   = 0x3, /**< Show scrollbars when the scrollable container is large enough to 
  47:..\..\..\lvgl\version_6.1.2\lvgl\src\lv_objx\../lv_objx/lv_page.h ****     LV_SB_MODE_HIDE   = 0x4, /**< Hide the scroll bar temporally*/
  48:..\..\..\lvgl\version_6.1.2\lvgl\src\lv_objx\../lv_objx/lv_page.h ****     LV_SB_MODE_UNHIDE = 0x5, /**< Unhide the previously hidden scrollbar. Recover it's type too*/
  49:..\..\..\lvgl\version_6.1.2\lvgl\src\lv_objx\../lv_objx/lv_page.h **** };
  50:..\..\..\lvgl\version_6.1.2\lvgl\src\lv_objx\../lv_objx/lv_page.h **** typedef uint8_t lv_sb_mode_t;
  51:..\..\..\lvgl\version_6.1.2\lvgl\src\lv_objx\../lv_objx/lv_page.h **** 
  52:..\..\..\lvgl\version_6.1.2\lvgl\src\lv_objx\../lv_objx/lv_page.h **** /** Edges: describes the four edges of the page*/
  53:..\..\..\lvgl\version_6.1.2\lvgl\src\lv_objx\../lv_objx/lv_page.h **** enum { LV_PAGE_EDGE_LEFT = 0x1, LV_PAGE_EDGE_TOP = 0x2, LV_PAGE_EDGE_RIGHT = 0x4, LV_PAGE_EDGE_BOTT
  54:..\..\..\lvgl\version_6.1.2\lvgl\src\lv_objx\../lv_objx/lv_page.h **** typedef uint8_t lv_page_edge_t;
  55:..\..\..\lvgl\version_6.1.2\lvgl\src\lv_objx\../lv_objx/lv_page.h **** 
  56:..\..\..\lvgl\version_6.1.2\lvgl\src\lv_objx\../lv_objx/lv_page.h **** /*Data of page*/
  57:..\..\..\lvgl\version_6.1.2\lvgl\src\lv_objx\../lv_objx/lv_page.h **** typedef struct
  58:..\..\..\lvgl\version_6.1.2\lvgl\src\lv_objx\../lv_objx/lv_page.h **** {
  59:..\..\..\lvgl\version_6.1.2\lvgl\src\lv_objx\../lv_objx/lv_page.h ****     lv_cont_ext_t bg; /*Ext. of ancestor*/
  60:..\..\..\lvgl\version_6.1.2\lvgl\src\lv_objx\../lv_objx/lv_page.h ****     /*New data for this type */
  61:..\..\..\lvgl\version_6.1.2\lvgl\src\lv_objx\../lv_objx/lv_page.h ****     lv_obj_t * scrl; /*The scrollable object on the background*/
  62:..\..\..\lvgl\version_6.1.2\lvgl\src\lv_objx\../lv_objx/lv_page.h ****     struct
  63:..\..\..\lvgl\version_6.1.2\lvgl\src\lv_objx\../lv_objx/lv_page.h ****     {
  64:..\..\..\lvgl\version_6.1.2\lvgl\src\lv_objx\../lv_objx/lv_page.h ****         const lv_style_t * style; /*Style of scrollbars*/
  65:..\..\..\lvgl\version_6.1.2\lvgl\src\lv_objx\../lv_objx/lv_page.h ****         lv_area_t hor_area;       /*Horizontal scrollbar area relative to the page. (Handled by the
  66:..\..\..\lvgl\version_6.1.2\lvgl\src\lv_objx\../lv_objx/lv_page.h ****         lv_area_t ver_area;       /*Vertical scrollbar area relative to the page (Handled by the li
  67:..\..\..\lvgl\version_6.1.2\lvgl\src\lv_objx\../lv_objx/lv_page.h ****         uint8_t hor_draw : 1;     /*1: horizontal scrollbar is visible now (Handled by the library)
  68:..\..\..\lvgl\version_6.1.2\lvgl\src\lv_objx\../lv_objx/lv_page.h ****         uint8_t ver_draw : 1;     /*1: vertical scrollbar is visible now (Handled by the library)*/
  69:..\..\..\lvgl\version_6.1.2\lvgl\src\lv_objx\../lv_objx/lv_page.h ****         lv_sb_mode_t mode : 3;    /*Scrollbar visibility from 'lv_page_sb_mode_t'*/
  70:..\..\..\lvgl\version_6.1.2\lvgl\src\lv_objx\../lv_objx/lv_page.h ****     } sb;
  71:..\..\..\lvgl\version_6.1.2\lvgl\src\lv_objx\../lv_objx/lv_page.h **** #if LV_USE_ANIMATION
  72:..\..\..\lvgl\version_6.1.2\lvgl\src\lv_objx\../lv_objx/lv_page.h ****     struct
  73:..\..\..\lvgl\version_6.1.2\lvgl\src\lv_objx\../lv_objx/lv_page.h ****     {
  74:..\..\..\lvgl\version_6.1.2\lvgl\src\lv_objx\../lv_objx/lv_page.h ****         lv_anim_value_t state;    /*Store the current size of the edge flash effect*/
  75:..\..\..\lvgl\version_6.1.2\lvgl\src\lv_objx\../lv_objx/lv_page.h ****         const lv_style_t * style; /*Style of edge flash effect (usually homogeneous circle)*/
  76:..\..\..\lvgl\version_6.1.2\lvgl\src\lv_objx\../lv_objx/lv_page.h ****         uint8_t enabled : 1;      /*1: Show a flash animation on the edge*/
  77:..\..\..\lvgl\version_6.1.2\lvgl\src\lv_objx\../lv_objx/lv_page.h ****         uint8_t top_ip : 1;       /*Used internally to show that top most position is reached (flas
  78:..\..\..\lvgl\version_6.1.2\lvgl\src\lv_objx\../lv_objx/lv_page.h ****                                      Progress)*/
  79:..\..\..\lvgl\version_6.1.2\lvgl\src\lv_objx\../lv_objx/lv_page.h ****         uint8_t bottom_ip : 1;    /*Used internally to show that bottom most position is reached (f
  80:..\..\..\lvgl\version_6.1.2\lvgl\src\lv_objx\../lv_objx/lv_page.h ****                                      is In Progress)*/
  81:..\..\..\lvgl\version_6.1.2\lvgl\src\lv_objx\../lv_objx/lv_page.h ****         uint8_t right_ip : 1;     /*Used internally to show that right most position is reached (fl
  82:..\..\..\lvgl\version_6.1.2\lvgl\src\lv_objx\../lv_objx/lv_page.h ****                                      is In Progress)*/
  83:..\..\..\lvgl\version_6.1.2\lvgl\src\lv_objx\../lv_objx/lv_page.h ****         uint8_t left_ip : 1;      /*Used internally to show that left most position is reached (fla
  84:..\..\..\lvgl\version_6.1.2\lvgl\src\lv_objx\../lv_objx/lv_page.h ****                                      In Progress)*/
  85:..\..\..\lvgl\version_6.1.2\lvgl\src\lv_objx\../lv_objx/lv_page.h ****     } edge_flash;
  86:..\..\..\lvgl\version_6.1.2\lvgl\src\lv_objx\../lv_objx/lv_page.h **** 
  87:..\..\..\lvgl\version_6.1.2\lvgl\src\lv_objx\../lv_objx/lv_page.h ****     uint16_t anim_time; /*Scroll animation time*/
  88:..\..\..\lvgl\version_6.1.2\lvgl\src\lv_objx\../lv_objx/lv_page.h **** #endif
  89:..\..\..\lvgl\version_6.1.2\lvgl\src\lv_objx\../lv_objx/lv_page.h **** 
  90:..\..\..\lvgl\version_6.1.2\lvgl\src\lv_objx\../lv_objx/lv_page.h ****     uint8_t scroll_prop : 1;    /*1: Propagate the scrolling the the parent if the edge is reached*
  91:..\..\..\lvgl\version_6.1.2\lvgl\src\lv_objx\../lv_objx/lv_page.h ****     uint8_t scroll_prop_ip : 1; /*1: Scroll propagation is in progress (used by the library)*/
  92:..\..\..\lvgl\version_6.1.2\lvgl\src\lv_objx\../lv_objx/lv_page.h **** } lv_page_ext_t;
  93:..\..\..\lvgl\version_6.1.2\lvgl\src\lv_objx\../lv_objx/lv_page.h **** 
  94:..\..\..\lvgl\version_6.1.2\lvgl\src\lv_objx\../lv_objx/lv_page.h **** enum {
  95:..\..\..\lvgl\version_6.1.2\lvgl\src\lv_objx\../lv_objx/lv_page.h ****     LV_PAGE_STYLE_BG,
  96:..\..\..\lvgl\version_6.1.2\lvgl\src\lv_objx\../lv_objx/lv_page.h ****     LV_PAGE_STYLE_SCRL,
ARM GAS  C:\Users\pearlstl\AppData\Local\Temp\ccIMJlIA.s 			page 29


  97:..\..\..\lvgl\version_6.1.2\lvgl\src\lv_objx\../lv_objx/lv_page.h ****     LV_PAGE_STYLE_SB,
  98:..\..\..\lvgl\version_6.1.2\lvgl\src\lv_objx\../lv_objx/lv_page.h ****     LV_PAGE_STYLE_EDGE_FLASH,
  99:..\..\..\lvgl\version_6.1.2\lvgl\src\lv_objx\../lv_objx/lv_page.h **** };
 100:..\..\..\lvgl\version_6.1.2\lvgl\src\lv_objx\../lv_objx/lv_page.h **** typedef uint8_t lv_page_style_t;
 101:..\..\..\lvgl\version_6.1.2\lvgl\src\lv_objx\../lv_objx/lv_page.h **** 
 102:..\..\..\lvgl\version_6.1.2\lvgl\src\lv_objx\../lv_objx/lv_page.h **** /**********************
 103:..\..\..\lvgl\version_6.1.2\lvgl\src\lv_objx\../lv_objx/lv_page.h ****  * GLOBAL PROTOTYPES
 104:..\..\..\lvgl\version_6.1.2\lvgl\src\lv_objx\../lv_objx/lv_page.h ****  **********************/
 105:..\..\..\lvgl\version_6.1.2\lvgl\src\lv_objx\../lv_objx/lv_page.h **** 
 106:..\..\..\lvgl\version_6.1.2\lvgl\src\lv_objx\../lv_objx/lv_page.h **** /**
 107:..\..\..\lvgl\version_6.1.2\lvgl\src\lv_objx\../lv_objx/lv_page.h ****  * Create a page objects
 108:..\..\..\lvgl\version_6.1.2\lvgl\src\lv_objx\../lv_objx/lv_page.h ****  * @param par pointer to an object, it will be the parent of the new page
 109:..\..\..\lvgl\version_6.1.2\lvgl\src\lv_objx\../lv_objx/lv_page.h ****  * @param copy pointer to a page object, if not NULL then the new object will be copied from it
 110:..\..\..\lvgl\version_6.1.2\lvgl\src\lv_objx\../lv_objx/lv_page.h ****  * @return pointer to the created page
 111:..\..\..\lvgl\version_6.1.2\lvgl\src\lv_objx\../lv_objx/lv_page.h ****  */
 112:..\..\..\lvgl\version_6.1.2\lvgl\src\lv_objx\../lv_objx/lv_page.h **** lv_obj_t * lv_page_create(lv_obj_t * par, const lv_obj_t * copy);
 113:..\..\..\lvgl\version_6.1.2\lvgl\src\lv_objx\../lv_objx/lv_page.h **** 
 114:..\..\..\lvgl\version_6.1.2\lvgl\src\lv_objx\../lv_objx/lv_page.h **** /**
 115:..\..\..\lvgl\version_6.1.2\lvgl\src\lv_objx\../lv_objx/lv_page.h ****  * Delete all children of the scrl object, without deleting scrl child.
 116:..\..\..\lvgl\version_6.1.2\lvgl\src\lv_objx\../lv_objx/lv_page.h ****  * @param page pointer to an object
 117:..\..\..\lvgl\version_6.1.2\lvgl\src\lv_objx\../lv_objx/lv_page.h ****  */
 118:..\..\..\lvgl\version_6.1.2\lvgl\src\lv_objx\../lv_objx/lv_page.h **** void lv_page_clean(lv_obj_t * page);
 119:..\..\..\lvgl\version_6.1.2\lvgl\src\lv_objx\../lv_objx/lv_page.h **** 
 120:..\..\..\lvgl\version_6.1.2\lvgl\src\lv_objx\../lv_objx/lv_page.h **** /**
 121:..\..\..\lvgl\version_6.1.2\lvgl\src\lv_objx\../lv_objx/lv_page.h ****  * Get the scrollable object of a page
 122:..\..\..\lvgl\version_6.1.2\lvgl\src\lv_objx\../lv_objx/lv_page.h ****  * @param page pointer to a page object
 123:..\..\..\lvgl\version_6.1.2\lvgl\src\lv_objx\../lv_objx/lv_page.h ****  * @return pointer to a container which is the scrollable part of the page
 124:..\..\..\lvgl\version_6.1.2\lvgl\src\lv_objx\../lv_objx/lv_page.h ****  */
 125:..\..\..\lvgl\version_6.1.2\lvgl\src\lv_objx\../lv_objx/lv_page.h **** lv_obj_t * lv_page_get_scrl(const lv_obj_t * page);
 126:..\..\..\lvgl\version_6.1.2\lvgl\src\lv_objx\../lv_objx/lv_page.h **** 
 127:..\..\..\lvgl\version_6.1.2\lvgl\src\lv_objx\../lv_objx/lv_page.h **** /**
 128:..\..\..\lvgl\version_6.1.2\lvgl\src\lv_objx\../lv_objx/lv_page.h ****  * Get the animation time
 129:..\..\..\lvgl\version_6.1.2\lvgl\src\lv_objx\../lv_objx/lv_page.h ****  * @param page pointer to a page object
 130:..\..\..\lvgl\version_6.1.2\lvgl\src\lv_objx\../lv_objx/lv_page.h ****  * @return the animation time in milliseconds
 131:..\..\..\lvgl\version_6.1.2\lvgl\src\lv_objx\../lv_objx/lv_page.h ****  */
 132:..\..\..\lvgl\version_6.1.2\lvgl\src\lv_objx\../lv_objx/lv_page.h **** uint16_t lv_page_get_anim_time(const lv_obj_t * page);
 133:..\..\..\lvgl\version_6.1.2\lvgl\src\lv_objx\../lv_objx/lv_page.h **** 
 134:..\..\..\lvgl\version_6.1.2\lvgl\src\lv_objx\../lv_objx/lv_page.h **** /*=====================
 135:..\..\..\lvgl\version_6.1.2\lvgl\src\lv_objx\../lv_objx/lv_page.h ****  * Setter functions
 136:..\..\..\lvgl\version_6.1.2\lvgl\src\lv_objx\../lv_objx/lv_page.h ****  *====================*/
 137:..\..\..\lvgl\version_6.1.2\lvgl\src\lv_objx\../lv_objx/lv_page.h **** 
 138:..\..\..\lvgl\version_6.1.2\lvgl\src\lv_objx\../lv_objx/lv_page.h **** /**
 139:..\..\..\lvgl\version_6.1.2\lvgl\src\lv_objx\../lv_objx/lv_page.h ****  * Set the scroll bar mode on a page
 140:..\..\..\lvgl\version_6.1.2\lvgl\src\lv_objx\../lv_objx/lv_page.h ****  * @param page pointer to a page object
 141:..\..\..\lvgl\version_6.1.2\lvgl\src\lv_objx\../lv_objx/lv_page.h ****  * @param sb_mode the new mode from 'lv_page_sb.mode_t' enum
 142:..\..\..\lvgl\version_6.1.2\lvgl\src\lv_objx\../lv_objx/lv_page.h ****  */
 143:..\..\..\lvgl\version_6.1.2\lvgl\src\lv_objx\../lv_objx/lv_page.h **** void lv_page_set_sb_mode(lv_obj_t * page, lv_sb_mode_t sb_mode);
 144:..\..\..\lvgl\version_6.1.2\lvgl\src\lv_objx\../lv_objx/lv_page.h **** 
 145:..\..\..\lvgl\version_6.1.2\lvgl\src\lv_objx\../lv_objx/lv_page.h **** /**
 146:..\..\..\lvgl\version_6.1.2\lvgl\src\lv_objx\../lv_objx/lv_page.h ****  * Set the animation time for the page
 147:..\..\..\lvgl\version_6.1.2\lvgl\src\lv_objx\../lv_objx/lv_page.h ****  * @param page pointer to a page object
 148:..\..\..\lvgl\version_6.1.2\lvgl\src\lv_objx\../lv_objx/lv_page.h ****  * @param anim_time animation time in milliseconds
 149:..\..\..\lvgl\version_6.1.2\lvgl\src\lv_objx\../lv_objx/lv_page.h ****  */
 150:..\..\..\lvgl\version_6.1.2\lvgl\src\lv_objx\../lv_objx/lv_page.h **** void lv_page_set_anim_time(lv_obj_t * page, uint16_t anim_time);
 151:..\..\..\lvgl\version_6.1.2\lvgl\src\lv_objx\../lv_objx/lv_page.h **** 
 152:..\..\..\lvgl\version_6.1.2\lvgl\src\lv_objx\../lv_objx/lv_page.h **** /**
 153:..\..\..\lvgl\version_6.1.2\lvgl\src\lv_objx\../lv_objx/lv_page.h ****  * Enable the scroll propagation feature. If enabled then the page will move its parent if there is
ARM GAS  C:\Users\pearlstl\AppData\Local\Temp\ccIMJlIA.s 			page 30


 154:..\..\..\lvgl\version_6.1.2\lvgl\src\lv_objx\../lv_objx/lv_page.h ****  * no more space to scroll.
 155:..\..\..\lvgl\version_6.1.2\lvgl\src\lv_objx\../lv_objx/lv_page.h ****  * @param page pointer to a Page
 156:..\..\..\lvgl\version_6.1.2\lvgl\src\lv_objx\../lv_objx/lv_page.h ****  * @param en true or false to enable/disable scroll propagation
 157:..\..\..\lvgl\version_6.1.2\lvgl\src\lv_objx\../lv_objx/lv_page.h ****  */
 158:..\..\..\lvgl\version_6.1.2\lvgl\src\lv_objx\../lv_objx/lv_page.h **** void lv_page_set_scroll_propagation(lv_obj_t * page, bool en);
 159:..\..\..\lvgl\version_6.1.2\lvgl\src\lv_objx\../lv_objx/lv_page.h **** 
 160:..\..\..\lvgl\version_6.1.2\lvgl\src\lv_objx\../lv_objx/lv_page.h **** /**
 161:..\..\..\lvgl\version_6.1.2\lvgl\src\lv_objx\../lv_objx/lv_page.h ****  * Enable the edge flash effect. (Show an arc when the an edge is reached)
 162:..\..\..\lvgl\version_6.1.2\lvgl\src\lv_objx\../lv_objx/lv_page.h ****  * @param page pointer to a Page
 163:..\..\..\lvgl\version_6.1.2\lvgl\src\lv_objx\../lv_objx/lv_page.h ****  * @param en true or false to enable/disable end flash
 164:..\..\..\lvgl\version_6.1.2\lvgl\src\lv_objx\../lv_objx/lv_page.h ****  */
 165:..\..\..\lvgl\version_6.1.2\lvgl\src\lv_objx\../lv_objx/lv_page.h **** void lv_page_set_edge_flash(lv_obj_t * page, bool en);
 166:..\..\..\lvgl\version_6.1.2\lvgl\src\lv_objx\../lv_objx/lv_page.h **** 
 167:..\..\..\lvgl\version_6.1.2\lvgl\src\lv_objx\../lv_objx/lv_page.h **** /**
 168:..\..\..\lvgl\version_6.1.2\lvgl\src\lv_objx\../lv_objx/lv_page.h ****  * Set the fit policy in all 4 directions separately.
 169:..\..\..\lvgl\version_6.1.2\lvgl\src\lv_objx\../lv_objx/lv_page.h ****  * It tell how to change the page size automatically.
 170:..\..\..\lvgl\version_6.1.2\lvgl\src\lv_objx\../lv_objx/lv_page.h ****  * @param page pointer to a page object
 171:..\..\..\lvgl\version_6.1.2\lvgl\src\lv_objx\../lv_objx/lv_page.h ****  * @param left left fit policy from `lv_fit_t`
 172:..\..\..\lvgl\version_6.1.2\lvgl\src\lv_objx\../lv_objx/lv_page.h ****  * @param right right fit policy from `lv_fit_t`
 173:..\..\..\lvgl\version_6.1.2\lvgl\src\lv_objx\../lv_objx/lv_page.h ****  * @param top bottom fit policy from `lv_fit_t`
 174:..\..\..\lvgl\version_6.1.2\lvgl\src\lv_objx\../lv_objx/lv_page.h ****  * @param bottom bottom fit policy from `lv_fit_t`
 175:..\..\..\lvgl\version_6.1.2\lvgl\src\lv_objx\../lv_objx/lv_page.h ****  */
 176:..\..\..\lvgl\version_6.1.2\lvgl\src\lv_objx\../lv_objx/lv_page.h **** static inline void lv_page_set_scrl_fit4(lv_obj_t * page, lv_fit_t left, lv_fit_t right, lv_fit_t t
 177:..\..\..\lvgl\version_6.1.2\lvgl\src\lv_objx\../lv_objx/lv_page.h **** {
 178:..\..\..\lvgl\version_6.1.2\lvgl\src\lv_objx\../lv_objx/lv_page.h ****     lv_cont_set_fit4(lv_page_get_scrl(page), left, right, top, bottom);
 179:..\..\..\lvgl\version_6.1.2\lvgl\src\lv_objx\../lv_objx/lv_page.h **** }
 180:..\..\..\lvgl\version_6.1.2\lvgl\src\lv_objx\../lv_objx/lv_page.h **** 
 181:..\..\..\lvgl\version_6.1.2\lvgl\src\lv_objx\../lv_objx/lv_page.h **** /**
 182:..\..\..\lvgl\version_6.1.2\lvgl\src\lv_objx\../lv_objx/lv_page.h ****  * Set the fit policy horizontally and vertically separately.
 183:..\..\..\lvgl\version_6.1.2\lvgl\src\lv_objx\../lv_objx/lv_page.h ****  * It tell how to change the page size automatically.
 184:..\..\..\lvgl\version_6.1.2\lvgl\src\lv_objx\../lv_objx/lv_page.h ****  * @param page pointer to a page object
 185:..\..\..\lvgl\version_6.1.2\lvgl\src\lv_objx\../lv_objx/lv_page.h ****  * @param hot horizontal fit policy from `lv_fit_t`
 186:..\..\..\lvgl\version_6.1.2\lvgl\src\lv_objx\../lv_objx/lv_page.h ****  * @param ver vertical fit policy from `lv_fit_t`
 187:..\..\..\lvgl\version_6.1.2\lvgl\src\lv_objx\../lv_objx/lv_page.h ****  */
 188:..\..\..\lvgl\version_6.1.2\lvgl\src\lv_objx\../lv_objx/lv_page.h **** static inline void lv_page_set_scrl_fit2(lv_obj_t * page, lv_fit_t hor, lv_fit_t ver)
 189:..\..\..\lvgl\version_6.1.2\lvgl\src\lv_objx\../lv_objx/lv_page.h **** {
 190:..\..\..\lvgl\version_6.1.2\lvgl\src\lv_objx\../lv_objx/lv_page.h ****     lv_cont_set_fit2(lv_page_get_scrl(page), hor, ver);
 191:..\..\..\lvgl\version_6.1.2\lvgl\src\lv_objx\../lv_objx/lv_page.h **** }
 192:..\..\..\lvgl\version_6.1.2\lvgl\src\lv_objx\../lv_objx/lv_page.h **** 
 193:..\..\..\lvgl\version_6.1.2\lvgl\src\lv_objx\../lv_objx/lv_page.h **** /**
 194:..\..\..\lvgl\version_6.1.2\lvgl\src\lv_objx\../lv_objx/lv_page.h ****  * Set the fit policyin all 4 direction at once.
 195:..\..\..\lvgl\version_6.1.2\lvgl\src\lv_objx\../lv_objx/lv_page.h ****  * It tell how to change the page size automatically.
 196:..\..\..\lvgl\version_6.1.2\lvgl\src\lv_objx\../lv_objx/lv_page.h ****  * @param page pointer to a button object
 197:..\..\..\lvgl\version_6.1.2\lvgl\src\lv_objx\../lv_objx/lv_page.h ****  * @param fit fit policy from `lv_fit_t`
 198:..\..\..\lvgl\version_6.1.2\lvgl\src\lv_objx\../lv_objx/lv_page.h ****  */
 199:..\..\..\lvgl\version_6.1.2\lvgl\src\lv_objx\../lv_objx/lv_page.h **** static inline void lv_page_set_scrl_fit(lv_obj_t * page, lv_fit_t fit)
 200:..\..\..\lvgl\version_6.1.2\lvgl\src\lv_objx\../lv_objx/lv_page.h **** {
 201:..\..\..\lvgl\version_6.1.2\lvgl\src\lv_objx\../lv_objx/lv_page.h ****     lv_cont_set_fit(lv_page_get_scrl(page), fit);
 760              		.loc 3 201 0
 761 00c2 2846     		mov	r0, r5
 762 00c4 FFF7FEFF 		bl	lv_page_get_scrl
 763              	.LVL77:
 764              	.LBB37:
 765              	.LBB36:
 766              		.loc 2 134 0
 767 00c8 3346     		mov	r3, r6
 768 00ca 3246     		mov	r2, r6
ARM GAS  C:\Users\pearlstl\AppData\Local\Temp\ccIMJlIA.s 			page 31


 769 00cc 3146     		mov	r1, r6
 770 00ce 0096     		str	r6, [sp]
 771 00d0 FFF7FEFF 		bl	lv_cont_set_fit4
 772              	.LVL78:
 773              	.LBE36:
 774              	.LBE37:
 775              	.LBE33:
 776              	.LBE32:
 114:..\..\..\lvgl\version_6.1.2\lvgl\src\lv_objx/lv_tileview.c ****         /*Set the default styles*/
 777              		.loc 1 114 0
 778 00d4 6068     		ldr	r0, [r4, #4]
 779 00d6 2649     		ldr	r1, .L97+12
 780 00d8 FFF7FEFF 		bl	lv_obj_set_event_cb
 781              	.LVL79:
 116:..\..\..\lvgl\version_6.1.2\lvgl\src\lv_objx/lv_tileview.c ****         if(th) {
 782              		.loc 1 116 0
 783 00dc FFF7FEFF 		bl	lv_theme_get_current
 784              	.LVL80:
 117:..\..\..\lvgl\version_6.1.2\lvgl\src\lv_objx/lv_tileview.c ****             lv_page_set_style(new_tileview, LV_PAGE_STYLE_BG, th->style.tileview.bg);
 785              		.loc 1 117 0
 786 00e0 0446     		mov	r4, r0
 787              	.LVL81:
 788 00e2 50B3     		cbz	r0, .L88
 118:..\..\..\lvgl\version_6.1.2\lvgl\src\lv_objx/lv_tileview.c ****             lv_page_set_style(new_tileview, LV_PAGE_STYLE_SCRL, th->style.tileview.scrl);
 789              		.loc 1 118 0
 790 00e4 D0F87C21 		ldr	r2, [r0, #380]
 791 00e8 0021     		movs	r1, #0
 792 00ea 2846     		mov	r0, r5
 793              	.LVL82:
 794 00ec FFF7FEFF 		bl	lv_page_set_style
 795              	.LVL83:
 119:..\..\..\lvgl\version_6.1.2\lvgl\src\lv_objx/lv_tileview.c ****             lv_page_set_style(new_tileview, LV_PAGE_STYLE_SB, th->style.tileview.sb);
 796              		.loc 1 119 0
 797 00f0 3146     		mov	r1, r6
 798 00f2 D4F88021 		ldr	r2, [r4, #384]
 799 00f6 2846     		mov	r0, r5
 800 00f8 FFF7FEFF 		bl	lv_page_set_style
 801              	.LVL84:
 120:..\..\..\lvgl\version_6.1.2\lvgl\src\lv_objx/lv_tileview.c ****         } else {
 802              		.loc 1 120 0
 803 00fc 2846     		mov	r0, r5
 804 00fe D4F88421 		ldr	r2, [r4, #388]
 805 0102 0221     		movs	r1, #2
 806 0104 FFF7FEFF 		bl	lv_page_set_style
 807              	.LVL85:
 808 0108 2846     		mov	r0, r5
 809              	.LBE31:
 144:..\..\..\lvgl\version_6.1.2\lvgl\src\lv_objx/lv_tileview.c **** 
 810              		.loc 1 144 0
 811 010a 04B0     		add	sp, sp, #16
 812              		.cfi_remember_state
 813              		.cfi_def_cfa_offset 24
 814              		@ sp needed
 815 010c BDE8F081 		pop	{r4, r5, r6, r7, r8, pc}
 816              	.LVL86:
 817              	.L81:
 818              		.cfi_restore_state
ARM GAS  C:\Users\pearlstl\AppData\Local\Temp\ccIMJlIA.s 			page 32


  72:..\..\..\lvgl\version_6.1.2\lvgl\src\lv_objx/lv_tileview.c **** 
 819              		.loc 1 72 0
 820 0110 0020     		movs	r0, #0
 821 0112 B9E7     		b	.L80
 822              	.LVL87:
 823              	.L94:
  79:..\..\..\lvgl\version_6.1.2\lvgl\src\lv_objx/lv_tileview.c ****     if(ancestor_design == NULL) ancestor_design = lv_obj_get_design_cb(new_tileview);
 824              		.loc 1 79 0 discriminator 1
 825 0114 2846     		mov	r0, r5
 826 0116 0392     		str	r2, [sp, #12]
 827 0118 FFF7FEFF 		bl	lv_page_get_scrl
 828              	.LVL88:
 829 011c FFF7FEFF 		bl	lv_obj_get_signal_cb
 830              	.LVL89:
 831 0120 039A     		ldr	r2, [sp, #12]
 832 0122 1060     		str	r0, [r2]
 833 0124 85E7     		b	.L83
 834              	.L95:
  80:..\..\..\lvgl\version_6.1.2\lvgl\src\lv_objx/lv_tileview.c **** 
 835              		.loc 1 80 0 discriminator 1
 836 0126 2846     		mov	r0, r5
 837 0128 FFF7FEFF 		bl	lv_obj_get_design_cb
 838              	.LVL90:
 839 012c B060     		str	r0, [r6, #8]
 840 012e 84E7     		b	.L84
 841              	.LVL91:
 842              	.L93:
  78:..\..\..\lvgl\version_6.1.2\lvgl\src\lv_objx/lv_tileview.c ****     if(ancestor_scrl_signal == NULL) ancestor_scrl_signal = lv_obj_get_signal_cb(lv_page_get_scrl(n
 843              		.loc 1 78 0 discriminator 1
 844 0130 2846     		mov	r0, r5
 845              	.LVL92:
 846 0132 FFF7FEFF 		bl	lv_obj_get_signal_cb
 847              	.LVL93:
 848 0136 7060     		str	r0, [r6, #4]
 849 0138 77E7     		b	.L82
 850              	.LVL94:
 851              	.L88:
 852              	.LBB38:
 122:..\..\..\lvgl\version_6.1.2\lvgl\src\lv_objx/lv_tileview.c ****             lv_page_set_style(new_tileview, LV_PAGE_STYLE_SCRL, &lv_style_transp_tight);
 853              		.loc 1 122 0
 854 013a 0146     		mov	r1, r0
 855 013c 0D4A     		ldr	r2, .L97+16
 856 013e 2846     		mov	r0, r5
 857              	.LVL95:
 858 0140 FFF7FEFF 		bl	lv_page_set_style
 859              	.LVL96:
 123:..\..\..\lvgl\version_6.1.2\lvgl\src\lv_objx/lv_tileview.c ****         }
 860              		.loc 1 123 0
 861 0144 2846     		mov	r0, r5
 862 0146 3146     		mov	r1, r6
 863 0148 0A4A     		ldr	r2, .L97+16
 864 014a FFF7FEFF 		bl	lv_page_set_style
 865              	.LVL97:
 866 014e 2846     		mov	r0, r5
 867 0150 9AE7     		b	.L80
 868              	.LVL98:
 869              	.L86:
ARM GAS  C:\Users\pearlstl\AppData\Local\Temp\ccIMJlIA.s 			page 33


 106:..\..\..\lvgl\version_6.1.2\lvgl\src\lv_objx/lv_tileview.c ****             h = lv_disp_get_ver_res(NULL);
 870              		.loc 1 106 0
 871 0152 4046     		mov	r0, r8
 872 0154 FFF7FEFF 		bl	lv_disp_get_hor_res
 873              	.LVL99:
 874 0158 0646     		mov	r6, r0
 875              	.LVL100:
 107:..\..\..\lvgl\version_6.1.2\lvgl\src\lv_objx/lv_tileview.c ****         }
 876              		.loc 1 107 0
 877 015a 4046     		mov	r0, r8
 878 015c FFF7FEFF 		bl	lv_disp_get_ver_res
 879              	.LVL101:
 880 0160 0246     		mov	r2, r0
 881              	.LVL102:
 882 0162 A3E7     		b	.L87
 883              	.L98:
 884              		.align	2
 885              	.L97:
 886 0164 00000000 		.word	.LANCHOR0
 887 0168 00000000 		.word	lv_tileview_signal
 888 016c 00000000 		.word	lv_tileview_scrl_signal
 889 0170 00000000 		.word	tileview_scrl_event_cb
 890 0174 00000000 		.word	lv_style_transp_tight
 891              	.LBE38:
 892              		.cfi_endproc
 893              	.LFE52:
 894              		.size	lv_tileview_create, .-lv_tileview_create
 895              		.section	.text.lv_tileview_add_element,"ax",%progbits
 896              		.align	2
 897              		.global	lv_tileview_add_element
 898              		.thumb
 899              		.thumb_func
 900              		.type	lv_tileview_add_element, %function
 901              	lv_tileview_add_element:
 902              	.LFB53:
 156:..\..\..\lvgl\version_6.1.2\lvgl\src\lv_objx/lv_tileview.c ****     LV_ASSERT_OBJ(tileview, LV_OBJX_NAME);
 903              		.loc 1 156 0
 904              		.cfi_startproc
 905              		@ args = 0, pretend = 0, frame = 8
 906              		@ frame_needed = 0, uses_anonymous_args = 0
 907              	.LVL103:
 908 0000 2DE9F041 		push	{r4, r5, r6, r7, r8, lr}
 909              		.cfi_def_cfa_offset 24
 910              		.cfi_offset 4, -24
 911              		.cfi_offset 5, -20
 912              		.cfi_offset 6, -16
 913              		.cfi_offset 7, -12
 914              		.cfi_offset 8, -8
 915              		.cfi_offset 14, -4
 162:..\..\..\lvgl\version_6.1.2\lvgl\src\lv_objx/lv_tileview.c ****     lv_obj_set_drag_parent(element, true);
 916              		.loc 1 162 0
 917 0004 91F82C30 		ldrb	r3, [r1, #44]	@ zero_extendqisi2
 918 0008 43F08003 		orr	r3, r3, #128
 156:..\..\..\lvgl\version_6.1.2\lvgl\src\lv_objx/lv_tileview.c ****     LV_ASSERT_OBJ(tileview, LV_OBJX_NAME);
 919              		.loc 1 156 0
 920 000c 82B0     		sub	sp, sp, #8
 921              		.cfi_def_cfa_offset 32
ARM GAS  C:\Users\pearlstl\AppData\Local\Temp\ccIMJlIA.s 			page 34


 162:..\..\..\lvgl\version_6.1.2\lvgl\src\lv_objx/lv_tileview.c ****     lv_obj_set_drag_parent(element, true);
 922              		.loc 1 162 0
 923 000e 81F82C30 		strb	r3, [r1, #44]
 156:..\..\..\lvgl\version_6.1.2\lvgl\src\lv_objx/lv_tileview.c ****     LV_ASSERT_OBJ(tileview, LV_OBJX_NAME);
 924              		.loc 1 156 0
 925 0012 0646     		mov	r6, r0
 163:..\..\..\lvgl\version_6.1.2\lvgl\src\lv_objx/lv_tileview.c **** 
 926              		.loc 1 163 0
 927 0014 0846     		mov	r0, r1
 928              	.LVL104:
 929 0016 0121     		movs	r1, #1
 930              	.LVL105:
 931 0018 FFF7FEFF 		bl	lv_obj_set_drag_parent
 932              	.LVL106:
 168:..\..\..\lvgl\version_6.1.2\lvgl\src\lv_objx/lv_tileview.c ****     lv_tileview_set_tile_act(tileview, ext->act_id.x, ext->act_id.y, false);
 933              		.loc 1 168 0
 934 001c 3046     		mov	r0, r6
 935 001e FFF7FEFF 		bl	lv_obj_get_ext_attr
 936              	.LVL107:
 937 0022 0346     		mov	r3, r0
 938              	.LVL108:
 939              	.LBB42:
 940              	.LBB43:
 221:..\..\..\lvgl\version_6.1.2\lvgl\src\lv_objx/lv_tileview.c **** 
 941              		.loc 1 221 0
 942 0024 3046     		mov	r0, r6
 943              	.LVL109:
 944              	.LBE43:
 945              	.LBE42:
 169:..\..\..\lvgl\version_6.1.2\lvgl\src\lv_objx/lv_tileview.c **** }
 946              		.loc 1 169 0
 947 0026 B3F93850 		ldrsh	r5, [r3, #56]
 948 002a B3F93A80 		ldrsh	r8, [r3, #58]
 949              	.LVL110:
 950              	.LBB45:
 951              	.LBB44:
 221:..\..\..\lvgl\version_6.1.2\lvgl\src\lv_objx/lv_tileview.c **** 
 952              		.loc 1 221 0
 953 002e FFF7FEFF 		bl	lv_obj_get_ext_attr
 954              	.LVL111:
 225:..\..\..\lvgl\version_6.1.2\lvgl\src\lv_objx/lv_tileview.c ****         if(ext->valid_pos[tile_id].x == x && ext->valid_pos[tile_id].y == y) {
 955              		.loc 1 225 0
 956 0032 B0F834E0 		ldrh	lr, [r0, #52]
 957 0036 0024     		movs	r4, #0
 958 0038 0194     		str	r4, [sp, #4]
 959 003a BEF1000F 		cmp	lr, #0
 960 003e 31D0     		beq	.L99
 961 0040 076B     		ldr	r7, [r0, #48]
 962 0042 2346     		mov	r3, r4
 963 0044 3A46     		mov	r2, r7
 964 0046 06E0     		b	.L103
 965              	.L101:
 966 0048 0133     		adds	r3, r3, #1
 967 004a 7345     		cmp	r3, lr
 968 004c 02F10402 		add	r2, r2, #4
 969 0050 4FF00104 		mov	r4, #1
 970 0054 26D0     		beq	.L99
ARM GAS  C:\Users\pearlstl\AppData\Local\Temp\ccIMJlIA.s 			page 35


 971              	.L103:
 226:..\..\..\lvgl\version_6.1.2\lvgl\src\lv_objx/lv_tileview.c ****             valid = true;
 972              		.loc 1 226 0
 973 0056 37F92310 		ldrsh	r1, [r7, r3, lsl #2]
 974 005a A942     		cmp	r1, r5
 975 005c F4D1     		bne	.L101
 976 005e B2F90210 		ldrsh	r1, [r2, #2]
 977 0062 4145     		cmp	r1, r8
 978 0064 F0D1     		bne	.L101
 979 0066 04BB     		cbnz	r4, .L114
 980              	.L104:
 981              	.LVL112:
 234:..\..\..\lvgl\version_6.1.2\lvgl\src\lv_objx/lv_tileview.c ****     ext->act_id.y = y;
 982              		.loc 1 234 0
 983 0068 0587     		strh	r5, [r0, #56]	@ movhi
 235:..\..\..\lvgl\version_6.1.2\lvgl\src\lv_objx/lv_tileview.c **** 
 984              		.loc 1 235 0
 985 006a A0F83A80 		strh	r8, [r0, #58]	@ movhi
 237:..\..\..\lvgl\version_6.1.2\lvgl\src\lv_objx/lv_tileview.c ****     lv_coord_t y_coord = -y * lv_obj_get_height(tileview);
 986              		.loc 1 237 0
 987 006e 3046     		mov	r0, r6
 988              	.LVL113:
 989 0070 FFF7FEFF 		bl	lv_obj_get_width
 990              	.LVL114:
 991 0074 0746     		mov	r7, r0
 992              	.LVL115:
 238:..\..\..\lvgl\version_6.1.2\lvgl\src\lv_objx/lv_tileview.c ****     lv_obj_t * scrl    = lv_page_get_scrl(tileview);
 993              		.loc 1 238 0
 994 0076 3046     		mov	r0, r6
 995 0078 FFF7FEFF 		bl	lv_obj_get_height
 996              	.LVL116:
 271:..\..\..\lvgl\version_6.1.2\lvgl\src\lv_objx/lv_tileview.c ****     }
 997              		.loc 1 271 0
 998 007c 6D42     		negs	r5, r5
 999              	.LVL117:
 238:..\..\..\lvgl\version_6.1.2\lvgl\src\lv_objx/lv_tileview.c ****     lv_obj_t * scrl    = lv_page_get_scrl(tileview);
 1000              		.loc 1 238 0
 1001 007e 0446     		mov	r4, r0
 1002              	.LVL118:
 271:..\..\..\lvgl\version_6.1.2\lvgl\src\lv_objx/lv_tileview.c ****     }
 1003              		.loc 1 271 0
 1004 0080 C8F10008 		rsb	r8, r8, #0
 1005              	.LVL119:
 239:..\..\..\lvgl\version_6.1.2\lvgl\src\lv_objx/lv_tileview.c ****     if(anim) {
 1006              		.loc 1 239 0
 1007 0084 3046     		mov	r0, r6
 1008 0086 FFF7FEFF 		bl	lv_page_get_scrl
 1009              	.LVL120:
 271:..\..\..\lvgl\version_6.1.2\lvgl\src\lv_objx/lv_tileview.c ****     }
 1010              		.loc 1 271 0
 1011 008a 15FB07F1 		smulbb	r1, r5, r7
 1012 008e 18FB04F2 		smulbb	r2, r8, r4
 1013 0092 09B2     		sxth	r1, r1
 1014 0094 12B2     		sxth	r2, r2
 1015 0096 FFF7FEFF 		bl	lv_obj_set_pos
 1016              	.LVL121:
 275:..\..\..\lvgl\version_6.1.2\lvgl\src\lv_objx/lv_tileview.c ****     if(res != LV_RES_OK) return; /*Prevent the tile loading*/
ARM GAS  C:\Users\pearlstl\AppData\Local\Temp\ccIMJlIA.s 			page 36


 1017              		.loc 1 275 0
 1018 009a 3046     		mov	r0, r6
 1019 009c 01AA     		add	r2, sp, #4
 1020 009e 0E21     		movs	r1, #14
 1021 00a0 FFF7FEFF 		bl	lv_event_send
 1022              	.LVL122:
 1023              	.L99:
 1024              	.LBE44:
 1025              	.LBE45:
 170:..\..\..\lvgl\version_6.1.2\lvgl\src\lv_objx/lv_tileview.c **** 
 1026              		.loc 1 170 0
 1027 00a4 02B0     		add	sp, sp, #8
 1028              		.cfi_remember_state
 1029              		.cfi_def_cfa_offset 24
 1030              		@ sp needed
 1031 00a6 BDE8F081 		pop	{r4, r5, r6, r7, r8, pc}
 1032              	.LVL123:
 1033              	.L114:
 1034              		.cfi_restore_state
 1035 00aa 0193     		str	r3, [sp, #4]
 1036 00ac DCE7     		b	.L104
 1037              		.cfi_endproc
 1038              	.LFE53:
 1039              		.size	lv_tileview_add_element, .-lv_tileview_add_element
 1040 00ae 00BF     		.section	.text.lv_tileview_set_valid_positions,"ax",%progbits
 1041              		.align	2
 1042              		.global	lv_tileview_set_valid_positions
 1043              		.thumb
 1044              		.thumb_func
 1045              		.type	lv_tileview_set_valid_positions, %function
 1046              	lv_tileview_set_valid_positions:
 1047              	.LFB54:
 184:..\..\..\lvgl\version_6.1.2\lvgl\src\lv_objx/lv_tileview.c ****     LV_ASSERT_OBJ(tileview, LV_OBJX_NAME);
 1048              		.loc 1 184 0
 1049              		.cfi_startproc
 1050              		@ args = 0, pretend = 0, frame = 8
 1051              		@ frame_needed = 0, uses_anonymous_args = 0
 1052              	.LVL124:
 1053 0000 2DE9F041 		push	{r4, r5, r6, r7, r8, lr}
 1054              		.cfi_def_cfa_offset 24
 1055              		.cfi_offset 4, -24
 1056              		.cfi_offset 5, -20
 1057              		.cfi_offset 6, -16
 1058              		.cfi_offset 7, -12
 1059              		.cfi_offset 8, -8
 1060              		.cfi_offset 14, -4
 1061 0004 82B0     		sub	sp, sp, #8
 1062              		.cfi_def_cfa_offset 32
 184:..\..\..\lvgl\version_6.1.2\lvgl\src\lv_objx/lv_tileview.c ****     LV_ASSERT_OBJ(tileview, LV_OBJX_NAME);
 1063              		.loc 1 184 0
 1064 0006 0F46     		mov	r7, r1
 1065 0008 1446     		mov	r4, r2
 1066 000a 0546     		mov	r5, r0
 188:..\..\..\lvgl\version_6.1.2\lvgl\src\lv_objx/lv_tileview.c ****     ext->valid_pos          = valid_pos;
 1067              		.loc 1 188 0
 1068 000c FFF7FEFF 		bl	lv_obj_get_ext_attr
 1069              	.LVL125:
ARM GAS  C:\Users\pearlstl\AppData\Local\Temp\ccIMJlIA.s 			page 37


 189:..\..\..\lvgl\version_6.1.2\lvgl\src\lv_objx/lv_tileview.c ****     ext->valid_pos_cnt      = valid_pos_cnt;
 1070              		.loc 1 189 0
 1071 0010 0763     		str	r7, [r0, #48]
 190:..\..\..\lvgl\version_6.1.2\lvgl\src\lv_objx/lv_tileview.c **** 
 1072              		.loc 1 190 0
 1073 0012 8486     		strh	r4, [r0, #52]	@ movhi
 1074              	.LVL126:
 194:..\..\..\lvgl\version_6.1.2\lvgl\src\lv_objx/lv_tileview.c ****         if(valid_pos[i].x == ext->act_id.x && valid_pos[i].y == ext->act_id.y) {
 1075              		.loc 1 194 0
 1076 0014 ACB1     		cbz	r4, .L115
 1077 0016 013C     		subs	r4, r4, #1
 1078 0018 A4B2     		uxth	r4, r4
 1079 001a 0134     		adds	r4, r4, #1
 1080 001c B0F93860 		ldrsh	r6, [r0, #56]
 1081 0020 07EB8404 		add	r4, r7, r4, lsl #2
 1082 0024 3B46     		mov	r3, r7
 1083 0026 02E0     		b	.L118
 1084              	.LVL127:
 1085              	.L117:
 1086 0028 0433     		adds	r3, r3, #4
 194:..\..\..\lvgl\version_6.1.2\lvgl\src\lv_objx/lv_tileview.c ****         if(valid_pos[i].x == ext->act_id.x && valid_pos[i].y == ext->act_id.y) {
 1087              		.loc 1 194 0 is_stmt 0 discriminator 2
 1088 002a 9C42     		cmp	r4, r3
 1089 002c 0CD0     		beq	.L136
 1090              	.L118:
 195:..\..\..\lvgl\version_6.1.2\lvgl\src\lv_objx/lv_tileview.c ****             return;
 1091              		.loc 1 195 0 is_stmt 1
 1092 002e B3F90020 		ldrsh	r2, [r3]
 1093 0032 B242     		cmp	r2, r6
 1094 0034 F8D1     		bne	.L117
 195:..\..\..\lvgl\version_6.1.2\lvgl\src\lv_objx/lv_tileview.c ****             return;
 1095              		.loc 1 195 0 is_stmt 0 discriminator 1
 1096 0036 B3F90210 		ldrsh	r1, [r3, #2]
 1097 003a B0F93A20 		ldrsh	r2, [r0, #58]
 1098 003e 9142     		cmp	r1, r2
 1099 0040 F2D1     		bne	.L117
 1100              	.LVL128:
 1101              	.L115:
 204:..\..\..\lvgl\version_6.1.2\lvgl\src\lv_objx/lv_tileview.c **** 
 1102              		.loc 1 204 0 is_stmt 1
 1103 0042 02B0     		add	sp, sp, #8
 1104              		.cfi_remember_state
 1105              		.cfi_def_cfa_offset 24
 1106              		@ sp needed
 1107 0044 BDE8F081 		pop	{r4, r5, r6, r7, r8, pc}
 1108              	.LVL129:
 1109              	.L136:
 1110              		.cfi_restore_state
 1111              	.LBB49:
 1112              	.LBB50:
 221:..\..\..\lvgl\version_6.1.2\lvgl\src\lv_objx/lv_tileview.c **** 
 1113              		.loc 1 221 0
 1114 0048 2846     		mov	r0, r5
 1115              	.LVL130:
 1116              	.LBE50:
 1117              	.LBE49:
 202:..\..\..\lvgl\version_6.1.2\lvgl\src\lv_objx/lv_tileview.c ****     }
ARM GAS  C:\Users\pearlstl\AppData\Local\Temp\ccIMJlIA.s 			page 38


 1118              		.loc 1 202 0
 1119 004a B7F90060 		ldrsh	r6, [r7]
 1120 004e B7F90280 		ldrsh	r8, [r7, #2]
 1121              	.LVL131:
 1122              	.LBB52:
 1123              	.LBB51:
 221:..\..\..\lvgl\version_6.1.2\lvgl\src\lv_objx/lv_tileview.c **** 
 1124              		.loc 1 221 0
 1125 0052 FFF7FEFF 		bl	lv_obj_get_ext_attr
 1126              	.LVL132:
 225:..\..\..\lvgl\version_6.1.2\lvgl\src\lv_objx/lv_tileview.c ****         if(ext->valid_pos[tile_id].x == x && ext->valid_pos[tile_id].y == y) {
 1127              		.loc 1 225 0
 1128 0056 B0F834E0 		ldrh	lr, [r0, #52]
 1129 005a 0024     		movs	r4, #0
 1130 005c 0194     		str	r4, [sp, #4]
 1131 005e BEF1000F 		cmp	lr, #0
 1132 0062 EED0     		beq	.L115
 1133 0064 076B     		ldr	r7, [r0, #48]
 1134              	.LVL133:
 1135 0066 2346     		mov	r3, r4
 1136 0068 3A46     		mov	r2, r7
 1137 006a 06E0     		b	.L122
 1138              	.L120:
 1139 006c 0133     		adds	r3, r3, #1
 1140 006e 7345     		cmp	r3, lr
 1141 0070 02F10402 		add	r2, r2, #4
 1142 0074 4FF00104 		mov	r4, #1
 1143 0078 E3D0     		beq	.L115
 1144              	.L122:
 226:..\..\..\lvgl\version_6.1.2\lvgl\src\lv_objx/lv_tileview.c ****             valid = true;
 1145              		.loc 1 226 0
 1146 007a 37F92310 		ldrsh	r1, [r7, r3, lsl #2]
 1147 007e B142     		cmp	r1, r6
 1148 0080 F4D1     		bne	.L120
 1149 0082 B2F90210 		ldrsh	r1, [r2, #2]
 1150 0086 4145     		cmp	r1, r8
 1151 0088 F0D1     		bne	.L120
 1152 008a F4B9     		cbnz	r4, .L137
 1153              	.L123:
 1154              	.LVL134:
 234:..\..\..\lvgl\version_6.1.2\lvgl\src\lv_objx/lv_tileview.c ****     ext->act_id.y = y;
 1155              		.loc 1 234 0
 1156 008c 0687     		strh	r6, [r0, #56]	@ movhi
 235:..\..\..\lvgl\version_6.1.2\lvgl\src\lv_objx/lv_tileview.c **** 
 1157              		.loc 1 235 0
 1158 008e A0F83A80 		strh	r8, [r0, #58]	@ movhi
 237:..\..\..\lvgl\version_6.1.2\lvgl\src\lv_objx/lv_tileview.c ****     lv_coord_t y_coord = -y * lv_obj_get_height(tileview);
 1159              		.loc 1 237 0
 1160 0092 2846     		mov	r0, r5
 1161              	.LVL135:
 1162 0094 FFF7FEFF 		bl	lv_obj_get_width
 1163              	.LVL136:
 1164 0098 0746     		mov	r7, r0
 1165              	.LVL137:
 238:..\..\..\lvgl\version_6.1.2\lvgl\src\lv_objx/lv_tileview.c ****     lv_obj_t * scrl    = lv_page_get_scrl(tileview);
 1166              		.loc 1 238 0
 1167 009a 2846     		mov	r0, r5
ARM GAS  C:\Users\pearlstl\AppData\Local\Temp\ccIMJlIA.s 			page 39


 1168 009c FFF7FEFF 		bl	lv_obj_get_height
 1169              	.LVL138:
 271:..\..\..\lvgl\version_6.1.2\lvgl\src\lv_objx/lv_tileview.c ****     }
 1170              		.loc 1 271 0
 1171 00a0 7642     		negs	r6, r6
 1172              	.LVL139:
 238:..\..\..\lvgl\version_6.1.2\lvgl\src\lv_objx/lv_tileview.c ****     lv_obj_t * scrl    = lv_page_get_scrl(tileview);
 1173              		.loc 1 238 0
 1174 00a2 0446     		mov	r4, r0
 1175              	.LVL140:
 271:..\..\..\lvgl\version_6.1.2\lvgl\src\lv_objx/lv_tileview.c ****     }
 1176              		.loc 1 271 0
 1177 00a4 C8F10008 		rsb	r8, r8, #0
 1178              	.LVL141:
 239:..\..\..\lvgl\version_6.1.2\lvgl\src\lv_objx/lv_tileview.c ****     if(anim) {
 1179              		.loc 1 239 0
 1180 00a8 2846     		mov	r0, r5
 1181 00aa FFF7FEFF 		bl	lv_page_get_scrl
 1182              	.LVL142:
 271:..\..\..\lvgl\version_6.1.2\lvgl\src\lv_objx/lv_tileview.c ****     }
 1183              		.loc 1 271 0
 1184 00ae 16FB07F1 		smulbb	r1, r6, r7
 1185 00b2 18FB04F2 		smulbb	r2, r8, r4
 1186 00b6 09B2     		sxth	r1, r1
 1187 00b8 12B2     		sxth	r2, r2
 1188 00ba FFF7FEFF 		bl	lv_obj_set_pos
 1189              	.LVL143:
 275:..\..\..\lvgl\version_6.1.2\lvgl\src\lv_objx/lv_tileview.c ****     if(res != LV_RES_OK) return; /*Prevent the tile loading*/
 1190              		.loc 1 275 0
 1191 00be 2846     		mov	r0, r5
 1192 00c0 01AA     		add	r2, sp, #4
 1193 00c2 0E21     		movs	r1, #14
 1194 00c4 FFF7FEFF 		bl	lv_event_send
 1195              	.LVL144:
 1196 00c8 BBE7     		b	.L115
 1197              	.LVL145:
 1198              	.L137:
 1199 00ca 0193     		str	r3, [sp, #4]
 1200 00cc DEE7     		b	.L123
 1201              	.LBE51:
 1202              	.LBE52:
 1203              		.cfi_endproc
 1204              	.LFE54:
 1205              		.size	lv_tileview_set_valid_positions, .-lv_tileview_set_valid_positions
 1206 00ce 00BF     		.section	.text.lv_tileview_set_tile_act,"ax",%progbits
 1207              		.align	2
 1208              		.global	lv_tileview_set_tile_act
 1209              		.thumb
 1210              		.thumb_func
 1211              		.type	lv_tileview_set_tile_act, %function
 1212              	lv_tileview_set_tile_act:
 1213              	.LFB55:
 214:..\..\..\lvgl\version_6.1.2\lvgl\src\lv_objx/lv_tileview.c ****     LV_ASSERT_OBJ(tileview, LV_OBJX_NAME);
 1214              		.loc 1 214 0
 1215              		.cfi_startproc
 1216              		@ args = 0, pretend = 0, frame = 40
 1217              		@ frame_needed = 0, uses_anonymous_args = 0
ARM GAS  C:\Users\pearlstl\AppData\Local\Temp\ccIMJlIA.s 			page 40


 1218              	.LVL146:
 1219 0000 2DE9F047 		push	{r4, r5, r6, r7, r8, r9, r10, lr}
 1220              		.cfi_def_cfa_offset 32
 1221              		.cfi_offset 4, -32
 1222              		.cfi_offset 5, -28
 1223              		.cfi_offset 6, -24
 1224              		.cfi_offset 7, -20
 1225              		.cfi_offset 8, -16
 1226              		.cfi_offset 9, -12
 1227              		.cfi_offset 10, -8
 1228              		.cfi_offset 14, -4
 1229 0004 8AB0     		sub	sp, sp, #40
 1230              		.cfi_def_cfa_offset 72
 214:..\..\..\lvgl\version_6.1.2\lvgl\src\lv_objx/lv_tileview.c ****     LV_ASSERT_OBJ(tileview, LV_OBJX_NAME);
 1231              		.loc 1 214 0
 1232 0006 0E46     		mov	r6, r1
 1233 0008 9146     		mov	r9, r2
 1234 000a 9846     		mov	r8, r3
 1235 000c 0746     		mov	r7, r0
 221:..\..\..\lvgl\version_6.1.2\lvgl\src\lv_objx/lv_tileview.c **** 
 1236              		.loc 1 221 0
 1237 000e FFF7FEFF 		bl	lv_obj_get_ext_attr
 1238              	.LVL147:
 225:..\..\..\lvgl\version_6.1.2\lvgl\src\lv_objx/lv_tileview.c ****         if(ext->valid_pos[tile_id].x == x && ext->valid_pos[tile_id].y == y) {
 1239              		.loc 1 225 0
 1240 0012 818E     		ldrh	r1, [r0, #52]
 1241 0014 0025     		movs	r5, #0
 1242 0016 0095     		str	r5, [sp]
 1243 0018 0029     		cmp	r1, #0
 1244 001a 6BD0     		beq	.L138
 1245 001c 026B     		ldr	r2, [r0, #48]
 1246 001e 8246     		mov	r10, r0
 1247 0020 2B46     		mov	r3, r5
 1248 0022 1046     		mov	r0, r2
 1249              	.LVL148:
 1250 0024 06E0     		b	.L142
 1251              	.L140:
 225:..\..\..\lvgl\version_6.1.2\lvgl\src\lv_objx/lv_tileview.c ****         if(ext->valid_pos[tile_id].x == x && ext->valid_pos[tile_id].y == y) {
 1252              		.loc 1 225 0 is_stmt 0 discriminator 2
 1253 0026 0133     		adds	r3, r3, #1
 1254 0028 9942     		cmp	r1, r3
 1255 002a 00F10400 		add	r0, r0, #4
 1256 002e 4FF00105 		mov	r5, #1
 1257 0032 5FD0     		beq	.L138
 1258              	.L142:
 226:..\..\..\lvgl\version_6.1.2\lvgl\src\lv_objx/lv_tileview.c ****             valid = true;
 1259              		.loc 1 226 0 is_stmt 1
 1260 0034 32F92340 		ldrsh	r4, [r2, r3, lsl #2]
 1261 0038 B442     		cmp	r4, r6
 1262 003a F4D1     		bne	.L140
 226:..\..\..\lvgl\version_6.1.2\lvgl\src\lv_objx/lv_tileview.c ****             valid = true;
 1263              		.loc 1 226 0 is_stmt 0 discriminator 1
 1264 003c B0F90240 		ldrsh	r4, [r0, #2]
 1265 0040 4C45     		cmp	r4, r9
 1266 0042 F0D1     		bne	.L140
 1267 0044 002D     		cmp	r5, #0
 1268 0046 58D1     		bne	.L160
ARM GAS  C:\Users\pearlstl\AppData\Local\Temp\ccIMJlIA.s 			page 41


 1269              	.L146:
 1270              	.LVL149:
 234:..\..\..\lvgl\version_6.1.2\lvgl\src\lv_objx/lv_tileview.c ****     ext->act_id.y = y;
 1271              		.loc 1 234 0 is_stmt 1
 1272 0048 AAF83860 		strh	r6, [r10, #56]	@ movhi
 235:..\..\..\lvgl\version_6.1.2\lvgl\src\lv_objx/lv_tileview.c **** 
 1273              		.loc 1 235 0
 1274 004c AAF83A90 		strh	r9, [r10, #58]	@ movhi
 237:..\..\..\lvgl\version_6.1.2\lvgl\src\lv_objx/lv_tileview.c ****     lv_coord_t y_coord = -y * lv_obj_get_height(tileview);
 1275              		.loc 1 237 0
 1276 0050 3846     		mov	r0, r7
 1277 0052 FFF7FEFF 		bl	lv_obj_get_width
 1278              	.LVL150:
 1279 0056 7442     		negs	r4, r6
 1280 0058 14FB00F4 		smulbb	r4, r4, r0
 238:..\..\..\lvgl\version_6.1.2\lvgl\src\lv_objx/lv_tileview.c ****     lv_obj_t * scrl    = lv_page_get_scrl(tileview);
 1281              		.loc 1 238 0
 1282 005c 3846     		mov	r0, r7
 1283 005e FFF7FEFF 		bl	lv_obj_get_height
 1284              	.LVL151:
 1285 0062 C9F10005 		rsb	r5, r9, #0
 1286 0066 15FB00F5 		smulbb	r5, r5, r0
 239:..\..\..\lvgl\version_6.1.2\lvgl\src\lv_objx/lv_tileview.c ****     if(anim) {
 1287              		.loc 1 239 0
 1288 006a 3846     		mov	r0, r7
 1289 006c FFF7FEFF 		bl	lv_page_get_scrl
 1290              	.LVL152:
 237:..\..\..\lvgl\version_6.1.2\lvgl\src\lv_objx/lv_tileview.c ****     lv_coord_t y_coord = -y * lv_obj_get_height(tileview);
 1291              		.loc 1 237 0
 1292 0070 24B2     		sxth	r4, r4
 1293              	.LVL153:
 238:..\..\..\lvgl\version_6.1.2\lvgl\src\lv_objx/lv_tileview.c ****     lv_obj_t * scrl    = lv_page_get_scrl(tileview);
 1294              		.loc 1 238 0
 1295 0072 2DB2     		sxth	r5, r5
 1296              	.LVL154:
 239:..\..\..\lvgl\version_6.1.2\lvgl\src\lv_objx/lv_tileview.c ****     if(anim) {
 1297              		.loc 1 239 0
 1298 0074 0646     		mov	r6, r0
 1299              	.LVL155:
 240:..\..\..\lvgl\version_6.1.2\lvgl\src\lv_objx/lv_tileview.c **** #if LV_USE_ANIMATION
 1300              		.loc 1 240 0
 1301 0076 B8F1000F 		cmp	r8, #0
 1302 007a 32D0     		beq	.L161
 1303              	.LBB53:
 242:..\..\..\lvgl\version_6.1.2\lvgl\src\lv_objx/lv_tileview.c ****         lv_coord_t y_act = lv_obj_get_y(scrl);
 1304              		.loc 1 242 0
 1305 007c FFF7FEFF 		bl	lv_obj_get_x
 1306              	.LVL156:
 1307 0080 8146     		mov	r9, r0
 1308              	.LVL157:
 243:..\..\..\lvgl\version_6.1.2\lvgl\src\lv_objx/lv_tileview.c **** 
 1309              		.loc 1 243 0
 1310 0082 3046     		mov	r0, r6
 1311 0084 FFF7FEFF 		bl	lv_obj_get_y
 1312              	.LVL158:
 252:..\..\..\lvgl\version_6.1.2\lvgl\src\lv_objx/lv_tileview.c ****         a.playback_pause = 0;
 1313              		.loc 1 252 0
ARM GAS  C:\Users\pearlstl\AppData\Local\Temp\ccIMJlIA.s 			page 42


 1314 0088 9DF82420 		ldrb	r2, [sp, #36]	@ zero_extendqisi2
 251:..\..\..\lvgl\version_6.1.2\lvgl\src\lv_objx/lv_tileview.c ****         a.playback       = 0;
 1315              		.loc 1 251 0
 1316 008c BAF83630 		ldrh	r3, [r10, #54]
 1317 0090 ADF81C30 		strh	r3, [sp, #28]	@ movhi
 254:..\..\..\lvgl\version_6.1.2\lvgl\src\lv_objx/lv_tileview.c ****         a.repeat_pause   = 0;
 1318              		.loc 1 254 0
 1319 0094 02F0FE02 		and	r2, r2, #254
 249:..\..\..\lvgl\version_6.1.2\lvgl\src\lv_objx/lv_tileview.c ****         a.act_time       = 0;
 1320              		.loc 1 249 0
 1321 0098 0023     		movs	r3, #0
 254:..\..\..\lvgl\version_6.1.2\lvgl\src\lv_objx/lv_tileview.c ****         a.repeat_pause   = 0;
 1322              		.loc 1 254 0
 1323 009a 63F34102 		bfi	r2, r3, #1, #1
 247:..\..\..\lvgl\version_6.1.2\lvgl\src\lv_objx/lv_tileview.c ****         a.path_cb        = lv_anim_path_linear;
 1324              		.loc 1 247 0
 1325 009e 1849     		ldr	r1, .L162
 254:..\..\..\lvgl\version_6.1.2\lvgl\src\lv_objx/lv_tileview.c ****         a.repeat_pause   = 0;
 1326              		.loc 1 254 0
 1327 00a0 8DF82420 		strb	r2, [sp, #36]
 257:..\..\..\lvgl\version_6.1.2\lvgl\src\lv_objx/lv_tileview.c ****             a.start = x_act;
 1328              		.loc 1 257 0
 1329 00a4 4C45     		cmp	r4, r9
 248:..\..\..\lvgl\version_6.1.2\lvgl\src\lv_objx/lv_tileview.c ****         a.ready_cb       = NULL;
 1330              		.loc 1 248 0
 1331 00a6 174A     		ldr	r2, .L162+4
 246:..\..\..\lvgl\version_6.1.2\lvgl\src\lv_objx/lv_tileview.c ****         a.exec_cb        = (lv_anim_exec_xcb_t)lv_obj_set_x;
 1332              		.loc 1 246 0
 1333 00a8 0196     		str	r6, [sp, #4]
 243:..\..\..\lvgl\version_6.1.2\lvgl\src\lv_objx/lv_tileview.c **** 
 1334              		.loc 1 243 0
 1335 00aa 8046     		mov	r8, r0
 1336              	.LVL159:
 249:..\..\..\lvgl\version_6.1.2\lvgl\src\lv_objx/lv_tileview.c ****         a.act_time       = 0;
 1337              		.loc 1 249 0
 1338 00ac 0493     		str	r3, [sp, #16]
 250:..\..\..\lvgl\version_6.1.2\lvgl\src\lv_objx/lv_tileview.c ****         a.time           = ext->anim_time;
 1339              		.loc 1 250 0
 1340 00ae ADF81E30 		strh	r3, [sp, #30]	@ movhi
 253:..\..\..\lvgl\version_6.1.2\lvgl\src\lv_objx/lv_tileview.c ****         a.repeat         = 0;
 1341              		.loc 1 253 0
 1342 00b2 ADF82030 		strh	r3, [sp, #32]	@ movhi
 255:..\..\..\lvgl\version_6.1.2\lvgl\src\lv_objx/lv_tileview.c **** 
 1343              		.loc 1 255 0
 1344 00b6 ADF82230 		strh	r3, [sp, #34]	@ movhi
 247:..\..\..\lvgl\version_6.1.2\lvgl\src\lv_objx/lv_tileview.c ****         a.path_cb        = lv_anim_path_linear;
 1345              		.loc 1 247 0
 1346 00ba 0291     		str	r1, [sp, #8]
 248:..\..\..\lvgl\version_6.1.2\lvgl\src\lv_objx/lv_tileview.c ****         a.ready_cb       = NULL;
 1347              		.loc 1 248 0
 1348 00bc 0392     		str	r2, [sp, #12]
 257:..\..\..\lvgl\version_6.1.2\lvgl\src\lv_objx/lv_tileview.c ****             a.start = x_act;
 1349              		.loc 1 257 0
 1350 00be 05D0     		beq	.L143
 260:..\..\..\lvgl\version_6.1.2\lvgl\src\lv_objx/lv_tileview.c ****         }
 1351              		.loc 1 260 0
 1352 00c0 01A8     		add	r0, sp, #4
ARM GAS  C:\Users\pearlstl\AppData\Local\Temp\ccIMJlIA.s 			page 43


 258:..\..\..\lvgl\version_6.1.2\lvgl\src\lv_objx/lv_tileview.c ****             a.end   = x_coord;
 1353              		.loc 1 258 0
 1354 00c2 CDF81490 		str	r9, [sp, #20]
 259:..\..\..\lvgl\version_6.1.2\lvgl\src\lv_objx/lv_tileview.c ****             lv_anim_create(&a);
 1355              		.loc 1 259 0
 1356 00c6 0694     		str	r4, [sp, #24]
 260:..\..\..\lvgl\version_6.1.2\lvgl\src\lv_objx/lv_tileview.c ****         }
 1357              		.loc 1 260 0
 1358 00c8 FFF7FEFF 		bl	lv_anim_create
 1359              	.LVL160:
 1360              	.L143:
 263:..\..\..\lvgl\version_6.1.2\lvgl\src\lv_objx/lv_tileview.c ****             a.start   = y_act;
 1361              		.loc 1 263 0
 1362 00cc 4545     		cmp	r5, r8
 1363 00ce 0CD0     		beq	.L145
 266:..\..\..\lvgl\version_6.1.2\lvgl\src\lv_objx/lv_tileview.c ****             lv_anim_create(&a);
 1364              		.loc 1 266 0
 1365 00d0 0D4B     		ldr	r3, .L162+8
 264:..\..\..\lvgl\version_6.1.2\lvgl\src\lv_objx/lv_tileview.c ****             a.end     = y_coord;
 1366              		.loc 1 264 0
 1367 00d2 CDF81480 		str	r8, [sp, #20]
 267:..\..\..\lvgl\version_6.1.2\lvgl\src\lv_objx/lv_tileview.c ****         }
 1368              		.loc 1 267 0
 1369 00d6 01A8     		add	r0, sp, #4
 265:..\..\..\lvgl\version_6.1.2\lvgl\src\lv_objx/lv_tileview.c ****             a.exec_cb = (lv_anim_exec_xcb_t)lv_obj_set_y;
 1370              		.loc 1 265 0
 1371 00d8 0695     		str	r5, [sp, #24]
 266:..\..\..\lvgl\version_6.1.2\lvgl\src\lv_objx/lv_tileview.c ****             lv_anim_create(&a);
 1372              		.loc 1 266 0
 1373 00da 0293     		str	r3, [sp, #8]
 267:..\..\..\lvgl\version_6.1.2\lvgl\src\lv_objx/lv_tileview.c ****         }
 1374              		.loc 1 267 0
 1375 00dc FFF7FEFF 		bl	lv_anim_create
 1376              	.LVL161:
 1377 00e0 03E0     		b	.L145
 1378              	.LVL162:
 1379              	.L161:
 1380              	.LBE53:
 271:..\..\..\lvgl\version_6.1.2\lvgl\src\lv_objx/lv_tileview.c ****     }
 1381              		.loc 1 271 0
 1382 00e2 2A46     		mov	r2, r5
 1383 00e4 2146     		mov	r1, r4
 1384 00e6 FFF7FEFF 		bl	lv_obj_set_pos
 1385              	.LVL163:
 1386              	.L145:
 275:..\..\..\lvgl\version_6.1.2\lvgl\src\lv_objx/lv_tileview.c ****     if(res != LV_RES_OK) return; /*Prevent the tile loading*/
 1387              		.loc 1 275 0
 1388 00ea 3846     		mov	r0, r7
 1389 00ec 6A46     		mov	r2, sp
 1390 00ee 0E21     		movs	r1, #14
 1391 00f0 FFF7FEFF 		bl	lv_event_send
 1392              	.LVL164:
 1393              	.L138:
 277:..\..\..\lvgl\version_6.1.2\lvgl\src\lv_objx/lv_tileview.c **** 
 1394              		.loc 1 277 0
 1395 00f4 0AB0     		add	sp, sp, #40
 1396              		.cfi_remember_state
ARM GAS  C:\Users\pearlstl\AppData\Local\Temp\ccIMJlIA.s 			page 44


 1397              		.cfi_def_cfa_offset 32
 1398              		@ sp needed
 1399 00f6 BDE8F087 		pop	{r4, r5, r6, r7, r8, r9, r10, pc}
 1400              	.LVL165:
 1401              	.L160:
 1402              		.cfi_restore_state
 1403 00fa 0093     		str	r3, [sp]
 1404 00fc A4E7     		b	.L146
 1405              	.L163:
 1406 00fe 00BF     		.align	2
 1407              	.L162:
 1408 0100 00000000 		.word	lv_obj_set_x
 1409 0104 00000000 		.word	lv_anim_path_linear
 1410 0108 00000000 		.word	lv_obj_set_y
 1411              		.cfi_endproc
 1412              	.LFE55:
 1413              		.size	lv_tileview_set_tile_act, .-lv_tileview_set_tile_act
 1414              		.section	.text.tileview_scrl_event_cb,"ax",%progbits
 1415              		.align	2
 1416              		.thumb
 1417              		.thumb_func
 1418              		.type	tileview_scrl_event_cb, %function
 1419              	tileview_scrl_event_cb:
 1420              	.LFB60:
 479:..\..\..\lvgl\version_6.1.2\lvgl\src\lv_objx/lv_tileview.c **** 
 480:..\..\..\lvgl\version_6.1.2\lvgl\src\lv_objx/lv_tileview.c **** static void tileview_scrl_event_cb(lv_obj_t * scrl, lv_event_t event)
 481:..\..\..\lvgl\version_6.1.2\lvgl\src\lv_objx/lv_tileview.c **** {
 1421              		.loc 1 481 0
 1422              		.cfi_startproc
 1423              		@ args = 0, pretend = 0, frame = 8
 1424              		@ frame_needed = 0, uses_anonymous_args = 0
 1425              	.LVL166:
 1426 0000 2DE9F04F 		push	{r4, r5, r6, r7, r8, r9, r10, fp, lr}
 1427              		.cfi_def_cfa_offset 36
 1428              		.cfi_offset 4, -36
 1429              		.cfi_offset 5, -32
 1430              		.cfi_offset 6, -28
 1431              		.cfi_offset 7, -24
 1432              		.cfi_offset 8, -20
 1433              		.cfi_offset 9, -16
 1434              		.cfi_offset 10, -12
 1435              		.cfi_offset 11, -8
 1436              		.cfi_offset 14, -4
 1437 0004 83B0     		sub	sp, sp, #12
 1438              		.cfi_def_cfa_offset 48
 1439              		.loc 1 481 0
 1440 0006 0C46     		mov	r4, r1
 482:..\..\..\lvgl\version_6.1.2\lvgl\src\lv_objx/lv_tileview.c ****     lv_obj_t * tileview = lv_obj_get_parent(scrl);
 1441              		.loc 1 482 0
 1442 0008 FFF7FEFF 		bl	lv_obj_get_parent
 1443              	.LVL167:
 1444 000c 0546     		mov	r5, r0
 1445              	.LVL168:
 483:..\..\..\lvgl\version_6.1.2\lvgl\src\lv_objx/lv_tileview.c **** 
 484:..\..\..\lvgl\version_6.1.2\lvgl\src\lv_objx/lv_tileview.c ****     /*Initialize some variables on PRESS*/
 485:..\..\..\lvgl\version_6.1.2\lvgl\src\lv_objx/lv_tileview.c ****     if(event == LV_EVENT_PRESSED) {
 1446              		.loc 1 485 0
ARM GAS  C:\Users\pearlstl\AppData\Local\Temp\ccIMJlIA.s 			page 45


 1447 000e 002C     		cmp	r4, #0
 1448 0010 77D0     		beq	.L213
 486:..\..\..\lvgl\version_6.1.2\lvgl\src\lv_objx/lv_tileview.c ****         lv_tileview_ext_t * ext = lv_obj_get_ext_attr(tileview);
 487:..\..\..\lvgl\version_6.1.2\lvgl\src\lv_objx/lv_tileview.c ****         ext->drag_hor           = 0;
 488:..\..\..\lvgl\version_6.1.2\lvgl\src\lv_objx/lv_tileview.c ****         ext->drag_ver           = 0;
 489:..\..\..\lvgl\version_6.1.2\lvgl\src\lv_objx/lv_tileview.c ****         set_valid_drag_dirs(tileview);
 490:..\..\..\lvgl\version_6.1.2\lvgl\src\lv_objx/lv_tileview.c ****     }
 491:..\..\..\lvgl\version_6.1.2\lvgl\src\lv_objx/lv_tileview.c ****     /*Animate the tabview to the correct location on RELEASE*/
 492:..\..\..\lvgl\version_6.1.2\lvgl\src\lv_objx/lv_tileview.c ****     else if(event == LV_EVENT_PRESS_LOST || event == LV_EVENT_RELEASED) {
 1449              		.loc 1 492 0
 1450 0012 022C     		cmp	r4, #2
 1451 0014 04D0     		beq	.L174
 1452              		.loc 1 492 0 is_stmt 0 discriminator 1
 1453 0016 072C     		cmp	r4, #7
 1454 0018 02D0     		beq	.L174
 1455              	.LVL169:
 1456              	.L164:
 493:..\..\..\lvgl\version_6.1.2\lvgl\src\lv_objx/lv_tileview.c ****         /* If the element was dragged and it moved the tileview finish the drag manually to
 494:..\..\..\lvgl\version_6.1.2\lvgl\src\lv_objx/lv_tileview.c ****          * let the tileview to finish the move.*/
 495:..\..\..\lvgl\version_6.1.2\lvgl\src\lv_objx/lv_tileview.c ****         lv_indev_t * indev      = lv_indev_get_act();
 496:..\..\..\lvgl\version_6.1.2\lvgl\src\lv_objx/lv_tileview.c ****         lv_tileview_ext_t * ext = lv_obj_get_ext_attr(tileview);
 497:..\..\..\lvgl\version_6.1.2\lvgl\src\lv_objx/lv_tileview.c ****         if(lv_indev_is_dragging(indev) && (ext->drag_hor || ext->drag_ver)) {
 498:..\..\..\lvgl\version_6.1.2\lvgl\src\lv_objx/lv_tileview.c ****             indev->proc.types.pointer.drag_in_prog = 0;
 499:..\..\..\lvgl\version_6.1.2\lvgl\src\lv_objx/lv_tileview.c ****             drag_end_handler(tileview);
 500:..\..\..\lvgl\version_6.1.2\lvgl\src\lv_objx/lv_tileview.c ****         }
 501:..\..\..\lvgl\version_6.1.2\lvgl\src\lv_objx/lv_tileview.c **** 
 502:..\..\..\lvgl\version_6.1.2\lvgl\src\lv_objx/lv_tileview.c ****     }
 503:..\..\..\lvgl\version_6.1.2\lvgl\src\lv_objx/lv_tileview.c **** }
 1457              		.loc 1 503 0 is_stmt 1
 1458 001a 03B0     		add	sp, sp, #12
 1459              		.cfi_remember_state
 1460              		.cfi_def_cfa_offset 36
 1461              		@ sp needed
 1462 001c BDE8F08F 		pop	{r4, r5, r6, r7, r8, r9, r10, fp, pc}
 1463              	.LVL170:
 1464              	.L174:
 1465              		.cfi_restore_state
 1466              	.LBB62:
 495:..\..\..\lvgl\version_6.1.2\lvgl\src\lv_objx/lv_tileview.c ****         lv_tileview_ext_t * ext = lv_obj_get_ext_attr(tileview);
 1467              		.loc 1 495 0
 1468 0020 FFF7FEFF 		bl	lv_indev_get_act
 1469              	.LVL171:
 1470 0024 0446     		mov	r4, r0
 1471              	.LVL172:
 496:..\..\..\lvgl\version_6.1.2\lvgl\src\lv_objx/lv_tileview.c ****         if(lv_indev_is_dragging(indev) && (ext->drag_hor || ext->drag_ver)) {
 1472              		.loc 1 496 0
 1473 0026 2846     		mov	r0, r5
 1474              	.LVL173:
 1475 0028 FFF7FEFF 		bl	lv_obj_get_ext_attr
 1476              	.LVL174:
 1477 002c 0646     		mov	r6, r0
 1478              	.LVL175:
 497:..\..\..\lvgl\version_6.1.2\lvgl\src\lv_objx/lv_tileview.c ****             indev->proc.types.pointer.drag_in_prog = 0;
 1479              		.loc 1 497 0
 1480 002e 2046     		mov	r0, r4
 1481              	.LVL176:
 1482 0030 FFF7FEFF 		bl	lv_indev_is_dragging
ARM GAS  C:\Users\pearlstl\AppData\Local\Temp\ccIMJlIA.s 			page 46


 1483              	.LVL177:
 1484 0034 0028     		cmp	r0, #0
 1485 0036 F0D0     		beq	.L164
 497:..\..\..\lvgl\version_6.1.2\lvgl\src\lv_objx/lv_tileview.c ****             indev->proc.types.pointer.drag_in_prog = 0;
 1486              		.loc 1 497 0 is_stmt 0 discriminator 1
 1487 0038 96F83C30 		ldrb	r3, [r6, #60]	@ zero_extendqisi2
 1488 003c 13F0300F 		tst	r3, #48
 1489 0040 EBD0     		beq	.L164
 498:..\..\..\lvgl\version_6.1.2\lvgl\src\lv_objx/lv_tileview.c ****             drag_end_handler(tileview);
 1490              		.loc 1 498 0 is_stmt 1
 1491 0042 94F84030 		ldrb	r3, [r4, #64]	@ zero_extendqisi2
 1492 0046 6FF34103 		bfc	r3, #1, #1
 1493 004a 84F84030 		strb	r3, [r4, #64]
 1494              	.LVL178:
 1495              	.LBB63:
 1496              	.LBB64:
 504:..\..\..\lvgl\version_6.1.2\lvgl\src\lv_objx/lv_tileview.c **** 
 505:..\..\..\lvgl\version_6.1.2\lvgl\src\lv_objx/lv_tileview.c **** /**
 506:..\..\..\lvgl\version_6.1.2\lvgl\src\lv_objx/lv_tileview.c ****  * Called when the user releases an element of the tileview after dragging it.
 507:..\..\..\lvgl\version_6.1.2\lvgl\src\lv_objx/lv_tileview.c ****  * @param tileview pointer to a tileview object
 508:..\..\..\lvgl\version_6.1.2\lvgl\src\lv_objx/lv_tileview.c ****  */
 509:..\..\..\lvgl\version_6.1.2\lvgl\src\lv_objx/lv_tileview.c **** static void drag_end_handler(lv_obj_t * tileview)
 510:..\..\..\lvgl\version_6.1.2\lvgl\src\lv_objx/lv_tileview.c **** {
 511:..\..\..\lvgl\version_6.1.2\lvgl\src\lv_objx/lv_tileview.c ****     lv_tileview_ext_t * ext = lv_obj_get_ext_attr(tileview);
 1497              		.loc 1 511 0
 1498 004e 2846     		mov	r0, r5
 1499 0050 FFF7FEFF 		bl	lv_obj_get_ext_attr
 1500              	.LVL179:
 1501 0054 0446     		mov	r4, r0
 1502              	.LVL180:
 512:..\..\..\lvgl\version_6.1.2\lvgl\src\lv_objx/lv_tileview.c ****     lv_indev_t * indev      = lv_indev_get_act();
 1503              		.loc 1 512 0
 1504 0056 FFF7FEFF 		bl	lv_indev_get_act
 1505              	.LVL181:
 513:..\..\..\lvgl\version_6.1.2\lvgl\src\lv_objx/lv_tileview.c ****     lv_point_t point_act;
 514:..\..\..\lvgl\version_6.1.2\lvgl\src\lv_objx/lv_tileview.c ****     lv_indev_get_point(indev, &point_act);
 1506              		.loc 1 514 0
 1507 005a 6946     		mov	r1, sp
 512:..\..\..\lvgl\version_6.1.2\lvgl\src\lv_objx/lv_tileview.c ****     lv_indev_t * indev      = lv_indev_get_act();
 1508              		.loc 1 512 0
 1509 005c 8346     		mov	fp, r0
 1510              	.LVL182:
 1511              		.loc 1 514 0
 1512 005e FFF7FEFF 		bl	lv_indev_get_point
 1513              	.LVL183:
 515:..\..\..\lvgl\version_6.1.2\lvgl\src\lv_objx/lv_tileview.c ****     lv_obj_t * scrl = lv_page_get_scrl(tileview);
 1514              		.loc 1 515 0
 1515 0062 2846     		mov	r0, r5
 1516 0064 FFF7FEFF 		bl	lv_page_get_scrl
 1517              	.LVL184:
 1518 0068 0646     		mov	r6, r0
 1519              	.LVL185:
 516:..\..\..\lvgl\version_6.1.2\lvgl\src\lv_objx/lv_tileview.c ****     lv_point_t p;
 517:..\..\..\lvgl\version_6.1.2\lvgl\src\lv_objx/lv_tileview.c **** 
 518:..\..\..\lvgl\version_6.1.2\lvgl\src\lv_objx/lv_tileview.c ****     p.x = -(scrl->coords.x1 - lv_obj_get_width(tileview) / 2);
 1520              		.loc 1 518 0
 1521 006a 2846     		mov	r0, r5
ARM GAS  C:\Users\pearlstl\AppData\Local\Temp\ccIMJlIA.s 			page 47


 1522              	.LVL186:
 1523 006c FFF7FEFF 		bl	lv_obj_get_width
 1524              	.LVL187:
 1525 0070 338A     		ldrh	r3, [r6, #16]
 1526 0072 00EBD070 		add	r0, r0, r0, lsr #31
 1527 0076 C3EB6007 		rsb	r7, r3, r0, asr #1
 519:..\..\..\lvgl\version_6.1.2\lvgl\src\lv_objx/lv_tileview.c ****     p.y = -(scrl->coords.y1 - lv_obj_get_height(tileview) / 2);
 1528              		.loc 1 519 0
 1529 007a 2846     		mov	r0, r5
 1530 007c FFF7FEFF 		bl	lv_obj_get_height
 1531              	.LVL188:
 1532 0080 738A     		ldrh	r3, [r6, #18]
 520:..\..\..\lvgl\version_6.1.2\lvgl\src\lv_objx/lv_tileview.c **** 
 521:..\..\..\lvgl\version_6.1.2\lvgl\src\lv_objx/lv_tileview.c ****     /*From the drag vector (drag throw) predict the end position*/
 522:..\..\..\lvgl\version_6.1.2\lvgl\src\lv_objx/lv_tileview.c ****     if(ext->drag_hor) {
 1533              		.loc 1 522 0
 1534 0082 94F83C20 		ldrb	r2, [r4, #60]	@ zero_extendqisi2
 519:..\..\..\lvgl\version_6.1.2\lvgl\src\lv_objx/lv_tileview.c ****     p.y = -(scrl->coords.y1 - lv_obj_get_height(tileview) / 2);
 1535              		.loc 1 519 0
 1536 0086 00EBD070 		add	r0, r0, r0, lsr #31
 1537 008a C3EB6009 		rsb	r9, r3, r0, asr #1
 518:..\..\..\lvgl\version_6.1.2\lvgl\src\lv_objx/lv_tileview.c ****     p.y = -(scrl->coords.y1 - lv_obj_get_height(tileview) / 2);
 1538              		.loc 1 518 0
 1539 008e BFB2     		uxth	r7, r7
 519:..\..\..\lvgl\version_6.1.2\lvgl\src\lv_objx/lv_tileview.c ****     p.y = -(scrl->coords.y1 - lv_obj_get_height(tileview) / 2);
 1540              		.loc 1 519 0
 1541 0090 1FFA89F9 		uxth	r9, r9
 1542              		.loc 1 522 0
 1543 0094 02F01003 		and	r3, r2, #16
 518:..\..\..\lvgl\version_6.1.2\lvgl\src\lv_objx/lv_tileview.c ****     p.y = -(scrl->coords.y1 - lv_obj_get_height(tileview) / 2);
 1544              		.loc 1 518 0
 1545 0098 0FFA87F8 		sxth	r8, r7
 1546              	.LVL189:
 519:..\..\..\lvgl\version_6.1.2\lvgl\src\lv_objx/lv_tileview.c ****     p.y = -(scrl->coords.y1 - lv_obj_get_height(tileview) / 2);
 1547              		.loc 1 519 0
 1548 009c 0FFA89F6 		sxth	r6, r9
 1549              	.LVL190:
 1550              		.loc 1 522 0
 1551 00a0 03F0FF0A 		and	r10, r3, #255
 1552 00a4 002B     		cmp	r3, #0
 1553 00a6 40F0C680 		bne	.L214
 523:..\..\..\lvgl\version_6.1.2\lvgl\src\lv_objx/lv_tileview.c ****         lv_point_t vect;
 524:..\..\..\lvgl\version_6.1.2\lvgl\src\lv_objx/lv_tileview.c ****         lv_indev_get_vect(indev, &vect);
 525:..\..\..\lvgl\version_6.1.2\lvgl\src\lv_objx/lv_tileview.c ****         lv_coord_t predict = 0;
 526:..\..\..\lvgl\version_6.1.2\lvgl\src\lv_objx/lv_tileview.c **** 
 527:..\..\..\lvgl\version_6.1.2\lvgl\src\lv_objx/lv_tileview.c ****         while(vect.x != 0) {
 528:..\..\..\lvgl\version_6.1.2\lvgl\src\lv_objx/lv_tileview.c ****             predict += vect.x;
 529:..\..\..\lvgl\version_6.1.2\lvgl\src\lv_objx/lv_tileview.c ****             vect.x = vect.x * (100 - LV_INDEV_DEF_DRAG_THROW) / 100;
 530:..\..\..\lvgl\version_6.1.2\lvgl\src\lv_objx/lv_tileview.c ****         }
 531:..\..\..\lvgl\version_6.1.2\lvgl\src\lv_objx/lv_tileview.c **** 
 532:..\..\..\lvgl\version_6.1.2\lvgl\src\lv_objx/lv_tileview.c ****         p.x -= predict;
 533:..\..\..\lvgl\version_6.1.2\lvgl\src\lv_objx/lv_tileview.c ****     } else if(ext->drag_ver) {
 1554              		.loc 1 533 0
 1555 00aa 9306     		lsls	r3, r2, #26
 1556 00ac 00F1A780 		bmi	.L215
 1557              	.L178:
 534:..\..\..\lvgl\version_6.1.2\lvgl\src\lv_objx/lv_tileview.c ****         lv_point_t vect;
ARM GAS  C:\Users\pearlstl\AppData\Local\Temp\ccIMJlIA.s 			page 48


 535:..\..\..\lvgl\version_6.1.2\lvgl\src\lv_objx/lv_tileview.c ****         lv_indev_get_vect(indev, &vect);
 536:..\..\..\lvgl\version_6.1.2\lvgl\src\lv_objx/lv_tileview.c ****         lv_coord_t predict = 0;
 537:..\..\..\lvgl\version_6.1.2\lvgl\src\lv_objx/lv_tileview.c **** 
 538:..\..\..\lvgl\version_6.1.2\lvgl\src\lv_objx/lv_tileview.c ****         while(vect.y != 0) {
 539:..\..\..\lvgl\version_6.1.2\lvgl\src\lv_objx/lv_tileview.c ****             predict += vect.y;
 540:..\..\..\lvgl\version_6.1.2\lvgl\src\lv_objx/lv_tileview.c ****             vect.y = vect.y * (100 - LV_INDEV_DEF_DRAG_THROW) / 100;
 541:..\..\..\lvgl\version_6.1.2\lvgl\src\lv_objx/lv_tileview.c ****         }
 542:..\..\..\lvgl\version_6.1.2\lvgl\src\lv_objx/lv_tileview.c **** 
 543:..\..\..\lvgl\version_6.1.2\lvgl\src\lv_objx/lv_tileview.c ****         p.y -= predict;
 544:..\..\..\lvgl\version_6.1.2\lvgl\src\lv_objx/lv_tileview.c ****     }
 545:..\..\..\lvgl\version_6.1.2\lvgl\src\lv_objx/lv_tileview.c **** 
 546:..\..\..\lvgl\version_6.1.2\lvgl\src\lv_objx/lv_tileview.c ****     /*Get the index of the tile*/
 547:..\..\..\lvgl\version_6.1.2\lvgl\src\lv_objx/lv_tileview.c ****     p.x = p.x / lv_obj_get_width(tileview);
 1558              		.loc 1 547 0
 1559 00b0 2846     		mov	r0, r5
 1560 00b2 FFF7FEFF 		bl	lv_obj_get_width
 1561              	.LVL191:
 1562 00b6 98FBF0F8 		sdiv	r8, r8, r0
 1563              	.LVL192:
 548:..\..\..\lvgl\version_6.1.2\lvgl\src\lv_objx/lv_tileview.c ****     p.y = p.y / lv_obj_get_height(tileview);
 1564              		.loc 1 548 0
 1565 00ba 2846     		mov	r0, r5
 1566 00bc FFF7FEFF 		bl	lv_obj_get_height
 1567              	.LVL193:
 549:..\..\..\lvgl\version_6.1.2\lvgl\src\lv_objx/lv_tileview.c **** 
 550:..\..\..\lvgl\version_6.1.2\lvgl\src\lv_objx/lv_tileview.c ****     /*Max +- move*/
 551:..\..\..\lvgl\version_6.1.2\lvgl\src\lv_objx/lv_tileview.c ****     lv_coord_t x_move = p.x - ext->act_id.x;
 1568              		.loc 1 551 0
 1569 00c0 218F     		ldrh	r1, [r4, #56]
 552:..\..\..\lvgl\version_6.1.2\lvgl\src\lv_objx/lv_tileview.c ****     lv_coord_t y_move = p.y - ext->act_id.y;
 1570              		.loc 1 552 0
 1571 00c2 648F     		ldrh	r4, [r4, #58]
 1572              	.LVL194:
 1573 00c4 96FBF0F0 		sdiv	r0, r6, r0
 1574              	.LVL195:
 551:..\..\..\lvgl\version_6.1.2\lvgl\src\lv_objx/lv_tileview.c ****     lv_coord_t y_move = p.y - ext->act_id.y;
 1575              		.loc 1 551 0
 1576 00c8 C1EB0808 		rsb	r8, r1, r8
 1577              	.LVL196:
 1578 00cc 1FFA88F3 		uxth	r3, r8
 1579              		.loc 1 552 0
 1580 00d0 001B     		subs	r0, r0, r4
 551:..\..\..\lvgl\version_6.1.2\lvgl\src\lv_objx/lv_tileview.c ****     lv_coord_t y_move = p.y - ext->act_id.y;
 1581              		.loc 1 551 0
 1582 00d2 1EB2     		sxth	r6, r3
 1583              	.LVL197:
 1584              		.loc 1 552 0
 1585 00d4 82B2     		uxth	r2, r0
 553:..\..\..\lvgl\version_6.1.2\lvgl\src\lv_objx/lv_tileview.c ****     if(x_move < -1) x_move = -1;
 1586              		.loc 1 553 0
 1587 00d6 771C     		adds	r7, r6, #1
 552:..\..\..\lvgl\version_6.1.2\lvgl\src\lv_objx/lv_tileview.c ****     lv_coord_t y_move = p.y - ext->act_id.y;
 1588              		.loc 1 552 0
 1589 00d8 10B2     		sxth	r0, r2
 1590              	.LVL198:
 1591              		.loc 1 553 0
 1592 00da C0F2CE80 		blt	.L190
ARM GAS  C:\Users\pearlstl\AppData\Local\Temp\ccIMJlIA.s 			page 49


 554:..\..\..\lvgl\version_6.1.2\lvgl\src\lv_objx/lv_tileview.c ****     if(x_move > 1) x_move = 1;
 1593              		.loc 1 554 0
 1594 00de 022E     		cmp	r6, #2
 1595 00e0 A8BF     		it	ge
 1596 00e2 0123     		movge	r3, #1
 1597              	.LVL199:
 1598              	.L182:
 555:..\..\..\lvgl\version_6.1.2\lvgl\src\lv_objx/lv_tileview.c ****     if(y_move < -1) y_move = -1;
 1599              		.loc 1 555 0
 1600 00e4 461C     		adds	r6, r0, #1
 1601 00e6 C0F2C580 		blt	.L192
 556:..\..\..\lvgl\version_6.1.2\lvgl\src\lv_objx/lv_tileview.c ****     if(y_move > 1) y_move = 1;
 1602              		.loc 1 556 0
 1603 00ea 0228     		cmp	r0, #2
 1604 00ec A8BF     		it	ge
 1605 00ee 0122     		movge	r2, #1
 1606              	.LVL200:
 1607              	.L184:
 557:..\..\..\lvgl\version_6.1.2\lvgl\src\lv_objx/lv_tileview.c **** 
 558:..\..\..\lvgl\version_6.1.2\lvgl\src\lv_objx/lv_tileview.c ****     /*Set the new tile*/
 559:..\..\..\lvgl\version_6.1.2\lvgl\src\lv_objx/lv_tileview.c ****     lv_tileview_set_tile_act(tileview, ext->act_id.x + x_move, ext->act_id.y + y_move, true);
 1608              		.loc 1 559 0
 1609 00f0 2244     		add	r2, r2, r4
 1610 00f2 1944     		add	r1, r1, r3
 1611 00f4 12B2     		sxth	r2, r2
 1612 00f6 09B2     		sxth	r1, r1
 1613 00f8 2846     		mov	r0, r5
 1614 00fa 0123     		movs	r3, #1
 1615 00fc FFF7FEFF 		bl	lv_tileview_set_tile_act
 1616              	.LVL201:
 1617              	.LBE64:
 1618              	.LBE63:
 1619              	.LBE62:
 503:..\..\..\lvgl\version_6.1.2\lvgl\src\lv_objx/lv_tileview.c **** 
 1620              		.loc 1 503 0
 1621 0100 8BE7     		b	.L164
 1622              	.LVL202:
 1623              	.L213:
 1624              	.LBB71:
 486:..\..\..\lvgl\version_6.1.2\lvgl\src\lv_objx/lv_tileview.c ****         ext->drag_hor           = 0;
 1625              		.loc 1 486 0
 1626 0102 FFF7FEFF 		bl	lv_obj_get_ext_attr
 1627              	.LVL203:
 1628 0106 0246     		mov	r2, r0
 1629              	.LVL204:
 1630              	.LBB72:
 1631              	.LBB73:
 560:..\..\..\lvgl\version_6.1.2\lvgl\src\lv_objx/lv_tileview.c **** }
 561:..\..\..\lvgl\version_6.1.2\lvgl\src\lv_objx/lv_tileview.c **** 
 562:..\..\..\lvgl\version_6.1.2\lvgl\src\lv_objx/lv_tileview.c **** static bool set_valid_drag_dirs(lv_obj_t * tileview)
 563:..\..\..\lvgl\version_6.1.2\lvgl\src\lv_objx/lv_tileview.c **** {
 564:..\..\..\lvgl\version_6.1.2\lvgl\src\lv_objx/lv_tileview.c **** 
 565:..\..\..\lvgl\version_6.1.2\lvgl\src\lv_objx/lv_tileview.c ****     lv_tileview_ext_t * ext = lv_obj_get_ext_attr(tileview);
 1632              		.loc 1 565 0
 1633 0108 2846     		mov	r0, r5
 1634              	.LVL205:
 1635              	.LBE73:
ARM GAS  C:\Users\pearlstl\AppData\Local\Temp\ccIMJlIA.s 			page 50


 1636              	.LBE72:
 487:..\..\..\lvgl\version_6.1.2\lvgl\src\lv_objx/lv_tileview.c ****         ext->drag_ver           = 0;
 1637              		.loc 1 487 0
 1638 010a 92F83C30 		ldrb	r3, [r2, #60]	@ zero_extendqisi2
 1639 010e 64F30413 		bfi	r3, r4, #4, #1
 488:..\..\..\lvgl\version_6.1.2\lvgl\src\lv_objx/lv_tileview.c ****         set_valid_drag_dirs(tileview);
 1640              		.loc 1 488 0
 1641 0112 64F34513 		bfi	r3, r4, #5, #1
 1642 0116 82F83C30 		strb	r3, [r2, #60]
 1643              	.LVL206:
 1644              	.LBB75:
 1645              	.LBB74:
 1646              		.loc 1 565 0
 1647 011a FFF7FEFF 		bl	lv_obj_get_ext_attr
 1648              	.LVL207:
 566:..\..\..\lvgl\version_6.1.2\lvgl\src\lv_objx/lv_tileview.c ****     if(ext->valid_pos == NULL) return false;
 1649              		.loc 1 566 0
 1650 011e 026B     		ldr	r2, [r0, #48]
 1651 0120 002A     		cmp	r2, #0
 1652 0122 3FF47AAF 		beq	.L164
 567:..\..\..\lvgl\version_6.1.2\lvgl\src\lv_objx/lv_tileview.c **** 
 568:..\..\..\lvgl\version_6.1.2\lvgl\src\lv_objx/lv_tileview.c ****     ext->drag_bottom_en = 0;
 1653              		.loc 1 568 0
 1654 0126 90F83C30 		ldrb	r3, [r0, #60]	@ zero_extendqisi2
 569:..\..\..\lvgl\version_6.1.2\lvgl\src\lv_objx/lv_tileview.c ****     ext->drag_top_en    = 0;
 570:..\..\..\lvgl\version_6.1.2\lvgl\src\lv_objx/lv_tileview.c ****     ext->drag_left_en   = 0;
 571:..\..\..\lvgl\version_6.1.2\lvgl\src\lv_objx/lv_tileview.c ****     ext->drag_right_en  = 0;
 572:..\..\..\lvgl\version_6.1.2\lvgl\src\lv_objx/lv_tileview.c **** 
 573:..\..\..\lvgl\version_6.1.2\lvgl\src\lv_objx/lv_tileview.c ****     uint16_t i;
 574:..\..\..\lvgl\version_6.1.2\lvgl\src\lv_objx/lv_tileview.c ****     for(i = 0; i < ext->valid_pos_cnt; i++) {
 1655              		.loc 1 574 0
 1656 012a 818E     		ldrh	r1, [r0, #52]
 568:..\..\..\lvgl\version_6.1.2\lvgl\src\lv_objx/lv_tileview.c ****     ext->drag_top_en    = 0;
 1657              		.loc 1 568 0
 1658 012c 64F34103 		bfi	r3, r4, #1, #1
 569:..\..\..\lvgl\version_6.1.2\lvgl\src\lv_objx/lv_tileview.c ****     ext->drag_top_en    = 0;
 1659              		.loc 1 569 0
 1660 0130 64F30003 		bfi	r3, r4, #0, #1
 570:..\..\..\lvgl\version_6.1.2\lvgl\src\lv_objx/lv_tileview.c ****     ext->drag_right_en  = 0;
 1661              		.loc 1 570 0
 1662 0134 64F38203 		bfi	r3, r4, #2, #1
 571:..\..\..\lvgl\version_6.1.2\lvgl\src\lv_objx/lv_tileview.c **** 
 1663              		.loc 1 571 0
 1664 0138 64F3C303 		bfi	r3, r4, #3, #1
 1665 013c 80F83C30 		strb	r3, [r0, #60]
 1666              	.LVL208:
 1667              		.loc 1 574 0
 1668 0140 0029     		cmp	r1, #0
 1669 0142 3FF46AAF 		beq	.L164
 1670 0146 4C1E     		subs	r4, r1, #1
 1671 0148 B0F938E0 		ldrsh	lr, [r0, #56]
 1672 014c A4B2     		uxth	r4, r4
 1673 014e 0134     		adds	r4, r4, #1
 1674 0150 02EB8404 		add	r4, r2, r4, lsl #2
 1675 0154 911C     		adds	r1, r2, #2
 1676 0156 0EF1FF36 		add	r6, lr, #-1
 575:..\..\..\lvgl\version_6.1.2\lvgl\src\lv_objx/lv_tileview.c ****         if(ext->valid_pos[i].x == ext->act_id.x && ext->valid_pos[i].y == ext->act_id.y - 1) ext->d
ARM GAS  C:\Users\pearlstl\AppData\Local\Temp\ccIMJlIA.s 			page 51


 576:..\..\..\lvgl\version_6.1.2\lvgl\src\lv_objx/lv_tileview.c ****         if(ext->valid_pos[i].x == ext->act_id.x && ext->valid_pos[i].y == ext->act_id.y + 1) ext->d
 577:..\..\..\lvgl\version_6.1.2\lvgl\src\lv_objx/lv_tileview.c ****         if(ext->valid_pos[i].x == ext->act_id.x - 1 && ext->valid_pos[i].y == ext->act_id.y) ext->d
 578:..\..\..\lvgl\version_6.1.2\lvgl\src\lv_objx/lv_tileview.c ****         if(ext->valid_pos[i].x == ext->act_id.x + 1 && ext->valid_pos[i].y == ext->act_id.y) ext->d
 1677              		.loc 1 578 0
 1678 015a 0EF10107 		add	r7, lr, #1
 1679 015e 09E0     		b	.L173
 1680              	.LVL209:
 1681              	.L169:
 577:..\..\..\lvgl\version_6.1.2\lvgl\src\lv_objx/lv_tileview.c ****         if(ext->valid_pos[i].x == ext->act_id.x + 1 && ext->valid_pos[i].y == ext->act_id.y) ext->d
 1682              		.loc 1 577 0
 1683 0160 B342     		cmp	r3, r6
 1684 0162 19D0     		beq	.L216
 1685              	.L171:
 1686              		.loc 1 578 0
 1687 0164 9F42     		cmp	r7, r3
 1688 0166 27D0     		beq	.L217
 1689              	.L172:
 1690 0168 0432     		adds	r2, r2, #4
 574:..\..\..\lvgl\version_6.1.2\lvgl\src\lv_objx/lv_tileview.c ****         if(ext->valid_pos[i].x == ext->act_id.x && ext->valid_pos[i].y == ext->act_id.y - 1) ext->d
 1691              		.loc 1 574 0
 1692 016a 9442     		cmp	r4, r2
 1693 016c 01F10401 		add	r1, r1, #4
 1694 0170 3FF453AF 		beq	.L164
 1695              	.L173:
 575:..\..\..\lvgl\version_6.1.2\lvgl\src\lv_objx/lv_tileview.c ****         if(ext->valid_pos[i].x == ext->act_id.x && ext->valid_pos[i].y == ext->act_id.y - 1) ext->d
 1696              		.loc 1 575 0
 1697 0174 31F9023C 		ldrsh	r3, [r1, #-2]
 1698 0178 7345     		cmp	r3, lr
 1699 017a F1D1     		bne	.L169
 1700 017c B0F93A50 		ldrsh	r5, [r0, #58]
 1701 0180 B2F90230 		ldrsh	r3, [r2, #2]
 1702 0184 05F1FF3C 		add	ip, r5, #-1
 1703 0188 6345     		cmp	r3, ip
 1704 018a 2BD0     		beq	.L218
 1705              	.L170:
 576:..\..\..\lvgl\version_6.1.2\lvgl\src\lv_objx/lv_tileview.c ****         if(ext->valid_pos[i].x == ext->act_id.x - 1 && ext->valid_pos[i].y == ext->act_id.y) ext->d
 1706              		.loc 1 576 0
 1707 018c 0135     		adds	r5, r5, #1
 1708 018e 9D42     		cmp	r5, r3
 1709 0190 1FD0     		beq	.L219
 1710 0192 7346     		mov	r3, lr
 577:..\..\..\lvgl\version_6.1.2\lvgl\src\lv_objx/lv_tileview.c ****         if(ext->valid_pos[i].x == ext->act_id.x + 1 && ext->valid_pos[i].y == ext->act_id.y) ext->d
 1711              		.loc 1 577 0
 1712 0194 B342     		cmp	r3, r6
 1713 0196 E5D1     		bne	.L171
 1714              	.L216:
 1715 0198 B2F90250 		ldrsh	r5, [r2, #2]
 1716 019c B0F93A30 		ldrsh	r3, [r0, #58]
 1717 01a0 9D42     		cmp	r5, r3
 1718 01a2 E1D1     		bne	.L172
 1719 01a4 90F83C30 		ldrb	r3, [r0, #60]	@ zero_extendqisi2
 1720 01a8 43F00403 		orr	r3, r3, #4
 1721 01ac 80F83C30 		strb	r3, [r0, #60]
 1722 01b0 31F9023C 		ldrsh	r3, [r1, #-2]
 1723              		.loc 1 578 0
 1724 01b4 9F42     		cmp	r7, r3
 1725 01b6 D7D1     		bne	.L172
ARM GAS  C:\Users\pearlstl\AppData\Local\Temp\ccIMJlIA.s 			page 52


 1726              	.L217:
 1727 01b8 B2F90250 		ldrsh	r5, [r2, #2]
 1728 01bc B0F93A30 		ldrsh	r3, [r0, #58]
 1729 01c0 9D42     		cmp	r5, r3
 1730 01c2 D1D1     		bne	.L172
 1731 01c4 90F83C30 		ldrb	r3, [r0, #60]	@ zero_extendqisi2
 1732 01c8 43F00803 		orr	r3, r3, #8
 1733 01cc 80F83C30 		strb	r3, [r0, #60]
 1734 01d0 CAE7     		b	.L172
 1735              	.L219:
 576:..\..\..\lvgl\version_6.1.2\lvgl\src\lv_objx/lv_tileview.c ****         if(ext->valid_pos[i].x == ext->act_id.x - 1 && ext->valid_pos[i].y == ext->act_id.y) ext->d
 1736              		.loc 1 576 0
 1737 01d2 90F83C30 		ldrb	r3, [r0, #60]	@ zero_extendqisi2
 1738 01d6 43F00203 		orr	r3, r3, #2
 1739 01da 80F83C30 		strb	r3, [r0, #60]
 1740 01de 31F9023C 		ldrsh	r3, [r1, #-2]
 1741 01e2 BDE7     		b	.L169
 1742              	.L218:
 575:..\..\..\lvgl\version_6.1.2\lvgl\src\lv_objx/lv_tileview.c ****         if(ext->valid_pos[i].x == ext->act_id.x && ext->valid_pos[i].y == ext->act_id.y + 1) ext->d
 1743              		.loc 1 575 0
 1744 01e4 90F83C30 		ldrb	r3, [r0, #60]	@ zero_extendqisi2
 1745 01e8 43F00103 		orr	r3, r3, #1
 1746 01ec 80F83C30 		strb	r3, [r0, #60]
 576:..\..\..\lvgl\version_6.1.2\lvgl\src\lv_objx/lv_tileview.c ****         if(ext->valid_pos[i].x == ext->act_id.x - 1 && ext->valid_pos[i].y == ext->act_id.y) ext->d
 1747              		.loc 1 576 0
 1748 01f0 31F9023C 		ldrsh	r3, [r1, #-2]
 1749 01f4 7345     		cmp	r3, lr
 1750 01f6 B3D1     		bne	.L169
 1751 01f8 B2F90230 		ldrsh	r3, [r2, #2]
 1752 01fc C6E7     		b	.L170
 1753              	.LVL210:
 1754              	.L215:
 1755              	.LBE74:
 1756              	.LBE75:
 1757              	.LBE71:
 1758              	.LBB76:
 1759              	.LBB70:
 1760              	.LBB69:
 1761              	.LBB65:
 535:..\..\..\lvgl\version_6.1.2\lvgl\src\lv_objx/lv_tileview.c ****         lv_coord_t predict = 0;
 1762              		.loc 1 535 0
 1763 01fe 5846     		mov	r0, fp
 1764 0200 01A9     		add	r1, sp, #4
 1765 0202 FFF7FEFF 		bl	lv_indev_get_vect
 1766              	.LVL211:
 538:..\..\..\lvgl\version_6.1.2\lvgl\src\lv_objx/lv_tileview.c ****             predict += vect.y;
 1767              		.loc 1 538 0
 1768 0206 BDF90600 		ldrsh	r0, [sp, #6]
 1769 020a 0028     		cmp	r0, #0
 1770 020c 3AD0     		beq	.L189
 540:..\..\..\lvgl\version_6.1.2\lvgl\src\lv_objx/lv_tileview.c ****         }
 1771              		.loc 1 540 0
 1772 020e 1E4F     		ldr	r7, .L220
 538:..\..\..\lvgl\version_6.1.2\lvgl\src\lv_objx/lv_tileview.c ****             predict += vect.y;
 1773              		.loc 1 538 0
 1774 0210 5146     		mov	r1, r10
 1775              	.LVL212:
ARM GAS  C:\Users\pearlstl\AppData\Local\Temp\ccIMJlIA.s 			page 53


 1776              	.L180:
 540:..\..\..\lvgl\version_6.1.2\lvgl\src\lv_objx/lv_tileview.c ****         }
 1777              		.loc 1 540 0
 1778 0212 00EB8002 		add	r2, r0, r0, lsl #2
 1779 0216 1201     		lsls	r2, r2, #4
 539:..\..\..\lvgl\version_6.1.2\lvgl\src\lv_objx/lv_tileview.c ****             vect.y = vect.y * (100 - LV_INDEV_DEF_DRAG_THROW) / 100;
 1780              		.loc 1 539 0
 1781 0218 0144     		add	r1, r1, r0
 1782              	.LVL213:
 540:..\..\..\lvgl\version_6.1.2\lvgl\src\lv_objx/lv_tileview.c ****         }
 1783              		.loc 1 540 0
 1784 021a 87FB0203 		smull	r0, r3, r7, r2
 1785 021e D217     		asrs	r2, r2, #31
 539:..\..\..\lvgl\version_6.1.2\lvgl\src\lv_objx/lv_tileview.c ****             vect.y = vect.y * (100 - LV_INDEV_DEF_DRAG_THROW) / 100;
 1786              		.loc 1 539 0
 1787 0220 8EB2     		uxth	r6, r1
 540:..\..\..\lvgl\version_6.1.2\lvgl\src\lv_objx/lv_tileview.c ****         }
 1788              		.loc 1 540 0
 1789 0222 C2EB6313 		rsb	r3, r2, r3, asr #5
 1790 0226 18B2     		sxth	r0, r3
 539:..\..\..\lvgl\version_6.1.2\lvgl\src\lv_objx/lv_tileview.c ****             vect.y = vect.y * (100 - LV_INDEV_DEF_DRAG_THROW) / 100;
 1791              		.loc 1 539 0
 1792 0228 31B2     		sxth	r1, r6
 1793              	.LVL214:
 538:..\..\..\lvgl\version_6.1.2\lvgl\src\lv_objx/lv_tileview.c ****             predict += vect.y;
 1794              		.loc 1 538 0
 1795 022a 002B     		cmp	r3, #0
 1796 022c F1D1     		bne	.L180
 1797              	.LVL215:
 1798              	.L179:
 543:..\..\..\lvgl\version_6.1.2\lvgl\src\lv_objx/lv_tileview.c ****     }
 1799              		.loc 1 543 0
 1800 022e C6EB0906 		rsb	r6, r6, r9
 1801 0232 36B2     		sxth	r6, r6
 1802              	.LVL216:
 1803 0234 3CE7     		b	.L178
 1804              	.L214:
 1805              	.LBE65:
 1806              	.LBB66:
 524:..\..\..\lvgl\version_6.1.2\lvgl\src\lv_objx/lv_tileview.c ****         lv_coord_t predict = 0;
 1807              		.loc 1 524 0
 1808 0236 01A9     		add	r1, sp, #4
 1809 0238 5846     		mov	r0, fp
 1810 023a FFF7FEFF 		bl	lv_indev_get_vect
 1811              	.LVL217:
 527:..\..\..\lvgl\version_6.1.2\lvgl\src\lv_objx/lv_tileview.c ****             predict += vect.x;
 1812              		.loc 1 527 0
 1813 023e BDF90410 		ldrsh	r1, [sp, #4]
 1814 0242 E9B1     		cbz	r1, .L188
 529:..\..\..\lvgl\version_6.1.2\lvgl\src\lv_objx/lv_tileview.c ****         }
 1815              		.loc 1 529 0
 1816 0244 DFF840C0 		ldr	ip, .L220
 527:..\..\..\lvgl\version_6.1.2\lvgl\src\lv_objx/lv_tileview.c ****             predict += vect.x;
 1817              		.loc 1 527 0
 1818 0248 0020     		movs	r0, #0
 1819              	.LVL218:
 1820              	.L177:
ARM GAS  C:\Users\pearlstl\AppData\Local\Temp\ccIMJlIA.s 			page 54


 529:..\..\..\lvgl\version_6.1.2\lvgl\src\lv_objx/lv_tileview.c ****         }
 1821              		.loc 1 529 0
 1822 024a 01EB8102 		add	r2, r1, r1, lsl #2
 1823 024e 1201     		lsls	r2, r2, #4
 528:..\..\..\lvgl\version_6.1.2\lvgl\src\lv_objx/lv_tileview.c ****             vect.x = vect.x * (100 - LV_INDEV_DEF_DRAG_THROW) / 100;
 1824              		.loc 1 528 0
 1825 0250 0144     		add	r1, r1, r0
 529:..\..\..\lvgl\version_6.1.2\lvgl\src\lv_objx/lv_tileview.c ****         }
 1826              		.loc 1 529 0
 1827 0252 8CFB0203 		smull	r0, r3, ip, r2
 1828              	.LVL219:
 1829 0256 D217     		asrs	r2, r2, #31
 528:..\..\..\lvgl\version_6.1.2\lvgl\src\lv_objx/lv_tileview.c ****             vect.x = vect.x * (100 - LV_INDEV_DEF_DRAG_THROW) / 100;
 1830              		.loc 1 528 0
 1831 0258 1FFA81FE 		uxth	lr, r1
 529:..\..\..\lvgl\version_6.1.2\lvgl\src\lv_objx/lv_tileview.c ****         }
 1832              		.loc 1 529 0
 1833 025c C2EB6313 		rsb	r3, r2, r3, asr #5
 1834 0260 19B2     		sxth	r1, r3
 528:..\..\..\lvgl\version_6.1.2\lvgl\src\lv_objx/lv_tileview.c ****             vect.x = vect.x * (100 - LV_INDEV_DEF_DRAG_THROW) / 100;
 1835              		.loc 1 528 0
 1836 0262 0FFA8EF0 		sxth	r0, lr
 1837              	.LVL220:
 527:..\..\..\lvgl\version_6.1.2\lvgl\src\lv_objx/lv_tileview.c ****             predict += vect.x;
 1838              		.loc 1 527 0
 1839 0266 002B     		cmp	r3, #0
 1840 0268 EFD1     		bne	.L177
 1841              	.LVL221:
 1842              	.L176:
 532:..\..\..\lvgl\version_6.1.2\lvgl\src\lv_objx/lv_tileview.c ****     } else if(ext->drag_ver) {
 1843              		.loc 1 532 0
 1844 026a CEEB0701 		rsb	r1, lr, r7
 1845 026e 0FFA81F8 		sxth	r8, r1
 1846              	.LVL222:
 1847 0272 1DE7     		b	.L178
 1848              	.LVL223:
 1849              	.L192:
 1850              	.LBE66:
 555:..\..\..\lvgl\version_6.1.2\lvgl\src\lv_objx/lv_tileview.c ****     if(y_move > 1) y_move = 1;
 1851              		.loc 1 555 0
 1852 0274 4FF6FF72 		movw	r2, #65535
 1853              	.LVL224:
 1854 0278 3AE7     		b	.L184
 1855              	.LVL225:
 1856              	.L190:
 553:..\..\..\lvgl\version_6.1.2\lvgl\src\lv_objx/lv_tileview.c ****     if(x_move > 1) x_move = 1;
 1857              		.loc 1 553 0
 1858 027a 4FF6FF73 		movw	r3, #65535
 1859              	.LVL226:
 1860 027e 31E7     		b	.L182
 1861              	.LVL227:
 1862              	.L188:
 1863              	.LBB67:
 527:..\..\..\lvgl\version_6.1.2\lvgl\src\lv_objx/lv_tileview.c ****             predict += vect.x;
 1864              		.loc 1 527 0
 1865 0280 8E46     		mov	lr, r1
 1866 0282 F2E7     		b	.L176
ARM GAS  C:\Users\pearlstl\AppData\Local\Temp\ccIMJlIA.s 			page 55


 1867              	.LVL228:
 1868              	.L189:
 1869              	.LBE67:
 1870              	.LBB68:
 538:..\..\..\lvgl\version_6.1.2\lvgl\src\lv_objx/lv_tileview.c ****             predict += vect.y;
 1871              		.loc 1 538 0
 1872 0284 0646     		mov	r6, r0
 1873              	.LVL229:
 1874 0286 D2E7     		b	.L179
 1875              	.L221:
 1876              		.align	2
 1877              	.L220:
 1878 0288 1F85EB51 		.word	1374389535
 1879              	.LBE68:
 1880              	.LBE69:
 1881              	.LBE70:
 1882              	.LBE76:
 1883              		.cfi_endproc
 1884              	.LFE60:
 1885              		.size	tileview_scrl_event_cb, .-tileview_scrl_event_cb
 1886              		.section	.text.lv_tileview_set_style,"ax",%progbits
 1887              		.align	2
 1888              		.global	lv_tileview_set_style
 1889              		.thumb
 1890              		.thumb_func
 1891              		.type	lv_tileview_set_style, %function
 1892              	lv_tileview_set_style:
 1893              	.LFB56:
 286:..\..\..\lvgl\version_6.1.2\lvgl\src\lv_objx/lv_tileview.c ****     LV_ASSERT_OBJ(tileview, LV_OBJX_NAME);
 1894              		.loc 1 286 0
 1895              		.cfi_startproc
 1896              		@ args = 0, pretend = 0, frame = 0
 1897              		@ frame_needed = 0, uses_anonymous_args = 0
 1898              		@ link register save eliminated.
 1899              	.LVL230:
 289:..\..\..\lvgl\version_6.1.2\lvgl\src\lv_objx/lv_tileview.c ****         case LV_TILEVIEW_STYLE_MAIN: lv_obj_set_style(tileview, style); break;
 1900              		.loc 1 289 0
 1901 0000 01B1     		cbz	r1, .L226
 1902 0002 7047     		bx	lr
 1903              	.L226:
 290:..\..\..\lvgl\version_6.1.2\lvgl\src\lv_objx/lv_tileview.c ****     }
 1904              		.loc 1 290 0
 1905 0004 1146     		mov	r1, r2
 1906              	.LVL231:
 1907 0006 FFF7FEBF 		b	lv_obj_set_style
 1908              	.LVL232:
 1909              		.cfi_endproc
 1910              	.LFE56:
 1911              		.size	lv_tileview_set_style, .-lv_tileview_set_style
 1912 000a 00BF     		.section	.text.lv_tileview_get_style,"ax",%progbits
 1913              		.align	2
 1914              		.global	lv_tileview_get_style
 1915              		.thumb
 1916              		.thumb_func
 1917              		.type	lv_tileview_get_style, %function
 1918              	lv_tileview_get_style:
 1919              	.LFB57:
ARM GAS  C:\Users\pearlstl\AppData\Local\Temp\ccIMJlIA.s 			page 56


 309:..\..\..\lvgl\version_6.1.2\lvgl\src\lv_objx/lv_tileview.c ****     LV_ASSERT_OBJ(tileview, LV_OBJX_NAME);
 1920              		.loc 1 309 0
 1921              		.cfi_startproc
 1922              		@ args = 0, pretend = 0, frame = 0
 1923              		@ frame_needed = 0, uses_anonymous_args = 0
 1924              		@ link register save eliminated.
 1925              	.LVL233:
 313:..\..\..\lvgl\version_6.1.2\lvgl\src\lv_objx/lv_tileview.c ****         case LV_TILEVIEW_STYLE_MAIN: style = lv_obj_get_style(tileview); break;
 1926              		.loc 1 313 0
 1927 0000 09B9     		cbnz	r1, .L230
 314:..\..\..\lvgl\version_6.1.2\lvgl\src\lv_objx/lv_tileview.c ****         default: style = NULL;
 1928              		.loc 1 314 0
 1929 0002 FFF7FEBF 		b	lv_obj_get_style
 1930              	.LVL234:
 1931              	.L230:
 319:..\..\..\lvgl\version_6.1.2\lvgl\src\lv_objx/lv_tileview.c **** 
 1932              		.loc 1 319 0
 1933 0006 0020     		movs	r0, #0
 1934              	.LVL235:
 1935 0008 7047     		bx	lr
 1936              		.cfi_endproc
 1937              	.LFE57:
 1938              		.size	lv_tileview_get_style, .-lv_tileview_get_style
 1939 000a 00BF     		.section	.rodata.str1.4,"aMS",%progbits,1
 1940              		.align	2
 1941              	.LC0:
 1942 0000 00       		.ascii	"\000"
 1943 0001 000000   		.space	3
 1944              	.LC1:
 1945 0004 6C765F74 		.ascii	"lv_tileview\000"
 1945      696C6576 
 1945      69657700 
 1946              		.bss
 1947              		.align	2
 1948              		.set	.LANCHOR0,. + 0
 1949              		.type	ancestor_scrl_signal, %object
 1950              		.size	ancestor_scrl_signal, 4
 1951              	ancestor_scrl_signal:
 1952 0000 00000000 		.space	4
 1953              		.type	ancestor_signal, %object
 1954              		.size	ancestor_signal, 4
 1955              	ancestor_signal:
 1956 0004 00000000 		.space	4
 1957              		.type	ancestor_design, %object
 1958              		.size	ancestor_design, 4
 1959              	ancestor_design:
 1960 0008 00000000 		.space	4
 1961              		.text
 1962              	.Letext0:
 1963              		.file 4 "c:\\program files (x86)\\cypress\\psoc creator\\4.2\\psoc creator\\import\\gnu\\arm\\5.4.
 1964              		.file 5 "c:\\program files (x86)\\cypress\\psoc creator\\4.2\\psoc creator\\import\\gnu\\arm\\5.4.
 1965              		.file 6 "..\\..\\..\\lvgl\\version_6.1.2\\lvgl\\src\\lv_objx\\../../../lv_conf.h"
 1966              		.file 7 "..\\..\\..\\lvgl\\version_6.1.2\\lvgl\\src\\lv_objx\\../lv_objx/../lv_core/../lv_font/lv_
 1967              		.file 8 "..\\..\\..\\lvgl\\version_6.1.2\\lvgl\\src\\lv_objx\\../lv_objx/../lv_core/../lv_misc/lv_
 1968              		.file 9 "..\\..\\..\\lvgl\\version_6.1.2\\lvgl\\src\\lv_objx\\../lv_objx/../lv_core/../lv_misc/lv_
 1969              		.file 10 "..\\..\\..\\lvgl\\version_6.1.2\\lvgl\\src\\lv_objx\\../lv_objx/../lv_core/../lv_misc/lv
 1970              		.file 11 "..\\..\\..\\lvgl\\version_6.1.2\\lvgl\\src\\lv_objx\\../lv_objx/../lv_core/lv_style.h"
ARM GAS  C:\Users\pearlstl\AppData\Local\Temp\ccIMJlIA.s 			page 57


 1971              		.file 12 "..\\..\\..\\lvgl\\version_6.1.2\\lvgl\\src\\lv_objx\\../lv_objx/../lv_core/../lv_misc/lv
 1972              		.file 13 "..\\..\\..\\lvgl\\version_6.1.2\\lvgl\\src\\lv_objx\\../lv_objx/../lv_core/../lv_misc/lv
 1973              		.file 14 "..\\..\\..\\lvgl\\version_6.1.2\\lvgl\\src\\lv_objx\\../lv_objx/../lv_core/../lv_misc/lv
 1974              		.file 15 "..\\..\\..\\lvgl\\version_6.1.2\\lvgl\\src\\lv_objx\\../lv_objx/../lv_core/../lv_hal/../
 1975              		.file 16 "..\\..\\..\\lvgl\\version_6.1.2\\lvgl\\src\\lv_objx\\../lv_objx/../lv_core/../lv_hal/lv_
 1976              		.file 17 "..\\..\\..\\lvgl\\version_6.1.2\\lvgl\\src\\lv_objx\\../lv_objx/../lv_core/lv_obj.h"
 1977              		.file 18 "..\\..\\..\\lvgl\\version_6.1.2\\lvgl\\src\\lv_objx\\../lv_objx/../lv_core/../lv_hal/lv_
 1978              		.file 19 "..\\..\\..\\lvgl\\version_6.1.2\\lvgl\\src\\lv_objx\\lv_tileview.h"
 1979              		.file 20 "..\\..\\..\\lvgl\\version_6.1.2\\lvgl\\src\\lv_objx\\../lv_themes/lv_theme.h"
 1980              		.file 21 "..\\..\\..\\lvgl\\version_6.1.2\\lvgl\\src\\lv_objx\\../lv_objx/../lv_core/lv_indev.h"