ARM GAS  C:\Users\pearlstl\AppData\Local\Temp\ccILyAHD.s 			page 1


   1              		.syntax unified
   2              		.cpu cortex-m4
   3              		.eabi_attribute 27, 1
   4              		.fpu fpv4-sp-d16
   5              		.eabi_attribute 20, 1
   6              		.eabi_attribute 21, 1
   7              		.eabi_attribute 23, 3
   8              		.eabi_attribute 24, 1
   9              		.eabi_attribute 25, 1
  10              		.eabi_attribute 26, 1
  11              		.eabi_attribute 30, 2
  12              		.eabi_attribute 34, 1
  13              		.eabi_attribute 18, 4
  14              		.thumb
  15              		.syntax unified
  16              		.file	"lv_txt.c"
  17              		.text
  18              	.Ltext0:
  19              		.cfi_sections	.debug_frame
  20              		.section	.text.lv_txt_iso8859_1_size,"ax",%progbits
  21              		.align	2
  22              		.thumb
  23              		.thumb_func
  24              		.type	lv_txt_iso8859_1_size, %function
  25              	lv_txt_iso8859_1_size:
  26              	.LFB11:
  27              		.file 1 "..\\..\\..\\lvgl\\version_6.1.2\\lvgl\\src\\lv_misc\\lv_txt.c"
   1:..\..\..\lvgl\version_6.1.2\lvgl\src\lv_misc/lv_txt.c **** /**
   2:..\..\..\lvgl\version_6.1.2\lvgl\src\lv_misc/lv_txt.c ****  * @file lv_text.c
   3:..\..\..\lvgl\version_6.1.2\lvgl\src\lv_misc/lv_txt.c ****  *
   4:..\..\..\lvgl\version_6.1.2\lvgl\src\lv_misc/lv_txt.c ****  */
   5:..\..\..\lvgl\version_6.1.2\lvgl\src\lv_misc/lv_txt.c **** 
   6:..\..\..\lvgl\version_6.1.2\lvgl\src\lv_misc/lv_txt.c **** /*********************
   7:..\..\..\lvgl\version_6.1.2\lvgl\src\lv_misc/lv_txt.c ****  *      INCLUDES
   8:..\..\..\lvgl\version_6.1.2\lvgl\src\lv_misc/lv_txt.c ****  *********************/
   9:..\..\..\lvgl\version_6.1.2\lvgl\src\lv_misc/lv_txt.c **** #include "lv_txt.h"
  10:..\..\..\lvgl\version_6.1.2\lvgl\src\lv_misc/lv_txt.c **** #include "lv_math.h"
  11:..\..\..\lvgl\version_6.1.2\lvgl\src\lv_misc/lv_txt.c **** #include "lv_log.h"
  12:..\..\..\lvgl\version_6.1.2\lvgl\src\lv_misc/lv_txt.c **** 
  13:..\..\..\lvgl\version_6.1.2\lvgl\src\lv_misc/lv_txt.c **** /*********************
  14:..\..\..\lvgl\version_6.1.2\lvgl\src\lv_misc/lv_txt.c ****  *      DEFINES
  15:..\..\..\lvgl\version_6.1.2\lvgl\src\lv_misc/lv_txt.c ****  *********************/
  16:..\..\..\lvgl\version_6.1.2\lvgl\src\lv_misc/lv_txt.c **** #define NO_BREAK_FOUND UINT32_MAX
  17:..\..\..\lvgl\version_6.1.2\lvgl\src\lv_misc/lv_txt.c **** 
  18:..\..\..\lvgl\version_6.1.2\lvgl\src\lv_misc/lv_txt.c **** /**********************
  19:..\..\..\lvgl\version_6.1.2\lvgl\src\lv_misc/lv_txt.c ****  *      TYPEDEFS
  20:..\..\..\lvgl\version_6.1.2\lvgl\src\lv_misc/lv_txt.c ****  **********************/
  21:..\..\..\lvgl\version_6.1.2\lvgl\src\lv_misc/lv_txt.c **** 
  22:..\..\..\lvgl\version_6.1.2\lvgl\src\lv_misc/lv_txt.c **** /**********************
  23:..\..\..\lvgl\version_6.1.2\lvgl\src\lv_misc/lv_txt.c ****  *  STATIC PROTOTYPES
  24:..\..\..\lvgl\version_6.1.2\lvgl\src\lv_misc/lv_txt.c ****  **********************/
  25:..\..\..\lvgl\version_6.1.2\lvgl\src\lv_misc/lv_txt.c **** static inline bool is_break_char(uint32_t letter);
  26:..\..\..\lvgl\version_6.1.2\lvgl\src\lv_misc/lv_txt.c **** 
  27:..\..\..\lvgl\version_6.1.2\lvgl\src\lv_misc/lv_txt.c **** #if LV_TXT_ENC == LV_TXT_ENC_UTF8
  28:..\..\..\lvgl\version_6.1.2\lvgl\src\lv_misc/lv_txt.c **** static uint8_t lv_txt_utf8_size(const char * str);
  29:..\..\..\lvgl\version_6.1.2\lvgl\src\lv_misc/lv_txt.c **** static uint32_t lv_txt_unicode_to_utf8(uint32_t letter_uni);
  30:..\..\..\lvgl\version_6.1.2\lvgl\src\lv_misc/lv_txt.c **** static uint32_t lv_txt_utf8_conv_wc(uint32_t c);
ARM GAS  C:\Users\pearlstl\AppData\Local\Temp\ccILyAHD.s 			page 2


  31:..\..\..\lvgl\version_6.1.2\lvgl\src\lv_misc/lv_txt.c **** static uint32_t lv_txt_utf8_next(const char * txt, uint32_t * i);
  32:..\..\..\lvgl\version_6.1.2\lvgl\src\lv_misc/lv_txt.c **** static uint32_t lv_txt_utf8_prev(const char * txt, uint32_t * i_start);
  33:..\..\..\lvgl\version_6.1.2\lvgl\src\lv_misc/lv_txt.c **** static uint32_t lv_txt_utf8_get_byte_id(const char * txt, uint32_t utf8_id);
  34:..\..\..\lvgl\version_6.1.2\lvgl\src\lv_misc/lv_txt.c **** static uint32_t lv_txt_utf8_get_char_id(const char * txt, uint32_t byte_id);
  35:..\..\..\lvgl\version_6.1.2\lvgl\src\lv_misc/lv_txt.c **** static uint32_t lv_txt_utf8_get_length(const char * txt);
  36:..\..\..\lvgl\version_6.1.2\lvgl\src\lv_misc/lv_txt.c **** #elif LV_TXT_ENC == LV_TXT_ENC_ASCII
  37:..\..\..\lvgl\version_6.1.2\lvgl\src\lv_misc/lv_txt.c **** static uint8_t lv_txt_iso8859_1_size(const char * str);
  38:..\..\..\lvgl\version_6.1.2\lvgl\src\lv_misc/lv_txt.c **** static uint32_t lv_txt_unicode_to_iso8859_1(uint32_t letter_uni);
  39:..\..\..\lvgl\version_6.1.2\lvgl\src\lv_misc/lv_txt.c **** static uint32_t lv_txt_iso8859_1_conv_wc(uint32_t c);
  40:..\..\..\lvgl\version_6.1.2\lvgl\src\lv_misc/lv_txt.c **** static uint32_t lv_txt_iso8859_1_next(const char * txt, uint32_t * i);
  41:..\..\..\lvgl\version_6.1.2\lvgl\src\lv_misc/lv_txt.c **** static uint32_t lv_txt_iso8859_1_prev(const char * txt, uint32_t * i_start);
  42:..\..\..\lvgl\version_6.1.2\lvgl\src\lv_misc/lv_txt.c **** static uint32_t lv_txt_iso8859_1_get_byte_id(const char * txt, uint32_t utf8_id);
  43:..\..\..\lvgl\version_6.1.2\lvgl\src\lv_misc/lv_txt.c **** static uint32_t lv_txt_iso8859_1_get_char_id(const char * txt, uint32_t byte_id);
  44:..\..\..\lvgl\version_6.1.2\lvgl\src\lv_misc/lv_txt.c **** static uint32_t lv_txt_iso8859_1_get_length(const char * txt);
  45:..\..\..\lvgl\version_6.1.2\lvgl\src\lv_misc/lv_txt.c **** #endif
  46:..\..\..\lvgl\version_6.1.2\lvgl\src\lv_misc/lv_txt.c **** /**********************
  47:..\..\..\lvgl\version_6.1.2\lvgl\src\lv_misc/lv_txt.c ****  *  STATIC VARIABLES
  48:..\..\..\lvgl\version_6.1.2\lvgl\src\lv_misc/lv_txt.c ****  **********************/
  49:..\..\..\lvgl\version_6.1.2\lvgl\src\lv_misc/lv_txt.c **** 
  50:..\..\..\lvgl\version_6.1.2\lvgl\src\lv_misc/lv_txt.c **** /**********************
  51:..\..\..\lvgl\version_6.1.2\lvgl\src\lv_misc/lv_txt.c ****  *  GLOBAL VARIABLES
  52:..\..\..\lvgl\version_6.1.2\lvgl\src\lv_misc/lv_txt.c ****  **********************/
  53:..\..\..\lvgl\version_6.1.2\lvgl\src\lv_misc/lv_txt.c **** #if LV_TXT_ENC == LV_TXT_ENC_UTF8
  54:..\..\..\lvgl\version_6.1.2\lvgl\src\lv_misc/lv_txt.c **** uint8_t (*lv_txt_encoded_size)(const char *)                   = lv_txt_utf8_size;
  55:..\..\..\lvgl\version_6.1.2\lvgl\src\lv_misc/lv_txt.c **** uint32_t (*lv_txt_unicode_to_encoded)(uint32_t)                = lv_txt_unicode_to_utf8;
  56:..\..\..\lvgl\version_6.1.2\lvgl\src\lv_misc/lv_txt.c **** uint32_t (*lv_txt_encoded_conv_wc)(uint32_t)                   = lv_txt_utf8_conv_wc;
  57:..\..\..\lvgl\version_6.1.2\lvgl\src\lv_misc/lv_txt.c **** uint32_t (*lv_txt_encoded_next)(const char *, uint32_t *)      = lv_txt_utf8_next;
  58:..\..\..\lvgl\version_6.1.2\lvgl\src\lv_misc/lv_txt.c **** uint32_t (*lv_txt_encoded_prev)(const char *, uint32_t *)      = lv_txt_utf8_prev;
  59:..\..\..\lvgl\version_6.1.2\lvgl\src\lv_misc/lv_txt.c **** uint32_t (*lv_txt_encoded_get_byte_id)(const char *, uint32_t) = lv_txt_utf8_get_byte_id;
  60:..\..\..\lvgl\version_6.1.2\lvgl\src\lv_misc/lv_txt.c **** uint32_t (*lv_txt_encoded_get_char_id)(const char *, uint32_t) = lv_txt_utf8_get_char_id;
  61:..\..\..\lvgl\version_6.1.2\lvgl\src\lv_misc/lv_txt.c **** uint32_t (*lv_txt_get_encoded_length)(const char *)            = lv_txt_utf8_get_length;
  62:..\..\..\lvgl\version_6.1.2\lvgl\src\lv_misc/lv_txt.c **** #elif LV_TXT_ENC == LV_TXT_ENC_ASCII
  63:..\..\..\lvgl\version_6.1.2\lvgl\src\lv_misc/lv_txt.c **** uint8_t (*lv_txt_encoded_size)(const char *)                   = lv_txt_iso8859_1_size;
  64:..\..\..\lvgl\version_6.1.2\lvgl\src\lv_misc/lv_txt.c **** uint32_t (*lv_txt_unicode_to_encoded)(uint32_t)                = lv_txt_unicode_to_iso8859_1;
  65:..\..\..\lvgl\version_6.1.2\lvgl\src\lv_misc/lv_txt.c **** uint32_t (*lv_txt_encoded_conv_wc)(uint32_t)                   = lv_txt_iso8859_1_conv_wc;
  66:..\..\..\lvgl\version_6.1.2\lvgl\src\lv_misc/lv_txt.c **** uint32_t (*lv_txt_encoded_next)(const char *, uint32_t *)      = lv_txt_iso8859_1_next;
  67:..\..\..\lvgl\version_6.1.2\lvgl\src\lv_misc/lv_txt.c **** uint32_t (*lv_txt_encoded_prev)(const char *, uint32_t *)      = lv_txt_iso8859_1_prev;
  68:..\..\..\lvgl\version_6.1.2\lvgl\src\lv_misc/lv_txt.c **** uint32_t (*lv_txt_encoded_get_byte_id)(const char *, uint32_t) = lv_txt_iso8859_1_get_byte_id;
  69:..\..\..\lvgl\version_6.1.2\lvgl\src\lv_misc/lv_txt.c **** uint32_t (*lv_txt_encoded_get_char_id)(const char *, uint32_t)     = lv_txt_iso8859_1_get_char_id;
  70:..\..\..\lvgl\version_6.1.2\lvgl\src\lv_misc/lv_txt.c **** uint32_t (*lv_txt_get_encoded_length)(const char *)            = lv_txt_iso8859_1_get_length;
  71:..\..\..\lvgl\version_6.1.2\lvgl\src\lv_misc/lv_txt.c **** 
  72:..\..\..\lvgl\version_6.1.2\lvgl\src\lv_misc/lv_txt.c **** #endif
  73:..\..\..\lvgl\version_6.1.2\lvgl\src\lv_misc/lv_txt.c **** 
  74:..\..\..\lvgl\version_6.1.2\lvgl\src\lv_misc/lv_txt.c **** /**********************
  75:..\..\..\lvgl\version_6.1.2\lvgl\src\lv_misc/lv_txt.c ****  *      MACROS
  76:..\..\..\lvgl\version_6.1.2\lvgl\src\lv_misc/lv_txt.c ****  **********************/
  77:..\..\..\lvgl\version_6.1.2\lvgl\src\lv_misc/lv_txt.c **** 
  78:..\..\..\lvgl\version_6.1.2\lvgl\src\lv_misc/lv_txt.c **** /**********************
  79:..\..\..\lvgl\version_6.1.2\lvgl\src\lv_misc/lv_txt.c ****  *   GLOBAL FUNCTIONS
  80:..\..\..\lvgl\version_6.1.2\lvgl\src\lv_misc/lv_txt.c ****  **********************/
  81:..\..\..\lvgl\version_6.1.2\lvgl\src\lv_misc/lv_txt.c **** 
  82:..\..\..\lvgl\version_6.1.2\lvgl\src\lv_misc/lv_txt.c **** /**
  83:..\..\..\lvgl\version_6.1.2\lvgl\src\lv_misc/lv_txt.c ****  * Get size of a text
  84:..\..\..\lvgl\version_6.1.2\lvgl\src\lv_misc/lv_txt.c ****  * @param size_res pointer to a 'point_t' variable to store the result
  85:..\..\..\lvgl\version_6.1.2\lvgl\src\lv_misc/lv_txt.c ****  * @param text pointer to a text
  86:..\..\..\lvgl\version_6.1.2\lvgl\src\lv_misc/lv_txt.c ****  * @param font pinter to font of the text
  87:..\..\..\lvgl\version_6.1.2\lvgl\src\lv_misc/lv_txt.c ****  * @param letter_space letter space of the text
ARM GAS  C:\Users\pearlstl\AppData\Local\Temp\ccILyAHD.s 			page 3


  88:..\..\..\lvgl\version_6.1.2\lvgl\src\lv_misc/lv_txt.c ****  * @param txt.line_space line space of the text
  89:..\..\..\lvgl\version_6.1.2\lvgl\src\lv_misc/lv_txt.c ****  * @param flags settings for the text from 'txt_flag_t' enum
  90:..\..\..\lvgl\version_6.1.2\lvgl\src\lv_misc/lv_txt.c ****  * @param max_width max with of the text (break the lines to fit this size) Set CORD_MAX to avoid
  91:..\..\..\lvgl\version_6.1.2\lvgl\src\lv_misc/lv_txt.c ****  * line breaks
  92:..\..\..\lvgl\version_6.1.2\lvgl\src\lv_misc/lv_txt.c ****  */
  93:..\..\..\lvgl\version_6.1.2\lvgl\src\lv_misc/lv_txt.c **** void lv_txt_get_size(lv_point_t * size_res, const char * text, const lv_font_t * font, lv_coord_t l
  94:..\..\..\lvgl\version_6.1.2\lvgl\src\lv_misc/lv_txt.c ****                      lv_coord_t line_space, lv_coord_t max_width, lv_txt_flag_t flag)
  95:..\..\..\lvgl\version_6.1.2\lvgl\src\lv_misc/lv_txt.c **** {
  96:..\..\..\lvgl\version_6.1.2\lvgl\src\lv_misc/lv_txt.c ****     size_res->x = 0;
  97:..\..\..\lvgl\version_6.1.2\lvgl\src\lv_misc/lv_txt.c ****     size_res->y = 0;
  98:..\..\..\lvgl\version_6.1.2\lvgl\src\lv_misc/lv_txt.c **** 
  99:..\..\..\lvgl\version_6.1.2\lvgl\src\lv_misc/lv_txt.c ****     if(text == NULL) return;
 100:..\..\..\lvgl\version_6.1.2\lvgl\src\lv_misc/lv_txt.c ****     if(font == NULL) return;
 101:..\..\..\lvgl\version_6.1.2\lvgl\src\lv_misc/lv_txt.c **** 
 102:..\..\..\lvgl\version_6.1.2\lvgl\src\lv_misc/lv_txt.c ****     if(flag & LV_TXT_FLAG_EXPAND) max_width = LV_COORD_MAX;
 103:..\..\..\lvgl\version_6.1.2\lvgl\src\lv_misc/lv_txt.c **** 
 104:..\..\..\lvgl\version_6.1.2\lvgl\src\lv_misc/lv_txt.c ****     uint32_t line_start     = 0;
 105:..\..\..\lvgl\version_6.1.2\lvgl\src\lv_misc/lv_txt.c ****     uint32_t new_line_start = 0;
 106:..\..\..\lvgl\version_6.1.2\lvgl\src\lv_misc/lv_txt.c ****     lv_coord_t act_line_length;
 107:..\..\..\lvgl\version_6.1.2\lvgl\src\lv_misc/lv_txt.c ****     uint8_t letter_height = lv_font_get_line_height(font);
 108:..\..\..\lvgl\version_6.1.2\lvgl\src\lv_misc/lv_txt.c **** 
 109:..\..\..\lvgl\version_6.1.2\lvgl\src\lv_misc/lv_txt.c ****     /*Calc. the height and longest line*/
 110:..\..\..\lvgl\version_6.1.2\lvgl\src\lv_misc/lv_txt.c ****     while(text[line_start] != '\0') {
 111:..\..\..\lvgl\version_6.1.2\lvgl\src\lv_misc/lv_txt.c ****         new_line_start += lv_txt_get_next_line(&text[line_start], font, letter_space, max_width, fl
 112:..\..\..\lvgl\version_6.1.2\lvgl\src\lv_misc/lv_txt.c **** 
 113:..\..\..\lvgl\version_6.1.2\lvgl\src\lv_misc/lv_txt.c ****         if ((unsigned long)size_res->y + (unsigned long)letter_height + (unsigned long)line_space >
 114:..\..\..\lvgl\version_6.1.2\lvgl\src\lv_misc/lv_txt.c ****             LV_LOG_WARN("lv_txt_get_size: integer overflow while calculating text height");
 115:..\..\..\lvgl\version_6.1.2\lvgl\src\lv_misc/lv_txt.c ****             return;
 116:..\..\..\lvgl\version_6.1.2\lvgl\src\lv_misc/lv_txt.c ****         } else {
 117:..\..\..\lvgl\version_6.1.2\lvgl\src\lv_misc/lv_txt.c ****             size_res->y += letter_height;
 118:..\..\..\lvgl\version_6.1.2\lvgl\src\lv_misc/lv_txt.c ****             size_res->y += line_space;
 119:..\..\..\lvgl\version_6.1.2\lvgl\src\lv_misc/lv_txt.c ****         }
 120:..\..\..\lvgl\version_6.1.2\lvgl\src\lv_misc/lv_txt.c **** 
 121:..\..\..\lvgl\version_6.1.2\lvgl\src\lv_misc/lv_txt.c ****         /*Calculate the the longest line*/
 122:..\..\..\lvgl\version_6.1.2\lvgl\src\lv_misc/lv_txt.c ****         act_line_length = lv_txt_get_width(&text[line_start], new_line_start - line_start, font, le
 123:..\..\..\lvgl\version_6.1.2\lvgl\src\lv_misc/lv_txt.c **** 
 124:..\..\..\lvgl\version_6.1.2\lvgl\src\lv_misc/lv_txt.c ****         size_res->x = LV_MATH_MAX(act_line_length, size_res->x);
 125:..\..\..\lvgl\version_6.1.2\lvgl\src\lv_misc/lv_txt.c ****         line_start  = new_line_start;
 126:..\..\..\lvgl\version_6.1.2\lvgl\src\lv_misc/lv_txt.c ****     }
 127:..\..\..\lvgl\version_6.1.2\lvgl\src\lv_misc/lv_txt.c **** 
 128:..\..\..\lvgl\version_6.1.2\lvgl\src\lv_misc/lv_txt.c ****     /*Make the text one line taller if the last character is '\n' or '\r'*/
 129:..\..\..\lvgl\version_6.1.2\lvgl\src\lv_misc/lv_txt.c ****     if((line_start != 0) && (text[line_start - 1] == '\n' || text[line_start - 1] == '\r')) {
 130:..\..\..\lvgl\version_6.1.2\lvgl\src\lv_misc/lv_txt.c ****         size_res->y += letter_height + line_space;
 131:..\..\..\lvgl\version_6.1.2\lvgl\src\lv_misc/lv_txt.c ****     }
 132:..\..\..\lvgl\version_6.1.2\lvgl\src\lv_misc/lv_txt.c **** 
 133:..\..\..\lvgl\version_6.1.2\lvgl\src\lv_misc/lv_txt.c ****     /*Correction with the last line space or set the height manually if the text is empty*/
 134:..\..\..\lvgl\version_6.1.2\lvgl\src\lv_misc/lv_txt.c ****     if(size_res->y == 0)
 135:..\..\..\lvgl\version_6.1.2\lvgl\src\lv_misc/lv_txt.c ****         size_res->y = letter_height;
 136:..\..\..\lvgl\version_6.1.2\lvgl\src\lv_misc/lv_txt.c ****     else
 137:..\..\..\lvgl\version_6.1.2\lvgl\src\lv_misc/lv_txt.c ****         size_res->y -= line_space;
 138:..\..\..\lvgl\version_6.1.2\lvgl\src\lv_misc/lv_txt.c **** }
 139:..\..\..\lvgl\version_6.1.2\lvgl\src\lv_misc/lv_txt.c **** 
 140:..\..\..\lvgl\version_6.1.2\lvgl\src\lv_misc/lv_txt.c **** /**
 141:..\..\..\lvgl\version_6.1.2\lvgl\src\lv_misc/lv_txt.c ****  * Get the next word of text. A word is delimited by break characters.
 142:..\..\..\lvgl\version_6.1.2\lvgl\src\lv_misc/lv_txt.c ****  *
 143:..\..\..\lvgl\version_6.1.2\lvgl\src\lv_misc/lv_txt.c ****  * If the word cannot fit in the max_width space, obey LV_TXT_LINE_BREAK_LONG_* rules.
 144:..\..\..\lvgl\version_6.1.2\lvgl\src\lv_misc/lv_txt.c ****  *
ARM GAS  C:\Users\pearlstl\AppData\Local\Temp\ccILyAHD.s 			page 4


 145:..\..\..\lvgl\version_6.1.2\lvgl\src\lv_misc/lv_txt.c ****  * If the next word cannot fit anything, return 0.
 146:..\..\..\lvgl\version_6.1.2\lvgl\src\lv_misc/lv_txt.c ****  *
 147:..\..\..\lvgl\version_6.1.2\lvgl\src\lv_misc/lv_txt.c ****  * If the first character is a break character, returns the next index.
 148:..\..\..\lvgl\version_6.1.2\lvgl\src\lv_misc/lv_txt.c ****  *
 149:..\..\..\lvgl\version_6.1.2\lvgl\src\lv_misc/lv_txt.c ****  * Example calls from lv_txt_get_next_line() assuming sufficent max_width and
 150:..\..\..\lvgl\version_6.1.2\lvgl\src\lv_misc/lv_txt.c ****  * txt = "Test text\n"
 151:..\..\..\lvgl\version_6.1.2\lvgl\src\lv_misc/lv_txt.c ****  *        0123456789
 152:..\..\..\lvgl\version_6.1.2\lvgl\src\lv_misc/lv_txt.c ****  *
 153:..\..\..\lvgl\version_6.1.2\lvgl\src\lv_misc/lv_txt.c ****  * Calls would be as follows:
 154:..\..\..\lvgl\version_6.1.2\lvgl\src\lv_misc/lv_txt.c ****  *     1. Return i=4, pointing at breakchar ' ', for the string "Test"
 155:..\..\..\lvgl\version_6.1.2\lvgl\src\lv_misc/lv_txt.c ****  *     2. Return i=5, since i=4 was a breakchar.
 156:..\..\..\lvgl\version_6.1.2\lvgl\src\lv_misc/lv_txt.c ****  *     3. Return i=9, pointing at breakchar '\n'
 157:..\..\..\lvgl\version_6.1.2\lvgl\src\lv_misc/lv_txt.c ****  *     4. Parenting lv_txt_get_next_line() would detect subsequent '\0'
 158:..\..\..\lvgl\version_6.1.2\lvgl\src\lv_misc/lv_txt.c ****  *
 159:..\..\..\lvgl\version_6.1.2\lvgl\src\lv_misc/lv_txt.c ****  * TODO: Returned word_w_ptr may overestimate the returned word's width when 
 160:..\..\..\lvgl\version_6.1.2\lvgl\src\lv_misc/lv_txt.c ****  * max_width is reached. In current usage, this has no impact.
 161:..\..\..\lvgl\version_6.1.2\lvgl\src\lv_misc/lv_txt.c ****  *
 162:..\..\..\lvgl\version_6.1.2\lvgl\src\lv_misc/lv_txt.c ****  * @param txt a '\0' terminated string
 163:..\..\..\lvgl\version_6.1.2\lvgl\src\lv_misc/lv_txt.c ****  * @param font pointer to a font
 164:..\..\..\lvgl\version_6.1.2\lvgl\src\lv_misc/lv_txt.c ****  * @param letter_space letter space
 165:..\..\..\lvgl\version_6.1.2\lvgl\src\lv_misc/lv_txt.c ****  * @param max_width max with of the text (break the lines to fit this size) Set CORD_MAX to avoid l
 166:..\..\..\lvgl\version_6.1.2\lvgl\src\lv_misc/lv_txt.c ****  * @param flags settings for the text from 'txt_flag_type' enum
 167:..\..\..\lvgl\version_6.1.2\lvgl\src\lv_misc/lv_txt.c ****  * @param[out] word_w_ptr width (in pixels) of the parsed word. May be NULL.
 168:..\..\..\lvgl\version_6.1.2\lvgl\src\lv_misc/lv_txt.c ****  * @param force Force return the fraction of the word that can fit in the provided space.
 169:..\..\..\lvgl\version_6.1.2\lvgl\src\lv_misc/lv_txt.c ****  * @return the index of the first char of the next word (in byte index not letter index. With UTF-8
 170:..\..\..\lvgl\version_6.1.2\lvgl\src\lv_misc/lv_txt.c ****  */
 171:..\..\..\lvgl\version_6.1.2\lvgl\src\lv_misc/lv_txt.c **** static uint16_t lv_txt_get_next_word(const char * txt, const lv_font_t * font,
 172:..\..\..\lvgl\version_6.1.2\lvgl\src\lv_misc/lv_txt.c ****                               lv_coord_t letter_space, lv_coord_t max_width,
 173:..\..\..\lvgl\version_6.1.2\lvgl\src\lv_misc/lv_txt.c ****                               lv_txt_flag_t flag, uint32_t *word_w_ptr, lv_txt_cmd_state_t * cmd_st
 174:..\..\..\lvgl\version_6.1.2\lvgl\src\lv_misc/lv_txt.c **** {
 175:..\..\..\lvgl\version_6.1.2\lvgl\src\lv_misc/lv_txt.c ****     if(txt == NULL || txt[0] == '\0') return 0;
 176:..\..\..\lvgl\version_6.1.2\lvgl\src\lv_misc/lv_txt.c ****     if(font == NULL) return 0;
 177:..\..\..\lvgl\version_6.1.2\lvgl\src\lv_misc/lv_txt.c **** 
 178:..\..\..\lvgl\version_6.1.2\lvgl\src\lv_misc/lv_txt.c ****     if(flag & LV_TXT_FLAG_EXPAND) max_width = LV_COORD_MAX;
 179:..\..\..\lvgl\version_6.1.2\lvgl\src\lv_misc/lv_txt.c **** 
 180:..\..\..\lvgl\version_6.1.2\lvgl\src\lv_misc/lv_txt.c ****     uint32_t i = 0, i_next = 0, i_next_next = 0;  /* Iterating index into txt */
 181:..\..\..\lvgl\version_6.1.2\lvgl\src\lv_misc/lv_txt.c ****     uint32_t letter = 0;      /* Letter at i */
 182:..\..\..\lvgl\version_6.1.2\lvgl\src\lv_misc/lv_txt.c ****     uint32_t letter_next = 0; /* Letter at i_next */
 183:..\..\..\lvgl\version_6.1.2\lvgl\src\lv_misc/lv_txt.c ****     lv_coord_t letter_w;
 184:..\..\..\lvgl\version_6.1.2\lvgl\src\lv_misc/lv_txt.c ****     lv_coord_t cur_w = 0;  /* Pixel Width of transversed string */
 185:..\..\..\lvgl\version_6.1.2\lvgl\src\lv_misc/lv_txt.c ****     uint32_t word_len = 0;   /* Number of characters in the transversed word */
 186:..\..\..\lvgl\version_6.1.2\lvgl\src\lv_misc/lv_txt.c ****     uint32_t break_index = NO_BREAK_FOUND; /* only used for "long" words */
 187:..\..\..\lvgl\version_6.1.2\lvgl\src\lv_misc/lv_txt.c ****     uint32_t break_letter_count = 0; /* Number of characters up to the long word break point */
 188:..\..\..\lvgl\version_6.1.2\lvgl\src\lv_misc/lv_txt.c **** 
 189:..\..\..\lvgl\version_6.1.2\lvgl\src\lv_misc/lv_txt.c ****     letter = lv_txt_encoded_next(txt, &i_next);
 190:..\..\..\lvgl\version_6.1.2\lvgl\src\lv_misc/lv_txt.c ****     i_next_next = i_next;
 191:..\..\..\lvgl\version_6.1.2\lvgl\src\lv_misc/lv_txt.c **** 
 192:..\..\..\lvgl\version_6.1.2\lvgl\src\lv_misc/lv_txt.c ****     /* Obtain the full word, regardless if it fits or not in max_width */
 193:..\..\..\lvgl\version_6.1.2\lvgl\src\lv_misc/lv_txt.c ****     while(txt[i] != '\0') {
 194:..\..\..\lvgl\version_6.1.2\lvgl\src\lv_misc/lv_txt.c ****         letter_next = lv_txt_encoded_next(txt, &i_next_next);
 195:..\..\..\lvgl\version_6.1.2\lvgl\src\lv_misc/lv_txt.c ****         word_len++;
 196:..\..\..\lvgl\version_6.1.2\lvgl\src\lv_misc/lv_txt.c **** 
 197:..\..\..\lvgl\version_6.1.2\lvgl\src\lv_misc/lv_txt.c ****         /*Handle the recolor command*/
 198:..\..\..\lvgl\version_6.1.2\lvgl\src\lv_misc/lv_txt.c ****         if((flag & LV_TXT_FLAG_RECOLOR) != 0) {
 199:..\..\..\lvgl\version_6.1.2\lvgl\src\lv_misc/lv_txt.c ****             if(lv_txt_is_cmd(cmd_state, letter) != false) {
 200:..\..\..\lvgl\version_6.1.2\lvgl\src\lv_misc/lv_txt.c ****                 i = i_next;
 201:..\..\..\lvgl\version_6.1.2\lvgl\src\lv_misc/lv_txt.c ****                 i_next = i_next_next;
ARM GAS  C:\Users\pearlstl\AppData\Local\Temp\ccILyAHD.s 			page 5


 202:..\..\..\lvgl\version_6.1.2\lvgl\src\lv_misc/lv_txt.c ****                 letter = letter_next;
 203:..\..\..\lvgl\version_6.1.2\lvgl\src\lv_misc/lv_txt.c ****                 continue;   /*Skip the letter is it is part of a command*/
 204:..\..\..\lvgl\version_6.1.2\lvgl\src\lv_misc/lv_txt.c ****             }
 205:..\..\..\lvgl\version_6.1.2\lvgl\src\lv_misc/lv_txt.c ****         }
 206:..\..\..\lvgl\version_6.1.2\lvgl\src\lv_misc/lv_txt.c **** 
 207:..\..\..\lvgl\version_6.1.2\lvgl\src\lv_misc/lv_txt.c ****         letter_w = lv_font_get_glyph_width(font, letter, letter_next);
 208:..\..\..\lvgl\version_6.1.2\lvgl\src\lv_misc/lv_txt.c ****         cur_w += letter_w;
 209:..\..\..\lvgl\version_6.1.2\lvgl\src\lv_misc/lv_txt.c **** 
 210:..\..\..\lvgl\version_6.1.2\lvgl\src\lv_misc/lv_txt.c ****         if(letter_w > 0) {
 211:..\..\..\lvgl\version_6.1.2\lvgl\src\lv_misc/lv_txt.c ****             cur_w += letter_space;
 212:..\..\..\lvgl\version_6.1.2\lvgl\src\lv_misc/lv_txt.c ****         }
 213:..\..\..\lvgl\version_6.1.2\lvgl\src\lv_misc/lv_txt.c **** 
 214:..\..\..\lvgl\version_6.1.2\lvgl\src\lv_misc/lv_txt.c ****         /* Test if this character fits within max_width */
 215:..\..\..\lvgl\version_6.1.2\lvgl\src\lv_misc/lv_txt.c ****         if(break_index == NO_BREAK_FOUND && (cur_w - letter_space) > max_width) {
 216:..\..\..\lvgl\version_6.1.2\lvgl\src\lv_misc/lv_txt.c ****             break_index = i; 
 217:..\..\..\lvgl\version_6.1.2\lvgl\src\lv_misc/lv_txt.c ****             break_letter_count = word_len - 1;
 218:..\..\..\lvgl\version_6.1.2\lvgl\src\lv_misc/lv_txt.c ****             /* break_index is now pointing at the character that doesn't fit */
 219:..\..\..\lvgl\version_6.1.2\lvgl\src\lv_misc/lv_txt.c ****         }
 220:..\..\..\lvgl\version_6.1.2\lvgl\src\lv_misc/lv_txt.c **** 
 221:..\..\..\lvgl\version_6.1.2\lvgl\src\lv_misc/lv_txt.c ****         /*Check for new line chars and breakchars*/
 222:..\..\..\lvgl\version_6.1.2\lvgl\src\lv_misc/lv_txt.c ****         if(letter == '\n' || letter == '\r' || is_break_char(letter)) {
 223:..\..\..\lvgl\version_6.1.2\lvgl\src\lv_misc/lv_txt.c ****             /* Update the output width on the first character if it fits.
 224:..\..\..\lvgl\version_6.1.2\lvgl\src\lv_misc/lv_txt.c ****              * Must do this here incase first letter is a break character. */
 225:..\..\..\lvgl\version_6.1.2\lvgl\src\lv_misc/lv_txt.c ****             if(i == 0 && break_index == NO_BREAK_FOUND && word_w_ptr != NULL) *word_w_ptr = cur_w;
 226:..\..\..\lvgl\version_6.1.2\lvgl\src\lv_misc/lv_txt.c ****             word_len--;
 227:..\..\..\lvgl\version_6.1.2\lvgl\src\lv_misc/lv_txt.c ****             break;
 228:..\..\..\lvgl\version_6.1.2\lvgl\src\lv_misc/lv_txt.c ****         }
 229:..\..\..\lvgl\version_6.1.2\lvgl\src\lv_misc/lv_txt.c **** 
 230:..\..\..\lvgl\version_6.1.2\lvgl\src\lv_misc/lv_txt.c ****         /* Update the output width */
 231:..\..\..\lvgl\version_6.1.2\lvgl\src\lv_misc/lv_txt.c ****         if( word_w_ptr != NULL && break_index == NO_BREAK_FOUND ) *word_w_ptr = cur_w;
 232:..\..\..\lvgl\version_6.1.2\lvgl\src\lv_misc/lv_txt.c **** 
 233:..\..\..\lvgl\version_6.1.2\lvgl\src\lv_misc/lv_txt.c **** 
 234:..\..\..\lvgl\version_6.1.2\lvgl\src\lv_misc/lv_txt.c ****         i = i_next;
 235:..\..\..\lvgl\version_6.1.2\lvgl\src\lv_misc/lv_txt.c ****         i_next = i_next_next;
 236:..\..\..\lvgl\version_6.1.2\lvgl\src\lv_misc/lv_txt.c ****         letter = letter_next;
 237:..\..\..\lvgl\version_6.1.2\lvgl\src\lv_misc/lv_txt.c ****     }
 238:..\..\..\lvgl\version_6.1.2\lvgl\src\lv_misc/lv_txt.c **** 
 239:..\..\..\lvgl\version_6.1.2\lvgl\src\lv_misc/lv_txt.c ****     /* Entire Word fits in the provided space */
 240:..\..\..\lvgl\version_6.1.2\lvgl\src\lv_misc/lv_txt.c ****     if( break_index == NO_BREAK_FOUND ) {
 241:..\..\..\lvgl\version_6.1.2\lvgl\src\lv_misc/lv_txt.c ****         if( word_len == 0 || (letter == '\r' && letter_next == '\n') ) i = i_next;
 242:..\..\..\lvgl\version_6.1.2\lvgl\src\lv_misc/lv_txt.c ****         return i;
 243:..\..\..\lvgl\version_6.1.2\lvgl\src\lv_misc/lv_txt.c ****     }
 244:..\..\..\lvgl\version_6.1.2\lvgl\src\lv_misc/lv_txt.c **** 
 245:..\..\..\lvgl\version_6.1.2\lvgl\src\lv_misc/lv_txt.c **** #if LV_TXT_LINE_BREAK_LONG_LEN > 0
 246:..\..\..\lvgl\version_6.1.2\lvgl\src\lv_misc/lv_txt.c ****     /* Word doesn't fit in provided space, but isn't "long" */
 247:..\..\..\lvgl\version_6.1.2\lvgl\src\lv_misc/lv_txt.c ****     if(word_len < LV_TXT_LINE_BREAK_LONG_LEN) {
 248:..\..\..\lvgl\version_6.1.2\lvgl\src\lv_misc/lv_txt.c ****         if( force ) return break_index;
 249:..\..\..\lvgl\version_6.1.2\lvgl\src\lv_misc/lv_txt.c ****         if(word_w_ptr != NULL) *word_w_ptr = 0; /* Return no word */
 250:..\..\..\lvgl\version_6.1.2\lvgl\src\lv_misc/lv_txt.c ****         return 0;
 251:..\..\..\lvgl\version_6.1.2\lvgl\src\lv_misc/lv_txt.c ****     }
 252:..\..\..\lvgl\version_6.1.2\lvgl\src\lv_misc/lv_txt.c **** 
 253:..\..\..\lvgl\version_6.1.2\lvgl\src\lv_misc/lv_txt.c ****     /* Word is "long," but insufficient amounts can fit in provided space */
 254:..\..\..\lvgl\version_6.1.2\lvgl\src\lv_misc/lv_txt.c ****     if(break_letter_count < LV_TXT_LINE_BREAK_LONG_PRE_MIN_LEN) {
 255:..\..\..\lvgl\version_6.1.2\lvgl\src\lv_misc/lv_txt.c ****         if( force ) return break_index;
 256:..\..\..\lvgl\version_6.1.2\lvgl\src\lv_misc/lv_txt.c ****         if(word_w_ptr != NULL) *word_w_ptr = 0;
 257:..\..\..\lvgl\version_6.1.2\lvgl\src\lv_misc/lv_txt.c ****         return 0;
 258:..\..\..\lvgl\version_6.1.2\lvgl\src\lv_misc/lv_txt.c ****     }
ARM GAS  C:\Users\pearlstl\AppData\Local\Temp\ccILyAHD.s 			page 6


 259:..\..\..\lvgl\version_6.1.2\lvgl\src\lv_misc/lv_txt.c **** 
 260:..\..\..\lvgl\version_6.1.2\lvgl\src\lv_misc/lv_txt.c ****     /* Word is a "long", but letters may need to be better distributed */
 261:..\..\..\lvgl\version_6.1.2\lvgl\src\lv_misc/lv_txt.c ****     {
 262:..\..\..\lvgl\version_6.1.2\lvgl\src\lv_misc/lv_txt.c ****         i = break_index;
 263:..\..\..\lvgl\version_6.1.2\lvgl\src\lv_misc/lv_txt.c ****         int32_t n_move = LV_TXT_LINE_BREAK_LONG_POST_MIN_LEN - (word_len - break_letter_count);
 264:..\..\..\lvgl\version_6.1.2\lvgl\src\lv_misc/lv_txt.c ****         /* Move pointer "i" backwards */
 265:..\..\..\lvgl\version_6.1.2\lvgl\src\lv_misc/lv_txt.c ****         for(;n_move>0; n_move--){
 266:..\..\..\lvgl\version_6.1.2\lvgl\src\lv_misc/lv_txt.c ****             lv_txt_encoded_prev(txt, &i);
 267:..\..\..\lvgl\version_6.1.2\lvgl\src\lv_misc/lv_txt.c ****             // TODO: it would be appropriate to update the returned word width here
 268:..\..\..\lvgl\version_6.1.2\lvgl\src\lv_misc/lv_txt.c ****             // However, in current usage, this doesn't impact anything.
 269:..\..\..\lvgl\version_6.1.2\lvgl\src\lv_misc/lv_txt.c ****         }
 270:..\..\..\lvgl\version_6.1.2\lvgl\src\lv_misc/lv_txt.c ****     }
 271:..\..\..\lvgl\version_6.1.2\lvgl\src\lv_misc/lv_txt.c ****     return i;
 272:..\..\..\lvgl\version_6.1.2\lvgl\src\lv_misc/lv_txt.c **** #else
 273:..\..\..\lvgl\version_6.1.2\lvgl\src\lv_misc/lv_txt.c ****     if( force ) return break_index;
 274:..\..\..\lvgl\version_6.1.2\lvgl\src\lv_misc/lv_txt.c ****     if(word_w_ptr != NULL) *word_w_ptr = 0; /* Return no word */
 275:..\..\..\lvgl\version_6.1.2\lvgl\src\lv_misc/lv_txt.c ****     (void) break_letter_count;
 276:..\..\..\lvgl\version_6.1.2\lvgl\src\lv_misc/lv_txt.c ****     return 0;
 277:..\..\..\lvgl\version_6.1.2\lvgl\src\lv_misc/lv_txt.c **** #endif
 278:..\..\..\lvgl\version_6.1.2\lvgl\src\lv_misc/lv_txt.c **** }
 279:..\..\..\lvgl\version_6.1.2\lvgl\src\lv_misc/lv_txt.c **** 
 280:..\..\..\lvgl\version_6.1.2\lvgl\src\lv_misc/lv_txt.c **** /**
 281:..\..\..\lvgl\version_6.1.2\lvgl\src\lv_misc/lv_txt.c ****  * Get the next line of text. Check line length and break chars too.
 282:..\..\..\lvgl\version_6.1.2\lvgl\src\lv_misc/lv_txt.c ****  *
 283:..\..\..\lvgl\version_6.1.2\lvgl\src\lv_misc/lv_txt.c ****  * A line of txt includes the \n character.
 284:..\..\..\lvgl\version_6.1.2\lvgl\src\lv_misc/lv_txt.c ****  *
 285:..\..\..\lvgl\version_6.1.2\lvgl\src\lv_misc/lv_txt.c ****  * @param txt a '\0' terminated string
 286:..\..\..\lvgl\version_6.1.2\lvgl\src\lv_misc/lv_txt.c ****  * @param font pointer to a font
 287:..\..\..\lvgl\version_6.1.2\lvgl\src\lv_misc/lv_txt.c ****  * @param letter_space letter space
 288:..\..\..\lvgl\version_6.1.2\lvgl\src\lv_misc/lv_txt.c ****  * @param max_width max with of the text (break the lines to fit this size) Set CORD_MAX to avoid l
 289:..\..\..\lvgl\version_6.1.2\lvgl\src\lv_misc/lv_txt.c ****  * @param flags settings for the text from 'txt_flag_type' enum
 290:..\..\..\lvgl\version_6.1.2\lvgl\src\lv_misc/lv_txt.c ****  * @return the index of the first char of the new line (in byte index not letter index. With UTF-8 
 291:..\..\..\lvgl\version_6.1.2\lvgl\src\lv_misc/lv_txt.c ****  */
 292:..\..\..\lvgl\version_6.1.2\lvgl\src\lv_misc/lv_txt.c **** uint16_t lv_txt_get_next_line(const char * txt, const lv_font_t * font,
 293:..\..\..\lvgl\version_6.1.2\lvgl\src\lv_misc/lv_txt.c ****                               lv_coord_t letter_space, lv_coord_t max_width, lv_txt_flag_t flag)
 294:..\..\..\lvgl\version_6.1.2\lvgl\src\lv_misc/lv_txt.c **** {
 295:..\..\..\lvgl\version_6.1.2\lvgl\src\lv_misc/lv_txt.c ****     if(txt == NULL) return 0;
 296:..\..\..\lvgl\version_6.1.2\lvgl\src\lv_misc/lv_txt.c ****     if(font == NULL) return 0;
 297:..\..\..\lvgl\version_6.1.2\lvgl\src\lv_misc/lv_txt.c **** 
 298:..\..\..\lvgl\version_6.1.2\lvgl\src\lv_misc/lv_txt.c ****     if(flag & LV_TXT_FLAG_EXPAND) max_width = LV_COORD_MAX;
 299:..\..\..\lvgl\version_6.1.2\lvgl\src\lv_misc/lv_txt.c ****     lv_txt_cmd_state_t cmd_state = LV_TXT_CMD_STATE_WAIT;
 300:..\..\..\lvgl\version_6.1.2\lvgl\src\lv_misc/lv_txt.c ****     uint32_t i = 0;                                        /* Iterating index into txt */
 301:..\..\..\lvgl\version_6.1.2\lvgl\src\lv_misc/lv_txt.c **** 
 302:..\..\..\lvgl\version_6.1.2\lvgl\src\lv_misc/lv_txt.c ****     while(txt[i] != '\0' && max_width > 0) {
 303:..\..\..\lvgl\version_6.1.2\lvgl\src\lv_misc/lv_txt.c ****         uint32_t word_w = 0;
 304:..\..\..\lvgl\version_6.1.2\lvgl\src\lv_misc/lv_txt.c ****         uint32_t advance = lv_txt_get_next_word(&txt[i], font, letter_space, max_width, flag, &word
 305:..\..\..\lvgl\version_6.1.2\lvgl\src\lv_misc/lv_txt.c ****         max_width -= word_w;
 306:..\..\..\lvgl\version_6.1.2\lvgl\src\lv_misc/lv_txt.c **** 
 307:..\..\..\lvgl\version_6.1.2\lvgl\src\lv_misc/lv_txt.c ****         if( advance == 0 ){
 308:..\..\..\lvgl\version_6.1.2\lvgl\src\lv_misc/lv_txt.c ****             if(i == 0) lv_txt_encoded_next(txt, &i); // prevent inf loops
 309:..\..\..\lvgl\version_6.1.2\lvgl\src\lv_misc/lv_txt.c ****             break;
 310:..\..\..\lvgl\version_6.1.2\lvgl\src\lv_misc/lv_txt.c ****         }
 311:..\..\..\lvgl\version_6.1.2\lvgl\src\lv_misc/lv_txt.c **** 
 312:..\..\..\lvgl\version_6.1.2\lvgl\src\lv_misc/lv_txt.c ****         i += advance;
 313:..\..\..\lvgl\version_6.1.2\lvgl\src\lv_misc/lv_txt.c **** 
 314:..\..\..\lvgl\version_6.1.2\lvgl\src\lv_misc/lv_txt.c ****         if(txt[0] == '\n' || txt[0] == '\r') break;
 315:..\..\..\lvgl\version_6.1.2\lvgl\src\lv_misc/lv_txt.c **** 
ARM GAS  C:\Users\pearlstl\AppData\Local\Temp\ccILyAHD.s 			page 7


 316:..\..\..\lvgl\version_6.1.2\lvgl\src\lv_misc/lv_txt.c ****         if(txt[i] == '\n' || txt[i] == '\r'){
 317:..\..\..\lvgl\version_6.1.2\lvgl\src\lv_misc/lv_txt.c ****             i++;  /* Include the following newline in the current line */
 318:..\..\..\lvgl\version_6.1.2\lvgl\src\lv_misc/lv_txt.c ****             break;
 319:..\..\..\lvgl\version_6.1.2\lvgl\src\lv_misc/lv_txt.c ****         }
 320:..\..\..\lvgl\version_6.1.2\lvgl\src\lv_misc/lv_txt.c **** 
 321:..\..\..\lvgl\version_6.1.2\lvgl\src\lv_misc/lv_txt.c ****     }
 322:..\..\..\lvgl\version_6.1.2\lvgl\src\lv_misc/lv_txt.c **** 
 323:..\..\..\lvgl\version_6.1.2\lvgl\src\lv_misc/lv_txt.c ****     /* Always step at least one to avoid infinite loops */
 324:..\..\..\lvgl\version_6.1.2\lvgl\src\lv_misc/lv_txt.c ****     if(i == 0) {
 325:..\..\..\lvgl\version_6.1.2\lvgl\src\lv_misc/lv_txt.c ****         lv_txt_encoded_next(txt, &i);
 326:..\..\..\lvgl\version_6.1.2\lvgl\src\lv_misc/lv_txt.c ****     }
 327:..\..\..\lvgl\version_6.1.2\lvgl\src\lv_misc/lv_txt.c **** 
 328:..\..\..\lvgl\version_6.1.2\lvgl\src\lv_misc/lv_txt.c ****     return i;
 329:..\..\..\lvgl\version_6.1.2\lvgl\src\lv_misc/lv_txt.c **** }
 330:..\..\..\lvgl\version_6.1.2\lvgl\src\lv_misc/lv_txt.c **** 
 331:..\..\..\lvgl\version_6.1.2\lvgl\src\lv_misc/lv_txt.c **** /**
 332:..\..\..\lvgl\version_6.1.2\lvgl\src\lv_misc/lv_txt.c ****  * Give the length of a text with a given font
 333:..\..\..\lvgl\version_6.1.2\lvgl\src\lv_misc/lv_txt.c ****  * @param txt a '\0' terminate string
 334:..\..\..\lvgl\version_6.1.2\lvgl\src\lv_misc/lv_txt.c ****  * @param length length of 'txt' in byte count and not characters (Á is 1 character but 2 bytes in
 335:..\..\..\lvgl\version_6.1.2\lvgl\src\lv_misc/lv_txt.c ****  * UTF-8)
 336:..\..\..\lvgl\version_6.1.2\lvgl\src\lv_misc/lv_txt.c ****  * @param font pointer to a font
 337:..\..\..\lvgl\version_6.1.2\lvgl\src\lv_misc/lv_txt.c ****  * @param letter_space letter space
 338:..\..\..\lvgl\version_6.1.2\lvgl\src\lv_misc/lv_txt.c ****  * @param flags settings for the text from 'txt_flag_t' enum
 339:..\..\..\lvgl\version_6.1.2\lvgl\src\lv_misc/lv_txt.c ****  * @return length of a char_num long text
 340:..\..\..\lvgl\version_6.1.2\lvgl\src\lv_misc/lv_txt.c ****  */
 341:..\..\..\lvgl\version_6.1.2\lvgl\src\lv_misc/lv_txt.c **** lv_coord_t lv_txt_get_width(const char * txt, uint16_t length, const lv_font_t * font, lv_coord_t l
 342:..\..\..\lvgl\version_6.1.2\lvgl\src\lv_misc/lv_txt.c ****                             lv_txt_flag_t flag)
 343:..\..\..\lvgl\version_6.1.2\lvgl\src\lv_misc/lv_txt.c **** {
 344:..\..\..\lvgl\version_6.1.2\lvgl\src\lv_misc/lv_txt.c ****     if(txt == NULL) return 0;
 345:..\..\..\lvgl\version_6.1.2\lvgl\src\lv_misc/lv_txt.c ****     if(font == NULL) return 0;
 346:..\..\..\lvgl\version_6.1.2\lvgl\src\lv_misc/lv_txt.c **** 
 347:..\..\..\lvgl\version_6.1.2\lvgl\src\lv_misc/lv_txt.c ****     uint32_t i                   = 0;
 348:..\..\..\lvgl\version_6.1.2\lvgl\src\lv_misc/lv_txt.c ****     lv_coord_t width             = 0;
 349:..\..\..\lvgl\version_6.1.2\lvgl\src\lv_misc/lv_txt.c ****     lv_txt_cmd_state_t cmd_state = LV_TXT_CMD_STATE_WAIT;
 350:..\..\..\lvgl\version_6.1.2\lvgl\src\lv_misc/lv_txt.c ****     uint32_t letter;
 351:..\..\..\lvgl\version_6.1.2\lvgl\src\lv_misc/lv_txt.c ****     uint32_t letter_next;
 352:..\..\..\lvgl\version_6.1.2\lvgl\src\lv_misc/lv_txt.c **** 
 353:..\..\..\lvgl\version_6.1.2\lvgl\src\lv_misc/lv_txt.c ****     if(length != 0) {
 354:..\..\..\lvgl\version_6.1.2\lvgl\src\lv_misc/lv_txt.c ****         while(i < length) {
 355:..\..\..\lvgl\version_6.1.2\lvgl\src\lv_misc/lv_txt.c ****             letter      = lv_txt_encoded_next(txt, &i);
 356:..\..\..\lvgl\version_6.1.2\lvgl\src\lv_misc/lv_txt.c ****             letter_next = lv_txt_encoded_next(&txt[i], NULL);
 357:..\..\..\lvgl\version_6.1.2\lvgl\src\lv_misc/lv_txt.c ****             if((flag & LV_TXT_FLAG_RECOLOR) != 0) {
 358:..\..\..\lvgl\version_6.1.2\lvgl\src\lv_misc/lv_txt.c ****                 if(lv_txt_is_cmd(&cmd_state, letter) != false) {
 359:..\..\..\lvgl\version_6.1.2\lvgl\src\lv_misc/lv_txt.c ****                     continue;
 360:..\..\..\lvgl\version_6.1.2\lvgl\src\lv_misc/lv_txt.c ****                 }
 361:..\..\..\lvgl\version_6.1.2\lvgl\src\lv_misc/lv_txt.c ****             }
 362:..\..\..\lvgl\version_6.1.2\lvgl\src\lv_misc/lv_txt.c **** 
 363:..\..\..\lvgl\version_6.1.2\lvgl\src\lv_misc/lv_txt.c ****             lv_coord_t char_width = lv_font_get_glyph_width(font, letter, letter_next);
 364:..\..\..\lvgl\version_6.1.2\lvgl\src\lv_misc/lv_txt.c ****             if(char_width > 0) {
 365:..\..\..\lvgl\version_6.1.2\lvgl\src\lv_misc/lv_txt.c ****                 width += char_width;
 366:..\..\..\lvgl\version_6.1.2\lvgl\src\lv_misc/lv_txt.c ****                 width += letter_space;
 367:..\..\..\lvgl\version_6.1.2\lvgl\src\lv_misc/lv_txt.c ****             }
 368:..\..\..\lvgl\version_6.1.2\lvgl\src\lv_misc/lv_txt.c ****         }
 369:..\..\..\lvgl\version_6.1.2\lvgl\src\lv_misc/lv_txt.c **** 
 370:..\..\..\lvgl\version_6.1.2\lvgl\src\lv_misc/lv_txt.c ****         if(width > 0) {
 371:..\..\..\lvgl\version_6.1.2\lvgl\src\lv_misc/lv_txt.c ****             width -= letter_space; /*Trim the last letter space. Important if the text is center
 372:..\..\..\lvgl\version_6.1.2\lvgl\src\lv_misc/lv_txt.c ****                                       aligned */
ARM GAS  C:\Users\pearlstl\AppData\Local\Temp\ccILyAHD.s 			page 8


 373:..\..\..\lvgl\version_6.1.2\lvgl\src\lv_misc/lv_txt.c ****         }
 374:..\..\..\lvgl\version_6.1.2\lvgl\src\lv_misc/lv_txt.c ****     }
 375:..\..\..\lvgl\version_6.1.2\lvgl\src\lv_misc/lv_txt.c **** 
 376:..\..\..\lvgl\version_6.1.2\lvgl\src\lv_misc/lv_txt.c ****     return width;
 377:..\..\..\lvgl\version_6.1.2\lvgl\src\lv_misc/lv_txt.c **** }
 378:..\..\..\lvgl\version_6.1.2\lvgl\src\lv_misc/lv_txt.c **** 
 379:..\..\..\lvgl\version_6.1.2\lvgl\src\lv_misc/lv_txt.c **** /**
 380:..\..\..\lvgl\version_6.1.2\lvgl\src\lv_misc/lv_txt.c ****  * Check next character in a string and decide if the character is part of the command or not
 381:..\..\..\lvgl\version_6.1.2\lvgl\src\lv_misc/lv_txt.c ****  * @param state pointer to a txt_cmd_state_t variable which stores the current state of command
 382:..\..\..\lvgl\version_6.1.2\lvgl\src\lv_misc/lv_txt.c ****  * processing (Initied. to TXT_CMD_STATE_WAIT )
 383:..\..\..\lvgl\version_6.1.2\lvgl\src\lv_misc/lv_txt.c ****  * @param c the current character
 384:..\..\..\lvgl\version_6.1.2\lvgl\src\lv_misc/lv_txt.c ****  * @return true: the character is part of a command and should not be written,
 385:..\..\..\lvgl\version_6.1.2\lvgl\src\lv_misc/lv_txt.c ****  *         false: the character should be written
 386:..\..\..\lvgl\version_6.1.2\lvgl\src\lv_misc/lv_txt.c ****  */
 387:..\..\..\lvgl\version_6.1.2\lvgl\src\lv_misc/lv_txt.c **** bool lv_txt_is_cmd(lv_txt_cmd_state_t * state, uint32_t c)
 388:..\..\..\lvgl\version_6.1.2\lvgl\src\lv_misc/lv_txt.c **** {
 389:..\..\..\lvgl\version_6.1.2\lvgl\src\lv_misc/lv_txt.c ****     bool ret = false;
 390:..\..\..\lvgl\version_6.1.2\lvgl\src\lv_misc/lv_txt.c **** 
 391:..\..\..\lvgl\version_6.1.2\lvgl\src\lv_misc/lv_txt.c ****     if(c == (uint32_t)LV_TXT_COLOR_CMD[0]) {
 392:..\..\..\lvgl\version_6.1.2\lvgl\src\lv_misc/lv_txt.c ****         if(*state == LV_TXT_CMD_STATE_WAIT) { /*Start char*/
 393:..\..\..\lvgl\version_6.1.2\lvgl\src\lv_misc/lv_txt.c ****             *state = LV_TXT_CMD_STATE_PAR;
 394:..\..\..\lvgl\version_6.1.2\lvgl\src\lv_misc/lv_txt.c ****             ret    = true;
 395:..\..\..\lvgl\version_6.1.2\lvgl\src\lv_misc/lv_txt.c ****         }
 396:..\..\..\lvgl\version_6.1.2\lvgl\src\lv_misc/lv_txt.c ****         /*Other start char in parameter is escaped cmd. char */
 397:..\..\..\lvgl\version_6.1.2\lvgl\src\lv_misc/lv_txt.c ****         else if(*state == LV_TXT_CMD_STATE_PAR) {
 398:..\..\..\lvgl\version_6.1.2\lvgl\src\lv_misc/lv_txt.c ****             *state = LV_TXT_CMD_STATE_WAIT;
 399:..\..\..\lvgl\version_6.1.2\lvgl\src\lv_misc/lv_txt.c ****         }
 400:..\..\..\lvgl\version_6.1.2\lvgl\src\lv_misc/lv_txt.c ****         /*Command end */
 401:..\..\..\lvgl\version_6.1.2\lvgl\src\lv_misc/lv_txt.c ****         else if(*state == LV_TXT_CMD_STATE_IN) {
 402:..\..\..\lvgl\version_6.1.2\lvgl\src\lv_misc/lv_txt.c ****             *state = LV_TXT_CMD_STATE_WAIT;
 403:..\..\..\lvgl\version_6.1.2\lvgl\src\lv_misc/lv_txt.c ****             ret    = true;
 404:..\..\..\lvgl\version_6.1.2\lvgl\src\lv_misc/lv_txt.c ****         }
 405:..\..\..\lvgl\version_6.1.2\lvgl\src\lv_misc/lv_txt.c ****     }
 406:..\..\..\lvgl\version_6.1.2\lvgl\src\lv_misc/lv_txt.c **** 
 407:..\..\..\lvgl\version_6.1.2\lvgl\src\lv_misc/lv_txt.c ****     /*Skip the color parameter and wait the space after it*/
 408:..\..\..\lvgl\version_6.1.2\lvgl\src\lv_misc/lv_txt.c ****     if(*state == LV_TXT_CMD_STATE_PAR) {
 409:..\..\..\lvgl\version_6.1.2\lvgl\src\lv_misc/lv_txt.c ****         if(c == ' ') {
 410:..\..\..\lvgl\version_6.1.2\lvgl\src\lv_misc/lv_txt.c ****             *state = LV_TXT_CMD_STATE_IN; /*After the parameter the text is in the command*/
 411:..\..\..\lvgl\version_6.1.2\lvgl\src\lv_misc/lv_txt.c ****         }
 412:..\..\..\lvgl\version_6.1.2\lvgl\src\lv_misc/lv_txt.c ****         ret = true;
 413:..\..\..\lvgl\version_6.1.2\lvgl\src\lv_misc/lv_txt.c ****     }
 414:..\..\..\lvgl\version_6.1.2\lvgl\src\lv_misc/lv_txt.c **** 
 415:..\..\..\lvgl\version_6.1.2\lvgl\src\lv_misc/lv_txt.c ****     return ret;
 416:..\..\..\lvgl\version_6.1.2\lvgl\src\lv_misc/lv_txt.c **** }
 417:..\..\..\lvgl\version_6.1.2\lvgl\src\lv_misc/lv_txt.c **** 
 418:..\..\..\lvgl\version_6.1.2\lvgl\src\lv_misc/lv_txt.c **** /**
 419:..\..\..\lvgl\version_6.1.2\lvgl\src\lv_misc/lv_txt.c ****  * Insert a string into an other
 420:..\..\..\lvgl\version_6.1.2\lvgl\src\lv_misc/lv_txt.c ****  * @param txt_buf the original text (must be big enough for the result text)
 421:..\..\..\lvgl\version_6.1.2\lvgl\src\lv_misc/lv_txt.c ****  * @param pos position to insert. Expressed in character index and not byte index (Different in
 422:..\..\..\lvgl\version_6.1.2\lvgl\src\lv_misc/lv_txt.c ****  * UTF-8) 0: before the original text, 1: after the first char etc.
 423:..\..\..\lvgl\version_6.1.2\lvgl\src\lv_misc/lv_txt.c ****  * @param ins_txt text to insert
 424:..\..\..\lvgl\version_6.1.2\lvgl\src\lv_misc/lv_txt.c ****  */
 425:..\..\..\lvgl\version_6.1.2\lvgl\src\lv_misc/lv_txt.c **** void lv_txt_ins(char * txt_buf, uint32_t pos, const char * ins_txt)
 426:..\..\..\lvgl\version_6.1.2\lvgl\src\lv_misc/lv_txt.c **** {
 427:..\..\..\lvgl\version_6.1.2\lvgl\src\lv_misc/lv_txt.c ****     size_t old_len = strlen(txt_buf);
 428:..\..\..\lvgl\version_6.1.2\lvgl\src\lv_misc/lv_txt.c ****     size_t ins_len = strlen(ins_txt);
 429:..\..\..\lvgl\version_6.1.2\lvgl\src\lv_misc/lv_txt.c ****     size_t new_len = ins_len + old_len;
ARM GAS  C:\Users\pearlstl\AppData\Local\Temp\ccILyAHD.s 			page 9


 430:..\..\..\lvgl\version_6.1.2\lvgl\src\lv_misc/lv_txt.c ****     pos              = lv_txt_encoded_get_byte_id(txt_buf, pos); /*Convert to byte index instead of
 431:..\..\..\lvgl\version_6.1.2\lvgl\src\lv_misc/lv_txt.c **** 
 432:..\..\..\lvgl\version_6.1.2\lvgl\src\lv_misc/lv_txt.c ****     /*Copy the second part into the end to make place to text to insert*/
 433:..\..\..\lvgl\version_6.1.2\lvgl\src\lv_misc/lv_txt.c ****     size_t i;
 434:..\..\..\lvgl\version_6.1.2\lvgl\src\lv_misc/lv_txt.c ****     for(i = new_len; i >= pos + ins_len; i--) {
 435:..\..\..\lvgl\version_6.1.2\lvgl\src\lv_misc/lv_txt.c ****         txt_buf[i] = txt_buf[i - ins_len];
 436:..\..\..\lvgl\version_6.1.2\lvgl\src\lv_misc/lv_txt.c ****     }
 437:..\..\..\lvgl\version_6.1.2\lvgl\src\lv_misc/lv_txt.c **** 
 438:..\..\..\lvgl\version_6.1.2\lvgl\src\lv_misc/lv_txt.c ****     /* Copy the text into the new space*/
 439:..\..\..\lvgl\version_6.1.2\lvgl\src\lv_misc/lv_txt.c ****     memcpy(txt_buf + pos, ins_txt, ins_len);
 440:..\..\..\lvgl\version_6.1.2\lvgl\src\lv_misc/lv_txt.c **** }
 441:..\..\..\lvgl\version_6.1.2\lvgl\src\lv_misc/lv_txt.c **** 
 442:..\..\..\lvgl\version_6.1.2\lvgl\src\lv_misc/lv_txt.c **** /**
 443:..\..\..\lvgl\version_6.1.2\lvgl\src\lv_misc/lv_txt.c ****  * Delete a part of a string
 444:..\..\..\lvgl\version_6.1.2\lvgl\src\lv_misc/lv_txt.c ****  * @param txt string to modify
 445:..\..\..\lvgl\version_6.1.2\lvgl\src\lv_misc/lv_txt.c ****  * @param pos position where to start the deleting (0: before the first char, 1: after the first
 446:..\..\..\lvgl\version_6.1.2\lvgl\src\lv_misc/lv_txt.c ****  * char etc.)
 447:..\..\..\lvgl\version_6.1.2\lvgl\src\lv_misc/lv_txt.c ****  * @param len number of characters to delete
 448:..\..\..\lvgl\version_6.1.2\lvgl\src\lv_misc/lv_txt.c ****  */
 449:..\..\..\lvgl\version_6.1.2\lvgl\src\lv_misc/lv_txt.c **** void lv_txt_cut(char * txt, uint32_t pos, uint32_t len)
 450:..\..\..\lvgl\version_6.1.2\lvgl\src\lv_misc/lv_txt.c **** {
 451:..\..\..\lvgl\version_6.1.2\lvgl\src\lv_misc/lv_txt.c **** 
 452:..\..\..\lvgl\version_6.1.2\lvgl\src\lv_misc/lv_txt.c ****     size_t old_len = strlen(txt);
 453:..\..\..\lvgl\version_6.1.2\lvgl\src\lv_misc/lv_txt.c **** 
 454:..\..\..\lvgl\version_6.1.2\lvgl\src\lv_misc/lv_txt.c ****     pos = lv_txt_encoded_get_byte_id(txt, pos); /*Convert to byte index instead of letter index*/
 455:..\..\..\lvgl\version_6.1.2\lvgl\src\lv_misc/lv_txt.c ****     len = lv_txt_encoded_get_byte_id(&txt[pos], len);
 456:..\..\..\lvgl\version_6.1.2\lvgl\src\lv_misc/lv_txt.c **** 
 457:..\..\..\lvgl\version_6.1.2\lvgl\src\lv_misc/lv_txt.c ****     /*Copy the second part into the end to make place to text to insert*/
 458:..\..\..\lvgl\version_6.1.2\lvgl\src\lv_misc/lv_txt.c ****     uint32_t i;
 459:..\..\..\lvgl\version_6.1.2\lvgl\src\lv_misc/lv_txt.c ****     for(i = pos; i <= old_len - len; i++) {
 460:..\..\..\lvgl\version_6.1.2\lvgl\src\lv_misc/lv_txt.c ****         txt[i] = txt[i + len];
 461:..\..\..\lvgl\version_6.1.2\lvgl\src\lv_misc/lv_txt.c ****     }
 462:..\..\..\lvgl\version_6.1.2\lvgl\src\lv_misc/lv_txt.c **** }
 463:..\..\..\lvgl\version_6.1.2\lvgl\src\lv_misc/lv_txt.c **** 
 464:..\..\..\lvgl\version_6.1.2\lvgl\src\lv_misc/lv_txt.c **** #if LV_TXT_ENC == LV_TXT_ENC_UTF8
 465:..\..\..\lvgl\version_6.1.2\lvgl\src\lv_misc/lv_txt.c **** /*******************************
 466:..\..\..\lvgl\version_6.1.2\lvgl\src\lv_misc/lv_txt.c ****  *   UTF-8 ENCODER/DECOER
 467:..\..\..\lvgl\version_6.1.2\lvgl\src\lv_misc/lv_txt.c ****  ******************************/
 468:..\..\..\lvgl\version_6.1.2\lvgl\src\lv_misc/lv_txt.c **** 
 469:..\..\..\lvgl\version_6.1.2\lvgl\src\lv_misc/lv_txt.c **** /**
 470:..\..\..\lvgl\version_6.1.2\lvgl\src\lv_misc/lv_txt.c ****  * Give the size of an UTF-8 coded character
 471:..\..\..\lvgl\version_6.1.2\lvgl\src\lv_misc/lv_txt.c ****  * @param str pointer to a character in a string
 472:..\..\..\lvgl\version_6.1.2\lvgl\src\lv_misc/lv_txt.c ****  * @return length of the UTF-8 character (1,2,3 or 4). O on invalid code
 473:..\..\..\lvgl\version_6.1.2\lvgl\src\lv_misc/lv_txt.c ****  */
 474:..\..\..\lvgl\version_6.1.2\lvgl\src\lv_misc/lv_txt.c **** static uint8_t lv_txt_utf8_size(const char * str)
 475:..\..\..\lvgl\version_6.1.2\lvgl\src\lv_misc/lv_txt.c **** {
 476:..\..\..\lvgl\version_6.1.2\lvgl\src\lv_misc/lv_txt.c ****     if((str[0] & 0x80) == 0)
 477:..\..\..\lvgl\version_6.1.2\lvgl\src\lv_misc/lv_txt.c ****         return 1;
 478:..\..\..\lvgl\version_6.1.2\lvgl\src\lv_misc/lv_txt.c ****     else if((str[0] & 0xE0) == 0xC0)
 479:..\..\..\lvgl\version_6.1.2\lvgl\src\lv_misc/lv_txt.c ****         return 2;
 480:..\..\..\lvgl\version_6.1.2\lvgl\src\lv_misc/lv_txt.c ****     else if((str[0] & 0xF0) == 0xE0)
 481:..\..\..\lvgl\version_6.1.2\lvgl\src\lv_misc/lv_txt.c ****         return 3;
 482:..\..\..\lvgl\version_6.1.2\lvgl\src\lv_misc/lv_txt.c ****     else if((str[0] & 0xF8) == 0xF0)
 483:..\..\..\lvgl\version_6.1.2\lvgl\src\lv_misc/lv_txt.c ****         return 4;
 484:..\..\..\lvgl\version_6.1.2\lvgl\src\lv_misc/lv_txt.c ****     return 0; /*If the char was invalid tell it's 1 byte long*/
 485:..\..\..\lvgl\version_6.1.2\lvgl\src\lv_misc/lv_txt.c **** }
 486:..\..\..\lvgl\version_6.1.2\lvgl\src\lv_misc/lv_txt.c **** 
ARM GAS  C:\Users\pearlstl\AppData\Local\Temp\ccILyAHD.s 			page 10


 487:..\..\..\lvgl\version_6.1.2\lvgl\src\lv_misc/lv_txt.c **** /**
 488:..\..\..\lvgl\version_6.1.2\lvgl\src\lv_misc/lv_txt.c ****  * Convert an Unicode letter to UTF-8.
 489:..\..\..\lvgl\version_6.1.2\lvgl\src\lv_misc/lv_txt.c ****  * @param letter_uni an Unicode letter
 490:..\..\..\lvgl\version_6.1.2\lvgl\src\lv_misc/lv_txt.c ****  * @return UTF-8 coded character in Little Endian to be compatible with C chars (e.g. 'Á', 'Ű')
 491:..\..\..\lvgl\version_6.1.2\lvgl\src\lv_misc/lv_txt.c ****  */
 492:..\..\..\lvgl\version_6.1.2\lvgl\src\lv_misc/lv_txt.c **** static uint32_t lv_txt_unicode_to_utf8(uint32_t letter_uni)
 493:..\..\..\lvgl\version_6.1.2\lvgl\src\lv_misc/lv_txt.c **** {
 494:..\..\..\lvgl\version_6.1.2\lvgl\src\lv_misc/lv_txt.c ****     if(letter_uni < 128) return letter_uni;
 495:..\..\..\lvgl\version_6.1.2\lvgl\src\lv_misc/lv_txt.c ****     uint8_t bytes[4];
 496:..\..\..\lvgl\version_6.1.2\lvgl\src\lv_misc/lv_txt.c **** 
 497:..\..\..\lvgl\version_6.1.2\lvgl\src\lv_misc/lv_txt.c ****     if(letter_uni < 0x0800) {
 498:..\..\..\lvgl\version_6.1.2\lvgl\src\lv_misc/lv_txt.c ****         bytes[0] = ((letter_uni >> 6) & 0x1F) | 0xC0;
 499:..\..\..\lvgl\version_6.1.2\lvgl\src\lv_misc/lv_txt.c ****         bytes[1] = ((letter_uni >> 0) & 0x3F) | 0x80;
 500:..\..\..\lvgl\version_6.1.2\lvgl\src\lv_misc/lv_txt.c ****         bytes[2] = 0;
 501:..\..\..\lvgl\version_6.1.2\lvgl\src\lv_misc/lv_txt.c ****         bytes[3] = 0;
 502:..\..\..\lvgl\version_6.1.2\lvgl\src\lv_misc/lv_txt.c ****     } else if(letter_uni < 0x010000) {
 503:..\..\..\lvgl\version_6.1.2\lvgl\src\lv_misc/lv_txt.c ****         bytes[0] = ((letter_uni >> 12) & 0x0F) | 0xE0;
 504:..\..\..\lvgl\version_6.1.2\lvgl\src\lv_misc/lv_txt.c ****         bytes[1] = ((letter_uni >> 6) & 0x3F) | 0x80;
 505:..\..\..\lvgl\version_6.1.2\lvgl\src\lv_misc/lv_txt.c ****         bytes[2] = ((letter_uni >> 0) & 0x3F) | 0x80;
 506:..\..\..\lvgl\version_6.1.2\lvgl\src\lv_misc/lv_txt.c ****         bytes[3] = 0;
 507:..\..\..\lvgl\version_6.1.2\lvgl\src\lv_misc/lv_txt.c ****     } else if(letter_uni < 0x110000) {
 508:..\..\..\lvgl\version_6.1.2\lvgl\src\lv_misc/lv_txt.c ****         bytes[0] = ((letter_uni >> 18) & 0x07) | 0xF0;
 509:..\..\..\lvgl\version_6.1.2\lvgl\src\lv_misc/lv_txt.c ****         bytes[1] = ((letter_uni >> 12) & 0x3F) | 0x80;
 510:..\..\..\lvgl\version_6.1.2\lvgl\src\lv_misc/lv_txt.c ****         bytes[2] = ((letter_uni >> 6) & 0x3F) | 0x80;
 511:..\..\..\lvgl\version_6.1.2\lvgl\src\lv_misc/lv_txt.c ****         bytes[3] = ((letter_uni >> 0) & 0x3F) | 0x80;
 512:..\..\..\lvgl\version_6.1.2\lvgl\src\lv_misc/lv_txt.c ****     }
 513:..\..\..\lvgl\version_6.1.2\lvgl\src\lv_misc/lv_txt.c **** 
 514:..\..\..\lvgl\version_6.1.2\lvgl\src\lv_misc/lv_txt.c ****     uint32_t * res_p = (uint32_t *)bytes;
 515:..\..\..\lvgl\version_6.1.2\lvgl\src\lv_misc/lv_txt.c ****     return *res_p;
 516:..\..\..\lvgl\version_6.1.2\lvgl\src\lv_misc/lv_txt.c **** }
 517:..\..\..\lvgl\version_6.1.2\lvgl\src\lv_misc/lv_txt.c **** 
 518:..\..\..\lvgl\version_6.1.2\lvgl\src\lv_misc/lv_txt.c **** /**
 519:..\..\..\lvgl\version_6.1.2\lvgl\src\lv_misc/lv_txt.c ****  * Convert a wide character, e.g. 'Á' little endian to be UTF-8 compatible
 520:..\..\..\lvgl\version_6.1.2\lvgl\src\lv_misc/lv_txt.c ****  * @param c a wide character or a  Little endian number
 521:..\..\..\lvgl\version_6.1.2\lvgl\src\lv_misc/lv_txt.c ****  * @return `c` in big endian
 522:..\..\..\lvgl\version_6.1.2\lvgl\src\lv_misc/lv_txt.c ****  */
 523:..\..\..\lvgl\version_6.1.2\lvgl\src\lv_misc/lv_txt.c **** static uint32_t lv_txt_utf8_conv_wc(uint32_t c)
 524:..\..\..\lvgl\version_6.1.2\lvgl\src\lv_misc/lv_txt.c **** {
 525:..\..\..\lvgl\version_6.1.2\lvgl\src\lv_misc/lv_txt.c ****     /*Swap the bytes (UTF-8 is big endian, but the MCUs are little endian)*/
 526:..\..\..\lvgl\version_6.1.2\lvgl\src\lv_misc/lv_txt.c ****     if((c & 0x80) != 0) {
 527:..\..\..\lvgl\version_6.1.2\lvgl\src\lv_misc/lv_txt.c ****         uint32_t swapped;
 528:..\..\..\lvgl\version_6.1.2\lvgl\src\lv_misc/lv_txt.c ****         uint8_t c8[4];
 529:..\..\..\lvgl\version_6.1.2\lvgl\src\lv_misc/lv_txt.c ****         memcpy(c8, &c, 4);
 530:..\..\..\lvgl\version_6.1.2\lvgl\src\lv_misc/lv_txt.c ****         swapped = (c8[0] << 24) + (c8[1] << 16) + (c8[2] << 8) + (c8[3]);
 531:..\..\..\lvgl\version_6.1.2\lvgl\src\lv_misc/lv_txt.c ****         uint8_t i;
 532:..\..\..\lvgl\version_6.1.2\lvgl\src\lv_misc/lv_txt.c ****         for(i = 0; i < 4; i++) {
 533:..\..\..\lvgl\version_6.1.2\lvgl\src\lv_misc/lv_txt.c ****             if((swapped & 0xFF) == 0)
 534:..\..\..\lvgl\version_6.1.2\lvgl\src\lv_misc/lv_txt.c ****                 swapped = (swapped >> 8); /*Ignore leading zeros (they were in the end originally)*
 535:..\..\..\lvgl\version_6.1.2\lvgl\src\lv_misc/lv_txt.c ****         }
 536:..\..\..\lvgl\version_6.1.2\lvgl\src\lv_misc/lv_txt.c ****         c = swapped;
 537:..\..\..\lvgl\version_6.1.2\lvgl\src\lv_misc/lv_txt.c ****     }
 538:..\..\..\lvgl\version_6.1.2\lvgl\src\lv_misc/lv_txt.c **** 
 539:..\..\..\lvgl\version_6.1.2\lvgl\src\lv_misc/lv_txt.c ****     return c;
 540:..\..\..\lvgl\version_6.1.2\lvgl\src\lv_misc/lv_txt.c **** }
 541:..\..\..\lvgl\version_6.1.2\lvgl\src\lv_misc/lv_txt.c **** 
 542:..\..\..\lvgl\version_6.1.2\lvgl\src\lv_misc/lv_txt.c **** /**
 543:..\..\..\lvgl\version_6.1.2\lvgl\src\lv_misc/lv_txt.c ****  * Decode an UTF-8 character from a string.
ARM GAS  C:\Users\pearlstl\AppData\Local\Temp\ccILyAHD.s 			page 11


 544:..\..\..\lvgl\version_6.1.2\lvgl\src\lv_misc/lv_txt.c ****  * @param txt pointer to '\0' terminated string
 545:..\..\..\lvgl\version_6.1.2\lvgl\src\lv_misc/lv_txt.c ****  * @param i start byte index in 'txt' where to start.
 546:..\..\..\lvgl\version_6.1.2\lvgl\src\lv_misc/lv_txt.c ****  *          After call it will point to the next UTF-8 char in 'txt'.
 547:..\..\..\lvgl\version_6.1.2\lvgl\src\lv_misc/lv_txt.c ****  *          NULL to use txt[0] as index
 548:..\..\..\lvgl\version_6.1.2\lvgl\src\lv_misc/lv_txt.c ****  * @return the decoded Unicode character or 0 on invalid UTF-8 code
 549:..\..\..\lvgl\version_6.1.2\lvgl\src\lv_misc/lv_txt.c ****  */
 550:..\..\..\lvgl\version_6.1.2\lvgl\src\lv_misc/lv_txt.c **** static uint32_t lv_txt_utf8_next(const char * txt, uint32_t * i)
 551:..\..\..\lvgl\version_6.1.2\lvgl\src\lv_misc/lv_txt.c **** {
 552:..\..\..\lvgl\version_6.1.2\lvgl\src\lv_misc/lv_txt.c ****     /* Unicode to UTF-8
 553:..\..\..\lvgl\version_6.1.2\lvgl\src\lv_misc/lv_txt.c ****      * 00000000 00000000 00000000 0xxxxxxx -> 0xxxxxxx
 554:..\..\..\lvgl\version_6.1.2\lvgl\src\lv_misc/lv_txt.c ****      * 00000000 00000000 00000yyy yyxxxxxx -> 110yyyyy 10xxxxxx
 555:..\..\..\lvgl\version_6.1.2\lvgl\src\lv_misc/lv_txt.c ****      * 00000000 00000000 zzzzyyyy yyxxxxxx -> 1110zzzz 10yyyyyy 10xxxxxx
 556:..\..\..\lvgl\version_6.1.2\lvgl\src\lv_misc/lv_txt.c ****      * 00000000 000wwwzz zzzzyyyy yyxxxxxx -> 11110www 10zzzzzz 10yyyyyy 10xxxxxx
 557:..\..\..\lvgl\version_6.1.2\lvgl\src\lv_misc/lv_txt.c ****      * */
 558:..\..\..\lvgl\version_6.1.2\lvgl\src\lv_misc/lv_txt.c **** 
 559:..\..\..\lvgl\version_6.1.2\lvgl\src\lv_misc/lv_txt.c ****     uint32_t result = 0;
 560:..\..\..\lvgl\version_6.1.2\lvgl\src\lv_misc/lv_txt.c **** 
 561:..\..\..\lvgl\version_6.1.2\lvgl\src\lv_misc/lv_txt.c ****     /*Dummy 'i' pointer is required*/
 562:..\..\..\lvgl\version_6.1.2\lvgl\src\lv_misc/lv_txt.c ****     uint32_t i_tmp = 0;
 563:..\..\..\lvgl\version_6.1.2\lvgl\src\lv_misc/lv_txt.c ****     if(i == NULL) i = &i_tmp;
 564:..\..\..\lvgl\version_6.1.2\lvgl\src\lv_misc/lv_txt.c **** 
 565:..\..\..\lvgl\version_6.1.2\lvgl\src\lv_misc/lv_txt.c ****     /*Normal ASCII*/
 566:..\..\..\lvgl\version_6.1.2\lvgl\src\lv_misc/lv_txt.c ****     if((txt[*i] & 0x80) == 0) {
 567:..\..\..\lvgl\version_6.1.2\lvgl\src\lv_misc/lv_txt.c ****         result = txt[*i];
 568:..\..\..\lvgl\version_6.1.2\lvgl\src\lv_misc/lv_txt.c ****         (*i)++;
 569:..\..\..\lvgl\version_6.1.2\lvgl\src\lv_misc/lv_txt.c ****     }
 570:..\..\..\lvgl\version_6.1.2\lvgl\src\lv_misc/lv_txt.c ****     /*Real UTF-8 decode*/
 571:..\..\..\lvgl\version_6.1.2\lvgl\src\lv_misc/lv_txt.c ****     else {
 572:..\..\..\lvgl\version_6.1.2\lvgl\src\lv_misc/lv_txt.c ****         /*2 bytes UTF-8 code*/
 573:..\..\..\lvgl\version_6.1.2\lvgl\src\lv_misc/lv_txt.c ****         if((txt[*i] & 0xE0) == 0xC0) {
 574:..\..\..\lvgl\version_6.1.2\lvgl\src\lv_misc/lv_txt.c ****             result = (uint32_t)(txt[*i] & 0x1F) << 6;
 575:..\..\..\lvgl\version_6.1.2\lvgl\src\lv_misc/lv_txt.c ****             (*i)++;
 576:..\..\..\lvgl\version_6.1.2\lvgl\src\lv_misc/lv_txt.c ****             if((txt[*i] & 0xC0) != 0x80) return 0; /*Invalid UTF-8 code*/
 577:..\..\..\lvgl\version_6.1.2\lvgl\src\lv_misc/lv_txt.c ****             result += (txt[*i] & 0x3F);
 578:..\..\..\lvgl\version_6.1.2\lvgl\src\lv_misc/lv_txt.c ****             (*i)++;
 579:..\..\..\lvgl\version_6.1.2\lvgl\src\lv_misc/lv_txt.c ****         }
 580:..\..\..\lvgl\version_6.1.2\lvgl\src\lv_misc/lv_txt.c ****         /*3 bytes UTF-8 code*/
 581:..\..\..\lvgl\version_6.1.2\lvgl\src\lv_misc/lv_txt.c ****         else if((txt[*i] & 0xF0) == 0xE0) {
 582:..\..\..\lvgl\version_6.1.2\lvgl\src\lv_misc/lv_txt.c ****             result = (uint32_t)(txt[*i] & 0x0F) << 12;
 583:..\..\..\lvgl\version_6.1.2\lvgl\src\lv_misc/lv_txt.c ****             (*i)++;
 584:..\..\..\lvgl\version_6.1.2\lvgl\src\lv_misc/lv_txt.c **** 
 585:..\..\..\lvgl\version_6.1.2\lvgl\src\lv_misc/lv_txt.c ****             if((txt[*i] & 0xC0) != 0x80) return 0; /*Invalid UTF-8 code*/
 586:..\..\..\lvgl\version_6.1.2\lvgl\src\lv_misc/lv_txt.c ****             result += (uint32_t)(txt[*i] & 0x3F) << 6;
 587:..\..\..\lvgl\version_6.1.2\lvgl\src\lv_misc/lv_txt.c ****             (*i)++;
 588:..\..\..\lvgl\version_6.1.2\lvgl\src\lv_misc/lv_txt.c **** 
 589:..\..\..\lvgl\version_6.1.2\lvgl\src\lv_misc/lv_txt.c ****             if((txt[*i] & 0xC0) != 0x80) return 0; /*Invalid UTF-8 code*/
 590:..\..\..\lvgl\version_6.1.2\lvgl\src\lv_misc/lv_txt.c ****             result += (txt[*i] & 0x3F);
 591:..\..\..\lvgl\version_6.1.2\lvgl\src\lv_misc/lv_txt.c ****             (*i)++;
 592:..\..\..\lvgl\version_6.1.2\lvgl\src\lv_misc/lv_txt.c ****         }
 593:..\..\..\lvgl\version_6.1.2\lvgl\src\lv_misc/lv_txt.c ****         /*4 bytes UTF-8 code*/
 594:..\..\..\lvgl\version_6.1.2\lvgl\src\lv_misc/lv_txt.c ****         else if((txt[*i] & 0xF8) == 0xF0) {
 595:..\..\..\lvgl\version_6.1.2\lvgl\src\lv_misc/lv_txt.c ****             result = (uint32_t)(txt[*i] & 0x07) << 18;
 596:..\..\..\lvgl\version_6.1.2\lvgl\src\lv_misc/lv_txt.c ****             (*i)++;
 597:..\..\..\lvgl\version_6.1.2\lvgl\src\lv_misc/lv_txt.c **** 
 598:..\..\..\lvgl\version_6.1.2\lvgl\src\lv_misc/lv_txt.c ****             if((txt[*i] & 0xC0) != 0x80) return 0; /*Invalid UTF-8 code*/
 599:..\..\..\lvgl\version_6.1.2\lvgl\src\lv_misc/lv_txt.c ****             result += (uint32_t)(txt[*i] & 0x3F) << 12;
 600:..\..\..\lvgl\version_6.1.2\lvgl\src\lv_misc/lv_txt.c ****             (*i)++;
ARM GAS  C:\Users\pearlstl\AppData\Local\Temp\ccILyAHD.s 			page 12


 601:..\..\..\lvgl\version_6.1.2\lvgl\src\lv_misc/lv_txt.c **** 
 602:..\..\..\lvgl\version_6.1.2\lvgl\src\lv_misc/lv_txt.c ****             if((txt[*i] & 0xC0) != 0x80) return 0; /*Invalid UTF-8 code*/
 603:..\..\..\lvgl\version_6.1.2\lvgl\src\lv_misc/lv_txt.c ****             result += (uint32_t)(txt[*i] & 0x3F) << 6;
 604:..\..\..\lvgl\version_6.1.2\lvgl\src\lv_misc/lv_txt.c ****             (*i)++;
 605:..\..\..\lvgl\version_6.1.2\lvgl\src\lv_misc/lv_txt.c **** 
 606:..\..\..\lvgl\version_6.1.2\lvgl\src\lv_misc/lv_txt.c ****             if((txt[*i] & 0xC0) != 0x80) return 0; /*Invalid UTF-8 code*/
 607:..\..\..\lvgl\version_6.1.2\lvgl\src\lv_misc/lv_txt.c ****             result += txt[*i] & 0x3F;
 608:..\..\..\lvgl\version_6.1.2\lvgl\src\lv_misc/lv_txt.c ****             (*i)++;
 609:..\..\..\lvgl\version_6.1.2\lvgl\src\lv_misc/lv_txt.c ****         } else {
 610:..\..\..\lvgl\version_6.1.2\lvgl\src\lv_misc/lv_txt.c ****             (*i)++; /*Not UTF-8 char. Go the next.*/
 611:..\..\..\lvgl\version_6.1.2\lvgl\src\lv_misc/lv_txt.c ****         }
 612:..\..\..\lvgl\version_6.1.2\lvgl\src\lv_misc/lv_txt.c ****     }
 613:..\..\..\lvgl\version_6.1.2\lvgl\src\lv_misc/lv_txt.c ****     return result;
 614:..\..\..\lvgl\version_6.1.2\lvgl\src\lv_misc/lv_txt.c **** }
 615:..\..\..\lvgl\version_6.1.2\lvgl\src\lv_misc/lv_txt.c **** 
 616:..\..\..\lvgl\version_6.1.2\lvgl\src\lv_misc/lv_txt.c **** /**
 617:..\..\..\lvgl\version_6.1.2\lvgl\src\lv_misc/lv_txt.c ****  * Get previous UTF-8 character form a string.
 618:..\..\..\lvgl\version_6.1.2\lvgl\src\lv_misc/lv_txt.c ****  * @param txt pointer to '\0' terminated string
 619:..\..\..\lvgl\version_6.1.2\lvgl\src\lv_misc/lv_txt.c ****  * @param i start byte index in 'txt' where to start. After the call it will point to the previous
 620:..\..\..\lvgl\version_6.1.2\lvgl\src\lv_misc/lv_txt.c ****  * UTF-8 char in 'txt'.
 621:..\..\..\lvgl\version_6.1.2\lvgl\src\lv_misc/lv_txt.c ****  * @return the decoded Unicode character or 0 on invalid UTF-8 code
 622:..\..\..\lvgl\version_6.1.2\lvgl\src\lv_misc/lv_txt.c ****  */
 623:..\..\..\lvgl\version_6.1.2\lvgl\src\lv_misc/lv_txt.c **** static uint32_t lv_txt_utf8_prev(const char * txt, uint32_t * i)
 624:..\..\..\lvgl\version_6.1.2\lvgl\src\lv_misc/lv_txt.c **** {
 625:..\..\..\lvgl\version_6.1.2\lvgl\src\lv_misc/lv_txt.c ****     uint8_t c_size;
 626:..\..\..\lvgl\version_6.1.2\lvgl\src\lv_misc/lv_txt.c ****     uint8_t cnt = 0;
 627:..\..\..\lvgl\version_6.1.2\lvgl\src\lv_misc/lv_txt.c **** 
 628:..\..\..\lvgl\version_6.1.2\lvgl\src\lv_misc/lv_txt.c ****     /*Try to find a !0 long UTF-8 char by stepping one character back*/
 629:..\..\..\lvgl\version_6.1.2\lvgl\src\lv_misc/lv_txt.c ****     (*i)--;
 630:..\..\..\lvgl\version_6.1.2\lvgl\src\lv_misc/lv_txt.c ****     do {
 631:..\..\..\lvgl\version_6.1.2\lvgl\src\lv_misc/lv_txt.c ****         if(cnt >= 4) return 0; /*No UTF-8 char found before the initial*/
 632:..\..\..\lvgl\version_6.1.2\lvgl\src\lv_misc/lv_txt.c **** 
 633:..\..\..\lvgl\version_6.1.2\lvgl\src\lv_misc/lv_txt.c ****         c_size = lv_txt_encoded_size(&txt[*i]);
 634:..\..\..\lvgl\version_6.1.2\lvgl\src\lv_misc/lv_txt.c ****         if(c_size == 0) {
 635:..\..\..\lvgl\version_6.1.2\lvgl\src\lv_misc/lv_txt.c ****             if(*i != 0)
 636:..\..\..\lvgl\version_6.1.2\lvgl\src\lv_misc/lv_txt.c ****                 (*i)--;
 637:..\..\..\lvgl\version_6.1.2\lvgl\src\lv_misc/lv_txt.c ****             else
 638:..\..\..\lvgl\version_6.1.2\lvgl\src\lv_misc/lv_txt.c ****                 return 0;
 639:..\..\..\lvgl\version_6.1.2\lvgl\src\lv_misc/lv_txt.c ****         }
 640:..\..\..\lvgl\version_6.1.2\lvgl\src\lv_misc/lv_txt.c ****         cnt++;
 641:..\..\..\lvgl\version_6.1.2\lvgl\src\lv_misc/lv_txt.c ****     } while(c_size == 0);
 642:..\..\..\lvgl\version_6.1.2\lvgl\src\lv_misc/lv_txt.c **** 
 643:..\..\..\lvgl\version_6.1.2\lvgl\src\lv_misc/lv_txt.c ****     uint32_t i_tmp  = *i;
 644:..\..\..\lvgl\version_6.1.2\lvgl\src\lv_misc/lv_txt.c ****     uint32_t letter = lv_txt_encoded_next(txt, &i_tmp); /*Character found, get it*/
 645:..\..\..\lvgl\version_6.1.2\lvgl\src\lv_misc/lv_txt.c **** 
 646:..\..\..\lvgl\version_6.1.2\lvgl\src\lv_misc/lv_txt.c ****     return letter;
 647:..\..\..\lvgl\version_6.1.2\lvgl\src\lv_misc/lv_txt.c **** }
 648:..\..\..\lvgl\version_6.1.2\lvgl\src\lv_misc/lv_txt.c **** 
 649:..\..\..\lvgl\version_6.1.2\lvgl\src\lv_misc/lv_txt.c **** /**
 650:..\..\..\lvgl\version_6.1.2\lvgl\src\lv_misc/lv_txt.c ****  * Convert a character index (in an UTF-8 text) to byte index.
 651:..\..\..\lvgl\version_6.1.2\lvgl\src\lv_misc/lv_txt.c ****  * E.g. in "AÁRT" index of 'R' is 2th char but start at byte 3 because 'Á' is 2 bytes long
 652:..\..\..\lvgl\version_6.1.2\lvgl\src\lv_misc/lv_txt.c ****  * @param txt a '\0' terminated UTF-8 string
 653:..\..\..\lvgl\version_6.1.2\lvgl\src\lv_misc/lv_txt.c ****  * @param utf8_id character index
 654:..\..\..\lvgl\version_6.1.2\lvgl\src\lv_misc/lv_txt.c ****  * @return byte index of the 'utf8_id'th letter
 655:..\..\..\lvgl\version_6.1.2\lvgl\src\lv_misc/lv_txt.c ****  */
 656:..\..\..\lvgl\version_6.1.2\lvgl\src\lv_misc/lv_txt.c **** static uint32_t lv_txt_utf8_get_byte_id(const char * txt, uint32_t utf8_id)
 657:..\..\..\lvgl\version_6.1.2\lvgl\src\lv_misc/lv_txt.c **** {
ARM GAS  C:\Users\pearlstl\AppData\Local\Temp\ccILyAHD.s 			page 13


 658:..\..\..\lvgl\version_6.1.2\lvgl\src\lv_misc/lv_txt.c ****     uint32_t i;
 659:..\..\..\lvgl\version_6.1.2\lvgl\src\lv_misc/lv_txt.c ****     uint32_t byte_cnt = 0;
 660:..\..\..\lvgl\version_6.1.2\lvgl\src\lv_misc/lv_txt.c ****     for(i = 0; i < utf8_id; i++) {
 661:..\..\..\lvgl\version_6.1.2\lvgl\src\lv_misc/lv_txt.c ****         uint8_t c_size = lv_txt_encoded_size(&txt[byte_cnt]);
 662:..\..\..\lvgl\version_6.1.2\lvgl\src\lv_misc/lv_txt.c ****         byte_cnt += c_size > 0 ? c_size : 1;
 663:..\..\..\lvgl\version_6.1.2\lvgl\src\lv_misc/lv_txt.c ****     }
 664:..\..\..\lvgl\version_6.1.2\lvgl\src\lv_misc/lv_txt.c **** 
 665:..\..\..\lvgl\version_6.1.2\lvgl\src\lv_misc/lv_txt.c ****     return byte_cnt;
 666:..\..\..\lvgl\version_6.1.2\lvgl\src\lv_misc/lv_txt.c **** }
 667:..\..\..\lvgl\version_6.1.2\lvgl\src\lv_misc/lv_txt.c **** 
 668:..\..\..\lvgl\version_6.1.2\lvgl\src\lv_misc/lv_txt.c **** /**
 669:..\..\..\lvgl\version_6.1.2\lvgl\src\lv_misc/lv_txt.c ****  * Convert a byte index (in an UTF-8 text) to character index.
 670:..\..\..\lvgl\version_6.1.2\lvgl\src\lv_misc/lv_txt.c ****  * E.g. in "AÁRT" index of 'R' is 2th char but start at byte 3 because 'Á' is 2 bytes long
 671:..\..\..\lvgl\version_6.1.2\lvgl\src\lv_misc/lv_txt.c ****  * @param txt a '\0' terminated UTF-8 string
 672:..\..\..\lvgl\version_6.1.2\lvgl\src\lv_misc/lv_txt.c ****  * @param byte_id byte index
 673:..\..\..\lvgl\version_6.1.2\lvgl\src\lv_misc/lv_txt.c ****  * @return character index of the letter at 'byte_id'th position
 674:..\..\..\lvgl\version_6.1.2\lvgl\src\lv_misc/lv_txt.c ****  */
 675:..\..\..\lvgl\version_6.1.2\lvgl\src\lv_misc/lv_txt.c **** static uint32_t lv_txt_utf8_get_char_id(const char * txt, uint32_t byte_id)
 676:..\..\..\lvgl\version_6.1.2\lvgl\src\lv_misc/lv_txt.c **** {
 677:..\..\..\lvgl\version_6.1.2\lvgl\src\lv_misc/lv_txt.c ****     uint32_t i        = 0;
 678:..\..\..\lvgl\version_6.1.2\lvgl\src\lv_misc/lv_txt.c ****     uint32_t char_cnt = 0;
 679:..\..\..\lvgl\version_6.1.2\lvgl\src\lv_misc/lv_txt.c **** 
 680:..\..\..\lvgl\version_6.1.2\lvgl\src\lv_misc/lv_txt.c ****     while(i < byte_id) {
 681:..\..\..\lvgl\version_6.1.2\lvgl\src\lv_misc/lv_txt.c ****         lv_txt_encoded_next(txt, &i); /*'i' points to the next letter so use the prev. value*/
 682:..\..\..\lvgl\version_6.1.2\lvgl\src\lv_misc/lv_txt.c ****         char_cnt++;
 683:..\..\..\lvgl\version_6.1.2\lvgl\src\lv_misc/lv_txt.c ****     }
 684:..\..\..\lvgl\version_6.1.2\lvgl\src\lv_misc/lv_txt.c **** 
 685:..\..\..\lvgl\version_6.1.2\lvgl\src\lv_misc/lv_txt.c ****     return char_cnt;
 686:..\..\..\lvgl\version_6.1.2\lvgl\src\lv_misc/lv_txt.c **** }
 687:..\..\..\lvgl\version_6.1.2\lvgl\src\lv_misc/lv_txt.c **** 
 688:..\..\..\lvgl\version_6.1.2\lvgl\src\lv_misc/lv_txt.c **** /**
 689:..\..\..\lvgl\version_6.1.2\lvgl\src\lv_misc/lv_txt.c ****  * Get the number of characters (and NOT bytes) in a string. Decode it with UTF-8 if enabled.
 690:..\..\..\lvgl\version_6.1.2\lvgl\src\lv_misc/lv_txt.c ****  * E.g.: "ÁBC" is 3 characters (but 4 bytes)
 691:..\..\..\lvgl\version_6.1.2\lvgl\src\lv_misc/lv_txt.c ****  * @param txt a '\0' terminated char string
 692:..\..\..\lvgl\version_6.1.2\lvgl\src\lv_misc/lv_txt.c ****  * @return number of characters
 693:..\..\..\lvgl\version_6.1.2\lvgl\src\lv_misc/lv_txt.c ****  */
 694:..\..\..\lvgl\version_6.1.2\lvgl\src\lv_misc/lv_txt.c **** static uint32_t lv_txt_utf8_get_length(const char * txt)
 695:..\..\..\lvgl\version_6.1.2\lvgl\src\lv_misc/lv_txt.c **** {
 696:..\..\..\lvgl\version_6.1.2\lvgl\src\lv_misc/lv_txt.c ****     uint32_t len = 0;
 697:..\..\..\lvgl\version_6.1.2\lvgl\src\lv_misc/lv_txt.c ****     uint32_t i   = 0;
 698:..\..\..\lvgl\version_6.1.2\lvgl\src\lv_misc/lv_txt.c **** 
 699:..\..\..\lvgl\version_6.1.2\lvgl\src\lv_misc/lv_txt.c ****     while(txt[i] != '\0') {
 700:..\..\..\lvgl\version_6.1.2\lvgl\src\lv_misc/lv_txt.c ****         lv_txt_encoded_next(txt, &i);
 701:..\..\..\lvgl\version_6.1.2\lvgl\src\lv_misc/lv_txt.c ****         len++;
 702:..\..\..\lvgl\version_6.1.2\lvgl\src\lv_misc/lv_txt.c ****     }
 703:..\..\..\lvgl\version_6.1.2\lvgl\src\lv_misc/lv_txt.c **** 
 704:..\..\..\lvgl\version_6.1.2\lvgl\src\lv_misc/lv_txt.c ****     return len;
 705:..\..\..\lvgl\version_6.1.2\lvgl\src\lv_misc/lv_txt.c **** }
 706:..\..\..\lvgl\version_6.1.2\lvgl\src\lv_misc/lv_txt.c **** 
 707:..\..\..\lvgl\version_6.1.2\lvgl\src\lv_misc/lv_txt.c **** #elif LV_TXT_ENC == LV_TXT_ENC_ASCII
 708:..\..\..\lvgl\version_6.1.2\lvgl\src\lv_misc/lv_txt.c **** /*******************************
 709:..\..\..\lvgl\version_6.1.2\lvgl\src\lv_misc/lv_txt.c ****  *  ASCII ENCODER/DECOER
 710:..\..\..\lvgl\version_6.1.2\lvgl\src\lv_misc/lv_txt.c ****  ******************************/
 711:..\..\..\lvgl\version_6.1.2\lvgl\src\lv_misc/lv_txt.c **** 
 712:..\..\..\lvgl\version_6.1.2\lvgl\src\lv_misc/lv_txt.c **** /**
 713:..\..\..\lvgl\version_6.1.2\lvgl\src\lv_misc/lv_txt.c ****  * Give the size of an ISO8859-1 coded character
 714:..\..\..\lvgl\version_6.1.2\lvgl\src\lv_misc/lv_txt.c ****  * @param str pointer to a character in a string
ARM GAS  C:\Users\pearlstl\AppData\Local\Temp\ccILyAHD.s 			page 14


 715:..\..\..\lvgl\version_6.1.2\lvgl\src\lv_misc/lv_txt.c ****  * @return length of the UTF-8 character (1,2,3 or 4). O on invalid code
 716:..\..\..\lvgl\version_6.1.2\lvgl\src\lv_misc/lv_txt.c ****  */
 717:..\..\..\lvgl\version_6.1.2\lvgl\src\lv_misc/lv_txt.c **** static uint8_t lv_txt_iso8859_1_size(const char * str)
 718:..\..\..\lvgl\version_6.1.2\lvgl\src\lv_misc/lv_txt.c **** {
  28              		.loc 1 718 0
  29              		.cfi_startproc
  30              		@ args = 0, pretend = 0, frame = 0
  31              		@ frame_needed = 0, uses_anonymous_args = 0
  32              		@ link register save eliminated.
  33              	.LVL0:
 719:..\..\..\lvgl\version_6.1.2\lvgl\src\lv_misc/lv_txt.c ****     (void)str; /*Unused*/
 720:..\..\..\lvgl\version_6.1.2\lvgl\src\lv_misc/lv_txt.c ****     return 1;
 721:..\..\..\lvgl\version_6.1.2\lvgl\src\lv_misc/lv_txt.c **** }
  34              		.loc 1 721 0
  35 0000 0120     		movs	r0, #1
  36              	.LVL1:
  37 0002 7047     		bx	lr
  38              		.cfi_endproc
  39              	.LFE11:
  40              		.size	lv_txt_iso8859_1_size, .-lv_txt_iso8859_1_size
  41              		.section	.text.lv_txt_unicode_to_iso8859_1,"ax",%progbits
  42              		.align	2
  43              		.thumb
  44              		.thumb_func
  45              		.type	lv_txt_unicode_to_iso8859_1, %function
  46              	lv_txt_unicode_to_iso8859_1:
  47              	.LFB12:
 722:..\..\..\lvgl\version_6.1.2\lvgl\src\lv_misc/lv_txt.c **** 
 723:..\..\..\lvgl\version_6.1.2\lvgl\src\lv_misc/lv_txt.c **** /**
 724:..\..\..\lvgl\version_6.1.2\lvgl\src\lv_misc/lv_txt.c ****  * Convert an Unicode letter to ISO8859-1.
 725:..\..\..\lvgl\version_6.1.2\lvgl\src\lv_misc/lv_txt.c ****  * @param letter_uni an Unicode letter
 726:..\..\..\lvgl\version_6.1.2\lvgl\src\lv_misc/lv_txt.c ****  * @return ISO8859-1 coded character in Little Endian to be compatible with C chars (e.g. 'Á', 'Ű
 727:..\..\..\lvgl\version_6.1.2\lvgl\src\lv_misc/lv_txt.c ****  */
 728:..\..\..\lvgl\version_6.1.2\lvgl\src\lv_misc/lv_txt.c **** static uint32_t lv_txt_unicode_to_iso8859_1(uint32_t letter_uni)
 729:..\..\..\lvgl\version_6.1.2\lvgl\src\lv_misc/lv_txt.c **** {
  48              		.loc 1 729 0
  49              		.cfi_startproc
  50              		@ args = 0, pretend = 0, frame = 0
  51              		@ frame_needed = 0, uses_anonymous_args = 0
  52              		@ link register save eliminated.
  53              	.LVL2:
 730:..\..\..\lvgl\version_6.1.2\lvgl\src\lv_misc/lv_txt.c ****     if(letter_uni < 128)
 731:..\..\..\lvgl\version_6.1.2\lvgl\src\lv_misc/lv_txt.c ****         return letter_uni;
 732:..\..\..\lvgl\version_6.1.2\lvgl\src\lv_misc/lv_txt.c ****     else
 733:..\..\..\lvgl\version_6.1.2\lvgl\src\lv_misc/lv_txt.c ****         return ' ';
 734:..\..\..\lvgl\version_6.1.2\lvgl\src\lv_misc/lv_txt.c **** }
  54              		.loc 1 734 0
  55 0000 7F28     		cmp	r0, #127
  56 0002 88BF     		it	hi
  57 0004 2020     		movhi	r0, #32
  58              	.LVL3:
  59 0006 7047     		bx	lr
  60              		.cfi_endproc
  61              	.LFE12:
  62              		.size	lv_txt_unicode_to_iso8859_1, .-lv_txt_unicode_to_iso8859_1
  63              		.section	.text.lv_txt_iso8859_1_conv_wc,"ax",%progbits
  64              		.align	2
ARM GAS  C:\Users\pearlstl\AppData\Local\Temp\ccILyAHD.s 			page 15


  65              		.thumb
  66              		.thumb_func
  67              		.type	lv_txt_iso8859_1_conv_wc, %function
  68              	lv_txt_iso8859_1_conv_wc:
  69              	.LFB13:
 735:..\..\..\lvgl\version_6.1.2\lvgl\src\lv_misc/lv_txt.c **** 
 736:..\..\..\lvgl\version_6.1.2\lvgl\src\lv_misc/lv_txt.c **** /**
 737:..\..\..\lvgl\version_6.1.2\lvgl\src\lv_misc/lv_txt.c ****  * Convert wide characters to ASCII, however wide characters in ASCII range (e.g. 'A') are ASCII co
 738:..\..\..\lvgl\version_6.1.2\lvgl\src\lv_misc/lv_txt.c ****  * So this function does nothing just returns with `c`.
 739:..\..\..\lvgl\version_6.1.2\lvgl\src\lv_misc/lv_txt.c ****  * @param c a character, e.g. 'A'
 740:..\..\..\lvgl\version_6.1.2\lvgl\src\lv_misc/lv_txt.c ****  * @return same as `c`
 741:..\..\..\lvgl\version_6.1.2\lvgl\src\lv_misc/lv_txt.c ****  */
 742:..\..\..\lvgl\version_6.1.2\lvgl\src\lv_misc/lv_txt.c **** static uint32_t lv_txt_iso8859_1_conv_wc(uint32_t c)
 743:..\..\..\lvgl\version_6.1.2\lvgl\src\lv_misc/lv_txt.c **** {
  70              		.loc 1 743 0
  71              		.cfi_startproc
  72              		@ args = 0, pretend = 0, frame = 0
  73              		@ frame_needed = 0, uses_anonymous_args = 0
  74              		@ link register save eliminated.
  75              	.LVL4:
 744:..\..\..\lvgl\version_6.1.2\lvgl\src\lv_misc/lv_txt.c ****     return c;
 745:..\..\..\lvgl\version_6.1.2\lvgl\src\lv_misc/lv_txt.c **** }
  76              		.loc 1 745 0
  77 0000 7047     		bx	lr
  78              		.cfi_endproc
  79              	.LFE13:
  80              		.size	lv_txt_iso8859_1_conv_wc, .-lv_txt_iso8859_1_conv_wc
  81 0002 00BF     		.section	.text.lv_txt_iso8859_1_next,"ax",%progbits
  82              		.align	2
  83              		.thumb
  84              		.thumb_func
  85              		.type	lv_txt_iso8859_1_next, %function
  86              	lv_txt_iso8859_1_next:
  87              	.LFB14:
 746:..\..\..\lvgl\version_6.1.2\lvgl\src\lv_misc/lv_txt.c **** 
 747:..\..\..\lvgl\version_6.1.2\lvgl\src\lv_misc/lv_txt.c **** /**
 748:..\..\..\lvgl\version_6.1.2\lvgl\src\lv_misc/lv_txt.c ****  * Decode an ISO8859-1 character from a string.
 749:..\..\..\lvgl\version_6.1.2\lvgl\src\lv_misc/lv_txt.c ****  * @param txt pointer to '\0' terminated string
 750:..\..\..\lvgl\version_6.1.2\lvgl\src\lv_misc/lv_txt.c ****  * @param i start byte index in 'txt' where to start.
 751:..\..\..\lvgl\version_6.1.2\lvgl\src\lv_misc/lv_txt.c ****  *          After call it will point to the next UTF-8 char in 'txt'.
 752:..\..\..\lvgl\version_6.1.2\lvgl\src\lv_misc/lv_txt.c ****  *          NULL to use txt[0] as index
 753:..\..\..\lvgl\version_6.1.2\lvgl\src\lv_misc/lv_txt.c ****  * @return the decoded Unicode character or 0 on invalid UTF-8 code
 754:..\..\..\lvgl\version_6.1.2\lvgl\src\lv_misc/lv_txt.c ****  */
 755:..\..\..\lvgl\version_6.1.2\lvgl\src\lv_misc/lv_txt.c **** static uint32_t lv_txt_iso8859_1_next(const char * txt, uint32_t * i)
 756:..\..\..\lvgl\version_6.1.2\lvgl\src\lv_misc/lv_txt.c **** {
  88              		.loc 1 756 0
  89              		.cfi_startproc
  90              		@ args = 0, pretend = 0, frame = 0
  91              		@ frame_needed = 0, uses_anonymous_args = 0
  92              		@ link register save eliminated.
  93              	.LVL5:
 757:..\..\..\lvgl\version_6.1.2\lvgl\src\lv_misc/lv_txt.c ****     if(i == NULL) return txt[1]; /*Get the next char */
  94              		.loc 1 757 0
  95 0000 21B1     		cbz	r1, .L10
 758:..\..\..\lvgl\version_6.1.2\lvgl\src\lv_misc/lv_txt.c **** 
 759:..\..\..\lvgl\version_6.1.2\lvgl\src\lv_misc/lv_txt.c ****     uint8_t letter = txt[*i];
  96              		.loc 1 759 0
ARM GAS  C:\Users\pearlstl\AppData\Local\Temp\ccILyAHD.s 			page 16


  97 0002 0B68     		ldr	r3, [r1]
  98 0004 C05C     		ldrb	r0, [r0, r3]	@ zero_extendqisi2
  99              	.LVL6:
 760:..\..\..\lvgl\version_6.1.2\lvgl\src\lv_misc/lv_txt.c ****     (*i)++;
 100              		.loc 1 760 0
 101 0006 0133     		adds	r3, r3, #1
 102 0008 0B60     		str	r3, [r1]
 761:..\..\..\lvgl\version_6.1.2\lvgl\src\lv_misc/lv_txt.c ****     return letter;
 762:..\..\..\lvgl\version_6.1.2\lvgl\src\lv_misc/lv_txt.c **** }
 103              		.loc 1 762 0
 104 000a 7047     		bx	lr
 105              	.LVL7:
 106              	.L10:
 757:..\..\..\lvgl\version_6.1.2\lvgl\src\lv_misc/lv_txt.c **** 
 107              		.loc 1 757 0 discriminator 1
 108 000c 4078     		ldrb	r0, [r0, #1]	@ zero_extendqisi2
 109              	.LVL8:
 110 000e 7047     		bx	lr
 111              		.cfi_endproc
 112              	.LFE14:
 113              		.size	lv_txt_iso8859_1_next, .-lv_txt_iso8859_1_next
 114              		.section	.text.lv_txt_iso8859_1_prev,"ax",%progbits
 115              		.align	2
 116              		.thumb
 117              		.thumb_func
 118              		.type	lv_txt_iso8859_1_prev, %function
 119              	lv_txt_iso8859_1_prev:
 120              	.LFB15:
 763:..\..\..\lvgl\version_6.1.2\lvgl\src\lv_misc/lv_txt.c **** 
 764:..\..\..\lvgl\version_6.1.2\lvgl\src\lv_misc/lv_txt.c **** /**
 765:..\..\..\lvgl\version_6.1.2\lvgl\src\lv_misc/lv_txt.c ****  * Get previous ISO8859-1 character form a string.
 766:..\..\..\lvgl\version_6.1.2\lvgl\src\lv_misc/lv_txt.c ****  * @param txt pointer to '\0' terminated string
 767:..\..\..\lvgl\version_6.1.2\lvgl\src\lv_misc/lv_txt.c ****  * @param i start byte index in 'txt' where to start. After the call it will point to the previous 
 768:..\..\..\lvgl\version_6.1.2\lvgl\src\lv_misc/lv_txt.c ****  * @return the decoded Unicode character or 0 on invalid UTF-8 code
 769:..\..\..\lvgl\version_6.1.2\lvgl\src\lv_misc/lv_txt.c ****  */
 770:..\..\..\lvgl\version_6.1.2\lvgl\src\lv_misc/lv_txt.c **** static uint32_t lv_txt_iso8859_1_prev(const char * txt, uint32_t * i)
 771:..\..\..\lvgl\version_6.1.2\lvgl\src\lv_misc/lv_txt.c **** {
 121              		.loc 1 771 0
 122              		.cfi_startproc
 123              		@ args = 0, pretend = 0, frame = 0
 124              		@ frame_needed = 0, uses_anonymous_args = 0
 125              		@ link register save eliminated.
 126              	.LVL9:
 772:..\..\..\lvgl\version_6.1.2\lvgl\src\lv_misc/lv_txt.c ****     if(i == NULL) return *(txt - 1); /*Get the prev. char */
 127              		.loc 1 772 0
 128 0000 21B1     		cbz	r1, .L14
 773:..\..\..\lvgl\version_6.1.2\lvgl\src\lv_misc/lv_txt.c **** 
 774:..\..\..\lvgl\version_6.1.2\lvgl\src\lv_misc/lv_txt.c ****     (*i)--;
 129              		.loc 1 774 0
 130 0002 0B68     		ldr	r3, [r1]
 131 0004 013B     		subs	r3, r3, #1
 132 0006 0B60     		str	r3, [r1]
 133              	.LVL10:
 775:..\..\..\lvgl\version_6.1.2\lvgl\src\lv_misc/lv_txt.c ****     uint8_t letter = txt[*i];
 776:..\..\..\lvgl\version_6.1.2\lvgl\src\lv_misc/lv_txt.c **** 
 777:..\..\..\lvgl\version_6.1.2\lvgl\src\lv_misc/lv_txt.c ****     return letter;
 134              		.loc 1 777 0
ARM GAS  C:\Users\pearlstl\AppData\Local\Temp\ccILyAHD.s 			page 17


 135 0008 C05C     		ldrb	r0, [r0, r3]	@ zero_extendqisi2
 136              	.LVL11:
 778:..\..\..\lvgl\version_6.1.2\lvgl\src\lv_misc/lv_txt.c **** }
 137              		.loc 1 778 0
 138 000a 7047     		bx	lr
 139              	.LVL12:
 140              	.L14:
 772:..\..\..\lvgl\version_6.1.2\lvgl\src\lv_misc/lv_txt.c **** 
 141              		.loc 1 772 0 discriminator 1
 142 000c 10F8010C 		ldrb	r0, [r0, #-1]	@ zero_extendqisi2
 143              	.LVL13:
 144 0010 7047     		bx	lr
 145              		.cfi_endproc
 146              	.LFE15:
 147              		.size	lv_txt_iso8859_1_prev, .-lv_txt_iso8859_1_prev
 148 0012 00BF     		.section	.text.lv_txt_iso8859_1_get_char_id,"ax",%progbits
 149              		.align	2
 150              		.thumb
 151              		.thumb_func
 152              		.type	lv_txt_iso8859_1_get_char_id, %function
 153              	lv_txt_iso8859_1_get_char_id:
 154              	.LFB17:
 779:..\..\..\lvgl\version_6.1.2\lvgl\src\lv_misc/lv_txt.c **** 
 780:..\..\..\lvgl\version_6.1.2\lvgl\src\lv_misc/lv_txt.c **** /**
 781:..\..\..\lvgl\version_6.1.2\lvgl\src\lv_misc/lv_txt.c ****  * Convert a character index (in an ISO8859-1 text) to byte index.
 782:..\..\..\lvgl\version_6.1.2\lvgl\src\lv_misc/lv_txt.c ****  * E.g. in "AÁRT" index of 'R' is 2th char but start at byte 3 because 'Á' is 2 bytes long
 783:..\..\..\lvgl\version_6.1.2\lvgl\src\lv_misc/lv_txt.c ****  * @param txt a '\0' terminated UTF-8 string
 784:..\..\..\lvgl\version_6.1.2\lvgl\src\lv_misc/lv_txt.c ****  * @param utf8_id character index
 785:..\..\..\lvgl\version_6.1.2\lvgl\src\lv_misc/lv_txt.c ****  * @return byte index of the 'utf8_id'th letter
 786:..\..\..\lvgl\version_6.1.2\lvgl\src\lv_misc/lv_txt.c ****  */
 787:..\..\..\lvgl\version_6.1.2\lvgl\src\lv_misc/lv_txt.c **** static uint32_t lv_txt_iso8859_1_get_byte_id(const char * txt, uint32_t utf8_id)
 788:..\..\..\lvgl\version_6.1.2\lvgl\src\lv_misc/lv_txt.c **** {
 789:..\..\..\lvgl\version_6.1.2\lvgl\src\lv_misc/lv_txt.c ****     (void)txt;      /*Unused*/
 790:..\..\..\lvgl\version_6.1.2\lvgl\src\lv_misc/lv_txt.c ****     return utf8_id; /*In Non encoded no difference*/
 791:..\..\..\lvgl\version_6.1.2\lvgl\src\lv_misc/lv_txt.c **** }
 792:..\..\..\lvgl\version_6.1.2\lvgl\src\lv_misc/lv_txt.c **** 
 793:..\..\..\lvgl\version_6.1.2\lvgl\src\lv_misc/lv_txt.c **** /**
 794:..\..\..\lvgl\version_6.1.2\lvgl\src\lv_misc/lv_txt.c ****  * Convert a byte index (in an ISO8859-1 text) to character index.
 795:..\..\..\lvgl\version_6.1.2\lvgl\src\lv_misc/lv_txt.c ****  * E.g. in "AÁRT" index of 'R' is 2th char but start at byte 3 because 'Á' is 2 bytes long
 796:..\..\..\lvgl\version_6.1.2\lvgl\src\lv_misc/lv_txt.c ****  * @param txt a '\0' terminated UTF-8 string
 797:..\..\..\lvgl\version_6.1.2\lvgl\src\lv_misc/lv_txt.c ****  * @param byte_id byte index
 798:..\..\..\lvgl\version_6.1.2\lvgl\src\lv_misc/lv_txt.c ****  * @return character index of the letter at 'byte_id'th position
 799:..\..\..\lvgl\version_6.1.2\lvgl\src\lv_misc/lv_txt.c ****  */
 800:..\..\..\lvgl\version_6.1.2\lvgl\src\lv_misc/lv_txt.c **** static uint32_t lv_txt_iso8859_1_get_char_id(const char * txt, uint32_t byte_id)
 801:..\..\..\lvgl\version_6.1.2\lvgl\src\lv_misc/lv_txt.c **** {
 155              		.loc 1 801 0
 156              		.cfi_startproc
 157              		@ args = 0, pretend = 0, frame = 0
 158              		@ frame_needed = 0, uses_anonymous_args = 0
 159              		@ link register save eliminated.
 160              	.LVL14:
 802:..\..\..\lvgl\version_6.1.2\lvgl\src\lv_misc/lv_txt.c ****     (void)txt;      /*Unused*/
 803:..\..\..\lvgl\version_6.1.2\lvgl\src\lv_misc/lv_txt.c ****     return byte_id; /*In Non encoded no difference*/
 804:..\..\..\lvgl\version_6.1.2\lvgl\src\lv_misc/lv_txt.c **** }
 161              		.loc 1 804 0
 162 0000 0846     		mov	r0, r1
 163              	.LVL15:
ARM GAS  C:\Users\pearlstl\AppData\Local\Temp\ccILyAHD.s 			page 18


 164 0002 7047     		bx	lr
 165              		.cfi_endproc
 166              	.LFE17:
 167              		.size	lv_txt_iso8859_1_get_char_id, .-lv_txt_iso8859_1_get_char_id
 168              		.section	.text.lv_txt_iso8859_1_get_length,"ax",%progbits
 169              		.align	2
 170              		.thumb
 171              		.thumb_func
 172              		.type	lv_txt_iso8859_1_get_length, %function
 173              	lv_txt_iso8859_1_get_length:
 174              	.LFB18:
 805:..\..\..\lvgl\version_6.1.2\lvgl\src\lv_misc/lv_txt.c **** 
 806:..\..\..\lvgl\version_6.1.2\lvgl\src\lv_misc/lv_txt.c **** /**
 807:..\..\..\lvgl\version_6.1.2\lvgl\src\lv_misc/lv_txt.c ****  * Get the number of characters (and NOT bytes) in a string. Decode it with UTF-8 if enabled.
 808:..\..\..\lvgl\version_6.1.2\lvgl\src\lv_misc/lv_txt.c ****  * E.g.: "ÁBC" is 3 characters (but 4 bytes)
 809:..\..\..\lvgl\version_6.1.2\lvgl\src\lv_misc/lv_txt.c ****  * @param txt a '\0' terminated char string
 810:..\..\..\lvgl\version_6.1.2\lvgl\src\lv_misc/lv_txt.c ****  * @return number of characters
 811:..\..\..\lvgl\version_6.1.2\lvgl\src\lv_misc/lv_txt.c ****  */
 812:..\..\..\lvgl\version_6.1.2\lvgl\src\lv_misc/lv_txt.c **** static uint32_t lv_txt_iso8859_1_get_length(const char * txt)
 813:..\..\..\lvgl\version_6.1.2\lvgl\src\lv_misc/lv_txt.c **** {
 175              		.loc 1 813 0
 176              		.cfi_startproc
 177              		@ args = 0, pretend = 0, frame = 0
 178              		@ frame_needed = 0, uses_anonymous_args = 0
 179              		@ link register save eliminated.
 180              	.LVL16:
 814:..\..\..\lvgl\version_6.1.2\lvgl\src\lv_misc/lv_txt.c ****     return strlen(txt);
 181              		.loc 1 814 0
 182 0000 FFF7FEBF 		b	strlen
 183              	.LVL17:
 184              		.cfi_endproc
 185              	.LFE18:
 186              		.size	lv_txt_iso8859_1_get_length, .-lv_txt_iso8859_1_get_length
 187              		.section	.text.lv_txt_iso8859_1_get_byte_id,"ax",%progbits
 188              		.align	2
 189              		.thumb
 190              		.thumb_func
 191              		.type	lv_txt_iso8859_1_get_byte_id, %function
 192              	lv_txt_iso8859_1_get_byte_id:
 193              	.LFB22:
 194              		.cfi_startproc
 195              		@ args = 0, pretend = 0, frame = 0
 196              		@ frame_needed = 0, uses_anonymous_args = 0
 197              		@ link register save eliminated.
 198 0000 0846     		mov	r0, r1
 199 0002 7047     		bx	lr
 200              		.cfi_endproc
 201              	.LFE22:
 202              		.size	lv_txt_iso8859_1_get_byte_id, .-lv_txt_iso8859_1_get_byte_id
 203              		.section	.text.lv_txt_get_next_line,"ax",%progbits
 204              		.align	2
 205              		.global	lv_txt_get_next_line
 206              		.thumb
 207              		.thumb_func
 208              		.type	lv_txt_get_next_line, %function
 209              	lv_txt_get_next_line:
 210              	.LFB6:
ARM GAS  C:\Users\pearlstl\AppData\Local\Temp\ccILyAHD.s 			page 19


 294:..\..\..\lvgl\version_6.1.2\lvgl\src\lv_misc/lv_txt.c ****     if(txt == NULL) return 0;
 211              		.loc 1 294 0
 212              		.cfi_startproc
 213              		@ args = 4, pretend = 0, frame = 64
 214              		@ frame_needed = 0, uses_anonymous_args = 0
 215              	.LVL18:
 294:..\..\..\lvgl\version_6.1.2\lvgl\src\lv_misc/lv_txt.c ****     if(txt == NULL) return 0;
 216              		.loc 1 294 0
 217 0000 2DE9F04F 		push	{r4, r5, r6, r7, r8, r9, r10, fp, lr}
 218              		.cfi_def_cfa_offset 36
 219              		.cfi_offset 4, -36
 220              		.cfi_offset 5, -32
 221              		.cfi_offset 6, -28
 222              		.cfi_offset 7, -24
 223              		.cfi_offset 8, -20
 224              		.cfi_offset 9, -16
 225              		.cfi_offset 10, -12
 226              		.cfi_offset 11, -8
 227              		.cfi_offset 14, -4
 228 0004 91B0     		sub	sp, sp, #68
 229              		.cfi_def_cfa_offset 104
 294:..\..\..\lvgl\version_6.1.2\lvgl\src\lv_misc/lv_txt.c ****     if(txt == NULL) return 0;
 230              		.loc 1 294 0
 231 0006 1E46     		mov	r6, r3
 232 0008 0491     		str	r1, [sp, #16]
 233 000a 0592     		str	r2, [sp, #20]
 234 000c 9DF86830 		ldrb	r3, [sp, #104]	@ zero_extendqisi2
 235              	.LVL19:
 295:..\..\..\lvgl\version_6.1.2\lvgl\src\lv_misc/lv_txt.c ****     if(font == NULL) return 0;
 236              		.loc 1 295 0
 237 0010 0990     		str	r0, [sp, #36]
 238 0012 0446     		mov	r4, r0
 239 0014 0028     		cmp	r0, #0
 240 0016 00F0D980 		beq	.L91
 296:..\..\..\lvgl\version_6.1.2\lvgl\src\lv_misc/lv_txt.c **** 
 241              		.loc 1 296 0
 242 001a 0029     		cmp	r1, #0
 243 001c 00F02281 		beq	.L59
 300:..\..\..\lvgl\version_6.1.2\lvgl\src\lv_misc/lv_txt.c **** 
 244              		.loc 1 300 0
 245 0020 0021     		movs	r1, #0
 246              	.LVL20:
 247 0022 03F00202 		and	r2, r3, #2
 248              	.LVL21:
 302:..\..\..\lvgl\version_6.1.2\lvgl\src\lv_misc/lv_txt.c ****         uint32_t word_w = 0;
 249              		.loc 1 302 0
 250 0026 0D46     		mov	r5, r1
 251 0028 0691     		str	r1, [sp, #24]
 298:..\..\..\lvgl\version_6.1.2\lvgl\src\lv_misc/lv_txt.c ****     lv_txt_cmd_state_t cmd_state = LV_TXT_CMD_STATE_WAIT;
 252              		.loc 1 298 0
 253 002a 47F61840 		movw	r0, #31768
 254              	.LVL22:
 300:..\..\..\lvgl\version_6.1.2\lvgl\src\lv_misc/lv_txt.c **** 
 255              		.loc 1 300 0
 256 002e 0C91     		str	r1, [sp, #48]
 299:..\..\..\lvgl\version_6.1.2\lvgl\src\lv_misc/lv_txt.c ****     uint32_t i = 0;                                        /* Iterating index into txt */
 257              		.loc 1 299 0
ARM GAS  C:\Users\pearlstl\AppData\Local\Temp\ccILyAHD.s 			page 20


 258 0030 0291     		str	r1, [sp, #8]
 259 0032 03F00101 		and	r1, r3, #1
 298:..\..\..\lvgl\version_6.1.2\lvgl\src\lv_misc/lv_txt.c ****     lv_txt_cmd_state_t cmd_state = LV_TXT_CMD_STATE_WAIT;
 260              		.loc 1 298 0
 261 0036 3346     		mov	r3, r6
 262 0038 AA42     		cmp	r2, r5
 263 003a 18BF     		it	ne
 264 003c 0346     		movne	r3, r0
 265 003e 0793     		str	r3, [sp, #28]
 266              	.LVL23:
 267 0040 02F0FF03 		and	r3, r2, #255
 268 0044 0B93     		str	r3, [sp, #44]
 269              	.LBB25:
 270              	.LBB26:
 271              	.LBB27:
 189:..\..\..\lvgl\version_6.1.2\lvgl\src\lv_misc/lv_txt.c ****     i_next_next = i_next;
 272              		.loc 1 189 0
 273 0046 DFF824A2 		ldr	r10, .L109
 274 004a 2378     		ldrb	r3, [r4]	@ zero_extendqisi2
 275 004c DFF820B2 		ldr	fp, .L109+4
 276 0050 0391     		str	r1, [sp, #12]
 277              	.LVL24:
 278              	.L21:
 279              	.LBE27:
 280              	.LBE26:
 281              	.LBE25:
 302:..\..\..\lvgl\version_6.1.2\lvgl\src\lv_misc/lv_txt.c ****         uint32_t word_w = 0;
 282              		.loc 1 302 0
 283 0052 002B     		cmp	r3, #0
 284 0054 00F0CC80 		beq	.L52
 302:..\..\..\lvgl\version_6.1.2\lvgl\src\lv_misc/lv_txt.c ****         uint32_t word_w = 0;
 285              		.loc 1 302 0 is_stmt 0 discriminator 1
 286 0058 079B     		ldr	r3, [sp, #28]
 287 005a 002B     		cmp	r3, #0
 288 005c 40F3C880 		ble	.L52
 289              	.LVL25:
 290 0060 1D46     		mov	r5, r3
 302:..\..\..\lvgl\version_6.1.2\lvgl\src\lv_misc/lv_txt.c ****         uint32_t word_w = 0;
 291              		.loc 1 302 0
 292 0062 069A     		ldr	r2, [sp, #24]
 293 0064 099B     		ldr	r3, [sp, #36]
 294              	.LBB55:
 295              	.LBB49:
 296              	.LBB43:
 178:..\..\..\lvgl\version_6.1.2\lvgl\src\lv_misc/lv_txt.c **** 
 297              		.loc 1 178 0 is_stmt 1
 298 0066 0B9E     		ldr	r6, [sp, #44]
 299              	.LBE43:
 300              	.LBE49:
 301              	.LBE55:
 302:..\..\..\lvgl\version_6.1.2\lvgl\src\lv_misc/lv_txt.c ****         uint32_t word_w = 0;
 302              		.loc 1 302 0
 303 0068 9F18     		adds	r7, r3, r2
 304              	.LVL26:
 305              	.LBB56:
 306              	.LBB50:
 307              	.LBB44:
ARM GAS  C:\Users\pearlstl\AppData\Local\Temp\ccILyAHD.s 			page 21


 178:..\..\..\lvgl\version_6.1.2\lvgl\src\lv_misc/lv_txt.c **** 
 308              		.loc 1 178 0
 309 006a 47F61844 		movw	r4, #31768
 180:..\..\..\lvgl\version_6.1.2\lvgl\src\lv_misc/lv_txt.c ****     uint32_t letter = 0;      /* Letter at i */
 310              		.loc 1 180 0
 311 006e 0023     		movs	r3, #0
 312              	.LBE44:
 313              	.LBE50:
 303:..\..\..\lvgl\version_6.1.2\lvgl\src\lv_misc/lv_txt.c ****         uint32_t advance = lv_txt_get_next_word(&txt[i], font, letter_space, max_width, flag, &word
 314              		.loc 1 303 0
 315 0070 9946     		mov	r9, r3
 316              	.LBB51:
 317              	.LBB45:
 180:..\..\..\lvgl\version_6.1.2\lvgl\src\lv_misc/lv_txt.c ****     uint32_t letter = 0;      /* Letter at i */
 318              		.loc 1 180 0
 319 0072 0D93     		str	r3, [sp, #52]
 320 0074 0E93     		str	r3, [sp, #56]
 321 0076 0F93     		str	r3, [sp, #60]
 178:..\..\..\lvgl\version_6.1.2\lvgl\src\lv_misc/lv_txt.c **** 
 322              		.loc 1 178 0
 323 0078 2346     		mov	r3, r4
 324 007a 4E45     		cmp	r6, r9
 325 007c 08BF     		it	eq
 326 007e 2B46     		moveq	r3, r5
 189:..\..\..\lvgl\version_6.1.2\lvgl\src\lv_misc/lv_txt.c ****     i_next_next = i_next;
 327              		.loc 1 189 0
 328 0080 DAF80020 		ldr	r2, [r10]
 178:..\..\..\lvgl\version_6.1.2\lvgl\src\lv_misc/lv_txt.c **** 
 329              		.loc 1 178 0
 330 0084 0893     		str	r3, [sp, #32]
 189:..\..\..\lvgl\version_6.1.2\lvgl\src\lv_misc/lv_txt.c ****     i_next_next = i_next;
 331              		.loc 1 189 0
 332 0086 3846     		mov	r0, r7
 333 0088 0EA9     		add	r1, sp, #56
 334              	.LVL27:
 335 008a 9047     		blx	r2
 336              	.LVL28:
 190:..\..\..\lvgl\version_6.1.2\lvgl\src\lv_misc/lv_txt.c **** 
 337              		.loc 1 190 0
 338 008c 0E9B     		ldr	r3, [sp, #56]
 339 008e 0D9A     		ldr	r2, [sp, #52]
 340 0090 0F93     		str	r3, [sp, #60]
 186:..\..\..\lvgl\version_6.1.2\lvgl\src\lv_misc/lv_txt.c ****     uint32_t break_letter_count = 0; /* Number of characters up to the long word break point */
 341              		.loc 1 186 0
 342 0092 4FF0FF33 		mov	r3, #-1
 343 0096 0093     		str	r3, [sp]
 193:..\..\..\lvgl\version_6.1.2\lvgl\src\lv_misc/lv_txt.c ****         letter_next = lv_txt_encoded_next(txt, &i_next_next);
 344              		.loc 1 193 0
 345 0098 BB5C     		ldrb	r3, [r7, r2]	@ zero_extendqisi2
 187:..\..\..\lvgl\version_6.1.2\lvgl\src\lv_misc/lv_txt.c **** 
 346              		.loc 1 187 0
 347 009a CDF82890 		str	r9, [sp, #40]
 189:..\..\..\lvgl\version_6.1.2\lvgl\src\lv_misc/lv_txt.c ****     i_next_next = i_next;
 348              		.loc 1 189 0
 349 009e 0446     		mov	r4, r0
 350              	.LVL29:
 185:..\..\..\lvgl\version_6.1.2\lvgl\src\lv_misc/lv_txt.c ****     uint32_t break_index = NO_BREAK_FOUND; /* only used for "long" words */
ARM GAS  C:\Users\pearlstl\AppData\Local\Temp\ccILyAHD.s 			page 22


 351              		.loc 1 185 0
 352 00a0 C846     		mov	r8, r9
 353              	.LVL30:
 184:..\..\..\lvgl\version_6.1.2\lvgl\src\lv_misc/lv_txt.c ****     uint32_t word_len = 0;   /* Number of characters in the transversed word */
 354              		.loc 1 184 0
 355 00a2 4D46     		mov	r5, r9
 182:..\..\..\lvgl\version_6.1.2\lvgl\src\lv_misc/lv_txt.c ****     lv_coord_t letter_w;
 356              		.loc 1 182 0
 357 00a4 4E46     		mov	r6, r9
 193:..\..\..\lvgl\version_6.1.2\lvgl\src\lv_misc/lv_txt.c ****         letter_next = lv_txt_encoded_next(txt, &i_next_next);
 358              		.loc 1 193 0
 359 00a6 002B     		cmp	r3, #0
 360 00a8 40D0     		beq	.L38
 361              	.LVL31:
 362              	.L41:
 194:..\..\..\lvgl\version_6.1.2\lvgl\src\lv_misc/lv_txt.c ****         word_len++;
 363              		.loc 1 194 0
 364 00aa DAF80030 		ldr	r3, [r10]
 365 00ae 0FA9     		add	r1, sp, #60
 366 00b0 3846     		mov	r0, r7
 367 00b2 9847     		blx	r3
 368              	.LVL32:
 198:..\..\..\lvgl\version_6.1.2\lvgl\src\lv_misc/lv_txt.c ****             if(lv_txt_is_cmd(cmd_state, letter) != false) {
 369              		.loc 1 198 0
 370 00b4 039A     		ldr	r2, [sp, #12]
 194:..\..\..\lvgl\version_6.1.2\lvgl\src\lv_misc/lv_txt.c ****         word_len++;
 371              		.loc 1 194 0
 372 00b6 0646     		mov	r6, r0
 373              	.LVL33:
 195:..\..\..\lvgl\version_6.1.2\lvgl\src\lv_misc/lv_txt.c **** 
 374              		.loc 1 195 0
 375 00b8 08F10103 		add	r3, r8, #1
 376              	.LVL34:
 198:..\..\..\lvgl\version_6.1.2\lvgl\src\lv_misc/lv_txt.c ****             if(lv_txt_is_cmd(cmd_state, letter) != false) {
 377              		.loc 1 198 0
 378 00bc 22B1     		cbz	r2, .L24
 379              	.LVL35:
 380              	.LBB28:
 381              	.LBB29:
 391:..\..\..\lvgl\version_6.1.2\lvgl\src\lv_misc/lv_txt.c ****         if(*state == LV_TXT_CMD_STATE_WAIT) { /*Start char*/
 382              		.loc 1 391 0
 383 00be 232C     		cmp	r4, #35
 392:..\..\..\lvgl\version_6.1.2\lvgl\src\lv_misc/lv_txt.c ****             *state = LV_TXT_CMD_STATE_PAR;
 384              		.loc 1 392 0
 385 00c0 029A     		ldr	r2, [sp, #8]
 391:..\..\..\lvgl\version_6.1.2\lvgl\src\lv_misc/lv_txt.c ****         if(*state == LV_TXT_CMD_STATE_WAIT) { /*Start char*/
 386              		.loc 1 391 0
 387 00c2 3CD0     		beq	.L100
 408:..\..\..\lvgl\version_6.1.2\lvgl\src\lv_misc/lv_txt.c ****         if(c == ' ') {
 388              		.loc 1 408 0
 389 00c4 012A     		cmp	r2, #1
 390 00c6 75D0     		beq	.L101
 391              	.LVL36:
 392              	.L24:
 393              	.LBE29:
 394              	.LBE28:
 207:..\..\..\lvgl\version_6.1.2\lvgl\src\lv_misc/lv_txt.c ****         cur_w += letter_w;
ARM GAS  C:\Users\pearlstl\AppData\Local\Temp\ccILyAHD.s 			page 23


 395              		.loc 1 207 0
 396 00c8 3246     		mov	r2, r6
 397 00ca 2146     		mov	r1, r4
 398 00cc 0498     		ldr	r0, [sp, #16]
 399              	.LVL37:
 400 00ce 0193     		str	r3, [sp, #4]
 401              	.LVL38:
 402 00d0 FFF7FEFF 		bl	lv_font_get_glyph_width
 403              	.LVL39:
 208:..\..\..\lvgl\version_6.1.2\lvgl\src\lv_misc/lv_txt.c **** 
 404              		.loc 1 208 0
 405 00d4 0544     		add	r5, r5, r0
 210:..\..\..\lvgl\version_6.1.2\lvgl\src\lv_misc/lv_txt.c ****             cur_w += letter_space;
 406              		.loc 1 210 0
 407 00d6 00B2     		sxth	r0, r0
 408 00d8 0028     		cmp	r0, #0
 211:..\..\..\lvgl\version_6.1.2\lvgl\src\lv_misc/lv_txt.c ****         }
 409              		.loc 1 211 0
 410 00da C8BF     		it	gt
 411 00dc 059A     		ldrgt	r2, [sp, #20]
 210:..\..\..\lvgl\version_6.1.2\lvgl\src\lv_misc/lv_txt.c ****             cur_w += letter_space;
 412              		.loc 1 210 0
 413 00de 019B     		ldr	r3, [sp, #4]
 208:..\..\..\lvgl\version_6.1.2\lvgl\src\lv_misc/lv_txt.c **** 
 414              		.loc 1 208 0
 415 00e0 ADB2     		uxth	r5, r5
 416              	.LVL40:
 211:..\..\..\lvgl\version_6.1.2\lvgl\src\lv_misc/lv_txt.c ****         }
 417              		.loc 1 211 0
 418 00e2 C8BF     		it	gt
 419 00e4 AD18     		addgt	r5, r5, r2
 420              	.LVL41:
 215:..\..\..\lvgl\version_6.1.2\lvgl\src\lv_misc/lv_txt.c ****             break_index = i; 
 421              		.loc 1 215 0
 422 00e6 009A     		ldr	r2, [sp]
 423 00e8 0132     		adds	r2, r2, #1
 211:..\..\..\lvgl\version_6.1.2\lvgl\src\lv_misc/lv_txt.c ****         }
 424              		.loc 1 211 0
 425 00ea 2DB2     		sxth	r5, r5
 426              	.LVL42:
 215:..\..\..\lvgl\version_6.1.2\lvgl\src\lv_misc/lv_txt.c ****             break_index = i; 
 427              		.loc 1 215 0
 428 00ec 34D0     		beq	.L102
 429              	.L32:
 222:..\..\..\lvgl\version_6.1.2\lvgl\src\lv_misc/lv_txt.c ****             /* Update the output width on the first character if it fits.
 430              		.loc 1 222 0
 431 00ee 0A2C     		cmp	r4, #10
 432 00f0 3DD0     		beq	.L67
 433              	.L104:
 434 00f2 0D2C     		cmp	r4, #13
 435 00f4 3BD0     		beq	.L67
 436              	.LVL43:
 437              	.LBB33:
 438              	.LBB34:
 815:..\..\..\lvgl\version_6.1.2\lvgl\src\lv_misc/lv_txt.c **** }
 816:..\..\..\lvgl\version_6.1.2\lvgl\src\lv_misc/lv_txt.c **** #else
 817:..\..\..\lvgl\version_6.1.2\lvgl\src\lv_misc/lv_txt.c **** 
ARM GAS  C:\Users\pearlstl\AppData\Local\Temp\ccILyAHD.s 			page 24


 818:..\..\..\lvgl\version_6.1.2\lvgl\src\lv_misc/lv_txt.c **** #error "Invalid character encoding. See `LV_TXT_ENC` in `lv_conf.h`"
 819:..\..\..\lvgl\version_6.1.2\lvgl\src\lv_misc/lv_txt.c **** 
 820:..\..\..\lvgl\version_6.1.2\lvgl\src\lv_misc/lv_txt.c **** #endif
 821:..\..\..\lvgl\version_6.1.2\lvgl\src\lv_misc/lv_txt.c **** 
 822:..\..\..\lvgl\version_6.1.2\lvgl\src\lv_misc/lv_txt.c **** /**********************
 823:..\..\..\lvgl\version_6.1.2\lvgl\src\lv_misc/lv_txt.c ****  *   STATIC FUNCTIONS
 824:..\..\..\lvgl\version_6.1.2\lvgl\src\lv_misc/lv_txt.c ****  **********************/
 825:..\..\..\lvgl\version_6.1.2\lvgl\src\lv_misc/lv_txt.c **** 
 826:..\..\..\lvgl\version_6.1.2\lvgl\src\lv_misc/lv_txt.c **** /**
 827:..\..\..\lvgl\version_6.1.2\lvgl\src\lv_misc/lv_txt.c ****  * Test if char is break char or not (a text can broken here or not)
 828:..\..\..\lvgl\version_6.1.2\lvgl\src\lv_misc/lv_txt.c ****  * @param letter a letter
 829:..\..\..\lvgl\version_6.1.2\lvgl\src\lv_misc/lv_txt.c ****  * @return false: 'letter' is not break char
 830:..\..\..\lvgl\version_6.1.2\lvgl\src\lv_misc/lv_txt.c ****  */
 831:..\..\..\lvgl\version_6.1.2\lvgl\src\lv_misc/lv_txt.c **** static inline bool is_break_char(uint32_t letter)
 832:..\..\..\lvgl\version_6.1.2\lvgl\src\lv_misc/lv_txt.c **** {
 833:..\..\..\lvgl\version_6.1.2\lvgl\src\lv_misc/lv_txt.c ****     uint8_t i;
 834:..\..\..\lvgl\version_6.1.2\lvgl\src\lv_misc/lv_txt.c ****     bool ret = false;
 835:..\..\..\lvgl\version_6.1.2\lvgl\src\lv_misc/lv_txt.c **** 
 836:..\..\..\lvgl\version_6.1.2\lvgl\src\lv_misc/lv_txt.c ****     /*Compare the letter to TXT_BREAK_CHARS*/
 837:..\..\..\lvgl\version_6.1.2\lvgl\src\lv_misc/lv_txt.c ****     for(i = 0; LV_TXT_BREAK_CHARS[i] != '\0'; i++) {
 838:..\..\..\lvgl\version_6.1.2\lvgl\src\lv_misc/lv_txt.c ****         if(letter == (uint32_t)LV_TXT_BREAK_CHARS[i]) {
 439              		.loc 1 838 0
 440 00f6 202C     		cmp	r4, #32
 441 00f8 39D0     		beq	.L67
 442 00fa 0022     		movs	r2, #0
 443 00fc 01E0     		b	.L35
 444              	.LVL44:
 445              	.L36:
 446 00fe 8442     		cmp	r4, r0
 447 0100 36D0     		beq	.L33
 448              	.LVL45:
 449              	.L35:
 837:..\..\..\lvgl\version_6.1.2\lvgl\src\lv_misc/lv_txt.c ****         if(letter == (uint32_t)LV_TXT_BREAK_CHARS[i]) {
 450              		.loc 1 837 0
 451 0102 0132     		adds	r2, r2, #1
 452              	.LVL46:
 453 0104 D2B2     		uxtb	r2, r2
 454              	.LVL47:
 455 0106 1BF80210 		ldrb	r1, [fp, r2]	@ zero_extendqisi2
 456              		.loc 1 838 0
 457 010a 0846     		mov	r0, r1
 837:..\..\..\lvgl\version_6.1.2\lvgl\src\lv_misc/lv_txt.c ****         if(letter == (uint32_t)LV_TXT_BREAK_CHARS[i]) {
 458              		.loc 1 837 0
 459 010c 0029     		cmp	r1, #0
 460 010e F6D1     		bne	.L36
 461              	.LVL48:
 462              	.LBE34:
 463              	.LBE33:
 231:..\..\..\lvgl\version_6.1.2\lvgl\src\lv_misc/lv_txt.c **** 
 464              		.loc 1 231 0
 465 0110 0098     		ldr	r0, [sp]
 234:..\..\..\lvgl\version_6.1.2\lvgl\src\lv_misc/lv_txt.c ****         i_next = i_next_next;
 466              		.loc 1 234 0
 467 0112 0E9A     		ldr	r2, [sp, #56]
 235:..\..\..\lvgl\version_6.1.2\lvgl\src\lv_misc/lv_txt.c ****         letter = letter_next;
 468              		.loc 1 235 0
 469 0114 0F99     		ldr	r1, [sp, #60]
ARM GAS  C:\Users\pearlstl\AppData\Local\Temp\ccILyAHD.s 			page 25


 234:..\..\..\lvgl\version_6.1.2\lvgl\src\lv_misc/lv_txt.c ****         i_next = i_next_next;
 470              		.loc 1 234 0
 471 0116 0D92     		str	r2, [sp, #52]
 231:..\..\..\lvgl\version_6.1.2\lvgl\src\lv_misc/lv_txt.c **** 
 472              		.loc 1 231 0
 473 0118 B0F1FF3F 		cmp	r0, #-1
 474 011c 08BF     		it	eq
 475 011e A946     		moveq	r9, r5
 476              	.LVL49:
 235:..\..\..\lvgl\version_6.1.2\lvgl\src\lv_misc/lv_txt.c ****         letter = letter_next;
 477              		.loc 1 235 0
 478 0120 0E91     		str	r1, [sp, #56]
 479              	.LVL50:
 480              	.L29:
 481              	.LBB37:
 482              	.LBB35:
 483              		.loc 1 838 0
 484 0122 9846     		mov	r8, r3
 485              	.LVL51:
 486              	.LBE35:
 487              	.LBE37:
 193:..\..\..\lvgl\version_6.1.2\lvgl\src\lv_misc/lv_txt.c ****         letter_next = lv_txt_encoded_next(txt, &i_next_next);
 488              		.loc 1 193 0
 489 0124 BB5C     		ldrb	r3, [r7, r2]	@ zero_extendqisi2
 194:..\..\..\lvgl\version_6.1.2\lvgl\src\lv_misc/lv_txt.c ****         word_len++;
 490              		.loc 1 194 0
 491 0126 3446     		mov	r4, r6
 492              	.LVL52:
 193:..\..\..\lvgl\version_6.1.2\lvgl\src\lv_misc/lv_txt.c ****         letter_next = lv_txt_encoded_next(txt, &i_next_next);
 493              		.loc 1 193 0
 494 0128 002B     		cmp	r3, #0
 495 012a BED1     		bne	.L41
 496              	.L38:
 497              	.LVL53:
 240:..\..\..\lvgl\version_6.1.2\lvgl\src\lv_misc/lv_txt.c ****         if( word_len == 0 || (letter == '\r' && letter_next == '\n') ) i = i_next;
 498              		.loc 1 240 0
 499 012c 009B     		ldr	r3, [sp]
 500 012e 0133     		adds	r3, r3, #1
 501 0130 24D1     		bne	.L39
 502              	.LVL54:
 503              	.L40:
 241:..\..\..\lvgl\version_6.1.2\lvgl\src\lv_misc/lv_txt.c ****         return i;
 504              		.loc 1 241 0
 505 0132 B8F1000F 		cmp	r8, #0
 506 0136 40F08780 		bne	.L103
 507              	.L42:
 508 013a 0E9A     		ldr	r2, [sp, #56]
 509 013c 35E0     		b	.L48
 510              	.LVL55:
 511              	.L100:
 512              	.LBB38:
 513              	.LBB30:
 392:..\..\..\lvgl\version_6.1.2\lvgl\src\lv_misc/lv_txt.c ****             *state = LV_TXT_CMD_STATE_PAR;
 514              		.loc 1 392 0
 515 013e 002A     		cmp	r2, #0
 516 0140 35D0     		beq	.L62
 397:..\..\..\lvgl\version_6.1.2\lvgl\src\lv_misc/lv_txt.c ****             *state = LV_TXT_CMD_STATE_WAIT;
ARM GAS  C:\Users\pearlstl\AppData\Local\Temp\ccILyAHD.s 			page 26


 517              		.loc 1 397 0
 518 0142 012A     		cmp	r2, #1
 519 0144 45D0     		beq	.L63
 401:..\..\..\lvgl\version_6.1.2\lvgl\src\lv_misc/lv_txt.c ****             *state = LV_TXT_CMD_STATE_WAIT;
 520              		.loc 1 401 0
 521 0146 022A     		cmp	r2, #2
 522 0148 BED1     		bne	.L24
 402:..\..\..\lvgl\version_6.1.2\lvgl\src\lv_misc/lv_txt.c ****             ret    = true;
 523              		.loc 1 402 0
 524 014a 0022     		movs	r2, #0
 525 014c 0292     		str	r2, [sp, #8]
 526              	.LVL56:
 527              	.L28:
 528              	.LBE30:
 529              	.LBE38:
 200:..\..\..\lvgl\version_6.1.2\lvgl\src\lv_misc/lv_txt.c ****                 i_next = i_next_next;
 530              		.loc 1 200 0
 531 014e 0E9A     		ldr	r2, [sp, #56]
 201:..\..\..\lvgl\version_6.1.2\lvgl\src\lv_misc/lv_txt.c ****                 letter = letter_next;
 532              		.loc 1 201 0
 533 0150 0F99     		ldr	r1, [sp, #60]
 200:..\..\..\lvgl\version_6.1.2\lvgl\src\lv_misc/lv_txt.c ****                 i_next = i_next_next;
 534              		.loc 1 200 0
 535 0152 0D92     		str	r2, [sp, #52]
 201:..\..\..\lvgl\version_6.1.2\lvgl\src\lv_misc/lv_txt.c ****                 letter = letter_next;
 536              		.loc 1 201 0
 537 0154 0E91     		str	r1, [sp, #56]
 538              	.LVL57:
 539 0156 E4E7     		b	.L29
 540              	.LVL58:
 541              	.L102:
 215:..\..\..\lvgl\version_6.1.2\lvgl\src\lv_misc/lv_txt.c ****             break_index = i; 
 542              		.loc 1 215 0
 543 0158 059A     		ldr	r2, [sp, #20]
 544 015a 0899     		ldr	r1, [sp, #32]
 545 015c AA1A     		subs	r2, r5, r2
 546 015e 8A42     		cmp	r2, r1
 547 0160 C5DD     		ble	.L32
 216:..\..\..\lvgl\version_6.1.2\lvgl\src\lv_misc/lv_txt.c ****             break_letter_count = word_len - 1;
 548              		.loc 1 216 0
 549 0162 0D9A     		ldr	r2, [sp, #52]
 550 0164 0092     		str	r2, [sp]
 551              	.LVL59:
 222:..\..\..\lvgl\version_6.1.2\lvgl\src\lv_misc/lv_txt.c ****             /* Update the output width on the first character if it fits.
 552              		.loc 1 222 0
 553 0166 0A2C     		cmp	r4, #10
 216:..\..\..\lvgl\version_6.1.2\lvgl\src\lv_misc/lv_txt.c ****             break_letter_count = word_len - 1;
 554              		.loc 1 216 0
 555 0168 CDF82880 		str	r8, [sp, #40]
 222:..\..\..\lvgl\version_6.1.2\lvgl\src\lv_misc/lv_txt.c ****             /* Update the output width on the first character if it fits.
 556              		.loc 1 222 0
 557 016c C1D1     		bne	.L104
 558              	.LVL60:
 559              	.L67:
 560              	.LBB39:
 561              	.LBB36:
 562              		.loc 1 838 0
ARM GAS  C:\Users\pearlstl\AppData\Local\Temp\ccILyAHD.s 			page 27


 563 016e 2046     		mov	r0, r4
 564              	.LVL61:
 565              	.L33:
 566              	.LBE36:
 567              	.LBE39:
 225:..\..\..\lvgl\version_6.1.2\lvgl\src\lv_misc/lv_txt.c ****             word_len--;
 568              		.loc 1 225 0
 569 0170 0D9A     		ldr	r2, [sp, #52]
 570 0172 002A     		cmp	r2, #0
 571 0174 30D1     		bne	.L68
 572 0176 009B     		ldr	r3, [sp]
 573 0178 0133     		adds	r3, r3, #1
 574 017a 6AD0     		beq	.L105
 575              	.LVL62:
 576              	.L39:
 247:..\..\..\lvgl\version_6.1.2\lvgl\src\lv_misc/lv_txt.c ****         if( force ) return break_index;
 577              		.loc 1 247 0
 578 017c B8F10B0F 		cmp	r8, #11
 579 0180 1DD9     		bls	.L97
 254:..\..\..\lvgl\version_6.1.2\lvgl\src\lv_misc/lv_txt.c ****         if( force ) return break_index;
 580              		.loc 1 254 0
 581 0182 0A9B     		ldr	r3, [sp, #40]
 582 0184 022B     		cmp	r3, #2
 583 0186 1AD9     		bls	.L97
 584              	.LBB40:
 263:..\..\..\lvgl\version_6.1.2\lvgl\src\lv_misc/lv_txt.c ****         /* Move pointer "i" backwards */
 585              		.loc 1 263 0
 586 0188 0333     		adds	r3, r3, #3
 587 018a C8EB0308 		rsb	r8, r8, r3
 588              	.LVL63:
 265:..\..\..\lvgl\version_6.1.2\lvgl\src\lv_misc/lv_txt.c ****             lv_txt_encoded_prev(txt, &i);
 589              		.loc 1 265 0
 590 018e B8F1000F 		cmp	r8, #0
 262:..\..\..\lvgl\version_6.1.2\lvgl\src\lv_misc/lv_txt.c ****         int32_t n_move = LV_TXT_LINE_BREAK_LONG_POST_MIN_LEN - (word_len - break_letter_count);
 591              		.loc 1 262 0
 592 0192 009B     		ldr	r3, [sp]
 593 0194 0D93     		str	r3, [sp, #52]
 265:..\..\..\lvgl\version_6.1.2\lvgl\src\lv_misc/lv_txt.c ****             lv_txt_encoded_prev(txt, &i);
 594              		.loc 1 265 0
 595 0196 63DD     		ble	.L69
 596              	.L49:
 266:..\..\..\lvgl\version_6.1.2\lvgl\src\lv_misc/lv_txt.c ****             // TODO: it would be appropriate to update the returned word width here
 597              		.loc 1 266 0
 598 0198 DAF80430 		ldr	r3, [r10, #4]
 599 019c 0DA9     		add	r1, sp, #52
 600 019e 3846     		mov	r0, r7
 601 01a0 9847     		blx	r3
 602              	.LVL64:
 265:..\..\..\lvgl\version_6.1.2\lvgl\src\lv_misc/lv_txt.c ****             lv_txt_encoded_prev(txt, &i);
 603              		.loc 1 265 0
 604 01a2 B8F10108 		subs	r8, r8, #1
 605              	.LVL65:
 606 01a6 F7D1     		bne	.L49
 607 01a8 0D9A     		ldr	r2, [sp, #52]
 608              	.LVL66:
 609              	.L48:
 610              	.LBE40:
ARM GAS  C:\Users\pearlstl\AppData\Local\Temp\ccILyAHD.s 			page 28


 271:..\..\..\lvgl\version_6.1.2\lvgl\src\lv_misc/lv_txt.c **** #else
 611              		.loc 1 271 0
 612 01aa 92B2     		uxth	r2, r2
 613 01ac 2DE0     		b	.L44
 614              	.LVL67:
 615              	.L62:
 616              	.LBB41:
 617              	.LBB31:
 392:..\..\..\lvgl\version_6.1.2\lvgl\src\lv_misc/lv_txt.c ****             *state = LV_TXT_CMD_STATE_PAR;
 618              		.loc 1 392 0
 619 01ae 0122     		movs	r2, #1
 620 01b0 0292     		str	r2, [sp, #8]
 621              	.LVL68:
 622 01b2 CCE7     		b	.L28
 623              	.LVL69:
 624              	.L101:
 410:..\..\..\lvgl\version_6.1.2\lvgl\src\lv_misc/lv_txt.c ****         }
 625              		.loc 1 410 0
 626 01b4 202C     		cmp	r4, #32
 627 01b6 08BF     		it	eq
 628 01b8 0222     		moveq	r2, #2
 629 01ba 0292     		str	r2, [sp, #8]
 630 01bc C7E7     		b	.L28
 631              	.LVL70:
 632              	.L97:
 633              	.LBE31:
 634              	.LBE41:
 255:..\..\..\lvgl\version_6.1.2\lvgl\src\lv_misc/lv_txt.c ****         if(word_w_ptr != NULL) *word_w_ptr = 0;
 635              		.loc 1 255 0
 636 01be 069B     		ldr	r3, [sp, #24]
 637 01c0 0BB3     		cbz	r3, .L106
 638              	.LVL71:
 639              	.L57:
 640              	.LBE45:
 641              	.LBE51:
 308:..\..\..\lvgl\version_6.1.2\lvgl\src\lv_misc/lv_txt.c ****             break;
 642              		.loc 1 308 0
 643 01c2 0C9B     		ldr	r3, [sp, #48]
 644 01c4 0693     		str	r3, [sp, #24]
 645 01c6 63B1     		cbz	r3, .L107
 646              	.L51:
 647              	.LBE56:
 328:..\..\..\lvgl\version_6.1.2\lvgl\src\lv_misc/lv_txt.c **** }
 648              		.loc 1 328 0
 649 01c8 BDF81800 		ldrh	r0, [sp, #24]
 650              	.L91:
 329:..\..\..\lvgl\version_6.1.2\lvgl\src\lv_misc/lv_txt.c **** 
 651              		.loc 1 329 0
 652 01cc 11B0     		add	sp, sp, #68
 653              		.cfi_remember_state
 654              		.cfi_def_cfa_offset 36
 655              		@ sp needed
 656 01ce BDE8F08F 		pop	{r4, r5, r6, r7, r8, r9, r10, fp, pc}
 657              	.LVL72:
 658              	.L63:
 659              		.cfi_restore_state
 660              	.LBB57:
ARM GAS  C:\Users\pearlstl\AppData\Local\Temp\ccILyAHD.s 			page 29


 661              	.LBB52:
 662              	.LBB46:
 663              	.LBB42:
 664              	.LBB32:
 398:..\..\..\lvgl\version_6.1.2\lvgl\src\lv_misc/lv_txt.c ****         }
 665              		.loc 1 398 0
 666 01d2 0022     		movs	r2, #0
 667 01d4 0292     		str	r2, [sp, #8]
 668              	.LVL73:
 669 01d6 77E7     		b	.L24
 670              	.LVL74:
 671              	.L68:
 672              	.LBE32:
 673              	.LBE42:
 240:..\..\..\lvgl\version_6.1.2\lvgl\src\lv_misc/lv_txt.c ****         if( word_len == 0 || (letter == '\r' && letter_next == '\n') ) i = i_next;
 674              		.loc 1 240 0
 675 01d8 009B     		ldr	r3, [sp]
 676 01da 0133     		adds	r3, r3, #1
 225:..\..\..\lvgl\version_6.1.2\lvgl\src\lv_misc/lv_txt.c ****             word_len--;
 677              		.loc 1 225 0
 678 01dc 0446     		mov	r4, r0
 679              	.LVL75:
 240:..\..\..\lvgl\version_6.1.2\lvgl\src\lv_misc/lv_txt.c ****         if( word_len == 0 || (letter == '\r' && letter_next == '\n') ) i = i_next;
 680              		.loc 1 240 0
 681 01de CDD1     		bne	.L39
 682 01e0 A7E7     		b	.L40
 683              	.LVL76:
 684              	.L107:
 685              	.LBE46:
 686              	.LBE52:
 308:..\..\..\lvgl\version_6.1.2\lvgl\src\lv_misc/lv_txt.c ****             break;
 687              		.loc 1 308 0 discriminator 1
 688 01e2 224B     		ldr	r3, .L109
 689 01e4 0998     		ldr	r0, [sp, #36]
 690 01e6 1B68     		ldr	r3, [r3]
 691 01e8 0CA9     		add	r1, sp, #48
 692 01ea 9847     		blx	r3
 693              	.LVL77:
 694 01ec 0C9B     		ldr	r3, [sp, #48]
 695 01ee 0693     		str	r3, [sp, #24]
 696              	.L52:
 697              	.LBE57:
 324:..\..\..\lvgl\version_6.1.2\lvgl\src\lv_misc/lv_txt.c ****         lv_txt_encoded_next(txt, &i);
 698              		.loc 1 324 0
 699 01f0 069B     		ldr	r3, [sp, #24]
 700 01f2 002B     		cmp	r3, #0
 701 01f4 E8D1     		bne	.L51
 702              	.L108:
 325:..\..\..\lvgl\version_6.1.2\lvgl\src\lv_misc/lv_txt.c ****     }
 703              		.loc 1 325 0
 704 01f6 1D4B     		ldr	r3, .L109
 705 01f8 0998     		ldr	r0, [sp, #36]
 706 01fa 1B68     		ldr	r3, [r3]
 707 01fc 0CA9     		add	r1, sp, #48
 708 01fe 9847     		blx	r3
 709              	.LVL78:
 710 0200 0C9B     		ldr	r3, [sp, #48]
ARM GAS  C:\Users\pearlstl\AppData\Local\Temp\ccILyAHD.s 			page 30


 711 0202 0693     		str	r3, [sp, #24]
 712 0204 E0E7     		b	.L51
 713              	.LVL79:
 714              	.L106:
 715              	.LBB58:
 716              	.LBB53:
 717              	.LBB47:
 255:..\..\..\lvgl\version_6.1.2\lvgl\src\lv_misc/lv_txt.c ****         if(word_w_ptr != NULL) *word_w_ptr = 0;
 718              		.loc 1 255 0
 719 0206 BDF80020 		ldrh	r2, [sp]
 720              	.LVL80:
 721              	.L44:
 722              	.LBE47:
 723              	.LBE53:
 305:..\..\..\lvgl\version_6.1.2\lvgl\src\lv_misc/lv_txt.c **** 
 724              		.loc 1 305 0
 725 020a 079B     		ldr	r3, [sp, #28]
 726 020c C9EB0303 		rsb	r3, r9, r3
 727 0210 1BB2     		sxth	r3, r3
 728 0212 0793     		str	r3, [sp, #28]
 729              	.LVL81:
 307:..\..\..\lvgl\version_6.1.2\lvgl\src\lv_misc/lv_txt.c ****             if(i == 0) lv_txt_encoded_next(txt, &i); // prevent inf loops
 730              		.loc 1 307 0
 731 0214 002A     		cmp	r2, #0
 732 0216 D4D0     		beq	.L57
 314:..\..\..\lvgl\version_6.1.2\lvgl\src\lv_misc/lv_txt.c **** 
 733              		.loc 1 314 0
 734 0218 0998     		ldr	r0, [sp, #36]
 312:..\..\..\lvgl\version_6.1.2\lvgl\src\lv_misc/lv_txt.c **** 
 735              		.loc 1 312 0
 736 021a 0C99     		ldr	r1, [sp, #48]
 314:..\..\..\lvgl\version_6.1.2\lvgl\src\lv_misc/lv_txt.c **** 
 737              		.loc 1 314 0
 738 021c 0378     		ldrb	r3, [r0]	@ zero_extendqisi2
 312:..\..\..\lvgl\version_6.1.2\lvgl\src\lv_misc/lv_txt.c **** 
 739              		.loc 1 312 0
 740 021e 0A44     		add	r2, r2, r1
 741              	.LVL82:
 314:..\..\..\lvgl\version_6.1.2\lvgl\src\lv_misc/lv_txt.c **** 
 742              		.loc 1 314 0
 743 0220 0A2B     		cmp	r3, #10
 312:..\..\..\lvgl\version_6.1.2\lvgl\src\lv_misc/lv_txt.c **** 
 744              		.loc 1 312 0
 745 0222 0692     		str	r2, [sp, #24]
 746 0224 0C92     		str	r2, [sp, #48]
 314:..\..\..\lvgl\version_6.1.2\lvgl\src\lv_misc/lv_txt.c **** 
 747              		.loc 1 314 0
 748 0226 E3D0     		beq	.L52
 314:..\..\..\lvgl\version_6.1.2\lvgl\src\lv_misc/lv_txt.c **** 
 749              		.loc 1 314 0 is_stmt 0 discriminator 1
 750 0228 0D2B     		cmp	r3, #13
 751 022a E1D0     		beq	.L52
 316:..\..\..\lvgl\version_6.1.2\lvgl\src\lv_misc/lv_txt.c ****             i++;  /* Include the following newline in the current line */
 752              		.loc 1 316 0 is_stmt 1
 753 022c 835C     		ldrb	r3, [r0, r2]	@ zero_extendqisi2
 754 022e 0A2B     		cmp	r3, #10
 755 0230 02D0     		beq	.L53
ARM GAS  C:\Users\pearlstl\AppData\Local\Temp\ccILyAHD.s 			page 31


 316:..\..\..\lvgl\version_6.1.2\lvgl\src\lv_misc/lv_txt.c ****             i++;  /* Include the following newline in the current line */
 756              		.loc 1 316 0 is_stmt 0 discriminator 1
 757 0232 0D2B     		cmp	r3, #13
 758 0234 7FF40DAF 		bne	.L21
 759              	.L53:
 317:..\..\..\lvgl\version_6.1.2\lvgl\src\lv_misc/lv_txt.c ****             break;
 760              		.loc 1 317 0 is_stmt 1
 761 0238 069B     		ldr	r3, [sp, #24]
 762 023a 0133     		adds	r3, r3, #1
 763 023c 0693     		str	r3, [sp, #24]
 764 023e 0C93     		str	r3, [sp, #48]
 765              	.LBE58:
 324:..\..\..\lvgl\version_6.1.2\lvgl\src\lv_misc/lv_txt.c ****         lv_txt_encoded_next(txt, &i);
 766              		.loc 1 324 0
 767 0240 069B     		ldr	r3, [sp, #24]
 768 0242 002B     		cmp	r3, #0
 769 0244 C0D1     		bne	.L51
 770 0246 D6E7     		b	.L108
 771              	.LVL83:
 772              	.L103:
 773              	.LBB59:
 774              	.LBB54:
 775              	.LBB48:
 241:..\..\..\lvgl\version_6.1.2\lvgl\src\lv_misc/lv_txt.c ****         return i;
 776              		.loc 1 241 0
 777 0248 0D2C     		cmp	r4, #13
 778 024a AED1     		bne	.L48
 779 024c 0A2E     		cmp	r6, #10
 780 024e ACD1     		bne	.L48
 781 0250 73E7     		b	.L42
 782              	.LVL84:
 783              	.L105:
 225:..\..\..\lvgl\version_6.1.2\lvgl\src\lv_misc/lv_txt.c ****             word_len--;
 784              		.loc 1 225 0
 785 0252 A946     		mov	r9, r5
 786              	.LVL85:
 787 0254 0446     		mov	r4, r0
 788              	.LVL86:
 241:..\..\..\lvgl\version_6.1.2\lvgl\src\lv_misc/lv_txt.c ****         return i;
 789              		.loc 1 241 0
 790 0256 B8F1000F 		cmp	r8, #0
 791 025a 3FF46EAF 		beq	.L42
 792              	.LVL87:
 793 025e F3E7     		b	.L103
 794              	.LVL88:
 795              	.L69:
 796 0260 1A46     		mov	r2, r3
 797 0262 A2E7     		b	.L48
 798              	.LVL89:
 799              	.L59:
 800 0264 0846     		mov	r0, r1
 801              	.LVL90:
 802              	.LBE48:
 803              	.LBE54:
 804              	.LBE59:
 329:..\..\..\lvgl\version_6.1.2\lvgl\src\lv_misc/lv_txt.c **** 
 805              		.loc 1 329 0
ARM GAS  C:\Users\pearlstl\AppData\Local\Temp\ccILyAHD.s 			page 32


 806 0266 11B0     		add	sp, sp, #68
 807              		.cfi_def_cfa_offset 36
 808              		@ sp needed
 809 0268 BDE8F08F 		pop	{r4, r5, r6, r7, r8, r9, r10, fp, pc}
 810              	.LVL91:
 811              	.L110:
 812              		.align	2
 813              	.L109:
 814 026c 00000000 		.word	.LANCHOR0
 815 0270 00000000 		.word	.LC0
 816              		.cfi_endproc
 817              	.LFE6:
 818              		.size	lv_txt_get_next_line, .-lv_txt_get_next_line
 819              		.section	.text.lv_txt_get_width,"ax",%progbits
 820              		.align	2
 821              		.global	lv_txt_get_width
 822              		.thumb
 823              		.thumb_func
 824              		.type	lv_txt_get_width, %function
 825              	lv_txt_get_width:
 826              	.LFB7:
 343:..\..\..\lvgl\version_6.1.2\lvgl\src\lv_misc/lv_txt.c ****     if(txt == NULL) return 0;
 827              		.loc 1 343 0
 828              		.cfi_startproc
 829              		@ args = 4, pretend = 0, frame = 16
 830              		@ frame_needed = 0, uses_anonymous_args = 0
 831              	.LVL92:
 832 0000 2DE9F04F 		push	{r4, r5, r6, r7, r8, r9, r10, fp, lr}
 833              		.cfi_def_cfa_offset 36
 834              		.cfi_offset 4, -36
 835              		.cfi_offset 5, -32
 836              		.cfi_offset 6, -28
 837              		.cfi_offset 7, -24
 838              		.cfi_offset 8, -20
 839              		.cfi_offset 9, -16
 840              		.cfi_offset 10, -12
 841              		.cfi_offset 11, -8
 842              		.cfi_offset 14, -4
 843 0004 85B0     		sub	sp, sp, #20
 844              		.cfi_def_cfa_offset 56
 343:..\..\..\lvgl\version_6.1.2\lvgl\src\lv_misc/lv_txt.c ****     if(txt == NULL) return 0;
 845              		.loc 1 343 0
 846 0006 9DF83860 		ldrb	r6, [sp, #56]	@ zero_extendqisi2
 344:..\..\..\lvgl\version_6.1.2\lvgl\src\lv_misc/lv_txt.c ****     if(font == NULL) return 0;
 847              		.loc 1 344 0
 848 000a 0028     		cmp	r0, #0
 849 000c 3ED0     		beq	.L114
 345:..\..\..\lvgl\version_6.1.2\lvgl\src\lv_misc/lv_txt.c **** 
 850              		.loc 1 345 0
 851 000e 002A     		cmp	r2, #0
 852 0010 3CD0     		beq	.L114
 347:..\..\..\lvgl\version_6.1.2\lvgl\src\lv_misc/lv_txt.c ****     lv_coord_t width             = 0;
 853              		.loc 1 347 0
 854 0012 4FF00008 		mov	r8, #0
 855 0016 CDF80C80 		str	r8, [sp, #12]
 856              	.LVL93:
 353:..\..\..\lvgl\version_6.1.2\lvgl\src\lv_misc/lv_txt.c ****         while(i < length) {
ARM GAS  C:\Users\pearlstl\AppData\Local\Temp\ccILyAHD.s 			page 33


 857              		.loc 1 353 0
 858 001a 0029     		cmp	r1, #0
 859 001c 36D0     		beq	.L114
 860 001e 16F00104 		ands	r4, r6, #1
 861 0022 0546     		mov	r5, r0
 862 0024 0193     		str	r3, [sp, #4]
 863 0026 9146     		mov	r9, r2
 864 0028 0F46     		mov	r7, r1
 865 002a 324E     		ldr	r6, .L142
 866 002c 32D0     		beq	.L140
 867 002e 4446     		mov	r4, r8
 868 0030 0DF10C0B 		add	fp, sp, #12
 869 0034 11E0     		b	.L124
 870              	.LVL94:
 871              	.L119:
 872              	.LBB60:
 873              	.LBB61:
 874              	.LBB62:
 408:..\..\..\lvgl\version_6.1.2\lvgl\src\lv_misc/lv_txt.c ****         if(c == ' ') {
 875              		.loc 1 408 0
 876 0036 B8F1010F 		cmp	r8, #1
 877 003a 4FD0     		beq	.L141
 878              	.LVL95:
 879              	.L123:
 880              	.LBE62:
 881              	.LBE61:
 363:..\..\..\lvgl\version_6.1.2\lvgl\src\lv_misc/lv_txt.c ****             if(char_width > 0) {
 882              		.loc 1 363 0
 883 003c 0246     		mov	r2, r0
 884 003e 5146     		mov	r1, r10
 885 0040 4846     		mov	r0, r9
 886              	.LVL96:
 887 0042 FFF7FEFF 		bl	lv_font_get_glyph_width
 888              	.LVL97:
 364:..\..\..\lvgl\version_6.1.2\lvgl\src\lv_misc/lv_txt.c ****                 width += char_width;
 889              		.loc 1 364 0
 890 0046 03B2     		sxth	r3, r0
 891 0048 002B     		cmp	r3, #0
 892 004a 03DD     		ble	.L122
 893              	.LVL98:
 366:..\..\..\lvgl\version_6.1.2\lvgl\src\lv_misc/lv_txt.c ****             }
 894              		.loc 1 366 0
 895 004c 019B     		ldr	r3, [sp, #4]
 896 004e 1C44     		add	r4, r4, r3
 897              	.LVL99:
 898 0050 0444     		add	r4, r4, r0
 899 0052 24B2     		sxth	r4, r4
 900              	.LVL100:
 901              	.L122:
 902              	.LBE60:
 354:..\..\..\lvgl\version_6.1.2\lvgl\src\lv_misc/lv_txt.c ****             letter      = lv_txt_encoded_next(txt, &i);
 903              		.loc 1 354 0
 904 0054 039B     		ldr	r3, [sp, #12]
 905 0056 9F42     		cmp	r7, r3
 906 0058 37D9     		bls	.L118
 907              	.LVL101:
 908              	.L124:
ARM GAS  C:\Users\pearlstl\AppData\Local\Temp\ccILyAHD.s 			page 34


 909              	.LBB67:
 355:..\..\..\lvgl\version_6.1.2\lvgl\src\lv_misc/lv_txt.c ****             letter_next = lv_txt_encoded_next(&txt[i], NULL);
 910              		.loc 1 355 0
 911 005a 3368     		ldr	r3, [r6]
 912 005c 5946     		mov	r1, fp
 913 005e 2846     		mov	r0, r5
 914 0060 9847     		blx	r3
 915              	.LVL102:
 916 0062 8246     		mov	r10, r0
 917              	.LVL103:
 356:..\..\..\lvgl\version_6.1.2\lvgl\src\lv_misc/lv_txt.c ****             if((flag & LV_TXT_FLAG_RECOLOR) != 0) {
 918              		.loc 1 356 0
 919 0064 0398     		ldr	r0, [sp, #12]
 920              	.LVL104:
 921 0066 3268     		ldr	r2, [r6]
 922 0068 2844     		add	r0, r0, r5
 923 006a 0021     		movs	r1, #0
 924 006c 9047     		blx	r2
 925              	.LVL105:
 926              	.LBB65:
 927              	.LBB63:
 391:..\..\..\lvgl\version_6.1.2\lvgl\src\lv_misc/lv_txt.c ****         if(*state == LV_TXT_CMD_STATE_WAIT) { /*Start char*/
 928              		.loc 1 391 0
 929 006e BAF1230F 		cmp	r10, #35
 930 0072 E0D1     		bne	.L119
 392:..\..\..\lvgl\version_6.1.2\lvgl\src\lv_misc/lv_txt.c ****             *state = LV_TXT_CMD_STATE_PAR;
 931              		.loc 1 392 0
 932 0074 B8F1000F 		cmp	r8, #0
 933 0078 36D0     		beq	.L125
 397:..\..\..\lvgl\version_6.1.2\lvgl\src\lv_misc/lv_txt.c ****             *state = LV_TXT_CMD_STATE_WAIT;
 934              		.loc 1 397 0
 935 007a B8F1010F 		cmp	r8, #1
 936 007e 36D0     		beq	.L126
 401:..\..\..\lvgl\version_6.1.2\lvgl\src\lv_misc/lv_txt.c ****             *state = LV_TXT_CMD_STATE_WAIT;
 937              		.loc 1 401 0
 938 0080 B8F1020F 		cmp	r8, #2
 939 0084 DAD1     		bne	.L123
 402:..\..\..\lvgl\version_6.1.2\lvgl\src\lv_misc/lv_txt.c ****             ret    = true;
 940              		.loc 1 402 0
 941 0086 4FF00008 		mov	r8, #0
 942              	.LVL106:
 943 008a E3E7     		b	.L122
 944              	.LVL107:
 945              	.L114:
 946              	.LBE63:
 947              	.LBE65:
 948              	.LBE67:
 344:..\..\..\lvgl\version_6.1.2\lvgl\src\lv_misc/lv_txt.c ****     if(font == NULL) return 0;
 949              		.loc 1 344 0
 950 008c 0020     		movs	r0, #0
 951              	.LVL108:
 377:..\..\..\lvgl\version_6.1.2\lvgl\src\lv_misc/lv_txt.c **** 
 952              		.loc 1 377 0
 953 008e 05B0     		add	sp, sp, #20
 954              		.cfi_remember_state
 955              		.cfi_def_cfa_offset 36
 956              		@ sp needed
ARM GAS  C:\Users\pearlstl\AppData\Local\Temp\ccILyAHD.s 			page 35


 957 0090 BDE8F08F 		pop	{r4, r5, r6, r7, r8, r9, r10, fp, pc}
 958              	.LVL109:
 959              	.L140:
 960              		.cfi_restore_state
 961 0094 0DF10C0B 		add	fp, sp, #12
 962              	.LVL110:
 963              	.L117:
 964              	.LBB68:
 355:..\..\..\lvgl\version_6.1.2\lvgl\src\lv_misc/lv_txt.c ****             letter_next = lv_txt_encoded_next(&txt[i], NULL);
 965              		.loc 1 355 0
 966 0098 3368     		ldr	r3, [r6]
 967 009a 5946     		mov	r1, fp
 968 009c 2846     		mov	r0, r5
 969 009e 9847     		blx	r3
 970              	.LVL111:
 971 00a0 8046     		mov	r8, r0
 972              	.LVL112:
 356:..\..\..\lvgl\version_6.1.2\lvgl\src\lv_misc/lv_txt.c ****             if((flag & LV_TXT_FLAG_RECOLOR) != 0) {
 973              		.loc 1 356 0
 974 00a2 0398     		ldr	r0, [sp, #12]
 975              	.LVL113:
 976 00a4 3368     		ldr	r3, [r6]
 977 00a6 0021     		movs	r1, #0
 978 00a8 2844     		add	r0, r0, r5
 979 00aa 9847     		blx	r3
 980              	.LVL114:
 363:..\..\..\lvgl\version_6.1.2\lvgl\src\lv_misc/lv_txt.c ****             if(char_width > 0) {
 981              		.loc 1 363 0
 982 00ac 4146     		mov	r1, r8
 983 00ae 0246     		mov	r2, r0
 984 00b0 4846     		mov	r0, r9
 985              	.LVL115:
 986 00b2 FFF7FEFF 		bl	lv_font_get_glyph_width
 987              	.LVL116:
 364:..\..\..\lvgl\version_6.1.2\lvgl\src\lv_misc/lv_txt.c ****                 width += char_width;
 988              		.loc 1 364 0
 989 00b6 02B2     		sxth	r2, r0
 990 00b8 002A     		cmp	r2, #0
 991              	.LBE68:
 354:..\..\..\lvgl\version_6.1.2\lvgl\src\lv_misc/lv_txt.c ****             letter      = lv_txt_encoded_next(txt, &i);
 992              		.loc 1 354 0
 993 00ba 039B     		ldr	r3, [sp, #12]
 994              	.LBB69:
 364:..\..\..\lvgl\version_6.1.2\lvgl\src\lv_misc/lv_txt.c ****                 width += char_width;
 995              		.loc 1 364 0
 996 00bc 03DD     		ble	.L116
 366:..\..\..\lvgl\version_6.1.2\lvgl\src\lv_misc/lv_txt.c ****             }
 997              		.loc 1 366 0
 998 00be 019A     		ldr	r2, [sp, #4]
 999 00c0 1444     		add	r4, r4, r2
 1000              	.LVL117:
 1001 00c2 2044     		add	r0, r0, r4
 1002              	.LVL118:
 1003 00c4 04B2     		sxth	r4, r0
 1004              	.LVL119:
 1005              	.L116:
 1006              	.LBE69:
ARM GAS  C:\Users\pearlstl\AppData\Local\Temp\ccILyAHD.s 			page 36


 354:..\..\..\lvgl\version_6.1.2\lvgl\src\lv_misc/lv_txt.c ****             letter      = lv_txt_encoded_next(txt, &i);
 1007              		.loc 1 354 0
 1008 00c6 9F42     		cmp	r7, r3
 1009 00c8 E6D8     		bhi	.L117
 1010              	.LVL120:
 1011              	.L118:
 370:..\..\..\lvgl\version_6.1.2\lvgl\src\lv_misc/lv_txt.c ****             width -= letter_space; /*Trim the last letter space. Important if the text is center
 1012              		.loc 1 370 0
 1013 00ca 002C     		cmp	r4, #0
 371:..\..\..\lvgl\version_6.1.2\lvgl\src\lv_misc/lv_txt.c ****                                       aligned */
 1014              		.loc 1 371 0
 1015 00cc C3BF     		ittte	gt
 1016 00ce 019B     		ldrgt	r3, [sp, #4]
 1017 00d0 E41A     		subgt	r4, r4, r3
 1018              	.LVL121:
 1019 00d2 20B2     		sxthgt	r0, r4
 1020 00d4 2046     		movle	r0, r4
 377:..\..\..\lvgl\version_6.1.2\lvgl\src\lv_misc/lv_txt.c **** 
 1021              		.loc 1 377 0
 1022 00d6 05B0     		add	sp, sp, #20
 1023              		.cfi_remember_state
 1024              		.cfi_def_cfa_offset 36
 1025              		@ sp needed
 1026 00d8 BDE8F08F 		pop	{r4, r5, r6, r7, r8, r9, r10, fp, pc}
 1027              	.LVL122:
 1028              	.L141:
 1029              		.cfi_restore_state
 1030              	.LBB70:
 1031              	.LBB66:
 1032              	.LBB64:
 410:..\..\..\lvgl\version_6.1.2\lvgl\src\lv_misc/lv_txt.c ****         }
 1033              		.loc 1 410 0
 1034 00dc BAF1200F 		cmp	r10, #32
 1035 00e0 08BF     		it	eq
 1036 00e2 4FF00208 		moveq	r8, #2
 1037 00e6 B5E7     		b	.L122
 1038              	.LVL123:
 1039              	.L125:
 392:..\..\..\lvgl\version_6.1.2\lvgl\src\lv_misc/lv_txt.c ****             *state = LV_TXT_CMD_STATE_PAR;
 1040              		.loc 1 392 0
 1041 00e8 4FF00108 		mov	r8, #1
 1042              	.LVL124:
 1043 00ec B2E7     		b	.L122
 1044              	.LVL125:
 1045              	.L126:
 398:..\..\..\lvgl\version_6.1.2\lvgl\src\lv_misc/lv_txt.c ****         }
 1046              		.loc 1 398 0
 1047 00ee 4FF00008 		mov	r8, #0
 1048              	.LVL126:
 1049 00f2 A3E7     		b	.L123
 1050              	.L143:
 1051              		.align	2
 1052              	.L142:
 1053 00f4 00000000 		.word	.LANCHOR0
 1054              	.LBE64:
 1055              	.LBE66:
 1056              	.LBE70:
ARM GAS  C:\Users\pearlstl\AppData\Local\Temp\ccILyAHD.s 			page 37


 1057              		.cfi_endproc
 1058              	.LFE7:
 1059              		.size	lv_txt_get_width, .-lv_txt_get_width
 1060              		.section	.text.lv_txt_get_size,"ax",%progbits
 1061              		.align	2
 1062              		.global	lv_txt_get_size
 1063              		.thumb
 1064              		.thumb_func
 1065              		.type	lv_txt_get_size, %function
 1066              	lv_txt_get_size:
 1067              	.LFB4:
  95:..\..\..\lvgl\version_6.1.2\lvgl\src\lv_misc/lv_txt.c ****     size_res->x = 0;
 1068              		.loc 1 95 0
 1069              		.cfi_startproc
 1070              		@ args = 12, pretend = 0, frame = 24
 1071              		@ frame_needed = 0, uses_anonymous_args = 0
 1072              	.LVL127:
 1073 0000 2DE9F04F 		push	{r4, r5, r6, r7, r8, r9, r10, fp, lr}
 1074              		.cfi_def_cfa_offset 36
 1075              		.cfi_offset 4, -36
 1076              		.cfi_offset 5, -32
 1077              		.cfi_offset 6, -28
 1078              		.cfi_offset 7, -24
 1079              		.cfi_offset 8, -20
 1080              		.cfi_offset 9, -16
 1081              		.cfi_offset 10, -12
 1082              		.cfi_offset 11, -8
 1083              		.cfi_offset 14, -4
 1084 0004 89B0     		sub	sp, sp, #36
 1085              		.cfi_def_cfa_offset 72
  96:..\..\..\lvgl\version_6.1.2\lvgl\src\lv_misc/lv_txt.c ****     size_res->y = 0;
 1086              		.loc 1 96 0
 1087 0006 0026     		movs	r6, #0
  95:..\..\..\lvgl\version_6.1.2\lvgl\src\lv_misc/lv_txt.c ****     size_res->x = 0;
 1088              		.loc 1 95 0
 1089 0008 BDF94840 		ldrsh	r4, [sp, #72]
  96:..\..\..\lvgl\version_6.1.2\lvgl\src\lv_misc/lv_txt.c ****     size_res->y = 0;
 1090              		.loc 1 96 0
 1091 000c 0680     		strh	r6, [r0]	@ movhi
  97:..\..\..\lvgl\version_6.1.2\lvgl\src\lv_misc/lv_txt.c **** 
 1092              		.loc 1 97 0
 1093 000e 4680     		strh	r6, [r0, #2]	@ movhi
  95:..\..\..\lvgl\version_6.1.2\lvgl\src\lv_misc/lv_txt.c ****     size_res->x = 0;
 1094              		.loc 1 95 0
 1095 0010 0494     		str	r4, [sp, #16]
 1096 0012 BDF94CB0 		ldrsh	fp, [sp, #76]
 1097 0016 9DF850A0 		ldrb	r10, [sp, #80]	@ zero_extendqisi2
  99:..\..\..\lvgl\version_6.1.2\lvgl\src\lv_misc/lv_txt.c ****     if(font == NULL) return;
 1098              		.loc 1 99 0
 1099 001a 0029     		cmp	r1, #0
 1100 001c 48D0     		beq	.L144
 100:..\..\..\lvgl\version_6.1.2\lvgl\src\lv_misc/lv_txt.c **** 
 1101              		.loc 1 100 0
 1102 001e 002A     		cmp	r2, #0
 1103 0020 46D0     		beq	.L144
 1104 0022 9046     		mov	r8, r2
 1105 0024 127A     		ldrb	r2, [r2, #8]	@ zero_extendqisi2
ARM GAS  C:\Users\pearlstl\AppData\Local\Temp\ccILyAHD.s 			page 38


 1106              	.LVL128:
 1107 0026 0592     		str	r2, [sp, #20]
 1108 0028 9946     		mov	r9, r3
 110:..\..\..\lvgl\version_6.1.2\lvgl\src\lv_misc/lv_txt.c ****         new_line_start += lv_txt_get_next_line(&text[line_start], font, letter_space, max_width, fl
 1109              		.loc 1 110 0
 1110 002a 0B78     		ldrb	r3, [r1]	@ zero_extendqisi2
 1111              	.LVL129:
 1112 002c 0F46     		mov	r7, r1
 102:..\..\..\lvgl\version_6.1.2\lvgl\src\lv_misc/lv_txt.c **** 
 1113              		.loc 1 102 0
 1114 002e 1AF0020F 		tst	r10, #2
 1115 0032 1146     		mov	r1, r2
 1116              	.LVL130:
 1117 0034 47F61842 		movw	r2, #31768
 1118 0038 0546     		mov	r5, r0
 1119 003a 18BF     		it	ne
 1120 003c 9346     		movne	fp, r2
 1121              	.LVL131:
 110:..\..\..\lvgl\version_6.1.2\lvgl\src\lv_misc/lv_txt.c ****         new_line_start += lv_txt_get_next_line(&text[line_start], font, letter_space, max_width, fl
 1122              		.loc 1 110 0
 1123 003e 002B     		cmp	r3, #0
 1124 0040 52D0     		beq	.L149
 117:..\..\..\lvgl\version_6.1.2\lvgl\src\lv_misc/lv_txt.c ****             size_res->y += line_space;
 1125              		.loc 1 117 0
 1126 0042 8BB2     		uxth	r3, r1
 1127 0044 0693     		str	r3, [sp, #24]
 118:..\..\..\lvgl\version_6.1.2\lvgl\src\lv_misc/lv_txt.c ****         }
 1128              		.loc 1 118 0
 1129 0046 BDF81030 		ldrh	r3, [sp, #16]
 1130 004a CDF80CA0 		str	r10, [sp, #12]
 110:..\..\..\lvgl\version_6.1.2\lvgl\src\lv_misc/lv_txt.c ****         new_line_start += lv_txt_get_next_line(&text[line_start], font, letter_space, max_width, fl
 1131              		.loc 1 110 0
 1132 004e 3C46     		mov	r4, r7
 118:..\..\..\lvgl\version_6.1.2\lvgl\src\lv_misc/lv_txt.c ****         }
 1133              		.loc 1 118 0
 1134 0050 0793     		str	r3, [sp, #28]
 1135 0052 BA46     		mov	r10, r7
 1136 0054 10E0     		b	.L150
 1137              	.LVL132:
 1138              	.L169:
 122:..\..\..\lvgl\version_6.1.2\lvgl\src\lv_misc/lv_txt.c **** 
 1139              		.loc 1 122 0
 1140 0056 039C     		ldr	r4, [sp, #12]
 118:..\..\..\lvgl\version_6.1.2\lvgl\src\lv_misc/lv_txt.c ****         }
 1141              		.loc 1 118 0
 1142 0058 A5F802C0 		strh	ip, [r5, #2]	@ movhi
 122:..\..\..\lvgl\version_6.1.2\lvgl\src\lv_misc/lv_txt.c **** 
 1143              		.loc 1 122 0
 1144 005c 0094     		str	r4, [sp]
 1145 005e FFF7FEFF 		bl	lv_txt_get_width
 1146              	.LVL133:
 124:..\..\..\lvgl\version_6.1.2\lvgl\src\lv_misc/lv_txt.c ****         line_start  = new_line_start;
 1147              		.loc 1 124 0
 1148 0062 B5F90030 		ldrsh	r3, [r5]
 1149 0066 9842     		cmp	r0, r3
 1150 0068 B8BF     		it	lt
 1151 006a 1846     		movlt	r0, r3
ARM GAS  C:\Users\pearlstl\AppData\Local\Temp\ccILyAHD.s 			page 39


 1152              	.LVL134:
 1153 006c 2880     		strh	r0, [r5]	@ movhi
 1154              	.LVL135:
 110:..\..\..\lvgl\version_6.1.2\lvgl\src\lv_misc/lv_txt.c ****         new_line_start += lv_txt_get_next_line(&text[line_start], font, letter_space, max_width, fl
 1155              		.loc 1 110 0
 1156 006e 1AF80630 		ldrb	r3, [r10, r6]	@ zero_extendqisi2
 1157 0072 0AEB0604 		add	r4, r10, r6
 1158 0076 F3B1     		cbz	r3, .L168
 1159              	.LVL136:
 1160              	.L150:
 111:..\..\..\lvgl\version_6.1.2\lvgl\src\lv_misc/lv_txt.c **** 
 1161              		.loc 1 111 0
 1162 0078 039B     		ldr	r3, [sp, #12]
 1163 007a 0093     		str	r3, [sp]
 1164 007c 4A46     		mov	r2, r9
 1165 007e 5B46     		mov	r3, fp
 1166 0080 4146     		mov	r1, r8
 1167 0082 2046     		mov	r0, r4
 1168 0084 FFF7FEFF 		bl	lv_txt_get_next_line
 1169              	.LVL137:
 118:..\..\..\lvgl\version_6.1.2\lvgl\src\lv_misc/lv_txt.c ****         }
 1170              		.loc 1 118 0
 1171 0088 079F     		ldr	r7, [sp, #28]
 111:..\..\..\lvgl\version_6.1.2\lvgl\src\lv_misc/lv_txt.c **** 
 1172              		.loc 1 111 0
 1173 008a 8646     		mov	lr, r0
 122:..\..\..\lvgl\version_6.1.2\lvgl\src\lv_misc/lv_txt.c **** 
 1174              		.loc 1 122 0
 1175 008c 2046     		mov	r0, r4
 113:..\..\..\lvgl\version_6.1.2\lvgl\src\lv_misc/lv_txt.c ****             LV_LOG_WARN("lv_txt_get_size: integer overflow while calculating text height");
 1176              		.loc 1 113 0
 1177 008e B5F90240 		ldrsh	r4, [r5, #2]
 118:..\..\..\lvgl\version_6.1.2\lvgl\src\lv_misc/lv_txt.c ****         }
 1178              		.loc 1 118 0
 1179 0092 07EB040C 		add	ip, r7, r4
 1180 0096 069F     		ldr	r7, [sp, #24]
 1181 0098 BC44     		add	ip, ip, r7
 113:..\..\..\lvgl\version_6.1.2\lvgl\src\lv_misc/lv_txt.c ****             LV_LOG_WARN("lv_txt_get_size: integer overflow while calculating text height");
 1182              		.loc 1 113 0
 1183 009a 049F     		ldr	r7, [sp, #16]
 1184 009c 3C44     		add	r4, r4, r7
 1185 009e 059F     		ldr	r7, [sp, #20]
 1186 00a0 3C44     		add	r4, r4, r7
 1187 00a2 B4F5004F 		cmp	r4, #32768
 122:..\..\..\lvgl\version_6.1.2\lvgl\src\lv_misc/lv_txt.c **** 
 1188              		.loc 1 122 0
 1189 00a6 4B46     		mov	r3, r9
 1190 00a8 4246     		mov	r2, r8
 1191 00aa 7146     		mov	r1, lr
 111:..\..\..\lvgl\version_6.1.2\lvgl\src\lv_misc/lv_txt.c **** 
 1192              		.loc 1 111 0
 1193 00ac 7644     		add	r6, r6, lr
 1194              	.LVL138:
 113:..\..\..\lvgl\version_6.1.2\lvgl\src\lv_misc/lv_txt.c ****             LV_LOG_WARN("lv_txt_get_size: integer overflow while calculating text height");
 1195              		.loc 1 113 0
 1196 00ae D2D3     		bcc	.L169
 1197              	.LVL139:
ARM GAS  C:\Users\pearlstl\AppData\Local\Temp\ccILyAHD.s 			page 40


 1198              	.L144:
 138:..\..\..\lvgl\version_6.1.2\lvgl\src\lv_misc/lv_txt.c **** 
 1199              		.loc 1 138 0
 1200 00b0 09B0     		add	sp, sp, #36
 1201              		.cfi_remember_state
 1202              		.cfi_def_cfa_offset 36
 1203              		@ sp needed
 1204 00b2 BDE8F08F 		pop	{r4, r5, r6, r7, r8, r9, r10, fp, pc}
 1205              	.LVL140:
 1206              	.L168:
 1207              		.cfi_restore_state
 129:..\..\..\lvgl\version_6.1.2\lvgl\src\lv_misc/lv_txt.c ****         size_res->y += letter_height + line_space;
 1208              		.loc 1 129 0
 1209 00b6 2EB1     		cbz	r6, .L154
 129:..\..\..\lvgl\version_6.1.2\lvgl\src\lv_misc/lv_txt.c ****         size_res->y += letter_height + line_space;
 1210              		.loc 1 129 0 is_stmt 0 discriminator 1
 1211 00b8 14F8013C 		ldrb	r3, [r4, #-1]	@ zero_extendqisi2
 1212 00bc 0A2B     		cmp	r3, #10
 1213 00be 0AD0     		beq	.L153
 129:..\..\..\lvgl\version_6.1.2\lvgl\src\lv_misc/lv_txt.c ****         size_res->y += letter_height + line_space;
 1214              		.loc 1 129 0 discriminator 2
 1215 00c0 0D2B     		cmp	r3, #13
 1216 00c2 08D0     		beq	.L153
 1217              	.L154:
 1218 00c4 B5F90230 		ldrsh	r3, [r5, #2]
 134:..\..\..\lvgl\version_6.1.2\lvgl\src\lv_misc/lv_txt.c ****         size_res->y = letter_height;
 1219              		.loc 1 134 0 is_stmt 1
 1220 00c8 73B1     		cbz	r3, .L149
 1221              	.L155:
 137:..\..\..\lvgl\version_6.1.2\lvgl\src\lv_misc/lv_txt.c **** }
 1222              		.loc 1 137 0
 1223 00ca 049A     		ldr	r2, [sp, #16]
 1224 00cc 9B1A     		subs	r3, r3, r2
 1225 00ce 6B80     		strh	r3, [r5, #2]	@ movhi
 138:..\..\..\lvgl\version_6.1.2\lvgl\src\lv_misc/lv_txt.c **** 
 1226              		.loc 1 138 0
 1227 00d0 09B0     		add	sp, sp, #36
 1228              		.cfi_remember_state
 1229              		.cfi_def_cfa_offset 36
 1230              		@ sp needed
 1231 00d2 BDE8F08F 		pop	{r4, r5, r6, r7, r8, r9, r10, fp, pc}
 1232              	.LVL141:
 1233              	.L153:
 1234              		.cfi_restore_state
 130:..\..\..\lvgl\version_6.1.2\lvgl\src\lv_misc/lv_txt.c ****     }
 1235              		.loc 1 130 0
 1236 00d6 069B     		ldr	r3, [sp, #24]
 1237 00d8 0799     		ldr	r1, [sp, #28]
 1238 00da 6A88     		ldrh	r2, [r5, #2]
 1239 00dc 0B44     		add	r3, r3, r1
 1240 00de 1344     		add	r3, r3, r2
 1241 00e0 1BB2     		sxth	r3, r3
 1242 00e2 6B80     		strh	r3, [r5, #2]	@ movhi
 134:..\..\..\lvgl\version_6.1.2\lvgl\src\lv_misc/lv_txt.c ****         size_res->y = letter_height;
 1243              		.loc 1 134 0
 1244 00e4 002B     		cmp	r3, #0
 1245 00e6 F0D1     		bne	.L155
ARM GAS  C:\Users\pearlstl\AppData\Local\Temp\ccILyAHD.s 			page 41


 1246              	.LVL142:
 1247              	.L149:
 135:..\..\..\lvgl\version_6.1.2\lvgl\src\lv_misc/lv_txt.c ****     else
 1248              		.loc 1 135 0
 1249 00e8 BDF81430 		ldrh	r3, [sp, #20]
 1250 00ec 6B80     		strh	r3, [r5, #2]	@ movhi
 138:..\..\..\lvgl\version_6.1.2\lvgl\src\lv_misc/lv_txt.c **** 
 1251              		.loc 1 138 0
 1252 00ee 09B0     		add	sp, sp, #36
 1253              		.cfi_def_cfa_offset 36
 1254              		@ sp needed
 1255 00f0 BDE8F08F 		pop	{r4, r5, r6, r7, r8, r9, r10, fp, pc}
 1256              		.cfi_endproc
 1257              	.LFE4:
 1258              		.size	lv_txt_get_size, .-lv_txt_get_size
 1259              		.section	.text.lv_txt_is_cmd,"ax",%progbits
 1260              		.align	2
 1261              		.global	lv_txt_is_cmd
 1262              		.thumb
 1263              		.thumb_func
 1264              		.type	lv_txt_is_cmd, %function
 1265              	lv_txt_is_cmd:
 1266              	.LFB8:
 388:..\..\..\lvgl\version_6.1.2\lvgl\src\lv_misc/lv_txt.c ****     bool ret = false;
 1267              		.loc 1 388 0
 1268              		.cfi_startproc
 1269              		@ args = 0, pretend = 0, frame = 0
 1270              		@ frame_needed = 0, uses_anonymous_args = 0
 1271              		@ link register save eliminated.
 1272              	.LVL143:
 391:..\..\..\lvgl\version_6.1.2\lvgl\src\lv_misc/lv_txt.c ****         if(*state == LV_TXT_CMD_STATE_WAIT) { /*Start char*/
 1273              		.loc 1 391 0
 1274 0000 2329     		cmp	r1, #35
 388:..\..\..\lvgl\version_6.1.2\lvgl\src\lv_misc/lv_txt.c ****     bool ret = false;
 1275              		.loc 1 388 0
 1276 0002 0246     		mov	r2, r0
 392:..\..\..\lvgl\version_6.1.2\lvgl\src\lv_misc/lv_txt.c ****             *state = LV_TXT_CMD_STATE_PAR;
 1277              		.loc 1 392 0
 1278 0004 0378     		ldrb	r3, [r0]	@ zero_extendqisi2
 391:..\..\..\lvgl\version_6.1.2\lvgl\src\lv_misc/lv_txt.c ****         if(*state == LV_TXT_CMD_STATE_WAIT) { /*Start char*/
 1279              		.loc 1 391 0
 1280 0006 0AD0     		beq	.L180
 408:..\..\..\lvgl\version_6.1.2\lvgl\src\lv_misc/lv_txt.c ****         if(c == ' ') {
 1281              		.loc 1 408 0
 1282 0008 012B     		cmp	r3, #1
 1283 000a 01D0     		beq	.L181
 1284              	.L176:
 389:..\..\..\lvgl\version_6.1.2\lvgl\src\lv_misc/lv_txt.c **** 
 1285              		.loc 1 389 0
 1286 000c 0020     		movs	r0, #0
 1287              	.LVL144:
 416:..\..\..\lvgl\version_6.1.2\lvgl\src\lv_misc/lv_txt.c **** 
 1288              		.loc 1 416 0
 1289 000e 7047     		bx	lr
 1290              	.LVL145:
 1291              	.L181:
 409:..\..\..\lvgl\version_6.1.2\lvgl\src\lv_misc/lv_txt.c ****             *state = LV_TXT_CMD_STATE_IN; /*After the parameter the text is in the command*/
ARM GAS  C:\Users\pearlstl\AppData\Local\Temp\ccILyAHD.s 			page 42


 1292              		.loc 1 409 0
 1293 0010 2029     		cmp	r1, #32
 410:..\..\..\lvgl\version_6.1.2\lvgl\src\lv_misc/lv_txt.c ****         }
 1294              		.loc 1 410 0
 1295 0012 03BF     		ittte	eq
 1296 0014 0221     		moveq	r1, #2
 1297              	.LVL146:
 412:..\..\..\lvgl\version_6.1.2\lvgl\src\lv_misc/lv_txt.c ****     }
 1298              		.loc 1 412 0
 1299 0016 1846     		moveq	r0, r3
 1300              	.LVL147:
 410:..\..\..\lvgl\version_6.1.2\lvgl\src\lv_misc/lv_txt.c ****         }
 1301              		.loc 1 410 0
 1302 0018 1170     		strbeq	r1, [r2]
 412:..\..\..\lvgl\version_6.1.2\lvgl\src\lv_misc/lv_txt.c ****     }
 1303              		.loc 1 412 0
 1304 001a 1846     		movne	r0, r3
 1305 001c 7047     		bx	lr
 1306              	.LVL148:
 1307              	.L180:
 392:..\..\..\lvgl\version_6.1.2\lvgl\src\lv_misc/lv_txt.c ****             *state = LV_TXT_CMD_STATE_PAR;
 1308              		.loc 1 392 0
 1309 001e 3BB1     		cbz	r3, .L182
 397:..\..\..\lvgl\version_6.1.2\lvgl\src\lv_misc/lv_txt.c ****             *state = LV_TXT_CMD_STATE_WAIT;
 1310              		.loc 1 397 0
 1311 0020 012B     		cmp	r3, #1
 1312 0022 09D0     		beq	.L183
 401:..\..\..\lvgl\version_6.1.2\lvgl\src\lv_misc/lv_txt.c ****             *state = LV_TXT_CMD_STATE_WAIT;
 1313              		.loc 1 401 0
 1314 0024 022B     		cmp	r3, #2
 1315 0026 F1D1     		bne	.L176
 402:..\..\..\lvgl\version_6.1.2\lvgl\src\lv_misc/lv_txt.c ****             ret    = true;
 1316              		.loc 1 402 0
 1317 0028 0023     		movs	r3, #0
 1318 002a 0370     		strb	r3, [r0]
 1319              	.LVL149:
 403:..\..\..\lvgl\version_6.1.2\lvgl\src\lv_misc/lv_txt.c ****         }
 1320              		.loc 1 403 0
 1321 002c 0120     		movs	r0, #1
 1322              	.LVL150:
 1323 002e 7047     		bx	lr
 1324              	.LVL151:
 1325              	.L182:
 393:..\..\..\lvgl\version_6.1.2\lvgl\src\lv_misc/lv_txt.c ****             ret    = true;
 1326              		.loc 1 393 0
 1327 0030 0123     		movs	r3, #1
 1328 0032 0370     		strb	r3, [r0]
 1329              	.LVL152:
 412:..\..\..\lvgl\version_6.1.2\lvgl\src\lv_misc/lv_txt.c ****     }
 1330              		.loc 1 412 0
 1331 0034 1846     		mov	r0, r3
 1332              	.LVL153:
 1333 0036 7047     		bx	lr
 1334              	.LVL154:
 1335              	.L183:
 398:..\..\..\lvgl\version_6.1.2\lvgl\src\lv_misc/lv_txt.c ****         }
 1336              		.loc 1 398 0
ARM GAS  C:\Users\pearlstl\AppData\Local\Temp\ccILyAHD.s 			page 43


 1337 0038 0023     		movs	r3, #0
 1338 003a 0370     		strb	r3, [r0]
 389:..\..\..\lvgl\version_6.1.2\lvgl\src\lv_misc/lv_txt.c **** 
 1339              		.loc 1 389 0
 1340 003c 1846     		mov	r0, r3
 1341              	.LVL155:
 1342 003e 7047     		bx	lr
 1343              		.cfi_endproc
 1344              	.LFE8:
 1345              		.size	lv_txt_is_cmd, .-lv_txt_is_cmd
 1346              		.section	.text.lv_txt_ins,"ax",%progbits
 1347              		.align	2
 1348              		.global	lv_txt_ins
 1349              		.thumb
 1350              		.thumb_func
 1351              		.type	lv_txt_ins, %function
 1352              	lv_txt_ins:
 1353              	.LFB9:
 426:..\..\..\lvgl\version_6.1.2\lvgl\src\lv_misc/lv_txt.c ****     size_t old_len = strlen(txt_buf);
 1354              		.loc 1 426 0
 1355              		.cfi_startproc
 1356              		@ args = 0, pretend = 0, frame = 0
 1357              		@ frame_needed = 0, uses_anonymous_args = 0
 1358              	.LVL156:
 1359 0000 2DE9F843 		push	{r3, r4, r5, r6, r7, r8, r9, lr}
 1360              		.cfi_def_cfa_offset 32
 1361              		.cfi_offset 3, -32
 1362              		.cfi_offset 4, -28
 1363              		.cfi_offset 5, -24
 1364              		.cfi_offset 6, -20
 1365              		.cfi_offset 7, -16
 1366              		.cfi_offset 8, -12
 1367              		.cfi_offset 9, -8
 1368              		.cfi_offset 14, -4
 426:..\..\..\lvgl\version_6.1.2\lvgl\src\lv_misc/lv_txt.c ****     size_t old_len = strlen(txt_buf);
 1369              		.loc 1 426 0
 1370 0004 9046     		mov	r8, r2
 1371 0006 0D46     		mov	r5, r1
 1372 0008 0746     		mov	r7, r0
 427:..\..\..\lvgl\version_6.1.2\lvgl\src\lv_misc/lv_txt.c ****     size_t ins_len = strlen(ins_txt);
 1373              		.loc 1 427 0
 1374 000a FFF7FEFF 		bl	strlen
 1375              	.LVL157:
 1376 000e 0446     		mov	r4, r0
 1377              	.LVL158:
 428:..\..\..\lvgl\version_6.1.2\lvgl\src\lv_misc/lv_txt.c ****     size_t new_len = ins_len + old_len;
 1378              		.loc 1 428 0
 1379 0010 4046     		mov	r0, r8
 1380              	.LVL159:
 1381 0012 FFF7FEFF 		bl	strlen
 1382              	.LVL160:
 430:..\..\..\lvgl\version_6.1.2\lvgl\src\lv_misc/lv_txt.c **** 
 1383              		.loc 1 430 0
 1384 0016 0E4B     		ldr	r3, .L190
 428:..\..\..\lvgl\version_6.1.2\lvgl\src\lv_misc/lv_txt.c ****     size_t new_len = ins_len + old_len;
 1385              		.loc 1 428 0
 1386 0018 8146     		mov	r9, r0
ARM GAS  C:\Users\pearlstl\AppData\Local\Temp\ccILyAHD.s 			page 44


 1387              	.LVL161:
 430:..\..\..\lvgl\version_6.1.2\lvgl\src\lv_misc/lv_txt.c **** 
 1388              		.loc 1 430 0
 1389 001a 9B68     		ldr	r3, [r3, #8]
 1390 001c 2946     		mov	r1, r5
 1391 001e 3846     		mov	r0, r7
 1392              	.LVL162:
 1393 0020 9847     		blx	r3
 1394              	.LVL163:
 429:..\..\..\lvgl\version_6.1.2\lvgl\src\lv_misc/lv_txt.c ****     pos              = lv_txt_encoded_get_byte_id(txt_buf, pos); /*Convert to byte index instead of
 1395              		.loc 1 429 0
 1396 0022 04EB0903 		add	r3, r4, r9
 1397              	.LVL164:
 434:..\..\..\lvgl\version_6.1.2\lvgl\src\lv_misc/lv_txt.c ****         txt_buf[i] = txt_buf[i - ins_len];
 1398              		.loc 1 434 0
 1399 0026 09EB0006 		add	r6, r9, r0
 1400 002a B342     		cmp	r3, r6
 1401 002c 08D3     		bcc	.L187
 1402 002e 3919     		adds	r1, r7, r4
 1403 0030 FC18     		adds	r4, r7, r3
 1404              	.LVL165:
 1405              	.L186:
 434:..\..\..\lvgl\version_6.1.2\lvgl\src\lv_misc/lv_txt.c ****         txt_buf[i] = txt_buf[i - ins_len];
 1406              		.loc 1 434 0 is_stmt 0 discriminator 3
 1407 0032 013B     		subs	r3, r3, #1
 1408              	.LVL166:
 435:..\..\..\lvgl\version_6.1.2\lvgl\src\lv_misc/lv_txt.c ****     }
 1409              		.loc 1 435 0 is_stmt 1 discriminator 3
 1410 0034 11F80159 		ldrb	r5, [r1], #-1	@ zero_extendqisi2
 1411 0038 04F80159 		strb	r5, [r4], #-1
 434:..\..\..\lvgl\version_6.1.2\lvgl\src\lv_misc/lv_txt.c ****         txt_buf[i] = txt_buf[i - ins_len];
 1412              		.loc 1 434 0 discriminator 3
 1413 003c B342     		cmp	r3, r6
 1414 003e F8D2     		bcs	.L186
 1415              	.L187:
 439:..\..\..\lvgl\version_6.1.2\lvgl\src\lv_misc/lv_txt.c **** }
 1416              		.loc 1 439 0
 1417 0040 4A46     		mov	r2, r9
 1418 0042 4146     		mov	r1, r8
 1419 0044 3844     		add	r0, r0, r7
 1420              	.LVL167:
 440:..\..\..\lvgl\version_6.1.2\lvgl\src\lv_misc/lv_txt.c **** 
 1421              		.loc 1 440 0
 1422 0046 BDE8F843 		pop	{r3, r4, r5, r6, r7, r8, r9, lr}
 1423              		.cfi_restore 14
 1424              		.cfi_restore 9
 1425              		.cfi_restore 8
 1426              		.cfi_restore 7
 1427              		.cfi_restore 6
 1428              		.cfi_restore 5
 1429              		.cfi_restore 4
 1430              		.cfi_restore 3
 1431              		.cfi_def_cfa_offset 0
 1432              	.LVL168:
 439:..\..\..\lvgl\version_6.1.2\lvgl\src\lv_misc/lv_txt.c **** }
 1433              		.loc 1 439 0
 1434 004a FFF7FEBF 		b	memcpy
ARM GAS  C:\Users\pearlstl\AppData\Local\Temp\ccILyAHD.s 			page 45


 1435              	.LVL169:
 1436              	.L191:
 1437 004e 00BF     		.align	2
 1438              	.L190:
 1439 0050 00000000 		.word	.LANCHOR0
 1440              		.cfi_endproc
 1441              	.LFE9:
 1442              		.size	lv_txt_ins, .-lv_txt_ins
 1443              		.section	.text.lv_txt_cut,"ax",%progbits
 1444              		.align	2
 1445              		.global	lv_txt_cut
 1446              		.thumb
 1447              		.thumb_func
 1448              		.type	lv_txt_cut, %function
 1449              	lv_txt_cut:
 1450              	.LFB10:
 450:..\..\..\lvgl\version_6.1.2\lvgl\src\lv_misc/lv_txt.c **** 
 1451              		.loc 1 450 0
 1452              		.cfi_startproc
 1453              		@ args = 0, pretend = 0, frame = 0
 1454              		@ frame_needed = 0, uses_anonymous_args = 0
 1455              	.LVL170:
 1456 0000 2DE9F843 		push	{r3, r4, r5, r6, r7, r8, r9, lr}
 1457              		.cfi_def_cfa_offset 32
 1458              		.cfi_offset 3, -32
 1459              		.cfi_offset 4, -28
 1460              		.cfi_offset 5, -24
 1461              		.cfi_offset 6, -20
 1462              		.cfi_offset 7, -16
 1463              		.cfi_offset 8, -12
 1464              		.cfi_offset 9, -8
 1465              		.cfi_offset 14, -4
 450:..\..\..\lvgl\version_6.1.2\lvgl\src\lv_misc/lv_txt.c **** 
 1466              		.loc 1 450 0
 1467 0004 9146     		mov	r9, r2
 1468 0006 0C46     		mov	r4, r1
 1469 0008 0746     		mov	r7, r0
 452:..\..\..\lvgl\version_6.1.2\lvgl\src\lv_misc/lv_txt.c **** 
 1470              		.loc 1 452 0
 1471 000a FFF7FEFF 		bl	strlen
 1472              	.LVL171:
 454:..\..\..\lvgl\version_6.1.2\lvgl\src\lv_misc/lv_txt.c ****     len = lv_txt_encoded_get_byte_id(&txt[pos], len);
 1473              		.loc 1 454 0
 1474 000e DFF83C80 		ldr	r8, .L198
 1475 0012 2146     		mov	r1, r4
 452:..\..\..\lvgl\version_6.1.2\lvgl\src\lv_misc/lv_txt.c **** 
 1476              		.loc 1 452 0
 1477 0014 0646     		mov	r6, r0
 1478              	.LVL172:
 454:..\..\..\lvgl\version_6.1.2\lvgl\src\lv_misc/lv_txt.c ****     len = lv_txt_encoded_get_byte_id(&txt[pos], len);
 1479              		.loc 1 454 0
 1480 0016 D8F80830 		ldr	r3, [r8, #8]
 1481 001a 3846     		mov	r0, r7
 1482              	.LVL173:
 1483 001c 9847     		blx	r3
 1484              	.LVL174:
 455:..\..\..\lvgl\version_6.1.2\lvgl\src\lv_misc/lv_txt.c **** 
ARM GAS  C:\Users\pearlstl\AppData\Local\Temp\ccILyAHD.s 			page 46


 1485              		.loc 1 455 0
 1486 001e 3D18     		adds	r5, r7, r0
 454:..\..\..\lvgl\version_6.1.2\lvgl\src\lv_misc/lv_txt.c ****     len = lv_txt_encoded_get_byte_id(&txt[pos], len);
 1487              		.loc 1 454 0
 1488 0020 0446     		mov	r4, r0
 1489              	.LVL175:
 455:..\..\..\lvgl\version_6.1.2\lvgl\src\lv_misc/lv_txt.c **** 
 1490              		.loc 1 455 0
 1491 0022 4946     		mov	r1, r9
 1492 0024 D8F80830 		ldr	r3, [r8, #8]
 1493 0028 2846     		mov	r0, r5
 1494              	.LVL176:
 1495 002a 9847     		blx	r3
 1496              	.LVL177:
 459:..\..\..\lvgl\version_6.1.2\lvgl\src\lv_misc/lv_txt.c ****         txt[i] = txt[i + len];
 1497              		.loc 1 459 0
 1498 002c 311A     		subs	r1, r6, r0
 1499 002e 8C42     		cmp	r4, r1
 1500 0030 09D8     		bhi	.L192
 1501 0032 2318     		adds	r3, r4, r0
 1502 0034 3B44     		add	r3, r3, r7
 1503 0036 2846     		mov	r0, r5
 1504              	.LVL178:
 1505              	.L194:
 459:..\..\..\lvgl\version_6.1.2\lvgl\src\lv_misc/lv_txt.c ****         txt[i] = txt[i + len];
 1506              		.loc 1 459 0 is_stmt 0 discriminator 3
 1507 0038 0134     		adds	r4, r4, #1
 1508              	.LVL179:
 460:..\..\..\lvgl\version_6.1.2\lvgl\src\lv_misc/lv_txt.c ****     }
 1509              		.loc 1 460 0 is_stmt 1 discriminator 3
 1510 003a 13F8012B 		ldrb	r2, [r3], #1	@ zero_extendqisi2
 1511 003e 00F8012B 		strb	r2, [r0], #1
 459:..\..\..\lvgl\version_6.1.2\lvgl\src\lv_misc/lv_txt.c ****         txt[i] = txt[i + len];
 1512              		.loc 1 459 0 discriminator 3
 1513 0042 8C42     		cmp	r4, r1
 1514 0044 F8D9     		bls	.L194
 1515              	.L192:
 1516 0046 BDE8F883 		pop	{r3, r4, r5, r6, r7, r8, r9, pc}
 1517              	.LVL180:
 1518              	.L199:
 1519 004a 00BF     		.align	2
 1520              	.L198:
 1521 004c 00000000 		.word	.LANCHOR0
 1522              		.cfi_endproc
 1523              	.LFE10:
 1524              		.size	lv_txt_cut, .-lv_txt_cut
 1525              		.global	lv_txt_get_encoded_length
 1526              		.global	lv_txt_encoded_get_char_id
 1527              		.global	lv_txt_encoded_get_byte_id
 1528              		.global	lv_txt_encoded_prev
 1529              		.global	lv_txt_encoded_next
 1530              		.global	lv_txt_encoded_conv_wc
 1531              		.global	lv_txt_unicode_to_encoded
 1532              		.global	lv_txt_encoded_size
 1533              		.data
 1534              		.align	2
 1535              		.set	.LANCHOR0,. + 0
ARM GAS  C:\Users\pearlstl\AppData\Local\Temp\ccILyAHD.s 			page 47


 1536              		.type	lv_txt_encoded_next, %object
 1537              		.size	lv_txt_encoded_next, 4
 1538              	lv_txt_encoded_next:
 1539 0000 00000000 		.word	lv_txt_iso8859_1_next
 1540              		.type	lv_txt_encoded_prev, %object
 1541              		.size	lv_txt_encoded_prev, 4
 1542              	lv_txt_encoded_prev:
 1543 0004 00000000 		.word	lv_txt_iso8859_1_prev
 1544              		.type	lv_txt_encoded_get_byte_id, %object
 1545              		.size	lv_txt_encoded_get_byte_id, 4
 1546              	lv_txt_encoded_get_byte_id:
 1547 0008 00000000 		.word	lv_txt_iso8859_1_get_byte_id
 1548              		.type	lv_txt_get_encoded_length, %object
 1549              		.size	lv_txt_get_encoded_length, 4
 1550              	lv_txt_get_encoded_length:
 1551 000c 00000000 		.word	lv_txt_iso8859_1_get_length
 1552              		.type	lv_txt_encoded_get_char_id, %object
 1553              		.size	lv_txt_encoded_get_char_id, 4
 1554              	lv_txt_encoded_get_char_id:
 1555 0010 00000000 		.word	lv_txt_iso8859_1_get_char_id
 1556              		.type	lv_txt_encoded_conv_wc, %object
 1557              		.size	lv_txt_encoded_conv_wc, 4
 1558              	lv_txt_encoded_conv_wc:
 1559 0014 00000000 		.word	lv_txt_iso8859_1_conv_wc
 1560              		.type	lv_txt_unicode_to_encoded, %object
 1561              		.size	lv_txt_unicode_to_encoded, 4
 1562              	lv_txt_unicode_to_encoded:
 1563 0018 00000000 		.word	lv_txt_unicode_to_iso8859_1
 1564              		.type	lv_txt_encoded_size, %object
 1565              		.size	lv_txt_encoded_size, 4
 1566              	lv_txt_encoded_size:
 1567 001c 00000000 		.word	lv_txt_iso8859_1_size
 1568              		.section	.rodata.str1.4,"aMS",%progbits,1
 1569              		.align	2
 1570              	.LC0:
 1571 0000 202C2E3B 		.ascii	" ,.;:-_\000"
 1571      3A2D5F00 
 1572              		.text
 1573              	.Letext0:
 1574              		.file 2 "c:\\program files (x86)\\cypress\\psoc creator\\4.2\\psoc creator\\import\\gnu\\arm\\5.4.
 1575              		.file 3 "c:\\program files (x86)\\cypress\\psoc creator\\4.2\\psoc creator\\import\\gnu\\arm\\5.4.
 1576              		.file 4 "..\\..\\..\\lvgl\\version_6.1.2\\lvgl\\src\\lv_misc\\../../../lv_conf.h"
 1577              		.file 5 "c:\\program files (x86)\\cypress\\psoc creator\\4.2\\psoc creator\\import\\gnu\\arm\\5.4.
 1578              		.file 6 "..\\..\\..\\lvgl\\version_6.1.2\\lvgl\\src\\lv_misc\\lv_area.h"
 1579              		.file 7 "..\\..\\..\\lvgl\\version_6.1.2\\lvgl\\src\\lv_misc\\../lv_font/lv_font.h"
 1580              		.file 8 "..\\..\\..\\lvgl\\version_6.1.2\\lvgl\\src\\lv_misc\\lv_txt.h"
 1581              		.file 9 "c:\\program files (x86)\\cypress\\psoc creator\\4.2\\psoc creator\\import\\gnu\\arm\\5.4.
 1582              		.section	.debug_info,"",%progbits
 1583              	.Ldebug_info0:
 1584 0000 7F0D0000 		.4byte	0xd7f
 1585 0004 0400     		.2byte	0x4
 1586 0006 00000000 		.4byte	.Ldebug_abbrev0
 1587 000a 04       		.byte	0x4
 1588 000b 01       		.uleb128 0x1
 1589 000c 75000000 		.4byte	.LASF112
 1590 0010 0C       		.byte	0xc
 1591 0011 E4020000 		.4byte	.LASF113
ARM GAS  C:\Users\pearlstl\AppData\Local\Temp\ccILyAHD.s 			page 48


 1592 0015 9B060000 		.4byte	.LASF114
 1593 0019 10010000 		.4byte	.Ldebug_ranges0+0x110
 1594 001d 00000000 		.4byte	0
 1595 0021 00000000 		.4byte	.Ldebug_line0
 1596 0025 02       		.uleb128 0x2
 1597 0026 57040000 		.4byte	.LASF0
 1598 002a 02       		.byte	0x2
 1599 002b 1B       		.byte	0x1b
 1600 002c 30000000 		.4byte	0x30
 1601 0030 03       		.uleb128 0x3
 1602 0031 01       		.byte	0x1
 1603 0032 06       		.byte	0x6
 1604 0033 30060000 		.4byte	.LASF2
 1605 0037 02       		.uleb128 0x2
 1606 0038 02050000 		.4byte	.LASF1
 1607 003c 02       		.byte	0x2
 1608 003d 1D       		.byte	0x1d
 1609 003e 42000000 		.4byte	0x42
 1610 0042 03       		.uleb128 0x3
 1611 0043 01       		.byte	0x1
 1612 0044 08       		.byte	0x8
 1613 0045 CC050000 		.4byte	.LASF3
 1614 0049 02       		.uleb128 0x2
 1615 004a EC030000 		.4byte	.LASF4
 1616 004e 02       		.byte	0x2
 1617 004f 29       		.byte	0x29
 1618 0050 54000000 		.4byte	0x54
 1619 0054 03       		.uleb128 0x3
 1620 0055 02       		.byte	0x2
 1621 0056 05       		.byte	0x5
 1622 0057 B9040000 		.4byte	.LASF5
 1623 005b 02       		.uleb128 0x2
 1624 005c 42020000 		.4byte	.LASF6
 1625 0060 02       		.byte	0x2
 1626 0061 2B       		.byte	0x2b
 1627 0062 66000000 		.4byte	0x66
 1628 0066 03       		.uleb128 0x3
 1629 0067 02       		.byte	0x2
 1630 0068 07       		.byte	0x7
 1631 0069 55060000 		.4byte	.LASF7
 1632 006d 02       		.uleb128 0x2
 1633 006e 41010000 		.4byte	.LASF8
 1634 0072 02       		.byte	0x2
 1635 0073 3F       		.byte	0x3f
 1636 0074 78000000 		.4byte	0x78
 1637 0078 03       		.uleb128 0x3
 1638 0079 04       		.byte	0x4
 1639 007a 05       		.byte	0x5
 1640 007b CE040000 		.4byte	.LASF9
 1641 007f 02       		.uleb128 0x2
 1642 0080 F0050000 		.4byte	.LASF10
 1643 0084 02       		.byte	0x2
 1644 0085 41       		.byte	0x41
 1645 0086 8A000000 		.4byte	0x8a
 1646 008a 03       		.uleb128 0x3
 1647 008b 04       		.byte	0x4
 1648 008c 07       		.byte	0x7
ARM GAS  C:\Users\pearlstl\AppData\Local\Temp\ccILyAHD.s 			page 49


 1649 008d 30050000 		.4byte	.LASF11
 1650 0091 03       		.uleb128 0x3
 1651 0092 08       		.byte	0x8
 1652 0093 05       		.byte	0x5
 1653 0094 A6030000 		.4byte	.LASF12
 1654 0098 03       		.uleb128 0x3
 1655 0099 08       		.byte	0x8
 1656 009a 07       		.byte	0x7
 1657 009b 06020000 		.4byte	.LASF13
 1658 009f 04       		.uleb128 0x4
 1659 00a0 04       		.byte	0x4
 1660 00a1 05       		.byte	0x5
 1661 00a2 696E7400 		.ascii	"int\000"
 1662 00a6 03       		.uleb128 0x3
 1663 00a7 04       		.byte	0x4
 1664 00a8 07       		.byte	0x7
 1665 00a9 5C000000 		.4byte	.LASF14
 1666 00ad 02       		.uleb128 0x2
 1667 00ae DA010000 		.4byte	.LASF15
 1668 00b2 03       		.byte	0x3
 1669 00b3 14       		.byte	0x14
 1670 00b4 25000000 		.4byte	0x25
 1671 00b8 02       		.uleb128 0x2
 1672 00b9 72030000 		.4byte	.LASF16
 1673 00bd 03       		.byte	0x3
 1674 00be 18       		.byte	0x18
 1675 00bf 37000000 		.4byte	0x37
 1676 00c3 02       		.uleb128 0x2
 1677 00c4 E9010000 		.4byte	.LASF17
 1678 00c8 03       		.byte	0x3
 1679 00c9 20       		.byte	0x20
 1680 00ca 49000000 		.4byte	0x49
 1681 00ce 02       		.uleb128 0x2
 1682 00cf 87040000 		.4byte	.LASF18
 1683 00d3 03       		.byte	0x3
 1684 00d4 24       		.byte	0x24
 1685 00d5 5B000000 		.4byte	0x5b
 1686 00d9 02       		.uleb128 0x2
 1687 00da 97050000 		.4byte	.LASF19
 1688 00de 03       		.byte	0x3
 1689 00df 2C       		.byte	0x2c
 1690 00e0 6D000000 		.4byte	0x6d
 1691 00e4 02       		.uleb128 0x2
 1692 00e5 D1010000 		.4byte	.LASF20
 1693 00e9 03       		.byte	0x3
 1694 00ea 30       		.byte	0x30
 1695 00eb 7F000000 		.4byte	0x7f
 1696 00ef 02       		.uleb128 0x2
 1697 00f0 F7040000 		.4byte	.LASF21
 1698 00f4 04       		.byte	0x4
 1699 00f5 3A       		.byte	0x3a
 1700 00f6 C3000000 		.4byte	0xc3
 1701 00fa 05       		.uleb128 0x5
 1702 00fb 04       		.byte	0x4
 1703 00fc 02       		.uleb128 0x2
 1704 00fd 5F020000 		.4byte	.LASF22
 1705 0101 05       		.byte	0x5
ARM GAS  C:\Users\pearlstl\AppData\Local\Temp\ccILyAHD.s 			page 50


 1706 0102 D8       		.byte	0xd8
 1707 0103 A6000000 		.4byte	0xa6
 1708 0107 03       		.uleb128 0x3
 1709 0108 08       		.byte	0x8
 1710 0109 04       		.byte	0x4
 1711 010a 7B040000 		.4byte	.LASF23
 1712 010e 03       		.uleb128 0x3
 1713 010f 04       		.byte	0x4
 1714 0110 07       		.byte	0x7
 1715 0111 27050000 		.4byte	.LASF24
 1716 0115 06       		.uleb128 0x6
 1717 0116 04       		.byte	0x4
 1718 0117 1B010000 		.4byte	0x11b
 1719 011b 03       		.uleb128 0x3
 1720 011c 01       		.byte	0x1
 1721 011d 08       		.byte	0x8
 1722 011e 25030000 		.4byte	.LASF25
 1723 0122 06       		.uleb128 0x6
 1724 0123 04       		.byte	0x4
 1725 0124 28010000 		.4byte	0x128
 1726 0128 07       		.uleb128 0x7
 1727 0129 1B010000 		.4byte	0x11b
 1728 012d 08       		.uleb128 0x8
 1729 012e 04       		.byte	0x4
 1730 012f 06       		.byte	0x6
 1731 0130 2A       		.byte	0x2a
 1732 0131 4A010000 		.4byte	0x14a
 1733 0135 09       		.uleb128 0x9
 1734 0136 7800     		.ascii	"x\000"
 1735 0138 06       		.byte	0x6
 1736 0139 2C       		.byte	0x2c
 1737 013a EF000000 		.4byte	0xef
 1738 013e 00       		.byte	0
 1739 013f 09       		.uleb128 0x9
 1740 0140 7900     		.ascii	"y\000"
 1741 0142 06       		.byte	0x6
 1742 0143 2D       		.byte	0x2d
 1743 0144 EF000000 		.4byte	0xef
 1744 0148 02       		.byte	0x2
 1745 0149 00       		.byte	0
 1746 014a 02       		.uleb128 0x2
 1747 014b 36010000 		.4byte	.LASF26
 1748 014f 06       		.byte	0x6
 1749 0150 2E       		.byte	0x2e
 1750 0151 2D010000 		.4byte	0x12d
 1751 0155 08       		.uleb128 0x8
 1752 0156 08       		.byte	0x8
 1753 0157 07       		.byte	0x7
 1754 0158 2E       		.byte	0x2e
 1755 0159 A6010000 		.4byte	0x1a6
 1756 015d 0A       		.uleb128 0xa
 1757 015e 52070000 		.4byte	.LASF27
 1758 0162 07       		.byte	0x7
 1759 0163 30       		.byte	0x30
 1760 0164 CE000000 		.4byte	0xce
 1761 0168 00       		.byte	0
 1762 0169 0A       		.uleb128 0xa
ARM GAS  C:\Users\pearlstl\AppData\Local\Temp\ccILyAHD.s 			page 51


 1763 016a 74050000 		.4byte	.LASF28
 1764 016e 07       		.byte	0x7
 1765 016f 31       		.byte	0x31
 1766 0170 B8000000 		.4byte	0xb8
 1767 0174 02       		.byte	0x2
 1768 0175 0A       		.uleb128 0xa
 1769 0176 0C050000 		.4byte	.LASF29
 1770 017a 07       		.byte	0x7
 1771 017b 32       		.byte	0x32
 1772 017c B8000000 		.4byte	0xb8
 1773 0180 03       		.byte	0x3
 1774 0181 0A       		.uleb128 0xa
 1775 0182 69000000 		.4byte	.LASF30
 1776 0186 07       		.byte	0x7
 1777 0187 33       		.byte	0x33
 1778 0188 AD000000 		.4byte	0xad
 1779 018c 04       		.byte	0x4
 1780 018d 0A       		.uleb128 0xa
 1781 018e 6F000000 		.4byte	.LASF31
 1782 0192 07       		.byte	0x7
 1783 0193 34       		.byte	0x34
 1784 0194 AD000000 		.4byte	0xad
 1785 0198 05       		.byte	0x5
 1786 0199 09       		.uleb128 0x9
 1787 019a 62707000 		.ascii	"bpp\000"
 1788 019e 07       		.byte	0x7
 1789 019f 35       		.byte	0x35
 1790 01a0 B8000000 		.4byte	0xb8
 1791 01a4 06       		.byte	0x6
 1792 01a5 00       		.byte	0
 1793 01a6 02       		.uleb128 0x2
 1794 01a7 50030000 		.4byte	.LASF32
 1795 01ab 07       		.byte	0x7
 1796 01ac 36       		.byte	0x36
 1797 01ad 55010000 		.4byte	0x155
 1798 01b1 0B       		.uleb128 0xb
 1799 01b2 A3020000 		.4byte	.LASF115
 1800 01b6 10       		.byte	0x10
 1801 01b7 07       		.byte	0x7
 1802 01b8 44       		.byte	0x44
 1803 01b9 09020000 		.4byte	0x209
 1804 01bd 0A       		.uleb128 0xa
 1805 01be 28010000 		.4byte	.LASF33
 1806 01c2 07       		.byte	0x7
 1807 01c3 47       		.byte	0x47
 1808 01c4 3F020000 		.4byte	0x23f
 1809 01c8 00       		.byte	0
 1810 01c9 0A       		.uleb128 0xa
 1811 01ca FB050000 		.4byte	.LASF34
 1812 01ce 07       		.byte	0x7
 1813 01cf 4A       		.byte	0x4a
 1814 01d0 64020000 		.4byte	0x264
 1815 01d4 04       		.byte	0x4
 1816 01d5 0A       		.uleb128 0xa
 1817 01d6 D8020000 		.4byte	.LASF35
 1818 01da 07       		.byte	0x7
 1819 01db 4D       		.byte	0x4d
ARM GAS  C:\Users\pearlstl\AppData\Local\Temp\ccILyAHD.s 			page 52


 1820 01dc B8000000 		.4byte	0xb8
 1821 01e0 08       		.byte	0x8
 1822 01e1 0A       		.uleb128 0xa
 1823 01e2 9F050000 		.4byte	.LASF36
 1824 01e6 07       		.byte	0x7
 1825 01e7 4E       		.byte	0x4e
 1826 01e8 AD000000 		.4byte	0xad
 1827 01ec 09       		.byte	0x9
 1828 01ed 0C       		.uleb128 0xc
 1829 01ee 51040000 		.4byte	.LASF116
 1830 01f2 07       		.byte	0x7
 1831 01f3 4F       		.byte	0x4f
 1832 01f4 B8000000 		.4byte	0xb8
 1833 01f8 01       		.byte	0x1
 1834 01f9 02       		.byte	0x2
 1835 01fa 06       		.byte	0x6
 1836 01fb 0A       		.byte	0xa
 1837 01fc 09       		.uleb128 0x9
 1838 01fd 64736300 		.ascii	"dsc\000"
 1839 0201 07       		.byte	0x7
 1840 0202 50       		.byte	0x50
 1841 0203 FA000000 		.4byte	0xfa
 1842 0207 0C       		.byte	0xc
 1843 0208 00       		.byte	0
 1844 0209 0D       		.uleb128 0xd
 1845 020a 27020000 		.4byte	0x227
 1846 020e 27020000 		.4byte	0x227
 1847 0212 0E       		.uleb128 0xe
 1848 0213 2E020000 		.4byte	0x22e
 1849 0217 0E       		.uleb128 0xe
 1850 0218 39020000 		.4byte	0x239
 1851 021c 0E       		.uleb128 0xe
 1852 021d E4000000 		.4byte	0xe4
 1853 0221 0E       		.uleb128 0xe
 1854 0222 E4000000 		.4byte	0xe4
 1855 0226 00       		.byte	0
 1856 0227 03       		.uleb128 0x3
 1857 0228 01       		.byte	0x1
 1858 0229 02       		.byte	0x2
 1859 022a 81020000 		.4byte	.LASF37
 1860 022e 06       		.uleb128 0x6
 1861 022f 04       		.byte	0x4
 1862 0230 34020000 		.4byte	0x234
 1863 0234 07       		.uleb128 0x7
 1864 0235 B1010000 		.4byte	0x1b1
 1865 0239 06       		.uleb128 0x6
 1866 023a 04       		.byte	0x4
 1867 023b A6010000 		.4byte	0x1a6
 1868 023f 06       		.uleb128 0x6
 1869 0240 04       		.byte	0x4
 1870 0241 09020000 		.4byte	0x209
 1871 0245 0D       		.uleb128 0xd
 1872 0246 59020000 		.4byte	0x259
 1873 024a 59020000 		.4byte	0x259
 1874 024e 0E       		.uleb128 0xe
 1875 024f 2E020000 		.4byte	0x22e
 1876 0253 0E       		.uleb128 0xe
ARM GAS  C:\Users\pearlstl\AppData\Local\Temp\ccILyAHD.s 			page 53


 1877 0254 E4000000 		.4byte	0xe4
 1878 0258 00       		.byte	0
 1879 0259 06       		.uleb128 0x6
 1880 025a 04       		.byte	0x4
 1881 025b 5F020000 		.4byte	0x25f
 1882 025f 07       		.uleb128 0x7
 1883 0260 B8000000 		.4byte	0xb8
 1884 0264 06       		.uleb128 0x6
 1885 0265 04       		.byte	0x4
 1886 0266 45020000 		.4byte	0x245
 1887 026a 02       		.uleb128 0x2
 1888 026b 9B040000 		.4byte	.LASF38
 1889 026f 07       		.byte	0x7
 1890 0270 56       		.byte	0x56
 1891 0271 B1010000 		.4byte	0x1b1
 1892 0275 0F       		.uleb128 0xf
 1893 0276 01       		.byte	0x1
 1894 0277 42000000 		.4byte	0x42
 1895 027b 08       		.byte	0x8
 1896 027c 2B       		.byte	0x2b
 1897 027d A0020000 		.4byte	0x2a0
 1898 0281 10       		.uleb128 0x10
 1899 0282 77060000 		.4byte	.LASF39
 1900 0286 00       		.byte	0
 1901 0287 10       		.uleb128 0x10
 1902 0288 95010000 		.4byte	.LASF40
 1903 028c 01       		.byte	0x1
 1904 028d 10       		.uleb128 0x10
 1905 028e 88060000 		.4byte	.LASF41
 1906 0292 02       		.byte	0x2
 1907 0293 10       		.uleb128 0x10
 1908 0294 BE010000 		.4byte	.LASF42
 1909 0298 04       		.byte	0x4
 1910 0299 10       		.uleb128 0x10
 1911 029a 4D020000 		.4byte	.LASF43
 1912 029e 08       		.byte	0x8
 1913 029f 00       		.byte	0
 1914 02a0 02       		.uleb128 0x2
 1915 02a1 47060000 		.4byte	.LASF44
 1916 02a5 08       		.byte	0x8
 1917 02a6 32       		.byte	0x32
 1918 02a7 B8000000 		.4byte	0xb8
 1919 02ab 0F       		.uleb128 0xf
 1920 02ac 01       		.byte	0x1
 1921 02ad 42000000 		.4byte	0x42
 1922 02b1 08       		.byte	0x8
 1923 02b2 36       		.byte	0x36
 1924 02b3 CA020000 		.4byte	0x2ca
 1925 02b7 10       		.uleb128 0x10
 1926 02b8 5E050000 		.4byte	.LASF45
 1927 02bc 00       		.byte	0
 1928 02bd 10       		.uleb128 0x10
 1929 02be D7030000 		.4byte	.LASF46
 1930 02c2 01       		.byte	0x1
 1931 02c3 10       		.uleb128 0x10
 1932 02c4 87020000 		.4byte	.LASF47
 1933 02c8 02       		.byte	0x2
ARM GAS  C:\Users\pearlstl\AppData\Local\Temp\ccILyAHD.s 			page 54


 1934 02c9 00       		.byte	0
 1935 02ca 02       		.uleb128 0x2
 1936 02cb BE020000 		.4byte	.LASF48
 1937 02cf 08       		.byte	0x8
 1938 02d0 3B       		.byte	0x3b
 1939 02d1 B8000000 		.4byte	0xb8
 1940 02d5 11       		.uleb128 0x11
 1941 02d6 1E070000 		.4byte	.LASF51
 1942 02da 07       		.byte	0x7
 1943 02db 7C       		.byte	0x7c
 1944 02dc B8000000 		.4byte	0xb8
 1945 02e0 03       		.byte	0x3
 1946 02e1 F1020000 		.4byte	0x2f1
 1947 02e5 12       		.uleb128 0x12
 1948 02e6 D1020000 		.4byte	.LASF49
 1949 02ea 07       		.byte	0x7
 1950 02eb 7C       		.byte	0x7c
 1951 02ec F1020000 		.4byte	0x2f1
 1952 02f0 00       		.byte	0
 1953 02f1 06       		.uleb128 0x6
 1954 02f2 04       		.byte	0x4
 1955 02f3 F7020000 		.4byte	0x2f7
 1956 02f7 07       		.uleb128 0x7
 1957 02f8 6A020000 		.4byte	0x26a
 1958 02fc 13       		.uleb128 0x13
 1959 02fd 64030000 		.4byte	.LASF117
 1960 0301 01       		.byte	0x1
 1961 0302 8301     		.2byte	0x183
 1962 0304 27020000 		.4byte	0x227
 1963 0308 01       		.byte	0x1
 1964 0309 30030000 		.4byte	0x330
 1965 030d 14       		.uleb128 0x14
 1966 030e 0C060000 		.4byte	.LASF50
 1967 0312 01       		.byte	0x1
 1968 0313 8301     		.2byte	0x183
 1969 0315 30030000 		.4byte	0x330
 1970 0319 15       		.uleb128 0x15
 1971 031a 6300     		.ascii	"c\000"
 1972 031c 01       		.byte	0x1
 1973 031d 8301     		.2byte	0x183
 1974 031f E4000000 		.4byte	0xe4
 1975 0323 16       		.uleb128 0x16
 1976 0324 72657400 		.ascii	"ret\000"
 1977 0328 01       		.byte	0x1
 1978 0329 8501     		.2byte	0x185
 1979 032b 27020000 		.4byte	0x227
 1980 032f 00       		.byte	0
 1981 0330 06       		.uleb128 0x6
 1982 0331 04       		.byte	0x4
 1983 0332 CA020000 		.4byte	0x2ca
 1984 0336 17       		.uleb128 0x17
 1985 0337 6C020000 		.4byte	.LASF52
 1986 033b 01       		.byte	0x1
 1987 033c 3F03     		.2byte	0x33f
 1988 033e 27020000 		.4byte	0x227
 1989 0342 03       		.byte	0x3
 1990 0343 6A030000 		.4byte	0x36a
ARM GAS  C:\Users\pearlstl\AppData\Local\Temp\ccILyAHD.s 			page 55


 1991 0347 14       		.uleb128 0x14
 1992 0348 7A020000 		.4byte	.LASF53
 1993 034c 01       		.byte	0x1
 1994 034d 3F03     		.2byte	0x33f
 1995 034f E4000000 		.4byte	0xe4
 1996 0353 16       		.uleb128 0x16
 1997 0354 6900     		.ascii	"i\000"
 1998 0356 01       		.byte	0x1
 1999 0357 4103     		.2byte	0x341
 2000 0359 B8000000 		.4byte	0xb8
 2001 035d 16       		.uleb128 0x16
 2002 035e 72657400 		.ascii	"ret\000"
 2003 0362 01       		.byte	0x1
 2004 0363 4203     		.2byte	0x342
 2005 0365 27020000 		.4byte	0x227
 2006 0369 00       		.byte	0
 2007 036a 11       		.uleb128 0x11
 2008 036b F1010000 		.4byte	.LASF54
 2009 036f 01       		.byte	0x1
 2010 0370 AB       		.byte	0xab
 2011 0371 CE000000 		.4byte	0xce
 2012 0375 01       		.byte	0x1
 2013 0376 4D040000 		.4byte	0x44d
 2014 037a 18       		.uleb128 0x18
 2015 037b 74787400 		.ascii	"txt\000"
 2016 037f 01       		.byte	0x1
 2017 0380 AB       		.byte	0xab
 2018 0381 22010000 		.4byte	0x122
 2019 0385 12       		.uleb128 0x12
 2020 0386 22050000 		.4byte	.LASF55
 2021 038a 01       		.byte	0x1
 2022 038b AB       		.byte	0xab
 2023 038c F1020000 		.4byte	0x2f1
 2024 0390 12       		.uleb128 0x12
 2025 0391 A5040000 		.4byte	.LASF56
 2026 0395 01       		.byte	0x1
 2027 0396 AC       		.byte	0xac
 2028 0397 EF000000 		.4byte	0xef
 2029 039b 12       		.uleb128 0x12
 2030 039c 9C030000 		.4byte	.LASF57
 2031 03a0 01       		.byte	0x1
 2032 03a1 AC       		.byte	0xac
 2033 03a2 EF000000 		.4byte	0xef
 2034 03a6 12       		.uleb128 0x12
 2035 03a7 F2040000 		.4byte	.LASF58
 2036 03ab 01       		.byte	0x1
 2037 03ac AD       		.byte	0xad
 2038 03ad A0020000 		.4byte	0x2a0
 2039 03b1 12       		.uleb128 0x12
 2040 03b2 1A030000 		.4byte	.LASF59
 2041 03b6 01       		.byte	0x1
 2042 03b7 AD       		.byte	0xad
 2043 03b8 4D040000 		.4byte	0x44d
 2044 03bc 12       		.uleb128 0x12
 2045 03bd 38020000 		.4byte	.LASF60
 2046 03c1 01       		.byte	0x1
 2047 03c2 AD       		.byte	0xad
ARM GAS  C:\Users\pearlstl\AppData\Local\Temp\ccILyAHD.s 			page 56


 2048 03c3 30030000 		.4byte	0x330
 2049 03c7 12       		.uleb128 0x12
 2050 03c8 1D020000 		.4byte	.LASF61
 2051 03cc 01       		.byte	0x1
 2052 03cd AD       		.byte	0xad
 2053 03ce 27020000 		.4byte	0x227
 2054 03d2 19       		.uleb128 0x19
 2055 03d3 6900     		.ascii	"i\000"
 2056 03d5 01       		.byte	0x1
 2057 03d6 B4       		.byte	0xb4
 2058 03d7 E4000000 		.4byte	0xe4
 2059 03db 1A       		.uleb128 0x1a
 2060 03dc 7A030000 		.4byte	.LASF62
 2061 03e0 01       		.byte	0x1
 2062 03e1 B4       		.byte	0xb4
 2063 03e2 E4000000 		.4byte	0xe4
 2064 03e6 1A       		.uleb128 0x1a
 2065 03e7 00000000 		.4byte	.LASF63
 2066 03eb 01       		.byte	0x1
 2067 03ec B4       		.byte	0xb4
 2068 03ed E4000000 		.4byte	0xe4
 2069 03f1 1A       		.uleb128 0x1a
 2070 03f2 7A020000 		.4byte	.LASF53
 2071 03f6 01       		.byte	0x1
 2072 03f7 B5       		.byte	0xb5
 2073 03f8 E4000000 		.4byte	0xe4
 2074 03fc 1A       		.uleb128 0x1a
 2075 03fd B2010000 		.4byte	.LASF64
 2076 0401 01       		.byte	0x1
 2077 0402 B6       		.byte	0xb6
 2078 0403 E4000000 		.4byte	0xe4
 2079 0407 1A       		.uleb128 0x1a
 2080 0408 78010000 		.4byte	.LASF65
 2081 040c 01       		.byte	0x1
 2082 040d B7       		.byte	0xb7
 2083 040e EF000000 		.4byte	0xef
 2084 0412 1A       		.uleb128 0x1a
 2085 0413 D1030000 		.4byte	.LASF66
 2086 0417 01       		.byte	0x1
 2087 0418 B8       		.byte	0xb8
 2088 0419 EF000000 		.4byte	0xef
 2089 041d 1A       		.uleb128 0x1a
 2090 041e 5F010000 		.4byte	.LASF67
 2091 0422 01       		.byte	0x1
 2092 0423 B9       		.byte	0xb9
 2093 0424 E4000000 		.4byte	0xe4
 2094 0428 1A       		.uleb128 0x1a
 2095 0429 C5030000 		.4byte	.LASF68
 2096 042d 01       		.byte	0x1
 2097 042e BA       		.byte	0xba
 2098 042f E4000000 		.4byte	0xe4
 2099 0433 1A       		.uleb128 0x1a
 2100 0434 A9050000 		.4byte	.LASF69
 2101 0438 01       		.byte	0x1
 2102 0439 BB       		.byte	0xbb
 2103 043a E4000000 		.4byte	0xe4
 2104 043e 1B       		.uleb128 0x1b
ARM GAS  C:\Users\pearlstl\AppData\Local\Temp\ccILyAHD.s 			page 57


 2105 043f 1C       		.uleb128 0x1c
 2106 0440 1B040000 		.4byte	.LASF70
 2107 0444 01       		.byte	0x1
 2108 0445 0701     		.2byte	0x107
 2109 0447 D9000000 		.4byte	0xd9
 2110 044b 00       		.byte	0
 2111 044c 00       		.byte	0
 2112 044d 06       		.uleb128 0x6
 2113 044e 04       		.byte	0x4
 2114 044f E4000000 		.4byte	0xe4
 2115 0453 1D       		.uleb128 0x1d
 2116 0454 35030000 		.4byte	.LASF71
 2117 0458 01       		.byte	0x1
 2118 0459 CD02     		.2byte	0x2cd
 2119 045b B8000000 		.4byte	0xb8
 2120 045f 00000000 		.4byte	.LFB11
 2121 0463 04000000 		.4byte	.LFE11-.LFB11
 2122 0467 01       		.uleb128 0x1
 2123 0468 9C       		.byte	0x9c
 2124 0469 7E040000 		.4byte	0x47e
 2125 046d 1E       		.uleb128 0x1e
 2126 046e 73747200 		.ascii	"str\000"
 2127 0472 01       		.byte	0x1
 2128 0473 CD02     		.2byte	0x2cd
 2129 0475 22010000 		.4byte	0x122
 2130 0479 00000000 		.4byte	.LLST0
 2131 047d 00       		.byte	0
 2132 047e 1D       		.uleb128 0x1d
 2133 047f 36070000 		.4byte	.LASF72
 2134 0483 01       		.byte	0x1
 2135 0484 D802     		.2byte	0x2d8
 2136 0486 E4000000 		.4byte	0xe4
 2137 048a 00000000 		.4byte	.LFB12
 2138 048e 08000000 		.4byte	.LFE12-.LFB12
 2139 0492 01       		.uleb128 0x1
 2140 0493 9C       		.byte	0x9c
 2141 0494 A9040000 		.4byte	0x4a9
 2142 0498 1F       		.uleb128 0x1f
 2143 0499 10040000 		.4byte	.LASF73
 2144 049d 01       		.byte	0x1
 2145 049e D802     		.2byte	0x2d8
 2146 04a0 E4000000 		.4byte	0xe4
 2147 04a4 21000000 		.4byte	.LLST1
 2148 04a8 00       		.byte	0
 2149 04a9 1D       		.uleb128 0x1d
 2150 04aa 3C000000 		.4byte	.LASF74
 2151 04ae 01       		.byte	0x1
 2152 04af E602     		.2byte	0x2e6
 2153 04b1 E4000000 		.4byte	0xe4
 2154 04b5 00000000 		.4byte	.LFB13
 2155 04b9 02000000 		.4byte	.LFE13-.LFB13
 2156 04bd 01       		.uleb128 0x1
 2157 04be 9C       		.byte	0x9c
 2158 04bf D0040000 		.4byte	0x4d0
 2159 04c3 20       		.uleb128 0x20
 2160 04c4 6300     		.ascii	"c\000"
 2161 04c6 01       		.byte	0x1
ARM GAS  C:\Users\pearlstl\AppData\Local\Temp\ccILyAHD.s 			page 58


 2162 04c7 E602     		.2byte	0x2e6
 2163 04c9 E4000000 		.4byte	0xe4
 2164 04cd 01       		.uleb128 0x1
 2165 04ce 50       		.byte	0x50
 2166 04cf 00       		.byte	0
 2167 04d0 1D       		.uleb128 0x1d
 2168 04d1 DA050000 		.4byte	.LASF75
 2169 04d5 01       		.byte	0x1
 2170 04d6 F302     		.2byte	0x2f3
 2171 04d8 E4000000 		.4byte	0xe4
 2172 04dc 00000000 		.4byte	.LFB14
 2173 04e0 10000000 		.4byte	.LFE14-.LFB14
 2174 04e4 01       		.uleb128 0x1
 2175 04e5 9C       		.byte	0x9c
 2176 04e6 17050000 		.4byte	0x517
 2177 04ea 1E       		.uleb128 0x1e
 2178 04eb 74787400 		.ascii	"txt\000"
 2179 04ef 01       		.byte	0x1
 2180 04f0 F302     		.2byte	0x2f3
 2181 04f2 22010000 		.4byte	0x122
 2182 04f6 42000000 		.4byte	.LLST2
 2183 04fa 20       		.uleb128 0x20
 2184 04fb 6900     		.ascii	"i\000"
 2185 04fd 01       		.byte	0x1
 2186 04fe F302     		.2byte	0x2f3
 2187 0500 4D040000 		.4byte	0x44d
 2188 0504 01       		.uleb128 0x1
 2189 0505 51       		.byte	0x51
 2190 0506 21       		.uleb128 0x21
 2191 0507 7A020000 		.4byte	.LASF53
 2192 050b 01       		.byte	0x1
 2193 050c F702     		.2byte	0x2f7
 2194 050e B8000000 		.4byte	0xb8
 2195 0512 7C000000 		.4byte	.LLST3
 2196 0516 00       		.byte	0
 2197 0517 1D       		.uleb128 0x1d
 2198 0518 1A060000 		.4byte	.LASF76
 2199 051c 01       		.byte	0x1
 2200 051d 0203     		.2byte	0x302
 2201 051f E4000000 		.4byte	0xe4
 2202 0523 00000000 		.4byte	.LFB15
 2203 0527 12000000 		.4byte	.LFE15-.LFB15
 2204 052b 01       		.uleb128 0x1
 2205 052c 9C       		.byte	0x9c
 2206 052d 5E050000 		.4byte	0x55e
 2207 0531 1E       		.uleb128 0x1e
 2208 0532 74787400 		.ascii	"txt\000"
 2209 0536 01       		.byte	0x1
 2210 0537 0203     		.2byte	0x302
 2211 0539 22010000 		.4byte	0x122
 2212 053d 8F000000 		.4byte	.LLST4
 2213 0541 20       		.uleb128 0x20
 2214 0542 6900     		.ascii	"i\000"
 2215 0544 01       		.byte	0x1
 2216 0545 0203     		.2byte	0x302
 2217 0547 4D040000 		.4byte	0x44d
 2218 054b 01       		.uleb128 0x1
ARM GAS  C:\Users\pearlstl\AppData\Local\Temp\ccILyAHD.s 			page 59


 2219 054c 51       		.byte	0x51
 2220 054d 21       		.uleb128 0x21
 2221 054e 7A020000 		.4byte	.LASF53
 2222 0552 01       		.byte	0x1
 2223 0553 0703     		.2byte	0x307
 2224 0555 B8000000 		.4byte	0xb8
 2225 0559 C9000000 		.4byte	.LLST5
 2226 055d 00       		.byte	0
 2227 055e 17       		.uleb128 0x17
 2228 055f 7A050000 		.4byte	.LASF77
 2229 0563 01       		.byte	0x1
 2230 0564 2003     		.2byte	0x320
 2231 0566 E4000000 		.4byte	0xe4
 2232 056a 01       		.byte	0x1
 2233 056b 88050000 		.4byte	0x588
 2234 056f 15       		.uleb128 0x15
 2235 0570 74787400 		.ascii	"txt\000"
 2236 0574 01       		.byte	0x1
 2237 0575 2003     		.2byte	0x320
 2238 0577 22010000 		.4byte	0x122
 2239 057b 14       		.uleb128 0x14
 2240 057c 12060000 		.4byte	.LASF78
 2241 0580 01       		.byte	0x1
 2242 0581 2003     		.2byte	0x320
 2243 0583 E4000000 		.4byte	0xe4
 2244 0587 00       		.byte	0
 2245 0588 22       		.uleb128 0x22
 2246 0589 5E050000 		.4byte	0x55e
 2247 058d 00000000 		.4byte	.LFB17
 2248 0591 04000000 		.4byte	.LFE17-.LFB17
 2249 0595 01       		.uleb128 0x1
 2250 0596 9C       		.byte	0x9c
 2251 0597 AC050000 		.4byte	0x5ac
 2252 059b 23       		.uleb128 0x23
 2253 059c 6F050000 		.4byte	0x56f
 2254 05a0 EB000000 		.4byte	.LLST6
 2255 05a4 24       		.uleb128 0x24
 2256 05a5 7B050000 		.4byte	0x57b
 2257 05a9 01       		.uleb128 0x1
 2258 05aa 51       		.byte	0x51
 2259 05ab 00       		.byte	0
 2260 05ac 1D       		.uleb128 0x1d
 2261 05ad 42050000 		.4byte	.LASF79
 2262 05b1 01       		.byte	0x1
 2263 05b2 2C03     		.2byte	0x32c
 2264 05b4 E4000000 		.4byte	0xe4
 2265 05b8 00000000 		.4byte	.LFB18
 2266 05bc 04000000 		.4byte	.LFE18-.LFB18
 2267 05c0 01       		.uleb128 0x1
 2268 05c1 9C       		.byte	0x9c
 2269 05c2 E8050000 		.4byte	0x5e8
 2270 05c6 1E       		.uleb128 0x1e
 2271 05c7 74787400 		.ascii	"txt\000"
 2272 05cb 01       		.byte	0x1
 2273 05cc 2C03     		.2byte	0x32c
 2274 05ce 22010000 		.4byte	0x122
 2275 05d2 0C010000 		.4byte	.LLST7
ARM GAS  C:\Users\pearlstl\AppData\Local\Temp\ccILyAHD.s 			page 60


 2276 05d6 25       		.uleb128 0x25
 2277 05d7 04000000 		.4byte	.LVL17
 2278 05db 630D0000 		.4byte	0xd63
 2279 05df 26       		.uleb128 0x26
 2280 05e0 01       		.uleb128 0x1
 2281 05e1 50       		.byte	0x50
 2282 05e2 03       		.uleb128 0x3
 2283 05e3 F3       		.byte	0xf3
 2284 05e4 01       		.uleb128 0x1
 2285 05e5 50       		.byte	0x50
 2286 05e6 00       		.byte	0
 2287 05e7 00       		.byte	0
 2288 05e8 27       		.uleb128 0x27
 2289 05e9 23020000 		.4byte	.LASF82
 2290 05ed 01       		.byte	0x1
 2291 05ee 2401     		.2byte	0x124
 2292 05f0 CE000000 		.4byte	0xce
 2293 05f4 00000000 		.4byte	.LFB6
 2294 05f8 74020000 		.4byte	.LFE6-.LFB6
 2295 05fc 01       		.uleb128 0x1
 2296 05fd 9C       		.byte	0x9c
 2297 05fe 49080000 		.4byte	0x849
 2298 0602 1E       		.uleb128 0x1e
 2299 0603 74787400 		.ascii	"txt\000"
 2300 0607 01       		.byte	0x1
 2301 0608 2401     		.2byte	0x124
 2302 060a 22010000 		.4byte	0x122
 2303 060e 2D010000 		.4byte	.LLST8
 2304 0612 1F       		.uleb128 0x1f
 2305 0613 22050000 		.4byte	.LASF55
 2306 0617 01       		.byte	0x1
 2307 0618 2401     		.2byte	0x124
 2308 061a F1020000 		.4byte	0x2f1
 2309 061e 7B010000 		.4byte	.LLST9
 2310 0622 1F       		.uleb128 0x1f
 2311 0623 A5040000 		.4byte	.LASF56
 2312 0627 01       		.byte	0x1
 2313 0628 2501     		.2byte	0x125
 2314 062a EF000000 		.4byte	0xef
 2315 062e A6010000 		.4byte	.LLST10
 2316 0632 1F       		.uleb128 0x1f
 2317 0633 9C030000 		.4byte	.LASF57
 2318 0637 01       		.byte	0x1
 2319 0638 2501     		.2byte	0x125
 2320 063a EF000000 		.4byte	0xef
 2321 063e D2010000 		.4byte	.LLST11
 2322 0642 1F       		.uleb128 0x1f
 2323 0643 F2040000 		.4byte	.LASF58
 2324 0647 01       		.byte	0x1
 2325 0648 2501     		.2byte	0x125
 2326 064a A0020000 		.4byte	0x2a0
 2327 064e 28020000 		.4byte	.LLST12
 2328 0652 21       		.uleb128 0x21
 2329 0653 38020000 		.4byte	.LASF60
 2330 0657 01       		.byte	0x1
 2331 0658 2B01     		.2byte	0x12b
 2332 065a CA020000 		.4byte	0x2ca
ARM GAS  C:\Users\pearlstl\AppData\Local\Temp\ccILyAHD.s 			page 61


 2333 065e 54020000 		.4byte	.LLST13
 2334 0662 28       		.uleb128 0x28
 2335 0663 6900     		.ascii	"i\000"
 2336 0665 01       		.byte	0x1
 2337 0666 2C01     		.2byte	0x12c
 2338 0668 E4000000 		.4byte	0xe4
 2339 066c 02       		.uleb128 0x2
 2340 066d 91       		.byte	0x91
 2341 066e 48       		.sleb128 -56
 2342 066f 29       		.uleb128 0x29
 2343 0670 00000000 		.4byte	.Ldebug_ranges0+0
 2344 0674 34080000 		.4byte	0x834
 2345 0678 21       		.uleb128 0x21
 2346 0679 B2040000 		.4byte	.LASF80
 2347 067d 01       		.byte	0x1
 2348 067e 2F01     		.2byte	0x12f
 2349 0680 E4000000 		.4byte	0xe4
 2350 0684 CE020000 		.4byte	.LLST14
 2351 0688 21       		.uleb128 0x21
 2352 0689 E1010000 		.4byte	.LASF81
 2353 068d 01       		.byte	0x1
 2354 068e 3001     		.2byte	0x130
 2355 0690 E4000000 		.4byte	0xe4
 2356 0694 3A030000 		.4byte	.LLST15
 2357 0698 2A       		.uleb128 0x2a
 2358 0699 6A030000 		.4byte	0x36a
 2359 069d 46000000 		.4byte	.LBB26
 2360 06a1 38000000 		.4byte	.Ldebug_ranges0+0x38
 2361 06a5 01       		.byte	0x1
 2362 06a6 3001     		.2byte	0x130
 2363 06a8 1F080000 		.4byte	0x81f
 2364 06ac 23       		.uleb128 0x23
 2365 06ad C7030000 		.4byte	0x3c7
 2366 06b1 4D030000 		.4byte	.LLST16
 2367 06b5 23       		.uleb128 0x23
 2368 06b6 BC030000 		.4byte	0x3bc
 2369 06ba 65030000 		.4byte	.LLST17
 2370 06be 23       		.uleb128 0x23
 2371 06bf B1030000 		.4byte	0x3b1
 2372 06c3 AD030000 		.4byte	.LLST18
 2373 06c7 23       		.uleb128 0x23
 2374 06c8 A6030000 		.4byte	0x3a6
 2375 06cc F5030000 		.4byte	.LLST19
 2376 06d0 23       		.uleb128 0x23
 2377 06d1 9B030000 		.4byte	0x39b
 2378 06d5 2D040000 		.4byte	.LLST20
 2379 06d9 2B       		.uleb128 0x2b
 2380 06da 90030000 		.4byte	0x390
 2381 06de 2B       		.uleb128 0x2b
 2382 06df 85030000 		.4byte	0x385
 2383 06e3 23       		.uleb128 0x23
 2384 06e4 7A030000 		.4byte	0x37a
 2385 06e8 76040000 		.4byte	.LLST21
 2386 06ec 2C       		.uleb128 0x2c
 2387 06ed 38000000 		.4byte	.Ldebug_ranges0+0x38
 2388 06f1 2D       		.uleb128 0x2d
 2389 06f2 D2030000 		.4byte	0x3d2
ARM GAS  C:\Users\pearlstl\AppData\Local\Temp\ccILyAHD.s 			page 62


 2390 06f6 02       		.uleb128 0x2
 2391 06f7 91       		.byte	0x91
 2392 06f8 4C       		.sleb128 -52
 2393 06f9 2D       		.uleb128 0x2d
 2394 06fa DB030000 		.4byte	0x3db
 2395 06fe 02       		.uleb128 0x2
 2396 06ff 91       		.byte	0x91
 2397 0700 50       		.sleb128 -48
 2398 0701 2D       		.uleb128 0x2d
 2399 0702 E6030000 		.4byte	0x3e6
 2400 0706 02       		.uleb128 0x2
 2401 0707 91       		.byte	0x91
 2402 0708 54       		.sleb128 -44
 2403 0709 2E       		.uleb128 0x2e
 2404 070a F1030000 		.4byte	0x3f1
 2405 070e BE040000 		.4byte	.LLST22
 2406 0712 2E       		.uleb128 0x2e
 2407 0713 FC030000 		.4byte	0x3fc
 2408 0717 40050000 		.4byte	.LLST23
 2409 071b 2E       		.uleb128 0x2e
 2410 071c 07040000 		.4byte	0x407
 2411 0720 B7050000 		.4byte	.LLST24
 2412 0724 2E       		.uleb128 0x2e
 2413 0725 12040000 		.4byte	0x412
 2414 0729 D5050000 		.4byte	.LLST25
 2415 072d 2E       		.uleb128 0x2e
 2416 072e 1D040000 		.4byte	0x41d
 2417 0732 20060000 		.4byte	.LLST26
 2418 0736 2E       		.uleb128 0x2e
 2419 0737 28040000 		.4byte	0x428
 2420 073b F9060000 		.4byte	.LLST27
 2421 073f 2E       		.uleb128 0x2e
 2422 0740 33040000 		.4byte	0x433
 2423 0744 85070000 		.4byte	.LLST28
 2424 0748 2F       		.uleb128 0x2f
 2425 0749 FC020000 		.4byte	0x2fc
 2426 074d BE000000 		.4byte	.LBB28
 2427 0751 78000000 		.4byte	.Ldebug_ranges0+0x78
 2428 0755 01       		.byte	0x1
 2429 0756 C7       		.byte	0xc7
 2430 0757 7D070000 		.4byte	0x77d
 2431 075b 23       		.uleb128 0x23
 2432 075c 19030000 		.4byte	0x319
 2433 0760 A4070000 		.4byte	.LLST29
 2434 0764 23       		.uleb128 0x23
 2435 0765 0D030000 		.4byte	0x30d
 2436 0769 E3070000 		.4byte	.LLST30
 2437 076d 2C       		.uleb128 0x2c
 2438 076e 78000000 		.4byte	.Ldebug_ranges0+0x78
 2439 0772 2E       		.uleb128 0x2e
 2440 0773 23030000 		.4byte	0x323
 2441 0777 3B080000 		.4byte	.LLST31
 2442 077b 00       		.byte	0
 2443 077c 00       		.byte	0
 2444 077d 2F       		.uleb128 0x2f
 2445 077e 36030000 		.4byte	0x336
 2446 0782 F6000000 		.4byte	.LBB33
ARM GAS  C:\Users\pearlstl\AppData\Local\Temp\ccILyAHD.s 			page 63


 2447 0786 A0000000 		.4byte	.Ldebug_ranges0+0xa0
 2448 078a 01       		.byte	0x1
 2449 078b DE       		.byte	0xde
 2450 078c AA070000 		.4byte	0x7aa
 2451 0790 2B       		.uleb128 0x2b
 2452 0791 47030000 		.4byte	0x347
 2453 0795 2C       		.uleb128 0x2c
 2454 0796 A0000000 		.4byte	.Ldebug_ranges0+0xa0
 2455 079a 2E       		.uleb128 0x2e
 2456 079b 53030000 		.4byte	0x353
 2457 079f 73080000 		.4byte	.LLST32
 2458 07a3 30       		.uleb128 0x30
 2459 07a4 5D030000 		.4byte	0x35d
 2460 07a8 00       		.byte	0
 2461 07a9 00       		.byte	0
 2462 07aa 31       		.uleb128 0x31
 2463 07ab 88010000 		.4byte	.LBB40
 2464 07af 22000000 		.4byte	.LBE40-.LBB40
 2465 07b3 D3070000 		.4byte	0x7d3
 2466 07b7 2E       		.uleb128 0x2e
 2467 07b8 3F040000 		.4byte	0x43f
 2468 07bc 9D080000 		.4byte	.LLST33
 2469 07c0 32       		.uleb128 0x32
 2470 07c1 A2010000 		.4byte	.LVL64
 2471 07c5 26       		.uleb128 0x26
 2472 07c6 01       		.uleb128 0x1
 2473 07c7 50       		.byte	0x50
 2474 07c8 02       		.uleb128 0x2
 2475 07c9 77       		.byte	0x77
 2476 07ca 00       		.sleb128 0
 2477 07cb 26       		.uleb128 0x26
 2478 07cc 01       		.uleb128 0x1
 2479 07cd 51       		.byte	0x51
 2480 07ce 02       		.uleb128 0x2
 2481 07cf 91       		.byte	0x91
 2482 07d0 4C       		.sleb128 -52
 2483 07d1 00       		.byte	0
 2484 07d2 00       		.byte	0
 2485 07d3 33       		.uleb128 0x33
 2486 07d4 8C000000 		.4byte	.LVL28
 2487 07d8 E9070000 		.4byte	0x7e9
 2488 07dc 26       		.uleb128 0x26
 2489 07dd 01       		.uleb128 0x1
 2490 07de 50       		.byte	0x50
 2491 07df 02       		.uleb128 0x2
 2492 07e0 77       		.byte	0x77
 2493 07e1 00       		.sleb128 0
 2494 07e2 26       		.uleb128 0x26
 2495 07e3 01       		.uleb128 0x1
 2496 07e4 51       		.byte	0x51
 2497 07e5 02       		.uleb128 0x2
 2498 07e6 91       		.byte	0x91
 2499 07e7 50       		.sleb128 -48
 2500 07e8 00       		.byte	0
 2501 07e9 33       		.uleb128 0x33
 2502 07ea B4000000 		.4byte	.LVL32
 2503 07ee FF070000 		.4byte	0x7ff
ARM GAS  C:\Users\pearlstl\AppData\Local\Temp\ccILyAHD.s 			page 64


 2504 07f2 26       		.uleb128 0x26
 2505 07f3 01       		.uleb128 0x1
 2506 07f4 50       		.byte	0x50
 2507 07f5 02       		.uleb128 0x2
 2508 07f6 77       		.byte	0x77
 2509 07f7 00       		.sleb128 0
 2510 07f8 26       		.uleb128 0x26
 2511 07f9 01       		.uleb128 0x1
 2512 07fa 51       		.byte	0x51
 2513 07fb 02       		.uleb128 0x2
 2514 07fc 91       		.byte	0x91
 2515 07fd 54       		.sleb128 -44
 2516 07fe 00       		.byte	0
 2517 07ff 34       		.uleb128 0x34
 2518 0800 D4000000 		.4byte	.LVL39
 2519 0804 6E0D0000 		.4byte	0xd6e
 2520 0808 26       		.uleb128 0x26
 2521 0809 01       		.uleb128 0x1
 2522 080a 50       		.byte	0x50
 2523 080b 04       		.uleb128 0x4
 2524 080c 91       		.byte	0x91
 2525 080d A87F     		.sleb128 -88
 2526 080f 06       		.byte	0x6
 2527 0810 26       		.uleb128 0x26
 2528 0811 01       		.uleb128 0x1
 2529 0812 51       		.byte	0x51
 2530 0813 02       		.uleb128 0x2
 2531 0814 74       		.byte	0x74
 2532 0815 00       		.sleb128 0
 2533 0816 26       		.uleb128 0x26
 2534 0817 01       		.uleb128 0x1
 2535 0818 52       		.byte	0x52
 2536 0819 02       		.uleb128 0x2
 2537 081a 76       		.byte	0x76
 2538 081b 00       		.sleb128 0
 2539 081c 00       		.byte	0
 2540 081d 00       		.byte	0
 2541 081e 00       		.byte	0
 2542 081f 32       		.uleb128 0x32
 2543 0820 EC010000 		.4byte	.LVL77
 2544 0824 26       		.uleb128 0x26
 2545 0825 01       		.uleb128 0x1
 2546 0826 50       		.byte	0x50
 2547 0827 04       		.uleb128 0x4
 2548 0828 91       		.byte	0x91
 2549 0829 BC7F     		.sleb128 -68
 2550 082b 06       		.byte	0x6
 2551 082c 26       		.uleb128 0x26
 2552 082d 01       		.uleb128 0x1
 2553 082e 51       		.byte	0x51
 2554 082f 02       		.uleb128 0x2
 2555 0830 91       		.byte	0x91
 2556 0831 48       		.sleb128 -56
 2557 0832 00       		.byte	0
 2558 0833 00       		.byte	0
 2559 0834 32       		.uleb128 0x32
 2560 0835 00020000 		.4byte	.LVL78
ARM GAS  C:\Users\pearlstl\AppData\Local\Temp\ccILyAHD.s 			page 65


 2561 0839 26       		.uleb128 0x26
 2562 083a 01       		.uleb128 0x1
 2563 083b 50       		.byte	0x50
 2564 083c 04       		.uleb128 0x4
 2565 083d 91       		.byte	0x91
 2566 083e BC7F     		.sleb128 -68
 2567 0840 06       		.byte	0x6
 2568 0841 26       		.uleb128 0x26
 2569 0842 01       		.uleb128 0x1
 2570 0843 51       		.byte	0x51
 2571 0844 02       		.uleb128 0x2
 2572 0845 91       		.byte	0x91
 2573 0846 48       		.sleb128 -56
 2574 0847 00       		.byte	0
 2575 0848 00       		.byte	0
 2576 0849 27       		.uleb128 0x27
 2577 084a B4030000 		.4byte	.LASF83
 2578 084e 01       		.byte	0x1
 2579 084f 5501     		.2byte	0x155
 2580 0851 EF000000 		.4byte	0xef
 2581 0855 00000000 		.4byte	.LFB7
 2582 0859 F8000000 		.4byte	.LFE7-.LFB7
 2583 085d 01       		.uleb128 0x1
 2584 085e 9C       		.byte	0x9c
 2585 085f C7090000 		.4byte	0x9c7
 2586 0863 1E       		.uleb128 0x1e
 2587 0864 74787400 		.ascii	"txt\000"
 2588 0868 01       		.byte	0x1
 2589 0869 5501     		.2byte	0x155
 2590 086b 22010000 		.4byte	0x122
 2591 086f D3080000 		.4byte	.LLST34
 2592 0873 1F       		.uleb128 0x1f
 2593 0874 EB040000 		.4byte	.LASF84
 2594 0878 01       		.byte	0x1
 2595 0879 5501     		.2byte	0x155
 2596 087b CE000000 		.4byte	0xce
 2597 087f 20090000 		.4byte	.LLST35
 2598 0883 1F       		.uleb128 0x1f
 2599 0884 22050000 		.4byte	.LASF55
 2600 0888 01       		.byte	0x1
 2601 0889 5501     		.2byte	0x155
 2602 088b F1020000 		.4byte	0x2f1
 2603 088f 5A090000 		.4byte	.LLST36
 2604 0893 1F       		.uleb128 0x1f
 2605 0894 A5040000 		.4byte	.LASF56
 2606 0898 01       		.byte	0x1
 2607 0899 5501     		.2byte	0x155
 2608 089b EF000000 		.4byte	0xef
 2609 089f 8E090000 		.4byte	.LLST37
 2610 08a3 1F       		.uleb128 0x1f
 2611 08a4 F2040000 		.4byte	.LASF58
 2612 08a8 01       		.byte	0x1
 2613 08a9 5601     		.2byte	0x156
 2614 08ab A0020000 		.4byte	0x2a0
 2615 08af C8090000 		.4byte	.LLST38
 2616 08b3 28       		.uleb128 0x28
 2617 08b4 6900     		.ascii	"i\000"
ARM GAS  C:\Users\pearlstl\AppData\Local\Temp\ccILyAHD.s 			page 66


 2618 08b6 01       		.byte	0x1
 2619 08b7 5B01     		.2byte	0x15b
 2620 08b9 E4000000 		.4byte	0xe4
 2621 08bd 02       		.uleb128 0x2
 2622 08be 91       		.byte	0x91
 2623 08bf 54       		.sleb128 -44
 2624 08c0 21       		.uleb128 0x21
 2625 08c1 66020000 		.4byte	.LASF85
 2626 08c5 01       		.byte	0x1
 2627 08c6 5C01     		.2byte	0x15c
 2628 08c8 EF000000 		.4byte	0xef
 2629 08cc E8090000 		.4byte	.LLST39
 2630 08d0 21       		.uleb128 0x21
 2631 08d1 38020000 		.4byte	.LASF60
 2632 08d5 01       		.byte	0x1
 2633 08d6 5D01     		.2byte	0x15d
 2634 08d8 CA020000 		.4byte	0x2ca
 2635 08dc 5F0A0000 		.4byte	.LLST40
 2636 08e0 21       		.uleb128 0x21
 2637 08e1 7A020000 		.4byte	.LASF53
 2638 08e5 01       		.byte	0x1
 2639 08e6 5E01     		.2byte	0x15e
 2640 08e8 E4000000 		.4byte	0xe4
 2641 08ec B80A0000 		.4byte	.LLST41
 2642 08f0 21       		.uleb128 0x21
 2643 08f1 B2010000 		.4byte	.LASF64
 2644 08f5 01       		.byte	0x1
 2645 08f6 5F01     		.2byte	0x15f
 2646 08f8 E4000000 		.4byte	0xe4
 2647 08fc 020B0000 		.4byte	.LLST42
 2648 0900 2C       		.uleb128 0x2c
 2649 0901 C0000000 		.4byte	.Ldebug_ranges0+0xc0
 2650 0905 21       		.uleb128 0x21
 2651 0906 90040000 		.4byte	.LASF86
 2652 090a 01       		.byte	0x1
 2653 090b 6B01     		.2byte	0x16b
 2654 090d EF000000 		.4byte	0xef
 2655 0911 4C0B0000 		.4byte	.LLST43
 2656 0915 2A       		.uleb128 0x2a
 2657 0916 FC020000 		.4byte	0x2fc
 2658 091a 36000000 		.4byte	.LBB61
 2659 091e F0000000 		.4byte	.Ldebug_ranges0+0xf0
 2660 0922 01       		.byte	0x1
 2661 0923 6601     		.2byte	0x166
 2662 0925 4B090000 		.4byte	0x94b
 2663 0929 23       		.uleb128 0x23
 2664 092a 19030000 		.4byte	0x319
 2665 092e 6A0B0000 		.4byte	.LLST44
 2666 0932 23       		.uleb128 0x23
 2667 0933 0D030000 		.4byte	0x30d
 2668 0937 9E0B0000 		.4byte	.LLST45
 2669 093b 2C       		.uleb128 0x2c
 2670 093c F0000000 		.4byte	.Ldebug_ranges0+0xf0
 2671 0940 2E       		.uleb128 0x2e
 2672 0941 23030000 		.4byte	0x323
 2673 0945 E60B0000 		.4byte	.LLST46
 2674 0949 00       		.byte	0
ARM GAS  C:\Users\pearlstl\AppData\Local\Temp\ccILyAHD.s 			page 67


 2675 094a 00       		.byte	0
 2676 094b 35       		.uleb128 0x35
 2677 094c 46000000 		.4byte	.LVL97
 2678 0950 6E0D0000 		.4byte	0xd6e
 2679 0954 65090000 		.4byte	0x965
 2680 0958 26       		.uleb128 0x26
 2681 0959 01       		.uleb128 0x1
 2682 095a 50       		.byte	0x50
 2683 095b 02       		.uleb128 0x2
 2684 095c 79       		.byte	0x79
 2685 095d 00       		.sleb128 0
 2686 095e 26       		.uleb128 0x26
 2687 095f 01       		.uleb128 0x1
 2688 0960 51       		.byte	0x51
 2689 0961 02       		.uleb128 0x2
 2690 0962 7A       		.byte	0x7a
 2691 0963 00       		.sleb128 0
 2692 0964 00       		.byte	0
 2693 0965 33       		.uleb128 0x33
 2694 0966 62000000 		.4byte	.LVL102
 2695 096a 7B090000 		.4byte	0x97b
 2696 096e 26       		.uleb128 0x26
 2697 096f 01       		.uleb128 0x1
 2698 0970 50       		.byte	0x50
 2699 0971 02       		.uleb128 0x2
 2700 0972 75       		.byte	0x75
 2701 0973 00       		.sleb128 0
 2702 0974 26       		.uleb128 0x26
 2703 0975 01       		.uleb128 0x1
 2704 0976 51       		.byte	0x51
 2705 0977 02       		.uleb128 0x2
 2706 0978 7B       		.byte	0x7b
 2707 0979 00       		.sleb128 0
 2708 097a 00       		.byte	0
 2709 097b 33       		.uleb128 0x33
 2710 097c 6E000000 		.4byte	.LVL105
 2711 0980 8A090000 		.4byte	0x98a
 2712 0984 26       		.uleb128 0x26
 2713 0985 01       		.uleb128 0x1
 2714 0986 51       		.byte	0x51
 2715 0987 01       		.uleb128 0x1
 2716 0988 30       		.byte	0x30
 2717 0989 00       		.byte	0
 2718 098a 33       		.uleb128 0x33
 2719 098b A0000000 		.4byte	.LVL111
 2720 098f A0090000 		.4byte	0x9a0
 2721 0993 26       		.uleb128 0x26
 2722 0994 01       		.uleb128 0x1
 2723 0995 50       		.byte	0x50
 2724 0996 02       		.uleb128 0x2
 2725 0997 75       		.byte	0x75
 2726 0998 00       		.sleb128 0
 2727 0999 26       		.uleb128 0x26
 2728 099a 01       		.uleb128 0x1
 2729 099b 51       		.byte	0x51
 2730 099c 02       		.uleb128 0x2
 2731 099d 7B       		.byte	0x7b
ARM GAS  C:\Users\pearlstl\AppData\Local\Temp\ccILyAHD.s 			page 68


 2732 099e 00       		.sleb128 0
 2733 099f 00       		.byte	0
 2734 09a0 33       		.uleb128 0x33
 2735 09a1 AC000000 		.4byte	.LVL114
 2736 09a5 AF090000 		.4byte	0x9af
 2737 09a9 26       		.uleb128 0x26
 2738 09aa 01       		.uleb128 0x1
 2739 09ab 51       		.byte	0x51
 2740 09ac 01       		.uleb128 0x1
 2741 09ad 30       		.byte	0x30
 2742 09ae 00       		.byte	0
 2743 09af 34       		.uleb128 0x34
 2744 09b0 B6000000 		.4byte	.LVL116
 2745 09b4 6E0D0000 		.4byte	0xd6e
 2746 09b8 26       		.uleb128 0x26
 2747 09b9 01       		.uleb128 0x1
 2748 09ba 50       		.byte	0x50
 2749 09bb 02       		.uleb128 0x2
 2750 09bc 79       		.byte	0x79
 2751 09bd 00       		.sleb128 0
 2752 09be 26       		.uleb128 0x26
 2753 09bf 01       		.uleb128 0x1
 2754 09c0 51       		.byte	0x51
 2755 09c1 02       		.uleb128 0x2
 2756 09c2 78       		.byte	0x78
 2757 09c3 00       		.sleb128 0
 2758 09c4 00       		.byte	0
 2759 09c5 00       		.byte	0
 2760 09c6 00       		.byte	0
 2761 09c7 36       		.uleb128 0x36
 2762 09c8 68010000 		.4byte	.LASF94
 2763 09cc 01       		.byte	0x1
 2764 09cd 5D       		.byte	0x5d
 2765 09ce 00000000 		.4byte	.LFB4
 2766 09d2 F4000000 		.4byte	.LFE4-.LFB4
 2767 09d6 01       		.uleb128 0x1
 2768 09d7 9C       		.byte	0x9c
 2769 09d8 BE0A0000 		.4byte	0xabe
 2770 09dc 37       		.uleb128 0x37
 2771 09dd A9010000 		.4byte	.LASF87
 2772 09e1 01       		.byte	0x1
 2773 09e2 5D       		.byte	0x5d
 2774 09e3 BE0A0000 		.4byte	0xabe
 2775 09e7 1E0C0000 		.4byte	.LLST47
 2776 09eb 37       		.uleb128 0x37
 2777 09ec 4B030000 		.4byte	.LASF88
 2778 09f0 01       		.byte	0x1
 2779 09f1 5D       		.byte	0x5d
 2780 09f2 22010000 		.4byte	0x122
 2781 09f6 550C0000 		.4byte	.LLST48
 2782 09fa 37       		.uleb128 0x37
 2783 09fb 22050000 		.4byte	.LASF55
 2784 09ff 01       		.byte	0x1
 2785 0a00 5D       		.byte	0x5d
 2786 0a01 F1020000 		.4byte	0x2f1
 2787 0a05 A50C0000 		.4byte	.LLST49
 2788 0a09 37       		.uleb128 0x37
ARM GAS  C:\Users\pearlstl\AppData\Local\Temp\ccILyAHD.s 			page 69


 2789 0a0a A5040000 		.4byte	.LASF56
 2790 0a0e 01       		.byte	0x1
 2791 0a0f 5D       		.byte	0x5d
 2792 0a10 EF000000 		.4byte	0xef
 2793 0a14 EF0C0000 		.4byte	.LLST50
 2794 0a18 37       		.uleb128 0x37
 2795 0a19 B3020000 		.4byte	.LASF89
 2796 0a1d 01       		.byte	0x1
 2797 0a1e 5E       		.byte	0x5e
 2798 0a1f EF000000 		.4byte	0xef
 2799 0a23 100D0000 		.4byte	.LLST51
 2800 0a27 37       		.uleb128 0x37
 2801 0a28 9C030000 		.4byte	.LASF57
 2802 0a2c 01       		.byte	0x1
 2803 0a2d 5E       		.byte	0x5e
 2804 0a2e EF000000 		.4byte	0xef
 2805 0a32 300D0000 		.4byte	.LLST52
 2806 0a36 37       		.uleb128 0x37
 2807 0a37 F2040000 		.4byte	.LASF58
 2808 0a3b 01       		.byte	0x1
 2809 0a3c 5E       		.byte	0x5e
 2810 0a3d A0020000 		.4byte	0x2a0
 2811 0a41 5A0D0000 		.4byte	.LLST53
 2812 0a45 38       		.uleb128 0x38
 2813 0a46 C3040000 		.4byte	.LASF90
 2814 0a4a 01       		.byte	0x1
 2815 0a4b 68       		.byte	0x68
 2816 0a4c E4000000 		.4byte	0xe4
 2817 0a50 7A0D0000 		.4byte	.LLST54
 2818 0a54 38       		.uleb128 0x38
 2819 0a55 58070000 		.4byte	.LASF91
 2820 0a59 01       		.byte	0x1
 2821 0a5a 69       		.byte	0x69
 2822 0a5b E4000000 		.4byte	0xe4
 2823 0a5f A40D0000 		.4byte	.LLST55
 2824 0a63 38       		.uleb128 0x38
 2825 0a64 12050000 		.4byte	.LASF92
 2826 0a68 01       		.byte	0x1
 2827 0a69 6A       		.byte	0x6a
 2828 0a6a EF000000 		.4byte	0xef
 2829 0a6e CE0D0000 		.4byte	.LLST56
 2830 0a72 1A       		.uleb128 0x1a
 2831 0a73 2E000000 		.4byte	.LASF93
 2832 0a77 01       		.byte	0x1
 2833 0a78 6B       		.byte	0x6b
 2834 0a79 B8000000 		.4byte	0xb8
 2835 0a7d 35       		.uleb128 0x35
 2836 0a7e 62000000 		.4byte	.LVL133
 2837 0a82 49080000 		.4byte	0x849
 2838 0a86 920A0000 		.4byte	0xa92
 2839 0a8a 26       		.uleb128 0x26
 2840 0a8b 02       		.uleb128 0x2
 2841 0a8c 7D       		.byte	0x7d
 2842 0a8d 00       		.sleb128 0
 2843 0a8e 02       		.uleb128 0x2
 2844 0a8f 74       		.byte	0x74
 2845 0a90 00       		.sleb128 0
ARM GAS  C:\Users\pearlstl\AppData\Local\Temp\ccILyAHD.s 			page 70


 2846 0a91 00       		.byte	0
 2847 0a92 34       		.uleb128 0x34
 2848 0a93 88000000 		.4byte	.LVL137
 2849 0a97 E8050000 		.4byte	0x5e8
 2850 0a9b 26       		.uleb128 0x26
 2851 0a9c 01       		.uleb128 0x1
 2852 0a9d 50       		.byte	0x50
 2853 0a9e 02       		.uleb128 0x2
 2854 0a9f 74       		.byte	0x74
 2855 0aa0 00       		.sleb128 0
 2856 0aa1 26       		.uleb128 0x26
 2857 0aa2 01       		.uleb128 0x1
 2858 0aa3 51       		.byte	0x51
 2859 0aa4 02       		.uleb128 0x2
 2860 0aa5 78       		.byte	0x78
 2861 0aa6 00       		.sleb128 0
 2862 0aa7 26       		.uleb128 0x26
 2863 0aa8 01       		.uleb128 0x1
 2864 0aa9 52       		.byte	0x52
 2865 0aaa 02       		.uleb128 0x2
 2866 0aab 79       		.byte	0x79
 2867 0aac 00       		.sleb128 0
 2868 0aad 26       		.uleb128 0x26
 2869 0aae 01       		.uleb128 0x1
 2870 0aaf 53       		.byte	0x53
 2871 0ab0 02       		.uleb128 0x2
 2872 0ab1 7B       		.byte	0x7b
 2873 0ab2 00       		.sleb128 0
 2874 0ab3 26       		.uleb128 0x26
 2875 0ab4 02       		.uleb128 0x2
 2876 0ab5 7D       		.byte	0x7d
 2877 0ab6 00       		.sleb128 0
 2878 0ab7 04       		.uleb128 0x4
 2879 0ab8 91       		.byte	0x91
 2880 0ab9 44       		.sleb128 -60
 2881 0aba 94       		.byte	0x94
 2882 0abb 01       		.byte	0x1
 2883 0abc 00       		.byte	0
 2884 0abd 00       		.byte	0
 2885 0abe 06       		.uleb128 0x6
 2886 0abf 04       		.byte	0x4
 2887 0ac0 4A010000 		.4byte	0x14a
 2888 0ac4 22       		.uleb128 0x22
 2889 0ac5 FC020000 		.4byte	0x2fc
 2890 0ac9 00000000 		.4byte	.LFB8
 2891 0acd 40000000 		.4byte	.LFE8-.LFB8
 2892 0ad1 01       		.uleb128 0x1
 2893 0ad2 9C       		.byte	0x9c
 2894 0ad3 F30A0000 		.4byte	0xaf3
 2895 0ad7 23       		.uleb128 0x23
 2896 0ad8 0D030000 		.4byte	0x30d
 2897 0adc E10D0000 		.4byte	.LLST57
 2898 0ae0 23       		.uleb128 0x23
 2899 0ae1 19030000 		.4byte	0x319
 2900 0ae5 570E0000 		.4byte	.LLST58
 2901 0ae9 2E       		.uleb128 0x2e
 2902 0aea 23030000 		.4byte	0x323
ARM GAS  C:\Users\pearlstl\AppData\Local\Temp\ccILyAHD.s 			page 71


 2903 0aee 830E0000 		.4byte	.LLST59
 2904 0af2 00       		.byte	0
 2905 0af3 39       		.uleb128 0x39
 2906 0af4 3C060000 		.4byte	.LASF95
 2907 0af8 01       		.byte	0x1
 2908 0af9 A901     		.2byte	0x1a9
 2909 0afb 00000000 		.4byte	.LFB9
 2910 0aff 54000000 		.4byte	.LFE9-.LFB9
 2911 0b03 01       		.uleb128 0x1
 2912 0b04 9C       		.byte	0x9c
 2913 0b05 C70B0000 		.4byte	0xbc7
 2914 0b09 1F       		.uleb128 0x1f
 2915 0b0a C4050000 		.4byte	.LASF96
 2916 0b0e 01       		.byte	0x1
 2917 0b0f A901     		.2byte	0x1a9
 2918 0b11 15010000 		.4byte	0x115
 2919 0b15 DE0E0000 		.4byte	.LLST60
 2920 0b19 1E       		.uleb128 0x1e
 2921 0b1a 706F7300 		.ascii	"pos\000"
 2922 0b1e 01       		.byte	0x1
 2923 0b1f A901     		.2byte	0x1a9
 2924 0b21 E4000000 		.4byte	0xe4
 2925 0b25 0A0F0000 		.4byte	.LLST61
 2926 0b29 1F       		.uleb128 0x1f
 2927 0b2a 9B020000 		.4byte	.LASF97
 2928 0b2e 01       		.byte	0x1
 2929 0b2f A901     		.2byte	0x1a9
 2930 0b31 22010000 		.4byte	0x122
 2931 0b35 330F0000 		.4byte	.LLST62
 2932 0b39 21       		.uleb128 0x21
 2933 0b3a 26000000 		.4byte	.LASF98
 2934 0b3e 01       		.byte	0x1
 2935 0b3f AB01     		.2byte	0x1ab
 2936 0b41 FC000000 		.4byte	0xfc
 2937 0b45 6A0F0000 		.4byte	.LLST63
 2938 0b49 21       		.uleb128 0x21
 2939 0b4a 6F060000 		.4byte	.LASF99
 2940 0b4e 01       		.byte	0x1
 2941 0b4f AC01     		.2byte	0x1ac
 2942 0b51 FC000000 		.4byte	0xfc
 2943 0b55 880F0000 		.4byte	.LLST64
 2944 0b59 21       		.uleb128 0x21
 2945 0b5a BC050000 		.4byte	.LASF100
 2946 0b5e 01       		.byte	0x1
 2947 0b5f AD01     		.2byte	0x1ad
 2948 0b61 FC000000 		.4byte	0xfc
 2949 0b65 B10F0000 		.4byte	.LLST65
 2950 0b69 3A       		.uleb128 0x3a
 2951 0b6a 6900     		.ascii	"i\000"
 2952 0b6c 01       		.byte	0x1
 2953 0b6d B101     		.2byte	0x1b1
 2954 0b6f FC000000 		.4byte	0xfc
 2955 0b73 C40F0000 		.4byte	.LLST66
 2956 0b77 35       		.uleb128 0x35
 2957 0b78 0E000000 		.4byte	.LVL157
 2958 0b7c 630D0000 		.4byte	0xd63
 2959 0b80 8B0B0000 		.4byte	0xb8b
ARM GAS  C:\Users\pearlstl\AppData\Local\Temp\ccILyAHD.s 			page 72


 2960 0b84 26       		.uleb128 0x26
 2961 0b85 01       		.uleb128 0x1
 2962 0b86 50       		.byte	0x50
 2963 0b87 02       		.uleb128 0x2
 2964 0b88 77       		.byte	0x77
 2965 0b89 00       		.sleb128 0
 2966 0b8a 00       		.byte	0
 2967 0b8b 35       		.uleb128 0x35
 2968 0b8c 16000000 		.4byte	.LVL160
 2969 0b90 630D0000 		.4byte	0xd63
 2970 0b94 9F0B0000 		.4byte	0xb9f
 2971 0b98 26       		.uleb128 0x26
 2972 0b99 01       		.uleb128 0x1
 2973 0b9a 50       		.byte	0x50
 2974 0b9b 02       		.uleb128 0x2
 2975 0b9c 78       		.byte	0x78
 2976 0b9d 00       		.sleb128 0
 2977 0b9e 00       		.byte	0
 2978 0b9f 33       		.uleb128 0x33
 2979 0ba0 22000000 		.4byte	.LVL163
 2980 0ba4 B50B0000 		.4byte	0xbb5
 2981 0ba8 26       		.uleb128 0x26
 2982 0ba9 01       		.uleb128 0x1
 2983 0baa 50       		.byte	0x50
 2984 0bab 02       		.uleb128 0x2
 2985 0bac 77       		.byte	0x77
 2986 0bad 00       		.sleb128 0
 2987 0bae 26       		.uleb128 0x26
 2988 0baf 01       		.uleb128 0x1
 2989 0bb0 51       		.byte	0x51
 2990 0bb1 02       		.uleb128 0x2
 2991 0bb2 75       		.byte	0x75
 2992 0bb3 00       		.sleb128 0
 2993 0bb4 00       		.byte	0
 2994 0bb5 25       		.uleb128 0x25
 2995 0bb6 4E000000 		.4byte	.LVL169
 2996 0bba 790D0000 		.4byte	0xd79
 2997 0bbe 26       		.uleb128 0x26
 2998 0bbf 01       		.uleb128 0x1
 2999 0bc0 51       		.byte	0x51
 3000 0bc1 03       		.uleb128 0x3
 3001 0bc2 F3       		.byte	0xf3
 3002 0bc3 01       		.uleb128 0x1
 3003 0bc4 52       		.byte	0x52
 3004 0bc5 00       		.byte	0
 3005 0bc6 00       		.byte	0
 3006 0bc7 39       		.uleb128 0x39
 3007 0bc8 2A030000 		.4byte	.LASF101
 3008 0bcc 01       		.byte	0x1
 3009 0bcd C101     		.2byte	0x1c1
 3010 0bcf 00000000 		.4byte	.LFB10
 3011 0bd3 50000000 		.4byte	.LFE10-.LFB10
 3012 0bd7 01       		.uleb128 0x1
 3013 0bd8 9C       		.byte	0x9c
 3014 0bd9 680C0000 		.4byte	0xc68
 3015 0bdd 1E       		.uleb128 0x1e
 3016 0bde 74787400 		.ascii	"txt\000"
ARM GAS  C:\Users\pearlstl\AppData\Local\Temp\ccILyAHD.s 			page 73


 3017 0be2 01       		.byte	0x1
 3018 0be3 C101     		.2byte	0x1c1
 3019 0be5 15010000 		.4byte	0x115
 3020 0be9 D70F0000 		.4byte	.LLST67
 3021 0bed 1E       		.uleb128 0x1e
 3022 0bee 706F7300 		.ascii	"pos\000"
 3023 0bf2 01       		.byte	0x1
 3024 0bf3 C101     		.2byte	0x1c1
 3025 0bf5 E4000000 		.4byte	0xe4
 3026 0bf9 03100000 		.4byte	.LLST68
 3027 0bfd 1E       		.uleb128 0x1e
 3028 0bfe 6C656E00 		.ascii	"len\000"
 3029 0c02 01       		.byte	0x1
 3030 0c03 C101     		.2byte	0x1c1
 3031 0c05 E4000000 		.4byte	0xe4
 3032 0c09 37100000 		.4byte	.LLST69
 3033 0c0d 21       		.uleb128 0x21
 3034 0c0e 26000000 		.4byte	.LASF98
 3035 0c12 01       		.byte	0x1
 3036 0c13 C401     		.2byte	0x1c4
 3037 0c15 FC000000 		.4byte	0xfc
 3038 0c19 60100000 		.4byte	.LLST70
 3039 0c1d 3A       		.uleb128 0x3a
 3040 0c1e 6900     		.ascii	"i\000"
 3041 0c20 01       		.byte	0x1
 3042 0c21 CA01     		.2byte	0x1ca
 3043 0c23 E4000000 		.4byte	0xe4
 3044 0c27 7E100000 		.4byte	.LLST71
 3045 0c2b 35       		.uleb128 0x35
 3046 0c2c 0E000000 		.4byte	.LVL171
 3047 0c30 630D0000 		.4byte	0xd63
 3048 0c34 3F0C0000 		.4byte	0xc3f
 3049 0c38 26       		.uleb128 0x26
 3050 0c39 01       		.uleb128 0x1
 3051 0c3a 50       		.byte	0x50
 3052 0c3b 02       		.uleb128 0x2
 3053 0c3c 77       		.byte	0x77
 3054 0c3d 00       		.sleb128 0
 3055 0c3e 00       		.byte	0
 3056 0c3f 33       		.uleb128 0x33
 3057 0c40 1E000000 		.4byte	.LVL174
 3058 0c44 550C0000 		.4byte	0xc55
 3059 0c48 26       		.uleb128 0x26
 3060 0c49 01       		.uleb128 0x1
 3061 0c4a 50       		.byte	0x50
 3062 0c4b 02       		.uleb128 0x2
 3063 0c4c 77       		.byte	0x77
 3064 0c4d 00       		.sleb128 0
 3065 0c4e 26       		.uleb128 0x26
 3066 0c4f 01       		.uleb128 0x1
 3067 0c50 51       		.byte	0x51
 3068 0c51 02       		.uleb128 0x2
 3069 0c52 74       		.byte	0x74
 3070 0c53 00       		.sleb128 0
 3071 0c54 00       		.byte	0
 3072 0c55 32       		.uleb128 0x32
 3073 0c56 2C000000 		.4byte	.LVL177
ARM GAS  C:\Users\pearlstl\AppData\Local\Temp\ccILyAHD.s 			page 74


 3074 0c5a 26       		.uleb128 0x26
 3075 0c5b 01       		.uleb128 0x1
 3076 0c5c 50       		.byte	0x50
 3077 0c5d 02       		.uleb128 0x2
 3078 0c5e 75       		.byte	0x75
 3079 0c5f 00       		.sleb128 0
 3080 0c60 26       		.uleb128 0x26
 3081 0c61 01       		.uleb128 0x1
 3082 0c62 51       		.byte	0x51
 3083 0c63 02       		.uleb128 0x2
 3084 0c64 79       		.byte	0x79
 3085 0c65 00       		.sleb128 0
 3086 0c66 00       		.byte	0
 3087 0c67 00       		.byte	0
 3088 0c68 0D       		.uleb128 0xd
 3089 0c69 B8000000 		.4byte	0xb8
 3090 0c6d 770C0000 		.4byte	0xc77
 3091 0c71 0E       		.uleb128 0xe
 3092 0c72 22010000 		.4byte	0x122
 3093 0c76 00       		.byte	0
 3094 0c77 3B       		.uleb128 0x3b
 3095 0c78 D7040000 		.4byte	.LASF102
 3096 0c7c 01       		.byte	0x1
 3097 0c7d 3F       		.byte	0x3f
 3098 0c7e 880C0000 		.4byte	0xc88
 3099 0c82 05       		.uleb128 0x5
 3100 0c83 03       		.byte	0x3
 3101 0c84 00000000 		.4byte	lv_txt_encoded_size
 3102 0c88 06       		.uleb128 0x6
 3103 0c89 04       		.byte	0x4
 3104 0c8a 680C0000 		.4byte	0xc68
 3105 0c8e 0D       		.uleb128 0xd
 3106 0c8f E4000000 		.4byte	0xe4
 3107 0c93 9D0C0000 		.4byte	0xc9d
 3108 0c97 0E       		.uleb128 0xe
 3109 0c98 E4000000 		.4byte	0xe4
 3110 0c9c 00       		.byte	0
 3111 0c9d 3B       		.uleb128 0x3b
 3112 0c9e 0C000000 		.4byte	.LASF103
 3113 0ca2 01       		.byte	0x1
 3114 0ca3 40       		.byte	0x40
 3115 0ca4 AE0C0000 		.4byte	0xcae
 3116 0ca8 05       		.uleb128 0x5
 3117 0ca9 03       		.byte	0x3
 3118 0caa 00000000 		.4byte	lv_txt_unicode_to_encoded
 3119 0cae 06       		.uleb128 0x6
 3120 0caf 04       		.byte	0x4
 3121 0cb0 8E0C0000 		.4byte	0xc8e
 3122 0cb4 3B       		.uleb128 0x3b
 3123 0cb5 22040000 		.4byte	.LASF104
 3124 0cb9 01       		.byte	0x1
 3125 0cba 41       		.byte	0x41
 3126 0cbb AE0C0000 		.4byte	0xcae
 3127 0cbf 05       		.uleb128 0x5
 3128 0cc0 03       		.byte	0x3
 3129 0cc1 00000000 		.4byte	lv_txt_encoded_conv_wc
 3130 0cc5 0D       		.uleb128 0xd
ARM GAS  C:\Users\pearlstl\AppData\Local\Temp\ccILyAHD.s 			page 75


 3131 0cc6 E4000000 		.4byte	0xe4
 3132 0cca D90C0000 		.4byte	0xcd9
 3133 0cce 0E       		.uleb128 0xe
 3134 0ccf 22010000 		.4byte	0x122
 3135 0cd3 0E       		.uleb128 0xe
 3136 0cd4 4D040000 		.4byte	0x44d
 3137 0cd8 00       		.byte	0
 3138 0cd9 3B       		.uleb128 0x3b
 3139 0cda 4B010000 		.4byte	.LASF105
 3140 0cde 01       		.byte	0x1
 3141 0cdf 42       		.byte	0x42
 3142 0ce0 EA0C0000 		.4byte	0xcea
 3143 0ce4 05       		.uleb128 0x5
 3144 0ce5 03       		.byte	0x3
 3145 0ce6 00000000 		.4byte	lv_txt_encoded_next
 3146 0cea 06       		.uleb128 0x6
 3147 0ceb 04       		.byte	0x4
 3148 0cec C50C0000 		.4byte	0xcc5
 3149 0cf0 3B       		.uleb128 0x3b
 3150 0cf1 81010000 		.4byte	.LASF106
 3151 0cf5 01       		.byte	0x1
 3152 0cf6 43       		.byte	0x43
 3153 0cf7 EA0C0000 		.4byte	0xcea
 3154 0cfb 05       		.uleb128 0x5
 3155 0cfc 03       		.byte	0x3
 3156 0cfd 00000000 		.4byte	lv_txt_encoded_prev
 3157 0d01 0D       		.uleb128 0xd
 3158 0d02 E4000000 		.4byte	0xe4
 3159 0d06 150D0000 		.4byte	0xd15
 3160 0d0a 0E       		.uleb128 0xe
 3161 0d0b 22010000 		.4byte	0x122
 3162 0d0f 0E       		.uleb128 0xe
 3163 0d10 E4000000 		.4byte	0xe4
 3164 0d14 00       		.byte	0
 3165 0d15 3B       		.uleb128 0x3b
 3166 0d16 81030000 		.4byte	.LASF107
 3167 0d1a 01       		.byte	0x1
 3168 0d1b 44       		.byte	0x44
 3169 0d1c 260D0000 		.4byte	0xd26
 3170 0d20 05       		.uleb128 0x5
 3171 0d21 03       		.byte	0x3
 3172 0d22 00000000 		.4byte	lv_txt_encoded_get_byte_id
 3173 0d26 06       		.uleb128 0x6
 3174 0d27 04       		.byte	0x4
 3175 0d28 010D0000 		.4byte	0xd01
 3176 0d2c 3B       		.uleb128 0x3b
 3177 0d2d 60040000 		.4byte	.LASF108
 3178 0d31 01       		.byte	0x1
 3179 0d32 45       		.byte	0x45
 3180 0d33 260D0000 		.4byte	0xd26
 3181 0d37 05       		.uleb128 0x5
 3182 0d38 03       		.byte	0x3
 3183 0d39 00000000 		.4byte	lv_txt_encoded_get_char_id
 3184 0d3d 0D       		.uleb128 0xd
 3185 0d3e E4000000 		.4byte	0xe4
 3186 0d42 4C0D0000 		.4byte	0xd4c
 3187 0d46 0E       		.uleb128 0xe
ARM GAS  C:\Users\pearlstl\AppData\Local\Temp\ccILyAHD.s 			page 76


 3188 0d47 22010000 		.4byte	0x122
 3189 0d4b 00       		.byte	0
 3190 0d4c 3B       		.uleb128 0x3b
 3191 0d4d F6030000 		.4byte	.LASF109
 3192 0d51 01       		.byte	0x1
 3193 0d52 46       		.byte	0x46
 3194 0d53 5D0D0000 		.4byte	0xd5d
 3195 0d57 05       		.uleb128 0x5
 3196 0d58 03       		.byte	0x3
 3197 0d59 00000000 		.4byte	lv_txt_get_encoded_length
 3198 0d5d 06       		.uleb128 0x6
 3199 0d5e 04       		.byte	0x4
 3200 0d5f 3D0D0000 		.4byte	0xd3d
 3201 0d63 3C       		.uleb128 0x3c
 3202 0d64 55000000 		.4byte	.LASF110
 3203 0d68 55000000 		.4byte	.LASF110
 3204 0d6c 09       		.byte	0x9
 3205 0d6d 21       		.byte	0x21
 3206 0d6e 3C       		.uleb128 0x3c
 3207 0d6f 39040000 		.4byte	.LASF111
 3208 0d73 39040000 		.4byte	.LASF111
 3209 0d77 07       		.byte	0x7
 3210 0d78 75       		.byte	0x75
 3211 0d79 3D       		.uleb128 0x3d
 3212 0d7a 68060000 		.4byte	.LASF118
 3213 0d7e 68060000 		.4byte	.LASF118
 3214 0d82 00       		.byte	0
 3215              		.section	.debug_abbrev,"",%progbits
 3216              	.Ldebug_abbrev0:
 3217 0000 01       		.uleb128 0x1
 3218 0001 11       		.uleb128 0x11
 3219 0002 01       		.byte	0x1
 3220 0003 25       		.uleb128 0x25
 3221 0004 0E       		.uleb128 0xe
 3222 0005 13       		.uleb128 0x13
 3223 0006 0B       		.uleb128 0xb
 3224 0007 03       		.uleb128 0x3
 3225 0008 0E       		.uleb128 0xe
 3226 0009 1B       		.uleb128 0x1b
 3227 000a 0E       		.uleb128 0xe
 3228 000b 55       		.uleb128 0x55
 3229 000c 17       		.uleb128 0x17
 3230 000d 11       		.uleb128 0x11
 3231 000e 01       		.uleb128 0x1
 3232 000f 10       		.uleb128 0x10
 3233 0010 17       		.uleb128 0x17
 3234 0011 00       		.byte	0
 3235 0012 00       		.byte	0
 3236 0013 02       		.uleb128 0x2
 3237 0014 16       		.uleb128 0x16
 3238 0015 00       		.byte	0
 3239 0016 03       		.uleb128 0x3
 3240 0017 0E       		.uleb128 0xe
 3241 0018 3A       		.uleb128 0x3a
 3242 0019 0B       		.uleb128 0xb
 3243 001a 3B       		.uleb128 0x3b
 3244 001b 0B       		.uleb128 0xb
ARM GAS  C:\Users\pearlstl\AppData\Local\Temp\ccILyAHD.s 			page 77


 3245 001c 49       		.uleb128 0x49
 3246 001d 13       		.uleb128 0x13
 3247 001e 00       		.byte	0
 3248 001f 00       		.byte	0
 3249 0020 03       		.uleb128 0x3
 3250 0021 24       		.uleb128 0x24
 3251 0022 00       		.byte	0
 3252 0023 0B       		.uleb128 0xb
 3253 0024 0B       		.uleb128 0xb
 3254 0025 3E       		.uleb128 0x3e
 3255 0026 0B       		.uleb128 0xb
 3256 0027 03       		.uleb128 0x3
 3257 0028 0E       		.uleb128 0xe
 3258 0029 00       		.byte	0
 3259 002a 00       		.byte	0
 3260 002b 04       		.uleb128 0x4
 3261 002c 24       		.uleb128 0x24
 3262 002d 00       		.byte	0
 3263 002e 0B       		.uleb128 0xb
 3264 002f 0B       		.uleb128 0xb
 3265 0030 3E       		.uleb128 0x3e
 3266 0031 0B       		.uleb128 0xb
 3267 0032 03       		.uleb128 0x3
 3268 0033 08       		.uleb128 0x8
 3269 0034 00       		.byte	0
 3270 0035 00       		.byte	0
 3271 0036 05       		.uleb128 0x5
 3272 0037 0F       		.uleb128 0xf
 3273 0038 00       		.byte	0
 3274 0039 0B       		.uleb128 0xb
 3275 003a 0B       		.uleb128 0xb
 3276 003b 00       		.byte	0
 3277 003c 00       		.byte	0
 3278 003d 06       		.uleb128 0x6
 3279 003e 0F       		.uleb128 0xf
 3280 003f 00       		.byte	0
 3281 0040 0B       		.uleb128 0xb
 3282 0041 0B       		.uleb128 0xb
 3283 0042 49       		.uleb128 0x49
 3284 0043 13       		.uleb128 0x13
 3285 0044 00       		.byte	0
 3286 0045 00       		.byte	0
 3287 0046 07       		.uleb128 0x7
 3288 0047 26       		.uleb128 0x26
 3289 0048 00       		.byte	0
 3290 0049 49       		.uleb128 0x49
 3291 004a 13       		.uleb128 0x13
 3292 004b 00       		.byte	0
 3293 004c 00       		.byte	0
 3294 004d 08       		.uleb128 0x8
 3295 004e 13       		.uleb128 0x13
 3296 004f 01       		.byte	0x1
 3297 0050 0B       		.uleb128 0xb
 3298 0051 0B       		.uleb128 0xb
 3299 0052 3A       		.uleb128 0x3a
 3300 0053 0B       		.uleb128 0xb
 3301 0054 3B       		.uleb128 0x3b
ARM GAS  C:\Users\pearlstl\AppData\Local\Temp\ccILyAHD.s 			page 78


 3302 0055 0B       		.uleb128 0xb
 3303 0056 01       		.uleb128 0x1
 3304 0057 13       		.uleb128 0x13
 3305 0058 00       		.byte	0
 3306 0059 00       		.byte	0
 3307 005a 09       		.uleb128 0x9
 3308 005b 0D       		.uleb128 0xd
 3309 005c 00       		.byte	0
 3310 005d 03       		.uleb128 0x3
 3311 005e 08       		.uleb128 0x8
 3312 005f 3A       		.uleb128 0x3a
 3313 0060 0B       		.uleb128 0xb
 3314 0061 3B       		.uleb128 0x3b
 3315 0062 0B       		.uleb128 0xb
 3316 0063 49       		.uleb128 0x49
 3317 0064 13       		.uleb128 0x13
 3318 0065 38       		.uleb128 0x38
 3319 0066 0B       		.uleb128 0xb
 3320 0067 00       		.byte	0
 3321 0068 00       		.byte	0
 3322 0069 0A       		.uleb128 0xa
 3323 006a 0D       		.uleb128 0xd
 3324 006b 00       		.byte	0
 3325 006c 03       		.uleb128 0x3
 3326 006d 0E       		.uleb128 0xe
 3327 006e 3A       		.uleb128 0x3a
 3328 006f 0B       		.uleb128 0xb
 3329 0070 3B       		.uleb128 0x3b
 3330 0071 0B       		.uleb128 0xb
 3331 0072 49       		.uleb128 0x49
 3332 0073 13       		.uleb128 0x13
 3333 0074 38       		.uleb128 0x38
 3334 0075 0B       		.uleb128 0xb
 3335 0076 00       		.byte	0
 3336 0077 00       		.byte	0
 3337 0078 0B       		.uleb128 0xb
 3338 0079 13       		.uleb128 0x13
 3339 007a 01       		.byte	0x1
 3340 007b 03       		.uleb128 0x3
 3341 007c 0E       		.uleb128 0xe
 3342 007d 0B       		.uleb128 0xb
 3343 007e 0B       		.uleb128 0xb
 3344 007f 3A       		.uleb128 0x3a
 3345 0080 0B       		.uleb128 0xb
 3346 0081 3B       		.uleb128 0x3b
 3347 0082 0B       		.uleb128 0xb
 3348 0083 01       		.uleb128 0x1
 3349 0084 13       		.uleb128 0x13
 3350 0085 00       		.byte	0
 3351 0086 00       		.byte	0
 3352 0087 0C       		.uleb128 0xc
 3353 0088 0D       		.uleb128 0xd
 3354 0089 00       		.byte	0
 3355 008a 03       		.uleb128 0x3
 3356 008b 0E       		.uleb128 0xe
 3357 008c 3A       		.uleb128 0x3a
 3358 008d 0B       		.uleb128 0xb
ARM GAS  C:\Users\pearlstl\AppData\Local\Temp\ccILyAHD.s 			page 79


 3359 008e 3B       		.uleb128 0x3b
 3360 008f 0B       		.uleb128 0xb
 3361 0090 49       		.uleb128 0x49
 3362 0091 13       		.uleb128 0x13
 3363 0092 0B       		.uleb128 0xb
 3364 0093 0B       		.uleb128 0xb
 3365 0094 0D       		.uleb128 0xd
 3366 0095 0B       		.uleb128 0xb
 3367 0096 0C       		.uleb128 0xc
 3368 0097 0B       		.uleb128 0xb
 3369 0098 38       		.uleb128 0x38
 3370 0099 0B       		.uleb128 0xb
 3371 009a 00       		.byte	0
 3372 009b 00       		.byte	0
 3373 009c 0D       		.uleb128 0xd
 3374 009d 15       		.uleb128 0x15
 3375 009e 01       		.byte	0x1
 3376 009f 27       		.uleb128 0x27
 3377 00a0 19       		.uleb128 0x19
 3378 00a1 49       		.uleb128 0x49
 3379 00a2 13       		.uleb128 0x13
 3380 00a3 01       		.uleb128 0x1
 3381 00a4 13       		.uleb128 0x13
 3382 00a5 00       		.byte	0
 3383 00a6 00       		.byte	0
 3384 00a7 0E       		.uleb128 0xe
 3385 00a8 05       		.uleb128 0x5
 3386 00a9 00       		.byte	0
 3387 00aa 49       		.uleb128 0x49
 3388 00ab 13       		.uleb128 0x13
 3389 00ac 00       		.byte	0
 3390 00ad 00       		.byte	0
 3391 00ae 0F       		.uleb128 0xf
 3392 00af 04       		.uleb128 0x4
 3393 00b0 01       		.byte	0x1
 3394 00b1 0B       		.uleb128 0xb
 3395 00b2 0B       		.uleb128 0xb
 3396 00b3 49       		.uleb128 0x49
 3397 00b4 13       		.uleb128 0x13
 3398 00b5 3A       		.uleb128 0x3a
 3399 00b6 0B       		.uleb128 0xb
 3400 00b7 3B       		.uleb128 0x3b
 3401 00b8 0B       		.uleb128 0xb
 3402 00b9 01       		.uleb128 0x1
 3403 00ba 13       		.uleb128 0x13
 3404 00bb 00       		.byte	0
 3405 00bc 00       		.byte	0
 3406 00bd 10       		.uleb128 0x10
 3407 00be 28       		.uleb128 0x28
 3408 00bf 00       		.byte	0
 3409 00c0 03       		.uleb128 0x3
 3410 00c1 0E       		.uleb128 0xe
 3411 00c2 1C       		.uleb128 0x1c
 3412 00c3 0B       		.uleb128 0xb
 3413 00c4 00       		.byte	0
 3414 00c5 00       		.byte	0
 3415 00c6 11       		.uleb128 0x11
ARM GAS  C:\Users\pearlstl\AppData\Local\Temp\ccILyAHD.s 			page 80


 3416 00c7 2E       		.uleb128 0x2e
 3417 00c8 01       		.byte	0x1
 3418 00c9 03       		.uleb128 0x3
 3419 00ca 0E       		.uleb128 0xe
 3420 00cb 3A       		.uleb128 0x3a
 3421 00cc 0B       		.uleb128 0xb
 3422 00cd 3B       		.uleb128 0x3b
 3423 00ce 0B       		.uleb128 0xb
 3424 00cf 27       		.uleb128 0x27
 3425 00d0 19       		.uleb128 0x19
 3426 00d1 49       		.uleb128 0x49
 3427 00d2 13       		.uleb128 0x13
 3428 00d3 20       		.uleb128 0x20
 3429 00d4 0B       		.uleb128 0xb
 3430 00d5 01       		.uleb128 0x1
 3431 00d6 13       		.uleb128 0x13
 3432 00d7 00       		.byte	0
 3433 00d8 00       		.byte	0
 3434 00d9 12       		.uleb128 0x12
 3435 00da 05       		.uleb128 0x5
 3436 00db 00       		.byte	0
 3437 00dc 03       		.uleb128 0x3
 3438 00dd 0E       		.uleb128 0xe
 3439 00de 3A       		.uleb128 0x3a
 3440 00df 0B       		.uleb128 0xb
 3441 00e0 3B       		.uleb128 0x3b
 3442 00e1 0B       		.uleb128 0xb
 3443 00e2 49       		.uleb128 0x49
 3444 00e3 13       		.uleb128 0x13
 3445 00e4 00       		.byte	0
 3446 00e5 00       		.byte	0
 3447 00e6 13       		.uleb128 0x13
 3448 00e7 2E       		.uleb128 0x2e
 3449 00e8 01       		.byte	0x1
 3450 00e9 3F       		.uleb128 0x3f
 3451 00ea 19       		.uleb128 0x19
 3452 00eb 03       		.uleb128 0x3
 3453 00ec 0E       		.uleb128 0xe
 3454 00ed 3A       		.uleb128 0x3a
 3455 00ee 0B       		.uleb128 0xb
 3456 00ef 3B       		.uleb128 0x3b
 3457 00f0 05       		.uleb128 0x5
 3458 00f1 27       		.uleb128 0x27
 3459 00f2 19       		.uleb128 0x19
 3460 00f3 49       		.uleb128 0x49
 3461 00f4 13       		.uleb128 0x13
 3462 00f5 20       		.uleb128 0x20
 3463 00f6 0B       		.uleb128 0xb
 3464 00f7 01       		.uleb128 0x1
 3465 00f8 13       		.uleb128 0x13
 3466 00f9 00       		.byte	0
 3467 00fa 00       		.byte	0
 3468 00fb 14       		.uleb128 0x14
 3469 00fc 05       		.uleb128 0x5
 3470 00fd 00       		.byte	0
 3471 00fe 03       		.uleb128 0x3
 3472 00ff 0E       		.uleb128 0xe
ARM GAS  C:\Users\pearlstl\AppData\Local\Temp\ccILyAHD.s 			page 81


 3473 0100 3A       		.uleb128 0x3a
 3474 0101 0B       		.uleb128 0xb
 3475 0102 3B       		.uleb128 0x3b
 3476 0103 05       		.uleb128 0x5
 3477 0104 49       		.uleb128 0x49
 3478 0105 13       		.uleb128 0x13
 3479 0106 00       		.byte	0
 3480 0107 00       		.byte	0
 3481 0108 15       		.uleb128 0x15
 3482 0109 05       		.uleb128 0x5
 3483 010a 00       		.byte	0
 3484 010b 03       		.uleb128 0x3
 3485 010c 08       		.uleb128 0x8
 3486 010d 3A       		.uleb128 0x3a
 3487 010e 0B       		.uleb128 0xb
 3488 010f 3B       		.uleb128 0x3b
 3489 0110 05       		.uleb128 0x5
 3490 0111 49       		.uleb128 0x49
 3491 0112 13       		.uleb128 0x13
 3492 0113 00       		.byte	0
 3493 0114 00       		.byte	0
 3494 0115 16       		.uleb128 0x16
 3495 0116 34       		.uleb128 0x34
 3496 0117 00       		.byte	0
 3497 0118 03       		.uleb128 0x3
 3498 0119 08       		.uleb128 0x8
 3499 011a 3A       		.uleb128 0x3a
 3500 011b 0B       		.uleb128 0xb
 3501 011c 3B       		.uleb128 0x3b
 3502 011d 05       		.uleb128 0x5
 3503 011e 49       		.uleb128 0x49
 3504 011f 13       		.uleb128 0x13
 3505 0120 00       		.byte	0
 3506 0121 00       		.byte	0
 3507 0122 17       		.uleb128 0x17
 3508 0123 2E       		.uleb128 0x2e
 3509 0124 01       		.byte	0x1
 3510 0125 03       		.uleb128 0x3
 3511 0126 0E       		.uleb128 0xe
 3512 0127 3A       		.uleb128 0x3a
 3513 0128 0B       		.uleb128 0xb
 3514 0129 3B       		.uleb128 0x3b
 3515 012a 05       		.uleb128 0x5
 3516 012b 27       		.uleb128 0x27
 3517 012c 19       		.uleb128 0x19
 3518 012d 49       		.uleb128 0x49
 3519 012e 13       		.uleb128 0x13
 3520 012f 20       		.uleb128 0x20
 3521 0130 0B       		.uleb128 0xb
 3522 0131 01       		.uleb128 0x1
 3523 0132 13       		.uleb128 0x13
 3524 0133 00       		.byte	0
 3525 0134 00       		.byte	0
 3526 0135 18       		.uleb128 0x18
 3527 0136 05       		.uleb128 0x5
 3528 0137 00       		.byte	0
 3529 0138 03       		.uleb128 0x3
ARM GAS  C:\Users\pearlstl\AppData\Local\Temp\ccILyAHD.s 			page 82


 3530 0139 08       		.uleb128 0x8
 3531 013a 3A       		.uleb128 0x3a
 3532 013b 0B       		.uleb128 0xb
 3533 013c 3B       		.uleb128 0x3b
 3534 013d 0B       		.uleb128 0xb
 3535 013e 49       		.uleb128 0x49
 3536 013f 13       		.uleb128 0x13
 3537 0140 00       		.byte	0
 3538 0141 00       		.byte	0
 3539 0142 19       		.uleb128 0x19
 3540 0143 34       		.uleb128 0x34
 3541 0144 00       		.byte	0
 3542 0145 03       		.uleb128 0x3
 3543 0146 08       		.uleb128 0x8
 3544 0147 3A       		.uleb128 0x3a
 3545 0148 0B       		.uleb128 0xb
 3546 0149 3B       		.uleb128 0x3b
 3547 014a 0B       		.uleb128 0xb
 3548 014b 49       		.uleb128 0x49
 3549 014c 13       		.uleb128 0x13
 3550 014d 00       		.byte	0
 3551 014e 00       		.byte	0
 3552 014f 1A       		.uleb128 0x1a
 3553 0150 34       		.uleb128 0x34
 3554 0151 00       		.byte	0
 3555 0152 03       		.uleb128 0x3
 3556 0153 0E       		.uleb128 0xe
 3557 0154 3A       		.uleb128 0x3a
 3558 0155 0B       		.uleb128 0xb
 3559 0156 3B       		.uleb128 0x3b
 3560 0157 0B       		.uleb128 0xb
 3561 0158 49       		.uleb128 0x49
 3562 0159 13       		.uleb128 0x13
 3563 015a 00       		.byte	0
 3564 015b 00       		.byte	0
 3565 015c 1B       		.uleb128 0x1b
 3566 015d 0B       		.uleb128 0xb
 3567 015e 01       		.byte	0x1
 3568 015f 00       		.byte	0
 3569 0160 00       		.byte	0
 3570 0161 1C       		.uleb128 0x1c
 3571 0162 34       		.uleb128 0x34
 3572 0163 00       		.byte	0
 3573 0164 03       		.uleb128 0x3
 3574 0165 0E       		.uleb128 0xe
 3575 0166 3A       		.uleb128 0x3a
 3576 0167 0B       		.uleb128 0xb
 3577 0168 3B       		.uleb128 0x3b
 3578 0169 05       		.uleb128 0x5
 3579 016a 49       		.uleb128 0x49
 3580 016b 13       		.uleb128 0x13
 3581 016c 00       		.byte	0
 3582 016d 00       		.byte	0
 3583 016e 1D       		.uleb128 0x1d
 3584 016f 2E       		.uleb128 0x2e
 3585 0170 01       		.byte	0x1
 3586 0171 03       		.uleb128 0x3
ARM GAS  C:\Users\pearlstl\AppData\Local\Temp\ccILyAHD.s 			page 83


 3587 0172 0E       		.uleb128 0xe
 3588 0173 3A       		.uleb128 0x3a
 3589 0174 0B       		.uleb128 0xb
 3590 0175 3B       		.uleb128 0x3b
 3591 0176 05       		.uleb128 0x5
 3592 0177 27       		.uleb128 0x27
 3593 0178 19       		.uleb128 0x19
 3594 0179 49       		.uleb128 0x49
 3595 017a 13       		.uleb128 0x13
 3596 017b 11       		.uleb128 0x11
 3597 017c 01       		.uleb128 0x1
 3598 017d 12       		.uleb128 0x12
 3599 017e 06       		.uleb128 0x6
 3600 017f 40       		.uleb128 0x40
 3601 0180 18       		.uleb128 0x18
 3602 0181 9742     		.uleb128 0x2117
 3603 0183 19       		.uleb128 0x19
 3604 0184 01       		.uleb128 0x1
 3605 0185 13       		.uleb128 0x13
 3606 0186 00       		.byte	0
 3607 0187 00       		.byte	0
 3608 0188 1E       		.uleb128 0x1e
 3609 0189 05       		.uleb128 0x5
 3610 018a 00       		.byte	0
 3611 018b 03       		.uleb128 0x3
 3612 018c 08       		.uleb128 0x8
 3613 018d 3A       		.uleb128 0x3a
 3614 018e 0B       		.uleb128 0xb
 3615 018f 3B       		.uleb128 0x3b
 3616 0190 05       		.uleb128 0x5
 3617 0191 49       		.uleb128 0x49
 3618 0192 13       		.uleb128 0x13
 3619 0193 02       		.uleb128 0x2
 3620 0194 17       		.uleb128 0x17
 3621 0195 00       		.byte	0
 3622 0196 00       		.byte	0
 3623 0197 1F       		.uleb128 0x1f
 3624 0198 05       		.uleb128 0x5
 3625 0199 00       		.byte	0
 3626 019a 03       		.uleb128 0x3
 3627 019b 0E       		.uleb128 0xe
 3628 019c 3A       		.uleb128 0x3a
 3629 019d 0B       		.uleb128 0xb
 3630 019e 3B       		.uleb128 0x3b
 3631 019f 05       		.uleb128 0x5
 3632 01a0 49       		.uleb128 0x49
 3633 01a1 13       		.uleb128 0x13
 3634 01a2 02       		.uleb128 0x2
 3635 01a3 17       		.uleb128 0x17
 3636 01a4 00       		.byte	0
 3637 01a5 00       		.byte	0
 3638 01a6 20       		.uleb128 0x20
 3639 01a7 05       		.uleb128 0x5
 3640 01a8 00       		.byte	0
 3641 01a9 03       		.uleb128 0x3
 3642 01aa 08       		.uleb128 0x8
 3643 01ab 3A       		.uleb128 0x3a
ARM GAS  C:\Users\pearlstl\AppData\Local\Temp\ccILyAHD.s 			page 84


 3644 01ac 0B       		.uleb128 0xb
 3645 01ad 3B       		.uleb128 0x3b
 3646 01ae 05       		.uleb128 0x5
 3647 01af 49       		.uleb128 0x49
 3648 01b0 13       		.uleb128 0x13
 3649 01b1 02       		.uleb128 0x2
 3650 01b2 18       		.uleb128 0x18
 3651 01b3 00       		.byte	0
 3652 01b4 00       		.byte	0
 3653 01b5 21       		.uleb128 0x21
 3654 01b6 34       		.uleb128 0x34
 3655 01b7 00       		.byte	0
 3656 01b8 03       		.uleb128 0x3
 3657 01b9 0E       		.uleb128 0xe
 3658 01ba 3A       		.uleb128 0x3a
 3659 01bb 0B       		.uleb128 0xb
 3660 01bc 3B       		.uleb128 0x3b
 3661 01bd 05       		.uleb128 0x5
 3662 01be 49       		.uleb128 0x49
 3663 01bf 13       		.uleb128 0x13
 3664 01c0 02       		.uleb128 0x2
 3665 01c1 17       		.uleb128 0x17
 3666 01c2 00       		.byte	0
 3667 01c3 00       		.byte	0
 3668 01c4 22       		.uleb128 0x22
 3669 01c5 2E       		.uleb128 0x2e
 3670 01c6 01       		.byte	0x1
 3671 01c7 31       		.uleb128 0x31
 3672 01c8 13       		.uleb128 0x13
 3673 01c9 11       		.uleb128 0x11
 3674 01ca 01       		.uleb128 0x1
 3675 01cb 12       		.uleb128 0x12
 3676 01cc 06       		.uleb128 0x6
 3677 01cd 40       		.uleb128 0x40
 3678 01ce 18       		.uleb128 0x18
 3679 01cf 9742     		.uleb128 0x2117
 3680 01d1 19       		.uleb128 0x19
 3681 01d2 01       		.uleb128 0x1
 3682 01d3 13       		.uleb128 0x13
 3683 01d4 00       		.byte	0
 3684 01d5 00       		.byte	0
 3685 01d6 23       		.uleb128 0x23
 3686 01d7 05       		.uleb128 0x5
 3687 01d8 00       		.byte	0
 3688 01d9 31       		.uleb128 0x31
 3689 01da 13       		.uleb128 0x13
 3690 01db 02       		.uleb128 0x2
 3691 01dc 17       		.uleb128 0x17
 3692 01dd 00       		.byte	0
 3693 01de 00       		.byte	0
 3694 01df 24       		.uleb128 0x24
 3695 01e0 05       		.uleb128 0x5
 3696 01e1 00       		.byte	0
 3697 01e2 31       		.uleb128 0x31
 3698 01e3 13       		.uleb128 0x13
 3699 01e4 02       		.uleb128 0x2
 3700 01e5 18       		.uleb128 0x18
ARM GAS  C:\Users\pearlstl\AppData\Local\Temp\ccILyAHD.s 			page 85


 3701 01e6 00       		.byte	0
 3702 01e7 00       		.byte	0
 3703 01e8 25       		.uleb128 0x25
 3704 01e9 898201   		.uleb128 0x4109
 3705 01ec 01       		.byte	0x1
 3706 01ed 11       		.uleb128 0x11
 3707 01ee 01       		.uleb128 0x1
 3708 01ef 9542     		.uleb128 0x2115
 3709 01f1 19       		.uleb128 0x19
 3710 01f2 31       		.uleb128 0x31
 3711 01f3 13       		.uleb128 0x13
 3712 01f4 00       		.byte	0
 3713 01f5 00       		.byte	0
 3714 01f6 26       		.uleb128 0x26
 3715 01f7 8A8201   		.uleb128 0x410a
 3716 01fa 00       		.byte	0
 3717 01fb 02       		.uleb128 0x2
 3718 01fc 18       		.uleb128 0x18
 3719 01fd 9142     		.uleb128 0x2111
 3720 01ff 18       		.uleb128 0x18
 3721 0200 00       		.byte	0
 3722 0201 00       		.byte	0
 3723 0202 27       		.uleb128 0x27
 3724 0203 2E       		.uleb128 0x2e
 3725 0204 01       		.byte	0x1
 3726 0205 3F       		.uleb128 0x3f
 3727 0206 19       		.uleb128 0x19
 3728 0207 03       		.uleb128 0x3
 3729 0208 0E       		.uleb128 0xe
 3730 0209 3A       		.uleb128 0x3a
 3731 020a 0B       		.uleb128 0xb
 3732 020b 3B       		.uleb128 0x3b
 3733 020c 05       		.uleb128 0x5
 3734 020d 27       		.uleb128 0x27
 3735 020e 19       		.uleb128 0x19
 3736 020f 49       		.uleb128 0x49
 3737 0210 13       		.uleb128 0x13
 3738 0211 11       		.uleb128 0x11
 3739 0212 01       		.uleb128 0x1
 3740 0213 12       		.uleb128 0x12
 3741 0214 06       		.uleb128 0x6
 3742 0215 40       		.uleb128 0x40
 3743 0216 18       		.uleb128 0x18
 3744 0217 9742     		.uleb128 0x2117
 3745 0219 19       		.uleb128 0x19
 3746 021a 01       		.uleb128 0x1
 3747 021b 13       		.uleb128 0x13
 3748 021c 00       		.byte	0
 3749 021d 00       		.byte	0
 3750 021e 28       		.uleb128 0x28
 3751 021f 34       		.uleb128 0x34
 3752 0220 00       		.byte	0
 3753 0221 03       		.uleb128 0x3
 3754 0222 08       		.uleb128 0x8
 3755 0223 3A       		.uleb128 0x3a
 3756 0224 0B       		.uleb128 0xb
 3757 0225 3B       		.uleb128 0x3b
ARM GAS  C:\Users\pearlstl\AppData\Local\Temp\ccILyAHD.s 			page 86


 3758 0226 05       		.uleb128 0x5
 3759 0227 49       		.uleb128 0x49
 3760 0228 13       		.uleb128 0x13
 3761 0229 02       		.uleb128 0x2
 3762 022a 18       		.uleb128 0x18
 3763 022b 00       		.byte	0
 3764 022c 00       		.byte	0
 3765 022d 29       		.uleb128 0x29
 3766 022e 0B       		.uleb128 0xb
 3767 022f 01       		.byte	0x1
 3768 0230 55       		.uleb128 0x55
 3769 0231 17       		.uleb128 0x17
 3770 0232 01       		.uleb128 0x1
 3771 0233 13       		.uleb128 0x13
 3772 0234 00       		.byte	0
 3773 0235 00       		.byte	0
 3774 0236 2A       		.uleb128 0x2a
 3775 0237 1D       		.uleb128 0x1d
 3776 0238 01       		.byte	0x1
 3777 0239 31       		.uleb128 0x31
 3778 023a 13       		.uleb128 0x13
 3779 023b 52       		.uleb128 0x52
 3780 023c 01       		.uleb128 0x1
 3781 023d 55       		.uleb128 0x55
 3782 023e 17       		.uleb128 0x17
 3783 023f 58       		.uleb128 0x58
 3784 0240 0B       		.uleb128 0xb
 3785 0241 59       		.uleb128 0x59
 3786 0242 05       		.uleb128 0x5
 3787 0243 01       		.uleb128 0x1
 3788 0244 13       		.uleb128 0x13
 3789 0245 00       		.byte	0
 3790 0246 00       		.byte	0
 3791 0247 2B       		.uleb128 0x2b
 3792 0248 05       		.uleb128 0x5
 3793 0249 00       		.byte	0
 3794 024a 31       		.uleb128 0x31
 3795 024b 13       		.uleb128 0x13
 3796 024c 00       		.byte	0
 3797 024d 00       		.byte	0
 3798 024e 2C       		.uleb128 0x2c
 3799 024f 0B       		.uleb128 0xb
 3800 0250 01       		.byte	0x1
 3801 0251 55       		.uleb128 0x55
 3802 0252 17       		.uleb128 0x17
 3803 0253 00       		.byte	0
 3804 0254 00       		.byte	0
 3805 0255 2D       		.uleb128 0x2d
 3806 0256 34       		.uleb128 0x34
 3807 0257 00       		.byte	0
 3808 0258 31       		.uleb128 0x31
 3809 0259 13       		.uleb128 0x13
 3810 025a 02       		.uleb128 0x2
 3811 025b 18       		.uleb128 0x18
 3812 025c 00       		.byte	0
 3813 025d 00       		.byte	0
 3814 025e 2E       		.uleb128 0x2e
ARM GAS  C:\Users\pearlstl\AppData\Local\Temp\ccILyAHD.s 			page 87


 3815 025f 34       		.uleb128 0x34
 3816 0260 00       		.byte	0
 3817 0261 31       		.uleb128 0x31
 3818 0262 13       		.uleb128 0x13
 3819 0263 02       		.uleb128 0x2
 3820 0264 17       		.uleb128 0x17
 3821 0265 00       		.byte	0
 3822 0266 00       		.byte	0
 3823 0267 2F       		.uleb128 0x2f
 3824 0268 1D       		.uleb128 0x1d
 3825 0269 01       		.byte	0x1
 3826 026a 31       		.uleb128 0x31
 3827 026b 13       		.uleb128 0x13
 3828 026c 52       		.uleb128 0x52
 3829 026d 01       		.uleb128 0x1
 3830 026e 55       		.uleb128 0x55
 3831 026f 17       		.uleb128 0x17
 3832 0270 58       		.uleb128 0x58
 3833 0271 0B       		.uleb128 0xb
 3834 0272 59       		.uleb128 0x59
 3835 0273 0B       		.uleb128 0xb
 3836 0274 01       		.uleb128 0x1
 3837 0275 13       		.uleb128 0x13
 3838 0276 00       		.byte	0
 3839 0277 00       		.byte	0
 3840 0278 30       		.uleb128 0x30
 3841 0279 34       		.uleb128 0x34
 3842 027a 00       		.byte	0
 3843 027b 31       		.uleb128 0x31
 3844 027c 13       		.uleb128 0x13
 3845 027d 00       		.byte	0
 3846 027e 00       		.byte	0
 3847 027f 31       		.uleb128 0x31
 3848 0280 0B       		.uleb128 0xb
 3849 0281 01       		.byte	0x1
 3850 0282 11       		.uleb128 0x11
 3851 0283 01       		.uleb128 0x1
 3852 0284 12       		.uleb128 0x12
 3853 0285 06       		.uleb128 0x6
 3854 0286 01       		.uleb128 0x1
 3855 0287 13       		.uleb128 0x13
 3856 0288 00       		.byte	0
 3857 0289 00       		.byte	0
 3858 028a 32       		.uleb128 0x32
 3859 028b 898201   		.uleb128 0x4109
 3860 028e 01       		.byte	0x1
 3861 028f 11       		.uleb128 0x11
 3862 0290 01       		.uleb128 0x1
 3863 0291 00       		.byte	0
 3864 0292 00       		.byte	0
 3865 0293 33       		.uleb128 0x33
 3866 0294 898201   		.uleb128 0x4109
 3867 0297 01       		.byte	0x1
 3868 0298 11       		.uleb128 0x11
 3869 0299 01       		.uleb128 0x1
 3870 029a 01       		.uleb128 0x1
 3871 029b 13       		.uleb128 0x13
ARM GAS  C:\Users\pearlstl\AppData\Local\Temp\ccILyAHD.s 			page 88


 3872 029c 00       		.byte	0
 3873 029d 00       		.byte	0
 3874 029e 34       		.uleb128 0x34
 3875 029f 898201   		.uleb128 0x4109
 3876 02a2 01       		.byte	0x1
 3877 02a3 11       		.uleb128 0x11
 3878 02a4 01       		.uleb128 0x1
 3879 02a5 31       		.uleb128 0x31
 3880 02a6 13       		.uleb128 0x13
 3881 02a7 00       		.byte	0
 3882 02a8 00       		.byte	0
 3883 02a9 35       		.uleb128 0x35
 3884 02aa 898201   		.uleb128 0x4109
 3885 02ad 01       		.byte	0x1
 3886 02ae 11       		.uleb128 0x11
 3887 02af 01       		.uleb128 0x1
 3888 02b0 31       		.uleb128 0x31
 3889 02b1 13       		.uleb128 0x13
 3890 02b2 01       		.uleb128 0x1
 3891 02b3 13       		.uleb128 0x13
 3892 02b4 00       		.byte	0
 3893 02b5 00       		.byte	0
 3894 02b6 36       		.uleb128 0x36
 3895 02b7 2E       		.uleb128 0x2e
 3896 02b8 01       		.byte	0x1
 3897 02b9 3F       		.uleb128 0x3f
 3898 02ba 19       		.uleb128 0x19
 3899 02bb 03       		.uleb128 0x3
 3900 02bc 0E       		.uleb128 0xe
 3901 02bd 3A       		.uleb128 0x3a
 3902 02be 0B       		.uleb128 0xb
 3903 02bf 3B       		.uleb128 0x3b
 3904 02c0 0B       		.uleb128 0xb
 3905 02c1 27       		.uleb128 0x27
 3906 02c2 19       		.uleb128 0x19
 3907 02c3 11       		.uleb128 0x11
 3908 02c4 01       		.uleb128 0x1
 3909 02c5 12       		.uleb128 0x12
 3910 02c6 06       		.uleb128 0x6
 3911 02c7 40       		.uleb128 0x40
 3912 02c8 18       		.uleb128 0x18
 3913 02c9 9742     		.uleb128 0x2117
 3914 02cb 19       		.uleb128 0x19
 3915 02cc 01       		.uleb128 0x1
 3916 02cd 13       		.uleb128 0x13
 3917 02ce 00       		.byte	0
 3918 02cf 00       		.byte	0
 3919 02d0 37       		.uleb128 0x37
 3920 02d1 05       		.uleb128 0x5
 3921 02d2 00       		.byte	0
 3922 02d3 03       		.uleb128 0x3
 3923 02d4 0E       		.uleb128 0xe
 3924 02d5 3A       		.uleb128 0x3a
 3925 02d6 0B       		.uleb128 0xb
 3926 02d7 3B       		.uleb128 0x3b
 3927 02d8 0B       		.uleb128 0xb
 3928 02d9 49       		.uleb128 0x49
ARM GAS  C:\Users\pearlstl\AppData\Local\Temp\ccILyAHD.s 			page 89


 3929 02da 13       		.uleb128 0x13
 3930 02db 02       		.uleb128 0x2
 3931 02dc 17       		.uleb128 0x17
 3932 02dd 00       		.byte	0
 3933 02de 00       		.byte	0
 3934 02df 38       		.uleb128 0x38
 3935 02e0 34       		.uleb128 0x34
 3936 02e1 00       		.byte	0
 3937 02e2 03       		.uleb128 0x3
 3938 02e3 0E       		.uleb128 0xe
 3939 02e4 3A       		.uleb128 0x3a
 3940 02e5 0B       		.uleb128 0xb
 3941 02e6 3B       		.uleb128 0x3b
 3942 02e7 0B       		.uleb128 0xb
 3943 02e8 49       		.uleb128 0x49
 3944 02e9 13       		.uleb128 0x13
 3945 02ea 02       		.uleb128 0x2
 3946 02eb 17       		.uleb128 0x17
 3947 02ec 00       		.byte	0
 3948 02ed 00       		.byte	0
 3949 02ee 39       		.uleb128 0x39
 3950 02ef 2E       		.uleb128 0x2e
 3951 02f0 01       		.byte	0x1
 3952 02f1 3F       		.uleb128 0x3f
 3953 02f2 19       		.uleb128 0x19
 3954 02f3 03       		.uleb128 0x3
 3955 02f4 0E       		.uleb128 0xe
 3956 02f5 3A       		.uleb128 0x3a
 3957 02f6 0B       		.uleb128 0xb
 3958 02f7 3B       		.uleb128 0x3b
 3959 02f8 05       		.uleb128 0x5
 3960 02f9 27       		.uleb128 0x27
 3961 02fa 19       		.uleb128 0x19
 3962 02fb 11       		.uleb128 0x11
 3963 02fc 01       		.uleb128 0x1
 3964 02fd 12       		.uleb128 0x12
 3965 02fe 06       		.uleb128 0x6
 3966 02ff 40       		.uleb128 0x40
 3967 0300 18       		.uleb128 0x18
 3968 0301 9742     		.uleb128 0x2117
 3969 0303 19       		.uleb128 0x19
 3970 0304 01       		.uleb128 0x1
 3971 0305 13       		.uleb128 0x13
 3972 0306 00       		.byte	0
 3973 0307 00       		.byte	0
 3974 0308 3A       		.uleb128 0x3a
 3975 0309 34       		.uleb128 0x34
 3976 030a 00       		.byte	0
 3977 030b 03       		.uleb128 0x3
 3978 030c 08       		.uleb128 0x8
 3979 030d 3A       		.uleb128 0x3a
 3980 030e 0B       		.uleb128 0xb
 3981 030f 3B       		.uleb128 0x3b
 3982 0310 05       		.uleb128 0x5
 3983 0311 49       		.uleb128 0x49
 3984 0312 13       		.uleb128 0x13
 3985 0313 02       		.uleb128 0x2
ARM GAS  C:\Users\pearlstl\AppData\Local\Temp\ccILyAHD.s 			page 90


 3986 0314 17       		.uleb128 0x17
 3987 0315 00       		.byte	0
 3988 0316 00       		.byte	0
 3989 0317 3B       		.uleb128 0x3b
 3990 0318 34       		.uleb128 0x34
 3991 0319 00       		.byte	0
 3992 031a 03       		.uleb128 0x3
 3993 031b 0E       		.uleb128 0xe
 3994 031c 3A       		.uleb128 0x3a
 3995 031d 0B       		.uleb128 0xb
 3996 031e 3B       		.uleb128 0x3b
 3997 031f 0B       		.uleb128 0xb
 3998 0320 49       		.uleb128 0x49
 3999 0321 13       		.uleb128 0x13
 4000 0322 3F       		.uleb128 0x3f
 4001 0323 19       		.uleb128 0x19
 4002 0324 02       		.uleb128 0x2
 4003 0325 18       		.uleb128 0x18
 4004 0326 00       		.byte	0
 4005 0327 00       		.byte	0
 4006 0328 3C       		.uleb128 0x3c
 4007 0329 2E       		.uleb128 0x2e
 4008 032a 00       		.byte	0
 4009 032b 3F       		.uleb128 0x3f
 4010 032c 19       		.uleb128 0x19
 4011 032d 3C       		.uleb128 0x3c
 4012 032e 19       		.uleb128 0x19
 4013 032f 6E       		.uleb128 0x6e
 4014 0330 0E       		.uleb128 0xe
 4015 0331 03       		.uleb128 0x3
 4016 0332 0E       		.uleb128 0xe
 4017 0333 3A       		.uleb128 0x3a
 4018 0334 0B       		.uleb128 0xb
 4019 0335 3B       		.uleb128 0x3b
 4020 0336 0B       		.uleb128 0xb
 4021 0337 00       		.byte	0
 4022 0338 00       		.byte	0
 4023 0339 3D       		.uleb128 0x3d
 4024 033a 2E       		.uleb128 0x2e
 4025 033b 00       		.byte	0
 4026 033c 3F       		.uleb128 0x3f
 4027 033d 19       		.uleb128 0x19
 4028 033e 3C       		.uleb128 0x3c
 4029 033f 19       		.uleb128 0x19
 4030 0340 6E       		.uleb128 0x6e
 4031 0341 0E       		.uleb128 0xe
 4032 0342 03       		.uleb128 0x3
 4033 0343 0E       		.uleb128 0xe
 4034 0344 00       		.byte	0
 4035 0345 00       		.byte	0
 4036 0346 00       		.byte	0
 4037              		.section	.debug_loc,"",%progbits
 4038              	.Ldebug_loc0:
 4039              	.LLST0:
 4040 0000 00000000 		.4byte	.LVL0
 4041 0004 02000000 		.4byte	.LVL1
 4042 0008 0100     		.2byte	0x1
ARM GAS  C:\Users\pearlstl\AppData\Local\Temp\ccILyAHD.s 			page 91


 4043 000a 50       		.byte	0x50
 4044 000b 02000000 		.4byte	.LVL1
 4045 000f 04000000 		.4byte	.LFE11
 4046 0013 0400     		.2byte	0x4
 4047 0015 F3       		.byte	0xf3
 4048 0016 01       		.uleb128 0x1
 4049 0017 50       		.byte	0x50
 4050 0018 9F       		.byte	0x9f
 4051 0019 00000000 		.4byte	0
 4052 001d 00000000 		.4byte	0
 4053              	.LLST1:
 4054 0021 00000000 		.4byte	.LVL2
 4055 0025 06000000 		.4byte	.LVL3
 4056 0029 0100     		.2byte	0x1
 4057 002b 50       		.byte	0x50
 4058 002c 06000000 		.4byte	.LVL3
 4059 0030 08000000 		.4byte	.LFE12
 4060 0034 0400     		.2byte	0x4
 4061 0036 F3       		.byte	0xf3
 4062 0037 01       		.uleb128 0x1
 4063 0038 50       		.byte	0x50
 4064 0039 9F       		.byte	0x9f
 4065 003a 00000000 		.4byte	0
 4066 003e 00000000 		.4byte	0
 4067              	.LLST2:
 4068 0042 00000000 		.4byte	.LVL5
 4069 0046 06000000 		.4byte	.LVL6
 4070 004a 0100     		.2byte	0x1
 4071 004c 50       		.byte	0x50
 4072 004d 06000000 		.4byte	.LVL6
 4073 0051 0C000000 		.4byte	.LVL7
 4074 0055 0400     		.2byte	0x4
 4075 0057 F3       		.byte	0xf3
 4076 0058 01       		.uleb128 0x1
 4077 0059 50       		.byte	0x50
 4078 005a 9F       		.byte	0x9f
 4079 005b 0C000000 		.4byte	.LVL7
 4080 005f 0E000000 		.4byte	.LVL8
 4081 0063 0100     		.2byte	0x1
 4082 0065 50       		.byte	0x50
 4083 0066 0E000000 		.4byte	.LVL8
 4084 006a 10000000 		.4byte	.LFE14
 4085 006e 0400     		.2byte	0x4
 4086 0070 F3       		.byte	0xf3
 4087 0071 01       		.uleb128 0x1
 4088 0072 50       		.byte	0x50
 4089 0073 9F       		.byte	0x9f
 4090 0074 00000000 		.4byte	0
 4091 0078 00000000 		.4byte	0
 4092              	.LLST3:
 4093 007c 06000000 		.4byte	.LVL6
 4094 0080 0C000000 		.4byte	.LVL7
 4095 0084 0100     		.2byte	0x1
 4096 0086 50       		.byte	0x50
 4097 0087 00000000 		.4byte	0
 4098 008b 00000000 		.4byte	0
 4099              	.LLST4:
ARM GAS  C:\Users\pearlstl\AppData\Local\Temp\ccILyAHD.s 			page 92


 4100 008f 00000000 		.4byte	.LVL9
 4101 0093 0A000000 		.4byte	.LVL11
 4102 0097 0100     		.2byte	0x1
 4103 0099 50       		.byte	0x50
 4104 009a 0A000000 		.4byte	.LVL11
 4105 009e 0C000000 		.4byte	.LVL12
 4106 00a2 0400     		.2byte	0x4
 4107 00a4 F3       		.byte	0xf3
 4108 00a5 01       		.uleb128 0x1
 4109 00a6 50       		.byte	0x50
 4110 00a7 9F       		.byte	0x9f
 4111 00a8 0C000000 		.4byte	.LVL12
 4112 00ac 10000000 		.4byte	.LVL13
 4113 00b0 0100     		.2byte	0x1
 4114 00b2 50       		.byte	0x50
 4115 00b3 10000000 		.4byte	.LVL13
 4116 00b7 12000000 		.4byte	.LFE15
 4117 00bb 0400     		.2byte	0x4
 4118 00bd F3       		.byte	0xf3
 4119 00be 01       		.uleb128 0x1
 4120 00bf 50       		.byte	0x50
 4121 00c0 9F       		.byte	0x9f
 4122 00c1 00000000 		.4byte	0
 4123 00c5 00000000 		.4byte	0
 4124              	.LLST5:
 4125 00c9 08000000 		.4byte	.LVL10
 4126 00cd 0A000000 		.4byte	.LVL11
 4127 00d1 0500     		.2byte	0x5
 4128 00d3 70       		.byte	0x70
 4129 00d4 00       		.sleb128 0
 4130 00d5 73       		.byte	0x73
 4131 00d6 00       		.sleb128 0
 4132 00d7 22       		.byte	0x22
 4133 00d8 0A000000 		.4byte	.LVL11
 4134 00dc 0C000000 		.4byte	.LVL12
 4135 00e0 0100     		.2byte	0x1
 4136 00e2 50       		.byte	0x50
 4137 00e3 00000000 		.4byte	0
 4138 00e7 00000000 		.4byte	0
 4139              	.LLST6:
 4140 00eb 00000000 		.4byte	.LVL14
 4141 00ef 02000000 		.4byte	.LVL15
 4142 00f3 0100     		.2byte	0x1
 4143 00f5 50       		.byte	0x50
 4144 00f6 02000000 		.4byte	.LVL15
 4145 00fa 04000000 		.4byte	.LFE17
 4146 00fe 0400     		.2byte	0x4
 4147 0100 F3       		.byte	0xf3
 4148 0101 01       		.uleb128 0x1
 4149 0102 50       		.byte	0x50
 4150 0103 9F       		.byte	0x9f
 4151 0104 00000000 		.4byte	0
 4152 0108 00000000 		.4byte	0
 4153              	.LLST7:
 4154 010c 00000000 		.4byte	.LVL16
 4155 0110 03000000 		.4byte	.LVL17-1
 4156 0114 0100     		.2byte	0x1
ARM GAS  C:\Users\pearlstl\AppData\Local\Temp\ccILyAHD.s 			page 93


 4157 0116 50       		.byte	0x50
 4158 0117 03000000 		.4byte	.LVL17-1
 4159 011b 04000000 		.4byte	.LFE18
 4160 011f 0400     		.2byte	0x4
 4161 0121 F3       		.byte	0xf3
 4162 0122 01       		.uleb128 0x1
 4163 0123 50       		.byte	0x50
 4164 0124 9F       		.byte	0x9f
 4165 0125 00000000 		.4byte	0
 4166 0129 00000000 		.4byte	0
 4167              	.LLST8:
 4168 012d 00000000 		.4byte	.LVL18
 4169 0131 2E000000 		.4byte	.LVL22
 4170 0135 0100     		.2byte	0x1
 4171 0137 50       		.byte	0x50
 4172 0138 2E000000 		.4byte	.LVL22
 4173 013c 52000000 		.4byte	.LVL24
 4174 0140 0100     		.2byte	0x1
 4175 0142 54       		.byte	0x54
 4176 0143 52000000 		.4byte	.LVL24
 4177 0147 64020000 		.4byte	.LVL89
 4178 014b 0300     		.2byte	0x3
 4179 014d 91       		.byte	0x91
 4180 014e BC7F     		.sleb128 -68
 4181 0150 64020000 		.4byte	.LVL89
 4182 0154 66020000 		.4byte	.LVL90
 4183 0158 0100     		.2byte	0x1
 4184 015a 50       		.byte	0x50
 4185 015b 66020000 		.4byte	.LVL90
 4186 015f 6C020000 		.4byte	.LVL91
 4187 0163 0100     		.2byte	0x1
 4188 0165 54       		.byte	0x54
 4189 0166 6C020000 		.4byte	.LVL91
 4190 016a 74020000 		.4byte	.LFE6
 4191 016e 0300     		.2byte	0x3
 4192 0170 7D       		.byte	0x7d
 4193 0171 BC7F     		.sleb128 -68
 4194 0173 00000000 		.4byte	0
 4195 0177 00000000 		.4byte	0
 4196              	.LLST9:
 4197 017b 00000000 		.4byte	.LVL18
 4198 017f 22000000 		.4byte	.LVL20
 4199 0183 0100     		.2byte	0x1
 4200 0185 51       		.byte	0x51
 4201 0186 22000000 		.4byte	.LVL20
 4202 018a 64020000 		.4byte	.LVL89
 4203 018e 0300     		.2byte	0x3
 4204 0190 91       		.byte	0x91
 4205 0191 A87F     		.sleb128 -88
 4206 0193 64020000 		.4byte	.LVL89
 4207 0197 74020000 		.4byte	.LFE6
 4208 019b 0100     		.2byte	0x1
 4209 019d 51       		.byte	0x51
 4210 019e 00000000 		.4byte	0
 4211 01a2 00000000 		.4byte	0
 4212              	.LLST10:
 4213 01a6 00000000 		.4byte	.LVL18
ARM GAS  C:\Users\pearlstl\AppData\Local\Temp\ccILyAHD.s 			page 94


 4214 01aa 26000000 		.4byte	.LVL21
 4215 01ae 0100     		.2byte	0x1
 4216 01b0 52       		.byte	0x52
 4217 01b1 26000000 		.4byte	.LVL21
 4218 01b5 64020000 		.4byte	.LVL89
 4219 01b9 0400     		.2byte	0x4
 4220 01bb F3       		.byte	0xf3
 4221 01bc 01       		.uleb128 0x1
 4222 01bd 52       		.byte	0x52
 4223 01be 9F       		.byte	0x9f
 4224 01bf 64020000 		.4byte	.LVL89
 4225 01c3 74020000 		.4byte	.LFE6
 4226 01c7 0100     		.2byte	0x1
 4227 01c9 52       		.byte	0x52
 4228 01ca 00000000 		.4byte	0
 4229 01ce 00000000 		.4byte	0
 4230              	.LLST11:
 4231 01d2 00000000 		.4byte	.LVL18
 4232 01d6 10000000 		.4byte	.LVL19
 4233 01da 0100     		.2byte	0x1
 4234 01dc 53       		.byte	0x53
 4235 01dd 10000000 		.4byte	.LVL19
 4236 01e1 40000000 		.4byte	.LVL23
 4237 01e5 0400     		.2byte	0x4
 4238 01e7 F3       		.byte	0xf3
 4239 01e8 01       		.uleb128 0x1
 4240 01e9 53       		.byte	0x53
 4241 01ea 9F       		.byte	0x9f
 4242 01eb 40000000 		.4byte	.LVL23
 4243 01ef C2010000 		.4byte	.LVL71
 4244 01f3 0300     		.2byte	0x3
 4245 01f5 91       		.byte	0x91
 4246 01f6 B47F     		.sleb128 -76
 4247 01f8 D2010000 		.4byte	.LVL72
 4248 01fc E2010000 		.4byte	.LVL76
 4249 0200 0300     		.2byte	0x3
 4250 0202 91       		.byte	0x91
 4251 0203 B47F     		.sleb128 -76
 4252 0205 06020000 		.4byte	.LVL79
 4253 0209 64020000 		.4byte	.LVL89
 4254 020d 0300     		.2byte	0x3
 4255 020f 91       		.byte	0x91
 4256 0210 B47F     		.sleb128 -76
 4257 0212 64020000 		.4byte	.LVL89
 4258 0216 74020000 		.4byte	.LFE6
 4259 021a 0400     		.2byte	0x4
 4260 021c F3       		.byte	0xf3
 4261 021d 01       		.uleb128 0x1
 4262 021e 53       		.byte	0x53
 4263 021f 9F       		.byte	0x9f
 4264 0220 00000000 		.4byte	0
 4265 0224 00000000 		.4byte	0
 4266              	.LLST12:
 4267 0228 00000000 		.4byte	.LVL18
 4268 022c D2010000 		.4byte	.LVL72
 4269 0230 0200     		.2byte	0x2
 4270 0232 91       		.byte	0x91
ARM GAS  C:\Users\pearlstl\AppData\Local\Temp\ccILyAHD.s 			page 95


 4271 0233 00       		.sleb128 0
 4272 0234 D2010000 		.4byte	.LVL72
 4273 0238 6C020000 		.4byte	.LVL91
 4274 023c 0200     		.2byte	0x2
 4275 023e 91       		.byte	0x91
 4276 023f 00       		.sleb128 0
 4277 0240 6C020000 		.4byte	.LVL91
 4278 0244 74020000 		.4byte	.LFE6
 4279 0248 0200     		.2byte	0x2
 4280 024a 7D       		.byte	0x7d
 4281 024b 00       		.sleb128 0
 4282 024c 00000000 		.4byte	0
 4283 0250 00000000 		.4byte	0
 4284              	.LLST13:
 4285 0254 40000000 		.4byte	.LVL23
 4286 0258 52000000 		.4byte	.LVL24
 4287 025c 0200     		.2byte	0x2
 4288 025e 30       		.byte	0x30
 4289 025f 9F       		.byte	0x9f
 4290 0260 52000000 		.4byte	.LVL24
 4291 0264 C8000000 		.4byte	.LVL36
 4292 0268 0300     		.2byte	0x3
 4293 026a 91       		.byte	0x91
 4294 026b A07F     		.sleb128 -96
 4295 026d D0000000 		.4byte	.LVL38
 4296 0271 B2010000 		.4byte	.LVL68
 4297 0275 0300     		.2byte	0x3
 4298 0277 91       		.byte	0x91
 4299 0278 A07F     		.sleb128 -96
 4300 027a B2010000 		.4byte	.LVL68
 4301 027e B4010000 		.4byte	.LVL69
 4302 0282 0200     		.2byte	0x2
 4303 0284 31       		.byte	0x31
 4304 0285 9F       		.byte	0x9f
 4305 0286 BE010000 		.4byte	.LVL70
 4306 028a C2010000 		.4byte	.LVL71
 4307 028e 0300     		.2byte	0x3
 4308 0290 91       		.byte	0x91
 4309 0291 A07F     		.sleb128 -96
 4310 0293 D2010000 		.4byte	.LVL72
 4311 0297 D6010000 		.4byte	.LVL73
 4312 029b 0300     		.2byte	0x3
 4313 029d 91       		.byte	0x91
 4314 029e A07F     		.sleb128 -96
 4315 02a0 D6010000 		.4byte	.LVL73
 4316 02a4 D8010000 		.4byte	.LVL74
 4317 02a8 0200     		.2byte	0x2
 4318 02aa 30       		.byte	0x30
 4319 02ab 9F       		.byte	0x9f
 4320 02ac D8010000 		.4byte	.LVL74
 4321 02b0 E2010000 		.4byte	.LVL76
 4322 02b4 0300     		.2byte	0x3
 4323 02b6 91       		.byte	0x91
 4324 02b7 A07F     		.sleb128 -96
 4325 02b9 06020000 		.4byte	.LVL79
 4326 02bd 64020000 		.4byte	.LVL89
 4327 02c1 0300     		.2byte	0x3
ARM GAS  C:\Users\pearlstl\AppData\Local\Temp\ccILyAHD.s 			page 96


 4328 02c3 91       		.byte	0x91
 4329 02c4 A07F     		.sleb128 -96
 4330 02c6 00000000 		.4byte	0
 4331 02ca 00000000 		.4byte	0
 4332              	.LLST14:
 4333 02ce 60000000 		.4byte	.LVL25
 4334 02d2 A2000000 		.4byte	.LVL30
 4335 02d6 0200     		.2byte	0x2
 4336 02d8 30       		.byte	0x30
 4337 02d9 9F       		.byte	0x9f
 4338 02da A2000000 		.4byte	.LVL30
 4339 02de AA000000 		.4byte	.LVL31
 4340 02e2 0100     		.2byte	0x1
 4341 02e4 58       		.byte	0x58
 4342 02e5 AA000000 		.4byte	.LVL31
 4343 02e9 C2010000 		.4byte	.LVL71
 4344 02ed 0100     		.2byte	0x1
 4345 02ef 59       		.byte	0x59
 4346 02f0 D2010000 		.4byte	.LVL72
 4347 02f4 E2010000 		.4byte	.LVL76
 4348 02f8 0100     		.2byte	0x1
 4349 02fa 59       		.byte	0x59
 4350 02fb 06020000 		.4byte	.LVL79
 4351 02ff 54020000 		.4byte	.LVL85
 4352 0303 0100     		.2byte	0x1
 4353 0305 59       		.byte	0x59
 4354 0306 54020000 		.4byte	.LVL85
 4355 030a 56020000 		.4byte	.LVL86
 4356 030e 0100     		.2byte	0x1
 4357 0310 55       		.byte	0x55
 4358 0311 56020000 		.4byte	.LVL86
 4359 0315 5E020000 		.4byte	.LVL87
 4360 0319 0100     		.2byte	0x1
 4361 031b 59       		.byte	0x59
 4362 031c 5E020000 		.4byte	.LVL87
 4363 0320 60020000 		.4byte	.LVL88
 4364 0324 0100     		.2byte	0x1
 4365 0326 55       		.byte	0x55
 4366 0327 60020000 		.4byte	.LVL88
 4367 032b 64020000 		.4byte	.LVL89
 4368 032f 0100     		.2byte	0x1
 4369 0331 59       		.byte	0x59
 4370 0332 00000000 		.4byte	0
 4371 0336 00000000 		.4byte	0
 4372              	.LLST15:
 4373 033a 0A020000 		.4byte	.LVL80
 4374 033e 20020000 		.4byte	.LVL82
 4375 0342 0100     		.2byte	0x1
 4376 0344 52       		.byte	0x52
 4377 0345 00000000 		.4byte	0
 4378 0349 00000000 		.4byte	0
 4379              	.LLST16:
 4380 034d 60000000 		.4byte	.LVL25
 4381 0351 8B000000 		.4byte	.LVL28-1
 4382 0355 0600     		.2byte	0x6
 4383 0357 91       		.byte	0x91
 4384 0358 48       		.sleb128 -56
ARM GAS  C:\Users\pearlstl\AppData\Local\Temp\ccILyAHD.s 			page 97


 4385 0359 06       		.byte	0x6
 4386 035a 30       		.byte	0x30
 4387 035b 29       		.byte	0x29
 4388 035c 9F       		.byte	0x9f
 4389 035d 00000000 		.4byte	0
 4390 0361 00000000 		.4byte	0
 4391              	.LLST17:
 4392 0365 60000000 		.4byte	.LVL25
 4393 0369 C2010000 		.4byte	.LVL71
 4394 036d 0600     		.2byte	0x6
 4395 036f F2       		.byte	0xf2
 4396 0370 52060000 		.4byte	.Ldebug_info0+1618
 4397 0374 00       		.sleb128 0
 4398 0375 D2010000 		.4byte	.LVL72
 4399 0379 E2010000 		.4byte	.LVL76
 4400 037d 0600     		.2byte	0x6
 4401 037f F2       		.byte	0xf2
 4402 0380 52060000 		.4byte	.Ldebug_info0+1618
 4403 0384 00       		.sleb128 0
 4404 0385 06020000 		.4byte	.LVL79
 4405 0389 0A020000 		.4byte	.LVL80
 4406 038d 0600     		.2byte	0x6
 4407 038f F2       		.byte	0xf2
 4408 0390 52060000 		.4byte	.Ldebug_info0+1618
 4409 0394 00       		.sleb128 0
 4410 0395 48020000 		.4byte	.LVL83
 4411 0399 64020000 		.4byte	.LVL89
 4412 039d 0600     		.2byte	0x6
 4413 039f F2       		.byte	0xf2
 4414 03a0 52060000 		.4byte	.Ldebug_info0+1618
 4415 03a4 00       		.sleb128 0
 4416 03a5 00000000 		.4byte	0
 4417 03a9 00000000 		.4byte	0
 4418              	.LLST18:
 4419 03ad 60000000 		.4byte	.LVL25
 4420 03b1 C2010000 		.4byte	.LVL71
 4421 03b5 0600     		.2byte	0x6
 4422 03b7 F2       		.byte	0xf2
 4423 03b8 78060000 		.4byte	.Ldebug_info0+1656
 4424 03bc 00       		.sleb128 0
 4425 03bd D2010000 		.4byte	.LVL72
 4426 03c1 E2010000 		.4byte	.LVL76
 4427 03c5 0600     		.2byte	0x6
 4428 03c7 F2       		.byte	0xf2
 4429 03c8 78060000 		.4byte	.Ldebug_info0+1656
 4430 03cc 00       		.sleb128 0
 4431 03cd 06020000 		.4byte	.LVL79
 4432 03d1 0A020000 		.4byte	.LVL80
 4433 03d5 0600     		.2byte	0x6
 4434 03d7 F2       		.byte	0xf2
 4435 03d8 78060000 		.4byte	.Ldebug_info0+1656
 4436 03dc 00       		.sleb128 0
 4437 03dd 48020000 		.4byte	.LVL83
 4438 03e1 64020000 		.4byte	.LVL89
 4439 03e5 0600     		.2byte	0x6
 4440 03e7 F2       		.byte	0xf2
 4441 03e8 78060000 		.4byte	.Ldebug_info0+1656
ARM GAS  C:\Users\pearlstl\AppData\Local\Temp\ccILyAHD.s 			page 98


 4442 03ec 00       		.sleb128 0
 4443 03ed 00000000 		.4byte	0
 4444 03f1 00000000 		.4byte	0
 4445              	.LLST19:
 4446 03f5 60000000 		.4byte	.LVL25
 4447 03f9 C2010000 		.4byte	.LVL71
 4448 03fd 0200     		.2byte	0x2
 4449 03ff 91       		.byte	0x91
 4450 0400 00       		.sleb128 0
 4451 0401 D2010000 		.4byte	.LVL72
 4452 0405 E2010000 		.4byte	.LVL76
 4453 0409 0200     		.2byte	0x2
 4454 040b 91       		.byte	0x91
 4455 040c 00       		.sleb128 0
 4456 040d 06020000 		.4byte	.LVL79
 4457 0411 0A020000 		.4byte	.LVL80
 4458 0415 0200     		.2byte	0x2
 4459 0417 91       		.byte	0x91
 4460 0418 00       		.sleb128 0
 4461 0419 48020000 		.4byte	.LVL83
 4462 041d 64020000 		.4byte	.LVL89
 4463 0421 0200     		.2byte	0x2
 4464 0423 91       		.byte	0x91
 4465 0424 00       		.sleb128 0
 4466 0425 00000000 		.4byte	0
 4467 0429 00000000 		.4byte	0
 4468              	.LLST20:
 4469 042d 60000000 		.4byte	.LVL25
 4470 0431 8A000000 		.4byte	.LVL27
 4471 0435 0300     		.2byte	0x3
 4472 0437 91       		.byte	0x91
 4473 0438 B47F     		.sleb128 -76
 4474 043a 8A000000 		.4byte	.LVL27
 4475 043e C2010000 		.4byte	.LVL71
 4476 0442 0300     		.2byte	0x3
 4477 0444 91       		.byte	0x91
 4478 0445 B87F     		.sleb128 -72
 4479 0447 D2010000 		.4byte	.LVL72
 4480 044b E2010000 		.4byte	.LVL76
 4481 044f 0300     		.2byte	0x3
 4482 0451 91       		.byte	0x91
 4483 0452 B87F     		.sleb128 -72
 4484 0454 06020000 		.4byte	.LVL79
 4485 0458 0A020000 		.4byte	.LVL80
 4486 045c 0300     		.2byte	0x3
 4487 045e 91       		.byte	0x91
 4488 045f B87F     		.sleb128 -72
 4489 0461 48020000 		.4byte	.LVL83
 4490 0465 64020000 		.4byte	.LVL89
 4491 0469 0300     		.2byte	0x3
 4492 046b 91       		.byte	0x91
 4493 046c B87F     		.sleb128 -72
 4494 046e 00000000 		.4byte	0
 4495 0472 00000000 		.4byte	0
 4496              	.LLST21:
 4497 0476 60000000 		.4byte	.LVL25
 4498 047a 6A000000 		.4byte	.LVL26
ARM GAS  C:\Users\pearlstl\AppData\Local\Temp\ccILyAHD.s 			page 99


 4499 047e 0A00     		.2byte	0xa
 4500 0480 91       		.byte	0x91
 4501 0481 BC7F     		.sleb128 -68
 4502 0483 06       		.byte	0x6
 4503 0484 91       		.byte	0x91
 4504 0485 B07F     		.sleb128 -80
 4505 0487 06       		.byte	0x6
 4506 0488 22       		.byte	0x22
 4507 0489 9F       		.byte	0x9f
 4508 048a 6A000000 		.4byte	.LVL26
 4509 048e C2010000 		.4byte	.LVL71
 4510 0492 0100     		.2byte	0x1
 4511 0494 57       		.byte	0x57
 4512 0495 D2010000 		.4byte	.LVL72
 4513 0499 E2010000 		.4byte	.LVL76
 4514 049d 0100     		.2byte	0x1
 4515 049f 57       		.byte	0x57
 4516 04a0 06020000 		.4byte	.LVL79
 4517 04a4 0A020000 		.4byte	.LVL80
 4518 04a8 0100     		.2byte	0x1
 4519 04aa 57       		.byte	0x57
 4520 04ab 48020000 		.4byte	.LVL83
 4521 04af 64020000 		.4byte	.LVL89
 4522 04b3 0100     		.2byte	0x1
 4523 04b5 57       		.byte	0x57
 4524 04b6 00000000 		.4byte	0
 4525 04ba 00000000 		.4byte	0
 4526              	.LLST22:
 4527 04be 8A000000 		.4byte	.LVL27
 4528 04c2 A0000000 		.4byte	.LVL29
 4529 04c6 0200     		.2byte	0x2
 4530 04c8 30       		.byte	0x30
 4531 04c9 9F       		.byte	0x9f
 4532 04ca A0000000 		.4byte	.LVL29
 4533 04ce AA000000 		.4byte	.LVL31
 4534 04d2 0100     		.2byte	0x1
 4535 04d4 50       		.byte	0x50
 4536 04d5 AA000000 		.4byte	.LVL31
 4537 04d9 22010000 		.4byte	.LVL50
 4538 04dd 0100     		.2byte	0x1
 4539 04df 54       		.byte	0x54
 4540 04e0 22010000 		.4byte	.LVL50
 4541 04e4 28010000 		.4byte	.LVL52
 4542 04e8 0100     		.2byte	0x1
 4543 04ea 56       		.byte	0x56
 4544 04eb 28010000 		.4byte	.LVL52
 4545 04ef 32010000 		.4byte	.LVL54
 4546 04f3 0100     		.2byte	0x1
 4547 04f5 54       		.byte	0x54
 4548 04f6 3E010000 		.4byte	.LVL55
 4549 04fa 56010000 		.4byte	.LVL57
 4550 04fe 0100     		.2byte	0x1
 4551 0500 54       		.byte	0x54
 4552 0501 56010000 		.4byte	.LVL57
 4553 0505 58010000 		.4byte	.LVL58
 4554 0509 0100     		.2byte	0x1
 4555 050b 50       		.byte	0x50
ARM GAS  C:\Users\pearlstl\AppData\Local\Temp\ccILyAHD.s 			page 100


 4556 050c 58010000 		.4byte	.LVL58
 4557 0510 7C010000 		.4byte	.LVL62
 4558 0514 0100     		.2byte	0x1
 4559 0516 54       		.byte	0x54
 4560 0517 AE010000 		.4byte	.LVL67
 4561 051b BE010000 		.4byte	.LVL70
 4562 051f 0100     		.2byte	0x1
 4563 0521 54       		.byte	0x54
 4564 0522 D2010000 		.4byte	.LVL72
 4565 0526 DE010000 		.4byte	.LVL75
 4566 052a 0100     		.2byte	0x1
 4567 052c 54       		.byte	0x54
 4568 052d 52020000 		.4byte	.LVL84
 4569 0531 56020000 		.4byte	.LVL86
 4570 0535 0100     		.2byte	0x1
 4571 0537 54       		.byte	0x54
 4572 0538 00000000 		.4byte	0
 4573 053c 00000000 		.4byte	0
 4574              	.LLST23:
 4575 0540 8A000000 		.4byte	.LVL27
 4576 0544 A2000000 		.4byte	.LVL30
 4577 0548 0200     		.2byte	0x2
 4578 054a 30       		.byte	0x30
 4579 054b 9F       		.byte	0x9f
 4580 054c B8000000 		.4byte	.LVL33
 4581 0550 CE000000 		.4byte	.LVL37
 4582 0554 0100     		.2byte	0x1
 4583 0556 50       		.byte	0x50
 4584 0557 CE000000 		.4byte	.LVL37
 4585 055b 28010000 		.4byte	.LVL52
 4586 055f 0100     		.2byte	0x1
 4587 0561 56       		.byte	0x56
 4588 0562 2C010000 		.4byte	.LVL53
 4589 0566 3E010000 		.4byte	.LVL55
 4590 056a 0100     		.2byte	0x1
 4591 056c 56       		.byte	0x56
 4592 056d 3E010000 		.4byte	.LVL55
 4593 0571 58010000 		.4byte	.LVL58
 4594 0575 0100     		.2byte	0x1
 4595 0577 50       		.byte	0x50
 4596 0578 58010000 		.4byte	.LVL58
 4597 057c 7C010000 		.4byte	.LVL62
 4598 0580 0100     		.2byte	0x1
 4599 0582 56       		.byte	0x56
 4600 0583 AE010000 		.4byte	.LVL67
 4601 0587 BE010000 		.4byte	.LVL70
 4602 058b 0100     		.2byte	0x1
 4603 058d 50       		.byte	0x50
 4604 058e D2010000 		.4byte	.LVL72
 4605 0592 D8010000 		.4byte	.LVL74
 4606 0596 0100     		.2byte	0x1
 4607 0598 50       		.byte	0x50
 4608 0599 D8010000 		.4byte	.LVL74
 4609 059d E2010000 		.4byte	.LVL76
 4610 05a1 0100     		.2byte	0x1
 4611 05a3 56       		.byte	0x56
 4612 05a4 48020000 		.4byte	.LVL83
ARM GAS  C:\Users\pearlstl\AppData\Local\Temp\ccILyAHD.s 			page 101


 4613 05a8 60020000 		.4byte	.LVL88
 4614 05ac 0100     		.2byte	0x1
 4615 05ae 56       		.byte	0x56
 4616 05af 00000000 		.4byte	0
 4617 05b3 00000000 		.4byte	0
 4618              	.LLST24:
 4619 05b7 D4000000 		.4byte	.LVL39
 4620 05bb FE000000 		.4byte	.LVL44
 4621 05bf 0100     		.2byte	0x1
 4622 05c1 50       		.byte	0x50
 4623 05c2 58010000 		.4byte	.LVL58
 4624 05c6 70010000 		.4byte	.LVL61
 4625 05ca 0100     		.2byte	0x1
 4626 05cc 50       		.byte	0x50
 4627 05cd 00000000 		.4byte	0
 4628 05d1 00000000 		.4byte	0
 4629              	.LLST25:
 4630 05d5 8A000000 		.4byte	.LVL27
 4631 05d9 A2000000 		.4byte	.LVL30
 4632 05dd 0200     		.2byte	0x2
 4633 05df 30       		.byte	0x30
 4634 05e0 9F       		.byte	0x9f
 4635 05e1 E2000000 		.4byte	.LVL40
 4636 05e5 E6000000 		.4byte	.LVL41
 4637 05e9 0100     		.2byte	0x1
 4638 05eb 55       		.byte	0x55
 4639 05ec EC000000 		.4byte	.LVL42
 4640 05f0 22010000 		.4byte	.LVL50
 4641 05f4 0100     		.2byte	0x1
 4642 05f6 55       		.byte	0x55
 4643 05f7 58010000 		.4byte	.LVL58
 4644 05fb 7C010000 		.4byte	.LVL62
 4645 05ff 0100     		.2byte	0x1
 4646 0601 55       		.byte	0x55
 4647 0602 D8010000 		.4byte	.LVL74
 4648 0606 E2010000 		.4byte	.LVL76
 4649 060a 0100     		.2byte	0x1
 4650 060c 55       		.byte	0x55
 4651 060d 52020000 		.4byte	.LVL84
 4652 0611 60020000 		.4byte	.LVL88
 4653 0615 0100     		.2byte	0x1
 4654 0617 55       		.byte	0x55
 4655 0618 00000000 		.4byte	0
 4656 061c 00000000 		.4byte	0
 4657              	.LLST26:
 4658 0620 8A000000 		.4byte	.LVL27
 4659 0624 A2000000 		.4byte	.LVL30
 4660 0628 0200     		.2byte	0x2
 4661 062a 30       		.byte	0x30
 4662 062b 9F       		.byte	0x9f
 4663 062c A2000000 		.4byte	.LVL30
 4664 0630 BC000000 		.4byte	.LVL34
 4665 0634 0100     		.2byte	0x1
 4666 0636 58       		.byte	0x58
 4667 0637 BC000000 		.4byte	.LVL34
 4668 063b D3000000 		.4byte	.LVL39-1
 4669 063f 0100     		.2byte	0x1
ARM GAS  C:\Users\pearlstl\AppData\Local\Temp\ccILyAHD.s 			page 102


 4670 0641 53       		.byte	0x53
 4671 0642 D3000000 		.4byte	.LVL39-1
 4672 0646 22010000 		.4byte	.LVL50
 4673 064a 0300     		.2byte	0x3
 4674 064c 91       		.byte	0x91
 4675 064d 9C7F     		.sleb128 -100
 4676 064f 22010000 		.4byte	.LVL50
 4677 0653 24010000 		.4byte	.LVL51
 4678 0657 0300     		.2byte	0x3
 4679 0659 78       		.byte	0x78
 4680 065a 01       		.sleb128 1
 4681 065b 9F       		.byte	0x9f
 4682 065c 28010000 		.4byte	.LVL52
 4683 0660 3E010000 		.4byte	.LVL55
 4684 0664 0100     		.2byte	0x1
 4685 0666 58       		.byte	0x58
 4686 0667 3E010000 		.4byte	.LVL55
 4687 066b 58010000 		.4byte	.LVL58
 4688 066f 0100     		.2byte	0x1
 4689 0671 53       		.byte	0x53
 4690 0672 58010000 		.4byte	.LVL58
 4691 0676 7C010000 		.4byte	.LVL62
 4692 067a 0300     		.2byte	0x3
 4693 067c 91       		.byte	0x91
 4694 067d 9C7F     		.sleb128 -100
 4695 067f 7C010000 		.4byte	.LVL62
 4696 0683 8E010000 		.4byte	.LVL63
 4697 0687 0100     		.2byte	0x1
 4698 0689 58       		.byte	0x58
 4699 068a AE010000 		.4byte	.LVL67
 4700 068e BE010000 		.4byte	.LVL70
 4701 0692 0100     		.2byte	0x1
 4702 0694 53       		.byte	0x53
 4703 0695 BE010000 		.4byte	.LVL70
 4704 0699 C2010000 		.4byte	.LVL71
 4705 069d 0100     		.2byte	0x1
 4706 069f 58       		.byte	0x58
 4707 06a0 D2010000 		.4byte	.LVL72
 4708 06a4 D8010000 		.4byte	.LVL74
 4709 06a8 0100     		.2byte	0x1
 4710 06aa 53       		.byte	0x53
 4711 06ab D8010000 		.4byte	.LVL74
 4712 06af DE010000 		.4byte	.LVL75
 4713 06b3 0300     		.2byte	0x3
 4714 06b5 91       		.byte	0x91
 4715 06b6 9C7F     		.sleb128 -100
 4716 06b8 DE010000 		.4byte	.LVL75
 4717 06bc E2010000 		.4byte	.LVL76
 4718 06c0 0100     		.2byte	0x1
 4719 06c2 58       		.byte	0x58
 4720 06c3 06020000 		.4byte	.LVL79
 4721 06c7 0A020000 		.4byte	.LVL80
 4722 06cb 0100     		.2byte	0x1
 4723 06cd 58       		.byte	0x58
 4724 06ce 48020000 		.4byte	.LVL83
 4725 06d2 52020000 		.4byte	.LVL84
 4726 06d6 0100     		.2byte	0x1
ARM GAS  C:\Users\pearlstl\AppData\Local\Temp\ccILyAHD.s 			page 103


 4727 06d8 58       		.byte	0x58
 4728 06d9 52020000 		.4byte	.LVL84
 4729 06dd 54020000 		.4byte	.LVL85
 4730 06e1 0300     		.2byte	0x3
 4731 06e3 91       		.byte	0x91
 4732 06e4 9C7F     		.sleb128 -100
 4733 06e6 54020000 		.4byte	.LVL85
 4734 06ea 60020000 		.4byte	.LVL88
 4735 06ee 0100     		.2byte	0x1
 4736 06f0 58       		.byte	0x58
 4737 06f1 00000000 		.4byte	0
 4738 06f5 00000000 		.4byte	0
 4739              	.LLST27:
 4740 06f9 8A000000 		.4byte	.LVL27
 4741 06fd A2000000 		.4byte	.LVL30
 4742 0701 0300     		.2byte	0x3
 4743 0703 09       		.byte	0x9
 4744 0704 FF       		.byte	0xff
 4745 0705 9F       		.byte	0x9f
 4746 0706 A2000000 		.4byte	.LVL30
 4747 070a 32010000 		.4byte	.LVL54
 4748 070e 0200     		.2byte	0x2
 4749 0710 7D       		.byte	0x7d
 4750 0711 00       		.sleb128 0
 4751 0712 3E010000 		.4byte	.LVL55
 4752 0716 66010000 		.4byte	.LVL59
 4753 071a 0200     		.2byte	0x2
 4754 071c 7D       		.byte	0x7d
 4755 071d 00       		.sleb128 0
 4756 071e 66010000 		.4byte	.LVL59
 4757 0722 6E010000 		.4byte	.LVL60
 4758 0726 0100     		.2byte	0x1
 4759 0728 52       		.byte	0x52
 4760 0729 6E010000 		.4byte	.LVL60
 4761 072d AA010000 		.4byte	.LVL66
 4762 0731 0200     		.2byte	0x2
 4763 0733 7D       		.byte	0x7d
 4764 0734 00       		.sleb128 0
 4765 0735 AE010000 		.4byte	.LVL67
 4766 0739 C2010000 		.4byte	.LVL71
 4767 073d 0200     		.2byte	0x2
 4768 073f 7D       		.byte	0x7d
 4769 0740 00       		.sleb128 0
 4770 0741 D2010000 		.4byte	.LVL72
 4771 0745 E2010000 		.4byte	.LVL76
 4772 0749 0200     		.2byte	0x2
 4773 074b 7D       		.byte	0x7d
 4774 074c 00       		.sleb128 0
 4775 074d 06020000 		.4byte	.LVL79
 4776 0751 0A020000 		.4byte	.LVL80
 4777 0755 0200     		.2byte	0x2
 4778 0757 7D       		.byte	0x7d
 4779 0758 00       		.sleb128 0
 4780 0759 52020000 		.4byte	.LVL84
 4781 075d 54020000 		.4byte	.LVL85
 4782 0761 0200     		.2byte	0x2
 4783 0763 7D       		.byte	0x7d
ARM GAS  C:\Users\pearlstl\AppData\Local\Temp\ccILyAHD.s 			page 104


 4784 0764 00       		.sleb128 0
 4785 0765 54020000 		.4byte	.LVL85
 4786 0769 56020000 		.4byte	.LVL86
 4787 076d 0300     		.2byte	0x3
 4788 076f 09       		.byte	0x9
 4789 0770 FF       		.byte	0xff
 4790 0771 9F       		.byte	0x9f
 4791 0772 60020000 		.4byte	.LVL88
 4792 0776 64020000 		.4byte	.LVL89
 4793 077a 0100     		.2byte	0x1
 4794 077c 53       		.byte	0x53
 4795 077d 00000000 		.4byte	0
 4796 0781 00000000 		.4byte	0
 4797              	.LLST28:
 4798 0785 8A000000 		.4byte	.LVL27
 4799 0789 AA000000 		.4byte	.LVL31
 4800 078d 0200     		.2byte	0x2
 4801 078f 30       		.byte	0x30
 4802 0790 9F       		.byte	0x9f
 4803 0791 66010000 		.4byte	.LVL59
 4804 0795 6E010000 		.4byte	.LVL60
 4805 0799 0100     		.2byte	0x1
 4806 079b 58       		.byte	0x58
 4807 079c 00000000 		.4byte	0
 4808 07a0 00000000 		.4byte	0
 4809              	.LLST29:
 4810 07a4 BE000000 		.4byte	.LVL35
 4811 07a8 C8000000 		.4byte	.LVL36
 4812 07ac 0100     		.2byte	0x1
 4813 07ae 54       		.byte	0x54
 4814 07af 3E010000 		.4byte	.LVL55
 4815 07b3 4E010000 		.4byte	.LVL56
 4816 07b7 0100     		.2byte	0x1
 4817 07b9 54       		.byte	0x54
 4818 07ba AE010000 		.4byte	.LVL67
 4819 07be B2010000 		.4byte	.LVL68
 4820 07c2 0100     		.2byte	0x1
 4821 07c4 54       		.byte	0x54
 4822 07c5 B4010000 		.4byte	.LVL69
 4823 07c9 BE010000 		.4byte	.LVL70
 4824 07cd 0100     		.2byte	0x1
 4825 07cf 54       		.byte	0x54
 4826 07d0 D2010000 		.4byte	.LVL72
 4827 07d4 D8010000 		.4byte	.LVL74
 4828 07d8 0100     		.2byte	0x1
 4829 07da 54       		.byte	0x54
 4830 07db 00000000 		.4byte	0
 4831 07df 00000000 		.4byte	0
 4832              	.LLST30:
 4833 07e3 BE000000 		.4byte	.LVL35
 4834 07e7 C8000000 		.4byte	.LVL36
 4835 07eb 0600     		.2byte	0x6
 4836 07ed F2       		.byte	0xf2
 4837 07ee 52060000 		.4byte	.Ldebug_info0+1618
 4838 07f2 00       		.sleb128 0
 4839 07f3 3E010000 		.4byte	.LVL55
 4840 07f7 4E010000 		.4byte	.LVL56
ARM GAS  C:\Users\pearlstl\AppData\Local\Temp\ccILyAHD.s 			page 105


 4841 07fb 0600     		.2byte	0x6
 4842 07fd F2       		.byte	0xf2
 4843 07fe 52060000 		.4byte	.Ldebug_info0+1618
 4844 0802 00       		.sleb128 0
 4845 0803 AE010000 		.4byte	.LVL67
 4846 0807 B2010000 		.4byte	.LVL68
 4847 080b 0600     		.2byte	0x6
 4848 080d F2       		.byte	0xf2
 4849 080e 52060000 		.4byte	.Ldebug_info0+1618
 4850 0812 00       		.sleb128 0
 4851 0813 B4010000 		.4byte	.LVL69
 4852 0817 BE010000 		.4byte	.LVL70
 4853 081b 0600     		.2byte	0x6
 4854 081d F2       		.byte	0xf2
 4855 081e 52060000 		.4byte	.Ldebug_info0+1618
 4856 0822 00       		.sleb128 0
 4857 0823 D2010000 		.4byte	.LVL72
 4858 0827 D8010000 		.4byte	.LVL74
 4859 082b 0600     		.2byte	0x6
 4860 082d F2       		.byte	0xf2
 4861 082e 52060000 		.4byte	.Ldebug_info0+1618
 4862 0832 00       		.sleb128 0
 4863 0833 00000000 		.4byte	0
 4864 0837 00000000 		.4byte	0
 4865              	.LLST31:
 4866 083b BE000000 		.4byte	.LVL35
 4867 083f C8000000 		.4byte	.LVL36
 4868 0843 0200     		.2byte	0x2
 4869 0845 30       		.byte	0x30
 4870 0846 9F       		.byte	0x9f
 4871 0847 3E010000 		.4byte	.LVL55
 4872 084b 4E010000 		.4byte	.LVL56
 4873 084f 0200     		.2byte	0x2
 4874 0851 30       		.byte	0x30
 4875 0852 9F       		.byte	0x9f
 4876 0853 AE010000 		.4byte	.LVL67
 4877 0857 B2010000 		.4byte	.LVL68
 4878 085b 0200     		.2byte	0x2
 4879 085d 30       		.byte	0x30
 4880 085e 9F       		.byte	0x9f
 4881 085f D2010000 		.4byte	.LVL72
 4882 0863 D8010000 		.4byte	.LVL74
 4883 0867 0200     		.2byte	0x2
 4884 0869 30       		.byte	0x30
 4885 086a 9F       		.byte	0x9f
 4886 086b 00000000 		.4byte	0
 4887 086f 00000000 		.4byte	0
 4888              	.LLST32:
 4889 0873 F6000000 		.4byte	.LVL43
 4890 0877 FE000000 		.4byte	.LVL44
 4891 087b 0200     		.2byte	0x2
 4892 087d 30       		.byte	0x30
 4893 087e 9F       		.byte	0x9f
 4894 087f FE000000 		.4byte	.LVL44
 4895 0883 04010000 		.4byte	.LVL46
 4896 0887 0100     		.2byte	0x1
 4897 0889 52       		.byte	0x52
ARM GAS  C:\Users\pearlstl\AppData\Local\Temp\ccILyAHD.s 			page 106


 4898 088a 06010000 		.4byte	.LVL47
 4899 088e 10010000 		.4byte	.LVL48
 4900 0892 0100     		.2byte	0x1
 4901 0894 52       		.byte	0x52
 4902 0895 00000000 		.4byte	0
 4903 0899 00000000 		.4byte	0
 4904              	.LLST33:
 4905 089d 8E010000 		.4byte	.LVL63
 4906 08a1 A2010000 		.4byte	.LVL64
 4907 08a5 0100     		.2byte	0x1
 4908 08a7 58       		.byte	0x58
 4909 08a8 A2010000 		.4byte	.LVL64
 4910 08ac A6010000 		.4byte	.LVL65
 4911 08b0 0300     		.2byte	0x3
 4912 08b2 78       		.byte	0x78
 4913 08b3 7F       		.sleb128 -1
 4914 08b4 9F       		.byte	0x9f
 4915 08b5 A6010000 		.4byte	.LVL65
 4916 08b9 AA010000 		.4byte	.LVL66
 4917 08bd 0100     		.2byte	0x1
 4918 08bf 58       		.byte	0x58
 4919 08c0 60020000 		.4byte	.LVL88
 4920 08c4 64020000 		.4byte	.LVL89
 4921 08c8 0100     		.2byte	0x1
 4922 08ca 58       		.byte	0x58
 4923 08cb 00000000 		.4byte	0
 4924 08cf 00000000 		.4byte	0
 4925              	.LLST34:
 4926 08d3 00000000 		.4byte	.LVL92
 4927 08d7 36000000 		.4byte	.LVL94
 4928 08db 0100     		.2byte	0x1
 4929 08dd 50       		.byte	0x50
 4930 08de 36000000 		.4byte	.LVL94
 4931 08e2 8C000000 		.4byte	.LVL107
 4932 08e6 0100     		.2byte	0x1
 4933 08e8 55       		.byte	0x55
 4934 08e9 8C000000 		.4byte	.LVL107
 4935 08ed 8E000000 		.4byte	.LVL108
 4936 08f1 0100     		.2byte	0x1
 4937 08f3 50       		.byte	0x50
 4938 08f4 8E000000 		.4byte	.LVL108
 4939 08f8 94000000 		.4byte	.LVL109
 4940 08fc 0400     		.2byte	0x4
 4941 08fe F3       		.byte	0xf3
 4942 08ff 01       		.uleb128 0x1
 4943 0900 50       		.byte	0x50
 4944 0901 9F       		.byte	0x9f
 4945 0902 94000000 		.4byte	.LVL109
 4946 0906 98000000 		.4byte	.LVL110
 4947 090a 0100     		.2byte	0x1
 4948 090c 50       		.byte	0x50
 4949 090d 98000000 		.4byte	.LVL110
 4950 0911 F8000000 		.4byte	.LFE7
 4951 0915 0100     		.2byte	0x1
 4952 0917 55       		.byte	0x55
 4953 0918 00000000 		.4byte	0
 4954 091c 00000000 		.4byte	0
ARM GAS  C:\Users\pearlstl\AppData\Local\Temp\ccILyAHD.s 			page 107


 4955              	.LLST35:
 4956 0920 00000000 		.4byte	.LVL92
 4957 0924 36000000 		.4byte	.LVL94
 4958 0928 0100     		.2byte	0x1
 4959 092a 51       		.byte	0x51
 4960 092b 36000000 		.4byte	.LVL94
 4961 092f 8C000000 		.4byte	.LVL107
 4962 0933 0400     		.2byte	0x4
 4963 0935 F3       		.byte	0xf3
 4964 0936 01       		.uleb128 0x1
 4965 0937 51       		.byte	0x51
 4966 0938 9F       		.byte	0x9f
 4967 0939 8C000000 		.4byte	.LVL107
 4968 093d 98000000 		.4byte	.LVL110
 4969 0941 0100     		.2byte	0x1
 4970 0943 51       		.byte	0x51
 4971 0944 98000000 		.4byte	.LVL110
 4972 0948 F8000000 		.4byte	.LFE7
 4973 094c 0400     		.2byte	0x4
 4974 094e F3       		.byte	0xf3
 4975 094f 01       		.uleb128 0x1
 4976 0950 51       		.byte	0x51
 4977 0951 9F       		.byte	0x9f
 4978 0952 00000000 		.4byte	0
 4979 0956 00000000 		.4byte	0
 4980              	.LLST36:
 4981 095a 00000000 		.4byte	.LVL92
 4982 095e 36000000 		.4byte	.LVL94
 4983 0962 0100     		.2byte	0x1
 4984 0964 52       		.byte	0x52
 4985 0965 36000000 		.4byte	.LVL94
 4986 0969 8C000000 		.4byte	.LVL107
 4987 096d 0100     		.2byte	0x1
 4988 096f 59       		.byte	0x59
 4989 0970 8C000000 		.4byte	.LVL107
 4990 0974 98000000 		.4byte	.LVL110
 4991 0978 0100     		.2byte	0x1
 4992 097a 52       		.byte	0x52
 4993 097b 98000000 		.4byte	.LVL110
 4994 097f F8000000 		.4byte	.LFE7
 4995 0983 0100     		.2byte	0x1
 4996 0985 59       		.byte	0x59
 4997 0986 00000000 		.4byte	0
 4998 098a 00000000 		.4byte	0
 4999              	.LLST37:
 5000 098e 00000000 		.4byte	.LVL92
 5001 0992 36000000 		.4byte	.LVL94
 5002 0996 0100     		.2byte	0x1
 5003 0998 53       		.byte	0x53
 5004 0999 36000000 		.4byte	.LVL94
 5005 099d 8C000000 		.4byte	.LVL107
 5006 09a1 0400     		.2byte	0x4
 5007 09a3 F3       		.byte	0xf3
 5008 09a4 01       		.uleb128 0x1
 5009 09a5 53       		.byte	0x53
 5010 09a6 9F       		.byte	0x9f
 5011 09a7 8C000000 		.4byte	.LVL107
ARM GAS  C:\Users\pearlstl\AppData\Local\Temp\ccILyAHD.s 			page 108


 5012 09ab 98000000 		.4byte	.LVL110
 5013 09af 0100     		.2byte	0x1
 5014 09b1 53       		.byte	0x53
 5015 09b2 98000000 		.4byte	.LVL110
 5016 09b6 F8000000 		.4byte	.LFE7
 5017 09ba 0400     		.2byte	0x4
 5018 09bc F3       		.byte	0xf3
 5019 09bd 01       		.uleb128 0x1
 5020 09be 53       		.byte	0x53
 5021 09bf 9F       		.byte	0x9f
 5022 09c0 00000000 		.4byte	0
 5023 09c4 00000000 		.4byte	0
 5024              	.LLST38:
 5025 09c8 00000000 		.4byte	.LVL92
 5026 09cc 94000000 		.4byte	.LVL109
 5027 09d0 0200     		.2byte	0x2
 5028 09d2 91       		.byte	0x91
 5029 09d3 00       		.sleb128 0
 5030 09d4 94000000 		.4byte	.LVL109
 5031 09d8 F8000000 		.4byte	.LFE7
 5032 09dc 0200     		.2byte	0x2
 5033 09de 91       		.byte	0x91
 5034 09df 00       		.sleb128 0
 5035 09e0 00000000 		.4byte	0
 5036 09e4 00000000 		.4byte	0
 5037              	.LLST39:
 5038 09e8 1A000000 		.4byte	.LVL93
 5039 09ec 36000000 		.4byte	.LVL94
 5040 09f0 0200     		.2byte	0x2
 5041 09f2 30       		.byte	0x30
 5042 09f3 9F       		.byte	0x9f
 5043 09f4 36000000 		.4byte	.LVL94
 5044 09f8 4C000000 		.4byte	.LVL98
 5045 09fc 0100     		.2byte	0x1
 5046 09fe 54       		.byte	0x54
 5047 09ff 4C000000 		.4byte	.LVL98
 5048 0a03 50000000 		.4byte	.LVL99
 5049 0a07 0600     		.2byte	0x6
 5050 0a09 70       		.byte	0x70
 5051 0a0a 00       		.sleb128 0
 5052 0a0b 74       		.byte	0x74
 5053 0a0c 00       		.sleb128 0
 5054 0a0d 22       		.byte	0x22
 5055 0a0e 9F       		.byte	0x9f
 5056 0a0f 54000000 		.4byte	.LVL100
 5057 0a13 8C000000 		.4byte	.LVL107
 5058 0a17 0100     		.2byte	0x1
 5059 0a19 54       		.byte	0x54
 5060 0a1a 94000000 		.4byte	.LVL109
 5061 0a1e 98000000 		.4byte	.LVL110
 5062 0a22 0200     		.2byte	0x2
 5063 0a24 30       		.byte	0x30
 5064 0a25 9F       		.byte	0x9f
 5065 0a26 98000000 		.4byte	.LVL110
 5066 0a2a B6000000 		.4byte	.LVL116
 5067 0a2e 0100     		.2byte	0x1
 5068 0a30 54       		.byte	0x54
ARM GAS  C:\Users\pearlstl\AppData\Local\Temp\ccILyAHD.s 			page 109


 5069 0a31 B6000000 		.4byte	.LVL116
 5070 0a35 C2000000 		.4byte	.LVL117
 5071 0a39 0600     		.2byte	0x6
 5072 0a3b 70       		.byte	0x70
 5073 0a3c 00       		.sleb128 0
 5074 0a3d 74       		.byte	0x74
 5075 0a3e 00       		.sleb128 0
 5076 0a3f 22       		.byte	0x22
 5077 0a40 9F       		.byte	0x9f
 5078 0a41 C6000000 		.4byte	.LVL119
 5079 0a45 D2000000 		.4byte	.LVL121
 5080 0a49 0100     		.2byte	0x1
 5081 0a4b 54       		.byte	0x54
 5082 0a4c DC000000 		.4byte	.LVL122
 5083 0a50 F8000000 		.4byte	.LFE7
 5084 0a54 0100     		.2byte	0x1
 5085 0a56 54       		.byte	0x54
 5086 0a57 00000000 		.4byte	0
 5087 0a5b 00000000 		.4byte	0
 5088              	.LLST40:
 5089 0a5f 1A000000 		.4byte	.LVL93
 5090 0a63 36000000 		.4byte	.LVL94
 5091 0a67 0200     		.2byte	0x2
 5092 0a69 30       		.byte	0x30
 5093 0a6a 9F       		.byte	0x9f
 5094 0a6b 36000000 		.4byte	.LVL94
 5095 0a6f 8A000000 		.4byte	.LVL106
 5096 0a73 0100     		.2byte	0x1
 5097 0a75 58       		.byte	0x58
 5098 0a76 94000000 		.4byte	.LVL109
 5099 0a7a CA000000 		.4byte	.LVL120
 5100 0a7e 0200     		.2byte	0x2
 5101 0a80 30       		.byte	0x30
 5102 0a81 9F       		.byte	0x9f
 5103 0a82 E8000000 		.4byte	.LVL123
 5104 0a86 EC000000 		.4byte	.LVL124
 5105 0a8a 0100     		.2byte	0x1
 5106 0a8c 58       		.byte	0x58
 5107 0a8d EC000000 		.4byte	.LVL124
 5108 0a91 EE000000 		.4byte	.LVL125
 5109 0a95 0200     		.2byte	0x2
 5110 0a97 31       		.byte	0x31
 5111 0a98 9F       		.byte	0x9f
 5112 0a99 EE000000 		.4byte	.LVL125
 5113 0a9d F2000000 		.4byte	.LVL126
 5114 0aa1 0100     		.2byte	0x1
 5115 0aa3 58       		.byte	0x58
 5116 0aa4 F2000000 		.4byte	.LVL126
 5117 0aa8 F8000000 		.4byte	.LFE7
 5118 0aac 0200     		.2byte	0x2
 5119 0aae 30       		.byte	0x30
 5120 0aaf 9F       		.byte	0x9f
 5121 0ab0 00000000 		.4byte	0
 5122 0ab4 00000000 		.4byte	0
 5123              	.LLST41:
 5124 0ab8 36000000 		.4byte	.LVL94
 5125 0abc 5A000000 		.4byte	.LVL101
ARM GAS  C:\Users\pearlstl\AppData\Local\Temp\ccILyAHD.s 			page 110


 5126 0ac0 0100     		.2byte	0x1
 5127 0ac2 5A       		.byte	0x5a
 5128 0ac3 64000000 		.4byte	.LVL103
 5129 0ac7 66000000 		.4byte	.LVL104
 5130 0acb 0100     		.2byte	0x1
 5131 0acd 50       		.byte	0x50
 5132 0ace 66000000 		.4byte	.LVL104
 5133 0ad2 8C000000 		.4byte	.LVL107
 5134 0ad6 0100     		.2byte	0x1
 5135 0ad8 5A       		.byte	0x5a
 5136 0ad9 A2000000 		.4byte	.LVL112
 5137 0add A4000000 		.4byte	.LVL113
 5138 0ae1 0100     		.2byte	0x1
 5139 0ae3 50       		.byte	0x50
 5140 0ae4 A4000000 		.4byte	.LVL113
 5141 0ae8 CA000000 		.4byte	.LVL120
 5142 0aec 0100     		.2byte	0x1
 5143 0aee 58       		.byte	0x58
 5144 0aef DC000000 		.4byte	.LVL122
 5145 0af3 F8000000 		.4byte	.LFE7
 5146 0af7 0100     		.2byte	0x1
 5147 0af9 5A       		.byte	0x5a
 5148 0afa 00000000 		.4byte	0
 5149 0afe 00000000 		.4byte	0
 5150              	.LLST42:
 5151 0b02 36000000 		.4byte	.LVL94
 5152 0b06 42000000 		.4byte	.LVL96
 5153 0b0a 0100     		.2byte	0x1
 5154 0b0c 50       		.byte	0x50
 5155 0b0d 42000000 		.4byte	.LVL96
 5156 0b11 45000000 		.4byte	.LVL97-1
 5157 0b15 0100     		.2byte	0x1
 5158 0b17 52       		.byte	0x52
 5159 0b18 6E000000 		.4byte	.LVL105
 5160 0b1c 8C000000 		.4byte	.LVL107
 5161 0b20 0100     		.2byte	0x1
 5162 0b22 50       		.byte	0x50
 5163 0b23 AC000000 		.4byte	.LVL114
 5164 0b27 B2000000 		.4byte	.LVL115
 5165 0b2b 0100     		.2byte	0x1
 5166 0b2d 50       		.byte	0x50
 5167 0b2e B2000000 		.4byte	.LVL115
 5168 0b32 B5000000 		.4byte	.LVL116-1
 5169 0b36 0100     		.2byte	0x1
 5170 0b38 52       		.byte	0x52
 5171 0b39 DC000000 		.4byte	.LVL122
 5172 0b3d F8000000 		.4byte	.LFE7
 5173 0b41 0100     		.2byte	0x1
 5174 0b43 50       		.byte	0x50
 5175 0b44 00000000 		.4byte	0
 5176 0b48 00000000 		.4byte	0
 5177              	.LLST43:
 5178 0b4c 46000000 		.4byte	.LVL97
 5179 0b50 54000000 		.4byte	.LVL100
 5180 0b54 0100     		.2byte	0x1
 5181 0b56 50       		.byte	0x50
 5182 0b57 B6000000 		.4byte	.LVL116
ARM GAS  C:\Users\pearlstl\AppData\Local\Temp\ccILyAHD.s 			page 111


 5183 0b5b C4000000 		.4byte	.LVL118
 5184 0b5f 0100     		.2byte	0x1
 5185 0b61 50       		.byte	0x50
 5186 0b62 00000000 		.4byte	0
 5187 0b66 00000000 		.4byte	0
 5188              	.LLST44:
 5189 0b6a 36000000 		.4byte	.LVL94
 5190 0b6e 54000000 		.4byte	.LVL100
 5191 0b72 0100     		.2byte	0x1
 5192 0b74 5A       		.byte	0x5a
 5193 0b75 6E000000 		.4byte	.LVL105
 5194 0b79 8C000000 		.4byte	.LVL107
 5195 0b7d 0100     		.2byte	0x1
 5196 0b7f 5A       		.byte	0x5a
 5197 0b80 DC000000 		.4byte	.LVL122
 5198 0b84 EC000000 		.4byte	.LVL124
 5199 0b88 0100     		.2byte	0x1
 5200 0b8a 5A       		.byte	0x5a
 5201 0b8b EE000000 		.4byte	.LVL125
 5202 0b8f F8000000 		.4byte	.LFE7
 5203 0b93 0100     		.2byte	0x1
 5204 0b95 5A       		.byte	0x5a
 5205 0b96 00000000 		.4byte	0
 5206 0b9a 00000000 		.4byte	0
 5207              	.LLST45:
 5208 0b9e 36000000 		.4byte	.LVL94
 5209 0ba2 54000000 		.4byte	.LVL100
 5210 0ba6 0600     		.2byte	0x6
 5211 0ba8 F2       		.byte	0xf2
 5212 0ba9 D0080000 		.4byte	.Ldebug_info0+2256
 5213 0bad 00       		.sleb128 0
 5214 0bae 6E000000 		.4byte	.LVL105
 5215 0bb2 8C000000 		.4byte	.LVL107
 5216 0bb6 0600     		.2byte	0x6
 5217 0bb8 F2       		.byte	0xf2
 5218 0bb9 D0080000 		.4byte	.Ldebug_info0+2256
 5219 0bbd 00       		.sleb128 0
 5220 0bbe DC000000 		.4byte	.LVL122
 5221 0bc2 EC000000 		.4byte	.LVL124
 5222 0bc6 0600     		.2byte	0x6
 5223 0bc8 F2       		.byte	0xf2
 5224 0bc9 D0080000 		.4byte	.Ldebug_info0+2256
 5225 0bcd 00       		.sleb128 0
 5226 0bce EE000000 		.4byte	.LVL125
 5227 0bd2 F8000000 		.4byte	.LFE7
 5228 0bd6 0600     		.2byte	0x6
 5229 0bd8 F2       		.byte	0xf2
 5230 0bd9 D0080000 		.4byte	.Ldebug_info0+2256
 5231 0bdd 00       		.sleb128 0
 5232 0bde 00000000 		.4byte	0
 5233 0be2 00000000 		.4byte	0
 5234              	.LLST46:
 5235 0be6 36000000 		.4byte	.LVL94
 5236 0bea 54000000 		.4byte	.LVL100
 5237 0bee 0200     		.2byte	0x2
 5238 0bf0 30       		.byte	0x30
 5239 0bf1 9F       		.byte	0x9f
ARM GAS  C:\Users\pearlstl\AppData\Local\Temp\ccILyAHD.s 			page 112


 5240 0bf2 6E000000 		.4byte	.LVL105
 5241 0bf6 8C000000 		.4byte	.LVL107
 5242 0bfa 0200     		.2byte	0x2
 5243 0bfc 30       		.byte	0x30
 5244 0bfd 9F       		.byte	0x9f
 5245 0bfe E8000000 		.4byte	.LVL123
 5246 0c02 EC000000 		.4byte	.LVL124
 5247 0c06 0200     		.2byte	0x2
 5248 0c08 30       		.byte	0x30
 5249 0c09 9F       		.byte	0x9f
 5250 0c0a EE000000 		.4byte	.LVL125
 5251 0c0e F8000000 		.4byte	.LFE7
 5252 0c12 0200     		.2byte	0x2
 5253 0c14 30       		.byte	0x30
 5254 0c15 9F       		.byte	0x9f
 5255 0c16 00000000 		.4byte	0
 5256 0c1a 00000000 		.4byte	0
 5257              	.LLST47:
 5258 0c1e 00000000 		.4byte	.LVL127
 5259 0c22 56000000 		.4byte	.LVL132
 5260 0c26 0100     		.2byte	0x1
 5261 0c28 50       		.byte	0x50
 5262 0c29 56000000 		.4byte	.LVL132
 5263 0c2d B0000000 		.4byte	.LVL139
 5264 0c31 0100     		.2byte	0x1
 5265 0c33 55       		.byte	0x55
 5266 0c34 B0000000 		.4byte	.LVL139
 5267 0c38 B6000000 		.4byte	.LVL140
 5268 0c3c 0400     		.2byte	0x4
 5269 0c3e F3       		.byte	0xf3
 5270 0c3f 01       		.uleb128 0x1
 5271 0c40 50       		.byte	0x50
 5272 0c41 9F       		.byte	0x9f
 5273 0c42 B6000000 		.4byte	.LVL140
 5274 0c46 F4000000 		.4byte	.LFE4
 5275 0c4a 0100     		.2byte	0x1
 5276 0c4c 55       		.byte	0x55
 5277 0c4d 00000000 		.4byte	0
 5278 0c51 00000000 		.4byte	0
 5279              	.LLST48:
 5280 0c55 00000000 		.4byte	.LVL127
 5281 0c59 34000000 		.4byte	.LVL130
 5282 0c5d 0100     		.2byte	0x1
 5283 0c5f 51       		.byte	0x51
 5284 0c60 34000000 		.4byte	.LVL130
 5285 0c64 56000000 		.4byte	.LVL132
 5286 0c68 0100     		.2byte	0x1
 5287 0c6a 57       		.byte	0x57
 5288 0c6b 56000000 		.4byte	.LVL132
 5289 0c6f B0000000 		.4byte	.LVL139
 5290 0c73 0100     		.2byte	0x1
 5291 0c75 5A       		.byte	0x5a
 5292 0c76 B0000000 		.4byte	.LVL139
 5293 0c7a B6000000 		.4byte	.LVL140
 5294 0c7e 0400     		.2byte	0x4
 5295 0c80 F3       		.byte	0xf3
 5296 0c81 01       		.uleb128 0x1
ARM GAS  C:\Users\pearlstl\AppData\Local\Temp\ccILyAHD.s 			page 113


 5297 0c82 51       		.byte	0x51
 5298 0c83 9F       		.byte	0x9f
 5299 0c84 B6000000 		.4byte	.LVL140
 5300 0c88 E8000000 		.4byte	.LVL142
 5301 0c8c 0100     		.2byte	0x1
 5302 0c8e 5A       		.byte	0x5a
 5303 0c8f E8000000 		.4byte	.LVL142
 5304 0c93 F4000000 		.4byte	.LFE4
 5305 0c97 0400     		.2byte	0x4
 5306 0c99 F3       		.byte	0xf3
 5307 0c9a 01       		.uleb128 0x1
 5308 0c9b 51       		.byte	0x51
 5309 0c9c 9F       		.byte	0x9f
 5310 0c9d 00000000 		.4byte	0
 5311 0ca1 00000000 		.4byte	0
 5312              	.LLST49:
 5313 0ca5 00000000 		.4byte	.LVL127
 5314 0ca9 26000000 		.4byte	.LVL128
 5315 0cad 0100     		.2byte	0x1
 5316 0caf 52       		.byte	0x52
 5317 0cb0 26000000 		.4byte	.LVL128
 5318 0cb4 56000000 		.4byte	.LVL132
 5319 0cb8 0100     		.2byte	0x1
 5320 0cba 58       		.byte	0x58
 5321 0cbb 56000000 		.4byte	.LVL132
 5322 0cbf 61000000 		.4byte	.LVL133-1
 5323 0cc3 0100     		.2byte	0x1
 5324 0cc5 52       		.byte	0x52
 5325 0cc6 61000000 		.4byte	.LVL133-1
 5326 0cca B0000000 		.4byte	.LVL139
 5327 0cce 0100     		.2byte	0x1
 5328 0cd0 58       		.byte	0x58
 5329 0cd1 B0000000 		.4byte	.LVL139
 5330 0cd5 B6000000 		.4byte	.LVL140
 5331 0cd9 0100     		.2byte	0x1
 5332 0cdb 52       		.byte	0x52
 5333 0cdc B6000000 		.4byte	.LVL140
 5334 0ce0 F4000000 		.4byte	.LFE4
 5335 0ce4 0100     		.2byte	0x1
 5336 0ce6 58       		.byte	0x58
 5337 0ce7 00000000 		.4byte	0
 5338 0ceb 00000000 		.4byte	0
 5339              	.LLST50:
 5340 0cef 00000000 		.4byte	.LVL127
 5341 0cf3 2C000000 		.4byte	.LVL129
 5342 0cf7 0100     		.2byte	0x1
 5343 0cf9 53       		.byte	0x53
 5344 0cfa 2C000000 		.4byte	.LVL129
 5345 0cfe F4000000 		.4byte	.LFE4
 5346 0d02 0400     		.2byte	0x4
 5347 0d04 F3       		.byte	0xf3
 5348 0d05 01       		.uleb128 0x1
 5349 0d06 53       		.byte	0x53
 5350 0d07 9F       		.byte	0x9f
 5351 0d08 00000000 		.4byte	0
 5352 0d0c 00000000 		.4byte	0
 5353              	.LLST51:
ARM GAS  C:\Users\pearlstl\AppData\Local\Temp\ccILyAHD.s 			page 114


 5354 0d10 00000000 		.4byte	.LVL127
 5355 0d14 B6000000 		.4byte	.LVL140
 5356 0d18 0200     		.2byte	0x2
 5357 0d1a 91       		.byte	0x91
 5358 0d1b 00       		.sleb128 0
 5359 0d1c B6000000 		.4byte	.LVL140
 5360 0d20 F4000000 		.4byte	.LFE4
 5361 0d24 0200     		.2byte	0x2
 5362 0d26 91       		.byte	0x91
 5363 0d27 00       		.sleb128 0
 5364 0d28 00000000 		.4byte	0
 5365 0d2c 00000000 		.4byte	0
 5366              	.LLST52:
 5367 0d30 00000000 		.4byte	.LVL127
 5368 0d34 3E000000 		.4byte	.LVL131
 5369 0d38 0200     		.2byte	0x2
 5370 0d3a 91       		.byte	0x91
 5371 0d3b 04       		.sleb128 4
 5372 0d3c 3E000000 		.4byte	.LVL131
 5373 0d40 B0000000 		.4byte	.LVL139
 5374 0d44 0100     		.2byte	0x1
 5375 0d46 5B       		.byte	0x5b
 5376 0d47 B6000000 		.4byte	.LVL140
 5377 0d4b F4000000 		.4byte	.LFE4
 5378 0d4f 0100     		.2byte	0x1
 5379 0d51 5B       		.byte	0x5b
 5380 0d52 00000000 		.4byte	0
 5381 0d56 00000000 		.4byte	0
 5382              	.LLST53:
 5383 0d5a 00000000 		.4byte	.LVL127
 5384 0d5e B6000000 		.4byte	.LVL140
 5385 0d62 0200     		.2byte	0x2
 5386 0d64 91       		.byte	0x91
 5387 0d65 08       		.sleb128 8
 5388 0d66 B6000000 		.4byte	.LVL140
 5389 0d6a F4000000 		.4byte	.LFE4
 5390 0d6e 0200     		.2byte	0x2
 5391 0d70 91       		.byte	0x91
 5392 0d71 08       		.sleb128 8
 5393 0d72 00000000 		.4byte	0
 5394 0d76 00000000 		.4byte	0
 5395              	.LLST54:
 5396 0d7a 3E000000 		.4byte	.LVL131
 5397 0d7e 56000000 		.4byte	.LVL132
 5398 0d82 0200     		.2byte	0x2
 5399 0d84 30       		.byte	0x30
 5400 0d85 9F       		.byte	0x9f
 5401 0d86 6E000000 		.4byte	.LVL135
 5402 0d8a AE000000 		.4byte	.LVL138
 5403 0d8e 0100     		.2byte	0x1
 5404 0d90 56       		.byte	0x56
 5405 0d91 B6000000 		.4byte	.LVL140
 5406 0d95 E8000000 		.4byte	.LVL142
 5407 0d99 0100     		.2byte	0x1
 5408 0d9b 56       		.byte	0x56
 5409 0d9c 00000000 		.4byte	0
 5410 0da0 00000000 		.4byte	0
ARM GAS  C:\Users\pearlstl\AppData\Local\Temp\ccILyAHD.s 			page 115


 5411              	.LLST55:
 5412 0da4 3E000000 		.4byte	.LVL131
 5413 0da8 56000000 		.4byte	.LVL132
 5414 0dac 0200     		.2byte	0x2
 5415 0dae 30       		.byte	0x30
 5416 0daf 9F       		.byte	0x9f
 5417 0db0 56000000 		.4byte	.LVL132
 5418 0db4 B0000000 		.4byte	.LVL139
 5419 0db8 0100     		.2byte	0x1
 5420 0dba 56       		.byte	0x56
 5421 0dbb B6000000 		.4byte	.LVL140
 5422 0dbf E8000000 		.4byte	.LVL142
 5423 0dc3 0100     		.2byte	0x1
 5424 0dc5 56       		.byte	0x56
 5425 0dc6 00000000 		.4byte	0
 5426 0dca 00000000 		.4byte	0
 5427              	.LLST56:
 5428 0dce 62000000 		.4byte	.LVL133
 5429 0dd2 6C000000 		.4byte	.LVL134
 5430 0dd6 0100     		.2byte	0x1
 5431 0dd8 50       		.byte	0x50
 5432 0dd9 00000000 		.4byte	0
 5433 0ddd 00000000 		.4byte	0
 5434              	.LLST57:
 5435 0de1 00000000 		.4byte	.LVL143
 5436 0de5 0E000000 		.4byte	.LVL144
 5437 0de9 0100     		.2byte	0x1
 5438 0deb 50       		.byte	0x50
 5439 0dec 0E000000 		.4byte	.LVL144
 5440 0df0 10000000 		.4byte	.LVL145
 5441 0df4 0100     		.2byte	0x1
 5442 0df6 52       		.byte	0x52
 5443 0df7 10000000 		.4byte	.LVL145
 5444 0dfb 18000000 		.4byte	.LVL147
 5445 0dff 0100     		.2byte	0x1
 5446 0e01 50       		.byte	0x50
 5447 0e02 18000000 		.4byte	.LVL147
 5448 0e06 1E000000 		.4byte	.LVL148
 5449 0e0a 0100     		.2byte	0x1
 5450 0e0c 52       		.byte	0x52
 5451 0e0d 1E000000 		.4byte	.LVL148
 5452 0e11 2E000000 		.4byte	.LVL150
 5453 0e15 0100     		.2byte	0x1
 5454 0e17 50       		.byte	0x50
 5455 0e18 2E000000 		.4byte	.LVL150
 5456 0e1c 30000000 		.4byte	.LVL151
 5457 0e20 0100     		.2byte	0x1
 5458 0e22 52       		.byte	0x52
 5459 0e23 30000000 		.4byte	.LVL151
 5460 0e27 36000000 		.4byte	.LVL153
 5461 0e2b 0100     		.2byte	0x1
 5462 0e2d 50       		.byte	0x50
 5463 0e2e 36000000 		.4byte	.LVL153
 5464 0e32 38000000 		.4byte	.LVL154
 5465 0e36 0100     		.2byte	0x1
 5466 0e38 52       		.byte	0x52
 5467 0e39 38000000 		.4byte	.LVL154
ARM GAS  C:\Users\pearlstl\AppData\Local\Temp\ccILyAHD.s 			page 116


 5468 0e3d 3E000000 		.4byte	.LVL155
 5469 0e41 0100     		.2byte	0x1
 5470 0e43 50       		.byte	0x50
 5471 0e44 3E000000 		.4byte	.LVL155
 5472 0e48 40000000 		.4byte	.LFE8
 5473 0e4c 0100     		.2byte	0x1
 5474 0e4e 52       		.byte	0x52
 5475 0e4f 00000000 		.4byte	0
 5476 0e53 00000000 		.4byte	0
 5477              	.LLST58:
 5478 0e57 00000000 		.4byte	.LVL143
 5479 0e5b 16000000 		.4byte	.LVL146
 5480 0e5f 0100     		.2byte	0x1
 5481 0e61 51       		.byte	0x51
 5482 0e62 16000000 		.4byte	.LVL146
 5483 0e66 1E000000 		.4byte	.LVL148
 5484 0e6a 0400     		.2byte	0x4
 5485 0e6c F3       		.byte	0xf3
 5486 0e6d 01       		.uleb128 0x1
 5487 0e6e 51       		.byte	0x51
 5488 0e6f 9F       		.byte	0x9f
 5489 0e70 1E000000 		.4byte	.LVL148
 5490 0e74 40000000 		.4byte	.LFE8
 5491 0e78 0100     		.2byte	0x1
 5492 0e7a 51       		.byte	0x51
 5493 0e7b 00000000 		.4byte	0
 5494 0e7f 00000000 		.4byte	0
 5495              	.LLST59:
 5496 0e83 00000000 		.4byte	.LVL143
 5497 0e87 0E000000 		.4byte	.LVL144
 5498 0e8b 0200     		.2byte	0x2
 5499 0e8d 30       		.byte	0x30
 5500 0e8e 9F       		.byte	0x9f
 5501 0e8f 0E000000 		.4byte	.LVL144
 5502 0e93 10000000 		.4byte	.LVL145
 5503 0e97 0100     		.2byte	0x1
 5504 0e99 50       		.byte	0x50
 5505 0e9a 10000000 		.4byte	.LVL145
 5506 0e9e 2C000000 		.4byte	.LVL149
 5507 0ea2 0200     		.2byte	0x2
 5508 0ea4 30       		.byte	0x30
 5509 0ea5 9F       		.byte	0x9f
 5510 0ea6 2C000000 		.4byte	.LVL149
 5511 0eaa 30000000 		.4byte	.LVL151
 5512 0eae 0200     		.2byte	0x2
 5513 0eb0 31       		.byte	0x31
 5514 0eb1 9F       		.byte	0x9f
 5515 0eb2 30000000 		.4byte	.LVL151
 5516 0eb6 34000000 		.4byte	.LVL152
 5517 0eba 0200     		.2byte	0x2
 5518 0ebc 30       		.byte	0x30
 5519 0ebd 9F       		.byte	0x9f
 5520 0ebe 34000000 		.4byte	.LVL152
 5521 0ec2 38000000 		.4byte	.LVL154
 5522 0ec6 0200     		.2byte	0x2
 5523 0ec8 31       		.byte	0x31
 5524 0ec9 9F       		.byte	0x9f
ARM GAS  C:\Users\pearlstl\AppData\Local\Temp\ccILyAHD.s 			page 117


 5525 0eca 38000000 		.4byte	.LVL154
 5526 0ece 40000000 		.4byte	.LFE8
 5527 0ed2 0200     		.2byte	0x2
 5528 0ed4 30       		.byte	0x30
 5529 0ed5 9F       		.byte	0x9f
 5530 0ed6 00000000 		.4byte	0
 5531 0eda 00000000 		.4byte	0
 5532              	.LLST60:
 5533 0ede 00000000 		.4byte	.LVL156
 5534 0ee2 0D000000 		.4byte	.LVL157-1
 5535 0ee6 0100     		.2byte	0x1
 5536 0ee8 50       		.byte	0x50
 5537 0ee9 0D000000 		.4byte	.LVL157-1
 5538 0eed 4A000000 		.4byte	.LVL168
 5539 0ef1 0100     		.2byte	0x1
 5540 0ef3 57       		.byte	0x57
 5541 0ef4 4A000000 		.4byte	.LVL168
 5542 0ef8 54000000 		.4byte	.LFE9
 5543 0efc 0400     		.2byte	0x4
 5544 0efe F3       		.byte	0xf3
 5545 0eff 01       		.uleb128 0x1
 5546 0f00 50       		.byte	0x50
 5547 0f01 9F       		.byte	0x9f
 5548 0f02 00000000 		.4byte	0
 5549 0f06 00000000 		.4byte	0
 5550              	.LLST61:
 5551 0f0a 00000000 		.4byte	.LVL156
 5552 0f0e 0D000000 		.4byte	.LVL157-1
 5553 0f12 0100     		.2byte	0x1
 5554 0f14 51       		.byte	0x51
 5555 0f15 0D000000 		.4byte	.LVL157-1
 5556 0f19 26000000 		.4byte	.LVL164
 5557 0f1d 0100     		.2byte	0x1
 5558 0f1f 55       		.byte	0x55
 5559 0f20 26000000 		.4byte	.LVL164
 5560 0f24 46000000 		.4byte	.LVL167
 5561 0f28 0100     		.2byte	0x1
 5562 0f2a 50       		.byte	0x50
 5563 0f2b 00000000 		.4byte	0
 5564 0f2f 00000000 		.4byte	0
 5565              	.LLST62:
 5566 0f33 00000000 		.4byte	.LVL156
 5567 0f37 0D000000 		.4byte	.LVL157-1
 5568 0f3b 0100     		.2byte	0x1
 5569 0f3d 52       		.byte	0x52
 5570 0f3e 0D000000 		.4byte	.LVL157-1
 5571 0f42 4A000000 		.4byte	.LVL168
 5572 0f46 0100     		.2byte	0x1
 5573 0f48 58       		.byte	0x58
 5574 0f49 4A000000 		.4byte	.LVL168
 5575 0f4d 4D000000 		.4byte	.LVL169-1
 5576 0f51 0100     		.2byte	0x1
 5577 0f53 51       		.byte	0x51
 5578 0f54 4D000000 		.4byte	.LVL169-1
 5579 0f58 54000000 		.4byte	.LFE9
 5580 0f5c 0400     		.2byte	0x4
 5581 0f5e F3       		.byte	0xf3
ARM GAS  C:\Users\pearlstl\AppData\Local\Temp\ccILyAHD.s 			page 118


 5582 0f5f 01       		.uleb128 0x1
 5583 0f60 52       		.byte	0x52
 5584 0f61 9F       		.byte	0x9f
 5585 0f62 00000000 		.4byte	0
 5586 0f66 00000000 		.4byte	0
 5587              	.LLST63:
 5588 0f6a 10000000 		.4byte	.LVL158
 5589 0f6e 12000000 		.4byte	.LVL159
 5590 0f72 0100     		.2byte	0x1
 5591 0f74 50       		.byte	0x50
 5592 0f75 12000000 		.4byte	.LVL159
 5593 0f79 32000000 		.4byte	.LVL165
 5594 0f7d 0100     		.2byte	0x1
 5595 0f7f 54       		.byte	0x54
 5596 0f80 00000000 		.4byte	0
 5597 0f84 00000000 		.4byte	0
 5598              	.LLST64:
 5599 0f88 1A000000 		.4byte	.LVL161
 5600 0f8c 20000000 		.4byte	.LVL162
 5601 0f90 0100     		.2byte	0x1
 5602 0f92 50       		.byte	0x50
 5603 0f93 20000000 		.4byte	.LVL162
 5604 0f97 4A000000 		.4byte	.LVL168
 5605 0f9b 0100     		.2byte	0x1
 5606 0f9d 59       		.byte	0x59
 5607 0f9e 4A000000 		.4byte	.LVL168
 5608 0fa2 4D000000 		.4byte	.LVL169-1
 5609 0fa6 0100     		.2byte	0x1
 5610 0fa8 52       		.byte	0x52
 5611 0fa9 00000000 		.4byte	0
 5612 0fad 00000000 		.4byte	0
 5613              	.LLST65:
 5614 0fb1 26000000 		.4byte	.LVL164
 5615 0fb5 32000000 		.4byte	.LVL165
 5616 0fb9 0100     		.2byte	0x1
 5617 0fbb 53       		.byte	0x53
 5618 0fbc 00000000 		.4byte	0
 5619 0fc0 00000000 		.4byte	0
 5620              	.LLST66:
 5621 0fc4 26000000 		.4byte	.LVL164
 5622 0fc8 4A000000 		.4byte	.LVL168
 5623 0fcc 0100     		.2byte	0x1
 5624 0fce 53       		.byte	0x53
 5625 0fcf 00000000 		.4byte	0
 5626 0fd3 00000000 		.4byte	0
 5627              	.LLST67:
 5628 0fd7 00000000 		.4byte	.LVL170
 5629 0fdb 0D000000 		.4byte	.LVL171-1
 5630 0fdf 0100     		.2byte	0x1
 5631 0fe1 50       		.byte	0x50
 5632 0fe2 0D000000 		.4byte	.LVL171-1
 5633 0fe6 4A000000 		.4byte	.LVL180
 5634 0fea 0100     		.2byte	0x1
 5635 0fec 57       		.byte	0x57
 5636 0fed 4A000000 		.4byte	.LVL180
 5637 0ff1 50000000 		.4byte	.LFE10
 5638 0ff5 0400     		.2byte	0x4
ARM GAS  C:\Users\pearlstl\AppData\Local\Temp\ccILyAHD.s 			page 119


 5639 0ff7 F3       		.byte	0xf3
 5640 0ff8 01       		.uleb128 0x1
 5641 0ff9 50       		.byte	0x50
 5642 0ffa 9F       		.byte	0x9f
 5643 0ffb 00000000 		.4byte	0
 5644 0fff 00000000 		.4byte	0
 5645              	.LLST68:
 5646 1003 00000000 		.4byte	.LVL170
 5647 1007 0D000000 		.4byte	.LVL171-1
 5648 100b 0100     		.2byte	0x1
 5649 100d 51       		.byte	0x51
 5650 100e 0D000000 		.4byte	.LVL171-1
 5651 1012 22000000 		.4byte	.LVL175
 5652 1016 0100     		.2byte	0x1
 5653 1018 54       		.byte	0x54
 5654 1019 22000000 		.4byte	.LVL175
 5655 101d 2A000000 		.4byte	.LVL176
 5656 1021 0100     		.2byte	0x1
 5657 1023 50       		.byte	0x50
 5658 1024 2A000000 		.4byte	.LVL176
 5659 1028 38000000 		.4byte	.LVL178
 5660 102c 0100     		.2byte	0x1
 5661 102e 54       		.byte	0x54
 5662 102f 00000000 		.4byte	0
 5663 1033 00000000 		.4byte	0
 5664              	.LLST69:
 5665 1037 00000000 		.4byte	.LVL170
 5666 103b 0D000000 		.4byte	.LVL171-1
 5667 103f 0100     		.2byte	0x1
 5668 1041 52       		.byte	0x52
 5669 1042 0D000000 		.4byte	.LVL171-1
 5670 1046 2C000000 		.4byte	.LVL177
 5671 104a 0100     		.2byte	0x1
 5672 104c 59       		.byte	0x59
 5673 104d 2C000000 		.4byte	.LVL177
 5674 1051 38000000 		.4byte	.LVL178
 5675 1055 0100     		.2byte	0x1
 5676 1057 50       		.byte	0x50
 5677 1058 00000000 		.4byte	0
 5678 105c 00000000 		.4byte	0
 5679              	.LLST70:
 5680 1060 16000000 		.4byte	.LVL172
 5681 1064 1C000000 		.4byte	.LVL173
 5682 1068 0100     		.2byte	0x1
 5683 106a 50       		.byte	0x50
 5684 106b 1C000000 		.4byte	.LVL173
 5685 106f 4A000000 		.4byte	.LVL180
 5686 1073 0100     		.2byte	0x1
 5687 1075 56       		.byte	0x56
 5688 1076 00000000 		.4byte	0
 5689 107a 00000000 		.4byte	0
 5690              	.LLST71:
 5691 107e 2C000000 		.4byte	.LVL177
 5692 1082 4A000000 		.4byte	.LVL180
 5693 1086 0100     		.2byte	0x1
 5694 1088 54       		.byte	0x54
 5695 1089 00000000 		.4byte	0
ARM GAS  C:\Users\pearlstl\AppData\Local\Temp\ccILyAHD.s 			page 120


 5696 108d 00000000 		.4byte	0
 5697              		.section	.debug_aranges,"",%progbits
 5698 0000 7C000000 		.4byte	0x7c
 5699 0004 0200     		.2byte	0x2
 5700 0006 00000000 		.4byte	.Ldebug_info0
 5701 000a 04       		.byte	0x4
 5702 000b 00       		.byte	0
 5703 000c 0000     		.2byte	0
 5704 000e 0000     		.2byte	0
 5705 0010 00000000 		.4byte	.LFB11
 5706 0014 04000000 		.4byte	.LFE11-.LFB11
 5707 0018 00000000 		.4byte	.LFB12
 5708 001c 08000000 		.4byte	.LFE12-.LFB12
 5709 0020 00000000 		.4byte	.LFB13
 5710 0024 02000000 		.4byte	.LFE13-.LFB13
 5711 0028 00000000 		.4byte	.LFB14
 5712 002c 10000000 		.4byte	.LFE14-.LFB14
 5713 0030 00000000 		.4byte	.LFB15
 5714 0034 12000000 		.4byte	.LFE15-.LFB15
 5715 0038 00000000 		.4byte	.LFB17
 5716 003c 04000000 		.4byte	.LFE17-.LFB17
 5717 0040 00000000 		.4byte	.LFB18
 5718 0044 04000000 		.4byte	.LFE18-.LFB18
 5719 0048 00000000 		.4byte	.LFB6
 5720 004c 74020000 		.4byte	.LFE6-.LFB6
 5721 0050 00000000 		.4byte	.LFB7
 5722 0054 F8000000 		.4byte	.LFE7-.LFB7
 5723 0058 00000000 		.4byte	.LFB4
 5724 005c F4000000 		.4byte	.LFE4-.LFB4
 5725 0060 00000000 		.4byte	.LFB8
 5726 0064 40000000 		.4byte	.LFE8-.LFB8
 5727 0068 00000000 		.4byte	.LFB9
 5728 006c 54000000 		.4byte	.LFE9-.LFB9
 5729 0070 00000000 		.4byte	.LFB10
 5730 0074 50000000 		.4byte	.LFE10-.LFB10
 5731 0078 00000000 		.4byte	0
 5732 007c 00000000 		.4byte	0
 5733              		.section	.debug_ranges,"",%progbits
 5734              	.Ldebug_ranges0:
 5735 0000 46000000 		.4byte	.LBB25
 5736 0004 52000000 		.4byte	.LBE25
 5737 0008 66000000 		.4byte	.LBB55
 5738 000c 68000000 		.4byte	.LBE55
 5739 0010 6A000000 		.4byte	.LBB56
 5740 0014 C8010000 		.4byte	.LBE56
 5741 0018 D2010000 		.4byte	.LBB57
 5742 001c F0010000 		.4byte	.LBE57
 5743 0020 06020000 		.4byte	.LBB58
 5744 0024 40020000 		.4byte	.LBE58
 5745 0028 48020000 		.4byte	.LBB59
 5746 002c 66020000 		.4byte	.LBE59
 5747 0030 00000000 		.4byte	0
 5748 0034 00000000 		.4byte	0
 5749 0038 46000000 		.4byte	.LBB26
 5750 003c 52000000 		.4byte	.LBE26
 5751 0040 66000000 		.4byte	.LBB49
 5752 0044 68000000 		.4byte	.LBE49
ARM GAS  C:\Users\pearlstl\AppData\Local\Temp\ccILyAHD.s 			page 121


 5753 0048 6A000000 		.4byte	.LBB50
 5754 004c 70000000 		.4byte	.LBE50
 5755 0050 72000000 		.4byte	.LBB51
 5756 0054 C2010000 		.4byte	.LBE51
 5757 0058 D2010000 		.4byte	.LBB52
 5758 005c E2010000 		.4byte	.LBE52
 5759 0060 06020000 		.4byte	.LBB53
 5760 0064 0A020000 		.4byte	.LBE53
 5761 0068 48020000 		.4byte	.LBB54
 5762 006c 66020000 		.4byte	.LBE54
 5763 0070 00000000 		.4byte	0
 5764 0074 00000000 		.4byte	0
 5765 0078 BE000000 		.4byte	.LBB28
 5766 007c C8000000 		.4byte	.LBE28
 5767 0080 3E010000 		.4byte	.LBB38
 5768 0084 4E010000 		.4byte	.LBE38
 5769 0088 AE010000 		.4byte	.LBB41
 5770 008c BE010000 		.4byte	.LBE41
 5771 0090 D2010000 		.4byte	.LBB42
 5772 0094 D8010000 		.4byte	.LBE42
 5773 0098 00000000 		.4byte	0
 5774 009c 00000000 		.4byte	0
 5775 00a0 F6000000 		.4byte	.LBB33
 5776 00a4 10010000 		.4byte	.LBE33
 5777 00a8 22010000 		.4byte	.LBB37
 5778 00ac 24010000 		.4byte	.LBE37
 5779 00b0 6E010000 		.4byte	.LBB39
 5780 00b4 70010000 		.4byte	.LBE39
 5781 00b8 00000000 		.4byte	0
 5782 00bc 00000000 		.4byte	0
 5783 00c0 36000000 		.4byte	.LBB60
 5784 00c4 54000000 		.4byte	.LBE60
 5785 00c8 5A000000 		.4byte	.LBB67
 5786 00cc 8C000000 		.4byte	.LBE67
 5787 00d0 98000000 		.4byte	.LBB68
 5788 00d4 BA000000 		.4byte	.LBE68
 5789 00d8 BC000000 		.4byte	.LBB69
 5790 00dc C6000000 		.4byte	.LBE69
 5791 00e0 DC000000 		.4byte	.LBB70
 5792 00e4 F8000000 		.4byte	.LBE70
 5793 00e8 00000000 		.4byte	0
 5794 00ec 00000000 		.4byte	0
 5795 00f0 36000000 		.4byte	.LBB61
 5796 00f4 3C000000 		.4byte	.LBE61
 5797 00f8 6E000000 		.4byte	.LBB65
 5798 00fc 8C000000 		.4byte	.LBE65
 5799 0100 DC000000 		.4byte	.LBB66
 5800 0104 F8000000 		.4byte	.LBE66
 5801 0108 00000000 		.4byte	0
 5802 010c 00000000 		.4byte	0
 5803 0110 00000000 		.4byte	.LFB11
 5804 0114 04000000 		.4byte	.LFE11
 5805 0118 00000000 		.4byte	.LFB12
 5806 011c 08000000 		.4byte	.LFE12
 5807 0120 00000000 		.4byte	.LFB13
 5808 0124 02000000 		.4byte	.LFE13
 5809 0128 00000000 		.4byte	.LFB14
ARM GAS  C:\Users\pearlstl\AppData\Local\Temp\ccILyAHD.s 			page 122


 5810 012c 10000000 		.4byte	.LFE14
 5811 0130 00000000 		.4byte	.LFB15
 5812 0134 12000000 		.4byte	.LFE15
 5813 0138 00000000 		.4byte	.LFB17
 5814 013c 04000000 		.4byte	.LFE17
 5815 0140 00000000 		.4byte	.LFB18
 5816 0144 04000000 		.4byte	.LFE18
 5817 0148 00000000 		.4byte	.LFB6
 5818 014c 74020000 		.4byte	.LFE6
 5819 0150 00000000 		.4byte	.LFB7
 5820 0154 F8000000 		.4byte	.LFE7
 5821 0158 00000000 		.4byte	.LFB4
 5822 015c F4000000 		.4byte	.LFE4
 5823 0160 00000000 		.4byte	.LFB8
 5824 0164 40000000 		.4byte	.LFE8
 5825 0168 00000000 		.4byte	.LFB9
 5826 016c 54000000 		.4byte	.LFE9
 5827 0170 00000000 		.4byte	.LFB10
 5828 0174 50000000 		.4byte	.LFE10
 5829 0178 00000000 		.4byte	0
 5830 017c 00000000 		.4byte	0
 5831              		.section	.debug_line,"",%progbits
 5832              	.Ldebug_line0:
 5833 0000 B7050000 		.section	.debug_str,"MS",%progbits,1
 5833      0200E002 
 5833      00000201 
 5833      FB0E0D00 
 5833      01010101 
 5834              	.LASF63:
 5835 0000 695F6E65 		.ascii	"i_next_next\000"
 5835      78745F6E 
 5835      65787400 
 5836              	.LASF103:
 5837 000c 6C765F74 		.ascii	"lv_txt_unicode_to_encoded\000"
 5837      78745F75 
 5837      6E69636F 
 5837      64655F74 
 5837      6F5F656E 
 5838              	.LASF98:
 5839 0026 6F6C645F 		.ascii	"old_len\000"
 5839      6C656E00 
 5840              	.LASF93:
 5841 002e 6C657474 		.ascii	"letter_height\000"
 5841      65725F68 
 5841      65696768 
 5841      7400
 5842              	.LASF74:
 5843 003c 6C765F74 		.ascii	"lv_txt_iso8859_1_conv_wc\000"
 5843      78745F69 
 5843      736F3838 
 5843      35395F31 
 5843      5F636F6E 
 5844              	.LASF110:
 5845 0055 7374726C 		.ascii	"strlen\000"
 5845      656E00
 5846              	.LASF14:
 5847 005c 756E7369 		.ascii	"unsigned int\000"
ARM GAS  C:\Users\pearlstl\AppData\Local\Temp\ccILyAHD.s 			page 123


 5847      676E6564 
 5847      20696E74 
 5847      00
 5848              	.LASF30:
 5849 0069 6F66735F 		.ascii	"ofs_x\000"
 5849      7800
 5850              	.LASF31:
 5851 006f 6F66735F 		.ascii	"ofs_y\000"
 5851      7900
 5852              	.LASF112:
 5853 0075 474E5520 		.ascii	"GNU C11 5.4.1 20160609 (release) [ARM/embedded-5-br"
 5853      43313120 
 5853      352E342E 
 5853      31203230 
 5853      31363036 
 5854 00a8 616E6368 		.ascii	"anch revision 237715] -mcpu=cortex-m4 -mfloat-abi=s"
 5854      20726576 
 5854      6973696F 
 5854      6E203233 
 5854      37373135 
 5855 00db 6F667466 		.ascii	"oftfp -mfpu=fpv4-sp-d16 -mthumb -g -O3 -ffunction-s"
 5855      70202D6D 
 5855      6670753D 
 5855      66707634 
 5855      2D73702D 
 5856 010e 65637469 		.ascii	"ections -ffat-lto-objects\000"
 5856      6F6E7320 
 5856      2D666661 
 5856      742D6C74 
 5856      6F2D6F62 
 5857              	.LASF33:
 5858 0128 6765745F 		.ascii	"get_glyph_dsc\000"
 5858      676C7970 
 5858      685F6473 
 5858      6300
 5859              	.LASF26:
 5860 0136 6C765F70 		.ascii	"lv_point_t\000"
 5860      6F696E74 
 5860      5F7400
 5861              	.LASF8:
 5862 0141 5F5F696E 		.ascii	"__int32_t\000"
 5862      7433325F 
 5862      7400
 5863              	.LASF105:
 5864 014b 6C765F74 		.ascii	"lv_txt_encoded_next\000"
 5864      78745F65 
 5864      6E636F64 
 5864      65645F6E 
 5864      65787400 
 5865              	.LASF67:
 5866 015f 776F7264 		.ascii	"word_len\000"
 5866      5F6C656E 
 5866      00
 5867              	.LASF94:
 5868 0168 6C765F74 		.ascii	"lv_txt_get_size\000"
 5868      78745F67 
 5868      65745F73 
ARM GAS  C:\Users\pearlstl\AppData\Local\Temp\ccILyAHD.s 			page 124


 5868      697A6500 
 5869              	.LASF65:
 5870 0178 6C657474 		.ascii	"letter_w\000"
 5870      65725F77 
 5870      00
 5871              	.LASF106:
 5872 0181 6C765F74 		.ascii	"lv_txt_encoded_prev\000"
 5872      78745F65 
 5872      6E636F64 
 5872      65645F70 
 5872      72657600 
 5873              	.LASF40:
 5874 0195 4C565F54 		.ascii	"LV_TXT_FLAG_RECOLOR\000"
 5874      58545F46 
 5874      4C41475F 
 5874      5245434F 
 5874      4C4F5200 
 5875              	.LASF87:
 5876 01a9 73697A65 		.ascii	"size_res\000"
 5876      5F726573 
 5876      00
 5877              	.LASF64:
 5878 01b2 6C657474 		.ascii	"letter_next\000"
 5878      65725F6E 
 5878      65787400 
 5879              	.LASF42:
 5880 01be 4C565F54 		.ascii	"LV_TXT_FLAG_CENTER\000"
 5880      58545F46 
 5880      4C41475F 
 5880      43454E54 
 5880      455200
 5881              	.LASF20:
 5882 01d1 75696E74 		.ascii	"uint32_t\000"
 5882      33325F74 
 5882      00
 5883              	.LASF15:
 5884 01da 696E7438 		.ascii	"int8_t\000"
 5884      5F7400
 5885              	.LASF81:
 5886 01e1 61647661 		.ascii	"advance\000"
 5886      6E636500 
 5887              	.LASF17:
 5888 01e9 696E7431 		.ascii	"int16_t\000"
 5888      365F7400 
 5889              	.LASF54:
 5890 01f1 6C765F74 		.ascii	"lv_txt_get_next_word\000"
 5890      78745F67 
 5890      65745F6E 
 5890      6578745F 
 5890      776F7264 
 5891              	.LASF13:
 5892 0206 6C6F6E67 		.ascii	"long long unsigned int\000"
 5892      206C6F6E 
 5892      6720756E 
 5892      7369676E 
 5892      65642069 
 5893              	.LASF61:
ARM GAS  C:\Users\pearlstl\AppData\Local\Temp\ccILyAHD.s 			page 125


 5894 021d 666F7263 		.ascii	"force\000"
 5894      6500
 5895              	.LASF82:
 5896 0223 6C765F74 		.ascii	"lv_txt_get_next_line\000"
 5896      78745F67 
 5896      65745F6E 
 5896      6578745F 
 5896      6C696E65 
 5897              	.LASF60:
 5898 0238 636D645F 		.ascii	"cmd_state\000"
 5898      73746174 
 5898      6500
 5899              	.LASF6:
 5900 0242 5F5F7569 		.ascii	"__uint16_t\000"
 5900      6E743136 
 5900      5F7400
 5901              	.LASF43:
 5902 024d 4C565F54 		.ascii	"LV_TXT_FLAG_RIGHT\000"
 5902      58545F46 
 5902      4C41475F 
 5902      52494748 
 5902      5400
 5903              	.LASF22:
 5904 025f 73697A65 		.ascii	"size_t\000"
 5904      5F7400
 5905              	.LASF85:
 5906 0266 77696474 		.ascii	"width\000"
 5906      6800
 5907              	.LASF52:
 5908 026c 69735F62 		.ascii	"is_break_char\000"
 5908      7265616B 
 5908      5F636861 
 5908      7200
 5909              	.LASF53:
 5910 027a 6C657474 		.ascii	"letter\000"
 5910      657200
 5911              	.LASF37:
 5912 0281 5F426F6F 		.ascii	"_Bool\000"
 5912      6C00
 5913              	.LASF47:
 5914 0287 4C565F54 		.ascii	"LV_TXT_CMD_STATE_IN\000"
 5914      58545F43 
 5914      4D445F53 
 5914      54415445 
 5914      5F494E00 
 5915              	.LASF97:
 5916 029b 696E735F 		.ascii	"ins_txt\000"
 5916      74787400 
 5917              	.LASF115:
 5918 02a3 5F6C765F 		.ascii	"_lv_font_struct\000"
 5918      666F6E74 
 5918      5F737472 
 5918      75637400 
 5919              	.LASF89:
 5920 02b3 6C696E65 		.ascii	"line_space\000"
 5920      5F737061 
 5920      636500
ARM GAS  C:\Users\pearlstl\AppData\Local\Temp\ccILyAHD.s 			page 126


 5921              	.LASF48:
 5922 02be 6C765F74 		.ascii	"lv_txt_cmd_state_t\000"
 5922      78745F63 
 5922      6D645F73 
 5922      74617465 
 5922      5F7400
 5923              	.LASF49:
 5924 02d1 666F6E74 		.ascii	"font_p\000"
 5924      5F7000
 5925              	.LASF35:
 5926 02d8 6C696E65 		.ascii	"line_height\000"
 5926      5F686569 
 5926      67687400 
 5927              	.LASF113:
 5928 02e4 2E2E5C2E 		.ascii	"..\\..\\..\\lvgl\\version_6.1.2\\lvgl\\src\\lv_misc"
 5928      2E5C2E2E 
 5928      5C6C7667 
 5928      6C5C7665 
 5928      7273696F 
 5929 0310 5C6C765F 		.ascii	"\\lv_txt.c\000"
 5929      7478742E 
 5929      6300
 5930              	.LASF59:
 5931 031a 776F7264 		.ascii	"word_w_ptr\000"
 5931      5F775F70 
 5931      747200
 5932              	.LASF25:
 5933 0325 63686172 		.ascii	"char\000"
 5933      00
 5934              	.LASF101:
 5935 032a 6C765F74 		.ascii	"lv_txt_cut\000"
 5935      78745F63 
 5935      757400
 5936              	.LASF71:
 5937 0335 6C765F74 		.ascii	"lv_txt_iso8859_1_size\000"
 5937      78745F69 
 5937      736F3838 
 5937      35395F31 
 5937      5F73697A 
 5938              	.LASF88:
 5939 034b 74657874 		.ascii	"text\000"
 5939      00
 5940              	.LASF32:
 5941 0350 6C765F66 		.ascii	"lv_font_glyph_dsc_t\000"
 5941      6F6E745F 
 5941      676C7970 
 5941      685F6473 
 5941      635F7400 
 5942              	.LASF117:
 5943 0364 6C765F74 		.ascii	"lv_txt_is_cmd\000"
 5943      78745F69 
 5943      735F636D 
 5943      6400
 5944              	.LASF16:
 5945 0372 75696E74 		.ascii	"uint8_t\000"
 5945      385F7400 
 5946              	.LASF62:
ARM GAS  C:\Users\pearlstl\AppData\Local\Temp\ccILyAHD.s 			page 127


 5947 037a 695F6E65 		.ascii	"i_next\000"
 5947      787400
 5948              	.LASF107:
 5949 0381 6C765F74 		.ascii	"lv_txt_encoded_get_byte_id\000"
 5949      78745F65 
 5949      6E636F64 
 5949      65645F67 
 5949      65745F62 
 5950              	.LASF57:
 5951 039c 6D61785F 		.ascii	"max_width\000"
 5951      77696474 
 5951      6800
 5952              	.LASF12:
 5953 03a6 6C6F6E67 		.ascii	"long long int\000"
 5953      206C6F6E 
 5953      6720696E 
 5953      7400
 5954              	.LASF83:
 5955 03b4 6C765F74 		.ascii	"lv_txt_get_width\000"
 5955      78745F67 
 5955      65745F77 
 5955      69647468 
 5955      00
 5956              	.LASF68:
 5957 03c5 62726561 		.ascii	"break_index\000"
 5957      6B5F696E 
 5957      64657800 
 5958              	.LASF66:
 5959 03d1 6375725F 		.ascii	"cur_w\000"
 5959      7700
 5960              	.LASF46:
 5961 03d7 4C565F54 		.ascii	"LV_TXT_CMD_STATE_PAR\000"
 5961      58545F43 
 5961      4D445F53 
 5961      54415445 
 5961      5F504152 
 5962              	.LASF4:
 5963 03ec 5F5F696E 		.ascii	"__int16_t\000"
 5963      7431365F 
 5963      7400
 5964              	.LASF109:
 5965 03f6 6C765F74 		.ascii	"lv_txt_get_encoded_length\000"
 5965      78745F67 
 5965      65745F65 
 5965      6E636F64 
 5965      65645F6C 
 5966              	.LASF73:
 5967 0410 6C657474 		.ascii	"letter_uni\000"
 5967      65725F75 
 5967      6E6900
 5968              	.LASF70:
 5969 041b 6E5F6D6F 		.ascii	"n_move\000"
 5969      766500
 5970              	.LASF104:
 5971 0422 6C765F74 		.ascii	"lv_txt_encoded_conv_wc\000"
 5971      78745F65 
 5971      6E636F64 
ARM GAS  C:\Users\pearlstl\AppData\Local\Temp\ccILyAHD.s 			page 128


 5971      65645F63 
 5971      6F6E765F 
 5972              	.LASF111:
 5973 0439 6C765F66 		.ascii	"lv_font_get_glyph_width\000"
 5973      6F6E745F 
 5973      6765745F 
 5973      676C7970 
 5973      685F7769 
 5974              	.LASF116:
 5975 0451 73756270 		.ascii	"subpx\000"
 5975      7800
 5976              	.LASF0:
 5977 0457 5F5F696E 		.ascii	"__int8_t\000"
 5977      74385F74 
 5977      00
 5978              	.LASF108:
 5979 0460 6C765F74 		.ascii	"lv_txt_encoded_get_char_id\000"
 5979      78745F65 
 5979      6E636F64 
 5979      65645F67 
 5979      65745F63 
 5980              	.LASF23:
 5981 047b 6C6F6E67 		.ascii	"long double\000"
 5981      20646F75 
 5981      626C6500 
 5982              	.LASF18:
 5983 0487 75696E74 		.ascii	"uint16_t\000"
 5983      31365F74 
 5983      00
 5984              	.LASF86:
 5985 0490 63686172 		.ascii	"char_width\000"
 5985      5F776964 
 5985      746800
 5986              	.LASF38:
 5987 049b 6C765F66 		.ascii	"lv_font_t\000"
 5987      6F6E745F 
 5987      7400
 5988              	.LASF56:
 5989 04a5 6C657474 		.ascii	"letter_space\000"
 5989      65725F73 
 5989      70616365 
 5989      00
 5990              	.LASF80:
 5991 04b2 776F7264 		.ascii	"word_w\000"
 5991      5F7700
 5992              	.LASF5:
 5993 04b9 73686F72 		.ascii	"short int\000"
 5993      7420696E 
 5993      7400
 5994              	.LASF90:
 5995 04c3 6C696E65 		.ascii	"line_start\000"
 5995      5F737461 
 5995      727400
 5996              	.LASF9:
 5997 04ce 6C6F6E67 		.ascii	"long int\000"
 5997      20696E74 
 5997      00
ARM GAS  C:\Users\pearlstl\AppData\Local\Temp\ccILyAHD.s 			page 129


 5998              	.LASF102:
 5999 04d7 6C765F74 		.ascii	"lv_txt_encoded_size\000"
 5999      78745F65 
 5999      6E636F64 
 5999      65645F73 
 5999      697A6500 
 6000              	.LASF84:
 6001 04eb 6C656E67 		.ascii	"length\000"
 6001      746800
 6002              	.LASF58:
 6003 04f2 666C6167 		.ascii	"flag\000"
 6003      00
 6004              	.LASF21:
 6005 04f7 6C765F63 		.ascii	"lv_coord_t\000"
 6005      6F6F7264 
 6005      5F7400
 6006              	.LASF1:
 6007 0502 5F5F7569 		.ascii	"__uint8_t\000"
 6007      6E74385F 
 6007      7400
 6008              	.LASF29:
 6009 050c 626F785F 		.ascii	"box_h\000"
 6009      6800
 6010              	.LASF92:
 6011 0512 6163745F 		.ascii	"act_line_length\000"
 6011      6C696E65 
 6011      5F6C656E 
 6011      67746800 
 6012              	.LASF55:
 6013 0522 666F6E74 		.ascii	"font\000"
 6013      00
 6014              	.LASF24:
 6015 0527 73697A65 		.ascii	"sizetype\000"
 6015      74797065 
 6015      00
 6016              	.LASF11:
 6017 0530 6C6F6E67 		.ascii	"long unsigned int\000"
 6017      20756E73 
 6017      69676E65 
 6017      6420696E 
 6017      7400
 6018              	.LASF79:
 6019 0542 6C765F74 		.ascii	"lv_txt_iso8859_1_get_length\000"
 6019      78745F69 
 6019      736F3838 
 6019      35395F31 
 6019      5F676574 
 6020              	.LASF45:
 6021 055e 4C565F54 		.ascii	"LV_TXT_CMD_STATE_WAIT\000"
 6021      58545F43 
 6021      4D445F53 
 6021      54415445 
 6021      5F574149 
 6022              	.LASF28:
 6023 0574 626F785F 		.ascii	"box_w\000"
 6023      7700
 6024              	.LASF77:
ARM GAS  C:\Users\pearlstl\AppData\Local\Temp\ccILyAHD.s 			page 130


 6025 057a 6C765F74 		.ascii	"lv_txt_iso8859_1_get_char_id\000"
 6025      78745F69 
 6025      736F3838 
 6025      35395F31 
 6025      5F676574 
 6026              	.LASF19:
 6027 0597 696E7433 		.ascii	"int32_t\000"
 6027      325F7400 
 6028              	.LASF36:
 6029 059f 62617365 		.ascii	"base_line\000"
 6029      5F6C696E 
 6029      6500
 6030              	.LASF69:
 6031 05a9 62726561 		.ascii	"break_letter_count\000"
 6031      6B5F6C65 
 6031      74746572 
 6031      5F636F75 
 6031      6E7400
 6032              	.LASF100:
 6033 05bc 6E65775F 		.ascii	"new_len\000"
 6033      6C656E00 
 6034              	.LASF96:
 6035 05c4 7478745F 		.ascii	"txt_buf\000"
 6035      62756600 
 6036              	.LASF3:
 6037 05cc 756E7369 		.ascii	"unsigned char\000"
 6037      676E6564 
 6037      20636861 
 6037      7200
 6038              	.LASF75:
 6039 05da 6C765F74 		.ascii	"lv_txt_iso8859_1_next\000"
 6039      78745F69 
 6039      736F3838 
 6039      35395F31 
 6039      5F6E6578 
 6040              	.LASF10:
 6041 05f0 5F5F7569 		.ascii	"__uint32_t\000"
 6041      6E743332 
 6041      5F7400
 6042              	.LASF34:
 6043 05fb 6765745F 		.ascii	"get_glyph_bitmap\000"
 6043      676C7970 
 6043      685F6269 
 6043      746D6170 
 6043      00
 6044              	.LASF50:
 6045 060c 73746174 		.ascii	"state\000"
 6045      6500
 6046              	.LASF78:
 6047 0612 62797465 		.ascii	"byte_id\000"
 6047      5F696400 
 6048              	.LASF76:
 6049 061a 6C765F74 		.ascii	"lv_txt_iso8859_1_prev\000"
 6049      78745F69 
 6049      736F3838 
 6049      35395F31 
 6049      5F707265 
ARM GAS  C:\Users\pearlstl\AppData\Local\Temp\ccILyAHD.s 			page 131


 6050              	.LASF2:
 6051 0630 7369676E 		.ascii	"signed char\000"
 6051      65642063 
 6051      68617200 
 6052              	.LASF95:
 6053 063c 6C765F74 		.ascii	"lv_txt_ins\000"
 6053      78745F69 
 6053      6E7300
 6054              	.LASF44:
 6055 0647 6C765F74 		.ascii	"lv_txt_flag_t\000"
 6055      78745F66 
 6055      6C61675F 
 6055      7400
 6056              	.LASF7:
 6057 0655 73686F72 		.ascii	"short unsigned int\000"
 6057      7420756E 
 6057      7369676E 
 6057      65642069 
 6057      6E7400
 6058              	.LASF118:
 6059 0668 6D656D63 		.ascii	"memcpy\000"
 6059      707900
 6060              	.LASF99:
 6061 066f 696E735F 		.ascii	"ins_len\000"
 6061      6C656E00 
 6062              	.LASF39:
 6063 0677 4C565F54 		.ascii	"LV_TXT_FLAG_NONE\000"
 6063      58545F46 
 6063      4C41475F 
 6063      4E4F4E45 
 6063      00
 6064              	.LASF41:
 6065 0688 4C565F54 		.ascii	"LV_TXT_FLAG_EXPAND\000"
 6065      58545F46 
 6065      4C41475F 
 6065      45585041 
 6065      4E4400
 6066              	.LASF114:
 6067 069b 433A5C55 		.ascii	"C:\\Users\\pearlstl\\Documents\\_Research\\projects"
 6067      73657273 
 6067      5C706561 
 6067      726C7374 
 6067      6C5C446F 
 6068 06c9 5C74636F 		.ascii	"\\tcom_engineering\\embed_sw\\tcom_app\\tcom_app_ps"
 6068      6D5F656E 
 6068      67696E65 
 6068      6572696E 
 6068      675C656D 
 6069 06f8 6F63365F 		.ascii	"oc6_lvgl6\\tcom_displ_test_psoc6.cydsn\000"
 6069      6C76676C 
 6069      365C7463 
 6069      6F6D5F64 
 6069      6973706C 
 6070              	.LASF51:
 6071 071e 6C765F66 		.ascii	"lv_font_get_line_height\000"
 6071      6F6E745F 
 6071      6765745F 
ARM GAS  C:\Users\pearlstl\AppData\Local\Temp\ccILyAHD.s 			page 132


 6071      6C696E65 
 6071      5F686569 
 6072              	.LASF72:
 6073 0736 6C765F74 		.ascii	"lv_txt_unicode_to_iso8859_1\000"
 6073      78745F75 
 6073      6E69636F 
 6073      64655F74 
 6073      6F5F6973 
 6074              	.LASF27:
 6075 0752 6164765F 		.ascii	"adv_w\000"
 6075      7700
 6076              	.LASF91:
 6077 0758 6E65775F 		.ascii	"new_line_start\000"
 6077      6C696E65 
 6077      5F737461 
 6077      727400
 6078              		.ident	"GCC: (GNU Tools for ARM Embedded Processors) 5.4.1 20160609 (release) [ARM/embedded-5-bran
