ARM GAS  C:\Users\pearlstl\AppData\Local\Temp\ccIJtgHD.s 			page 1


   1              		.syntax unified
   2              		.cpu cortex-m4
   3              		.eabi_attribute 27, 1
   4              		.fpu fpv4-sp-d16
   5              		.eabi_attribute 20, 1
   6              		.eabi_attribute 21, 1
   7              		.eabi_attribute 23, 3
   8              		.eabi_attribute 24, 1
   9              		.eabi_attribute 25, 1
  10              		.eabi_attribute 26, 1
  11              		.eabi_attribute 30, 2
  12              		.eabi_attribute 34, 1
  13              		.eabi_attribute 18, 4
  14              		.thumb
  15              		.syntax unified
  16              		.file	"lv_table.c"
  17              		.text
  18              	.Ltext0:
  19              		.cfi_sections	.debug_frame
  20              		.section	.text.get_row_height,"ax",%progbits
  21              		.align	2
  22              		.thumb
  23              		.thumb_func
  24              		.type	get_row_height, %function
  25              	get_row_height:
  26              	.LFB55:
  27              		.file 1 "..\\..\\..\\lvgl\\version_6.1.2\\lvgl\\src\\lv_objx\\lv_table.c"
   1:..\..\..\lvgl\version_6.1.2\lvgl\src\lv_objx/lv_table.c **** /**
   2:..\..\..\lvgl\version_6.1.2\lvgl\src\lv_objx/lv_table.c ****  * @file lv_table.c
   3:..\..\..\lvgl\version_6.1.2\lvgl\src\lv_objx/lv_table.c ****  *
   4:..\..\..\lvgl\version_6.1.2\lvgl\src\lv_objx/lv_table.c ****  */
   5:..\..\..\lvgl\version_6.1.2\lvgl\src\lv_objx/lv_table.c **** 
   6:..\..\..\lvgl\version_6.1.2\lvgl\src\lv_objx/lv_table.c **** /*********************
   7:..\..\..\lvgl\version_6.1.2\lvgl\src\lv_objx/lv_table.c ****  *      INCLUDES
   8:..\..\..\lvgl\version_6.1.2\lvgl\src\lv_objx/lv_table.c ****  *********************/
   9:..\..\..\lvgl\version_6.1.2\lvgl\src\lv_objx/lv_table.c **** #include "lv_table.h"
  10:..\..\..\lvgl\version_6.1.2\lvgl\src\lv_objx/lv_table.c **** #if LV_USE_TABLE != 0
  11:..\..\..\lvgl\version_6.1.2\lvgl\src\lv_objx/lv_table.c **** 
  12:..\..\..\lvgl\version_6.1.2\lvgl\src\lv_objx/lv_table.c **** #include "../lv_core/lv_debug.h"
  13:..\..\..\lvgl\version_6.1.2\lvgl\src\lv_objx/lv_table.c **** #include "../lv_misc/lv_txt.h"
  14:..\..\..\lvgl\version_6.1.2\lvgl\src\lv_objx/lv_table.c **** #include "../lv_misc/lv_math.h"
  15:..\..\..\lvgl\version_6.1.2\lvgl\src\lv_objx/lv_table.c **** #include "../lv_draw/lv_draw_label.h"
  16:..\..\..\lvgl\version_6.1.2\lvgl\src\lv_objx/lv_table.c **** #include "../lv_themes/lv_theme.h"
  17:..\..\..\lvgl\version_6.1.2\lvgl\src\lv_objx/lv_table.c **** 
  18:..\..\..\lvgl\version_6.1.2\lvgl\src\lv_objx/lv_table.c **** /*********************
  19:..\..\..\lvgl\version_6.1.2\lvgl\src\lv_objx/lv_table.c ****  *      DEFINES
  20:..\..\..\lvgl\version_6.1.2\lvgl\src\lv_objx/lv_table.c ****  *********************/
  21:..\..\..\lvgl\version_6.1.2\lvgl\src\lv_objx/lv_table.c **** #define LV_OBJX_NAME "lv_table"
  22:..\..\..\lvgl\version_6.1.2\lvgl\src\lv_objx/lv_table.c **** 
  23:..\..\..\lvgl\version_6.1.2\lvgl\src\lv_objx/lv_table.c **** /**********************
  24:..\..\..\lvgl\version_6.1.2\lvgl\src\lv_objx/lv_table.c ****  *      TYPEDEFS
  25:..\..\..\lvgl\version_6.1.2\lvgl\src\lv_objx/lv_table.c ****  **********************/
  26:..\..\..\lvgl\version_6.1.2\lvgl\src\lv_objx/lv_table.c **** 
  27:..\..\..\lvgl\version_6.1.2\lvgl\src\lv_objx/lv_table.c **** /**********************
  28:..\..\..\lvgl\version_6.1.2\lvgl\src\lv_objx/lv_table.c ****  *  STATIC PROTOTYPES
  29:..\..\..\lvgl\version_6.1.2\lvgl\src\lv_objx/lv_table.c ****  **********************/
  30:..\..\..\lvgl\version_6.1.2\lvgl\src\lv_objx/lv_table.c **** static bool lv_table_design(lv_obj_t * table, const lv_area_t * mask, lv_design_mode_t mode);
ARM GAS  C:\Users\pearlstl\AppData\Local\Temp\ccIJtgHD.s 			page 2


  31:..\..\..\lvgl\version_6.1.2\lvgl\src\lv_objx/lv_table.c **** static lv_res_t lv_table_signal(lv_obj_t * table, lv_signal_t sign, void * param);
  32:..\..\..\lvgl\version_6.1.2\lvgl\src\lv_objx/lv_table.c **** static lv_coord_t get_row_height(lv_obj_t * table, uint16_t row_id);
  33:..\..\..\lvgl\version_6.1.2\lvgl\src\lv_objx/lv_table.c **** static void refr_size(lv_obj_t * table);
  34:..\..\..\lvgl\version_6.1.2\lvgl\src\lv_objx/lv_table.c **** 
  35:..\..\..\lvgl\version_6.1.2\lvgl\src\lv_objx/lv_table.c **** /**********************
  36:..\..\..\lvgl\version_6.1.2\lvgl\src\lv_objx/lv_table.c ****  *  STATIC VARIABLES
  37:..\..\..\lvgl\version_6.1.2\lvgl\src\lv_objx/lv_table.c ****  **********************/
  38:..\..\..\lvgl\version_6.1.2\lvgl\src\lv_objx/lv_table.c **** static lv_signal_cb_t ancestor_signal;
  39:..\..\..\lvgl\version_6.1.2\lvgl\src\lv_objx/lv_table.c **** static lv_design_cb_t ancestor_scrl_design;
  40:..\..\..\lvgl\version_6.1.2\lvgl\src\lv_objx/lv_table.c **** 
  41:..\..\..\lvgl\version_6.1.2\lvgl\src\lv_objx/lv_table.c **** /**********************
  42:..\..\..\lvgl\version_6.1.2\lvgl\src\lv_objx/lv_table.c ****  *      MACROS
  43:..\..\..\lvgl\version_6.1.2\lvgl\src\lv_objx/lv_table.c ****  **********************/
  44:..\..\..\lvgl\version_6.1.2\lvgl\src\lv_objx/lv_table.c **** 
  45:..\..\..\lvgl\version_6.1.2\lvgl\src\lv_objx/lv_table.c **** /**********************
  46:..\..\..\lvgl\version_6.1.2\lvgl\src\lv_objx/lv_table.c ****  *   GLOBAL FUNCTIONS
  47:..\..\..\lvgl\version_6.1.2\lvgl\src\lv_objx/lv_table.c ****  **********************/
  48:..\..\..\lvgl\version_6.1.2\lvgl\src\lv_objx/lv_table.c **** 
  49:..\..\..\lvgl\version_6.1.2\lvgl\src\lv_objx/lv_table.c **** /**
  50:..\..\..\lvgl\version_6.1.2\lvgl\src\lv_objx/lv_table.c ****  * Create a table object
  51:..\..\..\lvgl\version_6.1.2\lvgl\src\lv_objx/lv_table.c ****  * @param par pointer to an object, it will be the parent of the new table
  52:..\..\..\lvgl\version_6.1.2\lvgl\src\lv_objx/lv_table.c ****  * @param copy pointer to a table object, if not NULL then the new object will be copied from it
  53:..\..\..\lvgl\version_6.1.2\lvgl\src\lv_objx/lv_table.c ****  * @return pointer to the created table
  54:..\..\..\lvgl\version_6.1.2\lvgl\src\lv_objx/lv_table.c ****  */
  55:..\..\..\lvgl\version_6.1.2\lvgl\src\lv_objx/lv_table.c **** lv_obj_t * lv_table_create(lv_obj_t * par, const lv_obj_t * copy)
  56:..\..\..\lvgl\version_6.1.2\lvgl\src\lv_objx/lv_table.c **** {
  57:..\..\..\lvgl\version_6.1.2\lvgl\src\lv_objx/lv_table.c ****     LV_LOG_TRACE("table create started");
  58:..\..\..\lvgl\version_6.1.2\lvgl\src\lv_objx/lv_table.c **** 
  59:..\..\..\lvgl\version_6.1.2\lvgl\src\lv_objx/lv_table.c ****     /*Create the ancestor of table*/
  60:..\..\..\lvgl\version_6.1.2\lvgl\src\lv_objx/lv_table.c ****     lv_obj_t * new_table = lv_obj_create(par, copy);
  61:..\..\..\lvgl\version_6.1.2\lvgl\src\lv_objx/lv_table.c ****     LV_ASSERT_MEM(new_table);
  62:..\..\..\lvgl\version_6.1.2\lvgl\src\lv_objx/lv_table.c ****     if(new_table == NULL) return NULL;
  63:..\..\..\lvgl\version_6.1.2\lvgl\src\lv_objx/lv_table.c **** 
  64:..\..\..\lvgl\version_6.1.2\lvgl\src\lv_objx/lv_table.c ****     /*Allocate the table type specific extended data*/
  65:..\..\..\lvgl\version_6.1.2\lvgl\src\lv_objx/lv_table.c ****     lv_table_ext_t * ext = lv_obj_allocate_ext_attr(new_table, sizeof(lv_table_ext_t));
  66:..\..\..\lvgl\version_6.1.2\lvgl\src\lv_objx/lv_table.c ****     LV_ASSERT_MEM(ext);
  67:..\..\..\lvgl\version_6.1.2\lvgl\src\lv_objx/lv_table.c ****     if(ext == NULL) return NULL;
  68:..\..\..\lvgl\version_6.1.2\lvgl\src\lv_objx/lv_table.c ****     if(ancestor_signal == NULL) ancestor_signal = lv_obj_get_signal_cb(new_table);
  69:..\..\..\lvgl\version_6.1.2\lvgl\src\lv_objx/lv_table.c ****     if(ancestor_scrl_design == NULL) ancestor_scrl_design = lv_obj_get_design_cb(new_table);
  70:..\..\..\lvgl\version_6.1.2\lvgl\src\lv_objx/lv_table.c **** 
  71:..\..\..\lvgl\version_6.1.2\lvgl\src\lv_objx/lv_table.c ****     /*Initialize the allocated 'ext' */
  72:..\..\..\lvgl\version_6.1.2\lvgl\src\lv_objx/lv_table.c ****     ext->cell_data     = NULL;
  73:..\..\..\lvgl\version_6.1.2\lvgl\src\lv_objx/lv_table.c ****     ext->cell_style[0] = &lv_style_plain;
  74:..\..\..\lvgl\version_6.1.2\lvgl\src\lv_objx/lv_table.c ****     ext->cell_style[1] = &lv_style_plain;
  75:..\..\..\lvgl\version_6.1.2\lvgl\src\lv_objx/lv_table.c ****     ext->cell_style[2] = &lv_style_plain;
  76:..\..\..\lvgl\version_6.1.2\lvgl\src\lv_objx/lv_table.c ****     ext->cell_style[3] = &lv_style_plain;
  77:..\..\..\lvgl\version_6.1.2\lvgl\src\lv_objx/lv_table.c ****     ext->col_cnt       = 0;
  78:..\..\..\lvgl\version_6.1.2\lvgl\src\lv_objx/lv_table.c ****     ext->row_cnt       = 0;
  79:..\..\..\lvgl\version_6.1.2\lvgl\src\lv_objx/lv_table.c **** 
  80:..\..\..\lvgl\version_6.1.2\lvgl\src\lv_objx/lv_table.c ****     uint16_t i;
  81:..\..\..\lvgl\version_6.1.2\lvgl\src\lv_objx/lv_table.c ****     for(i = 0; i < LV_TABLE_COL_MAX; i++) {
  82:..\..\..\lvgl\version_6.1.2\lvgl\src\lv_objx/lv_table.c ****         ext->col_w[i] = LV_DPI;
  83:..\..\..\lvgl\version_6.1.2\lvgl\src\lv_objx/lv_table.c ****     }
  84:..\..\..\lvgl\version_6.1.2\lvgl\src\lv_objx/lv_table.c **** 
  85:..\..\..\lvgl\version_6.1.2\lvgl\src\lv_objx/lv_table.c ****     /*The signal and design functions are not copied so set them here*/
  86:..\..\..\lvgl\version_6.1.2\lvgl\src\lv_objx/lv_table.c ****     lv_obj_set_signal_cb(new_table, lv_table_signal);
  87:..\..\..\lvgl\version_6.1.2\lvgl\src\lv_objx/lv_table.c ****     lv_obj_set_design_cb(new_table, lv_table_design);
ARM GAS  C:\Users\pearlstl\AppData\Local\Temp\ccIJtgHD.s 			page 3


  88:..\..\..\lvgl\version_6.1.2\lvgl\src\lv_objx/lv_table.c **** 
  89:..\..\..\lvgl\version_6.1.2\lvgl\src\lv_objx/lv_table.c ****     /*Init the new table table*/
  90:..\..\..\lvgl\version_6.1.2\lvgl\src\lv_objx/lv_table.c ****     if(copy == NULL) {
  91:..\..\..\lvgl\version_6.1.2\lvgl\src\lv_objx/lv_table.c ****         /*Set the default styles*/
  92:..\..\..\lvgl\version_6.1.2\lvgl\src\lv_objx/lv_table.c ****         lv_theme_t * th = lv_theme_get_current();
  93:..\..\..\lvgl\version_6.1.2\lvgl\src\lv_objx/lv_table.c ****         if(th) {
  94:..\..\..\lvgl\version_6.1.2\lvgl\src\lv_objx/lv_table.c ****             lv_table_set_style(new_table, LV_TABLE_STYLE_BG, th->style.table.bg);
  95:..\..\..\lvgl\version_6.1.2\lvgl\src\lv_objx/lv_table.c ****             lv_table_set_style(new_table, LV_TABLE_STYLE_CELL1, th->style.table.cell);
  96:..\..\..\lvgl\version_6.1.2\lvgl\src\lv_objx/lv_table.c ****             lv_table_set_style(new_table, LV_TABLE_STYLE_CELL2, th->style.table.cell);
  97:..\..\..\lvgl\version_6.1.2\lvgl\src\lv_objx/lv_table.c ****             lv_table_set_style(new_table, LV_TABLE_STYLE_CELL3, th->style.table.cell);
  98:..\..\..\lvgl\version_6.1.2\lvgl\src\lv_objx/lv_table.c ****             lv_table_set_style(new_table, LV_TABLE_STYLE_CELL4, th->style.table.cell);
  99:..\..\..\lvgl\version_6.1.2\lvgl\src\lv_objx/lv_table.c ****         } else {
 100:..\..\..\lvgl\version_6.1.2\lvgl\src\lv_objx/lv_table.c ****             lv_table_set_style(new_table, LV_TABLE_STYLE_BG, &lv_style_plain_color);
 101:..\..\..\lvgl\version_6.1.2\lvgl\src\lv_objx/lv_table.c ****         }
 102:..\..\..\lvgl\version_6.1.2\lvgl\src\lv_objx/lv_table.c ****         lv_obj_set_click(new_table, false); /*Can be removed if click support is added*/
 103:..\..\..\lvgl\version_6.1.2\lvgl\src\lv_objx/lv_table.c ****     }
 104:..\..\..\lvgl\version_6.1.2\lvgl\src\lv_objx/lv_table.c ****     /*Copy an existing table*/
 105:..\..\..\lvgl\version_6.1.2\lvgl\src\lv_objx/lv_table.c ****     else {
 106:..\..\..\lvgl\version_6.1.2\lvgl\src\lv_objx/lv_table.c ****         lv_table_ext_t * copy_ext = lv_obj_get_ext_attr(copy);
 107:..\..\..\lvgl\version_6.1.2\lvgl\src\lv_objx/lv_table.c ****         ext->cell_style[0]        = copy_ext->cell_style[0];
 108:..\..\..\lvgl\version_6.1.2\lvgl\src\lv_objx/lv_table.c ****         ext->cell_style[1]        = copy_ext->cell_style[1];
 109:..\..\..\lvgl\version_6.1.2\lvgl\src\lv_objx/lv_table.c ****         ext->cell_style[2]        = copy_ext->cell_style[2];
 110:..\..\..\lvgl\version_6.1.2\lvgl\src\lv_objx/lv_table.c ****         ext->cell_style[3]        = copy_ext->cell_style[3];
 111:..\..\..\lvgl\version_6.1.2\lvgl\src\lv_objx/lv_table.c ****         lv_table_set_row_cnt(new_table, copy_ext->row_cnt);
 112:..\..\..\lvgl\version_6.1.2\lvgl\src\lv_objx/lv_table.c ****         lv_table_set_col_cnt(new_table, copy_ext->col_cnt);
 113:..\..\..\lvgl\version_6.1.2\lvgl\src\lv_objx/lv_table.c **** 
 114:..\..\..\lvgl\version_6.1.2\lvgl\src\lv_objx/lv_table.c ****         /*Refresh the style with new signal function*/
 115:..\..\..\lvgl\version_6.1.2\lvgl\src\lv_objx/lv_table.c ****         lv_obj_refresh_style(new_table);
 116:..\..\..\lvgl\version_6.1.2\lvgl\src\lv_objx/lv_table.c ****     }
 117:..\..\..\lvgl\version_6.1.2\lvgl\src\lv_objx/lv_table.c **** 
 118:..\..\..\lvgl\version_6.1.2\lvgl\src\lv_objx/lv_table.c ****     LV_LOG_INFO("table created");
 119:..\..\..\lvgl\version_6.1.2\lvgl\src\lv_objx/lv_table.c **** 
 120:..\..\..\lvgl\version_6.1.2\lvgl\src\lv_objx/lv_table.c ****     return new_table;
 121:..\..\..\lvgl\version_6.1.2\lvgl\src\lv_objx/lv_table.c **** }
 122:..\..\..\lvgl\version_6.1.2\lvgl\src\lv_objx/lv_table.c **** 
 123:..\..\..\lvgl\version_6.1.2\lvgl\src\lv_objx/lv_table.c **** /*=====================
 124:..\..\..\lvgl\version_6.1.2\lvgl\src\lv_objx/lv_table.c ****  * Setter functions
 125:..\..\..\lvgl\version_6.1.2\lvgl\src\lv_objx/lv_table.c ****  *====================*/
 126:..\..\..\lvgl\version_6.1.2\lvgl\src\lv_objx/lv_table.c **** 
 127:..\..\..\lvgl\version_6.1.2\lvgl\src\lv_objx/lv_table.c **** /**
 128:..\..\..\lvgl\version_6.1.2\lvgl\src\lv_objx/lv_table.c ****  * Set the value of a cell.
 129:..\..\..\lvgl\version_6.1.2\lvgl\src\lv_objx/lv_table.c ****  * @param table pointer to a Table object
 130:..\..\..\lvgl\version_6.1.2\lvgl\src\lv_objx/lv_table.c ****  * @param row id of the row [0 .. row_cnt -1]
 131:..\..\..\lvgl\version_6.1.2\lvgl\src\lv_objx/lv_table.c ****  * @param col id of the column [0 .. col_cnt -1]
 132:..\..\..\lvgl\version_6.1.2\lvgl\src\lv_objx/lv_table.c ****  * @param txt text to display in the cell. It will be copied and saved so this variable is not
 133:..\..\..\lvgl\version_6.1.2\lvgl\src\lv_objx/lv_table.c ****  * required after this function call.
 134:..\..\..\lvgl\version_6.1.2\lvgl\src\lv_objx/lv_table.c ****  */
 135:..\..\..\lvgl\version_6.1.2\lvgl\src\lv_objx/lv_table.c **** void lv_table_set_cell_value(lv_obj_t * table, uint16_t row, uint16_t col, const char * txt)
 136:..\..\..\lvgl\version_6.1.2\lvgl\src\lv_objx/lv_table.c **** {
 137:..\..\..\lvgl\version_6.1.2\lvgl\src\lv_objx/lv_table.c ****     LV_ASSERT_OBJ(table, LV_OBJX_NAME);
 138:..\..\..\lvgl\version_6.1.2\lvgl\src\lv_objx/lv_table.c ****     LV_ASSERT_NULL(txt);
 139:..\..\..\lvgl\version_6.1.2\lvgl\src\lv_objx/lv_table.c **** 
 140:..\..\..\lvgl\version_6.1.2\lvgl\src\lv_objx/lv_table.c ****     lv_table_ext_t * ext = lv_obj_get_ext_attr(table);
 141:..\..\..\lvgl\version_6.1.2\lvgl\src\lv_objx/lv_table.c ****     if(row >= ext->row_cnt || col >= ext->col_cnt) {
 142:..\..\..\lvgl\version_6.1.2\lvgl\src\lv_objx/lv_table.c ****         LV_LOG_WARN("lv_table_set_cell_value: invalid row or column");
 143:..\..\..\lvgl\version_6.1.2\lvgl\src\lv_objx/lv_table.c ****         return;
 144:..\..\..\lvgl\version_6.1.2\lvgl\src\lv_objx/lv_table.c ****     }
ARM GAS  C:\Users\pearlstl\AppData\Local\Temp\ccIJtgHD.s 			page 4


 145:..\..\..\lvgl\version_6.1.2\lvgl\src\lv_objx/lv_table.c ****     uint32_t cell = row * ext->col_cnt + col;
 146:..\..\..\lvgl\version_6.1.2\lvgl\src\lv_objx/lv_table.c ****     lv_table_cell_format_t format;
 147:..\..\..\lvgl\version_6.1.2\lvgl\src\lv_objx/lv_table.c **** 
 148:..\..\..\lvgl\version_6.1.2\lvgl\src\lv_objx/lv_table.c ****     /*Save the format byte*/
 149:..\..\..\lvgl\version_6.1.2\lvgl\src\lv_objx/lv_table.c ****     if(ext->cell_data[cell]) {
 150:..\..\..\lvgl\version_6.1.2\lvgl\src\lv_objx/lv_table.c ****         format.format_byte = ext->cell_data[cell][0];
 151:..\..\..\lvgl\version_6.1.2\lvgl\src\lv_objx/lv_table.c ****     }
 152:..\..\..\lvgl\version_6.1.2\lvgl\src\lv_objx/lv_table.c ****     /*Initialize the format byte*/
 153:..\..\..\lvgl\version_6.1.2\lvgl\src\lv_objx/lv_table.c ****     else {
 154:..\..\..\lvgl\version_6.1.2\lvgl\src\lv_objx/lv_table.c **** #if LV_USE_BIDI
 155:..\..\..\lvgl\version_6.1.2\lvgl\src\lv_objx/lv_table.c ****         lv_bidi_dir_t base_dir = lv_obj_get_base_dir(table);
 156:..\..\..\lvgl\version_6.1.2\lvgl\src\lv_objx/lv_table.c ****         if(base_dir == LV_BIDI_DIR_LTR) format.s.align = LV_LABEL_ALIGN_LEFT;
 157:..\..\..\lvgl\version_6.1.2\lvgl\src\lv_objx/lv_table.c ****         else if(base_dir == LV_BIDI_DIR_RTL) format.s.align = LV_LABEL_ALIGN_RIGHT;
 158:..\..\..\lvgl\version_6.1.2\lvgl\src\lv_objx/lv_table.c ****         else if(base_dir == LV_BIDI_DIR_AUTO) format.s.align = lv_bidi_detect_base_dir(txt);
 159:..\..\..\lvgl\version_6.1.2\lvgl\src\lv_objx/lv_table.c **** #else
 160:..\..\..\lvgl\version_6.1.2\lvgl\src\lv_objx/lv_table.c ****         format.s.align = LV_LABEL_ALIGN_LEFT;
 161:..\..\..\lvgl\version_6.1.2\lvgl\src\lv_objx/lv_table.c **** #endif
 162:..\..\..\lvgl\version_6.1.2\lvgl\src\lv_objx/lv_table.c **** 
 163:..\..\..\lvgl\version_6.1.2\lvgl\src\lv_objx/lv_table.c ****         format.s.right_merge = 0;
 164:..\..\..\lvgl\version_6.1.2\lvgl\src\lv_objx/lv_table.c ****         format.s.type        = 0;
 165:..\..\..\lvgl\version_6.1.2\lvgl\src\lv_objx/lv_table.c ****         format.s.crop        = 0;
 166:..\..\..\lvgl\version_6.1.2\lvgl\src\lv_objx/lv_table.c ****     }
 167:..\..\..\lvgl\version_6.1.2\lvgl\src\lv_objx/lv_table.c **** 
 168:..\..\..\lvgl\version_6.1.2\lvgl\src\lv_objx/lv_table.c ****     ext->cell_data[cell] = lv_mem_realloc(ext->cell_data[cell], strlen(txt) + 2); /*+1: trailing '\
 169:..\..\..\lvgl\version_6.1.2\lvgl\src\lv_objx/lv_table.c ****     strcpy(ext->cell_data[cell] + 1, txt);  /*+1 to skip the format byte*/
 170:..\..\..\lvgl\version_6.1.2\lvgl\src\lv_objx/lv_table.c **** 
 171:..\..\..\lvgl\version_6.1.2\lvgl\src\lv_objx/lv_table.c ****     ext->cell_data[cell][0] = format.format_byte;
 172:..\..\..\lvgl\version_6.1.2\lvgl\src\lv_objx/lv_table.c ****     refr_size(table);
 173:..\..\..\lvgl\version_6.1.2\lvgl\src\lv_objx/lv_table.c **** }
 174:..\..\..\lvgl\version_6.1.2\lvgl\src\lv_objx/lv_table.c **** 
 175:..\..\..\lvgl\version_6.1.2\lvgl\src\lv_objx/lv_table.c **** /**
 176:..\..\..\lvgl\version_6.1.2\lvgl\src\lv_objx/lv_table.c ****  * Set the number of rows
 177:..\..\..\lvgl\version_6.1.2\lvgl\src\lv_objx/lv_table.c ****  * @param table table pointer to a Table object
 178:..\..\..\lvgl\version_6.1.2\lvgl\src\lv_objx/lv_table.c ****  * @param row_cnt number of rows
 179:..\..\..\lvgl\version_6.1.2\lvgl\src\lv_objx/lv_table.c ****  */
 180:..\..\..\lvgl\version_6.1.2\lvgl\src\lv_objx/lv_table.c **** void lv_table_set_row_cnt(lv_obj_t * table, uint16_t row_cnt)
 181:..\..\..\lvgl\version_6.1.2\lvgl\src\lv_objx/lv_table.c **** {
 182:..\..\..\lvgl\version_6.1.2\lvgl\src\lv_objx/lv_table.c ****     LV_ASSERT_OBJ(table, LV_OBJX_NAME);
 183:..\..\..\lvgl\version_6.1.2\lvgl\src\lv_objx/lv_table.c **** 
 184:..\..\..\lvgl\version_6.1.2\lvgl\src\lv_objx/lv_table.c ****     lv_table_ext_t * ext = lv_obj_get_ext_attr(table);
 185:..\..\..\lvgl\version_6.1.2\lvgl\src\lv_objx/lv_table.c ****     uint16_t old_row_cnt = ext->row_cnt;
 186:..\..\..\lvgl\version_6.1.2\lvgl\src\lv_objx/lv_table.c ****     ext->row_cnt         = row_cnt;
 187:..\..\..\lvgl\version_6.1.2\lvgl\src\lv_objx/lv_table.c **** 
 188:..\..\..\lvgl\version_6.1.2\lvgl\src\lv_objx/lv_table.c ****     if(ext->row_cnt > 0 && ext->col_cnt > 0) {
 189:..\..\..\lvgl\version_6.1.2\lvgl\src\lv_objx/lv_table.c ****         ext->cell_data = lv_mem_realloc(ext->cell_data, ext->row_cnt * ext->col_cnt * sizeof(char *
 190:..\..\..\lvgl\version_6.1.2\lvgl\src\lv_objx/lv_table.c **** 
 191:..\..\..\lvgl\version_6.1.2\lvgl\src\lv_objx/lv_table.c ****         /*Initilize the new fields*/
 192:..\..\..\lvgl\version_6.1.2\lvgl\src\lv_objx/lv_table.c ****         if(old_row_cnt < row_cnt) {
 193:..\..\..\lvgl\version_6.1.2\lvgl\src\lv_objx/lv_table.c ****             uint16_t old_cell_cnt = old_row_cnt * ext->col_cnt;
 194:..\..\..\lvgl\version_6.1.2\lvgl\src\lv_objx/lv_table.c ****             uint32_t new_cell_cnt = ext->col_cnt * ext->row_cnt;
 195:..\..\..\lvgl\version_6.1.2\lvgl\src\lv_objx/lv_table.c ****             memset(&ext->cell_data[old_cell_cnt], 0, (new_cell_cnt - old_cell_cnt) * sizeof(ext->ce
 196:..\..\..\lvgl\version_6.1.2\lvgl\src\lv_objx/lv_table.c ****         }
 197:..\..\..\lvgl\version_6.1.2\lvgl\src\lv_objx/lv_table.c ****     } else {
 198:..\..\..\lvgl\version_6.1.2\lvgl\src\lv_objx/lv_table.c ****         lv_mem_free(ext->cell_data);
 199:..\..\..\lvgl\version_6.1.2\lvgl\src\lv_objx/lv_table.c ****         ext->cell_data = NULL;
 200:..\..\..\lvgl\version_6.1.2\lvgl\src\lv_objx/lv_table.c ****     }
 201:..\..\..\lvgl\version_6.1.2\lvgl\src\lv_objx/lv_table.c **** 
ARM GAS  C:\Users\pearlstl\AppData\Local\Temp\ccIJtgHD.s 			page 5


 202:..\..\..\lvgl\version_6.1.2\lvgl\src\lv_objx/lv_table.c ****     refr_size(table);
 203:..\..\..\lvgl\version_6.1.2\lvgl\src\lv_objx/lv_table.c **** }
 204:..\..\..\lvgl\version_6.1.2\lvgl\src\lv_objx/lv_table.c **** 
 205:..\..\..\lvgl\version_6.1.2\lvgl\src\lv_objx/lv_table.c **** /**
 206:..\..\..\lvgl\version_6.1.2\lvgl\src\lv_objx/lv_table.c ****  * Set the number of columns
 207:..\..\..\lvgl\version_6.1.2\lvgl\src\lv_objx/lv_table.c ****  * @param table table pointer to a Table object
 208:..\..\..\lvgl\version_6.1.2\lvgl\src\lv_objx/lv_table.c ****  * @param col_cnt number of columns. Must be < LV_TABLE_COL_MAX
 209:..\..\..\lvgl\version_6.1.2\lvgl\src\lv_objx/lv_table.c ****  */
 210:..\..\..\lvgl\version_6.1.2\lvgl\src\lv_objx/lv_table.c **** void lv_table_set_col_cnt(lv_obj_t * table, uint16_t col_cnt)
 211:..\..\..\lvgl\version_6.1.2\lvgl\src\lv_objx/lv_table.c **** {
 212:..\..\..\lvgl\version_6.1.2\lvgl\src\lv_objx/lv_table.c ****     LV_ASSERT_OBJ(table, LV_OBJX_NAME);
 213:..\..\..\lvgl\version_6.1.2\lvgl\src\lv_objx/lv_table.c **** 
 214:..\..\..\lvgl\version_6.1.2\lvgl\src\lv_objx/lv_table.c ****     if(col_cnt >= LV_TABLE_COL_MAX) {
 215:..\..\..\lvgl\version_6.1.2\lvgl\src\lv_objx/lv_table.c ****         LV_LOG_WARN("lv_table_set_col_cnt: too many columns. Must be < LV_TABLE_COL_MAX.");
 216:..\..\..\lvgl\version_6.1.2\lvgl\src\lv_objx/lv_table.c ****         return;
 217:..\..\..\lvgl\version_6.1.2\lvgl\src\lv_objx/lv_table.c ****     }
 218:..\..\..\lvgl\version_6.1.2\lvgl\src\lv_objx/lv_table.c **** 
 219:..\..\..\lvgl\version_6.1.2\lvgl\src\lv_objx/lv_table.c ****     lv_table_ext_t * ext = lv_obj_get_ext_attr(table);
 220:..\..\..\lvgl\version_6.1.2\lvgl\src\lv_objx/lv_table.c ****     uint16_t old_col_cnt = ext->col_cnt;
 221:..\..\..\lvgl\version_6.1.2\lvgl\src\lv_objx/lv_table.c ****     ext->col_cnt         = col_cnt;
 222:..\..\..\lvgl\version_6.1.2\lvgl\src\lv_objx/lv_table.c **** 
 223:..\..\..\lvgl\version_6.1.2\lvgl\src\lv_objx/lv_table.c ****     if(ext->row_cnt > 0 && ext->col_cnt > 0) {
 224:..\..\..\lvgl\version_6.1.2\lvgl\src\lv_objx/lv_table.c ****         ext->cell_data = lv_mem_realloc(ext->cell_data, ext->row_cnt * ext->col_cnt * sizeof(char *
 225:..\..\..\lvgl\version_6.1.2\lvgl\src\lv_objx/lv_table.c ****         /*Initilize the new fields*/
 226:..\..\..\lvgl\version_6.1.2\lvgl\src\lv_objx/lv_table.c ****         if(old_col_cnt < col_cnt) {
 227:..\..\..\lvgl\version_6.1.2\lvgl\src\lv_objx/lv_table.c ****             uint16_t old_cell_cnt = old_col_cnt * ext->row_cnt;
 228:..\..\..\lvgl\version_6.1.2\lvgl\src\lv_objx/lv_table.c ****             uint32_t new_cell_cnt = ext->col_cnt * ext->row_cnt;
 229:..\..\..\lvgl\version_6.1.2\lvgl\src\lv_objx/lv_table.c ****             memset(&ext->cell_data[old_cell_cnt], 0, (new_cell_cnt - old_cell_cnt) * sizeof(ext->ce
 230:..\..\..\lvgl\version_6.1.2\lvgl\src\lv_objx/lv_table.c ****         }
 231:..\..\..\lvgl\version_6.1.2\lvgl\src\lv_objx/lv_table.c **** 
 232:..\..\..\lvgl\version_6.1.2\lvgl\src\lv_objx/lv_table.c ****     } else {
 233:..\..\..\lvgl\version_6.1.2\lvgl\src\lv_objx/lv_table.c ****         lv_mem_free(ext->cell_data);
 234:..\..\..\lvgl\version_6.1.2\lvgl\src\lv_objx/lv_table.c ****         ext->cell_data = NULL;
 235:..\..\..\lvgl\version_6.1.2\lvgl\src\lv_objx/lv_table.c ****     }
 236:..\..\..\lvgl\version_6.1.2\lvgl\src\lv_objx/lv_table.c ****     refr_size(table);
 237:..\..\..\lvgl\version_6.1.2\lvgl\src\lv_objx/lv_table.c **** }
 238:..\..\..\lvgl\version_6.1.2\lvgl\src\lv_objx/lv_table.c **** 
 239:..\..\..\lvgl\version_6.1.2\lvgl\src\lv_objx/lv_table.c **** /**
 240:..\..\..\lvgl\version_6.1.2\lvgl\src\lv_objx/lv_table.c ****  * Set the width of a column
 241:..\..\..\lvgl\version_6.1.2\lvgl\src\lv_objx/lv_table.c ****  * @param table table pointer to a Table object
 242:..\..\..\lvgl\version_6.1.2\lvgl\src\lv_objx/lv_table.c ****  * @param col_id id of the column [0 .. LV_TABLE_COL_MAX -1]
 243:..\..\..\lvgl\version_6.1.2\lvgl\src\lv_objx/lv_table.c ****  * @param w width of the column
 244:..\..\..\lvgl\version_6.1.2\lvgl\src\lv_objx/lv_table.c ****  */
 245:..\..\..\lvgl\version_6.1.2\lvgl\src\lv_objx/lv_table.c **** void lv_table_set_col_width(lv_obj_t * table, uint16_t col_id, lv_coord_t w)
 246:..\..\..\lvgl\version_6.1.2\lvgl\src\lv_objx/lv_table.c **** {
 247:..\..\..\lvgl\version_6.1.2\lvgl\src\lv_objx/lv_table.c ****     LV_ASSERT_OBJ(table, LV_OBJX_NAME);
 248:..\..\..\lvgl\version_6.1.2\lvgl\src\lv_objx/lv_table.c **** 
 249:..\..\..\lvgl\version_6.1.2\lvgl\src\lv_objx/lv_table.c ****     if(col_id >= LV_TABLE_COL_MAX) {
 250:..\..\..\lvgl\version_6.1.2\lvgl\src\lv_objx/lv_table.c ****         LV_LOG_WARN("lv_table_set_col_width: too big 'col_id'. Must be < LV_TABLE_COL_MAX.");
 251:..\..\..\lvgl\version_6.1.2\lvgl\src\lv_objx/lv_table.c ****         return;
 252:..\..\..\lvgl\version_6.1.2\lvgl\src\lv_objx/lv_table.c ****     }
 253:..\..\..\lvgl\version_6.1.2\lvgl\src\lv_objx/lv_table.c **** 
 254:..\..\..\lvgl\version_6.1.2\lvgl\src\lv_objx/lv_table.c ****     lv_table_ext_t * ext = lv_obj_get_ext_attr(table);
 255:..\..\..\lvgl\version_6.1.2\lvgl\src\lv_objx/lv_table.c ****     ext->col_w[col_id]   = w;
 256:..\..\..\lvgl\version_6.1.2\lvgl\src\lv_objx/lv_table.c ****     refr_size(table);
 257:..\..\..\lvgl\version_6.1.2\lvgl\src\lv_objx/lv_table.c **** }
 258:..\..\..\lvgl\version_6.1.2\lvgl\src\lv_objx/lv_table.c **** 
ARM GAS  C:\Users\pearlstl\AppData\Local\Temp\ccIJtgHD.s 			page 6


 259:..\..\..\lvgl\version_6.1.2\lvgl\src\lv_objx/lv_table.c **** /**
 260:..\..\..\lvgl\version_6.1.2\lvgl\src\lv_objx/lv_table.c ****  * Set the text align in a cell
 261:..\..\..\lvgl\version_6.1.2\lvgl\src\lv_objx/lv_table.c ****  * @param table pointer to a Table object
 262:..\..\..\lvgl\version_6.1.2\lvgl\src\lv_objx/lv_table.c ****  * @param row id of the row [0 .. row_cnt -1]
 263:..\..\..\lvgl\version_6.1.2\lvgl\src\lv_objx/lv_table.c ****  * @param col id of the column [0 .. col_cnt -1]
 264:..\..\..\lvgl\version_6.1.2\lvgl\src\lv_objx/lv_table.c ****  * @param align LV_LABEL_ALIGN_LEFT or LV_LABEL_ALIGN_CENTER or LV_LABEL_ALIGN_RIGHT
 265:..\..\..\lvgl\version_6.1.2\lvgl\src\lv_objx/lv_table.c ****  */
 266:..\..\..\lvgl\version_6.1.2\lvgl\src\lv_objx/lv_table.c **** void lv_table_set_cell_align(lv_obj_t * table, uint16_t row, uint16_t col, lv_label_align_t align)
 267:..\..\..\lvgl\version_6.1.2\lvgl\src\lv_objx/lv_table.c **** {
 268:..\..\..\lvgl\version_6.1.2\lvgl\src\lv_objx/lv_table.c ****     LV_ASSERT_OBJ(table, LV_OBJX_NAME);
 269:..\..\..\lvgl\version_6.1.2\lvgl\src\lv_objx/lv_table.c **** 
 270:..\..\..\lvgl\version_6.1.2\lvgl\src\lv_objx/lv_table.c ****     lv_table_ext_t * ext = lv_obj_get_ext_attr(table);
 271:..\..\..\lvgl\version_6.1.2\lvgl\src\lv_objx/lv_table.c ****     if(row >= ext->row_cnt || col >= ext->col_cnt) {
 272:..\..\..\lvgl\version_6.1.2\lvgl\src\lv_objx/lv_table.c ****         LV_LOG_WARN("lv_table_set_cell_align: invalid row or column");
 273:..\..\..\lvgl\version_6.1.2\lvgl\src\lv_objx/lv_table.c ****         return;
 274:..\..\..\lvgl\version_6.1.2\lvgl\src\lv_objx/lv_table.c ****     }
 275:..\..\..\lvgl\version_6.1.2\lvgl\src\lv_objx/lv_table.c ****     uint32_t cell = row * ext->col_cnt + col;
 276:..\..\..\lvgl\version_6.1.2\lvgl\src\lv_objx/lv_table.c **** 
 277:..\..\..\lvgl\version_6.1.2\lvgl\src\lv_objx/lv_table.c ****     if(ext->cell_data[cell] == NULL) {
 278:..\..\..\lvgl\version_6.1.2\lvgl\src\lv_objx/lv_table.c ****         ext->cell_data[cell]    = lv_mem_alloc(2); /*+1: trailing '\0; +1: format byte*/
 279:..\..\..\lvgl\version_6.1.2\lvgl\src\lv_objx/lv_table.c ****         ext->cell_data[cell][0] = 0;
 280:..\..\..\lvgl\version_6.1.2\lvgl\src\lv_objx/lv_table.c ****         ext->cell_data[cell][1] = '\0';
 281:..\..\..\lvgl\version_6.1.2\lvgl\src\lv_objx/lv_table.c ****     }
 282:..\..\..\lvgl\version_6.1.2\lvgl\src\lv_objx/lv_table.c **** 
 283:..\..\..\lvgl\version_6.1.2\lvgl\src\lv_objx/lv_table.c ****     lv_table_cell_format_t format;
 284:..\..\..\lvgl\version_6.1.2\lvgl\src\lv_objx/lv_table.c ****     format.format_byte      = ext->cell_data[cell][0];
 285:..\..\..\lvgl\version_6.1.2\lvgl\src\lv_objx/lv_table.c ****     format.s.align          = align;
 286:..\..\..\lvgl\version_6.1.2\lvgl\src\lv_objx/lv_table.c ****     ext->cell_data[cell][0] = format.format_byte;
 287:..\..\..\lvgl\version_6.1.2\lvgl\src\lv_objx/lv_table.c **** }
 288:..\..\..\lvgl\version_6.1.2\lvgl\src\lv_objx/lv_table.c **** 
 289:..\..\..\lvgl\version_6.1.2\lvgl\src\lv_objx/lv_table.c **** /**
 290:..\..\..\lvgl\version_6.1.2\lvgl\src\lv_objx/lv_table.c ****  * Set the type of a cell.
 291:..\..\..\lvgl\version_6.1.2\lvgl\src\lv_objx/lv_table.c ****  * @param table pointer to a Table object
 292:..\..\..\lvgl\version_6.1.2\lvgl\src\lv_objx/lv_table.c ****  * @param row id of the row [0 .. row_cnt -1]
 293:..\..\..\lvgl\version_6.1.2\lvgl\src\lv_objx/lv_table.c ****  * @param col id of the column [0 .. col_cnt -1]
 294:..\..\..\lvgl\version_6.1.2\lvgl\src\lv_objx/lv_table.c ****  * @param type 1,2,3 or 4. The cell style will be chosen accordingly.
 295:..\..\..\lvgl\version_6.1.2\lvgl\src\lv_objx/lv_table.c ****  */
 296:..\..\..\lvgl\version_6.1.2\lvgl\src\lv_objx/lv_table.c **** void lv_table_set_cell_type(lv_obj_t * table, uint16_t row, uint16_t col, uint8_t type)
 297:..\..\..\lvgl\version_6.1.2\lvgl\src\lv_objx/lv_table.c **** {
 298:..\..\..\lvgl\version_6.1.2\lvgl\src\lv_objx/lv_table.c ****     LV_ASSERT_OBJ(table, LV_OBJX_NAME);
 299:..\..\..\lvgl\version_6.1.2\lvgl\src\lv_objx/lv_table.c **** 
 300:..\..\..\lvgl\version_6.1.2\lvgl\src\lv_objx/lv_table.c ****     lv_table_ext_t * ext = lv_obj_get_ext_attr(table);
 301:..\..\..\lvgl\version_6.1.2\lvgl\src\lv_objx/lv_table.c ****     if(row >= ext->row_cnt || col >= ext->col_cnt) {
 302:..\..\..\lvgl\version_6.1.2\lvgl\src\lv_objx/lv_table.c ****         LV_LOG_WARN("lv_table_set_cell_type: invalid row or column");
 303:..\..\..\lvgl\version_6.1.2\lvgl\src\lv_objx/lv_table.c ****         return;
 304:..\..\..\lvgl\version_6.1.2\lvgl\src\lv_objx/lv_table.c ****     }
 305:..\..\..\lvgl\version_6.1.2\lvgl\src\lv_objx/lv_table.c ****     uint32_t cell = row * ext->col_cnt + col;
 306:..\..\..\lvgl\version_6.1.2\lvgl\src\lv_objx/lv_table.c **** 
 307:..\..\..\lvgl\version_6.1.2\lvgl\src\lv_objx/lv_table.c ****     if(ext->cell_data[cell] == NULL) {
 308:..\..\..\lvgl\version_6.1.2\lvgl\src\lv_objx/lv_table.c ****         ext->cell_data[cell]    = lv_mem_alloc(2); /*+1: trailing '\0; +1: format byte*/
 309:..\..\..\lvgl\version_6.1.2\lvgl\src\lv_objx/lv_table.c ****         ext->cell_data[cell][0] = 0;
 310:..\..\..\lvgl\version_6.1.2\lvgl\src\lv_objx/lv_table.c ****         ext->cell_data[cell][1] = '\0';
 311:..\..\..\lvgl\version_6.1.2\lvgl\src\lv_objx/lv_table.c ****     }
 312:..\..\..\lvgl\version_6.1.2\lvgl\src\lv_objx/lv_table.c **** 
 313:..\..\..\lvgl\version_6.1.2\lvgl\src\lv_objx/lv_table.c ****     if(type > 0) type--; /*User gives 1,2,3,4 but easier to handle 0, 1, 2, 3*/
 314:..\..\..\lvgl\version_6.1.2\lvgl\src\lv_objx/lv_table.c ****     if(type >= LV_TABLE_CELL_STYLE_CNT) type = LV_TABLE_CELL_STYLE_CNT - 1;
 315:..\..\..\lvgl\version_6.1.2\lvgl\src\lv_objx/lv_table.c **** 
ARM GAS  C:\Users\pearlstl\AppData\Local\Temp\ccIJtgHD.s 			page 7


 316:..\..\..\lvgl\version_6.1.2\lvgl\src\lv_objx/lv_table.c ****     lv_table_cell_format_t format;
 317:..\..\..\lvgl\version_6.1.2\lvgl\src\lv_objx/lv_table.c ****     format.format_byte      = ext->cell_data[cell][0];
 318:..\..\..\lvgl\version_6.1.2\lvgl\src\lv_objx/lv_table.c ****     format.s.type           = type;
 319:..\..\..\lvgl\version_6.1.2\lvgl\src\lv_objx/lv_table.c ****     ext->cell_data[cell][0] = format.format_byte;
 320:..\..\..\lvgl\version_6.1.2\lvgl\src\lv_objx/lv_table.c **** }
 321:..\..\..\lvgl\version_6.1.2\lvgl\src\lv_objx/lv_table.c **** 
 322:..\..\..\lvgl\version_6.1.2\lvgl\src\lv_objx/lv_table.c **** /**
 323:..\..\..\lvgl\version_6.1.2\lvgl\src\lv_objx/lv_table.c ****  * Set the cell crop. (Don't adjust the height of the cell according to its content)
 324:..\..\..\lvgl\version_6.1.2\lvgl\src\lv_objx/lv_table.c ****  * @param table pointer to a Table object
 325:..\..\..\lvgl\version_6.1.2\lvgl\src\lv_objx/lv_table.c ****  * @param row id of the row [0 .. row_cnt -1]
 326:..\..\..\lvgl\version_6.1.2\lvgl\src\lv_objx/lv_table.c ****  * @param col id of the column [0 .. col_cnt -1]
 327:..\..\..\lvgl\version_6.1.2\lvgl\src\lv_objx/lv_table.c ****  * @param crop true: crop the cell content; false: set the cell height to the content.
 328:..\..\..\lvgl\version_6.1.2\lvgl\src\lv_objx/lv_table.c ****  */
 329:..\..\..\lvgl\version_6.1.2\lvgl\src\lv_objx/lv_table.c **** void lv_table_set_cell_crop(lv_obj_t * table, uint16_t row, uint16_t col, bool crop)
 330:..\..\..\lvgl\version_6.1.2\lvgl\src\lv_objx/lv_table.c **** {
 331:..\..\..\lvgl\version_6.1.2\lvgl\src\lv_objx/lv_table.c ****     LV_ASSERT_OBJ(table, LV_OBJX_NAME);
 332:..\..\..\lvgl\version_6.1.2\lvgl\src\lv_objx/lv_table.c **** 
 333:..\..\..\lvgl\version_6.1.2\lvgl\src\lv_objx/lv_table.c ****     lv_table_ext_t * ext = lv_obj_get_ext_attr(table);
 334:..\..\..\lvgl\version_6.1.2\lvgl\src\lv_objx/lv_table.c ****     if(row >= ext->row_cnt || col >= ext->col_cnt) {
 335:..\..\..\lvgl\version_6.1.2\lvgl\src\lv_objx/lv_table.c ****         LV_LOG_WARN("lv_table_set_cell_crop: invalid row or column");
 336:..\..\..\lvgl\version_6.1.2\lvgl\src\lv_objx/lv_table.c ****         return;
 337:..\..\..\lvgl\version_6.1.2\lvgl\src\lv_objx/lv_table.c ****     }
 338:..\..\..\lvgl\version_6.1.2\lvgl\src\lv_objx/lv_table.c ****     uint32_t cell = row * ext->col_cnt + col;
 339:..\..\..\lvgl\version_6.1.2\lvgl\src\lv_objx/lv_table.c **** 
 340:..\..\..\lvgl\version_6.1.2\lvgl\src\lv_objx/lv_table.c ****     if(ext->cell_data[cell] == NULL) {
 341:..\..\..\lvgl\version_6.1.2\lvgl\src\lv_objx/lv_table.c ****         ext->cell_data[cell]    = lv_mem_alloc(2); /*+1: trailing '\0; +1: format byte*/
 342:..\..\..\lvgl\version_6.1.2\lvgl\src\lv_objx/lv_table.c ****         ext->cell_data[cell][0] = 0;
 343:..\..\..\lvgl\version_6.1.2\lvgl\src\lv_objx/lv_table.c ****         ext->cell_data[cell][1] = '\0';
 344:..\..\..\lvgl\version_6.1.2\lvgl\src\lv_objx/lv_table.c ****     }
 345:..\..\..\lvgl\version_6.1.2\lvgl\src\lv_objx/lv_table.c **** 
 346:..\..\..\lvgl\version_6.1.2\lvgl\src\lv_objx/lv_table.c ****     lv_table_cell_format_t format;
 347:..\..\..\lvgl\version_6.1.2\lvgl\src\lv_objx/lv_table.c ****     format.format_byte      = ext->cell_data[cell][0];
 348:..\..\..\lvgl\version_6.1.2\lvgl\src\lv_objx/lv_table.c ****     format.s.crop           = crop;
 349:..\..\..\lvgl\version_6.1.2\lvgl\src\lv_objx/lv_table.c ****     ext->cell_data[cell][0] = format.format_byte;
 350:..\..\..\lvgl\version_6.1.2\lvgl\src\lv_objx/lv_table.c **** }
 351:..\..\..\lvgl\version_6.1.2\lvgl\src\lv_objx/lv_table.c **** 
 352:..\..\..\lvgl\version_6.1.2\lvgl\src\lv_objx/lv_table.c **** /**
 353:..\..\..\lvgl\version_6.1.2\lvgl\src\lv_objx/lv_table.c ****  * Merge a cell with the right neighbor. The value of the cell to the right won't be displayed.
 354:..\..\..\lvgl\version_6.1.2\lvgl\src\lv_objx/lv_table.c ****  * @param table table pointer to a Table object
 355:..\..\..\lvgl\version_6.1.2\lvgl\src\lv_objx/lv_table.c ****  * @param row id of the row [0 .. row_cnt -1]
 356:..\..\..\lvgl\version_6.1.2\lvgl\src\lv_objx/lv_table.c ****  * @param col id of the column [0 .. col_cnt -1]
 357:..\..\..\lvgl\version_6.1.2\lvgl\src\lv_objx/lv_table.c ****  * @param en true: merge right; false: don't merge right
 358:..\..\..\lvgl\version_6.1.2\lvgl\src\lv_objx/lv_table.c ****  */
 359:..\..\..\lvgl\version_6.1.2\lvgl\src\lv_objx/lv_table.c **** void lv_table_set_cell_merge_right(lv_obj_t * table, uint16_t row, uint16_t col, bool en)
 360:..\..\..\lvgl\version_6.1.2\lvgl\src\lv_objx/lv_table.c **** {
 361:..\..\..\lvgl\version_6.1.2\lvgl\src\lv_objx/lv_table.c ****     LV_ASSERT_OBJ(table, LV_OBJX_NAME);
 362:..\..\..\lvgl\version_6.1.2\lvgl\src\lv_objx/lv_table.c **** 
 363:..\..\..\lvgl\version_6.1.2\lvgl\src\lv_objx/lv_table.c ****     lv_table_ext_t * ext = lv_obj_get_ext_attr(table);
 364:..\..\..\lvgl\version_6.1.2\lvgl\src\lv_objx/lv_table.c ****     if(row >= ext->row_cnt || col >= ext->col_cnt) {
 365:..\..\..\lvgl\version_6.1.2\lvgl\src\lv_objx/lv_table.c ****         LV_LOG_WARN("lv_table_set_cell_merge_right: invalid row or column");
 366:..\..\..\lvgl\version_6.1.2\lvgl\src\lv_objx/lv_table.c ****         return;
 367:..\..\..\lvgl\version_6.1.2\lvgl\src\lv_objx/lv_table.c ****     }
 368:..\..\..\lvgl\version_6.1.2\lvgl\src\lv_objx/lv_table.c **** 
 369:..\..\..\lvgl\version_6.1.2\lvgl\src\lv_objx/lv_table.c ****     uint32_t cell = row * ext->col_cnt + col;
 370:..\..\..\lvgl\version_6.1.2\lvgl\src\lv_objx/lv_table.c **** 
 371:..\..\..\lvgl\version_6.1.2\lvgl\src\lv_objx/lv_table.c ****     if(ext->cell_data[cell] == NULL) {
 372:..\..\..\lvgl\version_6.1.2\lvgl\src\lv_objx/lv_table.c ****         ext->cell_data[cell]    = lv_mem_alloc(2); /*+1: trailing '\0; +1: format byte*/
ARM GAS  C:\Users\pearlstl\AppData\Local\Temp\ccIJtgHD.s 			page 8


 373:..\..\..\lvgl\version_6.1.2\lvgl\src\lv_objx/lv_table.c ****         ext->cell_data[cell][0] = 0;
 374:..\..\..\lvgl\version_6.1.2\lvgl\src\lv_objx/lv_table.c ****         ext->cell_data[cell][1] = '\0';
 375:..\..\..\lvgl\version_6.1.2\lvgl\src\lv_objx/lv_table.c ****     }
 376:..\..\..\lvgl\version_6.1.2\lvgl\src\lv_objx/lv_table.c **** 
 377:..\..\..\lvgl\version_6.1.2\lvgl\src\lv_objx/lv_table.c ****     lv_table_cell_format_t format;
 378:..\..\..\lvgl\version_6.1.2\lvgl\src\lv_objx/lv_table.c ****     format.format_byte      = ext->cell_data[cell][0];
 379:..\..\..\lvgl\version_6.1.2\lvgl\src\lv_objx/lv_table.c ****     format.s.right_merge    = en ? 1 : 0;
 380:..\..\..\lvgl\version_6.1.2\lvgl\src\lv_objx/lv_table.c ****     ext->cell_data[cell][0] = format.format_byte;
 381:..\..\..\lvgl\version_6.1.2\lvgl\src\lv_objx/lv_table.c ****     refr_size(table);
 382:..\..\..\lvgl\version_6.1.2\lvgl\src\lv_objx/lv_table.c **** }
 383:..\..\..\lvgl\version_6.1.2\lvgl\src\lv_objx/lv_table.c **** 
 384:..\..\..\lvgl\version_6.1.2\lvgl\src\lv_objx/lv_table.c **** /**
 385:..\..\..\lvgl\version_6.1.2\lvgl\src\lv_objx/lv_table.c ****  * Set a style of a table.
 386:..\..\..\lvgl\version_6.1.2\lvgl\src\lv_objx/lv_table.c ****  * @param table pointer to table object
 387:..\..\..\lvgl\version_6.1.2\lvgl\src\lv_objx/lv_table.c ****  * @param type which style should be set
 388:..\..\..\lvgl\version_6.1.2\lvgl\src\lv_objx/lv_table.c ****  * @param style pointer to a style
 389:..\..\..\lvgl\version_6.1.2\lvgl\src\lv_objx/lv_table.c ****  */
 390:..\..\..\lvgl\version_6.1.2\lvgl\src\lv_objx/lv_table.c **** void lv_table_set_style(lv_obj_t * table, lv_table_style_t type, const lv_style_t * style)
 391:..\..\..\lvgl\version_6.1.2\lvgl\src\lv_objx/lv_table.c **** {
 392:..\..\..\lvgl\version_6.1.2\lvgl\src\lv_objx/lv_table.c ****     LV_ASSERT_OBJ(table, LV_OBJX_NAME);
 393:..\..\..\lvgl\version_6.1.2\lvgl\src\lv_objx/lv_table.c **** 
 394:..\..\..\lvgl\version_6.1.2\lvgl\src\lv_objx/lv_table.c ****     lv_table_ext_t * ext = lv_obj_get_ext_attr(table);
 395:..\..\..\lvgl\version_6.1.2\lvgl\src\lv_objx/lv_table.c **** 
 396:..\..\..\lvgl\version_6.1.2\lvgl\src\lv_objx/lv_table.c ****     switch(type) {
 397:..\..\..\lvgl\version_6.1.2\lvgl\src\lv_objx/lv_table.c ****         case LV_TABLE_STYLE_BG:
 398:..\..\..\lvgl\version_6.1.2\lvgl\src\lv_objx/lv_table.c ****             lv_obj_set_style(table, style);
 399:..\..\..\lvgl\version_6.1.2\lvgl\src\lv_objx/lv_table.c ****             refr_size(table);
 400:..\..\..\lvgl\version_6.1.2\lvgl\src\lv_objx/lv_table.c ****             break;
 401:..\..\..\lvgl\version_6.1.2\lvgl\src\lv_objx/lv_table.c ****         case LV_TABLE_STYLE_CELL1:
 402:..\..\..\lvgl\version_6.1.2\lvgl\src\lv_objx/lv_table.c ****             ext->cell_style[0] = style;
 403:..\..\..\lvgl\version_6.1.2\lvgl\src\lv_objx/lv_table.c ****             refr_size(table);
 404:..\..\..\lvgl\version_6.1.2\lvgl\src\lv_objx/lv_table.c ****             break;
 405:..\..\..\lvgl\version_6.1.2\lvgl\src\lv_objx/lv_table.c ****         case LV_TABLE_STYLE_CELL2:
 406:..\..\..\lvgl\version_6.1.2\lvgl\src\lv_objx/lv_table.c ****             ext->cell_style[1] = style;
 407:..\..\..\lvgl\version_6.1.2\lvgl\src\lv_objx/lv_table.c ****             refr_size(table);
 408:..\..\..\lvgl\version_6.1.2\lvgl\src\lv_objx/lv_table.c ****             break;
 409:..\..\..\lvgl\version_6.1.2\lvgl\src\lv_objx/lv_table.c ****         case LV_TABLE_STYLE_CELL3:
 410:..\..\..\lvgl\version_6.1.2\lvgl\src\lv_objx/lv_table.c ****             ext->cell_style[2] = style;
 411:..\..\..\lvgl\version_6.1.2\lvgl\src\lv_objx/lv_table.c ****             refr_size(table);
 412:..\..\..\lvgl\version_6.1.2\lvgl\src\lv_objx/lv_table.c ****             break;
 413:..\..\..\lvgl\version_6.1.2\lvgl\src\lv_objx/lv_table.c ****         case LV_TABLE_STYLE_CELL4:
 414:..\..\..\lvgl\version_6.1.2\lvgl\src\lv_objx/lv_table.c ****             ext->cell_style[3] = style;
 415:..\..\..\lvgl\version_6.1.2\lvgl\src\lv_objx/lv_table.c ****             refr_size(table);
 416:..\..\..\lvgl\version_6.1.2\lvgl\src\lv_objx/lv_table.c ****             break;
 417:..\..\..\lvgl\version_6.1.2\lvgl\src\lv_objx/lv_table.c ****     }
 418:..\..\..\lvgl\version_6.1.2\lvgl\src\lv_objx/lv_table.c **** }
 419:..\..\..\lvgl\version_6.1.2\lvgl\src\lv_objx/lv_table.c **** 
 420:..\..\..\lvgl\version_6.1.2\lvgl\src\lv_objx/lv_table.c **** /*=====================
 421:..\..\..\lvgl\version_6.1.2\lvgl\src\lv_objx/lv_table.c ****  * Getter functions
 422:..\..\..\lvgl\version_6.1.2\lvgl\src\lv_objx/lv_table.c ****  *====================*/
 423:..\..\..\lvgl\version_6.1.2\lvgl\src\lv_objx/lv_table.c **** 
 424:..\..\..\lvgl\version_6.1.2\lvgl\src\lv_objx/lv_table.c **** /**
 425:..\..\..\lvgl\version_6.1.2\lvgl\src\lv_objx/lv_table.c ****  * Get the value of a cell.
 426:..\..\..\lvgl\version_6.1.2\lvgl\src\lv_objx/lv_table.c ****  * @param table pointer to a Table object
 427:..\..\..\lvgl\version_6.1.2\lvgl\src\lv_objx/lv_table.c ****  * @param row id of the row [0 .. row_cnt -1]
 428:..\..\..\lvgl\version_6.1.2\lvgl\src\lv_objx/lv_table.c ****  * @param col id of the column [0 .. col_cnt -1]
 429:..\..\..\lvgl\version_6.1.2\lvgl\src\lv_objx/lv_table.c ****  * @return text in the cell
ARM GAS  C:\Users\pearlstl\AppData\Local\Temp\ccIJtgHD.s 			page 9


 430:..\..\..\lvgl\version_6.1.2\lvgl\src\lv_objx/lv_table.c ****  */
 431:..\..\..\lvgl\version_6.1.2\lvgl\src\lv_objx/lv_table.c **** const char * lv_table_get_cell_value(lv_obj_t * table, uint16_t row, uint16_t col)
 432:..\..\..\lvgl\version_6.1.2\lvgl\src\lv_objx/lv_table.c **** {
 433:..\..\..\lvgl\version_6.1.2\lvgl\src\lv_objx/lv_table.c ****     LV_ASSERT_OBJ(table, LV_OBJX_NAME);
 434:..\..\..\lvgl\version_6.1.2\lvgl\src\lv_objx/lv_table.c **** 
 435:..\..\..\lvgl\version_6.1.2\lvgl\src\lv_objx/lv_table.c ****     lv_table_ext_t * ext = lv_obj_get_ext_attr(table);
 436:..\..\..\lvgl\version_6.1.2\lvgl\src\lv_objx/lv_table.c ****     if(row >= ext->row_cnt || col >= ext->col_cnt) {
 437:..\..\..\lvgl\version_6.1.2\lvgl\src\lv_objx/lv_table.c ****         LV_LOG_WARN("lv_table_set_cell_value: invalid row or column");
 438:..\..\..\lvgl\version_6.1.2\lvgl\src\lv_objx/lv_table.c ****         return "";
 439:..\..\..\lvgl\version_6.1.2\lvgl\src\lv_objx/lv_table.c ****     }
 440:..\..\..\lvgl\version_6.1.2\lvgl\src\lv_objx/lv_table.c ****     uint32_t cell = row * ext->col_cnt + col;
 441:..\..\..\lvgl\version_6.1.2\lvgl\src\lv_objx/lv_table.c **** 
 442:..\..\..\lvgl\version_6.1.2\lvgl\src\lv_objx/lv_table.c ****     if(ext->cell_data[cell] == NULL) return "";
 443:..\..\..\lvgl\version_6.1.2\lvgl\src\lv_objx/lv_table.c **** 
 444:..\..\..\lvgl\version_6.1.2\lvgl\src\lv_objx/lv_table.c ****     return &ext->cell_data[cell][1]; /*Skip the format byte*/
 445:..\..\..\lvgl\version_6.1.2\lvgl\src\lv_objx/lv_table.c **** }
 446:..\..\..\lvgl\version_6.1.2\lvgl\src\lv_objx/lv_table.c **** 
 447:..\..\..\lvgl\version_6.1.2\lvgl\src\lv_objx/lv_table.c **** /**
 448:..\..\..\lvgl\version_6.1.2\lvgl\src\lv_objx/lv_table.c ****  * Get the number of rows.
 449:..\..\..\lvgl\version_6.1.2\lvgl\src\lv_objx/lv_table.c ****  * @param table table pointer to a Table object
 450:..\..\..\lvgl\version_6.1.2\lvgl\src\lv_objx/lv_table.c ****  * @return number of rows.
 451:..\..\..\lvgl\version_6.1.2\lvgl\src\lv_objx/lv_table.c ****  */
 452:..\..\..\lvgl\version_6.1.2\lvgl\src\lv_objx/lv_table.c **** uint16_t lv_table_get_row_cnt(lv_obj_t * table)
 453:..\..\..\lvgl\version_6.1.2\lvgl\src\lv_objx/lv_table.c **** {
 454:..\..\..\lvgl\version_6.1.2\lvgl\src\lv_objx/lv_table.c ****     LV_ASSERT_OBJ(table, LV_OBJX_NAME);
 455:..\..\..\lvgl\version_6.1.2\lvgl\src\lv_objx/lv_table.c **** 
 456:..\..\..\lvgl\version_6.1.2\lvgl\src\lv_objx/lv_table.c ****     lv_table_ext_t * ext = lv_obj_get_ext_attr(table);
 457:..\..\..\lvgl\version_6.1.2\lvgl\src\lv_objx/lv_table.c ****     return ext->row_cnt;
 458:..\..\..\lvgl\version_6.1.2\lvgl\src\lv_objx/lv_table.c **** }
 459:..\..\..\lvgl\version_6.1.2\lvgl\src\lv_objx/lv_table.c **** 
 460:..\..\..\lvgl\version_6.1.2\lvgl\src\lv_objx/lv_table.c **** /**
 461:..\..\..\lvgl\version_6.1.2\lvgl\src\lv_objx/lv_table.c ****  * Get the number of columns.
 462:..\..\..\lvgl\version_6.1.2\lvgl\src\lv_objx/lv_table.c ****  * @param table table pointer to a Table object
 463:..\..\..\lvgl\version_6.1.2\lvgl\src\lv_objx/lv_table.c ****  * @return number of columns.
 464:..\..\..\lvgl\version_6.1.2\lvgl\src\lv_objx/lv_table.c ****  */
 465:..\..\..\lvgl\version_6.1.2\lvgl\src\lv_objx/lv_table.c **** uint16_t lv_table_get_col_cnt(lv_obj_t * table)
 466:..\..\..\lvgl\version_6.1.2\lvgl\src\lv_objx/lv_table.c **** {
 467:..\..\..\lvgl\version_6.1.2\lvgl\src\lv_objx/lv_table.c ****     LV_ASSERT_OBJ(table, LV_OBJX_NAME);
 468:..\..\..\lvgl\version_6.1.2\lvgl\src\lv_objx/lv_table.c **** 
 469:..\..\..\lvgl\version_6.1.2\lvgl\src\lv_objx/lv_table.c ****     lv_table_ext_t * ext = lv_obj_get_ext_attr(table);
 470:..\..\..\lvgl\version_6.1.2\lvgl\src\lv_objx/lv_table.c ****     return ext->col_cnt;
 471:..\..\..\lvgl\version_6.1.2\lvgl\src\lv_objx/lv_table.c **** }
 472:..\..\..\lvgl\version_6.1.2\lvgl\src\lv_objx/lv_table.c **** 
 473:..\..\..\lvgl\version_6.1.2\lvgl\src\lv_objx/lv_table.c **** /**
 474:..\..\..\lvgl\version_6.1.2\lvgl\src\lv_objx/lv_table.c ****  * Get the width of a column
 475:..\..\..\lvgl\version_6.1.2\lvgl\src\lv_objx/lv_table.c ****  * @param table table pointer to a Table object
 476:..\..\..\lvgl\version_6.1.2\lvgl\src\lv_objx/lv_table.c ****  * @param col_id id of the column [0 .. LV_TABLE_COL_MAX -1]
 477:..\..\..\lvgl\version_6.1.2\lvgl\src\lv_objx/lv_table.c ****  * @return width of the column
 478:..\..\..\lvgl\version_6.1.2\lvgl\src\lv_objx/lv_table.c ****  */
 479:..\..\..\lvgl\version_6.1.2\lvgl\src\lv_objx/lv_table.c **** lv_coord_t lv_table_get_col_width(lv_obj_t * table, uint16_t col_id)
 480:..\..\..\lvgl\version_6.1.2\lvgl\src\lv_objx/lv_table.c **** {
 481:..\..\..\lvgl\version_6.1.2\lvgl\src\lv_objx/lv_table.c ****     LV_ASSERT_OBJ(table, LV_OBJX_NAME);
 482:..\..\..\lvgl\version_6.1.2\lvgl\src\lv_objx/lv_table.c **** 
 483:..\..\..\lvgl\version_6.1.2\lvgl\src\lv_objx/lv_table.c ****     if(col_id >= LV_TABLE_COL_MAX) {
 484:..\..\..\lvgl\version_6.1.2\lvgl\src\lv_objx/lv_table.c ****         LV_LOG_WARN("lv_table_set_col_width: too big 'col_id'. Must be < LV_TABLE_COL_MAX.");
 485:..\..\..\lvgl\version_6.1.2\lvgl\src\lv_objx/lv_table.c ****         return 0;
 486:..\..\..\lvgl\version_6.1.2\lvgl\src\lv_objx/lv_table.c ****     }
ARM GAS  C:\Users\pearlstl\AppData\Local\Temp\ccIJtgHD.s 			page 10


 487:..\..\..\lvgl\version_6.1.2\lvgl\src\lv_objx/lv_table.c **** 
 488:..\..\..\lvgl\version_6.1.2\lvgl\src\lv_objx/lv_table.c ****     lv_table_ext_t * ext = lv_obj_get_ext_attr(table);
 489:..\..\..\lvgl\version_6.1.2\lvgl\src\lv_objx/lv_table.c ****     return ext->col_w[col_id];
 490:..\..\..\lvgl\version_6.1.2\lvgl\src\lv_objx/lv_table.c **** }
 491:..\..\..\lvgl\version_6.1.2\lvgl\src\lv_objx/lv_table.c **** 
 492:..\..\..\lvgl\version_6.1.2\lvgl\src\lv_objx/lv_table.c **** /**
 493:..\..\..\lvgl\version_6.1.2\lvgl\src\lv_objx/lv_table.c ****  * Get the text align of a cell
 494:..\..\..\lvgl\version_6.1.2\lvgl\src\lv_objx/lv_table.c ****  * @param table pointer to a Table object
 495:..\..\..\lvgl\version_6.1.2\lvgl\src\lv_objx/lv_table.c ****  * @param row id of the row [0 .. row_cnt -1]
 496:..\..\..\lvgl\version_6.1.2\lvgl\src\lv_objx/lv_table.c ****  * @param col id of the column [0 .. col_cnt -1]
 497:..\..\..\lvgl\version_6.1.2\lvgl\src\lv_objx/lv_table.c ****  * @return LV_LABEL_ALIGN_LEFT (default in case of error) or LV_LABEL_ALIGN_CENTER or
 498:..\..\..\lvgl\version_6.1.2\lvgl\src\lv_objx/lv_table.c ****  * LV_LABEL_ALIGN_RIGHT
 499:..\..\..\lvgl\version_6.1.2\lvgl\src\lv_objx/lv_table.c ****  */
 500:..\..\..\lvgl\version_6.1.2\lvgl\src\lv_objx/lv_table.c **** lv_label_align_t lv_table_get_cell_align(lv_obj_t * table, uint16_t row, uint16_t col)
 501:..\..\..\lvgl\version_6.1.2\lvgl\src\lv_objx/lv_table.c **** {
 502:..\..\..\lvgl\version_6.1.2\lvgl\src\lv_objx/lv_table.c ****     LV_ASSERT_OBJ(table, LV_OBJX_NAME);
 503:..\..\..\lvgl\version_6.1.2\lvgl\src\lv_objx/lv_table.c **** 
 504:..\..\..\lvgl\version_6.1.2\lvgl\src\lv_objx/lv_table.c ****     lv_table_ext_t * ext = lv_obj_get_ext_attr(table);
 505:..\..\..\lvgl\version_6.1.2\lvgl\src\lv_objx/lv_table.c ****     if(row >= ext->row_cnt || col >= ext->col_cnt) {
 506:..\..\..\lvgl\version_6.1.2\lvgl\src\lv_objx/lv_table.c ****         LV_LOG_WARN("lv_table_set_cell_align: invalid row or column");
 507:..\..\..\lvgl\version_6.1.2\lvgl\src\lv_objx/lv_table.c ****         return LV_LABEL_ALIGN_LEFT; /*Just return with something*/
 508:..\..\..\lvgl\version_6.1.2\lvgl\src\lv_objx/lv_table.c ****     }
 509:..\..\..\lvgl\version_6.1.2\lvgl\src\lv_objx/lv_table.c ****     uint32_t cell = row * ext->col_cnt + col;
 510:..\..\..\lvgl\version_6.1.2\lvgl\src\lv_objx/lv_table.c **** 
 511:..\..\..\lvgl\version_6.1.2\lvgl\src\lv_objx/lv_table.c ****     if(ext->cell_data[cell] == NULL)
 512:..\..\..\lvgl\version_6.1.2\lvgl\src\lv_objx/lv_table.c ****         return LV_LABEL_ALIGN_LEFT; /*Just return with something*/
 513:..\..\..\lvgl\version_6.1.2\lvgl\src\lv_objx/lv_table.c ****     else {
 514:..\..\..\lvgl\version_6.1.2\lvgl\src\lv_objx/lv_table.c ****         lv_table_cell_format_t format;
 515:..\..\..\lvgl\version_6.1.2\lvgl\src\lv_objx/lv_table.c ****         format.format_byte = ext->cell_data[cell][0];
 516:..\..\..\lvgl\version_6.1.2\lvgl\src\lv_objx/lv_table.c ****         return format.s.align;
 517:..\..\..\lvgl\version_6.1.2\lvgl\src\lv_objx/lv_table.c ****     }
 518:..\..\..\lvgl\version_6.1.2\lvgl\src\lv_objx/lv_table.c **** }
 519:..\..\..\lvgl\version_6.1.2\lvgl\src\lv_objx/lv_table.c **** 
 520:..\..\..\lvgl\version_6.1.2\lvgl\src\lv_objx/lv_table.c **** /**
 521:..\..\..\lvgl\version_6.1.2\lvgl\src\lv_objx/lv_table.c ****  * Get the type of a cell
 522:..\..\..\lvgl\version_6.1.2\lvgl\src\lv_objx/lv_table.c ****  * @param table pointer to a Table object
 523:..\..\..\lvgl\version_6.1.2\lvgl\src\lv_objx/lv_table.c ****  * @param row id of the row [0 .. row_cnt -1]
 524:..\..\..\lvgl\version_6.1.2\lvgl\src\lv_objx/lv_table.c ****  * @param col id of the column [0 .. col_cnt -1]
 525:..\..\..\lvgl\version_6.1.2\lvgl\src\lv_objx/lv_table.c ****  * @return 1,2,3 or 4
 526:..\..\..\lvgl\version_6.1.2\lvgl\src\lv_objx/lv_table.c ****  */
 527:..\..\..\lvgl\version_6.1.2\lvgl\src\lv_objx/lv_table.c **** lv_label_align_t lv_table_get_cell_type(lv_obj_t * table, uint16_t row, uint16_t col)
 528:..\..\..\lvgl\version_6.1.2\lvgl\src\lv_objx/lv_table.c **** {
 529:..\..\..\lvgl\version_6.1.2\lvgl\src\lv_objx/lv_table.c ****     LV_ASSERT_OBJ(table, LV_OBJX_NAME);
 530:..\..\..\lvgl\version_6.1.2\lvgl\src\lv_objx/lv_table.c **** 
 531:..\..\..\lvgl\version_6.1.2\lvgl\src\lv_objx/lv_table.c ****     lv_table_ext_t * ext = lv_obj_get_ext_attr(table);
 532:..\..\..\lvgl\version_6.1.2\lvgl\src\lv_objx/lv_table.c ****     if(row >= ext->row_cnt || col >= ext->col_cnt) {
 533:..\..\..\lvgl\version_6.1.2\lvgl\src\lv_objx/lv_table.c ****         LV_LOG_WARN("lv_table_get_cell_type: invalid row or column");
 534:..\..\..\lvgl\version_6.1.2\lvgl\src\lv_objx/lv_table.c ****         return 1; /*Just return with something*/
 535:..\..\..\lvgl\version_6.1.2\lvgl\src\lv_objx/lv_table.c ****     }
 536:..\..\..\lvgl\version_6.1.2\lvgl\src\lv_objx/lv_table.c ****     uint32_t cell = row * ext->col_cnt + col;
 537:..\..\..\lvgl\version_6.1.2\lvgl\src\lv_objx/lv_table.c **** 
 538:..\..\..\lvgl\version_6.1.2\lvgl\src\lv_objx/lv_table.c ****     if(ext->cell_data[cell] == NULL)
 539:..\..\..\lvgl\version_6.1.2\lvgl\src\lv_objx/lv_table.c ****         return 1; /*Just return with something*/
 540:..\..\..\lvgl\version_6.1.2\lvgl\src\lv_objx/lv_table.c ****     else {
 541:..\..\..\lvgl\version_6.1.2\lvgl\src\lv_objx/lv_table.c ****         lv_table_cell_format_t format;
 542:..\..\..\lvgl\version_6.1.2\lvgl\src\lv_objx/lv_table.c ****         format.format_byte = ext->cell_data[cell][0];
 543:..\..\..\lvgl\version_6.1.2\lvgl\src\lv_objx/lv_table.c ****         return format.s.type + 1; /*0,1,2,3 is stored but user sees 1,2,3,4*/
ARM GAS  C:\Users\pearlstl\AppData\Local\Temp\ccIJtgHD.s 			page 11


 544:..\..\..\lvgl\version_6.1.2\lvgl\src\lv_objx/lv_table.c ****     }
 545:..\..\..\lvgl\version_6.1.2\lvgl\src\lv_objx/lv_table.c **** }
 546:..\..\..\lvgl\version_6.1.2\lvgl\src\lv_objx/lv_table.c **** 
 547:..\..\..\lvgl\version_6.1.2\lvgl\src\lv_objx/lv_table.c **** /**
 548:..\..\..\lvgl\version_6.1.2\lvgl\src\lv_objx/lv_table.c ****  * Get the crop property of a cell
 549:..\..\..\lvgl\version_6.1.2\lvgl\src\lv_objx/lv_table.c ****  * @param table pointer to a Table object
 550:..\..\..\lvgl\version_6.1.2\lvgl\src\lv_objx/lv_table.c ****  * @param row id of the row [0 .. row_cnt -1]
 551:..\..\..\lvgl\version_6.1.2\lvgl\src\lv_objx/lv_table.c ****  * @param col id of the column [0 .. col_cnt -1]
 552:..\..\..\lvgl\version_6.1.2\lvgl\src\lv_objx/lv_table.c ****  * @return true: text crop enabled; false: disabled
 553:..\..\..\lvgl\version_6.1.2\lvgl\src\lv_objx/lv_table.c ****  */
 554:..\..\..\lvgl\version_6.1.2\lvgl\src\lv_objx/lv_table.c **** lv_label_align_t lv_table_get_cell_crop(lv_obj_t * table, uint16_t row, uint16_t col)
 555:..\..\..\lvgl\version_6.1.2\lvgl\src\lv_objx/lv_table.c **** {
 556:..\..\..\lvgl\version_6.1.2\lvgl\src\lv_objx/lv_table.c ****     LV_ASSERT_OBJ(table, LV_OBJX_NAME);
 557:..\..\..\lvgl\version_6.1.2\lvgl\src\lv_objx/lv_table.c **** 
 558:..\..\..\lvgl\version_6.1.2\lvgl\src\lv_objx/lv_table.c ****     lv_table_ext_t * ext = lv_obj_get_ext_attr(table);
 559:..\..\..\lvgl\version_6.1.2\lvgl\src\lv_objx/lv_table.c ****     if(row >= ext->row_cnt || col >= ext->col_cnt) {
 560:..\..\..\lvgl\version_6.1.2\lvgl\src\lv_objx/lv_table.c ****         LV_LOG_WARN("lv_table_get_cell_crop: invalid row or column");
 561:..\..\..\lvgl\version_6.1.2\lvgl\src\lv_objx/lv_table.c ****         return false; /*Just return with something*/
 562:..\..\..\lvgl\version_6.1.2\lvgl\src\lv_objx/lv_table.c ****     }
 563:..\..\..\lvgl\version_6.1.2\lvgl\src\lv_objx/lv_table.c ****     uint32_t cell = row * ext->col_cnt + col;
 564:..\..\..\lvgl\version_6.1.2\lvgl\src\lv_objx/lv_table.c **** 
 565:..\..\..\lvgl\version_6.1.2\lvgl\src\lv_objx/lv_table.c ****     if(ext->cell_data[cell] == NULL)
 566:..\..\..\lvgl\version_6.1.2\lvgl\src\lv_objx/lv_table.c ****         return false; /*Just return with something*/
 567:..\..\..\lvgl\version_6.1.2\lvgl\src\lv_objx/lv_table.c ****     else {
 568:..\..\..\lvgl\version_6.1.2\lvgl\src\lv_objx/lv_table.c ****         lv_table_cell_format_t format;
 569:..\..\..\lvgl\version_6.1.2\lvgl\src\lv_objx/lv_table.c ****         format.format_byte = ext->cell_data[cell][0];
 570:..\..\..\lvgl\version_6.1.2\lvgl\src\lv_objx/lv_table.c ****         return format.s.crop;
 571:..\..\..\lvgl\version_6.1.2\lvgl\src\lv_objx/lv_table.c ****     }
 572:..\..\..\lvgl\version_6.1.2\lvgl\src\lv_objx/lv_table.c **** }
 573:..\..\..\lvgl\version_6.1.2\lvgl\src\lv_objx/lv_table.c **** 
 574:..\..\..\lvgl\version_6.1.2\lvgl\src\lv_objx/lv_table.c **** /**
 575:..\..\..\lvgl\version_6.1.2\lvgl\src\lv_objx/lv_table.c ****  * Get the cell merge attribute.
 576:..\..\..\lvgl\version_6.1.2\lvgl\src\lv_objx/lv_table.c ****  * @param table table pointer to a Table object
 577:..\..\..\lvgl\version_6.1.2\lvgl\src\lv_objx/lv_table.c ****  * @param row id of the row [0 .. row_cnt -1]
 578:..\..\..\lvgl\version_6.1.2\lvgl\src\lv_objx/lv_table.c ****  * @param col id of the column [0 .. col_cnt -1]
 579:..\..\..\lvgl\version_6.1.2\lvgl\src\lv_objx/lv_table.c ****  * @return true: merge right; false: don't merge right
 580:..\..\..\lvgl\version_6.1.2\lvgl\src\lv_objx/lv_table.c ****  */
 581:..\..\..\lvgl\version_6.1.2\lvgl\src\lv_objx/lv_table.c **** bool lv_table_get_cell_merge_right(lv_obj_t * table, uint16_t row, uint16_t col)
 582:..\..\..\lvgl\version_6.1.2\lvgl\src\lv_objx/lv_table.c **** {
 583:..\..\..\lvgl\version_6.1.2\lvgl\src\lv_objx/lv_table.c ****     LV_ASSERT_OBJ(table, LV_OBJX_NAME);
 584:..\..\..\lvgl\version_6.1.2\lvgl\src\lv_objx/lv_table.c **** 
 585:..\..\..\lvgl\version_6.1.2\lvgl\src\lv_objx/lv_table.c ****     lv_table_ext_t * ext = lv_obj_get_ext_attr(table);
 586:..\..\..\lvgl\version_6.1.2\lvgl\src\lv_objx/lv_table.c ****     if(row >= ext->row_cnt || col >= ext->col_cnt) {
 587:..\..\..\lvgl\version_6.1.2\lvgl\src\lv_objx/lv_table.c ****         LV_LOG_WARN("lv_table_get_cell_merge_right: invalid row or column");
 588:..\..\..\lvgl\version_6.1.2\lvgl\src\lv_objx/lv_table.c ****         return false;
 589:..\..\..\lvgl\version_6.1.2\lvgl\src\lv_objx/lv_table.c ****     }
 590:..\..\..\lvgl\version_6.1.2\lvgl\src\lv_objx/lv_table.c **** 
 591:..\..\..\lvgl\version_6.1.2\lvgl\src\lv_objx/lv_table.c ****     uint32_t cell = row * ext->col_cnt + col;
 592:..\..\..\lvgl\version_6.1.2\lvgl\src\lv_objx/lv_table.c **** 
 593:..\..\..\lvgl\version_6.1.2\lvgl\src\lv_objx/lv_table.c ****     if(ext->cell_data[cell] == NULL)
 594:..\..\..\lvgl\version_6.1.2\lvgl\src\lv_objx/lv_table.c ****         return false;
 595:..\..\..\lvgl\version_6.1.2\lvgl\src\lv_objx/lv_table.c ****     else {
 596:..\..\..\lvgl\version_6.1.2\lvgl\src\lv_objx/lv_table.c ****         lv_table_cell_format_t format;
 597:..\..\..\lvgl\version_6.1.2\lvgl\src\lv_objx/lv_table.c ****         format.format_byte = ext->cell_data[cell][0];
 598:..\..\..\lvgl\version_6.1.2\lvgl\src\lv_objx/lv_table.c ****         return format.s.right_merge ? true : false;
 599:..\..\..\lvgl\version_6.1.2\lvgl\src\lv_objx/lv_table.c ****     }
 600:..\..\..\lvgl\version_6.1.2\lvgl\src\lv_objx/lv_table.c **** }
ARM GAS  C:\Users\pearlstl\AppData\Local\Temp\ccIJtgHD.s 			page 12


 601:..\..\..\lvgl\version_6.1.2\lvgl\src\lv_objx/lv_table.c **** 
 602:..\..\..\lvgl\version_6.1.2\lvgl\src\lv_objx/lv_table.c **** /**
 603:..\..\..\lvgl\version_6.1.2\lvgl\src\lv_objx/lv_table.c ****  * Get style of a table.
 604:..\..\..\lvgl\version_6.1.2\lvgl\src\lv_objx/lv_table.c ****  * @param table pointer to table object
 605:..\..\..\lvgl\version_6.1.2\lvgl\src\lv_objx/lv_table.c ****  * @param type which style should be get
 606:..\..\..\lvgl\version_6.1.2\lvgl\src\lv_objx/lv_table.c ****  * @return style pointer to the style
 607:..\..\..\lvgl\version_6.1.2\lvgl\src\lv_objx/lv_table.c ****  */
 608:..\..\..\lvgl\version_6.1.2\lvgl\src\lv_objx/lv_table.c **** const lv_style_t * lv_table_get_style(const lv_obj_t * table, lv_table_style_t type)
 609:..\..\..\lvgl\version_6.1.2\lvgl\src\lv_objx/lv_table.c **** {
 610:..\..\..\lvgl\version_6.1.2\lvgl\src\lv_objx/lv_table.c ****     LV_ASSERT_OBJ(table, LV_OBJX_NAME);
 611:..\..\..\lvgl\version_6.1.2\lvgl\src\lv_objx/lv_table.c **** 
 612:..\..\..\lvgl\version_6.1.2\lvgl\src\lv_objx/lv_table.c ****     lv_table_ext_t * ext     = lv_obj_get_ext_attr(table);
 613:..\..\..\lvgl\version_6.1.2\lvgl\src\lv_objx/lv_table.c ****     const lv_style_t * style = NULL;
 614:..\..\..\lvgl\version_6.1.2\lvgl\src\lv_objx/lv_table.c **** 
 615:..\..\..\lvgl\version_6.1.2\lvgl\src\lv_objx/lv_table.c ****     switch(type) {
 616:..\..\..\lvgl\version_6.1.2\lvgl\src\lv_objx/lv_table.c ****         case LV_TABLE_STYLE_BG: style = lv_obj_get_style(table); break;
 617:..\..\..\lvgl\version_6.1.2\lvgl\src\lv_objx/lv_table.c ****         case LV_TABLE_STYLE_CELL1: style = ext->cell_style[0]; break;
 618:..\..\..\lvgl\version_6.1.2\lvgl\src\lv_objx/lv_table.c ****         case LV_TABLE_STYLE_CELL2: style = ext->cell_style[1]; break;
 619:..\..\..\lvgl\version_6.1.2\lvgl\src\lv_objx/lv_table.c ****         case LV_TABLE_STYLE_CELL3: style = ext->cell_style[2]; break;
 620:..\..\..\lvgl\version_6.1.2\lvgl\src\lv_objx/lv_table.c ****         case LV_TABLE_STYLE_CELL4: style = ext->cell_style[3]; break;
 621:..\..\..\lvgl\version_6.1.2\lvgl\src\lv_objx/lv_table.c ****         default: return NULL;
 622:..\..\..\lvgl\version_6.1.2\lvgl\src\lv_objx/lv_table.c ****     }
 623:..\..\..\lvgl\version_6.1.2\lvgl\src\lv_objx/lv_table.c **** 
 624:..\..\..\lvgl\version_6.1.2\lvgl\src\lv_objx/lv_table.c ****     return style;
 625:..\..\..\lvgl\version_6.1.2\lvgl\src\lv_objx/lv_table.c **** }
 626:..\..\..\lvgl\version_6.1.2\lvgl\src\lv_objx/lv_table.c **** 
 627:..\..\..\lvgl\version_6.1.2\lvgl\src\lv_objx/lv_table.c **** /**********************
 628:..\..\..\lvgl\version_6.1.2\lvgl\src\lv_objx/lv_table.c ****  *   STATIC FUNCTIONS
 629:..\..\..\lvgl\version_6.1.2\lvgl\src\lv_objx/lv_table.c ****  **********************/
 630:..\..\..\lvgl\version_6.1.2\lvgl\src\lv_objx/lv_table.c **** 
 631:..\..\..\lvgl\version_6.1.2\lvgl\src\lv_objx/lv_table.c **** /**
 632:..\..\..\lvgl\version_6.1.2\lvgl\src\lv_objx/lv_table.c ****  * Handle the drawing related tasks of the tables
 633:..\..\..\lvgl\version_6.1.2\lvgl\src\lv_objx/lv_table.c ****  * @param table pointer to an object
 634:..\..\..\lvgl\version_6.1.2\lvgl\src\lv_objx/lv_table.c ****  * @param mask the object will be drawn only in this area
 635:..\..\..\lvgl\version_6.1.2\lvgl\src\lv_objx/lv_table.c ****  * @param mode LV_DESIGN_COVER_CHK: only check if the object fully covers the 'mask_p' area
 636:..\..\..\lvgl\version_6.1.2\lvgl\src\lv_objx/lv_table.c ****  *                                  (return 'true' if yes)
 637:..\..\..\lvgl\version_6.1.2\lvgl\src\lv_objx/lv_table.c ****  *             LV_DESIGN_DRAW: draw the object (always return 'true')
 638:..\..\..\lvgl\version_6.1.2\lvgl\src\lv_objx/lv_table.c ****  *             LV_DESIGN_DRAW_POST: drawing after every children are drawn
 639:..\..\..\lvgl\version_6.1.2\lvgl\src\lv_objx/lv_table.c ****  * @param return true/false, depends on 'mode'
 640:..\..\..\lvgl\version_6.1.2\lvgl\src\lv_objx/lv_table.c ****  */
 641:..\..\..\lvgl\version_6.1.2\lvgl\src\lv_objx/lv_table.c **** static bool lv_table_design(lv_obj_t * table, const lv_area_t * mask, lv_design_mode_t mode)
 642:..\..\..\lvgl\version_6.1.2\lvgl\src\lv_objx/lv_table.c **** {
 643:..\..\..\lvgl\version_6.1.2\lvgl\src\lv_objx/lv_table.c ****     /*Return false if the object is not covers the mask_p area*/
 644:..\..\..\lvgl\version_6.1.2\lvgl\src\lv_objx/lv_table.c ****     if(mode == LV_DESIGN_COVER_CHK) {
 645:..\..\..\lvgl\version_6.1.2\lvgl\src\lv_objx/lv_table.c ****         return false;
 646:..\..\..\lvgl\version_6.1.2\lvgl\src\lv_objx/lv_table.c ****     }
 647:..\..\..\lvgl\version_6.1.2\lvgl\src\lv_objx/lv_table.c ****     /*Draw the object*/
 648:..\..\..\lvgl\version_6.1.2\lvgl\src\lv_objx/lv_table.c ****     else if(mode == LV_DESIGN_DRAW_MAIN) {
 649:..\..\..\lvgl\version_6.1.2\lvgl\src\lv_objx/lv_table.c ****         ancestor_scrl_design(table, mask, mode);
 650:..\..\..\lvgl\version_6.1.2\lvgl\src\lv_objx/lv_table.c **** 
 651:..\..\..\lvgl\version_6.1.2\lvgl\src\lv_objx/lv_table.c ****         lv_table_ext_t * ext        = lv_obj_get_ext_attr(table);
 652:..\..\..\lvgl\version_6.1.2\lvgl\src\lv_objx/lv_table.c ****         const lv_style_t * bg_style = lv_obj_get_style(table);
 653:..\..\..\lvgl\version_6.1.2\lvgl\src\lv_objx/lv_table.c ****         lv_coord_t h_row;
 654:..\..\..\lvgl\version_6.1.2\lvgl\src\lv_objx/lv_table.c ****         lv_point_t txt_size;
 655:..\..\..\lvgl\version_6.1.2\lvgl\src\lv_objx/lv_table.c ****         lv_area_t cell_area;
 656:..\..\..\lvgl\version_6.1.2\lvgl\src\lv_objx/lv_table.c ****         lv_area_t txt_area;
 657:..\..\..\lvgl\version_6.1.2\lvgl\src\lv_objx/lv_table.c ****         lv_txt_flag_t txt_flags;
ARM GAS  C:\Users\pearlstl\AppData\Local\Temp\ccIJtgHD.s 			page 13


 658:..\..\..\lvgl\version_6.1.2\lvgl\src\lv_objx/lv_table.c ****         lv_opa_t opa_scale = lv_obj_get_opa_scale(table);
 659:..\..\..\lvgl\version_6.1.2\lvgl\src\lv_objx/lv_table.c **** 
 660:..\..\..\lvgl\version_6.1.2\lvgl\src\lv_objx/lv_table.c ****         uint16_t col;
 661:..\..\..\lvgl\version_6.1.2\lvgl\src\lv_objx/lv_table.c ****         uint16_t row;
 662:..\..\..\lvgl\version_6.1.2\lvgl\src\lv_objx/lv_table.c ****         uint16_t cell = 0;
 663:..\..\..\lvgl\version_6.1.2\lvgl\src\lv_objx/lv_table.c **** 
 664:..\..\..\lvgl\version_6.1.2\lvgl\src\lv_objx/lv_table.c ****         cell_area.y2 = table->coords.y1 + bg_style->body.padding.top;
 665:..\..\..\lvgl\version_6.1.2\lvgl\src\lv_objx/lv_table.c ****         for(row = 0; row < ext->row_cnt; row++) {
 666:..\..\..\lvgl\version_6.1.2\lvgl\src\lv_objx/lv_table.c ****             h_row = get_row_height(table, row);
 667:..\..\..\lvgl\version_6.1.2\lvgl\src\lv_objx/lv_table.c **** 
 668:..\..\..\lvgl\version_6.1.2\lvgl\src\lv_objx/lv_table.c ****             cell_area.y1 = cell_area.y2 + 1;
 669:..\..\..\lvgl\version_6.1.2\lvgl\src\lv_objx/lv_table.c ****             cell_area.y2 = cell_area.y1 + h_row - 1;
 670:..\..\..\lvgl\version_6.1.2\lvgl\src\lv_objx/lv_table.c **** 
 671:..\..\..\lvgl\version_6.1.2\lvgl\src\lv_objx/lv_table.c ****             cell_area.x2 = table->coords.x1 + bg_style->body.padding.left;
 672:..\..\..\lvgl\version_6.1.2\lvgl\src\lv_objx/lv_table.c **** 
 673:..\..\..\lvgl\version_6.1.2\lvgl\src\lv_objx/lv_table.c ****             for(col = 0; col < ext->col_cnt; col++) {
 674:..\..\..\lvgl\version_6.1.2\lvgl\src\lv_objx/lv_table.c **** 
 675:..\..\..\lvgl\version_6.1.2\lvgl\src\lv_objx/lv_table.c ****                 lv_table_cell_format_t format;
 676:..\..\..\lvgl\version_6.1.2\lvgl\src\lv_objx/lv_table.c ****                 if(ext->cell_data[cell]) {
 677:..\..\..\lvgl\version_6.1.2\lvgl\src\lv_objx/lv_table.c ****                     format.format_byte = ext->cell_data[cell][0];
 678:..\..\..\lvgl\version_6.1.2\lvgl\src\lv_objx/lv_table.c ****                 } else {
 679:..\..\..\lvgl\version_6.1.2\lvgl\src\lv_objx/lv_table.c ****                     format.s.right_merge = 0;
 680:..\..\..\lvgl\version_6.1.2\lvgl\src\lv_objx/lv_table.c ****                     format.s.align       = LV_LABEL_ALIGN_LEFT;
 681:..\..\..\lvgl\version_6.1.2\lvgl\src\lv_objx/lv_table.c ****                     format.s.type        = 0;
 682:..\..\..\lvgl\version_6.1.2\lvgl\src\lv_objx/lv_table.c ****                     format.s.crop        = 1;
 683:..\..\..\lvgl\version_6.1.2\lvgl\src\lv_objx/lv_table.c ****                 }
 684:..\..\..\lvgl\version_6.1.2\lvgl\src\lv_objx/lv_table.c **** 
 685:..\..\..\lvgl\version_6.1.2\lvgl\src\lv_objx/lv_table.c **** 
 686:..\..\..\lvgl\version_6.1.2\lvgl\src\lv_objx/lv_table.c ****                 lv_style_t cell_style;
 687:..\..\..\lvgl\version_6.1.2\lvgl\src\lv_objx/lv_table.c ****                 lv_style_copy(&cell_style, ext->cell_style[format.s.type]);
 688:..\..\..\lvgl\version_6.1.2\lvgl\src\lv_objx/lv_table.c ****                 cell_area.x1 = cell_area.x2 + 1;
 689:..\..\..\lvgl\version_6.1.2\lvgl\src\lv_objx/lv_table.c ****                 cell_area.x2 = cell_area.x1 + ext->col_w[col] - 1;
 690:..\..\..\lvgl\version_6.1.2\lvgl\src\lv_objx/lv_table.c **** 
 691:..\..\..\lvgl\version_6.1.2\lvgl\src\lv_objx/lv_table.c ****                 uint16_t col_merge = 0;
 692:..\..\..\lvgl\version_6.1.2\lvgl\src\lv_objx/lv_table.c ****                 for(col_merge = 0; col_merge + col < ext->col_cnt - 1; col_merge++) {
 693:..\..\..\lvgl\version_6.1.2\lvgl\src\lv_objx/lv_table.c **** 
 694:..\..\..\lvgl\version_6.1.2\lvgl\src\lv_objx/lv_table.c ****                     if(ext->cell_data[cell + col_merge] != NULL) {
 695:..\..\..\lvgl\version_6.1.2\lvgl\src\lv_objx/lv_table.c ****                         format.format_byte = ext->cell_data[cell + col_merge][0];
 696:..\..\..\lvgl\version_6.1.2\lvgl\src\lv_objx/lv_table.c ****                         if(format.s.right_merge)
 697:..\..\..\lvgl\version_6.1.2\lvgl\src\lv_objx/lv_table.c ****                             cell_area.x2 += ext->col_w[col + col_merge + 1];
 698:..\..\..\lvgl\version_6.1.2\lvgl\src\lv_objx/lv_table.c ****                         else
 699:..\..\..\lvgl\version_6.1.2\lvgl\src\lv_objx/lv_table.c ****                             break;
 700:..\..\..\lvgl\version_6.1.2\lvgl\src\lv_objx/lv_table.c ****                     } else {
 701:..\..\..\lvgl\version_6.1.2\lvgl\src\lv_objx/lv_table.c ****                         break;
 702:..\..\..\lvgl\version_6.1.2\lvgl\src\lv_objx/lv_table.c ****                     }
 703:..\..\..\lvgl\version_6.1.2\lvgl\src\lv_objx/lv_table.c ****                 }
 704:..\..\..\lvgl\version_6.1.2\lvgl\src\lv_objx/lv_table.c **** 
 705:..\..\..\lvgl\version_6.1.2\lvgl\src\lv_objx/lv_table.c ****                 lv_draw_rect(&cell_area, mask, &cell_style, opa_scale);
 706:..\..\..\lvgl\version_6.1.2\lvgl\src\lv_objx/lv_table.c **** 
 707:..\..\..\lvgl\version_6.1.2\lvgl\src\lv_objx/lv_table.c ****                 if(ext->cell_data[cell]) {
 708:..\..\..\lvgl\version_6.1.2\lvgl\src\lv_objx/lv_table.c **** 
 709:..\..\..\lvgl\version_6.1.2\lvgl\src\lv_objx/lv_table.c ****                     txt_area.x1 = cell_area.x1 + cell_style.body.padding.left;
 710:..\..\..\lvgl\version_6.1.2\lvgl\src\lv_objx/lv_table.c ****                     txt_area.x2 = cell_area.x2 - cell_style.body.padding.right;
 711:..\..\..\lvgl\version_6.1.2\lvgl\src\lv_objx/lv_table.c ****                     txt_area.y1 = cell_area.y1 + cell_style.body.padding.top;
 712:..\..\..\lvgl\version_6.1.2\lvgl\src\lv_objx/lv_table.c ****                     txt_area.y2 = cell_area.y2 - cell_style.body.padding.bottom;
 713:..\..\..\lvgl\version_6.1.2\lvgl\src\lv_objx/lv_table.c ****                     /*Align the content to the middle if not cropped*/
 714:..\..\..\lvgl\version_6.1.2\lvgl\src\lv_objx/lv_table.c ****                     if(format.s.crop == 0) {
ARM GAS  C:\Users\pearlstl\AppData\Local\Temp\ccIJtgHD.s 			page 14


 715:..\..\..\lvgl\version_6.1.2\lvgl\src\lv_objx/lv_table.c ****                         txt_flags = LV_TXT_FLAG_NONE;
 716:..\..\..\lvgl\version_6.1.2\lvgl\src\lv_objx/lv_table.c ****                     } else {
 717:..\..\..\lvgl\version_6.1.2\lvgl\src\lv_objx/lv_table.c ****                         txt_flags = LV_TXT_FLAG_EXPAND;
 718:..\..\..\lvgl\version_6.1.2\lvgl\src\lv_objx/lv_table.c ****                     }
 719:..\..\..\lvgl\version_6.1.2\lvgl\src\lv_objx/lv_table.c **** 
 720:..\..\..\lvgl\version_6.1.2\lvgl\src\lv_objx/lv_table.c ****                     lv_txt_get_size(&txt_size, ext->cell_data[cell] + 1, cell_style.text.font,
 721:..\..\..\lvgl\version_6.1.2\lvgl\src\lv_objx/lv_table.c ****                                     cell_style.text.letter_space, cell_style.text.line_space,
 722:..\..\..\lvgl\version_6.1.2\lvgl\src\lv_objx/lv_table.c ****                                     lv_area_get_width(&txt_area), txt_flags);
 723:..\..\..\lvgl\version_6.1.2\lvgl\src\lv_objx/lv_table.c **** 
 724:..\..\..\lvgl\version_6.1.2\lvgl\src\lv_objx/lv_table.c ****                     /*Align the content to the middle if not cropped*/
 725:..\..\..\lvgl\version_6.1.2\lvgl\src\lv_objx/lv_table.c ****                     if(format.s.crop == 0) {
 726:..\..\..\lvgl\version_6.1.2\lvgl\src\lv_objx/lv_table.c ****                         txt_area.y1 = cell_area.y1 + h_row / 2 - txt_size.y / 2;
 727:..\..\..\lvgl\version_6.1.2\lvgl\src\lv_objx/lv_table.c ****                         txt_area.y2 = cell_area.y1 + h_row / 2 + txt_size.y / 2;
 728:..\..\..\lvgl\version_6.1.2\lvgl\src\lv_objx/lv_table.c ****                     }
 729:..\..\..\lvgl\version_6.1.2\lvgl\src\lv_objx/lv_table.c **** 
 730:..\..\..\lvgl\version_6.1.2\lvgl\src\lv_objx/lv_table.c ****                     switch(format.s.align) {
 731:..\..\..\lvgl\version_6.1.2\lvgl\src\lv_objx/lv_table.c ****                         default:
 732:..\..\..\lvgl\version_6.1.2\lvgl\src\lv_objx/lv_table.c ****                         case LV_LABEL_ALIGN_LEFT: txt_flags |= LV_TXT_FLAG_NONE; break;
 733:..\..\..\lvgl\version_6.1.2\lvgl\src\lv_objx/lv_table.c ****                         case LV_LABEL_ALIGN_RIGHT: txt_flags |= LV_TXT_FLAG_RIGHT; break;
 734:..\..\..\lvgl\version_6.1.2\lvgl\src\lv_objx/lv_table.c ****                         case LV_LABEL_ALIGN_CENTER: txt_flags |= LV_TXT_FLAG_CENTER; break;
 735:..\..\..\lvgl\version_6.1.2\lvgl\src\lv_objx/lv_table.c ****                     }
 736:..\..\..\lvgl\version_6.1.2\lvgl\src\lv_objx/lv_table.c **** 
 737:..\..\..\lvgl\version_6.1.2\lvgl\src\lv_objx/lv_table.c ****                     lv_area_t label_mask;
 738:..\..\..\lvgl\version_6.1.2\lvgl\src\lv_objx/lv_table.c ****                     bool label_mask_ok;
 739:..\..\..\lvgl\version_6.1.2\lvgl\src\lv_objx/lv_table.c ****                     label_mask_ok = lv_area_intersect(&label_mask, mask, &cell_area);
 740:..\..\..\lvgl\version_6.1.2\lvgl\src\lv_objx/lv_table.c ****                     if(label_mask_ok) {
 741:..\..\..\lvgl\version_6.1.2\lvgl\src\lv_objx/lv_table.c ****                         lv_draw_label(&txt_area, &label_mask, &cell_style, opa_scale, ext->cell_dat
 742:..\..\..\lvgl\version_6.1.2\lvgl\src\lv_objx/lv_table.c ****                                       txt_flags, NULL, NULL, NULL, lv_obj_get_base_dir(table));
 743:..\..\..\lvgl\version_6.1.2\lvgl\src\lv_objx/lv_table.c ****                     }
 744:..\..\..\lvgl\version_6.1.2\lvgl\src\lv_objx/lv_table.c ****                     /*Draw lines after '\n's*/
 745:..\..\..\lvgl\version_6.1.2\lvgl\src\lv_objx/lv_table.c ****                     lv_point_t p1;
 746:..\..\..\lvgl\version_6.1.2\lvgl\src\lv_objx/lv_table.c ****                     lv_point_t p2;
 747:..\..\..\lvgl\version_6.1.2\lvgl\src\lv_objx/lv_table.c ****                     p1.x = cell_area.x1;
 748:..\..\..\lvgl\version_6.1.2\lvgl\src\lv_objx/lv_table.c ****                     p2.x = cell_area.x2;
 749:..\..\..\lvgl\version_6.1.2\lvgl\src\lv_objx/lv_table.c ****                     uint16_t i;
 750:..\..\..\lvgl\version_6.1.2\lvgl\src\lv_objx/lv_table.c ****                     for(i = 1; ext->cell_data[cell][i] != '\0'; i++) {
 751:..\..\..\lvgl\version_6.1.2\lvgl\src\lv_objx/lv_table.c ****                         if(ext->cell_data[cell][i] == '\n') {
 752:..\..\..\lvgl\version_6.1.2\lvgl\src\lv_objx/lv_table.c ****                             ext->cell_data[cell][i] = '\0';
 753:..\..\..\lvgl\version_6.1.2\lvgl\src\lv_objx/lv_table.c ****                             lv_txt_get_size(&txt_size, ext->cell_data[cell] + 1, cell_style.text.fo
 754:..\..\..\lvgl\version_6.1.2\lvgl\src\lv_objx/lv_table.c ****                                             cell_style.text.letter_space, cell_style.text.line_spac
 755:..\..\..\lvgl\version_6.1.2\lvgl\src\lv_objx/lv_table.c ****                                             lv_area_get_width(&txt_area), txt_flags);
 756:..\..\..\lvgl\version_6.1.2\lvgl\src\lv_objx/lv_table.c **** 
 757:..\..\..\lvgl\version_6.1.2\lvgl\src\lv_objx/lv_table.c ****                             p1.y = txt_area.y1 + txt_size.y + cell_style.text.line_space / 2;
 758:..\..\..\lvgl\version_6.1.2\lvgl\src\lv_objx/lv_table.c ****                             p2.y = txt_area.y1 + txt_size.y + cell_style.text.line_space / 2;
 759:..\..\..\lvgl\version_6.1.2\lvgl\src\lv_objx/lv_table.c ****                             lv_draw_line(&p1, &p2, mask, &cell_style, opa_scale);
 760:..\..\..\lvgl\version_6.1.2\lvgl\src\lv_objx/lv_table.c **** 
 761:..\..\..\lvgl\version_6.1.2\lvgl\src\lv_objx/lv_table.c ****                             ext->cell_data[cell][i] = '\n';
 762:..\..\..\lvgl\version_6.1.2\lvgl\src\lv_objx/lv_table.c ****                         }
 763:..\..\..\lvgl\version_6.1.2\lvgl\src\lv_objx/lv_table.c ****                     }
 764:..\..\..\lvgl\version_6.1.2\lvgl\src\lv_objx/lv_table.c ****                 }
 765:..\..\..\lvgl\version_6.1.2\lvgl\src\lv_objx/lv_table.c **** 
 766:..\..\..\lvgl\version_6.1.2\lvgl\src\lv_objx/lv_table.c ****                 cell += col_merge + 1;
 767:..\..\..\lvgl\version_6.1.2\lvgl\src\lv_objx/lv_table.c ****                 col += col_merge;
 768:..\..\..\lvgl\version_6.1.2\lvgl\src\lv_objx/lv_table.c ****             }
 769:..\..\..\lvgl\version_6.1.2\lvgl\src\lv_objx/lv_table.c ****         }
 770:..\..\..\lvgl\version_6.1.2\lvgl\src\lv_objx/lv_table.c ****     }
 771:..\..\..\lvgl\version_6.1.2\lvgl\src\lv_objx/lv_table.c ****     /*Post draw when the children are drawn*/
ARM GAS  C:\Users\pearlstl\AppData\Local\Temp\ccIJtgHD.s 			page 15


 772:..\..\..\lvgl\version_6.1.2\lvgl\src\lv_objx/lv_table.c ****     else if(mode == LV_DESIGN_DRAW_POST) {
 773:..\..\..\lvgl\version_6.1.2\lvgl\src\lv_objx/lv_table.c ****     }
 774:..\..\..\lvgl\version_6.1.2\lvgl\src\lv_objx/lv_table.c **** 
 775:..\..\..\lvgl\version_6.1.2\lvgl\src\lv_objx/lv_table.c ****     return true;
 776:..\..\..\lvgl\version_6.1.2\lvgl\src\lv_objx/lv_table.c **** }
 777:..\..\..\lvgl\version_6.1.2\lvgl\src\lv_objx/lv_table.c **** 
 778:..\..\..\lvgl\version_6.1.2\lvgl\src\lv_objx/lv_table.c **** /**
 779:..\..\..\lvgl\version_6.1.2\lvgl\src\lv_objx/lv_table.c ****  * Signal function of the table
 780:..\..\..\lvgl\version_6.1.2\lvgl\src\lv_objx/lv_table.c ****  * @param table pointer to a table object
 781:..\..\..\lvgl\version_6.1.2\lvgl\src\lv_objx/lv_table.c ****  * @param sign a signal type from lv_signal_t enum
 782:..\..\..\lvgl\version_6.1.2\lvgl\src\lv_objx/lv_table.c ****  * @param param pointer to a signal specific variable
 783:..\..\..\lvgl\version_6.1.2\lvgl\src\lv_objx/lv_table.c ****  * @return LV_RES_OK: the object is not deleted in the function; LV_RES_INV: the object is deleted
 784:..\..\..\lvgl\version_6.1.2\lvgl\src\lv_objx/lv_table.c ****  */
 785:..\..\..\lvgl\version_6.1.2\lvgl\src\lv_objx/lv_table.c **** static lv_res_t lv_table_signal(lv_obj_t * table, lv_signal_t sign, void * param)
 786:..\..\..\lvgl\version_6.1.2\lvgl\src\lv_objx/lv_table.c **** {
 787:..\..\..\lvgl\version_6.1.2\lvgl\src\lv_objx/lv_table.c ****     lv_res_t res;
 788:..\..\..\lvgl\version_6.1.2\lvgl\src\lv_objx/lv_table.c **** 
 789:..\..\..\lvgl\version_6.1.2\lvgl\src\lv_objx/lv_table.c ****     /* Include the ancient signal function */
 790:..\..\..\lvgl\version_6.1.2\lvgl\src\lv_objx/lv_table.c ****     res = ancestor_signal(table, sign, param);
 791:..\..\..\lvgl\version_6.1.2\lvgl\src\lv_objx/lv_table.c ****     if(res != LV_RES_OK) return res;
 792:..\..\..\lvgl\version_6.1.2\lvgl\src\lv_objx/lv_table.c ****     if(sign == LV_SIGNAL_GET_TYPE) return lv_obj_handle_get_type_signal(param, LV_OBJX_NAME);
 793:..\..\..\lvgl\version_6.1.2\lvgl\src\lv_objx/lv_table.c **** 
 794:..\..\..\lvgl\version_6.1.2\lvgl\src\lv_objx/lv_table.c ****     if(sign == LV_SIGNAL_CLEANUP) {
 795:..\..\..\lvgl\version_6.1.2\lvgl\src\lv_objx/lv_table.c ****         /*Free the cell texts*/
 796:..\..\..\lvgl\version_6.1.2\lvgl\src\lv_objx/lv_table.c ****         lv_table_ext_t * ext = lv_obj_get_ext_attr(table);
 797:..\..\..\lvgl\version_6.1.2\lvgl\src\lv_objx/lv_table.c ****         uint16_t cell;
 798:..\..\..\lvgl\version_6.1.2\lvgl\src\lv_objx/lv_table.c ****         for(cell = 0; cell < ext->col_cnt * ext->row_cnt; cell++) {
 799:..\..\..\lvgl\version_6.1.2\lvgl\src\lv_objx/lv_table.c ****             if(ext->cell_data[cell]) {
 800:..\..\..\lvgl\version_6.1.2\lvgl\src\lv_objx/lv_table.c ****                 lv_mem_free(ext->cell_data[cell]);
 801:..\..\..\lvgl\version_6.1.2\lvgl\src\lv_objx/lv_table.c ****                 ext->cell_data[cell] = NULL;
 802:..\..\..\lvgl\version_6.1.2\lvgl\src\lv_objx/lv_table.c ****             }
 803:..\..\..\lvgl\version_6.1.2\lvgl\src\lv_objx/lv_table.c ****         }
 804:..\..\..\lvgl\version_6.1.2\lvgl\src\lv_objx/lv_table.c ****         if(ext->cell_data != NULL)
 805:..\..\..\lvgl\version_6.1.2\lvgl\src\lv_objx/lv_table.c ****             lv_mem_free(ext->cell_data);
 806:..\..\..\lvgl\version_6.1.2\lvgl\src\lv_objx/lv_table.c ****     }
 807:..\..\..\lvgl\version_6.1.2\lvgl\src\lv_objx/lv_table.c **** 
 808:..\..\..\lvgl\version_6.1.2\lvgl\src\lv_objx/lv_table.c ****     return res;
 809:..\..\..\lvgl\version_6.1.2\lvgl\src\lv_objx/lv_table.c **** }
 810:..\..\..\lvgl\version_6.1.2\lvgl\src\lv_objx/lv_table.c **** 
 811:..\..\..\lvgl\version_6.1.2\lvgl\src\lv_objx/lv_table.c **** static void refr_size(lv_obj_t * table)
 812:..\..\..\lvgl\version_6.1.2\lvgl\src\lv_objx/lv_table.c **** {
 813:..\..\..\lvgl\version_6.1.2\lvgl\src\lv_objx/lv_table.c ****     lv_coord_t h = 0;
 814:..\..\..\lvgl\version_6.1.2\lvgl\src\lv_objx/lv_table.c ****     lv_coord_t w = 0;
 815:..\..\..\lvgl\version_6.1.2\lvgl\src\lv_objx/lv_table.c **** 
 816:..\..\..\lvgl\version_6.1.2\lvgl\src\lv_objx/lv_table.c ****     lv_table_ext_t * ext = lv_obj_get_ext_attr(table);
 817:..\..\..\lvgl\version_6.1.2\lvgl\src\lv_objx/lv_table.c **** 
 818:..\..\..\lvgl\version_6.1.2\lvgl\src\lv_objx/lv_table.c ****     uint16_t i;
 819:..\..\..\lvgl\version_6.1.2\lvgl\src\lv_objx/lv_table.c ****     for(i = 0; i < ext->col_cnt; i++) {
 820:..\..\..\lvgl\version_6.1.2\lvgl\src\lv_objx/lv_table.c ****         w += ext->col_w[i];
 821:..\..\..\lvgl\version_6.1.2\lvgl\src\lv_objx/lv_table.c ****     }
 822:..\..\..\lvgl\version_6.1.2\lvgl\src\lv_objx/lv_table.c ****     for(i = 0; i < ext->row_cnt; i++) {
 823:..\..\..\lvgl\version_6.1.2\lvgl\src\lv_objx/lv_table.c ****         h += get_row_height(table, i);
 824:..\..\..\lvgl\version_6.1.2\lvgl\src\lv_objx/lv_table.c ****     }
 825:..\..\..\lvgl\version_6.1.2\lvgl\src\lv_objx/lv_table.c **** 
 826:..\..\..\lvgl\version_6.1.2\lvgl\src\lv_objx/lv_table.c ****     const lv_style_t * bg_style = lv_obj_get_style(table);
 827:..\..\..\lvgl\version_6.1.2\lvgl\src\lv_objx/lv_table.c **** 
 828:..\..\..\lvgl\version_6.1.2\lvgl\src\lv_objx/lv_table.c ****     w += bg_style->body.padding.left + bg_style->body.padding.right;
ARM GAS  C:\Users\pearlstl\AppData\Local\Temp\ccIJtgHD.s 			page 16


 829:..\..\..\lvgl\version_6.1.2\lvgl\src\lv_objx/lv_table.c ****     h += bg_style->body.padding.top + bg_style->body.padding.bottom;
 830:..\..\..\lvgl\version_6.1.2\lvgl\src\lv_objx/lv_table.c **** 
 831:..\..\..\lvgl\version_6.1.2\lvgl\src\lv_objx/lv_table.c ****     lv_obj_set_size(table, w + 1, h + 1);
 832:..\..\..\lvgl\version_6.1.2\lvgl\src\lv_objx/lv_table.c ****     lv_obj_invalidate(table);
 833:..\..\..\lvgl\version_6.1.2\lvgl\src\lv_objx/lv_table.c **** }
 834:..\..\..\lvgl\version_6.1.2\lvgl\src\lv_objx/lv_table.c **** 
 835:..\..\..\lvgl\version_6.1.2\lvgl\src\lv_objx/lv_table.c **** static lv_coord_t get_row_height(lv_obj_t * table, uint16_t row_id)
 836:..\..\..\lvgl\version_6.1.2\lvgl\src\lv_objx/lv_table.c **** {
  28              		.loc 1 836 0
  29              		.cfi_startproc
  30              		@ args = 0, pretend = 0, frame = 8
  31              		@ frame_needed = 0, uses_anonymous_args = 0
  32              	.LVL0:
  33 0000 2DE9F047 		push	{r4, r5, r6, r7, r8, r9, r10, lr}
  34              		.cfi_def_cfa_offset 32
  35              		.cfi_offset 4, -32
  36              		.cfi_offset 5, -28
  37              		.cfi_offset 6, -24
  38              		.cfi_offset 7, -20
  39              		.cfi_offset 8, -16
  40              		.cfi_offset 9, -12
  41              		.cfi_offset 10, -8
  42              		.cfi_offset 14, -4
  43 0004 86B0     		sub	sp, sp, #24
  44              		.cfi_def_cfa_offset 56
  45              		.loc 1 836 0
  46 0006 0C46     		mov	r4, r1
 837:..\..\..\lvgl\version_6.1.2\lvgl\src\lv_objx/lv_table.c ****     lv_table_ext_t * ext = lv_obj_get_ext_attr(table);
  47              		.loc 1 837 0
  48 0008 FFF7FEFF 		bl	lv_obj_get_ext_attr
  49              	.LVL1:
 838:..\..\..\lvgl\version_6.1.2\lvgl\src\lv_objx/lv_table.c ****     lv_point_t txt_size;
 839:..\..\..\lvgl\version_6.1.2\lvgl\src\lv_objx/lv_table.c ****     lv_coord_t txt_w;
 840:..\..\..\lvgl\version_6.1.2\lvgl\src\lv_objx/lv_table.c ****     const lv_style_t * cell_style;
 841:..\..\..\lvgl\version_6.1.2\lvgl\src\lv_objx/lv_table.c **** 
 842:..\..\..\lvgl\version_6.1.2\lvgl\src\lv_objx/lv_table.c ****     uint16_t row_start = row_id * ext->col_cnt;
 843:..\..\..\lvgl\version_6.1.2\lvgl\src\lv_objx/lv_table.c ****     uint16_t cell;
 844:..\..\..\lvgl\version_6.1.2\lvgl\src\lv_objx/lv_table.c ****     uint16_t col;
 845:..\..\..\lvgl\version_6.1.2\lvgl\src\lv_objx/lv_table.c ****     lv_coord_t h_max = lv_font_get_line_height(ext->cell_style[0]->text.font) + ext->cell_style[0]-
  50              		.loc 1 845 0
  51 000c 8268     		ldr	r2, [r0, #8]
 842:..\..\..\lvgl\version_6.1.2\lvgl\src\lv_objx/lv_table.c ****     uint16_t cell;
  52              		.loc 1 842 0
  53 000e B0F800E0 		ldrh	lr, [r0]
  54              		.loc 1 845 0
  55 0012 118C     		ldrh	r1, [r2, #32]
  56 0014 538C     		ldrh	r3, [r2, #34]
 837:..\..\..\lvgl\version_6.1.2\lvgl\src\lv_objx/lv_table.c ****     lv_table_ext_t * ext = lv_obj_get_ext_attr(table);
  57              		.loc 1 837 0
  58 0016 0646     		mov	r6, r0
  59              	.LVL2:
  60 0018 506B     		ldr	r0, [r2, #52]
  61              	.LVL3:
 842:..\..\..\lvgl\version_6.1.2\lvgl\src\lv_objx/lv_table.c ****     uint16_t cell;
  62              		.loc 1 842 0
  63 001a 1EFB04F4 		smulbb	r4, lr, r4
  64              		.loc 1 845 0
ARM GAS  C:\Users\pearlstl\AppData\Local\Temp\ccIJtgHD.s 			page 17


  65 001e 077A     		ldrb	r7, [r0, #8]	@ zero_extendqisi2
  66 0020 0B44     		add	r3, r3, r1
 842:..\..\..\lvgl\version_6.1.2\lvgl\src\lv_objx/lv_table.c ****     uint16_t cell;
  67              		.loc 1 842 0
  68 0022 A5B2     		uxth	r5, r4
  69              	.LVL4:
  70              		.loc 1 845 0
  71 0024 1F44     		add	r7, r7, r3
 846:..\..\..\lvgl\version_6.1.2\lvgl\src\lv_objx/lv_table.c ****                        ext->cell_style[0]->body.padding.bottom;
 847:..\..\..\lvgl\version_6.1.2\lvgl\src\lv_objx/lv_table.c **** 
 848:..\..\..\lvgl\version_6.1.2\lvgl\src\lv_objx/lv_table.c ****     for(cell = row_start, col = 0; cell < row_start + ext->col_cnt; cell++, col++) {
  72              		.loc 1 848 0
  73 0026 0EEB0503 		add	r3, lr, r5
  74 002a AB42     		cmp	r3, r5
 845:..\..\..\lvgl\version_6.1.2\lvgl\src\lv_objx/lv_table.c ****                        ext->cell_style[0]->body.padding.bottom;
  75              		.loc 1 845 0
  76 002c 3FB2     		sxth	r7, r7
  77              	.LVL5:
  78              		.loc 1 848 0
  79 002e 51DD     		ble	.L2
  80 0030 A846     		mov	r8, r5
  81 0032 4FF00009 		mov	r9, #0
  82              	.LVL6:
  83              	.L9:
 849:..\..\..\lvgl\version_6.1.2\lvgl\src\lv_objx/lv_table.c ****         if(ext->cell_data[cell] != NULL) {
  84              		.loc 1 849 0
  85 0036 7168     		ldr	r1, [r6, #4]
  86 0038 51F825C0 		ldr	ip, [r1, r5, lsl #2]
  87 003c BCF1000F 		cmp	ip, #0
  88 0040 3ED0     		beq	.L3
  89              	.LBB41:
 850:..\..\..\lvgl\version_6.1.2\lvgl\src\lv_objx/lv_table.c **** 
 851:..\..\..\lvgl\version_6.1.2\lvgl\src\lv_objx/lv_table.c ****             txt_w              = ext->col_w[col];
  90              		.loc 1 851 0
  91 0042 09F10C03 		add	r3, r9, #12
 852:..\..\..\lvgl\version_6.1.2\lvgl\src\lv_objx/lv_table.c ****             uint16_t col_merge = 0;
 853:..\..\..\lvgl\version_6.1.2\lvgl\src\lv_objx/lv_table.c ****             for(col_merge = 0; col_merge + col < ext->col_cnt - 1; col_merge++) {
  92              		.loc 1 853 0
  93 0046 0EF1FF3A 		add	r10, lr, #-1
  94 004a D145     		cmp	r9, r10
 851:..\..\..\lvgl\version_6.1.2\lvgl\src\lv_objx/lv_table.c ****             uint16_t col_merge = 0;
  95              		.loc 1 851 0
  96 004c 36F91320 		ldrsh	r2, [r6, r3, lsl #1]
  97              	.LVL7:
  98              		.loc 1 853 0
  99 0050 6DDA     		bge	.L10
 100              	.LVL8:
 101              	.LBB42:
 854:..\..\..\lvgl\version_6.1.2\lvgl\src\lv_objx/lv_table.c **** 
 855:..\..\..\lvgl\version_6.1.2\lvgl\src\lv_objx/lv_table.c ****                 if(ext->cell_data[cell + col_merge] != NULL) {
 856:..\..\..\lvgl\version_6.1.2\lvgl\src\lv_objx/lv_table.c ****                     lv_table_cell_format_t format;
 857:..\..\..\lvgl\version_6.1.2\lvgl\src\lv_objx/lv_table.c ****                     format.format_byte = ext->cell_data[cell + col_merge][0];
 858:..\..\..\lvgl\version_6.1.2\lvgl\src\lv_objx/lv_table.c ****                     if(format.s.right_merge)
 102              		.loc 1 858 0
 103 0052 9CF80030 		ldrb	r3, [ip]	@ zero_extendqisi2
 104 0056 03F00403 		and	r3, r3, #4
 105 005a 03F0FF04 		and	r4, r3, #255
ARM GAS  C:\Users\pearlstl\AppData\Local\Temp\ccIJtgHD.s 			page 18


 106 005e ABB1     		cbz	r3, .L4
 107 0060 4B46     		mov	r3, r9
 108 0062 0024     		movs	r4, #0
 109 0064 05E0     		b	.L5
 110              	.LVL9:
 111              	.L6:
 112              	.LBE42:
 855:..\..\..\lvgl\version_6.1.2\lvgl\src\lv_objx/lv_table.c ****                     lv_table_cell_format_t format;
 113              		.loc 1 855 0
 114 0066 51F82000 		ldr	r0, [r1, r0, lsl #2]
 115              	.LVL10:
 116 006a 78B1     		cbz	r0, .L4
 117              	.LBB43:
 118              		.loc 1 858 0
 119 006c 0078     		ldrb	r0, [r0]	@ zero_extendqisi2
 120              	.LVL11:
 121 006e 4007     		lsls	r0, r0, #29
 122 0070 0CD5     		bpl	.L4
 123              	.LVL12:
 124              	.L5:
 859:..\..\..\lvgl\version_6.1.2\lvgl\src\lv_objx/lv_table.c ****                         txt_w += ext->col_w[col + col_merge + 1];
 125              		.loc 1 859 0
 126 0072 0D33     		adds	r3, r3, #13
 127              	.LBE43:
 853:..\..\..\lvgl\version_6.1.2\lvgl\src\lv_objx/lv_table.c **** 
 128              		.loc 1 853 0
 129 0074 0134     		adds	r4, r4, #1
 130              	.LVL13:
 131              	.LBB44:
 132              		.loc 1 859 0
 133 0076 36F81330 		ldrh	r3, [r6, r3, lsl #1]
 134              	.LBE44:
 853:..\..\..\lvgl\version_6.1.2\lvgl\src\lv_objx/lv_table.c **** 
 135              		.loc 1 853 0
 136 007a A4B2     		uxth	r4, r4
 137              	.LBB45:
 138              		.loc 1 859 0
 139 007c 1A44     		add	r2, r2, r3
 140              	.LVL14:
 141              	.LBE45:
 853:..\..\..\lvgl\version_6.1.2\lvgl\src\lv_objx/lv_table.c **** 
 142              		.loc 1 853 0
 143 007e 09EB0403 		add	r3, r9, r4
 144 0082 5345     		cmp	r3, r10
 855:..\..\..\lvgl\version_6.1.2\lvgl\src\lv_objx/lv_table.c ****                     lv_table_cell_format_t format;
 145              		.loc 1 855 0
 146 0084 04EB0500 		add	r0, r4, r5
 147              	.LBB46:
 148              		.loc 1 859 0
 149 0088 12B2     		sxth	r2, r2
 150              	.LVL15:
 151              	.LBE46:
 853:..\..\..\lvgl\version_6.1.2\lvgl\src\lv_objx/lv_table.c **** 
 152              		.loc 1 853 0
 153 008a ECDB     		blt	.L6
 154              	.LVL16:
 155              	.L4:
ARM GAS  C:\Users\pearlstl\AppData\Local\Temp\ccIJtgHD.s 			page 19


 860:..\..\..\lvgl\version_6.1.2\lvgl\src\lv_objx/lv_table.c ****                     else
 861:..\..\..\lvgl\version_6.1.2\lvgl\src\lv_objx/lv_table.c ****                         break;
 862:..\..\..\lvgl\version_6.1.2\lvgl\src\lv_objx/lv_table.c ****                 } else {
 863:..\..\..\lvgl\version_6.1.2\lvgl\src\lv_objx/lv_table.c ****                     break;
 864:..\..\..\lvgl\version_6.1.2\lvgl\src\lv_objx/lv_table.c ****                 }
 865:..\..\..\lvgl\version_6.1.2\lvgl\src\lv_objx/lv_table.c ****             }
 866:..\..\..\lvgl\version_6.1.2\lvgl\src\lv_objx/lv_table.c **** 
 867:..\..\..\lvgl\version_6.1.2\lvgl\src\lv_objx/lv_table.c ****             lv_table_cell_format_t format;
 868:..\..\..\lvgl\version_6.1.2\lvgl\src\lv_objx/lv_table.c ****             format.format_byte = ext->cell_data[cell][0];
 156              		.loc 1 868 0
 157 008c 9CF80030 		ldrb	r3, [ip]	@ zero_extendqisi2
 869:..\..\..\lvgl\version_6.1.2\lvgl\src\lv_objx/lv_table.c ****             cell_style         = ext->cell_style[format.s.type];
 158              		.loc 1 869 0
 159 0090 C3F3C101 		ubfx	r1, r3, #3, #2
 160 0094 0231     		adds	r1, r1, #2
 870:..\..\..\lvgl\version_6.1.2\lvgl\src\lv_objx/lv_table.c **** 
 871:..\..\..\lvgl\version_6.1.2\lvgl\src\lv_objx/lv_table.c ****             /*With text crop assume 1 line*/
 872:..\..\..\lvgl\version_6.1.2\lvgl\src\lv_objx/lv_table.c ****             if(format.s.crop) {
 161              		.loc 1 872 0
 162 0096 03F02003 		and	r3, r3, #32
 869:..\..\..\lvgl\version_6.1.2\lvgl\src\lv_objx/lv_table.c ****             cell_style         = ext->cell_style[format.s.type];
 163              		.loc 1 869 0
 164 009a 56F821A0 		ldr	r10, [r6, r1, lsl #2]
 165              	.LVL17:
 166              		.loc 1 872 0
 167 009e 03F0FF00 		and	r0, r3, #255
 168 00a2 DBB1     		cbz	r3, .L7
 169 00a4 DAF83430 		ldr	r3, [r10, #52]
 873:..\..\..\lvgl\version_6.1.2\lvgl\src\lv_objx/lv_table.c ****                 h_max = LV_MATH_MAX(lv_font_get_line_height(cell_style->text.font) + cell_style->bo
 170              		.loc 1 873 0
 171 00a8 BAF92000 		ldrsh	r0, [r10, #32]
 172 00ac 1A7A     		ldrb	r2, [r3, #8]	@ zero_extendqisi2
 173              	.LVL18:
 174 00ae BAF92210 		ldrsh	r1, [r10, #34]
 175 00b2 1318     		adds	r3, r2, r0
 176              	.LVL19:
 177 00b4 0B44     		add	r3, r3, r1
 178 00b6 BB42     		cmp	r3, r7
 179 00b8 02DD     		ble	.L3
 180              	.LVL20:
 181              		.loc 1 873 0 is_stmt 0 discriminator 1
 182 00ba 4718     		adds	r7, r0, r1
 183              	.LVL21:
 184 00bc 1744     		add	r7, r7, r2
 185 00be 3FB2     		sxth	r7, r7
 186              	.LVL22:
 187              	.L3:
 188              	.LBE41:
 848:..\..\..\lvgl\version_6.1.2\lvgl\src\lv_objx/lv_table.c ****         if(ext->cell_data[cell] != NULL) {
 189              		.loc 1 848 0 is_stmt 1 discriminator 2
 190 00c0 0135     		adds	r5, r5, #1
 191              	.LVL23:
 192 00c2 ADB2     		uxth	r5, r5
 193              	.LVL24:
 194 00c4 0EEB0803 		add	r3, lr, r8
 195 00c8 09F10104 		add	r4, r9, #1
 196 00cc 9D42     		cmp	r5, r3
ARM GAS  C:\Users\pearlstl\AppData\Local\Temp\ccIJtgHD.s 			page 20


 197 00ce 1FFA84F9 		uxth	r9, r4
 198              	.LVL25:
 199 00d2 B0DB     		blt	.L9
 200              	.LVL26:
 201              	.L2:
 874:..\..\..\lvgl\version_6.1.2\lvgl\src\lv_objx/lv_table.c ****                                         cell_style->body.padding.bottom,
 875:..\..\..\lvgl\version_6.1.2\lvgl\src\lv_objx/lv_table.c ****                                     h_max);
 876:..\..\..\lvgl\version_6.1.2\lvgl\src\lv_objx/lv_table.c ****             }
 877:..\..\..\lvgl\version_6.1.2\lvgl\src\lv_objx/lv_table.c ****             /*Without text crop calculate the height of the text in the cell*/
 878:..\..\..\lvgl\version_6.1.2\lvgl\src\lv_objx/lv_table.c ****             else {
 879:..\..\..\lvgl\version_6.1.2\lvgl\src\lv_objx/lv_table.c ****                 txt_w -= cell_style->body.padding.left + cell_style->body.padding.right;
 880:..\..\..\lvgl\version_6.1.2\lvgl\src\lv_objx/lv_table.c **** 
 881:..\..\..\lvgl\version_6.1.2\lvgl\src\lv_objx/lv_table.c ****                 lv_txt_get_size(&txt_size, ext->cell_data[cell] + 1, cell_style->text.font,
 882:..\..\..\lvgl\version_6.1.2\lvgl\src\lv_objx/lv_table.c ****                                 cell_style->text.letter_space, cell_style->text.line_space, txt_w, 
 883:..\..\..\lvgl\version_6.1.2\lvgl\src\lv_objx/lv_table.c **** 
 884:..\..\..\lvgl\version_6.1.2\lvgl\src\lv_objx/lv_table.c ****                 h_max = LV_MATH_MAX(txt_size.y + cell_style->body.padding.top + cell_style->body.pa
 885:..\..\..\lvgl\version_6.1.2\lvgl\src\lv_objx/lv_table.c ****                 cell += col_merge;
 886:..\..\..\lvgl\version_6.1.2\lvgl\src\lv_objx/lv_table.c ****                 col += col_merge;
 887:..\..\..\lvgl\version_6.1.2\lvgl\src\lv_objx/lv_table.c ****             }
 888:..\..\..\lvgl\version_6.1.2\lvgl\src\lv_objx/lv_table.c ****         }
 889:..\..\..\lvgl\version_6.1.2\lvgl\src\lv_objx/lv_table.c ****     }
 890:..\..\..\lvgl\version_6.1.2\lvgl\src\lv_objx/lv_table.c **** 
 891:..\..\..\lvgl\version_6.1.2\lvgl\src\lv_objx/lv_table.c ****     return h_max;
 892:..\..\..\lvgl\version_6.1.2\lvgl\src\lv_objx/lv_table.c **** }
 202              		.loc 1 892 0
 203 00d4 3846     		mov	r0, r7
 204 00d6 06B0     		add	sp, sp, #24
 205              		.cfi_remember_state
 206              		.cfi_def_cfa_offset 32
 207              		@ sp needed
 208 00d8 BDE8F087 		pop	{r4, r5, r6, r7, r8, r9, r10, pc}
 209              	.LVL27:
 210              	.L7:
 211              		.cfi_restore_state
 212              	.LBB47:
 879:..\..\..\lvgl\version_6.1.2\lvgl\src\lv_objx/lv_table.c **** 
 213              		.loc 1 879 0
 214 00dc BAF824E0 		ldrh	lr, [r10, #36]
 215 00e0 BAF82610 		ldrh	r1, [r10, #38]
 881:..\..\..\lvgl\version_6.1.2\lvgl\src\lv_objx/lv_table.c ****                                 cell_style->text.letter_space, cell_style->text.line_space, txt_w, 
 216              		.loc 1 881 0
 217 00e4 BAF93830 		ldrsh	r3, [r10, #56]
 879:..\..\..\lvgl\version_6.1.2\lvgl\src\lv_objx/lv_table.c **** 
 218              		.loc 1 879 0
 219 00e8 7144     		add	r1, r1, lr
 220 00ea 521A     		subs	r2, r2, r1
 221              	.LVL28:
 881:..\..\..\lvgl\version_6.1.2\lvgl\src\lv_objx/lv_table.c ****                                 cell_style->text.letter_space, cell_style->text.line_space, txt_w, 
 222              		.loc 1 881 0
 223 00ec 11B2     		sxth	r1, r2
 224 00ee DAF83420 		ldr	r2, [r10, #52]
 225              	.LVL29:
 226 00f2 0290     		str	r0, [sp, #8]
 227 00f4 0191     		str	r1, [sp, #4]
 228 00f6 BAF93A10 		ldrsh	r1, [r10, #58]
 229              	.LVL30:
 230 00fa 0091     		str	r1, [sp]
ARM GAS  C:\Users\pearlstl\AppData\Local\Temp\ccIJtgHD.s 			page 21


 231 00fc 05A8     		add	r0, sp, #20
 232 00fe 0CF10101 		add	r1, ip, #1
 233 0102 FFF7FEFF 		bl	lv_txt_get_size
 234              	.LVL31:
 884:..\..\..\lvgl\version_6.1.2\lvgl\src\lv_objx/lv_table.c ****                 cell += col_merge;
 235              		.loc 1 884 0
 236 0106 BDF91610 		ldrsh	r1, [sp, #22]
 237 010a BAF92030 		ldrsh	r3, [r10, #32]
 238 010e BAF92220 		ldrsh	r2, [r10, #34]
 239 0112 B6F800E0 		ldrh	lr, [r6]
 240 0116 0B44     		add	r3, r3, r1
 241 0118 1344     		add	r3, r3, r2
 242 011a 9F42     		cmp	r7, r3
 885:..\..\..\lvgl\version_6.1.2\lvgl\src\lv_objx/lv_table.c ****                 col += col_merge;
 243              		.loc 1 885 0
 244 011c 2544     		add	r5, r5, r4
 245              	.LVL32:
 884:..\..\..\lvgl\version_6.1.2\lvgl\src\lv_objx/lv_table.c ****                 cell += col_merge;
 246              		.loc 1 884 0
 247 011e B8BF     		it	lt
 248 0120 1F46     		movlt	r7, r3
 249              	.LVL33:
 886:..\..\..\lvgl\version_6.1.2\lvgl\src\lv_objx/lv_table.c ****             }
 250              		.loc 1 886 0
 251 0122 4C44     		add	r4, r4, r9
 885:..\..\..\lvgl\version_6.1.2\lvgl\src\lv_objx/lv_table.c ****                 col += col_merge;
 252              		.loc 1 885 0
 253 0124 ADB2     		uxth	r5, r5
 886:..\..\..\lvgl\version_6.1.2\lvgl\src\lv_objx/lv_table.c ****             }
 254              		.loc 1 886 0
 255 0126 1FFA84F9 		uxth	r9, r4
 256              	.LVL34:
 884:..\..\..\lvgl\version_6.1.2\lvgl\src\lv_objx/lv_table.c ****                 cell += col_merge;
 257              		.loc 1 884 0
 258 012a 3FB2     		sxth	r7, r7
 259              	.LVL35:
 260 012c C8E7     		b	.L3
 261              	.LVL36:
 262              	.L10:
 853:..\..\..\lvgl\version_6.1.2\lvgl\src\lv_objx/lv_table.c **** 
 263              		.loc 1 853 0
 264 012e 0024     		movs	r4, #0
 265 0130 ACE7     		b	.L4
 266              	.LBE47:
 267              		.cfi_endproc
 268              	.LFE55:
 269              		.size	get_row_height, .-get_row_height
 270 0132 00BF     		.section	.text.lv_table_signal,"ax",%progbits
 271              		.align	2
 272              		.thumb
 273              		.thumb_func
 274              		.type	lv_table_signal, %function
 275              	lv_table_signal:
 276              	.LFB53:
 786:..\..\..\lvgl\version_6.1.2\lvgl\src\lv_objx/lv_table.c ****     lv_res_t res;
 277              		.loc 1 786 0
 278              		.cfi_startproc
ARM GAS  C:\Users\pearlstl\AppData\Local\Temp\ccIJtgHD.s 			page 22


 279              		@ args = 0, pretend = 0, frame = 0
 280              		@ frame_needed = 0, uses_anonymous_args = 0
 281              	.LVL37:
 790:..\..\..\lvgl\version_6.1.2\lvgl\src\lv_objx/lv_table.c ****     if(res != LV_RES_OK) return res;
 282              		.loc 1 790 0
 283 0000 1B4B     		ldr	r3, .L47
 786:..\..\..\lvgl\version_6.1.2\lvgl\src\lv_objx/lv_table.c ****     lv_res_t res;
 284              		.loc 1 786 0
 285 0002 70B5     		push	{r4, r5, r6, lr}
 286              		.cfi_def_cfa_offset 16
 287              		.cfi_offset 4, -16
 288              		.cfi_offset 5, -12
 289              		.cfi_offset 6, -8
 290              		.cfi_offset 14, -4
 790:..\..\..\lvgl\version_6.1.2\lvgl\src\lv_objx/lv_table.c ****     if(res != LV_RES_OK) return res;
 291              		.loc 1 790 0
 292 0004 1B68     		ldr	r3, [r3]
 786:..\..\..\lvgl\version_6.1.2\lvgl\src\lv_objx/lv_table.c ****     lv_res_t res;
 293              		.loc 1 786 0
 294 0006 0546     		mov	r5, r0
 295 0008 0C46     		mov	r4, r1
 296 000a 1646     		mov	r6, r2
 790:..\..\..\lvgl\version_6.1.2\lvgl\src\lv_objx/lv_table.c ****     if(res != LV_RES_OK) return res;
 297              		.loc 1 790 0
 298 000c 9847     		blx	r3
 299              	.LVL38:
 791:..\..\..\lvgl\version_6.1.2\lvgl\src\lv_objx/lv_table.c ****     if(sign == LV_SIGNAL_GET_TYPE) return lv_obj_handle_get_type_signal(param, LV_OBJX_NAME);
 300              		.loc 1 791 0
 301 000e 0128     		cmp	r0, #1
 302 0010 00D0     		beq	.L44
 809:..\..\..\lvgl\version_6.1.2\lvgl\src\lv_objx/lv_table.c **** 
 303              		.loc 1 809 0
 304 0012 70BD     		pop	{r4, r5, r6, pc}
 305              	.LVL39:
 306              	.L44:
 792:..\..\..\lvgl\version_6.1.2\lvgl\src\lv_objx/lv_table.c **** 
 307              		.loc 1 792 0
 308 0014 072C     		cmp	r4, #7
 309 0016 25D0     		beq	.L45
 794:..\..\..\lvgl\version_6.1.2\lvgl\src\lv_objx/lv_table.c ****         /*Free the cell texts*/
 310              		.loc 1 794 0
 311 0018 0CB1     		cbz	r4, .L46
 312              	.LVL40:
 313              	.L43:
 314              	.LBB48:
 805:..\..\..\lvgl\version_6.1.2\lvgl\src\lv_objx/lv_table.c ****     }
 315              		.loc 1 805 0
 316 001a 0120     		movs	r0, #1
 317              	.LBE48:
 809:..\..\..\lvgl\version_6.1.2\lvgl\src\lv_objx/lv_table.c **** 
 318              		.loc 1 809 0
 319 001c 70BD     		pop	{r4, r5, r6, pc}
 320              	.LVL41:
 321              	.L46:
 322              	.LBB49:
 796:..\..\..\lvgl\version_6.1.2\lvgl\src\lv_objx/lv_table.c ****         uint16_t cell;
 323              		.loc 1 796 0
ARM GAS  C:\Users\pearlstl\AppData\Local\Temp\ccIJtgHD.s 			page 23


 324 001e 2846     		mov	r0, r5
 325              	.LVL42:
 326 0020 FFF7FEFF 		bl	lv_obj_get_ext_attr
 327              	.LVL43:
 798:..\..\..\lvgl\version_6.1.2\lvgl\src\lv_objx/lv_table.c ****             if(ext->cell_data[cell]) {
 328              		.loc 1 798 0
 329 0024 0288     		ldrh	r2, [r0]
 330 0026 4388     		ldrh	r3, [r0, #2]
 331 0028 4168     		ldr	r1, [r0, #4]
 332 002a 03FB02F3 		mul	r3, r3, r2
 796:..\..\..\lvgl\version_6.1.2\lvgl\src\lv_objx/lv_table.c ****         uint16_t cell;
 333              		.loc 1 796 0
 334 002e 0546     		mov	r5, r0
 335              	.LVL44:
 798:..\..\..\lvgl\version_6.1.2\lvgl\src\lv_objx/lv_table.c ****             if(ext->cell_data[cell]) {
 336              		.loc 1 798 0
 337 0030 93B1     		cbz	r3, .L30
 801:..\..\..\lvgl\version_6.1.2\lvgl\src\lv_objx/lv_table.c ****             }
 338              		.loc 1 801 0
 339 0032 2646     		mov	r6, r4
 340              	.LVL45:
 341              	.L32:
 799:..\..\..\lvgl\version_6.1.2\lvgl\src\lv_objx/lv_table.c ****                 lv_mem_free(ext->cell_data[cell]);
 342              		.loc 1 799 0
 343 0034 51F82420 		ldr	r2, [r1, r4, lsl #2]
 800:..\..\..\lvgl\version_6.1.2\lvgl\src\lv_objx/lv_table.c ****                 ext->cell_data[cell] = NULL;
 344              		.loc 1 800 0
 345 0038 1046     		mov	r0, r2
 799:..\..\..\lvgl\version_6.1.2\lvgl\src\lv_objx/lv_table.c ****                 lv_mem_free(ext->cell_data[cell]);
 346              		.loc 1 799 0
 347 003a 4AB1     		cbz	r2, .L31
 800:..\..\..\lvgl\version_6.1.2\lvgl\src\lv_objx/lv_table.c ****                 ext->cell_data[cell] = NULL;
 348              		.loc 1 800 0
 349 003c FFF7FEFF 		bl	lv_mem_free
 350              	.LVL46:
 801:..\..\..\lvgl\version_6.1.2\lvgl\src\lv_objx/lv_table.c ****             }
 351              		.loc 1 801 0
 352 0040 6B68     		ldr	r3, [r5, #4]
 353 0042 2A88     		ldrh	r2, [r5]
 354 0044 43F82460 		str	r6, [r3, r4, lsl #2]
 355 0048 6B88     		ldrh	r3, [r5, #2]
 356 004a 6968     		ldr	r1, [r5, #4]
 357 004c 03FB02F3 		mul	r3, r3, r2
 358              	.L31:
 798:..\..\..\lvgl\version_6.1.2\lvgl\src\lv_objx/lv_table.c ****             if(ext->cell_data[cell]) {
 359              		.loc 1 798 0 discriminator 2
 360 0050 0134     		adds	r4, r4, #1
 361              	.LVL47:
 362 0052 A4B2     		uxth	r4, r4
 363              	.LVL48:
 364 0054 9C42     		cmp	r4, r3
 365 0056 EDDB     		blt	.L32
 366              	.LVL49:
 367              	.L30:
 804:..\..\..\lvgl\version_6.1.2\lvgl\src\lv_objx/lv_table.c ****             lv_mem_free(ext->cell_data);
 368              		.loc 1 804 0
 369 0058 0029     		cmp	r1, #0
ARM GAS  C:\Users\pearlstl\AppData\Local\Temp\ccIJtgHD.s 			page 24


 370 005a DED0     		beq	.L43
 805:..\..\..\lvgl\version_6.1.2\lvgl\src\lv_objx/lv_table.c ****     }
 371              		.loc 1 805 0
 372 005c 0846     		mov	r0, r1
 373 005e FFF7FEFF 		bl	lv_mem_free
 374              	.LVL50:
 375 0062 DAE7     		b	.L43
 376              	.LVL51:
 377              	.L45:
 378              	.LBE49:
 792:..\..\..\lvgl\version_6.1.2\lvgl\src\lv_objx/lv_table.c **** 
 379              		.loc 1 792 0 discriminator 1
 380 0064 3046     		mov	r0, r6
 381              	.LVL52:
 382 0066 0349     		ldr	r1, .L47+4
 809:..\..\..\lvgl\version_6.1.2\lvgl\src\lv_objx/lv_table.c **** 
 383              		.loc 1 809 0 discriminator 1
 384 0068 BDE87040 		pop	{r4, r5, r6, lr}
 385              		.cfi_restore 14
 386              		.cfi_restore 6
 387              		.cfi_restore 5
 388              		.cfi_restore 4
 389              		.cfi_def_cfa_offset 0
 390              	.LVL53:
 792:..\..\..\lvgl\version_6.1.2\lvgl\src\lv_objx/lv_table.c **** 
 391              		.loc 1 792 0 discriminator 1
 392 006c FFF7FEBF 		b	lv_obj_handle_get_type_signal
 393              	.LVL54:
 394              	.L48:
 395              		.align	2
 396              	.L47:
 397 0070 00000000 		.word	.LANCHOR0
 398 0074 00000000 		.word	.LC0
 399              		.cfi_endproc
 400              	.LFE53:
 401              		.size	lv_table_signal, .-lv_table_signal
 402              		.section	.text.lv_table_design,"ax",%progbits
 403              		.align	2
 404              		.thumb
 405              		.thumb_func
 406              		.type	lv_table_design, %function
 407              	lv_table_design:
 408              	.LFB52:
 642:..\..\..\lvgl\version_6.1.2\lvgl\src\lv_objx/lv_table.c ****     /*Return false if the object is not covers the mask_p area*/
 409              		.loc 1 642 0
 410              		.cfi_startproc
 411              		@ args = 0, pretend = 0, frame = 160
 412              		@ frame_needed = 0, uses_anonymous_args = 0
 413              	.LVL55:
 644:..\..\..\lvgl\version_6.1.2\lvgl\src\lv_objx/lv_table.c ****         return false;
 414              		.loc 1 644 0
 415 0000 022A     		cmp	r2, #2
 416 0002 00F0C081 		beq	.L78
 648:..\..\..\lvgl\version_6.1.2\lvgl\src\lv_objx/lv_table.c ****         ancestor_scrl_design(table, mask, mode);
 417              		.loc 1 648 0
 418 0006 0AB1     		cbz	r2, .L112
 775:..\..\..\lvgl\version_6.1.2\lvgl\src\lv_objx/lv_table.c **** }
ARM GAS  C:\Users\pearlstl\AppData\Local\Temp\ccIJtgHD.s 			page 25


 419              		.loc 1 775 0
 420 0008 0120     		movs	r0, #1
 421              	.LVL56:
 422 000a 7047     		bx	lr
 423              	.LVL57:
 424              	.L112:
 642:..\..\..\lvgl\version_6.1.2\lvgl\src\lv_objx/lv_table.c ****     /*Return false if the object is not covers the mask_p area*/
 425              		.loc 1 642 0
 426 000c 2DE9F04F 		push	{r4, r5, r6, r7, r8, r9, r10, fp, lr}
 427              		.cfi_def_cfa_offset 36
 428              		.cfi_offset 4, -36
 429              		.cfi_offset 5, -32
 430              		.cfi_offset 6, -28
 431              		.cfi_offset 7, -24
 432              		.cfi_offset 8, -20
 433              		.cfi_offset 9, -16
 434              		.cfi_offset 10, -12
 435              		.cfi_offset 11, -8
 436              		.cfi_offset 14, -4
 437              	.LBB59:
 438              	.LBB60:
 649:..\..\..\lvgl\version_6.1.2\lvgl\src\lv_objx/lv_table.c **** 
 439              		.loc 1 649 0
 440 0010 C84B     		ldr	r3, .L118
 441              	.LBE60:
 442              	.LBE59:
 642:..\..\..\lvgl\version_6.1.2\lvgl\src\lv_objx/lv_table.c ****     /*Return false if the object is not covers the mask_p area*/
 443              		.loc 1 642 0
 444 0012 AFB0     		sub	sp, sp, #188
 445              		.cfi_def_cfa_offset 224
 446 0014 0546     		mov	r5, r0
 447              	.LVL58:
 448              	.LBB70:
 449              	.LBB68:
 649:..\..\..\lvgl\version_6.1.2\lvgl\src\lv_objx/lv_table.c **** 
 450              		.loc 1 649 0
 451 0016 5B68     		ldr	r3, [r3, #4]
 452 0018 0891     		str	r1, [sp, #32]
 453              	.LVL59:
 454 001a 1446     		mov	r4, r2
 455 001c 0D90     		str	r0, [sp, #52]
 456 001e 9847     		blx	r3
 457              	.LVL60:
 651:..\..\..\lvgl\version_6.1.2\lvgl\src\lv_objx/lv_table.c ****         const lv_style_t * bg_style = lv_obj_get_style(table);
 458              		.loc 1 651 0
 459 0020 2846     		mov	r0, r5
 460 0022 FFF7FEFF 		bl	lv_obj_get_ext_attr
 461              	.LVL61:
 462 0026 8246     		mov	r10, r0
 463              	.LVL62:
 652:..\..\..\lvgl\version_6.1.2\lvgl\src\lv_objx/lv_table.c ****         lv_coord_t h_row;
 464              		.loc 1 652 0
 465 0028 2846     		mov	r0, r5
 466              	.LVL63:
 467 002a FFF7FEFF 		bl	lv_obj_get_style
 468              	.LVL64:
 469 002e 0646     		mov	r6, r0
ARM GAS  C:\Users\pearlstl\AppData\Local\Temp\ccIJtgHD.s 			page 26


 470 0030 0F90     		str	r0, [sp, #60]
 471              	.LVL65:
 658:..\..\..\lvgl\version_6.1.2\lvgl\src\lv_objx/lv_table.c **** 
 472              		.loc 1 658 0
 473 0032 2846     		mov	r0, r5
 474              	.LVL66:
 475 0034 FFF7FEFF 		bl	lv_obj_get_opa_scale
 476              	.LVL67:
 664:..\..\..\lvgl\version_6.1.2\lvgl\src\lv_objx/lv_table.c ****         for(row = 0; row < ext->row_cnt; row++) {
 477              		.loc 1 664 0
 478 0038 338C     		ldrh	r3, [r6, #32]
 479 003a 698A     		ldrh	r1, [r5, #18]
 665:..\..\..\lvgl\version_6.1.2\lvgl\src\lv_objx/lv_table.c ****             h_row = get_row_height(table, row);
 480              		.loc 1 665 0
 481 003c BAF80220 		ldrh	r2, [r10, #2]
 658:..\..\..\lvgl\version_6.1.2\lvgl\src\lv_objx/lv_table.c **** 
 482              		.loc 1 658 0
 483 0040 0990     		str	r0, [sp, #36]
 484              	.LVL68:
 664:..\..\..\lvgl\version_6.1.2\lvgl\src\lv_objx/lv_table.c ****         for(row = 0; row < ext->row_cnt; row++) {
 485              		.loc 1 664 0
 486 0042 0B44     		add	r3, r3, r1
 487 0044 ADF85630 		strh	r3, [sp, #86]	@ movhi
 488              	.LVL69:
 665:..\..\..\lvgl\version_6.1.2\lvgl\src\lv_objx/lv_table.c ****             h_row = get_row_height(table, row);
 489              		.loc 1 665 0
 490 0048 002A     		cmp	r2, #0
 491 004a 00F05081 		beq	.L76
 492 004e A346     		mov	fp, r4
 493 0050 0E94     		str	r4, [sp, #56]
 494              	.LVL70:
 495              	.L75:
 666:..\..\..\lvgl\version_6.1.2\lvgl\src\lv_objx/lv_table.c **** 
 496              		.loc 1 666 0
 497 0052 0D9C     		ldr	r4, [sp, #52]
 498 0054 0E99     		ldr	r1, [sp, #56]
 499 0056 2046     		mov	r0, r4
 500 0058 FFF7FEFF 		bl	get_row_height
 501              	.LVL71:
 668:..\..\..\lvgl\version_6.1.2\lvgl\src\lv_objx/lv_table.c ****             cell_area.y2 = cell_area.y1 + h_row - 1;
 502              		.loc 1 668 0
 503 005c BDF85620 		ldrh	r2, [sp, #86]
 671:..\..\..\lvgl\version_6.1.2\lvgl\src\lv_objx/lv_table.c **** 
 504              		.loc 1 671 0
 505 0060 0F9B     		ldr	r3, [sp, #60]
 506 0062 248A     		ldrh	r4, [r4, #16]
 507 0064 9B8C     		ldrh	r3, [r3, #36]
 669:..\..\..\lvgl\version_6.1.2\lvgl\src\lv_objx/lv_table.c **** 
 508              		.loc 1 669 0
 509 0066 1118     		adds	r1, r2, r0
 510 0068 ADF85610 		strh	r1, [sp, #86]	@ movhi
 673:..\..\..\lvgl\version_6.1.2\lvgl\src\lv_objx/lv_table.c **** 
 511              		.loc 1 673 0
 512 006c BAF80010 		ldrh	r1, [r10]
 668:..\..\..\lvgl\version_6.1.2\lvgl\src\lv_objx/lv_table.c ****             cell_area.y2 = cell_area.y1 + h_row - 1;
 513              		.loc 1 668 0
 514 0070 0132     		adds	r2, r2, #1
ARM GAS  C:\Users\pearlstl\AppData\Local\Temp\ccIJtgHD.s 			page 27


 671:..\..\..\lvgl\version_6.1.2\lvgl\src\lv_objx/lv_table.c **** 
 515              		.loc 1 671 0
 516 0072 2344     		add	r3, r3, r4
 668:..\..\..\lvgl\version_6.1.2\lvgl\src\lv_objx/lv_table.c ****             cell_area.y2 = cell_area.y1 + h_row - 1;
 517              		.loc 1 668 0
 518 0074 ADF85220 		strh	r2, [sp, #82]	@ movhi
 671:..\..\..\lvgl\version_6.1.2\lvgl\src\lv_objx/lv_table.c **** 
 519              		.loc 1 671 0
 520 0078 ADF85430 		strh	r3, [sp, #84]	@ movhi
 521              	.LVL72:
 673:..\..\..\lvgl\version_6.1.2\lvgl\src\lv_objx/lv_table.c **** 
 522              		.loc 1 673 0
 523 007c 0029     		cmp	r1, #0
 524 007e 00F02D81 		beq	.L52
 525              	.LBB61:
 526              	.LBB62:
 726:..\..\..\lvgl\version_6.1.2\lvgl\src\lv_objx/lv_table.c ****                         txt_area.y2 = cell_area.y1 + h_row / 2 + txt_size.y / 2;
 527              		.loc 1 726 0
 528 0082 00EBD073 		add	r3, r0, r0, lsr #31
 529 0086 C3F34F03 		ubfx	r3, r3, #1, #16
 530 008a DAF80400 		ldr	r0, [r10, #4]
 531              	.LVL73:
 532 008e 0C93     		str	r3, [sp, #48]
 533 0090 4FF00009 		mov	r9, #0
 534 0094 B846     		mov	r8, r7
 535              	.LVL74:
 536              	.L74:
 537              	.LBE62:
 676:..\..\..\lvgl\version_6.1.2\lvgl\src\lv_objx/lv_table.c ****                     format.format_byte = ext->cell_data[cell][0];
 538              		.loc 1 676 0
 539 0096 50F82B30 		ldr	r3, [r0, fp, lsl #2]
 540 009a 4FEA8B07 		lsl	r7, fp, #2
 541 009e 002B     		cmp	r3, #0
 542 00a0 00F06581 		beq	.L53
 677:..\..\..\lvgl\version_6.1.2\lvgl\src\lv_objx/lv_table.c ****                 } else {
 543              		.loc 1 677 0
 544 00a4 1B78     		ldrb	r3, [r3]	@ zero_extendqisi2
 545 00a6 9846     		mov	r8, r3
 546              	.LVL75:
 547 00a8 C3F3C103 		ubfx	r3, r3, #3, #2
 548              	.L54:
 687:..\..\..\lvgl\version_6.1.2\lvgl\src\lv_objx/lv_table.c ****                 cell_area.x1 = cell_area.x2 + 1;
 549              		.loc 1 687 0
 550 00ac 0233     		adds	r3, r3, #2
 551 00ae 1AA8     		add	r0, sp, #104
 552 00b0 5AF82310 		ldr	r1, [r10, r3, lsl #2]
 553 00b4 FFF7FEFF 		bl	lv_style_copy
 554              	.LVL76:
 689:..\..\..\lvgl\version_6.1.2\lvgl\src\lv_objx/lv_table.c **** 
 555              		.loc 1 689 0
 556 00b8 09F10C02 		add	r2, r9, #12
 688:..\..\..\lvgl\version_6.1.2\lvgl\src\lv_objx/lv_table.c ****                 cell_area.x2 = cell_area.x1 + ext->col_w[col] - 1;
 557              		.loc 1 688 0
 558 00bc BDF85430 		ldrh	r3, [sp, #84]
 692:..\..\..\lvgl\version_6.1.2\lvgl\src\lv_objx/lv_table.c **** 
 559              		.loc 1 692 0
 560 00c0 BAF80060 		ldrh	r6, [r10]
ARM GAS  C:\Users\pearlstl\AppData\Local\Temp\ccIJtgHD.s 			page 28


 689:..\..\..\lvgl\version_6.1.2\lvgl\src\lv_objx/lv_table.c **** 
 561              		.loc 1 689 0
 562 00c4 3AF81220 		ldrh	r2, [r10, r2, lsl #1]
 692:..\..\..\lvgl\version_6.1.2\lvgl\src\lv_objx/lv_table.c **** 
 563              		.loc 1 692 0
 564 00c8 013E     		subs	r6, r6, #1
 689:..\..\..\lvgl\version_6.1.2\lvgl\src\lv_objx/lv_table.c **** 
 565              		.loc 1 689 0
 566 00ca 1A44     		add	r2, r2, r3
 567 00cc 12B2     		sxth	r2, r2
 688:..\..\..\lvgl\version_6.1.2\lvgl\src\lv_objx/lv_table.c ****                 cell_area.x2 = cell_area.x1 + ext->col_w[col] - 1;
 568              		.loc 1 688 0
 569 00ce 0133     		adds	r3, r3, #1
 692:..\..\..\lvgl\version_6.1.2\lvgl\src\lv_objx/lv_table.c **** 
 570              		.loc 1 692 0
 571 00d0 B145     		cmp	r9, r6
 689:..\..\..\lvgl\version_6.1.2\lvgl\src\lv_objx/lv_table.c **** 
 572              		.loc 1 689 0
 573 00d2 ADF85420 		strh	r2, [sp, #84]	@ movhi
 574              	.LVL77:
 688:..\..\..\lvgl\version_6.1.2\lvgl\src\lv_objx/lv_table.c ****                 cell_area.x2 = cell_area.x1 + ext->col_w[col] - 1;
 575              		.loc 1 688 0
 576 00d6 ADF85030 		strh	r3, [sp, #80]	@ movhi
 692:..\..\..\lvgl\version_6.1.2\lvgl\src\lv_objx/lv_table.c **** 
 577              		.loc 1 692 0
 578 00da 80F25181 		bge	.L57
 694:..\..\..\lvgl\version_6.1.2\lvgl\src\lv_objx/lv_table.c ****                         format.format_byte = ext->cell_data[cell + col_merge][0];
 579              		.loc 1 694 0
 580 00de DAF804C0 		ldr	ip, [r10, #4]
 581 00e2 5CF80730 		ldr	r3, [ip, r7]
 582 00e6 002B     		cmp	r3, #0
 583 00e8 00F04A81 		beq	.L57
 695:..\..\..\lvgl\version_6.1.2\lvgl\src\lv_objx/lv_table.c ****                         if(format.s.right_merge)
 584              		.loc 1 695 0
 585 00ec 1878     		ldrb	r0, [r3]	@ zero_extendqisi2
 696:..\..\..\lvgl\version_6.1.2\lvgl\src\lv_objx/lv_table.c ****                             cell_area.x2 += ext->col_w[col + col_merge + 1];
 586              		.loc 1 696 0
 587 00ee 4307     		lsls	r3, r0, #29
 695:..\..\..\lvgl\version_6.1.2\lvgl\src\lv_objx/lv_table.c ****                         if(format.s.right_merge)
 588              		.loc 1 695 0
 589 00f0 8046     		mov	r8, r0
 696:..\..\..\lvgl\version_6.1.2\lvgl\src\lv_objx/lv_table.c ****                             cell_area.x2 += ext->col_w[col + col_merge + 1];
 590              		.loc 1 696 0
 591 00f2 40F14581 		bpl	.L57
 592 00f6 4FF0000E 		mov	lr, #0
 593 00fa 7446     		mov	r4, lr
 594 00fc 4946     		mov	r1, r9
 595 00fe 09E0     		b	.L58
 596              	.LVL78:
 597              	.L61:
 694:..\..\..\lvgl\version_6.1.2\lvgl\src\lv_objx/lv_table.c ****                         format.format_byte = ext->cell_data[cell + col_merge][0];
 598              		.loc 1 694 0
 599 0100 5CF82550 		ldr	r5, [ip, r5, lsl #2]
 600 0104 ADB1     		cbz	r5, .L110
 695:..\..\..\lvgl\version_6.1.2\lvgl\src\lv_objx/lv_table.c ****                         if(format.s.right_merge)
 601              		.loc 1 695 0
 602 0106 2878     		ldrb	r0, [r5]	@ zero_extendqisi2
ARM GAS  C:\Users\pearlstl\AppData\Local\Temp\ccIJtgHD.s 			page 29


 696:..\..\..\lvgl\version_6.1.2\lvgl\src\lv_objx/lv_table.c ****                             cell_area.x2 += ext->col_w[col + col_merge + 1];
 603              		.loc 1 696 0
 604 0108 4507     		lsls	r5, r0, #29
 605 010a 4FF0010E 		mov	lr, #1
 606 010e 40F11381 		bpl	.L113
 692:..\..\..\lvgl\version_6.1.2\lvgl\src\lv_objx/lv_table.c **** 
 607              		.loc 1 692 0
 608 0112 1C46     		mov	r4, r3
 609              	.LVL79:
 610              	.L58:
 697:..\..\..\lvgl\version_6.1.2\lvgl\src\lv_objx/lv_table.c ****                         else
 611              		.loc 1 697 0
 612 0114 0D31     		adds	r1, r1, #13
 692:..\..\..\lvgl\version_6.1.2\lvgl\src\lv_objx/lv_table.c **** 
 613              		.loc 1 692 0
 614 0116 631C     		adds	r3, r4, #1
 697:..\..\..\lvgl\version_6.1.2\lvgl\src\lv_objx/lv_table.c ****                         else
 615              		.loc 1 697 0
 616 0118 3AF81110 		ldrh	r1, [r10, r1, lsl #1]
 692:..\..\..\lvgl\version_6.1.2\lvgl\src\lv_objx/lv_table.c **** 
 617              		.loc 1 692 0
 618 011c 9BB2     		uxth	r3, r3
 619              	.LVL80:
 697:..\..\..\lvgl\version_6.1.2\lvgl\src\lv_objx/lv_table.c ****                         else
 620              		.loc 1 697 0
 621 011e 0A44     		add	r2, r2, r1
 692:..\..\..\lvgl\version_6.1.2\lvgl\src\lv_objx/lv_table.c **** 
 622              		.loc 1 692 0
 623 0120 09EB0301 		add	r1, r9, r3
 697:..\..\..\lvgl\version_6.1.2\lvgl\src\lv_objx/lv_table.c ****                         else
 624              		.loc 1 697 0
 625 0124 12B2     		sxth	r2, r2
 692:..\..\..\lvgl\version_6.1.2\lvgl\src\lv_objx/lv_table.c **** 
 626              		.loc 1 692 0
 627 0126 B142     		cmp	r1, r6
 694:..\..\..\lvgl\version_6.1.2\lvgl\src\lv_objx/lv_table.c ****                         format.format_byte = ext->cell_data[cell + col_merge][0];
 628              		.loc 1 694 0
 629 0128 03EB0B05 		add	r5, r3, fp
 697:..\..\..\lvgl\version_6.1.2\lvgl\src\lv_objx/lv_table.c ****                         else
 630              		.loc 1 697 0
 631 012c ADF85420 		strh	r2, [sp, #84]	@ movhi
 692:..\..\..\lvgl\version_6.1.2\lvgl\src\lv_objx/lv_table.c **** 
 632              		.loc 1 692 0
 633 0130 E6DB     		blt	.L61
 634              	.L110:
 635 0132 BEF1000F 		cmp	lr, #0
 636 0136 40F02881 		bne	.L114
 637              	.L62:
 638 013a 0234     		adds	r4, r4, #2
 639 013c A3B2     		uxth	r3, r4
 640              	.LVL81:
 641 013e 0B93     		str	r3, [sp, #44]
 642              	.LVL82:
 643              	.L56:
 705:..\..\..\lvgl\version_6.1.2\lvgl\src\lv_objx/lv_table.c **** 
 644              		.loc 1 705 0
 645 0140 0899     		ldr	r1, [sp, #32]
ARM GAS  C:\Users\pearlstl\AppData\Local\Temp\ccIJtgHD.s 			page 30


 646 0142 099B     		ldr	r3, [sp, #36]
 647 0144 14A8     		add	r0, sp, #80
 648 0146 1AAA     		add	r2, sp, #104
 649 0148 FFF7FEFF 		bl	lv_draw_rect
 650              	.LVL83:
 707:..\..\..\lvgl\version_6.1.2\lvgl\src\lv_objx/lv_table.c **** 
 651              		.loc 1 707 0
 652 014c DAF80400 		ldr	r0, [r10, #4]
 653 0150 C159     		ldr	r1, [r0, r7]
 654 0152 0029     		cmp	r1, #0
 655 0154 00F0B580 		beq	.L63
 656              	.LBB63:
 709:..\..\..\lvgl\version_6.1.2\lvgl\src\lv_objx/lv_table.c ****                     txt_area.x2 = cell_area.x2 - cell_style.body.padding.right;
 657              		.loc 1 709 0
 658 0158 BDF85050 		ldrh	r5, [sp, #80]
 710:..\..\..\lvgl\version_6.1.2\lvgl\src\lv_objx/lv_table.c ****                     txt_area.y1 = cell_area.y1 + cell_style.body.padding.top;
 659              		.loc 1 710 0
 660 015c BDF85400 		ldrh	r0, [sp, #84]
 709:..\..\..\lvgl\version_6.1.2\lvgl\src\lv_objx/lv_table.c ****                     txt_area.x2 = cell_area.x2 - cell_style.body.padding.right;
 661              		.loc 1 709 0
 662 0160 BDF88C20 		ldrh	r2, [sp, #140]
 710:..\..\..\lvgl\version_6.1.2\lvgl\src\lv_objx/lv_table.c ****                     txt_area.y1 = cell_area.y1 + cell_style.body.padding.top;
 663              		.loc 1 710 0
 664 0164 BDF88E30 		ldrh	r3, [sp, #142]
 711:..\..\..\lvgl\version_6.1.2\lvgl\src\lv_objx/lv_table.c ****                     txt_area.y2 = cell_area.y2 - cell_style.body.padding.bottom;
 665              		.loc 1 711 0
 666 0168 BDF85260 		ldrh	r6, [sp, #82]
 667 016c BDF88840 		ldrh	r4, [sp, #136]
 709:..\..\..\lvgl\version_6.1.2\lvgl\src\lv_objx/lv_table.c ****                     txt_area.x2 = cell_area.x2 - cell_style.body.padding.right;
 668              		.loc 1 709 0
 669 0170 2A44     		add	r2, r2, r5
 710:..\..\..\lvgl\version_6.1.2\lvgl\src\lv_objx/lv_table.c ****                     txt_area.y1 = cell_area.y1 + cell_style.body.padding.top;
 670              		.loc 1 710 0
 671 0172 C31A     		subs	r3, r0, r3
 712:..\..\..\lvgl\version_6.1.2\lvgl\src\lv_objx/lv_table.c ****                     /*Align the content to the middle if not cropped*/
 672              		.loc 1 712 0
 673 0174 BDF88A50 		ldrh	r5, [sp, #138]
 674 0178 BDF85600 		ldrh	r0, [sp, #86]
 711:..\..\..\lvgl\version_6.1.2\lvgl\src\lv_objx/lv_table.c ****                     txt_area.y2 = cell_area.y2 - cell_style.body.padding.bottom;
 675              		.loc 1 711 0
 676 017c 3444     		add	r4, r4, r6
 712:..\..\..\lvgl\version_6.1.2\lvgl\src\lv_objx/lv_table.c ****                     /*Align the content to the middle if not cropped*/
 677              		.loc 1 712 0
 678 017e 451B     		subs	r5, r0, r5
 709:..\..\..\lvgl\version_6.1.2\lvgl\src\lv_objx/lv_table.c ****                     txt_area.x2 = cell_area.x2 - cell_style.body.padding.right;
 679              		.loc 1 709 0
 680 0180 92B2     		uxth	r2, r2
 710:..\..\..\lvgl\version_6.1.2\lvgl\src\lv_objx/lv_table.c ****                     txt_area.y1 = cell_area.y1 + cell_style.body.padding.top;
 681              		.loc 1 710 0
 682 0182 9BB2     		uxth	r3, r3
 683              	.LVL84:
 714:..\..\..\lvgl\version_6.1.2\lvgl\src\lv_objx/lv_table.c ****                         txt_flags = LV_TXT_FLAG_NONE;
 684              		.loc 1 714 0
 685 0184 08F02000 		and	r0, r8, #32
 711:..\..\..\lvgl\version_6.1.2\lvgl\src\lv_objx/lv_table.c ****                     txt_area.y2 = cell_area.y2 - cell_style.body.padding.bottom;
 686              		.loc 1 711 0
 687 0188 ADF85A40 		strh	r4, [sp, #90]	@ movhi
ARM GAS  C:\Users\pearlstl\AppData\Local\Temp\ccIJtgHD.s 			page 31


 709:..\..\..\lvgl\version_6.1.2\lvgl\src\lv_objx/lv_table.c ****                     txt_area.x2 = cell_area.x2 - cell_style.body.padding.right;
 688              		.loc 1 709 0
 689 018c ADF85820 		strh	r2, [sp, #88]	@ movhi
 710:..\..\..\lvgl\version_6.1.2\lvgl\src\lv_objx/lv_table.c ****                     txt_area.y1 = cell_area.y1 + cell_style.body.padding.top;
 690              		.loc 1 710 0
 691 0190 ADF85C30 		strh	r3, [sp, #92]	@ movhi
 712:..\..\..\lvgl\version_6.1.2\lvgl\src\lv_objx/lv_table.c ****                     /*Align the content to the middle if not cropped*/
 692              		.loc 1 712 0
 693 0194 ADF85E50 		strh	r5, [sp, #94]	@ movhi
 714:..\..\..\lvgl\version_6.1.2\lvgl\src\lv_objx/lv_table.c ****                         txt_flags = LV_TXT_FLAG_NONE;
 694              		.loc 1 714 0
 695 0198 00F0FF04 		and	r4, r0, #255
 696 019c 0028     		cmp	r0, #0
 697 019e 40F0AA80 		bne	.L115
 698              	.LVL85:
 720:..\..\..\lvgl\version_6.1.2\lvgl\src\lv_objx/lv_table.c ****                                     cell_style.text.letter_space, cell_style.text.line_space,
 699              		.loc 1 720 0
 700 01a2 581C     		adds	r0, r3, #1
 701 01a4 801A     		subs	r0, r0, r2
 702 01a6 BDF9A250 		ldrsh	r5, [sp, #162]
 703 01aa BDF9A030 		ldrsh	r3, [sp, #160]
 704 01ae 279A     		ldr	r2, [sp, #156]
 705 01b0 0294     		str	r4, [sp, #8]
 706 01b2 00B2     		sxth	r0, r0
 707 01b4 11AE     		add	r6, sp, #68
 708 01b6 0190     		str	r0, [sp, #4]
 709 01b8 0131     		adds	r1, r1, #1
 710 01ba 3046     		mov	r0, r6
 711 01bc 0095     		str	r5, [sp]
 712 01be 0A96     		str	r6, [sp, #40]
 713 01c0 FFF7FEFF 		bl	lv_txt_get_size
 714              	.LVL86:
 726:..\..\..\lvgl\version_6.1.2\lvgl\src\lv_objx/lv_table.c ****                         txt_area.y2 = cell_area.y1 + h_row / 2 + txt_size.y / 2;
 715              		.loc 1 726 0
 716 01c4 0C9B     		ldr	r3, [sp, #48]
 717 01c6 BDF85220 		ldrh	r2, [sp, #82]
 718 01ca BDF94610 		ldrsh	r1, [sp, #70]
 719 01ce 1A44     		add	r2, r2, r3
 720 01d0 93B2     		uxth	r3, r2
 721 01d2 01EBD172 		add	r2, r1, r1, lsr #31
 722 01d6 A3EB6201 		sub	r1, r3, r2, asr #1
 727:..\..\..\lvgl\version_6.1.2\lvgl\src\lv_objx/lv_table.c ****                     }
 723              		.loc 1 727 0
 724 01da 03EB6203 		add	r3, r3, r2, asr #1
 725 01de ADF85E30 		strh	r3, [sp, #94]	@ movhi
 726 01e2 0823     		movs	r3, #8
 727 01e4 0793     		str	r3, [sp, #28]
 730:..\..\..\lvgl\version_6.1.2\lvgl\src\lv_objx/lv_table.c ****                         default:
 728              		.loc 1 730 0
 729 01e6 08F00303 		and	r3, r8, #3
 730 01ea 012B     		cmp	r3, #1
 726:..\..\..\lvgl\version_6.1.2\lvgl\src\lv_objx/lv_table.c ****                         txt_area.y2 = cell_area.y1 + h_row / 2 + txt_size.y / 2;
 731              		.loc 1 726 0
 732 01ec ADF85A10 		strh	r1, [sp, #90]	@ movhi
 727:..\..\..\lvgl\version_6.1.2\lvgl\src\lv_objx/lv_table.c ****                     }
 733              		.loc 1 727 0
 734 01f0 4FF00402 		mov	r2, #4
ARM GAS  C:\Users\pearlstl\AppData\Local\Temp\ccIJtgHD.s 			page 32


 730:..\..\..\lvgl\version_6.1.2\lvgl\src\lv_objx/lv_table.c ****                         default:
 735              		.loc 1 730 0
 736 01f4 00F09B80 		beq	.L67
 737              	.LVL87:
 738              	.L117:
 739 01f8 079A     		ldr	r2, [sp, #28]
 740 01fa 022B     		cmp	r3, #2
 741 01fc 18BF     		it	ne
 742 01fe 2246     		movne	r2, r4
 743 0200 0792     		str	r2, [sp, #28]
 744              	.L68:
 745              	.LVL88:
 739:..\..\..\lvgl\version_6.1.2\lvgl\src\lv_objx/lv_table.c ****                     if(label_mask_ok) {
 746              		.loc 1 739 0
 747 0202 18A8     		add	r0, sp, #96
 748 0204 14AA     		add	r2, sp, #80
 749 0206 0899     		ldr	r1, [sp, #32]
 750 0208 FFF7FEFF 		bl	lv_area_intersect
 751              	.LVL89:
 740:..\..\..\lvgl\version_6.1.2\lvgl\src\lv_objx/lv_table.c ****                         lv_draw_label(&txt_area, &label_mask, &cell_style, opa_scale, ext->cell_dat
 752              		.loc 1 740 0
 753 020c 0028     		cmp	r0, #0
 754 020e 40F09880 		bne	.L116
 755              	.LVL90:
 756              	.L69:
 750:..\..\..\lvgl\version_6.1.2\lvgl\src\lv_objx/lv_table.c ****                         if(ext->cell_data[cell][i] == '\n') {
 757              		.loc 1 750 0
 758 0212 DAF80400 		ldr	r0, [r10, #4]
 748:..\..\..\lvgl\version_6.1.2\lvgl\src\lv_objx/lv_table.c ****                     uint16_t i;
 759              		.loc 1 748 0
 760 0216 BDF85420 		ldrh	r2, [sp, #84]
 750:..\..\..\lvgl\version_6.1.2\lvgl\src\lv_objx/lv_table.c ****                         if(ext->cell_data[cell][i] == '\n') {
 761              		.loc 1 750 0
 762 021a C359     		ldr	r3, [r0, r7]
 747:..\..\..\lvgl\version_6.1.2\lvgl\src\lv_objx/lv_table.c ****                     p2.x = cell_area.x2;
 763              		.loc 1 747 0
 764 021c BDF85010 		ldrh	r1, [sp, #80]
 748:..\..\..\lvgl\version_6.1.2\lvgl\src\lv_objx/lv_table.c ****                     uint16_t i;
 765              		.loc 1 748 0
 766 0220 ADF84C20 		strh	r2, [sp, #76]	@ movhi
 767              	.LVL91:
 747:..\..\..\lvgl\version_6.1.2\lvgl\src\lv_objx/lv_table.c ****                     p2.x = cell_area.x2;
 768              		.loc 1 747 0
 769 0224 ADF84810 		strh	r1, [sp, #72]	@ movhi
 750:..\..\..\lvgl\version_6.1.2\lvgl\src\lv_objx/lv_table.c ****                         if(ext->cell_data[cell][i] == '\n') {
 770              		.loc 1 750 0
 771 0228 5D78     		ldrb	r5, [r3, #1]	@ zero_extendqisi2
 772 022a 5A1C     		adds	r2, r3, #1
 773 022c 002D     		cmp	r5, #0
 774 022e 48D0     		beq	.L63
 775 0230 0124     		movs	r4, #1
 776 0232 2646     		mov	r6, r4
 777 0234 06E0     		b	.L72
 778              	.LVL92:
 779              	.L71:
 780 0236 0134     		adds	r4, r4, #1
 781              	.LVL93:
ARM GAS  C:\Users\pearlstl\AppData\Local\Temp\ccIJtgHD.s 			page 33


 782 0238 A4B2     		uxth	r4, r4
 783              	.LVL94:
 784 023a 2646     		mov	r6, r4
 785 023c 1D5D     		ldrb	r5, [r3, r4]	@ zero_extendqisi2
 786 023e 1A19     		adds	r2, r3, r4
 787 0240 002D     		cmp	r5, #0
 788 0242 3ED0     		beq	.L63
 789              	.LVL95:
 790              	.L72:
 751:..\..\..\lvgl\version_6.1.2\lvgl\src\lv_objx/lv_table.c ****                             ext->cell_data[cell][i] = '\0';
 791              		.loc 1 751 0
 792 0244 0A2D     		cmp	r5, #10
 793 0246 F6D1     		bne	.L71
 752:..\..\..\lvgl\version_6.1.2\lvgl\src\lv_objx/lv_table.c ****                             lv_txt_get_size(&txt_size, ext->cell_data[cell] + 1, cell_style.text.fo
 794              		.loc 1 752 0
 795 0248 4FF00003 		mov	r3, #0
 796 024c 1370     		strb	r3, [r2]
 797              	.LVL96:
 753:..\..\..\lvgl\version_6.1.2\lvgl\src\lv_objx/lv_table.c ****                                             cell_style.text.letter_space, cell_style.text.line_spac
 798              		.loc 1 753 0
 799 024e BDF85C20 		ldrh	r2, [sp, #92]
 800 0252 DAF80410 		ldr	r1, [r10, #4]
 801 0256 BDF85800 		ldrh	r0, [sp, #88]
 802 025a C959     		ldr	r1, [r1, r7]
 803 025c BDF9A0C0 		ldrsh	ip, [sp, #160]
 804 0260 079B     		ldr	r3, [sp, #28]
 805 0262 BDF9A2E0 		ldrsh	lr, [sp, #162]
 806 0266 0293     		str	r3, [sp, #8]
 807 0268 0132     		adds	r2, r2, #1
 808 026a 101A     		subs	r0, r2, r0
 809 026c 00B2     		sxth	r0, r0
 810 026e 6346     		mov	r3, ip
 811 0270 279A     		ldr	r2, [sp, #156]
 812 0272 CDF800E0 		str	lr, [sp]
 813 0276 0190     		str	r0, [sp, #4]
 814 0278 0131     		adds	r1, r1, #1
 815 027a 0A98     		ldr	r0, [sp, #40]
 816 027c FFF7FEFF 		bl	lv_txt_get_size
 817              	.LVL97:
 757:..\..\..\lvgl\version_6.1.2\lvgl\src\lv_objx/lv_table.c ****                             p2.y = txt_area.y1 + txt_size.y + cell_style.text.line_space / 2;
 818              		.loc 1 757 0
 819 0280 BDF85AE0 		ldrh	lr, [sp, #90]
 820 0284 BDF9A220 		ldrsh	r2, [sp, #162]
 821 0288 BDF84630 		ldrh	r3, [sp, #70]
 759:..\..\..\lvgl\version_6.1.2\lvgl\src\lv_objx/lv_table.c **** 
 822              		.loc 1 759 0
 823 028c 0999     		ldr	r1, [sp, #36]
 824 028e 0091     		str	r1, [sp]
 757:..\..\..\lvgl\version_6.1.2\lvgl\src\lv_objx/lv_table.c ****                             p2.y = txt_area.y1 + txt_size.y + cell_style.text.line_space / 2;
 825              		.loc 1 757 0
 826 0290 7344     		add	r3, r3, lr
 827 0292 02EBD27E 		add	lr, r2, r2, lsr #31
 828 0296 03EB6E0E 		add	lr, r3, lr, asr #1
 829 029a 0FFA8EFE 		sxth	lr, lr
 759:..\..\..\lvgl\version_6.1.2\lvgl\src\lv_objx/lv_table.c **** 
 830              		.loc 1 759 0
 831 029e 1AAB     		add	r3, sp, #104
ARM GAS  C:\Users\pearlstl\AppData\Local\Temp\ccIJtgHD.s 			page 34


 832 02a0 12A8     		add	r0, sp, #72
 833 02a2 089A     		ldr	r2, [sp, #32]
 757:..\..\..\lvgl\version_6.1.2\lvgl\src\lv_objx/lv_table.c ****                             p2.y = txt_area.y1 + txt_size.y + cell_style.text.line_space / 2;
 834              		.loc 1 757 0
 835 02a4 ADF84AE0 		strh	lr, [sp, #74]	@ movhi
 759:..\..\..\lvgl\version_6.1.2\lvgl\src\lv_objx/lv_table.c **** 
 836              		.loc 1 759 0
 837 02a8 13A9     		add	r1, sp, #76
 758:..\..\..\lvgl\version_6.1.2\lvgl\src\lv_objx/lv_table.c ****                             lv_draw_line(&p1, &p2, mask, &cell_style, opa_scale);
 838              		.loc 1 758 0
 839 02aa ADF84EE0 		strh	lr, [sp, #78]	@ movhi
 759:..\..\..\lvgl\version_6.1.2\lvgl\src\lv_objx/lv_table.c **** 
 840              		.loc 1 759 0
 841 02ae FFF7FEFF 		bl	lv_draw_line
 842              	.LVL98:
 761:..\..\..\lvgl\version_6.1.2\lvgl\src\lv_objx/lv_table.c ****                         }
 843              		.loc 1 761 0
 844 02b2 DAF80430 		ldr	r3, [r10, #4]
 845 02b6 DB59     		ldr	r3, [r3, r7]
 846 02b8 9D55     		strb	r5, [r3, r6]
 847 02ba DAF80400 		ldr	r0, [r10, #4]
 848 02be C359     		ldr	r3, [r0, r7]
 849 02c0 B9E7     		b	.L71
 850              	.LVL99:
 851              	.L63:
 852              	.LBE63:
 853              	.LBE61:
 673:..\..\..\lvgl\version_6.1.2\lvgl\src\lv_objx/lv_table.c **** 
 854              		.loc 1 673 0
 855 02c2 0B9A     		ldr	r2, [sp, #44]
 856 02c4 BAF80030 		ldrh	r3, [r10]
 857 02c8 9144     		add	r9, r9, r2
 858              	.LVL100:
 859 02ca 1FFA89F9 		uxth	r9, r9
 860              	.LBB65:
 766:..\..\..\lvgl\version_6.1.2\lvgl\src\lv_objx/lv_table.c ****                 col += col_merge;
 861              		.loc 1 766 0
 862 02ce 9344     		add	fp, fp, r2
 863              	.LVL101:
 864              	.LBE65:
 673:..\..\..\lvgl\version_6.1.2\lvgl\src\lv_objx/lv_table.c **** 
 865              		.loc 1 673 0
 866 02d0 4B45     		cmp	r3, r9
 867              	.LBB66:
 766:..\..\..\lvgl\version_6.1.2\lvgl\src\lv_objx/lv_table.c ****                 col += col_merge;
 868              		.loc 1 766 0
 869 02d2 1FFA8BFB 		uxth	fp, fp
 870              	.LVL102:
 871              	.LBE66:
 673:..\..\..\lvgl\version_6.1.2\lvgl\src\lv_objx/lv_table.c **** 
 872              		.loc 1 673 0
 873 02d6 3FF6DEAE 		bhi	.L74
 874 02da 4746     		mov	r7, r8
 875              	.LVL103:
 876              	.L52:
 665:..\..\..\lvgl\version_6.1.2\lvgl\src\lv_objx/lv_table.c ****             h_row = get_row_height(table, row);
 877              		.loc 1 665 0
ARM GAS  C:\Users\pearlstl\AppData\Local\Temp\ccIJtgHD.s 			page 35


 878 02dc 0E9A     		ldr	r2, [sp, #56]
 879 02de BAF80230 		ldrh	r3, [r10, #2]
 880 02e2 0132     		adds	r2, r2, #1
 881 02e4 92B2     		uxth	r2, r2
 882 02e6 9342     		cmp	r3, r2
 883 02e8 0E92     		str	r2, [sp, #56]
 884              	.LVL104:
 885 02ea 3FF6B2AE 		bhi	.L75
 886              	.LVL105:
 887              	.L76:
 888 02ee 0120     		movs	r0, #1
 889              	.LBE68:
 890              	.LBE70:
 776:..\..\..\lvgl\version_6.1.2\lvgl\src\lv_objx/lv_table.c **** 
 891              		.loc 1 776 0
 892 02f0 2FB0     		add	sp, sp, #188
 893              		.cfi_remember_state
 894              		.cfi_def_cfa_offset 36
 895              		@ sp needed
 896 02f2 BDE8F08F 		pop	{r4, r5, r6, r7, r8, r9, r10, fp, pc}
 897              	.LVL106:
 898              	.L115:
 899              		.cfi_restore_state
 900              	.LBB71:
 901              	.LBB69:
 902              	.LBB67:
 903              	.LBB64:
 720:..\..\..\lvgl\version_6.1.2\lvgl\src\lv_objx/lv_table.c ****                                     cell_style.text.letter_space, cell_style.text.line_space,
 904              		.loc 1 720 0
 905 02f6 BDF9A240 		ldrsh	r4, [sp, #162]
 906 02fa 0094     		str	r4, [sp]
 907 02fc 581C     		adds	r0, r3, #1
 908 02fe 11AC     		add	r4, sp, #68
 909 0300 801A     		subs	r0, r0, r2
 910 0302 00B2     		sxth	r0, r0
 911 0304 2546     		mov	r5, r4
 912 0306 0A94     		str	r4, [sp, #40]
 913 0308 0224     		movs	r4, #2
 914 030a BDF9A030 		ldrsh	r3, [sp, #160]
 915 030e 279A     		ldr	r2, [sp, #156]
 916 0310 0190     		str	r0, [sp, #4]
 917 0312 0131     		adds	r1, r1, #1
 918 0314 2846     		mov	r0, r5
 919 0316 0294     		str	r4, [sp, #8]
 920 0318 FFF7FEFF 		bl	lv_txt_get_size
 921              	.LVL107:
 922 031c 0A23     		movs	r3, #10
 923 031e 0793     		str	r3, [sp, #28]
 730:..\..\..\lvgl\version_6.1.2\lvgl\src\lv_objx/lv_table.c ****                         default:
 924              		.loc 1 730 0
 925 0320 08F00303 		and	r3, r8, #3
 926 0324 012B     		cmp	r3, #1
 720:..\..\..\lvgl\version_6.1.2\lvgl\src\lv_objx/lv_table.c ****                                     cell_style.text.letter_space, cell_style.text.line_space,
 927              		.loc 1 720 0
 928 0326 4FF00602 		mov	r2, #6
 730:..\..\..\lvgl\version_6.1.2\lvgl\src\lv_objx/lv_table.c ****                         default:
 929              		.loc 1 730 0
ARM GAS  C:\Users\pearlstl\AppData\Local\Temp\ccIJtgHD.s 			page 36


 930 032a 7FF465AF 		bne	.L117
 931              	.LVL108:
 932              	.L67:
 734:..\..\..\lvgl\version_6.1.2\lvgl\src\lv_objx/lv_table.c ****                     }
 933              		.loc 1 734 0
 934 032e 0792     		str	r2, [sp, #28]
 935 0330 67E7     		b	.L68
 936              	.L119:
 937 0332 00BF     		.align	2
 938              	.L118:
 939 0334 00000000 		.word	.LANCHOR0
 940              	.LVL109:
 941              	.L113:
 942 0338 0234     		adds	r4, r4, #2
 943 033a A3B2     		uxth	r3, r4
 944              	.LVL110:
 945 033c 0B93     		str	r3, [sp, #44]
 946 033e 8046     		mov	r8, r0
 947 0340 FEE6     		b	.L56
 948              	.LVL111:
 949              	.L116:
 741:..\..\..\lvgl\version_6.1.2\lvgl\src\lv_objx/lv_table.c ****                                       txt_flags, NULL, NULL, NULL, lv_obj_get_base_dir(table));
 950              		.loc 1 741 0
 951 0342 DAF80430 		ldr	r3, [r10, #4]
 952 0346 0D98     		ldr	r0, [sp, #52]
 953              	.LVL112:
 954 0348 DC59     		ldr	r4, [r3, r7]
 955 034a FFF7FEFF 		bl	lv_obj_get_base_dir
 956              	.LVL113:
 957 034e 0023     		movs	r3, #0
 958 0350 0134     		adds	r4, r4, #1
 959 0352 0493     		str	r3, [sp, #16]
 960 0354 0393     		str	r3, [sp, #12]
 961 0356 0293     		str	r3, [sp, #8]
 962 0358 079B     		ldr	r3, [sp, #28]
 963 035a 0590     		str	r0, [sp, #20]
 964 035c 0193     		str	r3, [sp, #4]
 965 035e 0094     		str	r4, [sp]
 966 0360 18A9     		add	r1, sp, #96
 967 0362 099B     		ldr	r3, [sp, #36]
 968 0364 1AAA     		add	r2, sp, #104
 969 0366 16A8     		add	r0, sp, #88
 970              	.LVL114:
 971 0368 FFF7FEFF 		bl	lv_draw_label
 972              	.LVL115:
 973 036c 51E7     		b	.L69
 974              	.LVL116:
 975              	.L53:
 976              	.LBE64:
 679:..\..\..\lvgl\version_6.1.2\lvgl\src\lv_objx/lv_table.c ****                     format.s.align       = LV_LABEL_ALIGN_LEFT;
 977              		.loc 1 679 0
 978 036e 63F38208 		bfi	r8, r3, #2, #1
 680:..\..\..\lvgl\version_6.1.2\lvgl\src\lv_objx/lv_table.c ****                     format.s.type        = 0;
 979              		.loc 1 680 0
 980 0372 63F30108 		bfi	r8, r3, #0, #2
 681:..\..\..\lvgl\version_6.1.2\lvgl\src\lv_objx/lv_table.c ****                     format.s.crop        = 1;
 981              		.loc 1 681 0
ARM GAS  C:\Users\pearlstl\AppData\Local\Temp\ccIJtgHD.s 			page 37


 982 0376 63F3C408 		bfi	r8, r3, #3, #2
 682:..\..\..\lvgl\version_6.1.2\lvgl\src\lv_objx/lv_table.c ****                 }
 983              		.loc 1 682 0
 984 037a 48F02008 		orr	r8, r8, #32
 985              	.LVL117:
 986 037e 95E6     		b	.L54
 987              	.LVL118:
 988              	.L57:
 692:..\..\..\lvgl\version_6.1.2\lvgl\src\lv_objx/lv_table.c **** 
 989              		.loc 1 692 0
 990 0380 0123     		movs	r3, #1
 991 0382 0B93     		str	r3, [sp, #44]
 992 0384 DCE6     		b	.L56
 993              	.LVL119:
 994              	.L78:
 995              		.cfi_def_cfa_offset 0
 996              		.cfi_restore 4
 997              		.cfi_restore 5
 998              		.cfi_restore 6
 999              		.cfi_restore 7
 1000              		.cfi_restore 8
 1001              		.cfi_restore 9
 1002              		.cfi_restore 10
 1003              		.cfi_restore 11
 1004              		.cfi_restore 14
 1005              	.LBE67:
 1006              	.LBE69:
 1007              	.LBE71:
 645:..\..\..\lvgl\version_6.1.2\lvgl\src\lv_objx/lv_table.c ****     }
 1008              		.loc 1 645 0
 1009 0386 0020     		movs	r0, #0
 1010              	.LVL120:
 776:..\..\..\lvgl\version_6.1.2\lvgl\src\lv_objx/lv_table.c **** 
 1011              		.loc 1 776 0
 1012 0388 7047     		bx	lr
 1013              	.LVL121:
 1014              	.L114:
 1015              		.cfi_def_cfa_offset 224
 1016              		.cfi_offset 4, -36
 1017              		.cfi_offset 5, -32
 1018              		.cfi_offset 6, -28
 1019              		.cfi_offset 7, -24
 1020              		.cfi_offset 8, -20
 1021              		.cfi_offset 9, -16
 1022              		.cfi_offset 10, -12
 1023              		.cfi_offset 11, -8
 1024              		.cfi_offset 14, -4
 1025 038a 8046     		mov	r8, r0
 1026 038c D5E6     		b	.L62
 1027              		.cfi_endproc
 1028              	.LFE52:
 1029              		.size	lv_table_design, .-lv_table_design
 1030 038e 00BF     		.section	.text.lv_table_create,"ax",%progbits
 1031              		.align	2
 1032              		.global	lv_table_create
 1033              		.thumb
 1034              		.thumb_func
ARM GAS  C:\Users\pearlstl\AppData\Local\Temp\ccIJtgHD.s 			page 38


 1035              		.type	lv_table_create, %function
 1036              	lv_table_create:
 1037              	.LFB33:
  56:..\..\..\lvgl\version_6.1.2\lvgl\src\lv_objx/lv_table.c ****     LV_LOG_TRACE("table create started");
 1038              		.loc 1 56 0
 1039              		.cfi_startproc
 1040              		@ args = 0, pretend = 0, frame = 0
 1041              		@ frame_needed = 0, uses_anonymous_args = 0
 1042              	.LVL122:
 1043 0000 2DE9F047 		push	{r4, r5, r6, r7, r8, r9, r10, lr}
 1044              		.cfi_def_cfa_offset 32
 1045              		.cfi_offset 4, -32
 1046              		.cfi_offset 5, -28
 1047              		.cfi_offset 6, -24
 1048              		.cfi_offset 7, -20
 1049              		.cfi_offset 8, -16
 1050              		.cfi_offset 9, -12
 1051              		.cfi_offset 10, -8
 1052              		.cfi_offset 14, -4
  56:..\..\..\lvgl\version_6.1.2\lvgl\src\lv_objx/lv_table.c ****     LV_LOG_TRACE("table create started");
 1053              		.loc 1 56 0
 1054 0004 0E46     		mov	r6, r1
  60:..\..\..\lvgl\version_6.1.2\lvgl\src\lv_objx/lv_table.c ****     LV_ASSERT_MEM(new_table);
 1055              		.loc 1 60 0
 1056 0006 FFF7FEFF 		bl	lv_obj_create
 1057              	.LVL123:
  62:..\..\..\lvgl\version_6.1.2\lvgl\src\lv_objx/lv_table.c **** 
 1058              		.loc 1 62 0
 1059 000a 0028     		cmp	r0, #0
 1060 000c 00F09C82 		beq	.L123
  65:..\..\..\lvgl\version_6.1.2\lvgl\src\lv_objx/lv_table.c ****     LV_ASSERT_MEM(ext);
 1061              		.loc 1 65 0
 1062 0010 3021     		movs	r1, #48
 1063 0012 0746     		mov	r7, r0
 1064 0014 FFF7FEFF 		bl	lv_obj_allocate_ext_attr
 1065              	.LVL124:
  67:..\..\..\lvgl\version_6.1.2\lvgl\src\lv_objx/lv_table.c ****     if(ancestor_signal == NULL) ancestor_signal = lv_obj_get_signal_cb(new_table);
 1066              		.loc 1 67 0
 1067 0018 0446     		mov	r4, r0
 1068 001a 0028     		cmp	r0, #0
 1069 001c 00F09482 		beq	.L123
  68:..\..\..\lvgl\version_6.1.2\lvgl\src\lv_objx/lv_table.c ****     if(ancestor_scrl_design == NULL) ancestor_scrl_design = lv_obj_get_design_cb(new_table);
 1070              		.loc 1 68 0
 1071 0020 814D     		ldr	r5, .L221
 1072 0022 2B68     		ldr	r3, [r5]
 1073 0024 002B     		cmp	r3, #0
 1074 0026 00F09282 		beq	.L215
 1075              	.LVL125:
 1076              	.L124:
  69:..\..\..\lvgl\version_6.1.2\lvgl\src\lv_objx/lv_table.c **** 
 1077              		.loc 1 69 0
 1078 002a 6B68     		ldr	r3, [r5, #4]
 1079 002c 7E4D     		ldr	r5, .L221
 1080 002e 002B     		cmp	r3, #0
 1081 0030 00F09282 		beq	.L216
 1082              	.L125:
  82:..\..\..\lvgl\version_6.1.2\lvgl\src\lv_objx/lv_table.c ****     }
ARM GAS  C:\Users\pearlstl\AppData\Local\Temp\ccIJtgHD.s 			page 39


 1083              		.loc 1 82 0
 1084 0034 4FF09613 		mov	r3, #9830550
  73:..\..\..\lvgl\version_6.1.2\lvgl\src\lv_objx/lv_table.c ****     ext->cell_style[1] = &lv_style_plain;
 1085              		.loc 1 73 0
 1086 0038 7C4A     		ldr	r2, .L221+4
  86:..\..\..\lvgl\version_6.1.2\lvgl\src\lv_objx/lv_table.c ****     lv_obj_set_design_cb(new_table, lv_table_design);
 1087              		.loc 1 86 0
 1088 003a 7D49     		ldr	r1, .L221+8
  73:..\..\..\lvgl\version_6.1.2\lvgl\src\lv_objx/lv_table.c ****     ext->cell_style[1] = &lv_style_plain;
 1089              		.loc 1 73 0
 1090 003c A260     		str	r2, [r4, #8]
  72:..\..\..\lvgl\version_6.1.2\lvgl\src\lv_objx/lv_table.c ****     ext->cell_style[0] = &lv_style_plain;
 1091              		.loc 1 72 0
 1092 003e 0025     		movs	r5, #0
  86:..\..\..\lvgl\version_6.1.2\lvgl\src\lv_objx/lv_table.c ****     lv_obj_set_design_cb(new_table, lv_table_design);
 1093              		.loc 1 86 0
 1094 0040 3846     		mov	r0, r7
  72:..\..\..\lvgl\version_6.1.2\lvgl\src\lv_objx/lv_table.c ****     ext->cell_style[0] = &lv_style_plain;
 1095              		.loc 1 72 0
 1096 0042 6560     		str	r5, [r4, #4]
  77:..\..\..\lvgl\version_6.1.2\lvgl\src\lv_objx/lv_table.c ****     ext->row_cnt       = 0;
 1097              		.loc 1 77 0
 1098 0044 2580     		strh	r5, [r4]	@ movhi
  78:..\..\..\lvgl\version_6.1.2\lvgl\src\lv_objx/lv_table.c **** 
 1099              		.loc 1 78 0
 1100 0046 6580     		strh	r5, [r4, #2]	@ movhi
  74:..\..\..\lvgl\version_6.1.2\lvgl\src\lv_objx/lv_table.c ****     ext->cell_style[2] = &lv_style_plain;
 1101              		.loc 1 74 0
 1102 0048 E260     		str	r2, [r4, #12]
  75:..\..\..\lvgl\version_6.1.2\lvgl\src\lv_objx/lv_table.c ****     ext->cell_style[3] = &lv_style_plain;
 1103              		.loc 1 75 0
 1104 004a 2261     		str	r2, [r4, #16]
  76:..\..\..\lvgl\version_6.1.2\lvgl\src\lv_objx/lv_table.c ****     ext->col_cnt       = 0;
 1105              		.loc 1 76 0
 1106 004c 6261     		str	r2, [r4, #20]
  82:..\..\..\lvgl\version_6.1.2\lvgl\src\lv_objx/lv_table.c ****     }
 1107              		.loc 1 82 0
 1108 004e A361     		str	r3, [r4, #24]
 1109 0050 E361     		str	r3, [r4, #28]
 1110 0052 2362     		str	r3, [r4, #32]
 1111 0054 6362     		str	r3, [r4, #36]
 1112 0056 A362     		str	r3, [r4, #40]
 1113 0058 E362     		str	r3, [r4, #44]
 1114              	.LVL126:
  86:..\..\..\lvgl\version_6.1.2\lvgl\src\lv_objx/lv_table.c ****     lv_obj_set_design_cb(new_table, lv_table_design);
 1115              		.loc 1 86 0
 1116 005a FFF7FEFF 		bl	lv_obj_set_signal_cb
 1117              	.LVL127:
  87:..\..\..\lvgl\version_6.1.2\lvgl\src\lv_objx/lv_table.c **** 
 1118              		.loc 1 87 0
 1119 005e 7549     		ldr	r1, .L221+12
 1120 0060 3846     		mov	r0, r7
 1121 0062 FFF7FEFF 		bl	lv_obj_set_design_cb
 1122              	.LVL128:
  90:..\..\..\lvgl\version_6.1.2\lvgl\src\lv_objx/lv_table.c ****         /*Set the default styles*/
 1123              		.loc 1 90 0
 1124 0066 002E     		cmp	r6, #0
ARM GAS  C:\Users\pearlstl\AppData\Local\Temp\ccIJtgHD.s 			page 40


 1125 0068 00F0E680 		beq	.L217
 1126              	.LBB114:
 106:..\..\..\lvgl\version_6.1.2\lvgl\src\lv_objx/lv_table.c ****         ext->cell_style[0]        = copy_ext->cell_style[0];
 1127              		.loc 1 106 0
 1128 006c 3046     		mov	r0, r6
 1129 006e FFF7FEFF 		bl	lv_obj_get_ext_attr
 1130              	.LVL129:
 1131 0072 8146     		mov	r9, r0
 1132              	.LVL130:
 1133              	.LBB115:
 1134              	.LBB116:
 184:..\..\..\lvgl\version_6.1.2\lvgl\src\lv_objx/lv_table.c ****     uint16_t old_row_cnt = ext->row_cnt;
 1135              		.loc 1 184 0
 1136 0074 3846     		mov	r0, r7
 1137              	.LVL131:
 1138              	.LBE116:
 1139              	.LBE115:
 107:..\..\..\lvgl\version_6.1.2\lvgl\src\lv_objx/lv_table.c ****         ext->cell_style[1]        = copy_ext->cell_style[1];
 1140              		.loc 1 107 0
 1141 0076 D9F80830 		ldr	r3, [r9, #8]
 1142 007a A360     		str	r3, [r4, #8]
 108:..\..\..\lvgl\version_6.1.2\lvgl\src\lv_objx/lv_table.c ****         ext->cell_style[2]        = copy_ext->cell_style[2];
 1143              		.loc 1 108 0
 1144 007c D9F80C30 		ldr	r3, [r9, #12]
 1145 0080 E360     		str	r3, [r4, #12]
 109:..\..\..\lvgl\version_6.1.2\lvgl\src\lv_objx/lv_table.c ****         ext->cell_style[3]        = copy_ext->cell_style[3];
 1146              		.loc 1 109 0
 1147 0082 D9F81030 		ldr	r3, [r9, #16]
 1148 0086 2361     		str	r3, [r4, #16]
 110:..\..\..\lvgl\version_6.1.2\lvgl\src\lv_objx/lv_table.c ****         lv_table_set_row_cnt(new_table, copy_ext->row_cnt);
 1149              		.loc 1 110 0
 1150 0088 D9F81430 		ldr	r3, [r9, #20]
 1151 008c 6361     		str	r3, [r4, #20]
 111:..\..\..\lvgl\version_6.1.2\lvgl\src\lv_objx/lv_table.c ****         lv_table_set_col_cnt(new_table, copy_ext->col_cnt);
 1152              		.loc 1 111 0
 1153 008e B9F80260 		ldrh	r6, [r9, #2]
 1154              	.LVL132:
 1155              	.LBB125:
 1156              	.LBB122:
 184:..\..\..\lvgl\version_6.1.2\lvgl\src\lv_objx/lv_table.c ****     uint16_t old_row_cnt = ext->row_cnt;
 1157              		.loc 1 184 0
 1158 0092 FFF7FEFF 		bl	lv_obj_get_ext_attr
 1159              	.LVL133:
 185:..\..\..\lvgl\version_6.1.2\lvgl\src\lv_objx/lv_table.c ****     ext->row_cnt         = row_cnt;
 1160              		.loc 1 185 0
 1161 0096 B0F80280 		ldrh	r8, [r0, #2]
 186:..\..\..\lvgl\version_6.1.2\lvgl\src\lv_objx/lv_table.c **** 
 1162              		.loc 1 186 0
 1163 009a 4680     		strh	r6, [r0, #2]	@ movhi
 184:..\..\..\lvgl\version_6.1.2\lvgl\src\lv_objx/lv_table.c ****     uint16_t old_row_cnt = ext->row_cnt;
 1164              		.loc 1 184 0
 1165 009c 0446     		mov	r4, r0
 1166              	.LVL134:
 188:..\..\..\lvgl\version_6.1.2\lvgl\src\lv_objx/lv_table.c ****         ext->cell_data = lv_mem_realloc(ext->cell_data, ext->row_cnt * ext->col_cnt * sizeof(char *
 1167              		.loc 1 188 0
 1168 009e 1EB1     		cbz	r6, .L153
 1169 00a0 0388     		ldrh	r3, [r0]
ARM GAS  C:\Users\pearlstl\AppData\Local\Temp\ccIJtgHD.s 			page 41


 1170 00a2 002B     		cmp	r3, #0
 1171 00a4 40F0A780 		bne	.L218
 1172              	.L153:
 198:..\..\..\lvgl\version_6.1.2\lvgl\src\lv_objx/lv_table.c ****         ext->cell_data = NULL;
 1173              		.loc 1 198 0
 1174 00a8 6068     		ldr	r0, [r4, #4]
 1175              	.LVL135:
 1176 00aa FFF7FEFF 		bl	lv_mem_free
 1177              	.LVL136:
 199:..\..\..\lvgl\version_6.1.2\lvgl\src\lv_objx/lv_table.c ****     }
 1178              		.loc 1 199 0
 1179 00ae 0023     		movs	r3, #0
 1180 00b0 6360     		str	r3, [r4, #4]
 1181              	.L154:
 1182              	.LVL137:
 1183              	.LBB117:
 1184              	.LBB118:
 816:..\..\..\lvgl\version_6.1.2\lvgl\src\lv_objx/lv_table.c **** 
 1185              		.loc 1 816 0
 1186 00b2 3846     		mov	r0, r7
 1187 00b4 FFF7FEFF 		bl	lv_obj_get_ext_attr
 1188              	.LVL138:
 819:..\..\..\lvgl\version_6.1.2\lvgl\src\lv_objx/lv_table.c ****         w += ext->col_w[i];
 1189              		.loc 1 819 0
 1190 00b8 0488     		ldrh	r4, [r0]
 1191              	.LVL139:
 816:..\..\..\lvgl\version_6.1.2\lvgl\src\lv_objx/lv_table.c **** 
 1192              		.loc 1 816 0
 1193 00ba 8046     		mov	r8, r0
 1194              	.LVL140:
 819:..\..\..\lvgl\version_6.1.2\lvgl\src\lv_objx/lv_table.c ****         w += ext->col_w[i];
 1195              		.loc 1 819 0
 1196 00bc 74B1     		cbz	r4, .L155
 1197 00be 601E     		subs	r0, r4, #1
 1198              	.LVL141:
 1199 00c0 80B2     		uxth	r0, r0
 1200 00c2 0C30     		adds	r0, r0, #12
 1201 00c4 08EB4000 		add	r0, r8, r0, lsl #1
 1202 00c8 08F11602 		add	r2, r8, #22
 1203 00cc 0021     		movs	r1, #0
 1204              	.LVL142:
 1205              	.L156:
 820:..\..\..\lvgl\version_6.1.2\lvgl\src\lv_objx/lv_table.c ****     }
 1206              		.loc 1 820 0
 1207 00ce 32F8023F 		ldrh	r3, [r2, #2]!
 1208 00d2 CC18     		adds	r4, r1, r3
 1209 00d4 A4B2     		uxth	r4, r4
 819:..\..\..\lvgl\version_6.1.2\lvgl\src\lv_objx/lv_table.c ****         w += ext->col_w[i];
 1210              		.loc 1 819 0
 1211 00d6 8242     		cmp	r2, r0
 820:..\..\..\lvgl\version_6.1.2\lvgl\src\lv_objx/lv_table.c ****     }
 1212              		.loc 1 820 0
 1213 00d8 21B2     		sxth	r1, r4
 1214              	.LVL143:
 819:..\..\..\lvgl\version_6.1.2\lvgl\src\lv_objx/lv_table.c ****         w += ext->col_w[i];
 1215              		.loc 1 819 0
 1216 00da F8D1     		bne	.L156
ARM GAS  C:\Users\pearlstl\AppData\Local\Temp\ccIJtgHD.s 			page 42


 1217              	.LVL144:
 1218              	.L155:
 822:..\..\..\lvgl\version_6.1.2\lvgl\src\lv_objx/lv_table.c ****         h += get_row_height(table, i);
 1219              		.loc 1 822 0
 1220 00dc B8F80200 		ldrh	r0, [r8, #2]
 1221 00e0 0028     		cmp	r0, #0
 1222 00e2 00F02F82 		beq	.L179
 1223 00e6 0026     		movs	r6, #0
 1224              	.LVL145:
 1225 00e8 3546     		mov	r5, r6
 1226              	.LVL146:
 1227              	.L158:
 823:..\..\..\lvgl\version_6.1.2\lvgl\src\lv_objx/lv_table.c ****     }
 1228              		.loc 1 823 0
 1229 00ea 2946     		mov	r1, r5
 1230 00ec 3846     		mov	r0, r7
 1231 00ee FFF7FEFF 		bl	get_row_height
 1232              	.LVL147:
 822:..\..\..\lvgl\version_6.1.2\lvgl\src\lv_objx/lv_table.c ****         h += get_row_height(table, i);
 1233              		.loc 1 822 0
 1234 00f2 0135     		adds	r5, r5, #1
 1235              	.LVL148:
 1236 00f4 B8F80230 		ldrh	r3, [r8, #2]
 823:..\..\..\lvgl\version_6.1.2\lvgl\src\lv_objx/lv_table.c ****     }
 1237              		.loc 1 823 0
 1238 00f8 3044     		add	r0, r0, r6
 822:..\..\..\lvgl\version_6.1.2\lvgl\src\lv_objx/lv_table.c ****         h += get_row_height(table, i);
 1239              		.loc 1 822 0
 1240 00fa ADB2     		uxth	r5, r5
 823:..\..\..\lvgl\version_6.1.2\lvgl\src\lv_objx/lv_table.c ****     }
 1241              		.loc 1 823 0
 1242 00fc 1FFA80FA 		uxth	r10, r0
 822:..\..\..\lvgl\version_6.1.2\lvgl\src\lv_objx/lv_table.c ****         h += get_row_height(table, i);
 1243              		.loc 1 822 0
 1244 0100 AB42     		cmp	r3, r5
 823:..\..\..\lvgl\version_6.1.2\lvgl\src\lv_objx/lv_table.c ****     }
 1245              		.loc 1 823 0
 1246 0102 0FFA8AF6 		sxth	r6, r10
 1247              	.LVL149:
 822:..\..\..\lvgl\version_6.1.2\lvgl\src\lv_objx/lv_table.c ****         h += get_row_height(table, i);
 1248              		.loc 1 822 0
 1249 0106 F0D8     		bhi	.L158
 1250              	.LVL150:
 1251              	.L157:
 826:..\..\..\lvgl\version_6.1.2\lvgl\src\lv_objx/lv_table.c **** 
 1252              		.loc 1 826 0
 1253 0108 3846     		mov	r0, r7
 1254 010a FFF7FEFF 		bl	lv_obj_get_style
 1255              	.LVL151:
 1256 010e 0346     		mov	r3, r0
 1257              	.LVL152:
 831:..\..\..\lvgl\version_6.1.2\lvgl\src\lv_objx/lv_table.c ****     lv_obj_invalidate(table);
 1258              		.loc 1 831 0
 1259 0110 3846     		mov	r0, r7
 1260              	.LVL153:
 1261 0112 1D8C     		ldrh	r5, [r3, #32]
 1262 0114 5A8C     		ldrh	r2, [r3, #34]
ARM GAS  C:\Users\pearlstl\AppData\Local\Temp\ccIJtgHD.s 			page 43


 1263 0116 998C     		ldrh	r1, [r3, #36]
 1264 0118 DB8C     		ldrh	r3, [r3, #38]
 1265              	.LVL154:
 1266 011a 2A44     		add	r2, r2, r5
 1267 011c 1944     		add	r1, r1, r3
 1268 011e 0132     		adds	r2, r2, #1
 1269 0120 0131     		adds	r1, r1, #1
 1270 0122 2144     		add	r1, r1, r4
 1271 0124 5244     		add	r2, r2, r10
 1272 0126 12B2     		sxth	r2, r2
 1273 0128 09B2     		sxth	r1, r1
 1274 012a FFF7FEFF 		bl	lv_obj_set_size
 1275              	.LVL155:
 832:..\..\..\lvgl\version_6.1.2\lvgl\src\lv_objx/lv_table.c **** }
 1276              		.loc 1 832 0
 1277 012e 3846     		mov	r0, r7
 1278 0130 FFF7FEFF 		bl	lv_obj_invalidate
 1279              	.LVL156:
 1280              	.LBE118:
 1281              	.LBE117:
 1282              	.LBE122:
 1283              	.LBE125:
 112:..\..\..\lvgl\version_6.1.2\lvgl\src\lv_objx/lv_table.c **** 
 1284              		.loc 1 112 0
 1285 0134 B9F80040 		ldrh	r4, [r9]
 1286              	.LVL157:
 1287              	.LBB126:
 1288              	.LBB127:
 214:..\..\..\lvgl\version_6.1.2\lvgl\src\lv_objx/lv_table.c ****         LV_LOG_WARN("lv_table_set_col_cnt: too many columns. Must be < LV_TABLE_COL_MAX.");
 1289              		.loc 1 214 0
 1290 0138 0B2C     		cmp	r4, #11
 1291 013a 05D9     		bls	.L219
 1292              	.LVL158:
 1293              	.LBE127:
 1294              	.LBE126:
 115:..\..\..\lvgl\version_6.1.2\lvgl\src\lv_objx/lv_table.c ****     }
 1295              		.loc 1 115 0
 1296 013c 3846     		mov	r0, r7
 1297 013e FFF7FEFF 		bl	lv_obj_refresh_style
 1298              	.LVL159:
 1299 0142 3846     		mov	r0, r7
 1300              	.LBE114:
 121:..\..\..\lvgl\version_6.1.2\lvgl\src\lv_objx/lv_table.c **** 
 1301              		.loc 1 121 0
 1302 0144 BDE8F087 		pop	{r4, r5, r6, r7, r8, r9, r10, pc}
 1303              	.LVL160:
 1304              	.L219:
 1305              	.LBB143:
 1306              	.LBB139:
 1307              	.LBB137:
 1308              	.LBB128:
 1309              	.LBB129:
 219:..\..\..\lvgl\version_6.1.2\lvgl\src\lv_objx/lv_table.c ****     uint16_t old_col_cnt = ext->col_cnt;
 1310              		.loc 1 219 0
 1311 0148 3846     		mov	r0, r7
 1312 014a FFF7FEFF 		bl	lv_obj_get_ext_attr
 1313              	.LVL161:
ARM GAS  C:\Users\pearlstl\AppData\Local\Temp\ccIJtgHD.s 			page 44


 223:..\..\..\lvgl\version_6.1.2\lvgl\src\lv_objx/lv_table.c ****         ext->cell_data = lv_mem_realloc(ext->cell_data, ext->row_cnt * ext->col_cnt * sizeof(char *
 1314              		.loc 1 223 0
 1315 014e 4388     		ldrh	r3, [r0, #2]
 220:..\..\..\lvgl\version_6.1.2\lvgl\src\lv_objx/lv_table.c ****     ext->col_cnt         = col_cnt;
 1316              		.loc 1 220 0
 1317 0150 0688     		ldrh	r6, [r0]
 221:..\..\..\lvgl\version_6.1.2\lvgl\src\lv_objx/lv_table.c **** 
 1318              		.loc 1 221 0
 1319 0152 0480     		strh	r4, [r0]	@ movhi
 219:..\..\..\lvgl\version_6.1.2\lvgl\src\lv_objx/lv_table.c ****     uint16_t old_col_cnt = ext->col_cnt;
 1320              		.loc 1 219 0
 1321 0154 0546     		mov	r5, r0
 1322              	.LVL162:
 223:..\..\..\lvgl\version_6.1.2\lvgl\src\lv_objx/lv_table.c ****         ext->cell_data = lv_mem_realloc(ext->cell_data, ext->row_cnt * ext->col_cnt * sizeof(char *
 1323              		.loc 1 223 0
 1324 0156 13B1     		cbz	r3, .L160
 1325 0158 002C     		cmp	r4, #0
 1326 015a 40F00282 		bne	.L220
 1327              	.L160:
 233:..\..\..\lvgl\version_6.1.2\lvgl\src\lv_objx/lv_table.c ****         ext->cell_data = NULL;
 1328              		.loc 1 233 0
 1329 015e 6868     		ldr	r0, [r5, #4]
 1330              	.LVL163:
 1331 0160 FFF7FEFF 		bl	lv_mem_free
 1332              	.LVL164:
 234:..\..\..\lvgl\version_6.1.2\lvgl\src\lv_objx/lv_table.c ****     }
 1333              		.loc 1 234 0
 1334 0164 0023     		movs	r3, #0
 1335 0166 6B60     		str	r3, [r5, #4]
 1336              	.L161:
 1337              	.LVL165:
 1338              	.LBB130:
 1339              	.LBB131:
 816:..\..\..\lvgl\version_6.1.2\lvgl\src\lv_objx/lv_table.c **** 
 1340              		.loc 1 816 0
 1341 0168 3846     		mov	r0, r7
 1342 016a FFF7FEFF 		bl	lv_obj_get_ext_attr
 1343              	.LVL166:
 819:..\..\..\lvgl\version_6.1.2\lvgl\src\lv_objx/lv_table.c ****         w += ext->col_w[i];
 1344              		.loc 1 819 0
 1345 016e 0488     		ldrh	r4, [r0]
 1346              	.LVL167:
 816:..\..\..\lvgl\version_6.1.2\lvgl\src\lv_objx/lv_table.c **** 
 1347              		.loc 1 816 0
 1348 0170 8046     		mov	r8, r0
 1349              	.LVL168:
 819:..\..\..\lvgl\version_6.1.2\lvgl\src\lv_objx/lv_table.c ****         w += ext->col_w[i];
 1350              		.loc 1 819 0
 1351 0172 74B1     		cbz	r4, .L162
 1352 0174 601E     		subs	r0, r4, #1
 1353              	.LVL169:
 1354 0176 80B2     		uxth	r0, r0
 1355 0178 0C30     		adds	r0, r0, #12
 1356 017a 08EB4000 		add	r0, r8, r0, lsl #1
 1357 017e 08F11602 		add	r2, r8, #22
 1358 0182 0021     		movs	r1, #0
 1359              	.LVL170:
ARM GAS  C:\Users\pearlstl\AppData\Local\Temp\ccIJtgHD.s 			page 45


 1360              	.L163:
 820:..\..\..\lvgl\version_6.1.2\lvgl\src\lv_objx/lv_table.c ****     }
 1361              		.loc 1 820 0
 1362 0184 32F8023F 		ldrh	r3, [r2, #2]!
 1363 0188 CC18     		adds	r4, r1, r3
 1364 018a A4B2     		uxth	r4, r4
 819:..\..\..\lvgl\version_6.1.2\lvgl\src\lv_objx/lv_table.c ****         w += ext->col_w[i];
 1365              		.loc 1 819 0
 1366 018c 8242     		cmp	r2, r0
 820:..\..\..\lvgl\version_6.1.2\lvgl\src\lv_objx/lv_table.c ****     }
 1367              		.loc 1 820 0
 1368 018e 21B2     		sxth	r1, r4
 1369              	.LVL171:
 819:..\..\..\lvgl\version_6.1.2\lvgl\src\lv_objx/lv_table.c ****         w += ext->col_w[i];
 1370              		.loc 1 819 0
 1371 0190 F8D1     		bne	.L163
 1372              	.LVL172:
 1373              	.L162:
 822:..\..\..\lvgl\version_6.1.2\lvgl\src\lv_objx/lv_table.c ****         h += get_row_height(table, i);
 1374              		.loc 1 822 0
 1375 0192 B8F80200 		ldrh	r0, [r8, #2]
 1376 0196 0028     		cmp	r0, #0
 1377 0198 00F0FC81 		beq	.L181
 1378 019c 0026     		movs	r6, #0
 1379              	.LVL173:
 1380 019e 3546     		mov	r5, r6
 1381              	.LVL174:
 1382              	.L165:
 823:..\..\..\lvgl\version_6.1.2\lvgl\src\lv_objx/lv_table.c ****     }
 1383              		.loc 1 823 0
 1384 01a0 2946     		mov	r1, r5
 1385 01a2 3846     		mov	r0, r7
 1386 01a4 FFF7FEFF 		bl	get_row_height
 1387              	.LVL175:
 822:..\..\..\lvgl\version_6.1.2\lvgl\src\lv_objx/lv_table.c ****         h += get_row_height(table, i);
 1388              		.loc 1 822 0
 1389 01a8 0135     		adds	r5, r5, #1
 1390              	.LVL176:
 1391 01aa B8F80230 		ldrh	r3, [r8, #2]
 823:..\..\..\lvgl\version_6.1.2\lvgl\src\lv_objx/lv_table.c ****     }
 1392              		.loc 1 823 0
 1393 01ae 3044     		add	r0, r0, r6
 822:..\..\..\lvgl\version_6.1.2\lvgl\src\lv_objx/lv_table.c ****         h += get_row_height(table, i);
 1394              		.loc 1 822 0
 1395 01b0 ADB2     		uxth	r5, r5
 823:..\..\..\lvgl\version_6.1.2\lvgl\src\lv_objx/lv_table.c ****     }
 1396              		.loc 1 823 0
 1397 01b2 1FFA80F9 		uxth	r9, r0
 822:..\..\..\lvgl\version_6.1.2\lvgl\src\lv_objx/lv_table.c ****         h += get_row_height(table, i);
 1398              		.loc 1 822 0
 1399 01b6 AB42     		cmp	r3, r5
 823:..\..\..\lvgl\version_6.1.2\lvgl\src\lv_objx/lv_table.c ****     }
 1400              		.loc 1 823 0
 1401 01b8 0FFA89F6 		sxth	r6, r9
 1402              	.LVL177:
 822:..\..\..\lvgl\version_6.1.2\lvgl\src\lv_objx/lv_table.c ****         h += get_row_height(table, i);
 1403              		.loc 1 822 0
ARM GAS  C:\Users\pearlstl\AppData\Local\Temp\ccIJtgHD.s 			page 46


 1404 01bc F0D8     		bhi	.L165
 1405              	.LVL178:
 1406              	.L164:
 826:..\..\..\lvgl\version_6.1.2\lvgl\src\lv_objx/lv_table.c **** 
 1407              		.loc 1 826 0
 1408 01be 3846     		mov	r0, r7
 1409 01c0 FFF7FEFF 		bl	lv_obj_get_style
 1410              	.LVL179:
 1411 01c4 0346     		mov	r3, r0
 1412              	.LVL180:
 831:..\..\..\lvgl\version_6.1.2\lvgl\src\lv_objx/lv_table.c ****     lv_obj_invalidate(table);
 1413              		.loc 1 831 0
 1414 01c6 3846     		mov	r0, r7
 1415              	.LVL181:
 1416 01c8 1D8C     		ldrh	r5, [r3, #32]
 1417 01ca 5A8C     		ldrh	r2, [r3, #34]
 1418 01cc 998C     		ldrh	r1, [r3, #36]
 1419 01ce DB8C     		ldrh	r3, [r3, #38]
 1420              	.LVL182:
 1421 01d0 2A44     		add	r2, r2, r5
 1422 01d2 1944     		add	r1, r1, r3
 1423 01d4 0132     		adds	r2, r2, #1
 1424 01d6 0131     		adds	r1, r1, #1
 1425 01d8 4A44     		add	r2, r2, r9
 1426 01da 2144     		add	r1, r1, r4
 1427 01dc 12B2     		sxth	r2, r2
 1428 01de 09B2     		sxth	r1, r1
 1429 01e0 FFF7FEFF 		bl	lv_obj_set_size
 1430              	.LVL183:
 832:..\..\..\lvgl\version_6.1.2\lvgl\src\lv_objx/lv_table.c **** }
 1431              		.loc 1 832 0
 1432 01e4 3846     		mov	r0, r7
 1433 01e6 FFF7FEFF 		bl	lv_obj_invalidate
 1434              	.LVL184:
 1435              	.LBE131:
 1436              	.LBE130:
 1437              	.LBE129:
 1438              	.LBE128:
 1439              	.LBE137:
 1440              	.LBE139:
 115:..\..\..\lvgl\version_6.1.2\lvgl\src\lv_objx/lv_table.c ****     }
 1441              		.loc 1 115 0
 1442 01ea 3846     		mov	r0, r7
 1443 01ec FFF7FEFF 		bl	lv_obj_refresh_style
 1444              	.LVL185:
 1445 01f0 3846     		mov	r0, r7
 1446              	.LBE143:
 121:..\..\..\lvgl\version_6.1.2\lvgl\src\lv_objx/lv_table.c **** 
 1447              		.loc 1 121 0
 1448 01f2 BDE8F087 		pop	{r4, r5, r6, r7, r8, r9, r10, pc}
 1449              	.LVL186:
 1450              	.L218:
 1451              	.LBB144:
 1452              	.LBB140:
 1453              	.LBB123:
 189:..\..\..\lvgl\version_6.1.2\lvgl\src\lv_objx/lv_table.c **** 
 1454              		.loc 1 189 0
ARM GAS  C:\Users\pearlstl\AppData\Local\Temp\ccIJtgHD.s 			page 47


 1455 01f6 03FB06F1 		mul	r1, r3, r6
 1456 01fa 8900     		lsls	r1, r1, #2
 1457 01fc 4068     		ldr	r0, [r0, #4]
 1458              	.LVL187:
 1459 01fe FFF7FEFF 		bl	lv_mem_realloc
 1460              	.LVL188:
 192:..\..\..\lvgl\version_6.1.2\lvgl\src\lv_objx/lv_table.c ****             uint16_t old_cell_cnt = old_row_cnt * ext->col_cnt;
 1461              		.loc 1 192 0
 1462 0202 4645     		cmp	r6, r8
 189:..\..\..\lvgl\version_6.1.2\lvgl\src\lv_objx/lv_table.c **** 
 1463              		.loc 1 189 0
 1464 0204 6060     		str	r0, [r4, #4]
 192:..\..\..\lvgl\version_6.1.2\lvgl\src\lv_objx/lv_table.c ****             uint16_t old_cell_cnt = old_row_cnt * ext->col_cnt;
 1465              		.loc 1 192 0
 1466 0206 7FF654AF 		bls	.L154
 1467              	.LBB120:
 193:..\..\..\lvgl\version_6.1.2\lvgl\src\lv_objx/lv_table.c ****             uint32_t new_cell_cnt = ext->col_cnt * ext->row_cnt;
 1468              		.loc 1 193 0
 1469 020a 2288     		ldrh	r2, [r4]
 1470              	.LVL189:
 195:..\..\..\lvgl\version_6.1.2\lvgl\src\lv_objx/lv_table.c ****         }
 1471              		.loc 1 195 0
 1472 020c 6188     		ldrh	r1, [r4, #2]
 1473 020e 18FB02F3 		smulbb	r3, r8, r2
 1474 0212 9BB2     		uxth	r3, r3
 1475 0214 02FB01F2 		mul	r2, r2, r1
 1476              	.LVL190:
 1477 0218 D21A     		subs	r2, r2, r3
 1478 021a 2946     		mov	r1, r5
 1479 021c 00EB8300 		add	r0, r0, r3, lsl #2
 1480 0220 9200     		lsls	r2, r2, #2
 1481 0222 FFF7FEFF 		bl	memset
 1482              	.LVL191:
 1483 0226 44E7     		b	.L154
 1484              	.L222:
 1485              		.align	2
 1486              	.L221:
 1487 0228 00000000 		.word	.LANCHOR0
 1488 022c 00000000 		.word	lv_style_plain
 1489 0230 00000000 		.word	lv_table_signal
 1490 0234 00000000 		.word	lv_table_design
 1491              	.LVL192:
 1492              	.L217:
 1493              	.LBE120:
 1494              	.LBE123:
 1495              	.LBE140:
 1496              	.LBE144:
 1497              	.LBB145:
  92:..\..\..\lvgl\version_6.1.2\lvgl\src\lv_objx/lv_table.c ****         if(th) {
 1498              		.loc 1 92 0
 1499 0238 FFF7FEFF 		bl	lv_theme_get_current
 1500              	.LVL193:
  93:..\..\..\lvgl\version_6.1.2\lvgl\src\lv_objx/lv_table.c ****             lv_table_set_style(new_table, LV_TABLE_STYLE_BG, th->style.table.bg);
 1501              		.loc 1 93 0
 1502 023c 0546     		mov	r5, r0
 1503 023e 0028     		cmp	r0, #0
 1504 0240 00F0AA81 		beq	.L127
ARM GAS  C:\Users\pearlstl\AppData\Local\Temp\ccIJtgHD.s 			page 48


  94:..\..\..\lvgl\version_6.1.2\lvgl\src\lv_objx/lv_table.c ****             lv_table_set_style(new_table, LV_TABLE_STYLE_CELL1, th->style.table.cell);
 1505              		.loc 1 94 0
 1506 0244 D0F88841 		ldr	r4, [r0, #392]
 1507              	.LVL194:
 1508              	.LBB146:
 1509              	.LBB147:
 394:..\..\..\lvgl\version_6.1.2\lvgl\src\lv_objx/lv_table.c **** 
 1510              		.loc 1 394 0
 1511 0248 3846     		mov	r0, r7
 1512              	.LVL195:
 1513 024a FFF7FEFF 		bl	lv_obj_get_ext_attr
 1514              	.LVL196:
 1515              	.LBB148:
 1516              	.LBB149:
 398:..\..\..\lvgl\version_6.1.2\lvgl\src\lv_objx/lv_table.c ****             refr_size(table);
 1517              		.loc 1 398 0
 1518 024e 2146     		mov	r1, r4
 1519 0250 3846     		mov	r0, r7
 1520 0252 FFF7FEFF 		bl	lv_obj_set_style
 1521              	.LVL197:
 1522              	.LBB150:
 1523              	.LBB151:
 816:..\..\..\lvgl\version_6.1.2\lvgl\src\lv_objx/lv_table.c **** 
 1524              		.loc 1 816 0
 1525 0256 3846     		mov	r0, r7
 1526 0258 FFF7FEFF 		bl	lv_obj_get_ext_attr
 1527              	.LVL198:
 819:..\..\..\lvgl\version_6.1.2\lvgl\src\lv_objx/lv_table.c ****         w += ext->col_w[i];
 1528              		.loc 1 819 0
 1529 025c 0388     		ldrh	r3, [r0]
 816:..\..\..\lvgl\version_6.1.2\lvgl\src\lv_objx/lv_table.c **** 
 1530              		.loc 1 816 0
 1531 025e 8146     		mov	r9, r0
 1532              	.LVL199:
 819:..\..\..\lvgl\version_6.1.2\lvgl\src\lv_objx/lv_table.c ****         w += ext->col_w[i];
 1533              		.loc 1 819 0
 1534 0260 002B     		cmp	r3, #0
 1535 0262 00F0D881 		beq	.L166
 1536 0266 591E     		subs	r1, r3, #1
 1537 0268 89B2     		uxth	r1, r1
 1538 026a 0C31     		adds	r1, r1, #12
 1539 026c 00EB4101 		add	r1, r0, r1, lsl #1
 1540 0270 00F11602 		add	r2, r0, #22
 1541              	.LVL200:
 1542              	.L129:
 820:..\..\..\lvgl\version_6.1.2\lvgl\src\lv_objx/lv_table.c ****     }
 1543              		.loc 1 820 0
 1544 0274 32F8023F 		ldrh	r3, [r2, #2]!
 1545 0278 06EB0308 		add	r8, r6, r3
 1546 027c 1FFA88F8 		uxth	r8, r8
 819:..\..\..\lvgl\version_6.1.2\lvgl\src\lv_objx/lv_table.c ****         w += ext->col_w[i];
 1547              		.loc 1 819 0
 1548 0280 8A42     		cmp	r2, r1
 820:..\..\..\lvgl\version_6.1.2\lvgl\src\lv_objx/lv_table.c ****     }
 1549              		.loc 1 820 0
 1550 0282 0FFA88F6 		sxth	r6, r8
 1551              	.LVL201:
ARM GAS  C:\Users\pearlstl\AppData\Local\Temp\ccIJtgHD.s 			page 49


 819:..\..\..\lvgl\version_6.1.2\lvgl\src\lv_objx/lv_table.c ****         w += ext->col_w[i];
 1552              		.loc 1 819 0
 1553 0286 F5D1     		bne	.L129
 1554              	.LVL202:
 1555              	.L128:
 822:..\..\..\lvgl\version_6.1.2\lvgl\src\lv_objx/lv_table.c ****         h += get_row_height(table, i);
 1556              		.loc 1 822 0
 1557 0288 B9F80200 		ldrh	r0, [r9, #2]
 1558              	.LVL203:
 1559 028c 0028     		cmp	r0, #0
 1560 028e 00F0CA81 		beq	.L167
 1561 0292 0026     		movs	r6, #0
 1562 0294 3446     		mov	r4, r6
 1563              	.LVL204:
 1564              	.L131:
 823:..\..\..\lvgl\version_6.1.2\lvgl\src\lv_objx/lv_table.c ****     }
 1565              		.loc 1 823 0
 1566 0296 2146     		mov	r1, r4
 1567 0298 3846     		mov	r0, r7
 1568 029a FFF7FEFF 		bl	get_row_height
 1569              	.LVL205:
 822:..\..\..\lvgl\version_6.1.2\lvgl\src\lv_objx/lv_table.c ****         h += get_row_height(table, i);
 1570              		.loc 1 822 0
 1571 029e 0134     		adds	r4, r4, #1
 1572              	.LVL206:
 1573 02a0 B9F80230 		ldrh	r3, [r9, #2]
 823:..\..\..\lvgl\version_6.1.2\lvgl\src\lv_objx/lv_table.c ****     }
 1574              		.loc 1 823 0
 1575 02a4 3044     		add	r0, r0, r6
 822:..\..\..\lvgl\version_6.1.2\lvgl\src\lv_objx/lv_table.c ****         h += get_row_height(table, i);
 1576              		.loc 1 822 0
 1577 02a6 A4B2     		uxth	r4, r4
 823:..\..\..\lvgl\version_6.1.2\lvgl\src\lv_objx/lv_table.c ****     }
 1578              		.loc 1 823 0
 1579 02a8 1FFA80FA 		uxth	r10, r0
 822:..\..\..\lvgl\version_6.1.2\lvgl\src\lv_objx/lv_table.c ****         h += get_row_height(table, i);
 1580              		.loc 1 822 0
 1581 02ac A342     		cmp	r3, r4
 823:..\..\..\lvgl\version_6.1.2\lvgl\src\lv_objx/lv_table.c ****     }
 1582              		.loc 1 823 0
 1583 02ae 0FFA8AF6 		sxth	r6, r10
 1584              	.LVL207:
 822:..\..\..\lvgl\version_6.1.2\lvgl\src\lv_objx/lv_table.c ****         h += get_row_height(table, i);
 1585              		.loc 1 822 0
 1586 02b2 F0D8     		bhi	.L131
 1587              	.LVL208:
 1588              	.L130:
 826:..\..\..\lvgl\version_6.1.2\lvgl\src\lv_objx/lv_table.c **** 
 1589              		.loc 1 826 0
 1590 02b4 3846     		mov	r0, r7
 1591 02b6 FFF7FEFF 		bl	lv_obj_get_style
 1592              	.LVL209:
 1593 02ba 0346     		mov	r3, r0
 1594              	.LVL210:
 831:..\..\..\lvgl\version_6.1.2\lvgl\src\lv_objx/lv_table.c ****     lv_obj_invalidate(table);
 1595              		.loc 1 831 0
 1596 02bc 3846     		mov	r0, r7
ARM GAS  C:\Users\pearlstl\AppData\Local\Temp\ccIJtgHD.s 			page 50


 1597              	.LVL211:
 1598 02be 1C8C     		ldrh	r4, [r3, #32]
 1599 02c0 5A8C     		ldrh	r2, [r3, #34]
 1600 02c2 998C     		ldrh	r1, [r3, #36]
 1601 02c4 DB8C     		ldrh	r3, [r3, #38]
 1602              	.LVL212:
 1603 02c6 2244     		add	r2, r2, r4
 1604 02c8 1944     		add	r1, r1, r3
 1605 02ca 0132     		adds	r2, r2, #1
 1606 02cc 0131     		adds	r1, r1, #1
 1607 02ce 5244     		add	r2, r2, r10
 1608 02d0 4144     		add	r1, r1, r8
 1609 02d2 12B2     		sxth	r2, r2
 1610 02d4 09B2     		sxth	r1, r1
 1611 02d6 FFF7FEFF 		bl	lv_obj_set_size
 1612              	.LVL213:
 832:..\..\..\lvgl\version_6.1.2\lvgl\src\lv_objx/lv_table.c **** }
 1613              		.loc 1 832 0
 1614 02da 3846     		mov	r0, r7
 1615 02dc FFF7FEFF 		bl	lv_obj_invalidate
 1616              	.LVL214:
 1617              	.LBE151:
 1618              	.LBE150:
 1619              	.LBE149:
 1620              	.LBE148:
 1621              	.LBE147:
 1622              	.LBE146:
 1623              	.LBB162:
 1624              	.LBB163:
 394:..\..\..\lvgl\version_6.1.2\lvgl\src\lv_objx/lv_table.c **** 
 1625              		.loc 1 394 0
 1626 02e0 3846     		mov	r0, r7
 1627              	.LBE163:
 1628              	.LBE162:
  95:..\..\..\lvgl\version_6.1.2\lvgl\src\lv_objx/lv_table.c ****             lv_table_set_style(new_table, LV_TABLE_STYLE_CELL2, th->style.table.cell);
 1629              		.loc 1 95 0
 1630 02e2 D5F88C41 		ldr	r4, [r5, #396]
 1631              	.LVL215:
 1632              	.LBB173:
 1633              	.LBB170:
 394:..\..\..\lvgl\version_6.1.2\lvgl\src\lv_objx/lv_table.c **** 
 1634              		.loc 1 394 0
 1635 02e6 FFF7FEFF 		bl	lv_obj_get_ext_attr
 1636              	.LVL216:
 402:..\..\..\lvgl\version_6.1.2\lvgl\src\lv_objx/lv_table.c ****             refr_size(table);
 1637              		.loc 1 402 0
 1638 02ea 8460     		str	r4, [r0, #8]
 1639              	.LVL217:
 1640              	.LBB164:
 1641              	.LBB165:
 816:..\..\..\lvgl\version_6.1.2\lvgl\src\lv_objx/lv_table.c **** 
 1642              		.loc 1 816 0
 1643 02ec 3846     		mov	r0, r7
 1644              	.LVL218:
 1645 02ee FFF7FEFF 		bl	lv_obj_get_ext_attr
 1646              	.LVL219:
 819:..\..\..\lvgl\version_6.1.2\lvgl\src\lv_objx/lv_table.c ****         w += ext->col_w[i];
ARM GAS  C:\Users\pearlstl\AppData\Local\Temp\ccIJtgHD.s 			page 51


 1647              		.loc 1 819 0
 1648 02f2 0388     		ldrh	r3, [r0]
 816:..\..\..\lvgl\version_6.1.2\lvgl\src\lv_objx/lv_table.c **** 
 1649              		.loc 1 816 0
 1650 02f4 8146     		mov	r9, r0
 1651              	.LVL220:
 819:..\..\..\lvgl\version_6.1.2\lvgl\src\lv_objx/lv_table.c ****         w += ext->col_w[i];
 1652              		.loc 1 819 0
 1653 02f6 002B     		cmp	r3, #0
 1654 02f8 00F09381 		beq	.L168
 1655 02fc 581E     		subs	r0, r3, #1
 1656              	.LVL221:
 1657 02fe 80B2     		uxth	r0, r0
 1658 0300 0C30     		adds	r0, r0, #12
 1659 0302 09EB4000 		add	r0, r9, r0, lsl #1
 1660 0306 09F11602 		add	r2, r9, #22
 1661 030a 0021     		movs	r1, #0
 1662              	.LVL222:
 1663              	.L133:
 820:..\..\..\lvgl\version_6.1.2\lvgl\src\lv_objx/lv_table.c ****     }
 1664              		.loc 1 820 0
 1665 030c 32F8023F 		ldrh	r3, [r2, #2]!
 1666 0310 01EB0308 		add	r8, r1, r3
 1667 0314 1FFA88F8 		uxth	r8, r8
 819:..\..\..\lvgl\version_6.1.2\lvgl\src\lv_objx/lv_table.c ****         w += ext->col_w[i];
 1668              		.loc 1 819 0
 1669 0318 8242     		cmp	r2, r0
 820:..\..\..\lvgl\version_6.1.2\lvgl\src\lv_objx/lv_table.c ****     }
 1670              		.loc 1 820 0
 1671 031a 0FFA88F1 		sxth	r1, r8
 1672              	.LVL223:
 819:..\..\..\lvgl\version_6.1.2\lvgl\src\lv_objx/lv_table.c ****         w += ext->col_w[i];
 1673              		.loc 1 819 0
 1674 031e F5D1     		bne	.L133
 1675              	.LVL224:
 1676              	.L132:
 822:..\..\..\lvgl\version_6.1.2\lvgl\src\lv_objx/lv_table.c ****         h += get_row_height(table, i);
 1677              		.loc 1 822 0
 1678 0320 B9F80200 		ldrh	r0, [r9, #2]
 1679 0324 0028     		cmp	r0, #0
 1680 0326 00F08681 		beq	.L169
 1681 032a 0026     		movs	r6, #0
 1682 032c 3446     		mov	r4, r6
 1683              	.LVL225:
 1684              	.L135:
 823:..\..\..\lvgl\version_6.1.2\lvgl\src\lv_objx/lv_table.c ****     }
 1685              		.loc 1 823 0
 1686 032e 2146     		mov	r1, r4
 1687 0330 3846     		mov	r0, r7
 1688 0332 FFF7FEFF 		bl	get_row_height
 1689              	.LVL226:
 822:..\..\..\lvgl\version_6.1.2\lvgl\src\lv_objx/lv_table.c ****         h += get_row_height(table, i);
 1690              		.loc 1 822 0
 1691 0336 0134     		adds	r4, r4, #1
 1692              	.LVL227:
 1693 0338 B9F80230 		ldrh	r3, [r9, #2]
 823:..\..\..\lvgl\version_6.1.2\lvgl\src\lv_objx/lv_table.c ****     }
ARM GAS  C:\Users\pearlstl\AppData\Local\Temp\ccIJtgHD.s 			page 52


 1694              		.loc 1 823 0
 1695 033c 3044     		add	r0, r0, r6
 822:..\..\..\lvgl\version_6.1.2\lvgl\src\lv_objx/lv_table.c ****         h += get_row_height(table, i);
 1696              		.loc 1 822 0
 1697 033e A4B2     		uxth	r4, r4
 823:..\..\..\lvgl\version_6.1.2\lvgl\src\lv_objx/lv_table.c ****     }
 1698              		.loc 1 823 0
 1699 0340 1FFA80FA 		uxth	r10, r0
 822:..\..\..\lvgl\version_6.1.2\lvgl\src\lv_objx/lv_table.c ****         h += get_row_height(table, i);
 1700              		.loc 1 822 0
 1701 0344 A342     		cmp	r3, r4
 823:..\..\..\lvgl\version_6.1.2\lvgl\src\lv_objx/lv_table.c ****     }
 1702              		.loc 1 823 0
 1703 0346 0FFA8AF6 		sxth	r6, r10
 1704              	.LVL228:
 822:..\..\..\lvgl\version_6.1.2\lvgl\src\lv_objx/lv_table.c ****         h += get_row_height(table, i);
 1705              		.loc 1 822 0
 1706 034a F0D8     		bhi	.L135
 1707              	.LVL229:
 1708              	.L134:
 826:..\..\..\lvgl\version_6.1.2\lvgl\src\lv_objx/lv_table.c **** 
 1709              		.loc 1 826 0
 1710 034c 3846     		mov	r0, r7
 1711 034e FFF7FEFF 		bl	lv_obj_get_style
 1712              	.LVL230:
 1713 0352 0346     		mov	r3, r0
 1714              	.LVL231:
 831:..\..\..\lvgl\version_6.1.2\lvgl\src\lv_objx/lv_table.c ****     lv_obj_invalidate(table);
 1715              		.loc 1 831 0
 1716 0354 3846     		mov	r0, r7
 1717              	.LVL232:
 1718 0356 1C8C     		ldrh	r4, [r3, #32]
 1719 0358 5A8C     		ldrh	r2, [r3, #34]
 1720 035a 998C     		ldrh	r1, [r3, #36]
 1721 035c DB8C     		ldrh	r3, [r3, #38]
 1722              	.LVL233:
 1723 035e 2244     		add	r2, r2, r4
 1724 0360 1944     		add	r1, r1, r3
 1725 0362 0132     		adds	r2, r2, #1
 1726 0364 0131     		adds	r1, r1, #1
 1727 0366 5244     		add	r2, r2, r10
 1728 0368 4144     		add	r1, r1, r8
 1729 036a 12B2     		sxth	r2, r2
 1730 036c 09B2     		sxth	r1, r1
 1731 036e FFF7FEFF 		bl	lv_obj_set_size
 1732              	.LVL234:
 832:..\..\..\lvgl\version_6.1.2\lvgl\src\lv_objx/lv_table.c **** }
 1733              		.loc 1 832 0
 1734 0372 3846     		mov	r0, r7
 1735 0374 FFF7FEFF 		bl	lv_obj_invalidate
 1736              	.LVL235:
 1737              	.LBE165:
 1738              	.LBE164:
 1739              	.LBE170:
 1740              	.LBE173:
 1741              	.LBB174:
 1742              	.LBB175:
ARM GAS  C:\Users\pearlstl\AppData\Local\Temp\ccIJtgHD.s 			page 53


 394:..\..\..\lvgl\version_6.1.2\lvgl\src\lv_objx/lv_table.c **** 
 1743              		.loc 1 394 0
 1744 0378 3846     		mov	r0, r7
 1745              	.LBE175:
 1746              	.LBE174:
  96:..\..\..\lvgl\version_6.1.2\lvgl\src\lv_objx/lv_table.c ****             lv_table_set_style(new_table, LV_TABLE_STYLE_CELL3, th->style.table.cell);
 1747              		.loc 1 96 0
 1748 037a D5F88C41 		ldr	r4, [r5, #396]
 1749              	.LVL236:
 1750              	.LBB182:
 1751              	.LBB180:
 394:..\..\..\lvgl\version_6.1.2\lvgl\src\lv_objx/lv_table.c **** 
 1752              		.loc 1 394 0
 1753 037e FFF7FEFF 		bl	lv_obj_get_ext_attr
 1754              	.LVL237:
 406:..\..\..\lvgl\version_6.1.2\lvgl\src\lv_objx/lv_table.c ****             refr_size(table);
 1755              		.loc 1 406 0
 1756 0382 C460     		str	r4, [r0, #12]
 1757              	.LVL238:
 1758              	.LBB176:
 1759              	.LBB177:
 816:..\..\..\lvgl\version_6.1.2\lvgl\src\lv_objx/lv_table.c **** 
 1760              		.loc 1 816 0
 1761 0384 3846     		mov	r0, r7
 1762              	.LVL239:
 1763 0386 FFF7FEFF 		bl	lv_obj_get_ext_attr
 1764              	.LVL240:
 819:..\..\..\lvgl\version_6.1.2\lvgl\src\lv_objx/lv_table.c ****         w += ext->col_w[i];
 1765              		.loc 1 819 0
 1766 038a 0388     		ldrh	r3, [r0]
 816:..\..\..\lvgl\version_6.1.2\lvgl\src\lv_objx/lv_table.c **** 
 1767              		.loc 1 816 0
 1768 038c 8146     		mov	r9, r0
 1769              	.LVL241:
 819:..\..\..\lvgl\version_6.1.2\lvgl\src\lv_objx/lv_table.c ****         w += ext->col_w[i];
 1770              		.loc 1 819 0
 1771 038e 002B     		cmp	r3, #0
 1772 0390 00F04F81 		beq	.L170
 1773 0394 581E     		subs	r0, r3, #1
 1774              	.LVL242:
 1775 0396 80B2     		uxth	r0, r0
 1776 0398 0C30     		adds	r0, r0, #12
 1777 039a 09EB4000 		add	r0, r9, r0, lsl #1
 1778 039e 09F11602 		add	r2, r9, #22
 1779 03a2 0021     		movs	r1, #0
 1780              	.LVL243:
 1781              	.L137:
 820:..\..\..\lvgl\version_6.1.2\lvgl\src\lv_objx/lv_table.c ****     }
 1782              		.loc 1 820 0
 1783 03a4 32F8023F 		ldrh	r3, [r2, #2]!
 1784 03a8 01EB0308 		add	r8, r1, r3
 1785 03ac 1FFA88F8 		uxth	r8, r8
 819:..\..\..\lvgl\version_6.1.2\lvgl\src\lv_objx/lv_table.c ****         w += ext->col_w[i];
 1786              		.loc 1 819 0
 1787 03b0 8242     		cmp	r2, r0
 820:..\..\..\lvgl\version_6.1.2\lvgl\src\lv_objx/lv_table.c ****     }
 1788              		.loc 1 820 0
ARM GAS  C:\Users\pearlstl\AppData\Local\Temp\ccIJtgHD.s 			page 54


 1789 03b2 0FFA88F1 		sxth	r1, r8
 1790              	.LVL244:
 819:..\..\..\lvgl\version_6.1.2\lvgl\src\lv_objx/lv_table.c ****         w += ext->col_w[i];
 1791              		.loc 1 819 0
 1792 03b6 F5D1     		bne	.L137
 1793              	.LVL245:
 1794              	.L136:
 822:..\..\..\lvgl\version_6.1.2\lvgl\src\lv_objx/lv_table.c ****         h += get_row_height(table, i);
 1795              		.loc 1 822 0
 1796 03b8 B9F80200 		ldrh	r0, [r9, #2]
 1797 03bc 0028     		cmp	r0, #0
 1798 03be 00F03681 		beq	.L171
 1799 03c2 0026     		movs	r6, #0
 1800 03c4 3446     		mov	r4, r6
 1801              	.LVL246:
 1802              	.L139:
 823:..\..\..\lvgl\version_6.1.2\lvgl\src\lv_objx/lv_table.c ****     }
 1803              		.loc 1 823 0
 1804 03c6 2146     		mov	r1, r4
 1805 03c8 3846     		mov	r0, r7
 1806 03ca FFF7FEFF 		bl	get_row_height
 1807              	.LVL247:
 822:..\..\..\lvgl\version_6.1.2\lvgl\src\lv_objx/lv_table.c ****         h += get_row_height(table, i);
 1808              		.loc 1 822 0
 1809 03ce 0134     		adds	r4, r4, #1
 1810              	.LVL248:
 1811 03d0 B9F80230 		ldrh	r3, [r9, #2]
 823:..\..\..\lvgl\version_6.1.2\lvgl\src\lv_objx/lv_table.c ****     }
 1812              		.loc 1 823 0
 1813 03d4 3044     		add	r0, r0, r6
 822:..\..\..\lvgl\version_6.1.2\lvgl\src\lv_objx/lv_table.c ****         h += get_row_height(table, i);
 1814              		.loc 1 822 0
 1815 03d6 A4B2     		uxth	r4, r4
 823:..\..\..\lvgl\version_6.1.2\lvgl\src\lv_objx/lv_table.c ****     }
 1816              		.loc 1 823 0
 1817 03d8 1FFA80FA 		uxth	r10, r0
 822:..\..\..\lvgl\version_6.1.2\lvgl\src\lv_objx/lv_table.c ****         h += get_row_height(table, i);
 1818              		.loc 1 822 0
 1819 03dc A342     		cmp	r3, r4
 823:..\..\..\lvgl\version_6.1.2\lvgl\src\lv_objx/lv_table.c ****     }
 1820              		.loc 1 823 0
 1821 03de 0FFA8AF6 		sxth	r6, r10
 1822              	.LVL249:
 822:..\..\..\lvgl\version_6.1.2\lvgl\src\lv_objx/lv_table.c ****         h += get_row_height(table, i);
 1823              		.loc 1 822 0
 1824 03e2 F0D8     		bhi	.L139
 1825              	.LVL250:
 1826              	.L138:
 826:..\..\..\lvgl\version_6.1.2\lvgl\src\lv_objx/lv_table.c **** 
 1827              		.loc 1 826 0
 1828 03e4 3846     		mov	r0, r7
 1829 03e6 FFF7FEFF 		bl	lv_obj_get_style
 1830              	.LVL251:
 1831 03ea 0346     		mov	r3, r0
 1832              	.LVL252:
 831:..\..\..\lvgl\version_6.1.2\lvgl\src\lv_objx/lv_table.c ****     lv_obj_invalidate(table);
 1833              		.loc 1 831 0
ARM GAS  C:\Users\pearlstl\AppData\Local\Temp\ccIJtgHD.s 			page 55


 1834 03ec 3846     		mov	r0, r7
 1835              	.LVL253:
 1836 03ee 1C8C     		ldrh	r4, [r3, #32]
 1837 03f0 5A8C     		ldrh	r2, [r3, #34]
 1838 03f2 998C     		ldrh	r1, [r3, #36]
 1839 03f4 DB8C     		ldrh	r3, [r3, #38]
 1840              	.LVL254:
 1841 03f6 2244     		add	r2, r2, r4
 1842 03f8 1944     		add	r1, r1, r3
 1843 03fa 0132     		adds	r2, r2, #1
 1844 03fc 0131     		adds	r1, r1, #1
 1845 03fe 5244     		add	r2, r2, r10
 1846 0400 4144     		add	r1, r1, r8
 1847 0402 12B2     		sxth	r2, r2
 1848 0404 09B2     		sxth	r1, r1
 1849 0406 FFF7FEFF 		bl	lv_obj_set_size
 1850              	.LVL255:
 832:..\..\..\lvgl\version_6.1.2\lvgl\src\lv_objx/lv_table.c **** }
 1851              		.loc 1 832 0
 1852 040a 3846     		mov	r0, r7
 1853 040c FFF7FEFF 		bl	lv_obj_invalidate
 1854              	.LVL256:
 1855              	.LBE177:
 1856              	.LBE176:
 1857              	.LBE180:
 1858              	.LBE182:
 1859              	.LBB183:
 1860              	.LBB184:
 394:..\..\..\lvgl\version_6.1.2\lvgl\src\lv_objx/lv_table.c **** 
 1861              		.loc 1 394 0
 1862 0410 3846     		mov	r0, r7
 1863              	.LBE184:
 1864              	.LBE183:
  97:..\..\..\lvgl\version_6.1.2\lvgl\src\lv_objx/lv_table.c ****             lv_table_set_style(new_table, LV_TABLE_STYLE_CELL4, th->style.table.cell);
 1865              		.loc 1 97 0
 1866 0412 D5F88C41 		ldr	r4, [r5, #396]
 1867              	.LVL257:
 1868              	.LBB194:
 1869              	.LBB191:
 394:..\..\..\lvgl\version_6.1.2\lvgl\src\lv_objx/lv_table.c **** 
 1870              		.loc 1 394 0
 1871 0416 FFF7FEFF 		bl	lv_obj_get_ext_attr
 1872              	.LVL258:
 410:..\..\..\lvgl\version_6.1.2\lvgl\src\lv_objx/lv_table.c ****             refr_size(table);
 1873              		.loc 1 410 0
 1874 041a 0461     		str	r4, [r0, #16]
 1875              	.LVL259:
 1876              	.LBB185:
 1877              	.LBB186:
 816:..\..\..\lvgl\version_6.1.2\lvgl\src\lv_objx/lv_table.c **** 
 1878              		.loc 1 816 0
 1879 041c 3846     		mov	r0, r7
 1880              	.LVL260:
 1881 041e FFF7FEFF 		bl	lv_obj_get_ext_attr
 1882              	.LVL261:
 819:..\..\..\lvgl\version_6.1.2\lvgl\src\lv_objx/lv_table.c ****         w += ext->col_w[i];
 1883              		.loc 1 819 0
ARM GAS  C:\Users\pearlstl\AppData\Local\Temp\ccIJtgHD.s 			page 56


 1884 0422 0388     		ldrh	r3, [r0]
 816:..\..\..\lvgl\version_6.1.2\lvgl\src\lv_objx/lv_table.c **** 
 1885              		.loc 1 816 0
 1886 0424 8146     		mov	r9, r0
 1887              	.LVL262:
 819:..\..\..\lvgl\version_6.1.2\lvgl\src\lv_objx/lv_table.c ****         w += ext->col_w[i];
 1888              		.loc 1 819 0
 1889 0426 002B     		cmp	r3, #0
 1890 0428 00F0FF80 		beq	.L172
 1891 042c 581E     		subs	r0, r3, #1
 1892              	.LVL263:
 1893 042e 80B2     		uxth	r0, r0
 1894 0430 0C30     		adds	r0, r0, #12
 1895 0432 09EB4000 		add	r0, r9, r0, lsl #1
 1896 0436 09F11602 		add	r2, r9, #22
 1897 043a 0021     		movs	r1, #0
 1898              	.LVL264:
 1899              	.L141:
 820:..\..\..\lvgl\version_6.1.2\lvgl\src\lv_objx/lv_table.c ****     }
 1900              		.loc 1 820 0
 1901 043c 32F8023F 		ldrh	r3, [r2, #2]!
 1902 0440 01EB0308 		add	r8, r1, r3
 1903 0444 1FFA88F8 		uxth	r8, r8
 819:..\..\..\lvgl\version_6.1.2\lvgl\src\lv_objx/lv_table.c ****         w += ext->col_w[i];
 1904              		.loc 1 819 0
 1905 0448 8242     		cmp	r2, r0
 820:..\..\..\lvgl\version_6.1.2\lvgl\src\lv_objx/lv_table.c ****     }
 1906              		.loc 1 820 0
 1907 044a 0FFA88F1 		sxth	r1, r8
 1908              	.LVL265:
 819:..\..\..\lvgl\version_6.1.2\lvgl\src\lv_objx/lv_table.c ****         w += ext->col_w[i];
 1909              		.loc 1 819 0
 1910 044e F5D1     		bne	.L141
 1911              	.LVL266:
 1912              	.L140:
 822:..\..\..\lvgl\version_6.1.2\lvgl\src\lv_objx/lv_table.c ****         h += get_row_height(table, i);
 1913              		.loc 1 822 0
 1914 0450 B9F80200 		ldrh	r0, [r9, #2]
 1915 0454 0028     		cmp	r0, #0
 1916 0456 00F0E280 		beq	.L173
 1917 045a 0026     		movs	r6, #0
 1918 045c 3446     		mov	r4, r6
 1919              	.LVL267:
 1920              	.L143:
 823:..\..\..\lvgl\version_6.1.2\lvgl\src\lv_objx/lv_table.c ****     }
 1921              		.loc 1 823 0
 1922 045e 2146     		mov	r1, r4
 1923 0460 3846     		mov	r0, r7
 1924 0462 FFF7FEFF 		bl	get_row_height
 1925              	.LVL268:
 822:..\..\..\lvgl\version_6.1.2\lvgl\src\lv_objx/lv_table.c ****         h += get_row_height(table, i);
 1926              		.loc 1 822 0
 1927 0466 0134     		adds	r4, r4, #1
 1928              	.LVL269:
 1929 0468 B9F80230 		ldrh	r3, [r9, #2]
 823:..\..\..\lvgl\version_6.1.2\lvgl\src\lv_objx/lv_table.c ****     }
 1930              		.loc 1 823 0
ARM GAS  C:\Users\pearlstl\AppData\Local\Temp\ccIJtgHD.s 			page 57


 1931 046c 3044     		add	r0, r0, r6
 822:..\..\..\lvgl\version_6.1.2\lvgl\src\lv_objx/lv_table.c ****         h += get_row_height(table, i);
 1932              		.loc 1 822 0
 1933 046e A4B2     		uxth	r4, r4
 823:..\..\..\lvgl\version_6.1.2\lvgl\src\lv_objx/lv_table.c ****     }
 1934              		.loc 1 823 0
 1935 0470 1FFA80FA 		uxth	r10, r0
 822:..\..\..\lvgl\version_6.1.2\lvgl\src\lv_objx/lv_table.c ****         h += get_row_height(table, i);
 1936              		.loc 1 822 0
 1937 0474 A342     		cmp	r3, r4
 823:..\..\..\lvgl\version_6.1.2\lvgl\src\lv_objx/lv_table.c ****     }
 1938              		.loc 1 823 0
 1939 0476 0FFA8AF6 		sxth	r6, r10
 1940              	.LVL270:
 822:..\..\..\lvgl\version_6.1.2\lvgl\src\lv_objx/lv_table.c ****         h += get_row_height(table, i);
 1941              		.loc 1 822 0
 1942 047a F0D8     		bhi	.L143
 1943              	.LVL271:
 1944              	.L142:
 826:..\..\..\lvgl\version_6.1.2\lvgl\src\lv_objx/lv_table.c **** 
 1945              		.loc 1 826 0
 1946 047c 3846     		mov	r0, r7
 1947 047e FFF7FEFF 		bl	lv_obj_get_style
 1948              	.LVL272:
 1949 0482 0346     		mov	r3, r0
 1950              	.LVL273:
 831:..\..\..\lvgl\version_6.1.2\lvgl\src\lv_objx/lv_table.c ****     lv_obj_invalidate(table);
 1951              		.loc 1 831 0
 1952 0484 3846     		mov	r0, r7
 1953              	.LVL274:
 1954 0486 1C8C     		ldrh	r4, [r3, #32]
 1955 0488 5A8C     		ldrh	r2, [r3, #34]
 1956 048a 998C     		ldrh	r1, [r3, #36]
 1957 048c DB8C     		ldrh	r3, [r3, #38]
 1958              	.LVL275:
 1959 048e 2244     		add	r2, r2, r4
 1960 0490 1944     		add	r1, r1, r3
 1961 0492 0132     		adds	r2, r2, #1
 1962 0494 0131     		adds	r1, r1, #1
 1963 0496 4144     		add	r1, r1, r8
 1964 0498 5244     		add	r2, r2, r10
 1965 049a 12B2     		sxth	r2, r2
 1966 049c 09B2     		sxth	r1, r1
 1967 049e FFF7FEFF 		bl	lv_obj_set_size
 1968              	.LVL276:
 832:..\..\..\lvgl\version_6.1.2\lvgl\src\lv_objx/lv_table.c **** }
 1969              		.loc 1 832 0
 1970 04a2 3846     		mov	r0, r7
 1971 04a4 FFF7FEFF 		bl	lv_obj_invalidate
 1972              	.LVL277:
 1973              	.LBE186:
 1974              	.LBE185:
 1975              	.LBE191:
 1976              	.LBE194:
 1977              	.LBB195:
 1978              	.LBB196:
 394:..\..\..\lvgl\version_6.1.2\lvgl\src\lv_objx/lv_table.c **** 
ARM GAS  C:\Users\pearlstl\AppData\Local\Temp\ccIJtgHD.s 			page 58


 1979              		.loc 1 394 0
 1980 04a8 3846     		mov	r0, r7
 1981              	.LBE196:
 1982              	.LBE195:
  98:..\..\..\lvgl\version_6.1.2\lvgl\src\lv_objx/lv_table.c ****         } else {
 1983              		.loc 1 98 0
 1984 04aa D5F88C41 		ldr	r4, [r5, #396]
 1985              	.LVL278:
 1986              	.LBB203:
 1987              	.LBB201:
 394:..\..\..\lvgl\version_6.1.2\lvgl\src\lv_objx/lv_table.c **** 
 1988              		.loc 1 394 0
 1989 04ae FFF7FEFF 		bl	lv_obj_get_ext_attr
 1990              	.LVL279:
 414:..\..\..\lvgl\version_6.1.2\lvgl\src\lv_objx/lv_table.c ****             refr_size(table);
 1991              		.loc 1 414 0
 1992 04b2 4461     		str	r4, [r0, #20]
 1993              	.LVL280:
 1994              	.LBB197:
 1995              	.LBB198:
 816:..\..\..\lvgl\version_6.1.2\lvgl\src\lv_objx/lv_table.c **** 
 1996              		.loc 1 816 0
 1997 04b4 3846     		mov	r0, r7
 1998              	.LVL281:
 1999 04b6 FFF7FEFF 		bl	lv_obj_get_ext_attr
 2000              	.LVL282:
 819:..\..\..\lvgl\version_6.1.2\lvgl\src\lv_objx/lv_table.c ****         w += ext->col_w[i];
 2001              		.loc 1 819 0
 2002 04ba 0488     		ldrh	r4, [r0]
 2003              	.LVL283:
 816:..\..\..\lvgl\version_6.1.2\lvgl\src\lv_objx/lv_table.c **** 
 2004              		.loc 1 816 0
 2005 04bc 8046     		mov	r8, r0
 2006              	.LVL284:
 819:..\..\..\lvgl\version_6.1.2\lvgl\src\lv_objx/lv_table.c ****         w += ext->col_w[i];
 2007              		.loc 1 819 0
 2008 04be 74B1     		cbz	r4, .L144
 2009 04c0 601E     		subs	r0, r4, #1
 2010              	.LVL285:
 2011 04c2 80B2     		uxth	r0, r0
 2012 04c4 0C30     		adds	r0, r0, #12
 2013 04c6 08EB4000 		add	r0, r8, r0, lsl #1
 2014 04ca 08F11602 		add	r2, r8, #22
 2015 04ce 0021     		movs	r1, #0
 2016              	.LVL286:
 2017              	.L145:
 820:..\..\..\lvgl\version_6.1.2\lvgl\src\lv_objx/lv_table.c ****     }
 2018              		.loc 1 820 0
 2019 04d0 32F8023F 		ldrh	r3, [r2, #2]!
 2020 04d4 CC18     		adds	r4, r1, r3
 2021 04d6 A4B2     		uxth	r4, r4
 819:..\..\..\lvgl\version_6.1.2\lvgl\src\lv_objx/lv_table.c ****         w += ext->col_w[i];
 2022              		.loc 1 819 0
 2023 04d8 8242     		cmp	r2, r0
 820:..\..\..\lvgl\version_6.1.2\lvgl\src\lv_objx/lv_table.c ****     }
 2024              		.loc 1 820 0
 2025 04da 21B2     		sxth	r1, r4
ARM GAS  C:\Users\pearlstl\AppData\Local\Temp\ccIJtgHD.s 			page 59


 2026              	.LVL287:
 819:..\..\..\lvgl\version_6.1.2\lvgl\src\lv_objx/lv_table.c ****         w += ext->col_w[i];
 2027              		.loc 1 819 0
 2028 04dc F8D1     		bne	.L145
 2029              	.LVL288:
 2030              	.L144:
 822:..\..\..\lvgl\version_6.1.2\lvgl\src\lv_objx/lv_table.c ****         h += get_row_height(table, i);
 2031              		.loc 1 822 0
 2032 04de B8F80200 		ldrh	r0, [r8, #2]
 2033 04e2 0028     		cmp	r0, #0
 2034 04e4 00F09980 		beq	.L175
 2035 04e8 0026     		movs	r6, #0
 2036 04ea 3546     		mov	r5, r6
 2037              	.LVL289:
 2038              	.L147:
 823:..\..\..\lvgl\version_6.1.2\lvgl\src\lv_objx/lv_table.c ****     }
 2039              		.loc 1 823 0
 2040 04ec 2946     		mov	r1, r5
 2041 04ee 3846     		mov	r0, r7
 2042 04f0 FFF7FEFF 		bl	get_row_height
 2043              	.LVL290:
 822:..\..\..\lvgl\version_6.1.2\lvgl\src\lv_objx/lv_table.c ****         h += get_row_height(table, i);
 2044              		.loc 1 822 0
 2045 04f4 0135     		adds	r5, r5, #1
 2046              	.LVL291:
 2047 04f6 B8F80230 		ldrh	r3, [r8, #2]
 823:..\..\..\lvgl\version_6.1.2\lvgl\src\lv_objx/lv_table.c ****     }
 2048              		.loc 1 823 0
 2049 04fa 3044     		add	r0, r0, r6
 822:..\..\..\lvgl\version_6.1.2\lvgl\src\lv_objx/lv_table.c ****         h += get_row_height(table, i);
 2050              		.loc 1 822 0
 2051 04fc ADB2     		uxth	r5, r5
 823:..\..\..\lvgl\version_6.1.2\lvgl\src\lv_objx/lv_table.c ****     }
 2052              		.loc 1 823 0
 2053 04fe 1FFA80F9 		uxth	r9, r0
 822:..\..\..\lvgl\version_6.1.2\lvgl\src\lv_objx/lv_table.c ****         h += get_row_height(table, i);
 2054              		.loc 1 822 0
 2055 0502 AB42     		cmp	r3, r5
 823:..\..\..\lvgl\version_6.1.2\lvgl\src\lv_objx/lv_table.c ****     }
 2056              		.loc 1 823 0
 2057 0504 0FFA89F6 		sxth	r6, r9
 2058              	.LVL292:
 822:..\..\..\lvgl\version_6.1.2\lvgl\src\lv_objx/lv_table.c ****         h += get_row_height(table, i);
 2059              		.loc 1 822 0
 2060 0508 F0D8     		bhi	.L147
 2061              	.LVL293:
 2062              	.L146:
 826:..\..\..\lvgl\version_6.1.2\lvgl\src\lv_objx/lv_table.c **** 
 2063              		.loc 1 826 0
 2064 050a 3846     		mov	r0, r7
 2065 050c FFF7FEFF 		bl	lv_obj_get_style
 2066              	.LVL294:
 2067 0510 0346     		mov	r3, r0
 2068              	.LVL295:
 831:..\..\..\lvgl\version_6.1.2\lvgl\src\lv_objx/lv_table.c ****     lv_obj_invalidate(table);
 2069              		.loc 1 831 0
 2070 0512 3846     		mov	r0, r7
ARM GAS  C:\Users\pearlstl\AppData\Local\Temp\ccIJtgHD.s 			page 60


 2071              	.LVL296:
 2072 0514 1D8C     		ldrh	r5, [r3, #32]
 2073 0516 5A8C     		ldrh	r2, [r3, #34]
 2074 0518 998C     		ldrh	r1, [r3, #36]
 2075 051a DB8C     		ldrh	r3, [r3, #38]
 2076              	.LVL297:
 2077 051c 2A44     		add	r2, r2, r5
 2078 051e 1944     		add	r1, r1, r3
 2079 0520 0132     		adds	r2, r2, #1
 2080 0522 0131     		adds	r1, r1, #1
 2081 0524 4A44     		add	r2, r2, r9
 2082              	.LVL298:
 2083              	.L214:
 2084              	.LBE198:
 2085              	.LBE197:
 2086              	.LBE201:
 2087              	.LBE203:
 2088              	.LBB204:
 2089              	.LBB205:
 2090              	.LBB206:
 2091              	.LBB207:
 2092              	.LBB208:
 2093              	.LBB209:
 2094 0526 2144     		add	r1, r1, r4
 2095 0528 12B2     		sxth	r2, r2
 2096 052a 09B2     		sxth	r1, r1
 2097 052c FFF7FEFF 		bl	lv_obj_set_size
 2098              	.LVL299:
 832:..\..\..\lvgl\version_6.1.2\lvgl\src\lv_objx/lv_table.c **** }
 2099              		.loc 1 832 0
 2100 0530 3846     		mov	r0, r7
 2101 0532 FFF7FEFF 		bl	lv_obj_invalidate
 2102              	.LVL300:
 2103              	.LBE209:
 2104              	.LBE208:
 2105              	.LBE207:
 2106              	.LBE206:
 2107              	.LBE205:
 2108              	.LBE204:
 102:..\..\..\lvgl\version_6.1.2\lvgl\src\lv_objx/lv_table.c ****     }
 2109              		.loc 1 102 0
 2110 0536 3846     		mov	r0, r7
 2111 0538 0021     		movs	r1, #0
 2112 053a FFF7FEFF 		bl	lv_obj_set_click
 2113              	.LVL301:
 2114              	.LBE145:
 2115 053e 3846     		mov	r0, r7
 2116 0540 BDE8F087 		pop	{r4, r5, r6, r7, r8, r9, r10, pc}
 2117              	.LVL302:
 2118              	.L179:
 2119              	.LBB230:
 2120              	.LBB141:
 2121              	.LBB124:
 2122              	.LBB121:
 2123              	.LBB119:
 822:..\..\..\lvgl\version_6.1.2\lvgl\src\lv_objx/lv_table.c ****         h += get_row_height(table, i);
 2124              		.loc 1 822 0
ARM GAS  C:\Users\pearlstl\AppData\Local\Temp\ccIJtgHD.s 			page 61


 2125 0544 8246     		mov	r10, r0
 2126 0546 DFE5     		b	.L157
 2127              	.LVL303:
 2128              	.L123:
 2129              	.LBE119:
 2130              	.LBE121:
 2131              	.LBE124:
 2132              	.LBE141:
 2133              	.LBE230:
  62:..\..\..\lvgl\version_6.1.2\lvgl\src\lv_objx/lv_table.c **** 
 2134              		.loc 1 62 0
 2135 0548 0020     		movs	r0, #0
 2136 054a BDE8F087 		pop	{r4, r5, r6, r7, r8, r9, r10, pc}
 2137              	.LVL304:
 2138              	.L215:
  68:..\..\..\lvgl\version_6.1.2\lvgl\src\lv_objx/lv_table.c ****     if(ancestor_scrl_design == NULL) ancestor_scrl_design = lv_obj_get_design_cb(new_table);
 2139              		.loc 1 68 0 discriminator 1
 2140 054e 3846     		mov	r0, r7
 2141              	.LVL305:
 2142 0550 FFF7FEFF 		bl	lv_obj_get_signal_cb
 2143              	.LVL306:
 2144 0554 2860     		str	r0, [r5]
 2145 0556 68E5     		b	.L124
 2146              	.L216:
  69:..\..\..\lvgl\version_6.1.2\lvgl\src\lv_objx/lv_table.c **** 
 2147              		.loc 1 69 0 discriminator 1
 2148 0558 3846     		mov	r0, r7
 2149 055a FFF7FEFF 		bl	lv_obj_get_design_cb
 2150              	.LVL307:
 2151 055e 6860     		str	r0, [r5, #4]
 2152 0560 68E5     		b	.L125
 2153              	.LVL308:
 2154              	.L220:
 2155              	.LBB231:
 2156              	.LBB142:
 2157              	.LBB138:
 2158              	.LBB136:
 2159              	.LBB135:
 224:..\..\..\lvgl\version_6.1.2\lvgl\src\lv_objx/lv_table.c ****         /*Initilize the new fields*/
 2160              		.loc 1 224 0
 2161 0562 04FB03F1 		mul	r1, r4, r3
 2162 0566 8900     		lsls	r1, r1, #2
 2163 0568 4068     		ldr	r0, [r0, #4]
 2164              	.LVL309:
 2165 056a FFF7FEFF 		bl	lv_mem_realloc
 2166              	.LVL310:
 226:..\..\..\lvgl\version_6.1.2\lvgl\src\lv_objx/lv_table.c ****             uint16_t old_cell_cnt = old_col_cnt * ext->row_cnt;
 2167              		.loc 1 226 0
 2168 056e B442     		cmp	r4, r6
 224:..\..\..\lvgl\version_6.1.2\lvgl\src\lv_objx/lv_table.c ****         /*Initilize the new fields*/
 2169              		.loc 1 224 0
 2170 0570 6860     		str	r0, [r5, #4]
 226:..\..\..\lvgl\version_6.1.2\lvgl\src\lv_objx/lv_table.c ****             uint16_t old_cell_cnt = old_col_cnt * ext->row_cnt;
 2171              		.loc 1 226 0
 2172 0572 7FF6F9AD 		bls	.L161
 2173              	.LBB133:
 227:..\..\..\lvgl\version_6.1.2\lvgl\src\lv_objx/lv_table.c ****             uint32_t new_cell_cnt = ext->col_cnt * ext->row_cnt;
ARM GAS  C:\Users\pearlstl\AppData\Local\Temp\ccIJtgHD.s 			page 62


 2174              		.loc 1 227 0
 2175 0576 6A88     		ldrh	r2, [r5, #2]
 2176              	.LVL311:
 229:..\..\..\lvgl\version_6.1.2\lvgl\src\lv_objx/lv_table.c ****         }
 2177              		.loc 1 229 0
 2178 0578 2988     		ldrh	r1, [r5]
 2179 057a 16FB02F3 		smulbb	r3, r6, r2
 2180 057e 9BB2     		uxth	r3, r3
 2181 0580 02FB01F2 		mul	r2, r2, r1
 2182              	.LVL312:
 2183 0584 D21A     		subs	r2, r2, r3
 2184 0586 00EB8300 		add	r0, r0, r3, lsl #2
 2185 058a 9200     		lsls	r2, r2, #2
 2186 058c 0021     		movs	r1, #0
 2187 058e FFF7FEFF 		bl	memset
 2188              	.LVL313:
 2189 0592 E9E5     		b	.L161
 2190              	.LVL314:
 2191              	.L181:
 2192              	.LBE133:
 2193              	.LBB134:
 2194              	.LBB132:
 822:..\..\..\lvgl\version_6.1.2\lvgl\src\lv_objx/lv_table.c ****         h += get_row_height(table, i);
 2195              		.loc 1 822 0
 2196 0594 8146     		mov	r9, r0
 2197              	.LVL315:
 2198 0596 12E6     		b	.L164
 2199              	.LVL316:
 2200              	.L127:
 2201              	.LBE132:
 2202              	.LBE134:
 2203              	.LBE135:
 2204              	.LBE136:
 2205              	.LBE138:
 2206              	.LBE142:
 2207              	.LBE231:
 2208              	.LBB232:
 2209              	.LBB220:
 2210              	.LBB218:
 394:..\..\..\lvgl\version_6.1.2\lvgl\src\lv_objx/lv_table.c **** 
 2211              		.loc 1 394 0
 2212 0598 3846     		mov	r0, r7
 2213              	.LVL317:
 2214 059a FFF7FEFF 		bl	lv_obj_get_ext_attr
 2215              	.LVL318:
 2216              	.LBB216:
 2217              	.LBB214:
 398:..\..\..\lvgl\version_6.1.2\lvgl\src\lv_objx/lv_table.c ****             refr_size(table);
 2218              		.loc 1 398 0
 2219 059e 2949     		ldr	r1, .L223
 2220 05a0 3846     		mov	r0, r7
 2221 05a2 FFF7FEFF 		bl	lv_obj_set_style
 2222              	.LVL319:
 2223              	.LBB212:
 2224              	.LBB210:
 816:..\..\..\lvgl\version_6.1.2\lvgl\src\lv_objx/lv_table.c **** 
 2225              		.loc 1 816 0
ARM GAS  C:\Users\pearlstl\AppData\Local\Temp\ccIJtgHD.s 			page 63


 2226 05a6 3846     		mov	r0, r7
 2227 05a8 FFF7FEFF 		bl	lv_obj_get_ext_attr
 2228              	.LVL320:
 819:..\..\..\lvgl\version_6.1.2\lvgl\src\lv_objx/lv_table.c ****         w += ext->col_w[i];
 2229              		.loc 1 819 0
 2230 05ac 0388     		ldrh	r3, [r0]
 816:..\..\..\lvgl\version_6.1.2\lvgl\src\lv_objx/lv_table.c **** 
 2231              		.loc 1 816 0
 2232 05ae 8146     		mov	r9, r0
 2233              	.LVL321:
 819:..\..\..\lvgl\version_6.1.2\lvgl\src\lv_objx/lv_table.c ****         w += ext->col_w[i];
 2234              		.loc 1 819 0
 2235 05b0 002B     		cmp	r3, #0
 2236 05b2 44D0     		beq	.L176
 2237 05b4 591E     		subs	r1, r3, #1
 2238 05b6 89B2     		uxth	r1, r1
 2239 05b8 0C31     		adds	r1, r1, #12
 2240 05ba 00EB4101 		add	r1, r0, r1, lsl #1
 2241 05be 00F11602 		add	r2, r0, #22
 2242              	.LVL322:
 2243              	.L150:
 820:..\..\..\lvgl\version_6.1.2\lvgl\src\lv_objx/lv_table.c ****     }
 2244              		.loc 1 820 0
 2245 05c2 32F8023F 		ldrh	r3, [r2, #2]!
 2246 05c6 1E44     		add	r6, r6, r3
 2247              	.LVL323:
 2248 05c8 B4B2     		uxth	r4, r6
 819:..\..\..\lvgl\version_6.1.2\lvgl\src\lv_objx/lv_table.c ****         w += ext->col_w[i];
 2249              		.loc 1 819 0
 2250 05ca 8A42     		cmp	r2, r1
 820:..\..\..\lvgl\version_6.1.2\lvgl\src\lv_objx/lv_table.c ****     }
 2251              		.loc 1 820 0
 2252 05cc 26B2     		sxth	r6, r4
 2253              	.LVL324:
 819:..\..\..\lvgl\version_6.1.2\lvgl\src\lv_objx/lv_table.c ****         w += ext->col_w[i];
 2254              		.loc 1 819 0
 2255 05ce F8D1     		bne	.L150
 2256              	.LVL325:
 2257              	.L149:
 822:..\..\..\lvgl\version_6.1.2\lvgl\src\lv_objx/lv_table.c ****         h += get_row_height(table, i);
 2258              		.loc 1 822 0
 2259 05d0 B9F80200 		ldrh	r0, [r9, #2]
 2260              	.LVL326:
 2261 05d4 88B3     		cbz	r0, .L177
 2262 05d6 0026     		movs	r6, #0
 2263 05d8 3546     		mov	r5, r6
 2264              	.LVL327:
 2265              	.L152:
 823:..\..\..\lvgl\version_6.1.2\lvgl\src\lv_objx/lv_table.c ****     }
 2266              		.loc 1 823 0
 2267 05da 2946     		mov	r1, r5
 2268 05dc 3846     		mov	r0, r7
 2269 05de FFF7FEFF 		bl	get_row_height
 2270              	.LVL328:
 822:..\..\..\lvgl\version_6.1.2\lvgl\src\lv_objx/lv_table.c ****         h += get_row_height(table, i);
 2271              		.loc 1 822 0
 2272 05e2 0135     		adds	r5, r5, #1
ARM GAS  C:\Users\pearlstl\AppData\Local\Temp\ccIJtgHD.s 			page 64


 2273              	.LVL329:
 2274 05e4 B9F80230 		ldrh	r3, [r9, #2]
 823:..\..\..\lvgl\version_6.1.2\lvgl\src\lv_objx/lv_table.c ****     }
 2275              		.loc 1 823 0
 2276 05e8 3044     		add	r0, r0, r6
 822:..\..\..\lvgl\version_6.1.2\lvgl\src\lv_objx/lv_table.c ****         h += get_row_height(table, i);
 2277              		.loc 1 822 0
 2278 05ea ADB2     		uxth	r5, r5
 823:..\..\..\lvgl\version_6.1.2\lvgl\src\lv_objx/lv_table.c ****     }
 2279              		.loc 1 823 0
 2280 05ec 1FFA80F8 		uxth	r8, r0
 822:..\..\..\lvgl\version_6.1.2\lvgl\src\lv_objx/lv_table.c ****         h += get_row_height(table, i);
 2281              		.loc 1 822 0
 2282 05f0 AB42     		cmp	r3, r5
 823:..\..\..\lvgl\version_6.1.2\lvgl\src\lv_objx/lv_table.c ****     }
 2283              		.loc 1 823 0
 2284 05f2 0FFA88F6 		sxth	r6, r8
 2285              	.LVL330:
 822:..\..\..\lvgl\version_6.1.2\lvgl\src\lv_objx/lv_table.c ****         h += get_row_height(table, i);
 2286              		.loc 1 822 0
 2287 05f6 F0D8     		bhi	.L152
 2288              	.LVL331:
 2289              	.L151:
 826:..\..\..\lvgl\version_6.1.2\lvgl\src\lv_objx/lv_table.c **** 
 2290              		.loc 1 826 0
 2291 05f8 3846     		mov	r0, r7
 2292 05fa FFF7FEFF 		bl	lv_obj_get_style
 2293              	.LVL332:
 2294 05fe 0346     		mov	r3, r0
 2295              	.LVL333:
 831:..\..\..\lvgl\version_6.1.2\lvgl\src\lv_objx/lv_table.c ****     lv_obj_invalidate(table);
 2296              		.loc 1 831 0
 2297 0600 3846     		mov	r0, r7
 2298              	.LVL334:
 2299 0602 1D8C     		ldrh	r5, [r3, #32]
 2300 0604 5A8C     		ldrh	r2, [r3, #34]
 2301 0606 998C     		ldrh	r1, [r3, #36]
 2302 0608 DB8C     		ldrh	r3, [r3, #38]
 2303              	.LVL335:
 2304 060a 2A44     		add	r2, r2, r5
 2305 060c 1944     		add	r1, r1, r3
 2306 060e 0132     		adds	r2, r2, #1
 2307 0610 0131     		adds	r1, r1, #1
 2308 0612 4244     		add	r2, r2, r8
 2309 0614 87E7     		b	.L214
 2310              	.LVL336:
 2311              	.L166:
 2312              	.LBE210:
 2313              	.LBE212:
 2314              	.LBE214:
 2315              	.LBE216:
 2316              	.LBE218:
 2317              	.LBE220:
 2318              	.LBB221:
 2319              	.LBB160:
 2320              	.LBB158:
 2321              	.LBB156:
ARM GAS  C:\Users\pearlstl\AppData\Local\Temp\ccIJtgHD.s 			page 65


 2322              	.LBB154:
 2323              	.LBB152:
 819:..\..\..\lvgl\version_6.1.2\lvgl\src\lv_objx/lv_table.c ****         w += ext->col_w[i];
 2324              		.loc 1 819 0
 2325 0616 B046     		mov	r8, r6
 2326 0618 36E6     		b	.L128
 2327              	.LVL337:
 2328              	.L175:
 2329              	.LBE152:
 2330              	.LBE154:
 2331              	.LBE156:
 2332              	.LBE158:
 2333              	.LBE160:
 2334              	.LBE221:
 2335              	.LBB222:
 2336              	.LBB202:
 2337              	.LBB200:
 2338              	.LBB199:
 822:..\..\..\lvgl\version_6.1.2\lvgl\src\lv_objx/lv_table.c ****         h += get_row_height(table, i);
 2339              		.loc 1 822 0
 2340 061a 8146     		mov	r9, r0
 2341 061c 75E7     		b	.L146
 2342              	.LVL338:
 2343              	.L173:
 2344              	.LBE199:
 2345              	.LBE200:
 2346              	.LBE202:
 2347              	.LBE222:
 2348              	.LBB223:
 2349              	.LBB192:
 2350              	.LBB189:
 2351              	.LBB187:
 2352 061e 8246     		mov	r10, r0
 2353 0620 2CE7     		b	.L142
 2354              	.LVL339:
 2355              	.L168:
 2356              	.LBE187:
 2357              	.LBE189:
 2358              	.LBE192:
 2359              	.LBE223:
 2360              	.LBB224:
 2361              	.LBB171:
 2362              	.LBB168:
 2363              	.LBB166:
 819:..\..\..\lvgl\version_6.1.2\lvgl\src\lv_objx/lv_table.c ****         w += ext->col_w[i];
 2364              		.loc 1 819 0
 2365 0622 9846     		mov	r8, r3
 2366 0624 7CE6     		b	.L132
 2367              	.LVL340:
 2368              	.L167:
 2369              	.LBE166:
 2370              	.LBE168:
 2371              	.LBE171:
 2372              	.LBE224:
 2373              	.LBB225:
 2374              	.LBB161:
 2375              	.LBB159:
ARM GAS  C:\Users\pearlstl\AppData\Local\Temp\ccIJtgHD.s 			page 66


 2376              	.LBB157:
 2377              	.LBB155:
 2378              	.LBB153:
 822:..\..\..\lvgl\version_6.1.2\lvgl\src\lv_objx/lv_table.c ****         h += get_row_height(table, i);
 2379              		.loc 1 822 0
 2380 0626 8246     		mov	r10, r0
 2381 0628 44E6     		b	.L130
 2382              	.LVL341:
 2383              	.L172:
 2384              	.LBE153:
 2385              	.LBE155:
 2386              	.LBE157:
 2387              	.LBE159:
 2388              	.LBE161:
 2389              	.LBE225:
 2390              	.LBB226:
 2391              	.LBB193:
 2392              	.LBB190:
 2393              	.LBB188:
 819:..\..\..\lvgl\version_6.1.2\lvgl\src\lv_objx/lv_table.c ****         w += ext->col_w[i];
 2394              		.loc 1 819 0
 2395 062a 9846     		mov	r8, r3
 2396 062c 10E7     		b	.L140
 2397              	.LVL342:
 2398              	.L171:
 2399              	.LBE188:
 2400              	.LBE190:
 2401              	.LBE193:
 2402              	.LBE226:
 2403              	.LBB227:
 2404              	.LBB181:
 2405              	.LBB179:
 2406              	.LBB178:
 822:..\..\..\lvgl\version_6.1.2\lvgl\src\lv_objx/lv_table.c ****         h += get_row_height(table, i);
 2407              		.loc 1 822 0
 2408 062e 8246     		mov	r10, r0
 2409 0630 D8E6     		b	.L138
 2410              	.LVL343:
 2411              	.L170:
 819:..\..\..\lvgl\version_6.1.2\lvgl\src\lv_objx/lv_table.c ****         w += ext->col_w[i];
 2412              		.loc 1 819 0
 2413 0632 9846     		mov	r8, r3
 2414 0634 C0E6     		b	.L136
 2415              	.LVL344:
 2416              	.L169:
 2417              	.LBE178:
 2418              	.LBE179:
 2419              	.LBE181:
 2420              	.LBE227:
 2421              	.LBB228:
 2422              	.LBB172:
 2423              	.LBB169:
 2424              	.LBB167:
 822:..\..\..\lvgl\version_6.1.2\lvgl\src\lv_objx/lv_table.c ****         h += get_row_height(table, i);
 2425              		.loc 1 822 0
 2426 0636 8246     		mov	r10, r0
 2427 0638 88E6     		b	.L134
ARM GAS  C:\Users\pearlstl\AppData\Local\Temp\ccIJtgHD.s 			page 67


 2428              	.LVL345:
 2429              	.L177:
 2430              	.LBE167:
 2431              	.LBE169:
 2432              	.LBE172:
 2433              	.LBE228:
 2434              	.LBB229:
 2435              	.LBB219:
 2436              	.LBB217:
 2437              	.LBB215:
 2438              	.LBB213:
 2439              	.LBB211:
 2440 063a 8046     		mov	r8, r0
 2441 063c DCE7     		b	.L151
 2442              	.LVL346:
 2443              	.L176:
 819:..\..\..\lvgl\version_6.1.2\lvgl\src\lv_objx/lv_table.c ****         w += ext->col_w[i];
 2444              		.loc 1 819 0
 2445 063e 3446     		mov	r4, r6
 2446              	.LVL347:
 2447 0640 C6E7     		b	.L149
 2448              	.L224:
 2449 0642 00BF     		.align	2
 2450              	.L223:
 2451 0644 00000000 		.word	lv_style_plain_color
 2452              	.LBE211:
 2453              	.LBE213:
 2454              	.LBE215:
 2455              	.LBE217:
 2456              	.LBE219:
 2457              	.LBE229:
 2458              	.LBE232:
 2459              		.cfi_endproc
 2460              	.LFE33:
 2461              		.size	lv_table_create, .-lv_table_create
 2462              		.section	.text.lv_table_set_cell_value,"ax",%progbits
 2463              		.align	2
 2464              		.global	lv_table_set_cell_value
 2465              		.thumb
 2466              		.thumb_func
 2467              		.type	lv_table_set_cell_value, %function
 2468              	lv_table_set_cell_value:
 2469              	.LFB34:
 136:..\..\..\lvgl\version_6.1.2\lvgl\src\lv_objx/lv_table.c ****     LV_ASSERT_OBJ(table, LV_OBJX_NAME);
 2470              		.loc 1 136 0
 2471              		.cfi_startproc
 2472              		@ args = 0, pretend = 0, frame = 0
 2473              		@ frame_needed = 0, uses_anonymous_args = 0
 2474              	.LVL348:
 2475 0000 2DE9F047 		push	{r4, r5, r6, r7, r8, r9, r10, lr}
 2476              		.cfi_def_cfa_offset 32
 2477              		.cfi_offset 4, -32
 2478              		.cfi_offset 5, -28
 2479              		.cfi_offset 6, -24
 2480              		.cfi_offset 7, -20
 2481              		.cfi_offset 8, -16
 2482              		.cfi_offset 9, -12
ARM GAS  C:\Users\pearlstl\AppData\Local\Temp\ccIJtgHD.s 			page 68


 2483              		.cfi_offset 10, -8
 2484              		.cfi_offset 14, -4
 136:..\..\..\lvgl\version_6.1.2\lvgl\src\lv_objx/lv_table.c ****     LV_ASSERT_OBJ(table, LV_OBJX_NAME);
 2485              		.loc 1 136 0
 2486 0004 0C46     		mov	r4, r1
 2487 0006 9846     		mov	r8, r3
 2488 0008 1646     		mov	r6, r2
 2489 000a 0746     		mov	r7, r0
 140:..\..\..\lvgl\version_6.1.2\lvgl\src\lv_objx/lv_table.c ****     if(row >= ext->row_cnt || col >= ext->col_cnt) {
 2490              		.loc 1 140 0
 2491 000c FFF7FEFF 		bl	lv_obj_get_ext_attr
 2492              	.LVL349:
 141:..\..\..\lvgl\version_6.1.2\lvgl\src\lv_objx/lv_table.c ****         LV_LOG_WARN("lv_table_set_cell_value: invalid row or column");
 2493              		.loc 1 141 0
 2494 0010 4388     		ldrh	r3, [r0, #2]
 2495 0012 A342     		cmp	r3, r4
 2496 0014 63D9     		bls	.L225
 141:..\..\..\lvgl\version_6.1.2\lvgl\src\lv_objx/lv_table.c ****         LV_LOG_WARN("lv_table_set_cell_value: invalid row or column");
 2497              		.loc 1 141 0 is_stmt 0 discriminator 1
 2498 0016 0288     		ldrh	r2, [r0]
 2499 0018 B242     		cmp	r2, r6
 2500 001a 0546     		mov	r5, r0
 2501 001c 5FD9     		bls	.L225
 2502              	.LVL350:
 149:..\..\..\lvgl\version_6.1.2\lvgl\src\lv_objx/lv_table.c ****         format.format_byte = ext->cell_data[cell][0];
 2503              		.loc 1 149 0 is_stmt 1
 2504 001e 02FB0464 		mla	r4, r2, r4, r6
 2505              	.LVL351:
 2506 0022 D0F80490 		ldr	r9, [r0, #4]
 2507 0026 59F82460 		ldr	r6, [r9, r4, lsl #2]
 2508 002a 002E     		cmp	r6, #0
 2509 002c 59D0     		beq	.L227
 150:..\..\..\lvgl\version_6.1.2\lvgl\src\lv_objx/lv_table.c ****     }
 2510              		.loc 1 150 0
 2511 002e 96F800A0 		ldrb	r10, [r6]	@ zero_extendqisi2
 2512              	.L228:
 168:..\..\..\lvgl\version_6.1.2\lvgl\src\lv_objx/lv_table.c ****     strcpy(ext->cell_data[cell] + 1, txt);  /*+1 to skip the format byte*/
 2513              		.loc 1 168 0
 2514 0032 4046     		mov	r0, r8
 2515              	.LVL352:
 2516 0034 FFF7FEFF 		bl	strlen
 2517              	.LVL353:
 2518 0038 811C     		adds	r1, r0, #2
 2519 003a 3046     		mov	r0, r6
 2520 003c FFF7FEFF 		bl	lv_mem_realloc
 2521              	.LVL354:
 2522 0040 49F82400 		str	r0, [r9, r4, lsl #2]
 169:..\..\..\lvgl\version_6.1.2\lvgl\src\lv_objx/lv_table.c **** 
 2523              		.loc 1 169 0
 2524 0044 6B68     		ldr	r3, [r5, #4]
 2525 0046 53F82400 		ldr	r0, [r3, r4, lsl #2]
 2526 004a 4146     		mov	r1, r8
 2527 004c 0130     		adds	r0, r0, #1
 2528 004e FFF7FEFF 		bl	strcpy
 2529              	.LVL355:
 171:..\..\..\lvgl\version_6.1.2\lvgl\src\lv_objx/lv_table.c ****     refr_size(table);
 2530              		.loc 1 171 0
ARM GAS  C:\Users\pearlstl\AppData\Local\Temp\ccIJtgHD.s 			page 69


 2531 0052 6B68     		ldr	r3, [r5, #4]
 2532 0054 53F82430 		ldr	r3, [r3, r4, lsl #2]
 2533              	.LBB235:
 2534              	.LBB236:
 816:..\..\..\lvgl\version_6.1.2\lvgl\src\lv_objx/lv_table.c **** 
 2535              		.loc 1 816 0
 2536 0058 3846     		mov	r0, r7
 2537              	.LBE236:
 2538              	.LBE235:
 171:..\..\..\lvgl\version_6.1.2\lvgl\src\lv_objx/lv_table.c ****     refr_size(table);
 2539              		.loc 1 171 0
 2540 005a 83F800A0 		strb	r10, [r3]
 2541              	.LVL356:
 2542              	.LBB240:
 2543              	.LBB237:
 816:..\..\..\lvgl\version_6.1.2\lvgl\src\lv_objx/lv_table.c **** 
 2544              		.loc 1 816 0
 2545 005e FFF7FEFF 		bl	lv_obj_get_ext_attr
 2546              	.LVL357:
 819:..\..\..\lvgl\version_6.1.2\lvgl\src\lv_objx/lv_table.c ****         w += ext->col_w[i];
 2547              		.loc 1 819 0
 2548 0062 0488     		ldrh	r4, [r0]
 816:..\..\..\lvgl\version_6.1.2\lvgl\src\lv_objx/lv_table.c **** 
 2549              		.loc 1 816 0
 2550 0064 8046     		mov	r8, r0
 2551              	.LVL358:
 819:..\..\..\lvgl\version_6.1.2\lvgl\src\lv_objx/lv_table.c ****         w += ext->col_w[i];
 2552              		.loc 1 819 0
 2553 0066 74B1     		cbz	r4, .L229
 2554 0068 601E     		subs	r0, r4, #1
 2555              	.LVL359:
 2556 006a 80B2     		uxth	r0, r0
 2557 006c 0C30     		adds	r0, r0, #12
 2558 006e 08EB4000 		add	r0, r8, r0, lsl #1
 2559 0072 08F11602 		add	r2, r8, #22
 2560 0076 0021     		movs	r1, #0
 2561              	.LVL360:
 2562              	.L230:
 820:..\..\..\lvgl\version_6.1.2\lvgl\src\lv_objx/lv_table.c ****     }
 2563              		.loc 1 820 0
 2564 0078 32F8023F 		ldrh	r3, [r2, #2]!
 2565 007c CC18     		adds	r4, r1, r3
 2566 007e A4B2     		uxth	r4, r4
 819:..\..\..\lvgl\version_6.1.2\lvgl\src\lv_objx/lv_table.c ****         w += ext->col_w[i];
 2567              		.loc 1 819 0
 2568 0080 9042     		cmp	r0, r2
 820:..\..\..\lvgl\version_6.1.2\lvgl\src\lv_objx/lv_table.c ****     }
 2569              		.loc 1 820 0
 2570 0082 21B2     		sxth	r1, r4
 2571              	.LVL361:
 819:..\..\..\lvgl\version_6.1.2\lvgl\src\lv_objx/lv_table.c ****         w += ext->col_w[i];
 2572              		.loc 1 819 0
 2573 0084 F8D1     		bne	.L230
 2574              	.LVL362:
 2575              	.L229:
 822:..\..\..\lvgl\version_6.1.2\lvgl\src\lv_objx/lv_table.c ****         h += get_row_height(table, i);
 2576              		.loc 1 822 0
ARM GAS  C:\Users\pearlstl\AppData\Local\Temp\ccIJtgHD.s 			page 70


 2577 0086 B8F80200 		ldrh	r0, [r8, #2]
 2578 008a B8B3     		cbz	r0, .L234
 2579 008c 0026     		movs	r6, #0
 2580 008e 3546     		mov	r5, r6
 2581              	.LVL363:
 2582              	.L232:
 823:..\..\..\lvgl\version_6.1.2\lvgl\src\lv_objx/lv_table.c ****     }
 2583              		.loc 1 823 0
 2584 0090 2946     		mov	r1, r5
 2585 0092 3846     		mov	r0, r7
 2586 0094 FFF7FEFF 		bl	get_row_height
 2587              	.LVL364:
 822:..\..\..\lvgl\version_6.1.2\lvgl\src\lv_objx/lv_table.c ****         h += get_row_height(table, i);
 2588              		.loc 1 822 0
 2589 0098 0135     		adds	r5, r5, #1
 2590              	.LVL365:
 2591 009a B8F80230 		ldrh	r3, [r8, #2]
 823:..\..\..\lvgl\version_6.1.2\lvgl\src\lv_objx/lv_table.c ****     }
 2592              		.loc 1 823 0
 2593 009e 3044     		add	r0, r0, r6
 822:..\..\..\lvgl\version_6.1.2\lvgl\src\lv_objx/lv_table.c ****         h += get_row_height(table, i);
 2594              		.loc 1 822 0
 2595 00a0 ADB2     		uxth	r5, r5
 823:..\..\..\lvgl\version_6.1.2\lvgl\src\lv_objx/lv_table.c ****     }
 2596              		.loc 1 823 0
 2597 00a2 1FFA80F9 		uxth	r9, r0
 822:..\..\..\lvgl\version_6.1.2\lvgl\src\lv_objx/lv_table.c ****         h += get_row_height(table, i);
 2598              		.loc 1 822 0
 2599 00a6 AB42     		cmp	r3, r5
 823:..\..\..\lvgl\version_6.1.2\lvgl\src\lv_objx/lv_table.c ****     }
 2600              		.loc 1 823 0
 2601 00a8 0FFA89F6 		sxth	r6, r9
 2602              	.LVL366:
 822:..\..\..\lvgl\version_6.1.2\lvgl\src\lv_objx/lv_table.c ****         h += get_row_height(table, i);
 2603              		.loc 1 822 0
 2604 00ac F0D8     		bhi	.L232
 2605              	.LVL367:
 2606              	.L231:
 826:..\..\..\lvgl\version_6.1.2\lvgl\src\lv_objx/lv_table.c **** 
 2607              		.loc 1 826 0
 2608 00ae 3846     		mov	r0, r7
 2609 00b0 FFF7FEFF 		bl	lv_obj_get_style
 2610              	.LVL368:
 2611 00b4 0346     		mov	r3, r0
 2612              	.LVL369:
 831:..\..\..\lvgl\version_6.1.2\lvgl\src\lv_objx/lv_table.c ****     lv_obj_invalidate(table);
 2613              		.loc 1 831 0
 2614 00b6 3846     		mov	r0, r7
 2615              	.LVL370:
 2616 00b8 1D8C     		ldrh	r5, [r3, #32]
 2617 00ba 5A8C     		ldrh	r2, [r3, #34]
 2618 00bc 998C     		ldrh	r1, [r3, #36]
 2619 00be DB8C     		ldrh	r3, [r3, #38]
 2620              	.LVL371:
 2621 00c0 2A44     		add	r2, r2, r5
 2622 00c2 1944     		add	r1, r1, r3
 2623 00c4 0132     		adds	r2, r2, #1
ARM GAS  C:\Users\pearlstl\AppData\Local\Temp\ccIJtgHD.s 			page 71


 2624 00c6 0131     		adds	r1, r1, #1
 2625 00c8 4A44     		add	r2, r2, r9
 2626 00ca 2144     		add	r1, r1, r4
 2627 00cc 12B2     		sxth	r2, r2
 2628 00ce 09B2     		sxth	r1, r1
 2629 00d0 FFF7FEFF 		bl	lv_obj_set_size
 2630              	.LVL372:
 832:..\..\..\lvgl\version_6.1.2\lvgl\src\lv_objx/lv_table.c **** }
 2631              		.loc 1 832 0
 2632 00d4 3846     		mov	r0, r7
 2633              	.LBE237:
 2634              	.LBE240:
 173:..\..\..\lvgl\version_6.1.2\lvgl\src\lv_objx/lv_table.c **** 
 2635              		.loc 1 173 0
 2636 00d6 BDE8F047 		pop	{r4, r5, r6, r7, r8, r9, r10, lr}
 2637              		.cfi_remember_state
 2638              		.cfi_restore 14
 2639              		.cfi_restore 10
 2640              		.cfi_restore 9
 2641              		.cfi_restore 8
 2642              		.cfi_restore 7
 2643              		.cfi_restore 6
 2644              		.cfi_restore 5
 2645              		.cfi_restore 4
 2646              		.cfi_def_cfa_offset 0
 2647              	.LVL373:
 2648              	.LBB241:
 2649              	.LBB238:
 832:..\..\..\lvgl\version_6.1.2\lvgl\src\lv_objx/lv_table.c **** }
 2650              		.loc 1 832 0
 2651 00da FFF7FEBF 		b	lv_obj_invalidate
 2652              	.LVL374:
 2653              	.L225:
 2654              		.cfi_restore_state
 2655 00de BDE8F087 		pop	{r4, r5, r6, r7, r8, r9, r10, pc}
 2656              	.LVL375:
 2657              	.L227:
 2658              	.LBE238:
 2659              	.LBE241:
 160:..\..\..\lvgl\version_6.1.2\lvgl\src\lv_objx/lv_table.c **** #endif
 2660              		.loc 1 160 0
 2661 00e2 4FF0000A 		mov	r10, #0
 2662              	.LVL376:
 2663 00e6 66F3010A 		bfi	r10, r6, #0, #2
 2664              	.LVL377:
 163:..\..\..\lvgl\version_6.1.2\lvgl\src\lv_objx/lv_table.c ****         format.s.type        = 0;
 2665              		.loc 1 163 0
 2666 00ea 66F3820A 		bfi	r10, r6, #2, #1
 164:..\..\..\lvgl\version_6.1.2\lvgl\src\lv_objx/lv_table.c ****         format.s.crop        = 0;
 2667              		.loc 1 164 0
 2668 00ee 66F3C40A 		bfi	r10, r6, #3, #2
 165:..\..\..\lvgl\version_6.1.2\lvgl\src\lv_objx/lv_table.c ****     }
 2669              		.loc 1 165 0
 2670 00f2 66F3451A 		bfi	r10, r6, #5, #1
 2671 00f6 5FFA8AFA 		uxtb	r10, r10
 2672              	.LVL378:
 2673 00fa 9AE7     		b	.L228
ARM GAS  C:\Users\pearlstl\AppData\Local\Temp\ccIJtgHD.s 			page 72


 2674              	.LVL379:
 2675              	.L234:
 2676              	.LBB242:
 2677              	.LBB239:
 822:..\..\..\lvgl\version_6.1.2\lvgl\src\lv_objx/lv_table.c ****         h += get_row_height(table, i);
 2678              		.loc 1 822 0
 2679 00fc 8146     		mov	r9, r0
 2680 00fe D6E7     		b	.L231
 2681              	.LBE239:
 2682              	.LBE242:
 2683              		.cfi_endproc
 2684              	.LFE34:
 2685              		.size	lv_table_set_cell_value, .-lv_table_set_cell_value
 2686              		.section	.text.lv_table_set_row_cnt,"ax",%progbits
 2687              		.align	2
 2688              		.global	lv_table_set_row_cnt
 2689              		.thumb
 2690              		.thumb_func
 2691              		.type	lv_table_set_row_cnt, %function
 2692              	lv_table_set_row_cnt:
 2693              	.LFB35:
 181:..\..\..\lvgl\version_6.1.2\lvgl\src\lv_objx/lv_table.c ****     LV_ASSERT_OBJ(table, LV_OBJX_NAME);
 2694              		.loc 1 181 0
 2695              		.cfi_startproc
 2696              		@ args = 0, pretend = 0, frame = 0
 2697              		@ frame_needed = 0, uses_anonymous_args = 0
 2698              	.LVL380:
 2699 0000 2DE9F843 		push	{r3, r4, r5, r6, r7, r8, r9, lr}
 2700              		.cfi_def_cfa_offset 32
 2701              		.cfi_offset 3, -32
 2702              		.cfi_offset 4, -28
 2703              		.cfi_offset 5, -24
 2704              		.cfi_offset 6, -20
 2705              		.cfi_offset 7, -16
 2706              		.cfi_offset 8, -12
 2707              		.cfi_offset 9, -8
 2708              		.cfi_offset 14, -4
 181:..\..\..\lvgl\version_6.1.2\lvgl\src\lv_objx/lv_table.c ****     LV_ASSERT_OBJ(table, LV_OBJX_NAME);
 2709              		.loc 1 181 0
 2710 0004 0D46     		mov	r5, r1
 2711 0006 0746     		mov	r7, r0
 184:..\..\..\lvgl\version_6.1.2\lvgl\src\lv_objx/lv_table.c ****     uint16_t old_row_cnt = ext->row_cnt;
 2712              		.loc 1 184 0
 2713 0008 FFF7FEFF 		bl	lv_obj_get_ext_attr
 2714              	.LVL381:
 185:..\..\..\lvgl\version_6.1.2\lvgl\src\lv_objx/lv_table.c ****     ext->row_cnt         = row_cnt;
 2715              		.loc 1 185 0
 2716 000c 4688     		ldrh	r6, [r0, #2]
 186:..\..\..\lvgl\version_6.1.2\lvgl\src\lv_objx/lv_table.c **** 
 2717              		.loc 1 186 0
 2718 000e 4580     		strh	r5, [r0, #2]	@ movhi
 184:..\..\..\lvgl\version_6.1.2\lvgl\src\lv_objx/lv_table.c ****     uint16_t old_row_cnt = ext->row_cnt;
 2719              		.loc 1 184 0
 2720 0010 0446     		mov	r4, r0
 2721              	.LVL382:
 188:..\..\..\lvgl\version_6.1.2\lvgl\src\lv_objx/lv_table.c ****         ext->cell_data = lv_mem_realloc(ext->cell_data, ext->row_cnt * ext->col_cnt * sizeof(char *
 2722              		.loc 1 188 0
ARM GAS  C:\Users\pearlstl\AppData\Local\Temp\ccIJtgHD.s 			page 73


 2723 0012 15B1     		cbz	r5, .L239
 188:..\..\..\lvgl\version_6.1.2\lvgl\src\lv_objx/lv_table.c ****         ext->cell_data = lv_mem_realloc(ext->cell_data, ext->row_cnt * ext->col_cnt * sizeof(char *
 2724              		.loc 1 188 0 is_stmt 0 discriminator 1
 2725 0014 0188     		ldrh	r1, [r0]
 2726 0016 0029     		cmp	r1, #0
 2727 0018 46D1     		bne	.L256
 2728              	.L239:
 198:..\..\..\lvgl\version_6.1.2\lvgl\src\lv_objx/lv_table.c ****         ext->cell_data = NULL;
 2729              		.loc 1 198 0 is_stmt 1
 2730 001a 6068     		ldr	r0, [r4, #4]
 2731              	.LVL383:
 2732 001c FFF7FEFF 		bl	lv_mem_free
 2733              	.LVL384:
 199:..\..\..\lvgl\version_6.1.2\lvgl\src\lv_objx/lv_table.c ****     }
 2734              		.loc 1 199 0
 2735 0020 0023     		movs	r3, #0
 2736 0022 6360     		str	r3, [r4, #4]
 2737              	.L240:
 2738              	.LVL385:
 2739              	.LBB246:
 2740              	.LBB247:
 816:..\..\..\lvgl\version_6.1.2\lvgl\src\lv_objx/lv_table.c **** 
 2741              		.loc 1 816 0
 2742 0024 3846     		mov	r0, r7
 2743 0026 FFF7FEFF 		bl	lv_obj_get_ext_attr
 2744              	.LVL386:
 819:..\..\..\lvgl\version_6.1.2\lvgl\src\lv_objx/lv_table.c ****         w += ext->col_w[i];
 2745              		.loc 1 819 0
 2746 002a 0488     		ldrh	r4, [r0]
 2747              	.LVL387:
 816:..\..\..\lvgl\version_6.1.2\lvgl\src\lv_objx/lv_table.c **** 
 2748              		.loc 1 816 0
 2749 002c 8046     		mov	r8, r0
 2750              	.LVL388:
 819:..\..\..\lvgl\version_6.1.2\lvgl\src\lv_objx/lv_table.c ****         w += ext->col_w[i];
 2751              		.loc 1 819 0
 2752 002e 74B1     		cbz	r4, .L241
 2753 0030 601E     		subs	r0, r4, #1
 2754              	.LVL389:
 2755 0032 80B2     		uxth	r0, r0
 2756 0034 0C30     		adds	r0, r0, #12
 2757 0036 08EB4000 		add	r0, r8, r0, lsl #1
 2758 003a 08F11602 		add	r2, r8, #22
 2759 003e 0021     		movs	r1, #0
 2760              	.LVL390:
 2761              	.L242:
 820:..\..\..\lvgl\version_6.1.2\lvgl\src\lv_objx/lv_table.c ****     }
 2762              		.loc 1 820 0
 2763 0040 32F8023F 		ldrh	r3, [r2, #2]!
 2764 0044 CC18     		adds	r4, r1, r3
 2765 0046 A4B2     		uxth	r4, r4
 819:..\..\..\lvgl\version_6.1.2\lvgl\src\lv_objx/lv_table.c ****         w += ext->col_w[i];
 2766              		.loc 1 819 0
 2767 0048 9042     		cmp	r0, r2
 820:..\..\..\lvgl\version_6.1.2\lvgl\src\lv_objx/lv_table.c ****     }
 2768              		.loc 1 820 0
 2769 004a 21B2     		sxth	r1, r4
ARM GAS  C:\Users\pearlstl\AppData\Local\Temp\ccIJtgHD.s 			page 74


 2770              	.LVL391:
 819:..\..\..\lvgl\version_6.1.2\lvgl\src\lv_objx/lv_table.c ****         w += ext->col_w[i];
 2771              		.loc 1 819 0
 2772 004c F8D1     		bne	.L242
 2773              	.LVL392:
 2774              	.L241:
 822:..\..\..\lvgl\version_6.1.2\lvgl\src\lv_objx/lv_table.c ****         h += get_row_height(table, i);
 2775              		.loc 1 822 0
 2776 004e B8F80200 		ldrh	r0, [r8, #2]
 2777 0052 0028     		cmp	r0, #0
 2778 0054 40D0     		beq	.L246
 2779 0056 0026     		movs	r6, #0
 2780              	.LVL393:
 2781 0058 3546     		mov	r5, r6
 2782              	.LVL394:
 2783              	.L244:
 823:..\..\..\lvgl\version_6.1.2\lvgl\src\lv_objx/lv_table.c ****     }
 2784              		.loc 1 823 0
 2785 005a 2946     		mov	r1, r5
 2786 005c 3846     		mov	r0, r7
 2787 005e FFF7FEFF 		bl	get_row_height
 2788              	.LVL395:
 822:..\..\..\lvgl\version_6.1.2\lvgl\src\lv_objx/lv_table.c ****         h += get_row_height(table, i);
 2789              		.loc 1 822 0
 2790 0062 0135     		adds	r5, r5, #1
 2791              	.LVL396:
 2792 0064 B8F80230 		ldrh	r3, [r8, #2]
 823:..\..\..\lvgl\version_6.1.2\lvgl\src\lv_objx/lv_table.c ****     }
 2793              		.loc 1 823 0
 2794 0068 3044     		add	r0, r0, r6
 822:..\..\..\lvgl\version_6.1.2\lvgl\src\lv_objx/lv_table.c ****         h += get_row_height(table, i);
 2795              		.loc 1 822 0
 2796 006a ADB2     		uxth	r5, r5
 823:..\..\..\lvgl\version_6.1.2\lvgl\src\lv_objx/lv_table.c ****     }
 2797              		.loc 1 823 0
 2798 006c 1FFA80F9 		uxth	r9, r0
 822:..\..\..\lvgl\version_6.1.2\lvgl\src\lv_objx/lv_table.c ****         h += get_row_height(table, i);
 2799              		.loc 1 822 0
 2800 0070 AB42     		cmp	r3, r5
 823:..\..\..\lvgl\version_6.1.2\lvgl\src\lv_objx/lv_table.c ****     }
 2801              		.loc 1 823 0
 2802 0072 0FFA89F6 		sxth	r6, r9
 2803              	.LVL397:
 822:..\..\..\lvgl\version_6.1.2\lvgl\src\lv_objx/lv_table.c ****         h += get_row_height(table, i);
 2804              		.loc 1 822 0
 2805 0076 F0D8     		bhi	.L244
 2806              	.LVL398:
 2807              	.L243:
 826:..\..\..\lvgl\version_6.1.2\lvgl\src\lv_objx/lv_table.c **** 
 2808              		.loc 1 826 0
 2809 0078 3846     		mov	r0, r7
 2810 007a FFF7FEFF 		bl	lv_obj_get_style
 2811              	.LVL399:
 2812 007e 0346     		mov	r3, r0
 2813              	.LVL400:
 831:..\..\..\lvgl\version_6.1.2\lvgl\src\lv_objx/lv_table.c ****     lv_obj_invalidate(table);
 2814              		.loc 1 831 0
ARM GAS  C:\Users\pearlstl\AppData\Local\Temp\ccIJtgHD.s 			page 75


 2815 0080 3846     		mov	r0, r7
 2816              	.LVL401:
 2817 0082 1D8C     		ldrh	r5, [r3, #32]
 2818 0084 5A8C     		ldrh	r2, [r3, #34]
 2819 0086 998C     		ldrh	r1, [r3, #36]
 2820 0088 DB8C     		ldrh	r3, [r3, #38]
 2821              	.LVL402:
 2822 008a 2A44     		add	r2, r2, r5
 2823 008c 1944     		add	r1, r1, r3
 2824 008e 0132     		adds	r2, r2, #1
 2825 0090 0131     		adds	r1, r1, #1
 2826 0092 4A44     		add	r2, r2, r9
 2827 0094 2144     		add	r1, r1, r4
 2828 0096 12B2     		sxth	r2, r2
 2829 0098 09B2     		sxth	r1, r1
 2830 009a FFF7FEFF 		bl	lv_obj_set_size
 2831              	.LVL403:
 832:..\..\..\lvgl\version_6.1.2\lvgl\src\lv_objx/lv_table.c **** }
 2832              		.loc 1 832 0
 2833 009e 3846     		mov	r0, r7
 2834              	.LBE247:
 2835              	.LBE246:
 203:..\..\..\lvgl\version_6.1.2\lvgl\src\lv_objx/lv_table.c **** 
 2836              		.loc 1 203 0
 2837 00a0 BDE8F843 		pop	{r3, r4, r5, r6, r7, r8, r9, lr}
 2838              		.cfi_remember_state
 2839              		.cfi_restore 14
 2840              		.cfi_restore 9
 2841              		.cfi_restore 8
 2842              		.cfi_restore 7
 2843              		.cfi_restore 6
 2844              		.cfi_restore 5
 2845              		.cfi_restore 4
 2846              		.cfi_restore 3
 2847              		.cfi_def_cfa_offset 0
 2848              	.LVL404:
 2849              	.LBB250:
 2850              	.LBB248:
 832:..\..\..\lvgl\version_6.1.2\lvgl\src\lv_objx/lv_table.c **** }
 2851              		.loc 1 832 0
 2852 00a4 FFF7FEBF 		b	lv_obj_invalidate
 2853              	.LVL405:
 2854              	.L256:
 2855              		.cfi_restore_state
 2856              	.LBE248:
 2857              	.LBE250:
 189:..\..\..\lvgl\version_6.1.2\lvgl\src\lv_objx/lv_table.c **** 
 2858              		.loc 1 189 0
 2859 00a8 01FB05F1 		mul	r1, r1, r5
 2860 00ac 8900     		lsls	r1, r1, #2
 2861 00ae 4068     		ldr	r0, [r0, #4]
 2862              	.LVL406:
 2863 00b0 FFF7FEFF 		bl	lv_mem_realloc
 2864              	.LVL407:
 192:..\..\..\lvgl\version_6.1.2\lvgl\src\lv_objx/lv_table.c ****             uint16_t old_cell_cnt = old_row_cnt * ext->col_cnt;
 2865              		.loc 1 192 0
 2866 00b4 AE42     		cmp	r6, r5
ARM GAS  C:\Users\pearlstl\AppData\Local\Temp\ccIJtgHD.s 			page 76


 189:..\..\..\lvgl\version_6.1.2\lvgl\src\lv_objx/lv_table.c **** 
 2867              		.loc 1 189 0
 2868 00b6 6060     		str	r0, [r4, #4]
 192:..\..\..\lvgl\version_6.1.2\lvgl\src\lv_objx/lv_table.c ****             uint16_t old_cell_cnt = old_row_cnt * ext->col_cnt;
 2869              		.loc 1 192 0
 2870 00b8 B4D2     		bcs	.L240
 2871              	.LBB251:
 193:..\..\..\lvgl\version_6.1.2\lvgl\src\lv_objx/lv_table.c ****             uint32_t new_cell_cnt = ext->col_cnt * ext->row_cnt;
 2872              		.loc 1 193 0
 2873 00ba 2288     		ldrh	r2, [r4]
 2874              	.LVL408:
 195:..\..\..\lvgl\version_6.1.2\lvgl\src\lv_objx/lv_table.c ****         }
 2875              		.loc 1 195 0
 2876 00bc 6188     		ldrh	r1, [r4, #2]
 2877 00be 16FB02F3 		smulbb	r3, r6, r2
 2878 00c2 9BB2     		uxth	r3, r3
 2879 00c4 02FB01F2 		mul	r2, r2, r1
 2880              	.LVL409:
 2881 00c8 D21A     		subs	r2, r2, r3
 2882 00ca 00EB8300 		add	r0, r0, r3, lsl #2
 2883 00ce 9200     		lsls	r2, r2, #2
 2884 00d0 0021     		movs	r1, #0
 2885 00d2 FFF7FEFF 		bl	memset
 2886              	.LVL410:
 2887 00d6 A5E7     		b	.L240
 2888              	.LVL411:
 2889              	.L246:
 2890              	.LBE251:
 2891              	.LBB252:
 2892              	.LBB249:
 822:..\..\..\lvgl\version_6.1.2\lvgl\src\lv_objx/lv_table.c ****         h += get_row_height(table, i);
 2893              		.loc 1 822 0
 2894 00d8 8146     		mov	r9, r0
 2895 00da CDE7     		b	.L243
 2896              	.LBE249:
 2897              	.LBE252:
 2898              		.cfi_endproc
 2899              	.LFE35:
 2900              		.size	lv_table_set_row_cnt, .-lv_table_set_row_cnt
 2901              		.section	.text.lv_table_set_col_cnt,"ax",%progbits
 2902              		.align	2
 2903              		.global	lv_table_set_col_cnt
 2904              		.thumb
 2905              		.thumb_func
 2906              		.type	lv_table_set_col_cnt, %function
 2907              	lv_table_set_col_cnt:
 2908              	.LFB36:
 211:..\..\..\lvgl\version_6.1.2\lvgl\src\lv_objx/lv_table.c ****     LV_ASSERT_OBJ(table, LV_OBJX_NAME);
 2909              		.loc 1 211 0
 2910              		.cfi_startproc
 2911              		@ args = 0, pretend = 0, frame = 0
 2912              		@ frame_needed = 0, uses_anonymous_args = 0
 2913              	.LVL412:
 214:..\..\..\lvgl\version_6.1.2\lvgl\src\lv_objx/lv_table.c ****         LV_LOG_WARN("lv_table_set_col_cnt: too many columns. Must be < LV_TABLE_COL_MAX.");
 2914              		.loc 1 214 0
 2915 0000 0B29     		cmp	r1, #11
 2916 0002 00D9     		bls	.L277
ARM GAS  C:\Users\pearlstl\AppData\Local\Temp\ccIJtgHD.s 			page 77


 2917 0004 7047     		bx	lr
 2918              	.L277:
 211:..\..\..\lvgl\version_6.1.2\lvgl\src\lv_objx/lv_table.c ****     LV_ASSERT_OBJ(table, LV_OBJX_NAME);
 2919              		.loc 1 211 0
 2920 0006 2DE9F843 		push	{r3, r4, r5, r6, r7, r8, r9, lr}
 2921              		.cfi_def_cfa_offset 32
 2922              		.cfi_offset 3, -32
 2923              		.cfi_offset 4, -28
 2924              		.cfi_offset 5, -24
 2925              		.cfi_offset 6, -20
 2926              		.cfi_offset 7, -16
 2927              		.cfi_offset 8, -12
 2928              		.cfi_offset 9, -8
 2929              		.cfi_offset 14, -4
 2930 000a 0C46     		mov	r4, r1
 2931 000c 0746     		mov	r7, r0
 2932              	.LVL413:
 2933              	.LBB258:
 2934              	.LBB259:
 219:..\..\..\lvgl\version_6.1.2\lvgl\src\lv_objx/lv_table.c ****     uint16_t old_col_cnt = ext->col_cnt;
 2935              		.loc 1 219 0
 2936 000e FFF7FEFF 		bl	lv_obj_get_ext_attr
 2937              	.LVL414:
 223:..\..\..\lvgl\version_6.1.2\lvgl\src\lv_objx/lv_table.c ****         ext->cell_data = lv_mem_realloc(ext->cell_data, ext->row_cnt * ext->col_cnt * sizeof(char *
 2938              		.loc 1 223 0
 2939 0012 4188     		ldrh	r1, [r0, #2]
 220:..\..\..\lvgl\version_6.1.2\lvgl\src\lv_objx/lv_table.c ****     ext->col_cnt         = col_cnt;
 2940              		.loc 1 220 0
 2941 0014 0688     		ldrh	r6, [r0]
 221:..\..\..\lvgl\version_6.1.2\lvgl\src\lv_objx/lv_table.c **** 
 2942              		.loc 1 221 0
 2943 0016 0480     		strh	r4, [r0]	@ movhi
 219:..\..\..\lvgl\version_6.1.2\lvgl\src\lv_objx/lv_table.c ****     uint16_t old_col_cnt = ext->col_cnt;
 2944              		.loc 1 219 0
 2945 0018 0546     		mov	r5, r0
 2946              	.LVL415:
 223:..\..\..\lvgl\version_6.1.2\lvgl\src\lv_objx/lv_table.c ****         ext->cell_data = lv_mem_realloc(ext->cell_data, ext->row_cnt * ext->col_cnt * sizeof(char *
 2947              		.loc 1 223 0
 2948 001a 09B1     		cbz	r1, .L259
 2949 001c 002C     		cmp	r4, #0
 2950 001e 46D1     		bne	.L278
 2951              	.L259:
 233:..\..\..\lvgl\version_6.1.2\lvgl\src\lv_objx/lv_table.c ****         ext->cell_data = NULL;
 2952              		.loc 1 233 0
 2953 0020 6868     		ldr	r0, [r5, #4]
 2954              	.LVL416:
 2955 0022 FFF7FEFF 		bl	lv_mem_free
 2956              	.LVL417:
 234:..\..\..\lvgl\version_6.1.2\lvgl\src\lv_objx/lv_table.c ****     }
 2957              		.loc 1 234 0
 2958 0026 0023     		movs	r3, #0
 2959 0028 6B60     		str	r3, [r5, #4]
 2960              	.L260:
 2961              	.LVL418:
 2962              	.LBB260:
 2963              	.LBB261:
 816:..\..\..\lvgl\version_6.1.2\lvgl\src\lv_objx/lv_table.c **** 
ARM GAS  C:\Users\pearlstl\AppData\Local\Temp\ccIJtgHD.s 			page 78


 2964              		.loc 1 816 0
 2965 002a 3846     		mov	r0, r7
 2966 002c FFF7FEFF 		bl	lv_obj_get_ext_attr
 2967              	.LVL419:
 819:..\..\..\lvgl\version_6.1.2\lvgl\src\lv_objx/lv_table.c ****         w += ext->col_w[i];
 2968              		.loc 1 819 0
 2969 0030 0488     		ldrh	r4, [r0]
 2970              	.LVL420:
 816:..\..\..\lvgl\version_6.1.2\lvgl\src\lv_objx/lv_table.c **** 
 2971              		.loc 1 816 0
 2972 0032 8046     		mov	r8, r0
 2973              	.LVL421:
 819:..\..\..\lvgl\version_6.1.2\lvgl\src\lv_objx/lv_table.c ****         w += ext->col_w[i];
 2974              		.loc 1 819 0
 2975 0034 74B1     		cbz	r4, .L261
 2976 0036 601E     		subs	r0, r4, #1
 2977              	.LVL422:
 2978 0038 80B2     		uxth	r0, r0
 2979 003a 0C30     		adds	r0, r0, #12
 2980 003c 08EB4000 		add	r0, r8, r0, lsl #1
 2981 0040 08F11602 		add	r2, r8, #22
 2982 0044 0021     		movs	r1, #0
 2983              	.LVL423:
 2984              	.L262:
 820:..\..\..\lvgl\version_6.1.2\lvgl\src\lv_objx/lv_table.c ****     }
 2985              		.loc 1 820 0
 2986 0046 32F8023F 		ldrh	r3, [r2, #2]!
 2987 004a CC18     		adds	r4, r1, r3
 2988 004c A4B2     		uxth	r4, r4
 819:..\..\..\lvgl\version_6.1.2\lvgl\src\lv_objx/lv_table.c ****         w += ext->col_w[i];
 2989              		.loc 1 819 0
 2990 004e 9042     		cmp	r0, r2
 820:..\..\..\lvgl\version_6.1.2\lvgl\src\lv_objx/lv_table.c ****     }
 2991              		.loc 1 820 0
 2992 0050 21B2     		sxth	r1, r4
 2993              	.LVL424:
 819:..\..\..\lvgl\version_6.1.2\lvgl\src\lv_objx/lv_table.c ****         w += ext->col_w[i];
 2994              		.loc 1 819 0
 2995 0052 F8D1     		bne	.L262
 2996              	.LVL425:
 2997              	.L261:
 822:..\..\..\lvgl\version_6.1.2\lvgl\src\lv_objx/lv_table.c ****         h += get_row_height(table, i);
 2998              		.loc 1 822 0
 2999 0054 B8F80200 		ldrh	r0, [r8, #2]
 3000 0058 0028     		cmp	r0, #0
 3001 005a 40D0     		beq	.L266
 3002 005c 0026     		movs	r6, #0
 3003              	.LVL426:
 3004 005e 3546     		mov	r5, r6
 3005              	.LVL427:
 3006              	.L264:
 823:..\..\..\lvgl\version_6.1.2\lvgl\src\lv_objx/lv_table.c ****     }
 3007              		.loc 1 823 0
 3008 0060 2946     		mov	r1, r5
 3009 0062 3846     		mov	r0, r7
 3010 0064 FFF7FEFF 		bl	get_row_height
 3011              	.LVL428:
ARM GAS  C:\Users\pearlstl\AppData\Local\Temp\ccIJtgHD.s 			page 79


 822:..\..\..\lvgl\version_6.1.2\lvgl\src\lv_objx/lv_table.c ****         h += get_row_height(table, i);
 3012              		.loc 1 822 0
 3013 0068 0135     		adds	r5, r5, #1
 3014              	.LVL429:
 3015 006a B8F80230 		ldrh	r3, [r8, #2]
 823:..\..\..\lvgl\version_6.1.2\lvgl\src\lv_objx/lv_table.c ****     }
 3016              		.loc 1 823 0
 3017 006e 3044     		add	r0, r0, r6
 822:..\..\..\lvgl\version_6.1.2\lvgl\src\lv_objx/lv_table.c ****         h += get_row_height(table, i);
 3018              		.loc 1 822 0
 3019 0070 ADB2     		uxth	r5, r5
 823:..\..\..\lvgl\version_6.1.2\lvgl\src\lv_objx/lv_table.c ****     }
 3020              		.loc 1 823 0
 3021 0072 1FFA80F9 		uxth	r9, r0
 822:..\..\..\lvgl\version_6.1.2\lvgl\src\lv_objx/lv_table.c ****         h += get_row_height(table, i);
 3022              		.loc 1 822 0
 3023 0076 AB42     		cmp	r3, r5
 823:..\..\..\lvgl\version_6.1.2\lvgl\src\lv_objx/lv_table.c ****     }
 3024              		.loc 1 823 0
 3025 0078 0FFA89F6 		sxth	r6, r9
 3026              	.LVL430:
 822:..\..\..\lvgl\version_6.1.2\lvgl\src\lv_objx/lv_table.c ****         h += get_row_height(table, i);
 3027              		.loc 1 822 0
 3028 007c F0D8     		bhi	.L264
 3029              	.LVL431:
 3030              	.L263:
 826:..\..\..\lvgl\version_6.1.2\lvgl\src\lv_objx/lv_table.c **** 
 3031              		.loc 1 826 0
 3032 007e 3846     		mov	r0, r7
 3033 0080 FFF7FEFF 		bl	lv_obj_get_style
 3034              	.LVL432:
 3035 0084 0346     		mov	r3, r0
 3036              	.LVL433:
 831:..\..\..\lvgl\version_6.1.2\lvgl\src\lv_objx/lv_table.c ****     lv_obj_invalidate(table);
 3037              		.loc 1 831 0
 3038 0086 3846     		mov	r0, r7
 3039              	.LVL434:
 3040 0088 1D8C     		ldrh	r5, [r3, #32]
 3041 008a 5A8C     		ldrh	r2, [r3, #34]
 3042 008c 998C     		ldrh	r1, [r3, #36]
 3043 008e DB8C     		ldrh	r3, [r3, #38]
 3044              	.LVL435:
 3045 0090 2A44     		add	r2, r2, r5
 3046 0092 1944     		add	r1, r1, r3
 3047 0094 0132     		adds	r2, r2, #1
 3048 0096 0131     		adds	r1, r1, #1
 3049 0098 4A44     		add	r2, r2, r9
 3050 009a 2144     		add	r1, r1, r4
 3051 009c 12B2     		sxth	r2, r2
 3052 009e 09B2     		sxth	r1, r1
 3053 00a0 FFF7FEFF 		bl	lv_obj_set_size
 3054              	.LVL436:
 832:..\..\..\lvgl\version_6.1.2\lvgl\src\lv_objx/lv_table.c **** }
 3055              		.loc 1 832 0
 3056 00a4 3846     		mov	r0, r7
 3057              	.LBE261:
 3058              	.LBE260:
ARM GAS  C:\Users\pearlstl\AppData\Local\Temp\ccIJtgHD.s 			page 80


 3059              	.LBE259:
 3060              	.LBE258:
 237:..\..\..\lvgl\version_6.1.2\lvgl\src\lv_objx/lv_table.c **** 
 3061              		.loc 1 237 0
 3062 00a6 BDE8F843 		pop	{r3, r4, r5, r6, r7, r8, r9, lr}
 3063              		.cfi_remember_state
 3064              		.cfi_restore 14
 3065              		.cfi_restore 9
 3066              		.cfi_restore 8
 3067              		.cfi_restore 7
 3068              		.cfi_restore 6
 3069              		.cfi_restore 5
 3070              		.cfi_restore 4
 3071              		.cfi_restore 3
 3072              		.cfi_def_cfa_offset 0
 3073              	.LVL437:
 3074              	.LBB268:
 3075              	.LBB267:
 3076              	.LBB264:
 3077              	.LBB262:
 832:..\..\..\lvgl\version_6.1.2\lvgl\src\lv_objx/lv_table.c **** }
 3078              		.loc 1 832 0
 3079 00aa FFF7FEBF 		b	lv_obj_invalidate
 3080              	.LVL438:
 3081              	.L278:
 3082              		.cfi_restore_state
 3083              	.LBE262:
 3084              	.LBE264:
 224:..\..\..\lvgl\version_6.1.2\lvgl\src\lv_objx/lv_table.c ****         /*Initilize the new fields*/
 3085              		.loc 1 224 0
 3086 00ae 04FB01F1 		mul	r1, r4, r1
 3087 00b2 8900     		lsls	r1, r1, #2
 3088 00b4 4068     		ldr	r0, [r0, #4]
 3089              	.LVL439:
 3090 00b6 FFF7FEFF 		bl	lv_mem_realloc
 3091              	.LVL440:
 226:..\..\..\lvgl\version_6.1.2\lvgl\src\lv_objx/lv_table.c ****             uint16_t old_cell_cnt = old_col_cnt * ext->row_cnt;
 3092              		.loc 1 226 0
 3093 00ba B442     		cmp	r4, r6
 224:..\..\..\lvgl\version_6.1.2\lvgl\src\lv_objx/lv_table.c ****         /*Initilize the new fields*/
 3094              		.loc 1 224 0
 3095 00bc 6860     		str	r0, [r5, #4]
 226:..\..\..\lvgl\version_6.1.2\lvgl\src\lv_objx/lv_table.c ****             uint16_t old_cell_cnt = old_col_cnt * ext->row_cnt;
 3096              		.loc 1 226 0
 3097 00be B4D9     		bls	.L260
 3098              	.LBB265:
 227:..\..\..\lvgl\version_6.1.2\lvgl\src\lv_objx/lv_table.c ****             uint32_t new_cell_cnt = ext->col_cnt * ext->row_cnt;
 3099              		.loc 1 227 0
 3100 00c0 6A88     		ldrh	r2, [r5, #2]
 3101              	.LVL441:
 229:..\..\..\lvgl\version_6.1.2\lvgl\src\lv_objx/lv_table.c ****         }
 3102              		.loc 1 229 0
 3103 00c2 2988     		ldrh	r1, [r5]
 3104 00c4 16FB02F3 		smulbb	r3, r6, r2
 3105 00c8 9BB2     		uxth	r3, r3
 3106 00ca 02FB01F2 		mul	r2, r2, r1
 3107              	.LVL442:
ARM GAS  C:\Users\pearlstl\AppData\Local\Temp\ccIJtgHD.s 			page 81


 3108 00ce D21A     		subs	r2, r2, r3
 3109 00d0 00EB8300 		add	r0, r0, r3, lsl #2
 3110 00d4 9200     		lsls	r2, r2, #2
 3111 00d6 0021     		movs	r1, #0
 3112 00d8 FFF7FEFF 		bl	memset
 3113              	.LVL443:
 3114 00dc A5E7     		b	.L260
 3115              	.LVL444:
 3116              	.L266:
 3117              	.LBE265:
 3118              	.LBB266:
 3119              	.LBB263:
 822:..\..\..\lvgl\version_6.1.2\lvgl\src\lv_objx/lv_table.c ****         h += get_row_height(table, i);
 3120              		.loc 1 822 0
 3121 00de 8146     		mov	r9, r0
 3122 00e0 CDE7     		b	.L263
 3123              	.LBE263:
 3124              	.LBE266:
 3125              	.LBE267:
 3126              	.LBE268:
 3127              		.cfi_endproc
 3128              	.LFE36:
 3129              		.size	lv_table_set_col_cnt, .-lv_table_set_col_cnt
 3130 00e2 00BF     		.section	.text.lv_table_set_col_width,"ax",%progbits
 3131              		.align	2
 3132              		.global	lv_table_set_col_width
 3133              		.thumb
 3134              		.thumb_func
 3135              		.type	lv_table_set_col_width, %function
 3136              	lv_table_set_col_width:
 3137              	.LFB37:
 246:..\..\..\lvgl\version_6.1.2\lvgl\src\lv_objx/lv_table.c ****     LV_ASSERT_OBJ(table, LV_OBJX_NAME);
 3138              		.loc 1 246 0
 3139              		.cfi_startproc
 3140              		@ args = 0, pretend = 0, frame = 0
 3141              		@ frame_needed = 0, uses_anonymous_args = 0
 3142              	.LVL445:
 249:..\..\..\lvgl\version_6.1.2\lvgl\src\lv_objx/lv_table.c ****         LV_LOG_WARN("lv_table_set_col_width: too big 'col_id'. Must be < LV_TABLE_COL_MAX.");
 3143              		.loc 1 249 0
 3144 0000 0B29     		cmp	r1, #11
 3145 0002 00D9     		bls	.L291
 3146 0004 7047     		bx	lr
 3147              	.L291:
 246:..\..\..\lvgl\version_6.1.2\lvgl\src\lv_objx/lv_table.c ****     LV_ASSERT_OBJ(table, LV_OBJX_NAME);
 3148              		.loc 1 246 0
 3149 0006 2DE9F843 		push	{r3, r4, r5, r6, r7, r8, r9, lr}
 3150              		.cfi_def_cfa_offset 32
 3151              		.cfi_offset 3, -32
 3152              		.cfi_offset 4, -28
 3153              		.cfi_offset 5, -24
 3154              		.cfi_offset 6, -20
 3155              		.cfi_offset 7, -16
 3156              		.cfi_offset 8, -12
 3157              		.cfi_offset 9, -8
 3158              		.cfi_offset 14, -4
 3159 000a 1546     		mov	r5, r2
 3160 000c 0C46     		mov	r4, r1
ARM GAS  C:\Users\pearlstl\AppData\Local\Temp\ccIJtgHD.s 			page 82


 3161 000e 0746     		mov	r7, r0
 254:..\..\..\lvgl\version_6.1.2\lvgl\src\lv_objx/lv_table.c ****     ext->col_w[col_id]   = w;
 3162              		.loc 1 254 0
 3163 0010 FFF7FEFF 		bl	lv_obj_get_ext_attr
 3164              	.LVL446:
 255:..\..\..\lvgl\version_6.1.2\lvgl\src\lv_objx/lv_table.c ****     refr_size(table);
 3165              		.loc 1 255 0
 3166 0014 04F10C01 		add	r1, r4, #12
 3167 0018 20F81150 		strh	r5, [r0, r1, lsl #1]	@ movhi
 3168              	.LVL447:
 3169              	.LBB271:
 3170              	.LBB272:
 816:..\..\..\lvgl\version_6.1.2\lvgl\src\lv_objx/lv_table.c **** 
 3171              		.loc 1 816 0
 3172 001c 3846     		mov	r0, r7
 3173              	.LVL448:
 3174 001e FFF7FEFF 		bl	lv_obj_get_ext_attr
 3175              	.LVL449:
 819:..\..\..\lvgl\version_6.1.2\lvgl\src\lv_objx/lv_table.c ****         w += ext->col_w[i];
 3176              		.loc 1 819 0
 3177 0022 0488     		ldrh	r4, [r0]
 816:..\..\..\lvgl\version_6.1.2\lvgl\src\lv_objx/lv_table.c **** 
 3178              		.loc 1 816 0
 3179 0024 8046     		mov	r8, r0
 3180              	.LVL450:
 819:..\..\..\lvgl\version_6.1.2\lvgl\src\lv_objx/lv_table.c ****         w += ext->col_w[i];
 3181              		.loc 1 819 0
 3182 0026 74B1     		cbz	r4, .L281
 3183 0028 601E     		subs	r0, r4, #1
 3184              	.LVL451:
 3185 002a 80B2     		uxth	r0, r0
 3186 002c 0C30     		adds	r0, r0, #12
 3187 002e 08EB4000 		add	r0, r8, r0, lsl #1
 3188 0032 08F11602 		add	r2, r8, #22
 3189 0036 0021     		movs	r1, #0
 3190              	.LVL452:
 3191              	.L282:
 820:..\..\..\lvgl\version_6.1.2\lvgl\src\lv_objx/lv_table.c ****     }
 3192              		.loc 1 820 0
 3193 0038 32F8023F 		ldrh	r3, [r2, #2]!
 3194 003c CC18     		adds	r4, r1, r3
 3195 003e A4B2     		uxth	r4, r4
 819:..\..\..\lvgl\version_6.1.2\lvgl\src\lv_objx/lv_table.c ****         w += ext->col_w[i];
 3196              		.loc 1 819 0
 3197 0040 9042     		cmp	r0, r2
 820:..\..\..\lvgl\version_6.1.2\lvgl\src\lv_objx/lv_table.c ****     }
 3198              		.loc 1 820 0
 3199 0042 21B2     		sxth	r1, r4
 3200              	.LVL453:
 819:..\..\..\lvgl\version_6.1.2\lvgl\src\lv_objx/lv_table.c ****         w += ext->col_w[i];
 3201              		.loc 1 819 0
 3202 0044 F8D1     		bne	.L282
 3203              	.LVL454:
 3204              	.L281:
 822:..\..\..\lvgl\version_6.1.2\lvgl\src\lv_objx/lv_table.c ****         h += get_row_height(table, i);
 3205              		.loc 1 822 0
 3206 0046 B8F80200 		ldrh	r0, [r8, #2]
ARM GAS  C:\Users\pearlstl\AppData\Local\Temp\ccIJtgHD.s 			page 83


 3207 004a 40B3     		cbz	r0, .L286
 3208 004c 0026     		movs	r6, #0
 3209 004e 3546     		mov	r5, r6
 3210              	.LVL455:
 3211              	.L284:
 823:..\..\..\lvgl\version_6.1.2\lvgl\src\lv_objx/lv_table.c ****     }
 3212              		.loc 1 823 0
 3213 0050 2946     		mov	r1, r5
 3214 0052 3846     		mov	r0, r7
 3215 0054 FFF7FEFF 		bl	get_row_height
 3216              	.LVL456:
 822:..\..\..\lvgl\version_6.1.2\lvgl\src\lv_objx/lv_table.c ****         h += get_row_height(table, i);
 3217              		.loc 1 822 0
 3218 0058 0135     		adds	r5, r5, #1
 3219              	.LVL457:
 3220 005a B8F80230 		ldrh	r3, [r8, #2]
 823:..\..\..\lvgl\version_6.1.2\lvgl\src\lv_objx/lv_table.c ****     }
 3221              		.loc 1 823 0
 3222 005e 3044     		add	r0, r0, r6
 822:..\..\..\lvgl\version_6.1.2\lvgl\src\lv_objx/lv_table.c ****         h += get_row_height(table, i);
 3223              		.loc 1 822 0
 3224 0060 ADB2     		uxth	r5, r5
 823:..\..\..\lvgl\version_6.1.2\lvgl\src\lv_objx/lv_table.c ****     }
 3225              		.loc 1 823 0
 3226 0062 1FFA80F9 		uxth	r9, r0
 822:..\..\..\lvgl\version_6.1.2\lvgl\src\lv_objx/lv_table.c ****         h += get_row_height(table, i);
 3227              		.loc 1 822 0
 3228 0066 AB42     		cmp	r3, r5
 823:..\..\..\lvgl\version_6.1.2\lvgl\src\lv_objx/lv_table.c ****     }
 3229              		.loc 1 823 0
 3230 0068 0FFA89F6 		sxth	r6, r9
 3231              	.LVL458:
 822:..\..\..\lvgl\version_6.1.2\lvgl\src\lv_objx/lv_table.c ****         h += get_row_height(table, i);
 3232              		.loc 1 822 0
 3233 006c F0D8     		bhi	.L284
 3234              	.LVL459:
 3235              	.L283:
 826:..\..\..\lvgl\version_6.1.2\lvgl\src\lv_objx/lv_table.c **** 
 3236              		.loc 1 826 0
 3237 006e 3846     		mov	r0, r7
 3238 0070 FFF7FEFF 		bl	lv_obj_get_style
 3239              	.LVL460:
 3240 0074 0346     		mov	r3, r0
 3241              	.LVL461:
 831:..\..\..\lvgl\version_6.1.2\lvgl\src\lv_objx/lv_table.c ****     lv_obj_invalidate(table);
 3242              		.loc 1 831 0
 3243 0076 3846     		mov	r0, r7
 3244              	.LVL462:
 3245 0078 1D8C     		ldrh	r5, [r3, #32]
 3246 007a 5A8C     		ldrh	r2, [r3, #34]
 3247 007c 998C     		ldrh	r1, [r3, #36]
 3248 007e DB8C     		ldrh	r3, [r3, #38]
 3249              	.LVL463:
 3250 0080 2A44     		add	r2, r2, r5
 3251 0082 1944     		add	r1, r1, r3
 3252 0084 0132     		adds	r2, r2, #1
 3253 0086 0131     		adds	r1, r1, #1
ARM GAS  C:\Users\pearlstl\AppData\Local\Temp\ccIJtgHD.s 			page 84


 3254 0088 4A44     		add	r2, r2, r9
 3255 008a 2144     		add	r1, r1, r4
 3256 008c 12B2     		sxth	r2, r2
 3257 008e 09B2     		sxth	r1, r1
 3258 0090 FFF7FEFF 		bl	lv_obj_set_size
 3259              	.LVL464:
 832:..\..\..\lvgl\version_6.1.2\lvgl\src\lv_objx/lv_table.c **** }
 3260              		.loc 1 832 0
 3261 0094 3846     		mov	r0, r7
 3262              	.LBE272:
 3263              	.LBE271:
 257:..\..\..\lvgl\version_6.1.2\lvgl\src\lv_objx/lv_table.c **** 
 3264              		.loc 1 257 0
 3265 0096 BDE8F843 		pop	{r3, r4, r5, r6, r7, r8, r9, lr}
 3266              		.cfi_remember_state
 3267              		.cfi_restore 14
 3268              		.cfi_restore 9
 3269              		.cfi_restore 8
 3270              		.cfi_restore 7
 3271              		.cfi_restore 6
 3272              		.cfi_restore 5
 3273              		.cfi_restore 4
 3274              		.cfi_restore 3
 3275              		.cfi_def_cfa_offset 0
 3276              	.LVL465:
 3277              	.LBB274:
 3278              	.LBB273:
 832:..\..\..\lvgl\version_6.1.2\lvgl\src\lv_objx/lv_table.c **** }
 3279              		.loc 1 832 0
 3280 009a FFF7FEBF 		b	lv_obj_invalidate
 3281              	.LVL466:
 3282              	.L286:
 3283              		.cfi_restore_state
 822:..\..\..\lvgl\version_6.1.2\lvgl\src\lv_objx/lv_table.c ****         h += get_row_height(table, i);
 3284              		.loc 1 822 0
 3285 009e 8146     		mov	r9, r0
 3286 00a0 E5E7     		b	.L283
 3287              	.LBE273:
 3288              	.LBE274:
 3289              		.cfi_endproc
 3290              	.LFE37:
 3291              		.size	lv_table_set_col_width, .-lv_table_set_col_width
 3292 00a2 00BF     		.section	.text.lv_table_set_cell_align,"ax",%progbits
 3293              		.align	2
 3294              		.global	lv_table_set_cell_align
 3295              		.thumb
 3296              		.thumb_func
 3297              		.type	lv_table_set_cell_align, %function
 3298              	lv_table_set_cell_align:
 3299              	.LFB38:
 267:..\..\..\lvgl\version_6.1.2\lvgl\src\lv_objx/lv_table.c ****     LV_ASSERT_OBJ(table, LV_OBJX_NAME);
 3300              		.loc 1 267 0
 3301              		.cfi_startproc
 3302              		@ args = 0, pretend = 0, frame = 8
 3303              		@ frame_needed = 0, uses_anonymous_args = 0
 3304              	.LVL467:
 3305 0000 F0B5     		push	{r4, r5, r6, r7, lr}
ARM GAS  C:\Users\pearlstl\AppData\Local\Temp\ccIJtgHD.s 			page 85


 3306              		.cfi_def_cfa_offset 20
 3307              		.cfi_offset 4, -20
 3308              		.cfi_offset 5, -16
 3309              		.cfi_offset 6, -12
 3310              		.cfi_offset 7, -8
 3311              		.cfi_offset 14, -4
 3312 0002 83B0     		sub	sp, sp, #12
 3313              		.cfi_def_cfa_offset 32
 267:..\..\..\lvgl\version_6.1.2\lvgl\src\lv_objx/lv_table.c ****     LV_ASSERT_OBJ(table, LV_OBJX_NAME);
 3314              		.loc 1 267 0
 3315 0004 0C46     		mov	r4, r1
 3316 0006 1F46     		mov	r7, r3
 3317 0008 1646     		mov	r6, r2
 270:..\..\..\lvgl\version_6.1.2\lvgl\src\lv_objx/lv_table.c ****     if(row >= ext->row_cnt || col >= ext->col_cnt) {
 3318              		.loc 1 270 0
 3319 000a FFF7FEFF 		bl	lv_obj_get_ext_attr
 3320              	.LVL468:
 271:..\..\..\lvgl\version_6.1.2\lvgl\src\lv_objx/lv_table.c ****         LV_LOG_WARN("lv_table_set_cell_align: invalid row or column");
 3321              		.loc 1 271 0
 3322 000e 4388     		ldrh	r3, [r0, #2]
 3323 0010 A342     		cmp	r3, r4
 3324 0012 0DD9     		bls	.L292
 271:..\..\..\lvgl\version_6.1.2\lvgl\src\lv_objx/lv_table.c ****         LV_LOG_WARN("lv_table_set_cell_align: invalid row or column");
 3325              		.loc 1 271 0 is_stmt 0 discriminator 1
 3326 0014 0288     		ldrh	r2, [r0]
 3327 0016 B242     		cmp	r2, r6
 3328 0018 0546     		mov	r5, r0
 3329 001a 09D9     		bls	.L292
 3330              	.LVL469:
 277:..\..\..\lvgl\version_6.1.2\lvgl\src\lv_objx/lv_table.c ****         ext->cell_data[cell]    = lv_mem_alloc(2); /*+1: trailing '\0; +1: format byte*/
 3331              		.loc 1 277 0 is_stmt 1
 3332 001c 02FB0464 		mla	r4, r2, r4, r6
 3333              	.LVL470:
 3334 0020 4368     		ldr	r3, [r0, #4]
 3335 0022 53F82460 		ldr	r6, [r3, r4, lsl #2]
 3336 0026 2EB1     		cbz	r6, .L297
 3337              	.LVL471:
 3338              	.L294:
 284:..\..\..\lvgl\version_6.1.2\lvgl\src\lv_objx/lv_table.c ****     format.s.align          = align;
 3339              		.loc 1 284 0
 3340 0028 3378     		ldrb	r3, [r6]	@ zero_extendqisi2
 285:..\..\..\lvgl\version_6.1.2\lvgl\src\lv_objx/lv_table.c ****     ext->cell_data[cell][0] = format.format_byte;
 3341              		.loc 1 285 0
 3342 002a 67F30103 		bfi	r3, r7, #0, #2
 3343              	.LVL472:
 286:..\..\..\lvgl\version_6.1.2\lvgl\src\lv_objx/lv_table.c **** }
 3344              		.loc 1 286 0
 3345 002e 3370     		strb	r3, [r6]
 3346              	.LVL473:
 3347              	.L292:
 287:..\..\..\lvgl\version_6.1.2\lvgl\src\lv_objx/lv_table.c **** 
 3348              		.loc 1 287 0
 3349 0030 03B0     		add	sp, sp, #12
 3350              		.cfi_remember_state
 3351              		.cfi_def_cfa_offset 20
 3352              		@ sp needed
 3353 0032 F0BD     		pop	{r4, r5, r6, r7, pc}
ARM GAS  C:\Users\pearlstl\AppData\Local\Temp\ccIJtgHD.s 			page 86


 3354              	.LVL474:
 3355              	.L297:
 3356              		.cfi_restore_state
 278:..\..\..\lvgl\version_6.1.2\lvgl\src\lv_objx/lv_table.c ****         ext->cell_data[cell][0] = 0;
 3357              		.loc 1 278 0
 3358 0034 0220     		movs	r0, #2
 3359              	.LVL475:
 3360 0036 0193     		str	r3, [sp, #4]
 3361 0038 FFF7FEFF 		bl	lv_mem_alloc
 3362              	.LVL476:
 3363 003c 019B     		ldr	r3, [sp, #4]
 3364 003e 43F82400 		str	r0, [r3, r4, lsl #2]
 279:..\..\..\lvgl\version_6.1.2\lvgl\src\lv_objx/lv_table.c ****         ext->cell_data[cell][1] = '\0';
 3365              		.loc 1 279 0
 3366 0042 6B68     		ldr	r3, [r5, #4]
 3367 0044 53F82430 		ldr	r3, [r3, r4, lsl #2]
 3368 0048 1E70     		strb	r6, [r3]
 280:..\..\..\lvgl\version_6.1.2\lvgl\src\lv_objx/lv_table.c ****     }
 3369              		.loc 1 280 0
 3370 004a 6B68     		ldr	r3, [r5, #4]
 3371 004c 53F82430 		ldr	r3, [r3, r4, lsl #2]
 3372 0050 5E70     		strb	r6, [r3, #1]
 3373 0052 6B68     		ldr	r3, [r5, #4]
 3374 0054 53F82460 		ldr	r6, [r3, r4, lsl #2]
 3375 0058 E6E7     		b	.L294
 3376              		.cfi_endproc
 3377              	.LFE38:
 3378              		.size	lv_table_set_cell_align, .-lv_table_set_cell_align
 3379 005a 00BF     		.section	.text.lv_table_set_cell_type,"ax",%progbits
 3380              		.align	2
 3381              		.global	lv_table_set_cell_type
 3382              		.thumb
 3383              		.thumb_func
 3384              		.type	lv_table_set_cell_type, %function
 3385              	lv_table_set_cell_type:
 3386              	.LFB39:
 297:..\..\..\lvgl\version_6.1.2\lvgl\src\lv_objx/lv_table.c ****     LV_ASSERT_OBJ(table, LV_OBJX_NAME);
 3387              		.loc 1 297 0
 3388              		.cfi_startproc
 3389              		@ args = 0, pretend = 0, frame = 8
 3390              		@ frame_needed = 0, uses_anonymous_args = 0
 3391              	.LVL477:
 3392 0000 F0B5     		push	{r4, r5, r6, r7, lr}
 3393              		.cfi_def_cfa_offset 20
 3394              		.cfi_offset 4, -20
 3395              		.cfi_offset 5, -16
 3396              		.cfi_offset 6, -12
 3397              		.cfi_offset 7, -8
 3398              		.cfi_offset 14, -4
 3399 0002 83B0     		sub	sp, sp, #12
 3400              		.cfi_def_cfa_offset 32
 297:..\..\..\lvgl\version_6.1.2\lvgl\src\lv_objx/lv_table.c ****     LV_ASSERT_OBJ(table, LV_OBJX_NAME);
 3401              		.loc 1 297 0
 3402 0004 0C46     		mov	r4, r1
 3403 0006 1E46     		mov	r6, r3
 3404 0008 1746     		mov	r7, r2
 300:..\..\..\lvgl\version_6.1.2\lvgl\src\lv_objx/lv_table.c ****     if(row >= ext->row_cnt || col >= ext->col_cnt) {
ARM GAS  C:\Users\pearlstl\AppData\Local\Temp\ccIJtgHD.s 			page 87


 3405              		.loc 1 300 0
 3406 000a FFF7FEFF 		bl	lv_obj_get_ext_attr
 3407              	.LVL478:
 301:..\..\..\lvgl\version_6.1.2\lvgl\src\lv_objx/lv_table.c ****         LV_LOG_WARN("lv_table_set_cell_type: invalid row or column");
 3408              		.loc 1 301 0
 3409 000e 4388     		ldrh	r3, [r0, #2]
 3410 0010 A342     		cmp	r3, r4
 3411 0012 03D9     		bls	.L298
 301:..\..\..\lvgl\version_6.1.2\lvgl\src\lv_objx/lv_table.c ****         LV_LOG_WARN("lv_table_set_cell_type: invalid row or column");
 3412              		.loc 1 301 0 is_stmt 0 discriminator 1
 3413 0014 0288     		ldrh	r2, [r0]
 3414 0016 BA42     		cmp	r2, r7
 3415 0018 0546     		mov	r5, r0
 3416 001a 01D8     		bhi	.L307
 3417              	.L298:
 320:..\..\..\lvgl\version_6.1.2\lvgl\src\lv_objx/lv_table.c **** 
 3418              		.loc 1 320 0 is_stmt 1
 3419 001c 03B0     		add	sp, sp, #12
 3420              		.cfi_remember_state
 3421              		.cfi_def_cfa_offset 20
 3422              		@ sp needed
 3423 001e F0BD     		pop	{r4, r5, r6, r7, pc}
 3424              	.L307:
 3425              		.cfi_restore_state
 3426              	.LVL479:
 307:..\..\..\lvgl\version_6.1.2\lvgl\src\lv_objx/lv_table.c ****         ext->cell_data[cell]    = lv_mem_alloc(2); /*+1: trailing '\0; +1: format byte*/
 3427              		.loc 1 307 0
 3428 0020 02FB0474 		mla	r4, r2, r4, r7
 3429              	.LVL480:
 3430 0024 4368     		ldr	r3, [r0, #4]
 3431 0026 53F82470 		ldr	r7, [r3, r4, lsl #2]
 3432 002a 6FB1     		cbz	r7, .L308
 313:..\..\..\lvgl\version_6.1.2\lvgl\src\lv_objx/lv_table.c ****     if(type >= LV_TABLE_CELL_STYLE_CNT) type = LV_TABLE_CELL_STYLE_CNT - 1;
 3433              		.loc 1 313 0
 3434 002c 36B1     		cbz	r6, .L302
 3435              	.LVL481:
 3436              	.L309:
 313:..\..\..\lvgl\version_6.1.2\lvgl\src\lv_objx/lv_table.c ****     if(type >= LV_TABLE_CELL_STYLE_CNT) type = LV_TABLE_CELL_STYLE_CNT - 1;
 3437              		.loc 1 313 0 is_stmt 0 discriminator 1
 3438 002e 013E     		subs	r6, r6, #1
 3439 0030 F6B2     		uxtb	r6, r6
 3440              	.LVL482:
 314:..\..\..\lvgl\version_6.1.2\lvgl\src\lv_objx/lv_table.c **** 
 3441              		.loc 1 314 0 is_stmt 1 discriminator 1
 3442 0032 032E     		cmp	r6, #3
 3443 0034 94BF     		ite	ls
 3444 0036 06F00306 		andls	r6, r6, #3
 3445              	.LVL483:
 3446 003a 0326     		movhi	r6, #3
 3447              	.L302:
 317:..\..\..\lvgl\version_6.1.2\lvgl\src\lv_objx/lv_table.c ****     format.s.type           = type;
 3448              		.loc 1 317 0
 3449 003c 3B78     		ldrb	r3, [r7]	@ zero_extendqisi2
 318:..\..\..\lvgl\version_6.1.2\lvgl\src\lv_objx/lv_table.c ****     ext->cell_data[cell][0] = format.format_byte;
 3450              		.loc 1 318 0
 3451 003e 66F3C403 		bfi	r3, r6, #3, #2
 3452              	.LVL484:
ARM GAS  C:\Users\pearlstl\AppData\Local\Temp\ccIJtgHD.s 			page 88


 319:..\..\..\lvgl\version_6.1.2\lvgl\src\lv_objx/lv_table.c **** }
 3453              		.loc 1 319 0
 3454 0042 3B70     		strb	r3, [r7]
 320:..\..\..\lvgl\version_6.1.2\lvgl\src\lv_objx/lv_table.c **** 
 3455              		.loc 1 320 0
 3456 0044 03B0     		add	sp, sp, #12
 3457              		.cfi_remember_state
 3458              		.cfi_def_cfa_offset 20
 3459              		@ sp needed
 3460 0046 F0BD     		pop	{r4, r5, r6, r7, pc}
 3461              	.LVL485:
 3462              	.L308:
 3463              		.cfi_restore_state
 308:..\..\..\lvgl\version_6.1.2\lvgl\src\lv_objx/lv_table.c ****         ext->cell_data[cell][0] = 0;
 3464              		.loc 1 308 0
 3465 0048 0220     		movs	r0, #2
 3466              	.LVL486:
 3467 004a 0193     		str	r3, [sp, #4]
 3468 004c FFF7FEFF 		bl	lv_mem_alloc
 3469              	.LVL487:
 3470 0050 019B     		ldr	r3, [sp, #4]
 3471 0052 43F82400 		str	r0, [r3, r4, lsl #2]
 309:..\..\..\lvgl\version_6.1.2\lvgl\src\lv_objx/lv_table.c ****         ext->cell_data[cell][1] = '\0';
 3472              		.loc 1 309 0
 3473 0056 6B68     		ldr	r3, [r5, #4]
 3474 0058 53F82430 		ldr	r3, [r3, r4, lsl #2]
 3475 005c 1F70     		strb	r7, [r3]
 310:..\..\..\lvgl\version_6.1.2\lvgl\src\lv_objx/lv_table.c ****     }
 3476              		.loc 1 310 0
 3477 005e 6B68     		ldr	r3, [r5, #4]
 3478 0060 53F82430 		ldr	r3, [r3, r4, lsl #2]
 3479 0064 5F70     		strb	r7, [r3, #1]
 3480 0066 6B68     		ldr	r3, [r5, #4]
 3481 0068 53F82470 		ldr	r7, [r3, r4, lsl #2]
 313:..\..\..\lvgl\version_6.1.2\lvgl\src\lv_objx/lv_table.c ****     if(type >= LV_TABLE_CELL_STYLE_CNT) type = LV_TABLE_CELL_STYLE_CNT - 1;
 3482              		.loc 1 313 0
 3483 006c 002E     		cmp	r6, #0
 3484 006e E5D0     		beq	.L302
 3485 0070 DDE7     		b	.L309
 3486              		.cfi_endproc
 3487              	.LFE39:
 3488              		.size	lv_table_set_cell_type, .-lv_table_set_cell_type
 3489 0072 00BF     		.section	.text.lv_table_set_cell_crop,"ax",%progbits
 3490              		.align	2
 3491              		.global	lv_table_set_cell_crop
 3492              		.thumb
 3493              		.thumb_func
 3494              		.type	lv_table_set_cell_crop, %function
 3495              	lv_table_set_cell_crop:
 3496              	.LFB40:
 330:..\..\..\lvgl\version_6.1.2\lvgl\src\lv_objx/lv_table.c ****     LV_ASSERT_OBJ(table, LV_OBJX_NAME);
 3497              		.loc 1 330 0
 3498              		.cfi_startproc
 3499              		@ args = 0, pretend = 0, frame = 8
 3500              		@ frame_needed = 0, uses_anonymous_args = 0
 3501              	.LVL488:
 3502 0000 F0B5     		push	{r4, r5, r6, r7, lr}
ARM GAS  C:\Users\pearlstl\AppData\Local\Temp\ccIJtgHD.s 			page 89


 3503              		.cfi_def_cfa_offset 20
 3504              		.cfi_offset 4, -20
 3505              		.cfi_offset 5, -16
 3506              		.cfi_offset 6, -12
 3507              		.cfi_offset 7, -8
 3508              		.cfi_offset 14, -4
 3509 0002 83B0     		sub	sp, sp, #12
 3510              		.cfi_def_cfa_offset 32
 330:..\..\..\lvgl\version_6.1.2\lvgl\src\lv_objx/lv_table.c ****     LV_ASSERT_OBJ(table, LV_OBJX_NAME);
 3511              		.loc 1 330 0
 3512 0004 0C46     		mov	r4, r1
 3513 0006 1F46     		mov	r7, r3
 3514 0008 1646     		mov	r6, r2
 333:..\..\..\lvgl\version_6.1.2\lvgl\src\lv_objx/lv_table.c ****     if(row >= ext->row_cnt || col >= ext->col_cnt) {
 3515              		.loc 1 333 0
 3516 000a FFF7FEFF 		bl	lv_obj_get_ext_attr
 3517              	.LVL489:
 334:..\..\..\lvgl\version_6.1.2\lvgl\src\lv_objx/lv_table.c ****         LV_LOG_WARN("lv_table_set_cell_crop: invalid row or column");
 3518              		.loc 1 334 0
 3519 000e 4388     		ldrh	r3, [r0, #2]
 3520 0010 A342     		cmp	r3, r4
 3521 0012 0DD9     		bls	.L310
 334:..\..\..\lvgl\version_6.1.2\lvgl\src\lv_objx/lv_table.c ****         LV_LOG_WARN("lv_table_set_cell_crop: invalid row or column");
 3522              		.loc 1 334 0 is_stmt 0 discriminator 1
 3523 0014 0288     		ldrh	r2, [r0]
 3524 0016 B242     		cmp	r2, r6
 3525 0018 0546     		mov	r5, r0
 3526 001a 09D9     		bls	.L310
 3527              	.LVL490:
 340:..\..\..\lvgl\version_6.1.2\lvgl\src\lv_objx/lv_table.c ****         ext->cell_data[cell]    = lv_mem_alloc(2); /*+1: trailing '\0; +1: format byte*/
 3528              		.loc 1 340 0 is_stmt 1
 3529 001c 02FB0464 		mla	r4, r2, r4, r6
 3530              	.LVL491:
 3531 0020 4368     		ldr	r3, [r0, #4]
 3532 0022 53F82460 		ldr	r6, [r3, r4, lsl #2]
 3533 0026 2EB1     		cbz	r6, .L315
 3534              	.LVL492:
 3535              	.L312:
 347:..\..\..\lvgl\version_6.1.2\lvgl\src\lv_objx/lv_table.c ****     format.s.crop           = crop;
 3536              		.loc 1 347 0
 3537 0028 3378     		ldrb	r3, [r6]	@ zero_extendqisi2
 348:..\..\..\lvgl\version_6.1.2\lvgl\src\lv_objx/lv_table.c ****     ext->cell_data[cell][0] = format.format_byte;
 3538              		.loc 1 348 0
 3539 002a 67F34513 		bfi	r3, r7, #5, #1
 3540              	.LVL493:
 349:..\..\..\lvgl\version_6.1.2\lvgl\src\lv_objx/lv_table.c **** }
 3541              		.loc 1 349 0
 3542 002e 3370     		strb	r3, [r6]
 3543              	.LVL494:
 3544              	.L310:
 350:..\..\..\lvgl\version_6.1.2\lvgl\src\lv_objx/lv_table.c **** 
 3545              		.loc 1 350 0
 3546 0030 03B0     		add	sp, sp, #12
 3547              		.cfi_remember_state
 3548              		.cfi_def_cfa_offset 20
 3549              		@ sp needed
 3550 0032 F0BD     		pop	{r4, r5, r6, r7, pc}
ARM GAS  C:\Users\pearlstl\AppData\Local\Temp\ccIJtgHD.s 			page 90


 3551              	.LVL495:
 3552              	.L315:
 3553              		.cfi_restore_state
 341:..\..\..\lvgl\version_6.1.2\lvgl\src\lv_objx/lv_table.c ****         ext->cell_data[cell][0] = 0;
 3554              		.loc 1 341 0
 3555 0034 0220     		movs	r0, #2
 3556              	.LVL496:
 3557 0036 0193     		str	r3, [sp, #4]
 3558 0038 FFF7FEFF 		bl	lv_mem_alloc
 3559              	.LVL497:
 3560 003c 019B     		ldr	r3, [sp, #4]
 3561 003e 43F82400 		str	r0, [r3, r4, lsl #2]
 342:..\..\..\lvgl\version_6.1.2\lvgl\src\lv_objx/lv_table.c ****         ext->cell_data[cell][1] = '\0';
 3562              		.loc 1 342 0
 3563 0042 6B68     		ldr	r3, [r5, #4]
 3564 0044 53F82430 		ldr	r3, [r3, r4, lsl #2]
 3565 0048 1E70     		strb	r6, [r3]
 343:..\..\..\lvgl\version_6.1.2\lvgl\src\lv_objx/lv_table.c ****     }
 3566              		.loc 1 343 0
 3567 004a 6B68     		ldr	r3, [r5, #4]
 3568 004c 53F82430 		ldr	r3, [r3, r4, lsl #2]
 3569 0050 5E70     		strb	r6, [r3, #1]
 3570 0052 6B68     		ldr	r3, [r5, #4]
 3571 0054 53F82460 		ldr	r6, [r3, r4, lsl #2]
 3572 0058 E6E7     		b	.L312
 3573              		.cfi_endproc
 3574              	.LFE40:
 3575              		.size	lv_table_set_cell_crop, .-lv_table_set_cell_crop
 3576 005a 00BF     		.section	.text.lv_table_set_cell_merge_right,"ax",%progbits
 3577              		.align	2
 3578              		.global	lv_table_set_cell_merge_right
 3579              		.thumb
 3580              		.thumb_func
 3581              		.type	lv_table_set_cell_merge_right, %function
 3582              	lv_table_set_cell_merge_right:
 3583              	.LFB41:
 360:..\..\..\lvgl\version_6.1.2\lvgl\src\lv_objx/lv_table.c ****     LV_ASSERT_OBJ(table, LV_OBJX_NAME);
 3584              		.loc 1 360 0
 3585              		.cfi_startproc
 3586              		@ args = 0, pretend = 0, frame = 8
 3587              		@ frame_needed = 0, uses_anonymous_args = 0
 3588              	.LVL498:
 3589 0000 2DE9F043 		push	{r4, r5, r6, r7, r8, r9, lr}
 3590              		.cfi_def_cfa_offset 28
 3591              		.cfi_offset 4, -28
 3592              		.cfi_offset 5, -24
 3593              		.cfi_offset 6, -20
 3594              		.cfi_offset 7, -16
 3595              		.cfi_offset 8, -12
 3596              		.cfi_offset 9, -8
 3597              		.cfi_offset 14, -4
 3598 0004 83B0     		sub	sp, sp, #12
 3599              		.cfi_def_cfa_offset 40
 360:..\..\..\lvgl\version_6.1.2\lvgl\src\lv_objx/lv_table.c ****     LV_ASSERT_OBJ(table, LV_OBJX_NAME);
 3600              		.loc 1 360 0
 3601 0006 0C46     		mov	r4, r1
 3602 0008 9846     		mov	r8, r3
ARM GAS  C:\Users\pearlstl\AppData\Local\Temp\ccIJtgHD.s 			page 91


 3603 000a 1646     		mov	r6, r2
 3604 000c 0746     		mov	r7, r0
 363:..\..\..\lvgl\version_6.1.2\lvgl\src\lv_objx/lv_table.c ****     if(row >= ext->row_cnt || col >= ext->col_cnt) {
 3605              		.loc 1 363 0
 3606 000e FFF7FEFF 		bl	lv_obj_get_ext_attr
 3607              	.LVL499:
 364:..\..\..\lvgl\version_6.1.2\lvgl\src\lv_objx/lv_table.c ****         LV_LOG_WARN("lv_table_set_cell_merge_right: invalid row or column");
 3608              		.loc 1 364 0
 3609 0012 4388     		ldrh	r3, [r0, #2]
 3610 0014 A342     		cmp	r3, r4
 3611 0016 51D9     		bls	.L316
 364:..\..\..\lvgl\version_6.1.2\lvgl\src\lv_objx/lv_table.c ****         LV_LOG_WARN("lv_table_set_cell_merge_right: invalid row or column");
 3612              		.loc 1 364 0 is_stmt 0 discriminator 1
 3613 0018 0288     		ldrh	r2, [r0]
 3614 001a B242     		cmp	r2, r6
 3615 001c 0546     		mov	r5, r0
 3616 001e 4DD9     		bls	.L316
 3617              	.LVL500:
 371:..\..\..\lvgl\version_6.1.2\lvgl\src\lv_objx/lv_table.c ****         ext->cell_data[cell]    = lv_mem_alloc(2); /*+1: trailing '\0; +1: format byte*/
 3618              		.loc 1 371 0 is_stmt 1
 3619 0020 02FB0464 		mla	r4, r2, r4, r6
 3620              	.LVL501:
 3621 0024 4368     		ldr	r3, [r0, #4]
 3622 0026 53F82460 		ldr	r6, [r3, r4, lsl #2]
 3623 002a 002E     		cmp	r6, #0
 3624 002c 49D0     		beq	.L328
 3625              	.LVL502:
 3626              	.L318:
 378:..\..\..\lvgl\version_6.1.2\lvgl\src\lv_objx/lv_table.c ****     format.s.right_merge    = en ? 1 : 0;
 3627              		.loc 1 378 0
 3628 002e 3378     		ldrb	r3, [r6]	@ zero_extendqisi2
 379:..\..\..\lvgl\version_6.1.2\lvgl\src\lv_objx/lv_table.c ****     ext->cell_data[cell][0] = format.format_byte;
 3629              		.loc 1 379 0
 3630 0030 68F38203 		bfi	r3, r8, #2, #1
 3631              	.LVL503:
 380:..\..\..\lvgl\version_6.1.2\lvgl\src\lv_objx/lv_table.c ****     refr_size(table);
 3632              		.loc 1 380 0
 3633 0034 3370     		strb	r3, [r6]
 3634              	.LVL504:
 3635              	.LBB277:
 3636              	.LBB278:
 816:..\..\..\lvgl\version_6.1.2\lvgl\src\lv_objx/lv_table.c **** 
 3637              		.loc 1 816 0
 3638 0036 3846     		mov	r0, r7
 3639 0038 FFF7FEFF 		bl	lv_obj_get_ext_attr
 3640              	.LVL505:
 819:..\..\..\lvgl\version_6.1.2\lvgl\src\lv_objx/lv_table.c ****         w += ext->col_w[i];
 3641              		.loc 1 819 0
 3642 003c 0488     		ldrh	r4, [r0]
 816:..\..\..\lvgl\version_6.1.2\lvgl\src\lv_objx/lv_table.c **** 
 3643              		.loc 1 816 0
 3644 003e 8046     		mov	r8, r0
 3645              	.LVL506:
 819:..\..\..\lvgl\version_6.1.2\lvgl\src\lv_objx/lv_table.c ****         w += ext->col_w[i];
 3646              		.loc 1 819 0
 3647 0040 74B1     		cbz	r4, .L319
 3648 0042 601E     		subs	r0, r4, #1
ARM GAS  C:\Users\pearlstl\AppData\Local\Temp\ccIJtgHD.s 			page 92


 3649              	.LVL507:
 3650 0044 80B2     		uxth	r0, r0
 3651 0046 0C30     		adds	r0, r0, #12
 3652 0048 08EB4000 		add	r0, r8, r0, lsl #1
 3653 004c 08F11602 		add	r2, r8, #22
 3654 0050 0021     		movs	r1, #0
 3655              	.LVL508:
 3656              	.L320:
 820:..\..\..\lvgl\version_6.1.2\lvgl\src\lv_objx/lv_table.c ****     }
 3657              		.loc 1 820 0
 3658 0052 32F8023F 		ldrh	r3, [r2, #2]!
 3659 0056 CC18     		adds	r4, r1, r3
 3660 0058 A4B2     		uxth	r4, r4
 819:..\..\..\lvgl\version_6.1.2\lvgl\src\lv_objx/lv_table.c ****         w += ext->col_w[i];
 3661              		.loc 1 819 0
 3662 005a 9042     		cmp	r0, r2
 820:..\..\..\lvgl\version_6.1.2\lvgl\src\lv_objx/lv_table.c ****     }
 3663              		.loc 1 820 0
 3664 005c 21B2     		sxth	r1, r4
 3665              	.LVL509:
 819:..\..\..\lvgl\version_6.1.2\lvgl\src\lv_objx/lv_table.c ****         w += ext->col_w[i];
 3666              		.loc 1 819 0
 3667 005e F8D1     		bne	.L320
 3668              	.LVL510:
 3669              	.L319:
 822:..\..\..\lvgl\version_6.1.2\lvgl\src\lv_objx/lv_table.c ****         h += get_row_height(table, i);
 3670              		.loc 1 822 0
 3671 0060 B8F80200 		ldrh	r0, [r8, #2]
 3672 0064 0028     		cmp	r0, #0
 3673 0066 3FD0     		beq	.L324
 3674 0068 0026     		movs	r6, #0
 3675 006a 3546     		mov	r5, r6
 3676              	.LVL511:
 3677              	.L322:
 823:..\..\..\lvgl\version_6.1.2\lvgl\src\lv_objx/lv_table.c ****     }
 3678              		.loc 1 823 0
 3679 006c 2946     		mov	r1, r5
 3680 006e 3846     		mov	r0, r7
 3681 0070 FFF7FEFF 		bl	get_row_height
 3682              	.LVL512:
 822:..\..\..\lvgl\version_6.1.2\lvgl\src\lv_objx/lv_table.c ****         h += get_row_height(table, i);
 3683              		.loc 1 822 0
 3684 0074 0135     		adds	r5, r5, #1
 3685              	.LVL513:
 3686 0076 B8F80230 		ldrh	r3, [r8, #2]
 823:..\..\..\lvgl\version_6.1.2\lvgl\src\lv_objx/lv_table.c ****     }
 3687              		.loc 1 823 0
 3688 007a 3044     		add	r0, r0, r6
 822:..\..\..\lvgl\version_6.1.2\lvgl\src\lv_objx/lv_table.c ****         h += get_row_height(table, i);
 3689              		.loc 1 822 0
 3690 007c ADB2     		uxth	r5, r5
 823:..\..\..\lvgl\version_6.1.2\lvgl\src\lv_objx/lv_table.c ****     }
 3691              		.loc 1 823 0
 3692 007e 1FFA80F9 		uxth	r9, r0
 822:..\..\..\lvgl\version_6.1.2\lvgl\src\lv_objx/lv_table.c ****         h += get_row_height(table, i);
 3693              		.loc 1 822 0
 3694 0082 AB42     		cmp	r3, r5
ARM GAS  C:\Users\pearlstl\AppData\Local\Temp\ccIJtgHD.s 			page 93


 823:..\..\..\lvgl\version_6.1.2\lvgl\src\lv_objx/lv_table.c ****     }
 3695              		.loc 1 823 0
 3696 0084 0FFA89F6 		sxth	r6, r9
 3697              	.LVL514:
 822:..\..\..\lvgl\version_6.1.2\lvgl\src\lv_objx/lv_table.c ****         h += get_row_height(table, i);
 3698              		.loc 1 822 0
 3699 0088 F0D8     		bhi	.L322
 3700              	.LVL515:
 3701              	.L321:
 826:..\..\..\lvgl\version_6.1.2\lvgl\src\lv_objx/lv_table.c **** 
 3702              		.loc 1 826 0
 3703 008a 3846     		mov	r0, r7
 3704 008c FFF7FEFF 		bl	lv_obj_get_style
 3705              	.LVL516:
 3706 0090 0346     		mov	r3, r0
 3707              	.LVL517:
 831:..\..\..\lvgl\version_6.1.2\lvgl\src\lv_objx/lv_table.c ****     lv_obj_invalidate(table);
 3708              		.loc 1 831 0
 3709 0092 3846     		mov	r0, r7
 3710              	.LVL518:
 3711 0094 1D8C     		ldrh	r5, [r3, #32]
 3712 0096 5A8C     		ldrh	r2, [r3, #34]
 3713 0098 998C     		ldrh	r1, [r3, #36]
 3714 009a DB8C     		ldrh	r3, [r3, #38]
 3715              	.LVL519:
 3716 009c 2A44     		add	r2, r2, r5
 3717 009e 1944     		add	r1, r1, r3
 3718 00a0 0132     		adds	r2, r2, #1
 3719 00a2 0131     		adds	r1, r1, #1
 3720 00a4 4A44     		add	r2, r2, r9
 3721 00a6 2144     		add	r1, r1, r4
 3722 00a8 12B2     		sxth	r2, r2
 3723 00aa 09B2     		sxth	r1, r1
 3724 00ac FFF7FEFF 		bl	lv_obj_set_size
 3725              	.LVL520:
 832:..\..\..\lvgl\version_6.1.2\lvgl\src\lv_objx/lv_table.c **** }
 3726              		.loc 1 832 0
 3727 00b0 3846     		mov	r0, r7
 3728              	.LBE278:
 3729              	.LBE277:
 382:..\..\..\lvgl\version_6.1.2\lvgl\src\lv_objx/lv_table.c **** 
 3730              		.loc 1 382 0
 3731 00b2 03B0     		add	sp, sp, #12
 3732              		.cfi_remember_state
 3733              		.cfi_def_cfa_offset 28
 3734              		@ sp needed
 3735 00b4 BDE8F043 		pop	{r4, r5, r6, r7, r8, r9, lr}
 3736              		.cfi_restore 14
 3737              		.cfi_restore 9
 3738              		.cfi_restore 8
 3739              		.cfi_restore 7
 3740              		.cfi_restore 6
 3741              		.cfi_restore 5
 3742              		.cfi_restore 4
 3743              		.cfi_def_cfa_offset 0
 3744              	.LVL521:
 3745              	.LBB281:
ARM GAS  C:\Users\pearlstl\AppData\Local\Temp\ccIJtgHD.s 			page 94


 3746              	.LBB279:
 832:..\..\..\lvgl\version_6.1.2\lvgl\src\lv_objx/lv_table.c **** }
 3747              		.loc 1 832 0
 3748 00b8 FFF7FEBF 		b	lv_obj_invalidate
 3749              	.LVL522:
 3750              	.L316:
 3751              		.cfi_restore_state
 3752              	.LBE279:
 3753              	.LBE281:
 382:..\..\..\lvgl\version_6.1.2\lvgl\src\lv_objx/lv_table.c **** 
 3754              		.loc 1 382 0
 3755 00bc 03B0     		add	sp, sp, #12
 3756              		.cfi_remember_state
 3757              		.cfi_def_cfa_offset 28
 3758              		@ sp needed
 3759 00be BDE8F083 		pop	{r4, r5, r6, r7, r8, r9, pc}
 3760              	.LVL523:
 3761              	.L328:
 3762              		.cfi_restore_state
 372:..\..\..\lvgl\version_6.1.2\lvgl\src\lv_objx/lv_table.c ****         ext->cell_data[cell][0] = 0;
 3763              		.loc 1 372 0
 3764 00c2 0220     		movs	r0, #2
 3765              	.LVL524:
 3766 00c4 0193     		str	r3, [sp, #4]
 3767 00c6 FFF7FEFF 		bl	lv_mem_alloc
 3768              	.LVL525:
 3769 00ca 019B     		ldr	r3, [sp, #4]
 3770 00cc 43F82400 		str	r0, [r3, r4, lsl #2]
 373:..\..\..\lvgl\version_6.1.2\lvgl\src\lv_objx/lv_table.c ****         ext->cell_data[cell][1] = '\0';
 3771              		.loc 1 373 0
 3772 00d0 6B68     		ldr	r3, [r5, #4]
 3773 00d2 53F82430 		ldr	r3, [r3, r4, lsl #2]
 3774 00d6 1E70     		strb	r6, [r3]
 374:..\..\..\lvgl\version_6.1.2\lvgl\src\lv_objx/lv_table.c ****     }
 3775              		.loc 1 374 0
 3776 00d8 6B68     		ldr	r3, [r5, #4]
 3777 00da 53F82430 		ldr	r3, [r3, r4, lsl #2]
 3778 00de 5E70     		strb	r6, [r3, #1]
 3779 00e0 6B68     		ldr	r3, [r5, #4]
 3780 00e2 53F82460 		ldr	r6, [r3, r4, lsl #2]
 3781 00e6 A2E7     		b	.L318
 3782              	.LVL526:
 3783              	.L324:
 3784              	.LBB282:
 3785              	.LBB280:
 822:..\..\..\lvgl\version_6.1.2\lvgl\src\lv_objx/lv_table.c ****         h += get_row_height(table, i);
 3786              		.loc 1 822 0
 3787 00e8 8146     		mov	r9, r0
 3788 00ea CEE7     		b	.L321
 3789              	.LBE280:
 3790              	.LBE282:
 3791              		.cfi_endproc
 3792              	.LFE41:
 3793              		.size	lv_table_set_cell_merge_right, .-lv_table_set_cell_merge_right
 3794              		.section	.text.lv_table_set_style,"ax",%progbits
 3795              		.align	2
 3796              		.global	lv_table_set_style
ARM GAS  C:\Users\pearlstl\AppData\Local\Temp\ccIJtgHD.s 			page 95


 3797              		.thumb
 3798              		.thumb_func
 3799              		.type	lv_table_set_style, %function
 3800              	lv_table_set_style:
 3801              	.LFB42:
 391:..\..\..\lvgl\version_6.1.2\lvgl\src\lv_objx/lv_table.c ****     LV_ASSERT_OBJ(table, LV_OBJX_NAME);
 3802              		.loc 1 391 0
 3803              		.cfi_startproc
 3804              		@ args = 0, pretend = 0, frame = 0
 3805              		@ frame_needed = 0, uses_anonymous_args = 0
 3806              	.LVL527:
 3807 0000 2DE9F843 		push	{r3, r4, r5, r6, r7, r8, r9, lr}
 3808              		.cfi_def_cfa_offset 32
 3809              		.cfi_offset 3, -32
 3810              		.cfi_offset 4, -28
 3811              		.cfi_offset 5, -24
 3812              		.cfi_offset 6, -20
 3813              		.cfi_offset 7, -16
 3814              		.cfi_offset 8, -12
 3815              		.cfi_offset 9, -8
 3816              		.cfi_offset 14, -4
 391:..\..\..\lvgl\version_6.1.2\lvgl\src\lv_objx/lv_table.c ****     LV_ASSERT_OBJ(table, LV_OBJX_NAME);
 3817              		.loc 1 391 0
 3818 0004 0D46     		mov	r5, r1
 3819 0006 1646     		mov	r6, r2
 3820 0008 0446     		mov	r4, r0
 394:..\..\..\lvgl\version_6.1.2\lvgl\src\lv_objx/lv_table.c **** 
 3821              		.loc 1 394 0
 3822 000a FFF7FEFF 		bl	lv_obj_get_ext_attr
 3823              	.LVL528:
 396:..\..\..\lvgl\version_6.1.2\lvgl\src\lv_objx/lv_table.c ****         case LV_TABLE_STYLE_BG:
 3824              		.loc 1 396 0
 3825 000e 042D     		cmp	r5, #4
 3826 0010 00F2FC80 		bhi	.L329
 3827 0014 DFE805F0 		tbb	[pc, r5]
 3828              	.L332:
 3829 0018 47       		.byte	(.L331-.L332)/2
 3830 0019 A3       		.byte	(.L333-.L332)/2
 3831 001a 77       		.byte	(.L334-.L332)/2
 3832 001b CF       		.byte	(.L335-.L332)/2
 3833 001c 03       		.byte	(.L336-.L332)/2
 3834 001d 00       		.p2align 1
 3835              	.L336:
 414:..\..\..\lvgl\version_6.1.2\lvgl\src\lv_objx/lv_table.c ****             refr_size(table);
 3836              		.loc 1 414 0
 3837 001e 4661     		str	r6, [r0, #20]
 3838              	.LVL529:
 3839              	.LBB295:
 3840              	.LBB296:
 816:..\..\..\lvgl\version_6.1.2\lvgl\src\lv_objx/lv_table.c **** 
 3841              		.loc 1 816 0
 3842 0020 2046     		mov	r0, r4
 3843              	.LVL530:
 3844 0022 FFF7FEFF 		bl	lv_obj_get_ext_attr
 3845              	.LVL531:
 819:..\..\..\lvgl\version_6.1.2\lvgl\src\lv_objx/lv_table.c ****         w += ext->col_w[i];
 3846              		.loc 1 819 0
ARM GAS  C:\Users\pearlstl\AppData\Local\Temp\ccIJtgHD.s 			page 96


 3847 0026 0588     		ldrh	r5, [r0]
 816:..\..\..\lvgl\version_6.1.2\lvgl\src\lv_objx/lv_table.c **** 
 3848              		.loc 1 816 0
 3849 0028 8046     		mov	r8, r0
 3850              	.LVL532:
 819:..\..\..\lvgl\version_6.1.2\lvgl\src\lv_objx/lv_table.c ****         w += ext->col_w[i];
 3851              		.loc 1 819 0
 3852 002a 75B1     		cbz	r5, .L353
 3853 002c 681E     		subs	r0, r5, #1
 3854              	.LVL533:
 3855 002e 80B2     		uxth	r0, r0
 3856 0030 0C30     		adds	r0, r0, #12
 3857 0032 08EB4000 		add	r0, r8, r0, lsl #1
 3858 0036 08F11602 		add	r2, r8, #22
 3859 003a 0021     		movs	r1, #0
 3860              	.LVL534:
 3861              	.L354:
 820:..\..\..\lvgl\version_6.1.2\lvgl\src\lv_objx/lv_table.c ****     }
 3862              		.loc 1 820 0
 3863 003c 32F8023F 		ldrh	r3, [r2, #2]!
 3864 0040 CD18     		adds	r5, r1, r3
 3865 0042 ADB2     		uxth	r5, r5
 819:..\..\..\lvgl\version_6.1.2\lvgl\src\lv_objx/lv_table.c ****         w += ext->col_w[i];
 3866              		.loc 1 819 0
 3867 0044 8242     		cmp	r2, r0
 820:..\..\..\lvgl\version_6.1.2\lvgl\src\lv_objx/lv_table.c ****     }
 3868              		.loc 1 820 0
 3869 0046 29B2     		sxth	r1, r5
 3870              	.LVL535:
 819:..\..\..\lvgl\version_6.1.2\lvgl\src\lv_objx/lv_table.c ****         w += ext->col_w[i];
 3871              		.loc 1 819 0
 3872 0048 F8D1     		bne	.L354
 3873              	.LVL536:
 3874              	.L353:
 822:..\..\..\lvgl\version_6.1.2\lvgl\src\lv_objx/lv_table.c ****         h += get_row_height(table, i);
 3875              		.loc 1 822 0
 3876 004a B8F80200 		ldrh	r0, [r8, #2]
 3877 004e 0028     		cmp	r0, #0
 3878 0050 00F0DE80 		beq	.L366
 3879 0054 0027     		movs	r7, #0
 3880 0056 3E46     		mov	r6, r7
 3881              	.LVL537:
 3882              	.L356:
 823:..\..\..\lvgl\version_6.1.2\lvgl\src\lv_objx/lv_table.c ****     }
 3883              		.loc 1 823 0
 3884 0058 3146     		mov	r1, r6
 3885 005a 2046     		mov	r0, r4
 3886 005c FFF7FEFF 		bl	get_row_height
 3887              	.LVL538:
 822:..\..\..\lvgl\version_6.1.2\lvgl\src\lv_objx/lv_table.c ****         h += get_row_height(table, i);
 3888              		.loc 1 822 0
 3889 0060 0136     		adds	r6, r6, #1
 3890              	.LVL539:
 3891 0062 B8F80230 		ldrh	r3, [r8, #2]
 823:..\..\..\lvgl\version_6.1.2\lvgl\src\lv_objx/lv_table.c ****     }
 3892              		.loc 1 823 0
 3893 0066 3844     		add	r0, r0, r7
ARM GAS  C:\Users\pearlstl\AppData\Local\Temp\ccIJtgHD.s 			page 97


 822:..\..\..\lvgl\version_6.1.2\lvgl\src\lv_objx/lv_table.c ****         h += get_row_height(table, i);
 3894              		.loc 1 822 0
 3895 0068 B6B2     		uxth	r6, r6
 823:..\..\..\lvgl\version_6.1.2\lvgl\src\lv_objx/lv_table.c ****     }
 3896              		.loc 1 823 0
 3897 006a 1FFA80F9 		uxth	r9, r0
 822:..\..\..\lvgl\version_6.1.2\lvgl\src\lv_objx/lv_table.c ****         h += get_row_height(table, i);
 3898              		.loc 1 822 0
 3899 006e B342     		cmp	r3, r6
 823:..\..\..\lvgl\version_6.1.2\lvgl\src\lv_objx/lv_table.c ****     }
 3900              		.loc 1 823 0
 3901 0070 0FFA89F7 		sxth	r7, r9
 3902              	.LVL540:
 822:..\..\..\lvgl\version_6.1.2\lvgl\src\lv_objx/lv_table.c ****         h += get_row_height(table, i);
 3903              		.loc 1 822 0
 3904 0074 F0D8     		bhi	.L356
 3905              	.LVL541:
 3906              	.L355:
 826:..\..\..\lvgl\version_6.1.2\lvgl\src\lv_objx/lv_table.c **** 
 3907              		.loc 1 826 0
 3908 0076 2046     		mov	r0, r4
 3909 0078 FFF7FEFF 		bl	lv_obj_get_style
 3910              	.LVL542:
 3911 007c 0346     		mov	r3, r0
 3912              	.LVL543:
 831:..\..\..\lvgl\version_6.1.2\lvgl\src\lv_objx/lv_table.c ****     lv_obj_invalidate(table);
 3913              		.loc 1 831 0
 3914 007e 2046     		mov	r0, r4
 3915              	.LVL544:
 3916 0080 1E8C     		ldrh	r6, [r3, #32]
 3917 0082 5A8C     		ldrh	r2, [r3, #34]
 3918 0084 998C     		ldrh	r1, [r3, #36]
 3919 0086 DB8C     		ldrh	r3, [r3, #38]
 3920              	.LVL545:
 3921 0088 3244     		add	r2, r2, r6
 3922 008a 1944     		add	r1, r1, r3
 3923 008c 0132     		adds	r2, r2, #1
 3924 008e 0131     		adds	r1, r1, #1
 3925 0090 4A44     		add	r2, r2, r9
 3926 0092 2944     		add	r1, r1, r5
 3927 0094 12B2     		sxth	r2, r2
 3928 0096 09B2     		sxth	r1, r1
 3929 0098 FFF7FEFF 		bl	lv_obj_set_size
 3930              	.LVL546:
 832:..\..\..\lvgl\version_6.1.2\lvgl\src\lv_objx/lv_table.c **** }
 3931              		.loc 1 832 0
 3932 009c 2046     		mov	r0, r4
 3933              	.LBE296:
 3934              	.LBE295:
 418:..\..\..\lvgl\version_6.1.2\lvgl\src\lv_objx/lv_table.c **** 
 3935              		.loc 1 418 0
 3936 009e BDE8F843 		pop	{r3, r4, r5, r6, r7, r8, r9, lr}
 3937              		.cfi_remember_state
 3938              		.cfi_restore 14
 3939              		.cfi_restore 9
 3940              		.cfi_restore 8
 3941              		.cfi_restore 7
ARM GAS  C:\Users\pearlstl\AppData\Local\Temp\ccIJtgHD.s 			page 98


 3942              		.cfi_restore 6
 3943              		.cfi_restore 5
 3944              		.cfi_restore 4
 3945              		.cfi_restore 3
 3946              		.cfi_def_cfa_offset 0
 3947              	.LVL547:
 3948              	.LBB299:
 3949              	.LBB297:
 832:..\..\..\lvgl\version_6.1.2\lvgl\src\lv_objx/lv_table.c **** }
 3950              		.loc 1 832 0
 3951 00a2 FFF7FEBF 		b	lv_obj_invalidate
 3952              	.LVL548:
 3953              	.L331:
 3954              		.cfi_restore_state
 3955              	.LBE297:
 3956              	.LBE299:
 3957              	.LBB300:
 3958              	.LBB301:
 398:..\..\..\lvgl\version_6.1.2\lvgl\src\lv_objx/lv_table.c ****             refr_size(table);
 3959              		.loc 1 398 0
 3960 00a6 3146     		mov	r1, r6
 3961 00a8 2046     		mov	r0, r4
 3962              	.LVL549:
 3963 00aa FFF7FEFF 		bl	lv_obj_set_style
 3964              	.LVL550:
 3965              	.LBB302:
 3966              	.LBB303:
 816:..\..\..\lvgl\version_6.1.2\lvgl\src\lv_objx/lv_table.c **** 
 3967              		.loc 1 816 0
 3968 00ae 2046     		mov	r0, r4
 3969 00b0 FFF7FEFF 		bl	lv_obj_get_ext_attr
 3970              	.LVL551:
 819:..\..\..\lvgl\version_6.1.2\lvgl\src\lv_objx/lv_table.c ****         w += ext->col_w[i];
 3971              		.loc 1 819 0
 3972 00b4 0588     		ldrh	r5, [r0]
 816:..\..\..\lvgl\version_6.1.2\lvgl\src\lv_objx/lv_table.c **** 
 3973              		.loc 1 816 0
 3974 00b6 8046     		mov	r8, r0
 3975              	.LVL552:
 819:..\..\..\lvgl\version_6.1.2\lvgl\src\lv_objx/lv_table.c ****         w += ext->col_w[i];
 3976              		.loc 1 819 0
 3977 00b8 75B1     		cbz	r5, .L337
 3978 00ba 681E     		subs	r0, r5, #1
 3979              	.LVL553:
 3980 00bc 80B2     		uxth	r0, r0
 3981 00be 0C30     		adds	r0, r0, #12
 3982 00c0 08EB4000 		add	r0, r8, r0, lsl #1
 3983 00c4 08F11602 		add	r2, r8, #22
 3984 00c8 0021     		movs	r1, #0
 3985              	.LVL554:
 3986              	.L338:
 820:..\..\..\lvgl\version_6.1.2\lvgl\src\lv_objx/lv_table.c ****     }
 3987              		.loc 1 820 0
 3988 00ca 32F8023F 		ldrh	r3, [r2, #2]!
 3989 00ce CD18     		adds	r5, r1, r3
 3990 00d0 ADB2     		uxth	r5, r5
 819:..\..\..\lvgl\version_6.1.2\lvgl\src\lv_objx/lv_table.c ****         w += ext->col_w[i];
ARM GAS  C:\Users\pearlstl\AppData\Local\Temp\ccIJtgHD.s 			page 99


 3991              		.loc 1 819 0
 3992 00d2 8242     		cmp	r2, r0
 820:..\..\..\lvgl\version_6.1.2\lvgl\src\lv_objx/lv_table.c ****     }
 3993              		.loc 1 820 0
 3994 00d4 29B2     		sxth	r1, r5
 3995              	.LVL555:
 819:..\..\..\lvgl\version_6.1.2\lvgl\src\lv_objx/lv_table.c ****         w += ext->col_w[i];
 3996              		.loc 1 819 0
 3997 00d6 F8D1     		bne	.L338
 3998              	.LVL556:
 3999              	.L337:
 822:..\..\..\lvgl\version_6.1.2\lvgl\src\lv_objx/lv_table.c ****         h += get_row_height(table, i);
 4000              		.loc 1 822 0
 4001 00d8 B8F80200 		ldrh	r0, [r8, #2]
 4002 00dc 0028     		cmp	r0, #0
 4003 00de 00F09780 		beq	.L366
 4004 00e2 0027     		movs	r7, #0
 4005 00e4 3E46     		mov	r6, r7
 4006              	.LVL557:
 4007              	.L340:
 823:..\..\..\lvgl\version_6.1.2\lvgl\src\lv_objx/lv_table.c ****     }
 4008              		.loc 1 823 0
 4009 00e6 3146     		mov	r1, r6
 4010 00e8 2046     		mov	r0, r4
 4011 00ea FFF7FEFF 		bl	get_row_height
 4012              	.LVL558:
 822:..\..\..\lvgl\version_6.1.2\lvgl\src\lv_objx/lv_table.c ****         h += get_row_height(table, i);
 4013              		.loc 1 822 0
 4014 00ee 0136     		adds	r6, r6, #1
 4015              	.LVL559:
 4016 00f0 B8F80230 		ldrh	r3, [r8, #2]
 823:..\..\..\lvgl\version_6.1.2\lvgl\src\lv_objx/lv_table.c ****     }
 4017              		.loc 1 823 0
 4018 00f4 3844     		add	r0, r0, r7
 822:..\..\..\lvgl\version_6.1.2\lvgl\src\lv_objx/lv_table.c ****         h += get_row_height(table, i);
 4019              		.loc 1 822 0
 4020 00f6 B6B2     		uxth	r6, r6
 823:..\..\..\lvgl\version_6.1.2\lvgl\src\lv_objx/lv_table.c ****     }
 4021              		.loc 1 823 0
 4022 00f8 1FFA80F9 		uxth	r9, r0
 822:..\..\..\lvgl\version_6.1.2\lvgl\src\lv_objx/lv_table.c ****         h += get_row_height(table, i);
 4023              		.loc 1 822 0
 4024 00fc B342     		cmp	r3, r6
 823:..\..\..\lvgl\version_6.1.2\lvgl\src\lv_objx/lv_table.c ****     }
 4025              		.loc 1 823 0
 4026 00fe 0FFA89F7 		sxth	r7, r9
 4027              	.LVL560:
 822:..\..\..\lvgl\version_6.1.2\lvgl\src\lv_objx/lv_table.c ****         h += get_row_height(table, i);
 4028              		.loc 1 822 0
 4029 0102 F0D8     		bhi	.L340
 4030 0104 B7E7     		b	.L355
 4031              	.LVL561:
 4032              	.L334:
 4033              	.LBE303:
 4034              	.LBE302:
 4035              	.LBE301:
 4036              	.LBE300:
ARM GAS  C:\Users\pearlstl\AppData\Local\Temp\ccIJtgHD.s 			page 100


 406:..\..\..\lvgl\version_6.1.2\lvgl\src\lv_objx/lv_table.c ****             refr_size(table);
 4037              		.loc 1 406 0
 4038 0106 C660     		str	r6, [r0, #12]
 4039              	.LVL562:
 4040              	.LBB304:
 4041              	.LBB305:
 816:..\..\..\lvgl\version_6.1.2\lvgl\src\lv_objx/lv_table.c **** 
 4042              		.loc 1 816 0
 4043 0108 2046     		mov	r0, r4
 4044              	.LVL563:
 4045 010a FFF7FEFF 		bl	lv_obj_get_ext_attr
 4046              	.LVL564:
 819:..\..\..\lvgl\version_6.1.2\lvgl\src\lv_objx/lv_table.c ****         w += ext->col_w[i];
 4047              		.loc 1 819 0
 4048 010e 0588     		ldrh	r5, [r0]
 816:..\..\..\lvgl\version_6.1.2\lvgl\src\lv_objx/lv_table.c **** 
 4049              		.loc 1 816 0
 4050 0110 8046     		mov	r8, r0
 4051              	.LVL565:
 819:..\..\..\lvgl\version_6.1.2\lvgl\src\lv_objx/lv_table.c ****         w += ext->col_w[i];
 4052              		.loc 1 819 0
 4053 0112 75B1     		cbz	r5, .L345
 4054 0114 681E     		subs	r0, r5, #1
 4055              	.LVL566:
 4056 0116 80B2     		uxth	r0, r0
 4057 0118 0C30     		adds	r0, r0, #12
 4058 011a 08EB4000 		add	r0, r8, r0, lsl #1
 4059 011e 08F11602 		add	r2, r8, #22
 4060 0122 0021     		movs	r1, #0
 4061              	.LVL567:
 4062              	.L346:
 820:..\..\..\lvgl\version_6.1.2\lvgl\src\lv_objx/lv_table.c ****     }
 4063              		.loc 1 820 0
 4064 0124 32F8023F 		ldrh	r3, [r2, #2]!
 4065 0128 CD18     		adds	r5, r1, r3
 4066 012a ADB2     		uxth	r5, r5
 819:..\..\..\lvgl\version_6.1.2\lvgl\src\lv_objx/lv_table.c ****         w += ext->col_w[i];
 4067              		.loc 1 819 0
 4068 012c 8242     		cmp	r2, r0
 820:..\..\..\lvgl\version_6.1.2\lvgl\src\lv_objx/lv_table.c ****     }
 4069              		.loc 1 820 0
 4070 012e 29B2     		sxth	r1, r5
 4071              	.LVL568:
 819:..\..\..\lvgl\version_6.1.2\lvgl\src\lv_objx/lv_table.c ****         w += ext->col_w[i];
 4072              		.loc 1 819 0
 4073 0130 F8D1     		bne	.L346
 4074              	.LVL569:
 4075              	.L345:
 822:..\..\..\lvgl\version_6.1.2\lvgl\src\lv_objx/lv_table.c ****         h += get_row_height(table, i);
 4076              		.loc 1 822 0
 4077 0132 B8F80200 		ldrh	r0, [r8, #2]
 4078 0136 0028     		cmp	r0, #0
 4079 0138 6AD0     		beq	.L366
 4080 013a 0027     		movs	r7, #0
 4081 013c 3E46     		mov	r6, r7
 4082              	.LVL570:
 4083              	.L348:
ARM GAS  C:\Users\pearlstl\AppData\Local\Temp\ccIJtgHD.s 			page 101


 823:..\..\..\lvgl\version_6.1.2\lvgl\src\lv_objx/lv_table.c ****     }
 4084              		.loc 1 823 0
 4085 013e 3146     		mov	r1, r6
 4086 0140 2046     		mov	r0, r4
 4087 0142 FFF7FEFF 		bl	get_row_height
 4088              	.LVL571:
 822:..\..\..\lvgl\version_6.1.2\lvgl\src\lv_objx/lv_table.c ****         h += get_row_height(table, i);
 4089              		.loc 1 822 0
 4090 0146 0136     		adds	r6, r6, #1
 4091              	.LVL572:
 4092 0148 B8F80230 		ldrh	r3, [r8, #2]
 823:..\..\..\lvgl\version_6.1.2\lvgl\src\lv_objx/lv_table.c ****     }
 4093              		.loc 1 823 0
 4094 014c 3844     		add	r0, r0, r7
 822:..\..\..\lvgl\version_6.1.2\lvgl\src\lv_objx/lv_table.c ****         h += get_row_height(table, i);
 4095              		.loc 1 822 0
 4096 014e B6B2     		uxth	r6, r6
 823:..\..\..\lvgl\version_6.1.2\lvgl\src\lv_objx/lv_table.c ****     }
 4097              		.loc 1 823 0
 4098 0150 1FFA80F9 		uxth	r9, r0
 822:..\..\..\lvgl\version_6.1.2\lvgl\src\lv_objx/lv_table.c ****         h += get_row_height(table, i);
 4099              		.loc 1 822 0
 4100 0154 B342     		cmp	r3, r6
 823:..\..\..\lvgl\version_6.1.2\lvgl\src\lv_objx/lv_table.c ****     }
 4101              		.loc 1 823 0
 4102 0156 0FFA89F7 		sxth	r7, r9
 4103              	.LVL573:
 822:..\..\..\lvgl\version_6.1.2\lvgl\src\lv_objx/lv_table.c ****         h += get_row_height(table, i);
 4104              		.loc 1 822 0
 4105 015a F0D8     		bhi	.L348
 4106 015c 8BE7     		b	.L355
 4107              	.LVL574:
 4108              	.L333:
 4109              	.LBE305:
 4110              	.LBE304:
 402:..\..\..\lvgl\version_6.1.2\lvgl\src\lv_objx/lv_table.c ****             refr_size(table);
 4111              		.loc 1 402 0
 4112 015e 8660     		str	r6, [r0, #8]
 4113              	.LVL575:
 4114              	.LBB306:
 4115              	.LBB307:
 816:..\..\..\lvgl\version_6.1.2\lvgl\src\lv_objx/lv_table.c **** 
 4116              		.loc 1 816 0
 4117 0160 2046     		mov	r0, r4
 4118              	.LVL576:
 4119 0162 FFF7FEFF 		bl	lv_obj_get_ext_attr
 4120              	.LVL577:
 819:..\..\..\lvgl\version_6.1.2\lvgl\src\lv_objx/lv_table.c ****         w += ext->col_w[i];
 4121              		.loc 1 819 0
 4122 0166 0588     		ldrh	r5, [r0]
 816:..\..\..\lvgl\version_6.1.2\lvgl\src\lv_objx/lv_table.c **** 
 4123              		.loc 1 816 0
 4124 0168 8046     		mov	r8, r0
 4125              	.LVL578:
 819:..\..\..\lvgl\version_6.1.2\lvgl\src\lv_objx/lv_table.c ****         w += ext->col_w[i];
 4126              		.loc 1 819 0
 4127 016a 75B1     		cbz	r5, .L341
ARM GAS  C:\Users\pearlstl\AppData\Local\Temp\ccIJtgHD.s 			page 102


 4128 016c 681E     		subs	r0, r5, #1
 4129              	.LVL579:
 4130 016e 80B2     		uxth	r0, r0
 4131 0170 0C30     		adds	r0, r0, #12
 4132 0172 08EB4000 		add	r0, r8, r0, lsl #1
 4133 0176 08F11602 		add	r2, r8, #22
 4134 017a 0021     		movs	r1, #0
 4135              	.LVL580:
 4136              	.L342:
 820:..\..\..\lvgl\version_6.1.2\lvgl\src\lv_objx/lv_table.c ****     }
 4137              		.loc 1 820 0
 4138 017c 32F8023F 		ldrh	r3, [r2, #2]!
 4139 0180 CD18     		adds	r5, r1, r3
 4140 0182 ADB2     		uxth	r5, r5
 819:..\..\..\lvgl\version_6.1.2\lvgl\src\lv_objx/lv_table.c ****         w += ext->col_w[i];
 4141              		.loc 1 819 0
 4142 0184 8242     		cmp	r2, r0
 820:..\..\..\lvgl\version_6.1.2\lvgl\src\lv_objx/lv_table.c ****     }
 4143              		.loc 1 820 0
 4144 0186 29B2     		sxth	r1, r5
 4145              	.LVL581:
 819:..\..\..\lvgl\version_6.1.2\lvgl\src\lv_objx/lv_table.c ****         w += ext->col_w[i];
 4146              		.loc 1 819 0
 4147 0188 F8D1     		bne	.L342
 4148              	.LVL582:
 4149              	.L341:
 822:..\..\..\lvgl\version_6.1.2\lvgl\src\lv_objx/lv_table.c ****         h += get_row_height(table, i);
 4150              		.loc 1 822 0
 4151 018a B8F80200 		ldrh	r0, [r8, #2]
 4152 018e 0028     		cmp	r0, #0
 4153 0190 3ED0     		beq	.L366
 4154 0192 0027     		movs	r7, #0
 4155 0194 3E46     		mov	r6, r7
 4156              	.LVL583:
 4157              	.L344:
 823:..\..\..\lvgl\version_6.1.2\lvgl\src\lv_objx/lv_table.c ****     }
 4158              		.loc 1 823 0
 4159 0196 3146     		mov	r1, r6
 4160 0198 2046     		mov	r0, r4
 4161 019a FFF7FEFF 		bl	get_row_height
 4162              	.LVL584:
 822:..\..\..\lvgl\version_6.1.2\lvgl\src\lv_objx/lv_table.c ****         h += get_row_height(table, i);
 4163              		.loc 1 822 0
 4164 019e 0136     		adds	r6, r6, #1
 4165              	.LVL585:
 4166 01a0 B8F80230 		ldrh	r3, [r8, #2]
 823:..\..\..\lvgl\version_6.1.2\lvgl\src\lv_objx/lv_table.c ****     }
 4167              		.loc 1 823 0
 4168 01a4 3844     		add	r0, r0, r7
 822:..\..\..\lvgl\version_6.1.2\lvgl\src\lv_objx/lv_table.c ****         h += get_row_height(table, i);
 4169              		.loc 1 822 0
 4170 01a6 B6B2     		uxth	r6, r6
 823:..\..\..\lvgl\version_6.1.2\lvgl\src\lv_objx/lv_table.c ****     }
 4171              		.loc 1 823 0
 4172 01a8 1FFA80F9 		uxth	r9, r0
 822:..\..\..\lvgl\version_6.1.2\lvgl\src\lv_objx/lv_table.c ****         h += get_row_height(table, i);
 4173              		.loc 1 822 0
ARM GAS  C:\Users\pearlstl\AppData\Local\Temp\ccIJtgHD.s 			page 103


 4174 01ac B342     		cmp	r3, r6
 823:..\..\..\lvgl\version_6.1.2\lvgl\src\lv_objx/lv_table.c ****     }
 4175              		.loc 1 823 0
 4176 01ae 0FFA89F7 		sxth	r7, r9
 4177              	.LVL586:
 822:..\..\..\lvgl\version_6.1.2\lvgl\src\lv_objx/lv_table.c ****         h += get_row_height(table, i);
 4178              		.loc 1 822 0
 4179 01b2 F0D8     		bhi	.L344
 4180 01b4 5FE7     		b	.L355
 4181              	.LVL587:
 4182              	.L335:
 4183              	.LBE307:
 4184              	.LBE306:
 410:..\..\..\lvgl\version_6.1.2\lvgl\src\lv_objx/lv_table.c ****             refr_size(table);
 4185              		.loc 1 410 0
 4186 01b6 0661     		str	r6, [r0, #16]
 4187              	.LVL588:
 4188              	.LBB308:
 4189              	.LBB309:
 816:..\..\..\lvgl\version_6.1.2\lvgl\src\lv_objx/lv_table.c **** 
 4190              		.loc 1 816 0
 4191 01b8 2046     		mov	r0, r4
 4192              	.LVL589:
 4193 01ba FFF7FEFF 		bl	lv_obj_get_ext_attr
 4194              	.LVL590:
 819:..\..\..\lvgl\version_6.1.2\lvgl\src\lv_objx/lv_table.c ****         w += ext->col_w[i];
 4195              		.loc 1 819 0
 4196 01be 0588     		ldrh	r5, [r0]
 816:..\..\..\lvgl\version_6.1.2\lvgl\src\lv_objx/lv_table.c **** 
 4197              		.loc 1 816 0
 4198 01c0 8046     		mov	r8, r0
 4199              	.LVL591:
 819:..\..\..\lvgl\version_6.1.2\lvgl\src\lv_objx/lv_table.c ****         w += ext->col_w[i];
 4200              		.loc 1 819 0
 4201 01c2 75B1     		cbz	r5, .L349
 4202 01c4 681E     		subs	r0, r5, #1
 4203              	.LVL592:
 4204 01c6 80B2     		uxth	r0, r0
 4205 01c8 0C30     		adds	r0, r0, #12
 4206 01ca 08EB4000 		add	r0, r8, r0, lsl #1
 4207 01ce 08F11602 		add	r2, r8, #22
 4208 01d2 0021     		movs	r1, #0
 4209              	.LVL593:
 4210              	.L350:
 820:..\..\..\lvgl\version_6.1.2\lvgl\src\lv_objx/lv_table.c ****     }
 4211              		.loc 1 820 0
 4212 01d4 32F8023F 		ldrh	r3, [r2, #2]!
 4213 01d8 CD18     		adds	r5, r1, r3
 4214 01da ADB2     		uxth	r5, r5
 819:..\..\..\lvgl\version_6.1.2\lvgl\src\lv_objx/lv_table.c ****         w += ext->col_w[i];
 4215              		.loc 1 819 0
 4216 01dc 8242     		cmp	r2, r0
 820:..\..\..\lvgl\version_6.1.2\lvgl\src\lv_objx/lv_table.c ****     }
 4217              		.loc 1 820 0
 4218 01de 29B2     		sxth	r1, r5
 4219              	.LVL594:
 819:..\..\..\lvgl\version_6.1.2\lvgl\src\lv_objx/lv_table.c ****         w += ext->col_w[i];
ARM GAS  C:\Users\pearlstl\AppData\Local\Temp\ccIJtgHD.s 			page 104


 4220              		.loc 1 819 0
 4221 01e0 F8D1     		bne	.L350
 4222              	.LVL595:
 4223              	.L349:
 822:..\..\..\lvgl\version_6.1.2\lvgl\src\lv_objx/lv_table.c ****         h += get_row_height(table, i);
 4224              		.loc 1 822 0
 4225 01e2 B8F80200 		ldrh	r0, [r8, #2]
 4226 01e6 98B1     		cbz	r0, .L366
 4227 01e8 0027     		movs	r7, #0
 4228 01ea 3E46     		mov	r6, r7
 4229              	.LVL596:
 4230              	.L352:
 823:..\..\..\lvgl\version_6.1.2\lvgl\src\lv_objx/lv_table.c ****     }
 4231              		.loc 1 823 0
 4232 01ec 3146     		mov	r1, r6
 4233 01ee 2046     		mov	r0, r4
 4234 01f0 FFF7FEFF 		bl	get_row_height
 4235              	.LVL597:
 822:..\..\..\lvgl\version_6.1.2\lvgl\src\lv_objx/lv_table.c ****         h += get_row_height(table, i);
 4236              		.loc 1 822 0
 4237 01f4 0136     		adds	r6, r6, #1
 4238              	.LVL598:
 4239 01f6 B8F80230 		ldrh	r3, [r8, #2]
 823:..\..\..\lvgl\version_6.1.2\lvgl\src\lv_objx/lv_table.c ****     }
 4240              		.loc 1 823 0
 4241 01fa 3844     		add	r0, r0, r7
 822:..\..\..\lvgl\version_6.1.2\lvgl\src\lv_objx/lv_table.c ****         h += get_row_height(table, i);
 4242              		.loc 1 822 0
 4243 01fc B6B2     		uxth	r6, r6
 823:..\..\..\lvgl\version_6.1.2\lvgl\src\lv_objx/lv_table.c ****     }
 4244              		.loc 1 823 0
 4245 01fe 1FFA80F9 		uxth	r9, r0
 822:..\..\..\lvgl\version_6.1.2\lvgl\src\lv_objx/lv_table.c ****         h += get_row_height(table, i);
 4246              		.loc 1 822 0
 4247 0202 B342     		cmp	r3, r6
 823:..\..\..\lvgl\version_6.1.2\lvgl\src\lv_objx/lv_table.c ****     }
 4248              		.loc 1 823 0
 4249 0204 0FFA89F7 		sxth	r7, r9
 4250              	.LVL599:
 822:..\..\..\lvgl\version_6.1.2\lvgl\src\lv_objx/lv_table.c ****         h += get_row_height(table, i);
 4251              		.loc 1 822 0
 4252 0208 F0D8     		bhi	.L352
 4253 020a 34E7     		b	.L355
 4254              	.LVL600:
 4255              	.L329:
 4256 020c BDE8F883 		pop	{r3, r4, r5, r6, r7, r8, r9, pc}
 4257              	.LVL601:
 4258              	.L366:
 4259              	.LBE309:
 4260              	.LBE308:
 4261              	.LBB310:
 4262              	.LBB298:
 4263 0210 8146     		mov	r9, r0
 4264 0212 30E7     		b	.L355
 4265              	.LBE298:
 4266              	.LBE310:
 4267              		.cfi_endproc
ARM GAS  C:\Users\pearlstl\AppData\Local\Temp\ccIJtgHD.s 			page 105


 4268              	.LFE42:
 4269              		.size	lv_table_set_style, .-lv_table_set_style
 4270              		.section	.text.lv_table_get_cell_value,"ax",%progbits
 4271              		.align	2
 4272              		.global	lv_table_get_cell_value
 4273              		.thumb
 4274              		.thumb_func
 4275              		.type	lv_table_get_cell_value, %function
 4276              	lv_table_get_cell_value:
 4277              	.LFB43:
 432:..\..\..\lvgl\version_6.1.2\lvgl\src\lv_objx/lv_table.c ****     LV_ASSERT_OBJ(table, LV_OBJX_NAME);
 4278              		.loc 1 432 0
 4279              		.cfi_startproc
 4280              		@ args = 0, pretend = 0, frame = 0
 4281              		@ frame_needed = 0, uses_anonymous_args = 0
 4282              	.LVL602:
 4283 0000 38B5     		push	{r3, r4, r5, lr}
 4284              		.cfi_def_cfa_offset 16
 4285              		.cfi_offset 3, -16
 4286              		.cfi_offset 4, -12
 4287              		.cfi_offset 5, -8
 4288              		.cfi_offset 14, -4
 432:..\..\..\lvgl\version_6.1.2\lvgl\src\lv_objx/lv_table.c ****     LV_ASSERT_OBJ(table, LV_OBJX_NAME);
 4289              		.loc 1 432 0
 4290 0002 0C46     		mov	r4, r1
 4291 0004 1546     		mov	r5, r2
 435:..\..\..\lvgl\version_6.1.2\lvgl\src\lv_objx/lv_table.c ****     if(row >= ext->row_cnt || col >= ext->col_cnt) {
 4292              		.loc 1 435 0
 4293 0006 FFF7FEFF 		bl	lv_obj_get_ext_attr
 4294              	.LVL603:
 436:..\..\..\lvgl\version_6.1.2\lvgl\src\lv_objx/lv_table.c ****         LV_LOG_WARN("lv_table_set_cell_value: invalid row or column");
 4295              		.loc 1 436 0
 4296 000a 4388     		ldrh	r3, [r0, #2]
 4297 000c A342     		cmp	r3, r4
 4298 000e 0AD9     		bls	.L382
 436:..\..\..\lvgl\version_6.1.2\lvgl\src\lv_objx/lv_table.c ****         LV_LOG_WARN("lv_table_set_cell_value: invalid row or column");
 4299              		.loc 1 436 0 is_stmt 0 discriminator 1
 4300 0010 0288     		ldrh	r2, [r0]
 4301 0012 AA42     		cmp	r2, r5
 4302 0014 07D9     		bls	.L382
 4303              	.LVL604:
 442:..\..\..\lvgl\version_6.1.2\lvgl\src\lv_objx/lv_table.c **** 
 4304              		.loc 1 442 0 is_stmt 1
 4305 0016 02FB0454 		mla	r4, r2, r4, r5
 4306              	.LVL605:
 4307 001a 4368     		ldr	r3, [r0, #4]
 4308 001c 53F82400 		ldr	r0, [r3, r4, lsl #2]
 4309              	.LVL606:
 4310 0020 08B1     		cbz	r0, .L382
 444:..\..\..\lvgl\version_6.1.2\lvgl\src\lv_objx/lv_table.c **** }
 4311              		.loc 1 444 0
 4312 0022 0130     		adds	r0, r0, #1
 4313 0024 38BD     		pop	{r3, r4, r5, pc}
 4314              	.L382:
 438:..\..\..\lvgl\version_6.1.2\lvgl\src\lv_objx/lv_table.c ****     }
 4315              		.loc 1 438 0
 4316 0026 0148     		ldr	r0, .L384
ARM GAS  C:\Users\pearlstl\AppData\Local\Temp\ccIJtgHD.s 			page 106


 445:..\..\..\lvgl\version_6.1.2\lvgl\src\lv_objx/lv_table.c **** 
 4317              		.loc 1 445 0
 4318 0028 38BD     		pop	{r3, r4, r5, pc}
 4319              	.L385:
 4320 002a 00BF     		.align	2
 4321              	.L384:
 4322 002c 0C000000 		.word	.LC1
 4323              		.cfi_endproc
 4324              	.LFE43:
 4325              		.size	lv_table_get_cell_value, .-lv_table_get_cell_value
 4326              		.section	.text.lv_table_get_row_cnt,"ax",%progbits
 4327              		.align	2
 4328              		.global	lv_table_get_row_cnt
 4329              		.thumb
 4330              		.thumb_func
 4331              		.type	lv_table_get_row_cnt, %function
 4332              	lv_table_get_row_cnt:
 4333              	.LFB44:
 453:..\..\..\lvgl\version_6.1.2\lvgl\src\lv_objx/lv_table.c ****     LV_ASSERT_OBJ(table, LV_OBJX_NAME);
 4334              		.loc 1 453 0
 4335              		.cfi_startproc
 4336              		@ args = 0, pretend = 0, frame = 0
 4337              		@ frame_needed = 0, uses_anonymous_args = 0
 4338              	.LVL607:
 4339 0000 08B5     		push	{r3, lr}
 4340              		.cfi_def_cfa_offset 8
 4341              		.cfi_offset 3, -8
 4342              		.cfi_offset 14, -4
 456:..\..\..\lvgl\version_6.1.2\lvgl\src\lv_objx/lv_table.c ****     return ext->row_cnt;
 4343              		.loc 1 456 0
 4344 0002 FFF7FEFF 		bl	lv_obj_get_ext_attr
 4345              	.LVL608:
 458:..\..\..\lvgl\version_6.1.2\lvgl\src\lv_objx/lv_table.c **** 
 4346              		.loc 1 458 0
 4347 0006 4088     		ldrh	r0, [r0, #2]
 4348              	.LVL609:
 4349 0008 08BD     		pop	{r3, pc}
 4350              		.cfi_endproc
 4351              	.LFE44:
 4352              		.size	lv_table_get_row_cnt, .-lv_table_get_row_cnt
 4353 000a 00BF     		.section	.text.lv_table_get_col_cnt,"ax",%progbits
 4354              		.align	2
 4355              		.global	lv_table_get_col_cnt
 4356              		.thumb
 4357              		.thumb_func
 4358              		.type	lv_table_get_col_cnt, %function
 4359              	lv_table_get_col_cnt:
 4360              	.LFB45:
 466:..\..\..\lvgl\version_6.1.2\lvgl\src\lv_objx/lv_table.c ****     LV_ASSERT_OBJ(table, LV_OBJX_NAME);
 4361              		.loc 1 466 0
 4362              		.cfi_startproc
 4363              		@ args = 0, pretend = 0, frame = 0
 4364              		@ frame_needed = 0, uses_anonymous_args = 0
 4365              	.LVL610:
 4366 0000 08B5     		push	{r3, lr}
 4367              		.cfi_def_cfa_offset 8
 4368              		.cfi_offset 3, -8
ARM GAS  C:\Users\pearlstl\AppData\Local\Temp\ccIJtgHD.s 			page 107


 4369              		.cfi_offset 14, -4
 469:..\..\..\lvgl\version_6.1.2\lvgl\src\lv_objx/lv_table.c ****     return ext->col_cnt;
 4370              		.loc 1 469 0
 4371 0002 FFF7FEFF 		bl	lv_obj_get_ext_attr
 4372              	.LVL611:
 471:..\..\..\lvgl\version_6.1.2\lvgl\src\lv_objx/lv_table.c **** 
 4373              		.loc 1 471 0
 4374 0006 0088     		ldrh	r0, [r0]
 4375              	.LVL612:
 4376 0008 08BD     		pop	{r3, pc}
 4377              		.cfi_endproc
 4378              	.LFE45:
 4379              		.size	lv_table_get_col_cnt, .-lv_table_get_col_cnt
 4380 000a 00BF     		.section	.text.lv_table_get_col_width,"ax",%progbits
 4381              		.align	2
 4382              		.global	lv_table_get_col_width
 4383              		.thumb
 4384              		.thumb_func
 4385              		.type	lv_table_get_col_width, %function
 4386              	lv_table_get_col_width:
 4387              	.LFB46:
 480:..\..\..\lvgl\version_6.1.2\lvgl\src\lv_objx/lv_table.c ****     LV_ASSERT_OBJ(table, LV_OBJX_NAME);
 4388              		.loc 1 480 0
 4389              		.cfi_startproc
 4390              		@ args = 0, pretend = 0, frame = 0
 4391              		@ frame_needed = 0, uses_anonymous_args = 0
 4392              	.LVL613:
 483:..\..\..\lvgl\version_6.1.2\lvgl\src\lv_objx/lv_table.c ****         LV_LOG_WARN("lv_table_set_col_width: too big 'col_id'. Must be < LV_TABLE_COL_MAX.");
 4393              		.loc 1 483 0
 4394 0000 0B29     		cmp	r1, #11
 4395 0002 01D9     		bls	.L395
 485:..\..\..\lvgl\version_6.1.2\lvgl\src\lv_objx/lv_table.c ****     }
 4396              		.loc 1 485 0
 4397 0004 0020     		movs	r0, #0
 4398              	.LVL614:
 4399 0006 7047     		bx	lr
 4400              	.LVL615:
 4401              	.L395:
 480:..\..\..\lvgl\version_6.1.2\lvgl\src\lv_objx/lv_table.c ****     LV_ASSERT_OBJ(table, LV_OBJX_NAME);
 4402              		.loc 1 480 0
 4403 0008 10B5     		push	{r4, lr}
 4404              		.cfi_def_cfa_offset 8
 4405              		.cfi_offset 4, -8
 4406              		.cfi_offset 14, -4
 4407 000a 0C46     		mov	r4, r1
 488:..\..\..\lvgl\version_6.1.2\lvgl\src\lv_objx/lv_table.c ****     return ext->col_w[col_id];
 4408              		.loc 1 488 0
 4409 000c FFF7FEFF 		bl	lv_obj_get_ext_attr
 4410              	.LVL616:
 489:..\..\..\lvgl\version_6.1.2\lvgl\src\lv_objx/lv_table.c **** }
 4411              		.loc 1 489 0
 4412 0010 04F10C01 		add	r1, r4, #12
 4413 0014 30F91100 		ldrsh	r0, [r0, r1, lsl #1]
 4414              	.LVL617:
 4415 0018 10BD     		pop	{r4, pc}
 4416              		.cfi_endproc
 4417              	.LFE46:
ARM GAS  C:\Users\pearlstl\AppData\Local\Temp\ccIJtgHD.s 			page 108


 4418              		.size	lv_table_get_col_width, .-lv_table_get_col_width
 4419 001a 00BF     		.section	.text.lv_table_get_cell_align,"ax",%progbits
 4420              		.align	2
 4421              		.global	lv_table_get_cell_align
 4422              		.thumb
 4423              		.thumb_func
 4424              		.type	lv_table_get_cell_align, %function
 4425              	lv_table_get_cell_align:
 4426              	.LFB47:
 501:..\..\..\lvgl\version_6.1.2\lvgl\src\lv_objx/lv_table.c ****     LV_ASSERT_OBJ(table, LV_OBJX_NAME);
 4427              		.loc 1 501 0
 4428              		.cfi_startproc
 4429              		@ args = 0, pretend = 0, frame = 0
 4430              		@ frame_needed = 0, uses_anonymous_args = 0
 4431              	.LVL618:
 4432 0000 38B5     		push	{r3, r4, r5, lr}
 4433              		.cfi_def_cfa_offset 16
 4434              		.cfi_offset 3, -16
 4435              		.cfi_offset 4, -12
 4436              		.cfi_offset 5, -8
 4437              		.cfi_offset 14, -4
 501:..\..\..\lvgl\version_6.1.2\lvgl\src\lv_objx/lv_table.c ****     LV_ASSERT_OBJ(table, LV_OBJX_NAME);
 4438              		.loc 1 501 0
 4439 0002 0C46     		mov	r4, r1
 4440 0004 1546     		mov	r5, r2
 504:..\..\..\lvgl\version_6.1.2\lvgl\src\lv_objx/lv_table.c ****     if(row >= ext->row_cnt || col >= ext->col_cnt) {
 4441              		.loc 1 504 0
 4442 0006 FFF7FEFF 		bl	lv_obj_get_ext_attr
 4443              	.LVL619:
 505:..\..\..\lvgl\version_6.1.2\lvgl\src\lv_objx/lv_table.c ****         LV_LOG_WARN("lv_table_set_cell_align: invalid row or column");
 4444              		.loc 1 505 0
 4445 000a 4388     		ldrh	r3, [r0, #2]
 4446 000c A342     		cmp	r3, r4
 4447 000e 0CD9     		bls	.L399
 505:..\..\..\lvgl\version_6.1.2\lvgl\src\lv_objx/lv_table.c ****         LV_LOG_WARN("lv_table_set_cell_align: invalid row or column");
 4448              		.loc 1 505 0 is_stmt 0 discriminator 1
 4449 0010 0288     		ldrh	r2, [r0]
 4450 0012 AA42     		cmp	r2, r5
 4451 0014 09D9     		bls	.L399
 4452              	.LVL620:
 511:..\..\..\lvgl\version_6.1.2\lvgl\src\lv_objx/lv_table.c ****         return LV_LABEL_ALIGN_LEFT; /*Just return with something*/
 4453              		.loc 1 511 0 is_stmt 1
 4454 0016 02FB0454 		mla	r4, r2, r4, r5
 4455              	.LVL621:
 4456 001a 4368     		ldr	r3, [r0, #4]
 4457 001c 53F82400 		ldr	r0, [r3, r4, lsl #2]
 4458              	.LVL622:
 4459 0020 20B1     		cbz	r0, .L397
 4460              	.LBB311:
 515:..\..\..\lvgl\version_6.1.2\lvgl\src\lv_objx/lv_table.c ****         return format.s.align;
 4461              		.loc 1 515 0
 4462 0022 0078     		ldrb	r0, [r0]	@ zero_extendqisi2
 516:..\..\..\lvgl\version_6.1.2\lvgl\src\lv_objx/lv_table.c ****     }
 4463              		.loc 1 516 0
 4464 0024 00F00300 		and	r0, r0, #3
 4465 0028 38BD     		pop	{r3, r4, r5, pc}
 4466              	.LVL623:
ARM GAS  C:\Users\pearlstl\AppData\Local\Temp\ccIJtgHD.s 			page 109


 4467              	.L399:
 4468              	.LBE311:
 507:..\..\..\lvgl\version_6.1.2\lvgl\src\lv_objx/lv_table.c ****     }
 4469              		.loc 1 507 0
 4470 002a 0020     		movs	r0, #0
 4471              	.LVL624:
 4472              	.L397:
 518:..\..\..\lvgl\version_6.1.2\lvgl\src\lv_objx/lv_table.c **** 
 4473              		.loc 1 518 0 discriminator 1
 4474 002c 38BD     		pop	{r3, r4, r5, pc}
 4475              		.cfi_endproc
 4476              	.LFE47:
 4477              		.size	lv_table_get_cell_align, .-lv_table_get_cell_align
 4478 002e 00BF     		.section	.text.lv_table_get_cell_type,"ax",%progbits
 4479              		.align	2
 4480              		.global	lv_table_get_cell_type
 4481              		.thumb
 4482              		.thumb_func
 4483              		.type	lv_table_get_cell_type, %function
 4484              	lv_table_get_cell_type:
 4485              	.LFB48:
 528:..\..\..\lvgl\version_6.1.2\lvgl\src\lv_objx/lv_table.c ****     LV_ASSERT_OBJ(table, LV_OBJX_NAME);
 4486              		.loc 1 528 0
 4487              		.cfi_startproc
 4488              		@ args = 0, pretend = 0, frame = 0
 4489              		@ frame_needed = 0, uses_anonymous_args = 0
 4490              	.LVL625:
 4491 0000 38B5     		push	{r3, r4, r5, lr}
 4492              		.cfi_def_cfa_offset 16
 4493              		.cfi_offset 3, -16
 4494              		.cfi_offset 4, -12
 4495              		.cfi_offset 5, -8
 4496              		.cfi_offset 14, -4
 528:..\..\..\lvgl\version_6.1.2\lvgl\src\lv_objx/lv_table.c ****     LV_ASSERT_OBJ(table, LV_OBJX_NAME);
 4497              		.loc 1 528 0
 4498 0002 0C46     		mov	r4, r1
 4499 0004 1546     		mov	r5, r2
 531:..\..\..\lvgl\version_6.1.2\lvgl\src\lv_objx/lv_table.c ****     if(row >= ext->row_cnt || col >= ext->col_cnt) {
 4500              		.loc 1 531 0
 4501 0006 FFF7FEFF 		bl	lv_obj_get_ext_attr
 4502              	.LVL626:
 532:..\..\..\lvgl\version_6.1.2\lvgl\src\lv_objx/lv_table.c ****         LV_LOG_WARN("lv_table_get_cell_type: invalid row or column");
 4503              		.loc 1 532 0
 4504 000a 4388     		ldrh	r3, [r0, #2]
 4505 000c A342     		cmp	r3, r4
 4506 000e 0DD9     		bls	.L406
 532:..\..\..\lvgl\version_6.1.2\lvgl\src\lv_objx/lv_table.c ****         LV_LOG_WARN("lv_table_get_cell_type: invalid row or column");
 4507              		.loc 1 532 0 is_stmt 0 discriminator 1
 4508 0010 0288     		ldrh	r2, [r0]
 4509 0012 AA42     		cmp	r2, r5
 4510 0014 0AD9     		bls	.L406
 4511              	.LVL627:
 538:..\..\..\lvgl\version_6.1.2\lvgl\src\lv_objx/lv_table.c ****         return 1; /*Just return with something*/
 4512              		.loc 1 538 0 is_stmt 1
 4513 0016 02FB0454 		mla	r4, r2, r4, r5
 4514              	.LVL628:
 4515 001a 4368     		ldr	r3, [r0, #4]
ARM GAS  C:\Users\pearlstl\AppData\Local\Temp\ccIJtgHD.s 			page 110


 4516 001c 53F82430 		ldr	r3, [r3, r4, lsl #2]
 4517 0020 23B1     		cbz	r3, .L406
 4518              	.LBB312:
 542:..\..\..\lvgl\version_6.1.2\lvgl\src\lv_objx/lv_table.c ****         return format.s.type + 1; /*0,1,2,3 is stored but user sees 1,2,3,4*/
 4519              		.loc 1 542 0
 4520 0022 1878     		ldrb	r0, [r3]	@ zero_extendqisi2
 4521              	.LVL629:
 543:..\..\..\lvgl\version_6.1.2\lvgl\src\lv_objx/lv_table.c ****     }
 4522              		.loc 1 543 0
 4523 0024 C0F3C100 		ubfx	r0, r0, #3, #2
 4524 0028 0130     		adds	r0, r0, #1
 4525 002a 38BD     		pop	{r3, r4, r5, pc}
 4526              	.LVL630:
 4527              	.L406:
 4528              	.LBE312:
 534:..\..\..\lvgl\version_6.1.2\lvgl\src\lv_objx/lv_table.c ****     }
 4529              		.loc 1 534 0
 4530 002c 0120     		movs	r0, #1
 4531              	.LVL631:
 545:..\..\..\lvgl\version_6.1.2\lvgl\src\lv_objx/lv_table.c **** 
 4532              		.loc 1 545 0
 4533 002e 38BD     		pop	{r3, r4, r5, pc}
 4534              		.cfi_endproc
 4535              	.LFE48:
 4536              		.size	lv_table_get_cell_type, .-lv_table_get_cell_type
 4537              		.section	.text.lv_table_get_cell_crop,"ax",%progbits
 4538              		.align	2
 4539              		.global	lv_table_get_cell_crop
 4540              		.thumb
 4541              		.thumb_func
 4542              		.type	lv_table_get_cell_crop, %function
 4543              	lv_table_get_cell_crop:
 4544              	.LFB49:
 555:..\..\..\lvgl\version_6.1.2\lvgl\src\lv_objx/lv_table.c ****     LV_ASSERT_OBJ(table, LV_OBJX_NAME);
 4545              		.loc 1 555 0
 4546              		.cfi_startproc
 4547              		@ args = 0, pretend = 0, frame = 0
 4548              		@ frame_needed = 0, uses_anonymous_args = 0
 4549              	.LVL632:
 4550 0000 38B5     		push	{r3, r4, r5, lr}
 4551              		.cfi_def_cfa_offset 16
 4552              		.cfi_offset 3, -16
 4553              		.cfi_offset 4, -12
 4554              		.cfi_offset 5, -8
 4555              		.cfi_offset 14, -4
 555:..\..\..\lvgl\version_6.1.2\lvgl\src\lv_objx/lv_table.c ****     LV_ASSERT_OBJ(table, LV_OBJX_NAME);
 4556              		.loc 1 555 0
 4557 0002 0C46     		mov	r4, r1
 4558 0004 1546     		mov	r5, r2
 558:..\..\..\lvgl\version_6.1.2\lvgl\src\lv_objx/lv_table.c ****     if(row >= ext->row_cnt || col >= ext->col_cnt) {
 4559              		.loc 1 558 0
 4560 0006 FFF7FEFF 		bl	lv_obj_get_ext_attr
 4561              	.LVL633:
 559:..\..\..\lvgl\version_6.1.2\lvgl\src\lv_objx/lv_table.c ****         LV_LOG_WARN("lv_table_get_cell_crop: invalid row or column");
 4562              		.loc 1 559 0
 4563 000a 4388     		ldrh	r3, [r0, #2]
 4564 000c A342     		cmp	r3, r4
ARM GAS  C:\Users\pearlstl\AppData\Local\Temp\ccIJtgHD.s 			page 111


 4565 000e 0CD9     		bls	.L411
 559:..\..\..\lvgl\version_6.1.2\lvgl\src\lv_objx/lv_table.c ****         LV_LOG_WARN("lv_table_get_cell_crop: invalid row or column");
 4566              		.loc 1 559 0 is_stmt 0 discriminator 1
 4567 0010 0288     		ldrh	r2, [r0]
 4568 0012 AA42     		cmp	r2, r5
 4569 0014 09D9     		bls	.L411
 4570              	.LVL634:
 565:..\..\..\lvgl\version_6.1.2\lvgl\src\lv_objx/lv_table.c ****         return false; /*Just return with something*/
 4571              		.loc 1 565 0 is_stmt 1
 4572 0016 02FB0454 		mla	r4, r2, r4, r5
 4573              	.LVL635:
 4574 001a 4368     		ldr	r3, [r0, #4]
 4575 001c 53F82400 		ldr	r0, [r3, r4, lsl #2]
 4576              	.LVL636:
 4577 0020 20B1     		cbz	r0, .L409
 4578              	.LBB313:
 569:..\..\..\lvgl\version_6.1.2\lvgl\src\lv_objx/lv_table.c ****         return format.s.crop;
 4579              		.loc 1 569 0
 4580 0022 0078     		ldrb	r0, [r0]	@ zero_extendqisi2
 570:..\..\..\lvgl\version_6.1.2\lvgl\src\lv_objx/lv_table.c ****     }
 4581              		.loc 1 570 0
 4582 0024 C0F34010 		ubfx	r0, r0, #5, #1
 4583 0028 38BD     		pop	{r3, r4, r5, pc}
 4584              	.LVL637:
 4585              	.L411:
 4586              	.LBE313:
 561:..\..\..\lvgl\version_6.1.2\lvgl\src\lv_objx/lv_table.c ****     }
 4587              		.loc 1 561 0
 4588 002a 0020     		movs	r0, #0
 4589              	.LVL638:
 4590              	.L409:
 572:..\..\..\lvgl\version_6.1.2\lvgl\src\lv_objx/lv_table.c **** 
 4591              		.loc 1 572 0 discriminator 1
 4592 002c 38BD     		pop	{r3, r4, r5, pc}
 4593              		.cfi_endproc
 4594              	.LFE49:
 4595              		.size	lv_table_get_cell_crop, .-lv_table_get_cell_crop
 4596 002e 00BF     		.section	.text.lv_table_get_cell_merge_right,"ax",%progbits
 4597              		.align	2
 4598              		.global	lv_table_get_cell_merge_right
 4599              		.thumb
 4600              		.thumb_func
 4601              		.type	lv_table_get_cell_merge_right, %function
 4602              	lv_table_get_cell_merge_right:
 4603              	.LFB50:
 582:..\..\..\lvgl\version_6.1.2\lvgl\src\lv_objx/lv_table.c ****     LV_ASSERT_OBJ(table, LV_OBJX_NAME);
 4604              		.loc 1 582 0
 4605              		.cfi_startproc
 4606              		@ args = 0, pretend = 0, frame = 0
 4607              		@ frame_needed = 0, uses_anonymous_args = 0
 4608              	.LVL639:
 4609 0000 38B5     		push	{r3, r4, r5, lr}
 4610              		.cfi_def_cfa_offset 16
 4611              		.cfi_offset 3, -16
 4612              		.cfi_offset 4, -12
 4613              		.cfi_offset 5, -8
 4614              		.cfi_offset 14, -4
ARM GAS  C:\Users\pearlstl\AppData\Local\Temp\ccIJtgHD.s 			page 112


 582:..\..\..\lvgl\version_6.1.2\lvgl\src\lv_objx/lv_table.c ****     LV_ASSERT_OBJ(table, LV_OBJX_NAME);
 4615              		.loc 1 582 0
 4616 0002 0C46     		mov	r4, r1
 4617 0004 1546     		mov	r5, r2
 585:..\..\..\lvgl\version_6.1.2\lvgl\src\lv_objx/lv_table.c ****     if(row >= ext->row_cnt || col >= ext->col_cnt) {
 4618              		.loc 1 585 0
 4619 0006 FFF7FEFF 		bl	lv_obj_get_ext_attr
 4620              	.LVL640:
 586:..\..\..\lvgl\version_6.1.2\lvgl\src\lv_objx/lv_table.c ****         LV_LOG_WARN("lv_table_get_cell_merge_right: invalid row or column");
 4621              		.loc 1 586 0
 4622 000a 4388     		ldrh	r3, [r0, #2]
 4623 000c A342     		cmp	r3, r4
 4624 000e 0CD9     		bls	.L417
 586:..\..\..\lvgl\version_6.1.2\lvgl\src\lv_objx/lv_table.c ****         LV_LOG_WARN("lv_table_get_cell_merge_right: invalid row or column");
 4625              		.loc 1 586 0 is_stmt 0 discriminator 1
 4626 0010 0288     		ldrh	r2, [r0]
 4627 0012 AA42     		cmp	r2, r5
 4628 0014 09D9     		bls	.L417
 4629              	.LVL641:
 593:..\..\..\lvgl\version_6.1.2\lvgl\src\lv_objx/lv_table.c ****         return false;
 4630              		.loc 1 593 0 is_stmt 1
 4631 0016 02FB0454 		mla	r4, r2, r4, r5
 4632              	.LVL642:
 4633 001a 4368     		ldr	r3, [r0, #4]
 4634 001c 53F82400 		ldr	r0, [r3, r4, lsl #2]
 4635              	.LVL643:
 4636 0020 20B1     		cbz	r0, .L415
 4637              	.LVL644:
 4638              	.LBB314:
 598:..\..\..\lvgl\version_6.1.2\lvgl\src\lv_objx/lv_table.c ****     }
 4639              		.loc 1 598 0
 4640 0022 0078     		ldrb	r0, [r0]	@ zero_extendqisi2
 4641              	.LVL645:
 4642 0024 C0F38000 		ubfx	r0, r0, #2, #1
 4643              	.LVL646:
 4644 0028 38BD     		pop	{r3, r4, r5, pc}
 4645              	.LVL647:
 4646              	.L417:
 4647              	.LBE314:
 588:..\..\..\lvgl\version_6.1.2\lvgl\src\lv_objx/lv_table.c ****     }
 4648              		.loc 1 588 0
 4649 002a 0020     		movs	r0, #0
 4650              	.LVL648:
 4651              	.L415:
 600:..\..\..\lvgl\version_6.1.2\lvgl\src\lv_objx/lv_table.c **** 
 4652              		.loc 1 600 0 discriminator 1
 4653 002c 38BD     		pop	{r3, r4, r5, pc}
 4654              		.cfi_endproc
 4655              	.LFE50:
 4656              		.size	lv_table_get_cell_merge_right, .-lv_table_get_cell_merge_right
 4657 002e 00BF     		.section	.text.lv_table_get_style,"ax",%progbits
 4658              		.align	2
 4659              		.global	lv_table_get_style
 4660              		.thumb
 4661              		.thumb_func
 4662              		.type	lv_table_get_style, %function
 4663              	lv_table_get_style:
ARM GAS  C:\Users\pearlstl\AppData\Local\Temp\ccIJtgHD.s 			page 113


 4664              	.LFB51:
 609:..\..\..\lvgl\version_6.1.2\lvgl\src\lv_objx/lv_table.c ****     LV_ASSERT_OBJ(table, LV_OBJX_NAME);
 4665              		.loc 1 609 0
 4666              		.cfi_startproc
 4667              		@ args = 0, pretend = 0, frame = 0
 4668              		@ frame_needed = 0, uses_anonymous_args = 0
 4669              	.LVL649:
 4670 0000 38B5     		push	{r3, r4, r5, lr}
 4671              		.cfi_def_cfa_offset 16
 4672              		.cfi_offset 3, -16
 4673              		.cfi_offset 4, -12
 4674              		.cfi_offset 5, -8
 4675              		.cfi_offset 14, -4
 609:..\..\..\lvgl\version_6.1.2\lvgl\src\lv_objx/lv_table.c ****     LV_ASSERT_OBJ(table, LV_OBJX_NAME);
 4676              		.loc 1 609 0
 4677 0002 0C46     		mov	r4, r1
 4678 0004 0546     		mov	r5, r0
 612:..\..\..\lvgl\version_6.1.2\lvgl\src\lv_objx/lv_table.c ****     const lv_style_t * style = NULL;
 4679              		.loc 1 612 0
 4680 0006 FFF7FEFF 		bl	lv_obj_get_ext_attr
 4681              	.LVL650:
 615:..\..\..\lvgl\version_6.1.2\lvgl\src\lv_objx/lv_table.c ****         case LV_TABLE_STYLE_BG: style = lv_obj_get_style(table); break;
 4682              		.loc 1 615 0
 4683 000a 042C     		cmp	r4, #4
 4684 000c 11D8     		bhi	.L428
 4685 000e DFE804F0 		tbb	[pc, r4]
 4686              	.L423:
 4687 0012 05       		.byte	(.L422-.L423)/2
 4688 0013 0A       		.byte	(.L424-.L423)/2
 4689 0014 0C       		.byte	(.L425-.L423)/2
 4690 0015 0E       		.byte	(.L426-.L423)/2
 4691 0016 03       		.byte	(.L427-.L423)/2
 4692 0017 00       		.p2align 1
 4693              	.L427:
 620:..\..\..\lvgl\version_6.1.2\lvgl\src\lv_objx/lv_table.c ****         default: return NULL;
 4694              		.loc 1 620 0
 4695 0018 4069     		ldr	r0, [r0, #20]
 4696              	.LVL651:
 4697 001a 38BD     		pop	{r3, r4, r5, pc}
 4698              	.LVL652:
 4699              	.L422:
 616:..\..\..\lvgl\version_6.1.2\lvgl\src\lv_objx/lv_table.c ****         case LV_TABLE_STYLE_CELL1: style = ext->cell_style[0]; break;
 4700              		.loc 1 616 0
 4701 001c 2846     		mov	r0, r5
 4702              	.LVL653:
 625:..\..\..\lvgl\version_6.1.2\lvgl\src\lv_objx/lv_table.c **** 
 4703              		.loc 1 625 0
 4704 001e BDE83840 		pop	{r3, r4, r5, lr}
 4705              		.cfi_remember_state
 4706              		.cfi_restore 14
 4707              		.cfi_restore 5
 4708              		.cfi_restore 4
 4709              		.cfi_restore 3
 4710              		.cfi_def_cfa_offset 0
 4711              	.LVL654:
 616:..\..\..\lvgl\version_6.1.2\lvgl\src\lv_objx/lv_table.c ****         case LV_TABLE_STYLE_CELL1: style = ext->cell_style[0]; break;
 4712              		.loc 1 616 0
ARM GAS  C:\Users\pearlstl\AppData\Local\Temp\ccIJtgHD.s 			page 114


 4713 0022 FFF7FEBF 		b	lv_obj_get_style
 4714              	.LVL655:
 4715              	.L424:
 4716              		.cfi_restore_state
 617:..\..\..\lvgl\version_6.1.2\lvgl\src\lv_objx/lv_table.c ****         case LV_TABLE_STYLE_CELL2: style = ext->cell_style[1]; break;
 4717              		.loc 1 617 0
 4718 0026 8068     		ldr	r0, [r0, #8]
 4719              	.LVL656:
 4720 0028 38BD     		pop	{r3, r4, r5, pc}
 4721              	.LVL657:
 4722              	.L425:
 618:..\..\..\lvgl\version_6.1.2\lvgl\src\lv_objx/lv_table.c ****         case LV_TABLE_STYLE_CELL3: style = ext->cell_style[2]; break;
 4723              		.loc 1 618 0
 4724 002a C068     		ldr	r0, [r0, #12]
 4725              	.LVL658:
 4726 002c 38BD     		pop	{r3, r4, r5, pc}
 4727              	.LVL659:
 4728              	.L426:
 619:..\..\..\lvgl\version_6.1.2\lvgl\src\lv_objx/lv_table.c ****         case LV_TABLE_STYLE_CELL4: style = ext->cell_style[3]; break;
 4729              		.loc 1 619 0
 4730 002e 0069     		ldr	r0, [r0, #16]
 4731              	.LVL660:
 4732 0030 38BD     		pop	{r3, r4, r5, pc}
 4733              	.LVL661:
 4734              	.L428:
 621:..\..\..\lvgl\version_6.1.2\lvgl\src\lv_objx/lv_table.c ****     }
 4735              		.loc 1 621 0
 4736 0032 0020     		movs	r0, #0
 4737              	.LVL662:
 625:..\..\..\lvgl\version_6.1.2\lvgl\src\lv_objx/lv_table.c **** 
 4738              		.loc 1 625 0
 4739 0034 38BD     		pop	{r3, r4, r5, pc}
 4740              		.cfi_endproc
 4741              	.LFE51:
 4742              		.size	lv_table_get_style, .-lv_table_get_style
 4743 0036 00BF     		.section	.rodata.str1.4,"aMS",%progbits,1
 4744              		.align	2
 4745              	.LC0:
 4746 0000 6C765F74 		.ascii	"lv_table\000"
 4746      61626C65 
 4746      00
 4747 0009 000000   		.space	3
 4748              	.LC1:
 4749 000c 00       		.ascii	"\000"
 4750              		.bss
 4751              		.align	2
 4752              		.set	.LANCHOR0,. + 0
 4753              		.type	ancestor_signal, %object
 4754              		.size	ancestor_signal, 4
 4755              	ancestor_signal:
 4756 0000 00000000 		.space	4
 4757              		.type	ancestor_scrl_design, %object
 4758              		.size	ancestor_scrl_design, 4
 4759              	ancestor_scrl_design:
 4760 0004 00000000 		.space	4
 4761              		.text
 4762              	.Letext0:
ARM GAS  C:\Users\pearlstl\AppData\Local\Temp\ccIJtgHD.s 			page 115


 4763              		.file 2 "c:\\program files (x86)\\cypress\\psoc creator\\4.2\\psoc creator\\import\\gnu\\arm\\5.4.
 4764              		.file 3 "c:\\program files (x86)\\cypress\\psoc creator\\4.2\\psoc creator\\import\\gnu\\arm\\5.4.
 4765              		.file 4 "..\\..\\..\\lvgl\\version_6.1.2\\lvgl\\src\\lv_objx\\../../../lv_conf.h"
 4766              		.file 5 "..\\..\\..\\lvgl\\version_6.1.2\\lvgl\\src\\lv_objx\\../lv_core/../lv_font/lv_font.h"
 4767              		.file 6 "..\\..\\..\\lvgl\\version_6.1.2\\lvgl\\src\\lv_objx\\../lv_core/../lv_misc/lv_color.h"
 4768              		.file 7 "..\\..\\..\\lvgl\\version_6.1.2\\lvgl\\src\\lv_objx\\../lv_core/../lv_misc/lv_area.h"
 4769              		.file 8 "..\\..\\..\\lvgl\\version_6.1.2\\lvgl\\src\\lv_objx\\../lv_core/lv_style.h"
 4770              		.file 9 "..\\..\\..\\lvgl\\version_6.1.2\\lvgl\\src\\lv_objx\\../lv_core/../lv_misc/lv_types.h"
 4771              		.file 10 "..\\..\\..\\lvgl\\version_6.1.2\\lvgl\\src\\lv_objx\\../lv_core/../lv_misc/lv_ll.h"
 4772              		.file 11 "..\\..\\..\\lvgl\\version_6.1.2\\lvgl\\src\\lv_objx\\../lv_core/../lv_misc/lv_bidi.h"
 4773              		.file 12 "..\\..\\..\\lvgl\\version_6.1.2\\lvgl\\src\\lv_objx\\../lv_core/lv_obj.h"
 4774              		.file 13 "..\\..\\..\\lvgl\\version_6.1.2\\lvgl\\src\\lv_objx\\../lv_misc/lv_txt.h"
 4775              		.file 14 "..\\..\\..\\lvgl\\version_6.1.2\\lvgl\\src\\lv_objx\\lv_label.h"
 4776              		.file 15 "..\\..\\..\\lvgl\\version_6.1.2\\lvgl\\src\\lv_objx\\lv_table.h"
 4777              		.file 16 "..\\..\\..\\lvgl\\version_6.1.2\\lvgl\\src\\lv_objx\\../lv_themes/lv_theme.h"
 4778              		.file 17 "..\\..\\..\\lvgl\\version_6.1.2\\lvgl\\src\\lv_objx\\../lv_core/../lv_misc/lv_mem.h"
 4779              		.file 18 "..\\..\\..\\lvgl\\version_6.1.2\\lvgl\\src\\lv_objx\\../lv_draw/lv_draw_line.h"
 4780              		.file 19 "..\\..\\..\\lvgl\\version_6.1.2\\lvgl\\src\\lv_objx\\../lv_draw/lv_draw_label.h"
 4781              		.file 20 "..\\..\\..\\lvgl\\version_6.1.2\\lvgl\\src\\lv_objx\\../lv_draw/lv_draw_rect.h"
 4782              		.file 21 "c:\\program files (x86)\\cypress\\psoc creator\\4.2\\psoc creator\\import\\gnu\\arm\\5.4
 4783              		.section	.debug_info,"",%progbits
 4784              	.Ldebug_info0:
 4785 0000 D8350000 		.4byte	0x35d8
 4786 0004 0400     		.2byte	0x4
 4787 0006 00000000 		.4byte	.Ldebug_abbrev0
 4788 000a 04       		.byte	0x4
 4789 000b 01       		.uleb128 0x1
 4790 000c C2010000 		.4byte	.LASF301
 4791 0010 0C       		.byte	0xc
 4792 0011 BD0B0000 		.4byte	.LASF302
 4793 0015 F60C0000 		.4byte	.LASF303
 4794 0019 20040000 		.4byte	.Ldebug_ranges0+0x420
 4795 001d 00000000 		.4byte	0
 4796 0021 00000000 		.4byte	.Ldebug_line0
 4797 0025 02       		.uleb128 0x2
 4798 0026 B60A0000 		.4byte	.LASF0
 4799 002a 02       		.byte	0x2
 4800 002b 1B       		.byte	0x1b
 4801 002c 30000000 		.4byte	0x30
 4802 0030 03       		.uleb128 0x3
 4803 0031 01       		.byte	0x1
 4804 0032 06       		.byte	0x6
 4805 0033 77030000 		.4byte	.LASF2
 4806 0037 02       		.uleb128 0x2
 4807 0038 9C020000 		.4byte	.LASF1
 4808 003c 02       		.byte	0x2
 4809 003d 1D       		.byte	0x1d
 4810 003e 42000000 		.4byte	0x42
 4811 0042 03       		.uleb128 0x3
 4812 0043 01       		.byte	0x1
 4813 0044 08       		.byte	0x8
 4814 0045 1F040000 		.4byte	.LASF3
 4815 0049 02       		.uleb128 0x2
 4816 004a 750B0000 		.4byte	.LASF4
 4817 004e 02       		.byte	0x2
 4818 004f 29       		.byte	0x29
 4819 0050 54000000 		.4byte	0x54
ARM GAS  C:\Users\pearlstl\AppData\Local\Temp\ccIJtgHD.s 			page 116


 4820 0054 03       		.uleb128 0x3
 4821 0055 02       		.byte	0x2
 4822 0056 05       		.byte	0x5
 4823 0057 940C0000 		.4byte	.LASF5
 4824 005b 02       		.uleb128 0x2
 4825 005c 28050000 		.4byte	.LASF6
 4826 0060 02       		.byte	0x2
 4827 0061 2B       		.byte	0x2b
 4828 0062 66000000 		.4byte	0x66
 4829 0066 03       		.uleb128 0x3
 4830 0067 02       		.byte	0x2
 4831 0068 07       		.byte	0x7
 4832 0069 D40E0000 		.4byte	.LASF7
 4833 006d 03       		.uleb128 0x3
 4834 006e 04       		.byte	0x4
 4835 006f 05       		.byte	0x5
 4836 0070 B3020000 		.4byte	.LASF8
 4837 0074 02       		.uleb128 0x2
 4838 0075 10080000 		.4byte	.LASF9
 4839 0079 02       		.byte	0x2
 4840 007a 41       		.byte	0x41
 4841 007b 7F000000 		.4byte	0x7f
 4842 007f 03       		.uleb128 0x3
 4843 0080 04       		.byte	0x4
 4844 0081 07       		.byte	0x7
 4845 0082 B6060000 		.4byte	.LASF10
 4846 0086 03       		.uleb128 0x3
 4847 0087 08       		.byte	0x8
 4848 0088 05       		.byte	0x5
 4849 0089 32080000 		.4byte	.LASF11
 4850 008d 03       		.uleb128 0x3
 4851 008e 08       		.byte	0x8
 4852 008f 07       		.byte	0x7
 4853 0090 E00A0000 		.4byte	.LASF12
 4854 0094 04       		.uleb128 0x4
 4855 0095 04       		.byte	0x4
 4856 0096 05       		.byte	0x5
 4857 0097 696E7400 		.ascii	"int\000"
 4858 009b 03       		.uleb128 0x3
 4859 009c 04       		.byte	0x4
 4860 009d 07       		.byte	0x7
 4861 009e FD080000 		.4byte	.LASF13
 4862 00a2 02       		.uleb128 0x2
 4863 00a3 00000000 		.4byte	.LASF14
 4864 00a7 03       		.byte	0x3
 4865 00a8 14       		.byte	0x14
 4866 00a9 25000000 		.4byte	0x25
 4867 00ad 02       		.uleb128 0x2
 4868 00ae 93030000 		.4byte	.LASF15
 4869 00b2 03       		.byte	0x3
 4870 00b3 18       		.byte	0x18
 4871 00b4 37000000 		.4byte	0x37
 4872 00b8 02       		.uleb128 0x2
 4873 00b9 DF0C0000 		.4byte	.LASF16
 4874 00bd 03       		.byte	0x3
 4875 00be 20       		.byte	0x20
 4876 00bf 49000000 		.4byte	0x49
ARM GAS  C:\Users\pearlstl\AppData\Local\Temp\ccIJtgHD.s 			page 117


 4877 00c3 02       		.uleb128 0x2
 4878 00c4 F70A0000 		.4byte	.LASF17
 4879 00c8 03       		.byte	0x3
 4880 00c9 24       		.byte	0x24
 4881 00ca 5B000000 		.4byte	0x5b
 4882 00ce 02       		.uleb128 0x2
 4883 00cf 640E0000 		.4byte	.LASF18
 4884 00d3 03       		.byte	0x3
 4885 00d4 30       		.byte	0x30
 4886 00d5 74000000 		.4byte	0x74
 4887 00d9 02       		.uleb128 0x2
 4888 00da F30E0000 		.4byte	.LASF19
 4889 00de 04       		.byte	0x4
 4890 00df 3A       		.byte	0x3a
 4891 00e0 B8000000 		.4byte	0xb8
 4892 00e4 05       		.uleb128 0x5
 4893 00e5 04       		.byte	0x4
 4894 00e6 03       		.uleb128 0x3
 4895 00e7 08       		.byte	0x8
 4896 00e8 04       		.byte	0x4
 4897 00e9 EB090000 		.4byte	.LASF20
 4898 00ed 06       		.uleb128 0x6
 4899 00ee 08       		.byte	0x8
 4900 00ef 05       		.byte	0x5
 4901 00f0 2E       		.byte	0x2e
 4902 00f1 3E010000 		.4byte	0x13e
 4903 00f5 07       		.uleb128 0x7
 4904 00f6 14000000 		.4byte	.LASF21
 4905 00fa 05       		.byte	0x5
 4906 00fb 30       		.byte	0x30
 4907 00fc C3000000 		.4byte	0xc3
 4908 0100 00       		.byte	0
 4909 0101 07       		.uleb128 0x7
 4910 0102 8E0C0000 		.4byte	.LASF22
 4911 0106 05       		.byte	0x5
 4912 0107 31       		.byte	0x31
 4913 0108 AD000000 		.4byte	0xad
 4914 010c 02       		.byte	0x2
 4915 010d 07       		.uleb128 0x7
 4916 010e 720C0000 		.4byte	.LASF23
 4917 0112 05       		.byte	0x5
 4918 0113 32       		.byte	0x32
 4919 0114 AD000000 		.4byte	0xad
 4920 0118 03       		.byte	0x3
 4921 0119 07       		.uleb128 0x7
 4922 011a 90040000 		.4byte	.LASF24
 4923 011e 05       		.byte	0x5
 4924 011f 33       		.byte	0x33
 4925 0120 A2000000 		.4byte	0xa2
 4926 0124 04       		.byte	0x4
 4927 0125 07       		.uleb128 0x7
 4928 0126 96040000 		.4byte	.LASF25
 4929 012a 05       		.byte	0x5
 4930 012b 34       		.byte	0x34
 4931 012c A2000000 		.4byte	0xa2
 4932 0130 05       		.byte	0x5
 4933 0131 08       		.uleb128 0x8
ARM GAS  C:\Users\pearlstl\AppData\Local\Temp\ccIJtgHD.s 			page 118


 4934 0132 62707000 		.ascii	"bpp\000"
 4935 0136 05       		.byte	0x5
 4936 0137 35       		.byte	0x35
 4937 0138 AD000000 		.4byte	0xad
 4938 013c 06       		.byte	0x6
 4939 013d 00       		.byte	0
 4940 013e 02       		.uleb128 0x2
 4941 013f 77090000 		.4byte	.LASF26
 4942 0143 05       		.byte	0x5
 4943 0144 36       		.byte	0x36
 4944 0145 ED000000 		.4byte	0xed
 4945 0149 09       		.uleb128 0x9
 4946 014a 890F0000 		.4byte	.LASF82
 4947 014e 10       		.byte	0x10
 4948 014f 05       		.byte	0x5
 4949 0150 44       		.byte	0x44
 4950 0151 A1010000 		.4byte	0x1a1
 4951 0155 07       		.uleb128 0x7
 4952 0156 320F0000 		.4byte	.LASF27
 4953 015a 05       		.byte	0x5
 4954 015b 47       		.byte	0x47
 4955 015c D7010000 		.4byte	0x1d7
 4956 0160 00       		.byte	0
 4957 0161 07       		.uleb128 0x7
 4958 0162 AC030000 		.4byte	.LASF28
 4959 0166 05       		.byte	0x5
 4960 0167 4A       		.byte	0x4a
 4961 0168 FC010000 		.4byte	0x1fc
 4962 016c 04       		.byte	0x4
 4963 016d 07       		.uleb128 0x7
 4964 016e E8000000 		.4byte	.LASF29
 4965 0172 05       		.byte	0x5
 4966 0173 4D       		.byte	0x4d
 4967 0174 AD000000 		.4byte	0xad
 4968 0178 08       		.byte	0x8
 4969 0179 07       		.uleb128 0x7
 4970 017a 9E0C0000 		.4byte	.LASF30
 4971 017e 05       		.byte	0x5
 4972 017f 4E       		.byte	0x4e
 4973 0180 A2000000 		.4byte	0xa2
 4974 0184 09       		.byte	0x9
 4975 0185 0A       		.uleb128 0xa
 4976 0186 320A0000 		.4byte	.LASF65
 4977 018a 05       		.byte	0x5
 4978 018b 4F       		.byte	0x4f
 4979 018c AD000000 		.4byte	0xad
 4980 0190 01       		.byte	0x1
 4981 0191 02       		.byte	0x2
 4982 0192 06       		.byte	0x6
 4983 0193 0A       		.byte	0xa
 4984 0194 08       		.uleb128 0x8
 4985 0195 64736300 		.ascii	"dsc\000"
 4986 0199 05       		.byte	0x5
 4987 019a 50       		.byte	0x50
 4988 019b E4000000 		.4byte	0xe4
 4989 019f 0C       		.byte	0xc
 4990 01a0 00       		.byte	0
ARM GAS  C:\Users\pearlstl\AppData\Local\Temp\ccIJtgHD.s 			page 119


 4991 01a1 0B       		.uleb128 0xb
 4992 01a2 BF010000 		.4byte	0x1bf
 4993 01a6 BF010000 		.4byte	0x1bf
 4994 01aa 0C       		.uleb128 0xc
 4995 01ab C6010000 		.4byte	0x1c6
 4996 01af 0C       		.uleb128 0xc
 4997 01b0 D1010000 		.4byte	0x1d1
 4998 01b4 0C       		.uleb128 0xc
 4999 01b5 CE000000 		.4byte	0xce
 5000 01b9 0C       		.uleb128 0xc
 5001 01ba CE000000 		.4byte	0xce
 5002 01be 00       		.byte	0
 5003 01bf 03       		.uleb128 0x3
 5004 01c0 01       		.byte	0x1
 5005 01c1 02       		.byte	0x2
 5006 01c2 BC040000 		.4byte	.LASF31
 5007 01c6 0D       		.uleb128 0xd
 5008 01c7 04       		.byte	0x4
 5009 01c8 CC010000 		.4byte	0x1cc
 5010 01cc 0E       		.uleb128 0xe
 5011 01cd 49010000 		.4byte	0x149
 5012 01d1 0D       		.uleb128 0xd
 5013 01d2 04       		.byte	0x4
 5014 01d3 3E010000 		.4byte	0x13e
 5015 01d7 0D       		.uleb128 0xd
 5016 01d8 04       		.byte	0x4
 5017 01d9 A1010000 		.4byte	0x1a1
 5018 01dd 0B       		.uleb128 0xb
 5019 01de F1010000 		.4byte	0x1f1
 5020 01e2 F1010000 		.4byte	0x1f1
 5021 01e6 0C       		.uleb128 0xc
 5022 01e7 C6010000 		.4byte	0x1c6
 5023 01eb 0C       		.uleb128 0xc
 5024 01ec CE000000 		.4byte	0xce
 5025 01f0 00       		.byte	0
 5026 01f1 0D       		.uleb128 0xd
 5027 01f2 04       		.byte	0x4
 5028 01f3 F7010000 		.4byte	0x1f7
 5029 01f7 0E       		.uleb128 0xe
 5030 01f8 AD000000 		.4byte	0xad
 5031 01fc 0D       		.uleb128 0xd
 5032 01fd 04       		.byte	0x4
 5033 01fe DD010000 		.4byte	0x1dd
 5034 0202 02       		.uleb128 0x2
 5035 0203 AD0E0000 		.4byte	.LASF32
 5036 0207 05       		.byte	0x5
 5037 0208 56       		.byte	0x56
 5038 0209 49010000 		.4byte	0x149
 5039 020d 06       		.uleb128 0x6
 5040 020e 04       		.byte	0x4
 5041 020f 06       		.byte	0x6
 5042 0210 F3       		.byte	0xf3
 5043 0211 46020000 		.4byte	0x246
 5044 0215 07       		.uleb128 0x7
 5045 0216 C2030000 		.4byte	.LASF33
 5046 021a 06       		.byte	0x6
 5047 021b F5       		.byte	0xf5
ARM GAS  C:\Users\pearlstl\AppData\Local\Temp\ccIJtgHD.s 			page 120


 5048 021c AD000000 		.4byte	0xad
 5049 0220 00       		.byte	0
 5050 0221 07       		.uleb128 0x7
 5051 0222 A70E0000 		.4byte	.LASF34
 5052 0226 06       		.byte	0x6
 5053 0227 F6       		.byte	0xf6
 5054 0228 AD000000 		.4byte	0xad
 5055 022c 01       		.byte	0x1
 5056 022d 08       		.uleb128 0x8
 5057 022e 72656400 		.ascii	"red\000"
 5058 0232 06       		.byte	0x6
 5059 0233 F7       		.byte	0xf7
 5060 0234 AD000000 		.4byte	0xad
 5061 0238 02       		.byte	0x2
 5062 0239 07       		.uleb128 0x7
 5063 023a A6020000 		.4byte	.LASF35
 5064 023e 06       		.byte	0x6
 5065 023f F8       		.byte	0xf8
 5066 0240 AD000000 		.4byte	0xad
 5067 0244 03       		.byte	0x3
 5068 0245 00       		.byte	0
 5069 0246 0F       		.uleb128 0xf
 5070 0247 04       		.byte	0x4
 5071 0248 06       		.byte	0x6
 5072 0249 F1       		.byte	0xf1
 5073 024a 64020000 		.4byte	0x264
 5074 024e 10       		.uleb128 0x10
 5075 024f 636800   		.ascii	"ch\000"
 5076 0252 06       		.byte	0x6
 5077 0253 F9       		.byte	0xf9
 5078 0254 0D020000 		.4byte	0x20d
 5079 0258 11       		.uleb128 0x11
 5080 0259 A70B0000 		.4byte	.LASF36
 5081 025d 06       		.byte	0x6
 5082 025e FA       		.byte	0xfa
 5083 025f CE000000 		.4byte	0xce
 5084 0263 00       		.byte	0
 5085 0264 02       		.uleb128 0x2
 5086 0265 2D000000 		.4byte	.LASF37
 5087 0269 06       		.byte	0x6
 5088 026a FB       		.byte	0xfb
 5089 026b 46020000 		.4byte	0x246
 5090 026f 12       		.uleb128 0x12
 5091 0270 0A0B0000 		.4byte	.LASF38
 5092 0274 06       		.byte	0x6
 5093 0275 0801     		.2byte	0x108
 5094 0277 64020000 		.4byte	0x264
 5095 027b 12       		.uleb128 0x12
 5096 027c 7C000000 		.4byte	.LASF39
 5097 0280 06       		.byte	0x6
 5098 0281 0D01     		.2byte	0x10d
 5099 0283 AD000000 		.4byte	0xad
 5100 0287 03       		.uleb128 0x3
 5101 0288 04       		.byte	0x4
 5102 0289 07       		.byte	0x7
 5103 028a 24000000 		.4byte	.LASF40
 5104 028e 0D       		.uleb128 0xd
ARM GAS  C:\Users\pearlstl\AppData\Local\Temp\ccIJtgHD.s 			page 121


 5105 028f 04       		.byte	0x4
 5106 0290 94020000 		.4byte	0x294
 5107 0294 03       		.uleb128 0x3
 5108 0295 01       		.byte	0x1
 5109 0296 08       		.byte	0x8
 5110 0297 D7040000 		.4byte	.LASF41
 5111 029b 0D       		.uleb128 0xd
 5112 029c 04       		.byte	0x4
 5113 029d A1020000 		.4byte	0x2a1
 5114 02a1 0E       		.uleb128 0xe
 5115 02a2 94020000 		.4byte	0x294
 5116 02a6 06       		.uleb128 0x6
 5117 02a7 04       		.byte	0x4
 5118 02a8 07       		.byte	0x7
 5119 02a9 2A       		.byte	0x2a
 5120 02aa C3020000 		.4byte	0x2c3
 5121 02ae 08       		.uleb128 0x8
 5122 02af 7800     		.ascii	"x\000"
 5123 02b1 07       		.byte	0x7
 5124 02b2 2C       		.byte	0x2c
 5125 02b3 D9000000 		.4byte	0xd9
 5126 02b7 00       		.byte	0
 5127 02b8 08       		.uleb128 0x8
 5128 02b9 7900     		.ascii	"y\000"
 5129 02bb 07       		.byte	0x7
 5130 02bc 2D       		.byte	0x2d
 5131 02bd D9000000 		.4byte	0xd9
 5132 02c1 02       		.byte	0x2
 5133 02c2 00       		.byte	0
 5134 02c3 02       		.uleb128 0x2
 5135 02c4 99000000 		.4byte	.LASF42
 5136 02c8 07       		.byte	0x7
 5137 02c9 2E       		.byte	0x2e
 5138 02ca A6020000 		.4byte	0x2a6
 5139 02ce 06       		.uleb128 0x6
 5140 02cf 08       		.byte	0x8
 5141 02d0 07       		.byte	0x7
 5142 02d1 31       		.byte	0x31
 5143 02d2 03030000 		.4byte	0x303
 5144 02d6 08       		.uleb128 0x8
 5145 02d7 783100   		.ascii	"x1\000"
 5146 02da 07       		.byte	0x7
 5147 02db 33       		.byte	0x33
 5148 02dc D9000000 		.4byte	0xd9
 5149 02e0 00       		.byte	0
 5150 02e1 08       		.uleb128 0x8
 5151 02e2 793100   		.ascii	"y1\000"
 5152 02e5 07       		.byte	0x7
 5153 02e6 34       		.byte	0x34
 5154 02e7 D9000000 		.4byte	0xd9
 5155 02eb 02       		.byte	0x2
 5156 02ec 08       		.uleb128 0x8
 5157 02ed 783200   		.ascii	"x2\000"
 5158 02f0 07       		.byte	0x7
 5159 02f1 35       		.byte	0x35
 5160 02f2 D9000000 		.4byte	0xd9
 5161 02f6 04       		.byte	0x4
ARM GAS  C:\Users\pearlstl\AppData\Local\Temp\ccIJtgHD.s 			page 122


 5162 02f7 08       		.uleb128 0x8
 5163 02f8 793200   		.ascii	"y2\000"
 5164 02fb 07       		.byte	0x7
 5165 02fc 36       		.byte	0x36
 5166 02fd D9000000 		.4byte	0xd9
 5167 0301 06       		.byte	0x6
 5168 0302 00       		.byte	0
 5169 0303 02       		.uleb128 0x2
 5170 0304 43060000 		.4byte	.LASF43
 5171 0308 07       		.byte	0x7
 5172 0309 37       		.byte	0x37
 5173 030a CE020000 		.4byte	0x2ce
 5174 030e 02       		.uleb128 0x2
 5175 030f 470F0000 		.4byte	.LASF44
 5176 0313 08       		.byte	0x8
 5177 0314 2C       		.byte	0x2c
 5178 0315 AD000000 		.4byte	0xad
 5179 0319 02       		.uleb128 0x2
 5180 031a 210C0000 		.4byte	.LASF45
 5181 031e 08       		.byte	0x8
 5182 031f 33       		.byte	0x33
 5183 0320 AD000000 		.4byte	0xad
 5184 0324 06       		.uleb128 0x6
 5185 0325 08       		.byte	0x8
 5186 0326 08       		.byte	0x8
 5187 0327 48       		.byte	0x48
 5188 0328 5D030000 		.4byte	0x35d
 5189 032c 07       		.uleb128 0x7
 5190 032d AC0B0000 		.4byte	.LASF46
 5191 0331 08       		.byte	0x8
 5192 0332 4A       		.byte	0x4a
 5193 0333 6F020000 		.4byte	0x26f
 5194 0337 00       		.byte	0
 5195 0338 07       		.uleb128 0x7
 5196 0339 57080000 		.4byte	.LASF47
 5197 033d 08       		.byte	0x8
 5198 033e 4B       		.byte	0x4b
 5199 033f D9000000 		.4byte	0xd9
 5200 0343 04       		.byte	0x4
 5201 0344 07       		.uleb128 0x7
 5202 0345 990F0000 		.4byte	.LASF48
 5203 0349 08       		.byte	0x8
 5204 034a 4C       		.byte	0x4c
 5205 034b 0E030000 		.4byte	0x30e
 5206 034f 06       		.byte	0x6
 5207 0350 08       		.uleb128 0x8
 5208 0351 6F706100 		.ascii	"opa\000"
 5209 0355 08       		.byte	0x8
 5210 0356 4D       		.byte	0x4d
 5211 0357 7B020000 		.4byte	0x27b
 5212 035b 07       		.byte	0x7
 5213 035c 00       		.byte	0
 5214 035d 06       		.uleb128 0x6
 5215 035e 08       		.byte	0x8
 5216 035f 08       		.byte	0x8
 5217 0360 51       		.byte	0x51
 5218 0361 8A030000 		.4byte	0x38a
ARM GAS  C:\Users\pearlstl\AppData\Local\Temp\ccIJtgHD.s 			page 123


 5219 0365 07       		.uleb128 0x7
 5220 0366 AC0B0000 		.4byte	.LASF46
 5221 036a 08       		.byte	0x8
 5222 036b 53       		.byte	0x53
 5223 036c 6F020000 		.4byte	0x26f
 5224 0370 00       		.byte	0
 5225 0371 07       		.uleb128 0x7
 5226 0372 57080000 		.4byte	.LASF47
 5227 0376 08       		.byte	0x8
 5228 0377 54       		.byte	0x54
 5229 0378 D9000000 		.4byte	0xd9
 5230 037c 04       		.byte	0x4
 5231 037d 07       		.uleb128 0x7
 5232 037e 85010000 		.4byte	.LASF49
 5233 0382 08       		.byte	0x8
 5234 0383 55       		.byte	0x55
 5235 0384 19030000 		.4byte	0x319
 5236 0388 06       		.byte	0x6
 5237 0389 00       		.byte	0
 5238 038a 06       		.uleb128 0x6
 5239 038b 0A       		.byte	0xa
 5240 038c 08       		.byte	0x8
 5241 038d 58       		.byte	0x58
 5242 038e CF030000 		.4byte	0x3cf
 5243 0392 08       		.uleb128 0x8
 5244 0393 746F7000 		.ascii	"top\000"
 5245 0397 08       		.byte	0x8
 5246 0398 5A       		.byte	0x5a
 5247 0399 D9000000 		.4byte	0xd9
 5248 039d 00       		.byte	0
 5249 039e 07       		.uleb128 0x7
 5250 039f 6F080000 		.4byte	.LASF50
 5251 03a3 08       		.byte	0x8
 5252 03a4 5B       		.byte	0x5b
 5253 03a5 D9000000 		.4byte	0xd9
 5254 03a9 02       		.byte	0x2
 5255 03aa 07       		.uleb128 0x7
 5256 03ab 75060000 		.4byte	.LASF51
 5257 03af 08       		.byte	0x8
 5258 03b0 5C       		.byte	0x5c
 5259 03b1 D9000000 		.4byte	0xd9
 5260 03b5 04       		.byte	0x4
 5261 03b6 07       		.uleb128 0x7
 5262 03b7 24080000 		.4byte	.LASF52
 5263 03bb 08       		.byte	0x8
 5264 03bc 5D       		.byte	0x5d
 5265 03bd D9000000 		.4byte	0xd9
 5266 03c1 06       		.byte	0x6
 5267 03c2 07       		.uleb128 0x7
 5268 03c3 B0060000 		.4byte	.LASF53
 5269 03c7 08       		.byte	0x8
 5270 03c8 5E       		.byte	0x5e
 5271 03c9 D9000000 		.4byte	0xd9
 5272 03cd 08       		.byte	0x8
 5273 03ce 00       		.byte	0
 5274 03cf 06       		.uleb128 0x6
 5275 03d0 28       		.byte	0x28
ARM GAS  C:\Users\pearlstl\AppData\Local\Temp\ccIJtgHD.s 			page 124


 5276 03d1 08       		.byte	0x8
 5277 03d2 41       		.byte	0x41
 5278 03d3 2C040000 		.4byte	0x42c
 5279 03d7 07       		.uleb128 0x7
 5280 03d8 AB0A0000 		.4byte	.LASF54
 5281 03dc 08       		.byte	0x8
 5282 03dd 43       		.byte	0x43
 5283 03de 6F020000 		.4byte	0x26f
 5284 03e2 00       		.byte	0
 5285 03e3 07       		.uleb128 0x7
 5286 03e4 90090000 		.4byte	.LASF55
 5287 03e8 08       		.byte	0x8
 5288 03e9 44       		.byte	0x44
 5289 03ea 6F020000 		.4byte	0x26f
 5290 03ee 04       		.byte	0x4
 5291 03ef 07       		.uleb128 0x7
 5292 03f0 D4000000 		.4byte	.LASF56
 5293 03f4 08       		.byte	0x8
 5294 03f5 45       		.byte	0x45
 5295 03f6 D9000000 		.4byte	0xd9
 5296 03fa 08       		.byte	0x8
 5297 03fb 08       		.uleb128 0x8
 5298 03fc 6F706100 		.ascii	"opa\000"
 5299 0400 08       		.byte	0x8
 5300 0401 46       		.byte	0x46
 5301 0402 7B020000 		.4byte	0x27b
 5302 0406 0A       		.byte	0xa
 5303 0407 07       		.uleb128 0x7
 5304 0408 070F0000 		.4byte	.LASF57
 5305 040c 08       		.byte	0x8
 5306 040d 4E       		.byte	0x4e
 5307 040e 24030000 		.4byte	0x324
 5308 0412 0C       		.byte	0xc
 5309 0413 07       		.uleb128 0x7
 5310 0414 DE0D0000 		.4byte	.LASF58
 5311 0418 08       		.byte	0x8
 5312 0419 56       		.byte	0x56
 5313 041a 5D030000 		.4byte	0x35d
 5314 041e 14       		.byte	0x14
 5315 041f 07       		.uleb128 0x7
 5316 0420 430E0000 		.4byte	.LASF59
 5317 0424 08       		.byte	0x8
 5318 0425 5F       		.byte	0x5f
 5319 0426 8A030000 		.4byte	0x38a
 5320 042a 1C       		.byte	0x1c
 5321 042b 00       		.byte	0
 5322 042c 06       		.uleb128 0x6
 5323 042d 14       		.byte	0x14
 5324 042e 08       		.byte	0x8
 5325 042f 63       		.byte	0x63
 5326 0430 7D040000 		.4byte	0x47d
 5327 0434 07       		.uleb128 0x7
 5328 0435 AC0B0000 		.4byte	.LASF46
 5329 0439 08       		.byte	0x8
 5330 043a 65       		.byte	0x65
 5331 043b 6F020000 		.4byte	0x26f
 5332 043f 00       		.byte	0
ARM GAS  C:\Users\pearlstl\AppData\Local\Temp\ccIJtgHD.s 			page 125


 5333 0440 07       		.uleb128 0x7
 5334 0441 7F0F0000 		.4byte	.LASF60
 5335 0445 08       		.byte	0x8
 5336 0446 66       		.byte	0x66
 5337 0447 6F020000 		.4byte	0x26f
 5338 044b 04       		.byte	0x4
 5339 044c 07       		.uleb128 0x7
 5340 044d 410C0000 		.4byte	.LASF61
 5341 0451 08       		.byte	0x8
 5342 0452 67       		.byte	0x67
 5343 0453 7D040000 		.4byte	0x47d
 5344 0457 08       		.byte	0x8
 5345 0458 07       		.uleb128 0x7
 5346 0459 460C0000 		.4byte	.LASF62
 5347 045d 08       		.byte	0x8
 5348 045e 68       		.byte	0x68
 5349 045f D9000000 		.4byte	0xd9
 5350 0463 0C       		.byte	0xc
 5351 0464 07       		.uleb128 0x7
 5352 0465 B20B0000 		.4byte	.LASF63
 5353 0469 08       		.byte	0x8
 5354 046a 69       		.byte	0x69
 5355 046b D9000000 		.4byte	0xd9
 5356 046f 0E       		.byte	0xe
 5357 0470 08       		.uleb128 0x8
 5358 0471 6F706100 		.ascii	"opa\000"
 5359 0475 08       		.byte	0x8
 5360 0476 6A       		.byte	0x6a
 5361 0477 7B020000 		.4byte	0x27b
 5362 047b 10       		.byte	0x10
 5363 047c 00       		.byte	0
 5364 047d 0D       		.uleb128 0xd
 5365 047e 04       		.byte	0x4
 5366 047f 83040000 		.4byte	0x483
 5367 0483 0E       		.uleb128 0xe
 5368 0484 02020000 		.4byte	0x202
 5369 0488 06       		.uleb128 0x6
 5370 0489 08       		.byte	0x8
 5371 048a 08       		.byte	0x8
 5372 048b 6E       		.byte	0x6e
 5373 048c B5040000 		.4byte	0x4b5
 5374 0490 07       		.uleb128 0x7
 5375 0491 AC0B0000 		.4byte	.LASF46
 5376 0495 08       		.byte	0x8
 5377 0496 70       		.byte	0x70
 5378 0497 6F020000 		.4byte	0x26f
 5379 049b 00       		.byte	0
 5380 049c 07       		.uleb128 0x7
 5381 049d 91000000 		.4byte	.LASF64
 5382 04a1 08       		.byte	0x8
 5383 04a2 71       		.byte	0x71
 5384 04a3 7B020000 		.4byte	0x27b
 5385 04a7 04       		.byte	0x4
 5386 04a8 08       		.uleb128 0x8
 5387 04a9 6F706100 		.ascii	"opa\000"
 5388 04ad 08       		.byte	0x8
 5389 04ae 72       		.byte	0x72
ARM GAS  C:\Users\pearlstl\AppData\Local\Temp\ccIJtgHD.s 			page 126


 5390 04af 7B020000 		.4byte	0x27b
 5391 04b3 05       		.byte	0x5
 5392 04b4 00       		.byte	0
 5393 04b5 06       		.uleb128 0x6
 5394 04b6 08       		.byte	0x8
 5395 04b7 08       		.byte	0x8
 5396 04b8 76       		.byte	0x76
 5397 04b9 F1040000 		.4byte	0x4f1
 5398 04bd 07       		.uleb128 0x7
 5399 04be AC0B0000 		.4byte	.LASF46
 5400 04c2 08       		.byte	0x8
 5401 04c3 78       		.byte	0x78
 5402 04c4 6F020000 		.4byte	0x26f
 5403 04c8 00       		.byte	0
 5404 04c9 07       		.uleb128 0x7
 5405 04ca 57080000 		.4byte	.LASF47
 5406 04ce 08       		.byte	0x8
 5407 04cf 79       		.byte	0x79
 5408 04d0 D9000000 		.4byte	0xd9
 5409 04d4 04       		.byte	0x4
 5410 04d5 08       		.uleb128 0x8
 5411 04d6 6F706100 		.ascii	"opa\000"
 5412 04da 08       		.byte	0x8
 5413 04db 7A       		.byte	0x7a
 5414 04dc 7B020000 		.4byte	0x27b
 5415 04e0 06       		.byte	0x6
 5416 04e1 0A       		.uleb128 0xa
 5417 04e2 E5050000 		.4byte	.LASF66
 5418 04e6 08       		.byte	0x8
 5419 04e7 7B       		.byte	0x7b
 5420 04e8 AD000000 		.4byte	0xad
 5421 04ec 01       		.byte	0x1
 5422 04ed 01       		.byte	0x1
 5423 04ee 07       		.byte	0x7
 5424 04ef 07       		.byte	0x7
 5425 04f0 00       		.byte	0
 5426 04f1 06       		.uleb128 0x6
 5427 04f2 50       		.byte	0x50
 5428 04f3 08       		.byte	0x8
 5429 04f4 3C       		.byte	0x3c
 5430 04f5 39050000 		.4byte	0x539
 5431 04f9 0A       		.uleb128 0xa
 5432 04fa E2080000 		.4byte	.LASF67
 5433 04fe 08       		.byte	0x8
 5434 04ff 3E       		.byte	0x3e
 5435 0500 AD000000 		.4byte	0xad
 5436 0504 01       		.byte	0x1
 5437 0505 01       		.byte	0x1
 5438 0506 07       		.byte	0x7
 5439 0507 00       		.byte	0
 5440 0508 07       		.uleb128 0x7
 5441 0509 1E050000 		.4byte	.LASF68
 5442 050d 08       		.byte	0x8
 5443 050e 60       		.byte	0x60
 5444 050f CF030000 		.4byte	0x3cf
 5445 0513 04       		.byte	0x4
 5446 0514 07       		.uleb128 0x7
ARM GAS  C:\Users\pearlstl\AppData\Local\Temp\ccIJtgHD.s 			page 127


 5447 0515 DA050000 		.4byte	.LASF69
 5448 0519 08       		.byte	0x8
 5449 051a 6B       		.byte	0x6b
 5450 051b 2C040000 		.4byte	0x42c
 5451 051f 2C       		.byte	0x2c
 5452 0520 07       		.uleb128 0x7
 5453 0521 DF050000 		.4byte	.LASF70
 5454 0525 08       		.byte	0x8
 5455 0526 73       		.byte	0x73
 5456 0527 88040000 		.4byte	0x488
 5457 052b 40       		.byte	0x40
 5458 052c 07       		.uleb128 0x7
 5459 052d E1060000 		.4byte	.LASF71
 5460 0531 08       		.byte	0x8
 5461 0532 7C       		.byte	0x7c
 5462 0533 B5040000 		.4byte	0x4b5
 5463 0537 48       		.byte	0x48
 5464 0538 00       		.byte	0
 5465 0539 02       		.uleb128 0x2
 5466 053a A5060000 		.4byte	.LASF72
 5467 053e 08       		.byte	0x8
 5468 053f 84       		.byte	0x84
 5469 0540 F1040000 		.4byte	0x4f1
 5470 0544 0D       		.uleb128 0xd
 5471 0545 04       		.byte	0x4
 5472 0546 39050000 		.4byte	0x539
 5473 054a 13       		.uleb128 0x13
 5474 054b 01       		.byte	0x1
 5475 054c 42000000 		.4byte	0x42
 5476 0550 09       		.byte	0x9
 5477 0551 27       		.byte	0x27
 5478 0552 63050000 		.4byte	0x563
 5479 0556 14       		.uleb128 0x14
 5480 0557 62010000 		.4byte	.LASF73
 5481 055b 00       		.byte	0
 5482 055c 14       		.uleb128 0x14
 5483 055d 000B0000 		.4byte	.LASF74
 5484 0561 01       		.byte	0x1
 5485 0562 00       		.byte	0
 5486 0563 02       		.uleb128 0x2
 5487 0564 E2090000 		.4byte	.LASF75
 5488 0568 09       		.byte	0x9
 5489 0569 2C       		.byte	0x2c
 5490 056a AD000000 		.4byte	0xad
 5491 056e 02       		.uleb128 0x2
 5492 056f 07000000 		.4byte	.LASF76
 5493 0573 0A       		.byte	0xa
 5494 0574 1E       		.byte	0x1e
 5495 0575 AD000000 		.4byte	0xad
 5496 0579 06       		.uleb128 0x6
 5497 057a 0C       		.byte	0xc
 5498 057b 0A       		.byte	0xa
 5499 057c 21       		.byte	0x21
 5500 057d A6050000 		.4byte	0x5a6
 5501 0581 07       		.uleb128 0x7
 5502 0582 9E0F0000 		.4byte	.LASF77
 5503 0586 0A       		.byte	0xa
ARM GAS  C:\Users\pearlstl\AppData\Local\Temp\ccIJtgHD.s 			page 128


 5504 0587 23       		.byte	0x23
 5505 0588 CE000000 		.4byte	0xce
 5506 058c 00       		.byte	0
 5507 058d 07       		.uleb128 0x7
 5508 058e 23030000 		.4byte	.LASF78
 5509 0592 0A       		.byte	0xa
 5510 0593 24       		.byte	0x24
 5511 0594 A6050000 		.4byte	0x5a6
 5512 0598 04       		.byte	0x4
 5513 0599 07       		.uleb128 0x7
 5514 059a 3F000000 		.4byte	.LASF79
 5515 059e 0A       		.byte	0xa
 5516 059f 25       		.byte	0x25
 5517 05a0 A6050000 		.4byte	0x5a6
 5518 05a4 08       		.byte	0x8
 5519 05a5 00       		.byte	0
 5520 05a6 0D       		.uleb128 0xd
 5521 05a7 04       		.byte	0x4
 5522 05a8 6E050000 		.4byte	0x56e
 5523 05ac 02       		.uleb128 0x2
 5524 05ad A80C0000 		.4byte	.LASF80
 5525 05b1 0A       		.byte	0xa
 5526 05b2 26       		.byte	0x26
 5527 05b3 79050000 		.4byte	0x579
 5528 05b7 02       		.uleb128 0x2
 5529 05b8 28060000 		.4byte	.LASF81
 5530 05bc 0B       		.byte	0xb
 5531 05bd 30       		.byte	0x30
 5532 05be AD000000 		.4byte	0xad
 5533 05c2 0D       		.uleb128 0xd
 5534 05c3 04       		.byte	0x4
 5535 05c4 C8050000 		.4byte	0x5c8
 5536 05c8 0E       		.uleb128 0xe
 5537 05c9 03030000 		.4byte	0x303
 5538 05cd 09       		.uleb128 0x9
 5539 05ce 370C0000 		.4byte	.LASF83
 5540 05d2 40       		.byte	0x40
 5541 05d3 0C       		.byte	0xc
 5542 05d4 BB       		.byte	0xbb
 5543 05d5 0F070000 		.4byte	0x70f
 5544 05d9 08       		.uleb128 0x8
 5545 05da 70617200 		.ascii	"par\000"
 5546 05de 0C       		.byte	0xc
 5547 05df BD       		.byte	0xbd
 5548 05e0 0F070000 		.4byte	0x70f
 5549 05e4 00       		.byte	0
 5550 05e5 07       		.uleb128 0x7
 5551 05e6 76080000 		.4byte	.LASF84
 5552 05ea 0C       		.byte	0xc
 5553 05eb BE       		.byte	0xbe
 5554 05ec AC050000 		.4byte	0x5ac
 5555 05f0 04       		.byte	0x4
 5556 05f1 07       		.uleb128 0x7
 5557 05f2 8C0D0000 		.4byte	.LASF85
 5558 05f6 0C       		.byte	0xc
 5559 05f7 C0       		.byte	0xc0
 5560 05f8 03030000 		.4byte	0x303
ARM GAS  C:\Users\pearlstl\AppData\Local\Temp\ccIJtgHD.s 			page 129


 5561 05fc 10       		.byte	0x10
 5562 05fd 07       		.uleb128 0x7
 5563 05fe 1B080000 		.4byte	.LASF86
 5564 0602 0C       		.byte	0xc
 5565 0603 C2       		.byte	0xc2
 5566 0604 74070000 		.4byte	0x774
 5567 0608 18       		.byte	0x18
 5568 0609 07       		.uleb128 0x7
 5569 060a 4B0E0000 		.4byte	.LASF87
 5570 060e 0C       		.byte	0xc
 5571 060f C3       		.byte	0xc3
 5572 0610 25080000 		.4byte	0x825
 5573 0614 1C       		.byte	0x1c
 5574 0615 07       		.uleb128 0x7
 5575 0616 72050000 		.4byte	.LASF88
 5576 061a 0C       		.byte	0xc
 5577 061b C4       		.byte	0xc4
 5578 061c 3F070000 		.4byte	0x73f
 5579 0620 20       		.byte	0x20
 5580 0621 07       		.uleb128 0x7
 5581 0622 120A0000 		.4byte	.LASF89
 5582 0626 0C       		.byte	0xc
 5583 0627 C6       		.byte	0xc6
 5584 0628 E4000000 		.4byte	0xe4
 5585 062c 24       		.byte	0x24
 5586 062d 07       		.uleb128 0x7
 5587 062e 2A080000 		.4byte	.LASF90
 5588 0632 0C       		.byte	0xc
 5589 0633 C7       		.byte	0xc7
 5590 0634 D2080000 		.4byte	0x8d2
 5591 0638 28       		.byte	0x28
 5592 0639 0A       		.uleb128 0xa
 5593 063a F4000000 		.4byte	.LASF91
 5594 063e 0C       		.byte	0xc
 5595 063f D7       		.byte	0xd7
 5596 0640 AD000000 		.4byte	0xad
 5597 0644 01       		.byte	0x1
 5598 0645 01       		.byte	0x1
 5599 0646 07       		.byte	0x7
 5600 0647 2C       		.byte	0x2c
 5601 0648 0A       		.uleb128 0xa
 5602 0649 320C0000 		.4byte	.LASF92
 5603 064d 0C       		.byte	0xc
 5604 064e D8       		.byte	0xd8
 5605 064f AD000000 		.4byte	0xad
 5606 0653 01       		.byte	0x1
 5607 0654 01       		.byte	0x1
 5608 0655 06       		.byte	0x6
 5609 0656 2C       		.byte	0x2c
 5610 0657 0A       		.uleb128 0xa
 5611 0658 ED050000 		.4byte	.LASF93
 5612 065c 0C       		.byte	0xc
 5613 065d D9       		.byte	0xd9
 5614 065e AD000000 		.4byte	0xad
 5615 0662 01       		.byte	0x1
 5616 0663 01       		.byte	0x1
 5617 0664 05       		.byte	0x5
ARM GAS  C:\Users\pearlstl\AppData\Local\Temp\ccIJtgHD.s 			page 130


 5618 0665 2C       		.byte	0x2c
 5619 0666 0A       		.uleb128 0xa
 5620 0667 FE0D0000 		.4byte	.LASF94
 5621 066b 0C       		.byte	0xc
 5622 066c DA       		.byte	0xda
 5623 066d AD000000 		.4byte	0xad
 5624 0671 01       		.byte	0x1
 5625 0672 01       		.byte	0x1
 5626 0673 04       		.byte	0x4
 5627 0674 2C       		.byte	0x2c
 5628 0675 0A       		.uleb128 0xa
 5629 0676 AC020000 		.4byte	.LASF95
 5630 067a 0C       		.byte	0xc
 5631 067b DB       		.byte	0xdb
 5632 067c AD000000 		.4byte	0xad
 5633 0680 01       		.byte	0x1
 5634 0681 01       		.byte	0x1
 5635 0682 03       		.byte	0x3
 5636 0683 2C       		.byte	0x2c
 5637 0684 15       		.uleb128 0x15
 5638 0685 746F7000 		.ascii	"top\000"
 5639 0689 0C       		.byte	0xc
 5640 068a DC       		.byte	0xdc
 5641 068b AD000000 		.4byte	0xad
 5642 068f 01       		.byte	0x1
 5643 0690 01       		.byte	0x1
 5644 0691 02       		.byte	0x2
 5645 0692 2C       		.byte	0x2c
 5646 0693 0A       		.uleb128 0xa
 5647 0694 B20D0000 		.4byte	.LASF96
 5648 0698 0C       		.byte	0xc
 5649 0699 DD       		.byte	0xdd
 5650 069a AD000000 		.4byte	0xad
 5651 069e 01       		.byte	0x1
 5652 069f 01       		.byte	0x1
 5653 06a0 01       		.byte	0x1
 5654 06a1 2C       		.byte	0x2c
 5655 06a2 0A       		.uleb128 0xa
 5656 06a3 BD080000 		.4byte	.LASF97
 5657 06a7 0C       		.byte	0xc
 5658 06a8 DE       		.byte	0xde
 5659 06a9 AD000000 		.4byte	0xad
 5660 06ad 01       		.byte	0x1
 5661 06ae 01       		.byte	0x1
 5662 06af 00       		.byte	0
 5663 06b0 2C       		.byte	0x2c
 5664 06b1 0A       		.uleb128 0xa
 5665 06b2 6F040000 		.4byte	.LASF98
 5666 06b6 0C       		.byte	0xc
 5667 06b7 DF       		.byte	0xdf
 5668 06b8 C7080000 		.4byte	0x8c7
 5669 06bc 01       		.byte	0x1
 5670 06bd 02       		.byte	0x2
 5671 06be 06       		.byte	0x6
 5672 06bf 2D       		.byte	0x2d
 5673 06c0 0A       		.uleb128 0xa
 5674 06c1 5C0C0000 		.4byte	.LASF99
ARM GAS  C:\Users\pearlstl\AppData\Local\Temp\ccIJtgHD.s 			page 131


 5675 06c5 0C       		.byte	0xc
 5676 06c6 E0       		.byte	0xe0
 5677 06c7 B7050000 		.4byte	0x5b7
 5678 06cb 01       		.byte	0x1
 5679 06cc 02       		.byte	0x2
 5680 06cd 04       		.byte	0x4
 5681 06ce 2D       		.byte	0x2d
 5682 06cf 0A       		.uleb128 0xa
 5683 06d0 B70E0000 		.4byte	.LASF100
 5684 06d4 0C       		.byte	0xc
 5685 06d5 E1       		.byte	0xe1
 5686 06d6 AD000000 		.4byte	0xad
 5687 06da 01       		.byte	0x1
 5688 06db 03       		.byte	0x3
 5689 06dc 01       		.byte	0x1
 5690 06dd 2D       		.byte	0x2d
 5691 06de 07       		.uleb128 0x7
 5692 06df 85080000 		.4byte	.LASF101
 5693 06e3 0C       		.byte	0xc
 5694 06e4 E2       		.byte	0xe2
 5695 06e5 AD000000 		.4byte	0xad
 5696 06e9 2E       		.byte	0x2e
 5697 06ea 07       		.uleb128 0x7
 5698 06eb FA0F0000 		.4byte	.LASF102
 5699 06ef 0C       		.byte	0xc
 5700 06f0 E4       		.byte	0xe4
 5701 06f1 7B020000 		.4byte	0x27b
 5702 06f5 2F       		.byte	0x2f
 5703 06f6 07       		.uleb128 0x7
 5704 06f7 36060000 		.4byte	.LASF103
 5705 06fb 0C       		.byte	0xc
 5706 06fc E6       		.byte	0xe6
 5707 06fd D9000000 		.4byte	0xd9
 5708 0701 30       		.byte	0x30
 5709 0702 07       		.uleb128 0x7
 5710 0703 85060000 		.4byte	.LASF104
 5711 0707 0C       		.byte	0xc
 5712 0708 E9       		.byte	0xe9
 5713 0709 BC080000 		.4byte	0x8bc
 5714 070d 34       		.byte	0x34
 5715 070e 00       		.byte	0
 5716 070f 0D       		.uleb128 0xd
 5717 0710 04       		.byte	0x4
 5718 0711 CD050000 		.4byte	0x5cd
 5719 0715 13       		.uleb128 0x13
 5720 0716 01       		.byte	0x1
 5721 0717 42000000 		.4byte	0x42
 5722 071b 0C       		.byte	0xc
 5723 071c 3D       		.byte	0x3d
 5724 071d 34070000 		.4byte	0x734
 5725 0721 14       		.uleb128 0x14
 5726 0722 63090000 		.4byte	.LASF105
 5727 0726 00       		.byte	0
 5728 0727 14       		.uleb128 0x14
 5729 0728 0A050000 		.4byte	.LASF106
 5730 072c 01       		.byte	0x1
 5731 072d 14       		.uleb128 0x14
ARM GAS  C:\Users\pearlstl\AppData\Local\Temp\ccIJtgHD.s 			page 132


 5732 072e 50050000 		.4byte	.LASF107
 5733 0732 02       		.byte	0x2
 5734 0733 00       		.byte	0
 5735 0734 02       		.uleb128 0x2
 5736 0735 210A0000 		.4byte	.LASF108
 5737 0739 0C       		.byte	0xc
 5738 073a 42       		.byte	0x42
 5739 073b AD000000 		.4byte	0xad
 5740 073f 02       		.uleb128 0x2
 5741 0740 C10F0000 		.4byte	.LASF109
 5742 0744 0C       		.byte	0xc
 5743 0745 48       		.byte	0x48
 5744 0746 4A070000 		.4byte	0x74a
 5745 074a 0D       		.uleb128 0xd
 5746 074b 04       		.byte	0x4
 5747 074c 50070000 		.4byte	0x750
 5748 0750 0B       		.uleb128 0xb
 5749 0751 BF010000 		.4byte	0x1bf
 5750 0755 69070000 		.4byte	0x769
 5751 0759 0C       		.uleb128 0xc
 5752 075a 0F070000 		.4byte	0x70f
 5753 075e 0C       		.uleb128 0xc
 5754 075f C2050000 		.4byte	0x5c2
 5755 0763 0C       		.uleb128 0xc
 5756 0764 34070000 		.4byte	0x734
 5757 0768 00       		.byte	0
 5758 0769 02       		.uleb128 0x2
 5759 076a 57010000 		.4byte	.LASF110
 5760 076e 0C       		.byte	0xc
 5761 076f 61       		.byte	0x61
 5762 0770 AD000000 		.4byte	0xad
 5763 0774 02       		.uleb128 0x2
 5764 0775 580F0000 		.4byte	.LASF111
 5765 0779 0C       		.byte	0xc
 5766 077a 68       		.byte	0x68
 5767 077b 7F070000 		.4byte	0x77f
 5768 077f 0D       		.uleb128 0xd
 5769 0780 04       		.byte	0x4
 5770 0781 85070000 		.4byte	0x785
 5771 0785 16       		.uleb128 0x16
 5772 0786 95070000 		.4byte	0x795
 5773 078a 0C       		.uleb128 0xc
 5774 078b 0F070000 		.4byte	0x70f
 5775 078f 0C       		.uleb128 0xc
 5776 0790 69070000 		.4byte	0x769
 5777 0794 00       		.byte	0
 5778 0795 13       		.uleb128 0x13
 5779 0796 01       		.byte	0x1
 5780 0797 42000000 		.4byte	0x42
 5781 079b 0C       		.byte	0xc
 5782 079c 6D       		.byte	0x6d
 5783 079d 1A080000 		.4byte	0x81a
 5784 07a1 14       		.uleb128 0x14
 5785 07a2 CA080000 		.4byte	.LASF112
 5786 07a6 00       		.byte	0
 5787 07a7 14       		.uleb128 0x14
 5788 07a8 0A090000 		.4byte	.LASF113
ARM GAS  C:\Users\pearlstl\AppData\Local\Temp\ccIJtgHD.s 			page 133


 5789 07ac 01       		.byte	0x1
 5790 07ad 14       		.uleb128 0x14
 5791 07ae 790D0000 		.4byte	.LASF114
 5792 07b2 02       		.byte	0x2
 5793 07b3 14       		.uleb128 0x14
 5794 07b4 710A0000 		.4byte	.LASF115
 5795 07b8 03       		.byte	0x3
 5796 07b9 14       		.uleb128 0x14
 5797 07ba 5C000000 		.4byte	.LASF116
 5798 07be 04       		.byte	0x4
 5799 07bf 14       		.uleb128 0x14
 5800 07c0 0A0E0000 		.4byte	.LASF117
 5801 07c4 05       		.byte	0x5
 5802 07c5 14       		.uleb128 0x14
 5803 07c6 53040000 		.4byte	.LASF118
 5804 07ca 06       		.byte	0x6
 5805 07cb 14       		.uleb128 0x14
 5806 07cc 8D060000 		.4byte	.LASF119
 5807 07d0 07       		.byte	0x7
 5808 07d1 14       		.uleb128 0x14
 5809 07d2 73010000 		.4byte	.LASF120
 5810 07d6 08       		.byte	0x8
 5811 07d7 14       		.uleb128 0x14
 5812 07d8 CF090000 		.4byte	.LASF121
 5813 07dc 09       		.byte	0x9
 5814 07dd 14       		.uleb128 0x14
 5815 07de 380A0000 		.4byte	.LASF122
 5816 07e2 0A       		.byte	0xa
 5817 07e3 14       		.uleb128 0x14
 5818 07e4 980A0000 		.4byte	.LASF123
 5819 07e8 0B       		.byte	0xb
 5820 07e9 14       		.uleb128 0x14
 5821 07ea BF000000 		.4byte	.LASF124
 5822 07ee 0C       		.byte	0xc
 5823 07ef 14       		.uleb128 0x14
 5824 07f0 C7030000 		.4byte	.LASF125
 5825 07f4 0D       		.byte	0xd
 5826 07f5 14       		.uleb128 0x14
 5827 07f6 05010000 		.4byte	.LASF126
 5828 07fa 0E       		.byte	0xe
 5829 07fb 14       		.uleb128 0x14
 5830 07fc 4D0A0000 		.4byte	.LASF127
 5831 0800 0F       		.byte	0xf
 5832 0801 14       		.uleb128 0x14
 5833 0802 FA060000 		.4byte	.LASF128
 5834 0806 10       		.byte	0x10
 5835 0807 14       		.uleb128 0x14
 5836 0808 C1050000 		.4byte	.LASF129
 5837 080c 11       		.byte	0x11
 5838 080d 14       		.uleb128 0x14
 5839 080e 5D080000 		.4byte	.LASF130
 5840 0812 12       		.byte	0x12
 5841 0813 14       		.uleb128 0x14
 5842 0814 90070000 		.4byte	.LASF131
 5843 0818 13       		.byte	0x13
 5844 0819 00       		.byte	0
 5845 081a 02       		.uleb128 0x2
ARM GAS  C:\Users\pearlstl\AppData\Local\Temp\ccIJtgHD.s 			page 134


 5846 081b D40A0000 		.4byte	.LASF132
 5847 081f 0C       		.byte	0xc
 5848 0820 88       		.byte	0x88
 5849 0821 AD000000 		.4byte	0xad
 5850 0825 02       		.uleb128 0x2
 5851 0826 C2040000 		.4byte	.LASF133
 5852 082a 0C       		.byte	0xc
 5853 082b 8A       		.byte	0x8a
 5854 082c 30080000 		.4byte	0x830
 5855 0830 0D       		.uleb128 0xd
 5856 0831 04       		.byte	0x4
 5857 0832 36080000 		.4byte	0x836
 5858 0836 0B       		.uleb128 0xb
 5859 0837 63050000 		.4byte	0x563
 5860 083b 4F080000 		.4byte	0x84f
 5861 083f 0C       		.uleb128 0xc
 5862 0840 0F070000 		.4byte	0x70f
 5863 0844 0C       		.uleb128 0xc
 5864 0845 1A080000 		.4byte	0x81a
 5865 0849 0C       		.uleb128 0xc
 5866 084a E4000000 		.4byte	0xe4
 5867 084e 00       		.byte	0
 5868 084f 02       		.uleb128 0x2
 5869 0850 FA000000 		.4byte	.LASF134
 5870 0854 0C       		.byte	0xc
 5871 0855 A4       		.byte	0xa4
 5872 0856 AD000000 		.4byte	0xad
 5873 085a 06       		.uleb128 0x6
 5874 085b 0C       		.byte	0xc
 5875 085c 0C       		.byte	0xc
 5876 085d A7       		.byte	0xa7
 5877 085e B1080000 		.4byte	0x8b1
 5878 0862 07       		.uleb128 0x7
 5879 0863 890C0000 		.4byte	.LASF135
 5880 0867 0C       		.byte	0xc
 5881 0868 A9       		.byte	0xa9
 5882 0869 B1080000 		.4byte	0x8b1
 5883 086d 00       		.byte	0
 5884 086e 07       		.uleb128 0x7
 5885 086f F50B0000 		.4byte	.LASF136
 5886 0873 0C       		.byte	0xc
 5887 0874 AA       		.byte	0xaa
 5888 0875 D9000000 		.4byte	0xd9
 5889 0879 04       		.byte	0x4
 5890 087a 07       		.uleb128 0x7
 5891 087b 23050000 		.4byte	.LASF137
 5892 087f 0C       		.byte	0xc
 5893 0880 AB       		.byte	0xab
 5894 0881 D9000000 		.4byte	0xd9
 5895 0885 06       		.byte	0x6
 5896 0886 07       		.uleb128 0x7
 5897 0887 DC080000 		.4byte	.LASF138
 5898 088b 0C       		.byte	0xc
 5899 088c AC       		.byte	0xac
 5900 088d 4F080000 		.4byte	0x84f
 5901 0891 08       		.byte	0x8
 5902 0892 0A       		.uleb128 0xa
ARM GAS  C:\Users\pearlstl\AppData\Local\Temp\ccIJtgHD.s 			page 135


 5903 0893 47090000 		.4byte	.LASF139
 5904 0897 0C       		.byte	0xc
 5905 0898 AD       		.byte	0xad
 5906 0899 AD000000 		.4byte	0xad
 5907 089d 01       		.byte	0x1
 5908 089e 01       		.byte	0x1
 5909 089f 07       		.byte	0x7
 5910 08a0 09       		.byte	0x9
 5911 08a1 0A       		.uleb128 0xa
 5912 08a2 6E0F0000 		.4byte	.LASF140
 5913 08a6 0C       		.byte	0xc
 5914 08a7 AE       		.byte	0xae
 5915 08a8 AD000000 		.4byte	0xad
 5916 08ac 01       		.byte	0x1
 5917 08ad 01       		.byte	0x1
 5918 08ae 06       		.byte	0x6
 5919 08af 09       		.byte	0x9
 5920 08b0 00       		.byte	0
 5921 08b1 0D       		.uleb128 0xd
 5922 08b2 04       		.byte	0x4
 5923 08b3 B7080000 		.4byte	0x8b7
 5924 08b7 0E       		.uleb128 0xe
 5925 08b8 CD050000 		.4byte	0x5cd
 5926 08bc 02       		.uleb128 0x2
 5927 08bd DB000000 		.4byte	.LASF141
 5928 08c1 0C       		.byte	0xc
 5929 08c2 B0       		.byte	0xb0
 5930 08c3 5A080000 		.4byte	0x85a
 5931 08c7 02       		.uleb128 0x2
 5932 08c8 F7090000 		.4byte	.LASF142
 5933 08cc 0C       		.byte	0xc
 5934 08cd B9       		.byte	0xb9
 5935 08ce AD000000 		.4byte	0xad
 5936 08d2 0D       		.uleb128 0xd
 5937 08d3 04       		.byte	0x4
 5938 08d4 D8080000 		.4byte	0x8d8
 5939 08d8 0E       		.uleb128 0xe
 5940 08d9 39050000 		.4byte	0x539
 5941 08dd 02       		.uleb128 0x2
 5942 08de 180C0000 		.4byte	.LASF143
 5943 08e2 0C       		.byte	0xc
 5944 08e3 F0       		.byte	0xf0
 5945 08e4 CD050000 		.4byte	0x5cd
 5946 08e8 13       		.uleb128 0x13
 5947 08e9 01       		.byte	0x1
 5948 08ea 42000000 		.4byte	0x42
 5949 08ee 0D       		.byte	0xd
 5950 08ef 2B       		.byte	0x2b
 5951 08f0 13090000 		.4byte	0x913
 5952 08f4 14       		.uleb128 0x14
 5953 08f5 8B050000 		.4byte	.LASF144
 5954 08f9 00       		.byte	0
 5955 08fa 14       		.uleb128 0x14
 5956 08fb 63030000 		.4byte	.LASF145
 5957 08ff 01       		.byte	0x1
 5958 0900 14       		.uleb128 0x14
 5959 0901 18070000 		.4byte	.LASF146
ARM GAS  C:\Users\pearlstl\AppData\Local\Temp\ccIJtgHD.s 			page 136


 5960 0905 02       		.byte	0x2
 5961 0906 14       		.uleb128 0x14
 5962 0907 62060000 		.4byte	.LASF147
 5963 090b 04       		.byte	0x4
 5964 090c 14       		.uleb128 0x14
 5965 090d F8020000 		.4byte	.LASF148
 5966 0911 08       		.byte	0x8
 5967 0912 00       		.byte	0
 5968 0913 02       		.uleb128 0x2
 5969 0914 1E090000 		.4byte	.LASF149
 5970 0918 0D       		.byte	0xd
 5971 0919 32       		.byte	0x32
 5972 091a AD000000 		.4byte	0xad
 5973 091e 13       		.uleb128 0x13
 5974 091f 01       		.byte	0x1
 5975 0920 42000000 		.4byte	0x42
 5976 0924 0E       		.byte	0xe
 5977 0925 3B       		.byte	0x3b
 5978 0926 43090000 		.4byte	0x943
 5979 092a 14       		.uleb128 0x14
 5980 092b C00E0000 		.4byte	.LASF150
 5981 092f 00       		.byte	0
 5982 0930 14       		.uleb128 0x14
 5983 0931 80020000 		.4byte	.LASF151
 5984 0935 01       		.byte	0x1
 5985 0936 14       		.uleb128 0x14
 5986 0937 2D040000 		.4byte	.LASF152
 5987 093b 02       		.byte	0x2
 5988 093c 14       		.uleb128 0x14
 5989 093d AB000000 		.4byte	.LASF153
 5990 0941 03       		.byte	0x3
 5991 0942 00       		.byte	0
 5992 0943 02       		.uleb128 0x2
 5993 0944 600A0000 		.4byte	.LASF154
 5994 0948 0E       		.byte	0xe
 5995 0949 41       		.byte	0x41
 5996 094a AD000000 		.4byte	0xad
 5997 094e 06       		.uleb128 0x6
 5998 094f 01       		.byte	0x1
 5999 0950 0F       		.byte	0xf
 6000 0951 33       		.byte	0x33
 6001 0952 93090000 		.4byte	0x993
 6002 0956 0A       		.uleb128 0xa
 6003 0957 DC080000 		.4byte	.LASF138
 6004 095b 0F       		.byte	0xf
 6005 095c 35       		.byte	0x35
 6006 095d AD000000 		.4byte	0xad
 6007 0961 01       		.byte	0x1
 6008 0962 02       		.byte	0x2
 6009 0963 06       		.byte	0x6
 6010 0964 00       		.byte	0
 6011 0965 0A       		.uleb128 0xa
 6012 0966 85000000 		.4byte	.LASF155
 6013 096a 0F       		.byte	0xf
 6014 096b 36       		.byte	0x36
 6015 096c AD000000 		.4byte	0xad
 6016 0970 01       		.byte	0x1
ARM GAS  C:\Users\pearlstl\AppData\Local\Temp\ccIJtgHD.s 			page 137


 6017 0971 01       		.byte	0x1
 6018 0972 05       		.byte	0x5
 6019 0973 00       		.byte	0
 6020 0974 0A       		.uleb128 0xa
 6021 0975 85010000 		.4byte	.LASF49
 6022 0979 0F       		.byte	0xf
 6023 097a 37       		.byte	0x37
 6024 097b AD000000 		.4byte	0xad
 6025 097f 01       		.byte	0x1
 6026 0980 02       		.byte	0x2
 6027 0981 03       		.byte	0x3
 6028 0982 00       		.byte	0
 6029 0983 0A       		.uleb128 0xa
 6030 0984 630B0000 		.4byte	.LASF156
 6031 0988 0F       		.byte	0xf
 6032 0989 38       		.byte	0x38
 6033 098a AD000000 		.4byte	0xad
 6034 098e 01       		.byte	0x1
 6035 098f 01       		.byte	0x1
 6036 0990 02       		.byte	0x2
 6037 0991 00       		.byte	0
 6038 0992 00       		.byte	0
 6039 0993 0F       		.uleb128 0xf
 6040 0994 01       		.byte	0x1
 6041 0995 0F       		.byte	0xf
 6042 0996 31       		.byte	0x31
 6043 0997 B0090000 		.4byte	0x9b0
 6044 099b 10       		.uleb128 0x10
 6045 099c 7300     		.ascii	"s\000"
 6046 099e 0F       		.byte	0xf
 6047 099f 39       		.byte	0x39
 6048 09a0 4E090000 		.4byte	0x94e
 6049 09a4 11       		.uleb128 0x11
 6050 09a5 E70E0000 		.4byte	.LASF157
 6051 09a9 0F       		.byte	0xf
 6052 09aa 3A       		.byte	0x3a
 6053 09ab AD000000 		.4byte	0xad
 6054 09af 00       		.byte	0
 6055 09b0 02       		.uleb128 0x2
 6056 09b1 B8090000 		.4byte	.LASF158
 6057 09b5 0F       		.byte	0xf
 6058 09b6 3B       		.byte	0x3b
 6059 09b7 93090000 		.4byte	0x993
 6060 09bb 06       		.uleb128 0x6
 6061 09bc 30       		.byte	0x30
 6062 09bd 0F       		.byte	0xf
 6063 09be 3E       		.byte	0x3e
 6064 09bf 000A0000 		.4byte	0xa00
 6065 09c3 07       		.uleb128 0x7
 6066 09c4 38030000 		.4byte	.LASF159
 6067 09c8 0F       		.byte	0xf
 6068 09c9 41       		.byte	0x41
 6069 09ca C3000000 		.4byte	0xc3
 6070 09ce 00       		.byte	0
 6071 09cf 07       		.uleb128 0x7
 6072 09d0 F5080000 		.4byte	.LASF160
 6073 09d4 0F       		.byte	0xf
ARM GAS  C:\Users\pearlstl\AppData\Local\Temp\ccIJtgHD.s 			page 138


 6074 09d5 42       		.byte	0x42
 6075 09d6 C3000000 		.4byte	0xc3
 6076 09da 02       		.byte	0x2
 6077 09db 07       		.uleb128 0x7
 6078 09dc 520B0000 		.4byte	.LASF161
 6079 09e0 0F       		.byte	0xf
 6080 09e1 43       		.byte	0x43
 6081 09e2 000A0000 		.4byte	0xa00
 6082 09e6 04       		.byte	0x4
 6083 09e7 07       		.uleb128 0x7
 6084 09e8 32010000 		.4byte	.LASF162
 6085 09ec 0F       		.byte	0xf
 6086 09ed 44       		.byte	0x44
 6087 09ee 060A0000 		.4byte	0xa06
 6088 09f2 08       		.byte	0x8
 6089 09f3 07       		.uleb128 0x7
 6090 09f4 82040000 		.4byte	.LASF163
 6091 09f8 0F       		.byte	0xf
 6092 09f9 45       		.byte	0x45
 6093 09fa 160A0000 		.4byte	0xa16
 6094 09fe 18       		.byte	0x18
 6095 09ff 00       		.byte	0
 6096 0a00 0D       		.uleb128 0xd
 6097 0a01 04       		.byte	0x4
 6098 0a02 8E020000 		.4byte	0x28e
 6099 0a06 17       		.uleb128 0x17
 6100 0a07 D2080000 		.4byte	0x8d2
 6101 0a0b 160A0000 		.4byte	0xa16
 6102 0a0f 18       		.uleb128 0x18
 6103 0a10 87020000 		.4byte	0x287
 6104 0a14 03       		.byte	0x3
 6105 0a15 00       		.byte	0
 6106 0a16 17       		.uleb128 0x17
 6107 0a17 D9000000 		.4byte	0xd9
 6108 0a1b 260A0000 		.4byte	0xa26
 6109 0a1f 18       		.uleb128 0x18
 6110 0a20 87020000 		.4byte	0x287
 6111 0a24 0B       		.byte	0xb
 6112 0a25 00       		.byte	0
 6113 0a26 02       		.uleb128 0x2
 6114 0a27 E70C0000 		.4byte	.LASF164
 6115 0a2b 0F       		.byte	0xf
 6116 0a2c 46       		.byte	0x46
 6117 0a2d BB090000 		.4byte	0x9bb
 6118 0a31 13       		.uleb128 0x13
 6119 0a32 01       		.byte	0x1
 6120 0a33 42000000 		.4byte	0x42
 6121 0a37 0F       		.byte	0xf
 6122 0a38 49       		.byte	0x49
 6123 0a39 5C0A0000 		.4byte	0xa5c
 6124 0a3d 14       		.uleb128 0x14
 6125 0a3e E3040000 		.4byte	.LASF165
 6126 0a42 00       		.byte	0
 6127 0a43 14       		.uleb128 0x14
 6128 0a44 F5040000 		.4byte	.LASF166
 6129 0a48 01       		.byte	0x1
 6130 0a49 14       		.uleb128 0x14
ARM GAS  C:\Users\pearlstl\AppData\Local\Temp\ccIJtgHD.s 			page 139


 6131 0a4a E0030000 		.4byte	.LASF167
 6132 0a4e 02       		.byte	0x2
 6133 0a4f 14       		.uleb128 0x14
 6134 0a50 F5030000 		.4byte	.LASF168
 6135 0a54 03       		.byte	0x3
 6136 0a55 14       		.uleb128 0x14
 6137 0a56 0A040000 		.4byte	.LASF169
 6138 0a5a 04       		.byte	0x4
 6139 0a5b 00       		.byte	0
 6140 0a5c 02       		.uleb128 0x2
 6141 0a5d 7F070000 		.4byte	.LASF170
 6142 0a61 0F       		.byte	0xf
 6143 0a62 50       		.byte	0x50
 6144 0a63 AD000000 		.4byte	0xad
 6145 0a67 06       		.uleb128 0x6
 6146 0a68 14       		.byte	0x14
 6147 0a69 10       		.byte	0x10
 6148 0a6a 34       		.byte	0x34
 6149 0a6b AB0A0000 		.4byte	0xaab
 6150 0a6f 08       		.uleb128 0x8
 6151 0a70 72656C00 		.ascii	"rel\000"
 6152 0a74 10       		.byte	0x10
 6153 0a75 36       		.byte	0x36
 6154 0a76 44050000 		.4byte	0x544
 6155 0a7a 00       		.byte	0
 6156 0a7b 08       		.uleb128 0x8
 6157 0a7c 707200   		.ascii	"pr\000"
 6158 0a7f 10       		.byte	0x10
 6159 0a80 37       		.byte	0x37
 6160 0a81 44050000 		.4byte	0x544
 6161 0a85 04       		.byte	0x4
 6162 0a86 07       		.uleb128 0x7
 6163 0a87 31090000 		.4byte	.LASF171
 6164 0a8b 10       		.byte	0x10
 6165 0a8c 38       		.byte	0x38
 6166 0a8d 44050000 		.4byte	0x544
 6167 0a91 08       		.byte	0x8
 6168 0a92 07       		.uleb128 0x7
 6169 0a93 A5030000 		.4byte	.LASF172
 6170 0a97 10       		.byte	0x10
 6171 0a98 39       		.byte	0x39
 6172 0a99 44050000 		.4byte	0x544
 6173 0a9d 0C       		.byte	0xc
 6174 0a9e 08       		.uleb128 0x8
 6175 0a9f 696E6100 		.ascii	"ina\000"
 6176 0aa3 10       		.byte	0x10
 6177 0aa4 3A       		.byte	0x3a
 6178 0aa5 44050000 		.4byte	0x544
 6179 0aa9 10       		.byte	0x10
 6180 0aaa 00       		.byte	0
 6181 0aab 06       		.uleb128 0x6
 6182 0aac 14       		.byte	0x14
 6183 0aad 10       		.byte	0x10
 6184 0aae 3F       		.byte	0x3f
 6185 0aaf EF0A0000 		.4byte	0xaef
 6186 0ab3 08       		.uleb128 0x8
 6187 0ab4 72656C00 		.ascii	"rel\000"
ARM GAS  C:\Users\pearlstl\AppData\Local\Temp\ccIJtgHD.s 			page 140


 6188 0ab8 10       		.byte	0x10
 6189 0ab9 41       		.byte	0x41
 6190 0aba 44050000 		.4byte	0x544
 6191 0abe 00       		.byte	0
 6192 0abf 08       		.uleb128 0x8
 6193 0ac0 707200   		.ascii	"pr\000"
 6194 0ac3 10       		.byte	0x10
 6195 0ac4 42       		.byte	0x42
 6196 0ac5 44050000 		.4byte	0x544
 6197 0ac9 04       		.byte	0x4
 6198 0aca 07       		.uleb128 0x7
 6199 0acb 31090000 		.4byte	.LASF171
 6200 0acf 10       		.byte	0x10
 6201 0ad0 43       		.byte	0x43
 6202 0ad1 44050000 		.4byte	0x544
 6203 0ad5 08       		.byte	0x8
 6204 0ad6 07       		.uleb128 0x7
 6205 0ad7 A5030000 		.4byte	.LASF172
 6206 0adb 10       		.byte	0x10
 6207 0adc 44       		.byte	0x44
 6208 0add 44050000 		.4byte	0x544
 6209 0ae1 0C       		.byte	0xc
 6210 0ae2 08       		.uleb128 0x8
 6211 0ae3 696E6100 		.ascii	"ina\000"
 6212 0ae7 10       		.byte	0x10
 6213 0ae8 45       		.byte	0x45
 6214 0ae9 44050000 		.4byte	0x544
 6215 0aed 10       		.byte	0x10
 6216 0aee 00       		.byte	0
 6217 0aef 06       		.uleb128 0x6
 6218 0af0 0C       		.byte	0xc
 6219 0af1 10       		.byte	0x10
 6220 0af2 4A       		.byte	0x4a
 6221 0af3 1C0B0000 		.4byte	0xb1c
 6222 0af7 07       		.uleb128 0x7
 6223 0af8 75020000 		.4byte	.LASF173
 6224 0afc 10       		.byte	0x10
 6225 0afd 4C       		.byte	0x4c
 6226 0afe 44050000 		.4byte	0x544
 6227 0b02 00       		.byte	0
 6228 0b03 08       		.uleb128 0x8
 6229 0b04 73656300 		.ascii	"sec\000"
 6230 0b08 10       		.byte	0x10
 6231 0b09 4D       		.byte	0x4d
 6232 0b0a 44050000 		.4byte	0x544
 6233 0b0e 04       		.byte	0x4
 6234 0b0f 07       		.uleb128 0x7
 6235 0b10 D6060000 		.4byte	.LASF174
 6236 0b14 10       		.byte	0x10
 6237 0b15 4E       		.byte	0x4e
 6238 0b16 44050000 		.4byte	0x544
 6239 0b1a 08       		.byte	0x8
 6240 0b1b 00       		.byte	0
 6241 0b1c 06       		.uleb128 0x6
 6242 0b1d 08       		.byte	0x8
 6243 0b1e 10       		.byte	0x10
 6244 0b1f 53       		.byte	0x53
ARM GAS  C:\Users\pearlstl\AppData\Local\Temp\ccIJtgHD.s 			page 141


 6245 0b20 3D0B0000 		.4byte	0xb3d
 6246 0b24 07       		.uleb128 0x7
 6247 0b25 B7010000 		.4byte	.LASF175
 6248 0b29 10       		.byte	0x10
 6249 0b2a 55       		.byte	0x55
 6250 0b2b 44050000 		.4byte	0x544
 6251 0b2f 00       		.byte	0
 6252 0b30 07       		.uleb128 0x7
 6253 0b31 A20E0000 		.4byte	.LASF176
 6254 0b35 10       		.byte	0x10
 6255 0b36 56       		.byte	0x56
 6256 0b37 44050000 		.4byte	0x544
 6257 0b3b 04       		.byte	0x4
 6258 0b3c 00       		.byte	0
 6259 0b3d 06       		.uleb128 0x6
 6260 0b3e 04       		.byte	0x4
 6261 0b3f 10       		.byte	0x10
 6262 0b40 5B       		.byte	0x5b
 6263 0b41 520B0000 		.4byte	0xb52
 6264 0b45 07       		.uleb128 0x7
 6265 0b46 680B0000 		.4byte	.LASF177
 6266 0b4a 10       		.byte	0x10
 6267 0b4b 5D       		.byte	0x5d
 6268 0b4c 44050000 		.4byte	0x544
 6269 0b50 00       		.byte	0
 6270 0b51 00       		.byte	0
 6271 0b52 06       		.uleb128 0x6
 6272 0b53 08       		.byte	0x8
 6273 0b54 10       		.byte	0x10
 6274 0b55 66       		.byte	0x66
 6275 0b56 720B0000 		.4byte	0xb72
 6276 0b5a 08       		.uleb128 0x8
 6277 0b5b 626700   		.ascii	"bg\000"
 6278 0b5e 10       		.byte	0x10
 6279 0b5f 68       		.byte	0x68
 6280 0b60 44050000 		.4byte	0x544
 6281 0b64 00       		.byte	0
 6282 0b65 07       		.uleb128 0x7
 6283 0b66 7F080000 		.4byte	.LASF178
 6284 0b6a 10       		.byte	0x10
 6285 0b6b 69       		.byte	0x69
 6286 0b6c 44050000 		.4byte	0x544
 6287 0b70 04       		.byte	0x4
 6288 0b71 00       		.byte	0
 6289 0b72 06       		.uleb128 0x6
 6290 0b73 0C       		.byte	0xc
 6291 0b74 10       		.byte	0x10
 6292 0b75 6E       		.byte	0x6e
 6293 0b76 9E0B0000 		.4byte	0xb9e
 6294 0b7a 08       		.uleb128 0x8
 6295 0b7b 626700   		.ascii	"bg\000"
 6296 0b7e 10       		.byte	0x10
 6297 0b7f 70       		.byte	0x70
 6298 0b80 44050000 		.4byte	0x544
 6299 0b84 00       		.byte	0
 6300 0b85 07       		.uleb128 0x7
 6301 0b86 7F080000 		.4byte	.LASF178
ARM GAS  C:\Users\pearlstl\AppData\Local\Temp\ccIJtgHD.s 			page 142


 6302 0b8a 10       		.byte	0x10
 6303 0b8b 71       		.byte	0x71
 6304 0b8c 44050000 		.4byte	0x544
 6305 0b90 04       		.byte	0x4
 6306 0b91 07       		.uleb128 0x7
 6307 0b92 7A0F0000 		.4byte	.LASF179
 6308 0b96 10       		.byte	0x10
 6309 0b97 72       		.byte	0x72
 6310 0b98 44050000 		.4byte	0x544
 6311 0b9c 08       		.byte	0x8
 6312 0b9d 00       		.byte	0
 6313 0b9e 06       		.uleb128 0x6
 6314 0b9f 10       		.byte	0x10
 6315 0ba0 10       		.byte	0x10
 6316 0ba1 87       		.byte	0x87
 6317 0ba2 D60B0000 		.4byte	0xbd6
 6318 0ba6 08       		.uleb128 0x8
 6319 0ba7 626700   		.ascii	"bg\000"
 6320 0baa 10       		.byte	0x10
 6321 0bab 89       		.byte	0x89
 6322 0bac 44050000 		.4byte	0x544
 6323 0bb0 00       		.byte	0
 6324 0bb1 07       		.uleb128 0x7
 6325 0bb2 7F080000 		.4byte	.LASF178
 6326 0bb6 10       		.byte	0x10
 6327 0bb7 8A       		.byte	0x8a
 6328 0bb8 44050000 		.4byte	0x544
 6329 0bbc 04       		.byte	0x4
 6330 0bbd 07       		.uleb128 0x7
 6331 0bbe A9090000 		.4byte	.LASF180
 6332 0bc2 10       		.byte	0x10
 6333 0bc3 8B       		.byte	0x8b
 6334 0bc4 44050000 		.4byte	0x544
 6335 0bc8 08       		.byte	0x8
 6336 0bc9 07       		.uleb128 0x7
 6337 0bca 88040000 		.4byte	.LASF181
 6338 0bce 10       		.byte	0x10
 6339 0bcf 8C       		.byte	0x8c
 6340 0bd0 44050000 		.4byte	0x544
 6341 0bd4 0C       		.byte	0xc
 6342 0bd5 00       		.byte	0
 6343 0bd6 06       		.uleb128 0x6
 6344 0bd7 20       		.byte	0x20
 6345 0bd8 10       		.byte	0x10
 6346 0bd9 95       		.byte	0x95
 6347 0bda 3E0C0000 		.4byte	0xc3e
 6348 0bde 08       		.uleb128 0x8
 6349 0bdf 626700   		.ascii	"bg\000"
 6350 0be2 10       		.byte	0x10
 6351 0be3 97       		.byte	0x97
 6352 0be4 44050000 		.4byte	0x544
 6353 0be8 00       		.byte	0
 6354 0be9 07       		.uleb128 0x7
 6355 0bea 9C040000 		.4byte	.LASF182
 6356 0bee 10       		.byte	0x10
 6357 0bef 98       		.byte	0x98
 6358 0bf0 44050000 		.4byte	0x544
ARM GAS  C:\Users\pearlstl\AppData\Local\Temp\ccIJtgHD.s 			page 143


 6359 0bf4 04       		.byte	0x4
 6360 0bf5 07       		.uleb128 0x7
 6361 0bf6 1A000000 		.4byte	.LASF183
 6362 0bfa 10       		.byte	0x10
 6363 0bfb 99       		.byte	0x99
 6364 0bfc 44050000 		.4byte	0x544
 6365 0c00 08       		.byte	0x8
 6366 0c01 07       		.uleb128 0x7
 6367 0c02 BF0D0000 		.4byte	.LASF184
 6368 0c06 10       		.byte	0x10
 6369 0c07 9A       		.byte	0x9a
 6370 0c08 44050000 		.4byte	0x544
 6371 0c0c 0C       		.byte	0xc
 6372 0c0d 07       		.uleb128 0x7
 6373 0c0e 21010000 		.4byte	.LASF185
 6374 0c12 10       		.byte	0x10
 6375 0c13 9B       		.byte	0x9b
 6376 0c14 44050000 		.4byte	0x544
 6377 0c18 10       		.byte	0x10
 6378 0c19 07       		.uleb128 0x7
 6379 0c1a 02060000 		.4byte	.LASF186
 6380 0c1e 10       		.byte	0x10
 6381 0c1f 9C       		.byte	0x9c
 6382 0c20 44050000 		.4byte	0x544
 6383 0c24 14       		.byte	0x14
 6384 0c25 07       		.uleb128 0x7
 6385 0c26 33050000 		.4byte	.LASF187
 6386 0c2a 10       		.byte	0x10
 6387 0c2b 9D       		.byte	0x9d
 6388 0c2c 44050000 		.4byte	0x544
 6389 0c30 18       		.byte	0x18
 6390 0c31 07       		.uleb128 0x7
 6391 0c32 9B030000 		.4byte	.LASF188
 6392 0c36 10       		.byte	0x10
 6393 0c37 9E       		.byte	0x9e
 6394 0c38 44050000 		.4byte	0x544
 6395 0c3c 1C       		.byte	0x1c
 6396 0c3d 00       		.byte	0
 6397 0c3e 06       		.uleb128 0x6
 6398 0c3f 14       		.byte	0x14
 6399 0c40 10       		.byte	0x10
 6400 0c41 A6       		.byte	0xa6
 6401 0c42 820C0000 		.4byte	0xc82
 6402 0c46 08       		.uleb128 0x8
 6403 0c47 72656C00 		.ascii	"rel\000"
 6404 0c4b 10       		.byte	0x10
 6405 0c4c A8       		.byte	0xa8
 6406 0c4d 44050000 		.4byte	0x544
 6407 0c51 00       		.byte	0
 6408 0c52 08       		.uleb128 0x8
 6409 0c53 707200   		.ascii	"pr\000"
 6410 0c56 10       		.byte	0x10
 6411 0c57 A9       		.byte	0xa9
 6412 0c58 44050000 		.4byte	0x544
 6413 0c5c 04       		.byte	0x4
 6414 0c5d 07       		.uleb128 0x7
 6415 0c5e 31090000 		.4byte	.LASF171
ARM GAS  C:\Users\pearlstl\AppData\Local\Temp\ccIJtgHD.s 			page 144


 6416 0c62 10       		.byte	0x10
 6417 0c63 AA       		.byte	0xaa
 6418 0c64 44050000 		.4byte	0x544
 6419 0c68 08       		.byte	0x8
 6420 0c69 07       		.uleb128 0x7
 6421 0c6a A5030000 		.4byte	.LASF172
 6422 0c6e 10       		.byte	0x10
 6423 0c6f AB       		.byte	0xab
 6424 0c70 44050000 		.4byte	0x544
 6425 0c74 0C       		.byte	0xc
 6426 0c75 08       		.uleb128 0x8
 6427 0c76 696E6100 		.ascii	"ina\000"
 6428 0c7a 10       		.byte	0x10
 6429 0c7b AC       		.byte	0xac
 6430 0c7c 44050000 		.4byte	0x544
 6431 0c80 10       		.byte	0x10
 6432 0c81 00       		.byte	0
 6433 0c82 06       		.uleb128 0x6
 6434 0c83 18       		.byte	0x18
 6435 0c84 10       		.byte	0x10
 6436 0c85 A3       		.byte	0xa3
 6437 0c86 A20C0000 		.4byte	0xca2
 6438 0c8a 08       		.uleb128 0x8
 6439 0c8b 626700   		.ascii	"bg\000"
 6440 0c8e 10       		.byte	0x10
 6441 0c8f A5       		.byte	0xa5
 6442 0c90 44050000 		.4byte	0x544
 6443 0c94 00       		.byte	0
 6444 0c95 08       		.uleb128 0x8
 6445 0c96 626F7800 		.ascii	"box\000"
 6446 0c9a 10       		.byte	0x10
 6447 0c9b AD       		.byte	0xad
 6448 0c9c 3E0C0000 		.4byte	0xc3e
 6449 0ca0 04       		.byte	0x4
 6450 0ca1 00       		.byte	0
 6451 0ca2 06       		.uleb128 0x6
 6452 0ca3 14       		.byte	0x14
 6453 0ca4 10       		.byte	0x10
 6454 0ca5 B5       		.byte	0xb5
 6455 0ca6 E60C0000 		.4byte	0xce6
 6456 0caa 08       		.uleb128 0x8
 6457 0cab 72656C00 		.ascii	"rel\000"
 6458 0caf 10       		.byte	0x10
 6459 0cb0 B7       		.byte	0xb7
 6460 0cb1 44050000 		.4byte	0x544
 6461 0cb5 00       		.byte	0
 6462 0cb6 08       		.uleb128 0x8
 6463 0cb7 707200   		.ascii	"pr\000"
 6464 0cba 10       		.byte	0x10
 6465 0cbb B8       		.byte	0xb8
 6466 0cbc 44050000 		.4byte	0x544
 6467 0cc0 04       		.byte	0x4
 6468 0cc1 07       		.uleb128 0x7
 6469 0cc2 31090000 		.4byte	.LASF171
 6470 0cc6 10       		.byte	0x10
 6471 0cc7 B9       		.byte	0xb9
 6472 0cc8 44050000 		.4byte	0x544
ARM GAS  C:\Users\pearlstl\AppData\Local\Temp\ccIJtgHD.s 			page 145


 6473 0ccc 08       		.byte	0x8
 6474 0ccd 07       		.uleb128 0x7
 6475 0cce A5030000 		.4byte	.LASF172
 6476 0cd2 10       		.byte	0x10
 6477 0cd3 BA       		.byte	0xba
 6478 0cd4 44050000 		.4byte	0x544
 6479 0cd8 0C       		.byte	0xc
 6480 0cd9 08       		.uleb128 0x8
 6481 0cda 696E6100 		.ascii	"ina\000"
 6482 0cde 10       		.byte	0x10
 6483 0cdf BB       		.byte	0xbb
 6484 0ce0 44050000 		.4byte	0x544
 6485 0ce4 10       		.byte	0x10
 6486 0ce5 00       		.byte	0
 6487 0ce6 06       		.uleb128 0x6
 6488 0ce7 18       		.byte	0x18
 6489 0ce8 10       		.byte	0x10
 6490 0ce9 B2       		.byte	0xb2
 6491 0cea 060D0000 		.4byte	0xd06
 6492 0cee 08       		.uleb128 0x8
 6493 0cef 626700   		.ascii	"bg\000"
 6494 0cf2 10       		.byte	0x10
 6495 0cf3 B4       		.byte	0xb4
 6496 0cf4 44050000 		.4byte	0x544
 6497 0cf8 00       		.byte	0
 6498 0cf9 08       		.uleb128 0x8
 6499 0cfa 62746E00 		.ascii	"btn\000"
 6500 0cfe 10       		.byte	0x10
 6501 0cff BC       		.byte	0xbc
 6502 0d00 A20C0000 		.4byte	0xca2
 6503 0d04 04       		.byte	0x4
 6504 0d05 00       		.byte	0
 6505 0d06 06       		.uleb128 0x6
 6506 0d07 14       		.byte	0x14
 6507 0d08 10       		.byte	0x10
 6508 0d09 C4       		.byte	0xc4
 6509 0d0a 4A0D0000 		.4byte	0xd4a
 6510 0d0e 08       		.uleb128 0x8
 6511 0d0f 72656C00 		.ascii	"rel\000"
 6512 0d13 10       		.byte	0x10
 6513 0d14 C6       		.byte	0xc6
 6514 0d15 44050000 		.4byte	0x544
 6515 0d19 00       		.byte	0
 6516 0d1a 08       		.uleb128 0x8
 6517 0d1b 707200   		.ascii	"pr\000"
 6518 0d1e 10       		.byte	0x10
 6519 0d1f C7       		.byte	0xc7
 6520 0d20 44050000 		.4byte	0x544
 6521 0d24 04       		.byte	0x4
 6522 0d25 07       		.uleb128 0x7
 6523 0d26 31090000 		.4byte	.LASF171
 6524 0d2a 10       		.byte	0x10
 6525 0d2b C8       		.byte	0xc8
 6526 0d2c 44050000 		.4byte	0x544
 6527 0d30 08       		.byte	0x8
 6528 0d31 07       		.uleb128 0x7
 6529 0d32 A5030000 		.4byte	.LASF172
ARM GAS  C:\Users\pearlstl\AppData\Local\Temp\ccIJtgHD.s 			page 146


 6530 0d36 10       		.byte	0x10
 6531 0d37 C9       		.byte	0xc9
 6532 0d38 44050000 		.4byte	0x544
 6533 0d3c 0C       		.byte	0xc
 6534 0d3d 08       		.uleb128 0x8
 6535 0d3e 696E6100 		.ascii	"ina\000"
 6536 0d42 10       		.byte	0x10
 6537 0d43 CA       		.byte	0xca
 6538 0d44 44050000 		.4byte	0x544
 6539 0d48 10       		.byte	0x10
 6540 0d49 00       		.byte	0
 6541 0d4a 06       		.uleb128 0x6
 6542 0d4b 18       		.byte	0x18
 6543 0d4c 10       		.byte	0x10
 6544 0d4d C1       		.byte	0xc1
 6545 0d4e 6A0D0000 		.4byte	0xd6a
 6546 0d52 08       		.uleb128 0x8
 6547 0d53 626700   		.ascii	"bg\000"
 6548 0d56 10       		.byte	0x10
 6549 0d57 C3       		.byte	0xc3
 6550 0d58 44050000 		.4byte	0x544
 6551 0d5c 00       		.byte	0
 6552 0d5d 08       		.uleb128 0x8
 6553 0d5e 62746E00 		.ascii	"btn\000"
 6554 0d62 10       		.byte	0x10
 6555 0d63 CB       		.byte	0xcb
 6556 0d64 060D0000 		.4byte	0xd06
 6557 0d68 04       		.byte	0x4
 6558 0d69 00       		.byte	0
 6559 0d6a 06       		.uleb128 0x6
 6560 0d6b 0C       		.byte	0xc
 6561 0d6c 10       		.byte	0x10
 6562 0d6d D3       		.byte	0xd3
 6563 0d6e 950D0000 		.4byte	0xd95
 6564 0d72 08       		.uleb128 0x8
 6565 0d73 626700   		.ascii	"bg\000"
 6566 0d76 10       		.byte	0x10
 6567 0d77 D5       		.byte	0xd5
 6568 0d78 44050000 		.4byte	0x544
 6569 0d7c 00       		.byte	0
 6570 0d7d 08       		.uleb128 0x8
 6571 0d7e 72656C00 		.ascii	"rel\000"
 6572 0d82 10       		.byte	0x10
 6573 0d83 D6       		.byte	0xd6
 6574 0d84 44050000 		.4byte	0x544
 6575 0d88 04       		.byte	0x4
 6576 0d89 08       		.uleb128 0x8
 6577 0d8a 707200   		.ascii	"pr\000"
 6578 0d8d 10       		.byte	0x10
 6579 0d8e D7       		.byte	0xd7
 6580 0d8f 44050000 		.4byte	0x544
 6581 0d93 08       		.byte	0x8
 6582 0d94 00       		.byte	0
 6583 0d95 06       		.uleb128 0x6
 6584 0d96 10       		.byte	0x10
 6585 0d97 10       		.byte	0x10
 6586 0d98 D0       		.byte	0xd0
ARM GAS  C:\Users\pearlstl\AppData\Local\Temp\ccIJtgHD.s 			page 147


 6587 0d99 B50D0000 		.4byte	0xdb5
 6588 0d9d 08       		.uleb128 0x8
 6589 0d9e 626700   		.ascii	"bg\000"
 6590 0da1 10       		.byte	0x10
 6591 0da2 D2       		.byte	0xd2
 6592 0da3 44050000 		.4byte	0x544
 6593 0da7 00       		.byte	0
 6594 0da8 08       		.uleb128 0x8
 6595 0da9 62746E00 		.ascii	"btn\000"
 6596 0dad 10       		.byte	0x10
 6597 0dae D8       		.byte	0xd8
 6598 0daf 6A0D0000 		.4byte	0xd6a
 6599 0db3 04       		.byte	0x4
 6600 0db4 00       		.byte	0
 6601 0db5 06       		.uleb128 0x6
 6602 0db6 0C       		.byte	0xc
 6603 0db7 10       		.byte	0x10
 6604 0db8 DD       		.byte	0xdd
 6605 0db9 E00D0000 		.4byte	0xde0
 6606 0dbd 08       		.uleb128 0x8
 6607 0dbe 626700   		.ascii	"bg\000"
 6608 0dc1 10       		.byte	0x10
 6609 0dc2 DF       		.byte	0xdf
 6610 0dc3 44050000 		.4byte	0x544
 6611 0dc7 00       		.byte	0
 6612 0dc8 07       		.uleb128 0x7
 6613 0dc9 BD030000 		.4byte	.LASF189
 6614 0dcd 10       		.byte	0x10
 6615 0dce E0       		.byte	0xe0
 6616 0dcf 44050000 		.4byte	0x544
 6617 0dd3 04       		.byte	0x4
 6618 0dd4 08       		.uleb128 0x8
 6619 0dd5 736200   		.ascii	"sb\000"
 6620 0dd8 10       		.byte	0x10
 6621 0dd9 E1       		.byte	0xe1
 6622 0dda 44050000 		.4byte	0x544
 6623 0dde 08       		.byte	0x8
 6624 0ddf 00       		.byte	0
 6625 0de0 06       		.uleb128 0x6
 6626 0de1 10       		.byte	0x10
 6627 0de2 10       		.byte	0x10
 6628 0de3 E6       		.byte	0xe6
 6629 0de4 180E0000 		.4byte	0xe18
 6630 0de8 07       		.uleb128 0x7
 6631 0de9 A0060000 		.4byte	.LASF190
 6632 0ded 10       		.byte	0x10
 6633 0dee E8       		.byte	0xe8
 6634 0def 44050000 		.4byte	0x544
 6635 0df3 00       		.byte	0
 6636 0df4 07       		.uleb128 0x7
 6637 0df5 CF070000 		.4byte	.LASF191
 6638 0df9 10       		.byte	0x10
 6639 0dfa E9       		.byte	0xe9
 6640 0dfb 44050000 		.4byte	0x544
 6641 0dff 04       		.byte	0x4
 6642 0e00 07       		.uleb128 0x7
 6643 0e01 A50F0000 		.4byte	.LASF192
ARM GAS  C:\Users\pearlstl\AppData\Local\Temp\ccIJtgHD.s 			page 148


 6644 0e05 10       		.byte	0x10
 6645 0e06 EA       		.byte	0xea
 6646 0e07 44050000 		.4byte	0x544
 6647 0e0b 08       		.byte	0x8
 6648 0e0c 08       		.uleb128 0x8
 6649 0e0d 736200   		.ascii	"sb\000"
 6650 0e10 10       		.byte	0x10
 6651 0e11 EB       		.byte	0xeb
 6652 0e12 44050000 		.4byte	0x544
 6653 0e16 0C       		.byte	0xc
 6654 0e17 00       		.byte	0
 6655 0e18 06       		.uleb128 0x6
 6656 0e19 0C       		.byte	0xc
 6657 0e1a 10       		.byte	0x10
 6658 0e1b F0       		.byte	0xf0
 6659 0e1c 430E0000 		.4byte	0xe43
 6660 0e20 08       		.uleb128 0x8
 6661 0e21 626700   		.ascii	"bg\000"
 6662 0e24 10       		.byte	0x10
 6663 0e25 F2       		.byte	0xf2
 6664 0e26 44050000 		.4byte	0x544
 6665 0e2a 00       		.byte	0
 6666 0e2b 07       		.uleb128 0x7
 6667 0e2c A50F0000 		.4byte	.LASF192
 6668 0e30 10       		.byte	0x10
 6669 0e31 F3       		.byte	0xf3
 6670 0e32 44050000 		.4byte	0x544
 6671 0e36 04       		.byte	0x4
 6672 0e37 08       		.uleb128 0x8
 6673 0e38 736200   		.ascii	"sb\000"
 6674 0e3b 10       		.byte	0x10
 6675 0e3c F4       		.byte	0xf4
 6676 0e3d 44050000 		.4byte	0x544
 6677 0e41 08       		.byte	0x8
 6678 0e42 00       		.byte	0
 6679 0e43 06       		.uleb128 0x6
 6680 0e44 14       		.byte	0x14
 6681 0e45 10       		.byte	0x10
 6682 0e46 FE       		.byte	0xfe
 6683 0e47 8C0E0000 		.4byte	0xe8c
 6684 0e4b 19       		.uleb128 0x19
 6685 0e4c 72656C00 		.ascii	"rel\000"
 6686 0e50 10       		.byte	0x10
 6687 0e51 0001     		.2byte	0x100
 6688 0e53 44050000 		.4byte	0x544
 6689 0e57 00       		.byte	0
 6690 0e58 19       		.uleb128 0x19
 6691 0e59 707200   		.ascii	"pr\000"
 6692 0e5c 10       		.byte	0x10
 6693 0e5d 0101     		.2byte	0x101
 6694 0e5f 44050000 		.4byte	0x544
 6695 0e63 04       		.byte	0x4
 6696 0e64 1A       		.uleb128 0x1a
 6697 0e65 31090000 		.4byte	.LASF171
 6698 0e69 10       		.byte	0x10
 6699 0e6a 0201     		.2byte	0x102
 6700 0e6c 44050000 		.4byte	0x544
ARM GAS  C:\Users\pearlstl\AppData\Local\Temp\ccIJtgHD.s 			page 149


 6701 0e70 08       		.byte	0x8
 6702 0e71 1A       		.uleb128 0x1a
 6703 0e72 A5030000 		.4byte	.LASF172
 6704 0e76 10       		.byte	0x10
 6705 0e77 0301     		.2byte	0x103
 6706 0e79 44050000 		.4byte	0x544
 6707 0e7d 0C       		.byte	0xc
 6708 0e7e 19       		.uleb128 0x19
 6709 0e7f 696E6100 		.ascii	"ina\000"
 6710 0e83 10       		.byte	0x10
 6711 0e84 0401     		.2byte	0x104
 6712 0e86 44050000 		.4byte	0x544
 6713 0e8a 10       		.byte	0x10
 6714 0e8b 00       		.byte	0
 6715 0e8c 06       		.uleb128 0x6
 6716 0e8d 20       		.byte	0x20
 6717 0e8e 10       		.byte	0x10
 6718 0e8f F9       		.byte	0xf9
 6719 0e90 C40E0000 		.4byte	0xec4
 6720 0e94 08       		.uleb128 0x8
 6721 0e95 626700   		.ascii	"bg\000"
 6722 0e98 10       		.byte	0x10
 6723 0e99 FB       		.byte	0xfb
 6724 0e9a 44050000 		.4byte	0x544
 6725 0e9e 00       		.byte	0
 6726 0e9f 07       		.uleb128 0x7
 6727 0ea0 BD030000 		.4byte	.LASF189
 6728 0ea4 10       		.byte	0x10
 6729 0ea5 FC       		.byte	0xfc
 6730 0ea6 44050000 		.4byte	0x544
 6731 0eaa 04       		.byte	0x4
 6732 0eab 08       		.uleb128 0x8
 6733 0eac 736200   		.ascii	"sb\000"
 6734 0eaf 10       		.byte	0x10
 6735 0eb0 FD       		.byte	0xfd
 6736 0eb1 44050000 		.4byte	0x544
 6737 0eb5 08       		.byte	0x8
 6738 0eb6 19       		.uleb128 0x19
 6739 0eb7 62746E00 		.ascii	"btn\000"
 6740 0ebb 10       		.byte	0x10
 6741 0ebc 0501     		.2byte	0x105
 6742 0ebe 430E0000 		.4byte	0xe43
 6743 0ec2 0C       		.byte	0xc
 6744 0ec3 00       		.byte	0
 6745 0ec4 1B       		.uleb128 0x1b
 6746 0ec5 0C       		.byte	0xc
 6747 0ec6 10       		.byte	0x10
 6748 0ec7 0A01     		.2byte	0x10a
 6749 0ec9 F30E0000 		.4byte	0xef3
 6750 0ecd 19       		.uleb128 0x19
 6751 0ece 626700   		.ascii	"bg\000"
 6752 0ed1 10       		.byte	0x10
 6753 0ed2 0C01     		.2byte	0x10c
 6754 0ed4 44050000 		.4byte	0x544
 6755 0ed8 00       		.byte	0
 6756 0ed9 19       		.uleb128 0x19
 6757 0eda 73656C00 		.ascii	"sel\000"
ARM GAS  C:\Users\pearlstl\AppData\Local\Temp\ccIJtgHD.s 			page 150


 6758 0ede 10       		.byte	0x10
 6759 0edf 0D01     		.2byte	0x10d
 6760 0ee1 44050000 		.4byte	0x544
 6761 0ee5 04       		.byte	0x4
 6762 0ee6 19       		.uleb128 0x19
 6763 0ee7 736200   		.ascii	"sb\000"
 6764 0eea 10       		.byte	0x10
 6765 0eeb 0E01     		.2byte	0x10e
 6766 0eed 44050000 		.4byte	0x544
 6767 0ef1 08       		.byte	0x8
 6768 0ef2 00       		.byte	0
 6769 0ef3 1B       		.uleb128 0x1b
 6770 0ef4 08       		.byte	0x8
 6771 0ef5 10       		.byte	0x10
 6772 0ef6 1301     		.2byte	0x113
 6773 0ef8 160F0000 		.4byte	0xf16
 6774 0efc 19       		.uleb128 0x19
 6775 0efd 626700   		.ascii	"bg\000"
 6776 0f00 10       		.byte	0x10
 6777 0f01 1501     		.2byte	0x115
 6778 0f03 44050000 		.4byte	0x544
 6779 0f07 00       		.byte	0
 6780 0f08 19       		.uleb128 0x19
 6781 0f09 73656C00 		.ascii	"sel\000"
 6782 0f0d 10       		.byte	0x10
 6783 0f0e 1601     		.2byte	0x116
 6784 0f10 44050000 		.4byte	0x544
 6785 0f14 04       		.byte	0x4
 6786 0f15 00       		.byte	0
 6787 0f16 1B       		.uleb128 0x1b
 6788 0f17 14       		.byte	0x14
 6789 0f18 10       		.byte	0x10
 6790 0f19 1F01     		.2byte	0x11f
 6791 0f1b 5F0F0000 		.4byte	0xf5f
 6792 0f1f 19       		.uleb128 0x19
 6793 0f20 626700   		.ascii	"bg\000"
 6794 0f23 10       		.byte	0x10
 6795 0f24 2101     		.2byte	0x121
 6796 0f26 44050000 		.4byte	0x544
 6797 0f2a 00       		.byte	0
 6798 0f2b 19       		.uleb128 0x19
 6799 0f2c 72656C00 		.ascii	"rel\000"
 6800 0f30 10       		.byte	0x10
 6801 0f31 2201     		.2byte	0x122
 6802 0f33 44050000 		.4byte	0x544
 6803 0f37 04       		.byte	0x4
 6804 0f38 19       		.uleb128 0x19
 6805 0f39 707200   		.ascii	"pr\000"
 6806 0f3c 10       		.byte	0x10
 6807 0f3d 2301     		.2byte	0x123
 6808 0f3f 44050000 		.4byte	0x544
 6809 0f43 08       		.byte	0x8
 6810 0f44 1A       		.uleb128 0x1a
 6811 0f45 31090000 		.4byte	.LASF171
 6812 0f49 10       		.byte	0x10
 6813 0f4a 2401     		.2byte	0x124
 6814 0f4c 44050000 		.4byte	0x544
ARM GAS  C:\Users\pearlstl\AppData\Local\Temp\ccIJtgHD.s 			page 151


 6815 0f50 0C       		.byte	0xc
 6816 0f51 1A       		.uleb128 0x1a
 6817 0f52 A5030000 		.4byte	.LASF172
 6818 0f56 10       		.byte	0x10
 6819 0f57 2501     		.2byte	0x125
 6820 0f59 44050000 		.4byte	0x544
 6821 0f5d 10       		.byte	0x10
 6822 0f5e 00       		.byte	0
 6823 0f5f 1B       		.uleb128 0x1b
 6824 0f60 1C       		.byte	0x1c
 6825 0f61 10       		.byte	0x10
 6826 0f62 1B01     		.2byte	0x11b
 6827 0f64 8F0F0000 		.4byte	0xf8f
 6828 0f68 19       		.uleb128 0x19
 6829 0f69 626700   		.ascii	"bg\000"
 6830 0f6c 10       		.byte	0x10
 6831 0f6d 1D01     		.2byte	0x11d
 6832 0f6f 44050000 		.4byte	0x544
 6833 0f73 00       		.byte	0
 6834 0f74 1A       		.uleb128 0x1a
 6835 0f75 7F080000 		.4byte	.LASF178
 6836 0f79 10       		.byte	0x10
 6837 0f7a 1E01     		.2byte	0x11e
 6838 0f7c 44050000 		.4byte	0x544
 6839 0f80 04       		.byte	0x4
 6840 0f81 19       		.uleb128 0x19
 6841 0f82 62746E00 		.ascii	"btn\000"
 6842 0f86 10       		.byte	0x10
 6843 0f87 2601     		.2byte	0x126
 6844 0f89 160F0000 		.4byte	0xf16
 6845 0f8d 08       		.byte	0x8
 6846 0f8e 00       		.byte	0
 6847 0f8f 1B       		.uleb128 0x1b
 6848 0f90 0C       		.byte	0xc
 6849 0f91 10       		.byte	0x10
 6850 0f92 2B01     		.2byte	0x12b
 6851 0f94 BE0F0000 		.4byte	0xfbe
 6852 0f98 19       		.uleb128 0x19
 6853 0f99 626700   		.ascii	"bg\000"
 6854 0f9c 10       		.byte	0x10
 6855 0f9d 2D01     		.2byte	0x12d
 6856 0f9f 44050000 		.4byte	0x544
 6857 0fa3 00       		.byte	0
 6858 0fa4 1A       		.uleb128 0x1a
 6859 0fa5 BD030000 		.4byte	.LASF189
 6860 0fa9 10       		.byte	0x10
 6861 0faa 2E01     		.2byte	0x12e
 6862 0fac 44050000 		.4byte	0x544
 6863 0fb0 04       		.byte	0x4
 6864 0fb1 19       		.uleb128 0x19
 6865 0fb2 736200   		.ascii	"sb\000"
 6866 0fb5 10       		.byte	0x10
 6867 0fb6 2F01     		.2byte	0x12f
 6868 0fb8 44050000 		.4byte	0x544
 6869 0fbc 08       		.byte	0x8
 6870 0fbd 00       		.byte	0
 6871 0fbe 1B       		.uleb128 0x1b
ARM GAS  C:\Users\pearlstl\AppData\Local\Temp\ccIJtgHD.s 			page 152


 6872 0fbf 08       		.byte	0x8
 6873 0fc0 10       		.byte	0x10
 6874 0fc1 3401     		.2byte	0x134
 6875 0fc3 E10F0000 		.4byte	0xfe1
 6876 0fc7 19       		.uleb128 0x19
 6877 0fc8 626700   		.ascii	"bg\000"
 6878 0fcb 10       		.byte	0x10
 6879 0fcc 3601     		.2byte	0x136
 6880 0fce 44050000 		.4byte	0x544
 6881 0fd2 00       		.byte	0
 6882 0fd3 1A       		.uleb128 0x1a
 6883 0fd4 3A000000 		.4byte	.LASF193
 6884 0fd8 10       		.byte	0x10
 6885 0fd9 3701     		.2byte	0x137
 6886 0fdb 44050000 		.4byte	0x544
 6887 0fdf 04       		.byte	0x4
 6888 0fe0 00       		.byte	0
 6889 0fe1 1B       		.uleb128 0x1b
 6890 0fe2 08       		.byte	0x8
 6891 0fe3 10       		.byte	0x10
 6892 0fe4 4201     		.2byte	0x142
 6893 0fe6 04100000 		.4byte	0x1004
 6894 0fea 19       		.uleb128 0x19
 6895 0feb 72656C00 		.ascii	"rel\000"
 6896 0fef 10       		.byte	0x10
 6897 0ff0 4401     		.2byte	0x144
 6898 0ff2 44050000 		.4byte	0x544
 6899 0ff6 00       		.byte	0
 6900 0ff7 19       		.uleb128 0x19
 6901 0ff8 707200   		.ascii	"pr\000"
 6902 0ffb 10       		.byte	0x10
 6903 0ffc 4501     		.2byte	0x145
 6904 0ffe 44050000 		.4byte	0x544
 6905 1002 04       		.byte	0x4
 6906 1003 00       		.byte	0
 6907 1004 1B       		.uleb128 0x1b
 6908 1005 18       		.byte	0x18
 6909 1006 10       		.byte	0x10
 6910 1007 3C01     		.2byte	0x13c
 6911 1009 4D100000 		.4byte	0x104d
 6912 100d 19       		.uleb128 0x19
 6913 100e 626700   		.ascii	"bg\000"
 6914 1011 10       		.byte	0x10
 6915 1012 3E01     		.2byte	0x13e
 6916 1014 44050000 		.4byte	0x544
 6917 1018 00       		.byte	0
 6918 1019 19       		.uleb128 0x19
 6919 101a 736200   		.ascii	"sb\000"
 6920 101d 10       		.byte	0x10
 6921 101e 3F01     		.2byte	0x13f
 6922 1020 44050000 		.4byte	0x544
 6923 1024 04       		.byte	0x4
 6924 1025 1A       		.uleb128 0x1a
 6925 1026 9C040000 		.4byte	.LASF182
 6926 102a 10       		.byte	0x10
 6927 102b 4001     		.2byte	0x140
 6928 102d 44050000 		.4byte	0x544
ARM GAS  C:\Users\pearlstl\AppData\Local\Temp\ccIJtgHD.s 			page 153


 6929 1031 08       		.byte	0x8
 6930 1032 1A       		.uleb128 0x1a
 6931 1033 3B0E0000 		.4byte	.LASF194
 6932 1037 10       		.byte	0x10
 6933 1038 4101     		.2byte	0x141
 6934 103a 44050000 		.4byte	0x544
 6935 103e 0C       		.byte	0xc
 6936 103f 19       		.uleb128 0x19
 6937 1040 62746E00 		.ascii	"btn\000"
 6938 1044 10       		.byte	0x10
 6939 1045 4601     		.2byte	0x146
 6940 1047 E10F0000 		.4byte	0xfe1
 6941 104b 10       		.byte	0x10
 6942 104c 00       		.byte	0
 6943 104d 1C       		.uleb128 0x1c
 6944 104e A801     		.2byte	0x1a8
 6945 1050 10       		.byte	0x10
 6946 1051 29       		.byte	0x29
 6947 1052 EF110000 		.4byte	0x11ef
 6948 1056 08       		.uleb128 0x8
 6949 1057 73637200 		.ascii	"scr\000"
 6950 105b 10       		.byte	0x10
 6951 105c 2B       		.byte	0x2b
 6952 105d 44050000 		.4byte	0x544
 6953 1061 00       		.byte	0
 6954 1062 08       		.uleb128 0x8
 6955 1063 626700   		.ascii	"bg\000"
 6956 1066 10       		.byte	0x10
 6957 1067 2C       		.byte	0x2c
 6958 1068 44050000 		.4byte	0x544
 6959 106c 04       		.byte	0x4
 6960 106d 07       		.uleb128 0x7
 6961 106e 7F0B0000 		.4byte	.LASF195
 6962 1072 10       		.byte	0x10
 6963 1073 2D       		.byte	0x2d
 6964 1074 44050000 		.4byte	0x544
 6965 1078 08       		.byte	0x8
 6966 1079 07       		.uleb128 0x7
 6967 107a BD010000 		.4byte	.LASF196
 6968 107e 10       		.byte	0x10
 6969 107f 30       		.byte	0x30
 6970 1080 44050000 		.4byte	0x544
 6971 1084 0C       		.byte	0xc
 6972 1085 08       		.uleb128 0x8
 6973 1086 62746E00 		.ascii	"btn\000"
 6974 108a 10       		.byte	0x10
 6975 108b 3B       		.byte	0x3b
 6976 108c 670A0000 		.4byte	0xa67
 6977 1090 10       		.byte	0x10
 6978 1091 07       		.uleb128 0x7
 6979 1092 6E0B0000 		.4byte	.LASF197
 6980 1096 10       		.byte	0x10
 6981 1097 46       		.byte	0x46
 6982 1098 AB0A0000 		.4byte	0xaab
 6983 109c 24       		.byte	0x24
 6984 109d 07       		.uleb128 0x7
 6985 109e 2C0F0000 		.4byte	.LASF198
ARM GAS  C:\Users\pearlstl\AppData\Local\Temp\ccIJtgHD.s 			page 154


 6986 10a2 10       		.byte	0x10
 6987 10a3 4F       		.byte	0x4f
 6988 10a4 EF0A0000 		.4byte	0xaef
 6989 10a8 38       		.byte	0x38
 6990 10a9 08       		.uleb128 0x8
 6991 10aa 696D6700 		.ascii	"img\000"
 6992 10ae 10       		.byte	0x10
 6993 10af 57       		.byte	0x57
 6994 10b0 1C0B0000 		.4byte	0xb1c
 6995 10b4 44       		.byte	0x44
 6996 10b5 07       		.uleb128 0x7
 6997 10b6 E1060000 		.4byte	.LASF71
 6998 10ba 10       		.byte	0x10
 6999 10bb 5E       		.byte	0x5e
 7000 10bc 3D0B0000 		.4byte	0xb3d
 7001 10c0 4C       		.byte	0x4c
 7002 10c1 08       		.uleb128 0x8
 7003 10c2 6C656400 		.ascii	"led\000"
 7004 10c6 10       		.byte	0x10
 7005 10c7 62       		.byte	0x62
 7006 10c8 44050000 		.4byte	0x544
 7007 10cc 50       		.byte	0x50
 7008 10cd 08       		.uleb128 0x8
 7009 10ce 62617200 		.ascii	"bar\000"
 7010 10d2 10       		.byte	0x10
 7011 10d3 6A       		.byte	0x6a
 7012 10d4 520B0000 		.4byte	0xb52
 7013 10d8 54       		.byte	0x54
 7014 10d9 07       		.uleb128 0x7
 7015 10da 400F0000 		.4byte	.LASF199
 7016 10de 10       		.byte	0x10
 7017 10df 73       		.byte	0x73
 7018 10e0 720B0000 		.4byte	0xb72
 7019 10e4 5C       		.byte	0x5c
 7020 10e5 07       		.uleb128 0x7
 7021 10e6 A4000000 		.4byte	.LASF200
 7022 10ea 10       		.byte	0x10
 7023 10eb 77       		.byte	0x77
 7024 10ec 44050000 		.4byte	0x544
 7025 10f0 68       		.byte	0x68
 7026 10f1 07       		.uleb128 0x7
 7027 10f2 B2090000 		.4byte	.LASF201
 7028 10f6 10       		.byte	0x10
 7029 10f7 7B       		.byte	0x7b
 7030 10f8 44050000 		.4byte	0x544
 7031 10fc 6C       		.byte	0x6c
 7032 10fd 08       		.uleb128 0x8
 7033 10fe 61726300 		.ascii	"arc\000"
 7034 1102 10       		.byte	0x10
 7035 1103 7F       		.byte	0x7f
 7036 1104 44050000 		.4byte	0x544
 7037 1108 70       		.byte	0x70
 7038 1109 07       		.uleb128 0x7
 7039 110a 660F0000 		.4byte	.LASF202
 7040 110e 10       		.byte	0x10
 7041 110f 83       		.byte	0x83
 7042 1110 44050000 		.4byte	0x544
ARM GAS  C:\Users\pearlstl\AppData\Local\Temp\ccIJtgHD.s 			page 155


 7043 1114 74       		.byte	0x74
 7044 1115 08       		.uleb128 0x8
 7045 1116 737700   		.ascii	"sw\000"
 7046 1119 10       		.byte	0x10
 7047 111a 8D       		.byte	0x8d
 7048 111b 9E0B0000 		.4byte	0xb9e
 7049 111f 78       		.byte	0x78
 7050 1120 07       		.uleb128 0x7
 7051 1121 7A020000 		.4byte	.LASF203
 7052 1125 10       		.byte	0x10
 7053 1126 91       		.byte	0x91
 7054 1127 44050000 		.4byte	0x544
 7055 112b 88       		.byte	0x88
 7056 112c 07       		.uleb128 0x7
 7057 112d 530C0000 		.4byte	.LASF204
 7058 1131 10       		.byte	0x10
 7059 1132 9F       		.byte	0x9f
 7060 1133 D60B0000 		.4byte	0xbd6
 7061 1137 8C       		.byte	0x8c
 7062 1138 08       		.uleb128 0x8
 7063 1139 636200   		.ascii	"cb\000"
 7064 113c 10       		.byte	0x10
 7065 113d AE       		.byte	0xae
 7066 113e 820C0000 		.4byte	0xc82
 7067 1142 AC       		.byte	0xac
 7068 1143 07       		.uleb128 0x7
 7069 1144 5E030000 		.4byte	.LASF205
 7070 1148 10       		.byte	0x10
 7071 1149 BD       		.byte	0xbd
 7072 114a E60C0000 		.4byte	0xce6
 7073 114e C4       		.byte	0xc4
 7074 114f 08       		.uleb128 0x8
 7075 1150 6B6200   		.ascii	"kb\000"
 7076 1153 10       		.byte	0x10
 7077 1154 CC       		.byte	0xcc
 7078 1155 4A0D0000 		.4byte	0xd4a
 7079 1159 DC       		.byte	0xdc
 7080 115a 07       		.uleb128 0x7
 7081 115b 2C090000 		.4byte	.LASF206
 7082 115f 10       		.byte	0x10
 7083 1160 D9       		.byte	0xd9
 7084 1161 950D0000 		.4byte	0xd95
 7085 1165 F4       		.byte	0xf4
 7086 1166 1D       		.uleb128 0x1d
 7087 1167 A4090000 		.4byte	.LASF207
 7088 116b 10       		.byte	0x10
 7089 116c E2       		.byte	0xe2
 7090 116d B50D0000 		.4byte	0xdb5
 7091 1171 0401     		.2byte	0x104
 7092 1173 1E       		.uleb128 0x1e
 7093 1174 746100   		.ascii	"ta\000"
 7094 1177 10       		.byte	0x10
 7095 1178 EC       		.byte	0xec
 7096 1179 E00D0000 		.4byte	0xde0
 7097 117d 1001     		.2byte	0x110
 7098 117f 1D       		.uleb128 0x1d
 7099 1180 930D0000 		.4byte	.LASF208
ARM GAS  C:\Users\pearlstl\AppData\Local\Temp\ccIJtgHD.s 			page 156


 7100 1184 10       		.byte	0x10
 7101 1185 F5       		.byte	0xf5
 7102 1186 180E0000 		.4byte	0xe18
 7103 118a 2001     		.2byte	0x120
 7104 118c 1F       		.uleb128 0x1f
 7105 118d 8B090000 		.4byte	.LASF209
 7106 1191 10       		.byte	0x10
 7107 1192 0601     		.2byte	0x106
 7108 1194 8C0E0000 		.4byte	0xe8c
 7109 1198 2C01     		.2byte	0x12c
 7110 119a 1F       		.uleb128 0x1f
 7111 119b D3050000 		.4byte	.LASF210
 7112 119f 10       		.byte	0x10
 7113 11a0 0F01     		.2byte	0x10f
 7114 11a2 C40E0000 		.4byte	0xec4
 7115 11a6 4C01     		.2byte	0x14c
 7116 11a8 1F       		.uleb128 0x1f
 7117 11a9 04100000 		.4byte	.LASF211
 7118 11ad 10       		.byte	0x10
 7119 11ae 1701     		.2byte	0x117
 7120 11b0 F30E0000 		.4byte	0xef3
 7121 11b4 5801     		.2byte	0x158
 7122 11b6 1F       		.uleb128 0x1f
 7123 11b7 B5080000 		.4byte	.LASF212
 7124 11bb 10       		.byte	0x10
 7125 11bc 2701     		.2byte	0x127
 7126 11be 5F0F0000 		.4byte	0xf5f
 7127 11c2 6001     		.2byte	0x160
 7128 11c4 1F       		.uleb128 0x1f
 7129 11c5 EF020000 		.4byte	.LASF213
 7130 11c9 10       		.byte	0x10
 7131 11ca 3001     		.2byte	0x130
 7132 11cc 8F0F0000 		.4byte	0xf8f
 7133 11d0 7C01     		.2byte	0x17c
 7134 11d2 1F       		.uleb128 0x1f
 7135 11d3 D1040000 		.4byte	.LASF214
 7136 11d7 10       		.byte	0x10
 7137 11d8 3801     		.2byte	0x138
 7138 11da BE0F0000 		.4byte	0xfbe
 7139 11de 8801     		.2byte	0x188
 7140 11e0 20       		.uleb128 0x20
 7141 11e1 77696E00 		.ascii	"win\000"
 7142 11e5 10       		.byte	0x10
 7143 11e6 4701     		.2byte	0x147
 7144 11e8 04100000 		.4byte	0x1004
 7145 11ec 9001     		.2byte	0x190
 7146 11ee 00       		.byte	0
 7147 11ef 1C       		.uleb128 0x1c
 7148 11f0 A801     		.2byte	0x1a8
 7149 11f2 10       		.byte	0x10
 7150 11f3 27       		.byte	0x27
 7151 11f4 06120000 		.4byte	0x1206
 7152 11f8 1A       		.uleb128 0x1a
 7153 11f9 050A0000 		.4byte	.LASF215
 7154 11fd 10       		.byte	0x10
 7155 11fe 4901     		.2byte	0x149
 7156 1200 4D100000 		.4byte	0x104d
ARM GAS  C:\Users\pearlstl\AppData\Local\Temp\ccIJtgHD.s 			page 157


 7157 1204 00       		.byte	0
 7158 1205 00       		.byte	0
 7159 1206 12       		.uleb128 0x12
 7160 1207 7A060000 		.4byte	.LASF216
 7161 120b 10       		.byte	0x10
 7162 120c 5401     		.2byte	0x154
 7163 120e EF110000 		.4byte	0x11ef
 7164 1212 21       		.uleb128 0x21
 7165 1213 44000000 		.4byte	.LASF217
 7166 1217 05       		.byte	0x5
 7167 1218 7C       		.byte	0x7c
 7168 1219 AD000000 		.4byte	0xad
 7169 121d 03       		.byte	0x3
 7170 121e 2E120000 		.4byte	0x122e
 7171 1222 22       		.uleb128 0x22
 7172 1223 5C0B0000 		.4byte	.LASF219
 7173 1227 05       		.byte	0x5
 7174 1228 7C       		.byte	0x7c
 7175 1229 7D040000 		.4byte	0x47d
 7176 122d 00       		.byte	0
 7177 122e 21       		.uleb128 0x21
 7178 122f E50D0000 		.4byte	.LASF218
 7179 1233 07       		.byte	0x7
 7180 1234 56       		.byte	0x56
 7181 1235 D9000000 		.4byte	0xd9
 7182 1239 03       		.byte	0x3
 7183 123a 4A120000 		.4byte	0x124a
 7184 123e 22       		.uleb128 0x22
 7185 123f 0A030000 		.4byte	.LASF220
 7186 1243 07       		.byte	0x7
 7187 1244 56       		.byte	0x56
 7188 1245 C2050000 		.4byte	0x5c2
 7189 1249 00       		.byte	0
 7190 124a 23       		.uleb128 0x23
 7191 124b 83030000 		.4byte	.LASF221
 7192 124f 01       		.byte	0x1
 7193 1250 8102     		.2byte	0x281
 7194 1252 BF010000 		.4byte	0x1bf
 7195 1256 01       		.byte	0x1
 7196 1257 66130000 		.4byte	0x1366
 7197 125b 24       		.uleb128 0x24
 7198 125c D1040000 		.4byte	.LASF214
 7199 1260 01       		.byte	0x1
 7200 1261 8102     		.2byte	0x281
 7201 1263 66130000 		.4byte	0x1366
 7202 1267 24       		.uleb128 0x24
 7203 1268 B0080000 		.4byte	.LASF222
 7204 126c 01       		.byte	0x1
 7205 126d 8102     		.2byte	0x281
 7206 126f C2050000 		.4byte	0x5c2
 7207 1273 24       		.uleb128 0x24
 7208 1274 C30C0000 		.4byte	.LASF223
 7209 1278 01       		.byte	0x1
 7210 1279 8102     		.2byte	0x281
 7211 127b 34070000 		.4byte	0x734
 7212 127f 25       		.uleb128 0x25
 7213 1280 26       		.uleb128 0x26
ARM GAS  C:\Users\pearlstl\AppData\Local\Temp\ccIJtgHD.s 			page 158


 7214 1281 65787400 		.ascii	"ext\000"
 7215 1285 01       		.byte	0x1
 7216 1286 8B02     		.2byte	0x28b
 7217 1288 6C130000 		.4byte	0x136c
 7218 128c 27       		.uleb128 0x27
 7219 128d 9B090000 		.4byte	.LASF224
 7220 1291 01       		.byte	0x1
 7221 1292 8C02     		.2byte	0x28c
 7222 1294 D2080000 		.4byte	0x8d2
 7223 1298 27       		.uleb128 0x27
 7224 1299 96020000 		.4byte	.LASF225
 7225 129d 01       		.byte	0x1
 7226 129e 8D02     		.2byte	0x28d
 7227 12a0 D9000000 		.4byte	0xd9
 7228 12a4 27       		.uleb128 0x27
 7229 12a5 8F0E0000 		.4byte	.LASF226
 7230 12a9 01       		.byte	0x1
 7231 12aa 8E02     		.2byte	0x28e
 7232 12ac C3020000 		.4byte	0x2c3
 7233 12b0 27       		.uleb128 0x27
 7234 12b1 D8020000 		.4byte	.LASF227
 7235 12b5 01       		.byte	0x1
 7236 12b6 8F02     		.2byte	0x28f
 7237 12b8 03030000 		.4byte	0x303
 7238 12bc 27       		.uleb128 0x27
 7239 12bd FE0E0000 		.4byte	.LASF228
 7240 12c1 01       		.byte	0x1
 7241 12c2 9002     		.2byte	0x290
 7242 12c4 03030000 		.4byte	0x303
 7243 12c8 27       		.uleb128 0x27
 7244 12c9 F8050000 		.4byte	.LASF229
 7245 12cd 01       		.byte	0x1
 7246 12ce 9102     		.2byte	0x291
 7247 12d0 13090000 		.4byte	0x913
 7248 12d4 27       		.uleb128 0x27
 7249 12d5 FA0F0000 		.4byte	.LASF102
 7250 12d9 01       		.byte	0x1
 7251 12da 9202     		.2byte	0x292
 7252 12dc 7B020000 		.4byte	0x27b
 7253 12e0 26       		.uleb128 0x26
 7254 12e1 636F6C00 		.ascii	"col\000"
 7255 12e5 01       		.byte	0x1
 7256 12e6 9402     		.2byte	0x294
 7257 12e8 C3000000 		.4byte	0xc3
 7258 12ec 26       		.uleb128 0x26
 7259 12ed 726F7700 		.ascii	"row\000"
 7260 12f1 01       		.byte	0x1
 7261 12f2 9502     		.2byte	0x295
 7262 12f4 C3000000 		.4byte	0xc3
 7263 12f8 27       		.uleb128 0x27
 7264 12f9 3A000000 		.4byte	.LASF193
 7265 12fd 01       		.byte	0x1
 7266 12fe 9602     		.2byte	0x296
 7267 1300 C3000000 		.4byte	0xc3
 7268 1304 25       		.uleb128 0x25
 7269 1305 27       		.uleb128 0x27
 7270 1306 C8060000 		.4byte	.LASF230
ARM GAS  C:\Users\pearlstl\AppData\Local\Temp\ccIJtgHD.s 			page 159


 7271 130a 01       		.byte	0x1
 7272 130b A302     		.2byte	0x2a3
 7273 130d B0090000 		.4byte	0x9b0
 7274 1311 27       		.uleb128 0x27
 7275 1312 32010000 		.4byte	.LASF162
 7276 1316 01       		.byte	0x1
 7277 1317 AE02     		.2byte	0x2ae
 7278 1319 39050000 		.4byte	0x539
 7279 131d 27       		.uleb128 0x27
 7280 131e 5B070000 		.4byte	.LASF231
 7281 1322 01       		.byte	0x1
 7282 1323 B302     		.2byte	0x2b3
 7283 1325 C3000000 		.4byte	0xc3
 7284 1329 25       		.uleb128 0x25
 7285 132a 27       		.uleb128 0x27
 7286 132b 2B070000 		.4byte	.LASF232
 7287 132f 01       		.byte	0x1
 7288 1330 E102     		.2byte	0x2e1
 7289 1332 03030000 		.4byte	0x303
 7290 1336 27       		.uleb128 0x27
 7291 1337 39090000 		.4byte	.LASF233
 7292 133b 01       		.byte	0x1
 7293 133c E202     		.2byte	0x2e2
 7294 133e BF010000 		.4byte	0x1bf
 7295 1342 26       		.uleb128 0x26
 7296 1343 703100   		.ascii	"p1\000"
 7297 1346 01       		.byte	0x1
 7298 1347 E902     		.2byte	0x2e9
 7299 1349 C3020000 		.4byte	0x2c3
 7300 134d 26       		.uleb128 0x26
 7301 134e 703200   		.ascii	"p2\000"
 7302 1351 01       		.byte	0x1
 7303 1352 EA02     		.2byte	0x2ea
 7304 1354 C3020000 		.4byte	0x2c3
 7305 1358 26       		.uleb128 0x26
 7306 1359 6900     		.ascii	"i\000"
 7307 135b 01       		.byte	0x1
 7308 135c ED02     		.2byte	0x2ed
 7309 135e C3000000 		.4byte	0xc3
 7310 1362 00       		.byte	0
 7311 1363 00       		.byte	0
 7312 1364 00       		.byte	0
 7313 1365 00       		.byte	0
 7314 1366 0D       		.uleb128 0xd
 7315 1367 04       		.byte	0x4
 7316 1368 DD080000 		.4byte	0x8dd
 7317 136c 0D       		.uleb128 0xd
 7318 136d 04       		.byte	0x4
 7319 136e 260A0000 		.4byte	0xa26
 7320 1372 28       		.uleb128 0x28
 7321 1373 250B0000 		.4byte	.LASF237
 7322 1377 01       		.byte	0x1
 7323 1378 D2       		.byte	0xd2
 7324 1379 01       		.byte	0x1
 7325 137a C3130000 		.4byte	0x13c3
 7326 137e 22       		.uleb128 0x22
 7327 137f D1040000 		.4byte	.LASF214
ARM GAS  C:\Users\pearlstl\AppData\Local\Temp\ccIJtgHD.s 			page 160


 7328 1383 01       		.byte	0x1
 7329 1384 D2       		.byte	0xd2
 7330 1385 66130000 		.4byte	0x1366
 7331 1389 22       		.uleb128 0x22
 7332 138a 38030000 		.4byte	.LASF159
 7333 138e 01       		.byte	0x1
 7334 138f D2       		.byte	0xd2
 7335 1390 C3000000 		.4byte	0xc3
 7336 1394 29       		.uleb128 0x29
 7337 1395 65787400 		.ascii	"ext\000"
 7338 1399 01       		.byte	0x1
 7339 139a DB       		.byte	0xdb
 7340 139b 6C130000 		.4byte	0x136c
 7341 139f 2A       		.uleb128 0x2a
 7342 13a0 CC020000 		.4byte	.LASF234
 7343 13a4 01       		.byte	0x1
 7344 13a5 DC       		.byte	0xdc
 7345 13a6 C3000000 		.4byte	0xc3
 7346 13aa 25       		.uleb128 0x25
 7347 13ab 2A       		.uleb128 0x2a
 7348 13ac E2020000 		.4byte	.LASF235
 7349 13b0 01       		.byte	0x1
 7350 13b1 E3       		.byte	0xe3
 7351 13b2 C3000000 		.4byte	0xc3
 7352 13b6 2A       		.uleb128 0x2a
 7353 13b7 E8080000 		.4byte	.LASF236
 7354 13bb 01       		.byte	0x1
 7355 13bc E4       		.byte	0xe4
 7356 13bd CE000000 		.4byte	0xce
 7357 13c1 00       		.byte	0
 7358 13c2 00       		.byte	0
 7359 13c3 2B       		.uleb128 0x2b
 7360 13c4 A7070000 		.4byte	.LASF238
 7361 13c8 01       		.byte	0x1
 7362 13c9 8601     		.2byte	0x186
 7363 13cb 01       		.byte	0x1
 7364 13cc 01140000 		.4byte	0x1401
 7365 13d0 24       		.uleb128 0x24
 7366 13d1 D1040000 		.4byte	.LASF214
 7367 13d5 01       		.byte	0x1
 7368 13d6 8601     		.2byte	0x186
 7369 13d8 66130000 		.4byte	0x1366
 7370 13dc 24       		.uleb128 0x24
 7371 13dd 85010000 		.4byte	.LASF49
 7372 13e1 01       		.byte	0x1
 7373 13e2 8601     		.2byte	0x186
 7374 13e4 5C0A0000 		.4byte	0xa5c
 7375 13e8 24       		.uleb128 0x24
 7376 13e9 050A0000 		.4byte	.LASF215
 7377 13ed 01       		.byte	0x1
 7378 13ee 8601     		.2byte	0x186
 7379 13f0 D2080000 		.4byte	0x8d2
 7380 13f4 26       		.uleb128 0x26
 7381 13f5 65787400 		.ascii	"ext\000"
 7382 13f9 01       		.byte	0x1
 7383 13fa 8A01     		.2byte	0x18a
 7384 13fc 6C130000 		.4byte	0x136c
ARM GAS  C:\Users\pearlstl\AppData\Local\Temp\ccIJtgHD.s 			page 161


 7385 1400 00       		.byte	0
 7386 1401 2C       		.uleb128 0x2c
 7387 1402 7C050000 		.4byte	.LASF243
 7388 1406 01       		.byte	0x1
 7389 1407 4303     		.2byte	0x343
 7390 1409 D9000000 		.4byte	0xd9
 7391 140d 00000000 		.4byte	.LFB55
 7392 1411 32010000 		.4byte	.LFE55-.LFB55
 7393 1415 01       		.uleb128 0x1
 7394 1416 9C       		.byte	0x9c
 7395 1417 1C150000 		.4byte	0x151c
 7396 141b 2D       		.uleb128 0x2d
 7397 141c D1040000 		.4byte	.LASF214
 7398 1420 01       		.byte	0x1
 7399 1421 4303     		.2byte	0x343
 7400 1423 66130000 		.4byte	0x1366
 7401 1427 00000000 		.4byte	.LLST0
 7402 142b 2D       		.uleb128 0x2d
 7403 142c 1A010000 		.4byte	.LASF239
 7404 1430 01       		.byte	0x1
 7405 1431 4303     		.2byte	0x343
 7406 1433 C3000000 		.4byte	0xc3
 7407 1437 21000000 		.4byte	.LLST1
 7408 143b 2E       		.uleb128 0x2e
 7409 143c 65787400 		.ascii	"ext\000"
 7410 1440 01       		.byte	0x1
 7411 1441 4503     		.2byte	0x345
 7412 1443 6C130000 		.4byte	0x136c
 7413 1447 42000000 		.4byte	.LLST2
 7414 144b 2F       		.uleb128 0x2f
 7415 144c 8F0E0000 		.4byte	.LASF226
 7416 1450 01       		.byte	0x1
 7417 1451 4603     		.2byte	0x346
 7418 1453 C3020000 		.4byte	0x2c3
 7419 1457 02       		.uleb128 0x2
 7420 1458 91       		.byte	0x91
 7421 1459 5C       		.sleb128 -36
 7422 145a 30       		.uleb128 0x30
 7423 145b 6D010000 		.4byte	.LASF240
 7424 145f 01       		.byte	0x1
 7425 1460 4703     		.2byte	0x347
 7426 1462 D9000000 		.4byte	0xd9
 7427 1466 60000000 		.4byte	.LLST3
 7428 146a 30       		.uleb128 0x30
 7429 146b 32010000 		.4byte	.LASF162
 7430 146f 01       		.byte	0x1
 7431 1470 4803     		.2byte	0x348
 7432 1472 D2080000 		.4byte	0x8d2
 7433 1476 AB000000 		.4byte	.LLST4
 7434 147a 30       		.uleb128 0x30
 7435 147b 78040000 		.4byte	.LASF241
 7436 147f 01       		.byte	0x1
 7437 1480 4A03     		.2byte	0x34a
 7438 1482 C3000000 		.4byte	0xc3
 7439 1486 C9000000 		.4byte	.LLST5
 7440 148a 30       		.uleb128 0x30
 7441 148b 3A000000 		.4byte	.LASF193
ARM GAS  C:\Users\pearlstl\AppData\Local\Temp\ccIJtgHD.s 			page 162


 7442 148f 01       		.byte	0x1
 7443 1490 4B03     		.2byte	0x34b
 7444 1492 C3000000 		.4byte	0xc3
 7445 1496 F2000000 		.4byte	.LLST6
 7446 149a 2E       		.uleb128 0x2e
 7447 149b 636F6C00 		.ascii	"col\000"
 7448 149f 01       		.byte	0x1
 7449 14a0 4C03     		.2byte	0x34c
 7450 14a2 C3000000 		.4byte	0xc3
 7451 14a6 1B010000 		.4byte	.LLST7
 7452 14aa 30       		.uleb128 0x30
 7453 14ab 1B0A0000 		.4byte	.LASF242
 7454 14af 01       		.byte	0x1
 7455 14b0 4D03     		.2byte	0x34d
 7456 14b2 D9000000 		.4byte	0xd9
 7457 14b6 50010000 		.4byte	.LLST8
 7458 14ba 31       		.uleb128 0x31
 7459 14bb 00000000 		.4byte	.Ldebug_ranges0+0
 7460 14bf 0A150000 		.4byte	0x150a
 7461 14c3 30       		.uleb128 0x30
 7462 14c4 5B070000 		.4byte	.LASF231
 7463 14c8 01       		.byte	0x1
 7464 14c9 5403     		.2byte	0x354
 7465 14cb C3000000 		.4byte	0xc3
 7466 14cf 79010000 		.4byte	.LLST9
 7467 14d3 27       		.uleb128 0x27
 7468 14d4 C8060000 		.4byte	.LASF230
 7469 14d8 01       		.byte	0x1
 7470 14d9 6303     		.2byte	0x363
 7471 14db B0090000 		.4byte	0x9b0
 7472 14df 31       		.uleb128 0x31
 7473 14e0 18000000 		.4byte	.Ldebug_ranges0+0x18
 7474 14e4 F9140000 		.4byte	0x14f9
 7475 14e8 30       		.uleb128 0x30
 7476 14e9 C8060000 		.4byte	.LASF230
 7477 14ed 01       		.byte	0x1
 7478 14ee 5803     		.2byte	0x358
 7479 14f0 B0090000 		.4byte	0x9b0
 7480 14f4 AF010000 		.4byte	.LLST10
 7481 14f8 00       		.byte	0
 7482 14f9 32       		.uleb128 0x32
 7483 14fa 06010000 		.4byte	.LVL31
 7484 14fe 8D340000 		.4byte	0x348d
 7485 1502 33       		.uleb128 0x33
 7486 1503 01       		.uleb128 0x1
 7487 1504 50       		.byte	0x50
 7488 1505 02       		.uleb128 0x2
 7489 1506 91       		.byte	0x91
 7490 1507 5C       		.sleb128 -36
 7491 1508 00       		.byte	0
 7492 1509 00       		.byte	0
 7493 150a 32       		.uleb128 0x32
 7494 150b 0C000000 		.4byte	.LVL1
 7495 150f 98340000 		.4byte	0x3498
 7496 1513 33       		.uleb128 0x33
 7497 1514 01       		.uleb128 0x1
 7498 1515 50       		.byte	0x50
ARM GAS  C:\Users\pearlstl\AppData\Local\Temp\ccIJtgHD.s 			page 163


 7499 1516 03       		.uleb128 0x3
 7500 1517 F3       		.byte	0xf3
 7501 1518 01       		.uleb128 0x1
 7502 1519 50       		.byte	0x50
 7503 151a 00       		.byte	0
 7504 151b 00       		.byte	0
 7505 151c 2C       		.uleb128 0x2c
 7506 151d 28030000 		.4byte	.LASF244
 7507 1521 01       		.byte	0x1
 7508 1522 1103     		.2byte	0x311
 7509 1524 63050000 		.4byte	0x563
 7510 1528 00000000 		.4byte	.LFB53
 7511 152c 78000000 		.4byte	.LFE53-.LFB53
 7512 1530 01       		.uleb128 0x1
 7513 1531 9C       		.byte	0x9c
 7514 1532 FD150000 		.4byte	0x15fd
 7515 1536 2D       		.uleb128 0x2d
 7516 1537 D1040000 		.4byte	.LASF214
 7517 153b 01       		.byte	0x1
 7518 153c 1103     		.2byte	0x311
 7519 153e 66130000 		.4byte	0x1366
 7520 1542 F8010000 		.4byte	.LLST11
 7521 1546 2D       		.uleb128 0x2d
 7522 1547 52010000 		.4byte	.LASF245
 7523 154b 01       		.byte	0x1
 7524 154c 1103     		.2byte	0x311
 7525 154e 1A080000 		.4byte	0x81a
 7526 1552 56020000 		.4byte	.LLST12
 7527 1556 2D       		.uleb128 0x2d
 7528 1557 DB060000 		.4byte	.LASF246
 7529 155b 01       		.byte	0x1
 7530 155c 1103     		.2byte	0x311
 7531 155e E4000000 		.4byte	0xe4
 7532 1562 77020000 		.4byte	.LLST13
 7533 1566 2E       		.uleb128 0x2e
 7534 1567 72657300 		.ascii	"res\000"
 7535 156b 01       		.byte	0x1
 7536 156c 1303     		.2byte	0x313
 7537 156e 63050000 		.4byte	0x563
 7538 1572 E0020000 		.4byte	.LLST14
 7539 1576 31       		.uleb128 0x31
 7540 1577 48000000 		.4byte	.Ldebug_ranges0+0x48
 7541 157b C6150000 		.4byte	0x15c6
 7542 157f 2E       		.uleb128 0x2e
 7543 1580 65787400 		.ascii	"ext\000"
 7544 1584 01       		.byte	0x1
 7545 1585 1C03     		.2byte	0x31c
 7546 1587 6C130000 		.4byte	0x136c
 7547 158b 09030000 		.4byte	.LLST15
 7548 158f 30       		.uleb128 0x30
 7549 1590 3A000000 		.4byte	.LASF193
 7550 1594 01       		.byte	0x1
 7551 1595 1D03     		.2byte	0x31d
 7552 1597 C3000000 		.4byte	0xc3
 7553 159b 27030000 		.4byte	.LLST16
 7554 159f 34       		.uleb128 0x34
 7555 15a0 24000000 		.4byte	.LVL43
ARM GAS  C:\Users\pearlstl\AppData\Local\Temp\ccIJtgHD.s 			page 164


 7556 15a4 98340000 		.4byte	0x3498
 7557 15a8 B3150000 		.4byte	0x15b3
 7558 15ac 33       		.uleb128 0x33
 7559 15ad 01       		.uleb128 0x1
 7560 15ae 50       		.byte	0x50
 7561 15af 02       		.uleb128 0x2
 7562 15b0 75       		.byte	0x75
 7563 15b1 00       		.sleb128 0
 7564 15b2 00       		.byte	0
 7565 15b3 35       		.uleb128 0x35
 7566 15b4 40000000 		.4byte	.LVL46
 7567 15b8 A4340000 		.4byte	0x34a4
 7568 15bc 35       		.uleb128 0x35
 7569 15bd 62000000 		.4byte	.LVL50
 7570 15c1 A4340000 		.4byte	0x34a4
 7571 15c5 00       		.byte	0
 7572 15c6 36       		.uleb128 0x36
 7573 15c7 0E000000 		.4byte	.LVL38
 7574 15cb E2150000 		.4byte	0x15e2
 7575 15cf 33       		.uleb128 0x33
 7576 15d0 01       		.uleb128 0x1
 7577 15d1 50       		.byte	0x50
 7578 15d2 02       		.uleb128 0x2
 7579 15d3 75       		.byte	0x75
 7580 15d4 00       		.sleb128 0
 7581 15d5 33       		.uleb128 0x33
 7582 15d6 01       		.uleb128 0x1
 7583 15d7 51       		.byte	0x51
 7584 15d8 02       		.uleb128 0x2
 7585 15d9 74       		.byte	0x74
 7586 15da 00       		.sleb128 0
 7587 15db 33       		.uleb128 0x33
 7588 15dc 01       		.uleb128 0x1
 7589 15dd 52       		.byte	0x52
 7590 15de 02       		.uleb128 0x2
 7591 15df 76       		.byte	0x76
 7592 15e0 00       		.sleb128 0
 7593 15e1 00       		.byte	0
 7594 15e2 37       		.uleb128 0x37
 7595 15e3 70000000 		.4byte	.LVL54
 7596 15e7 AF340000 		.4byte	0x34af
 7597 15eb 33       		.uleb128 0x33
 7598 15ec 01       		.uleb128 0x1
 7599 15ed 50       		.byte	0x50
 7600 15ee 03       		.uleb128 0x3
 7601 15ef F3       		.byte	0xf3
 7602 15f0 01       		.uleb128 0x1
 7603 15f1 52       		.byte	0x52
 7604 15f2 33       		.uleb128 0x33
 7605 15f3 01       		.uleb128 0x1
 7606 15f4 51       		.byte	0x51
 7607 15f5 05       		.uleb128 0x5
 7608 15f6 03       		.byte	0x3
 7609 15f7 00000000 		.4byte	.LC0
 7610 15fb 00       		.byte	0
 7611 15fc 00       		.byte	0
 7612 15fd 38       		.uleb128 0x38
ARM GAS  C:\Users\pearlstl\AppData\Local\Temp\ccIJtgHD.s 			page 165


 7613 15fe 4A120000 		.4byte	0x124a
 7614 1602 00000000 		.4byte	.LFB52
 7615 1606 8E030000 		.4byte	.LFE52-.LFB52
 7616 160a 01       		.uleb128 0x1
 7617 160b 9C       		.byte	0x9c
 7618 160c DA180000 		.4byte	0x18da
 7619 1610 39       		.uleb128 0x39
 7620 1611 5B120000 		.4byte	0x125b
 7621 1615 51030000 		.4byte	.LLST17
 7622 1619 39       		.uleb128 0x39
 7623 161a 67120000 		.4byte	0x1267
 7624 161e BB030000 		.4byte	.LLST18
 7625 1622 39       		.uleb128 0x39
 7626 1623 73120000 		.4byte	0x1273
 7627 1627 F3030000 		.4byte	.LLST19
 7628 162b 3A       		.uleb128 0x3a
 7629 162c 60000000 		.4byte	.Ldebug_ranges0+0x60
 7630 1630 39       		.uleb128 0x39
 7631 1631 73120000 		.4byte	0x1273
 7632 1635 2D040000 		.4byte	.LLST20
 7633 1639 39       		.uleb128 0x39
 7634 163a 67120000 		.4byte	0x1267
 7635 163e 59040000 		.4byte	.LLST21
 7636 1642 39       		.uleb128 0x39
 7637 1643 5B120000 		.4byte	0x125b
 7638 1647 6E040000 		.4byte	.LLST22
 7639 164b 3A       		.uleb128 0x3a
 7640 164c 60000000 		.4byte	.Ldebug_ranges0+0x60
 7641 1650 3B       		.uleb128 0x3b
 7642 1651 80120000 		.4byte	0x1280
 7643 1655 A8040000 		.4byte	.LLST23
 7644 1659 3B       		.uleb128 0x3b
 7645 165a 8C120000 		.4byte	0x128c
 7646 165e DC040000 		.4byte	.LLST24
 7647 1662 3B       		.uleb128 0x3b
 7648 1663 98120000 		.4byte	0x1298
 7649 1667 21050000 		.4byte	.LLST25
 7650 166b 3C       		.uleb128 0x3c
 7651 166c A4120000 		.4byte	0x12a4
 7652 1670 03       		.uleb128 0x3
 7653 1671 91       		.byte	0x91
 7654 1672 E47E     		.sleb128 -156
 7655 1674 3C       		.uleb128 0x3c
 7656 1675 B0120000 		.4byte	0x12b0
 7657 1679 03       		.uleb128 0x3
 7658 167a 91       		.byte	0x91
 7659 167b F07E     		.sleb128 -144
 7660 167d 3C       		.uleb128 0x3c
 7661 167e BC120000 		.4byte	0x12bc
 7662 1682 03       		.uleb128 0x3
 7663 1683 91       		.byte	0x91
 7664 1684 F87E     		.sleb128 -136
 7665 1686 3B       		.uleb128 0x3b
 7666 1687 C8120000 		.4byte	0x12c8
 7667 168b 34050000 		.4byte	.LLST26
 7668 168f 3B       		.uleb128 0x3b
 7669 1690 D4120000 		.4byte	0x12d4
ARM GAS  C:\Users\pearlstl\AppData\Local\Temp\ccIJtgHD.s 			page 166


 7670 1694 6E050000 		.4byte	.LLST27
 7671 1698 3B       		.uleb128 0x3b
 7672 1699 E0120000 		.4byte	0x12e0
 7673 169d 9D050000 		.4byte	.LLST28
 7674 16a1 3B       		.uleb128 0x3b
 7675 16a2 EC120000 		.4byte	0x12ec
 7676 16a6 DD050000 		.4byte	.LLST29
 7677 16aa 3B       		.uleb128 0x3b
 7678 16ab F8120000 		.4byte	0x12f8
 7679 16af 23060000 		.4byte	.LLST30
 7680 16b3 31       		.uleb128 0x31
 7681 16b4 80000000 		.4byte	.Ldebug_ranges0+0x80
 7682 16b8 64180000 		.4byte	0x1864
 7683 16bc 3B       		.uleb128 0x3b
 7684 16bd 05130000 		.4byte	0x1305
 7685 16c1 63060000 		.4byte	.LLST31
 7686 16c5 3C       		.uleb128 0x3c
 7687 16c6 11130000 		.4byte	0x1311
 7688 16ca 03       		.uleb128 0x3
 7689 16cb 91       		.byte	0x91
 7690 16cc 887F     		.sleb128 -120
 7691 16ce 3B       		.uleb128 0x3b
 7692 16cf 1D130000 		.4byte	0x131d
 7693 16d3 8C060000 		.4byte	.LLST32
 7694 16d7 31       		.uleb128 0x31
 7695 16d8 A8000000 		.4byte	.Ldebug_ranges0+0xa8
 7696 16dc 25180000 		.4byte	0x1825
 7697 16e0 3C       		.uleb128 0x3c
 7698 16e1 2A130000 		.4byte	0x132a
 7699 16e5 03       		.uleb128 0x3
 7700 16e6 91       		.byte	0x91
 7701 16e7 807F     		.sleb128 -128
 7702 16e9 3B       		.uleb128 0x3b
 7703 16ea 36130000 		.4byte	0x1336
 7704 16ee FD060000 		.4byte	.LLST33
 7705 16f2 3C       		.uleb128 0x3c
 7706 16f3 42130000 		.4byte	0x1342
 7707 16f7 03       		.uleb128 0x3
 7708 16f8 91       		.byte	0x91
 7709 16f9 E87E     		.sleb128 -152
 7710 16fb 3C       		.uleb128 0x3c
 7711 16fc 4D130000 		.4byte	0x134d
 7712 1700 03       		.uleb128 0x3
 7713 1701 91       		.byte	0x91
 7714 1702 EC7E     		.sleb128 -148
 7715 1704 3B       		.uleb128 0x3b
 7716 1705 58130000 		.4byte	0x1358
 7717 1709 1B070000 		.4byte	.LLST34
 7718 170d 34       		.uleb128 0x34
 7719 170e C4010000 		.4byte	.LVL86
 7720 1712 8D340000 		.4byte	0x348d
 7721 1716 2F170000 		.4byte	0x172f
 7722 171a 33       		.uleb128 0x33
 7723 171b 01       		.uleb128 0x1
 7724 171c 50       		.byte	0x50
 7725 171d 02       		.uleb128 0x2
 7726 171e 76       		.byte	0x76
ARM GAS  C:\Users\pearlstl\AppData\Local\Temp\ccIJtgHD.s 			page 167


 7727 171f 00       		.sleb128 0
 7728 1720 33       		.uleb128 0x33
 7729 1721 02       		.uleb128 0x2
 7730 1722 7D       		.byte	0x7d
 7731 1723 00       		.sleb128 0
 7732 1724 02       		.uleb128 0x2
 7733 1725 75       		.byte	0x75
 7734 1726 00       		.sleb128 0
 7735 1727 33       		.uleb128 0x33
 7736 1728 02       		.uleb128 0x2
 7737 1729 7D       		.byte	0x7d
 7738 172a 08       		.sleb128 8
 7739 172b 02       		.uleb128 0x2
 7740 172c 74       		.byte	0x74
 7741 172d 00       		.sleb128 0
 7742 172e 00       		.byte	0
 7743 172f 34       		.uleb128 0x34
 7744 1730 0C020000 		.4byte	.LVL89
 7745 1734 BB340000 		.4byte	0x34bb
 7746 1738 53170000 		.4byte	0x1753
 7747 173c 33       		.uleb128 0x33
 7748 173d 01       		.uleb128 0x1
 7749 173e 50       		.byte	0x50
 7750 173f 03       		.uleb128 0x3
 7751 1740 91       		.byte	0x91
 7752 1741 807F     		.sleb128 -128
 7753 1743 33       		.uleb128 0x33
 7754 1744 01       		.uleb128 0x1
 7755 1745 51       		.byte	0x51
 7756 1746 04       		.uleb128 0x4
 7757 1747 91       		.byte	0x91
 7758 1748 C07E     		.sleb128 -192
 7759 174a 06       		.byte	0x6
 7760 174b 33       		.uleb128 0x33
 7761 174c 01       		.uleb128 0x1
 7762 174d 52       		.byte	0x52
 7763 174e 03       		.uleb128 0x3
 7764 174f 91       		.byte	0x91
 7765 1750 F07E     		.sleb128 -144
 7766 1752 00       		.byte	0
 7767 1753 34       		.uleb128 0x34
 7768 1754 80020000 		.4byte	.LVL97
 7769 1758 8D340000 		.4byte	0x348d
 7770 175c 73170000 		.4byte	0x1773
 7771 1760 33       		.uleb128 0x33
 7772 1761 01       		.uleb128 0x1
 7773 1762 50       		.byte	0x50
 7774 1763 04       		.uleb128 0x4
 7775 1764 91       		.byte	0x91
 7776 1765 C87E     		.sleb128 -184
 7777 1767 06       		.byte	0x6
 7778 1768 33       		.uleb128 0x33
 7779 1769 02       		.uleb128 0x2
 7780 176a 7D       		.byte	0x7d
 7781 176b 08       		.sleb128 8
 7782 176c 05       		.uleb128 0x5
 7783 176d 91       		.byte	0x91
ARM GAS  C:\Users\pearlstl\AppData\Local\Temp\ccIJtgHD.s 			page 168


 7784 176e BC7E     		.sleb128 -196
 7785 1770 94       		.byte	0x94
 7786 1771 01       		.byte	0x1
 7787 1772 00       		.byte	0
 7788 1773 34       		.uleb128 0x34
 7789 1774 B2020000 		.4byte	.LVL98
 7790 1778 C6340000 		.4byte	0x34c6
 7791 177c A8170000 		.4byte	0x17a8
 7792 1780 33       		.uleb128 0x33
 7793 1781 01       		.uleb128 0x1
 7794 1782 50       		.byte	0x50
 7795 1783 03       		.uleb128 0x3
 7796 1784 91       		.byte	0x91
 7797 1785 E87E     		.sleb128 -152
 7798 1787 33       		.uleb128 0x33
 7799 1788 01       		.uleb128 0x1
 7800 1789 51       		.byte	0x51
 7801 178a 03       		.uleb128 0x3
 7802 178b 91       		.byte	0x91
 7803 178c EC7E     		.sleb128 -148
 7804 178e 33       		.uleb128 0x33
 7805 178f 01       		.uleb128 0x1
 7806 1790 52       		.byte	0x52
 7807 1791 04       		.uleb128 0x4
 7808 1792 91       		.byte	0x91
 7809 1793 C07E     		.sleb128 -192
 7810 1795 06       		.byte	0x6
 7811 1796 33       		.uleb128 0x33
 7812 1797 01       		.uleb128 0x1
 7813 1798 53       		.byte	0x53
 7814 1799 03       		.uleb128 0x3
 7815 179a 91       		.byte	0x91
 7816 179b 887F     		.sleb128 -120
 7817 179d 33       		.uleb128 0x33
 7818 179e 02       		.uleb128 0x2
 7819 179f 7D       		.byte	0x7d
 7820 17a0 00       		.sleb128 0
 7821 17a1 05       		.uleb128 0x5
 7822 17a2 91       		.byte	0x91
 7823 17a3 C47E     		.sleb128 -188
 7824 17a5 94       		.byte	0x94
 7825 17a6 01       		.byte	0x1
 7826 17a7 00       		.byte	0
 7827 17a8 34       		.uleb128 0x34
 7828 17a9 1C030000 		.4byte	.LVL107
 7829 17ad 8D340000 		.4byte	0x348d
 7830 17b1 C3170000 		.4byte	0x17c3
 7831 17b5 33       		.uleb128 0x33
 7832 17b6 01       		.uleb128 0x1
 7833 17b7 50       		.byte	0x50
 7834 17b8 02       		.uleb128 0x2
 7835 17b9 75       		.byte	0x75
 7836 17ba 00       		.sleb128 0
 7837 17bb 33       		.uleb128 0x33
 7838 17bc 02       		.uleb128 0x2
 7839 17bd 7D       		.byte	0x7d
 7840 17be 08       		.sleb128 8
ARM GAS  C:\Users\pearlstl\AppData\Local\Temp\ccIJtgHD.s 			page 169


 7841 17bf 02       		.uleb128 0x2
 7842 17c0 74       		.byte	0x74
 7843 17c1 00       		.sleb128 0
 7844 17c2 00       		.byte	0
 7845 17c3 34       		.uleb128 0x34
 7846 17c4 4E030000 		.4byte	.LVL113
 7847 17c8 D1340000 		.4byte	0x34d1
 7848 17cc D9170000 		.4byte	0x17d9
 7849 17d0 33       		.uleb128 0x33
 7850 17d1 01       		.uleb128 0x1
 7851 17d2 50       		.byte	0x50
 7852 17d3 04       		.uleb128 0x4
 7853 17d4 91       		.byte	0x91
 7854 17d5 D47E     		.sleb128 -172
 7855 17d7 06       		.byte	0x6
 7856 17d8 00       		.byte	0
 7857 17d9 32       		.uleb128 0x32
 7858 17da 6C030000 		.4byte	.LVL115
 7859 17de DD340000 		.4byte	0x34dd
 7860 17e2 33       		.uleb128 0x33
 7861 17e3 01       		.uleb128 0x1
 7862 17e4 50       		.byte	0x50
 7863 17e5 03       		.uleb128 0x3
 7864 17e6 91       		.byte	0x91
 7865 17e7 F87E     		.sleb128 -136
 7866 17e9 33       		.uleb128 0x33
 7867 17ea 01       		.uleb128 0x1
 7868 17eb 51       		.byte	0x51
 7869 17ec 03       		.uleb128 0x3
 7870 17ed 91       		.byte	0x91
 7871 17ee 807F     		.sleb128 -128
 7872 17f0 33       		.uleb128 0x33
 7873 17f1 01       		.uleb128 0x1
 7874 17f2 52       		.byte	0x52
 7875 17f3 03       		.uleb128 0x3
 7876 17f4 91       		.byte	0x91
 7877 17f5 887F     		.sleb128 -120
 7878 17f7 33       		.uleb128 0x33
 7879 17f8 01       		.uleb128 0x1
 7880 17f9 53       		.byte	0x53
 7881 17fa 05       		.uleb128 0x5
 7882 17fb 91       		.byte	0x91
 7883 17fc C47E     		.sleb128 -188
 7884 17fe 94       		.byte	0x94
 7885 17ff 01       		.byte	0x1
 7886 1800 33       		.uleb128 0x33
 7887 1801 02       		.uleb128 0x2
 7888 1802 7D       		.byte	0x7d
 7889 1803 00       		.sleb128 0
 7890 1804 02       		.uleb128 0x2
 7891 1805 74       		.byte	0x74
 7892 1806 00       		.sleb128 0
 7893 1807 33       		.uleb128 0x33
 7894 1808 02       		.uleb128 0x2
 7895 1809 7D       		.byte	0x7d
 7896 180a 04       		.sleb128 4
 7897 180b 05       		.uleb128 0x5
ARM GAS  C:\Users\pearlstl\AppData\Local\Temp\ccIJtgHD.s 			page 170


 7898 180c 91       		.byte	0x91
 7899 180d BC7E     		.sleb128 -196
 7900 180f 94       		.byte	0x94
 7901 1810 01       		.byte	0x1
 7902 1811 33       		.uleb128 0x33
 7903 1812 02       		.uleb128 0x2
 7904 1813 7D       		.byte	0x7d
 7905 1814 08       		.sleb128 8
 7906 1815 01       		.uleb128 0x1
 7907 1816 30       		.byte	0x30
 7908 1817 33       		.uleb128 0x33
 7909 1818 02       		.uleb128 0x2
 7910 1819 7D       		.byte	0x7d
 7911 181a 0C       		.sleb128 12
 7912 181b 01       		.uleb128 0x1
 7913 181c 30       		.byte	0x30
 7914 181d 33       		.uleb128 0x33
 7915 181e 02       		.uleb128 0x2
 7916 181f 7D       		.byte	0x7d
 7917 1820 10       		.sleb128 16
 7918 1821 01       		.uleb128 0x1
 7919 1822 30       		.byte	0x30
 7920 1823 00       		.byte	0
 7921 1824 00       		.byte	0
 7922 1825 34       		.uleb128 0x34
 7923 1826 B8000000 		.4byte	.LVL76
 7924 182a E8340000 		.4byte	0x34e8
 7925 182e 3A180000 		.4byte	0x183a
 7926 1832 33       		.uleb128 0x33
 7927 1833 01       		.uleb128 0x1
 7928 1834 50       		.byte	0x50
 7929 1835 03       		.uleb128 0x3
 7930 1836 91       		.byte	0x91
 7931 1837 887F     		.sleb128 -120
 7932 1839 00       		.byte	0
 7933 183a 32       		.uleb128 0x32
 7934 183b 4C010000 		.4byte	.LVL83
 7935 183f F3340000 		.4byte	0x34f3
 7936 1843 33       		.uleb128 0x33
 7937 1844 01       		.uleb128 0x1
 7938 1845 50       		.byte	0x50
 7939 1846 03       		.uleb128 0x3
 7940 1847 91       		.byte	0x91
 7941 1848 F07E     		.sleb128 -144
 7942 184a 33       		.uleb128 0x33
 7943 184b 01       		.uleb128 0x1
 7944 184c 51       		.byte	0x51
 7945 184d 04       		.uleb128 0x4
 7946 184e 91       		.byte	0x91
 7947 184f C07E     		.sleb128 -192
 7948 1851 06       		.byte	0x6
 7949 1852 33       		.uleb128 0x33
 7950 1853 01       		.uleb128 0x1
 7951 1854 52       		.byte	0x52
 7952 1855 03       		.uleb128 0x3
 7953 1856 91       		.byte	0x91
 7954 1857 887F     		.sleb128 -120
ARM GAS  C:\Users\pearlstl\AppData\Local\Temp\ccIJtgHD.s 			page 171


 7955 1859 33       		.uleb128 0x33
 7956 185a 01       		.uleb128 0x1
 7957 185b 53       		.byte	0x53
 7958 185c 05       		.uleb128 0x5
 7959 185d 91       		.byte	0x91
 7960 185e C47E     		.sleb128 -188
 7961 1860 94       		.byte	0x94
 7962 1861 01       		.byte	0x1
 7963 1862 00       		.byte	0
 7964 1863 00       		.byte	0
 7965 1864 36       		.uleb128 0x36
 7966 1865 20000000 		.4byte	.LVL60
 7967 1869 82180000 		.4byte	0x1882
 7968 186d 33       		.uleb128 0x33
 7969 186e 01       		.uleb128 0x1
 7970 186f 50       		.byte	0x50
 7971 1870 02       		.uleb128 0x2
 7972 1871 75       		.byte	0x75
 7973 1872 00       		.sleb128 0
 7974 1873 33       		.uleb128 0x33
 7975 1874 01       		.uleb128 0x1
 7976 1875 51       		.byte	0x51
 7977 1876 04       		.uleb128 0x4
 7978 1877 91       		.byte	0x91
 7979 1878 C07E     		.sleb128 -192
 7980 187a 06       		.byte	0x6
 7981 187b 33       		.uleb128 0x33
 7982 187c 01       		.uleb128 0x1
 7983 187d 52       		.byte	0x52
 7984 187e 02       		.uleb128 0x2
 7985 187f 74       		.byte	0x74
 7986 1880 00       		.sleb128 0
 7987 1881 00       		.byte	0
 7988 1882 34       		.uleb128 0x34
 7989 1883 26000000 		.4byte	.LVL61
 7990 1887 98340000 		.4byte	0x3498
 7991 188b 96180000 		.4byte	0x1896
 7992 188f 33       		.uleb128 0x33
 7993 1890 01       		.uleb128 0x1
 7994 1891 50       		.byte	0x50
 7995 1892 02       		.uleb128 0x2
 7996 1893 75       		.byte	0x75
 7997 1894 00       		.sleb128 0
 7998 1895 00       		.byte	0
 7999 1896 34       		.uleb128 0x34
 8000 1897 2E000000 		.4byte	.LVL64
 8001 189b FE340000 		.4byte	0x34fe
 8002 189f AA180000 		.4byte	0x18aa
 8003 18a3 33       		.uleb128 0x33
 8004 18a4 01       		.uleb128 0x1
 8005 18a5 50       		.byte	0x50
 8006 18a6 02       		.uleb128 0x2
 8007 18a7 75       		.byte	0x75
 8008 18a8 00       		.sleb128 0
 8009 18a9 00       		.byte	0
 8010 18aa 34       		.uleb128 0x34
 8011 18ab 38000000 		.4byte	.LVL67
ARM GAS  C:\Users\pearlstl\AppData\Local\Temp\ccIJtgHD.s 			page 172


 8012 18af 0A350000 		.4byte	0x350a
 8013 18b3 BE180000 		.4byte	0x18be
 8014 18b7 33       		.uleb128 0x33
 8015 18b8 01       		.uleb128 0x1
 8016 18b9 50       		.byte	0x50
 8017 18ba 02       		.uleb128 0x2
 8018 18bb 75       		.byte	0x75
 8019 18bc 00       		.sleb128 0
 8020 18bd 00       		.byte	0
 8021 18be 32       		.uleb128 0x32
 8022 18bf 5C000000 		.4byte	.LVL71
 8023 18c3 01140000 		.4byte	0x1401
 8024 18c7 33       		.uleb128 0x33
 8025 18c8 01       		.uleb128 0x1
 8026 18c9 50       		.byte	0x50
 8027 18ca 02       		.uleb128 0x2
 8028 18cb 74       		.byte	0x74
 8029 18cc 00       		.sleb128 0
 8030 18cd 33       		.uleb128 0x33
 8031 18ce 01       		.uleb128 0x1
 8032 18cf 51       		.byte	0x51
 8033 18d0 05       		.uleb128 0x5
 8034 18d1 91       		.byte	0x91
 8035 18d2 D87E     		.sleb128 -168
 8036 18d4 94       		.byte	0x94
 8037 18d5 02       		.byte	0x2
 8038 18d6 00       		.byte	0
 8039 18d7 00       		.byte	0
 8040 18d8 00       		.byte	0
 8041 18d9 00       		.byte	0
 8042 18da 3D       		.uleb128 0x3d
 8043 18db D7070000 		.4byte	.LASF304
 8044 18df 01       		.byte	0x1
 8045 18e0 2B03     		.2byte	0x32b
 8046 18e2 01       		.byte	0x1
 8047 18e3 2A190000 		.4byte	0x192a
 8048 18e7 24       		.uleb128 0x24
 8049 18e8 D1040000 		.4byte	.LASF214
 8050 18ec 01       		.byte	0x1
 8051 18ed 2B03     		.2byte	0x32b
 8052 18ef 66130000 		.4byte	0x1366
 8053 18f3 26       		.uleb128 0x26
 8054 18f4 6800     		.ascii	"h\000"
 8055 18f6 01       		.byte	0x1
 8056 18f7 2D03     		.2byte	0x32d
 8057 18f9 D9000000 		.4byte	0xd9
 8058 18fd 26       		.uleb128 0x26
 8059 18fe 7700     		.ascii	"w\000"
 8060 1900 01       		.byte	0x1
 8061 1901 2E03     		.2byte	0x32e
 8062 1903 D9000000 		.4byte	0xd9
 8063 1907 26       		.uleb128 0x26
 8064 1908 65787400 		.ascii	"ext\000"
 8065 190c 01       		.byte	0x1
 8066 190d 3003     		.2byte	0x330
 8067 190f 6C130000 		.4byte	0x136c
 8068 1913 26       		.uleb128 0x26
ARM GAS  C:\Users\pearlstl\AppData\Local\Temp\ccIJtgHD.s 			page 173


 8069 1914 6900     		.ascii	"i\000"
 8070 1916 01       		.byte	0x1
 8071 1917 3203     		.2byte	0x332
 8072 1919 C3000000 		.4byte	0xc3
 8073 191d 27       		.uleb128 0x27
 8074 191e 9B090000 		.4byte	.LASF224
 8075 1922 01       		.byte	0x1
 8076 1923 3A03     		.2byte	0x33a
 8077 1925 D2080000 		.4byte	0x8d2
 8078 1929 00       		.byte	0
 8079 192a 28       		.uleb128 0x28
 8080 192b 8A010000 		.4byte	.LASF247
 8081 192f 01       		.byte	0x1
 8082 1930 B4       		.byte	0xb4
 8083 1931 01       		.byte	0x1
 8084 1932 7B190000 		.4byte	0x197b
 8085 1936 22       		.uleb128 0x22
 8086 1937 D1040000 		.4byte	.LASF214
 8087 193b 01       		.byte	0x1
 8088 193c B4       		.byte	0xb4
 8089 193d 66130000 		.4byte	0x1366
 8090 1941 22       		.uleb128 0x22
 8091 1942 F5080000 		.4byte	.LASF160
 8092 1946 01       		.byte	0x1
 8093 1947 B4       		.byte	0xb4
 8094 1948 C3000000 		.4byte	0xc3
 8095 194c 29       		.uleb128 0x29
 8096 194d 65787400 		.ascii	"ext\000"
 8097 1951 01       		.byte	0x1
 8098 1952 B8       		.byte	0xb8
 8099 1953 6C130000 		.4byte	0x136c
 8100 1957 2A       		.uleb128 0x2a
 8101 1958 8D080000 		.4byte	.LASF248
 8102 195c 01       		.byte	0x1
 8103 195d B9       		.byte	0xb9
 8104 195e C3000000 		.4byte	0xc3
 8105 1962 25       		.uleb128 0x25
 8106 1963 2A       		.uleb128 0x2a
 8107 1964 E2020000 		.4byte	.LASF235
 8108 1968 01       		.byte	0x1
 8109 1969 C1       		.byte	0xc1
 8110 196a C3000000 		.4byte	0xc3
 8111 196e 2A       		.uleb128 0x2a
 8112 196f E8080000 		.4byte	.LASF236
 8113 1973 01       		.byte	0x1
 8114 1974 C2       		.byte	0xc2
 8115 1975 CE000000 		.4byte	0xce
 8116 1979 00       		.byte	0
 8117 197a 00       		.byte	0
 8118 197b 3E       		.uleb128 0x3e
 8119 197c 9C050000 		.4byte	.LASF259
 8120 1980 01       		.byte	0x1
 8121 1981 37       		.byte	0x37
 8122 1982 66130000 		.4byte	0x1366
 8123 1986 00000000 		.4byte	.LFB33
 8124 198a 48060000 		.4byte	.LFE33-.LFB33
 8125 198e 01       		.uleb128 0x1
ARM GAS  C:\Users\pearlstl\AppData\Local\Temp\ccIJtgHD.s 			page 174


 8126 198f 9C       		.byte	0x9c
 8127 1990 10240000 		.4byte	0x2410
 8128 1994 3F       		.uleb128 0x3f
 8129 1995 70617200 		.ascii	"par\000"
 8130 1999 01       		.byte	0x1
 8131 199a 37       		.byte	0x37
 8132 199b 66130000 		.4byte	0x1366
 8133 199f 45070000 		.4byte	.LLST35
 8134 19a3 40       		.uleb128 0x40
 8135 19a4 7A070000 		.4byte	.LASF249
 8136 19a8 01       		.byte	0x1
 8137 19a9 37       		.byte	0x37
 8138 19aa 10240000 		.4byte	0x2410
 8139 19ae 66070000 		.4byte	.LLST36
 8140 19b2 41       		.uleb128 0x41
 8141 19b3 980E0000 		.4byte	.LASF250
 8142 19b7 01       		.byte	0x1
 8143 19b8 3C       		.byte	0x3c
 8144 19b9 66130000 		.4byte	0x1366
 8145 19bd 01080000 		.4byte	.LLST37
 8146 19c1 42       		.uleb128 0x42
 8147 19c2 65787400 		.ascii	"ext\000"
 8148 19c6 01       		.byte	0x1
 8149 19c7 41       		.byte	0x41
 8150 19c8 6C130000 		.4byte	0x136c
 8151 19cc 40080000 		.4byte	.LLST38
 8152 19d0 29       		.uleb128 0x29
 8153 19d1 6900     		.ascii	"i\000"
 8154 19d3 01       		.byte	0x1
 8155 19d4 50       		.byte	0x50
 8156 19d5 C3000000 		.4byte	0xc3
 8157 19d9 31       		.uleb128 0x31
 8158 19da C8000000 		.4byte	.Ldebug_ranges0+0xc8
 8159 19de E51C0000 		.4byte	0x1ce5
 8160 19e2 41       		.uleb128 0x41
 8161 19e3 210E0000 		.4byte	.LASF251
 8162 19e7 01       		.byte	0x1
 8163 19e8 6A       		.byte	0x6a
 8164 19e9 6C130000 		.4byte	0x136c
 8165 19ed 95080000 		.4byte	.LLST39
 8166 19f1 43       		.uleb128 0x43
 8167 19f2 2A190000 		.4byte	0x192a
 8168 19f6 74000000 		.4byte	.LBB115
 8169 19fa F8000000 		.4byte	.Ldebug_ranges0+0xf8
 8170 19fe 01       		.byte	0x1
 8171 19ff 6F       		.byte	0x6f
 8172 1a00 3B1B0000 		.4byte	0x1b3b
 8173 1a04 39       		.uleb128 0x39
 8174 1a05 41190000 		.4byte	0x1941
 8175 1a09 D4080000 		.4byte	.LLST40
 8176 1a0d 39       		.uleb128 0x39
 8177 1a0e 36190000 		.4byte	0x1936
 8178 1a12 FD080000 		.4byte	.LLST41
 8179 1a16 3A       		.uleb128 0x3a
 8180 1a17 F8000000 		.4byte	.Ldebug_ranges0+0xf8
 8181 1a1b 3B       		.uleb128 0x3b
 8182 1a1c 4C190000 		.4byte	0x194c
ARM GAS  C:\Users\pearlstl\AppData\Local\Temp\ccIJtgHD.s 			page 175


 8183 1a20 26090000 		.4byte	.LLST42
 8184 1a24 3B       		.uleb128 0x3b
 8185 1a25 57190000 		.4byte	0x1957
 8186 1a29 5A090000 		.4byte	.LLST43
 8187 1a2d 43       		.uleb128 0x43
 8188 1a2e DA180000 		.4byte	0x18da
 8189 1a32 B2000000 		.4byte	.LBB117
 8190 1a36 20010000 		.4byte	.Ldebug_ranges0+0x120
 8191 1a3a 01       		.byte	0x1
 8192 1a3b CA       		.byte	0xca
 8193 1a3c E31A0000 		.4byte	0x1ae3
 8194 1a40 39       		.uleb128 0x39
 8195 1a41 E7180000 		.4byte	0x18e7
 8196 1a45 78090000 		.4byte	.LLST44
 8197 1a49 3A       		.uleb128 0x3a
 8198 1a4a 20010000 		.4byte	.Ldebug_ranges0+0x120
 8199 1a4e 3B       		.uleb128 0x3b
 8200 1a4f F3180000 		.4byte	0x18f3
 8201 1a53 96090000 		.4byte	.LLST45
 8202 1a57 3B       		.uleb128 0x3b
 8203 1a58 FD180000 		.4byte	0x18fd
 8204 1a5c C1090000 		.4byte	.LLST46
 8205 1a60 3B       		.uleb128 0x3b
 8206 1a61 07190000 		.4byte	0x1907
 8207 1a65 E0090000 		.4byte	.LLST47
 8208 1a69 3B       		.uleb128 0x3b
 8209 1a6a 13190000 		.4byte	0x1913
 8210 1a6e 090A0000 		.4byte	.LLST48
 8211 1a72 3B       		.uleb128 0x3b
 8212 1a73 1D190000 		.4byte	0x191d
 8213 1a77 4B0A0000 		.4byte	.LLST49
 8214 1a7b 34       		.uleb128 0x34
 8215 1a7c B8000000 		.4byte	.LVL138
 8216 1a80 98340000 		.4byte	0x3498
 8217 1a84 8F1A0000 		.4byte	0x1a8f
 8218 1a88 33       		.uleb128 0x33
 8219 1a89 01       		.uleb128 0x1
 8220 1a8a 50       		.byte	0x50
 8221 1a8b 02       		.uleb128 0x2
 8222 1a8c 77       		.byte	0x77
 8223 1a8d 00       		.sleb128 0
 8224 1a8e 00       		.byte	0
 8225 1a8f 34       		.uleb128 0x34
 8226 1a90 F2000000 		.4byte	.LVL147
 8227 1a94 01140000 		.4byte	0x1401
 8228 1a98 A91A0000 		.4byte	0x1aa9
 8229 1a9c 33       		.uleb128 0x33
 8230 1a9d 01       		.uleb128 0x1
 8231 1a9e 50       		.byte	0x50
 8232 1a9f 02       		.uleb128 0x2
 8233 1aa0 77       		.byte	0x77
 8234 1aa1 00       		.sleb128 0
 8235 1aa2 33       		.uleb128 0x33
 8236 1aa3 01       		.uleb128 0x1
 8237 1aa4 51       		.byte	0x51
 8238 1aa5 02       		.uleb128 0x2
 8239 1aa6 75       		.byte	0x75
ARM GAS  C:\Users\pearlstl\AppData\Local\Temp\ccIJtgHD.s 			page 176


 8240 1aa7 00       		.sleb128 0
 8241 1aa8 00       		.byte	0
 8242 1aa9 34       		.uleb128 0x34
 8243 1aaa 0E010000 		.4byte	.LVL151
 8244 1aae FE340000 		.4byte	0x34fe
 8245 1ab2 BD1A0000 		.4byte	0x1abd
 8246 1ab6 33       		.uleb128 0x33
 8247 1ab7 01       		.uleb128 0x1
 8248 1ab8 50       		.byte	0x50
 8249 1ab9 02       		.uleb128 0x2
 8250 1aba 77       		.byte	0x77
 8251 1abb 00       		.sleb128 0
 8252 1abc 00       		.byte	0
 8253 1abd 34       		.uleb128 0x34
 8254 1abe 2E010000 		.4byte	.LVL155
 8255 1ac2 16350000 		.4byte	0x3516
 8256 1ac6 D11A0000 		.4byte	0x1ad1
 8257 1aca 33       		.uleb128 0x33
 8258 1acb 01       		.uleb128 0x1
 8259 1acc 50       		.byte	0x50
 8260 1acd 02       		.uleb128 0x2
 8261 1ace 77       		.byte	0x77
 8262 1acf 00       		.sleb128 0
 8263 1ad0 00       		.byte	0
 8264 1ad1 32       		.uleb128 0x32
 8265 1ad2 34010000 		.4byte	.LVL156
 8266 1ad6 22350000 		.4byte	0x3522
 8267 1ada 33       		.uleb128 0x33
 8268 1adb 01       		.uleb128 0x1
 8269 1adc 50       		.byte	0x50
 8270 1add 02       		.uleb128 0x2
 8271 1ade 77       		.byte	0x77
 8272 1adf 00       		.sleb128 0
 8273 1ae0 00       		.byte	0
 8274 1ae1 00       		.byte	0
 8275 1ae2 00       		.byte	0
 8276 1ae3 44       		.uleb128 0x44
 8277 1ae4 0A020000 		.4byte	.LBB120
 8278 1ae8 2E000000 		.4byte	.LBE120-.LBB120
 8279 1aec 131B0000 		.4byte	0x1b13
 8280 1af0 3B       		.uleb128 0x3b
 8281 1af1 63190000 		.4byte	0x1963
 8282 1af5 690A0000 		.4byte	.LLST50
 8283 1af9 3B       		.uleb128 0x3b
 8284 1afa 6E190000 		.4byte	0x196e
 8285 1afe 930A0000 		.4byte	.LLST51
 8286 1b02 32       		.uleb128 0x32
 8287 1b03 26020000 		.4byte	.LVL191
 8288 1b07 2E350000 		.4byte	0x352e
 8289 1b0b 33       		.uleb128 0x33
 8290 1b0c 01       		.uleb128 0x1
 8291 1b0d 51       		.byte	0x51
 8292 1b0e 02       		.uleb128 0x2
 8293 1b0f 75       		.byte	0x75
 8294 1b10 00       		.sleb128 0
 8295 1b11 00       		.byte	0
 8296 1b12 00       		.byte	0
ARM GAS  C:\Users\pearlstl\AppData\Local\Temp\ccIJtgHD.s 			page 177


 8297 1b13 34       		.uleb128 0x34
 8298 1b14 96000000 		.4byte	.LVL133
 8299 1b18 98340000 		.4byte	0x3498
 8300 1b1c 271B0000 		.4byte	0x1b27
 8301 1b20 33       		.uleb128 0x33
 8302 1b21 01       		.uleb128 0x1
 8303 1b22 50       		.byte	0x50
 8304 1b23 02       		.uleb128 0x2
 8305 1b24 77       		.byte	0x77
 8306 1b25 00       		.sleb128 0
 8307 1b26 00       		.byte	0
 8308 1b27 35       		.uleb128 0x35
 8309 1b28 AE000000 		.4byte	.LVL136
 8310 1b2c A4340000 		.4byte	0x34a4
 8311 1b30 35       		.uleb128 0x35
 8312 1b31 02020000 		.4byte	.LVL188
 8313 1b35 37350000 		.4byte	0x3537
 8314 1b39 00       		.byte	0
 8315 1b3a 00       		.byte	0
 8316 1b3b 43       		.uleb128 0x43
 8317 1b3c 72130000 		.4byte	0x1372
 8318 1b40 38010000 		.4byte	.LBB126
 8319 1b44 38010000 		.4byte	.Ldebug_ranges0+0x138
 8320 1b48 01       		.byte	0x1
 8321 1b49 70       		.byte	0x70
 8322 1b4a AC1C0000 		.4byte	0x1cac
 8323 1b4e 39       		.uleb128 0x39
 8324 1b4f 89130000 		.4byte	0x1389
 8325 1b53 D10A0000 		.4byte	.LLST52
 8326 1b57 39       		.uleb128 0x39
 8327 1b58 7E130000 		.4byte	0x137e
 8328 1b5c FA0A0000 		.4byte	.LLST53
 8329 1b60 3A       		.uleb128 0x3a
 8330 1b61 38010000 		.4byte	.Ldebug_ranges0+0x138
 8331 1b65 45       		.uleb128 0x45
 8332 1b66 94130000 		.4byte	0x1394
 8333 1b6a 45       		.uleb128 0x45
 8334 1b6b 9F130000 		.4byte	0x139f
 8335 1b6f 3A       		.uleb128 0x3a
 8336 1b70 40010000 		.4byte	.Ldebug_ranges0+0x140
 8337 1b74 39       		.uleb128 0x39
 8338 1b75 89130000 		.4byte	0x1389
 8339 1b79 230B0000 		.4byte	.LLST54
 8340 1b7d 39       		.uleb128 0x39
 8341 1b7e 7E130000 		.4byte	0x137e
 8342 1b82 410B0000 		.4byte	.LLST55
 8343 1b86 3A       		.uleb128 0x3a
 8344 1b87 40010000 		.4byte	.Ldebug_ranges0+0x140
 8345 1b8b 3B       		.uleb128 0x3b
 8346 1b8c 94130000 		.4byte	0x1394
 8347 1b90 5F0B0000 		.4byte	.LLST56
 8348 1b94 3B       		.uleb128 0x3b
 8349 1b95 9F130000 		.4byte	0x139f
 8350 1b99 930B0000 		.4byte	.LLST57
 8351 1b9d 43       		.uleb128 0x43
 8352 1b9e DA180000 		.4byte	0x18da
 8353 1ba2 68010000 		.4byte	.LBB130
ARM GAS  C:\Users\pearlstl\AppData\Local\Temp\ccIJtgHD.s 			page 178


 8354 1ba6 58010000 		.4byte	.Ldebug_ranges0+0x158
 8355 1baa 01       		.byte	0x1
 8356 1bab EC       		.byte	0xec
 8357 1bac 531C0000 		.4byte	0x1c53
 8358 1bb0 39       		.uleb128 0x39
 8359 1bb1 E7180000 		.4byte	0x18e7
 8360 1bb5 B10B0000 		.4byte	.LLST58
 8361 1bb9 3A       		.uleb128 0x3a
 8362 1bba 58010000 		.4byte	.Ldebug_ranges0+0x158
 8363 1bbe 3B       		.uleb128 0x3b
 8364 1bbf F3180000 		.4byte	0x18f3
 8365 1bc3 CF0B0000 		.4byte	.LLST59
 8366 1bc7 3B       		.uleb128 0x3b
 8367 1bc8 FD180000 		.4byte	0x18fd
 8368 1bcc FA0B0000 		.4byte	.LLST60
 8369 1bd0 3B       		.uleb128 0x3b
 8370 1bd1 07190000 		.4byte	0x1907
 8371 1bd5 190C0000 		.4byte	.LLST61
 8372 1bd9 3B       		.uleb128 0x3b
 8373 1bda 13190000 		.4byte	0x1913
 8374 1bde 420C0000 		.4byte	.LLST62
 8375 1be2 3B       		.uleb128 0x3b
 8376 1be3 1D190000 		.4byte	0x191d
 8377 1be7 840C0000 		.4byte	.LLST63
 8378 1beb 34       		.uleb128 0x34
 8379 1bec 6E010000 		.4byte	.LVL166
 8380 1bf0 98340000 		.4byte	0x3498
 8381 1bf4 FF1B0000 		.4byte	0x1bff
 8382 1bf8 33       		.uleb128 0x33
 8383 1bf9 01       		.uleb128 0x1
 8384 1bfa 50       		.byte	0x50
 8385 1bfb 02       		.uleb128 0x2
 8386 1bfc 77       		.byte	0x77
 8387 1bfd 00       		.sleb128 0
 8388 1bfe 00       		.byte	0
 8389 1bff 34       		.uleb128 0x34
 8390 1c00 A8010000 		.4byte	.LVL175
 8391 1c04 01140000 		.4byte	0x1401
 8392 1c08 191C0000 		.4byte	0x1c19
 8393 1c0c 33       		.uleb128 0x33
 8394 1c0d 01       		.uleb128 0x1
 8395 1c0e 50       		.byte	0x50
 8396 1c0f 02       		.uleb128 0x2
 8397 1c10 77       		.byte	0x77
 8398 1c11 00       		.sleb128 0
 8399 1c12 33       		.uleb128 0x33
 8400 1c13 01       		.uleb128 0x1
 8401 1c14 51       		.byte	0x51
 8402 1c15 02       		.uleb128 0x2
 8403 1c16 75       		.byte	0x75
 8404 1c17 00       		.sleb128 0
 8405 1c18 00       		.byte	0
 8406 1c19 34       		.uleb128 0x34
 8407 1c1a C4010000 		.4byte	.LVL179
 8408 1c1e FE340000 		.4byte	0x34fe
 8409 1c22 2D1C0000 		.4byte	0x1c2d
 8410 1c26 33       		.uleb128 0x33
ARM GAS  C:\Users\pearlstl\AppData\Local\Temp\ccIJtgHD.s 			page 179


 8411 1c27 01       		.uleb128 0x1
 8412 1c28 50       		.byte	0x50
 8413 1c29 02       		.uleb128 0x2
 8414 1c2a 77       		.byte	0x77
 8415 1c2b 00       		.sleb128 0
 8416 1c2c 00       		.byte	0
 8417 1c2d 34       		.uleb128 0x34
 8418 1c2e E4010000 		.4byte	.LVL183
 8419 1c32 16350000 		.4byte	0x3516
 8420 1c36 411C0000 		.4byte	0x1c41
 8421 1c3a 33       		.uleb128 0x33
 8422 1c3b 01       		.uleb128 0x1
 8423 1c3c 50       		.byte	0x50
 8424 1c3d 02       		.uleb128 0x2
 8425 1c3e 77       		.byte	0x77
 8426 1c3f 00       		.sleb128 0
 8427 1c40 00       		.byte	0
 8428 1c41 32       		.uleb128 0x32
 8429 1c42 EA010000 		.4byte	.LVL184
 8430 1c46 22350000 		.4byte	0x3522
 8431 1c4a 33       		.uleb128 0x33
 8432 1c4b 01       		.uleb128 0x1
 8433 1c4c 50       		.byte	0x50
 8434 1c4d 02       		.uleb128 0x2
 8435 1c4e 77       		.byte	0x77
 8436 1c4f 00       		.sleb128 0
 8437 1c50 00       		.byte	0
 8438 1c51 00       		.byte	0
 8439 1c52 00       		.byte	0
 8440 1c53 44       		.uleb128 0x44
 8441 1c54 76050000 		.4byte	.LBB133
 8442 1c58 1E000000 		.4byte	.LBE133-.LBB133
 8443 1c5c 821C0000 		.4byte	0x1c82
 8444 1c60 3B       		.uleb128 0x3b
 8445 1c61 AB130000 		.4byte	0x13ab
 8446 1c65 A20C0000 		.4byte	.LLST64
 8447 1c69 3B       		.uleb128 0x3b
 8448 1c6a B6130000 		.4byte	0x13b6
 8449 1c6e CC0C0000 		.4byte	.LLST65
 8450 1c72 32       		.uleb128 0x32
 8451 1c73 92050000 		.4byte	.LVL313
 8452 1c77 2E350000 		.4byte	0x352e
 8453 1c7b 33       		.uleb128 0x33
 8454 1c7c 01       		.uleb128 0x1
 8455 1c7d 51       		.byte	0x51
 8456 1c7e 01       		.uleb128 0x1
 8457 1c7f 30       		.byte	0x30
 8458 1c80 00       		.byte	0
 8459 1c81 00       		.byte	0
 8460 1c82 34       		.uleb128 0x34
 8461 1c83 4E010000 		.4byte	.LVL161
 8462 1c87 98340000 		.4byte	0x3498
 8463 1c8b 961C0000 		.4byte	0x1c96
 8464 1c8f 33       		.uleb128 0x33
 8465 1c90 01       		.uleb128 0x1
 8466 1c91 50       		.byte	0x50
 8467 1c92 02       		.uleb128 0x2
ARM GAS  C:\Users\pearlstl\AppData\Local\Temp\ccIJtgHD.s 			page 180


 8468 1c93 77       		.byte	0x77
 8469 1c94 00       		.sleb128 0
 8470 1c95 00       		.byte	0
 8471 1c96 35       		.uleb128 0x35
 8472 1c97 64010000 		.4byte	.LVL164
 8473 1c9b A4340000 		.4byte	0x34a4
 8474 1c9f 35       		.uleb128 0x35
 8475 1ca0 6E050000 		.4byte	.LVL310
 8476 1ca4 37350000 		.4byte	0x3537
 8477 1ca8 00       		.byte	0
 8478 1ca9 00       		.byte	0
 8479 1caa 00       		.byte	0
 8480 1cab 00       		.byte	0
 8481 1cac 34       		.uleb128 0x34
 8482 1cad 72000000 		.4byte	.LVL129
 8483 1cb1 98340000 		.4byte	0x3498
 8484 1cb5 C01C0000 		.4byte	0x1cc0
 8485 1cb9 33       		.uleb128 0x33
 8486 1cba 01       		.uleb128 0x1
 8487 1cbb 50       		.byte	0x50
 8488 1cbc 02       		.uleb128 0x2
 8489 1cbd 76       		.byte	0x76
 8490 1cbe 00       		.sleb128 0
 8491 1cbf 00       		.byte	0
 8492 1cc0 34       		.uleb128 0x34
 8493 1cc1 42010000 		.4byte	.LVL159
 8494 1cc5 42350000 		.4byte	0x3542
 8495 1cc9 D41C0000 		.4byte	0x1cd4
 8496 1ccd 33       		.uleb128 0x33
 8497 1cce 01       		.uleb128 0x1
 8498 1ccf 50       		.byte	0x50
 8499 1cd0 02       		.uleb128 0x2
 8500 1cd1 77       		.byte	0x77
 8501 1cd2 00       		.sleb128 0
 8502 1cd3 00       		.byte	0
 8503 1cd4 32       		.uleb128 0x32
 8504 1cd5 F0010000 		.4byte	.LVL185
 8505 1cd9 42350000 		.4byte	0x3542
 8506 1cdd 33       		.uleb128 0x33
 8507 1cde 01       		.uleb128 0x1
 8508 1cdf 50       		.byte	0x50
 8509 1ce0 02       		.uleb128 0x2
 8510 1ce1 77       		.byte	0x77
 8511 1ce2 00       		.sleb128 0
 8512 1ce3 00       		.byte	0
 8513 1ce4 00       		.byte	0
 8514 1ce5 31       		.uleb128 0x31
 8515 1ce6 70010000 		.4byte	.Ldebug_ranges0+0x170
 8516 1cea 7C230000 		.4byte	0x237c
 8517 1cee 42       		.uleb128 0x42
 8518 1cef 746800   		.ascii	"th\000"
 8519 1cf2 01       		.byte	0x1
 8520 1cf3 5C       		.byte	0x5c
 8521 1cf4 1B240000 		.4byte	0x241b
 8522 1cf8 0A0D0000 		.4byte	.LLST66
 8523 1cfc 43       		.uleb128 0x43
 8524 1cfd C3130000 		.4byte	0x13c3
ARM GAS  C:\Users\pearlstl\AppData\Local\Temp\ccIJtgHD.s 			page 181


 8525 1d01 48020000 		.4byte	.LBB146
 8526 1d05 88010000 		.4byte	.Ldebug_ranges0+0x188
 8527 1d09 01       		.byte	0x1
 8528 1d0a 5E       		.byte	0x5e
 8529 1d0b 431E0000 		.4byte	0x1e43
 8530 1d0f 39       		.uleb128 0x39
 8531 1d10 E8130000 		.4byte	0x13e8
 8532 1d14 490D0000 		.4byte	.LLST67
 8533 1d18 39       		.uleb128 0x39
 8534 1d19 DC130000 		.4byte	0x13dc
 8535 1d1d 720D0000 		.4byte	.LLST68
 8536 1d21 39       		.uleb128 0x39
 8537 1d22 D0130000 		.4byte	0x13d0
 8538 1d26 9E0D0000 		.4byte	.LLST69
 8539 1d2a 3A       		.uleb128 0x3a
 8540 1d2b 88010000 		.4byte	.Ldebug_ranges0+0x188
 8541 1d2f 45       		.uleb128 0x45
 8542 1d30 F4130000 		.4byte	0x13f4
 8543 1d34 31       		.uleb128 0x31
 8544 1d35 A8010000 		.4byte	.Ldebug_ranges0+0x1a8
 8545 1d39 311E0000 		.4byte	0x1e31
 8546 1d3d 39       		.uleb128 0x39
 8547 1d3e DC130000 		.4byte	0x13dc
 8548 1d42 C70D0000 		.4byte	.LLST70
 8549 1d46 39       		.uleb128 0x39
 8550 1d47 E8130000 		.4byte	0x13e8
 8551 1d4b F30D0000 		.4byte	.LLST71
 8552 1d4f 39       		.uleb128 0x39
 8553 1d50 D0130000 		.4byte	0x13d0
 8554 1d54 1C0E0000 		.4byte	.LLST72
 8555 1d58 3A       		.uleb128 0x3a
 8556 1d59 A8010000 		.4byte	.Ldebug_ranges0+0x1a8
 8557 1d5d 45       		.uleb128 0x45
 8558 1d5e F4130000 		.4byte	0x13f4
 8559 1d62 46       		.uleb128 0x46
 8560 1d63 DA180000 		.4byte	0x18da
 8561 1d67 56020000 		.4byte	.LBB150
 8562 1d6b C8010000 		.4byte	.Ldebug_ranges0+0x1c8
 8563 1d6f 01       		.byte	0x1
 8564 1d70 8F01     		.2byte	0x18f
 8565 1d72 191E0000 		.4byte	0x1e19
 8566 1d76 39       		.uleb128 0x39
 8567 1d77 E7180000 		.4byte	0x18e7
 8568 1d7b 450E0000 		.4byte	.LLST73
 8569 1d7f 3A       		.uleb128 0x3a
 8570 1d80 C8010000 		.4byte	.Ldebug_ranges0+0x1c8
 8571 1d84 3B       		.uleb128 0x3b
 8572 1d85 F3180000 		.4byte	0x18f3
 8573 1d89 6E0E0000 		.4byte	.LLST74
 8574 1d8d 3B       		.uleb128 0x3b
 8575 1d8e FD180000 		.4byte	0x18fd
 8576 1d92 A50E0000 		.4byte	.LLST75
 8577 1d96 3B       		.uleb128 0x3b
 8578 1d97 07190000 		.4byte	0x1907
 8579 1d9b D00E0000 		.4byte	.LLST76
 8580 1d9f 3B       		.uleb128 0x3b
 8581 1da0 13190000 		.4byte	0x1913
ARM GAS  C:\Users\pearlstl\AppData\Local\Temp\ccIJtgHD.s 			page 182


 8582 1da4 040F0000 		.4byte	.LLST77
 8583 1da8 3B       		.uleb128 0x3b
 8584 1da9 1D190000 		.4byte	0x191d
 8585 1dad 520F0000 		.4byte	.LLST78
 8586 1db1 34       		.uleb128 0x34
 8587 1db2 5C020000 		.4byte	.LVL198
 8588 1db6 98340000 		.4byte	0x3498
 8589 1dba C51D0000 		.4byte	0x1dc5
 8590 1dbe 33       		.uleb128 0x33
 8591 1dbf 01       		.uleb128 0x1
 8592 1dc0 50       		.byte	0x50
 8593 1dc1 02       		.uleb128 0x2
 8594 1dc2 77       		.byte	0x77
 8595 1dc3 00       		.sleb128 0
 8596 1dc4 00       		.byte	0
 8597 1dc5 34       		.uleb128 0x34
 8598 1dc6 9E020000 		.4byte	.LVL205
 8599 1dca 01140000 		.4byte	0x1401
 8600 1dce DF1D0000 		.4byte	0x1ddf
 8601 1dd2 33       		.uleb128 0x33
 8602 1dd3 01       		.uleb128 0x1
 8603 1dd4 50       		.byte	0x50
 8604 1dd5 02       		.uleb128 0x2
 8605 1dd6 77       		.byte	0x77
 8606 1dd7 00       		.sleb128 0
 8607 1dd8 33       		.uleb128 0x33
 8608 1dd9 01       		.uleb128 0x1
 8609 1dda 51       		.byte	0x51
 8610 1ddb 02       		.uleb128 0x2
 8611 1ddc 74       		.byte	0x74
 8612 1ddd 00       		.sleb128 0
 8613 1dde 00       		.byte	0
 8614 1ddf 34       		.uleb128 0x34
 8615 1de0 BA020000 		.4byte	.LVL209
 8616 1de4 FE340000 		.4byte	0x34fe
 8617 1de8 F31D0000 		.4byte	0x1df3
 8618 1dec 33       		.uleb128 0x33
 8619 1ded 01       		.uleb128 0x1
 8620 1dee 50       		.byte	0x50
 8621 1def 02       		.uleb128 0x2
 8622 1df0 77       		.byte	0x77
 8623 1df1 00       		.sleb128 0
 8624 1df2 00       		.byte	0
 8625 1df3 34       		.uleb128 0x34
 8626 1df4 DA020000 		.4byte	.LVL213
 8627 1df8 16350000 		.4byte	0x3516
 8628 1dfc 071E0000 		.4byte	0x1e07
 8629 1e00 33       		.uleb128 0x33
 8630 1e01 01       		.uleb128 0x1
 8631 1e02 50       		.byte	0x50
 8632 1e03 02       		.uleb128 0x2
 8633 1e04 77       		.byte	0x77
 8634 1e05 00       		.sleb128 0
 8635 1e06 00       		.byte	0
 8636 1e07 32       		.uleb128 0x32
 8637 1e08 E0020000 		.4byte	.LVL214
 8638 1e0c 22350000 		.4byte	0x3522
ARM GAS  C:\Users\pearlstl\AppData\Local\Temp\ccIJtgHD.s 			page 183


 8639 1e10 33       		.uleb128 0x33
 8640 1e11 01       		.uleb128 0x1
 8641 1e12 50       		.byte	0x50
 8642 1e13 02       		.uleb128 0x2
 8643 1e14 77       		.byte	0x77
 8644 1e15 00       		.sleb128 0
 8645 1e16 00       		.byte	0
 8646 1e17 00       		.byte	0
 8647 1e18 00       		.byte	0
 8648 1e19 32       		.uleb128 0x32
 8649 1e1a 56020000 		.4byte	.LVL197
 8650 1e1e 4E350000 		.4byte	0x354e
 8651 1e22 33       		.uleb128 0x33
 8652 1e23 01       		.uleb128 0x1
 8653 1e24 50       		.byte	0x50
 8654 1e25 02       		.uleb128 0x2
 8655 1e26 77       		.byte	0x77
 8656 1e27 00       		.sleb128 0
 8657 1e28 33       		.uleb128 0x33
 8658 1e29 01       		.uleb128 0x1
 8659 1e2a 51       		.byte	0x51
 8660 1e2b 02       		.uleb128 0x2
 8661 1e2c 74       		.byte	0x74
 8662 1e2d 00       		.sleb128 0
 8663 1e2e 00       		.byte	0
 8664 1e2f 00       		.byte	0
 8665 1e30 00       		.byte	0
 8666 1e31 32       		.uleb128 0x32
 8667 1e32 4E020000 		.4byte	.LVL196
 8668 1e36 98340000 		.4byte	0x3498
 8669 1e3a 33       		.uleb128 0x33
 8670 1e3b 01       		.uleb128 0x1
 8671 1e3c 50       		.byte	0x50
 8672 1e3d 02       		.uleb128 0x2
 8673 1e3e 77       		.byte	0x77
 8674 1e3f 00       		.sleb128 0
 8675 1e40 00       		.byte	0
 8676 1e41 00       		.byte	0
 8677 1e42 00       		.byte	0
 8678 1e43 43       		.uleb128 0x43
 8679 1e44 C3130000 		.4byte	0x13c3
 8680 1e48 E0020000 		.4byte	.LBB162
 8681 1e4c E8010000 		.4byte	.Ldebug_ranges0+0x1e8
 8682 1e50 01       		.byte	0x1
 8683 1e51 5F       		.byte	0x5f
 8684 1e52 481F0000 		.4byte	0x1f48
 8685 1e56 39       		.uleb128 0x39
 8686 1e57 E8130000 		.4byte	0x13e8
 8687 1e5b 700F0000 		.4byte	.LLST79
 8688 1e5f 39       		.uleb128 0x39
 8689 1e60 DC130000 		.4byte	0x13dc
 8690 1e64 990F0000 		.4byte	.LLST80
 8691 1e68 39       		.uleb128 0x39
 8692 1e69 D0130000 		.4byte	0x13d0
 8693 1e6d C50F0000 		.4byte	.LLST81
 8694 1e71 3A       		.uleb128 0x3a
 8695 1e72 E8010000 		.4byte	.Ldebug_ranges0+0x1e8
ARM GAS  C:\Users\pearlstl\AppData\Local\Temp\ccIJtgHD.s 			page 184


 8696 1e76 3B       		.uleb128 0x3b
 8697 1e77 F4130000 		.4byte	0x13f4
 8698 1e7b EE0F0000 		.4byte	.LLST82
 8699 1e7f 46       		.uleb128 0x46
 8700 1e80 DA180000 		.4byte	0x18da
 8701 1e84 EC020000 		.4byte	.LBB164
 8702 1e88 10020000 		.4byte	.Ldebug_ranges0+0x210
 8703 1e8c 01       		.byte	0x1
 8704 1e8d 9301     		.2byte	0x193
 8705 1e8f 361F0000 		.4byte	0x1f36
 8706 1e93 39       		.uleb128 0x39
 8707 1e94 E7180000 		.4byte	0x18e7
 8708 1e98 01100000 		.4byte	.LLST83
 8709 1e9c 3A       		.uleb128 0x3a
 8710 1e9d 10020000 		.4byte	.Ldebug_ranges0+0x210
 8711 1ea1 3B       		.uleb128 0x3b
 8712 1ea2 F3180000 		.4byte	0x18f3
 8713 1ea6 2A100000 		.4byte	.LLST84
 8714 1eaa 3B       		.uleb128 0x3b
 8715 1eab FD180000 		.4byte	0x18fd
 8716 1eaf 61100000 		.4byte	.LLST85
 8717 1eb3 3B       		.uleb128 0x3b
 8718 1eb4 07190000 		.4byte	0x1907
 8719 1eb8 8C100000 		.4byte	.LLST86
 8720 1ebc 3B       		.uleb128 0x3b
 8721 1ebd 13190000 		.4byte	0x1913
 8722 1ec1 C0100000 		.4byte	.LLST87
 8723 1ec5 3B       		.uleb128 0x3b
 8724 1ec6 1D190000 		.4byte	0x191d
 8725 1eca 0E110000 		.4byte	.LLST88
 8726 1ece 34       		.uleb128 0x34
 8727 1ecf F2020000 		.4byte	.LVL219
 8728 1ed3 98340000 		.4byte	0x3498
 8729 1ed7 E21E0000 		.4byte	0x1ee2
 8730 1edb 33       		.uleb128 0x33
 8731 1edc 01       		.uleb128 0x1
 8732 1edd 50       		.byte	0x50
 8733 1ede 02       		.uleb128 0x2
 8734 1edf 77       		.byte	0x77
 8735 1ee0 00       		.sleb128 0
 8736 1ee1 00       		.byte	0
 8737 1ee2 34       		.uleb128 0x34
 8738 1ee3 36030000 		.4byte	.LVL226
 8739 1ee7 01140000 		.4byte	0x1401
 8740 1eeb FC1E0000 		.4byte	0x1efc
 8741 1eef 33       		.uleb128 0x33
 8742 1ef0 01       		.uleb128 0x1
 8743 1ef1 50       		.byte	0x50
 8744 1ef2 02       		.uleb128 0x2
 8745 1ef3 77       		.byte	0x77
 8746 1ef4 00       		.sleb128 0
 8747 1ef5 33       		.uleb128 0x33
 8748 1ef6 01       		.uleb128 0x1
 8749 1ef7 51       		.byte	0x51
 8750 1ef8 02       		.uleb128 0x2
 8751 1ef9 74       		.byte	0x74
 8752 1efa 00       		.sleb128 0
ARM GAS  C:\Users\pearlstl\AppData\Local\Temp\ccIJtgHD.s 			page 185


 8753 1efb 00       		.byte	0
 8754 1efc 34       		.uleb128 0x34
 8755 1efd 52030000 		.4byte	.LVL230
 8756 1f01 FE340000 		.4byte	0x34fe
 8757 1f05 101F0000 		.4byte	0x1f10
 8758 1f09 33       		.uleb128 0x33
 8759 1f0a 01       		.uleb128 0x1
 8760 1f0b 50       		.byte	0x50
 8761 1f0c 02       		.uleb128 0x2
 8762 1f0d 77       		.byte	0x77
 8763 1f0e 00       		.sleb128 0
 8764 1f0f 00       		.byte	0
 8765 1f10 34       		.uleb128 0x34
 8766 1f11 72030000 		.4byte	.LVL234
 8767 1f15 16350000 		.4byte	0x3516
 8768 1f19 241F0000 		.4byte	0x1f24
 8769 1f1d 33       		.uleb128 0x33
 8770 1f1e 01       		.uleb128 0x1
 8771 1f1f 50       		.byte	0x50
 8772 1f20 02       		.uleb128 0x2
 8773 1f21 77       		.byte	0x77
 8774 1f22 00       		.sleb128 0
 8775 1f23 00       		.byte	0
 8776 1f24 32       		.uleb128 0x32
 8777 1f25 78030000 		.4byte	.LVL235
 8778 1f29 22350000 		.4byte	0x3522
 8779 1f2d 33       		.uleb128 0x33
 8780 1f2e 01       		.uleb128 0x1
 8781 1f2f 50       		.byte	0x50
 8782 1f30 02       		.uleb128 0x2
 8783 1f31 77       		.byte	0x77
 8784 1f32 00       		.sleb128 0
 8785 1f33 00       		.byte	0
 8786 1f34 00       		.byte	0
 8787 1f35 00       		.byte	0
 8788 1f36 32       		.uleb128 0x32
 8789 1f37 EA020000 		.4byte	.LVL216
 8790 1f3b 98340000 		.4byte	0x3498
 8791 1f3f 33       		.uleb128 0x33
 8792 1f40 01       		.uleb128 0x1
 8793 1f41 50       		.byte	0x50
 8794 1f42 02       		.uleb128 0x2
 8795 1f43 77       		.byte	0x77
 8796 1f44 00       		.sleb128 0
 8797 1f45 00       		.byte	0
 8798 1f46 00       		.byte	0
 8799 1f47 00       		.byte	0
 8800 1f48 43       		.uleb128 0x43
 8801 1f49 C3130000 		.4byte	0x13c3
 8802 1f4d 78030000 		.4byte	.LBB174
 8803 1f51 30020000 		.4byte	.Ldebug_ranges0+0x230
 8804 1f55 01       		.byte	0x1
 8805 1f56 60       		.byte	0x60
 8806 1f57 4D200000 		.4byte	0x204d
 8807 1f5b 39       		.uleb128 0x39
 8808 1f5c E8130000 		.4byte	0x13e8
 8809 1f60 2C110000 		.4byte	.LLST89
ARM GAS  C:\Users\pearlstl\AppData\Local\Temp\ccIJtgHD.s 			page 186


 8810 1f64 39       		.uleb128 0x39
 8811 1f65 DC130000 		.4byte	0x13dc
 8812 1f69 4A110000 		.4byte	.LLST90
 8813 1f6d 39       		.uleb128 0x39
 8814 1f6e D0130000 		.4byte	0x13d0
 8815 1f72 6A110000 		.4byte	.LLST91
 8816 1f76 3A       		.uleb128 0x3a
 8817 1f77 30020000 		.4byte	.Ldebug_ranges0+0x230
 8818 1f7b 3B       		.uleb128 0x3b
 8819 1f7c F4130000 		.4byte	0x13f4
 8820 1f80 88110000 		.4byte	.LLST92
 8821 1f84 46       		.uleb128 0x46
 8822 1f85 DA180000 		.4byte	0x18da
 8823 1f89 84030000 		.4byte	.LBB176
 8824 1f8d 50020000 		.4byte	.Ldebug_ranges0+0x250
 8825 1f91 01       		.byte	0x1
 8826 1f92 9701     		.2byte	0x197
 8827 1f94 3B200000 		.4byte	0x203b
 8828 1f98 39       		.uleb128 0x39
 8829 1f99 E7180000 		.4byte	0x18e7
 8830 1f9d 9B110000 		.4byte	.LLST93
 8831 1fa1 3A       		.uleb128 0x3a
 8832 1fa2 50020000 		.4byte	.Ldebug_ranges0+0x250
 8833 1fa6 3B       		.uleb128 0x3b
 8834 1fa7 F3180000 		.4byte	0x18f3
 8835 1fab B9110000 		.4byte	.LLST94
 8836 1faf 3B       		.uleb128 0x3b
 8837 1fb0 FD180000 		.4byte	0x18fd
 8838 1fb4 E4110000 		.4byte	.LLST95
 8839 1fb8 3B       		.uleb128 0x3b
 8840 1fb9 07190000 		.4byte	0x1907
 8841 1fbd 0F120000 		.4byte	.LLST96
 8842 1fc1 3B       		.uleb128 0x3b
 8843 1fc2 13190000 		.4byte	0x1913
 8844 1fc6 43120000 		.4byte	.LLST97
 8845 1fca 3B       		.uleb128 0x3b
 8846 1fcb 1D190000 		.4byte	0x191d
 8847 1fcf 85120000 		.4byte	.LLST98
 8848 1fd3 34       		.uleb128 0x34
 8849 1fd4 8A030000 		.4byte	.LVL240
 8850 1fd8 98340000 		.4byte	0x3498
 8851 1fdc E71F0000 		.4byte	0x1fe7
 8852 1fe0 33       		.uleb128 0x33
 8853 1fe1 01       		.uleb128 0x1
 8854 1fe2 50       		.byte	0x50
 8855 1fe3 02       		.uleb128 0x2
 8856 1fe4 77       		.byte	0x77
 8857 1fe5 00       		.sleb128 0
 8858 1fe6 00       		.byte	0
 8859 1fe7 34       		.uleb128 0x34
 8860 1fe8 CE030000 		.4byte	.LVL247
 8861 1fec 01140000 		.4byte	0x1401
 8862 1ff0 01200000 		.4byte	0x2001
 8863 1ff4 33       		.uleb128 0x33
 8864 1ff5 01       		.uleb128 0x1
 8865 1ff6 50       		.byte	0x50
 8866 1ff7 02       		.uleb128 0x2
ARM GAS  C:\Users\pearlstl\AppData\Local\Temp\ccIJtgHD.s 			page 187


 8867 1ff8 77       		.byte	0x77
 8868 1ff9 00       		.sleb128 0
 8869 1ffa 33       		.uleb128 0x33
 8870 1ffb 01       		.uleb128 0x1
 8871 1ffc 51       		.byte	0x51
 8872 1ffd 02       		.uleb128 0x2
 8873 1ffe 74       		.byte	0x74
 8874 1fff 00       		.sleb128 0
 8875 2000 00       		.byte	0
 8876 2001 34       		.uleb128 0x34
 8877 2002 EA030000 		.4byte	.LVL251
 8878 2006 FE340000 		.4byte	0x34fe
 8879 200a 15200000 		.4byte	0x2015
 8880 200e 33       		.uleb128 0x33
 8881 200f 01       		.uleb128 0x1
 8882 2010 50       		.byte	0x50
 8883 2011 02       		.uleb128 0x2
 8884 2012 77       		.byte	0x77
 8885 2013 00       		.sleb128 0
 8886 2014 00       		.byte	0
 8887 2015 34       		.uleb128 0x34
 8888 2016 0A040000 		.4byte	.LVL255
 8889 201a 16350000 		.4byte	0x3516
 8890 201e 29200000 		.4byte	0x2029
 8891 2022 33       		.uleb128 0x33
 8892 2023 01       		.uleb128 0x1
 8893 2024 50       		.byte	0x50
 8894 2025 02       		.uleb128 0x2
 8895 2026 77       		.byte	0x77
 8896 2027 00       		.sleb128 0
 8897 2028 00       		.byte	0
 8898 2029 32       		.uleb128 0x32
 8899 202a 10040000 		.4byte	.LVL256
 8900 202e 22350000 		.4byte	0x3522
 8901 2032 33       		.uleb128 0x33
 8902 2033 01       		.uleb128 0x1
 8903 2034 50       		.byte	0x50
 8904 2035 02       		.uleb128 0x2
 8905 2036 77       		.byte	0x77
 8906 2037 00       		.sleb128 0
 8907 2038 00       		.byte	0
 8908 2039 00       		.byte	0
 8909 203a 00       		.byte	0
 8910 203b 32       		.uleb128 0x32
 8911 203c 82030000 		.4byte	.LVL237
 8912 2040 98340000 		.4byte	0x3498
 8913 2044 33       		.uleb128 0x33
 8914 2045 01       		.uleb128 0x1
 8915 2046 50       		.byte	0x50
 8916 2047 02       		.uleb128 0x2
 8917 2048 77       		.byte	0x77
 8918 2049 00       		.sleb128 0
 8919 204a 00       		.byte	0
 8920 204b 00       		.byte	0
 8921 204c 00       		.byte	0
 8922 204d 43       		.uleb128 0x43
 8923 204e C3130000 		.4byte	0x13c3
ARM GAS  C:\Users\pearlstl\AppData\Local\Temp\ccIJtgHD.s 			page 188


 8924 2052 10040000 		.4byte	.LBB183
 8925 2056 68020000 		.4byte	.Ldebug_ranges0+0x268
 8926 205a 01       		.byte	0x1
 8927 205b 61       		.byte	0x61
 8928 205c 52210000 		.4byte	0x2152
 8929 2060 39       		.uleb128 0x39
 8930 2061 E8130000 		.4byte	0x13e8
 8931 2065 A3120000 		.4byte	.LLST99
 8932 2069 39       		.uleb128 0x39
 8933 206a DC130000 		.4byte	0x13dc
 8934 206e CC120000 		.4byte	.LLST100
 8935 2072 39       		.uleb128 0x39
 8936 2073 D0130000 		.4byte	0x13d0
 8937 2077 F8120000 		.4byte	.LLST101
 8938 207b 3A       		.uleb128 0x3a
 8939 207c 68020000 		.4byte	.Ldebug_ranges0+0x268
 8940 2080 3B       		.uleb128 0x3b
 8941 2081 F4130000 		.4byte	0x13f4
 8942 2085 21130000 		.4byte	.LLST102
 8943 2089 46       		.uleb128 0x46
 8944 208a DA180000 		.4byte	0x18da
 8945 208e 1C040000 		.4byte	.LBB185
 8946 2092 90020000 		.4byte	.Ldebug_ranges0+0x290
 8947 2096 01       		.byte	0x1
 8948 2097 9B01     		.2byte	0x19b
 8949 2099 40210000 		.4byte	0x2140
 8950 209d 39       		.uleb128 0x39
 8951 209e E7180000 		.4byte	0x18e7
 8952 20a2 34130000 		.4byte	.LLST103
 8953 20a6 3A       		.uleb128 0x3a
 8954 20a7 90020000 		.4byte	.Ldebug_ranges0+0x290
 8955 20ab 3B       		.uleb128 0x3b
 8956 20ac F3180000 		.4byte	0x18f3
 8957 20b0 5D130000 		.4byte	.LLST104
 8958 20b4 3B       		.uleb128 0x3b
 8959 20b5 FD180000 		.4byte	0x18fd
 8960 20b9 94130000 		.4byte	.LLST105
 8961 20bd 3B       		.uleb128 0x3b
 8962 20be 07190000 		.4byte	0x1907
 8963 20c2 BF130000 		.4byte	.LLST106
 8964 20c6 3B       		.uleb128 0x3b
 8965 20c7 13190000 		.4byte	0x1913
 8966 20cb F3130000 		.4byte	.LLST107
 8967 20cf 3B       		.uleb128 0x3b
 8968 20d0 1D190000 		.4byte	0x191d
 8969 20d4 41140000 		.4byte	.LLST108
 8970 20d8 34       		.uleb128 0x34
 8971 20d9 22040000 		.4byte	.LVL261
 8972 20dd 98340000 		.4byte	0x3498
 8973 20e1 EC200000 		.4byte	0x20ec
 8974 20e5 33       		.uleb128 0x33
 8975 20e6 01       		.uleb128 0x1
 8976 20e7 50       		.byte	0x50
 8977 20e8 02       		.uleb128 0x2
 8978 20e9 77       		.byte	0x77
 8979 20ea 00       		.sleb128 0
 8980 20eb 00       		.byte	0
ARM GAS  C:\Users\pearlstl\AppData\Local\Temp\ccIJtgHD.s 			page 189


 8981 20ec 34       		.uleb128 0x34
 8982 20ed 66040000 		.4byte	.LVL268
 8983 20f1 01140000 		.4byte	0x1401
 8984 20f5 06210000 		.4byte	0x2106
 8985 20f9 33       		.uleb128 0x33
 8986 20fa 01       		.uleb128 0x1
 8987 20fb 50       		.byte	0x50
 8988 20fc 02       		.uleb128 0x2
 8989 20fd 77       		.byte	0x77
 8990 20fe 00       		.sleb128 0
 8991 20ff 33       		.uleb128 0x33
 8992 2100 01       		.uleb128 0x1
 8993 2101 51       		.byte	0x51
 8994 2102 02       		.uleb128 0x2
 8995 2103 74       		.byte	0x74
 8996 2104 00       		.sleb128 0
 8997 2105 00       		.byte	0
 8998 2106 34       		.uleb128 0x34
 8999 2107 82040000 		.4byte	.LVL272
 9000 210b FE340000 		.4byte	0x34fe
 9001 210f 1A210000 		.4byte	0x211a
 9002 2113 33       		.uleb128 0x33
 9003 2114 01       		.uleb128 0x1
 9004 2115 50       		.byte	0x50
 9005 2116 02       		.uleb128 0x2
 9006 2117 77       		.byte	0x77
 9007 2118 00       		.sleb128 0
 9008 2119 00       		.byte	0
 9009 211a 34       		.uleb128 0x34
 9010 211b A2040000 		.4byte	.LVL276
 9011 211f 16350000 		.4byte	0x3516
 9012 2123 2E210000 		.4byte	0x212e
 9013 2127 33       		.uleb128 0x33
 9014 2128 01       		.uleb128 0x1
 9015 2129 50       		.byte	0x50
 9016 212a 02       		.uleb128 0x2
 9017 212b 77       		.byte	0x77
 9018 212c 00       		.sleb128 0
 9019 212d 00       		.byte	0
 9020 212e 32       		.uleb128 0x32
 9021 212f A8040000 		.4byte	.LVL277
 9022 2133 22350000 		.4byte	0x3522
 9023 2137 33       		.uleb128 0x33
 9024 2138 01       		.uleb128 0x1
 9025 2139 50       		.byte	0x50
 9026 213a 02       		.uleb128 0x2
 9027 213b 77       		.byte	0x77
 9028 213c 00       		.sleb128 0
 9029 213d 00       		.byte	0
 9030 213e 00       		.byte	0
 9031 213f 00       		.byte	0
 9032 2140 32       		.uleb128 0x32
 9033 2141 1A040000 		.4byte	.LVL258
 9034 2145 98340000 		.4byte	0x3498
 9035 2149 33       		.uleb128 0x33
 9036 214a 01       		.uleb128 0x1
 9037 214b 50       		.byte	0x50
ARM GAS  C:\Users\pearlstl\AppData\Local\Temp\ccIJtgHD.s 			page 190


 9038 214c 02       		.uleb128 0x2
 9039 214d 77       		.byte	0x77
 9040 214e 00       		.sleb128 0
 9041 214f 00       		.byte	0
 9042 2150 00       		.byte	0
 9043 2151 00       		.byte	0
 9044 2152 43       		.uleb128 0x43
 9045 2153 C3130000 		.4byte	0x13c3
 9046 2157 A8040000 		.4byte	.LBB195
 9047 215b B0020000 		.4byte	.Ldebug_ranges0+0x2b0
 9048 215f 01       		.byte	0x1
 9049 2160 62       		.byte	0x62
 9050 2161 2F220000 		.4byte	0x222f
 9051 2165 39       		.uleb128 0x39
 9052 2166 E8130000 		.4byte	0x13e8
 9053 216a 5F140000 		.4byte	.LLST109
 9054 216e 39       		.uleb128 0x39
 9055 216f DC130000 		.4byte	0x13dc
 9056 2173 72140000 		.4byte	.LLST110
 9057 2177 39       		.uleb128 0x39
 9058 2178 D0130000 		.4byte	0x13d0
 9059 217c 92140000 		.4byte	.LLST111
 9060 2180 3A       		.uleb128 0x3a
 9061 2181 B0020000 		.4byte	.Ldebug_ranges0+0x2b0
 9062 2185 3B       		.uleb128 0x3b
 9063 2186 F4130000 		.4byte	0x13f4
 9064 218a B0140000 		.4byte	.LLST112
 9065 218e 46       		.uleb128 0x46
 9066 218f DA180000 		.4byte	0x18da
 9067 2193 B4040000 		.4byte	.LBB197
 9068 2197 D0020000 		.4byte	.Ldebug_ranges0+0x2d0
 9069 219b 01       		.byte	0x1
 9070 219c 9F01     		.2byte	0x19f
 9071 219e 1D220000 		.4byte	0x221d
 9072 21a2 39       		.uleb128 0x39
 9073 21a3 E7180000 		.4byte	0x18e7
 9074 21a7 C3140000 		.4byte	.LLST113
 9075 21ab 3A       		.uleb128 0x3a
 9076 21ac D0020000 		.4byte	.Ldebug_ranges0+0x2d0
 9077 21b0 3B       		.uleb128 0x3b
 9078 21b1 F3180000 		.4byte	0x18f3
 9079 21b5 E1140000 		.4byte	.LLST114
 9080 21b9 3B       		.uleb128 0x3b
 9081 21ba FD180000 		.4byte	0x18fd
 9082 21be 0C150000 		.4byte	.LLST115
 9083 21c2 3B       		.uleb128 0x3b
 9084 21c3 07190000 		.4byte	0x1907
 9085 21c7 2B150000 		.4byte	.LLST116
 9086 21cb 3B       		.uleb128 0x3b
 9087 21cc 13190000 		.4byte	0x1913
 9088 21d0 54150000 		.4byte	.LLST117
 9089 21d4 3B       		.uleb128 0x3b
 9090 21d5 1D190000 		.4byte	0x191d
 9091 21d9 96150000 		.4byte	.LLST118
 9092 21dd 34       		.uleb128 0x34
 9093 21de BA040000 		.4byte	.LVL282
 9094 21e2 98340000 		.4byte	0x3498
ARM GAS  C:\Users\pearlstl\AppData\Local\Temp\ccIJtgHD.s 			page 191


 9095 21e6 F1210000 		.4byte	0x21f1
 9096 21ea 33       		.uleb128 0x33
 9097 21eb 01       		.uleb128 0x1
 9098 21ec 50       		.byte	0x50
 9099 21ed 02       		.uleb128 0x2
 9100 21ee 77       		.byte	0x77
 9101 21ef 00       		.sleb128 0
 9102 21f0 00       		.byte	0
 9103 21f1 34       		.uleb128 0x34
 9104 21f2 F4040000 		.4byte	.LVL290
 9105 21f6 01140000 		.4byte	0x1401
 9106 21fa 0B220000 		.4byte	0x220b
 9107 21fe 33       		.uleb128 0x33
 9108 21ff 01       		.uleb128 0x1
 9109 2200 50       		.byte	0x50
 9110 2201 02       		.uleb128 0x2
 9111 2202 77       		.byte	0x77
 9112 2203 00       		.sleb128 0
 9113 2204 33       		.uleb128 0x33
 9114 2205 01       		.uleb128 0x1
 9115 2206 51       		.byte	0x51
 9116 2207 02       		.uleb128 0x2
 9117 2208 75       		.byte	0x75
 9118 2209 00       		.sleb128 0
 9119 220a 00       		.byte	0
 9120 220b 32       		.uleb128 0x32
 9121 220c 10050000 		.4byte	.LVL294
 9122 2210 FE340000 		.4byte	0x34fe
 9123 2214 33       		.uleb128 0x33
 9124 2215 01       		.uleb128 0x1
 9125 2216 50       		.byte	0x50
 9126 2217 02       		.uleb128 0x2
 9127 2218 77       		.byte	0x77
 9128 2219 00       		.sleb128 0
 9129 221a 00       		.byte	0
 9130 221b 00       		.byte	0
 9131 221c 00       		.byte	0
 9132 221d 32       		.uleb128 0x32
 9133 221e B2040000 		.4byte	.LVL279
 9134 2222 98340000 		.4byte	0x3498
 9135 2226 33       		.uleb128 0x33
 9136 2227 01       		.uleb128 0x1
 9137 2228 50       		.byte	0x50
 9138 2229 02       		.uleb128 0x2
 9139 222a 77       		.byte	0x77
 9140 222b 00       		.sleb128 0
 9141 222c 00       		.byte	0
 9142 222d 00       		.byte	0
 9143 222e 00       		.byte	0
 9144 222f 43       		.uleb128 0x43
 9145 2230 C3130000 		.4byte	0x13c3
 9146 2234 26050000 		.4byte	.LBB204
 9147 2238 E8020000 		.4byte	.Ldebug_ranges0+0x2e8
 9148 223c 01       		.byte	0x1
 9149 223d 64       		.byte	0x64
 9150 223e 5D230000 		.4byte	0x235d
 9151 2242 47       		.uleb128 0x47
ARM GAS  C:\Users\pearlstl\AppData\Local\Temp\ccIJtgHD.s 			page 192


 9152 2243 E8130000 		.4byte	0x13e8
 9153 2247 39       		.uleb128 0x39
 9154 2248 DC130000 		.4byte	0x13dc
 9155 224c B4150000 		.4byte	.LLST119
 9156 2250 39       		.uleb128 0x39
 9157 2251 D0130000 		.4byte	0x13d0
 9158 2255 D4150000 		.4byte	.LLST120
 9159 2259 3A       		.uleb128 0x3a
 9160 225a E8020000 		.4byte	.Ldebug_ranges0+0x2e8
 9161 225e 45       		.uleb128 0x45
 9162 225f F4130000 		.4byte	0x13f4
 9163 2263 31       		.uleb128 0x31
 9164 2264 08030000 		.4byte	.Ldebug_ranges0+0x308
 9165 2268 4B230000 		.4byte	0x234b
 9166 226c 39       		.uleb128 0x39
 9167 226d DC130000 		.4byte	0x13dc
 9168 2271 F2150000 		.4byte	.LLST121
 9169 2275 47       		.uleb128 0x47
 9170 2276 E8130000 		.4byte	0x13e8
 9171 227a 39       		.uleb128 0x39
 9172 227b D0130000 		.4byte	0x13d0
 9173 227f 12160000 		.4byte	.LLST122
 9174 2283 3A       		.uleb128 0x3a
 9175 2284 08030000 		.4byte	.Ldebug_ranges0+0x308
 9176 2288 45       		.uleb128 0x45
 9177 2289 F4130000 		.4byte	0x13f4
 9178 228d 46       		.uleb128 0x46
 9179 228e DA180000 		.4byte	0x18da
 9180 2292 26050000 		.4byte	.LBB208
 9181 2296 28030000 		.4byte	.Ldebug_ranges0+0x328
 9182 229a 01       		.byte	0x1
 9183 229b 8F01     		.2byte	0x18f
 9184 229d 39230000 		.4byte	0x2339
 9185 22a1 39       		.uleb128 0x39
 9186 22a2 E7180000 		.4byte	0x18e7
 9187 22a6 30160000 		.4byte	.LLST123
 9188 22aa 3A       		.uleb128 0x3a
 9189 22ab 28030000 		.4byte	.Ldebug_ranges0+0x328
 9190 22af 3B       		.uleb128 0x3b
 9191 22b0 F3180000 		.4byte	0x18f3
 9192 22b4 4E160000 		.4byte	.LLST124
 9193 22b8 3B       		.uleb128 0x3b
 9194 22b9 FD180000 		.4byte	0x18fd
 9195 22bd 79160000 		.4byte	.LLST125
 9196 22c1 3B       		.uleb128 0x3b
 9197 22c2 07190000 		.4byte	0x1907
 9198 22c6 AF160000 		.4byte	.LLST126
 9199 22ca 3B       		.uleb128 0x3b
 9200 22cb 13190000 		.4byte	0x1913
 9201 22cf E3160000 		.4byte	.LLST127
 9202 22d3 3B       		.uleb128 0x3b
 9203 22d4 1D190000 		.4byte	0x191d
 9204 22d8 25170000 		.4byte	.LLST128
 9205 22dc 35       		.uleb128 0x35
 9206 22dd 30050000 		.4byte	.LVL299
 9207 22e1 16350000 		.4byte	0x3516
 9208 22e5 34       		.uleb128 0x34
ARM GAS  C:\Users\pearlstl\AppData\Local\Temp\ccIJtgHD.s 			page 193


 9209 22e6 36050000 		.4byte	.LVL300
 9210 22ea 22350000 		.4byte	0x3522
 9211 22ee F9220000 		.4byte	0x22f9
 9212 22f2 33       		.uleb128 0x33
 9213 22f3 01       		.uleb128 0x1
 9214 22f4 50       		.byte	0x50
 9215 22f5 02       		.uleb128 0x2
 9216 22f6 77       		.byte	0x77
 9217 22f7 00       		.sleb128 0
 9218 22f8 00       		.byte	0
 9219 22f9 34       		.uleb128 0x34
 9220 22fa AC050000 		.4byte	.LVL320
 9221 22fe 98340000 		.4byte	0x3498
 9222 2302 0D230000 		.4byte	0x230d
 9223 2306 33       		.uleb128 0x33
 9224 2307 01       		.uleb128 0x1
 9225 2308 50       		.byte	0x50
 9226 2309 02       		.uleb128 0x2
 9227 230a 77       		.byte	0x77
 9228 230b 00       		.sleb128 0
 9229 230c 00       		.byte	0
 9230 230d 34       		.uleb128 0x34
 9231 230e E2050000 		.4byte	.LVL328
 9232 2312 01140000 		.4byte	0x1401
 9233 2316 27230000 		.4byte	0x2327
 9234 231a 33       		.uleb128 0x33
 9235 231b 01       		.uleb128 0x1
 9236 231c 50       		.byte	0x50
 9237 231d 02       		.uleb128 0x2
 9238 231e 77       		.byte	0x77
 9239 231f 00       		.sleb128 0
 9240 2320 33       		.uleb128 0x33
 9241 2321 01       		.uleb128 0x1
 9242 2322 51       		.byte	0x51
 9243 2323 02       		.uleb128 0x2
 9244 2324 75       		.byte	0x75
 9245 2325 00       		.sleb128 0
 9246 2326 00       		.byte	0
 9247 2327 32       		.uleb128 0x32
 9248 2328 FE050000 		.4byte	.LVL332
 9249 232c FE340000 		.4byte	0x34fe
 9250 2330 33       		.uleb128 0x33
 9251 2331 01       		.uleb128 0x1
 9252 2332 50       		.byte	0x50
 9253 2333 02       		.uleb128 0x2
 9254 2334 77       		.byte	0x77
 9255 2335 00       		.sleb128 0
 9256 2336 00       		.byte	0
 9257 2337 00       		.byte	0
 9258 2338 00       		.byte	0
 9259 2339 32       		.uleb128 0x32
 9260 233a A6050000 		.4byte	.LVL319
 9261 233e 4E350000 		.4byte	0x354e
 9262 2342 33       		.uleb128 0x33
 9263 2343 01       		.uleb128 0x1
 9264 2344 50       		.byte	0x50
 9265 2345 02       		.uleb128 0x2
ARM GAS  C:\Users\pearlstl\AppData\Local\Temp\ccIJtgHD.s 			page 194


 9266 2346 77       		.byte	0x77
 9267 2347 00       		.sleb128 0
 9268 2348 00       		.byte	0
 9269 2349 00       		.byte	0
 9270 234a 00       		.byte	0
 9271 234b 32       		.uleb128 0x32
 9272 234c 9E050000 		.4byte	.LVL318
 9273 2350 98340000 		.4byte	0x3498
 9274 2354 33       		.uleb128 0x33
 9275 2355 01       		.uleb128 0x1
 9276 2356 50       		.byte	0x50
 9277 2357 02       		.uleb128 0x2
 9278 2358 77       		.byte	0x77
 9279 2359 00       		.sleb128 0
 9280 235a 00       		.byte	0
 9281 235b 00       		.byte	0
 9282 235c 00       		.byte	0
 9283 235d 35       		.uleb128 0x35
 9284 235e 3C020000 		.4byte	.LVL193
 9285 2362 5A350000 		.4byte	0x355a
 9286 2366 32       		.uleb128 0x32
 9287 2367 3E050000 		.4byte	.LVL301
 9288 236b 66350000 		.4byte	0x3566
 9289 236f 33       		.uleb128 0x33
 9290 2370 01       		.uleb128 0x1
 9291 2371 50       		.byte	0x50
 9292 2372 02       		.uleb128 0x2
 9293 2373 77       		.byte	0x77
 9294 2374 00       		.sleb128 0
 9295 2375 33       		.uleb128 0x33
 9296 2376 01       		.uleb128 0x1
 9297 2377 51       		.byte	0x51
 9298 2378 01       		.uleb128 0x1
 9299 2379 30       		.byte	0x30
 9300 237a 00       		.byte	0
 9301 237b 00       		.byte	0
 9302 237c 34       		.uleb128 0x34
 9303 237d 0A000000 		.4byte	.LVL123
 9304 2381 72350000 		.4byte	0x3572
 9305 2385 97230000 		.4byte	0x2397
 9306 2389 33       		.uleb128 0x33
 9307 238a 01       		.uleb128 0x1
 9308 238b 50       		.byte	0x50
 9309 238c 03       		.uleb128 0x3
 9310 238d F3       		.byte	0xf3
 9311 238e 01       		.uleb128 0x1
 9312 238f 50       		.byte	0x50
 9313 2390 33       		.uleb128 0x33
 9314 2391 01       		.uleb128 0x1
 9315 2392 51       		.byte	0x51
 9316 2393 02       		.uleb128 0x2
 9317 2394 76       		.byte	0x76
 9318 2395 00       		.sleb128 0
 9319 2396 00       		.byte	0
 9320 2397 34       		.uleb128 0x34
 9321 2398 18000000 		.4byte	.LVL124
 9322 239c 7E350000 		.4byte	0x357e
ARM GAS  C:\Users\pearlstl\AppData\Local\Temp\ccIJtgHD.s 			page 195


 9323 23a0 B1230000 		.4byte	0x23b1
 9324 23a4 33       		.uleb128 0x33
 9325 23a5 01       		.uleb128 0x1
 9326 23a6 50       		.byte	0x50
 9327 23a7 02       		.uleb128 0x2
 9328 23a8 77       		.byte	0x77
 9329 23a9 00       		.sleb128 0
 9330 23aa 33       		.uleb128 0x33
 9331 23ab 01       		.uleb128 0x1
 9332 23ac 51       		.byte	0x51
 9333 23ad 02       		.uleb128 0x2
 9334 23ae 08       		.byte	0x8
 9335 23af 30       		.byte	0x30
 9336 23b0 00       		.byte	0
 9337 23b1 34       		.uleb128 0x34
 9338 23b2 5E000000 		.4byte	.LVL127
 9339 23b6 8A350000 		.4byte	0x358a
 9340 23ba CE230000 		.4byte	0x23ce
 9341 23be 33       		.uleb128 0x33
 9342 23bf 01       		.uleb128 0x1
 9343 23c0 50       		.byte	0x50
 9344 23c1 02       		.uleb128 0x2
 9345 23c2 77       		.byte	0x77
 9346 23c3 00       		.sleb128 0
 9347 23c4 33       		.uleb128 0x33
 9348 23c5 01       		.uleb128 0x1
 9349 23c6 51       		.byte	0x51
 9350 23c7 05       		.uleb128 0x5
 9351 23c8 03       		.byte	0x3
 9352 23c9 00000000 		.4byte	lv_table_signal
 9353 23cd 00       		.byte	0
 9354 23ce 34       		.uleb128 0x34
 9355 23cf 66000000 		.4byte	.LVL128
 9356 23d3 96350000 		.4byte	0x3596
 9357 23d7 EB230000 		.4byte	0x23eb
 9358 23db 33       		.uleb128 0x33
 9359 23dc 01       		.uleb128 0x1
 9360 23dd 50       		.byte	0x50
 9361 23de 02       		.uleb128 0x2
 9362 23df 77       		.byte	0x77
 9363 23e0 00       		.sleb128 0
 9364 23e1 33       		.uleb128 0x33
 9365 23e2 01       		.uleb128 0x1
 9366 23e3 51       		.byte	0x51
 9367 23e4 05       		.uleb128 0x5
 9368 23e5 03       		.byte	0x3
 9369 23e6 00000000 		.4byte	lv_table_design
 9370 23ea 00       		.byte	0
 9371 23eb 34       		.uleb128 0x34
 9372 23ec 54050000 		.4byte	.LVL306
 9373 23f0 A2350000 		.4byte	0x35a2
 9374 23f4 FF230000 		.4byte	0x23ff
 9375 23f8 33       		.uleb128 0x33
 9376 23f9 01       		.uleb128 0x1
 9377 23fa 50       		.byte	0x50
 9378 23fb 02       		.uleb128 0x2
 9379 23fc 77       		.byte	0x77
ARM GAS  C:\Users\pearlstl\AppData\Local\Temp\ccIJtgHD.s 			page 196


 9380 23fd 00       		.sleb128 0
 9381 23fe 00       		.byte	0
 9382 23ff 32       		.uleb128 0x32
 9383 2400 5E050000 		.4byte	.LVL307
 9384 2404 AE350000 		.4byte	0x35ae
 9385 2408 33       		.uleb128 0x33
 9386 2409 01       		.uleb128 0x1
 9387 240a 50       		.byte	0x50
 9388 240b 02       		.uleb128 0x2
 9389 240c 77       		.byte	0x77
 9390 240d 00       		.sleb128 0
 9391 240e 00       		.byte	0
 9392 240f 00       		.byte	0
 9393 2410 0D       		.uleb128 0xd
 9394 2411 04       		.byte	0x4
 9395 2412 16240000 		.4byte	0x2416
 9396 2416 0E       		.uleb128 0xe
 9397 2417 DD080000 		.4byte	0x8dd
 9398 241b 0D       		.uleb128 0xd
 9399 241c 04       		.byte	0x4
 9400 241d 06120000 		.4byte	0x1206
 9401 2421 48       		.uleb128 0x48
 9402 2422 10060000 		.4byte	.LASF252
 9403 2426 01       		.byte	0x1
 9404 2427 87       		.byte	0x87
 9405 2428 00000000 		.4byte	.LFB34
 9406 242c 00010000 		.4byte	.LFE34-.LFB34
 9407 2430 01       		.uleb128 0x1
 9408 2431 9C       		.byte	0x9c
 9409 2432 A3250000 		.4byte	0x25a3
 9410 2436 40       		.uleb128 0x40
 9411 2437 D1040000 		.4byte	.LASF214
 9412 243b 01       		.byte	0x1
 9413 243c 87       		.byte	0x87
 9414 243d 66130000 		.4byte	0x1366
 9415 2441 43170000 		.4byte	.LLST129
 9416 2445 3F       		.uleb128 0x3f
 9417 2446 726F7700 		.ascii	"row\000"
 9418 244a 01       		.byte	0x1
 9419 244b 87       		.byte	0x87
 9420 244c C3000000 		.4byte	0xc3
 9421 2450 85170000 		.4byte	.LLST130
 9422 2454 3F       		.uleb128 0x3f
 9423 2455 636F6C00 		.ascii	"col\000"
 9424 2459 01       		.byte	0x1
 9425 245a 87       		.byte	0x87
 9426 245b C3000000 		.4byte	0xc3
 9427 245f A6170000 		.4byte	.LLST131
 9428 2463 3F       		.uleb128 0x3f
 9429 2464 74787400 		.ascii	"txt\000"
 9430 2468 01       		.byte	0x1
 9431 2469 87       		.byte	0x87
 9432 246a 9B020000 		.4byte	0x29b
 9433 246e C7170000 		.4byte	.LLST132
 9434 2472 42       		.uleb128 0x42
 9435 2473 65787400 		.ascii	"ext\000"
 9436 2477 01       		.byte	0x1
ARM GAS  C:\Users\pearlstl\AppData\Local\Temp\ccIJtgHD.s 			page 197


 9437 2478 8C       		.byte	0x8c
 9438 2479 6C130000 		.4byte	0x136c
 9439 247d 0C180000 		.4byte	.LLST133
 9440 2481 41       		.uleb128 0x41
 9441 2482 3A000000 		.4byte	.LASF193
 9442 2486 01       		.byte	0x1
 9443 2487 91       		.byte	0x91
 9444 2488 CE000000 		.4byte	0xce
 9445 248c 40180000 		.4byte	.LLST134
 9446 2490 41       		.uleb128 0x41
 9447 2491 C8060000 		.4byte	.LASF230
 9448 2495 01       		.byte	0x1
 9449 2496 92       		.byte	0x92
 9450 2497 B0090000 		.4byte	0x9b0
 9451 249b 67180000 		.4byte	.LLST135
 9452 249f 43       		.uleb128 0x43
 9453 24a0 DA180000 		.4byte	0x18da
 9454 24a4 58000000 		.4byte	.LBB235
 9455 24a8 48030000 		.4byte	.Ldebug_ranges0+0x348
 9456 24ac 01       		.byte	0x1
 9457 24ad AC       		.byte	0xac
 9458 24ae 56250000 		.4byte	0x2556
 9459 24b2 39       		.uleb128 0x39
 9460 24b3 E7180000 		.4byte	0x18e7
 9461 24b7 7A180000 		.4byte	.LLST136
 9462 24bb 3A       		.uleb128 0x3a
 9463 24bc 48030000 		.4byte	.Ldebug_ranges0+0x348
 9464 24c0 3B       		.uleb128 0x3b
 9465 24c1 F3180000 		.4byte	0x18f3
 9466 24c5 BC180000 		.4byte	.LLST137
 9467 24c9 3B       		.uleb128 0x3b
 9468 24ca FD180000 		.4byte	0x18fd
 9469 24ce E7180000 		.4byte	.LLST138
 9470 24d2 3B       		.uleb128 0x3b
 9471 24d3 07190000 		.4byte	0x1907
 9472 24d7 06190000 		.4byte	.LLST139
 9473 24db 3B       		.uleb128 0x3b
 9474 24dc 13190000 		.4byte	0x1913
 9475 24e0 2F190000 		.4byte	.LLST140
 9476 24e4 3B       		.uleb128 0x3b
 9477 24e5 1D190000 		.4byte	0x191d
 9478 24e9 71190000 		.4byte	.LLST141
 9479 24ed 34       		.uleb128 0x34
 9480 24ee 62000000 		.4byte	.LVL357
 9481 24f2 98340000 		.4byte	0x3498
 9482 24f6 01250000 		.4byte	0x2501
 9483 24fa 33       		.uleb128 0x33
 9484 24fb 01       		.uleb128 0x1
 9485 24fc 50       		.byte	0x50
 9486 24fd 02       		.uleb128 0x2
 9487 24fe 77       		.byte	0x77
 9488 24ff 00       		.sleb128 0
 9489 2500 00       		.byte	0
 9490 2501 34       		.uleb128 0x34
 9491 2502 98000000 		.4byte	.LVL364
 9492 2506 01140000 		.4byte	0x1401
 9493 250a 1B250000 		.4byte	0x251b
ARM GAS  C:\Users\pearlstl\AppData\Local\Temp\ccIJtgHD.s 			page 198


 9494 250e 33       		.uleb128 0x33
 9495 250f 01       		.uleb128 0x1
 9496 2510 50       		.byte	0x50
 9497 2511 02       		.uleb128 0x2
 9498 2512 77       		.byte	0x77
 9499 2513 00       		.sleb128 0
 9500 2514 33       		.uleb128 0x33
 9501 2515 01       		.uleb128 0x1
 9502 2516 51       		.byte	0x51
 9503 2517 02       		.uleb128 0x2
 9504 2518 75       		.byte	0x75
 9505 2519 00       		.sleb128 0
 9506 251a 00       		.byte	0
 9507 251b 34       		.uleb128 0x34
 9508 251c B4000000 		.4byte	.LVL368
 9509 2520 FE340000 		.4byte	0x34fe
 9510 2524 2F250000 		.4byte	0x252f
 9511 2528 33       		.uleb128 0x33
 9512 2529 01       		.uleb128 0x1
 9513 252a 50       		.byte	0x50
 9514 252b 02       		.uleb128 0x2
 9515 252c 77       		.byte	0x77
 9516 252d 00       		.sleb128 0
 9517 252e 00       		.byte	0
 9518 252f 34       		.uleb128 0x34
 9519 2530 D4000000 		.4byte	.LVL372
 9520 2534 16350000 		.4byte	0x3516
 9521 2538 43250000 		.4byte	0x2543
 9522 253c 33       		.uleb128 0x33
 9523 253d 01       		.uleb128 0x1
 9524 253e 50       		.byte	0x50
 9525 253f 02       		.uleb128 0x2
 9526 2540 77       		.byte	0x77
 9527 2541 00       		.sleb128 0
 9528 2542 00       		.byte	0
 9529 2543 37       		.uleb128 0x37
 9530 2544 DE000000 		.4byte	.LVL374
 9531 2548 22350000 		.4byte	0x3522
 9532 254c 33       		.uleb128 0x33
 9533 254d 01       		.uleb128 0x1
 9534 254e 50       		.byte	0x50
 9535 254f 03       		.uleb128 0x3
 9536 2550 F3       		.byte	0xf3
 9537 2551 01       		.uleb128 0x1
 9538 2552 50       		.byte	0x50
 9539 2553 00       		.byte	0
 9540 2554 00       		.byte	0
 9541 2555 00       		.byte	0
 9542 2556 34       		.uleb128 0x34
 9543 2557 10000000 		.4byte	.LVL349
 9544 255b 98340000 		.4byte	0x3498
 9545 255f 6A250000 		.4byte	0x256a
 9546 2563 33       		.uleb128 0x33
 9547 2564 01       		.uleb128 0x1
 9548 2565 50       		.byte	0x50
 9549 2566 02       		.uleb128 0x2
 9550 2567 77       		.byte	0x77
ARM GAS  C:\Users\pearlstl\AppData\Local\Temp\ccIJtgHD.s 			page 199


 9551 2568 00       		.sleb128 0
 9552 2569 00       		.byte	0
 9553 256a 34       		.uleb128 0x34
 9554 256b 38000000 		.4byte	.LVL353
 9555 256f BA350000 		.4byte	0x35ba
 9556 2573 7E250000 		.4byte	0x257e
 9557 2577 33       		.uleb128 0x33
 9558 2578 01       		.uleb128 0x1
 9559 2579 50       		.byte	0x50
 9560 257a 02       		.uleb128 0x2
 9561 257b 78       		.byte	0x78
 9562 257c 00       		.sleb128 0
 9563 257d 00       		.byte	0
 9564 257e 34       		.uleb128 0x34
 9565 257f 40000000 		.4byte	.LVL354
 9566 2583 37350000 		.4byte	0x3537
 9567 2587 92250000 		.4byte	0x2592
 9568 258b 33       		.uleb128 0x33
 9569 258c 01       		.uleb128 0x1
 9570 258d 50       		.byte	0x50
 9571 258e 02       		.uleb128 0x2
 9572 258f 76       		.byte	0x76
 9573 2590 00       		.sleb128 0
 9574 2591 00       		.byte	0
 9575 2592 32       		.uleb128 0x32
 9576 2593 52000000 		.4byte	.LVL355
 9577 2597 C5350000 		.4byte	0x35c5
 9578 259b 33       		.uleb128 0x33
 9579 259c 01       		.uleb128 0x1
 9580 259d 51       		.byte	0x51
 9581 259e 02       		.uleb128 0x2
 9582 259f 78       		.byte	0x78
 9583 25a0 00       		.sleb128 0
 9584 25a1 00       		.byte	0
 9585 25a2 00       		.byte	0
 9586 25a3 38       		.uleb128 0x38
 9587 25a4 2A190000 		.4byte	0x192a
 9588 25a8 00000000 		.4byte	.LFB35
 9589 25ac DC000000 		.4byte	.LFE35-.LFB35
 9590 25b0 01       		.uleb128 0x1
 9591 25b1 9C       		.byte	0x9c
 9592 25b2 E7260000 		.4byte	0x26e7
 9593 25b6 39       		.uleb128 0x39
 9594 25b7 36190000 		.4byte	0x1936
 9595 25bb 8F190000 		.4byte	.LLST142
 9596 25bf 39       		.uleb128 0x39
 9597 25c0 41190000 		.4byte	0x1941
 9598 25c4 D1190000 		.4byte	.LLST143
 9599 25c8 3B       		.uleb128 0x3b
 9600 25c9 4C190000 		.4byte	0x194c
 9601 25cd F2190000 		.4byte	.LLST144
 9602 25d1 3B       		.uleb128 0x3b
 9603 25d2 57190000 		.4byte	0x1957
 9604 25d6 261A0000 		.4byte	.LLST145
 9605 25da 43       		.uleb128 0x43
 9606 25db DA180000 		.4byte	0x18da
 9607 25df 24000000 		.4byte	.LBB246
ARM GAS  C:\Users\pearlstl\AppData\Local\Temp\ccIJtgHD.s 			page 200


 9608 25e3 70030000 		.4byte	.Ldebug_ranges0+0x370
 9609 25e7 01       		.byte	0x1
 9610 25e8 CA       		.byte	0xca
 9611 25e9 91260000 		.4byte	0x2691
 9612 25ed 39       		.uleb128 0x39
 9613 25ee E7180000 		.4byte	0x18e7
 9614 25f2 441A0000 		.4byte	.LLST146
 9615 25f6 3A       		.uleb128 0x3a
 9616 25f7 70030000 		.4byte	.Ldebug_ranges0+0x370
 9617 25fb 3B       		.uleb128 0x3b
 9618 25fc F3180000 		.4byte	0x18f3
 9619 2600 7B1A0000 		.4byte	.LLST147
 9620 2604 3B       		.uleb128 0x3b
 9621 2605 FD180000 		.4byte	0x18fd
 9622 2609 A61A0000 		.4byte	.LLST148
 9623 260d 3B       		.uleb128 0x3b
 9624 260e 07190000 		.4byte	0x1907
 9625 2612 C51A0000 		.4byte	.LLST149
 9626 2616 3B       		.uleb128 0x3b
 9627 2617 13190000 		.4byte	0x1913
 9628 261b EE1A0000 		.4byte	.LLST150
 9629 261f 3B       		.uleb128 0x3b
 9630 2620 1D190000 		.4byte	0x191d
 9631 2624 301B0000 		.4byte	.LLST151
 9632 2628 34       		.uleb128 0x34
 9633 2629 2A000000 		.4byte	.LVL386
 9634 262d 98340000 		.4byte	0x3498
 9635 2631 3C260000 		.4byte	0x263c
 9636 2635 33       		.uleb128 0x33
 9637 2636 01       		.uleb128 0x1
 9638 2637 50       		.byte	0x50
 9639 2638 02       		.uleb128 0x2
 9640 2639 77       		.byte	0x77
 9641 263a 00       		.sleb128 0
 9642 263b 00       		.byte	0
 9643 263c 34       		.uleb128 0x34
 9644 263d 62000000 		.4byte	.LVL395
 9645 2641 01140000 		.4byte	0x1401
 9646 2645 56260000 		.4byte	0x2656
 9647 2649 33       		.uleb128 0x33
 9648 264a 01       		.uleb128 0x1
 9649 264b 50       		.byte	0x50
 9650 264c 02       		.uleb128 0x2
 9651 264d 77       		.byte	0x77
 9652 264e 00       		.sleb128 0
 9653 264f 33       		.uleb128 0x33
 9654 2650 01       		.uleb128 0x1
 9655 2651 51       		.byte	0x51
 9656 2652 02       		.uleb128 0x2
 9657 2653 75       		.byte	0x75
 9658 2654 00       		.sleb128 0
 9659 2655 00       		.byte	0
 9660 2656 34       		.uleb128 0x34
 9661 2657 7E000000 		.4byte	.LVL399
 9662 265b FE340000 		.4byte	0x34fe
 9663 265f 6A260000 		.4byte	0x266a
 9664 2663 33       		.uleb128 0x33
ARM GAS  C:\Users\pearlstl\AppData\Local\Temp\ccIJtgHD.s 			page 201


 9665 2664 01       		.uleb128 0x1
 9666 2665 50       		.byte	0x50
 9667 2666 02       		.uleb128 0x2
 9668 2667 77       		.byte	0x77
 9669 2668 00       		.sleb128 0
 9670 2669 00       		.byte	0
 9671 266a 34       		.uleb128 0x34
 9672 266b 9E000000 		.4byte	.LVL403
 9673 266f 16350000 		.4byte	0x3516
 9674 2673 7E260000 		.4byte	0x267e
 9675 2677 33       		.uleb128 0x33
 9676 2678 01       		.uleb128 0x1
 9677 2679 50       		.byte	0x50
 9678 267a 02       		.uleb128 0x2
 9679 267b 77       		.byte	0x77
 9680 267c 00       		.sleb128 0
 9681 267d 00       		.byte	0
 9682 267e 37       		.uleb128 0x37
 9683 267f A8000000 		.4byte	.LVL405
 9684 2683 22350000 		.4byte	0x3522
 9685 2687 33       		.uleb128 0x33
 9686 2688 01       		.uleb128 0x1
 9687 2689 50       		.byte	0x50
 9688 268a 03       		.uleb128 0x3
 9689 268b F3       		.byte	0xf3
 9690 268c 01       		.uleb128 0x1
 9691 268d 50       		.byte	0x50
 9692 268e 00       		.byte	0
 9693 268f 00       		.byte	0
 9694 2690 00       		.byte	0
 9695 2691 44       		.uleb128 0x44
 9696 2692 BA000000 		.4byte	.LBB251
 9697 2696 1E000000 		.4byte	.LBE251-.LBB251
 9698 269a C0260000 		.4byte	0x26c0
 9699 269e 3B       		.uleb128 0x3b
 9700 269f 63190000 		.4byte	0x1963
 9701 26a3 4E1B0000 		.4byte	.LLST152
 9702 26a7 3B       		.uleb128 0x3b
 9703 26a8 6E190000 		.4byte	0x196e
 9704 26ac 781B0000 		.4byte	.LLST153
 9705 26b0 32       		.uleb128 0x32
 9706 26b1 D6000000 		.4byte	.LVL410
 9707 26b5 2E350000 		.4byte	0x352e
 9708 26b9 33       		.uleb128 0x33
 9709 26ba 01       		.uleb128 0x1
 9710 26bb 51       		.byte	0x51
 9711 26bc 01       		.uleb128 0x1
 9712 26bd 30       		.byte	0x30
 9713 26be 00       		.byte	0
 9714 26bf 00       		.byte	0
 9715 26c0 34       		.uleb128 0x34
 9716 26c1 0C000000 		.4byte	.LVL381
 9717 26c5 98340000 		.4byte	0x3498
 9718 26c9 D4260000 		.4byte	0x26d4
 9719 26cd 33       		.uleb128 0x33
 9720 26ce 01       		.uleb128 0x1
 9721 26cf 50       		.byte	0x50
ARM GAS  C:\Users\pearlstl\AppData\Local\Temp\ccIJtgHD.s 			page 202


 9722 26d0 02       		.uleb128 0x2
 9723 26d1 77       		.byte	0x77
 9724 26d2 00       		.sleb128 0
 9725 26d3 00       		.byte	0
 9726 26d4 35       		.uleb128 0x35
 9727 26d5 20000000 		.4byte	.LVL384
 9728 26d9 A4340000 		.4byte	0x34a4
 9729 26dd 35       		.uleb128 0x35
 9730 26de B4000000 		.4byte	.LVL407
 9731 26e2 37350000 		.4byte	0x3537
 9732 26e6 00       		.byte	0
 9733 26e7 38       		.uleb128 0x38
 9734 26e8 72130000 		.4byte	0x1372
 9735 26ec 00000000 		.4byte	.LFB36
 9736 26f0 E2000000 		.4byte	.LFE36-.LFB36
 9737 26f4 01       		.uleb128 0x1
 9738 26f5 9C       		.byte	0x9c
 9739 26f6 53280000 		.4byte	0x2853
 9740 26fa 39       		.uleb128 0x39
 9741 26fb 7E130000 		.4byte	0x137e
 9742 26ff B61B0000 		.4byte	.LLST154
 9743 2703 39       		.uleb128 0x39
 9744 2704 89130000 		.4byte	0x1389
 9745 2708 F81B0000 		.4byte	.LLST155
 9746 270c 45       		.uleb128 0x45
 9747 270d 94130000 		.4byte	0x1394
 9748 2711 45       		.uleb128 0x45
 9749 2712 9F130000 		.4byte	0x139f
 9750 2716 3A       		.uleb128 0x3a
 9751 2717 90030000 		.4byte	.Ldebug_ranges0+0x390
 9752 271b 39       		.uleb128 0x39
 9753 271c 89130000 		.4byte	0x1389
 9754 2720 191C0000 		.4byte	.LLST156
 9755 2724 39       		.uleb128 0x39
 9756 2725 7E130000 		.4byte	0x137e
 9757 2729 371C0000 		.4byte	.LLST157
 9758 272d 3A       		.uleb128 0x3a
 9759 272e 90030000 		.4byte	.Ldebug_ranges0+0x390
 9760 2732 3B       		.uleb128 0x3b
 9761 2733 94130000 		.4byte	0x1394
 9762 2737 6E1C0000 		.4byte	.LLST158
 9763 273b 3B       		.uleb128 0x3b
 9764 273c 9F130000 		.4byte	0x139f
 9765 2740 A21C0000 		.4byte	.LLST159
 9766 2744 43       		.uleb128 0x43
 9767 2745 DA180000 		.4byte	0x18da
 9768 2749 2A000000 		.4byte	.LBB260
 9769 274d A8030000 		.4byte	.Ldebug_ranges0+0x3a8
 9770 2751 01       		.byte	0x1
 9771 2752 EC       		.byte	0xec
 9772 2753 FB270000 		.4byte	0x27fb
 9773 2757 39       		.uleb128 0x39
 9774 2758 E7180000 		.4byte	0x18e7
 9775 275c C01C0000 		.4byte	.LLST160
 9776 2760 3A       		.uleb128 0x3a
 9777 2761 A8030000 		.4byte	.Ldebug_ranges0+0x3a8
 9778 2765 3B       		.uleb128 0x3b
ARM GAS  C:\Users\pearlstl\AppData\Local\Temp\ccIJtgHD.s 			page 203


 9779 2766 F3180000 		.4byte	0x18f3
 9780 276a F71C0000 		.4byte	.LLST161
 9781 276e 3B       		.uleb128 0x3b
 9782 276f FD180000 		.4byte	0x18fd
 9783 2773 221D0000 		.4byte	.LLST162
 9784 2777 3B       		.uleb128 0x3b
 9785 2778 07190000 		.4byte	0x1907
 9786 277c 411D0000 		.4byte	.LLST163
 9787 2780 3B       		.uleb128 0x3b
 9788 2781 13190000 		.4byte	0x1913
 9789 2785 6A1D0000 		.4byte	.LLST164
 9790 2789 3B       		.uleb128 0x3b
 9791 278a 1D190000 		.4byte	0x191d
 9792 278e AC1D0000 		.4byte	.LLST165
 9793 2792 34       		.uleb128 0x34
 9794 2793 30000000 		.4byte	.LVL419
 9795 2797 98340000 		.4byte	0x3498
 9796 279b A6270000 		.4byte	0x27a6
 9797 279f 33       		.uleb128 0x33
 9798 27a0 01       		.uleb128 0x1
 9799 27a1 50       		.byte	0x50
 9800 27a2 02       		.uleb128 0x2
 9801 27a3 77       		.byte	0x77
 9802 27a4 00       		.sleb128 0
 9803 27a5 00       		.byte	0
 9804 27a6 34       		.uleb128 0x34
 9805 27a7 68000000 		.4byte	.LVL428
 9806 27ab 01140000 		.4byte	0x1401
 9807 27af C0270000 		.4byte	0x27c0
 9808 27b3 33       		.uleb128 0x33
 9809 27b4 01       		.uleb128 0x1
 9810 27b5 50       		.byte	0x50
 9811 27b6 02       		.uleb128 0x2
 9812 27b7 77       		.byte	0x77
 9813 27b8 00       		.sleb128 0
 9814 27b9 33       		.uleb128 0x33
 9815 27ba 01       		.uleb128 0x1
 9816 27bb 51       		.byte	0x51
 9817 27bc 02       		.uleb128 0x2
 9818 27bd 75       		.byte	0x75
 9819 27be 00       		.sleb128 0
 9820 27bf 00       		.byte	0
 9821 27c0 34       		.uleb128 0x34
 9822 27c1 84000000 		.4byte	.LVL432
 9823 27c5 FE340000 		.4byte	0x34fe
 9824 27c9 D4270000 		.4byte	0x27d4
 9825 27cd 33       		.uleb128 0x33
 9826 27ce 01       		.uleb128 0x1
 9827 27cf 50       		.byte	0x50
 9828 27d0 02       		.uleb128 0x2
 9829 27d1 77       		.byte	0x77
 9830 27d2 00       		.sleb128 0
 9831 27d3 00       		.byte	0
 9832 27d4 34       		.uleb128 0x34
 9833 27d5 A4000000 		.4byte	.LVL436
 9834 27d9 16350000 		.4byte	0x3516
 9835 27dd E8270000 		.4byte	0x27e8
ARM GAS  C:\Users\pearlstl\AppData\Local\Temp\ccIJtgHD.s 			page 204


 9836 27e1 33       		.uleb128 0x33
 9837 27e2 01       		.uleb128 0x1
 9838 27e3 50       		.byte	0x50
 9839 27e4 02       		.uleb128 0x2
 9840 27e5 77       		.byte	0x77
 9841 27e6 00       		.sleb128 0
 9842 27e7 00       		.byte	0
 9843 27e8 37       		.uleb128 0x37
 9844 27e9 AE000000 		.4byte	.LVL438
 9845 27ed 22350000 		.4byte	0x3522
 9846 27f1 33       		.uleb128 0x33
 9847 27f2 01       		.uleb128 0x1
 9848 27f3 50       		.byte	0x50
 9849 27f4 03       		.uleb128 0x3
 9850 27f5 F3       		.byte	0xf3
 9851 27f6 01       		.uleb128 0x1
 9852 27f7 50       		.byte	0x50
 9853 27f8 00       		.byte	0
 9854 27f9 00       		.byte	0
 9855 27fa 00       		.byte	0
 9856 27fb 44       		.uleb128 0x44
 9857 27fc C0000000 		.4byte	.LBB265
 9858 2800 1E000000 		.4byte	.LBE265-.LBB265
 9859 2804 2A280000 		.4byte	0x282a
 9860 2808 3B       		.uleb128 0x3b
 9861 2809 AB130000 		.4byte	0x13ab
 9862 280d CA1D0000 		.4byte	.LLST166
 9863 2811 3B       		.uleb128 0x3b
 9864 2812 B6130000 		.4byte	0x13b6
 9865 2816 F41D0000 		.4byte	.LLST167
 9866 281a 32       		.uleb128 0x32
 9867 281b DC000000 		.4byte	.LVL443
 9868 281f 2E350000 		.4byte	0x352e
 9869 2823 33       		.uleb128 0x33
 9870 2824 01       		.uleb128 0x1
 9871 2825 51       		.byte	0x51
 9872 2826 01       		.uleb128 0x1
 9873 2827 30       		.byte	0x30
 9874 2828 00       		.byte	0
 9875 2829 00       		.byte	0
 9876 282a 34       		.uleb128 0x34
 9877 282b 12000000 		.4byte	.LVL414
 9878 282f 98340000 		.4byte	0x3498
 9879 2833 3E280000 		.4byte	0x283e
 9880 2837 33       		.uleb128 0x33
 9881 2838 01       		.uleb128 0x1
 9882 2839 50       		.byte	0x50
 9883 283a 02       		.uleb128 0x2
 9884 283b 77       		.byte	0x77
 9885 283c 00       		.sleb128 0
 9886 283d 00       		.byte	0
 9887 283e 35       		.uleb128 0x35
 9888 283f 26000000 		.4byte	.LVL417
 9889 2843 A4340000 		.4byte	0x34a4
 9890 2847 35       		.uleb128 0x35
 9891 2848 BA000000 		.4byte	.LVL440
 9892 284c 37350000 		.4byte	0x3537
ARM GAS  C:\Users\pearlstl\AppData\Local\Temp\ccIJtgHD.s 			page 205


 9893 2850 00       		.byte	0
 9894 2851 00       		.byte	0
 9895 2852 00       		.byte	0
 9896 2853 48       		.uleb128 0x48
 9897 2854 40080000 		.4byte	.LASF253
 9898 2858 01       		.byte	0x1
 9899 2859 F5       		.byte	0xf5
 9900 285a 00000000 		.4byte	.LFB37
 9901 285e A2000000 		.4byte	.LFE37-.LFB37
 9902 2862 01       		.uleb128 0x1
 9903 2863 9C       		.byte	0x9c
 9904 2864 6B290000 		.4byte	0x296b
 9905 2868 40       		.uleb128 0x40
 9906 2869 D1040000 		.4byte	.LASF214
 9907 286d 01       		.byte	0x1
 9908 286e F5       		.byte	0xf5
 9909 286f 66130000 		.4byte	0x1366
 9910 2873 321E0000 		.4byte	.LLST168
 9911 2877 40       		.uleb128 0x40
 9912 2878 0B0A0000 		.4byte	.LASF254
 9913 287c 01       		.byte	0x1
 9914 287d F5       		.byte	0xf5
 9915 287e C3000000 		.4byte	0xc3
 9916 2882 741E0000 		.4byte	.LLST169
 9917 2886 3F       		.uleb128 0x3f
 9918 2887 7700     		.ascii	"w\000"
 9919 2889 01       		.byte	0x1
 9920 288a F5       		.byte	0xf5
 9921 288b D9000000 		.4byte	0xd9
 9922 288f 951E0000 		.4byte	.LLST170
 9923 2893 42       		.uleb128 0x42
 9924 2894 65787400 		.ascii	"ext\000"
 9925 2898 01       		.byte	0x1
 9926 2899 FE       		.byte	0xfe
 9927 289a 6C130000 		.4byte	0x136c
 9928 289e B61E0000 		.4byte	.LLST171
 9929 28a2 46       		.uleb128 0x46
 9930 28a3 DA180000 		.4byte	0x18da
 9931 28a7 1C000000 		.4byte	.LBB271
 9932 28ab C8030000 		.4byte	.Ldebug_ranges0+0x3c8
 9933 28af 01       		.byte	0x1
 9934 28b0 0001     		.2byte	0x100
 9935 28b2 5A290000 		.4byte	0x295a
 9936 28b6 39       		.uleb128 0x39
 9937 28b7 E7180000 		.4byte	0x18e7
 9938 28bb C91E0000 		.4byte	.LLST172
 9939 28bf 3A       		.uleb128 0x3a
 9940 28c0 C8030000 		.4byte	.Ldebug_ranges0+0x3c8
 9941 28c4 3B       		.uleb128 0x3b
 9942 28c5 F3180000 		.4byte	0x18f3
 9943 28c9 001F0000 		.4byte	.LLST173
 9944 28cd 3B       		.uleb128 0x3b
 9945 28ce FD180000 		.4byte	0x18fd
 9946 28d2 2B1F0000 		.4byte	.LLST174
 9947 28d6 3B       		.uleb128 0x3b
 9948 28d7 07190000 		.4byte	0x1907
 9949 28db 4A1F0000 		.4byte	.LLST175
ARM GAS  C:\Users\pearlstl\AppData\Local\Temp\ccIJtgHD.s 			page 206


 9950 28df 3B       		.uleb128 0x3b
 9951 28e0 13190000 		.4byte	0x1913
 9952 28e4 731F0000 		.4byte	.LLST176
 9953 28e8 3B       		.uleb128 0x3b
 9954 28e9 1D190000 		.4byte	0x191d
 9955 28ed B51F0000 		.4byte	.LLST177
 9956 28f1 34       		.uleb128 0x34
 9957 28f2 22000000 		.4byte	.LVL449
 9958 28f6 98340000 		.4byte	0x3498
 9959 28fa 05290000 		.4byte	0x2905
 9960 28fe 33       		.uleb128 0x33
 9961 28ff 01       		.uleb128 0x1
 9962 2900 50       		.byte	0x50
 9963 2901 02       		.uleb128 0x2
 9964 2902 77       		.byte	0x77
 9965 2903 00       		.sleb128 0
 9966 2904 00       		.byte	0
 9967 2905 34       		.uleb128 0x34
 9968 2906 58000000 		.4byte	.LVL456
 9969 290a 01140000 		.4byte	0x1401
 9970 290e 1F290000 		.4byte	0x291f
 9971 2912 33       		.uleb128 0x33
 9972 2913 01       		.uleb128 0x1
 9973 2914 50       		.byte	0x50
 9974 2915 02       		.uleb128 0x2
 9975 2916 77       		.byte	0x77
 9976 2917 00       		.sleb128 0
 9977 2918 33       		.uleb128 0x33
 9978 2919 01       		.uleb128 0x1
 9979 291a 51       		.byte	0x51
 9980 291b 02       		.uleb128 0x2
 9981 291c 75       		.byte	0x75
 9982 291d 00       		.sleb128 0
 9983 291e 00       		.byte	0
 9984 291f 34       		.uleb128 0x34
 9985 2920 74000000 		.4byte	.LVL460
 9986 2924 FE340000 		.4byte	0x34fe
 9987 2928 33290000 		.4byte	0x2933
 9988 292c 33       		.uleb128 0x33
 9989 292d 01       		.uleb128 0x1
 9990 292e 50       		.byte	0x50
 9991 292f 02       		.uleb128 0x2
 9992 2930 77       		.byte	0x77
 9993 2931 00       		.sleb128 0
 9994 2932 00       		.byte	0
 9995 2933 34       		.uleb128 0x34
 9996 2934 94000000 		.4byte	.LVL464
 9997 2938 16350000 		.4byte	0x3516
 9998 293c 47290000 		.4byte	0x2947
 9999 2940 33       		.uleb128 0x33
 10000 2941 01       		.uleb128 0x1
 10001 2942 50       		.byte	0x50
 10002 2943 02       		.uleb128 0x2
 10003 2944 77       		.byte	0x77
 10004 2945 00       		.sleb128 0
 10005 2946 00       		.byte	0
 10006 2947 37       		.uleb128 0x37
ARM GAS  C:\Users\pearlstl\AppData\Local\Temp\ccIJtgHD.s 			page 207


 10007 2948 9E000000 		.4byte	.LVL466
 10008 294c 22350000 		.4byte	0x3522
 10009 2950 33       		.uleb128 0x33
 10010 2951 01       		.uleb128 0x1
 10011 2952 50       		.byte	0x50
 10012 2953 03       		.uleb128 0x3
 10013 2954 F3       		.byte	0xf3
 10014 2955 01       		.uleb128 0x1
 10015 2956 50       		.byte	0x50
 10016 2957 00       		.byte	0
 10017 2958 00       		.byte	0
 10018 2959 00       		.byte	0
 10019 295a 32       		.uleb128 0x32
 10020 295b 14000000 		.4byte	.LVL446
 10021 295f 98340000 		.4byte	0x3498
 10022 2963 33       		.uleb128 0x33
 10023 2964 01       		.uleb128 0x1
 10024 2965 50       		.byte	0x50
 10025 2966 02       		.uleb128 0x2
 10026 2967 77       		.byte	0x77
 10027 2968 00       		.sleb128 0
 10028 2969 00       		.byte	0
 10029 296a 00       		.byte	0
 10030 296b 49       		.uleb128 0x49
 10031 296c 9F010000 		.4byte	.LASF255
 10032 2970 01       		.byte	0x1
 10033 2971 0A01     		.2byte	0x10a
 10034 2973 00000000 		.4byte	.LFB38
 10035 2977 5A000000 		.4byte	.LFE38-.LFB38
 10036 297b 01       		.uleb128 0x1
 10037 297c 9C       		.byte	0x9c
 10038 297d 162A0000 		.4byte	0x2a16
 10039 2981 2D       		.uleb128 0x2d
 10040 2982 D1040000 		.4byte	.LASF214
 10041 2986 01       		.byte	0x1
 10042 2987 0A01     		.2byte	0x10a
 10043 2989 66130000 		.4byte	0x1366
 10044 298d D31F0000 		.4byte	.LLST178
 10045 2991 4A       		.uleb128 0x4a
 10046 2992 726F7700 		.ascii	"row\000"
 10047 2996 01       		.byte	0x1
 10048 2997 0A01     		.2byte	0x10a
 10049 2999 C3000000 		.4byte	0xc3
 10050 299d F41F0000 		.4byte	.LLST179
 10051 29a1 4A       		.uleb128 0x4a
 10052 29a2 636F6C00 		.ascii	"col\000"
 10053 29a6 01       		.byte	0x1
 10054 29a7 0A01     		.2byte	0x10a
 10055 29a9 C3000000 		.4byte	0xc3
 10056 29ad 15200000 		.4byte	.LLST180
 10057 29b1 2D       		.uleb128 0x2d
 10058 29b2 DC080000 		.4byte	.LASF138
 10059 29b6 01       		.byte	0x1
 10060 29b7 0A01     		.2byte	0x10a
 10061 29b9 43090000 		.4byte	0x943
 10062 29bd 36200000 		.4byte	.LLST181
 10063 29c1 2E       		.uleb128 0x2e
ARM GAS  C:\Users\pearlstl\AppData\Local\Temp\ccIJtgHD.s 			page 208


 10064 29c2 65787400 		.ascii	"ext\000"
 10065 29c6 01       		.byte	0x1
 10066 29c7 0E01     		.2byte	0x10e
 10067 29c9 6C130000 		.4byte	0x136c
 10068 29cd 57200000 		.4byte	.LLST182
 10069 29d1 30       		.uleb128 0x30
 10070 29d2 3A000000 		.4byte	.LASF193
 10071 29d6 01       		.byte	0x1
 10072 29d7 1301     		.2byte	0x113
 10073 29d9 CE000000 		.4byte	0xce
 10074 29dd 8B200000 		.4byte	.LLST183
 10075 29e1 30       		.uleb128 0x30
 10076 29e2 C8060000 		.4byte	.LASF230
 10077 29e6 01       		.byte	0x1
 10078 29e7 1B01     		.2byte	0x11b
 10079 29e9 B0090000 		.4byte	0x9b0
 10080 29ed B2200000 		.4byte	.LLST184
 10081 29f1 34       		.uleb128 0x34
 10082 29f2 0E000000 		.4byte	.LVL468
 10083 29f6 98340000 		.4byte	0x3498
 10084 29fa 062A0000 		.4byte	0x2a06
 10085 29fe 33       		.uleb128 0x33
 10086 29ff 01       		.uleb128 0x1
 10087 2a00 50       		.byte	0x50
 10088 2a01 03       		.uleb128 0x3
 10089 2a02 F3       		.byte	0xf3
 10090 2a03 01       		.uleb128 0x1
 10091 2a04 50       		.byte	0x50
 10092 2a05 00       		.byte	0
 10093 2a06 32       		.uleb128 0x32
 10094 2a07 3C000000 		.4byte	.LVL476
 10095 2a0b D0350000 		.4byte	0x35d0
 10096 2a0f 33       		.uleb128 0x33
 10097 2a10 01       		.uleb128 0x1
 10098 2a11 50       		.byte	0x50
 10099 2a12 01       		.uleb128 0x1
 10100 2a13 32       		.byte	0x32
 10101 2a14 00       		.byte	0
 10102 2a15 00       		.byte	0
 10103 2a16 49       		.uleb128 0x49
 10104 2a17 F9070000 		.4byte	.LASF256
 10105 2a1b 01       		.byte	0x1
 10106 2a1c 2801     		.2byte	0x128
 10107 2a1e 00000000 		.4byte	.LFB39
 10108 2a22 72000000 		.4byte	.LFE39-.LFB39
 10109 2a26 01       		.uleb128 0x1
 10110 2a27 9C       		.byte	0x9c
 10111 2a28 C12A0000 		.4byte	0x2ac1
 10112 2a2c 2D       		.uleb128 0x2d
 10113 2a2d D1040000 		.4byte	.LASF214
 10114 2a31 01       		.byte	0x1
 10115 2a32 2801     		.2byte	0x128
 10116 2a34 66130000 		.4byte	0x1366
 10117 2a38 C5200000 		.4byte	.LLST185
 10118 2a3c 4A       		.uleb128 0x4a
 10119 2a3d 726F7700 		.ascii	"row\000"
 10120 2a41 01       		.byte	0x1
ARM GAS  C:\Users\pearlstl\AppData\Local\Temp\ccIJtgHD.s 			page 209


 10121 2a42 2801     		.2byte	0x128
 10122 2a44 C3000000 		.4byte	0xc3
 10123 2a48 E6200000 		.4byte	.LLST186
 10124 2a4c 4A       		.uleb128 0x4a
 10125 2a4d 636F6C00 		.ascii	"col\000"
 10126 2a51 01       		.byte	0x1
 10127 2a52 2801     		.2byte	0x128
 10128 2a54 C3000000 		.4byte	0xc3
 10129 2a58 07210000 		.4byte	.LLST187
 10130 2a5c 2D       		.uleb128 0x2d
 10131 2a5d 85010000 		.4byte	.LASF49
 10132 2a61 01       		.byte	0x1
 10133 2a62 2801     		.2byte	0x128
 10134 2a64 AD000000 		.4byte	0xad
 10135 2a68 28210000 		.4byte	.LLST188
 10136 2a6c 2E       		.uleb128 0x2e
 10137 2a6d 65787400 		.ascii	"ext\000"
 10138 2a71 01       		.byte	0x1
 10139 2a72 2C01     		.2byte	0x12c
 10140 2a74 6C130000 		.4byte	0x136c
 10141 2a78 62210000 		.4byte	.LLST189
 10142 2a7c 30       		.uleb128 0x30
 10143 2a7d 3A000000 		.4byte	.LASF193
 10144 2a81 01       		.byte	0x1
 10145 2a82 3101     		.2byte	0x131
 10146 2a84 CE000000 		.4byte	0xce
 10147 2a88 96210000 		.4byte	.LLST190
 10148 2a8c 30       		.uleb128 0x30
 10149 2a8d C8060000 		.4byte	.LASF230
 10150 2a91 01       		.byte	0x1
 10151 2a92 3C01     		.2byte	0x13c
 10152 2a94 B0090000 		.4byte	0x9b0
 10153 2a98 BD210000 		.4byte	.LLST191
 10154 2a9c 34       		.uleb128 0x34
 10155 2a9d 0E000000 		.4byte	.LVL478
 10156 2aa1 98340000 		.4byte	0x3498
 10157 2aa5 B12A0000 		.4byte	0x2ab1
 10158 2aa9 33       		.uleb128 0x33
 10159 2aaa 01       		.uleb128 0x1
 10160 2aab 50       		.byte	0x50
 10161 2aac 03       		.uleb128 0x3
 10162 2aad F3       		.byte	0xf3
 10163 2aae 01       		.uleb128 0x1
 10164 2aaf 50       		.byte	0x50
 10165 2ab0 00       		.byte	0
 10166 2ab1 32       		.uleb128 0x32
 10167 2ab2 50000000 		.4byte	.LVL487
 10168 2ab6 D0350000 		.4byte	0x35d0
 10169 2aba 33       		.uleb128 0x33
 10170 2abb 01       		.uleb128 0x1
 10171 2abc 50       		.byte	0x50
 10172 2abd 01       		.uleb128 0x1
 10173 2abe 32       		.byte	0x32
 10174 2abf 00       		.byte	0
 10175 2ac0 00       		.byte	0
 10176 2ac1 49       		.uleb128 0x49
 10177 2ac2 44070000 		.4byte	.LASF257
ARM GAS  C:\Users\pearlstl\AppData\Local\Temp\ccIJtgHD.s 			page 210


 10178 2ac6 01       		.byte	0x1
 10179 2ac7 4901     		.2byte	0x149
 10180 2ac9 00000000 		.4byte	.LFB40
 10181 2acd 5A000000 		.4byte	.LFE40-.LFB40
 10182 2ad1 01       		.uleb128 0x1
 10183 2ad2 9C       		.byte	0x9c
 10184 2ad3 6C2B0000 		.4byte	0x2b6c
 10185 2ad7 2D       		.uleb128 0x2d
 10186 2ad8 D1040000 		.4byte	.LASF214
 10187 2adc 01       		.byte	0x1
 10188 2add 4901     		.2byte	0x149
 10189 2adf 66130000 		.4byte	0x1366
 10190 2ae3 D0210000 		.4byte	.LLST192
 10191 2ae7 4A       		.uleb128 0x4a
 10192 2ae8 726F7700 		.ascii	"row\000"
 10193 2aec 01       		.byte	0x1
 10194 2aed 4901     		.2byte	0x149
 10195 2aef C3000000 		.4byte	0xc3
 10196 2af3 F1210000 		.4byte	.LLST193
 10197 2af7 4A       		.uleb128 0x4a
 10198 2af8 636F6C00 		.ascii	"col\000"
 10199 2afc 01       		.byte	0x1
 10200 2afd 4901     		.2byte	0x149
 10201 2aff C3000000 		.4byte	0xc3
 10202 2b03 12220000 		.4byte	.LLST194
 10203 2b07 2D       		.uleb128 0x2d
 10204 2b08 630B0000 		.4byte	.LASF156
 10205 2b0c 01       		.byte	0x1
 10206 2b0d 4901     		.2byte	0x149
 10207 2b0f BF010000 		.4byte	0x1bf
 10208 2b13 33220000 		.4byte	.LLST195
 10209 2b17 2E       		.uleb128 0x2e
 10210 2b18 65787400 		.ascii	"ext\000"
 10211 2b1c 01       		.byte	0x1
 10212 2b1d 4D01     		.2byte	0x14d
 10213 2b1f 6C130000 		.4byte	0x136c
 10214 2b23 54220000 		.4byte	.LLST196
 10215 2b27 30       		.uleb128 0x30
 10216 2b28 3A000000 		.4byte	.LASF193
 10217 2b2c 01       		.byte	0x1
 10218 2b2d 5201     		.2byte	0x152
 10219 2b2f CE000000 		.4byte	0xce
 10220 2b33 88220000 		.4byte	.LLST197
 10221 2b37 30       		.uleb128 0x30
 10222 2b38 C8060000 		.4byte	.LASF230
 10223 2b3c 01       		.byte	0x1
 10224 2b3d 5A01     		.2byte	0x15a
 10225 2b3f B0090000 		.4byte	0x9b0
 10226 2b43 AF220000 		.4byte	.LLST198
 10227 2b47 34       		.uleb128 0x34
 10228 2b48 0E000000 		.4byte	.LVL489
 10229 2b4c 98340000 		.4byte	0x3498
 10230 2b50 5C2B0000 		.4byte	0x2b5c
 10231 2b54 33       		.uleb128 0x33
 10232 2b55 01       		.uleb128 0x1
 10233 2b56 50       		.byte	0x50
 10234 2b57 03       		.uleb128 0x3
ARM GAS  C:\Users\pearlstl\AppData\Local\Temp\ccIJtgHD.s 			page 211


 10235 2b58 F3       		.byte	0xf3
 10236 2b59 01       		.uleb128 0x1
 10237 2b5a 50       		.byte	0x50
 10238 2b5b 00       		.byte	0
 10239 2b5c 32       		.uleb128 0x32
 10240 2b5d 3C000000 		.4byte	.LVL497
 10241 2b61 D0350000 		.4byte	0x35d0
 10242 2b65 33       		.uleb128 0x33
 10243 2b66 01       		.uleb128 0x1
 10244 2b67 50       		.byte	0x50
 10245 2b68 01       		.uleb128 0x1
 10246 2b69 32       		.byte	0x32
 10247 2b6a 00       		.byte	0
 10248 2b6b 00       		.byte	0
 10249 2b6c 49       		.uleb128 0x49
 10250 2b6d 40030000 		.4byte	.LASF258
 10251 2b71 01       		.byte	0x1
 10252 2b72 6701     		.2byte	0x167
 10253 2b74 00000000 		.4byte	.LFB41
 10254 2b78 EC000000 		.4byte	.LFE41-.LFB41
 10255 2b7c 01       		.uleb128 0x1
 10256 2b7d 9C       		.byte	0x9c
 10257 2b7e CD2C0000 		.4byte	0x2ccd
 10258 2b82 2D       		.uleb128 0x2d
 10259 2b83 D1040000 		.4byte	.LASF214
 10260 2b87 01       		.byte	0x1
 10261 2b88 6701     		.2byte	0x167
 10262 2b8a 66130000 		.4byte	0x1366
 10263 2b8e C2220000 		.4byte	.LLST199
 10264 2b92 4A       		.uleb128 0x4a
 10265 2b93 726F7700 		.ascii	"row\000"
 10266 2b97 01       		.byte	0x1
 10267 2b98 6701     		.2byte	0x167
 10268 2b9a C3000000 		.4byte	0xc3
 10269 2b9e 04230000 		.4byte	.LLST200
 10270 2ba2 4A       		.uleb128 0x4a
 10271 2ba3 636F6C00 		.ascii	"col\000"
 10272 2ba7 01       		.byte	0x1
 10273 2ba8 6701     		.2byte	0x167
 10274 2baa C3000000 		.4byte	0xc3
 10275 2bae 25230000 		.4byte	.LLST201
 10276 2bb2 4A       		.uleb128 0x4a
 10277 2bb3 656E00   		.ascii	"en\000"
 10278 2bb6 01       		.byte	0x1
 10279 2bb7 6701     		.2byte	0x167
 10280 2bb9 BF010000 		.4byte	0x1bf
 10281 2bbd 46230000 		.4byte	.LLST202
 10282 2bc1 2E       		.uleb128 0x2e
 10283 2bc2 65787400 		.ascii	"ext\000"
 10284 2bc6 01       		.byte	0x1
 10285 2bc7 6B01     		.2byte	0x16b
 10286 2bc9 6C130000 		.4byte	0x136c
 10287 2bcd 67230000 		.4byte	.LLST203
 10288 2bd1 30       		.uleb128 0x30
 10289 2bd2 3A000000 		.4byte	.LASF193
 10290 2bd6 01       		.byte	0x1
 10291 2bd7 7101     		.2byte	0x171
ARM GAS  C:\Users\pearlstl\AppData\Local\Temp\ccIJtgHD.s 			page 212


 10292 2bd9 CE000000 		.4byte	0xce
 10293 2bdd 9B230000 		.4byte	.LLST204
 10294 2be1 30       		.uleb128 0x30
 10295 2be2 C8060000 		.4byte	.LASF230
 10296 2be6 01       		.byte	0x1
 10297 2be7 7901     		.2byte	0x179
 10298 2be9 B0090000 		.4byte	0x9b0
 10299 2bed C2230000 		.4byte	.LLST205
 10300 2bf1 46       		.uleb128 0x46
 10301 2bf2 DA180000 		.4byte	0x18da
 10302 2bf6 36000000 		.4byte	.LBB277
 10303 2bfa E0030000 		.4byte	.Ldebug_ranges0+0x3e0
 10304 2bfe 01       		.byte	0x1
 10305 2bff 7D01     		.2byte	0x17d
 10306 2c01 A92C0000 		.4byte	0x2ca9
 10307 2c05 39       		.uleb128 0x39
 10308 2c06 E7180000 		.4byte	0x18e7
 10309 2c0a D5230000 		.4byte	.LLST206
 10310 2c0e 3A       		.uleb128 0x3a
 10311 2c0f E0030000 		.4byte	.Ldebug_ranges0+0x3e0
 10312 2c13 3B       		.uleb128 0x3b
 10313 2c14 F3180000 		.4byte	0x18f3
 10314 2c18 0C240000 		.4byte	.LLST207
 10315 2c1c 3B       		.uleb128 0x3b
 10316 2c1d FD180000 		.4byte	0x18fd
 10317 2c21 37240000 		.4byte	.LLST208
 10318 2c25 3B       		.uleb128 0x3b
 10319 2c26 07190000 		.4byte	0x1907
 10320 2c2a 56240000 		.4byte	.LLST209
 10321 2c2e 3B       		.uleb128 0x3b
 10322 2c2f 13190000 		.4byte	0x1913
 10323 2c33 7F240000 		.4byte	.LLST210
 10324 2c37 3B       		.uleb128 0x3b
 10325 2c38 1D190000 		.4byte	0x191d
 10326 2c3c C1240000 		.4byte	.LLST211
 10327 2c40 34       		.uleb128 0x34
 10328 2c41 3C000000 		.4byte	.LVL505
 10329 2c45 98340000 		.4byte	0x3498
 10330 2c49 542C0000 		.4byte	0x2c54
 10331 2c4d 33       		.uleb128 0x33
 10332 2c4e 01       		.uleb128 0x1
 10333 2c4f 50       		.byte	0x50
 10334 2c50 02       		.uleb128 0x2
 10335 2c51 77       		.byte	0x77
 10336 2c52 00       		.sleb128 0
 10337 2c53 00       		.byte	0
 10338 2c54 34       		.uleb128 0x34
 10339 2c55 74000000 		.4byte	.LVL512
 10340 2c59 01140000 		.4byte	0x1401
 10341 2c5d 6E2C0000 		.4byte	0x2c6e
 10342 2c61 33       		.uleb128 0x33
 10343 2c62 01       		.uleb128 0x1
 10344 2c63 50       		.byte	0x50
 10345 2c64 02       		.uleb128 0x2
 10346 2c65 77       		.byte	0x77
 10347 2c66 00       		.sleb128 0
 10348 2c67 33       		.uleb128 0x33
ARM GAS  C:\Users\pearlstl\AppData\Local\Temp\ccIJtgHD.s 			page 213


 10349 2c68 01       		.uleb128 0x1
 10350 2c69 51       		.byte	0x51
 10351 2c6a 02       		.uleb128 0x2
 10352 2c6b 75       		.byte	0x75
 10353 2c6c 00       		.sleb128 0
 10354 2c6d 00       		.byte	0
 10355 2c6e 34       		.uleb128 0x34
 10356 2c6f 90000000 		.4byte	.LVL516
 10357 2c73 FE340000 		.4byte	0x34fe
 10358 2c77 822C0000 		.4byte	0x2c82
 10359 2c7b 33       		.uleb128 0x33
 10360 2c7c 01       		.uleb128 0x1
 10361 2c7d 50       		.byte	0x50
 10362 2c7e 02       		.uleb128 0x2
 10363 2c7f 77       		.byte	0x77
 10364 2c80 00       		.sleb128 0
 10365 2c81 00       		.byte	0
 10366 2c82 34       		.uleb128 0x34
 10367 2c83 B0000000 		.4byte	.LVL520
 10368 2c87 16350000 		.4byte	0x3516
 10369 2c8b 962C0000 		.4byte	0x2c96
 10370 2c8f 33       		.uleb128 0x33
 10371 2c90 01       		.uleb128 0x1
 10372 2c91 50       		.byte	0x50
 10373 2c92 02       		.uleb128 0x2
 10374 2c93 77       		.byte	0x77
 10375 2c94 00       		.sleb128 0
 10376 2c95 00       		.byte	0
 10377 2c96 37       		.uleb128 0x37
 10378 2c97 BC000000 		.4byte	.LVL522
 10379 2c9b 22350000 		.4byte	0x3522
 10380 2c9f 33       		.uleb128 0x33
 10381 2ca0 01       		.uleb128 0x1
 10382 2ca1 50       		.byte	0x50
 10383 2ca2 03       		.uleb128 0x3
 10384 2ca3 F3       		.byte	0xf3
 10385 2ca4 01       		.uleb128 0x1
 10386 2ca5 50       		.byte	0x50
 10387 2ca6 00       		.byte	0
 10388 2ca7 00       		.byte	0
 10389 2ca8 00       		.byte	0
 10390 2ca9 34       		.uleb128 0x34
 10391 2caa 12000000 		.4byte	.LVL499
 10392 2cae 98340000 		.4byte	0x3498
 10393 2cb2 BD2C0000 		.4byte	0x2cbd
 10394 2cb6 33       		.uleb128 0x33
 10395 2cb7 01       		.uleb128 0x1
 10396 2cb8 50       		.byte	0x50
 10397 2cb9 02       		.uleb128 0x2
 10398 2cba 77       		.byte	0x77
 10399 2cbb 00       		.sleb128 0
 10400 2cbc 00       		.byte	0
 10401 2cbd 32       		.uleb128 0x32
 10402 2cbe CA000000 		.4byte	.LVL525
 10403 2cc2 D0350000 		.4byte	0x35d0
 10404 2cc6 33       		.uleb128 0x33
 10405 2cc7 01       		.uleb128 0x1
ARM GAS  C:\Users\pearlstl\AppData\Local\Temp\ccIJtgHD.s 			page 214


 10406 2cc8 50       		.byte	0x50
 10407 2cc9 01       		.uleb128 0x1
 10408 2cca 32       		.byte	0x32
 10409 2ccb 00       		.byte	0
 10410 2ccc 00       		.byte	0
 10411 2ccd 38       		.uleb128 0x38
 10412 2cce C3130000 		.4byte	0x13c3
 10413 2cd2 00000000 		.4byte	.LFB42
 10414 2cd6 14020000 		.4byte	.LFE42-.LFB42
 10415 2cda 01       		.uleb128 0x1
 10416 2cdb 9C       		.byte	0x9c
 10417 2cdc 0F300000 		.4byte	0x300f
 10418 2ce0 39       		.uleb128 0x39
 10419 2ce1 D0130000 		.4byte	0x13d0
 10420 2ce5 DF240000 		.4byte	.LLST212
 10421 2ce9 39       		.uleb128 0x39
 10422 2cea DC130000 		.4byte	0x13dc
 10423 2cee 21250000 		.4byte	.LLST213
 10424 2cf2 39       		.uleb128 0x39
 10425 2cf3 E8130000 		.4byte	0x13e8
 10426 2cf7 42250000 		.4byte	.LLST214
 10427 2cfb 3B       		.uleb128 0x3b
 10428 2cfc F4130000 		.4byte	0x13f4
 10429 2d00 DD250000 		.4byte	.LLST215
 10430 2d04 46       		.uleb128 0x46
 10431 2d05 DA180000 		.4byte	0x18da
 10432 2d09 20000000 		.4byte	.LBB295
 10433 2d0d 00040000 		.4byte	.Ldebug_ranges0+0x400
 10434 2d11 01       		.byte	0x1
 10435 2d12 9F01     		.2byte	0x19f
 10436 2d14 BC2D0000 		.4byte	0x2dbc
 10437 2d18 39       		.uleb128 0x39
 10438 2d19 E7180000 		.4byte	0x18e7
 10439 2d1d 27260000 		.4byte	.LLST216
 10440 2d21 3A       		.uleb128 0x3a
 10441 2d22 00040000 		.4byte	.Ldebug_ranges0+0x400
 10442 2d26 3B       		.uleb128 0x3b
 10443 2d27 F3180000 		.4byte	0x18f3
 10444 2d2b 3A260000 		.4byte	.LLST217
 10445 2d2f 3B       		.uleb128 0x3b
 10446 2d30 FD180000 		.4byte	0x18fd
 10447 2d34 59260000 		.4byte	.LLST218
 10448 2d38 3B       		.uleb128 0x3b
 10449 2d39 07190000 		.4byte	0x1907
 10450 2d3d 78260000 		.4byte	.LLST219
 10451 2d41 3B       		.uleb128 0x3b
 10452 2d42 13190000 		.4byte	0x1913
 10453 2d46 96260000 		.4byte	.LLST220
 10454 2d4a 3B       		.uleb128 0x3b
 10455 2d4b 1D190000 		.4byte	0x191d
 10456 2d4f CC260000 		.4byte	.LLST221
 10457 2d53 34       		.uleb128 0x34
 10458 2d54 26000000 		.4byte	.LVL531
 10459 2d58 98340000 		.4byte	0x3498
 10460 2d5c 672D0000 		.4byte	0x2d67
 10461 2d60 33       		.uleb128 0x33
 10462 2d61 01       		.uleb128 0x1
ARM GAS  C:\Users\pearlstl\AppData\Local\Temp\ccIJtgHD.s 			page 215


 10463 2d62 50       		.byte	0x50
 10464 2d63 02       		.uleb128 0x2
 10465 2d64 74       		.byte	0x74
 10466 2d65 00       		.sleb128 0
 10467 2d66 00       		.byte	0
 10468 2d67 34       		.uleb128 0x34
 10469 2d68 60000000 		.4byte	.LVL538
 10470 2d6c 01140000 		.4byte	0x1401
 10471 2d70 812D0000 		.4byte	0x2d81
 10472 2d74 33       		.uleb128 0x33
 10473 2d75 01       		.uleb128 0x1
 10474 2d76 50       		.byte	0x50
 10475 2d77 02       		.uleb128 0x2
 10476 2d78 74       		.byte	0x74
 10477 2d79 00       		.sleb128 0
 10478 2d7a 33       		.uleb128 0x33
 10479 2d7b 01       		.uleb128 0x1
 10480 2d7c 51       		.byte	0x51
 10481 2d7d 02       		.uleb128 0x2
 10482 2d7e 76       		.byte	0x76
 10483 2d7f 00       		.sleb128 0
 10484 2d80 00       		.byte	0
 10485 2d81 34       		.uleb128 0x34
 10486 2d82 7C000000 		.4byte	.LVL542
 10487 2d86 FE340000 		.4byte	0x34fe
 10488 2d8a 952D0000 		.4byte	0x2d95
 10489 2d8e 33       		.uleb128 0x33
 10490 2d8f 01       		.uleb128 0x1
 10491 2d90 50       		.byte	0x50
 10492 2d91 02       		.uleb128 0x2
 10493 2d92 74       		.byte	0x74
 10494 2d93 00       		.sleb128 0
 10495 2d94 00       		.byte	0
 10496 2d95 34       		.uleb128 0x34
 10497 2d96 9C000000 		.4byte	.LVL546
 10498 2d9a 16350000 		.4byte	0x3516
 10499 2d9e A92D0000 		.4byte	0x2da9
 10500 2da2 33       		.uleb128 0x33
 10501 2da3 01       		.uleb128 0x1
 10502 2da4 50       		.byte	0x50
 10503 2da5 02       		.uleb128 0x2
 10504 2da6 74       		.byte	0x74
 10505 2da7 00       		.sleb128 0
 10506 2da8 00       		.byte	0
 10507 2da9 37       		.uleb128 0x37
 10508 2daa A6000000 		.4byte	.LVL548
 10509 2dae 22350000 		.4byte	0x3522
 10510 2db2 33       		.uleb128 0x33
 10511 2db3 01       		.uleb128 0x1
 10512 2db4 50       		.byte	0x50
 10513 2db5 03       		.uleb128 0x3
 10514 2db6 F3       		.byte	0xf3
 10515 2db7 01       		.uleb128 0x1
 10516 2db8 50       		.byte	0x50
 10517 2db9 00       		.byte	0
 10518 2dba 00       		.byte	0
 10519 2dbb 00       		.byte	0
ARM GAS  C:\Users\pearlstl\AppData\Local\Temp\ccIJtgHD.s 			page 216


 10520 2dbc 44       		.uleb128 0x44
 10521 2dbd A6000000 		.4byte	.LBB300
 10522 2dc1 60000000 		.4byte	.LBE300-.LBB300
 10523 2dc5 872E0000 		.4byte	0x2e87
 10524 2dc9 39       		.uleb128 0x39
 10525 2dca DC130000 		.4byte	0x13dc
 10526 2dce EA260000 		.4byte	.LLST222
 10527 2dd2 39       		.uleb128 0x39
 10528 2dd3 E8130000 		.4byte	0x13e8
 10529 2dd7 FE260000 		.4byte	.LLST223
 10530 2ddb 39       		.uleb128 0x39
 10531 2ddc D0130000 		.4byte	0x13d0
 10532 2de0 1F270000 		.4byte	.LLST224
 10533 2de4 4B       		.uleb128 0x4b
 10534 2de5 A6000000 		.4byte	.LBB301
 10535 2de9 60000000 		.4byte	.LBE301-.LBB301
 10536 2ded 45       		.uleb128 0x45
 10537 2dee F4130000 		.4byte	0x13f4
 10538 2df2 4C       		.uleb128 0x4c
 10539 2df3 DA180000 		.4byte	0x18da
 10540 2df7 AE000000 		.4byte	.LBB302
 10541 2dfb 58000000 		.4byte	.LBE302-.LBB302
 10542 2dff 01       		.byte	0x1
 10543 2e00 8F01     		.2byte	0x18f
 10544 2e02 6F2E0000 		.4byte	0x2e6f
 10545 2e06 39       		.uleb128 0x39
 10546 2e07 E7180000 		.4byte	0x18e7
 10547 2e0b 32270000 		.4byte	.LLST225
 10548 2e0f 4B       		.uleb128 0x4b
 10549 2e10 AE000000 		.4byte	.LBB303
 10550 2e14 58000000 		.4byte	.LBE303-.LBB303
 10551 2e18 3B       		.uleb128 0x3b
 10552 2e19 F3180000 		.4byte	0x18f3
 10553 2e1d 45270000 		.4byte	.LLST226
 10554 2e21 3B       		.uleb128 0x3b
 10555 2e22 FD180000 		.4byte	0x18fd
 10556 2e26 64270000 		.4byte	.LLST227
 10557 2e2a 3B       		.uleb128 0x3b
 10558 2e2b 07190000 		.4byte	0x1907
 10559 2e2f 83270000 		.4byte	.LLST228
 10560 2e33 3B       		.uleb128 0x3b
 10561 2e34 13190000 		.4byte	0x1913
 10562 2e38 A1270000 		.4byte	.LLST229
 10563 2e3c 3C       		.uleb128 0x3c
 10564 2e3d 1D190000 		.4byte	0x191d
 10565 2e41 01       		.uleb128 0x1
 10566 2e42 53       		.byte	0x53
 10567 2e43 34       		.uleb128 0x34
 10568 2e44 B4000000 		.4byte	.LVL551
 10569 2e48 98340000 		.4byte	0x3498
 10570 2e4c 572E0000 		.4byte	0x2e57
 10571 2e50 33       		.uleb128 0x33
 10572 2e51 01       		.uleb128 0x1
 10573 2e52 50       		.byte	0x50
 10574 2e53 02       		.uleb128 0x2
 10575 2e54 74       		.byte	0x74
 10576 2e55 00       		.sleb128 0
ARM GAS  C:\Users\pearlstl\AppData\Local\Temp\ccIJtgHD.s 			page 217


 10577 2e56 00       		.byte	0
 10578 2e57 32       		.uleb128 0x32
 10579 2e58 EE000000 		.4byte	.LVL558
 10580 2e5c 01140000 		.4byte	0x1401
 10581 2e60 33       		.uleb128 0x33
 10582 2e61 01       		.uleb128 0x1
 10583 2e62 50       		.byte	0x50
 10584 2e63 02       		.uleb128 0x2
 10585 2e64 74       		.byte	0x74
 10586 2e65 00       		.sleb128 0
 10587 2e66 33       		.uleb128 0x33
 10588 2e67 01       		.uleb128 0x1
 10589 2e68 51       		.byte	0x51
 10590 2e69 02       		.uleb128 0x2
 10591 2e6a 76       		.byte	0x76
 10592 2e6b 00       		.sleb128 0
 10593 2e6c 00       		.byte	0
 10594 2e6d 00       		.byte	0
 10595 2e6e 00       		.byte	0
 10596 2e6f 32       		.uleb128 0x32
 10597 2e70 AE000000 		.4byte	.LVL550
 10598 2e74 4E350000 		.4byte	0x354e
 10599 2e78 33       		.uleb128 0x33
 10600 2e79 01       		.uleb128 0x1
 10601 2e7a 50       		.byte	0x50
 10602 2e7b 02       		.uleb128 0x2
 10603 2e7c 74       		.byte	0x74
 10604 2e7d 00       		.sleb128 0
 10605 2e7e 33       		.uleb128 0x33
 10606 2e7f 01       		.uleb128 0x1
 10607 2e80 51       		.byte	0x51
 10608 2e81 02       		.uleb128 0x2
 10609 2e82 76       		.byte	0x76
 10610 2e83 00       		.sleb128 0
 10611 2e84 00       		.byte	0
 10612 2e85 00       		.byte	0
 10613 2e86 00       		.byte	0
 10614 2e87 4C       		.uleb128 0x4c
 10615 2e88 DA180000 		.4byte	0x18da
 10616 2e8c 08010000 		.4byte	.LBB304
 10617 2e90 56000000 		.4byte	.LBE304-.LBB304
 10618 2e94 01       		.byte	0x1
 10619 2e95 9701     		.2byte	0x197
 10620 2e97 042F0000 		.4byte	0x2f04
 10621 2e9b 39       		.uleb128 0x39
 10622 2e9c E7180000 		.4byte	0x18e7
 10623 2ea0 D7270000 		.4byte	.LLST230
 10624 2ea4 4B       		.uleb128 0x4b
 10625 2ea5 08010000 		.4byte	.LBB305
 10626 2ea9 56000000 		.4byte	.LBE305-.LBB305
 10627 2ead 3B       		.uleb128 0x3b
 10628 2eae F3180000 		.4byte	0x18f3
 10629 2eb2 EA270000 		.4byte	.LLST231
 10630 2eb6 3B       		.uleb128 0x3b
 10631 2eb7 FD180000 		.4byte	0x18fd
 10632 2ebb 09280000 		.4byte	.LLST232
 10633 2ebf 3B       		.uleb128 0x3b
ARM GAS  C:\Users\pearlstl\AppData\Local\Temp\ccIJtgHD.s 			page 218


 10634 2ec0 07190000 		.4byte	0x1907
 10635 2ec4 28280000 		.4byte	.LLST233
 10636 2ec8 3B       		.uleb128 0x3b
 10637 2ec9 13190000 		.4byte	0x1913
 10638 2ecd 46280000 		.4byte	.LLST234
 10639 2ed1 3C       		.uleb128 0x3c
 10640 2ed2 1D190000 		.4byte	0x191d
 10641 2ed6 01       		.uleb128 0x1
 10642 2ed7 53       		.byte	0x53
 10643 2ed8 34       		.uleb128 0x34
 10644 2ed9 0E010000 		.4byte	.LVL564
 10645 2edd 98340000 		.4byte	0x3498
 10646 2ee1 EC2E0000 		.4byte	0x2eec
 10647 2ee5 33       		.uleb128 0x33
 10648 2ee6 01       		.uleb128 0x1
 10649 2ee7 50       		.byte	0x50
 10650 2ee8 02       		.uleb128 0x2
 10651 2ee9 74       		.byte	0x74
 10652 2eea 00       		.sleb128 0
 10653 2eeb 00       		.byte	0
 10654 2eec 32       		.uleb128 0x32
 10655 2eed 46010000 		.4byte	.LVL571
 10656 2ef1 01140000 		.4byte	0x1401
 10657 2ef5 33       		.uleb128 0x33
 10658 2ef6 01       		.uleb128 0x1
 10659 2ef7 50       		.byte	0x50
 10660 2ef8 02       		.uleb128 0x2
 10661 2ef9 74       		.byte	0x74
 10662 2efa 00       		.sleb128 0
 10663 2efb 33       		.uleb128 0x33
 10664 2efc 01       		.uleb128 0x1
 10665 2efd 51       		.byte	0x51
 10666 2efe 02       		.uleb128 0x2
 10667 2eff 76       		.byte	0x76
 10668 2f00 00       		.sleb128 0
 10669 2f01 00       		.byte	0
 10670 2f02 00       		.byte	0
 10671 2f03 00       		.byte	0
 10672 2f04 4C       		.uleb128 0x4c
 10673 2f05 DA180000 		.4byte	0x18da
 10674 2f09 60010000 		.4byte	.LBB306
 10675 2f0d 56000000 		.4byte	.LBE306-.LBB306
 10676 2f11 01       		.byte	0x1
 10677 2f12 9301     		.2byte	0x193
 10678 2f14 812F0000 		.4byte	0x2f81
 10679 2f18 39       		.uleb128 0x39
 10680 2f19 E7180000 		.4byte	0x18e7
 10681 2f1d 7C280000 		.4byte	.LLST235
 10682 2f21 4B       		.uleb128 0x4b
 10683 2f22 60010000 		.4byte	.LBB307
 10684 2f26 56000000 		.4byte	.LBE307-.LBB307
 10685 2f2a 3B       		.uleb128 0x3b
 10686 2f2b F3180000 		.4byte	0x18f3
 10687 2f2f 8F280000 		.4byte	.LLST236
 10688 2f33 3B       		.uleb128 0x3b
 10689 2f34 FD180000 		.4byte	0x18fd
 10690 2f38 AE280000 		.4byte	.LLST237
ARM GAS  C:\Users\pearlstl\AppData\Local\Temp\ccIJtgHD.s 			page 219


 10691 2f3c 3B       		.uleb128 0x3b
 10692 2f3d 07190000 		.4byte	0x1907
 10693 2f41 CD280000 		.4byte	.LLST238
 10694 2f45 3B       		.uleb128 0x3b
 10695 2f46 13190000 		.4byte	0x1913
 10696 2f4a EB280000 		.4byte	.LLST239
 10697 2f4e 3C       		.uleb128 0x3c
 10698 2f4f 1D190000 		.4byte	0x191d
 10699 2f53 01       		.uleb128 0x1
 10700 2f54 53       		.byte	0x53
 10701 2f55 34       		.uleb128 0x34
 10702 2f56 66010000 		.4byte	.LVL577
 10703 2f5a 98340000 		.4byte	0x3498
 10704 2f5e 692F0000 		.4byte	0x2f69
 10705 2f62 33       		.uleb128 0x33
 10706 2f63 01       		.uleb128 0x1
 10707 2f64 50       		.byte	0x50
 10708 2f65 02       		.uleb128 0x2
 10709 2f66 74       		.byte	0x74
 10710 2f67 00       		.sleb128 0
 10711 2f68 00       		.byte	0
 10712 2f69 32       		.uleb128 0x32
 10713 2f6a 9E010000 		.4byte	.LVL584
 10714 2f6e 01140000 		.4byte	0x1401
 10715 2f72 33       		.uleb128 0x33
 10716 2f73 01       		.uleb128 0x1
 10717 2f74 50       		.byte	0x50
 10718 2f75 02       		.uleb128 0x2
 10719 2f76 74       		.byte	0x74
 10720 2f77 00       		.sleb128 0
 10721 2f78 33       		.uleb128 0x33
 10722 2f79 01       		.uleb128 0x1
 10723 2f7a 51       		.byte	0x51
 10724 2f7b 02       		.uleb128 0x2
 10725 2f7c 76       		.byte	0x76
 10726 2f7d 00       		.sleb128 0
 10727 2f7e 00       		.byte	0
 10728 2f7f 00       		.byte	0
 10729 2f80 00       		.byte	0
 10730 2f81 4C       		.uleb128 0x4c
 10731 2f82 DA180000 		.4byte	0x18da
 10732 2f86 B8010000 		.4byte	.LBB308
 10733 2f8a 58000000 		.4byte	.LBE308-.LBB308
 10734 2f8e 01       		.byte	0x1
 10735 2f8f 9B01     		.2byte	0x19b
 10736 2f91 FE2F0000 		.4byte	0x2ffe
 10737 2f95 39       		.uleb128 0x39
 10738 2f96 E7180000 		.4byte	0x18e7
 10739 2f9a 21290000 		.4byte	.LLST240
 10740 2f9e 4B       		.uleb128 0x4b
 10741 2f9f B8010000 		.4byte	.LBB309
 10742 2fa3 58000000 		.4byte	.LBE309-.LBB309
 10743 2fa7 3B       		.uleb128 0x3b
 10744 2fa8 F3180000 		.4byte	0x18f3
 10745 2fac 34290000 		.4byte	.LLST241
 10746 2fb0 3B       		.uleb128 0x3b
 10747 2fb1 FD180000 		.4byte	0x18fd
ARM GAS  C:\Users\pearlstl\AppData\Local\Temp\ccIJtgHD.s 			page 220


 10748 2fb5 53290000 		.4byte	.LLST242
 10749 2fb9 3B       		.uleb128 0x3b
 10750 2fba 07190000 		.4byte	0x1907
 10751 2fbe 72290000 		.4byte	.LLST243
 10752 2fc2 3B       		.uleb128 0x3b
 10753 2fc3 13190000 		.4byte	0x1913
 10754 2fc7 90290000 		.4byte	.LLST244
 10755 2fcb 3C       		.uleb128 0x3c
 10756 2fcc 1D190000 		.4byte	0x191d
 10757 2fd0 01       		.uleb128 0x1
 10758 2fd1 53       		.byte	0x53
 10759 2fd2 34       		.uleb128 0x34
 10760 2fd3 BE010000 		.4byte	.LVL590
 10761 2fd7 98340000 		.4byte	0x3498
 10762 2fdb E62F0000 		.4byte	0x2fe6
 10763 2fdf 33       		.uleb128 0x33
 10764 2fe0 01       		.uleb128 0x1
 10765 2fe1 50       		.byte	0x50
 10766 2fe2 02       		.uleb128 0x2
 10767 2fe3 74       		.byte	0x74
 10768 2fe4 00       		.sleb128 0
 10769 2fe5 00       		.byte	0
 10770 2fe6 32       		.uleb128 0x32
 10771 2fe7 F4010000 		.4byte	.LVL597
 10772 2feb 01140000 		.4byte	0x1401
 10773 2fef 33       		.uleb128 0x33
 10774 2ff0 01       		.uleb128 0x1
 10775 2ff1 50       		.byte	0x50
 10776 2ff2 02       		.uleb128 0x2
 10777 2ff3 74       		.byte	0x74
 10778 2ff4 00       		.sleb128 0
 10779 2ff5 33       		.uleb128 0x33
 10780 2ff6 01       		.uleb128 0x1
 10781 2ff7 51       		.byte	0x51
 10782 2ff8 02       		.uleb128 0x2
 10783 2ff9 76       		.byte	0x76
 10784 2ffa 00       		.sleb128 0
 10785 2ffb 00       		.byte	0
 10786 2ffc 00       		.byte	0
 10787 2ffd 00       		.byte	0
 10788 2ffe 32       		.uleb128 0x32
 10789 2fff 0E000000 		.4byte	.LVL528
 10790 3003 98340000 		.4byte	0x3498
 10791 3007 33       		.uleb128 0x33
 10792 3008 01       		.uleb128 0x1
 10793 3009 50       		.byte	0x50
 10794 300a 02       		.uleb128 0x2
 10795 300b 74       		.byte	0x74
 10796 300c 00       		.sleb128 0
 10797 300d 00       		.byte	0
 10798 300e 00       		.byte	0
 10799 300f 4D       		.uleb128 0x4d
 10800 3010 3A0B0000 		.4byte	.LASF260
 10801 3014 01       		.byte	0x1
 10802 3015 AF01     		.2byte	0x1af
 10803 3017 9B020000 		.4byte	0x29b
 10804 301b 00000000 		.4byte	.LFB43
ARM GAS  C:\Users\pearlstl\AppData\Local\Temp\ccIJtgHD.s 			page 221


 10805 301f 30000000 		.4byte	.LFE43-.LFB43
 10806 3023 01       		.uleb128 0x1
 10807 3024 9C       		.byte	0x9c
 10808 3025 8B300000 		.4byte	0x308b
 10809 3029 2D       		.uleb128 0x2d
 10810 302a D1040000 		.4byte	.LASF214
 10811 302e 01       		.byte	0x1
 10812 302f AF01     		.2byte	0x1af
 10813 3031 66130000 		.4byte	0x1366
 10814 3035 C6290000 		.4byte	.LLST245
 10815 3039 4A       		.uleb128 0x4a
 10816 303a 726F7700 		.ascii	"row\000"
 10817 303e 01       		.byte	0x1
 10818 303f AF01     		.2byte	0x1af
 10819 3041 C3000000 		.4byte	0xc3
 10820 3045 E7290000 		.4byte	.LLST246
 10821 3049 4A       		.uleb128 0x4a
 10822 304a 636F6C00 		.ascii	"col\000"
 10823 304e 01       		.byte	0x1
 10824 304f AF01     		.2byte	0x1af
 10825 3051 C3000000 		.4byte	0xc3
 10826 3055 082A0000 		.4byte	.LLST247
 10827 3059 2E       		.uleb128 0x2e
 10828 305a 65787400 		.ascii	"ext\000"
 10829 305e 01       		.byte	0x1
 10830 305f B301     		.2byte	0x1b3
 10831 3061 6C130000 		.4byte	0x136c
 10832 3065 292A0000 		.4byte	.LLST248
 10833 3069 30       		.uleb128 0x30
 10834 306a 3A000000 		.4byte	.LASF193
 10835 306e 01       		.byte	0x1
 10836 306f B801     		.2byte	0x1b8
 10837 3071 CE000000 		.4byte	0xce
 10838 3075 3C2A0000 		.4byte	.LLST249
 10839 3079 32       		.uleb128 0x32
 10840 307a 0A000000 		.4byte	.LVL603
 10841 307e 98340000 		.4byte	0x3498
 10842 3082 33       		.uleb128 0x33
 10843 3083 01       		.uleb128 0x1
 10844 3084 50       		.byte	0x50
 10845 3085 03       		.uleb128 0x3
 10846 3086 F3       		.byte	0xf3
 10847 3087 01       		.uleb128 0x1
 10848 3088 50       		.byte	0x50
 10849 3089 00       		.byte	0
 10850 308a 00       		.byte	0
 10851 308b 4D       		.uleb128 0x4d
 10852 308c 4D060000 		.4byte	.LASF261
 10853 3090 01       		.byte	0x1
 10854 3091 C401     		.2byte	0x1c4
 10855 3093 C3000000 		.4byte	0xc3
 10856 3097 00000000 		.4byte	.LFB44
 10857 309b 0A000000 		.4byte	.LFE44-.LFB44
 10858 309f 01       		.uleb128 0x1
 10859 30a0 9C       		.byte	0x9c
 10860 30a1 D7300000 		.4byte	0x30d7
 10861 30a5 2D       		.uleb128 0x2d
ARM GAS  C:\Users\pearlstl\AppData\Local\Temp\ccIJtgHD.s 			page 222


 10862 30a6 D1040000 		.4byte	.LASF214
 10863 30aa 01       		.byte	0x1
 10864 30ab C401     		.2byte	0x1c4
 10865 30ad 66130000 		.4byte	0x1366
 10866 30b1 632A0000 		.4byte	.LLST250
 10867 30b5 2E       		.uleb128 0x2e
 10868 30b6 65787400 		.ascii	"ext\000"
 10869 30ba 01       		.byte	0x1
 10870 30bb C801     		.2byte	0x1c8
 10871 30bd 6C130000 		.4byte	0x136c
 10872 30c1 842A0000 		.4byte	.LLST251
 10873 30c5 32       		.uleb128 0x32
 10874 30c6 06000000 		.4byte	.LVL608
 10875 30ca 98340000 		.4byte	0x3498
 10876 30ce 33       		.uleb128 0x33
 10877 30cf 01       		.uleb128 0x1
 10878 30d0 50       		.byte	0x50
 10879 30d1 03       		.uleb128 0x3
 10880 30d2 F3       		.byte	0xf3
 10881 30d3 01       		.uleb128 0x1
 10882 30d4 50       		.byte	0x50
 10883 30d5 00       		.byte	0
 10884 30d6 00       		.byte	0
 10885 30d7 4D       		.uleb128 0x4d
 10886 30d8 E50F0000 		.4byte	.LASF262
 10887 30dc 01       		.byte	0x1
 10888 30dd D101     		.2byte	0x1d1
 10889 30df C3000000 		.4byte	0xc3
 10890 30e3 00000000 		.4byte	.LFB45
 10891 30e7 0A000000 		.4byte	.LFE45-.LFB45
 10892 30eb 01       		.uleb128 0x1
 10893 30ec 9C       		.byte	0x9c
 10894 30ed 23310000 		.4byte	0x3123
 10895 30f1 2D       		.uleb128 0x2d
 10896 30f2 D1040000 		.4byte	.LASF214
 10897 30f6 01       		.byte	0x1
 10898 30f7 D101     		.2byte	0x1d1
 10899 30f9 66130000 		.4byte	0x1366
 10900 30fd 972A0000 		.4byte	.LLST252
 10901 3101 2E       		.uleb128 0x2e
 10902 3102 65787400 		.ascii	"ext\000"
 10903 3106 01       		.byte	0x1
 10904 3107 D501     		.2byte	0x1d5
 10905 3109 6C130000 		.4byte	0x136c
 10906 310d B82A0000 		.4byte	.LLST253
 10907 3111 32       		.uleb128 0x32
 10908 3112 06000000 		.4byte	.LVL611
 10909 3116 98340000 		.4byte	0x3498
 10910 311a 33       		.uleb128 0x33
 10911 311b 01       		.uleb128 0x1
 10912 311c 50       		.byte	0x50
 10913 311d 03       		.uleb128 0x3
 10914 311e F3       		.byte	0xf3
 10915 311f 01       		.uleb128 0x1
 10916 3120 50       		.byte	0x50
 10917 3121 00       		.byte	0
 10918 3122 00       		.byte	0
ARM GAS  C:\Users\pearlstl\AppData\Local\Temp\ccIJtgHD.s 			page 223


 10919 3123 4D       		.uleb128 0x4d
 10920 3124 99080000 		.4byte	.LASF263
 10921 3128 01       		.byte	0x1
 10922 3129 DF01     		.2byte	0x1df
 10923 312b D9000000 		.4byte	0xd9
 10924 312f 00000000 		.4byte	.LFB46
 10925 3133 1A000000 		.4byte	.LFE46-.LFB46
 10926 3137 01       		.uleb128 0x1
 10927 3138 9C       		.byte	0x9c
 10928 3139 77310000 		.4byte	0x3177
 10929 313d 2D       		.uleb128 0x2d
 10930 313e D1040000 		.4byte	.LASF214
 10931 3142 01       		.byte	0x1
 10932 3143 DF01     		.2byte	0x1df
 10933 3145 66130000 		.4byte	0x1366
 10934 3149 CB2A0000 		.4byte	.LLST254
 10935 314d 2D       		.uleb128 0x2d
 10936 314e 0B0A0000 		.4byte	.LASF254
 10937 3152 01       		.byte	0x1
 10938 3153 DF01     		.2byte	0x1df
 10939 3155 C3000000 		.4byte	0xc3
 10940 3159 052B0000 		.4byte	.LLST255
 10941 315d 2E       		.uleb128 0x2e
 10942 315e 65787400 		.ascii	"ext\000"
 10943 3162 01       		.byte	0x1
 10944 3163 E801     		.2byte	0x1e8
 10945 3165 6C130000 		.4byte	0x136c
 10946 3169 262B0000 		.4byte	.LLST256
 10947 316d 35       		.uleb128 0x35
 10948 316e 10000000 		.4byte	.LVL616
 10949 3172 98340000 		.4byte	0x3498
 10950 3176 00       		.byte	0
 10951 3177 4D       		.uleb128 0x4d
 10952 3178 E1070000 		.4byte	.LASF264
 10953 317c 01       		.byte	0x1
 10954 317d F401     		.2byte	0x1f4
 10955 317f 43090000 		.4byte	0x943
 10956 3183 00000000 		.4byte	.LFB47
 10957 3187 2E000000 		.4byte	.LFE47-.LFB47
 10958 318b 01       		.uleb128 0x1
 10959 318c 9C       		.byte	0x9c
 10960 318d 0D320000 		.4byte	0x320d
 10961 3191 2D       		.uleb128 0x2d
 10962 3192 D1040000 		.4byte	.LASF214
 10963 3196 01       		.byte	0x1
 10964 3197 F401     		.2byte	0x1f4
 10965 3199 66130000 		.4byte	0x1366
 10966 319d 392B0000 		.4byte	.LLST257
 10967 31a1 4A       		.uleb128 0x4a
 10968 31a2 726F7700 		.ascii	"row\000"
 10969 31a6 01       		.byte	0x1
 10970 31a7 F401     		.2byte	0x1f4
 10971 31a9 C3000000 		.4byte	0xc3
 10972 31ad 5A2B0000 		.4byte	.LLST258
 10973 31b1 4A       		.uleb128 0x4a
 10974 31b2 636F6C00 		.ascii	"col\000"
 10975 31b6 01       		.byte	0x1
ARM GAS  C:\Users\pearlstl\AppData\Local\Temp\ccIJtgHD.s 			page 224


 10976 31b7 F401     		.2byte	0x1f4
 10977 31b9 C3000000 		.4byte	0xc3
 10978 31bd 7B2B0000 		.4byte	.LLST259
 10979 31c1 2E       		.uleb128 0x2e
 10980 31c2 65787400 		.ascii	"ext\000"
 10981 31c6 01       		.byte	0x1
 10982 31c7 F801     		.2byte	0x1f8
 10983 31c9 6C130000 		.4byte	0x136c
 10984 31cd 9C2B0000 		.4byte	.LLST260
 10985 31d1 30       		.uleb128 0x30
 10986 31d2 3A000000 		.4byte	.LASF193
 10987 31d6 01       		.byte	0x1
 10988 31d7 FD01     		.2byte	0x1fd
 10989 31d9 CE000000 		.4byte	0xce
 10990 31dd BA2B0000 		.4byte	.LLST261
 10991 31e1 44       		.uleb128 0x44
 10992 31e2 22000000 		.4byte	.LBB311
 10993 31e6 08000000 		.4byte	.LBE311-.LBB311
 10994 31ea FB310000 		.4byte	0x31fb
 10995 31ee 27       		.uleb128 0x27
 10996 31ef C8060000 		.4byte	.LASF230
 10997 31f3 01       		.byte	0x1
 10998 31f4 0202     		.2byte	0x202
 10999 31f6 B0090000 		.4byte	0x9b0
 11000 31fa 00       		.byte	0
 11001 31fb 32       		.uleb128 0x32
 11002 31fc 0A000000 		.4byte	.LVL619
 11003 3200 98340000 		.4byte	0x3498
 11004 3204 33       		.uleb128 0x33
 11005 3205 01       		.uleb128 0x1
 11006 3206 50       		.byte	0x50
 11007 3207 03       		.uleb128 0x3
 11008 3208 F3       		.byte	0xf3
 11009 3209 01       		.uleb128 0x1
 11010 320a 50       		.byte	0x50
 11011 320b 00       		.byte	0
 11012 320c 00       		.byte	0
 11013 320d 4D       		.uleb128 0x4d
 11014 320e 9B0D0000 		.4byte	.LASF265
 11015 3212 01       		.byte	0x1
 11016 3213 0F02     		.2byte	0x20f
 11017 3215 43090000 		.4byte	0x943
 11018 3219 00000000 		.4byte	.LFB48
 11019 321d 30000000 		.4byte	.LFE48-.LFB48
 11020 3221 01       		.uleb128 0x1
 11021 3222 9C       		.byte	0x9c
 11022 3223 A3320000 		.4byte	0x32a3
 11023 3227 2D       		.uleb128 0x2d
 11024 3228 D1040000 		.4byte	.LASF214
 11025 322c 01       		.byte	0x1
 11026 322d 0F02     		.2byte	0x20f
 11027 322f 66130000 		.4byte	0x1366
 11028 3233 E12B0000 		.4byte	.LLST262
 11029 3237 4A       		.uleb128 0x4a
 11030 3238 726F7700 		.ascii	"row\000"
 11031 323c 01       		.byte	0x1
 11032 323d 0F02     		.2byte	0x20f
ARM GAS  C:\Users\pearlstl\AppData\Local\Temp\ccIJtgHD.s 			page 225


 11033 323f C3000000 		.4byte	0xc3
 11034 3243 022C0000 		.4byte	.LLST263
 11035 3247 4A       		.uleb128 0x4a
 11036 3248 636F6C00 		.ascii	"col\000"
 11037 324c 01       		.byte	0x1
 11038 324d 0F02     		.2byte	0x20f
 11039 324f C3000000 		.4byte	0xc3
 11040 3253 232C0000 		.4byte	.LLST264
 11041 3257 2E       		.uleb128 0x2e
 11042 3258 65787400 		.ascii	"ext\000"
 11043 325c 01       		.byte	0x1
 11044 325d 1302     		.2byte	0x213
 11045 325f 6C130000 		.4byte	0x136c
 11046 3263 442C0000 		.4byte	.LLST265
 11047 3267 30       		.uleb128 0x30
 11048 3268 3A000000 		.4byte	.LASF193
 11049 326c 01       		.byte	0x1
 11050 326d 1802     		.2byte	0x218
 11051 326f CE000000 		.4byte	0xce
 11052 3273 622C0000 		.4byte	.LLST266
 11053 3277 44       		.uleb128 0x44
 11054 3278 22000000 		.4byte	.LBB312
 11055 327c 0A000000 		.4byte	.LBE312-.LBB312
 11056 3280 91320000 		.4byte	0x3291
 11057 3284 27       		.uleb128 0x27
 11058 3285 C8060000 		.4byte	.LASF230
 11059 3289 01       		.byte	0x1
 11060 328a 1D02     		.2byte	0x21d
 11061 328c B0090000 		.4byte	0x9b0
 11062 3290 00       		.byte	0
 11063 3291 32       		.uleb128 0x32
 11064 3292 0A000000 		.4byte	.LVL626
 11065 3296 98340000 		.4byte	0x3498
 11066 329a 33       		.uleb128 0x33
 11067 329b 01       		.uleb128 0x1
 11068 329c 50       		.byte	0x50
 11069 329d 03       		.uleb128 0x3
 11070 329e F3       		.byte	0xf3
 11071 329f 01       		.uleb128 0x1
 11072 32a0 50       		.byte	0x50
 11073 32a1 00       		.byte	0
 11074 32a2 00       		.byte	0
 11075 32a3 4D       		.uleb128 0x4d
 11076 32a4 C80C0000 		.4byte	.LASF266
 11077 32a8 01       		.byte	0x1
 11078 32a9 2A02     		.2byte	0x22a
 11079 32ab 43090000 		.4byte	0x943
 11080 32af 00000000 		.4byte	.LFB49
 11081 32b3 2E000000 		.4byte	.LFE49-.LFB49
 11082 32b7 01       		.uleb128 0x1
 11083 32b8 9C       		.byte	0x9c
 11084 32b9 39330000 		.4byte	0x3339
 11085 32bd 2D       		.uleb128 0x2d
 11086 32be D1040000 		.4byte	.LASF214
 11087 32c2 01       		.byte	0x1
 11088 32c3 2A02     		.2byte	0x22a
 11089 32c5 66130000 		.4byte	0x1366
ARM GAS  C:\Users\pearlstl\AppData\Local\Temp\ccIJtgHD.s 			page 226


 11090 32c9 892C0000 		.4byte	.LLST267
 11091 32cd 4A       		.uleb128 0x4a
 11092 32ce 726F7700 		.ascii	"row\000"
 11093 32d2 01       		.byte	0x1
 11094 32d3 2A02     		.2byte	0x22a
 11095 32d5 C3000000 		.4byte	0xc3
 11096 32d9 AA2C0000 		.4byte	.LLST268
 11097 32dd 4A       		.uleb128 0x4a
 11098 32de 636F6C00 		.ascii	"col\000"
 11099 32e2 01       		.byte	0x1
 11100 32e3 2A02     		.2byte	0x22a
 11101 32e5 C3000000 		.4byte	0xc3
 11102 32e9 CB2C0000 		.4byte	.LLST269
 11103 32ed 2E       		.uleb128 0x2e
 11104 32ee 65787400 		.ascii	"ext\000"
 11105 32f2 01       		.byte	0x1
 11106 32f3 2E02     		.2byte	0x22e
 11107 32f5 6C130000 		.4byte	0x136c
 11108 32f9 EC2C0000 		.4byte	.LLST270
 11109 32fd 30       		.uleb128 0x30
 11110 32fe 3A000000 		.4byte	.LASF193
 11111 3302 01       		.byte	0x1
 11112 3303 3302     		.2byte	0x233
 11113 3305 CE000000 		.4byte	0xce
 11114 3309 0A2D0000 		.4byte	.LLST271
 11115 330d 44       		.uleb128 0x44
 11116 330e 22000000 		.4byte	.LBB313
 11117 3312 08000000 		.4byte	.LBE313-.LBB313
 11118 3316 27330000 		.4byte	0x3327
 11119 331a 27       		.uleb128 0x27
 11120 331b C8060000 		.4byte	.LASF230
 11121 331f 01       		.byte	0x1
 11122 3320 3802     		.2byte	0x238
 11123 3322 B0090000 		.4byte	0x9b0
 11124 3326 00       		.byte	0
 11125 3327 32       		.uleb128 0x32
 11126 3328 0A000000 		.4byte	.LVL633
 11127 332c 98340000 		.4byte	0x3498
 11128 3330 33       		.uleb128 0x33
 11129 3331 01       		.uleb128 0x1
 11130 3332 50       		.byte	0x50
 11131 3333 03       		.uleb128 0x3
 11132 3334 F3       		.byte	0xf3
 11133 3335 01       		.uleb128 0x1
 11134 3336 50       		.byte	0x50
 11135 3337 00       		.byte	0
 11136 3338 00       		.byte	0
 11137 3339 4D       		.uleb128 0x4d
 11138 333a 0E0F0000 		.4byte	.LASF267
 11139 333e 01       		.byte	0x1
 11140 333f 4502     		.2byte	0x245
 11141 3341 BF010000 		.4byte	0x1bf
 11142 3345 00000000 		.4byte	.LFB50
 11143 3349 2E000000 		.4byte	.LFE50-.LFB50
 11144 334d 01       		.uleb128 0x1
 11145 334e 9C       		.byte	0x9c
 11146 334f D3330000 		.4byte	0x33d3
ARM GAS  C:\Users\pearlstl\AppData\Local\Temp\ccIJtgHD.s 			page 227


 11147 3353 2D       		.uleb128 0x2d
 11148 3354 D1040000 		.4byte	.LASF214
 11149 3358 01       		.byte	0x1
 11150 3359 4502     		.2byte	0x245
 11151 335b 66130000 		.4byte	0x1366
 11152 335f 312D0000 		.4byte	.LLST272
 11153 3363 4A       		.uleb128 0x4a
 11154 3364 726F7700 		.ascii	"row\000"
 11155 3368 01       		.byte	0x1
 11156 3369 4502     		.2byte	0x245
 11157 336b C3000000 		.4byte	0xc3
 11158 336f 522D0000 		.4byte	.LLST273
 11159 3373 4A       		.uleb128 0x4a
 11160 3374 636F6C00 		.ascii	"col\000"
 11161 3378 01       		.byte	0x1
 11162 3379 4502     		.2byte	0x245
 11163 337b C3000000 		.4byte	0xc3
 11164 337f 732D0000 		.4byte	.LLST274
 11165 3383 2E       		.uleb128 0x2e
 11166 3384 65787400 		.ascii	"ext\000"
 11167 3388 01       		.byte	0x1
 11168 3389 4902     		.2byte	0x249
 11169 338b 6C130000 		.4byte	0x136c
 11170 338f 942D0000 		.4byte	.LLST275
 11171 3393 30       		.uleb128 0x30
 11172 3394 3A000000 		.4byte	.LASF193
 11173 3398 01       		.byte	0x1
 11174 3399 4F02     		.2byte	0x24f
 11175 339b CE000000 		.4byte	0xce
 11176 339f B22D0000 		.4byte	.LLST276
 11177 33a3 44       		.uleb128 0x44
 11178 33a4 22000000 		.4byte	.LBB314
 11179 33a8 08000000 		.4byte	.LBE314-.LBB314
 11180 33ac C1330000 		.4byte	0x33c1
 11181 33b0 30       		.uleb128 0x30
 11182 33b1 C8060000 		.4byte	.LASF230
 11183 33b5 01       		.byte	0x1
 11184 33b6 5402     		.2byte	0x254
 11185 33b8 B0090000 		.4byte	0x9b0
 11186 33bc D92D0000 		.4byte	.LLST277
 11187 33c0 00       		.byte	0
 11188 33c1 32       		.uleb128 0x32
 11189 33c2 0A000000 		.4byte	.LVL640
 11190 33c6 98340000 		.4byte	0x3498
 11191 33ca 33       		.uleb128 0x33
 11192 33cb 01       		.uleb128 0x1
 11193 33cc 50       		.byte	0x50
 11194 33cd 03       		.uleb128 0x3
 11195 33ce F3       		.byte	0xf3
 11196 33cf 01       		.uleb128 0x1
 11197 33d0 50       		.byte	0x50
 11198 33d1 00       		.byte	0
 11199 33d2 00       		.byte	0
 11200 33d3 4D       		.uleb128 0x4d
 11201 33d4 B00C0000 		.4byte	.LASF268
 11202 33d8 01       		.byte	0x1
 11203 33d9 6002     		.2byte	0x260
ARM GAS  C:\Users\pearlstl\AppData\Local\Temp\ccIJtgHD.s 			page 228


 11204 33db D2080000 		.4byte	0x8d2
 11205 33df 00000000 		.4byte	.LFB51
 11206 33e3 36000000 		.4byte	.LFE51-.LFB51
 11207 33e7 01       		.uleb128 0x1
 11208 33e8 9C       		.byte	0x9c
 11209 33e9 53340000 		.4byte	0x3453
 11210 33ed 2D       		.uleb128 0x2d
 11211 33ee D1040000 		.4byte	.LASF214
 11212 33f2 01       		.byte	0x1
 11213 33f3 6002     		.2byte	0x260
 11214 33f5 10240000 		.4byte	0x2410
 11215 33f9 FA2D0000 		.4byte	.LLST278
 11216 33fd 2D       		.uleb128 0x2d
 11217 33fe 85010000 		.4byte	.LASF49
 11218 3402 01       		.byte	0x1
 11219 3403 6002     		.2byte	0x260
 11220 3405 5C0A0000 		.4byte	0xa5c
 11221 3409 3C2E0000 		.4byte	.LLST279
 11222 340d 2E       		.uleb128 0x2e
 11223 340e 65787400 		.ascii	"ext\000"
 11224 3412 01       		.byte	0x1
 11225 3413 6402     		.2byte	0x264
 11226 3415 6C130000 		.4byte	0x136c
 11227 3419 5D2E0000 		.4byte	.LLST280
 11228 341d 30       		.uleb128 0x30
 11229 341e 050A0000 		.4byte	.LASF215
 11230 3422 01       		.byte	0x1
 11231 3423 6502     		.2byte	0x265
 11232 3425 D2080000 		.4byte	0x8d2
 11233 3429 A72E0000 		.4byte	.LLST281
 11234 342d 34       		.uleb128 0x34
 11235 342e 0A000000 		.4byte	.LVL650
 11236 3432 98340000 		.4byte	0x3498
 11237 3436 41340000 		.4byte	0x3441
 11238 343a 33       		.uleb128 0x33
 11239 343b 01       		.uleb128 0x1
 11240 343c 50       		.byte	0x50
 11241 343d 02       		.uleb128 0x2
 11242 343e 75       		.byte	0x75
 11243 343f 00       		.sleb128 0
 11244 3440 00       		.byte	0
 11245 3441 37       		.uleb128 0x37
 11246 3442 26000000 		.4byte	.LVL655
 11247 3446 FE340000 		.4byte	0x34fe
 11248 344a 33       		.uleb128 0x33
 11249 344b 01       		.uleb128 0x1
 11250 344c 50       		.byte	0x50
 11251 344d 03       		.uleb128 0x3
 11252 344e F3       		.byte	0xf3
 11253 344f 01       		.uleb128 0x1
 11254 3450 50       		.byte	0x50
 11255 3451 00       		.byte	0
 11256 3452 00       		.byte	0
 11257 3453 4E       		.uleb128 0x4e
 11258 3454 150B0000 		.4byte	.LASF269
 11259 3458 01       		.byte	0x1
 11260 3459 26       		.byte	0x26
ARM GAS  C:\Users\pearlstl\AppData\Local\Temp\ccIJtgHD.s 			page 229


 11261 345a 25080000 		.4byte	0x825
 11262 345e 05       		.uleb128 0x5
 11263 345f 03       		.byte	0x3
 11264 3460 00000000 		.4byte	ancestor_signal
 11265 3464 4E       		.uleb128 0x4e
 11266 3465 AC0F0000 		.4byte	.LASF270
 11267 3469 01       		.byte	0x1
 11268 346a 27       		.byte	0x27
 11269 346b 3F070000 		.4byte	0x73f
 11270 346f 05       		.uleb128 0x5
 11271 3470 03       		.byte	0x3
 11272 3471 04000000 		.4byte	ancestor_scrl_design
 11273 3475 4F       		.uleb128 0x4f
 11274 3476 54090000 		.4byte	.LASF271
 11275 347a 08       		.byte	0x8
 11276 347b 0F01     		.2byte	0x10f
 11277 347d 39050000 		.4byte	0x539
 11278 3481 4F       		.uleb128 0x4f
 11279 3482 AC050000 		.4byte	.LASF272
 11280 3486 08       		.byte	0x8
 11281 3487 1001     		.2byte	0x110
 11282 3489 39050000 		.4byte	0x539
 11283 348d 50       		.uleb128 0x50
 11284 348e BC020000 		.4byte	.LASF273
 11285 3492 BC020000 		.4byte	.LASF273
 11286 3496 0D       		.byte	0xd
 11287 3497 4C       		.byte	0x4c
 11288 3498 51       		.uleb128 0x51
 11289 3499 3C050000 		.4byte	.LASF274
 11290 349d 3C050000 		.4byte	.LASF274
 11291 34a1 0C       		.byte	0xc
 11292 34a2 AA03     		.2byte	0x3aa
 11293 34a4 50       		.uleb128 0x50
 11294 34a5 70000000 		.4byte	.LASF275
 11295 34a9 70000000 		.4byte	.LASF275
 11296 34ad 11       		.byte	0x11
 11297 34ae 4B       		.byte	0x4b
 11298 34af 51       		.uleb128 0x51
 11299 34b0 FA0B0000 		.4byte	.LASF276
 11300 34b4 FA0B0000 		.4byte	.LASF276
 11301 34b8 0C       		.byte	0xc
 11302 34b9 E703     		.2byte	0x3e7
 11303 34bb 50       		.uleb128 0x50
 11304 34bc 11030000 		.4byte	.LASF277
 11305 34c0 11030000 		.4byte	.LASF277
 11306 34c4 07       		.byte	0x7
 11307 34c5 89       		.byte	0x89
 11308 34c6 50       		.uleb128 0x50
 11309 34c7 650C0000 		.4byte	.LASF278
 11310 34cb 650C0000 		.4byte	.LASF278
 11311 34cf 12       		.byte	0x12
 11312 34d0 25       		.byte	0x25
 11313 34d1 51       		.uleb128 0x51
 11314 34d2 E6060000 		.4byte	.LASF279
 11315 34d6 E6060000 		.4byte	.LASF279
 11316 34da 0C       		.byte	0xc
 11317 34db 6C03     		.2byte	0x36c
ARM GAS  C:\Users\pearlstl\AppData\Local\Temp\ccIJtgHD.s 			page 230


 11318 34dd 50       		.uleb128 0x50
 11319 34de 36070000 		.4byte	.LASF280
 11320 34e2 36070000 		.4byte	.LASF280
 11321 34e6 13       		.byte	0x13
 11322 34e7 44       		.byte	0x44
 11323 34e8 50       		.uleb128 0x50
 11324 34e9 0A070000 		.4byte	.LASF281
 11325 34ed 0A070000 		.4byte	.LASF281
 11326 34f1 08       		.byte	0x8
 11327 34f2 A0       		.byte	0xa0
 11328 34f3 50       		.uleb128 0x50
 11329 34f4 8B0A0000 		.4byte	.LASF282
 11330 34f8 8B0A0000 		.4byte	.LASF282
 11331 34fc 14       		.byte	0x14
 11332 34fd 25       		.byte	0x25
 11333 34fe 51       		.uleb128 0x51
 11334 34ff 42040000 		.4byte	.LASF283
 11335 3503 42040000 		.4byte	.LASF283
 11336 3507 0C       		.byte	0xc
 11337 3508 2D03     		.2byte	0x32d
 11338 350a 51       		.uleb128 0x51
 11339 350b C90D0000 		.4byte	.LASF284
 11340 350f C90D0000 		.4byte	.LASF284
 11341 3513 0C       		.byte	0xc
 11342 3514 7A03     		.2byte	0x37a
 11343 3516 51       		.uleb128 0x51
 11344 3517 6D0E0000 		.4byte	.LASF285
 11345 351b 6D0E0000 		.4byte	.LASF285
 11346 351f 0C       		.byte	0xc
 11347 3520 8501     		.2byte	0x185
 11348 3522 51       		.uleb128 0x51
 11349 3523 7D0E0000 		.4byte	.LASF286
 11350 3527 7D0E0000 		.4byte	.LASF286
 11351 352b 0C       		.byte	0xc
 11352 352c 4801     		.2byte	0x148
 11353 352e 52       		.uleb128 0x52
 11354 352f DC040000 		.4byte	.LASF305
 11355 3533 DC040000 		.4byte	.LASF305
 11356 3537 50       		.uleb128 0x50
 11357 3538 550E0000 		.4byte	.LASF287
 11358 353c 550E0000 		.4byte	.LASF287
 11359 3540 11       		.byte	0x11
 11360 3541 54       		.byte	0x54
 11361 3542 51       		.uleb128 0x51
 11362 3543 65070000 		.4byte	.LASF288
 11363 3547 65070000 		.4byte	.LASF288
 11364 354b 0C       		.byte	0xc
 11365 354c D001     		.2byte	0x1d0
 11366 354e 51       		.uleb128 0x51
 11367 354f 2A0E0000 		.4byte	.LASF289
 11368 3553 2A0E0000 		.4byte	.LASF289
 11369 3557 0C       		.byte	0xc
 11370 3558 CA01     		.2byte	0x1ca
 11371 355a 51       		.uleb128 0x51
 11372 355b D00F0000 		.4byte	.LASF290
 11373 355f D00F0000 		.4byte	.LASF290
 11374 3563 10       		.byte	0x10
ARM GAS  C:\Users\pearlstl\AppData\Local\Temp\ccIJtgHD.s 			page 231


 11375 3564 6501     		.2byte	0x165
 11376 3566 51       		.uleb128 0x51
 11377 3567 780C0000 		.4byte	.LASF291
 11378 356b 780C0000 		.4byte	.LASF291
 11379 356f 0C       		.byte	0xc
 11380 3570 E901     		.2byte	0x1e9
 11381 3572 51       		.uleb128 0x51
 11382 3573 64050000 		.4byte	.LASF292
 11383 3577 64050000 		.4byte	.LASF292
 11384 357b 0C       		.byte	0xc
 11385 357c 2401     		.2byte	0x124
 11386 357e 51       		.uleb128 0x51
 11387 357f A3040000 		.4byte	.LASF293
 11388 3583 A3040000 		.4byte	.LASF293
 11389 3587 0C       		.byte	0xc
 11390 3588 7A02     		.2byte	0x27a
 11391 358a 51       		.uleb128 0x51
 11392 358b 3D010000 		.4byte	.LASF294
 11393 358f 3D010000 		.4byte	.LASF294
 11394 3593 0C       		.byte	0xc
 11395 3594 6002     		.2byte	0x260
 11396 3596 51       		.uleb128 0x51
 11397 3597 BA070000 		.4byte	.LASF295
 11398 359b BA070000 		.4byte	.LASF295
 11399 359f 0C       		.byte	0xc
 11400 35a0 6E02     		.2byte	0x26e
 11401 35a2 51       		.uleb128 0x51
 11402 35a3 850B0000 		.4byte	.LASF296
 11403 35a7 850B0000 		.4byte	.LASF296
 11404 35ab 0C       		.byte	0xc
 11405 35ac 9003     		.2byte	0x390
 11406 35ae 51       		.uleb128 0x51
 11407 35af BF0A0000 		.4byte	.LASF297
 11408 35b3 BF0A0000 		.4byte	.LASF297
 11409 35b7 0C       		.byte	0xc
 11410 35b8 9703     		.2byte	0x397
 11411 35ba 50       		.uleb128 0x50
 11412 35bb F70D0000 		.4byte	.LASF298
 11413 35bf F70D0000 		.4byte	.LASF298
 11414 35c3 15       		.byte	0x15
 11415 35c4 21       		.byte	0x21
 11416 35c5 50       		.uleb128 0x50
 11417 35c6 CF060000 		.4byte	.LASF299
 11418 35ca CF060000 		.4byte	.LASF299
 11419 35ce 15       		.byte	0x15
 11420 35cf 1E       		.byte	0x1e
 11421 35d0 50       		.uleb128 0x50
 11422 35d1 9A0B0000 		.4byte	.LASF300
 11423 35d5 9A0B0000 		.4byte	.LASF300
 11424 35d9 11       		.byte	0x11
 11425 35da 45       		.byte	0x45
 11426 35db 00       		.byte	0
 11427              		.section	.debug_abbrev,"",%progbits
 11428              	.Ldebug_abbrev0:
 11429 0000 01       		.uleb128 0x1
 11430 0001 11       		.uleb128 0x11
 11431 0002 01       		.byte	0x1
ARM GAS  C:\Users\pearlstl\AppData\Local\Temp\ccIJtgHD.s 			page 232


 11432 0003 25       		.uleb128 0x25
 11433 0004 0E       		.uleb128 0xe
 11434 0005 13       		.uleb128 0x13
 11435 0006 0B       		.uleb128 0xb
 11436 0007 03       		.uleb128 0x3
 11437 0008 0E       		.uleb128 0xe
 11438 0009 1B       		.uleb128 0x1b
 11439 000a 0E       		.uleb128 0xe
 11440 000b 55       		.uleb128 0x55
 11441 000c 17       		.uleb128 0x17
 11442 000d 11       		.uleb128 0x11
 11443 000e 01       		.uleb128 0x1
 11444 000f 10       		.uleb128 0x10
 11445 0010 17       		.uleb128 0x17
 11446 0011 00       		.byte	0
 11447 0012 00       		.byte	0
 11448 0013 02       		.uleb128 0x2
 11449 0014 16       		.uleb128 0x16
 11450 0015 00       		.byte	0
 11451 0016 03       		.uleb128 0x3
 11452 0017 0E       		.uleb128 0xe
 11453 0018 3A       		.uleb128 0x3a
 11454 0019 0B       		.uleb128 0xb
 11455 001a 3B       		.uleb128 0x3b
 11456 001b 0B       		.uleb128 0xb
 11457 001c 49       		.uleb128 0x49
 11458 001d 13       		.uleb128 0x13
 11459 001e 00       		.byte	0
 11460 001f 00       		.byte	0
 11461 0020 03       		.uleb128 0x3
 11462 0021 24       		.uleb128 0x24
 11463 0022 00       		.byte	0
 11464 0023 0B       		.uleb128 0xb
 11465 0024 0B       		.uleb128 0xb
 11466 0025 3E       		.uleb128 0x3e
 11467 0026 0B       		.uleb128 0xb
 11468 0027 03       		.uleb128 0x3
 11469 0028 0E       		.uleb128 0xe
 11470 0029 00       		.byte	0
 11471 002a 00       		.byte	0
 11472 002b 04       		.uleb128 0x4
 11473 002c 24       		.uleb128 0x24
 11474 002d 00       		.byte	0
 11475 002e 0B       		.uleb128 0xb
 11476 002f 0B       		.uleb128 0xb
 11477 0030 3E       		.uleb128 0x3e
 11478 0031 0B       		.uleb128 0xb
 11479 0032 03       		.uleb128 0x3
 11480 0033 08       		.uleb128 0x8
 11481 0034 00       		.byte	0
 11482 0035 00       		.byte	0
 11483 0036 05       		.uleb128 0x5
 11484 0037 0F       		.uleb128 0xf
 11485 0038 00       		.byte	0
 11486 0039 0B       		.uleb128 0xb
 11487 003a 0B       		.uleb128 0xb
 11488 003b 00       		.byte	0
ARM GAS  C:\Users\pearlstl\AppData\Local\Temp\ccIJtgHD.s 			page 233


 11489 003c 00       		.byte	0
 11490 003d 06       		.uleb128 0x6
 11491 003e 13       		.uleb128 0x13
 11492 003f 01       		.byte	0x1
 11493 0040 0B       		.uleb128 0xb
 11494 0041 0B       		.uleb128 0xb
 11495 0042 3A       		.uleb128 0x3a
 11496 0043 0B       		.uleb128 0xb
 11497 0044 3B       		.uleb128 0x3b
 11498 0045 0B       		.uleb128 0xb
 11499 0046 01       		.uleb128 0x1
 11500 0047 13       		.uleb128 0x13
 11501 0048 00       		.byte	0
 11502 0049 00       		.byte	0
 11503 004a 07       		.uleb128 0x7
 11504 004b 0D       		.uleb128 0xd
 11505 004c 00       		.byte	0
 11506 004d 03       		.uleb128 0x3
 11507 004e 0E       		.uleb128 0xe
 11508 004f 3A       		.uleb128 0x3a
 11509 0050 0B       		.uleb128 0xb
 11510 0051 3B       		.uleb128 0x3b
 11511 0052 0B       		.uleb128 0xb
 11512 0053 49       		.uleb128 0x49
 11513 0054 13       		.uleb128 0x13
 11514 0055 38       		.uleb128 0x38
 11515 0056 0B       		.uleb128 0xb
 11516 0057 00       		.byte	0
 11517 0058 00       		.byte	0
 11518 0059 08       		.uleb128 0x8
 11519 005a 0D       		.uleb128 0xd
 11520 005b 00       		.byte	0
 11521 005c 03       		.uleb128 0x3
 11522 005d 08       		.uleb128 0x8
 11523 005e 3A       		.uleb128 0x3a
 11524 005f 0B       		.uleb128 0xb
 11525 0060 3B       		.uleb128 0x3b
 11526 0061 0B       		.uleb128 0xb
 11527 0062 49       		.uleb128 0x49
 11528 0063 13       		.uleb128 0x13
 11529 0064 38       		.uleb128 0x38
 11530 0065 0B       		.uleb128 0xb
 11531 0066 00       		.byte	0
 11532 0067 00       		.byte	0
 11533 0068 09       		.uleb128 0x9
 11534 0069 13       		.uleb128 0x13
 11535 006a 01       		.byte	0x1
 11536 006b 03       		.uleb128 0x3
 11537 006c 0E       		.uleb128 0xe
 11538 006d 0B       		.uleb128 0xb
 11539 006e 0B       		.uleb128 0xb
 11540 006f 3A       		.uleb128 0x3a
 11541 0070 0B       		.uleb128 0xb
 11542 0071 3B       		.uleb128 0x3b
 11543 0072 0B       		.uleb128 0xb
 11544 0073 01       		.uleb128 0x1
 11545 0074 13       		.uleb128 0x13
ARM GAS  C:\Users\pearlstl\AppData\Local\Temp\ccIJtgHD.s 			page 234


 11546 0075 00       		.byte	0
 11547 0076 00       		.byte	0
 11548 0077 0A       		.uleb128 0xa
 11549 0078 0D       		.uleb128 0xd
 11550 0079 00       		.byte	0
 11551 007a 03       		.uleb128 0x3
 11552 007b 0E       		.uleb128 0xe
 11553 007c 3A       		.uleb128 0x3a
 11554 007d 0B       		.uleb128 0xb
 11555 007e 3B       		.uleb128 0x3b
 11556 007f 0B       		.uleb128 0xb
 11557 0080 49       		.uleb128 0x49
 11558 0081 13       		.uleb128 0x13
 11559 0082 0B       		.uleb128 0xb
 11560 0083 0B       		.uleb128 0xb
 11561 0084 0D       		.uleb128 0xd
 11562 0085 0B       		.uleb128 0xb
 11563 0086 0C       		.uleb128 0xc
 11564 0087 0B       		.uleb128 0xb
 11565 0088 38       		.uleb128 0x38
 11566 0089 0B       		.uleb128 0xb
 11567 008a 00       		.byte	0
 11568 008b 00       		.byte	0
 11569 008c 0B       		.uleb128 0xb
 11570 008d 15       		.uleb128 0x15
 11571 008e 01       		.byte	0x1
 11572 008f 27       		.uleb128 0x27
 11573 0090 19       		.uleb128 0x19
 11574 0091 49       		.uleb128 0x49
 11575 0092 13       		.uleb128 0x13
 11576 0093 01       		.uleb128 0x1
 11577 0094 13       		.uleb128 0x13
 11578 0095 00       		.byte	0
 11579 0096 00       		.byte	0
 11580 0097 0C       		.uleb128 0xc
 11581 0098 05       		.uleb128 0x5
 11582 0099 00       		.byte	0
 11583 009a 49       		.uleb128 0x49
 11584 009b 13       		.uleb128 0x13
 11585 009c 00       		.byte	0
 11586 009d 00       		.byte	0
 11587 009e 0D       		.uleb128 0xd
 11588 009f 0F       		.uleb128 0xf
 11589 00a0 00       		.byte	0
 11590 00a1 0B       		.uleb128 0xb
 11591 00a2 0B       		.uleb128 0xb
 11592 00a3 49       		.uleb128 0x49
 11593 00a4 13       		.uleb128 0x13
 11594 00a5 00       		.byte	0
 11595 00a6 00       		.byte	0
 11596 00a7 0E       		.uleb128 0xe
 11597 00a8 26       		.uleb128 0x26
 11598 00a9 00       		.byte	0
 11599 00aa 49       		.uleb128 0x49
 11600 00ab 13       		.uleb128 0x13
 11601 00ac 00       		.byte	0
 11602 00ad 00       		.byte	0
ARM GAS  C:\Users\pearlstl\AppData\Local\Temp\ccIJtgHD.s 			page 235


 11603 00ae 0F       		.uleb128 0xf
 11604 00af 17       		.uleb128 0x17
 11605 00b0 01       		.byte	0x1
 11606 00b1 0B       		.uleb128 0xb
 11607 00b2 0B       		.uleb128 0xb
 11608 00b3 3A       		.uleb128 0x3a
 11609 00b4 0B       		.uleb128 0xb
 11610 00b5 3B       		.uleb128 0x3b
 11611 00b6 0B       		.uleb128 0xb
 11612 00b7 01       		.uleb128 0x1
 11613 00b8 13       		.uleb128 0x13
 11614 00b9 00       		.byte	0
 11615 00ba 00       		.byte	0
 11616 00bb 10       		.uleb128 0x10
 11617 00bc 0D       		.uleb128 0xd
 11618 00bd 00       		.byte	0
 11619 00be 03       		.uleb128 0x3
 11620 00bf 08       		.uleb128 0x8
 11621 00c0 3A       		.uleb128 0x3a
 11622 00c1 0B       		.uleb128 0xb
 11623 00c2 3B       		.uleb128 0x3b
 11624 00c3 0B       		.uleb128 0xb
 11625 00c4 49       		.uleb128 0x49
 11626 00c5 13       		.uleb128 0x13
 11627 00c6 00       		.byte	0
 11628 00c7 00       		.byte	0
 11629 00c8 11       		.uleb128 0x11
 11630 00c9 0D       		.uleb128 0xd
 11631 00ca 00       		.byte	0
 11632 00cb 03       		.uleb128 0x3
 11633 00cc 0E       		.uleb128 0xe
 11634 00cd 3A       		.uleb128 0x3a
 11635 00ce 0B       		.uleb128 0xb
 11636 00cf 3B       		.uleb128 0x3b
 11637 00d0 0B       		.uleb128 0xb
 11638 00d1 49       		.uleb128 0x49
 11639 00d2 13       		.uleb128 0x13
 11640 00d3 00       		.byte	0
 11641 00d4 00       		.byte	0
 11642 00d5 12       		.uleb128 0x12
 11643 00d6 16       		.uleb128 0x16
 11644 00d7 00       		.byte	0
 11645 00d8 03       		.uleb128 0x3
 11646 00d9 0E       		.uleb128 0xe
 11647 00da 3A       		.uleb128 0x3a
 11648 00db 0B       		.uleb128 0xb
 11649 00dc 3B       		.uleb128 0x3b
 11650 00dd 05       		.uleb128 0x5
 11651 00de 49       		.uleb128 0x49
 11652 00df 13       		.uleb128 0x13
 11653 00e0 00       		.byte	0
 11654 00e1 00       		.byte	0
 11655 00e2 13       		.uleb128 0x13
 11656 00e3 04       		.uleb128 0x4
 11657 00e4 01       		.byte	0x1
 11658 00e5 0B       		.uleb128 0xb
 11659 00e6 0B       		.uleb128 0xb
ARM GAS  C:\Users\pearlstl\AppData\Local\Temp\ccIJtgHD.s 			page 236


 11660 00e7 49       		.uleb128 0x49
 11661 00e8 13       		.uleb128 0x13
 11662 00e9 3A       		.uleb128 0x3a
 11663 00ea 0B       		.uleb128 0xb
 11664 00eb 3B       		.uleb128 0x3b
 11665 00ec 0B       		.uleb128 0xb
 11666 00ed 01       		.uleb128 0x1
 11667 00ee 13       		.uleb128 0x13
 11668 00ef 00       		.byte	0
 11669 00f0 00       		.byte	0
 11670 00f1 14       		.uleb128 0x14
 11671 00f2 28       		.uleb128 0x28
 11672 00f3 00       		.byte	0
 11673 00f4 03       		.uleb128 0x3
 11674 00f5 0E       		.uleb128 0xe
 11675 00f6 1C       		.uleb128 0x1c
 11676 00f7 0B       		.uleb128 0xb
 11677 00f8 00       		.byte	0
 11678 00f9 00       		.byte	0
 11679 00fa 15       		.uleb128 0x15
 11680 00fb 0D       		.uleb128 0xd
 11681 00fc 00       		.byte	0
 11682 00fd 03       		.uleb128 0x3
 11683 00fe 08       		.uleb128 0x8
 11684 00ff 3A       		.uleb128 0x3a
 11685 0100 0B       		.uleb128 0xb
 11686 0101 3B       		.uleb128 0x3b
 11687 0102 0B       		.uleb128 0xb
 11688 0103 49       		.uleb128 0x49
 11689 0104 13       		.uleb128 0x13
 11690 0105 0B       		.uleb128 0xb
 11691 0106 0B       		.uleb128 0xb
 11692 0107 0D       		.uleb128 0xd
 11693 0108 0B       		.uleb128 0xb
 11694 0109 0C       		.uleb128 0xc
 11695 010a 0B       		.uleb128 0xb
 11696 010b 38       		.uleb128 0x38
 11697 010c 0B       		.uleb128 0xb
 11698 010d 00       		.byte	0
 11699 010e 00       		.byte	0
 11700 010f 16       		.uleb128 0x16
 11701 0110 15       		.uleb128 0x15
 11702 0111 01       		.byte	0x1
 11703 0112 27       		.uleb128 0x27
 11704 0113 19       		.uleb128 0x19
 11705 0114 01       		.uleb128 0x1
 11706 0115 13       		.uleb128 0x13
 11707 0116 00       		.byte	0
 11708 0117 00       		.byte	0
 11709 0118 17       		.uleb128 0x17
 11710 0119 01       		.uleb128 0x1
 11711 011a 01       		.byte	0x1
 11712 011b 49       		.uleb128 0x49
 11713 011c 13       		.uleb128 0x13
 11714 011d 01       		.uleb128 0x1
 11715 011e 13       		.uleb128 0x13
 11716 011f 00       		.byte	0
ARM GAS  C:\Users\pearlstl\AppData\Local\Temp\ccIJtgHD.s 			page 237


 11717 0120 00       		.byte	0
 11718 0121 18       		.uleb128 0x18
 11719 0122 21       		.uleb128 0x21
 11720 0123 00       		.byte	0
 11721 0124 49       		.uleb128 0x49
 11722 0125 13       		.uleb128 0x13
 11723 0126 2F       		.uleb128 0x2f
 11724 0127 0B       		.uleb128 0xb
 11725 0128 00       		.byte	0
 11726 0129 00       		.byte	0
 11727 012a 19       		.uleb128 0x19
 11728 012b 0D       		.uleb128 0xd
 11729 012c 00       		.byte	0
 11730 012d 03       		.uleb128 0x3
 11731 012e 08       		.uleb128 0x8
 11732 012f 3A       		.uleb128 0x3a
 11733 0130 0B       		.uleb128 0xb
 11734 0131 3B       		.uleb128 0x3b
 11735 0132 05       		.uleb128 0x5
 11736 0133 49       		.uleb128 0x49
 11737 0134 13       		.uleb128 0x13
 11738 0135 38       		.uleb128 0x38
 11739 0136 0B       		.uleb128 0xb
 11740 0137 00       		.byte	0
 11741 0138 00       		.byte	0
 11742 0139 1A       		.uleb128 0x1a
 11743 013a 0D       		.uleb128 0xd
 11744 013b 00       		.byte	0
 11745 013c 03       		.uleb128 0x3
 11746 013d 0E       		.uleb128 0xe
 11747 013e 3A       		.uleb128 0x3a
 11748 013f 0B       		.uleb128 0xb
 11749 0140 3B       		.uleb128 0x3b
 11750 0141 05       		.uleb128 0x5
 11751 0142 49       		.uleb128 0x49
 11752 0143 13       		.uleb128 0x13
 11753 0144 38       		.uleb128 0x38
 11754 0145 0B       		.uleb128 0xb
 11755 0146 00       		.byte	0
 11756 0147 00       		.byte	0
 11757 0148 1B       		.uleb128 0x1b
 11758 0149 13       		.uleb128 0x13
 11759 014a 01       		.byte	0x1
 11760 014b 0B       		.uleb128 0xb
 11761 014c 0B       		.uleb128 0xb
 11762 014d 3A       		.uleb128 0x3a
 11763 014e 0B       		.uleb128 0xb
 11764 014f 3B       		.uleb128 0x3b
 11765 0150 05       		.uleb128 0x5
 11766 0151 01       		.uleb128 0x1
 11767 0152 13       		.uleb128 0x13
 11768 0153 00       		.byte	0
 11769 0154 00       		.byte	0
 11770 0155 1C       		.uleb128 0x1c
 11771 0156 13       		.uleb128 0x13
 11772 0157 01       		.byte	0x1
 11773 0158 0B       		.uleb128 0xb
ARM GAS  C:\Users\pearlstl\AppData\Local\Temp\ccIJtgHD.s 			page 238


 11774 0159 05       		.uleb128 0x5
 11775 015a 3A       		.uleb128 0x3a
 11776 015b 0B       		.uleb128 0xb
 11777 015c 3B       		.uleb128 0x3b
 11778 015d 0B       		.uleb128 0xb
 11779 015e 01       		.uleb128 0x1
 11780 015f 13       		.uleb128 0x13
 11781 0160 00       		.byte	0
 11782 0161 00       		.byte	0
 11783 0162 1D       		.uleb128 0x1d
 11784 0163 0D       		.uleb128 0xd
 11785 0164 00       		.byte	0
 11786 0165 03       		.uleb128 0x3
 11787 0166 0E       		.uleb128 0xe
 11788 0167 3A       		.uleb128 0x3a
 11789 0168 0B       		.uleb128 0xb
 11790 0169 3B       		.uleb128 0x3b
 11791 016a 0B       		.uleb128 0xb
 11792 016b 49       		.uleb128 0x49
 11793 016c 13       		.uleb128 0x13
 11794 016d 38       		.uleb128 0x38
 11795 016e 05       		.uleb128 0x5
 11796 016f 00       		.byte	0
 11797 0170 00       		.byte	0
 11798 0171 1E       		.uleb128 0x1e
 11799 0172 0D       		.uleb128 0xd
 11800 0173 00       		.byte	0
 11801 0174 03       		.uleb128 0x3
 11802 0175 08       		.uleb128 0x8
 11803 0176 3A       		.uleb128 0x3a
 11804 0177 0B       		.uleb128 0xb
 11805 0178 3B       		.uleb128 0x3b
 11806 0179 0B       		.uleb128 0xb
 11807 017a 49       		.uleb128 0x49
 11808 017b 13       		.uleb128 0x13
 11809 017c 38       		.uleb128 0x38
 11810 017d 05       		.uleb128 0x5
 11811 017e 00       		.byte	0
 11812 017f 00       		.byte	0
 11813 0180 1F       		.uleb128 0x1f
 11814 0181 0D       		.uleb128 0xd
 11815 0182 00       		.byte	0
 11816 0183 03       		.uleb128 0x3
 11817 0184 0E       		.uleb128 0xe
 11818 0185 3A       		.uleb128 0x3a
 11819 0186 0B       		.uleb128 0xb
 11820 0187 3B       		.uleb128 0x3b
 11821 0188 05       		.uleb128 0x5
 11822 0189 49       		.uleb128 0x49
 11823 018a 13       		.uleb128 0x13
 11824 018b 38       		.uleb128 0x38
 11825 018c 05       		.uleb128 0x5
 11826 018d 00       		.byte	0
 11827 018e 00       		.byte	0
 11828 018f 20       		.uleb128 0x20
 11829 0190 0D       		.uleb128 0xd
 11830 0191 00       		.byte	0
ARM GAS  C:\Users\pearlstl\AppData\Local\Temp\ccIJtgHD.s 			page 239


 11831 0192 03       		.uleb128 0x3
 11832 0193 08       		.uleb128 0x8
 11833 0194 3A       		.uleb128 0x3a
 11834 0195 0B       		.uleb128 0xb
 11835 0196 3B       		.uleb128 0x3b
 11836 0197 05       		.uleb128 0x5
 11837 0198 49       		.uleb128 0x49
 11838 0199 13       		.uleb128 0x13
 11839 019a 38       		.uleb128 0x38
 11840 019b 05       		.uleb128 0x5
 11841 019c 00       		.byte	0
 11842 019d 00       		.byte	0
 11843 019e 21       		.uleb128 0x21
 11844 019f 2E       		.uleb128 0x2e
 11845 01a0 01       		.byte	0x1
 11846 01a1 03       		.uleb128 0x3
 11847 01a2 0E       		.uleb128 0xe
 11848 01a3 3A       		.uleb128 0x3a
 11849 01a4 0B       		.uleb128 0xb
 11850 01a5 3B       		.uleb128 0x3b
 11851 01a6 0B       		.uleb128 0xb
 11852 01a7 27       		.uleb128 0x27
 11853 01a8 19       		.uleb128 0x19
 11854 01a9 49       		.uleb128 0x49
 11855 01aa 13       		.uleb128 0x13
 11856 01ab 20       		.uleb128 0x20
 11857 01ac 0B       		.uleb128 0xb
 11858 01ad 01       		.uleb128 0x1
 11859 01ae 13       		.uleb128 0x13
 11860 01af 00       		.byte	0
 11861 01b0 00       		.byte	0
 11862 01b1 22       		.uleb128 0x22
 11863 01b2 05       		.uleb128 0x5
 11864 01b3 00       		.byte	0
 11865 01b4 03       		.uleb128 0x3
 11866 01b5 0E       		.uleb128 0xe
 11867 01b6 3A       		.uleb128 0x3a
 11868 01b7 0B       		.uleb128 0xb
 11869 01b8 3B       		.uleb128 0x3b
 11870 01b9 0B       		.uleb128 0xb
 11871 01ba 49       		.uleb128 0x49
 11872 01bb 13       		.uleb128 0x13
 11873 01bc 00       		.byte	0
 11874 01bd 00       		.byte	0
 11875 01be 23       		.uleb128 0x23
 11876 01bf 2E       		.uleb128 0x2e
 11877 01c0 01       		.byte	0x1
 11878 01c1 03       		.uleb128 0x3
 11879 01c2 0E       		.uleb128 0xe
 11880 01c3 3A       		.uleb128 0x3a
 11881 01c4 0B       		.uleb128 0xb
 11882 01c5 3B       		.uleb128 0x3b
 11883 01c6 05       		.uleb128 0x5
 11884 01c7 27       		.uleb128 0x27
 11885 01c8 19       		.uleb128 0x19
 11886 01c9 49       		.uleb128 0x49
 11887 01ca 13       		.uleb128 0x13
ARM GAS  C:\Users\pearlstl\AppData\Local\Temp\ccIJtgHD.s 			page 240


 11888 01cb 20       		.uleb128 0x20
 11889 01cc 0B       		.uleb128 0xb
 11890 01cd 01       		.uleb128 0x1
 11891 01ce 13       		.uleb128 0x13
 11892 01cf 00       		.byte	0
 11893 01d0 00       		.byte	0
 11894 01d1 24       		.uleb128 0x24
 11895 01d2 05       		.uleb128 0x5
 11896 01d3 00       		.byte	0
 11897 01d4 03       		.uleb128 0x3
 11898 01d5 0E       		.uleb128 0xe
 11899 01d6 3A       		.uleb128 0x3a
 11900 01d7 0B       		.uleb128 0xb
 11901 01d8 3B       		.uleb128 0x3b
 11902 01d9 05       		.uleb128 0x5
 11903 01da 49       		.uleb128 0x49
 11904 01db 13       		.uleb128 0x13
 11905 01dc 00       		.byte	0
 11906 01dd 00       		.byte	0
 11907 01de 25       		.uleb128 0x25
 11908 01df 0B       		.uleb128 0xb
 11909 01e0 01       		.byte	0x1
 11910 01e1 00       		.byte	0
 11911 01e2 00       		.byte	0
 11912 01e3 26       		.uleb128 0x26
 11913 01e4 34       		.uleb128 0x34
 11914 01e5 00       		.byte	0
 11915 01e6 03       		.uleb128 0x3
 11916 01e7 08       		.uleb128 0x8
 11917 01e8 3A       		.uleb128 0x3a
 11918 01e9 0B       		.uleb128 0xb
 11919 01ea 3B       		.uleb128 0x3b
 11920 01eb 05       		.uleb128 0x5
 11921 01ec 49       		.uleb128 0x49
 11922 01ed 13       		.uleb128 0x13
 11923 01ee 00       		.byte	0
 11924 01ef 00       		.byte	0
 11925 01f0 27       		.uleb128 0x27
 11926 01f1 34       		.uleb128 0x34
 11927 01f2 00       		.byte	0
 11928 01f3 03       		.uleb128 0x3
 11929 01f4 0E       		.uleb128 0xe
 11930 01f5 3A       		.uleb128 0x3a
 11931 01f6 0B       		.uleb128 0xb
 11932 01f7 3B       		.uleb128 0x3b
 11933 01f8 05       		.uleb128 0x5
 11934 01f9 49       		.uleb128 0x49
 11935 01fa 13       		.uleb128 0x13
 11936 01fb 00       		.byte	0
 11937 01fc 00       		.byte	0
 11938 01fd 28       		.uleb128 0x28
 11939 01fe 2E       		.uleb128 0x2e
 11940 01ff 01       		.byte	0x1
 11941 0200 3F       		.uleb128 0x3f
 11942 0201 19       		.uleb128 0x19
 11943 0202 03       		.uleb128 0x3
 11944 0203 0E       		.uleb128 0xe
ARM GAS  C:\Users\pearlstl\AppData\Local\Temp\ccIJtgHD.s 			page 241


 11945 0204 3A       		.uleb128 0x3a
 11946 0205 0B       		.uleb128 0xb
 11947 0206 3B       		.uleb128 0x3b
 11948 0207 0B       		.uleb128 0xb
 11949 0208 27       		.uleb128 0x27
 11950 0209 19       		.uleb128 0x19
 11951 020a 20       		.uleb128 0x20
 11952 020b 0B       		.uleb128 0xb
 11953 020c 01       		.uleb128 0x1
 11954 020d 13       		.uleb128 0x13
 11955 020e 00       		.byte	0
 11956 020f 00       		.byte	0
 11957 0210 29       		.uleb128 0x29
 11958 0211 34       		.uleb128 0x34
 11959 0212 00       		.byte	0
 11960 0213 03       		.uleb128 0x3
 11961 0214 08       		.uleb128 0x8
 11962 0215 3A       		.uleb128 0x3a
 11963 0216 0B       		.uleb128 0xb
 11964 0217 3B       		.uleb128 0x3b
 11965 0218 0B       		.uleb128 0xb
 11966 0219 49       		.uleb128 0x49
 11967 021a 13       		.uleb128 0x13
 11968 021b 00       		.byte	0
 11969 021c 00       		.byte	0
 11970 021d 2A       		.uleb128 0x2a
 11971 021e 34       		.uleb128 0x34
 11972 021f 00       		.byte	0
 11973 0220 03       		.uleb128 0x3
 11974 0221 0E       		.uleb128 0xe
 11975 0222 3A       		.uleb128 0x3a
 11976 0223 0B       		.uleb128 0xb
 11977 0224 3B       		.uleb128 0x3b
 11978 0225 0B       		.uleb128 0xb
 11979 0226 49       		.uleb128 0x49
 11980 0227 13       		.uleb128 0x13
 11981 0228 00       		.byte	0
 11982 0229 00       		.byte	0
 11983 022a 2B       		.uleb128 0x2b
 11984 022b 2E       		.uleb128 0x2e
 11985 022c 01       		.byte	0x1
 11986 022d 3F       		.uleb128 0x3f
 11987 022e 19       		.uleb128 0x19
 11988 022f 03       		.uleb128 0x3
 11989 0230 0E       		.uleb128 0xe
 11990 0231 3A       		.uleb128 0x3a
 11991 0232 0B       		.uleb128 0xb
 11992 0233 3B       		.uleb128 0x3b
 11993 0234 05       		.uleb128 0x5
 11994 0235 27       		.uleb128 0x27
 11995 0236 19       		.uleb128 0x19
 11996 0237 20       		.uleb128 0x20
 11997 0238 0B       		.uleb128 0xb
 11998 0239 01       		.uleb128 0x1
 11999 023a 13       		.uleb128 0x13
 12000 023b 00       		.byte	0
 12001 023c 00       		.byte	0
ARM GAS  C:\Users\pearlstl\AppData\Local\Temp\ccIJtgHD.s 			page 242


 12002 023d 2C       		.uleb128 0x2c
 12003 023e 2E       		.uleb128 0x2e
 12004 023f 01       		.byte	0x1
 12005 0240 03       		.uleb128 0x3
 12006 0241 0E       		.uleb128 0xe
 12007 0242 3A       		.uleb128 0x3a
 12008 0243 0B       		.uleb128 0xb
 12009 0244 3B       		.uleb128 0x3b
 12010 0245 05       		.uleb128 0x5
 12011 0246 27       		.uleb128 0x27
 12012 0247 19       		.uleb128 0x19
 12013 0248 49       		.uleb128 0x49
 12014 0249 13       		.uleb128 0x13
 12015 024a 11       		.uleb128 0x11
 12016 024b 01       		.uleb128 0x1
 12017 024c 12       		.uleb128 0x12
 12018 024d 06       		.uleb128 0x6
 12019 024e 40       		.uleb128 0x40
 12020 024f 18       		.uleb128 0x18
 12021 0250 9742     		.uleb128 0x2117
 12022 0252 19       		.uleb128 0x19
 12023 0253 01       		.uleb128 0x1
 12024 0254 13       		.uleb128 0x13
 12025 0255 00       		.byte	0
 12026 0256 00       		.byte	0
 12027 0257 2D       		.uleb128 0x2d
 12028 0258 05       		.uleb128 0x5
 12029 0259 00       		.byte	0
 12030 025a 03       		.uleb128 0x3
 12031 025b 0E       		.uleb128 0xe
 12032 025c 3A       		.uleb128 0x3a
 12033 025d 0B       		.uleb128 0xb
 12034 025e 3B       		.uleb128 0x3b
 12035 025f 05       		.uleb128 0x5
 12036 0260 49       		.uleb128 0x49
 12037 0261 13       		.uleb128 0x13
 12038 0262 02       		.uleb128 0x2
 12039 0263 17       		.uleb128 0x17
 12040 0264 00       		.byte	0
 12041 0265 00       		.byte	0
 12042 0266 2E       		.uleb128 0x2e
 12043 0267 34       		.uleb128 0x34
 12044 0268 00       		.byte	0
 12045 0269 03       		.uleb128 0x3
 12046 026a 08       		.uleb128 0x8
 12047 026b 3A       		.uleb128 0x3a
 12048 026c 0B       		.uleb128 0xb
 12049 026d 3B       		.uleb128 0x3b
 12050 026e 05       		.uleb128 0x5
 12051 026f 49       		.uleb128 0x49
 12052 0270 13       		.uleb128 0x13
 12053 0271 02       		.uleb128 0x2
 12054 0272 17       		.uleb128 0x17
 12055 0273 00       		.byte	0
 12056 0274 00       		.byte	0
 12057 0275 2F       		.uleb128 0x2f
 12058 0276 34       		.uleb128 0x34
ARM GAS  C:\Users\pearlstl\AppData\Local\Temp\ccIJtgHD.s 			page 243


 12059 0277 00       		.byte	0
 12060 0278 03       		.uleb128 0x3
 12061 0279 0E       		.uleb128 0xe
 12062 027a 3A       		.uleb128 0x3a
 12063 027b 0B       		.uleb128 0xb
 12064 027c 3B       		.uleb128 0x3b
 12065 027d 05       		.uleb128 0x5
 12066 027e 49       		.uleb128 0x49
 12067 027f 13       		.uleb128 0x13
 12068 0280 02       		.uleb128 0x2
 12069 0281 18       		.uleb128 0x18
 12070 0282 00       		.byte	0
 12071 0283 00       		.byte	0
 12072 0284 30       		.uleb128 0x30
 12073 0285 34       		.uleb128 0x34
 12074 0286 00       		.byte	0
 12075 0287 03       		.uleb128 0x3
 12076 0288 0E       		.uleb128 0xe
 12077 0289 3A       		.uleb128 0x3a
 12078 028a 0B       		.uleb128 0xb
 12079 028b 3B       		.uleb128 0x3b
 12080 028c 05       		.uleb128 0x5
 12081 028d 49       		.uleb128 0x49
 12082 028e 13       		.uleb128 0x13
 12083 028f 02       		.uleb128 0x2
 12084 0290 17       		.uleb128 0x17
 12085 0291 00       		.byte	0
 12086 0292 00       		.byte	0
 12087 0293 31       		.uleb128 0x31
 12088 0294 0B       		.uleb128 0xb
 12089 0295 01       		.byte	0x1
 12090 0296 55       		.uleb128 0x55
 12091 0297 17       		.uleb128 0x17
 12092 0298 01       		.uleb128 0x1
 12093 0299 13       		.uleb128 0x13
 12094 029a 00       		.byte	0
 12095 029b 00       		.byte	0
 12096 029c 32       		.uleb128 0x32
 12097 029d 898201   		.uleb128 0x4109
 12098 02a0 01       		.byte	0x1
 12099 02a1 11       		.uleb128 0x11
 12100 02a2 01       		.uleb128 0x1
 12101 02a3 31       		.uleb128 0x31
 12102 02a4 13       		.uleb128 0x13
 12103 02a5 00       		.byte	0
 12104 02a6 00       		.byte	0
 12105 02a7 33       		.uleb128 0x33
 12106 02a8 8A8201   		.uleb128 0x410a
 12107 02ab 00       		.byte	0
 12108 02ac 02       		.uleb128 0x2
 12109 02ad 18       		.uleb128 0x18
 12110 02ae 9142     		.uleb128 0x2111
 12111 02b0 18       		.uleb128 0x18
 12112 02b1 00       		.byte	0
 12113 02b2 00       		.byte	0
 12114 02b3 34       		.uleb128 0x34
 12115 02b4 898201   		.uleb128 0x4109
ARM GAS  C:\Users\pearlstl\AppData\Local\Temp\ccIJtgHD.s 			page 244


 12116 02b7 01       		.byte	0x1
 12117 02b8 11       		.uleb128 0x11
 12118 02b9 01       		.uleb128 0x1
 12119 02ba 31       		.uleb128 0x31
 12120 02bb 13       		.uleb128 0x13
 12121 02bc 01       		.uleb128 0x1
 12122 02bd 13       		.uleb128 0x13
 12123 02be 00       		.byte	0
 12124 02bf 00       		.byte	0
 12125 02c0 35       		.uleb128 0x35
 12126 02c1 898201   		.uleb128 0x4109
 12127 02c4 00       		.byte	0
 12128 02c5 11       		.uleb128 0x11
 12129 02c6 01       		.uleb128 0x1
 12130 02c7 31       		.uleb128 0x31
 12131 02c8 13       		.uleb128 0x13
 12132 02c9 00       		.byte	0
 12133 02ca 00       		.byte	0
 12134 02cb 36       		.uleb128 0x36
 12135 02cc 898201   		.uleb128 0x4109
 12136 02cf 01       		.byte	0x1
 12137 02d0 11       		.uleb128 0x11
 12138 02d1 01       		.uleb128 0x1
 12139 02d2 01       		.uleb128 0x1
 12140 02d3 13       		.uleb128 0x13
 12141 02d4 00       		.byte	0
 12142 02d5 00       		.byte	0
 12143 02d6 37       		.uleb128 0x37
 12144 02d7 898201   		.uleb128 0x4109
 12145 02da 01       		.byte	0x1
 12146 02db 11       		.uleb128 0x11
 12147 02dc 01       		.uleb128 0x1
 12148 02dd 9542     		.uleb128 0x2115
 12149 02df 19       		.uleb128 0x19
 12150 02e0 31       		.uleb128 0x31
 12151 02e1 13       		.uleb128 0x13
 12152 02e2 00       		.byte	0
 12153 02e3 00       		.byte	0
 12154 02e4 38       		.uleb128 0x38
 12155 02e5 2E       		.uleb128 0x2e
 12156 02e6 01       		.byte	0x1
 12157 02e7 31       		.uleb128 0x31
 12158 02e8 13       		.uleb128 0x13
 12159 02e9 11       		.uleb128 0x11
 12160 02ea 01       		.uleb128 0x1
 12161 02eb 12       		.uleb128 0x12
 12162 02ec 06       		.uleb128 0x6
 12163 02ed 40       		.uleb128 0x40
 12164 02ee 18       		.uleb128 0x18
 12165 02ef 9742     		.uleb128 0x2117
 12166 02f1 19       		.uleb128 0x19
 12167 02f2 01       		.uleb128 0x1
 12168 02f3 13       		.uleb128 0x13
 12169 02f4 00       		.byte	0
 12170 02f5 00       		.byte	0
 12171 02f6 39       		.uleb128 0x39
 12172 02f7 05       		.uleb128 0x5
ARM GAS  C:\Users\pearlstl\AppData\Local\Temp\ccIJtgHD.s 			page 245


 12173 02f8 00       		.byte	0
 12174 02f9 31       		.uleb128 0x31
 12175 02fa 13       		.uleb128 0x13
 12176 02fb 02       		.uleb128 0x2
 12177 02fc 17       		.uleb128 0x17
 12178 02fd 00       		.byte	0
 12179 02fe 00       		.byte	0
 12180 02ff 3A       		.uleb128 0x3a
 12181 0300 0B       		.uleb128 0xb
 12182 0301 01       		.byte	0x1
 12183 0302 55       		.uleb128 0x55
 12184 0303 17       		.uleb128 0x17
 12185 0304 00       		.byte	0
 12186 0305 00       		.byte	0
 12187 0306 3B       		.uleb128 0x3b
 12188 0307 34       		.uleb128 0x34
 12189 0308 00       		.byte	0
 12190 0309 31       		.uleb128 0x31
 12191 030a 13       		.uleb128 0x13
 12192 030b 02       		.uleb128 0x2
 12193 030c 17       		.uleb128 0x17
 12194 030d 00       		.byte	0
 12195 030e 00       		.byte	0
 12196 030f 3C       		.uleb128 0x3c
 12197 0310 34       		.uleb128 0x34
 12198 0311 00       		.byte	0
 12199 0312 31       		.uleb128 0x31
 12200 0313 13       		.uleb128 0x13
 12201 0314 02       		.uleb128 0x2
 12202 0315 18       		.uleb128 0x18
 12203 0316 00       		.byte	0
 12204 0317 00       		.byte	0
 12205 0318 3D       		.uleb128 0x3d
 12206 0319 2E       		.uleb128 0x2e
 12207 031a 01       		.byte	0x1
 12208 031b 03       		.uleb128 0x3
 12209 031c 0E       		.uleb128 0xe
 12210 031d 3A       		.uleb128 0x3a
 12211 031e 0B       		.uleb128 0xb
 12212 031f 3B       		.uleb128 0x3b
 12213 0320 05       		.uleb128 0x5
 12214 0321 27       		.uleb128 0x27
 12215 0322 19       		.uleb128 0x19
 12216 0323 20       		.uleb128 0x20
 12217 0324 0B       		.uleb128 0xb
 12218 0325 01       		.uleb128 0x1
 12219 0326 13       		.uleb128 0x13
 12220 0327 00       		.byte	0
 12221 0328 00       		.byte	0
 12222 0329 3E       		.uleb128 0x3e
 12223 032a 2E       		.uleb128 0x2e
 12224 032b 01       		.byte	0x1
 12225 032c 3F       		.uleb128 0x3f
 12226 032d 19       		.uleb128 0x19
 12227 032e 03       		.uleb128 0x3
 12228 032f 0E       		.uleb128 0xe
 12229 0330 3A       		.uleb128 0x3a
ARM GAS  C:\Users\pearlstl\AppData\Local\Temp\ccIJtgHD.s 			page 246


 12230 0331 0B       		.uleb128 0xb
 12231 0332 3B       		.uleb128 0x3b
 12232 0333 0B       		.uleb128 0xb
 12233 0334 27       		.uleb128 0x27
 12234 0335 19       		.uleb128 0x19
 12235 0336 49       		.uleb128 0x49
 12236 0337 13       		.uleb128 0x13
 12237 0338 11       		.uleb128 0x11
 12238 0339 01       		.uleb128 0x1
 12239 033a 12       		.uleb128 0x12
 12240 033b 06       		.uleb128 0x6
 12241 033c 40       		.uleb128 0x40
 12242 033d 18       		.uleb128 0x18
 12243 033e 9742     		.uleb128 0x2117
 12244 0340 19       		.uleb128 0x19
 12245 0341 01       		.uleb128 0x1
 12246 0342 13       		.uleb128 0x13
 12247 0343 00       		.byte	0
 12248 0344 00       		.byte	0
 12249 0345 3F       		.uleb128 0x3f
 12250 0346 05       		.uleb128 0x5
 12251 0347 00       		.byte	0
 12252 0348 03       		.uleb128 0x3
 12253 0349 08       		.uleb128 0x8
 12254 034a 3A       		.uleb128 0x3a
 12255 034b 0B       		.uleb128 0xb
 12256 034c 3B       		.uleb128 0x3b
 12257 034d 0B       		.uleb128 0xb
 12258 034e 49       		.uleb128 0x49
 12259 034f 13       		.uleb128 0x13
 12260 0350 02       		.uleb128 0x2
 12261 0351 17       		.uleb128 0x17
 12262 0352 00       		.byte	0
 12263 0353 00       		.byte	0
 12264 0354 40       		.uleb128 0x40
 12265 0355 05       		.uleb128 0x5
 12266 0356 00       		.byte	0
 12267 0357 03       		.uleb128 0x3
 12268 0358 0E       		.uleb128 0xe
 12269 0359 3A       		.uleb128 0x3a
 12270 035a 0B       		.uleb128 0xb
 12271 035b 3B       		.uleb128 0x3b
 12272 035c 0B       		.uleb128 0xb
 12273 035d 49       		.uleb128 0x49
 12274 035e 13       		.uleb128 0x13
 12275 035f 02       		.uleb128 0x2
 12276 0360 17       		.uleb128 0x17
 12277 0361 00       		.byte	0
 12278 0362 00       		.byte	0
 12279 0363 41       		.uleb128 0x41
 12280 0364 34       		.uleb128 0x34
 12281 0365 00       		.byte	0
 12282 0366 03       		.uleb128 0x3
 12283 0367 0E       		.uleb128 0xe
 12284 0368 3A       		.uleb128 0x3a
 12285 0369 0B       		.uleb128 0xb
 12286 036a 3B       		.uleb128 0x3b
ARM GAS  C:\Users\pearlstl\AppData\Local\Temp\ccIJtgHD.s 			page 247


 12287 036b 0B       		.uleb128 0xb
 12288 036c 49       		.uleb128 0x49
 12289 036d 13       		.uleb128 0x13
 12290 036e 02       		.uleb128 0x2
 12291 036f 17       		.uleb128 0x17
 12292 0370 00       		.byte	0
 12293 0371 00       		.byte	0
 12294 0372 42       		.uleb128 0x42
 12295 0373 34       		.uleb128 0x34
 12296 0374 00       		.byte	0
 12297 0375 03       		.uleb128 0x3
 12298 0376 08       		.uleb128 0x8
 12299 0377 3A       		.uleb128 0x3a
 12300 0378 0B       		.uleb128 0xb
 12301 0379 3B       		.uleb128 0x3b
 12302 037a 0B       		.uleb128 0xb
 12303 037b 49       		.uleb128 0x49
 12304 037c 13       		.uleb128 0x13
 12305 037d 02       		.uleb128 0x2
 12306 037e 17       		.uleb128 0x17
 12307 037f 00       		.byte	0
 12308 0380 00       		.byte	0
 12309 0381 43       		.uleb128 0x43
 12310 0382 1D       		.uleb128 0x1d
 12311 0383 01       		.byte	0x1
 12312 0384 31       		.uleb128 0x31
 12313 0385 13       		.uleb128 0x13
 12314 0386 52       		.uleb128 0x52
 12315 0387 01       		.uleb128 0x1
 12316 0388 55       		.uleb128 0x55
 12317 0389 17       		.uleb128 0x17
 12318 038a 58       		.uleb128 0x58
 12319 038b 0B       		.uleb128 0xb
 12320 038c 59       		.uleb128 0x59
 12321 038d 0B       		.uleb128 0xb
 12322 038e 01       		.uleb128 0x1
 12323 038f 13       		.uleb128 0x13
 12324 0390 00       		.byte	0
 12325 0391 00       		.byte	0
 12326 0392 44       		.uleb128 0x44
 12327 0393 0B       		.uleb128 0xb
 12328 0394 01       		.byte	0x1
 12329 0395 11       		.uleb128 0x11
 12330 0396 01       		.uleb128 0x1
 12331 0397 12       		.uleb128 0x12
 12332 0398 06       		.uleb128 0x6
 12333 0399 01       		.uleb128 0x1
 12334 039a 13       		.uleb128 0x13
 12335 039b 00       		.byte	0
 12336 039c 00       		.byte	0
 12337 039d 45       		.uleb128 0x45
 12338 039e 34       		.uleb128 0x34
 12339 039f 00       		.byte	0
 12340 03a0 31       		.uleb128 0x31
 12341 03a1 13       		.uleb128 0x13
 12342 03a2 00       		.byte	0
 12343 03a3 00       		.byte	0
ARM GAS  C:\Users\pearlstl\AppData\Local\Temp\ccIJtgHD.s 			page 248


 12344 03a4 46       		.uleb128 0x46
 12345 03a5 1D       		.uleb128 0x1d
 12346 03a6 01       		.byte	0x1
 12347 03a7 31       		.uleb128 0x31
 12348 03a8 13       		.uleb128 0x13
 12349 03a9 52       		.uleb128 0x52
 12350 03aa 01       		.uleb128 0x1
 12351 03ab 55       		.uleb128 0x55
 12352 03ac 17       		.uleb128 0x17
 12353 03ad 58       		.uleb128 0x58
 12354 03ae 0B       		.uleb128 0xb
 12355 03af 59       		.uleb128 0x59
 12356 03b0 05       		.uleb128 0x5
 12357 03b1 01       		.uleb128 0x1
 12358 03b2 13       		.uleb128 0x13
 12359 03b3 00       		.byte	0
 12360 03b4 00       		.byte	0
 12361 03b5 47       		.uleb128 0x47
 12362 03b6 05       		.uleb128 0x5
 12363 03b7 00       		.byte	0
 12364 03b8 31       		.uleb128 0x31
 12365 03b9 13       		.uleb128 0x13
 12366 03ba 00       		.byte	0
 12367 03bb 00       		.byte	0
 12368 03bc 48       		.uleb128 0x48
 12369 03bd 2E       		.uleb128 0x2e
 12370 03be 01       		.byte	0x1
 12371 03bf 3F       		.uleb128 0x3f
 12372 03c0 19       		.uleb128 0x19
 12373 03c1 03       		.uleb128 0x3
 12374 03c2 0E       		.uleb128 0xe
 12375 03c3 3A       		.uleb128 0x3a
 12376 03c4 0B       		.uleb128 0xb
 12377 03c5 3B       		.uleb128 0x3b
 12378 03c6 0B       		.uleb128 0xb
 12379 03c7 27       		.uleb128 0x27
 12380 03c8 19       		.uleb128 0x19
 12381 03c9 11       		.uleb128 0x11
 12382 03ca 01       		.uleb128 0x1
 12383 03cb 12       		.uleb128 0x12
 12384 03cc 06       		.uleb128 0x6
 12385 03cd 40       		.uleb128 0x40
 12386 03ce 18       		.uleb128 0x18
 12387 03cf 9742     		.uleb128 0x2117
 12388 03d1 19       		.uleb128 0x19
 12389 03d2 01       		.uleb128 0x1
 12390 03d3 13       		.uleb128 0x13
 12391 03d4 00       		.byte	0
 12392 03d5 00       		.byte	0
 12393 03d6 49       		.uleb128 0x49
 12394 03d7 2E       		.uleb128 0x2e
 12395 03d8 01       		.byte	0x1
 12396 03d9 3F       		.uleb128 0x3f
 12397 03da 19       		.uleb128 0x19
 12398 03db 03       		.uleb128 0x3
 12399 03dc 0E       		.uleb128 0xe
 12400 03dd 3A       		.uleb128 0x3a
ARM GAS  C:\Users\pearlstl\AppData\Local\Temp\ccIJtgHD.s 			page 249


 12401 03de 0B       		.uleb128 0xb
 12402 03df 3B       		.uleb128 0x3b
 12403 03e0 05       		.uleb128 0x5
 12404 03e1 27       		.uleb128 0x27
 12405 03e2 19       		.uleb128 0x19
 12406 03e3 11       		.uleb128 0x11
 12407 03e4 01       		.uleb128 0x1
 12408 03e5 12       		.uleb128 0x12
 12409 03e6 06       		.uleb128 0x6
 12410 03e7 40       		.uleb128 0x40
 12411 03e8 18       		.uleb128 0x18
 12412 03e9 9742     		.uleb128 0x2117
 12413 03eb 19       		.uleb128 0x19
 12414 03ec 01       		.uleb128 0x1
 12415 03ed 13       		.uleb128 0x13
 12416 03ee 00       		.byte	0
 12417 03ef 00       		.byte	0
 12418 03f0 4A       		.uleb128 0x4a
 12419 03f1 05       		.uleb128 0x5
 12420 03f2 00       		.byte	0
 12421 03f3 03       		.uleb128 0x3
 12422 03f4 08       		.uleb128 0x8
 12423 03f5 3A       		.uleb128 0x3a
 12424 03f6 0B       		.uleb128 0xb
 12425 03f7 3B       		.uleb128 0x3b
 12426 03f8 05       		.uleb128 0x5
 12427 03f9 49       		.uleb128 0x49
 12428 03fa 13       		.uleb128 0x13
 12429 03fb 02       		.uleb128 0x2
 12430 03fc 17       		.uleb128 0x17
 12431 03fd 00       		.byte	0
 12432 03fe 00       		.byte	0
 12433 03ff 4B       		.uleb128 0x4b
 12434 0400 0B       		.uleb128 0xb
 12435 0401 01       		.byte	0x1
 12436 0402 11       		.uleb128 0x11
 12437 0403 01       		.uleb128 0x1
 12438 0404 12       		.uleb128 0x12
 12439 0405 06       		.uleb128 0x6
 12440 0406 00       		.byte	0
 12441 0407 00       		.byte	0
 12442 0408 4C       		.uleb128 0x4c
 12443 0409 1D       		.uleb128 0x1d
 12444 040a 01       		.byte	0x1
 12445 040b 31       		.uleb128 0x31
 12446 040c 13       		.uleb128 0x13
 12447 040d 11       		.uleb128 0x11
 12448 040e 01       		.uleb128 0x1
 12449 040f 12       		.uleb128 0x12
 12450 0410 06       		.uleb128 0x6
 12451 0411 58       		.uleb128 0x58
 12452 0412 0B       		.uleb128 0xb
 12453 0413 59       		.uleb128 0x59
 12454 0414 05       		.uleb128 0x5
 12455 0415 01       		.uleb128 0x1
 12456 0416 13       		.uleb128 0x13
 12457 0417 00       		.byte	0
ARM GAS  C:\Users\pearlstl\AppData\Local\Temp\ccIJtgHD.s 			page 250


 12458 0418 00       		.byte	0
 12459 0419 4D       		.uleb128 0x4d
 12460 041a 2E       		.uleb128 0x2e
 12461 041b 01       		.byte	0x1
 12462 041c 3F       		.uleb128 0x3f
 12463 041d 19       		.uleb128 0x19
 12464 041e 03       		.uleb128 0x3
 12465 041f 0E       		.uleb128 0xe
 12466 0420 3A       		.uleb128 0x3a
 12467 0421 0B       		.uleb128 0xb
 12468 0422 3B       		.uleb128 0x3b
 12469 0423 05       		.uleb128 0x5
 12470 0424 27       		.uleb128 0x27
 12471 0425 19       		.uleb128 0x19
 12472 0426 49       		.uleb128 0x49
 12473 0427 13       		.uleb128 0x13
 12474 0428 11       		.uleb128 0x11
 12475 0429 01       		.uleb128 0x1
 12476 042a 12       		.uleb128 0x12
 12477 042b 06       		.uleb128 0x6
 12478 042c 40       		.uleb128 0x40
 12479 042d 18       		.uleb128 0x18
 12480 042e 9742     		.uleb128 0x2117
 12481 0430 19       		.uleb128 0x19
 12482 0431 01       		.uleb128 0x1
 12483 0432 13       		.uleb128 0x13
 12484 0433 00       		.byte	0
 12485 0434 00       		.byte	0
 12486 0435 4E       		.uleb128 0x4e
 12487 0436 34       		.uleb128 0x34
 12488 0437 00       		.byte	0
 12489 0438 03       		.uleb128 0x3
 12490 0439 0E       		.uleb128 0xe
 12491 043a 3A       		.uleb128 0x3a
 12492 043b 0B       		.uleb128 0xb
 12493 043c 3B       		.uleb128 0x3b
 12494 043d 0B       		.uleb128 0xb
 12495 043e 49       		.uleb128 0x49
 12496 043f 13       		.uleb128 0x13
 12497 0440 02       		.uleb128 0x2
 12498 0441 18       		.uleb128 0x18
 12499 0442 00       		.byte	0
 12500 0443 00       		.byte	0
 12501 0444 4F       		.uleb128 0x4f
 12502 0445 34       		.uleb128 0x34
 12503 0446 00       		.byte	0
 12504 0447 03       		.uleb128 0x3
 12505 0448 0E       		.uleb128 0xe
 12506 0449 3A       		.uleb128 0x3a
 12507 044a 0B       		.uleb128 0xb
 12508 044b 3B       		.uleb128 0x3b
 12509 044c 05       		.uleb128 0x5
 12510 044d 49       		.uleb128 0x49
 12511 044e 13       		.uleb128 0x13
 12512 044f 3F       		.uleb128 0x3f
 12513 0450 19       		.uleb128 0x19
 12514 0451 3C       		.uleb128 0x3c
ARM GAS  C:\Users\pearlstl\AppData\Local\Temp\ccIJtgHD.s 			page 251


 12515 0452 19       		.uleb128 0x19
 12516 0453 00       		.byte	0
 12517 0454 00       		.byte	0
 12518 0455 50       		.uleb128 0x50
 12519 0456 2E       		.uleb128 0x2e
 12520 0457 00       		.byte	0
 12521 0458 3F       		.uleb128 0x3f
 12522 0459 19       		.uleb128 0x19
 12523 045a 3C       		.uleb128 0x3c
 12524 045b 19       		.uleb128 0x19
 12525 045c 6E       		.uleb128 0x6e
 12526 045d 0E       		.uleb128 0xe
 12527 045e 03       		.uleb128 0x3
 12528 045f 0E       		.uleb128 0xe
 12529 0460 3A       		.uleb128 0x3a
 12530 0461 0B       		.uleb128 0xb
 12531 0462 3B       		.uleb128 0x3b
 12532 0463 0B       		.uleb128 0xb
 12533 0464 00       		.byte	0
 12534 0465 00       		.byte	0
 12535 0466 51       		.uleb128 0x51
 12536 0467 2E       		.uleb128 0x2e
 12537 0468 00       		.byte	0
 12538 0469 3F       		.uleb128 0x3f
 12539 046a 19       		.uleb128 0x19
 12540 046b 3C       		.uleb128 0x3c
 12541 046c 19       		.uleb128 0x19
 12542 046d 6E       		.uleb128 0x6e
 12543 046e 0E       		.uleb128 0xe
 12544 046f 03       		.uleb128 0x3
 12545 0470 0E       		.uleb128 0xe
 12546 0471 3A       		.uleb128 0x3a
 12547 0472 0B       		.uleb128 0xb
 12548 0473 3B       		.uleb128 0x3b
 12549 0474 05       		.uleb128 0x5
 12550 0475 00       		.byte	0
 12551 0476 00       		.byte	0
 12552 0477 52       		.uleb128 0x52
 12553 0478 2E       		.uleb128 0x2e
 12554 0479 00       		.byte	0
 12555 047a 3F       		.uleb128 0x3f
 12556 047b 19       		.uleb128 0x19
 12557 047c 3C       		.uleb128 0x3c
 12558 047d 19       		.uleb128 0x19
 12559 047e 6E       		.uleb128 0x6e
 12560 047f 0E       		.uleb128 0xe
 12561 0480 03       		.uleb128 0x3
 12562 0481 0E       		.uleb128 0xe
 12563 0482 00       		.byte	0
 12564 0483 00       		.byte	0
 12565 0484 00       		.byte	0
 12566              		.section	.debug_loc,"",%progbits
 12567              	.Ldebug_loc0:
 12568              	.LLST0:
 12569 0000 00000000 		.4byte	.LVL0
 12570 0004 0B000000 		.4byte	.LVL1-1
 12571 0008 0100     		.2byte	0x1
ARM GAS  C:\Users\pearlstl\AppData\Local\Temp\ccIJtgHD.s 			page 252


 12572 000a 50       		.byte	0x50
 12573 000b 0B000000 		.4byte	.LVL1-1
 12574 000f 32010000 		.4byte	.LFE55
 12575 0013 0400     		.2byte	0x4
 12576 0015 F3       		.byte	0xf3
 12577 0016 01       		.uleb128 0x1
 12578 0017 50       		.byte	0x50
 12579 0018 9F       		.byte	0x9f
 12580 0019 00000000 		.4byte	0
 12581 001d 00000000 		.4byte	0
 12582              	.LLST1:
 12583 0021 00000000 		.4byte	.LVL0
 12584 0025 0B000000 		.4byte	.LVL1-1
 12585 0029 0100     		.2byte	0x1
 12586 002b 51       		.byte	0x51
 12587 002c 0B000000 		.4byte	.LVL1-1
 12588 0030 32010000 		.4byte	.LFE55
 12589 0034 0400     		.2byte	0x4
 12590 0036 F3       		.byte	0xf3
 12591 0037 01       		.uleb128 0x1
 12592 0038 51       		.byte	0x51
 12593 0039 9F       		.byte	0x9f
 12594 003a 00000000 		.4byte	0
 12595 003e 00000000 		.4byte	0
 12596              	.LLST2:
 12597 0042 18000000 		.4byte	.LVL2
 12598 0046 1A000000 		.4byte	.LVL3
 12599 004a 0100     		.2byte	0x1
 12600 004c 50       		.byte	0x50
 12601 004d 1A000000 		.4byte	.LVL3
 12602 0051 32010000 		.4byte	.LFE55
 12603 0055 0100     		.2byte	0x1
 12604 0057 56       		.byte	0x56
 12605 0058 00000000 		.4byte	0
 12606 005c 00000000 		.4byte	0
 12607              	.LLST3:
 12608 0060 50000000 		.4byte	.LVL7
 12609 0064 7E000000 		.4byte	.LVL14
 12610 0068 0100     		.2byte	0x1
 12611 006a 52       		.byte	0x52
 12612 006b 8A000000 		.4byte	.LVL15
 12613 006f AE000000 		.4byte	.LVL18
 12614 0073 0100     		.2byte	0x1
 12615 0075 52       		.byte	0x52
 12616 0076 DC000000 		.4byte	.LVL27
 12617 007a F2000000 		.4byte	.LVL29
 12618 007e 0100     		.2byte	0x1
 12619 0080 52       		.byte	0x52
 12620 0081 F2000000 		.4byte	.LVL29
 12621 0085 FA000000 		.4byte	.LVL30
 12622 0089 0100     		.2byte	0x1
 12623 008b 51       		.byte	0x51
 12624 008c FA000000 		.4byte	.LVL30
 12625 0090 05010000 		.4byte	.LVL31-1
 12626 0094 0200     		.2byte	0x2
 12627 0096 91       		.byte	0x91
 12628 0097 4C       		.sleb128 -52
ARM GAS  C:\Users\pearlstl\AppData\Local\Temp\ccIJtgHD.s 			page 253


 12629 0098 2E010000 		.4byte	.LVL36
 12630 009c 32010000 		.4byte	.LFE55
 12631 00a0 0100     		.2byte	0x1
 12632 00a2 52       		.byte	0x52
 12633 00a3 00000000 		.4byte	0
 12634 00a7 00000000 		.4byte	0
 12635              	.LLST4:
 12636 00ab 9E000000 		.4byte	.LVL17
 12637 00af C0000000 		.4byte	.LVL22
 12638 00b3 0100     		.2byte	0x1
 12639 00b5 5A       		.byte	0x5a
 12640 00b6 DC000000 		.4byte	.LVL27
 12641 00ba 2E010000 		.4byte	.LVL36
 12642 00be 0100     		.2byte	0x1
 12643 00c0 5A       		.byte	0x5a
 12644 00c1 00000000 		.4byte	0
 12645 00c5 00000000 		.4byte	0
 12646              	.LLST5:
 12647 00c9 24000000 		.4byte	.LVL4
 12648 00cd 36000000 		.4byte	.LVL6
 12649 00d1 0100     		.2byte	0x1
 12650 00d3 55       		.byte	0x55
 12651 00d4 36000000 		.4byte	.LVL6
 12652 00d8 D4000000 		.4byte	.LVL26
 12653 00dc 0100     		.2byte	0x1
 12654 00de 58       		.byte	0x58
 12655 00df DC000000 		.4byte	.LVL27
 12656 00e3 32010000 		.4byte	.LFE55
 12657 00e7 0100     		.2byte	0x1
 12658 00e9 58       		.byte	0x58
 12659 00ea 00000000 		.4byte	0
 12660 00ee 00000000 		.4byte	0
 12661              	.LLST6:
 12662 00f2 2E000000 		.4byte	.LVL5
 12663 00f6 C2000000 		.4byte	.LVL23
 12664 00fa 0100     		.2byte	0x1
 12665 00fc 55       		.byte	0x55
 12666 00fd C4000000 		.4byte	.LVL24
 12667 0101 1E010000 		.4byte	.LVL32
 12668 0105 0100     		.2byte	0x1
 12669 0107 55       		.byte	0x55
 12670 0108 2C010000 		.4byte	.LVL35
 12671 010c 32010000 		.4byte	.LFE55
 12672 0110 0100     		.2byte	0x1
 12673 0112 55       		.byte	0x55
 12674 0113 00000000 		.4byte	0
 12675 0117 00000000 		.4byte	0
 12676              	.LLST7:
 12677 011b 2E000000 		.4byte	.LVL5
 12678 011f 36000000 		.4byte	.LVL6
 12679 0123 0200     		.2byte	0x2
 12680 0125 30       		.byte	0x30
 12681 0126 9F       		.byte	0x9f
 12682 0127 36000000 		.4byte	.LVL6
 12683 012b D4000000 		.4byte	.LVL26
 12684 012f 0100     		.2byte	0x1
 12685 0131 59       		.byte	0x59
ARM GAS  C:\Users\pearlstl\AppData\Local\Temp\ccIJtgHD.s 			page 254


 12686 0132 DC000000 		.4byte	.LVL27
 12687 0136 2A010000 		.4byte	.LVL34
 12688 013a 0100     		.2byte	0x1
 12689 013c 59       		.byte	0x59
 12690 013d 2C010000 		.4byte	.LVL35
 12691 0141 32010000 		.4byte	.LFE55
 12692 0145 0100     		.2byte	0x1
 12693 0147 59       		.byte	0x59
 12694 0148 00000000 		.4byte	0
 12695 014c 00000000 		.4byte	0
 12696              	.LLST8:
 12697 0150 2E000000 		.4byte	.LVL5
 12698 0154 BC000000 		.4byte	.LVL21
 12699 0158 0100     		.2byte	0x1
 12700 015a 57       		.byte	0x57
 12701 015b C0000000 		.4byte	.LVL22
 12702 015f 22010000 		.4byte	.LVL33
 12703 0163 0100     		.2byte	0x1
 12704 0165 57       		.byte	0x57
 12705 0166 2C010000 		.4byte	.LVL35
 12706 016a 32010000 		.4byte	.LFE55
 12707 016e 0100     		.2byte	0x1
 12708 0170 57       		.byte	0x57
 12709 0171 00000000 		.4byte	0
 12710 0175 00000000 		.4byte	0
 12711              	.LLST9:
 12712 0179 50000000 		.4byte	.LVL7
 12713 017d 66000000 		.4byte	.LVL9
 12714 0181 0200     		.2byte	0x2
 12715 0183 30       		.byte	0x30
 12716 0184 9F       		.byte	0x9f
 12717 0185 66000000 		.4byte	.LVL9
 12718 0189 76000000 		.4byte	.LVL13
 12719 018d 0100     		.2byte	0x1
 12720 018f 54       		.byte	0x54
 12721 0190 8A000000 		.4byte	.LVL15
 12722 0194 8C000000 		.4byte	.LVL16
 12723 0198 0100     		.2byte	0x1
 12724 019a 54       		.byte	0x54
 12725 019b 2E010000 		.4byte	.LVL36
 12726 019f 32010000 		.4byte	.LFE55
 12727 01a3 0200     		.2byte	0x2
 12728 01a5 30       		.byte	0x30
 12729 01a6 9F       		.byte	0x9f
 12730 01a7 00000000 		.4byte	0
 12731 01ab 00000000 		.4byte	0
 12732              	.LLST10:
 12733 01af 52000000 		.4byte	.LVL8
 12734 01b3 66000000 		.4byte	.LVL9
 12735 01b7 0400     		.2byte	0x4
 12736 01b9 7C       		.byte	0x7c
 12737 01ba 00       		.sleb128 0
 12738 01bb 93       		.byte	0x93
 12739 01bc 01       		.uleb128 0x1
 12740 01bd 6A000000 		.4byte	.LVL10
 12741 01c1 6E000000 		.4byte	.LVL11
 12742 01c5 0400     		.2byte	0x4
ARM GAS  C:\Users\pearlstl\AppData\Local\Temp\ccIJtgHD.s 			page 255


 12743 01c7 70       		.byte	0x70
 12744 01c8 00       		.sleb128 0
 12745 01c9 93       		.byte	0x93
 12746 01ca 01       		.uleb128 0x1
 12747 01cb 6E000000 		.4byte	.LVL11
 12748 01cf 72000000 		.4byte	.LVL12
 12749 01d3 0D00     		.2byte	0xd
 12750 01d5 74       		.byte	0x74
 12751 01d6 00       		.sleb128 0
 12752 01d7 75       		.byte	0x75
 12753 01d8 00       		.sleb128 0
 12754 01d9 22       		.byte	0x22
 12755 01da 32       		.byte	0x32
 12756 01db 24       		.byte	0x24
 12757 01dc 71       		.byte	0x71
 12758 01dd 00       		.sleb128 0
 12759 01de 22       		.byte	0x22
 12760 01df 06       		.byte	0x6
 12761 01e0 93       		.byte	0x93
 12762 01e1 01       		.uleb128 0x1
 12763 01e2 72000000 		.4byte	.LVL12
 12764 01e6 8A000000 		.4byte	.LVL15
 12765 01ea 0400     		.2byte	0x4
 12766 01ec 7C       		.byte	0x7c
 12767 01ed 00       		.sleb128 0
 12768 01ee 93       		.byte	0x93
 12769 01ef 01       		.uleb128 0x1
 12770 01f0 00000000 		.4byte	0
 12771 01f4 00000000 		.4byte	0
 12772              	.LLST11:
 12773 01f8 00000000 		.4byte	.LVL37
 12774 01fc 0D000000 		.4byte	.LVL38-1
 12775 0200 0100     		.2byte	0x1
 12776 0202 50       		.byte	0x50
 12777 0203 0D000000 		.4byte	.LVL38-1
 12778 0207 1A000000 		.4byte	.LVL40
 12779 020b 0100     		.2byte	0x1
 12780 020d 55       		.byte	0x55
 12781 020e 1A000000 		.4byte	.LVL40
 12782 0212 1E000000 		.4byte	.LVL41
 12783 0216 0400     		.2byte	0x4
 12784 0218 F3       		.byte	0xf3
 12785 0219 01       		.uleb128 0x1
 12786 021a 50       		.byte	0x50
 12787 021b 9F       		.byte	0x9f
 12788 021c 1E000000 		.4byte	.LVL41
 12789 0220 30000000 		.4byte	.LVL44
 12790 0224 0100     		.2byte	0x1
 12791 0226 55       		.byte	0x55
 12792 0227 30000000 		.4byte	.LVL44
 12793 022b 64000000 		.4byte	.LVL51
 12794 022f 0400     		.2byte	0x4
 12795 0231 F3       		.byte	0xf3
 12796 0232 01       		.uleb128 0x1
 12797 0233 50       		.byte	0x50
 12798 0234 9F       		.byte	0x9f
 12799 0235 64000000 		.4byte	.LVL51
ARM GAS  C:\Users\pearlstl\AppData\Local\Temp\ccIJtgHD.s 			page 256


 12800 0239 6C000000 		.4byte	.LVL53
 12801 023d 0100     		.2byte	0x1
 12802 023f 55       		.byte	0x55
 12803 0240 6C000000 		.4byte	.LVL53
 12804 0244 78000000 		.4byte	.LFE53
 12805 0248 0400     		.2byte	0x4
 12806 024a F3       		.byte	0xf3
 12807 024b 01       		.uleb128 0x1
 12808 024c 50       		.byte	0x50
 12809 024d 9F       		.byte	0x9f
 12810 024e 00000000 		.4byte	0
 12811 0252 00000000 		.4byte	0
 12812              	.LLST12:
 12813 0256 00000000 		.4byte	.LVL37
 12814 025a 0D000000 		.4byte	.LVL38-1
 12815 025e 0100     		.2byte	0x1
 12816 0260 51       		.byte	0x51
 12817 0261 0D000000 		.4byte	.LVL38-1
 12818 0265 78000000 		.4byte	.LFE53
 12819 0269 0400     		.2byte	0x4
 12820 026b F3       		.byte	0xf3
 12821 026c 01       		.uleb128 0x1
 12822 026d 51       		.byte	0x51
 12823 026e 9F       		.byte	0x9f
 12824 026f 00000000 		.4byte	0
 12825 0273 00000000 		.4byte	0
 12826              	.LLST13:
 12827 0277 00000000 		.4byte	.LVL37
 12828 027b 0D000000 		.4byte	.LVL38-1
 12829 027f 0100     		.2byte	0x1
 12830 0281 52       		.byte	0x52
 12831 0282 0D000000 		.4byte	.LVL38-1
 12832 0286 1A000000 		.4byte	.LVL40
 12833 028a 0100     		.2byte	0x1
 12834 028c 56       		.byte	0x56
 12835 028d 1A000000 		.4byte	.LVL40
 12836 0291 1E000000 		.4byte	.LVL41
 12837 0295 0400     		.2byte	0x4
 12838 0297 F3       		.byte	0xf3
 12839 0298 01       		.uleb128 0x1
 12840 0299 52       		.byte	0x52
 12841 029a 9F       		.byte	0x9f
 12842 029b 1E000000 		.4byte	.LVL41
 12843 029f 34000000 		.4byte	.LVL45
 12844 02a3 0100     		.2byte	0x1
 12845 02a5 56       		.byte	0x56
 12846 02a6 34000000 		.4byte	.LVL45
 12847 02aa 64000000 		.4byte	.LVL51
 12848 02ae 0400     		.2byte	0x4
 12849 02b0 F3       		.byte	0xf3
 12850 02b1 01       		.uleb128 0x1
 12851 02b2 52       		.byte	0x52
 12852 02b3 9F       		.byte	0x9f
 12853 02b4 64000000 		.4byte	.LVL51
 12854 02b8 6C000000 		.4byte	.LVL53
 12855 02bc 0100     		.2byte	0x1
 12856 02be 56       		.byte	0x56
ARM GAS  C:\Users\pearlstl\AppData\Local\Temp\ccIJtgHD.s 			page 257


 12857 02bf 6C000000 		.4byte	.LVL53
 12858 02c3 6F000000 		.4byte	.LVL54-1
 12859 02c7 0100     		.2byte	0x1
 12860 02c9 50       		.byte	0x50
 12861 02ca 6F000000 		.4byte	.LVL54-1
 12862 02ce 78000000 		.4byte	.LFE53
 12863 02d2 0400     		.2byte	0x4
 12864 02d4 F3       		.byte	0xf3
 12865 02d5 01       		.uleb128 0x1
 12866 02d6 52       		.byte	0x52
 12867 02d7 9F       		.byte	0x9f
 12868 02d8 00000000 		.4byte	0
 12869 02dc 00000000 		.4byte	0
 12870              	.LLST14:
 12871 02e0 0E000000 		.4byte	.LVL38
 12872 02e4 1A000000 		.4byte	.LVL40
 12873 02e8 0100     		.2byte	0x1
 12874 02ea 50       		.byte	0x50
 12875 02eb 1E000000 		.4byte	.LVL41
 12876 02ef 20000000 		.4byte	.LVL42
 12877 02f3 0100     		.2byte	0x1
 12878 02f5 50       		.byte	0x50
 12879 02f6 64000000 		.4byte	.LVL51
 12880 02fa 66000000 		.4byte	.LVL52
 12881 02fe 0100     		.2byte	0x1
 12882 0300 50       		.byte	0x50
 12883 0301 00000000 		.4byte	0
 12884 0305 00000000 		.4byte	0
 12885              	.LLST15:
 12886 0309 30000000 		.4byte	.LVL44
 12887 030d 34000000 		.4byte	.LVL45
 12888 0311 0100     		.2byte	0x1
 12889 0313 50       		.byte	0x50
 12890 0314 34000000 		.4byte	.LVL45
 12891 0318 64000000 		.4byte	.LVL51
 12892 031c 0100     		.2byte	0x1
 12893 031e 55       		.byte	0x55
 12894 031f 00000000 		.4byte	0
 12895 0323 00000000 		.4byte	0
 12896              	.LLST16:
 12897 0327 30000000 		.4byte	.LVL44
 12898 032b 34000000 		.4byte	.LVL45
 12899 032f 0200     		.2byte	0x2
 12900 0331 30       		.byte	0x30
 12901 0332 9F       		.byte	0x9f
 12902 0333 34000000 		.4byte	.LVL45
 12903 0337 52000000 		.4byte	.LVL47
 12904 033b 0100     		.2byte	0x1
 12905 033d 54       		.byte	0x54
 12906 033e 54000000 		.4byte	.LVL48
 12907 0342 58000000 		.4byte	.LVL49
 12908 0346 0100     		.2byte	0x1
 12909 0348 54       		.byte	0x54
 12910 0349 00000000 		.4byte	0
 12911 034d 00000000 		.4byte	0
 12912              	.LLST17:
 12913 0351 00000000 		.4byte	.LVL55
ARM GAS  C:\Users\pearlstl\AppData\Local\Temp\ccIJtgHD.s 			page 258


 12914 0355 0A000000 		.4byte	.LVL56
 12915 0359 0100     		.2byte	0x1
 12916 035b 50       		.byte	0x50
 12917 035c 0A000000 		.4byte	.LVL56
 12918 0360 0C000000 		.4byte	.LVL57
 12919 0364 0400     		.2byte	0x4
 12920 0366 F3       		.byte	0xf3
 12921 0367 01       		.uleb128 0x1
 12922 0368 50       		.byte	0x50
 12923 0369 9F       		.byte	0x9f
 12924 036a 0C000000 		.4byte	.LVL57
 12925 036e 1F000000 		.4byte	.LVL60-1
 12926 0372 0100     		.2byte	0x1
 12927 0374 50       		.byte	0x50
 12928 0375 1F000000 		.4byte	.LVL60-1
 12929 0379 52000000 		.4byte	.LVL70
 12930 037d 0100     		.2byte	0x1
 12931 037f 55       		.byte	0x55
 12932 0380 52000000 		.4byte	.LVL70
 12933 0384 86030000 		.4byte	.LVL119
 12934 0388 0300     		.2byte	0x3
 12935 038a 91       		.byte	0x91
 12936 038b D47E     		.sleb128 -172
 12937 038d 86030000 		.4byte	.LVL119
 12938 0391 88030000 		.4byte	.LVL120
 12939 0395 0100     		.2byte	0x1
 12940 0397 50       		.byte	0x50
 12941 0398 88030000 		.4byte	.LVL120
 12942 039c 8A030000 		.4byte	.LVL121
 12943 03a0 0400     		.2byte	0x4
 12944 03a2 F3       		.byte	0xf3
 12945 03a3 01       		.uleb128 0x1
 12946 03a4 50       		.byte	0x50
 12947 03a5 9F       		.byte	0x9f
 12948 03a6 8A030000 		.4byte	.LVL121
 12949 03aa 8E030000 		.4byte	.LFE52
 12950 03ae 0300     		.2byte	0x3
 12951 03b0 91       		.byte	0x91
 12952 03b1 D47E     		.sleb128 -172
 12953 03b3 00000000 		.4byte	0
 12954 03b7 00000000 		.4byte	0
 12955              	.LLST18:
 12956 03bb 00000000 		.4byte	.LVL55
 12957 03bf 1F000000 		.4byte	.LVL60-1
 12958 03c3 0100     		.2byte	0x1
 12959 03c5 51       		.byte	0x51
 12960 03c6 1F000000 		.4byte	.LVL60-1
 12961 03ca 86030000 		.4byte	.LVL119
 12962 03ce 0300     		.2byte	0x3
 12963 03d0 91       		.byte	0x91
 12964 03d1 C07E     		.sleb128 -192
 12965 03d3 86030000 		.4byte	.LVL119
 12966 03d7 8A030000 		.4byte	.LVL121
 12967 03db 0100     		.2byte	0x1
 12968 03dd 51       		.byte	0x51
 12969 03de 8A030000 		.4byte	.LVL121
 12970 03e2 8E030000 		.4byte	.LFE52
ARM GAS  C:\Users\pearlstl\AppData\Local\Temp\ccIJtgHD.s 			page 259


 12971 03e6 0300     		.2byte	0x3
 12972 03e8 91       		.byte	0x91
 12973 03e9 C07E     		.sleb128 -192
 12974 03eb 00000000 		.4byte	0
 12975 03ef 00000000 		.4byte	0
 12976              	.LLST19:
 12977 03f3 00000000 		.4byte	.LVL55
 12978 03f7 1F000000 		.4byte	.LVL60-1
 12979 03fb 0100     		.2byte	0x1
 12980 03fd 52       		.byte	0x52
 12981 03fe 1F000000 		.4byte	.LVL60-1
 12982 0402 86030000 		.4byte	.LVL119
 12983 0406 0400     		.2byte	0x4
 12984 0408 F3       		.byte	0xf3
 12985 0409 01       		.uleb128 0x1
 12986 040a 52       		.byte	0x52
 12987 040b 9F       		.byte	0x9f
 12988 040c 86030000 		.4byte	.LVL119
 12989 0410 8A030000 		.4byte	.LVL121
 12990 0414 0100     		.2byte	0x1
 12991 0416 52       		.byte	0x52
 12992 0417 8A030000 		.4byte	.LVL121
 12993 041b 8E030000 		.4byte	.LFE52
 12994 041f 0400     		.2byte	0x4
 12995 0421 F3       		.byte	0xf3
 12996 0422 01       		.uleb128 0x1
 12997 0423 52       		.byte	0x52
 12998 0424 9F       		.byte	0x9f
 12999 0425 00000000 		.4byte	0
 13000 0429 00000000 		.4byte	0
 13001              	.LLST20:
 13002 042d 16000000 		.4byte	.LVL58
 13003 0431 EE020000 		.4byte	.LVL105
 13004 0435 0200     		.2byte	0x2
 13005 0437 30       		.byte	0x30
 13006 0438 9F       		.byte	0x9f
 13007 0439 F6020000 		.4byte	.LVL106
 13008 043d 86030000 		.4byte	.LVL119
 13009 0441 0200     		.2byte	0x2
 13010 0443 30       		.byte	0x30
 13011 0444 9F       		.byte	0x9f
 13012 0445 8A030000 		.4byte	.LVL121
 13013 0449 8E030000 		.4byte	.LFE52
 13014 044d 0200     		.2byte	0x2
 13015 044f 30       		.byte	0x30
 13016 0450 9F       		.byte	0x9f
 13017 0451 00000000 		.4byte	0
 13018 0455 00000000 		.4byte	0
 13019              	.LLST21:
 13020 0459 16000000 		.4byte	.LVL58
 13021 045d 1A000000 		.4byte	.LVL59
 13022 0461 0300     		.2byte	0x3
 13023 0463 91       		.byte	0x91
 13024 0464 C07E     		.sleb128 -192
 13025 0466 00000000 		.4byte	0
 13026 046a 00000000 		.4byte	0
 13027              	.LLST22:
ARM GAS  C:\Users\pearlstl\AppData\Local\Temp\ccIJtgHD.s 			page 260


 13028 046e 16000000 		.4byte	.LVL58
 13029 0472 52000000 		.4byte	.LVL70
 13030 0476 0100     		.2byte	0x1
 13031 0478 55       		.byte	0x55
 13032 0479 52000000 		.4byte	.LVL70
 13033 047d EE020000 		.4byte	.LVL105
 13034 0481 0300     		.2byte	0x3
 13035 0483 91       		.byte	0x91
 13036 0484 D47E     		.sleb128 -172
 13037 0486 F6020000 		.4byte	.LVL106
 13038 048a 86030000 		.4byte	.LVL119
 13039 048e 0300     		.2byte	0x3
 13040 0490 91       		.byte	0x91
 13041 0491 D47E     		.sleb128 -172
 13042 0493 8A030000 		.4byte	.LVL121
 13043 0497 8E030000 		.4byte	.LFE52
 13044 049b 0300     		.2byte	0x3
 13045 049d 91       		.byte	0x91
 13046 049e D47E     		.sleb128 -172
 13047 04a0 00000000 		.4byte	0
 13048 04a4 00000000 		.4byte	0
 13049              	.LLST23:
 13050 04a8 28000000 		.4byte	.LVL62
 13051 04ac 2A000000 		.4byte	.LVL63
 13052 04b0 0100     		.2byte	0x1
 13053 04b2 50       		.byte	0x50
 13054 04b3 2A000000 		.4byte	.LVL63
 13055 04b7 EE020000 		.4byte	.LVL105
 13056 04bb 0100     		.2byte	0x1
 13057 04bd 5A       		.byte	0x5a
 13058 04be F6020000 		.4byte	.LVL106
 13059 04c2 86030000 		.4byte	.LVL119
 13060 04c6 0100     		.2byte	0x1
 13061 04c8 5A       		.byte	0x5a
 13062 04c9 8A030000 		.4byte	.LVL121
 13063 04cd 8E030000 		.4byte	.LFE52
 13064 04d1 0100     		.2byte	0x1
 13065 04d3 5A       		.byte	0x5a
 13066 04d4 00000000 		.4byte	0
 13067 04d8 00000000 		.4byte	0
 13068              	.LLST24:
 13069 04dc 32000000 		.4byte	.LVL65
 13070 04e0 34000000 		.4byte	.LVL66
 13071 04e4 0100     		.2byte	0x1
 13072 04e6 50       		.byte	0x50
 13073 04e7 34000000 		.4byte	.LVL66
 13074 04eb 52000000 		.4byte	.LVL70
 13075 04ef 0100     		.2byte	0x1
 13076 04f1 56       		.byte	0x56
 13077 04f2 52000000 		.4byte	.LVL70
 13078 04f6 EE020000 		.4byte	.LVL105
 13079 04fa 0300     		.2byte	0x3
 13080 04fc 91       		.byte	0x91
 13081 04fd DC7E     		.sleb128 -164
 13082 04ff F6020000 		.4byte	.LVL106
 13083 0503 86030000 		.4byte	.LVL119
 13084 0507 0300     		.2byte	0x3
ARM GAS  C:\Users\pearlstl\AppData\Local\Temp\ccIJtgHD.s 			page 261


 13085 0509 91       		.byte	0x91
 13086 050a DC7E     		.sleb128 -164
 13087 050c 8A030000 		.4byte	.LVL121
 13088 0510 8E030000 		.4byte	.LFE52
 13089 0514 0300     		.2byte	0x3
 13090 0516 91       		.byte	0x91
 13091 0517 DC7E     		.sleb128 -164
 13092 0519 00000000 		.4byte	0
 13093 051d 00000000 		.4byte	0
 13094              	.LLST25:
 13095 0521 5C000000 		.4byte	.LVL71
 13096 0525 8E000000 		.4byte	.LVL73
 13097 0529 0100     		.2byte	0x1
 13098 052b 50       		.byte	0x50
 13099 052c 00000000 		.4byte	0
 13100 0530 00000000 		.4byte	0
 13101              	.LLST26:
 13102 0534 A2010000 		.4byte	.LVL85
 13103 0538 F8010000 		.4byte	.LVL87
 13104 053c 0200     		.2byte	0x2
 13105 053e 30       		.byte	0x30
 13106 053f 9F       		.byte	0x9f
 13107 0540 02020000 		.4byte	.LVL88
 13108 0544 C2020000 		.4byte	.LVL99
 13109 0548 0300     		.2byte	0x3
 13110 054a 91       		.byte	0x91
 13111 054b BC7E     		.sleb128 -196
 13112 054d F6020000 		.4byte	.LVL106
 13113 0551 2E030000 		.4byte	.LVL108
 13114 0555 0200     		.2byte	0x2
 13115 0557 32       		.byte	0x32
 13116 0558 9F       		.byte	0x9f
 13117 0559 42030000 		.4byte	.LVL111
 13118 055d 6E030000 		.4byte	.LVL116
 13119 0561 0300     		.2byte	0x3
 13120 0563 91       		.byte	0x91
 13121 0564 BC7E     		.sleb128 -196
 13122 0566 00000000 		.4byte	0
 13123 056a 00000000 		.4byte	0
 13124              	.LLST27:
 13125 056e 42000000 		.4byte	.LVL68
 13126 0572 EE020000 		.4byte	.LVL105
 13127 0576 0300     		.2byte	0x3
 13128 0578 91       		.byte	0x91
 13129 0579 C47E     		.sleb128 -188
 13130 057b F6020000 		.4byte	.LVL106
 13131 057f 86030000 		.4byte	.LVL119
 13132 0583 0300     		.2byte	0x3
 13133 0585 91       		.byte	0x91
 13134 0586 C47E     		.sleb128 -188
 13135 0588 8A030000 		.4byte	.LVL121
 13136 058c 8E030000 		.4byte	.LFE52
 13137 0590 0300     		.2byte	0x3
 13138 0592 91       		.byte	0x91
 13139 0593 C47E     		.sleb128 -188
 13140 0595 00000000 		.4byte	0
 13141 0599 00000000 		.4byte	0
ARM GAS  C:\Users\pearlstl\AppData\Local\Temp\ccIJtgHD.s 			page 262


 13142              	.LLST28:
 13143 059d 7C000000 		.4byte	.LVL72
 13144 05a1 96000000 		.4byte	.LVL74
 13145 05a5 0200     		.2byte	0x2
 13146 05a7 30       		.byte	0x30
 13147 05a8 9F       		.byte	0x9f
 13148 05a9 96000000 		.4byte	.LVL74
 13149 05ad CA020000 		.4byte	.LVL100
 13150 05b1 0100     		.2byte	0x1
 13151 05b3 59       		.byte	0x59
 13152 05b4 D6020000 		.4byte	.LVL102
 13153 05b8 DC020000 		.4byte	.LVL103
 13154 05bc 0100     		.2byte	0x1
 13155 05be 59       		.byte	0x59
 13156 05bf F6020000 		.4byte	.LVL106
 13157 05c3 86030000 		.4byte	.LVL119
 13158 05c7 0100     		.2byte	0x1
 13159 05c9 59       		.byte	0x59
 13160 05ca 8A030000 		.4byte	.LVL121
 13161 05ce 8E030000 		.4byte	.LFE52
 13162 05d2 0100     		.2byte	0x1
 13163 05d4 59       		.byte	0x59
 13164 05d5 00000000 		.4byte	0
 13165 05d9 00000000 		.4byte	0
 13166              	.LLST29:
 13167 05dd 48000000 		.4byte	.LVL69
 13168 05e1 52000000 		.4byte	.LVL70
 13169 05e5 0200     		.2byte	0x2
 13170 05e7 30       		.byte	0x30
 13171 05e8 9F       		.byte	0x9f
 13172 05e9 52000000 		.4byte	.LVL70
 13173 05ed EA020000 		.4byte	.LVL104
 13174 05f1 0300     		.2byte	0x3
 13175 05f3 91       		.byte	0x91
 13176 05f4 D87E     		.sleb128 -168
 13177 05f6 EA020000 		.4byte	.LVL104
 13178 05fa EE020000 		.4byte	.LVL105
 13179 05fe 0100     		.2byte	0x1
 13180 0600 52       		.byte	0x52
 13181 0601 F6020000 		.4byte	.LVL106
 13182 0605 86030000 		.4byte	.LVL119
 13183 0609 0300     		.2byte	0x3
 13184 060b 91       		.byte	0x91
 13185 060c D87E     		.sleb128 -168
 13186 060e 8A030000 		.4byte	.LVL121
 13187 0612 8E030000 		.4byte	.LFE52
 13188 0616 0300     		.2byte	0x3
 13189 0618 91       		.byte	0x91
 13190 0619 D87E     		.sleb128 -168
 13191 061b 00000000 		.4byte	0
 13192 061f 00000000 		.4byte	0
 13193              	.LLST30:
 13194 0623 42000000 		.4byte	.LVL68
 13195 0627 52000000 		.4byte	.LVL70
 13196 062b 0200     		.2byte	0x2
 13197 062d 30       		.byte	0x30
 13198 062e 9F       		.byte	0x9f
ARM GAS  C:\Users\pearlstl\AppData\Local\Temp\ccIJtgHD.s 			page 263


 13199 062f 52000000 		.4byte	.LVL70
 13200 0633 D0020000 		.4byte	.LVL101
 13201 0637 0100     		.2byte	0x1
 13202 0639 5B       		.byte	0x5b
 13203 063a D6020000 		.4byte	.LVL102
 13204 063e EE020000 		.4byte	.LVL105
 13205 0642 0100     		.2byte	0x1
 13206 0644 5B       		.byte	0x5b
 13207 0645 F6020000 		.4byte	.LVL106
 13208 0649 86030000 		.4byte	.LVL119
 13209 064d 0100     		.2byte	0x1
 13210 064f 5B       		.byte	0x5b
 13211 0650 8A030000 		.4byte	.LVL121
 13212 0654 8E030000 		.4byte	.LFE52
 13213 0658 0100     		.2byte	0x1
 13214 065a 5B       		.byte	0x5b
 13215 065b 00000000 		.4byte	0
 13216 065f 00000000 		.4byte	0
 13217              	.LLST31:
 13218 0663 52000000 		.4byte	.LVL70
 13219 0667 A8000000 		.4byte	.LVL75
 13220 066b 0100     		.2byte	0x1
 13221 066d 58       		.byte	0x58
 13222 066e 84010000 		.4byte	.LVL84
 13223 0672 38030000 		.4byte	.LVL109
 13224 0676 0100     		.2byte	0x1
 13225 0678 58       		.byte	0x58
 13226 0679 42030000 		.4byte	.LVL111
 13227 067d 7E030000 		.4byte	.LVL117
 13228 0681 0100     		.2byte	0x1
 13229 0683 58       		.byte	0x58
 13230 0684 00000000 		.4byte	0
 13231 0688 00000000 		.4byte	0
 13232              	.LLST32:
 13233 068c D6000000 		.4byte	.LVL77
 13234 0690 00010000 		.4byte	.LVL78
 13235 0694 0200     		.2byte	0x2
 13236 0696 30       		.byte	0x30
 13237 0697 9F       		.byte	0x9f
 13238 0698 00010000 		.4byte	.LVL78
 13239 069c 14010000 		.4byte	.LVL79
 13240 06a0 0100     		.2byte	0x1
 13241 06a2 53       		.byte	0x53
 13242 06a3 14010000 		.4byte	.LVL79
 13243 06a7 1E010000 		.4byte	.LVL80
 13244 06ab 0100     		.2byte	0x1
 13245 06ad 54       		.byte	0x54
 13246 06ae 1E010000 		.4byte	.LVL80
 13247 06b2 3E010000 		.4byte	.LVL81
 13248 06b6 0100     		.2byte	0x1
 13249 06b8 53       		.byte	0x53
 13250 06b9 3E010000 		.4byte	.LVL81
 13251 06bd 40010000 		.4byte	.LVL82
 13252 06c1 0300     		.2byte	0x3
 13253 06c3 74       		.byte	0x74
 13254 06c4 7F       		.sleb128 -1
 13255 06c5 9F       		.byte	0x9f
ARM GAS  C:\Users\pearlstl\AppData\Local\Temp\ccIJtgHD.s 			page 264


 13256 06c6 38030000 		.4byte	.LVL109
 13257 06ca 3C030000 		.4byte	.LVL110
 13258 06ce 0100     		.2byte	0x1
 13259 06d0 53       		.byte	0x53
 13260 06d1 3C030000 		.4byte	.LVL110
 13261 06d5 42030000 		.4byte	.LVL111
 13262 06d9 0300     		.2byte	0x3
 13263 06db 74       		.byte	0x74
 13264 06dc 7F       		.sleb128 -1
 13265 06dd 9F       		.byte	0x9f
 13266 06de 80030000 		.4byte	.LVL118
 13267 06e2 86030000 		.4byte	.LVL119
 13268 06e6 0200     		.2byte	0x2
 13269 06e8 30       		.byte	0x30
 13270 06e9 9F       		.byte	0x9f
 13271 06ea 8A030000 		.4byte	.LVL121
 13272 06ee 8E030000 		.4byte	.LFE52
 13273 06f2 0100     		.2byte	0x1
 13274 06f4 53       		.byte	0x53
 13275 06f5 00000000 		.4byte	0
 13276 06f9 00000000 		.4byte	0
 13277              	.LLST33:
 13278 06fd 0C020000 		.4byte	.LVL89
 13279 0701 12020000 		.4byte	.LVL90
 13280 0705 0100     		.2byte	0x1
 13281 0707 50       		.byte	0x50
 13282 0708 42030000 		.4byte	.LVL111
 13283 070c 48030000 		.4byte	.LVL112
 13284 0710 0100     		.2byte	0x1
 13285 0712 50       		.byte	0x50
 13286 0713 00000000 		.4byte	0
 13287 0717 00000000 		.4byte	0
 13288              	.LLST34:
 13289 071b 24020000 		.4byte	.LVL91
 13290 071f 36020000 		.4byte	.LVL92
 13291 0723 0200     		.2byte	0x2
 13292 0725 31       		.byte	0x31
 13293 0726 9F       		.byte	0x9f
 13294 0727 36020000 		.4byte	.LVL92
 13295 072b 38020000 		.4byte	.LVL93
 13296 072f 0100     		.2byte	0x1
 13297 0731 54       		.byte	0x54
 13298 0732 3A020000 		.4byte	.LVL94
 13299 0736 C2020000 		.4byte	.LVL99
 13300 073a 0100     		.2byte	0x1
 13301 073c 54       		.byte	0x54
 13302 073d 00000000 		.4byte	0
 13303 0741 00000000 		.4byte	0
 13304              	.LLST35:
 13305 0745 00000000 		.4byte	.LVL122
 13306 0749 09000000 		.4byte	.LVL123-1
 13307 074d 0100     		.2byte	0x1
 13308 074f 50       		.byte	0x50
 13309 0750 09000000 		.4byte	.LVL123-1
 13310 0754 48060000 		.4byte	.LFE33
 13311 0758 0400     		.2byte	0x4
 13312 075a F3       		.byte	0xf3
ARM GAS  C:\Users\pearlstl\AppData\Local\Temp\ccIJtgHD.s 			page 265


 13313 075b 01       		.uleb128 0x1
 13314 075c 50       		.byte	0x50
 13315 075d 9F       		.byte	0x9f
 13316 075e 00000000 		.4byte	0
 13317 0762 00000000 		.4byte	0
 13318              	.LLST36:
 13319 0766 00000000 		.4byte	.LVL122
 13320 076a 09000000 		.4byte	.LVL123-1
 13321 076e 0100     		.2byte	0x1
 13322 0770 51       		.byte	0x51
 13323 0771 09000000 		.4byte	.LVL123-1
 13324 0775 92000000 		.4byte	.LVL132
 13325 0779 0100     		.2byte	0x1
 13326 077b 56       		.byte	0x56
 13327 077c 92000000 		.4byte	.LVL132
 13328 0780 38020000 		.4byte	.LVL192
 13329 0784 0400     		.2byte	0x4
 13330 0786 F3       		.byte	0xf3
 13331 0787 01       		.uleb128 0x1
 13332 0788 51       		.byte	0x51
 13333 0789 9F       		.byte	0x9f
 13334 078a 38020000 		.4byte	.LVL192
 13335 078e 74020000 		.4byte	.LVL200
 13336 0792 0100     		.2byte	0x1
 13337 0794 56       		.byte	0x56
 13338 0795 74020000 		.4byte	.LVL200
 13339 0799 48050000 		.4byte	.LVL303
 13340 079d 0400     		.2byte	0x4
 13341 079f F3       		.byte	0xf3
 13342 07a0 01       		.uleb128 0x1
 13343 07a1 51       		.byte	0x51
 13344 07a2 9F       		.byte	0x9f
 13345 07a3 48050000 		.4byte	.LVL303
 13346 07a7 62050000 		.4byte	.LVL308
 13347 07ab 0100     		.2byte	0x1
 13348 07ad 56       		.byte	0x56
 13349 07ae 62050000 		.4byte	.LVL308
 13350 07b2 98050000 		.4byte	.LVL316
 13351 07b6 0400     		.2byte	0x4
 13352 07b8 F3       		.byte	0xf3
 13353 07b9 01       		.uleb128 0x1
 13354 07ba 51       		.byte	0x51
 13355 07bb 9F       		.byte	0x9f
 13356 07bc 98050000 		.4byte	.LVL316
 13357 07c0 C2050000 		.4byte	.LVL322
 13358 07c4 0100     		.2byte	0x1
 13359 07c6 56       		.byte	0x56
 13360 07c7 C2050000 		.4byte	.LVL322
 13361 07cb 16060000 		.4byte	.LVL336
 13362 07cf 0400     		.2byte	0x4
 13363 07d1 F3       		.byte	0xf3
 13364 07d2 01       		.uleb128 0x1
 13365 07d3 51       		.byte	0x51
 13366 07d4 9F       		.byte	0x9f
 13367 07d5 16060000 		.4byte	.LVL336
 13368 07d9 1A060000 		.4byte	.LVL337
 13369 07dd 0100     		.2byte	0x1
ARM GAS  C:\Users\pearlstl\AppData\Local\Temp\ccIJtgHD.s 			page 266


 13370 07df 56       		.byte	0x56
 13371 07e0 1A060000 		.4byte	.LVL337
 13372 07e4 3E060000 		.4byte	.LVL346
 13373 07e8 0400     		.2byte	0x4
 13374 07ea F3       		.byte	0xf3
 13375 07eb 01       		.uleb128 0x1
 13376 07ec 51       		.byte	0x51
 13377 07ed 9F       		.byte	0x9f
 13378 07ee 3E060000 		.4byte	.LVL346
 13379 07f2 48060000 		.4byte	.LFE33
 13380 07f6 0100     		.2byte	0x1
 13381 07f8 56       		.byte	0x56
 13382 07f9 00000000 		.4byte	0
 13383 07fd 00000000 		.4byte	0
 13384              	.LLST37:
 13385 0801 0A000000 		.4byte	.LVL123
 13386 0805 17000000 		.4byte	.LVL124-1
 13387 0809 0100     		.2byte	0x1
 13388 080b 50       		.byte	0x50
 13389 080c 17000000 		.4byte	.LVL124-1
 13390 0810 26050000 		.4byte	.LVL298
 13391 0814 0100     		.2byte	0x1
 13392 0816 57       		.byte	0x57
 13393 0817 26050000 		.4byte	.LVL298
 13394 081b 2F050000 		.4byte	.LVL299-1
 13395 081f 0100     		.2byte	0x1
 13396 0821 50       		.byte	0x50
 13397 0822 2F050000 		.4byte	.LVL299-1
 13398 0826 48050000 		.4byte	.LVL303
 13399 082a 0100     		.2byte	0x1
 13400 082c 57       		.byte	0x57
 13401 082d 4E050000 		.4byte	.LVL304
 13402 0831 48060000 		.4byte	.LFE33
 13403 0835 0100     		.2byte	0x1
 13404 0837 57       		.byte	0x57
 13405 0838 00000000 		.4byte	0
 13406 083c 00000000 		.4byte	0
 13407              	.LLST38:
 13408 0840 18000000 		.4byte	.LVL124
 13409 0844 2A000000 		.4byte	.LVL125
 13410 0848 0100     		.2byte	0x1
 13411 084a 50       		.byte	0x50
 13412 084b 2A000000 		.4byte	.LVL125
 13413 084f 9E000000 		.4byte	.LVL134
 13414 0853 0100     		.2byte	0x1
 13415 0855 54       		.byte	0x54
 13416 0856 38020000 		.4byte	.LVL192
 13417 085a 48020000 		.4byte	.LVL194
 13418 085e 0100     		.2byte	0x1
 13419 0860 54       		.byte	0x54
 13420 0861 4E050000 		.4byte	.LVL304
 13421 0865 50050000 		.4byte	.LVL305
 13422 0869 0100     		.2byte	0x1
 13423 086b 50       		.byte	0x50
 13424 086c 50050000 		.4byte	.LVL305
 13425 0870 62050000 		.4byte	.LVL308
 13426 0874 0100     		.2byte	0x1
ARM GAS  C:\Users\pearlstl\AppData\Local\Temp\ccIJtgHD.s 			page 267


 13427 0876 54       		.byte	0x54
 13428 0877 98050000 		.4byte	.LVL316
 13429 087b C2050000 		.4byte	.LVL322
 13430 087f 0100     		.2byte	0x1
 13431 0881 54       		.byte	0x54
 13432 0882 3E060000 		.4byte	.LVL346
 13433 0886 40060000 		.4byte	.LVL347
 13434 088a 0100     		.2byte	0x1
 13435 088c 54       		.byte	0x54
 13436 088d 00000000 		.4byte	0
 13437 0891 00000000 		.4byte	0
 13438              	.LLST39:
 13439 0895 74000000 		.4byte	.LVL130
 13440 0899 76000000 		.4byte	.LVL131
 13441 089d 0100     		.2byte	0x1
 13442 089f 50       		.byte	0x50
 13443 08a0 76000000 		.4byte	.LVL131
 13444 08a4 A0010000 		.4byte	.LVL174
 13445 08a8 0100     		.2byte	0x1
 13446 08aa 59       		.byte	0x59
 13447 08ab F6010000 		.4byte	.LVL186
 13448 08af 38020000 		.4byte	.LVL192
 13449 08b3 0100     		.2byte	0x1
 13450 08b5 59       		.byte	0x59
 13451 08b6 44050000 		.4byte	.LVL302
 13452 08ba 48050000 		.4byte	.LVL303
 13453 08be 0100     		.2byte	0x1
 13454 08c0 59       		.byte	0x59
 13455 08c1 62050000 		.4byte	.LVL308
 13456 08c5 96050000 		.4byte	.LVL315
 13457 08c9 0100     		.2byte	0x1
 13458 08cb 59       		.byte	0x59
 13459 08cc 00000000 		.4byte	0
 13460 08d0 00000000 		.4byte	0
 13461              	.LLST40:
 13462 08d4 92000000 		.4byte	.LVL132
 13463 08d8 E8000000 		.4byte	.LVL145
 13464 08dc 0100     		.2byte	0x1
 13465 08de 56       		.byte	0x56
 13466 08df F6010000 		.4byte	.LVL186
 13467 08e3 38020000 		.4byte	.LVL192
 13468 08e7 0100     		.2byte	0x1
 13469 08e9 56       		.byte	0x56
 13470 08ea 44050000 		.4byte	.LVL302
 13471 08ee 48050000 		.4byte	.LVL303
 13472 08f2 0100     		.2byte	0x1
 13473 08f4 56       		.byte	0x56
 13474 08f5 00000000 		.4byte	0
 13475 08f9 00000000 		.4byte	0
 13476              	.LLST41:
 13477 08fd 92000000 		.4byte	.LVL132
 13478 0901 34010000 		.4byte	.LVL156
 13479 0905 0100     		.2byte	0x1
 13480 0907 57       		.byte	0x57
 13481 0908 F6010000 		.4byte	.LVL186
 13482 090c 38020000 		.4byte	.LVL192
 13483 0910 0100     		.2byte	0x1
ARM GAS  C:\Users\pearlstl\AppData\Local\Temp\ccIJtgHD.s 			page 268


 13484 0912 57       		.byte	0x57
 13485 0913 44050000 		.4byte	.LVL302
 13486 0917 48050000 		.4byte	.LVL303
 13487 091b 0100     		.2byte	0x1
 13488 091d 57       		.byte	0x57
 13489 091e 00000000 		.4byte	0
 13490 0922 00000000 		.4byte	0
 13491              	.LLST42:
 13492 0926 9E000000 		.4byte	.LVL134
 13493 092a AA000000 		.4byte	.LVL135
 13494 092e 0100     		.2byte	0x1
 13495 0930 50       		.byte	0x50
 13496 0931 AA000000 		.4byte	.LVL135
 13497 0935 BA000000 		.4byte	.LVL139
 13498 0939 0100     		.2byte	0x1
 13499 093b 54       		.byte	0x54
 13500 093c F6010000 		.4byte	.LVL186
 13501 0940 FE010000 		.4byte	.LVL187
 13502 0944 0100     		.2byte	0x1
 13503 0946 50       		.byte	0x50
 13504 0947 FE010000 		.4byte	.LVL187
 13505 094b 38020000 		.4byte	.LVL192
 13506 094f 0100     		.2byte	0x1
 13507 0951 54       		.byte	0x54
 13508 0952 00000000 		.4byte	0
 13509 0956 00000000 		.4byte	0
 13510              	.LLST43:
 13511 095a 9E000000 		.4byte	.LVL134
 13512 095e BC000000 		.4byte	.LVL140
 13513 0962 0100     		.2byte	0x1
 13514 0964 58       		.byte	0x58
 13515 0965 F6010000 		.4byte	.LVL186
 13516 0969 38020000 		.4byte	.LVL192
 13517 096d 0100     		.2byte	0x1
 13518 096f 58       		.byte	0x58
 13519 0970 00000000 		.4byte	0
 13520 0974 00000000 		.4byte	0
 13521              	.LLST44:
 13522 0978 B2000000 		.4byte	.LVL137
 13523 097c 34010000 		.4byte	.LVL156
 13524 0980 0100     		.2byte	0x1
 13525 0982 57       		.byte	0x57
 13526 0983 44050000 		.4byte	.LVL302
 13527 0987 48050000 		.4byte	.LVL303
 13528 098b 0100     		.2byte	0x1
 13529 098d 57       		.byte	0x57
 13530 098e 00000000 		.4byte	0
 13531 0992 00000000 		.4byte	0
 13532              	.LLST45:
 13533 0996 B2000000 		.4byte	.LVL137
 13534 099a EA000000 		.4byte	.LVL146
 13535 099e 0200     		.2byte	0x2
 13536 09a0 30       		.byte	0x30
 13537 09a1 9F       		.byte	0x9f
 13538 09a2 EA000000 		.4byte	.LVL146
 13539 09a6 08010000 		.4byte	.LVL150
 13540 09aa 0100     		.2byte	0x1
ARM GAS  C:\Users\pearlstl\AppData\Local\Temp\ccIJtgHD.s 			page 269


 13541 09ac 56       		.byte	0x56
 13542 09ad 44050000 		.4byte	.LVL302
 13543 09b1 48050000 		.4byte	.LVL303
 13544 09b5 0200     		.2byte	0x2
 13545 09b7 30       		.byte	0x30
 13546 09b8 9F       		.byte	0x9f
 13547 09b9 00000000 		.4byte	0
 13548 09bd 00000000 		.4byte	0
 13549              	.LLST46:
 13550 09c1 B2000000 		.4byte	.LVL137
 13551 09c5 CE000000 		.4byte	.LVL142
 13552 09c9 0200     		.2byte	0x2
 13553 09cb 30       		.byte	0x30
 13554 09cc 9F       		.byte	0x9f
 13555 09cd CE000000 		.4byte	.LVL142
 13556 09d1 DC000000 		.4byte	.LVL144
 13557 09d5 0100     		.2byte	0x1
 13558 09d7 51       		.byte	0x51
 13559 09d8 00000000 		.4byte	0
 13560 09dc 00000000 		.4byte	0
 13561              	.LLST47:
 13562 09e0 BC000000 		.4byte	.LVL140
 13563 09e4 C0000000 		.4byte	.LVL141
 13564 09e8 0100     		.2byte	0x1
 13565 09ea 50       		.byte	0x50
 13566 09eb C0000000 		.4byte	.LVL141
 13567 09ef 34010000 		.4byte	.LVL156
 13568 09f3 0100     		.2byte	0x1
 13569 09f5 58       		.byte	0x58
 13570 09f6 44050000 		.4byte	.LVL302
 13571 09fa 48050000 		.4byte	.LVL303
 13572 09fe 0100     		.2byte	0x1
 13573 0a00 58       		.byte	0x58
 13574 0a01 00000000 		.4byte	0
 13575 0a05 00000000 		.4byte	0
 13576              	.LLST48:
 13577 0a09 BC000000 		.4byte	.LVL140
 13578 0a0d CE000000 		.4byte	.LVL142
 13579 0a11 0200     		.2byte	0x2
 13580 0a13 30       		.byte	0x30
 13581 0a14 9F       		.byte	0x9f
 13582 0a15 DC000000 		.4byte	.LVL144
 13583 0a19 EA000000 		.4byte	.LVL146
 13584 0a1d 0200     		.2byte	0x2
 13585 0a1f 30       		.byte	0x30
 13586 0a20 9F       		.byte	0x9f
 13587 0a21 EA000000 		.4byte	.LVL146
 13588 0a25 F4000000 		.4byte	.LVL148
 13589 0a29 0100     		.2byte	0x1
 13590 0a2b 55       		.byte	0x55
 13591 0a2c 06010000 		.4byte	.LVL149
 13592 0a30 08010000 		.4byte	.LVL150
 13593 0a34 0100     		.2byte	0x1
 13594 0a36 55       		.byte	0x55
 13595 0a37 44050000 		.4byte	.LVL302
 13596 0a3b 48050000 		.4byte	.LVL303
 13597 0a3f 0200     		.2byte	0x2
ARM GAS  C:\Users\pearlstl\AppData\Local\Temp\ccIJtgHD.s 			page 270


 13598 0a41 30       		.byte	0x30
 13599 0a42 9F       		.byte	0x9f
 13600 0a43 00000000 		.4byte	0
 13601 0a47 00000000 		.4byte	0
 13602              	.LLST49:
 13603 0a4b 10010000 		.4byte	.LVL152
 13604 0a4f 12010000 		.4byte	.LVL153
 13605 0a53 0100     		.2byte	0x1
 13606 0a55 50       		.byte	0x50
 13607 0a56 12010000 		.4byte	.LVL153
 13608 0a5a 1A010000 		.4byte	.LVL154
 13609 0a5e 0100     		.2byte	0x1
 13610 0a60 53       		.byte	0x53
 13611 0a61 00000000 		.4byte	0
 13612 0a65 00000000 		.4byte	0
 13613              	.LLST50:
 13614 0a69 0C020000 		.4byte	.LVL189
 13615 0a6d 18020000 		.4byte	.LVL190
 13616 0a71 0600     		.2byte	0x6
 13617 0a73 78       		.byte	0x78
 13618 0a74 00       		.sleb128 0
 13619 0a75 72       		.byte	0x72
 13620 0a76 00       		.sleb128 0
 13621 0a77 1E       		.byte	0x1e
 13622 0a78 9F       		.byte	0x9f
 13623 0a79 18020000 		.4byte	.LVL190
 13624 0a7d 25020000 		.4byte	.LVL191-1
 13625 0a81 0800     		.2byte	0x8
 13626 0a83 78       		.byte	0x78
 13627 0a84 00       		.sleb128 0
 13628 0a85 74       		.byte	0x74
 13629 0a86 00       		.sleb128 0
 13630 0a87 94       		.byte	0x94
 13631 0a88 02       		.byte	0x2
 13632 0a89 1E       		.byte	0x1e
 13633 0a8a 9F       		.byte	0x9f
 13634 0a8b 00000000 		.4byte	0
 13635 0a8f 00000000 		.4byte	0
 13636              	.LLST51:
 13637 0a93 0C020000 		.4byte	.LVL189
 13638 0a97 18020000 		.4byte	.LVL190
 13639 0a9b 1000     		.2byte	0x10
 13640 0a9d 74       		.byte	0x74
 13641 0a9e 02       		.sleb128 2
 13642 0a9f 94       		.byte	0x94
 13643 0aa0 02       		.byte	0x2
 13644 0aa1 0A       		.byte	0xa
 13645 0aa2 FFFF     		.2byte	0xffff
 13646 0aa4 1A       		.byte	0x1a
 13647 0aa5 72       		.byte	0x72
 13648 0aa6 00       		.sleb128 0
 13649 0aa7 0A       		.byte	0xa
 13650 0aa8 FFFF     		.2byte	0xffff
 13651 0aaa 1A       		.byte	0x1a
 13652 0aab 1E       		.byte	0x1e
 13653 0aac 9F       		.byte	0x9f
 13654 0aad 18020000 		.4byte	.LVL190
ARM GAS  C:\Users\pearlstl\AppData\Local\Temp\ccIJtgHD.s 			page 271


 13655 0ab1 25020000 		.4byte	.LVL191-1
 13656 0ab5 1200     		.2byte	0x12
 13657 0ab7 74       		.byte	0x74
 13658 0ab8 02       		.sleb128 2
 13659 0ab9 94       		.byte	0x94
 13660 0aba 02       		.byte	0x2
 13661 0abb 0A       		.byte	0xa
 13662 0abc FFFF     		.2byte	0xffff
 13663 0abe 1A       		.byte	0x1a
 13664 0abf 74       		.byte	0x74
 13665 0ac0 00       		.sleb128 0
 13666 0ac1 94       		.byte	0x94
 13667 0ac2 02       		.byte	0x2
 13668 0ac3 0A       		.byte	0xa
 13669 0ac4 FFFF     		.2byte	0xffff
 13670 0ac6 1A       		.byte	0x1a
 13671 0ac7 1E       		.byte	0x1e
 13672 0ac8 9F       		.byte	0x9f
 13673 0ac9 00000000 		.4byte	0
 13674 0acd 00000000 		.4byte	0
 13675              	.LLST52:
 13676 0ad1 38010000 		.4byte	.LVL157
 13677 0ad5 3C010000 		.4byte	.LVL158
 13678 0ad9 0100     		.2byte	0x1
 13679 0adb 54       		.byte	0x54
 13680 0adc 48010000 		.4byte	.LVL160
 13681 0ae0 70010000 		.4byte	.LVL167
 13682 0ae4 0100     		.2byte	0x1
 13683 0ae6 54       		.byte	0x54
 13684 0ae7 62050000 		.4byte	.LVL308
 13685 0aeb 94050000 		.4byte	.LVL314
 13686 0aef 0100     		.2byte	0x1
 13687 0af1 54       		.byte	0x54
 13688 0af2 00000000 		.4byte	0
 13689 0af6 00000000 		.4byte	0
 13690              	.LLST53:
 13691 0afa 38010000 		.4byte	.LVL157
 13692 0afe 3C010000 		.4byte	.LVL158
 13693 0b02 0100     		.2byte	0x1
 13694 0b04 57       		.byte	0x57
 13695 0b05 48010000 		.4byte	.LVL160
 13696 0b09 EA010000 		.4byte	.LVL184
 13697 0b0d 0100     		.2byte	0x1
 13698 0b0f 57       		.byte	0x57
 13699 0b10 62050000 		.4byte	.LVL308
 13700 0b14 98050000 		.4byte	.LVL316
 13701 0b18 0100     		.2byte	0x1
 13702 0b1a 57       		.byte	0x57
 13703 0b1b 00000000 		.4byte	0
 13704 0b1f 00000000 		.4byte	0
 13705              	.LLST54:
 13706 0b23 48010000 		.4byte	.LVL160
 13707 0b27 70010000 		.4byte	.LVL167
 13708 0b2b 0100     		.2byte	0x1
 13709 0b2d 54       		.byte	0x54
 13710 0b2e 62050000 		.4byte	.LVL308
 13711 0b32 94050000 		.4byte	.LVL314
ARM GAS  C:\Users\pearlstl\AppData\Local\Temp\ccIJtgHD.s 			page 272


 13712 0b36 0100     		.2byte	0x1
 13713 0b38 54       		.byte	0x54
 13714 0b39 00000000 		.4byte	0
 13715 0b3d 00000000 		.4byte	0
 13716              	.LLST55:
 13717 0b41 48010000 		.4byte	.LVL160
 13718 0b45 F6010000 		.4byte	.LVL186
 13719 0b49 0100     		.2byte	0x1
 13720 0b4b 57       		.byte	0x57
 13721 0b4c 62050000 		.4byte	.LVL308
 13722 0b50 98050000 		.4byte	.LVL316
 13723 0b54 0100     		.2byte	0x1
 13724 0b56 57       		.byte	0x57
 13725 0b57 00000000 		.4byte	0
 13726 0b5b 00000000 		.4byte	0
 13727              	.LLST56:
 13728 0b5f 56010000 		.4byte	.LVL162
 13729 0b63 60010000 		.4byte	.LVL163
 13730 0b67 0100     		.2byte	0x1
 13731 0b69 50       		.byte	0x50
 13732 0b6a 60010000 		.4byte	.LVL163
 13733 0b6e A0010000 		.4byte	.LVL174
 13734 0b72 0100     		.2byte	0x1
 13735 0b74 55       		.byte	0x55
 13736 0b75 62050000 		.4byte	.LVL308
 13737 0b79 6A050000 		.4byte	.LVL309
 13738 0b7d 0100     		.2byte	0x1
 13739 0b7f 50       		.byte	0x50
 13740 0b80 6A050000 		.4byte	.LVL309
 13741 0b84 98050000 		.4byte	.LVL316
 13742 0b88 0100     		.2byte	0x1
 13743 0b8a 55       		.byte	0x55
 13744 0b8b 00000000 		.4byte	0
 13745 0b8f 00000000 		.4byte	0
 13746              	.LLST57:
 13747 0b93 56010000 		.4byte	.LVL162
 13748 0b97 9E010000 		.4byte	.LVL173
 13749 0b9b 0100     		.2byte	0x1
 13750 0b9d 56       		.byte	0x56
 13751 0b9e 62050000 		.4byte	.LVL308
 13752 0ba2 98050000 		.4byte	.LVL316
 13753 0ba6 0100     		.2byte	0x1
 13754 0ba8 56       		.byte	0x56
 13755 0ba9 00000000 		.4byte	0
 13756 0bad 00000000 		.4byte	0
 13757              	.LLST58:
 13758 0bb1 68010000 		.4byte	.LVL165
 13759 0bb5 F6010000 		.4byte	.LVL186
 13760 0bb9 0100     		.2byte	0x1
 13761 0bbb 57       		.byte	0x57
 13762 0bbc 94050000 		.4byte	.LVL314
 13763 0bc0 98050000 		.4byte	.LVL316
 13764 0bc4 0100     		.2byte	0x1
 13765 0bc6 57       		.byte	0x57
 13766 0bc7 00000000 		.4byte	0
 13767 0bcb 00000000 		.4byte	0
 13768              	.LLST59:
ARM GAS  C:\Users\pearlstl\AppData\Local\Temp\ccIJtgHD.s 			page 273


 13769 0bcf 68010000 		.4byte	.LVL165
 13770 0bd3 A0010000 		.4byte	.LVL174
 13771 0bd7 0200     		.2byte	0x2
 13772 0bd9 30       		.byte	0x30
 13773 0bda 9F       		.byte	0x9f
 13774 0bdb A0010000 		.4byte	.LVL174
 13775 0bdf BE010000 		.4byte	.LVL178
 13776 0be3 0100     		.2byte	0x1
 13777 0be5 56       		.byte	0x56
 13778 0be6 94050000 		.4byte	.LVL314
 13779 0bea 98050000 		.4byte	.LVL316
 13780 0bee 0200     		.2byte	0x2
 13781 0bf0 30       		.byte	0x30
 13782 0bf1 9F       		.byte	0x9f
 13783 0bf2 00000000 		.4byte	0
 13784 0bf6 00000000 		.4byte	0
 13785              	.LLST60:
 13786 0bfa 68010000 		.4byte	.LVL165
 13787 0bfe 84010000 		.4byte	.LVL170
 13788 0c02 0200     		.2byte	0x2
 13789 0c04 30       		.byte	0x30
 13790 0c05 9F       		.byte	0x9f
 13791 0c06 84010000 		.4byte	.LVL170
 13792 0c0a 92010000 		.4byte	.LVL172
 13793 0c0e 0100     		.2byte	0x1
 13794 0c10 51       		.byte	0x51
 13795 0c11 00000000 		.4byte	0
 13796 0c15 00000000 		.4byte	0
 13797              	.LLST61:
 13798 0c19 72010000 		.4byte	.LVL168
 13799 0c1d 76010000 		.4byte	.LVL169
 13800 0c21 0100     		.2byte	0x1
 13801 0c23 50       		.byte	0x50
 13802 0c24 76010000 		.4byte	.LVL169
 13803 0c28 F6010000 		.4byte	.LVL186
 13804 0c2c 0100     		.2byte	0x1
 13805 0c2e 58       		.byte	0x58
 13806 0c2f 94050000 		.4byte	.LVL314
 13807 0c33 98050000 		.4byte	.LVL316
 13808 0c37 0100     		.2byte	0x1
 13809 0c39 58       		.byte	0x58
 13810 0c3a 00000000 		.4byte	0
 13811 0c3e 00000000 		.4byte	0
 13812              	.LLST62:
 13813 0c42 72010000 		.4byte	.LVL168
 13814 0c46 84010000 		.4byte	.LVL170
 13815 0c4a 0200     		.2byte	0x2
 13816 0c4c 30       		.byte	0x30
 13817 0c4d 9F       		.byte	0x9f
 13818 0c4e 92010000 		.4byte	.LVL172
 13819 0c52 A0010000 		.4byte	.LVL174
 13820 0c56 0200     		.2byte	0x2
 13821 0c58 30       		.byte	0x30
 13822 0c59 9F       		.byte	0x9f
 13823 0c5a A0010000 		.4byte	.LVL174
 13824 0c5e AA010000 		.4byte	.LVL176
 13825 0c62 0100     		.2byte	0x1
ARM GAS  C:\Users\pearlstl\AppData\Local\Temp\ccIJtgHD.s 			page 274


 13826 0c64 55       		.byte	0x55
 13827 0c65 BC010000 		.4byte	.LVL177
 13828 0c69 BE010000 		.4byte	.LVL178
 13829 0c6d 0100     		.2byte	0x1
 13830 0c6f 55       		.byte	0x55
 13831 0c70 94050000 		.4byte	.LVL314
 13832 0c74 98050000 		.4byte	.LVL316
 13833 0c78 0200     		.2byte	0x2
 13834 0c7a 30       		.byte	0x30
 13835 0c7b 9F       		.byte	0x9f
 13836 0c7c 00000000 		.4byte	0
 13837 0c80 00000000 		.4byte	0
 13838              	.LLST63:
 13839 0c84 C6010000 		.4byte	.LVL180
 13840 0c88 C8010000 		.4byte	.LVL181
 13841 0c8c 0100     		.2byte	0x1
 13842 0c8e 50       		.byte	0x50
 13843 0c8f C8010000 		.4byte	.LVL181
 13844 0c93 D0010000 		.4byte	.LVL182
 13845 0c97 0100     		.2byte	0x1
 13846 0c99 53       		.byte	0x53
 13847 0c9a 00000000 		.4byte	0
 13848 0c9e 00000000 		.4byte	0
 13849              	.LLST64:
 13850 0ca2 78050000 		.4byte	.LVL311
 13851 0ca6 84050000 		.4byte	.LVL312
 13852 0caa 0600     		.2byte	0x6
 13853 0cac 76       		.byte	0x76
 13854 0cad 00       		.sleb128 0
 13855 0cae 72       		.byte	0x72
 13856 0caf 00       		.sleb128 0
 13857 0cb0 1E       		.byte	0x1e
 13858 0cb1 9F       		.byte	0x9f
 13859 0cb2 84050000 		.4byte	.LVL312
 13860 0cb6 91050000 		.4byte	.LVL313-1
 13861 0cba 0800     		.2byte	0x8
 13862 0cbc 76       		.byte	0x76
 13863 0cbd 00       		.sleb128 0
 13864 0cbe 75       		.byte	0x75
 13865 0cbf 02       		.sleb128 2
 13866 0cc0 94       		.byte	0x94
 13867 0cc1 02       		.byte	0x2
 13868 0cc2 1E       		.byte	0x1e
 13869 0cc3 9F       		.byte	0x9f
 13870 0cc4 00000000 		.4byte	0
 13871 0cc8 00000000 		.4byte	0
 13872              	.LLST65:
 13873 0ccc 78050000 		.4byte	.LVL311
 13874 0cd0 84050000 		.4byte	.LVL312
 13875 0cd4 1000     		.2byte	0x10
 13876 0cd6 75       		.byte	0x75
 13877 0cd7 00       		.sleb128 0
 13878 0cd8 94       		.byte	0x94
 13879 0cd9 02       		.byte	0x2
 13880 0cda 0A       		.byte	0xa
 13881 0cdb FFFF     		.2byte	0xffff
 13882 0cdd 1A       		.byte	0x1a
ARM GAS  C:\Users\pearlstl\AppData\Local\Temp\ccIJtgHD.s 			page 275


 13883 0cde 72       		.byte	0x72
 13884 0cdf 00       		.sleb128 0
 13885 0ce0 0A       		.byte	0xa
 13886 0ce1 FFFF     		.2byte	0xffff
 13887 0ce3 1A       		.byte	0x1a
 13888 0ce4 1E       		.byte	0x1e
 13889 0ce5 9F       		.byte	0x9f
 13890 0ce6 84050000 		.4byte	.LVL312
 13891 0cea 91050000 		.4byte	.LVL313-1
 13892 0cee 1200     		.2byte	0x12
 13893 0cf0 75       		.byte	0x75
 13894 0cf1 00       		.sleb128 0
 13895 0cf2 94       		.byte	0x94
 13896 0cf3 02       		.byte	0x2
 13897 0cf4 0A       		.byte	0xa
 13898 0cf5 FFFF     		.2byte	0xffff
 13899 0cf7 1A       		.byte	0x1a
 13900 0cf8 75       		.byte	0x75
 13901 0cf9 02       		.sleb128 2
 13902 0cfa 94       		.byte	0x94
 13903 0cfb 02       		.byte	0x2
 13904 0cfc 0A       		.byte	0xa
 13905 0cfd FFFF     		.2byte	0xffff
 13906 0cff 1A       		.byte	0x1a
 13907 0d00 1E       		.byte	0x1e
 13908 0d01 9F       		.byte	0x9f
 13909 0d02 00000000 		.4byte	0
 13910 0d06 00000000 		.4byte	0
 13911              	.LLST66:
 13912 0d0a 3C020000 		.4byte	.LVL193
 13913 0d0e 4A020000 		.4byte	.LVL195
 13914 0d12 0100     		.2byte	0x1
 13915 0d14 50       		.byte	0x50
 13916 0d15 4A020000 		.4byte	.LVL195
 13917 0d19 EC040000 		.4byte	.LVL289
 13918 0d1d 0100     		.2byte	0x1
 13919 0d1f 55       		.byte	0x55
 13920 0d20 98050000 		.4byte	.LVL316
 13921 0d24 9A050000 		.4byte	.LVL317
 13922 0d28 0100     		.2byte	0x1
 13923 0d2a 50       		.byte	0x50
 13924 0d2b 9A050000 		.4byte	.LVL317
 13925 0d2f DA050000 		.4byte	.LVL327
 13926 0d33 0100     		.2byte	0x1
 13927 0d35 55       		.byte	0x55
 13928 0d36 16060000 		.4byte	.LVL336
 13929 0d3a 48060000 		.4byte	.LFE33
 13930 0d3e 0100     		.2byte	0x1
 13931 0d40 55       		.byte	0x55
 13932 0d41 00000000 		.4byte	0
 13933 0d45 00000000 		.4byte	0
 13934              	.LLST67:
 13935 0d49 48020000 		.4byte	.LVL194
 13936 0d4d 96020000 		.4byte	.LVL204
 13937 0d51 0100     		.2byte	0x1
 13938 0d53 54       		.byte	0x54
 13939 0d54 16060000 		.4byte	.LVL336
ARM GAS  C:\Users\pearlstl\AppData\Local\Temp\ccIJtgHD.s 			page 276


 13940 0d58 1A060000 		.4byte	.LVL337
 13941 0d5c 0100     		.2byte	0x1
 13942 0d5e 54       		.byte	0x54
 13943 0d5f 26060000 		.4byte	.LVL340
 13944 0d63 2A060000 		.4byte	.LVL341
 13945 0d67 0100     		.2byte	0x1
 13946 0d69 54       		.byte	0x54
 13947 0d6a 00000000 		.4byte	0
 13948 0d6e 00000000 		.4byte	0
 13949              	.LLST68:
 13950 0d72 48020000 		.4byte	.LVL194
 13951 0d76 E0020000 		.4byte	.LVL214
 13952 0d7a 0200     		.2byte	0x2
 13953 0d7c 30       		.byte	0x30
 13954 0d7d 9F       		.byte	0x9f
 13955 0d7e 16060000 		.4byte	.LVL336
 13956 0d82 1A060000 		.4byte	.LVL337
 13957 0d86 0200     		.2byte	0x2
 13958 0d88 30       		.byte	0x30
 13959 0d89 9F       		.byte	0x9f
 13960 0d8a 26060000 		.4byte	.LVL340
 13961 0d8e 2A060000 		.4byte	.LVL341
 13962 0d92 0200     		.2byte	0x2
 13963 0d94 30       		.byte	0x30
 13964 0d95 9F       		.byte	0x9f
 13965 0d96 00000000 		.4byte	0
 13966 0d9a 00000000 		.4byte	0
 13967              	.LLST69:
 13968 0d9e 48020000 		.4byte	.LVL194
 13969 0da2 E0020000 		.4byte	.LVL214
 13970 0da6 0100     		.2byte	0x1
 13971 0da8 57       		.byte	0x57
 13972 0da9 16060000 		.4byte	.LVL336
 13973 0dad 1A060000 		.4byte	.LVL337
 13974 0db1 0100     		.2byte	0x1
 13975 0db3 57       		.byte	0x57
 13976 0db4 26060000 		.4byte	.LVL340
 13977 0db8 2A060000 		.4byte	.LVL341
 13978 0dbc 0100     		.2byte	0x1
 13979 0dbe 57       		.byte	0x57
 13980 0dbf 00000000 		.4byte	0
 13981 0dc3 00000000 		.4byte	0
 13982              	.LLST70:
 13983 0dc7 4E020000 		.4byte	.LVL196
 13984 0dcb E0020000 		.4byte	.LVL214
 13985 0dcf 0200     		.2byte	0x2
 13986 0dd1 30       		.byte	0x30
 13987 0dd2 9F       		.byte	0x9f
 13988 0dd3 16060000 		.4byte	.LVL336
 13989 0dd7 1A060000 		.4byte	.LVL337
 13990 0ddb 0200     		.2byte	0x2
 13991 0ddd 30       		.byte	0x30
 13992 0dde 9F       		.byte	0x9f
 13993 0ddf 26060000 		.4byte	.LVL340
 13994 0de3 2A060000 		.4byte	.LVL341
 13995 0de7 0200     		.2byte	0x2
 13996 0de9 30       		.byte	0x30
ARM GAS  C:\Users\pearlstl\AppData\Local\Temp\ccIJtgHD.s 			page 277


 13997 0dea 9F       		.byte	0x9f
 13998 0deb 00000000 		.4byte	0
 13999 0def 00000000 		.4byte	0
 14000              	.LLST71:
 14001 0df3 4E020000 		.4byte	.LVL196
 14002 0df7 96020000 		.4byte	.LVL204
 14003 0dfb 0100     		.2byte	0x1
 14004 0dfd 54       		.byte	0x54
 14005 0dfe 16060000 		.4byte	.LVL336
 14006 0e02 1A060000 		.4byte	.LVL337
 14007 0e06 0100     		.2byte	0x1
 14008 0e08 54       		.byte	0x54
 14009 0e09 26060000 		.4byte	.LVL340
 14010 0e0d 2A060000 		.4byte	.LVL341
 14011 0e11 0100     		.2byte	0x1
 14012 0e13 54       		.byte	0x54
 14013 0e14 00000000 		.4byte	0
 14014 0e18 00000000 		.4byte	0
 14015              	.LLST72:
 14016 0e1c 4E020000 		.4byte	.LVL196
 14017 0e20 E0020000 		.4byte	.LVL214
 14018 0e24 0100     		.2byte	0x1
 14019 0e26 57       		.byte	0x57
 14020 0e27 16060000 		.4byte	.LVL336
 14021 0e2b 1A060000 		.4byte	.LVL337
 14022 0e2f 0100     		.2byte	0x1
 14023 0e31 57       		.byte	0x57
 14024 0e32 26060000 		.4byte	.LVL340
 14025 0e36 2A060000 		.4byte	.LVL341
 14026 0e3a 0100     		.2byte	0x1
 14027 0e3c 57       		.byte	0x57
 14028 0e3d 00000000 		.4byte	0
 14029 0e41 00000000 		.4byte	0
 14030              	.LLST73:
 14031 0e45 56020000 		.4byte	.LVL197
 14032 0e49 E0020000 		.4byte	.LVL214
 14033 0e4d 0100     		.2byte	0x1
 14034 0e4f 57       		.byte	0x57
 14035 0e50 16060000 		.4byte	.LVL336
 14036 0e54 1A060000 		.4byte	.LVL337
 14037 0e58 0100     		.2byte	0x1
 14038 0e5a 57       		.byte	0x57
 14039 0e5b 26060000 		.4byte	.LVL340
 14040 0e5f 2A060000 		.4byte	.LVL341
 14041 0e63 0100     		.2byte	0x1
 14042 0e65 57       		.byte	0x57
 14043 0e66 00000000 		.4byte	0
 14044 0e6a 00000000 		.4byte	0
 14045              	.LLST74:
 14046 0e6e 56020000 		.4byte	.LVL197
 14047 0e72 96020000 		.4byte	.LVL204
 14048 0e76 0200     		.2byte	0x2
 14049 0e78 30       		.byte	0x30
 14050 0e79 9F       		.byte	0x9f
 14051 0e7a 96020000 		.4byte	.LVL204
 14052 0e7e B4020000 		.4byte	.LVL208
 14053 0e82 0100     		.2byte	0x1
ARM GAS  C:\Users\pearlstl\AppData\Local\Temp\ccIJtgHD.s 			page 278


 14054 0e84 56       		.byte	0x56
 14055 0e85 16060000 		.4byte	.LVL336
 14056 0e89 1A060000 		.4byte	.LVL337
 14057 0e8d 0200     		.2byte	0x2
 14058 0e8f 30       		.byte	0x30
 14059 0e90 9F       		.byte	0x9f
 14060 0e91 26060000 		.4byte	.LVL340
 14061 0e95 2A060000 		.4byte	.LVL341
 14062 0e99 0200     		.2byte	0x2
 14063 0e9b 30       		.byte	0x30
 14064 0e9c 9F       		.byte	0x9f
 14065 0e9d 00000000 		.4byte	0
 14066 0ea1 00000000 		.4byte	0
 14067              	.LLST75:
 14068 0ea5 56020000 		.4byte	.LVL197
 14069 0ea9 74020000 		.4byte	.LVL200
 14070 0ead 0200     		.2byte	0x2
 14071 0eaf 30       		.byte	0x30
 14072 0eb0 9F       		.byte	0x9f
 14073 0eb1 74020000 		.4byte	.LVL200
 14074 0eb5 88020000 		.4byte	.LVL202
 14075 0eb9 0100     		.2byte	0x1
 14076 0ebb 56       		.byte	0x56
 14077 0ebc 16060000 		.4byte	.LVL336
 14078 0ec0 1A060000 		.4byte	.LVL337
 14079 0ec4 0200     		.2byte	0x2
 14080 0ec6 30       		.byte	0x30
 14081 0ec7 9F       		.byte	0x9f
 14082 0ec8 00000000 		.4byte	0
 14083 0ecc 00000000 		.4byte	0
 14084              	.LLST76:
 14085 0ed0 60020000 		.4byte	.LVL199
 14086 0ed4 8C020000 		.4byte	.LVL203
 14087 0ed8 0100     		.2byte	0x1
 14088 0eda 50       		.byte	0x50
 14089 0edb 8C020000 		.4byte	.LVL203
 14090 0edf E0020000 		.4byte	.LVL214
 14091 0ee3 0100     		.2byte	0x1
 14092 0ee5 59       		.byte	0x59
 14093 0ee6 16060000 		.4byte	.LVL336
 14094 0eea 1A060000 		.4byte	.LVL337
 14095 0eee 0100     		.2byte	0x1
 14096 0ef0 50       		.byte	0x50
 14097 0ef1 26060000 		.4byte	.LVL340
 14098 0ef5 2A060000 		.4byte	.LVL341
 14099 0ef9 0100     		.2byte	0x1
 14100 0efb 59       		.byte	0x59
 14101 0efc 00000000 		.4byte	0
 14102 0f00 00000000 		.4byte	0
 14103              	.LLST77:
 14104 0f04 60020000 		.4byte	.LVL199
 14105 0f08 74020000 		.4byte	.LVL200
 14106 0f0c 0200     		.2byte	0x2
 14107 0f0e 30       		.byte	0x30
 14108 0f0f 9F       		.byte	0x9f
 14109 0f10 88020000 		.4byte	.LVL202
 14110 0f14 96020000 		.4byte	.LVL204
ARM GAS  C:\Users\pearlstl\AppData\Local\Temp\ccIJtgHD.s 			page 279


 14111 0f18 0200     		.2byte	0x2
 14112 0f1a 30       		.byte	0x30
 14113 0f1b 9F       		.byte	0x9f
 14114 0f1c 96020000 		.4byte	.LVL204
 14115 0f20 A0020000 		.4byte	.LVL206
 14116 0f24 0100     		.2byte	0x1
 14117 0f26 54       		.byte	0x54
 14118 0f27 B2020000 		.4byte	.LVL207
 14119 0f2b B4020000 		.4byte	.LVL208
 14120 0f2f 0100     		.2byte	0x1
 14121 0f31 54       		.byte	0x54
 14122 0f32 16060000 		.4byte	.LVL336
 14123 0f36 1A060000 		.4byte	.LVL337
 14124 0f3a 0200     		.2byte	0x2
 14125 0f3c 30       		.byte	0x30
 14126 0f3d 9F       		.byte	0x9f
 14127 0f3e 26060000 		.4byte	.LVL340
 14128 0f42 2A060000 		.4byte	.LVL341
 14129 0f46 0200     		.2byte	0x2
 14130 0f48 30       		.byte	0x30
 14131 0f49 9F       		.byte	0x9f
 14132 0f4a 00000000 		.4byte	0
 14133 0f4e 00000000 		.4byte	0
 14134              	.LLST78:
 14135 0f52 BC020000 		.4byte	.LVL210
 14136 0f56 BE020000 		.4byte	.LVL211
 14137 0f5a 0100     		.2byte	0x1
 14138 0f5c 50       		.byte	0x50
 14139 0f5d BE020000 		.4byte	.LVL211
 14140 0f61 C6020000 		.4byte	.LVL212
 14141 0f65 0100     		.2byte	0x1
 14142 0f67 53       		.byte	0x53
 14143 0f68 00000000 		.4byte	0
 14144 0f6c 00000000 		.4byte	0
 14145              	.LLST79:
 14146 0f70 E6020000 		.4byte	.LVL215
 14147 0f74 2E030000 		.4byte	.LVL225
 14148 0f78 0100     		.2byte	0x1
 14149 0f7a 54       		.byte	0x54
 14150 0f7b 22060000 		.4byte	.LVL339
 14151 0f7f 26060000 		.4byte	.LVL340
 14152 0f83 0100     		.2byte	0x1
 14153 0f85 54       		.byte	0x54
 14154 0f86 36060000 		.4byte	.LVL344
 14155 0f8a 3A060000 		.4byte	.LVL345
 14156 0f8e 0100     		.2byte	0x1
 14157 0f90 54       		.byte	0x54
 14158 0f91 00000000 		.4byte	0
 14159 0f95 00000000 		.4byte	0
 14160              	.LLST80:
 14161 0f99 E6020000 		.4byte	.LVL215
 14162 0f9d 78030000 		.4byte	.LVL235
 14163 0fa1 0200     		.2byte	0x2
 14164 0fa3 31       		.byte	0x31
 14165 0fa4 9F       		.byte	0x9f
 14166 0fa5 22060000 		.4byte	.LVL339
 14167 0fa9 26060000 		.4byte	.LVL340
ARM GAS  C:\Users\pearlstl\AppData\Local\Temp\ccIJtgHD.s 			page 280


 14168 0fad 0200     		.2byte	0x2
 14169 0faf 31       		.byte	0x31
 14170 0fb0 9F       		.byte	0x9f
 14171 0fb1 36060000 		.4byte	.LVL344
 14172 0fb5 3A060000 		.4byte	.LVL345
 14173 0fb9 0200     		.2byte	0x2
 14174 0fbb 31       		.byte	0x31
 14175 0fbc 9F       		.byte	0x9f
 14176 0fbd 00000000 		.4byte	0
 14177 0fc1 00000000 		.4byte	0
 14178              	.LLST81:
 14179 0fc5 E6020000 		.4byte	.LVL215
 14180 0fc9 78030000 		.4byte	.LVL235
 14181 0fcd 0100     		.2byte	0x1
 14182 0fcf 57       		.byte	0x57
 14183 0fd0 22060000 		.4byte	.LVL339
 14184 0fd4 26060000 		.4byte	.LVL340
 14185 0fd8 0100     		.2byte	0x1
 14186 0fda 57       		.byte	0x57
 14187 0fdb 36060000 		.4byte	.LVL344
 14188 0fdf 3A060000 		.4byte	.LVL345
 14189 0fe3 0100     		.2byte	0x1
 14190 0fe5 57       		.byte	0x57
 14191 0fe6 00000000 		.4byte	0
 14192 0fea 00000000 		.4byte	0
 14193              	.LLST82:
 14194 0fee EA020000 		.4byte	.LVL216
 14195 0ff2 EE020000 		.4byte	.LVL218
 14196 0ff6 0100     		.2byte	0x1
 14197 0ff8 50       		.byte	0x50
 14198 0ff9 00000000 		.4byte	0
 14199 0ffd 00000000 		.4byte	0
 14200              	.LLST83:
 14201 1001 EC020000 		.4byte	.LVL217
 14202 1005 78030000 		.4byte	.LVL235
 14203 1009 0100     		.2byte	0x1
 14204 100b 57       		.byte	0x57
 14205 100c 22060000 		.4byte	.LVL339
 14206 1010 26060000 		.4byte	.LVL340
 14207 1014 0100     		.2byte	0x1
 14208 1016 57       		.byte	0x57
 14209 1017 36060000 		.4byte	.LVL344
 14210 101b 3A060000 		.4byte	.LVL345
 14211 101f 0100     		.2byte	0x1
 14212 1021 57       		.byte	0x57
 14213 1022 00000000 		.4byte	0
 14214 1026 00000000 		.4byte	0
 14215              	.LLST84:
 14216 102a EC020000 		.4byte	.LVL217
 14217 102e 2E030000 		.4byte	.LVL225
 14218 1032 0200     		.2byte	0x2
 14219 1034 30       		.byte	0x30
 14220 1035 9F       		.byte	0x9f
 14221 1036 2E030000 		.4byte	.LVL225
 14222 103a 4C030000 		.4byte	.LVL229
 14223 103e 0100     		.2byte	0x1
 14224 1040 56       		.byte	0x56
ARM GAS  C:\Users\pearlstl\AppData\Local\Temp\ccIJtgHD.s 			page 281


 14225 1041 22060000 		.4byte	.LVL339
 14226 1045 26060000 		.4byte	.LVL340
 14227 1049 0200     		.2byte	0x2
 14228 104b 30       		.byte	0x30
 14229 104c 9F       		.byte	0x9f
 14230 104d 36060000 		.4byte	.LVL344
 14231 1051 3A060000 		.4byte	.LVL345
 14232 1055 0200     		.2byte	0x2
 14233 1057 30       		.byte	0x30
 14234 1058 9F       		.byte	0x9f
 14235 1059 00000000 		.4byte	0
 14236 105d 00000000 		.4byte	0
 14237              	.LLST85:
 14238 1061 EC020000 		.4byte	.LVL217
 14239 1065 0C030000 		.4byte	.LVL222
 14240 1069 0200     		.2byte	0x2
 14241 106b 30       		.byte	0x30
 14242 106c 9F       		.byte	0x9f
 14243 106d 0C030000 		.4byte	.LVL222
 14244 1071 20030000 		.4byte	.LVL224
 14245 1075 0100     		.2byte	0x1
 14246 1077 51       		.byte	0x51
 14247 1078 22060000 		.4byte	.LVL339
 14248 107c 26060000 		.4byte	.LVL340
 14249 1080 0200     		.2byte	0x2
 14250 1082 30       		.byte	0x30
 14251 1083 9F       		.byte	0x9f
 14252 1084 00000000 		.4byte	0
 14253 1088 00000000 		.4byte	0
 14254              	.LLST86:
 14255 108c F6020000 		.4byte	.LVL220
 14256 1090 FE020000 		.4byte	.LVL221
 14257 1094 0100     		.2byte	0x1
 14258 1096 50       		.byte	0x50
 14259 1097 FE020000 		.4byte	.LVL221
 14260 109b 78030000 		.4byte	.LVL235
 14261 109f 0100     		.2byte	0x1
 14262 10a1 59       		.byte	0x59
 14263 10a2 22060000 		.4byte	.LVL339
 14264 10a6 26060000 		.4byte	.LVL340
 14265 10aa 0100     		.2byte	0x1
 14266 10ac 50       		.byte	0x50
 14267 10ad 36060000 		.4byte	.LVL344
 14268 10b1 3A060000 		.4byte	.LVL345
 14269 10b5 0100     		.2byte	0x1
 14270 10b7 59       		.byte	0x59
 14271 10b8 00000000 		.4byte	0
 14272 10bc 00000000 		.4byte	0
 14273              	.LLST87:
 14274 10c0 F6020000 		.4byte	.LVL220
 14275 10c4 0C030000 		.4byte	.LVL222
 14276 10c8 0200     		.2byte	0x2
 14277 10ca 30       		.byte	0x30
 14278 10cb 9F       		.byte	0x9f
 14279 10cc 20030000 		.4byte	.LVL224
 14280 10d0 2E030000 		.4byte	.LVL225
 14281 10d4 0200     		.2byte	0x2
ARM GAS  C:\Users\pearlstl\AppData\Local\Temp\ccIJtgHD.s 			page 282


 14282 10d6 30       		.byte	0x30
 14283 10d7 9F       		.byte	0x9f
 14284 10d8 2E030000 		.4byte	.LVL225
 14285 10dc 38030000 		.4byte	.LVL227
 14286 10e0 0100     		.2byte	0x1
 14287 10e2 54       		.byte	0x54
 14288 10e3 4A030000 		.4byte	.LVL228
 14289 10e7 4C030000 		.4byte	.LVL229
 14290 10eb 0100     		.2byte	0x1
 14291 10ed 54       		.byte	0x54
 14292 10ee 22060000 		.4byte	.LVL339
 14293 10f2 26060000 		.4byte	.LVL340
 14294 10f6 0200     		.2byte	0x2
 14295 10f8 30       		.byte	0x30
 14296 10f9 9F       		.byte	0x9f
 14297 10fa 36060000 		.4byte	.LVL344
 14298 10fe 3A060000 		.4byte	.LVL345
 14299 1102 0200     		.2byte	0x2
 14300 1104 30       		.byte	0x30
 14301 1105 9F       		.byte	0x9f
 14302 1106 00000000 		.4byte	0
 14303 110a 00000000 		.4byte	0
 14304              	.LLST88:
 14305 110e 54030000 		.4byte	.LVL231
 14306 1112 56030000 		.4byte	.LVL232
 14307 1116 0100     		.2byte	0x1
 14308 1118 50       		.byte	0x50
 14309 1119 56030000 		.4byte	.LVL232
 14310 111d 5E030000 		.4byte	.LVL233
 14311 1121 0100     		.2byte	0x1
 14312 1123 53       		.byte	0x53
 14313 1124 00000000 		.4byte	0
 14314 1128 00000000 		.4byte	0
 14315              	.LLST89:
 14316 112c 7E030000 		.4byte	.LVL236
 14317 1130 C6030000 		.4byte	.LVL246
 14318 1134 0100     		.2byte	0x1
 14319 1136 54       		.byte	0x54
 14320 1137 2E060000 		.4byte	.LVL342
 14321 113b 36060000 		.4byte	.LVL344
 14322 113f 0100     		.2byte	0x1
 14323 1141 54       		.byte	0x54
 14324 1142 00000000 		.4byte	0
 14325 1146 00000000 		.4byte	0
 14326              	.LLST90:
 14327 114a 7E030000 		.4byte	.LVL236
 14328 114e 10040000 		.4byte	.LVL256
 14329 1152 0200     		.2byte	0x2
 14330 1154 32       		.byte	0x32
 14331 1155 9F       		.byte	0x9f
 14332 1156 2E060000 		.4byte	.LVL342
 14333 115a 36060000 		.4byte	.LVL344
 14334 115e 0200     		.2byte	0x2
 14335 1160 32       		.byte	0x32
 14336 1161 9F       		.byte	0x9f
 14337 1162 00000000 		.4byte	0
 14338 1166 00000000 		.4byte	0
ARM GAS  C:\Users\pearlstl\AppData\Local\Temp\ccIJtgHD.s 			page 283


 14339              	.LLST91:
 14340 116a 7E030000 		.4byte	.LVL236
 14341 116e 10040000 		.4byte	.LVL256
 14342 1172 0100     		.2byte	0x1
 14343 1174 57       		.byte	0x57
 14344 1175 2E060000 		.4byte	.LVL342
 14345 1179 36060000 		.4byte	.LVL344
 14346 117d 0100     		.2byte	0x1
 14347 117f 57       		.byte	0x57
 14348 1180 00000000 		.4byte	0
 14349 1184 00000000 		.4byte	0
 14350              	.LLST92:
 14351 1188 82030000 		.4byte	.LVL237
 14352 118c 86030000 		.4byte	.LVL239
 14353 1190 0100     		.2byte	0x1
 14354 1192 50       		.byte	0x50
 14355 1193 00000000 		.4byte	0
 14356 1197 00000000 		.4byte	0
 14357              	.LLST93:
 14358 119b 84030000 		.4byte	.LVL238
 14359 119f 10040000 		.4byte	.LVL256
 14360 11a3 0100     		.2byte	0x1
 14361 11a5 57       		.byte	0x57
 14362 11a6 2E060000 		.4byte	.LVL342
 14363 11aa 36060000 		.4byte	.LVL344
 14364 11ae 0100     		.2byte	0x1
 14365 11b0 57       		.byte	0x57
 14366 11b1 00000000 		.4byte	0
 14367 11b5 00000000 		.4byte	0
 14368              	.LLST94:
 14369 11b9 84030000 		.4byte	.LVL238
 14370 11bd C6030000 		.4byte	.LVL246
 14371 11c1 0200     		.2byte	0x2
 14372 11c3 30       		.byte	0x30
 14373 11c4 9F       		.byte	0x9f
 14374 11c5 C6030000 		.4byte	.LVL246
 14375 11c9 E4030000 		.4byte	.LVL250
 14376 11cd 0100     		.2byte	0x1
 14377 11cf 56       		.byte	0x56
 14378 11d0 2E060000 		.4byte	.LVL342
 14379 11d4 36060000 		.4byte	.LVL344
 14380 11d8 0200     		.2byte	0x2
 14381 11da 30       		.byte	0x30
 14382 11db 9F       		.byte	0x9f
 14383 11dc 00000000 		.4byte	0
 14384 11e0 00000000 		.4byte	0
 14385              	.LLST95:
 14386 11e4 84030000 		.4byte	.LVL238
 14387 11e8 A4030000 		.4byte	.LVL243
 14388 11ec 0200     		.2byte	0x2
 14389 11ee 30       		.byte	0x30
 14390 11ef 9F       		.byte	0x9f
 14391 11f0 A4030000 		.4byte	.LVL243
 14392 11f4 B8030000 		.4byte	.LVL245
 14393 11f8 0100     		.2byte	0x1
 14394 11fa 51       		.byte	0x51
 14395 11fb 32060000 		.4byte	.LVL343
ARM GAS  C:\Users\pearlstl\AppData\Local\Temp\ccIJtgHD.s 			page 284


 14396 11ff 36060000 		.4byte	.LVL344
 14397 1203 0200     		.2byte	0x2
 14398 1205 30       		.byte	0x30
 14399 1206 9F       		.byte	0x9f
 14400 1207 00000000 		.4byte	0
 14401 120b 00000000 		.4byte	0
 14402              	.LLST96:
 14403 120f 8E030000 		.4byte	.LVL241
 14404 1213 96030000 		.4byte	.LVL242
 14405 1217 0100     		.2byte	0x1
 14406 1219 50       		.byte	0x50
 14407 121a 96030000 		.4byte	.LVL242
 14408 121e 10040000 		.4byte	.LVL256
 14409 1222 0100     		.2byte	0x1
 14410 1224 59       		.byte	0x59
 14411 1225 2E060000 		.4byte	.LVL342
 14412 1229 32060000 		.4byte	.LVL343
 14413 122d 0100     		.2byte	0x1
 14414 122f 59       		.byte	0x59
 14415 1230 32060000 		.4byte	.LVL343
 14416 1234 36060000 		.4byte	.LVL344
 14417 1238 0100     		.2byte	0x1
 14418 123a 50       		.byte	0x50
 14419 123b 00000000 		.4byte	0
 14420 123f 00000000 		.4byte	0
 14421              	.LLST97:
 14422 1243 8E030000 		.4byte	.LVL241
 14423 1247 A4030000 		.4byte	.LVL243
 14424 124b 0200     		.2byte	0x2
 14425 124d 30       		.byte	0x30
 14426 124e 9F       		.byte	0x9f
 14427 124f B8030000 		.4byte	.LVL245
 14428 1253 C6030000 		.4byte	.LVL246
 14429 1257 0200     		.2byte	0x2
 14430 1259 30       		.byte	0x30
 14431 125a 9F       		.byte	0x9f
 14432 125b C6030000 		.4byte	.LVL246
 14433 125f D0030000 		.4byte	.LVL248
 14434 1263 0100     		.2byte	0x1
 14435 1265 54       		.byte	0x54
 14436 1266 E2030000 		.4byte	.LVL249
 14437 126a E4030000 		.4byte	.LVL250
 14438 126e 0100     		.2byte	0x1
 14439 1270 54       		.byte	0x54
 14440 1271 2E060000 		.4byte	.LVL342
 14441 1275 36060000 		.4byte	.LVL344
 14442 1279 0200     		.2byte	0x2
 14443 127b 30       		.byte	0x30
 14444 127c 9F       		.byte	0x9f
 14445 127d 00000000 		.4byte	0
 14446 1281 00000000 		.4byte	0
 14447              	.LLST98:
 14448 1285 EC030000 		.4byte	.LVL252
 14449 1289 EE030000 		.4byte	.LVL253
 14450 128d 0100     		.2byte	0x1
 14451 128f 50       		.byte	0x50
 14452 1290 EE030000 		.4byte	.LVL253
ARM GAS  C:\Users\pearlstl\AppData\Local\Temp\ccIJtgHD.s 			page 285


 14453 1294 F6030000 		.4byte	.LVL254
 14454 1298 0100     		.2byte	0x1
 14455 129a 53       		.byte	0x53
 14456 129b 00000000 		.4byte	0
 14457 129f 00000000 		.4byte	0
 14458              	.LLST99:
 14459 12a3 16040000 		.4byte	.LVL257
 14460 12a7 5E040000 		.4byte	.LVL267
 14461 12ab 0100     		.2byte	0x1
 14462 12ad 54       		.byte	0x54
 14463 12ae 1E060000 		.4byte	.LVL338
 14464 12b2 22060000 		.4byte	.LVL339
 14465 12b6 0100     		.2byte	0x1
 14466 12b8 54       		.byte	0x54
 14467 12b9 2A060000 		.4byte	.LVL341
 14468 12bd 2E060000 		.4byte	.LVL342
 14469 12c1 0100     		.2byte	0x1
 14470 12c3 54       		.byte	0x54
 14471 12c4 00000000 		.4byte	0
 14472 12c8 00000000 		.4byte	0
 14473              	.LLST100:
 14474 12cc 16040000 		.4byte	.LVL257
 14475 12d0 A8040000 		.4byte	.LVL277
 14476 12d4 0200     		.2byte	0x2
 14477 12d6 33       		.byte	0x33
 14478 12d7 9F       		.byte	0x9f
 14479 12d8 1E060000 		.4byte	.LVL338
 14480 12dc 22060000 		.4byte	.LVL339
 14481 12e0 0200     		.2byte	0x2
 14482 12e2 33       		.byte	0x33
 14483 12e3 9F       		.byte	0x9f
 14484 12e4 2A060000 		.4byte	.LVL341
 14485 12e8 2E060000 		.4byte	.LVL342
 14486 12ec 0200     		.2byte	0x2
 14487 12ee 33       		.byte	0x33
 14488 12ef 9F       		.byte	0x9f
 14489 12f0 00000000 		.4byte	0
 14490 12f4 00000000 		.4byte	0
 14491              	.LLST101:
 14492 12f8 16040000 		.4byte	.LVL257
 14493 12fc A8040000 		.4byte	.LVL277
 14494 1300 0100     		.2byte	0x1
 14495 1302 57       		.byte	0x57
 14496 1303 1E060000 		.4byte	.LVL338
 14497 1307 22060000 		.4byte	.LVL339
 14498 130b 0100     		.2byte	0x1
 14499 130d 57       		.byte	0x57
 14500 130e 2A060000 		.4byte	.LVL341
 14501 1312 2E060000 		.4byte	.LVL342
 14502 1316 0100     		.2byte	0x1
 14503 1318 57       		.byte	0x57
 14504 1319 00000000 		.4byte	0
 14505 131d 00000000 		.4byte	0
 14506              	.LLST102:
 14507 1321 1A040000 		.4byte	.LVL258
 14508 1325 1E040000 		.4byte	.LVL260
 14509 1329 0100     		.2byte	0x1
ARM GAS  C:\Users\pearlstl\AppData\Local\Temp\ccIJtgHD.s 			page 286


 14510 132b 50       		.byte	0x50
 14511 132c 00000000 		.4byte	0
 14512 1330 00000000 		.4byte	0
 14513              	.LLST103:
 14514 1334 1C040000 		.4byte	.LVL259
 14515 1338 A8040000 		.4byte	.LVL277
 14516 133c 0100     		.2byte	0x1
 14517 133e 57       		.byte	0x57
 14518 133f 1E060000 		.4byte	.LVL338
 14519 1343 22060000 		.4byte	.LVL339
 14520 1347 0100     		.2byte	0x1
 14521 1349 57       		.byte	0x57
 14522 134a 2A060000 		.4byte	.LVL341
 14523 134e 2E060000 		.4byte	.LVL342
 14524 1352 0100     		.2byte	0x1
 14525 1354 57       		.byte	0x57
 14526 1355 00000000 		.4byte	0
 14527 1359 00000000 		.4byte	0
 14528              	.LLST104:
 14529 135d 1C040000 		.4byte	.LVL259
 14530 1361 5E040000 		.4byte	.LVL267
 14531 1365 0200     		.2byte	0x2
 14532 1367 30       		.byte	0x30
 14533 1368 9F       		.byte	0x9f
 14534 1369 5E040000 		.4byte	.LVL267
 14535 136d 7C040000 		.4byte	.LVL271
 14536 1371 0100     		.2byte	0x1
 14537 1373 56       		.byte	0x56
 14538 1374 1E060000 		.4byte	.LVL338
 14539 1378 22060000 		.4byte	.LVL339
 14540 137c 0200     		.2byte	0x2
 14541 137e 30       		.byte	0x30
 14542 137f 9F       		.byte	0x9f
 14543 1380 2A060000 		.4byte	.LVL341
 14544 1384 2E060000 		.4byte	.LVL342
 14545 1388 0200     		.2byte	0x2
 14546 138a 30       		.byte	0x30
 14547 138b 9F       		.byte	0x9f
 14548 138c 00000000 		.4byte	0
 14549 1390 00000000 		.4byte	0
 14550              	.LLST105:
 14551 1394 1C040000 		.4byte	.LVL259
 14552 1398 3C040000 		.4byte	.LVL264
 14553 139c 0200     		.2byte	0x2
 14554 139e 30       		.byte	0x30
 14555 139f 9F       		.byte	0x9f
 14556 13a0 3C040000 		.4byte	.LVL264
 14557 13a4 50040000 		.4byte	.LVL266
 14558 13a8 0100     		.2byte	0x1
 14559 13aa 51       		.byte	0x51
 14560 13ab 2A060000 		.4byte	.LVL341
 14561 13af 2E060000 		.4byte	.LVL342
 14562 13b3 0200     		.2byte	0x2
 14563 13b5 30       		.byte	0x30
 14564 13b6 9F       		.byte	0x9f
 14565 13b7 00000000 		.4byte	0
 14566 13bb 00000000 		.4byte	0
ARM GAS  C:\Users\pearlstl\AppData\Local\Temp\ccIJtgHD.s 			page 287


 14567              	.LLST106:
 14568 13bf 26040000 		.4byte	.LVL262
 14569 13c3 2E040000 		.4byte	.LVL263
 14570 13c7 0100     		.2byte	0x1
 14571 13c9 50       		.byte	0x50
 14572 13ca 2E040000 		.4byte	.LVL263
 14573 13ce A8040000 		.4byte	.LVL277
 14574 13d2 0100     		.2byte	0x1
 14575 13d4 59       		.byte	0x59
 14576 13d5 1E060000 		.4byte	.LVL338
 14577 13d9 22060000 		.4byte	.LVL339
 14578 13dd 0100     		.2byte	0x1
 14579 13df 59       		.byte	0x59
 14580 13e0 2A060000 		.4byte	.LVL341
 14581 13e4 2E060000 		.4byte	.LVL342
 14582 13e8 0100     		.2byte	0x1
 14583 13ea 50       		.byte	0x50
 14584 13eb 00000000 		.4byte	0
 14585 13ef 00000000 		.4byte	0
 14586              	.LLST107:
 14587 13f3 26040000 		.4byte	.LVL262
 14588 13f7 3C040000 		.4byte	.LVL264
 14589 13fb 0200     		.2byte	0x2
 14590 13fd 30       		.byte	0x30
 14591 13fe 9F       		.byte	0x9f
 14592 13ff 50040000 		.4byte	.LVL266
 14593 1403 5E040000 		.4byte	.LVL267
 14594 1407 0200     		.2byte	0x2
 14595 1409 30       		.byte	0x30
 14596 140a 9F       		.byte	0x9f
 14597 140b 5E040000 		.4byte	.LVL267
 14598 140f 68040000 		.4byte	.LVL269
 14599 1413 0100     		.2byte	0x1
 14600 1415 54       		.byte	0x54
 14601 1416 7A040000 		.4byte	.LVL270
 14602 141a 7C040000 		.4byte	.LVL271
 14603 141e 0100     		.2byte	0x1
 14604 1420 54       		.byte	0x54
 14605 1421 1E060000 		.4byte	.LVL338
 14606 1425 22060000 		.4byte	.LVL339
 14607 1429 0200     		.2byte	0x2
 14608 142b 30       		.byte	0x30
 14609 142c 9F       		.byte	0x9f
 14610 142d 2A060000 		.4byte	.LVL341
 14611 1431 2E060000 		.4byte	.LVL342
 14612 1435 0200     		.2byte	0x2
 14613 1437 30       		.byte	0x30
 14614 1438 9F       		.byte	0x9f
 14615 1439 00000000 		.4byte	0
 14616 143d 00000000 		.4byte	0
 14617              	.LLST108:
 14618 1441 84040000 		.4byte	.LVL273
 14619 1445 86040000 		.4byte	.LVL274
 14620 1449 0100     		.2byte	0x1
 14621 144b 50       		.byte	0x50
 14622 144c 86040000 		.4byte	.LVL274
 14623 1450 8E040000 		.4byte	.LVL275
ARM GAS  C:\Users\pearlstl\AppData\Local\Temp\ccIJtgHD.s 			page 288


 14624 1454 0100     		.2byte	0x1
 14625 1456 53       		.byte	0x53
 14626 1457 00000000 		.4byte	0
 14627 145b 00000000 		.4byte	0
 14628              	.LLST109:
 14629 145f AE040000 		.4byte	.LVL278
 14630 1463 BC040000 		.4byte	.LVL283
 14631 1467 0100     		.2byte	0x1
 14632 1469 54       		.byte	0x54
 14633 146a 00000000 		.4byte	0
 14634 146e 00000000 		.4byte	0
 14635              	.LLST110:
 14636 1472 AE040000 		.4byte	.LVL278
 14637 1476 26050000 		.4byte	.LVL298
 14638 147a 0200     		.2byte	0x2
 14639 147c 34       		.byte	0x34
 14640 147d 9F       		.byte	0x9f
 14641 147e 1A060000 		.4byte	.LVL337
 14642 1482 1E060000 		.4byte	.LVL338
 14643 1486 0200     		.2byte	0x2
 14644 1488 34       		.byte	0x34
 14645 1489 9F       		.byte	0x9f
 14646 148a 00000000 		.4byte	0
 14647 148e 00000000 		.4byte	0
 14648              	.LLST111:
 14649 1492 AE040000 		.4byte	.LVL278
 14650 1496 26050000 		.4byte	.LVL298
 14651 149a 0100     		.2byte	0x1
 14652 149c 57       		.byte	0x57
 14653 149d 1A060000 		.4byte	.LVL337
 14654 14a1 1E060000 		.4byte	.LVL338
 14655 14a5 0100     		.2byte	0x1
 14656 14a7 57       		.byte	0x57
 14657 14a8 00000000 		.4byte	0
 14658 14ac 00000000 		.4byte	0
 14659              	.LLST112:
 14660 14b0 B2040000 		.4byte	.LVL279
 14661 14b4 B6040000 		.4byte	.LVL281
 14662 14b8 0100     		.2byte	0x1
 14663 14ba 50       		.byte	0x50
 14664 14bb 00000000 		.4byte	0
 14665 14bf 00000000 		.4byte	0
 14666              	.LLST113:
 14667 14c3 B4040000 		.4byte	.LVL280
 14668 14c7 26050000 		.4byte	.LVL298
 14669 14cb 0100     		.2byte	0x1
 14670 14cd 57       		.byte	0x57
 14671 14ce 1A060000 		.4byte	.LVL337
 14672 14d2 1E060000 		.4byte	.LVL338
 14673 14d6 0100     		.2byte	0x1
 14674 14d8 57       		.byte	0x57
 14675 14d9 00000000 		.4byte	0
 14676 14dd 00000000 		.4byte	0
 14677              	.LLST114:
 14678 14e1 B4040000 		.4byte	.LVL280
 14679 14e5 EC040000 		.4byte	.LVL289
 14680 14e9 0200     		.2byte	0x2
ARM GAS  C:\Users\pearlstl\AppData\Local\Temp\ccIJtgHD.s 			page 289


 14681 14eb 30       		.byte	0x30
 14682 14ec 9F       		.byte	0x9f
 14683 14ed EC040000 		.4byte	.LVL289
 14684 14f1 0A050000 		.4byte	.LVL293
 14685 14f5 0100     		.2byte	0x1
 14686 14f7 56       		.byte	0x56
 14687 14f8 1A060000 		.4byte	.LVL337
 14688 14fc 1E060000 		.4byte	.LVL338
 14689 1500 0200     		.2byte	0x2
 14690 1502 30       		.byte	0x30
 14691 1503 9F       		.byte	0x9f
 14692 1504 00000000 		.4byte	0
 14693 1508 00000000 		.4byte	0
 14694              	.LLST115:
 14695 150c B4040000 		.4byte	.LVL280
 14696 1510 D0040000 		.4byte	.LVL286
 14697 1514 0200     		.2byte	0x2
 14698 1516 30       		.byte	0x30
 14699 1517 9F       		.byte	0x9f
 14700 1518 D0040000 		.4byte	.LVL286
 14701 151c DE040000 		.4byte	.LVL288
 14702 1520 0100     		.2byte	0x1
 14703 1522 51       		.byte	0x51
 14704 1523 00000000 		.4byte	0
 14705 1527 00000000 		.4byte	0
 14706              	.LLST116:
 14707 152b BE040000 		.4byte	.LVL284
 14708 152f C2040000 		.4byte	.LVL285
 14709 1533 0100     		.2byte	0x1
 14710 1535 50       		.byte	0x50
 14711 1536 C2040000 		.4byte	.LVL285
 14712 153a 26050000 		.4byte	.LVL298
 14713 153e 0100     		.2byte	0x1
 14714 1540 58       		.byte	0x58
 14715 1541 1A060000 		.4byte	.LVL337
 14716 1545 1E060000 		.4byte	.LVL338
 14717 1549 0100     		.2byte	0x1
 14718 154b 58       		.byte	0x58
 14719 154c 00000000 		.4byte	0
 14720 1550 00000000 		.4byte	0
 14721              	.LLST117:
 14722 1554 BE040000 		.4byte	.LVL284
 14723 1558 D0040000 		.4byte	.LVL286
 14724 155c 0200     		.2byte	0x2
 14725 155e 30       		.byte	0x30
 14726 155f 9F       		.byte	0x9f
 14727 1560 DE040000 		.4byte	.LVL288
 14728 1564 EC040000 		.4byte	.LVL289
 14729 1568 0200     		.2byte	0x2
 14730 156a 30       		.byte	0x30
 14731 156b 9F       		.byte	0x9f
 14732 156c EC040000 		.4byte	.LVL289
 14733 1570 F6040000 		.4byte	.LVL291
 14734 1574 0100     		.2byte	0x1
 14735 1576 55       		.byte	0x55
 14736 1577 08050000 		.4byte	.LVL292
 14737 157b 0A050000 		.4byte	.LVL293
ARM GAS  C:\Users\pearlstl\AppData\Local\Temp\ccIJtgHD.s 			page 290


 14738 157f 0100     		.2byte	0x1
 14739 1581 55       		.byte	0x55
 14740 1582 1A060000 		.4byte	.LVL337
 14741 1586 1E060000 		.4byte	.LVL338
 14742 158a 0200     		.2byte	0x2
 14743 158c 30       		.byte	0x30
 14744 158d 9F       		.byte	0x9f
 14745 158e 00000000 		.4byte	0
 14746 1592 00000000 		.4byte	0
 14747              	.LLST118:
 14748 1596 12050000 		.4byte	.LVL295
 14749 159a 14050000 		.4byte	.LVL296
 14750 159e 0100     		.2byte	0x1
 14751 15a0 50       		.byte	0x50
 14752 15a1 14050000 		.4byte	.LVL296
 14753 15a5 1C050000 		.4byte	.LVL297
 14754 15a9 0100     		.2byte	0x1
 14755 15ab 53       		.byte	0x53
 14756 15ac 00000000 		.4byte	0
 14757 15b0 00000000 		.4byte	0
 14758              	.LLST119:
 14759 15b4 98050000 		.4byte	.LVL316
 14760 15b8 16060000 		.4byte	.LVL336
 14761 15bc 0200     		.2byte	0x2
 14762 15be 30       		.byte	0x30
 14763 15bf 9F       		.byte	0x9f
 14764 15c0 3A060000 		.4byte	.LVL345
 14765 15c4 48060000 		.4byte	.LFE33
 14766 15c8 0200     		.2byte	0x2
 14767 15ca 30       		.byte	0x30
 14768 15cb 9F       		.byte	0x9f
 14769 15cc 00000000 		.4byte	0
 14770 15d0 00000000 		.4byte	0
 14771              	.LLST120:
 14772 15d4 98050000 		.4byte	.LVL316
 14773 15d8 16060000 		.4byte	.LVL336
 14774 15dc 0100     		.2byte	0x1
 14775 15de 57       		.byte	0x57
 14776 15df 3A060000 		.4byte	.LVL345
 14777 15e3 48060000 		.4byte	.LFE33
 14778 15e7 0100     		.2byte	0x1
 14779 15e9 57       		.byte	0x57
 14780 15ea 00000000 		.4byte	0
 14781 15ee 00000000 		.4byte	0
 14782              	.LLST121:
 14783 15f2 9E050000 		.4byte	.LVL318
 14784 15f6 16060000 		.4byte	.LVL336
 14785 15fa 0200     		.2byte	0x2
 14786 15fc 30       		.byte	0x30
 14787 15fd 9F       		.byte	0x9f
 14788 15fe 3A060000 		.4byte	.LVL345
 14789 1602 48060000 		.4byte	.LFE33
 14790 1606 0200     		.2byte	0x2
 14791 1608 30       		.byte	0x30
 14792 1609 9F       		.byte	0x9f
 14793 160a 00000000 		.4byte	0
 14794 160e 00000000 		.4byte	0
ARM GAS  C:\Users\pearlstl\AppData\Local\Temp\ccIJtgHD.s 			page 291


 14795              	.LLST122:
 14796 1612 9E050000 		.4byte	.LVL318
 14797 1616 16060000 		.4byte	.LVL336
 14798 161a 0100     		.2byte	0x1
 14799 161c 57       		.byte	0x57
 14800 161d 3A060000 		.4byte	.LVL345
 14801 1621 48060000 		.4byte	.LFE33
 14802 1625 0100     		.2byte	0x1
 14803 1627 57       		.byte	0x57
 14804 1628 00000000 		.4byte	0
 14805 162c 00000000 		.4byte	0
 14806              	.LLST123:
 14807 1630 A6050000 		.4byte	.LVL319
 14808 1634 16060000 		.4byte	.LVL336
 14809 1638 0100     		.2byte	0x1
 14810 163a 57       		.byte	0x57
 14811 163b 3A060000 		.4byte	.LVL345
 14812 163f 48060000 		.4byte	.LFE33
 14813 1643 0100     		.2byte	0x1
 14814 1645 57       		.byte	0x57
 14815 1646 00000000 		.4byte	0
 14816 164a 00000000 		.4byte	0
 14817              	.LLST124:
 14818 164e A6050000 		.4byte	.LVL319
 14819 1652 DA050000 		.4byte	.LVL327
 14820 1656 0200     		.2byte	0x2
 14821 1658 30       		.byte	0x30
 14822 1659 9F       		.byte	0x9f
 14823 165a DA050000 		.4byte	.LVL327
 14824 165e F8050000 		.4byte	.LVL331
 14825 1662 0100     		.2byte	0x1
 14826 1664 56       		.byte	0x56
 14827 1665 3A060000 		.4byte	.LVL345
 14828 1669 48060000 		.4byte	.LFE33
 14829 166d 0200     		.2byte	0x2
 14830 166f 30       		.byte	0x30
 14831 1670 9F       		.byte	0x9f
 14832 1671 00000000 		.4byte	0
 14833 1675 00000000 		.4byte	0
 14834              	.LLST125:
 14835 1679 A6050000 		.4byte	.LVL319
 14836 167d C2050000 		.4byte	.LVL322
 14837 1681 0200     		.2byte	0x2
 14838 1683 30       		.byte	0x30
 14839 1684 9F       		.byte	0x9f
 14840 1685 C2050000 		.4byte	.LVL322
 14841 1689 C8050000 		.4byte	.LVL323
 14842 168d 0100     		.2byte	0x1
 14843 168f 56       		.byte	0x56
 14844 1690 CE050000 		.4byte	.LVL324
 14845 1694 D0050000 		.4byte	.LVL325
 14846 1698 0100     		.2byte	0x1
 14847 169a 56       		.byte	0x56
 14848 169b 3E060000 		.4byte	.LVL346
 14849 169f 48060000 		.4byte	.LFE33
 14850 16a3 0200     		.2byte	0x2
 14851 16a5 30       		.byte	0x30
ARM GAS  C:\Users\pearlstl\AppData\Local\Temp\ccIJtgHD.s 			page 292


 14852 16a6 9F       		.byte	0x9f
 14853 16a7 00000000 		.4byte	0
 14854 16ab 00000000 		.4byte	0
 14855              	.LLST126:
 14856 16af B0050000 		.4byte	.LVL321
 14857 16b3 D4050000 		.4byte	.LVL326
 14858 16b7 0100     		.2byte	0x1
 14859 16b9 50       		.byte	0x50
 14860 16ba D4050000 		.4byte	.LVL326
 14861 16be 16060000 		.4byte	.LVL336
 14862 16c2 0100     		.2byte	0x1
 14863 16c4 59       		.byte	0x59
 14864 16c5 3A060000 		.4byte	.LVL345
 14865 16c9 3E060000 		.4byte	.LVL346
 14866 16cd 0100     		.2byte	0x1
 14867 16cf 59       		.byte	0x59
 14868 16d0 3E060000 		.4byte	.LVL346
 14869 16d4 48060000 		.4byte	.LFE33
 14870 16d8 0100     		.2byte	0x1
 14871 16da 50       		.byte	0x50
 14872 16db 00000000 		.4byte	0
 14873 16df 00000000 		.4byte	0
 14874              	.LLST127:
 14875 16e3 B0050000 		.4byte	.LVL321
 14876 16e7 C2050000 		.4byte	.LVL322
 14877 16eb 0200     		.2byte	0x2
 14878 16ed 30       		.byte	0x30
 14879 16ee 9F       		.byte	0x9f
 14880 16ef D0050000 		.4byte	.LVL325
 14881 16f3 DA050000 		.4byte	.LVL327
 14882 16f7 0200     		.2byte	0x2
 14883 16f9 30       		.byte	0x30
 14884 16fa 9F       		.byte	0x9f
 14885 16fb DA050000 		.4byte	.LVL327
 14886 16ff E4050000 		.4byte	.LVL329
 14887 1703 0100     		.2byte	0x1
 14888 1705 55       		.byte	0x55
 14889 1706 F6050000 		.4byte	.LVL330
 14890 170a F8050000 		.4byte	.LVL331
 14891 170e 0100     		.2byte	0x1
 14892 1710 55       		.byte	0x55
 14893 1711 3A060000 		.4byte	.LVL345
 14894 1715 48060000 		.4byte	.LFE33
 14895 1719 0200     		.2byte	0x2
 14896 171b 30       		.byte	0x30
 14897 171c 9F       		.byte	0x9f
 14898 171d 00000000 		.4byte	0
 14899 1721 00000000 		.4byte	0
 14900              	.LLST128:
 14901 1725 00060000 		.4byte	.LVL333
 14902 1729 02060000 		.4byte	.LVL334
 14903 172d 0100     		.2byte	0x1
 14904 172f 50       		.byte	0x50
 14905 1730 02060000 		.4byte	.LVL334
 14906 1734 0A060000 		.4byte	.LVL335
 14907 1738 0100     		.2byte	0x1
 14908 173a 53       		.byte	0x53
ARM GAS  C:\Users\pearlstl\AppData\Local\Temp\ccIJtgHD.s 			page 293


 14909 173b 00000000 		.4byte	0
 14910 173f 00000000 		.4byte	0
 14911              	.LLST129:
 14912 1743 00000000 		.4byte	.LVL348
 14913 1747 0F000000 		.4byte	.LVL349-1
 14914 174b 0100     		.2byte	0x1
 14915 174d 50       		.byte	0x50
 14916 174e 0F000000 		.4byte	.LVL349-1
 14917 1752 DA000000 		.4byte	.LVL373
 14918 1756 0100     		.2byte	0x1
 14919 1758 57       		.byte	0x57
 14920 1759 DA000000 		.4byte	.LVL373
 14921 175d DD000000 		.4byte	.LVL374-1
 14922 1761 0100     		.2byte	0x1
 14923 1763 50       		.byte	0x50
 14924 1764 DD000000 		.4byte	.LVL374-1
 14925 1768 DE000000 		.4byte	.LVL374
 14926 176c 0400     		.2byte	0x4
 14927 176e F3       		.byte	0xf3
 14928 176f 01       		.uleb128 0x1
 14929 1770 50       		.byte	0x50
 14930 1771 9F       		.byte	0x9f
 14931 1772 DE000000 		.4byte	.LVL374
 14932 1776 00010000 		.4byte	.LFE34
 14933 177a 0100     		.2byte	0x1
 14934 177c 57       		.byte	0x57
 14935 177d 00000000 		.4byte	0
 14936 1781 00000000 		.4byte	0
 14937              	.LLST130:
 14938 1785 00000000 		.4byte	.LVL348
 14939 1789 0F000000 		.4byte	.LVL349-1
 14940 178d 0100     		.2byte	0x1
 14941 178f 51       		.byte	0x51
 14942 1790 0F000000 		.4byte	.LVL349-1
 14943 1794 00010000 		.4byte	.LFE34
 14944 1798 0400     		.2byte	0x4
 14945 179a F3       		.byte	0xf3
 14946 179b 01       		.uleb128 0x1
 14947 179c 51       		.byte	0x51
 14948 179d 9F       		.byte	0x9f
 14949 179e 00000000 		.4byte	0
 14950 17a2 00000000 		.4byte	0
 14951              	.LLST131:
 14952 17a6 00000000 		.4byte	.LVL348
 14953 17aa 0F000000 		.4byte	.LVL349-1
 14954 17ae 0100     		.2byte	0x1
 14955 17b0 52       		.byte	0x52
 14956 17b1 0F000000 		.4byte	.LVL349-1
 14957 17b5 00010000 		.4byte	.LFE34
 14958 17b9 0400     		.2byte	0x4
 14959 17bb F3       		.byte	0xf3
 14960 17bc 01       		.uleb128 0x1
 14961 17bd 52       		.byte	0x52
 14962 17be 9F       		.byte	0x9f
 14963 17bf 00000000 		.4byte	0
 14964 17c3 00000000 		.4byte	0
 14965              	.LLST132:
ARM GAS  C:\Users\pearlstl\AppData\Local\Temp\ccIJtgHD.s 			page 294


 14966 17c7 00000000 		.4byte	.LVL348
 14967 17cb 0F000000 		.4byte	.LVL349-1
 14968 17cf 0100     		.2byte	0x1
 14969 17d1 53       		.byte	0x53
 14970 17d2 0F000000 		.4byte	.LVL349-1
 14971 17d6 66000000 		.4byte	.LVL358
 14972 17da 0100     		.2byte	0x1
 14973 17dc 58       		.byte	0x58
 14974 17dd 66000000 		.4byte	.LVL358
 14975 17e1 DE000000 		.4byte	.LVL374
 14976 17e5 0400     		.2byte	0x4
 14977 17e7 F3       		.byte	0xf3
 14978 17e8 01       		.uleb128 0x1
 14979 17e9 53       		.byte	0x53
 14980 17ea 9F       		.byte	0x9f
 14981 17eb DE000000 		.4byte	.LVL374
 14982 17ef FC000000 		.4byte	.LVL379
 14983 17f3 0100     		.2byte	0x1
 14984 17f5 58       		.byte	0x58
 14985 17f6 FC000000 		.4byte	.LVL379
 14986 17fa 00010000 		.4byte	.LFE34
 14987 17fe 0400     		.2byte	0x4
 14988 1800 F3       		.byte	0xf3
 14989 1801 01       		.uleb128 0x1
 14990 1802 53       		.byte	0x53
 14991 1803 9F       		.byte	0x9f
 14992 1804 00000000 		.4byte	0
 14993 1808 00000000 		.4byte	0
 14994              	.LLST133:
 14995 180c 10000000 		.4byte	.LVL349
 14996 1810 34000000 		.4byte	.LVL352
 14997 1814 0100     		.2byte	0x1
 14998 1816 50       		.byte	0x50
 14999 1817 34000000 		.4byte	.LVL352
 15000 181b 90000000 		.4byte	.LVL363
 15001 181f 0100     		.2byte	0x1
 15002 1821 55       		.byte	0x55
 15003 1822 DE000000 		.4byte	.LVL374
 15004 1826 FC000000 		.4byte	.LVL379
 15005 182a 0100     		.2byte	0x1
 15006 182c 50       		.byte	0x50
 15007 182d FC000000 		.4byte	.LVL379
 15008 1831 00010000 		.4byte	.LFE34
 15009 1835 0100     		.2byte	0x1
 15010 1837 55       		.byte	0x55
 15011 1838 00000000 		.4byte	0
 15012 183c 00000000 		.4byte	0
 15013              	.LLST134:
 15014 1840 1E000000 		.4byte	.LVL350
 15015 1844 22000000 		.4byte	.LVL351
 15016 1848 1500     		.2byte	0x15
 15017 184a 74       		.byte	0x74
 15018 184b 00       		.sleb128 0
 15019 184c 0A       		.byte	0xa
 15020 184d FFFF     		.2byte	0xffff
 15021 184f 1A       		.byte	0x1a
 15022 1850 72       		.byte	0x72
ARM GAS  C:\Users\pearlstl\AppData\Local\Temp\ccIJtgHD.s 			page 295


 15023 1851 00       		.sleb128 0
 15024 1852 0A       		.byte	0xa
 15025 1853 FFFF     		.2byte	0xffff
 15026 1855 1A       		.byte	0x1a
 15027 1856 1E       		.byte	0x1e
 15028 1857 76       		.byte	0x76
 15029 1858 00       		.sleb128 0
 15030 1859 0A       		.byte	0xa
 15031 185a FFFF     		.2byte	0xffff
 15032 185c 1A       		.byte	0x1a
 15033 185d 22       		.byte	0x22
 15034 185e 9F       		.byte	0x9f
 15035 185f 00000000 		.4byte	0
 15036 1863 00000000 		.4byte	0
 15037              	.LLST135:
 15038 1867 EA000000 		.4byte	.LVL377
 15039 186b FA000000 		.4byte	.LVL378
 15040 186f 0100     		.2byte	0x1
 15041 1871 5A       		.byte	0x5a
 15042 1872 00000000 		.4byte	0
 15043 1876 00000000 		.4byte	0
 15044              	.LLST136:
 15045 187a 5E000000 		.4byte	.LVL356
 15046 187e 61000000 		.4byte	.LVL357-1
 15047 1882 0100     		.2byte	0x1
 15048 1884 50       		.byte	0x50
 15049 1885 61000000 		.4byte	.LVL357-1
 15050 1889 DA000000 		.4byte	.LVL373
 15051 188d 0100     		.2byte	0x1
 15052 188f 57       		.byte	0x57
 15053 1890 DA000000 		.4byte	.LVL373
 15054 1894 DD000000 		.4byte	.LVL374-1
 15055 1898 0100     		.2byte	0x1
 15056 189a 50       		.byte	0x50
 15057 189b DD000000 		.4byte	.LVL374-1
 15058 189f DE000000 		.4byte	.LVL374
 15059 18a3 0400     		.2byte	0x4
 15060 18a5 F3       		.byte	0xf3
 15061 18a6 01       		.uleb128 0x1
 15062 18a7 50       		.byte	0x50
 15063 18a8 9F       		.byte	0x9f
 15064 18a9 FC000000 		.4byte	.LVL379
 15065 18ad 00010000 		.4byte	.LFE34
 15066 18b1 0100     		.2byte	0x1
 15067 18b3 57       		.byte	0x57
 15068 18b4 00000000 		.4byte	0
 15069 18b8 00000000 		.4byte	0
 15070              	.LLST137:
 15071 18bc 5E000000 		.4byte	.LVL356
 15072 18c0 90000000 		.4byte	.LVL363
 15073 18c4 0200     		.2byte	0x2
 15074 18c6 30       		.byte	0x30
 15075 18c7 9F       		.byte	0x9f
 15076 18c8 90000000 		.4byte	.LVL363
 15077 18cc AE000000 		.4byte	.LVL367
 15078 18d0 0100     		.2byte	0x1
 15079 18d2 56       		.byte	0x56
ARM GAS  C:\Users\pearlstl\AppData\Local\Temp\ccIJtgHD.s 			page 296


 15080 18d3 FC000000 		.4byte	.LVL379
 15081 18d7 00010000 		.4byte	.LFE34
 15082 18db 0200     		.2byte	0x2
 15083 18dd 30       		.byte	0x30
 15084 18de 9F       		.byte	0x9f
 15085 18df 00000000 		.4byte	0
 15086 18e3 00000000 		.4byte	0
 15087              	.LLST138:
 15088 18e7 5E000000 		.4byte	.LVL356
 15089 18eb 78000000 		.4byte	.LVL360
 15090 18ef 0200     		.2byte	0x2
 15091 18f1 30       		.byte	0x30
 15092 18f2 9F       		.byte	0x9f
 15093 18f3 78000000 		.4byte	.LVL360
 15094 18f7 86000000 		.4byte	.LVL362
 15095 18fb 0100     		.2byte	0x1
 15096 18fd 51       		.byte	0x51
 15097 18fe 00000000 		.4byte	0
 15098 1902 00000000 		.4byte	0
 15099              	.LLST139:
 15100 1906 66000000 		.4byte	.LVL358
 15101 190a 6A000000 		.4byte	.LVL359
 15102 190e 0100     		.2byte	0x1
 15103 1910 50       		.byte	0x50
 15104 1911 6A000000 		.4byte	.LVL359
 15105 1915 DA000000 		.4byte	.LVL373
 15106 1919 0100     		.2byte	0x1
 15107 191b 58       		.byte	0x58
 15108 191c FC000000 		.4byte	.LVL379
 15109 1920 00010000 		.4byte	.LFE34
 15110 1924 0100     		.2byte	0x1
 15111 1926 58       		.byte	0x58
 15112 1927 00000000 		.4byte	0
 15113 192b 00000000 		.4byte	0
 15114              	.LLST140:
 15115 192f 66000000 		.4byte	.LVL358
 15116 1933 78000000 		.4byte	.LVL360
 15117 1937 0200     		.2byte	0x2
 15118 1939 30       		.byte	0x30
 15119 193a 9F       		.byte	0x9f
 15120 193b 86000000 		.4byte	.LVL362
 15121 193f 90000000 		.4byte	.LVL363
 15122 1943 0200     		.2byte	0x2
 15123 1945 30       		.byte	0x30
 15124 1946 9F       		.byte	0x9f
 15125 1947 90000000 		.4byte	.LVL363
 15126 194b 9A000000 		.4byte	.LVL365
 15127 194f 0100     		.2byte	0x1
 15128 1951 55       		.byte	0x55
 15129 1952 AC000000 		.4byte	.LVL366
 15130 1956 AE000000 		.4byte	.LVL367
 15131 195a 0100     		.2byte	0x1
 15132 195c 55       		.byte	0x55
 15133 195d FC000000 		.4byte	.LVL379
 15134 1961 00010000 		.4byte	.LFE34
 15135 1965 0200     		.2byte	0x2
 15136 1967 30       		.byte	0x30
ARM GAS  C:\Users\pearlstl\AppData\Local\Temp\ccIJtgHD.s 			page 297


 15137 1968 9F       		.byte	0x9f
 15138 1969 00000000 		.4byte	0
 15139 196d 00000000 		.4byte	0
 15140              	.LLST141:
 15141 1971 B6000000 		.4byte	.LVL369
 15142 1975 B8000000 		.4byte	.LVL370
 15143 1979 0100     		.2byte	0x1
 15144 197b 50       		.byte	0x50
 15145 197c B8000000 		.4byte	.LVL370
 15146 1980 C0000000 		.4byte	.LVL371
 15147 1984 0100     		.2byte	0x1
 15148 1986 53       		.byte	0x53
 15149 1987 00000000 		.4byte	0
 15150 198b 00000000 		.4byte	0
 15151              	.LLST142:
 15152 198f 00000000 		.4byte	.LVL380
 15153 1993 0B000000 		.4byte	.LVL381-1
 15154 1997 0100     		.2byte	0x1
 15155 1999 50       		.byte	0x50
 15156 199a 0B000000 		.4byte	.LVL381-1
 15157 199e A4000000 		.4byte	.LVL404
 15158 19a2 0100     		.2byte	0x1
 15159 19a4 57       		.byte	0x57
 15160 19a5 A4000000 		.4byte	.LVL404
 15161 19a9 A7000000 		.4byte	.LVL405-1
 15162 19ad 0100     		.2byte	0x1
 15163 19af 50       		.byte	0x50
 15164 19b0 A7000000 		.4byte	.LVL405-1
 15165 19b4 A8000000 		.4byte	.LVL405
 15166 19b8 0400     		.2byte	0x4
 15167 19ba F3       		.byte	0xf3
 15168 19bb 01       		.uleb128 0x1
 15169 19bc 50       		.byte	0x50
 15170 19bd 9F       		.byte	0x9f
 15171 19be A8000000 		.4byte	.LVL405
 15172 19c2 DC000000 		.4byte	.LFE35
 15173 19c6 0100     		.2byte	0x1
 15174 19c8 57       		.byte	0x57
 15175 19c9 00000000 		.4byte	0
 15176 19cd 00000000 		.4byte	0
 15177              	.LLST143:
 15178 19d1 00000000 		.4byte	.LVL380
 15179 19d5 0B000000 		.4byte	.LVL381-1
 15180 19d9 0100     		.2byte	0x1
 15181 19db 51       		.byte	0x51
 15182 19dc 0B000000 		.4byte	.LVL381-1
 15183 19e0 DC000000 		.4byte	.LFE35
 15184 19e4 0400     		.2byte	0x4
 15185 19e6 F3       		.byte	0xf3
 15186 19e7 01       		.uleb128 0x1
 15187 19e8 51       		.byte	0x51
 15188 19e9 9F       		.byte	0x9f
 15189 19ea 00000000 		.4byte	0
 15190 19ee 00000000 		.4byte	0
 15191              	.LLST144:
 15192 19f2 12000000 		.4byte	.LVL382
 15193 19f6 1C000000 		.4byte	.LVL383
ARM GAS  C:\Users\pearlstl\AppData\Local\Temp\ccIJtgHD.s 			page 298


 15194 19fa 0100     		.2byte	0x1
 15195 19fc 50       		.byte	0x50
 15196 19fd 1C000000 		.4byte	.LVL383
 15197 1a01 2C000000 		.4byte	.LVL387
 15198 1a05 0100     		.2byte	0x1
 15199 1a07 54       		.byte	0x54
 15200 1a08 A8000000 		.4byte	.LVL405
 15201 1a0c B0000000 		.4byte	.LVL406
 15202 1a10 0100     		.2byte	0x1
 15203 1a12 50       		.byte	0x50
 15204 1a13 B0000000 		.4byte	.LVL406
 15205 1a17 D8000000 		.4byte	.LVL411
 15206 1a1b 0100     		.2byte	0x1
 15207 1a1d 54       		.byte	0x54
 15208 1a1e 00000000 		.4byte	0
 15209 1a22 00000000 		.4byte	0
 15210              	.LLST145:
 15211 1a26 12000000 		.4byte	.LVL382
 15212 1a2a 58000000 		.4byte	.LVL393
 15213 1a2e 0100     		.2byte	0x1
 15214 1a30 56       		.byte	0x56
 15215 1a31 A8000000 		.4byte	.LVL405
 15216 1a35 DC000000 		.4byte	.LFE35
 15217 1a39 0100     		.2byte	0x1
 15218 1a3b 56       		.byte	0x56
 15219 1a3c 00000000 		.4byte	0
 15220 1a40 00000000 		.4byte	0
 15221              	.LLST146:
 15222 1a44 24000000 		.4byte	.LVL385
 15223 1a48 A4000000 		.4byte	.LVL404
 15224 1a4c 0100     		.2byte	0x1
 15225 1a4e 57       		.byte	0x57
 15226 1a4f A4000000 		.4byte	.LVL404
 15227 1a53 A7000000 		.4byte	.LVL405-1
 15228 1a57 0100     		.2byte	0x1
 15229 1a59 50       		.byte	0x50
 15230 1a5a A7000000 		.4byte	.LVL405-1
 15231 1a5e A8000000 		.4byte	.LVL405
 15232 1a62 0400     		.2byte	0x4
 15233 1a64 F3       		.byte	0xf3
 15234 1a65 01       		.uleb128 0x1
 15235 1a66 50       		.byte	0x50
 15236 1a67 9F       		.byte	0x9f
 15237 1a68 D8000000 		.4byte	.LVL411
 15238 1a6c DC000000 		.4byte	.LFE35
 15239 1a70 0100     		.2byte	0x1
 15240 1a72 57       		.byte	0x57
 15241 1a73 00000000 		.4byte	0
 15242 1a77 00000000 		.4byte	0
 15243              	.LLST147:
 15244 1a7b 24000000 		.4byte	.LVL385
 15245 1a7f 5A000000 		.4byte	.LVL394
 15246 1a83 0200     		.2byte	0x2
 15247 1a85 30       		.byte	0x30
 15248 1a86 9F       		.byte	0x9f
 15249 1a87 5A000000 		.4byte	.LVL394
 15250 1a8b 78000000 		.4byte	.LVL398
ARM GAS  C:\Users\pearlstl\AppData\Local\Temp\ccIJtgHD.s 			page 299


 15251 1a8f 0100     		.2byte	0x1
 15252 1a91 56       		.byte	0x56
 15253 1a92 D8000000 		.4byte	.LVL411
 15254 1a96 DC000000 		.4byte	.LFE35
 15255 1a9a 0200     		.2byte	0x2
 15256 1a9c 30       		.byte	0x30
 15257 1a9d 9F       		.byte	0x9f
 15258 1a9e 00000000 		.4byte	0
 15259 1aa2 00000000 		.4byte	0
 15260              	.LLST148:
 15261 1aa6 24000000 		.4byte	.LVL385
 15262 1aaa 40000000 		.4byte	.LVL390
 15263 1aae 0200     		.2byte	0x2
 15264 1ab0 30       		.byte	0x30
 15265 1ab1 9F       		.byte	0x9f
 15266 1ab2 40000000 		.4byte	.LVL390
 15267 1ab6 4E000000 		.4byte	.LVL392
 15268 1aba 0100     		.2byte	0x1
 15269 1abc 51       		.byte	0x51
 15270 1abd 00000000 		.4byte	0
 15271 1ac1 00000000 		.4byte	0
 15272              	.LLST149:
 15273 1ac5 2E000000 		.4byte	.LVL388
 15274 1ac9 32000000 		.4byte	.LVL389
 15275 1acd 0100     		.2byte	0x1
 15276 1acf 50       		.byte	0x50
 15277 1ad0 32000000 		.4byte	.LVL389
 15278 1ad4 A4000000 		.4byte	.LVL404
 15279 1ad8 0100     		.2byte	0x1
 15280 1ada 58       		.byte	0x58
 15281 1adb D8000000 		.4byte	.LVL411
 15282 1adf DC000000 		.4byte	.LFE35
 15283 1ae3 0100     		.2byte	0x1
 15284 1ae5 58       		.byte	0x58
 15285 1ae6 00000000 		.4byte	0
 15286 1aea 00000000 		.4byte	0
 15287              	.LLST150:
 15288 1aee 2E000000 		.4byte	.LVL388
 15289 1af2 40000000 		.4byte	.LVL390
 15290 1af6 0200     		.2byte	0x2
 15291 1af8 30       		.byte	0x30
 15292 1af9 9F       		.byte	0x9f
 15293 1afa 4E000000 		.4byte	.LVL392
 15294 1afe 5A000000 		.4byte	.LVL394
 15295 1b02 0200     		.2byte	0x2
 15296 1b04 30       		.byte	0x30
 15297 1b05 9F       		.byte	0x9f
 15298 1b06 5A000000 		.4byte	.LVL394
 15299 1b0a 64000000 		.4byte	.LVL396
 15300 1b0e 0100     		.2byte	0x1
 15301 1b10 55       		.byte	0x55
 15302 1b11 76000000 		.4byte	.LVL397
 15303 1b15 78000000 		.4byte	.LVL398
 15304 1b19 0100     		.2byte	0x1
 15305 1b1b 55       		.byte	0x55
 15306 1b1c D8000000 		.4byte	.LVL411
 15307 1b20 DC000000 		.4byte	.LFE35
ARM GAS  C:\Users\pearlstl\AppData\Local\Temp\ccIJtgHD.s 			page 300


 15308 1b24 0200     		.2byte	0x2
 15309 1b26 30       		.byte	0x30
 15310 1b27 9F       		.byte	0x9f
 15311 1b28 00000000 		.4byte	0
 15312 1b2c 00000000 		.4byte	0
 15313              	.LLST151:
 15314 1b30 80000000 		.4byte	.LVL400
 15315 1b34 82000000 		.4byte	.LVL401
 15316 1b38 0100     		.2byte	0x1
 15317 1b3a 50       		.byte	0x50
 15318 1b3b 82000000 		.4byte	.LVL401
 15319 1b3f 8A000000 		.4byte	.LVL402
 15320 1b43 0100     		.2byte	0x1
 15321 1b45 53       		.byte	0x53
 15322 1b46 00000000 		.4byte	0
 15323 1b4a 00000000 		.4byte	0
 15324              	.LLST152:
 15325 1b4e BC000000 		.4byte	.LVL408
 15326 1b52 C8000000 		.4byte	.LVL409
 15327 1b56 0600     		.2byte	0x6
 15328 1b58 76       		.byte	0x76
 15329 1b59 00       		.sleb128 0
 15330 1b5a 72       		.byte	0x72
 15331 1b5b 00       		.sleb128 0
 15332 1b5c 1E       		.byte	0x1e
 15333 1b5d 9F       		.byte	0x9f
 15334 1b5e C8000000 		.4byte	.LVL409
 15335 1b62 D5000000 		.4byte	.LVL410-1
 15336 1b66 0800     		.2byte	0x8
 15337 1b68 76       		.byte	0x76
 15338 1b69 00       		.sleb128 0
 15339 1b6a 74       		.byte	0x74
 15340 1b6b 00       		.sleb128 0
 15341 1b6c 94       		.byte	0x94
 15342 1b6d 02       		.byte	0x2
 15343 1b6e 1E       		.byte	0x1e
 15344 1b6f 9F       		.byte	0x9f
 15345 1b70 00000000 		.4byte	0
 15346 1b74 00000000 		.4byte	0
 15347              	.LLST153:
 15348 1b78 BC000000 		.4byte	.LVL408
 15349 1b7c C8000000 		.4byte	.LVL409
 15350 1b80 1000     		.2byte	0x10
 15351 1b82 74       		.byte	0x74
 15352 1b83 02       		.sleb128 2
 15353 1b84 94       		.byte	0x94
 15354 1b85 02       		.byte	0x2
 15355 1b86 0A       		.byte	0xa
 15356 1b87 FFFF     		.2byte	0xffff
 15357 1b89 1A       		.byte	0x1a
 15358 1b8a 72       		.byte	0x72
 15359 1b8b 00       		.sleb128 0
 15360 1b8c 0A       		.byte	0xa
 15361 1b8d FFFF     		.2byte	0xffff
 15362 1b8f 1A       		.byte	0x1a
 15363 1b90 1E       		.byte	0x1e
 15364 1b91 9F       		.byte	0x9f
ARM GAS  C:\Users\pearlstl\AppData\Local\Temp\ccIJtgHD.s 			page 301


 15365 1b92 C8000000 		.4byte	.LVL409
 15366 1b96 D5000000 		.4byte	.LVL410-1
 15367 1b9a 1200     		.2byte	0x12
 15368 1b9c 74       		.byte	0x74
 15369 1b9d 02       		.sleb128 2
 15370 1b9e 94       		.byte	0x94
 15371 1b9f 02       		.byte	0x2
 15372 1ba0 0A       		.byte	0xa
 15373 1ba1 FFFF     		.2byte	0xffff
 15374 1ba3 1A       		.byte	0x1a
 15375 1ba4 74       		.byte	0x74
 15376 1ba5 00       		.sleb128 0
 15377 1ba6 94       		.byte	0x94
 15378 1ba7 02       		.byte	0x2
 15379 1ba8 0A       		.byte	0xa
 15380 1ba9 FFFF     		.2byte	0xffff
 15381 1bab 1A       		.byte	0x1a
 15382 1bac 1E       		.byte	0x1e
 15383 1bad 9F       		.byte	0x9f
 15384 1bae 00000000 		.4byte	0
 15385 1bb2 00000000 		.4byte	0
 15386              	.LLST154:
 15387 1bb6 00000000 		.4byte	.LVL412
 15388 1bba 11000000 		.4byte	.LVL414-1
 15389 1bbe 0100     		.2byte	0x1
 15390 1bc0 50       		.byte	0x50
 15391 1bc1 11000000 		.4byte	.LVL414-1
 15392 1bc5 AA000000 		.4byte	.LVL437
 15393 1bc9 0100     		.2byte	0x1
 15394 1bcb 57       		.byte	0x57
 15395 1bcc AA000000 		.4byte	.LVL437
 15396 1bd0 AD000000 		.4byte	.LVL438-1
 15397 1bd4 0100     		.2byte	0x1
 15398 1bd6 50       		.byte	0x50
 15399 1bd7 AD000000 		.4byte	.LVL438-1
 15400 1bdb AE000000 		.4byte	.LVL438
 15401 1bdf 0400     		.2byte	0x4
 15402 1be1 F3       		.byte	0xf3
 15403 1be2 01       		.uleb128 0x1
 15404 1be3 50       		.byte	0x50
 15405 1be4 9F       		.byte	0x9f
 15406 1be5 AE000000 		.4byte	.LVL438
 15407 1be9 E2000000 		.4byte	.LFE36
 15408 1bed 0100     		.2byte	0x1
 15409 1bef 57       		.byte	0x57
 15410 1bf0 00000000 		.4byte	0
 15411 1bf4 00000000 		.4byte	0
 15412              	.LLST155:
 15413 1bf8 00000000 		.4byte	.LVL412
 15414 1bfc 11000000 		.4byte	.LVL414-1
 15415 1c00 0100     		.2byte	0x1
 15416 1c02 51       		.byte	0x51
 15417 1c03 11000000 		.4byte	.LVL414-1
 15418 1c07 E2000000 		.4byte	.LFE36
 15419 1c0b 0400     		.2byte	0x4
 15420 1c0d F3       		.byte	0xf3
 15421 1c0e 01       		.uleb128 0x1
ARM GAS  C:\Users\pearlstl\AppData\Local\Temp\ccIJtgHD.s 			page 302


 15422 1c0f 51       		.byte	0x51
 15423 1c10 9F       		.byte	0x9f
 15424 1c11 00000000 		.4byte	0
 15425 1c15 00000000 		.4byte	0
 15426              	.LLST156:
 15427 1c19 0E000000 		.4byte	.LVL413
 15428 1c1d 32000000 		.4byte	.LVL420
 15429 1c21 0100     		.2byte	0x1
 15430 1c23 54       		.byte	0x54
 15431 1c24 AE000000 		.4byte	.LVL438
 15432 1c28 DE000000 		.4byte	.LVL444
 15433 1c2c 0100     		.2byte	0x1
 15434 1c2e 54       		.byte	0x54
 15435 1c2f 00000000 		.4byte	0
 15436 1c33 00000000 		.4byte	0
 15437              	.LLST157:
 15438 1c37 0E000000 		.4byte	.LVL413
 15439 1c3b AA000000 		.4byte	.LVL437
 15440 1c3f 0100     		.2byte	0x1
 15441 1c41 57       		.byte	0x57
 15442 1c42 AA000000 		.4byte	.LVL437
 15443 1c46 AD000000 		.4byte	.LVL438-1
 15444 1c4a 0100     		.2byte	0x1
 15445 1c4c 50       		.byte	0x50
 15446 1c4d AD000000 		.4byte	.LVL438-1
 15447 1c51 AE000000 		.4byte	.LVL438
 15448 1c55 0400     		.2byte	0x4
 15449 1c57 F3       		.byte	0xf3
 15450 1c58 01       		.uleb128 0x1
 15451 1c59 50       		.byte	0x50
 15452 1c5a 9F       		.byte	0x9f
 15453 1c5b AE000000 		.4byte	.LVL438
 15454 1c5f E2000000 		.4byte	.LFE36
 15455 1c63 0100     		.2byte	0x1
 15456 1c65 57       		.byte	0x57
 15457 1c66 00000000 		.4byte	0
 15458 1c6a 00000000 		.4byte	0
 15459              	.LLST158:
 15460 1c6e 1A000000 		.4byte	.LVL415
 15461 1c72 22000000 		.4byte	.LVL416
 15462 1c76 0100     		.2byte	0x1
 15463 1c78 50       		.byte	0x50
 15464 1c79 22000000 		.4byte	.LVL416
 15465 1c7d 60000000 		.4byte	.LVL427
 15466 1c81 0100     		.2byte	0x1
 15467 1c83 55       		.byte	0x55
 15468 1c84 AE000000 		.4byte	.LVL438
 15469 1c88 B6000000 		.4byte	.LVL439
 15470 1c8c 0100     		.2byte	0x1
 15471 1c8e 50       		.byte	0x50
 15472 1c8f B6000000 		.4byte	.LVL439
 15473 1c93 E2000000 		.4byte	.LFE36
 15474 1c97 0100     		.2byte	0x1
 15475 1c99 55       		.byte	0x55
 15476 1c9a 00000000 		.4byte	0
 15477 1c9e 00000000 		.4byte	0
 15478              	.LLST159:
ARM GAS  C:\Users\pearlstl\AppData\Local\Temp\ccIJtgHD.s 			page 303


 15479 1ca2 1A000000 		.4byte	.LVL415
 15480 1ca6 5E000000 		.4byte	.LVL426
 15481 1caa 0100     		.2byte	0x1
 15482 1cac 56       		.byte	0x56
 15483 1cad AE000000 		.4byte	.LVL438
 15484 1cb1 E2000000 		.4byte	.LFE36
 15485 1cb5 0100     		.2byte	0x1
 15486 1cb7 56       		.byte	0x56
 15487 1cb8 00000000 		.4byte	0
 15488 1cbc 00000000 		.4byte	0
 15489              	.LLST160:
 15490 1cc0 2A000000 		.4byte	.LVL418
 15491 1cc4 AA000000 		.4byte	.LVL437
 15492 1cc8 0100     		.2byte	0x1
 15493 1cca 57       		.byte	0x57
 15494 1ccb AA000000 		.4byte	.LVL437
 15495 1ccf AD000000 		.4byte	.LVL438-1
 15496 1cd3 0100     		.2byte	0x1
 15497 1cd5 50       		.byte	0x50
 15498 1cd6 AD000000 		.4byte	.LVL438-1
 15499 1cda AE000000 		.4byte	.LVL438
 15500 1cde 0400     		.2byte	0x4
 15501 1ce0 F3       		.byte	0xf3
 15502 1ce1 01       		.uleb128 0x1
 15503 1ce2 50       		.byte	0x50
 15504 1ce3 9F       		.byte	0x9f
 15505 1ce4 DE000000 		.4byte	.LVL444
 15506 1ce8 E2000000 		.4byte	.LFE36
 15507 1cec 0100     		.2byte	0x1
 15508 1cee 57       		.byte	0x57
 15509 1cef 00000000 		.4byte	0
 15510 1cf3 00000000 		.4byte	0
 15511              	.LLST161:
 15512 1cf7 2A000000 		.4byte	.LVL418
 15513 1cfb 60000000 		.4byte	.LVL427
 15514 1cff 0200     		.2byte	0x2
 15515 1d01 30       		.byte	0x30
 15516 1d02 9F       		.byte	0x9f
 15517 1d03 60000000 		.4byte	.LVL427
 15518 1d07 7E000000 		.4byte	.LVL431
 15519 1d0b 0100     		.2byte	0x1
 15520 1d0d 56       		.byte	0x56
 15521 1d0e DE000000 		.4byte	.LVL444
 15522 1d12 E2000000 		.4byte	.LFE36
 15523 1d16 0200     		.2byte	0x2
 15524 1d18 30       		.byte	0x30
 15525 1d19 9F       		.byte	0x9f
 15526 1d1a 00000000 		.4byte	0
 15527 1d1e 00000000 		.4byte	0
 15528              	.LLST162:
 15529 1d22 2A000000 		.4byte	.LVL418
 15530 1d26 46000000 		.4byte	.LVL423
 15531 1d2a 0200     		.2byte	0x2
 15532 1d2c 30       		.byte	0x30
 15533 1d2d 9F       		.byte	0x9f
 15534 1d2e 46000000 		.4byte	.LVL423
 15535 1d32 54000000 		.4byte	.LVL425
ARM GAS  C:\Users\pearlstl\AppData\Local\Temp\ccIJtgHD.s 			page 304


 15536 1d36 0100     		.2byte	0x1
 15537 1d38 51       		.byte	0x51
 15538 1d39 00000000 		.4byte	0
 15539 1d3d 00000000 		.4byte	0
 15540              	.LLST163:
 15541 1d41 34000000 		.4byte	.LVL421
 15542 1d45 38000000 		.4byte	.LVL422
 15543 1d49 0100     		.2byte	0x1
 15544 1d4b 50       		.byte	0x50
 15545 1d4c 38000000 		.4byte	.LVL422
 15546 1d50 AA000000 		.4byte	.LVL437
 15547 1d54 0100     		.2byte	0x1
 15548 1d56 58       		.byte	0x58
 15549 1d57 DE000000 		.4byte	.LVL444
 15550 1d5b E2000000 		.4byte	.LFE36
 15551 1d5f 0100     		.2byte	0x1
 15552 1d61 58       		.byte	0x58
 15553 1d62 00000000 		.4byte	0
 15554 1d66 00000000 		.4byte	0
 15555              	.LLST164:
 15556 1d6a 34000000 		.4byte	.LVL421
 15557 1d6e 46000000 		.4byte	.LVL423
 15558 1d72 0200     		.2byte	0x2
 15559 1d74 30       		.byte	0x30
 15560 1d75 9F       		.byte	0x9f
 15561 1d76 54000000 		.4byte	.LVL425
 15562 1d7a 60000000 		.4byte	.LVL427
 15563 1d7e 0200     		.2byte	0x2
 15564 1d80 30       		.byte	0x30
 15565 1d81 9F       		.byte	0x9f
 15566 1d82 60000000 		.4byte	.LVL427
 15567 1d86 6A000000 		.4byte	.LVL429
 15568 1d8a 0100     		.2byte	0x1
 15569 1d8c 55       		.byte	0x55
 15570 1d8d 7C000000 		.4byte	.LVL430
 15571 1d91 7E000000 		.4byte	.LVL431
 15572 1d95 0100     		.2byte	0x1
 15573 1d97 55       		.byte	0x55
 15574 1d98 DE000000 		.4byte	.LVL444
 15575 1d9c E2000000 		.4byte	.LFE36
 15576 1da0 0200     		.2byte	0x2
 15577 1da2 30       		.byte	0x30
 15578 1da3 9F       		.byte	0x9f
 15579 1da4 00000000 		.4byte	0
 15580 1da8 00000000 		.4byte	0
 15581              	.LLST165:
 15582 1dac 86000000 		.4byte	.LVL433
 15583 1db0 88000000 		.4byte	.LVL434
 15584 1db4 0100     		.2byte	0x1
 15585 1db6 50       		.byte	0x50
 15586 1db7 88000000 		.4byte	.LVL434
 15587 1dbb 90000000 		.4byte	.LVL435
 15588 1dbf 0100     		.2byte	0x1
 15589 1dc1 53       		.byte	0x53
 15590 1dc2 00000000 		.4byte	0
 15591 1dc6 00000000 		.4byte	0
 15592              	.LLST166:
ARM GAS  C:\Users\pearlstl\AppData\Local\Temp\ccIJtgHD.s 			page 305


 15593 1dca C2000000 		.4byte	.LVL441
 15594 1dce CE000000 		.4byte	.LVL442
 15595 1dd2 0600     		.2byte	0x6
 15596 1dd4 76       		.byte	0x76
 15597 1dd5 00       		.sleb128 0
 15598 1dd6 72       		.byte	0x72
 15599 1dd7 00       		.sleb128 0
 15600 1dd8 1E       		.byte	0x1e
 15601 1dd9 9F       		.byte	0x9f
 15602 1dda CE000000 		.4byte	.LVL442
 15603 1dde DB000000 		.4byte	.LVL443-1
 15604 1de2 0800     		.2byte	0x8
 15605 1de4 76       		.byte	0x76
 15606 1de5 00       		.sleb128 0
 15607 1de6 75       		.byte	0x75
 15608 1de7 02       		.sleb128 2
 15609 1de8 94       		.byte	0x94
 15610 1de9 02       		.byte	0x2
 15611 1dea 1E       		.byte	0x1e
 15612 1deb 9F       		.byte	0x9f
 15613 1dec 00000000 		.4byte	0
 15614 1df0 00000000 		.4byte	0
 15615              	.LLST167:
 15616 1df4 C2000000 		.4byte	.LVL441
 15617 1df8 CE000000 		.4byte	.LVL442
 15618 1dfc 1000     		.2byte	0x10
 15619 1dfe 75       		.byte	0x75
 15620 1dff 00       		.sleb128 0
 15621 1e00 94       		.byte	0x94
 15622 1e01 02       		.byte	0x2
 15623 1e02 0A       		.byte	0xa
 15624 1e03 FFFF     		.2byte	0xffff
 15625 1e05 1A       		.byte	0x1a
 15626 1e06 72       		.byte	0x72
 15627 1e07 00       		.sleb128 0
 15628 1e08 0A       		.byte	0xa
 15629 1e09 FFFF     		.2byte	0xffff
 15630 1e0b 1A       		.byte	0x1a
 15631 1e0c 1E       		.byte	0x1e
 15632 1e0d 9F       		.byte	0x9f
 15633 1e0e CE000000 		.4byte	.LVL442
 15634 1e12 DB000000 		.4byte	.LVL443-1
 15635 1e16 1200     		.2byte	0x12
 15636 1e18 75       		.byte	0x75
 15637 1e19 00       		.sleb128 0
 15638 1e1a 94       		.byte	0x94
 15639 1e1b 02       		.byte	0x2
 15640 1e1c 0A       		.byte	0xa
 15641 1e1d FFFF     		.2byte	0xffff
 15642 1e1f 1A       		.byte	0x1a
 15643 1e20 75       		.byte	0x75
 15644 1e21 02       		.sleb128 2
 15645 1e22 94       		.byte	0x94
 15646 1e23 02       		.byte	0x2
 15647 1e24 0A       		.byte	0xa
 15648 1e25 FFFF     		.2byte	0xffff
 15649 1e27 1A       		.byte	0x1a
ARM GAS  C:\Users\pearlstl\AppData\Local\Temp\ccIJtgHD.s 			page 306


 15650 1e28 1E       		.byte	0x1e
 15651 1e29 9F       		.byte	0x9f
 15652 1e2a 00000000 		.4byte	0
 15653 1e2e 00000000 		.4byte	0
 15654              	.LLST168:
 15655 1e32 00000000 		.4byte	.LVL445
 15656 1e36 13000000 		.4byte	.LVL446-1
 15657 1e3a 0100     		.2byte	0x1
 15658 1e3c 50       		.byte	0x50
 15659 1e3d 13000000 		.4byte	.LVL446-1
 15660 1e41 9A000000 		.4byte	.LVL465
 15661 1e45 0100     		.2byte	0x1
 15662 1e47 57       		.byte	0x57
 15663 1e48 9A000000 		.4byte	.LVL465
 15664 1e4c 9D000000 		.4byte	.LVL466-1
 15665 1e50 0100     		.2byte	0x1
 15666 1e52 50       		.byte	0x50
 15667 1e53 9D000000 		.4byte	.LVL466-1
 15668 1e57 9E000000 		.4byte	.LVL466
 15669 1e5b 0400     		.2byte	0x4
 15670 1e5d F3       		.byte	0xf3
 15671 1e5e 01       		.uleb128 0x1
 15672 1e5f 50       		.byte	0x50
 15673 1e60 9F       		.byte	0x9f
 15674 1e61 9E000000 		.4byte	.LVL466
 15675 1e65 A2000000 		.4byte	.LFE37
 15676 1e69 0100     		.2byte	0x1
 15677 1e6b 57       		.byte	0x57
 15678 1e6c 00000000 		.4byte	0
 15679 1e70 00000000 		.4byte	0
 15680              	.LLST169:
 15681 1e74 00000000 		.4byte	.LVL445
 15682 1e78 13000000 		.4byte	.LVL446-1
 15683 1e7c 0100     		.2byte	0x1
 15684 1e7e 51       		.byte	0x51
 15685 1e7f 13000000 		.4byte	.LVL446-1
 15686 1e83 A2000000 		.4byte	.LFE37
 15687 1e87 0400     		.2byte	0x4
 15688 1e89 F3       		.byte	0xf3
 15689 1e8a 01       		.uleb128 0x1
 15690 1e8b 51       		.byte	0x51
 15691 1e8c 9F       		.byte	0x9f
 15692 1e8d 00000000 		.4byte	0
 15693 1e91 00000000 		.4byte	0
 15694              	.LLST170:
 15695 1e95 00000000 		.4byte	.LVL445
 15696 1e99 13000000 		.4byte	.LVL446-1
 15697 1e9d 0100     		.2byte	0x1
 15698 1e9f 52       		.byte	0x52
 15699 1ea0 13000000 		.4byte	.LVL446-1
 15700 1ea4 A2000000 		.4byte	.LFE37
 15701 1ea8 0400     		.2byte	0x4
 15702 1eaa F3       		.byte	0xf3
 15703 1eab 01       		.uleb128 0x1
 15704 1eac 52       		.byte	0x52
 15705 1ead 9F       		.byte	0x9f
 15706 1eae 00000000 		.4byte	0
ARM GAS  C:\Users\pearlstl\AppData\Local\Temp\ccIJtgHD.s 			page 307


 15707 1eb2 00000000 		.4byte	0
 15708              	.LLST171:
 15709 1eb6 14000000 		.4byte	.LVL446
 15710 1eba 1E000000 		.4byte	.LVL448
 15711 1ebe 0100     		.2byte	0x1
 15712 1ec0 50       		.byte	0x50
 15713 1ec1 00000000 		.4byte	0
 15714 1ec5 00000000 		.4byte	0
 15715              	.LLST172:
 15716 1ec9 1C000000 		.4byte	.LVL447
 15717 1ecd 9A000000 		.4byte	.LVL465
 15718 1ed1 0100     		.2byte	0x1
 15719 1ed3 57       		.byte	0x57
 15720 1ed4 9A000000 		.4byte	.LVL465
 15721 1ed8 9D000000 		.4byte	.LVL466-1
 15722 1edc 0100     		.2byte	0x1
 15723 1ede 50       		.byte	0x50
 15724 1edf 9D000000 		.4byte	.LVL466-1
 15725 1ee3 9E000000 		.4byte	.LVL466
 15726 1ee7 0400     		.2byte	0x4
 15727 1ee9 F3       		.byte	0xf3
 15728 1eea 01       		.uleb128 0x1
 15729 1eeb 50       		.byte	0x50
 15730 1eec 9F       		.byte	0x9f
 15731 1eed 9E000000 		.4byte	.LVL466
 15732 1ef1 A2000000 		.4byte	.LFE37
 15733 1ef5 0100     		.2byte	0x1
 15734 1ef7 57       		.byte	0x57
 15735 1ef8 00000000 		.4byte	0
 15736 1efc 00000000 		.4byte	0
 15737              	.LLST173:
 15738 1f00 1C000000 		.4byte	.LVL447
 15739 1f04 50000000 		.4byte	.LVL455
 15740 1f08 0200     		.2byte	0x2
 15741 1f0a 30       		.byte	0x30
 15742 1f0b 9F       		.byte	0x9f
 15743 1f0c 50000000 		.4byte	.LVL455
 15744 1f10 6E000000 		.4byte	.LVL459
 15745 1f14 0100     		.2byte	0x1
 15746 1f16 56       		.byte	0x56
 15747 1f17 9E000000 		.4byte	.LVL466
 15748 1f1b A2000000 		.4byte	.LFE37
 15749 1f1f 0200     		.2byte	0x2
 15750 1f21 30       		.byte	0x30
 15751 1f22 9F       		.byte	0x9f
 15752 1f23 00000000 		.4byte	0
 15753 1f27 00000000 		.4byte	0
 15754              	.LLST174:
 15755 1f2b 1C000000 		.4byte	.LVL447
 15756 1f2f 38000000 		.4byte	.LVL452
 15757 1f33 0200     		.2byte	0x2
 15758 1f35 30       		.byte	0x30
 15759 1f36 9F       		.byte	0x9f
 15760 1f37 38000000 		.4byte	.LVL452
 15761 1f3b 46000000 		.4byte	.LVL454
 15762 1f3f 0100     		.2byte	0x1
 15763 1f41 51       		.byte	0x51
ARM GAS  C:\Users\pearlstl\AppData\Local\Temp\ccIJtgHD.s 			page 308


 15764 1f42 00000000 		.4byte	0
 15765 1f46 00000000 		.4byte	0
 15766              	.LLST175:
 15767 1f4a 26000000 		.4byte	.LVL450
 15768 1f4e 2A000000 		.4byte	.LVL451
 15769 1f52 0100     		.2byte	0x1
 15770 1f54 50       		.byte	0x50
 15771 1f55 2A000000 		.4byte	.LVL451
 15772 1f59 9A000000 		.4byte	.LVL465
 15773 1f5d 0100     		.2byte	0x1
 15774 1f5f 58       		.byte	0x58
 15775 1f60 9E000000 		.4byte	.LVL466
 15776 1f64 A2000000 		.4byte	.LFE37
 15777 1f68 0100     		.2byte	0x1
 15778 1f6a 58       		.byte	0x58
 15779 1f6b 00000000 		.4byte	0
 15780 1f6f 00000000 		.4byte	0
 15781              	.LLST176:
 15782 1f73 26000000 		.4byte	.LVL450
 15783 1f77 38000000 		.4byte	.LVL452
 15784 1f7b 0200     		.2byte	0x2
 15785 1f7d 30       		.byte	0x30
 15786 1f7e 9F       		.byte	0x9f
 15787 1f7f 46000000 		.4byte	.LVL454
 15788 1f83 50000000 		.4byte	.LVL455
 15789 1f87 0200     		.2byte	0x2
 15790 1f89 30       		.byte	0x30
 15791 1f8a 9F       		.byte	0x9f
 15792 1f8b 50000000 		.4byte	.LVL455
 15793 1f8f 5A000000 		.4byte	.LVL457
 15794 1f93 0100     		.2byte	0x1
 15795 1f95 55       		.byte	0x55
 15796 1f96 6C000000 		.4byte	.LVL458
 15797 1f9a 6E000000 		.4byte	.LVL459
 15798 1f9e 0100     		.2byte	0x1
 15799 1fa0 55       		.byte	0x55
 15800 1fa1 9E000000 		.4byte	.LVL466
 15801 1fa5 A2000000 		.4byte	.LFE37
 15802 1fa9 0200     		.2byte	0x2
 15803 1fab 30       		.byte	0x30
 15804 1fac 9F       		.byte	0x9f
 15805 1fad 00000000 		.4byte	0
 15806 1fb1 00000000 		.4byte	0
 15807              	.LLST177:
 15808 1fb5 76000000 		.4byte	.LVL461
 15809 1fb9 78000000 		.4byte	.LVL462
 15810 1fbd 0100     		.2byte	0x1
 15811 1fbf 50       		.byte	0x50
 15812 1fc0 78000000 		.4byte	.LVL462
 15813 1fc4 80000000 		.4byte	.LVL463
 15814 1fc8 0100     		.2byte	0x1
 15815 1fca 53       		.byte	0x53
 15816 1fcb 00000000 		.4byte	0
 15817 1fcf 00000000 		.4byte	0
 15818              	.LLST178:
 15819 1fd3 00000000 		.4byte	.LVL467
 15820 1fd7 0D000000 		.4byte	.LVL468-1
ARM GAS  C:\Users\pearlstl\AppData\Local\Temp\ccIJtgHD.s 			page 309


 15821 1fdb 0100     		.2byte	0x1
 15822 1fdd 50       		.byte	0x50
 15823 1fde 0D000000 		.4byte	.LVL468-1
 15824 1fe2 5A000000 		.4byte	.LFE38
 15825 1fe6 0400     		.2byte	0x4
 15826 1fe8 F3       		.byte	0xf3
 15827 1fe9 01       		.uleb128 0x1
 15828 1fea 50       		.byte	0x50
 15829 1feb 9F       		.byte	0x9f
 15830 1fec 00000000 		.4byte	0
 15831 1ff0 00000000 		.4byte	0
 15832              	.LLST179:
 15833 1ff4 00000000 		.4byte	.LVL467
 15834 1ff8 0D000000 		.4byte	.LVL468-1
 15835 1ffc 0100     		.2byte	0x1
 15836 1ffe 51       		.byte	0x51
 15837 1fff 0D000000 		.4byte	.LVL468-1
 15838 2003 5A000000 		.4byte	.LFE38
 15839 2007 0400     		.2byte	0x4
 15840 2009 F3       		.byte	0xf3
 15841 200a 01       		.uleb128 0x1
 15842 200b 51       		.byte	0x51
 15843 200c 9F       		.byte	0x9f
 15844 200d 00000000 		.4byte	0
 15845 2011 00000000 		.4byte	0
 15846              	.LLST180:
 15847 2015 00000000 		.4byte	.LVL467
 15848 2019 0D000000 		.4byte	.LVL468-1
 15849 201d 0100     		.2byte	0x1
 15850 201f 52       		.byte	0x52
 15851 2020 0D000000 		.4byte	.LVL468-1
 15852 2024 5A000000 		.4byte	.LFE38
 15853 2028 0400     		.2byte	0x4
 15854 202a F3       		.byte	0xf3
 15855 202b 01       		.uleb128 0x1
 15856 202c 52       		.byte	0x52
 15857 202d 9F       		.byte	0x9f
 15858 202e 00000000 		.4byte	0
 15859 2032 00000000 		.4byte	0
 15860              	.LLST181:
 15861 2036 00000000 		.4byte	.LVL467
 15862 203a 0D000000 		.4byte	.LVL468-1
 15863 203e 0100     		.2byte	0x1
 15864 2040 53       		.byte	0x53
 15865 2041 0D000000 		.4byte	.LVL468-1
 15866 2045 5A000000 		.4byte	.LFE38
 15867 2049 0400     		.2byte	0x4
 15868 204b F3       		.byte	0xf3
 15869 204c 01       		.uleb128 0x1
 15870 204d 53       		.byte	0x53
 15871 204e 9F       		.byte	0x9f
 15872 204f 00000000 		.4byte	0
 15873 2053 00000000 		.4byte	0
 15874              	.LLST182:
 15875 2057 0E000000 		.4byte	.LVL468
 15876 205b 28000000 		.4byte	.LVL471
 15877 205f 0100     		.2byte	0x1
ARM GAS  C:\Users\pearlstl\AppData\Local\Temp\ccIJtgHD.s 			page 310


 15878 2061 50       		.byte	0x50
 15879 2062 28000000 		.4byte	.LVL471
 15880 2066 30000000 		.4byte	.LVL473
 15881 206a 0100     		.2byte	0x1
 15882 206c 55       		.byte	0x55
 15883 206d 34000000 		.4byte	.LVL474
 15884 2071 36000000 		.4byte	.LVL475
 15885 2075 0100     		.2byte	0x1
 15886 2077 50       		.byte	0x50
 15887 2078 36000000 		.4byte	.LVL475
 15888 207c 5A000000 		.4byte	.LFE38
 15889 2080 0100     		.2byte	0x1
 15890 2082 55       		.byte	0x55
 15891 2083 00000000 		.4byte	0
 15892 2087 00000000 		.4byte	0
 15893              	.LLST183:
 15894 208b 1C000000 		.4byte	.LVL469
 15895 208f 20000000 		.4byte	.LVL470
 15896 2093 1500     		.2byte	0x15
 15897 2095 74       		.byte	0x74
 15898 2096 00       		.sleb128 0
 15899 2097 0A       		.byte	0xa
 15900 2098 FFFF     		.2byte	0xffff
 15901 209a 1A       		.byte	0x1a
 15902 209b 72       		.byte	0x72
 15903 209c 00       		.sleb128 0
 15904 209d 0A       		.byte	0xa
 15905 209e FFFF     		.2byte	0xffff
 15906 20a0 1A       		.byte	0x1a
 15907 20a1 1E       		.byte	0x1e
 15908 20a2 76       		.byte	0x76
 15909 20a3 00       		.sleb128 0
 15910 20a4 0A       		.byte	0xa
 15911 20a5 FFFF     		.2byte	0xffff
 15912 20a7 1A       		.byte	0x1a
 15913 20a8 22       		.byte	0x22
 15914 20a9 9F       		.byte	0x9f
 15915 20aa 00000000 		.4byte	0
 15916 20ae 00000000 		.4byte	0
 15917              	.LLST184:
 15918 20b2 2E000000 		.4byte	.LVL472
 15919 20b6 34000000 		.4byte	.LVL474
 15920 20ba 0100     		.2byte	0x1
 15921 20bc 53       		.byte	0x53
 15922 20bd 00000000 		.4byte	0
 15923 20c1 00000000 		.4byte	0
 15924              	.LLST185:
 15925 20c5 00000000 		.4byte	.LVL477
 15926 20c9 0D000000 		.4byte	.LVL478-1
 15927 20cd 0100     		.2byte	0x1
 15928 20cf 50       		.byte	0x50
 15929 20d0 0D000000 		.4byte	.LVL478-1
 15930 20d4 72000000 		.4byte	.LFE39
 15931 20d8 0400     		.2byte	0x4
 15932 20da F3       		.byte	0xf3
 15933 20db 01       		.uleb128 0x1
 15934 20dc 50       		.byte	0x50
ARM GAS  C:\Users\pearlstl\AppData\Local\Temp\ccIJtgHD.s 			page 311


 15935 20dd 9F       		.byte	0x9f
 15936 20de 00000000 		.4byte	0
 15937 20e2 00000000 		.4byte	0
 15938              	.LLST186:
 15939 20e6 00000000 		.4byte	.LVL477
 15940 20ea 0D000000 		.4byte	.LVL478-1
 15941 20ee 0100     		.2byte	0x1
 15942 20f0 51       		.byte	0x51
 15943 20f1 0D000000 		.4byte	.LVL478-1
 15944 20f5 72000000 		.4byte	.LFE39
 15945 20f9 0400     		.2byte	0x4
 15946 20fb F3       		.byte	0xf3
 15947 20fc 01       		.uleb128 0x1
 15948 20fd 51       		.byte	0x51
 15949 20fe 9F       		.byte	0x9f
 15950 20ff 00000000 		.4byte	0
 15951 2103 00000000 		.4byte	0
 15952              	.LLST187:
 15953 2107 00000000 		.4byte	.LVL477
 15954 210b 0D000000 		.4byte	.LVL478-1
 15955 210f 0100     		.2byte	0x1
 15956 2111 52       		.byte	0x52
 15957 2112 0D000000 		.4byte	.LVL478-1
 15958 2116 72000000 		.4byte	.LFE39
 15959 211a 0400     		.2byte	0x4
 15960 211c F3       		.byte	0xf3
 15961 211d 01       		.uleb128 0x1
 15962 211e 52       		.byte	0x52
 15963 211f 9F       		.byte	0x9f
 15964 2120 00000000 		.4byte	0
 15965 2124 00000000 		.4byte	0
 15966              	.LLST188:
 15967 2128 00000000 		.4byte	.LVL477
 15968 212c 0D000000 		.4byte	.LVL478-1
 15969 2130 0100     		.2byte	0x1
 15970 2132 53       		.byte	0x53
 15971 2133 0D000000 		.4byte	.LVL478-1
 15972 2137 32000000 		.4byte	.LVL482
 15973 213b 0400     		.2byte	0x4
 15974 213d F3       		.byte	0xf3
 15975 213e 01       		.uleb128 0x1
 15976 213f 53       		.byte	0x53
 15977 2140 9F       		.byte	0x9f
 15978 2141 32000000 		.4byte	.LVL482
 15979 2145 3A000000 		.4byte	.LVL483
 15980 2149 0100     		.2byte	0x1
 15981 214b 56       		.byte	0x56
 15982 214c 48000000 		.4byte	.LVL485
 15983 2150 72000000 		.4byte	.LFE39
 15984 2154 0400     		.2byte	0x4
 15985 2156 F3       		.byte	0xf3
 15986 2157 01       		.uleb128 0x1
 15987 2158 53       		.byte	0x53
 15988 2159 9F       		.byte	0x9f
 15989 215a 00000000 		.4byte	0
 15990 215e 00000000 		.4byte	0
 15991              	.LLST189:
ARM GAS  C:\Users\pearlstl\AppData\Local\Temp\ccIJtgHD.s 			page 312


 15992 2162 0E000000 		.4byte	.LVL478
 15993 2166 2E000000 		.4byte	.LVL481
 15994 216a 0100     		.2byte	0x1
 15995 216c 50       		.byte	0x50
 15996 216d 2E000000 		.4byte	.LVL481
 15997 2171 48000000 		.4byte	.LVL485
 15998 2175 0100     		.2byte	0x1
 15999 2177 55       		.byte	0x55
 16000 2178 48000000 		.4byte	.LVL485
 16001 217c 4A000000 		.4byte	.LVL486
 16002 2180 0100     		.2byte	0x1
 16003 2182 50       		.byte	0x50
 16004 2183 4A000000 		.4byte	.LVL486
 16005 2187 72000000 		.4byte	.LFE39
 16006 218b 0100     		.2byte	0x1
 16007 218d 55       		.byte	0x55
 16008 218e 00000000 		.4byte	0
 16009 2192 00000000 		.4byte	0
 16010              	.LLST190:
 16011 2196 20000000 		.4byte	.LVL479
 16012 219a 24000000 		.4byte	.LVL480
 16013 219e 1500     		.2byte	0x15
 16014 21a0 74       		.byte	0x74
 16015 21a1 00       		.sleb128 0
 16016 21a2 0A       		.byte	0xa
 16017 21a3 FFFF     		.2byte	0xffff
 16018 21a5 1A       		.byte	0x1a
 16019 21a6 72       		.byte	0x72
 16020 21a7 00       		.sleb128 0
 16021 21a8 0A       		.byte	0xa
 16022 21a9 FFFF     		.2byte	0xffff
 16023 21ab 1A       		.byte	0x1a
 16024 21ac 1E       		.byte	0x1e
 16025 21ad 77       		.byte	0x77
 16026 21ae 00       		.sleb128 0
 16027 21af 0A       		.byte	0xa
 16028 21b0 FFFF     		.2byte	0xffff
 16029 21b2 1A       		.byte	0x1a
 16030 21b3 22       		.byte	0x22
 16031 21b4 9F       		.byte	0x9f
 16032 21b5 00000000 		.4byte	0
 16033 21b9 00000000 		.4byte	0
 16034              	.LLST191:
 16035 21bd 42000000 		.4byte	.LVL484
 16036 21c1 48000000 		.4byte	.LVL485
 16037 21c5 0100     		.2byte	0x1
 16038 21c7 53       		.byte	0x53
 16039 21c8 00000000 		.4byte	0
 16040 21cc 00000000 		.4byte	0
 16041              	.LLST192:
 16042 21d0 00000000 		.4byte	.LVL488
 16043 21d4 0D000000 		.4byte	.LVL489-1
 16044 21d8 0100     		.2byte	0x1
 16045 21da 50       		.byte	0x50
 16046 21db 0D000000 		.4byte	.LVL489-1
 16047 21df 5A000000 		.4byte	.LFE40
 16048 21e3 0400     		.2byte	0x4
ARM GAS  C:\Users\pearlstl\AppData\Local\Temp\ccIJtgHD.s 			page 313


 16049 21e5 F3       		.byte	0xf3
 16050 21e6 01       		.uleb128 0x1
 16051 21e7 50       		.byte	0x50
 16052 21e8 9F       		.byte	0x9f
 16053 21e9 00000000 		.4byte	0
 16054 21ed 00000000 		.4byte	0
 16055              	.LLST193:
 16056 21f1 00000000 		.4byte	.LVL488
 16057 21f5 0D000000 		.4byte	.LVL489-1
 16058 21f9 0100     		.2byte	0x1
 16059 21fb 51       		.byte	0x51
 16060 21fc 0D000000 		.4byte	.LVL489-1
 16061 2200 5A000000 		.4byte	.LFE40
 16062 2204 0400     		.2byte	0x4
 16063 2206 F3       		.byte	0xf3
 16064 2207 01       		.uleb128 0x1
 16065 2208 51       		.byte	0x51
 16066 2209 9F       		.byte	0x9f
 16067 220a 00000000 		.4byte	0
 16068 220e 00000000 		.4byte	0
 16069              	.LLST194:
 16070 2212 00000000 		.4byte	.LVL488
 16071 2216 0D000000 		.4byte	.LVL489-1
 16072 221a 0100     		.2byte	0x1
 16073 221c 52       		.byte	0x52
 16074 221d 0D000000 		.4byte	.LVL489-1
 16075 2221 5A000000 		.4byte	.LFE40
 16076 2225 0400     		.2byte	0x4
 16077 2227 F3       		.byte	0xf3
 16078 2228 01       		.uleb128 0x1
 16079 2229 52       		.byte	0x52
 16080 222a 9F       		.byte	0x9f
 16081 222b 00000000 		.4byte	0
 16082 222f 00000000 		.4byte	0
 16083              	.LLST195:
 16084 2233 00000000 		.4byte	.LVL488
 16085 2237 0D000000 		.4byte	.LVL489-1
 16086 223b 0100     		.2byte	0x1
 16087 223d 53       		.byte	0x53
 16088 223e 0D000000 		.4byte	.LVL489-1
 16089 2242 5A000000 		.4byte	.LFE40
 16090 2246 0400     		.2byte	0x4
 16091 2248 F3       		.byte	0xf3
 16092 2249 01       		.uleb128 0x1
 16093 224a 53       		.byte	0x53
 16094 224b 9F       		.byte	0x9f
 16095 224c 00000000 		.4byte	0
 16096 2250 00000000 		.4byte	0
 16097              	.LLST196:
 16098 2254 0E000000 		.4byte	.LVL489
 16099 2258 28000000 		.4byte	.LVL492
 16100 225c 0100     		.2byte	0x1
 16101 225e 50       		.byte	0x50
 16102 225f 28000000 		.4byte	.LVL492
 16103 2263 30000000 		.4byte	.LVL494
 16104 2267 0100     		.2byte	0x1
 16105 2269 55       		.byte	0x55
ARM GAS  C:\Users\pearlstl\AppData\Local\Temp\ccIJtgHD.s 			page 314


 16106 226a 34000000 		.4byte	.LVL495
 16107 226e 36000000 		.4byte	.LVL496
 16108 2272 0100     		.2byte	0x1
 16109 2274 50       		.byte	0x50
 16110 2275 36000000 		.4byte	.LVL496
 16111 2279 5A000000 		.4byte	.LFE40
 16112 227d 0100     		.2byte	0x1
 16113 227f 55       		.byte	0x55
 16114 2280 00000000 		.4byte	0
 16115 2284 00000000 		.4byte	0
 16116              	.LLST197:
 16117 2288 1C000000 		.4byte	.LVL490
 16118 228c 20000000 		.4byte	.LVL491
 16119 2290 1500     		.2byte	0x15
 16120 2292 74       		.byte	0x74
 16121 2293 00       		.sleb128 0
 16122 2294 0A       		.byte	0xa
 16123 2295 FFFF     		.2byte	0xffff
 16124 2297 1A       		.byte	0x1a
 16125 2298 72       		.byte	0x72
 16126 2299 00       		.sleb128 0
 16127 229a 0A       		.byte	0xa
 16128 229b FFFF     		.2byte	0xffff
 16129 229d 1A       		.byte	0x1a
 16130 229e 1E       		.byte	0x1e
 16131 229f 76       		.byte	0x76
 16132 22a0 00       		.sleb128 0
 16133 22a1 0A       		.byte	0xa
 16134 22a2 FFFF     		.2byte	0xffff
 16135 22a4 1A       		.byte	0x1a
 16136 22a5 22       		.byte	0x22
 16137 22a6 9F       		.byte	0x9f
 16138 22a7 00000000 		.4byte	0
 16139 22ab 00000000 		.4byte	0
 16140              	.LLST198:
 16141 22af 2E000000 		.4byte	.LVL493
 16142 22b3 34000000 		.4byte	.LVL495
 16143 22b7 0100     		.2byte	0x1
 16144 22b9 53       		.byte	0x53
 16145 22ba 00000000 		.4byte	0
 16146 22be 00000000 		.4byte	0
 16147              	.LLST199:
 16148 22c2 00000000 		.4byte	.LVL498
 16149 22c6 11000000 		.4byte	.LVL499-1
 16150 22ca 0100     		.2byte	0x1
 16151 22cc 50       		.byte	0x50
 16152 22cd 11000000 		.4byte	.LVL499-1
 16153 22d1 B8000000 		.4byte	.LVL521
 16154 22d5 0100     		.2byte	0x1
 16155 22d7 57       		.byte	0x57
 16156 22d8 B8000000 		.4byte	.LVL521
 16157 22dc BB000000 		.4byte	.LVL522-1
 16158 22e0 0100     		.2byte	0x1
 16159 22e2 50       		.byte	0x50
 16160 22e3 BB000000 		.4byte	.LVL522-1
 16161 22e7 BC000000 		.4byte	.LVL522
 16162 22eb 0400     		.2byte	0x4
ARM GAS  C:\Users\pearlstl\AppData\Local\Temp\ccIJtgHD.s 			page 315


 16163 22ed F3       		.byte	0xf3
 16164 22ee 01       		.uleb128 0x1
 16165 22ef 50       		.byte	0x50
 16166 22f0 9F       		.byte	0x9f
 16167 22f1 BC000000 		.4byte	.LVL522
 16168 22f5 EC000000 		.4byte	.LFE41
 16169 22f9 0100     		.2byte	0x1
 16170 22fb 57       		.byte	0x57
 16171 22fc 00000000 		.4byte	0
 16172 2300 00000000 		.4byte	0
 16173              	.LLST200:
 16174 2304 00000000 		.4byte	.LVL498
 16175 2308 11000000 		.4byte	.LVL499-1
 16176 230c 0100     		.2byte	0x1
 16177 230e 51       		.byte	0x51
 16178 230f 11000000 		.4byte	.LVL499-1
 16179 2313 EC000000 		.4byte	.LFE41
 16180 2317 0400     		.2byte	0x4
 16181 2319 F3       		.byte	0xf3
 16182 231a 01       		.uleb128 0x1
 16183 231b 51       		.byte	0x51
 16184 231c 9F       		.byte	0x9f
 16185 231d 00000000 		.4byte	0
 16186 2321 00000000 		.4byte	0
 16187              	.LLST201:
 16188 2325 00000000 		.4byte	.LVL498
 16189 2329 11000000 		.4byte	.LVL499-1
 16190 232d 0100     		.2byte	0x1
 16191 232f 52       		.byte	0x52
 16192 2330 11000000 		.4byte	.LVL499-1
 16193 2334 EC000000 		.4byte	.LFE41
 16194 2338 0400     		.2byte	0x4
 16195 233a F3       		.byte	0xf3
 16196 233b 01       		.uleb128 0x1
 16197 233c 52       		.byte	0x52
 16198 233d 9F       		.byte	0x9f
 16199 233e 00000000 		.4byte	0
 16200 2342 00000000 		.4byte	0
 16201              	.LLST202:
 16202 2346 00000000 		.4byte	.LVL498
 16203 234a 11000000 		.4byte	.LVL499-1
 16204 234e 0100     		.2byte	0x1
 16205 2350 53       		.byte	0x53
 16206 2351 11000000 		.4byte	.LVL499-1
 16207 2355 EC000000 		.4byte	.LFE41
 16208 2359 0400     		.2byte	0x4
 16209 235b F3       		.byte	0xf3
 16210 235c 01       		.uleb128 0x1
 16211 235d 53       		.byte	0x53
 16212 235e 9F       		.byte	0x9f
 16213 235f 00000000 		.4byte	0
 16214 2363 00000000 		.4byte	0
 16215              	.LLST203:
 16216 2367 12000000 		.4byte	.LVL499
 16217 236b 2E000000 		.4byte	.LVL502
 16218 236f 0100     		.2byte	0x1
 16219 2371 50       		.byte	0x50
ARM GAS  C:\Users\pearlstl\AppData\Local\Temp\ccIJtgHD.s 			page 316


 16220 2372 2E000000 		.4byte	.LVL502
 16221 2376 6C000000 		.4byte	.LVL511
 16222 237a 0100     		.2byte	0x1
 16223 237c 55       		.byte	0x55
 16224 237d BC000000 		.4byte	.LVL522
 16225 2381 C4000000 		.4byte	.LVL524
 16226 2385 0100     		.2byte	0x1
 16227 2387 50       		.byte	0x50
 16228 2388 C4000000 		.4byte	.LVL524
 16229 238c EC000000 		.4byte	.LFE41
 16230 2390 0100     		.2byte	0x1
 16231 2392 55       		.byte	0x55
 16232 2393 00000000 		.4byte	0
 16233 2397 00000000 		.4byte	0
 16234              	.LLST204:
 16235 239b 20000000 		.4byte	.LVL500
 16236 239f 24000000 		.4byte	.LVL501
 16237 23a3 1500     		.2byte	0x15
 16238 23a5 74       		.byte	0x74
 16239 23a6 00       		.sleb128 0
 16240 23a7 0A       		.byte	0xa
 16241 23a8 FFFF     		.2byte	0xffff
 16242 23aa 1A       		.byte	0x1a
 16243 23ab 72       		.byte	0x72
 16244 23ac 00       		.sleb128 0
 16245 23ad 0A       		.byte	0xa
 16246 23ae FFFF     		.2byte	0xffff
 16247 23b0 1A       		.byte	0x1a
 16248 23b1 1E       		.byte	0x1e
 16249 23b2 76       		.byte	0x76
 16250 23b3 00       		.sleb128 0
 16251 23b4 0A       		.byte	0xa
 16252 23b5 FFFF     		.2byte	0xffff
 16253 23b7 1A       		.byte	0x1a
 16254 23b8 22       		.byte	0x22
 16255 23b9 9F       		.byte	0x9f
 16256 23ba 00000000 		.4byte	0
 16257 23be 00000000 		.4byte	0
 16258              	.LLST205:
 16259 23c2 34000000 		.4byte	.LVL503
 16260 23c6 3B000000 		.4byte	.LVL505-1
 16261 23ca 0100     		.2byte	0x1
 16262 23cc 53       		.byte	0x53
 16263 23cd 00000000 		.4byte	0
 16264 23d1 00000000 		.4byte	0
 16265              	.LLST206:
 16266 23d5 36000000 		.4byte	.LVL504
 16267 23d9 B8000000 		.4byte	.LVL521
 16268 23dd 0100     		.2byte	0x1
 16269 23df 57       		.byte	0x57
 16270 23e0 B8000000 		.4byte	.LVL521
 16271 23e4 BB000000 		.4byte	.LVL522-1
 16272 23e8 0100     		.2byte	0x1
 16273 23ea 50       		.byte	0x50
 16274 23eb BB000000 		.4byte	.LVL522-1
 16275 23ef BC000000 		.4byte	.LVL522
 16276 23f3 0400     		.2byte	0x4
ARM GAS  C:\Users\pearlstl\AppData\Local\Temp\ccIJtgHD.s 			page 317


 16277 23f5 F3       		.byte	0xf3
 16278 23f6 01       		.uleb128 0x1
 16279 23f7 50       		.byte	0x50
 16280 23f8 9F       		.byte	0x9f
 16281 23f9 E8000000 		.4byte	.LVL526
 16282 23fd EC000000 		.4byte	.LFE41
 16283 2401 0100     		.2byte	0x1
 16284 2403 57       		.byte	0x57
 16285 2404 00000000 		.4byte	0
 16286 2408 00000000 		.4byte	0
 16287              	.LLST207:
 16288 240c 36000000 		.4byte	.LVL504
 16289 2410 6C000000 		.4byte	.LVL511
 16290 2414 0200     		.2byte	0x2
 16291 2416 30       		.byte	0x30
 16292 2417 9F       		.byte	0x9f
 16293 2418 6C000000 		.4byte	.LVL511
 16294 241c 8A000000 		.4byte	.LVL515
 16295 2420 0100     		.2byte	0x1
 16296 2422 56       		.byte	0x56
 16297 2423 E8000000 		.4byte	.LVL526
 16298 2427 EC000000 		.4byte	.LFE41
 16299 242b 0200     		.2byte	0x2
 16300 242d 30       		.byte	0x30
 16301 242e 9F       		.byte	0x9f
 16302 242f 00000000 		.4byte	0
 16303 2433 00000000 		.4byte	0
 16304              	.LLST208:
 16305 2437 36000000 		.4byte	.LVL504
 16306 243b 52000000 		.4byte	.LVL508
 16307 243f 0200     		.2byte	0x2
 16308 2441 30       		.byte	0x30
 16309 2442 9F       		.byte	0x9f
 16310 2443 52000000 		.4byte	.LVL508
 16311 2447 60000000 		.4byte	.LVL510
 16312 244b 0100     		.2byte	0x1
 16313 244d 51       		.byte	0x51
 16314 244e 00000000 		.4byte	0
 16315 2452 00000000 		.4byte	0
 16316              	.LLST209:
 16317 2456 40000000 		.4byte	.LVL506
 16318 245a 44000000 		.4byte	.LVL507
 16319 245e 0100     		.2byte	0x1
 16320 2460 50       		.byte	0x50
 16321 2461 44000000 		.4byte	.LVL507
 16322 2465 B8000000 		.4byte	.LVL521
 16323 2469 0100     		.2byte	0x1
 16324 246b 58       		.byte	0x58
 16325 246c E8000000 		.4byte	.LVL526
 16326 2470 EC000000 		.4byte	.LFE41
 16327 2474 0100     		.2byte	0x1
 16328 2476 58       		.byte	0x58
 16329 2477 00000000 		.4byte	0
 16330 247b 00000000 		.4byte	0
 16331              	.LLST210:
 16332 247f 40000000 		.4byte	.LVL506
 16333 2483 52000000 		.4byte	.LVL508
ARM GAS  C:\Users\pearlstl\AppData\Local\Temp\ccIJtgHD.s 			page 318


 16334 2487 0200     		.2byte	0x2
 16335 2489 30       		.byte	0x30
 16336 248a 9F       		.byte	0x9f
 16337 248b 60000000 		.4byte	.LVL510
 16338 248f 6C000000 		.4byte	.LVL511
 16339 2493 0200     		.2byte	0x2
 16340 2495 30       		.byte	0x30
 16341 2496 9F       		.byte	0x9f
 16342 2497 6C000000 		.4byte	.LVL511
 16343 249b 76000000 		.4byte	.LVL513
 16344 249f 0100     		.2byte	0x1
 16345 24a1 55       		.byte	0x55
 16346 24a2 88000000 		.4byte	.LVL514
 16347 24a6 8A000000 		.4byte	.LVL515
 16348 24aa 0100     		.2byte	0x1
 16349 24ac 55       		.byte	0x55
 16350 24ad E8000000 		.4byte	.LVL526
 16351 24b1 EC000000 		.4byte	.LFE41
 16352 24b5 0200     		.2byte	0x2
 16353 24b7 30       		.byte	0x30
 16354 24b8 9F       		.byte	0x9f
 16355 24b9 00000000 		.4byte	0
 16356 24bd 00000000 		.4byte	0
 16357              	.LLST211:
 16358 24c1 92000000 		.4byte	.LVL517
 16359 24c5 94000000 		.4byte	.LVL518
 16360 24c9 0100     		.2byte	0x1
 16361 24cb 50       		.byte	0x50
 16362 24cc 94000000 		.4byte	.LVL518
 16363 24d0 9C000000 		.4byte	.LVL519
 16364 24d4 0100     		.2byte	0x1
 16365 24d6 53       		.byte	0x53
 16366 24d7 00000000 		.4byte	0
 16367 24db 00000000 		.4byte	0
 16368              	.LLST212:
 16369 24df 00000000 		.4byte	.LVL527
 16370 24e3 0D000000 		.4byte	.LVL528-1
 16371 24e7 0100     		.2byte	0x1
 16372 24e9 50       		.byte	0x50
 16373 24ea 0D000000 		.4byte	.LVL528-1
 16374 24ee A2000000 		.4byte	.LVL547
 16375 24f2 0100     		.2byte	0x1
 16376 24f4 54       		.byte	0x54
 16377 24f5 A2000000 		.4byte	.LVL547
 16378 24f9 A5000000 		.4byte	.LVL548-1
 16379 24fd 0100     		.2byte	0x1
 16380 24ff 50       		.byte	0x50
 16381 2500 A5000000 		.4byte	.LVL548-1
 16382 2504 A6000000 		.4byte	.LVL548
 16383 2508 0400     		.2byte	0x4
 16384 250a F3       		.byte	0xf3
 16385 250b 01       		.uleb128 0x1
 16386 250c 50       		.byte	0x50
 16387 250d 9F       		.byte	0x9f
 16388 250e A6000000 		.4byte	.LVL548
 16389 2512 14020000 		.4byte	.LFE42
 16390 2516 0100     		.2byte	0x1
ARM GAS  C:\Users\pearlstl\AppData\Local\Temp\ccIJtgHD.s 			page 319


 16391 2518 54       		.byte	0x54
 16392 2519 00000000 		.4byte	0
 16393 251d 00000000 		.4byte	0
 16394              	.LLST213:
 16395 2521 00000000 		.4byte	.LVL527
 16396 2525 0D000000 		.4byte	.LVL528-1
 16397 2529 0100     		.2byte	0x1
 16398 252b 51       		.byte	0x51
 16399 252c 0D000000 		.4byte	.LVL528-1
 16400 2530 14020000 		.4byte	.LFE42
 16401 2534 0400     		.2byte	0x4
 16402 2536 F3       		.byte	0xf3
 16403 2537 01       		.uleb128 0x1
 16404 2538 51       		.byte	0x51
 16405 2539 9F       		.byte	0x9f
 16406 253a 00000000 		.4byte	0
 16407 253e 00000000 		.4byte	0
 16408              	.LLST214:
 16409 2542 00000000 		.4byte	.LVL527
 16410 2546 0D000000 		.4byte	.LVL528-1
 16411 254a 0100     		.2byte	0x1
 16412 254c 52       		.byte	0x52
 16413 254d 0D000000 		.4byte	.LVL528-1
 16414 2551 58000000 		.4byte	.LVL537
 16415 2555 0100     		.2byte	0x1
 16416 2557 56       		.byte	0x56
 16417 2558 58000000 		.4byte	.LVL537
 16418 255c A6000000 		.4byte	.LVL548
 16419 2560 0400     		.2byte	0x4
 16420 2562 F3       		.byte	0xf3
 16421 2563 01       		.uleb128 0x1
 16422 2564 52       		.byte	0x52
 16423 2565 9F       		.byte	0x9f
 16424 2566 A6000000 		.4byte	.LVL548
 16425 256a E6000000 		.4byte	.LVL557
 16426 256e 0100     		.2byte	0x1
 16427 2570 56       		.byte	0x56
 16428 2571 E6000000 		.4byte	.LVL557
 16429 2575 06010000 		.4byte	.LVL561
 16430 2579 0400     		.2byte	0x4
 16431 257b F3       		.byte	0xf3
 16432 257c 01       		.uleb128 0x1
 16433 257d 52       		.byte	0x52
 16434 257e 9F       		.byte	0x9f
 16435 257f 06010000 		.4byte	.LVL561
 16436 2583 3E010000 		.4byte	.LVL570
 16437 2587 0100     		.2byte	0x1
 16438 2589 56       		.byte	0x56
 16439 258a 3E010000 		.4byte	.LVL570
 16440 258e 5E010000 		.4byte	.LVL574
 16441 2592 0400     		.2byte	0x4
 16442 2594 F3       		.byte	0xf3
 16443 2595 01       		.uleb128 0x1
 16444 2596 52       		.byte	0x52
 16445 2597 9F       		.byte	0x9f
 16446 2598 5E010000 		.4byte	.LVL574
 16447 259c 96010000 		.4byte	.LVL583
ARM GAS  C:\Users\pearlstl\AppData\Local\Temp\ccIJtgHD.s 			page 320


 16448 25a0 0100     		.2byte	0x1
 16449 25a2 56       		.byte	0x56
 16450 25a3 96010000 		.4byte	.LVL583
 16451 25a7 B6010000 		.4byte	.LVL587
 16452 25ab 0400     		.2byte	0x4
 16453 25ad F3       		.byte	0xf3
 16454 25ae 01       		.uleb128 0x1
 16455 25af 52       		.byte	0x52
 16456 25b0 9F       		.byte	0x9f
 16457 25b1 B6010000 		.4byte	.LVL587
 16458 25b5 EC010000 		.4byte	.LVL596
 16459 25b9 0100     		.2byte	0x1
 16460 25bb 56       		.byte	0x56
 16461 25bc EC010000 		.4byte	.LVL596
 16462 25c0 0C020000 		.4byte	.LVL600
 16463 25c4 0400     		.2byte	0x4
 16464 25c6 F3       		.byte	0xf3
 16465 25c7 01       		.uleb128 0x1
 16466 25c8 52       		.byte	0x52
 16467 25c9 9F       		.byte	0x9f
 16468 25ca 0C020000 		.4byte	.LVL600
 16469 25ce 14020000 		.4byte	.LFE42
 16470 25d2 0100     		.2byte	0x1
 16471 25d4 56       		.byte	0x56
 16472 25d5 00000000 		.4byte	0
 16473 25d9 00000000 		.4byte	0
 16474              	.LLST215:
 16475 25dd 0E000000 		.4byte	.LVL528
 16476 25e1 22000000 		.4byte	.LVL530
 16477 25e5 0100     		.2byte	0x1
 16478 25e7 50       		.byte	0x50
 16479 25e8 A6000000 		.4byte	.LVL548
 16480 25ec AA000000 		.4byte	.LVL549
 16481 25f0 0100     		.2byte	0x1
 16482 25f2 50       		.byte	0x50
 16483 25f3 06010000 		.4byte	.LVL561
 16484 25f7 0A010000 		.4byte	.LVL563
 16485 25fb 0100     		.2byte	0x1
 16486 25fd 50       		.byte	0x50
 16487 25fe 5E010000 		.4byte	.LVL574
 16488 2602 62010000 		.4byte	.LVL576
 16489 2606 0100     		.2byte	0x1
 16490 2608 50       		.byte	0x50
 16491 2609 B6010000 		.4byte	.LVL587
 16492 260d BA010000 		.4byte	.LVL589
 16493 2611 0100     		.2byte	0x1
 16494 2613 50       		.byte	0x50
 16495 2614 0C020000 		.4byte	.LVL600
 16496 2618 10020000 		.4byte	.LVL601
 16497 261c 0100     		.2byte	0x1
 16498 261e 50       		.byte	0x50
 16499 261f 00000000 		.4byte	0
 16500 2623 00000000 		.4byte	0
 16501              	.LLST216:
 16502 2627 20000000 		.4byte	.LVL529
 16503 262b 76000000 		.4byte	.LVL541
 16504 262f 0100     		.2byte	0x1
ARM GAS  C:\Users\pearlstl\AppData\Local\Temp\ccIJtgHD.s 			page 321


 16505 2631 54       		.byte	0x54
 16506 2632 00000000 		.4byte	0
 16507 2636 00000000 		.4byte	0
 16508              	.LLST217:
 16509 263a 20000000 		.4byte	.LVL529
 16510 263e 58000000 		.4byte	.LVL537
 16511 2642 0200     		.2byte	0x2
 16512 2644 30       		.byte	0x30
 16513 2645 9F       		.byte	0x9f
 16514 2646 58000000 		.4byte	.LVL537
 16515 264a 76000000 		.4byte	.LVL541
 16516 264e 0100     		.2byte	0x1
 16517 2650 57       		.byte	0x57
 16518 2651 00000000 		.4byte	0
 16519 2655 00000000 		.4byte	0
 16520              	.LLST218:
 16521 2659 20000000 		.4byte	.LVL529
 16522 265d 3C000000 		.4byte	.LVL534
 16523 2661 0200     		.2byte	0x2
 16524 2663 30       		.byte	0x30
 16525 2664 9F       		.byte	0x9f
 16526 2665 3C000000 		.4byte	.LVL534
 16527 2669 4A000000 		.4byte	.LVL536
 16528 266d 0100     		.2byte	0x1
 16529 266f 51       		.byte	0x51
 16530 2670 00000000 		.4byte	0
 16531 2674 00000000 		.4byte	0
 16532              	.LLST219:
 16533 2678 2A000000 		.4byte	.LVL532
 16534 267c 2E000000 		.4byte	.LVL533
 16535 2680 0100     		.2byte	0x1
 16536 2682 50       		.byte	0x50
 16537 2683 2E000000 		.4byte	.LVL533
 16538 2687 76000000 		.4byte	.LVL541
 16539 268b 0100     		.2byte	0x1
 16540 268d 58       		.byte	0x58
 16541 268e 00000000 		.4byte	0
 16542 2692 00000000 		.4byte	0
 16543              	.LLST220:
 16544 2696 2A000000 		.4byte	.LVL532
 16545 269a 3C000000 		.4byte	.LVL534
 16546 269e 0200     		.2byte	0x2
 16547 26a0 30       		.byte	0x30
 16548 26a1 9F       		.byte	0x9f
 16549 26a2 4A000000 		.4byte	.LVL536
 16550 26a6 58000000 		.4byte	.LVL537
 16551 26aa 0200     		.2byte	0x2
 16552 26ac 30       		.byte	0x30
 16553 26ad 9F       		.byte	0x9f
 16554 26ae 58000000 		.4byte	.LVL537
 16555 26b2 62000000 		.4byte	.LVL539
 16556 26b6 0100     		.2byte	0x1
 16557 26b8 56       		.byte	0x56
 16558 26b9 74000000 		.4byte	.LVL540
 16559 26bd 76000000 		.4byte	.LVL541
 16560 26c1 0100     		.2byte	0x1
 16561 26c3 56       		.byte	0x56
ARM GAS  C:\Users\pearlstl\AppData\Local\Temp\ccIJtgHD.s 			page 322


 16562 26c4 00000000 		.4byte	0
 16563 26c8 00000000 		.4byte	0
 16564              	.LLST221:
 16565 26cc 7E000000 		.4byte	.LVL543
 16566 26d0 80000000 		.4byte	.LVL544
 16567 26d4 0100     		.2byte	0x1
 16568 26d6 50       		.byte	0x50
 16569 26d7 80000000 		.4byte	.LVL544
 16570 26db 88000000 		.4byte	.LVL545
 16571 26df 0100     		.2byte	0x1
 16572 26e1 53       		.byte	0x53
 16573 26e2 00000000 		.4byte	0
 16574 26e6 00000000 		.4byte	0
 16575              	.LLST222:
 16576 26ea A6000000 		.4byte	.LVL548
 16577 26ee 06010000 		.4byte	.LVL561
 16578 26f2 0200     		.2byte	0x2
 16579 26f4 30       		.byte	0x30
 16580 26f5 9F       		.byte	0x9f
 16581 26f6 00000000 		.4byte	0
 16582 26fa 00000000 		.4byte	0
 16583              	.LLST223:
 16584 26fe A6000000 		.4byte	.LVL548
 16585 2702 E6000000 		.4byte	.LVL557
 16586 2706 0100     		.2byte	0x1
 16587 2708 56       		.byte	0x56
 16588 2709 E6000000 		.4byte	.LVL557
 16589 270d 06010000 		.4byte	.LVL561
 16590 2711 0400     		.2byte	0x4
 16591 2713 F3       		.byte	0xf3
 16592 2714 01       		.uleb128 0x1
 16593 2715 52       		.byte	0x52
 16594 2716 9F       		.byte	0x9f
 16595 2717 00000000 		.4byte	0
 16596 271b 00000000 		.4byte	0
 16597              	.LLST224:
 16598 271f A6000000 		.4byte	.LVL548
 16599 2723 06010000 		.4byte	.LVL561
 16600 2727 0100     		.2byte	0x1
 16601 2729 54       		.byte	0x54
 16602 272a 00000000 		.4byte	0
 16603 272e 00000000 		.4byte	0
 16604              	.LLST225:
 16605 2732 AE000000 		.4byte	.LVL550
 16606 2736 06010000 		.4byte	.LVL561
 16607 273a 0100     		.2byte	0x1
 16608 273c 54       		.byte	0x54
 16609 273d 00000000 		.4byte	0
 16610 2741 00000000 		.4byte	0
 16611              	.LLST226:
 16612 2745 AE000000 		.4byte	.LVL550
 16613 2749 E6000000 		.4byte	.LVL557
 16614 274d 0200     		.2byte	0x2
 16615 274f 30       		.byte	0x30
 16616 2750 9F       		.byte	0x9f
 16617 2751 E6000000 		.4byte	.LVL557
 16618 2755 06010000 		.4byte	.LVL561
ARM GAS  C:\Users\pearlstl\AppData\Local\Temp\ccIJtgHD.s 			page 323


 16619 2759 0100     		.2byte	0x1
 16620 275b 57       		.byte	0x57
 16621 275c 00000000 		.4byte	0
 16622 2760 00000000 		.4byte	0
 16623              	.LLST227:
 16624 2764 AE000000 		.4byte	.LVL550
 16625 2768 CA000000 		.4byte	.LVL554
 16626 276c 0200     		.2byte	0x2
 16627 276e 30       		.byte	0x30
 16628 276f 9F       		.byte	0x9f
 16629 2770 CA000000 		.4byte	.LVL554
 16630 2774 D8000000 		.4byte	.LVL556
 16631 2778 0100     		.2byte	0x1
 16632 277a 51       		.byte	0x51
 16633 277b 00000000 		.4byte	0
 16634 277f 00000000 		.4byte	0
 16635              	.LLST228:
 16636 2783 B8000000 		.4byte	.LVL552
 16637 2787 BC000000 		.4byte	.LVL553
 16638 278b 0100     		.2byte	0x1
 16639 278d 50       		.byte	0x50
 16640 278e BC000000 		.4byte	.LVL553
 16641 2792 06010000 		.4byte	.LVL561
 16642 2796 0100     		.2byte	0x1
 16643 2798 58       		.byte	0x58
 16644 2799 00000000 		.4byte	0
 16645 279d 00000000 		.4byte	0
 16646              	.LLST229:
 16647 27a1 B8000000 		.4byte	.LVL552
 16648 27a5 CA000000 		.4byte	.LVL554
 16649 27a9 0200     		.2byte	0x2
 16650 27ab 30       		.byte	0x30
 16651 27ac 9F       		.byte	0x9f
 16652 27ad D8000000 		.4byte	.LVL556
 16653 27b1 E6000000 		.4byte	.LVL557
 16654 27b5 0200     		.2byte	0x2
 16655 27b7 30       		.byte	0x30
 16656 27b8 9F       		.byte	0x9f
 16657 27b9 E6000000 		.4byte	.LVL557
 16658 27bd F0000000 		.4byte	.LVL559
 16659 27c1 0100     		.2byte	0x1
 16660 27c3 56       		.byte	0x56
 16661 27c4 02010000 		.4byte	.LVL560
 16662 27c8 06010000 		.4byte	.LVL561
 16663 27cc 0100     		.2byte	0x1
 16664 27ce 56       		.byte	0x56
 16665 27cf 00000000 		.4byte	0
 16666 27d3 00000000 		.4byte	0
 16667              	.LLST230:
 16668 27d7 08010000 		.4byte	.LVL562
 16669 27db 5E010000 		.4byte	.LVL574
 16670 27df 0100     		.2byte	0x1
 16671 27e1 54       		.byte	0x54
 16672 27e2 00000000 		.4byte	0
 16673 27e6 00000000 		.4byte	0
 16674              	.LLST231:
 16675 27ea 08010000 		.4byte	.LVL562
ARM GAS  C:\Users\pearlstl\AppData\Local\Temp\ccIJtgHD.s 			page 324


 16676 27ee 3E010000 		.4byte	.LVL570
 16677 27f2 0200     		.2byte	0x2
 16678 27f4 30       		.byte	0x30
 16679 27f5 9F       		.byte	0x9f
 16680 27f6 3E010000 		.4byte	.LVL570
 16681 27fa 5E010000 		.4byte	.LVL574
 16682 27fe 0100     		.2byte	0x1
 16683 2800 57       		.byte	0x57
 16684 2801 00000000 		.4byte	0
 16685 2805 00000000 		.4byte	0
 16686              	.LLST232:
 16687 2809 08010000 		.4byte	.LVL562
 16688 280d 24010000 		.4byte	.LVL567
 16689 2811 0200     		.2byte	0x2
 16690 2813 30       		.byte	0x30
 16691 2814 9F       		.byte	0x9f
 16692 2815 24010000 		.4byte	.LVL567
 16693 2819 32010000 		.4byte	.LVL569
 16694 281d 0100     		.2byte	0x1
 16695 281f 51       		.byte	0x51
 16696 2820 00000000 		.4byte	0
 16697 2824 00000000 		.4byte	0
 16698              	.LLST233:
 16699 2828 12010000 		.4byte	.LVL565
 16700 282c 16010000 		.4byte	.LVL566
 16701 2830 0100     		.2byte	0x1
 16702 2832 50       		.byte	0x50
 16703 2833 16010000 		.4byte	.LVL566
 16704 2837 5E010000 		.4byte	.LVL574
 16705 283b 0100     		.2byte	0x1
 16706 283d 58       		.byte	0x58
 16707 283e 00000000 		.4byte	0
 16708 2842 00000000 		.4byte	0
 16709              	.LLST234:
 16710 2846 12010000 		.4byte	.LVL565
 16711 284a 24010000 		.4byte	.LVL567
 16712 284e 0200     		.2byte	0x2
 16713 2850 30       		.byte	0x30
 16714 2851 9F       		.byte	0x9f
 16715 2852 32010000 		.4byte	.LVL569
 16716 2856 3E010000 		.4byte	.LVL570
 16717 285a 0200     		.2byte	0x2
 16718 285c 30       		.byte	0x30
 16719 285d 9F       		.byte	0x9f
 16720 285e 3E010000 		.4byte	.LVL570
 16721 2862 48010000 		.4byte	.LVL572
 16722 2866 0100     		.2byte	0x1
 16723 2868 56       		.byte	0x56
 16724 2869 5A010000 		.4byte	.LVL573
 16725 286d 5E010000 		.4byte	.LVL574
 16726 2871 0100     		.2byte	0x1
 16727 2873 56       		.byte	0x56
 16728 2874 00000000 		.4byte	0
 16729 2878 00000000 		.4byte	0
 16730              	.LLST235:
 16731 287c 60010000 		.4byte	.LVL575
 16732 2880 B6010000 		.4byte	.LVL587
ARM GAS  C:\Users\pearlstl\AppData\Local\Temp\ccIJtgHD.s 			page 325


 16733 2884 0100     		.2byte	0x1
 16734 2886 54       		.byte	0x54
 16735 2887 00000000 		.4byte	0
 16736 288b 00000000 		.4byte	0
 16737              	.LLST236:
 16738 288f 60010000 		.4byte	.LVL575
 16739 2893 96010000 		.4byte	.LVL583
 16740 2897 0200     		.2byte	0x2
 16741 2899 30       		.byte	0x30
 16742 289a 9F       		.byte	0x9f
 16743 289b 96010000 		.4byte	.LVL583
 16744 289f B6010000 		.4byte	.LVL587
 16745 28a3 0100     		.2byte	0x1
 16746 28a5 57       		.byte	0x57
 16747 28a6 00000000 		.4byte	0
 16748 28aa 00000000 		.4byte	0
 16749              	.LLST237:
 16750 28ae 60010000 		.4byte	.LVL575
 16751 28b2 7C010000 		.4byte	.LVL580
 16752 28b6 0200     		.2byte	0x2
 16753 28b8 30       		.byte	0x30
 16754 28b9 9F       		.byte	0x9f
 16755 28ba 7C010000 		.4byte	.LVL580
 16756 28be 8A010000 		.4byte	.LVL582
 16757 28c2 0100     		.2byte	0x1
 16758 28c4 51       		.byte	0x51
 16759 28c5 00000000 		.4byte	0
 16760 28c9 00000000 		.4byte	0
 16761              	.LLST238:
 16762 28cd 6A010000 		.4byte	.LVL578
 16763 28d1 6E010000 		.4byte	.LVL579
 16764 28d5 0100     		.2byte	0x1
 16765 28d7 50       		.byte	0x50
 16766 28d8 6E010000 		.4byte	.LVL579
 16767 28dc B6010000 		.4byte	.LVL587
 16768 28e0 0100     		.2byte	0x1
 16769 28e2 58       		.byte	0x58
 16770 28e3 00000000 		.4byte	0
 16771 28e7 00000000 		.4byte	0
 16772              	.LLST239:
 16773 28eb 6A010000 		.4byte	.LVL578
 16774 28ef 7C010000 		.4byte	.LVL580
 16775 28f3 0200     		.2byte	0x2
 16776 28f5 30       		.byte	0x30
 16777 28f6 9F       		.byte	0x9f
 16778 28f7 8A010000 		.4byte	.LVL582
 16779 28fb 96010000 		.4byte	.LVL583
 16780 28ff 0200     		.2byte	0x2
 16781 2901 30       		.byte	0x30
 16782 2902 9F       		.byte	0x9f
 16783 2903 96010000 		.4byte	.LVL583
 16784 2907 A0010000 		.4byte	.LVL585
 16785 290b 0100     		.2byte	0x1
 16786 290d 56       		.byte	0x56
 16787 290e B2010000 		.4byte	.LVL586
 16788 2912 B6010000 		.4byte	.LVL587
 16789 2916 0100     		.2byte	0x1
ARM GAS  C:\Users\pearlstl\AppData\Local\Temp\ccIJtgHD.s 			page 326


 16790 2918 56       		.byte	0x56
 16791 2919 00000000 		.4byte	0
 16792 291d 00000000 		.4byte	0
 16793              	.LLST240:
 16794 2921 B8010000 		.4byte	.LVL588
 16795 2925 0C020000 		.4byte	.LVL600
 16796 2929 0100     		.2byte	0x1
 16797 292b 54       		.byte	0x54
 16798 292c 00000000 		.4byte	0
 16799 2930 00000000 		.4byte	0
 16800              	.LLST241:
 16801 2934 B8010000 		.4byte	.LVL588
 16802 2938 EC010000 		.4byte	.LVL596
 16803 293c 0200     		.2byte	0x2
 16804 293e 30       		.byte	0x30
 16805 293f 9F       		.byte	0x9f
 16806 2940 EC010000 		.4byte	.LVL596
 16807 2944 0C020000 		.4byte	.LVL600
 16808 2948 0100     		.2byte	0x1
 16809 294a 57       		.byte	0x57
 16810 294b 00000000 		.4byte	0
 16811 294f 00000000 		.4byte	0
 16812              	.LLST242:
 16813 2953 B8010000 		.4byte	.LVL588
 16814 2957 D4010000 		.4byte	.LVL593
 16815 295b 0200     		.2byte	0x2
 16816 295d 30       		.byte	0x30
 16817 295e 9F       		.byte	0x9f
 16818 295f D4010000 		.4byte	.LVL593
 16819 2963 E2010000 		.4byte	.LVL595
 16820 2967 0100     		.2byte	0x1
 16821 2969 51       		.byte	0x51
 16822 296a 00000000 		.4byte	0
 16823 296e 00000000 		.4byte	0
 16824              	.LLST243:
 16825 2972 C2010000 		.4byte	.LVL591
 16826 2976 C6010000 		.4byte	.LVL592
 16827 297a 0100     		.2byte	0x1
 16828 297c 50       		.byte	0x50
 16829 297d C6010000 		.4byte	.LVL592
 16830 2981 0C020000 		.4byte	.LVL600
 16831 2985 0100     		.2byte	0x1
 16832 2987 58       		.byte	0x58
 16833 2988 00000000 		.4byte	0
 16834 298c 00000000 		.4byte	0
 16835              	.LLST244:
 16836 2990 C2010000 		.4byte	.LVL591
 16837 2994 D4010000 		.4byte	.LVL593
 16838 2998 0200     		.2byte	0x2
 16839 299a 30       		.byte	0x30
 16840 299b 9F       		.byte	0x9f
 16841 299c E2010000 		.4byte	.LVL595
 16842 29a0 EC010000 		.4byte	.LVL596
 16843 29a4 0200     		.2byte	0x2
 16844 29a6 30       		.byte	0x30
 16845 29a7 9F       		.byte	0x9f
 16846 29a8 EC010000 		.4byte	.LVL596
ARM GAS  C:\Users\pearlstl\AppData\Local\Temp\ccIJtgHD.s 			page 327


 16847 29ac F6010000 		.4byte	.LVL598
 16848 29b0 0100     		.2byte	0x1
 16849 29b2 56       		.byte	0x56
 16850 29b3 08020000 		.4byte	.LVL599
 16851 29b7 0C020000 		.4byte	.LVL600
 16852 29bb 0100     		.2byte	0x1
 16853 29bd 56       		.byte	0x56
 16854 29be 00000000 		.4byte	0
 16855 29c2 00000000 		.4byte	0
 16856              	.LLST245:
 16857 29c6 00000000 		.4byte	.LVL602
 16858 29ca 09000000 		.4byte	.LVL603-1
 16859 29ce 0100     		.2byte	0x1
 16860 29d0 50       		.byte	0x50
 16861 29d1 09000000 		.4byte	.LVL603-1
 16862 29d5 30000000 		.4byte	.LFE43
 16863 29d9 0400     		.2byte	0x4
 16864 29db F3       		.byte	0xf3
 16865 29dc 01       		.uleb128 0x1
 16866 29dd 50       		.byte	0x50
 16867 29de 9F       		.byte	0x9f
 16868 29df 00000000 		.4byte	0
 16869 29e3 00000000 		.4byte	0
 16870              	.LLST246:
 16871 29e7 00000000 		.4byte	.LVL602
 16872 29eb 09000000 		.4byte	.LVL603-1
 16873 29ef 0100     		.2byte	0x1
 16874 29f1 51       		.byte	0x51
 16875 29f2 09000000 		.4byte	.LVL603-1
 16876 29f6 30000000 		.4byte	.LFE43
 16877 29fa 0400     		.2byte	0x4
 16878 29fc F3       		.byte	0xf3
 16879 29fd 01       		.uleb128 0x1
 16880 29fe 51       		.byte	0x51
 16881 29ff 9F       		.byte	0x9f
 16882 2a00 00000000 		.4byte	0
 16883 2a04 00000000 		.4byte	0
 16884              	.LLST247:
 16885 2a08 00000000 		.4byte	.LVL602
 16886 2a0c 09000000 		.4byte	.LVL603-1
 16887 2a10 0100     		.2byte	0x1
 16888 2a12 52       		.byte	0x52
 16889 2a13 09000000 		.4byte	.LVL603-1
 16890 2a17 30000000 		.4byte	.LFE43
 16891 2a1b 0400     		.2byte	0x4
 16892 2a1d F3       		.byte	0xf3
 16893 2a1e 01       		.uleb128 0x1
 16894 2a1f 52       		.byte	0x52
 16895 2a20 9F       		.byte	0x9f
 16896 2a21 00000000 		.4byte	0
 16897 2a25 00000000 		.4byte	0
 16898              	.LLST248:
 16899 2a29 0A000000 		.4byte	.LVL603
 16900 2a2d 20000000 		.4byte	.LVL606
 16901 2a31 0100     		.2byte	0x1
 16902 2a33 50       		.byte	0x50
 16903 2a34 00000000 		.4byte	0
ARM GAS  C:\Users\pearlstl\AppData\Local\Temp\ccIJtgHD.s 			page 328


 16904 2a38 00000000 		.4byte	0
 16905              	.LLST249:
 16906 2a3c 16000000 		.4byte	.LVL604
 16907 2a40 1A000000 		.4byte	.LVL605
 16908 2a44 1500     		.2byte	0x15
 16909 2a46 74       		.byte	0x74
 16910 2a47 00       		.sleb128 0
 16911 2a48 0A       		.byte	0xa
 16912 2a49 FFFF     		.2byte	0xffff
 16913 2a4b 1A       		.byte	0x1a
 16914 2a4c 72       		.byte	0x72
 16915 2a4d 00       		.sleb128 0
 16916 2a4e 0A       		.byte	0xa
 16917 2a4f FFFF     		.2byte	0xffff
 16918 2a51 1A       		.byte	0x1a
 16919 2a52 1E       		.byte	0x1e
 16920 2a53 75       		.byte	0x75
 16921 2a54 00       		.sleb128 0
 16922 2a55 0A       		.byte	0xa
 16923 2a56 FFFF     		.2byte	0xffff
 16924 2a58 1A       		.byte	0x1a
 16925 2a59 22       		.byte	0x22
 16926 2a5a 9F       		.byte	0x9f
 16927 2a5b 00000000 		.4byte	0
 16928 2a5f 00000000 		.4byte	0
 16929              	.LLST250:
 16930 2a63 00000000 		.4byte	.LVL607
 16931 2a67 05000000 		.4byte	.LVL608-1
 16932 2a6b 0100     		.2byte	0x1
 16933 2a6d 50       		.byte	0x50
 16934 2a6e 05000000 		.4byte	.LVL608-1
 16935 2a72 0A000000 		.4byte	.LFE44
 16936 2a76 0400     		.2byte	0x4
 16937 2a78 F3       		.byte	0xf3
 16938 2a79 01       		.uleb128 0x1
 16939 2a7a 50       		.byte	0x50
 16940 2a7b 9F       		.byte	0x9f
 16941 2a7c 00000000 		.4byte	0
 16942 2a80 00000000 		.4byte	0
 16943              	.LLST251:
 16944 2a84 06000000 		.4byte	.LVL608
 16945 2a88 08000000 		.4byte	.LVL609
 16946 2a8c 0100     		.2byte	0x1
 16947 2a8e 50       		.byte	0x50
 16948 2a8f 00000000 		.4byte	0
 16949 2a93 00000000 		.4byte	0
 16950              	.LLST252:
 16951 2a97 00000000 		.4byte	.LVL610
 16952 2a9b 05000000 		.4byte	.LVL611-1
 16953 2a9f 0100     		.2byte	0x1
 16954 2aa1 50       		.byte	0x50
 16955 2aa2 05000000 		.4byte	.LVL611-1
 16956 2aa6 0A000000 		.4byte	.LFE45
 16957 2aaa 0400     		.2byte	0x4
 16958 2aac F3       		.byte	0xf3
 16959 2aad 01       		.uleb128 0x1
 16960 2aae 50       		.byte	0x50
ARM GAS  C:\Users\pearlstl\AppData\Local\Temp\ccIJtgHD.s 			page 329


 16961 2aaf 9F       		.byte	0x9f
 16962 2ab0 00000000 		.4byte	0
 16963 2ab4 00000000 		.4byte	0
 16964              	.LLST253:
 16965 2ab8 06000000 		.4byte	.LVL611
 16966 2abc 08000000 		.4byte	.LVL612
 16967 2ac0 0100     		.2byte	0x1
 16968 2ac2 50       		.byte	0x50
 16969 2ac3 00000000 		.4byte	0
 16970 2ac7 00000000 		.4byte	0
 16971              	.LLST254:
 16972 2acb 00000000 		.4byte	.LVL613
 16973 2acf 06000000 		.4byte	.LVL614
 16974 2ad3 0100     		.2byte	0x1
 16975 2ad5 50       		.byte	0x50
 16976 2ad6 06000000 		.4byte	.LVL614
 16977 2ada 08000000 		.4byte	.LVL615
 16978 2ade 0400     		.2byte	0x4
 16979 2ae0 F3       		.byte	0xf3
 16980 2ae1 01       		.uleb128 0x1
 16981 2ae2 50       		.byte	0x50
 16982 2ae3 9F       		.byte	0x9f
 16983 2ae4 08000000 		.4byte	.LVL615
 16984 2ae8 0F000000 		.4byte	.LVL616-1
 16985 2aec 0100     		.2byte	0x1
 16986 2aee 50       		.byte	0x50
 16987 2aef 0F000000 		.4byte	.LVL616-1
 16988 2af3 1A000000 		.4byte	.LFE46
 16989 2af7 0400     		.2byte	0x4
 16990 2af9 F3       		.byte	0xf3
 16991 2afa 01       		.uleb128 0x1
 16992 2afb 50       		.byte	0x50
 16993 2afc 9F       		.byte	0x9f
 16994 2afd 00000000 		.4byte	0
 16995 2b01 00000000 		.4byte	0
 16996              	.LLST255:
 16997 2b05 00000000 		.4byte	.LVL613
 16998 2b09 0F000000 		.4byte	.LVL616-1
 16999 2b0d 0100     		.2byte	0x1
 17000 2b0f 51       		.byte	0x51
 17001 2b10 0F000000 		.4byte	.LVL616-1
 17002 2b14 1A000000 		.4byte	.LFE46
 17003 2b18 0400     		.2byte	0x4
 17004 2b1a F3       		.byte	0xf3
 17005 2b1b 01       		.uleb128 0x1
 17006 2b1c 51       		.byte	0x51
 17007 2b1d 9F       		.byte	0x9f
 17008 2b1e 00000000 		.4byte	0
 17009 2b22 00000000 		.4byte	0
 17010              	.LLST256:
 17011 2b26 10000000 		.4byte	.LVL616
 17012 2b2a 18000000 		.4byte	.LVL617
 17013 2b2e 0100     		.2byte	0x1
 17014 2b30 50       		.byte	0x50
 17015 2b31 00000000 		.4byte	0
 17016 2b35 00000000 		.4byte	0
 17017              	.LLST257:
ARM GAS  C:\Users\pearlstl\AppData\Local\Temp\ccIJtgHD.s 			page 330


 17018 2b39 00000000 		.4byte	.LVL618
 17019 2b3d 09000000 		.4byte	.LVL619-1
 17020 2b41 0100     		.2byte	0x1
 17021 2b43 50       		.byte	0x50
 17022 2b44 09000000 		.4byte	.LVL619-1
 17023 2b48 2E000000 		.4byte	.LFE47
 17024 2b4c 0400     		.2byte	0x4
 17025 2b4e F3       		.byte	0xf3
 17026 2b4f 01       		.uleb128 0x1
 17027 2b50 50       		.byte	0x50
 17028 2b51 9F       		.byte	0x9f
 17029 2b52 00000000 		.4byte	0
 17030 2b56 00000000 		.4byte	0
 17031              	.LLST258:
 17032 2b5a 00000000 		.4byte	.LVL618
 17033 2b5e 09000000 		.4byte	.LVL619-1
 17034 2b62 0100     		.2byte	0x1
 17035 2b64 51       		.byte	0x51
 17036 2b65 09000000 		.4byte	.LVL619-1
 17037 2b69 2E000000 		.4byte	.LFE47
 17038 2b6d 0400     		.2byte	0x4
 17039 2b6f F3       		.byte	0xf3
 17040 2b70 01       		.uleb128 0x1
 17041 2b71 51       		.byte	0x51
 17042 2b72 9F       		.byte	0x9f
 17043 2b73 00000000 		.4byte	0
 17044 2b77 00000000 		.4byte	0
 17045              	.LLST259:
 17046 2b7b 00000000 		.4byte	.LVL618
 17047 2b7f 09000000 		.4byte	.LVL619-1
 17048 2b83 0100     		.2byte	0x1
 17049 2b85 52       		.byte	0x52
 17050 2b86 09000000 		.4byte	.LVL619-1
 17051 2b8a 2E000000 		.4byte	.LFE47
 17052 2b8e 0400     		.2byte	0x4
 17053 2b90 F3       		.byte	0xf3
 17054 2b91 01       		.uleb128 0x1
 17055 2b92 52       		.byte	0x52
 17056 2b93 9F       		.byte	0x9f
 17057 2b94 00000000 		.4byte	0
 17058 2b98 00000000 		.4byte	0
 17059              	.LLST260:
 17060 2b9c 0A000000 		.4byte	.LVL619
 17061 2ba0 20000000 		.4byte	.LVL622
 17062 2ba4 0100     		.2byte	0x1
 17063 2ba6 50       		.byte	0x50
 17064 2ba7 2A000000 		.4byte	.LVL623
 17065 2bab 2C000000 		.4byte	.LVL624
 17066 2baf 0100     		.2byte	0x1
 17067 2bb1 50       		.byte	0x50
 17068 2bb2 00000000 		.4byte	0
 17069 2bb6 00000000 		.4byte	0
 17070              	.LLST261:
 17071 2bba 16000000 		.4byte	.LVL620
 17072 2bbe 1A000000 		.4byte	.LVL621
 17073 2bc2 1500     		.2byte	0x15
 17074 2bc4 74       		.byte	0x74
ARM GAS  C:\Users\pearlstl\AppData\Local\Temp\ccIJtgHD.s 			page 331


 17075 2bc5 00       		.sleb128 0
 17076 2bc6 0A       		.byte	0xa
 17077 2bc7 FFFF     		.2byte	0xffff
 17078 2bc9 1A       		.byte	0x1a
 17079 2bca 72       		.byte	0x72
 17080 2bcb 00       		.sleb128 0
 17081 2bcc 0A       		.byte	0xa
 17082 2bcd FFFF     		.2byte	0xffff
 17083 2bcf 1A       		.byte	0x1a
 17084 2bd0 1E       		.byte	0x1e
 17085 2bd1 75       		.byte	0x75
 17086 2bd2 00       		.sleb128 0
 17087 2bd3 0A       		.byte	0xa
 17088 2bd4 FFFF     		.2byte	0xffff
 17089 2bd6 1A       		.byte	0x1a
 17090 2bd7 22       		.byte	0x22
 17091 2bd8 9F       		.byte	0x9f
 17092 2bd9 00000000 		.4byte	0
 17093 2bdd 00000000 		.4byte	0
 17094              	.LLST262:
 17095 2be1 00000000 		.4byte	.LVL625
 17096 2be5 09000000 		.4byte	.LVL626-1
 17097 2be9 0100     		.2byte	0x1
 17098 2beb 50       		.byte	0x50
 17099 2bec 09000000 		.4byte	.LVL626-1
 17100 2bf0 30000000 		.4byte	.LFE48
 17101 2bf4 0400     		.2byte	0x4
 17102 2bf6 F3       		.byte	0xf3
 17103 2bf7 01       		.uleb128 0x1
 17104 2bf8 50       		.byte	0x50
 17105 2bf9 9F       		.byte	0x9f
 17106 2bfa 00000000 		.4byte	0
 17107 2bfe 00000000 		.4byte	0
 17108              	.LLST263:
 17109 2c02 00000000 		.4byte	.LVL625
 17110 2c06 09000000 		.4byte	.LVL626-1
 17111 2c0a 0100     		.2byte	0x1
 17112 2c0c 51       		.byte	0x51
 17113 2c0d 09000000 		.4byte	.LVL626-1
 17114 2c11 30000000 		.4byte	.LFE48
 17115 2c15 0400     		.2byte	0x4
 17116 2c17 F3       		.byte	0xf3
 17117 2c18 01       		.uleb128 0x1
 17118 2c19 51       		.byte	0x51
 17119 2c1a 9F       		.byte	0x9f
 17120 2c1b 00000000 		.4byte	0
 17121 2c1f 00000000 		.4byte	0
 17122              	.LLST264:
 17123 2c23 00000000 		.4byte	.LVL625
 17124 2c27 09000000 		.4byte	.LVL626-1
 17125 2c2b 0100     		.2byte	0x1
 17126 2c2d 52       		.byte	0x52
 17127 2c2e 09000000 		.4byte	.LVL626-1
 17128 2c32 30000000 		.4byte	.LFE48
 17129 2c36 0400     		.2byte	0x4
 17130 2c38 F3       		.byte	0xf3
 17131 2c39 01       		.uleb128 0x1
ARM GAS  C:\Users\pearlstl\AppData\Local\Temp\ccIJtgHD.s 			page 332


 17132 2c3a 52       		.byte	0x52
 17133 2c3b 9F       		.byte	0x9f
 17134 2c3c 00000000 		.4byte	0
 17135 2c40 00000000 		.4byte	0
 17136              	.LLST265:
 17137 2c44 0A000000 		.4byte	.LVL626
 17138 2c48 24000000 		.4byte	.LVL629
 17139 2c4c 0100     		.2byte	0x1
 17140 2c4e 50       		.byte	0x50
 17141 2c4f 2C000000 		.4byte	.LVL630
 17142 2c53 2E000000 		.4byte	.LVL631
 17143 2c57 0100     		.2byte	0x1
 17144 2c59 50       		.byte	0x50
 17145 2c5a 00000000 		.4byte	0
 17146 2c5e 00000000 		.4byte	0
 17147              	.LLST266:
 17148 2c62 16000000 		.4byte	.LVL627
 17149 2c66 1A000000 		.4byte	.LVL628
 17150 2c6a 1500     		.2byte	0x15
 17151 2c6c 74       		.byte	0x74
 17152 2c6d 00       		.sleb128 0
 17153 2c6e 0A       		.byte	0xa
 17154 2c6f FFFF     		.2byte	0xffff
 17155 2c71 1A       		.byte	0x1a
 17156 2c72 72       		.byte	0x72
 17157 2c73 00       		.sleb128 0
 17158 2c74 0A       		.byte	0xa
 17159 2c75 FFFF     		.2byte	0xffff
 17160 2c77 1A       		.byte	0x1a
 17161 2c78 1E       		.byte	0x1e
 17162 2c79 75       		.byte	0x75
 17163 2c7a 00       		.sleb128 0
 17164 2c7b 0A       		.byte	0xa
 17165 2c7c FFFF     		.2byte	0xffff
 17166 2c7e 1A       		.byte	0x1a
 17167 2c7f 22       		.byte	0x22
 17168 2c80 9F       		.byte	0x9f
 17169 2c81 00000000 		.4byte	0
 17170 2c85 00000000 		.4byte	0
 17171              	.LLST267:
 17172 2c89 00000000 		.4byte	.LVL632
 17173 2c8d 09000000 		.4byte	.LVL633-1
 17174 2c91 0100     		.2byte	0x1
 17175 2c93 50       		.byte	0x50
 17176 2c94 09000000 		.4byte	.LVL633-1
 17177 2c98 2E000000 		.4byte	.LFE49
 17178 2c9c 0400     		.2byte	0x4
 17179 2c9e F3       		.byte	0xf3
 17180 2c9f 01       		.uleb128 0x1
 17181 2ca0 50       		.byte	0x50
 17182 2ca1 9F       		.byte	0x9f
 17183 2ca2 00000000 		.4byte	0
 17184 2ca6 00000000 		.4byte	0
 17185              	.LLST268:
 17186 2caa 00000000 		.4byte	.LVL632
 17187 2cae 09000000 		.4byte	.LVL633-1
 17188 2cb2 0100     		.2byte	0x1
ARM GAS  C:\Users\pearlstl\AppData\Local\Temp\ccIJtgHD.s 			page 333


 17189 2cb4 51       		.byte	0x51
 17190 2cb5 09000000 		.4byte	.LVL633-1
 17191 2cb9 2E000000 		.4byte	.LFE49
 17192 2cbd 0400     		.2byte	0x4
 17193 2cbf F3       		.byte	0xf3
 17194 2cc0 01       		.uleb128 0x1
 17195 2cc1 51       		.byte	0x51
 17196 2cc2 9F       		.byte	0x9f
 17197 2cc3 00000000 		.4byte	0
 17198 2cc7 00000000 		.4byte	0
 17199              	.LLST269:
 17200 2ccb 00000000 		.4byte	.LVL632
 17201 2ccf 09000000 		.4byte	.LVL633-1
 17202 2cd3 0100     		.2byte	0x1
 17203 2cd5 52       		.byte	0x52
 17204 2cd6 09000000 		.4byte	.LVL633-1
 17205 2cda 2E000000 		.4byte	.LFE49
 17206 2cde 0400     		.2byte	0x4
 17207 2ce0 F3       		.byte	0xf3
 17208 2ce1 01       		.uleb128 0x1
 17209 2ce2 52       		.byte	0x52
 17210 2ce3 9F       		.byte	0x9f
 17211 2ce4 00000000 		.4byte	0
 17212 2ce8 00000000 		.4byte	0
 17213              	.LLST270:
 17214 2cec 0A000000 		.4byte	.LVL633
 17215 2cf0 20000000 		.4byte	.LVL636
 17216 2cf4 0100     		.2byte	0x1
 17217 2cf6 50       		.byte	0x50
 17218 2cf7 2A000000 		.4byte	.LVL637
 17219 2cfb 2C000000 		.4byte	.LVL638
 17220 2cff 0100     		.2byte	0x1
 17221 2d01 50       		.byte	0x50
 17222 2d02 00000000 		.4byte	0
 17223 2d06 00000000 		.4byte	0
 17224              	.LLST271:
 17225 2d0a 16000000 		.4byte	.LVL634
 17226 2d0e 1A000000 		.4byte	.LVL635
 17227 2d12 1500     		.2byte	0x15
 17228 2d14 74       		.byte	0x74
 17229 2d15 00       		.sleb128 0
 17230 2d16 0A       		.byte	0xa
 17231 2d17 FFFF     		.2byte	0xffff
 17232 2d19 1A       		.byte	0x1a
 17233 2d1a 72       		.byte	0x72
 17234 2d1b 00       		.sleb128 0
 17235 2d1c 0A       		.byte	0xa
 17236 2d1d FFFF     		.2byte	0xffff
 17237 2d1f 1A       		.byte	0x1a
 17238 2d20 1E       		.byte	0x1e
 17239 2d21 75       		.byte	0x75
 17240 2d22 00       		.sleb128 0
 17241 2d23 0A       		.byte	0xa
 17242 2d24 FFFF     		.2byte	0xffff
 17243 2d26 1A       		.byte	0x1a
 17244 2d27 22       		.byte	0x22
 17245 2d28 9F       		.byte	0x9f
ARM GAS  C:\Users\pearlstl\AppData\Local\Temp\ccIJtgHD.s 			page 334


 17246 2d29 00000000 		.4byte	0
 17247 2d2d 00000000 		.4byte	0
 17248              	.LLST272:
 17249 2d31 00000000 		.4byte	.LVL639
 17250 2d35 09000000 		.4byte	.LVL640-1
 17251 2d39 0100     		.2byte	0x1
 17252 2d3b 50       		.byte	0x50
 17253 2d3c 09000000 		.4byte	.LVL640-1
 17254 2d40 2E000000 		.4byte	.LFE50
 17255 2d44 0400     		.2byte	0x4
 17256 2d46 F3       		.byte	0xf3
 17257 2d47 01       		.uleb128 0x1
 17258 2d48 50       		.byte	0x50
 17259 2d49 9F       		.byte	0x9f
 17260 2d4a 00000000 		.4byte	0
 17261 2d4e 00000000 		.4byte	0
 17262              	.LLST273:
 17263 2d52 00000000 		.4byte	.LVL639
 17264 2d56 09000000 		.4byte	.LVL640-1
 17265 2d5a 0100     		.2byte	0x1
 17266 2d5c 51       		.byte	0x51
 17267 2d5d 09000000 		.4byte	.LVL640-1
 17268 2d61 2E000000 		.4byte	.LFE50
 17269 2d65 0400     		.2byte	0x4
 17270 2d67 F3       		.byte	0xf3
 17271 2d68 01       		.uleb128 0x1
 17272 2d69 51       		.byte	0x51
 17273 2d6a 9F       		.byte	0x9f
 17274 2d6b 00000000 		.4byte	0
 17275 2d6f 00000000 		.4byte	0
 17276              	.LLST274:
 17277 2d73 00000000 		.4byte	.LVL639
 17278 2d77 09000000 		.4byte	.LVL640-1
 17279 2d7b 0100     		.2byte	0x1
 17280 2d7d 52       		.byte	0x52
 17281 2d7e 09000000 		.4byte	.LVL640-1
 17282 2d82 2E000000 		.4byte	.LFE50
 17283 2d86 0400     		.2byte	0x4
 17284 2d88 F3       		.byte	0xf3
 17285 2d89 01       		.uleb128 0x1
 17286 2d8a 52       		.byte	0x52
 17287 2d8b 9F       		.byte	0x9f
 17288 2d8c 00000000 		.4byte	0
 17289 2d90 00000000 		.4byte	0
 17290              	.LLST275:
 17291 2d94 0A000000 		.4byte	.LVL640
 17292 2d98 20000000 		.4byte	.LVL643
 17293 2d9c 0100     		.2byte	0x1
 17294 2d9e 50       		.byte	0x50
 17295 2d9f 2A000000 		.4byte	.LVL647
 17296 2da3 2C000000 		.4byte	.LVL648
 17297 2da7 0100     		.2byte	0x1
 17298 2da9 50       		.byte	0x50
 17299 2daa 00000000 		.4byte	0
 17300 2dae 00000000 		.4byte	0
 17301              	.LLST276:
 17302 2db2 16000000 		.4byte	.LVL641
ARM GAS  C:\Users\pearlstl\AppData\Local\Temp\ccIJtgHD.s 			page 335


 17303 2db6 1A000000 		.4byte	.LVL642
 17304 2dba 1500     		.2byte	0x15
 17305 2dbc 74       		.byte	0x74
 17306 2dbd 00       		.sleb128 0
 17307 2dbe 0A       		.byte	0xa
 17308 2dbf FFFF     		.2byte	0xffff
 17309 2dc1 1A       		.byte	0x1a
 17310 2dc2 72       		.byte	0x72
 17311 2dc3 00       		.sleb128 0
 17312 2dc4 0A       		.byte	0xa
 17313 2dc5 FFFF     		.2byte	0xffff
 17314 2dc7 1A       		.byte	0x1a
 17315 2dc8 1E       		.byte	0x1e
 17316 2dc9 75       		.byte	0x75
 17317 2dca 00       		.sleb128 0
 17318 2dcb 0A       		.byte	0xa
 17319 2dcc FFFF     		.2byte	0xffff
 17320 2dce 1A       		.byte	0x1a
 17321 2dcf 22       		.byte	0x22
 17322 2dd0 9F       		.byte	0x9f
 17323 2dd1 00000000 		.4byte	0
 17324 2dd5 00000000 		.4byte	0
 17325              	.LLST277:
 17326 2dd9 22000000 		.4byte	.LVL644
 17327 2ddd 24000000 		.4byte	.LVL645
 17328 2de1 0400     		.2byte	0x4
 17329 2de3 70       		.byte	0x70
 17330 2de4 00       		.sleb128 0
 17331 2de5 93       		.byte	0x93
 17332 2de6 01       		.uleb128 0x1
 17333 2de7 24000000 		.4byte	.LVL645
 17334 2deb 28000000 		.4byte	.LVL646
 17335 2def 0100     		.2byte	0x1
 17336 2df1 50       		.byte	0x50
 17337 2df2 00000000 		.4byte	0
 17338 2df6 00000000 		.4byte	0
 17339              	.LLST278:
 17340 2dfa 00000000 		.4byte	.LVL649
 17341 2dfe 09000000 		.4byte	.LVL650-1
 17342 2e02 0100     		.2byte	0x1
 17343 2e04 50       		.byte	0x50
 17344 2e05 09000000 		.4byte	.LVL650-1
 17345 2e09 22000000 		.4byte	.LVL654
 17346 2e0d 0100     		.2byte	0x1
 17347 2e0f 55       		.byte	0x55
 17348 2e10 22000000 		.4byte	.LVL654
 17349 2e14 25000000 		.4byte	.LVL655-1
 17350 2e18 0100     		.2byte	0x1
 17351 2e1a 50       		.byte	0x50
 17352 2e1b 25000000 		.4byte	.LVL655-1
 17353 2e1f 26000000 		.4byte	.LVL655
 17354 2e23 0400     		.2byte	0x4
 17355 2e25 F3       		.byte	0xf3
 17356 2e26 01       		.uleb128 0x1
 17357 2e27 50       		.byte	0x50
 17358 2e28 9F       		.byte	0x9f
 17359 2e29 26000000 		.4byte	.LVL655
ARM GAS  C:\Users\pearlstl\AppData\Local\Temp\ccIJtgHD.s 			page 336


 17360 2e2d 36000000 		.4byte	.LFE51
 17361 2e31 0100     		.2byte	0x1
 17362 2e33 55       		.byte	0x55
 17363 2e34 00000000 		.4byte	0
 17364 2e38 00000000 		.4byte	0
 17365              	.LLST279:
 17366 2e3c 00000000 		.4byte	.LVL649
 17367 2e40 09000000 		.4byte	.LVL650-1
 17368 2e44 0100     		.2byte	0x1
 17369 2e46 51       		.byte	0x51
 17370 2e47 09000000 		.4byte	.LVL650-1
 17371 2e4b 36000000 		.4byte	.LFE51
 17372 2e4f 0400     		.2byte	0x4
 17373 2e51 F3       		.byte	0xf3
 17374 2e52 01       		.uleb128 0x1
 17375 2e53 51       		.byte	0x51
 17376 2e54 9F       		.byte	0x9f
 17377 2e55 00000000 		.4byte	0
 17378 2e59 00000000 		.4byte	0
 17379              	.LLST280:
 17380 2e5d 0A000000 		.4byte	.LVL650
 17381 2e61 1A000000 		.4byte	.LVL651
 17382 2e65 0100     		.2byte	0x1
 17383 2e67 50       		.byte	0x50
 17384 2e68 1C000000 		.4byte	.LVL652
 17385 2e6c 1E000000 		.4byte	.LVL653
 17386 2e70 0100     		.2byte	0x1
 17387 2e72 50       		.byte	0x50
 17388 2e73 26000000 		.4byte	.LVL655
 17389 2e77 28000000 		.4byte	.LVL656
 17390 2e7b 0100     		.2byte	0x1
 17391 2e7d 50       		.byte	0x50
 17392 2e7e 2A000000 		.4byte	.LVL657
 17393 2e82 2C000000 		.4byte	.LVL658
 17394 2e86 0100     		.2byte	0x1
 17395 2e88 50       		.byte	0x50
 17396 2e89 2E000000 		.4byte	.LVL659
 17397 2e8d 30000000 		.4byte	.LVL660
 17398 2e91 0100     		.2byte	0x1
 17399 2e93 50       		.byte	0x50
 17400 2e94 32000000 		.4byte	.LVL661
 17401 2e98 34000000 		.4byte	.LVL662
 17402 2e9c 0100     		.2byte	0x1
 17403 2e9e 50       		.byte	0x50
 17404 2e9f 00000000 		.4byte	0
 17405 2ea3 00000000 		.4byte	0
 17406              	.LLST281:
 17407 2ea7 0A000000 		.4byte	.LVL650
 17408 2eab 1A000000 		.4byte	.LVL651
 17409 2eaf 0200     		.2byte	0x2
 17410 2eb1 30       		.byte	0x30
 17411 2eb2 9F       		.byte	0x9f
 17412 2eb3 1C000000 		.4byte	.LVL652
 17413 2eb7 28000000 		.4byte	.LVL656
 17414 2ebb 0200     		.2byte	0x2
 17415 2ebd 30       		.byte	0x30
 17416 2ebe 9F       		.byte	0x9f
ARM GAS  C:\Users\pearlstl\AppData\Local\Temp\ccIJtgHD.s 			page 337


 17417 2ebf 2A000000 		.4byte	.LVL657
 17418 2ec3 2C000000 		.4byte	.LVL658
 17419 2ec7 0200     		.2byte	0x2
 17420 2ec9 30       		.byte	0x30
 17421 2eca 9F       		.byte	0x9f
 17422 2ecb 2E000000 		.4byte	.LVL659
 17423 2ecf 30000000 		.4byte	.LVL660
 17424 2ed3 0200     		.2byte	0x2
 17425 2ed5 30       		.byte	0x30
 17426 2ed6 9F       		.byte	0x9f
 17427 2ed7 32000000 		.4byte	.LVL661
 17428 2edb 36000000 		.4byte	.LFE51
 17429 2edf 0200     		.2byte	0x2
 17430 2ee1 30       		.byte	0x30
 17431 2ee2 9F       		.byte	0x9f
 17432 2ee3 00000000 		.4byte	0
 17433 2ee7 00000000 		.4byte	0
 17434              		.section	.debug_aranges,"",%progbits
 17435 0000 C4000000 		.4byte	0xc4
 17436 0004 0200     		.2byte	0x2
 17437 0006 00000000 		.4byte	.Ldebug_info0
 17438 000a 04       		.byte	0x4
 17439 000b 00       		.byte	0
 17440 000c 0000     		.2byte	0
 17441 000e 0000     		.2byte	0
 17442 0010 00000000 		.4byte	.LFB55
 17443 0014 32010000 		.4byte	.LFE55-.LFB55
 17444 0018 00000000 		.4byte	.LFB53
 17445 001c 78000000 		.4byte	.LFE53-.LFB53
 17446 0020 00000000 		.4byte	.LFB52
 17447 0024 8E030000 		.4byte	.LFE52-.LFB52
 17448 0028 00000000 		.4byte	.LFB33
 17449 002c 48060000 		.4byte	.LFE33-.LFB33
 17450 0030 00000000 		.4byte	.LFB34
 17451 0034 00010000 		.4byte	.LFE34-.LFB34
 17452 0038 00000000 		.4byte	.LFB35
 17453 003c DC000000 		.4byte	.LFE35-.LFB35
 17454 0040 00000000 		.4byte	.LFB36
 17455 0044 E2000000 		.4byte	.LFE36-.LFB36
 17456 0048 00000000 		.4byte	.LFB37
 17457 004c A2000000 		.4byte	.LFE37-.LFB37
 17458 0050 00000000 		.4byte	.LFB38
 17459 0054 5A000000 		.4byte	.LFE38-.LFB38
 17460 0058 00000000 		.4byte	.LFB39
 17461 005c 72000000 		.4byte	.LFE39-.LFB39
 17462 0060 00000000 		.4byte	.LFB40
 17463 0064 5A000000 		.4byte	.LFE40-.LFB40
 17464 0068 00000000 		.4byte	.LFB41
 17465 006c EC000000 		.4byte	.LFE41-.LFB41
 17466 0070 00000000 		.4byte	.LFB42
 17467 0074 14020000 		.4byte	.LFE42-.LFB42
 17468 0078 00000000 		.4byte	.LFB43
 17469 007c 30000000 		.4byte	.LFE43-.LFB43
 17470 0080 00000000 		.4byte	.LFB44
 17471 0084 0A000000 		.4byte	.LFE44-.LFB44
 17472 0088 00000000 		.4byte	.LFB45
 17473 008c 0A000000 		.4byte	.LFE45-.LFB45
ARM GAS  C:\Users\pearlstl\AppData\Local\Temp\ccIJtgHD.s 			page 338


 17474 0090 00000000 		.4byte	.LFB46
 17475 0094 1A000000 		.4byte	.LFE46-.LFB46
 17476 0098 00000000 		.4byte	.LFB47
 17477 009c 2E000000 		.4byte	.LFE47-.LFB47
 17478 00a0 00000000 		.4byte	.LFB48
 17479 00a4 30000000 		.4byte	.LFE48-.LFB48
 17480 00a8 00000000 		.4byte	.LFB49
 17481 00ac 2E000000 		.4byte	.LFE49-.LFB49
 17482 00b0 00000000 		.4byte	.LFB50
 17483 00b4 2E000000 		.4byte	.LFE50-.LFB50
 17484 00b8 00000000 		.4byte	.LFB51
 17485 00bc 36000000 		.4byte	.LFE51-.LFB51
 17486 00c0 00000000 		.4byte	0
 17487 00c4 00000000 		.4byte	0
 17488              		.section	.debug_ranges,"",%progbits
 17489              	.Ldebug_ranges0:
 17490 0000 42000000 		.4byte	.LBB41
 17491 0004 C0000000 		.4byte	.LBE41
 17492 0008 DC000000 		.4byte	.LBB47
 17493 000c 32010000 		.4byte	.LBE47
 17494 0010 00000000 		.4byte	0
 17495 0014 00000000 		.4byte	0
 17496 0018 52000000 		.4byte	.LBB42
 17497 001c 66000000 		.4byte	.LBE42
 17498 0020 6C000000 		.4byte	.LBB43
 17499 0024 74000000 		.4byte	.LBE43
 17500 0028 76000000 		.4byte	.LBB44
 17501 002c 7A000000 		.4byte	.LBE44
 17502 0030 7C000000 		.4byte	.LBB45
 17503 0034 7E000000 		.4byte	.LBE45
 17504 0038 88000000 		.4byte	.LBB46
 17505 003c 8A000000 		.4byte	.LBE46
 17506 0040 00000000 		.4byte	0
 17507 0044 00000000 		.4byte	0
 17508 0048 1A000000 		.4byte	.LBB48
 17509 004c 1C000000 		.4byte	.LBE48
 17510 0050 1E000000 		.4byte	.LBB49
 17511 0054 64000000 		.4byte	.LBE49
 17512 0058 00000000 		.4byte	0
 17513 005c 00000000 		.4byte	0
 17514 0060 10000000 		.4byte	.LBB59
 17515 0064 12000000 		.4byte	.LBE59
 17516 0068 16000000 		.4byte	.LBB70
 17517 006c F0020000 		.4byte	.LBE70
 17518 0070 F6020000 		.4byte	.LBB71
 17519 0074 86030000 		.4byte	.LBE71
 17520 0078 00000000 		.4byte	0
 17521 007c 00000000 		.4byte	0
 17522 0080 82000000 		.4byte	.LBB61
 17523 0084 C2020000 		.4byte	.LBE61
 17524 0088 CE020000 		.4byte	.LBB65
 17525 008c D0020000 		.4byte	.LBE65
 17526 0090 D2020000 		.4byte	.LBB66
 17527 0094 D6020000 		.4byte	.LBE66
 17528 0098 F6020000 		.4byte	.LBB67
 17529 009c 86030000 		.4byte	.LBE67
 17530 00a0 00000000 		.4byte	0
ARM GAS  C:\Users\pearlstl\AppData\Local\Temp\ccIJtgHD.s 			page 339


 17531 00a4 00000000 		.4byte	0
 17532 00a8 82000000 		.4byte	.LBB62
 17533 00ac 96000000 		.4byte	.LBE62
 17534 00b0 58010000 		.4byte	.LBB63
 17535 00b4 C2020000 		.4byte	.LBE63
 17536 00b8 F6020000 		.4byte	.LBB64
 17537 00bc 6E030000 		.4byte	.LBE64
 17538 00c0 00000000 		.4byte	0
 17539 00c4 00000000 		.4byte	0
 17540 00c8 6C000000 		.4byte	.LBB114
 17541 00cc 44010000 		.4byte	.LBE114
 17542 00d0 48010000 		.4byte	.LBB143
 17543 00d4 F2010000 		.4byte	.LBE143
 17544 00d8 F6010000 		.4byte	.LBB144
 17545 00dc 38020000 		.4byte	.LBE144
 17546 00e0 44050000 		.4byte	.LBB230
 17547 00e4 48050000 		.4byte	.LBE230
 17548 00e8 62050000 		.4byte	.LBB231
 17549 00ec 98050000 		.4byte	.LBE231
 17550 00f0 00000000 		.4byte	0
 17551 00f4 00000000 		.4byte	0
 17552 00f8 74000000 		.4byte	.LBB115
 17553 00fc 76000000 		.4byte	.LBE115
 17554 0100 92000000 		.4byte	.LBB125
 17555 0104 34010000 		.4byte	.LBE125
 17556 0108 F6010000 		.4byte	.LBB140
 17557 010c 38020000 		.4byte	.LBE140
 17558 0110 44050000 		.4byte	.LBB141
 17559 0114 48050000 		.4byte	.LBE141
 17560 0118 00000000 		.4byte	0
 17561 011c 00000000 		.4byte	0
 17562 0120 B2000000 		.4byte	.LBB117
 17563 0124 34010000 		.4byte	.LBE117
 17564 0128 44050000 		.4byte	.LBB121
 17565 012c 48050000 		.4byte	.LBE121
 17566 0130 00000000 		.4byte	0
 17567 0134 00000000 		.4byte	0
 17568 0138 38010000 		.4byte	.LBB126
 17569 013c 3C010000 		.4byte	.LBE126
 17570 0140 48010000 		.4byte	.LBB139
 17571 0144 EA010000 		.4byte	.LBE139
 17572 0148 62050000 		.4byte	.LBB142
 17573 014c 98050000 		.4byte	.LBE142
 17574 0150 00000000 		.4byte	0
 17575 0154 00000000 		.4byte	0
 17576 0158 68010000 		.4byte	.LBB130
 17577 015c EA010000 		.4byte	.LBE130
 17578 0160 94050000 		.4byte	.LBB134
 17579 0164 98050000 		.4byte	.LBE134
 17580 0168 00000000 		.4byte	0
 17581 016c 00000000 		.4byte	0
 17582 0170 38020000 		.4byte	.LBB145
 17583 0174 3E050000 		.4byte	.LBE145
 17584 0178 98050000 		.4byte	.LBB232
 17585 017c 48060000 		.4byte	.LBE232
 17586 0180 00000000 		.4byte	0
 17587 0184 00000000 		.4byte	0
ARM GAS  C:\Users\pearlstl\AppData\Local\Temp\ccIJtgHD.s 			page 340


 17588 0188 48020000 		.4byte	.LBB146
 17589 018c E0020000 		.4byte	.LBE146
 17590 0190 16060000 		.4byte	.LBB221
 17591 0194 1A060000 		.4byte	.LBE221
 17592 0198 26060000 		.4byte	.LBB225
 17593 019c 2A060000 		.4byte	.LBE225
 17594 01a0 00000000 		.4byte	0
 17595 01a4 00000000 		.4byte	0
 17596 01a8 4E020000 		.4byte	.LBB148
 17597 01ac E0020000 		.4byte	.LBE148
 17598 01b0 16060000 		.4byte	.LBB158
 17599 01b4 1A060000 		.4byte	.LBE158
 17600 01b8 26060000 		.4byte	.LBB159
 17601 01bc 2A060000 		.4byte	.LBE159
 17602 01c0 00000000 		.4byte	0
 17603 01c4 00000000 		.4byte	0
 17604 01c8 56020000 		.4byte	.LBB150
 17605 01cc E0020000 		.4byte	.LBE150
 17606 01d0 16060000 		.4byte	.LBB154
 17607 01d4 1A060000 		.4byte	.LBE154
 17608 01d8 26060000 		.4byte	.LBB155
 17609 01dc 2A060000 		.4byte	.LBE155
 17610 01e0 00000000 		.4byte	0
 17611 01e4 00000000 		.4byte	0
 17612 01e8 E0020000 		.4byte	.LBB162
 17613 01ec E2020000 		.4byte	.LBE162
 17614 01f0 E6020000 		.4byte	.LBB173
 17615 01f4 78030000 		.4byte	.LBE173
 17616 01f8 22060000 		.4byte	.LBB224
 17617 01fc 26060000 		.4byte	.LBE224
 17618 0200 36060000 		.4byte	.LBB228
 17619 0204 3A060000 		.4byte	.LBE228
 17620 0208 00000000 		.4byte	0
 17621 020c 00000000 		.4byte	0
 17622 0210 EC020000 		.4byte	.LBB164
 17623 0214 78030000 		.4byte	.LBE164
 17624 0218 22060000 		.4byte	.LBB168
 17625 021c 26060000 		.4byte	.LBE168
 17626 0220 36060000 		.4byte	.LBB169
 17627 0224 3A060000 		.4byte	.LBE169
 17628 0228 00000000 		.4byte	0
 17629 022c 00000000 		.4byte	0
 17630 0230 78030000 		.4byte	.LBB174
 17631 0234 7A030000 		.4byte	.LBE174
 17632 0238 7E030000 		.4byte	.LBB182
 17633 023c 10040000 		.4byte	.LBE182
 17634 0240 2E060000 		.4byte	.LBB227
 17635 0244 36060000 		.4byte	.LBE227
 17636 0248 00000000 		.4byte	0
 17637 024c 00000000 		.4byte	0
 17638 0250 84030000 		.4byte	.LBB176
 17639 0254 10040000 		.4byte	.LBE176
 17640 0258 2E060000 		.4byte	.LBB179
 17641 025c 36060000 		.4byte	.LBE179
 17642 0260 00000000 		.4byte	0
 17643 0264 00000000 		.4byte	0
 17644 0268 10040000 		.4byte	.LBB183
ARM GAS  C:\Users\pearlstl\AppData\Local\Temp\ccIJtgHD.s 			page 341


 17645 026c 12040000 		.4byte	.LBE183
 17646 0270 16040000 		.4byte	.LBB194
 17647 0274 A8040000 		.4byte	.LBE194
 17648 0278 1E060000 		.4byte	.LBB223
 17649 027c 22060000 		.4byte	.LBE223
 17650 0280 2A060000 		.4byte	.LBB226
 17651 0284 2E060000 		.4byte	.LBE226
 17652 0288 00000000 		.4byte	0
 17653 028c 00000000 		.4byte	0
 17654 0290 1C040000 		.4byte	.LBB185
 17655 0294 A8040000 		.4byte	.LBE185
 17656 0298 1E060000 		.4byte	.LBB189
 17657 029c 22060000 		.4byte	.LBE189
 17658 02a0 2A060000 		.4byte	.LBB190
 17659 02a4 2E060000 		.4byte	.LBE190
 17660 02a8 00000000 		.4byte	0
 17661 02ac 00000000 		.4byte	0
 17662 02b0 A8040000 		.4byte	.LBB195
 17663 02b4 AA040000 		.4byte	.LBE195
 17664 02b8 AE040000 		.4byte	.LBB203
 17665 02bc 26050000 		.4byte	.LBE203
 17666 02c0 1A060000 		.4byte	.LBB222
 17667 02c4 1E060000 		.4byte	.LBE222
 17668 02c8 00000000 		.4byte	0
 17669 02cc 00000000 		.4byte	0
 17670 02d0 B4040000 		.4byte	.LBB197
 17671 02d4 26050000 		.4byte	.LBE197
 17672 02d8 1A060000 		.4byte	.LBB200
 17673 02dc 1E060000 		.4byte	.LBE200
 17674 02e0 00000000 		.4byte	0
 17675 02e4 00000000 		.4byte	0
 17676 02e8 26050000 		.4byte	.LBB204
 17677 02ec 36050000 		.4byte	.LBE204
 17678 02f0 98050000 		.4byte	.LBB220
 17679 02f4 16060000 		.4byte	.LBE220
 17680 02f8 3A060000 		.4byte	.LBB229
 17681 02fc 48060000 		.4byte	.LBE229
 17682 0300 00000000 		.4byte	0
 17683 0304 00000000 		.4byte	0
 17684 0308 26050000 		.4byte	.LBB206
 17685 030c 36050000 		.4byte	.LBE206
 17686 0310 9E050000 		.4byte	.LBB216
 17687 0314 16060000 		.4byte	.LBE216
 17688 0318 3A060000 		.4byte	.LBB217
 17689 031c 48060000 		.4byte	.LBE217
 17690 0320 00000000 		.4byte	0
 17691 0324 00000000 		.4byte	0
 17692 0328 26050000 		.4byte	.LBB208
 17693 032c 36050000 		.4byte	.LBE208
 17694 0330 A6050000 		.4byte	.LBB212
 17695 0334 16060000 		.4byte	.LBE212
 17696 0338 3A060000 		.4byte	.LBB213
 17697 033c 48060000 		.4byte	.LBE213
 17698 0340 00000000 		.4byte	0
 17699 0344 00000000 		.4byte	0
 17700 0348 58000000 		.4byte	.LBB235
 17701 034c 5A000000 		.4byte	.LBE235
ARM GAS  C:\Users\pearlstl\AppData\Local\Temp\ccIJtgHD.s 			page 342


 17702 0350 5E000000 		.4byte	.LBB240
 17703 0354 D6000000 		.4byte	.LBE240
 17704 0358 DA000000 		.4byte	.LBB241
 17705 035c E2000000 		.4byte	.LBE241
 17706 0360 FC000000 		.4byte	.LBB242
 17707 0364 00010000 		.4byte	.LBE242
 17708 0368 00000000 		.4byte	0
 17709 036c 00000000 		.4byte	0
 17710 0370 24000000 		.4byte	.LBB246
 17711 0374 A0000000 		.4byte	.LBE246
 17712 0378 A4000000 		.4byte	.LBB250
 17713 037c A8000000 		.4byte	.LBE250
 17714 0380 D8000000 		.4byte	.LBB252
 17715 0384 DC000000 		.4byte	.LBE252
 17716 0388 00000000 		.4byte	0
 17717 038c 00000000 		.4byte	0
 17718 0390 0E000000 		.4byte	.LBB258
 17719 0394 A6000000 		.4byte	.LBE258
 17720 0398 AA000000 		.4byte	.LBB268
 17721 039c E2000000 		.4byte	.LBE268
 17722 03a0 00000000 		.4byte	0
 17723 03a4 00000000 		.4byte	0
 17724 03a8 2A000000 		.4byte	.LBB260
 17725 03ac A6000000 		.4byte	.LBE260
 17726 03b0 AA000000 		.4byte	.LBB264
 17727 03b4 AE000000 		.4byte	.LBE264
 17728 03b8 DE000000 		.4byte	.LBB266
 17729 03bc E2000000 		.4byte	.LBE266
 17730 03c0 00000000 		.4byte	0
 17731 03c4 00000000 		.4byte	0
 17732 03c8 1C000000 		.4byte	.LBB271
 17733 03cc 96000000 		.4byte	.LBE271
 17734 03d0 9A000000 		.4byte	.LBB274
 17735 03d4 A2000000 		.4byte	.LBE274
 17736 03d8 00000000 		.4byte	0
 17737 03dc 00000000 		.4byte	0
 17738 03e0 36000000 		.4byte	.LBB277
 17739 03e4 B2000000 		.4byte	.LBE277
 17740 03e8 B8000000 		.4byte	.LBB281
 17741 03ec BC000000 		.4byte	.LBE281
 17742 03f0 E8000000 		.4byte	.LBB282
 17743 03f4 EC000000 		.4byte	.LBE282
 17744 03f8 00000000 		.4byte	0
 17745 03fc 00000000 		.4byte	0
 17746 0400 20000000 		.4byte	.LBB295
 17747 0404 9E000000 		.4byte	.LBE295
 17748 0408 A2000000 		.4byte	.LBB299
 17749 040c A6000000 		.4byte	.LBE299
 17750 0410 10020000 		.4byte	.LBB310
 17751 0414 14020000 		.4byte	.LBE310
 17752 0418 00000000 		.4byte	0
 17753 041c 00000000 		.4byte	0
 17754 0420 00000000 		.4byte	.LFB55
 17755 0424 32010000 		.4byte	.LFE55
 17756 0428 00000000 		.4byte	.LFB53
 17757 042c 78000000 		.4byte	.LFE53
 17758 0430 00000000 		.4byte	.LFB52
ARM GAS  C:\Users\pearlstl\AppData\Local\Temp\ccIJtgHD.s 			page 343


 17759 0434 8E030000 		.4byte	.LFE52
 17760 0438 00000000 		.4byte	.LFB33
 17761 043c 48060000 		.4byte	.LFE33
 17762 0440 00000000 		.4byte	.LFB34
 17763 0444 00010000 		.4byte	.LFE34
 17764 0448 00000000 		.4byte	.LFB35
 17765 044c DC000000 		.4byte	.LFE35
 17766 0450 00000000 		.4byte	.LFB36
 17767 0454 E2000000 		.4byte	.LFE36
 17768 0458 00000000 		.4byte	.LFB37
 17769 045c A2000000 		.4byte	.LFE37
 17770 0460 00000000 		.4byte	.LFB38
 17771 0464 5A000000 		.4byte	.LFE38
 17772 0468 00000000 		.4byte	.LFB39
 17773 046c 72000000 		.4byte	.LFE39
 17774 0470 00000000 		.4byte	.LFB40
 17775 0474 5A000000 		.4byte	.LFE40
 17776 0478 00000000 		.4byte	.LFB41
 17777 047c EC000000 		.4byte	.LFE41
 17778 0480 00000000 		.4byte	.LFB42
 17779 0484 14020000 		.4byte	.LFE42
 17780 0488 00000000 		.4byte	.LFB43
 17781 048c 30000000 		.4byte	.LFE43
 17782 0490 00000000 		.4byte	.LFB44
 17783 0494 0A000000 		.4byte	.LFE44
 17784 0498 00000000 		.4byte	.LFB45
 17785 049c 0A000000 		.4byte	.LFE45
 17786 04a0 00000000 		.4byte	.LFB46
 17787 04a4 1A000000 		.4byte	.LFE46
 17788 04a8 00000000 		.4byte	.LFB47
 17789 04ac 2E000000 		.4byte	.LFE47
 17790 04b0 00000000 		.4byte	.LFB48
 17791 04b4 30000000 		.4byte	.LFE48
 17792 04b8 00000000 		.4byte	.LFB49
 17793 04bc 2E000000 		.4byte	.LFE49
 17794 04c0 00000000 		.4byte	.LFB50
 17795 04c4 2E000000 		.4byte	.LFE50
 17796 04c8 00000000 		.4byte	.LFB51
 17797 04cc 36000000 		.4byte	.LFE51
 17798 04d0 00000000 		.4byte	0
 17799 04d4 00000000 		.4byte	0
 17800              		.section	.debug_line,"",%progbits
 17801              	.Ldebug_line0:
 17802 0000 FB0A0000 		.section	.debug_str,"MS",%progbits,1
 17802      02004B04 
 17802      00000201 
 17802      FB0E0D00 
 17802      01010101 
 17803              	.LASF14:
 17804 0000 696E7438 		.ascii	"int8_t\000"
 17804      5F7400
 17805              	.LASF76:
 17806 0007 6C765F6C 		.ascii	"lv_ll_node_t\000"
 17806      6C5F6E6F 
 17806      64655F74 
 17806      00
 17807              	.LASF21:
ARM GAS  C:\Users\pearlstl\AppData\Local\Temp\ccIJtgHD.s 			page 344


 17808 0014 6164765F 		.ascii	"adv_w\000"
 17808      7700
 17809              	.LASF183:
 17810 001a 68656164 		.ascii	"header_pr\000"
 17810      65725F70 
 17810      7200
 17811              	.LASF40:
 17812 0024 73697A65 		.ascii	"sizetype\000"
 17812      74797065 
 17812      00
 17813              	.LASF37:
 17814 002d 6C765F63 		.ascii	"lv_color32_t\000"
 17814      6F6C6F72 
 17814      33325F74 
 17814      00
 17815              	.LASF193:
 17816 003a 63656C6C 		.ascii	"cell\000"
 17816      00
 17817              	.LASF79:
 17818 003f 7461696C 		.ascii	"tail\000"
 17818      00
 17819              	.LASF217:
 17820 0044 6C765F66 		.ascii	"lv_font_get_line_height\000"
 17820      6F6E745F 
 17820      6765745F 
 17820      6C696E65 
 17820      5F686569 
 17821              	.LASF116:
 17822 005c 4C565F53 		.ascii	"LV_SIGNAL_STYLE_CHG\000"
 17822      49474E41 
 17822      4C5F5354 
 17822      594C455F 
 17822      43484700 
 17823              	.LASF275:
 17824 0070 6C765F6D 		.ascii	"lv_mem_free\000"
 17824      656D5F66 
 17824      72656500 
 17825              	.LASF39:
 17826 007c 6C765F6F 		.ascii	"lv_opa_t\000"
 17826      70615F74 
 17826      00
 17827              	.LASF155:
 17828 0085 72696768 		.ascii	"right_merge\000"
 17828      745F6D65 
 17828      72676500 
 17829              	.LASF64:
 17830 0091 696E7465 		.ascii	"intense\000"
 17830      6E736500 
 17831              	.LASF42:
 17832 0099 6C765F70 		.ascii	"lv_point_t\000"
 17832      6F696E74 
 17832      5F7400
 17833              	.LASF200:
 17834 00a4 6C6D6574 		.ascii	"lmeter\000"
 17834      657200
 17835              	.LASF153:
 17836 00ab 4C565F4C 		.ascii	"LV_LABEL_ALIGN_AUTO\000"
ARM GAS  C:\Users\pearlstl\AppData\Local\Temp\ccIJtgHD.s 			page 345


 17836      4142454C 
 17836      5F414C49 
 17836      474E5F41 
 17836      55544F00 
 17837              	.LASF124:
 17838 00bf 4C565F53 		.ascii	"LV_SIGNAL_LONG_PRESS\000"
 17838      49474E41 
 17838      4C5F4C4F 
 17838      4E475F50 
 17838      52455353 
 17839              	.LASF56:
 17840 00d4 72616469 		.ascii	"radius\000"
 17840      757300
 17841              	.LASF141:
 17842 00db 6C765F72 		.ascii	"lv_reailgn_t\000"
 17842      6561696C 
 17842      676E5F74 
 17842      00
 17843              	.LASF29:
 17844 00e8 6C696E65 		.ascii	"line_height\000"
 17844      5F686569 
 17844      67687400 
 17845              	.LASF91:
 17846 00f4 636C6963 		.ascii	"click\000"
 17846      6B00
 17847              	.LASF134:
 17848 00fa 6C765F61 		.ascii	"lv_align_t\000"
 17848      6C69676E 
 17848      5F7400
 17849              	.LASF126:
 17850 0105 4C565F53 		.ascii	"LV_SIGNAL_DRAG_BEGIN\000"
 17850      49474E41 
 17850      4C5F4452 
 17850      41475F42 
 17850      4547494E 
 17851              	.LASF239:
 17852 011a 726F775F 		.ascii	"row_id\000"
 17852      696400
 17853              	.LASF185:
 17854 0121 68696768 		.ascii	"highlighted_days\000"
 17854      6C696768 
 17854      7465645F 
 17854      64617973 
 17854      00
 17855              	.LASF162:
 17856 0132 63656C6C 		.ascii	"cell_style\000"
 17856      5F737479 
 17856      6C6500
 17857              	.LASF294:
 17858 013d 6C765F6F 		.ascii	"lv_obj_set_signal_cb\000"
 17858      626A5F73 
 17858      65745F73 
 17858      69676E61 
 17858      6C5F6362 
 17859              	.LASF245:
 17860 0152 7369676E 		.ascii	"sign\000"
 17860      00
ARM GAS  C:\Users\pearlstl\AppData\Local\Temp\ccIJtgHD.s 			page 346


 17861              	.LASF110:
 17862 0157 6C765F65 		.ascii	"lv_event_t\000"
 17862      76656E74 
 17862      5F7400
 17863              	.LASF73:
 17864 0162 4C565F52 		.ascii	"LV_RES_INV\000"
 17864      45535F49 
 17864      4E5600
 17865              	.LASF240:
 17866 016d 7478745F 		.ascii	"txt_w\000"
 17866      7700
 17867              	.LASF120:
 17868 0173 4C565F53 		.ascii	"LV_SIGNAL_PRESSED\000"
 17868      49474E41 
 17868      4C5F5052 
 17868      45535345 
 17868      4400
 17869              	.LASF49:
 17870 0185 74797065 		.ascii	"type\000"
 17870      00
 17871              	.LASF247:
 17872 018a 6C765F74 		.ascii	"lv_table_set_row_cnt\000"
 17872      61626C65 
 17872      5F736574 
 17872      5F726F77 
 17872      5F636E74 
 17873              	.LASF255:
 17874 019f 6C765F74 		.ascii	"lv_table_set_cell_align\000"
 17874      61626C65 
 17874      5F736574 
 17874      5F63656C 
 17874      6C5F616C 
 17875              	.LASF175:
 17876 01b7 6C696768 		.ascii	"light\000"
 17876      7400
 17877              	.LASF196:
 17878 01bd 636F6E74 		.ascii	"cont\000"
 17878      00
 17879              	.LASF301:
 17880 01c2 474E5520 		.ascii	"GNU C11 5.4.1 20160609 (release) [ARM/embedded-5-br"
 17880      43313120 
 17880      352E342E 
 17880      31203230 
 17880      31363036 
 17881 01f5 616E6368 		.ascii	"anch revision 237715] -mcpu=cortex-m4 -mfloat-abi=s"
 17881      20726576 
 17881      6973696F 
 17881      6E203233 
 17881      37373135 
 17882 0228 6F667466 		.ascii	"oftfp -mfpu=fpv4-sp-d16 -mthumb -g -O3 -ffunction-s"
 17882      70202D6D 
 17882      6670753D 
 17882      66707634 
 17882      2D73702D 
 17883 025b 65637469 		.ascii	"ections -ffat-lto-objects\000"
 17883      6F6E7320 
 17883      2D666661 
ARM GAS  C:\Users\pearlstl\AppData\Local\Temp\ccIJtgHD.s 			page 347


 17883      742D6C74 
 17883      6F2D6F62 
 17884              	.LASF173:
 17885 0275 7072696D 		.ascii	"prim\000"
 17885      00
 17886              	.LASF203:
 17887 027a 63686172 		.ascii	"chart\000"
 17887      7400
 17888              	.LASF151:
 17889 0280 4C565F4C 		.ascii	"LV_LABEL_ALIGN_CENTER\000"
 17889      4142454C 
 17889      5F414C49 
 17889      474E5F43 
 17889      454E5445 
 17890              	.LASF225:
 17891 0296 685F726F 		.ascii	"h_row\000"
 17891      7700
 17892              	.LASF1:
 17893 029c 5F5F7569 		.ascii	"__uint8_t\000"
 17893      6E74385F 
 17893      7400
 17894              	.LASF35:
 17895 02a6 616C7068 		.ascii	"alpha\000"
 17895      6100
 17896              	.LASF95:
 17897 02ac 68696464 		.ascii	"hidden\000"
 17897      656E00
 17898              	.LASF8:
 17899 02b3 6C6F6E67 		.ascii	"long int\000"
 17899      20696E74 
 17899      00
 17900              	.LASF273:
 17901 02bc 6C765F74 		.ascii	"lv_txt_get_size\000"
 17901      78745F67 
 17901      65745F73 
 17901      697A6500 
 17902              	.LASF234:
 17903 02cc 6F6C645F 		.ascii	"old_col_cnt\000"
 17903      636F6C5F 
 17903      636E7400 
 17904              	.LASF227:
 17905 02d8 63656C6C 		.ascii	"cell_area\000"
 17905      5F617265 
 17905      6100
 17906              	.LASF235:
 17907 02e2 6F6C645F 		.ascii	"old_cell_cnt\000"
 17907      63656C6C 
 17907      5F636E74 
 17907      00
 17908              	.LASF213:
 17909 02ef 74696C65 		.ascii	"tileview\000"
 17909      76696577 
 17909      00
 17910              	.LASF148:
 17911 02f8 4C565F54 		.ascii	"LV_TXT_FLAG_RIGHT\000"
 17911      58545F46 
 17911      4C41475F 
ARM GAS  C:\Users\pearlstl\AppData\Local\Temp\ccIJtgHD.s 			page 348


 17911      52494748 
 17911      5400
 17912              	.LASF220:
 17913 030a 61726561 		.ascii	"area_p\000"
 17913      5F7000
 17914              	.LASF277:
 17915 0311 6C765F61 		.ascii	"lv_area_intersect\000"
 17915      7265615F 
 17915      696E7465 
 17915      72736563 
 17915      7400
 17916              	.LASF78:
 17917 0323 68656164 		.ascii	"head\000"
 17917      00
 17918              	.LASF244:
 17919 0328 6C765F74 		.ascii	"lv_table_signal\000"
 17919      61626C65 
 17919      5F736967 
 17919      6E616C00 
 17920              	.LASF159:
 17921 0338 636F6C5F 		.ascii	"col_cnt\000"
 17921      636E7400 
 17922              	.LASF258:
 17923 0340 6C765F74 		.ascii	"lv_table_set_cell_merge_right\000"
 17923      61626C65 
 17923      5F736574 
 17923      5F63656C 
 17923      6C5F6D65 
 17924              	.LASF205:
 17925 035e 62746E6D 		.ascii	"btnm\000"
 17925      00
 17926              	.LASF145:
 17927 0363 4C565F54 		.ascii	"LV_TXT_FLAG_RECOLOR\000"
 17927      58545F46 
 17927      4C41475F 
 17927      5245434F 
 17927      4C4F5200 
 17928              	.LASF2:
 17929 0377 7369676E 		.ascii	"signed char\000"
 17929      65642063 
 17929      68617200 
 17930              	.LASF221:
 17931 0383 6C765F74 		.ascii	"lv_table_design\000"
 17931      61626C65 
 17931      5F646573 
 17931      69676E00 
 17932              	.LASF15:
 17933 0393 75696E74 		.ascii	"uint8_t\000"
 17933      385F7400 
 17934              	.LASF188:
 17935 039b 746F6461 		.ascii	"today_box\000"
 17935      795F626F 
 17935      7800
 17936              	.LASF172:
 17937 03a5 74676C5F 		.ascii	"tgl_pr\000"
 17937      707200
 17938              	.LASF28:
ARM GAS  C:\Users\pearlstl\AppData\Local\Temp\ccIJtgHD.s 			page 349


 17939 03ac 6765745F 		.ascii	"get_glyph_bitmap\000"
 17939      676C7970 
 17939      685F6269 
 17939      746D6170 
 17939      00
 17940              	.LASF189:
 17941 03bd 7363726C 		.ascii	"scrl\000"
 17941      00
 17942              	.LASF33:
 17943 03c2 626C7565 		.ascii	"blue\000"
 17943      00
 17944              	.LASF125:
 17945 03c7 4C565F53 		.ascii	"LV_SIGNAL_LONG_PRESS_REP\000"
 17945      49474E41 
 17945      4C5F4C4F 
 17945      4E475F50 
 17945      52455353 
 17946              	.LASF167:
 17947 03e0 4C565F54 		.ascii	"LV_TABLE_STYLE_CELL2\000"
 17947      41424C45 
 17947      5F535459 
 17947      4C455F43 
 17947      454C4C32 
 17948              	.LASF168:
 17949 03f5 4C565F54 		.ascii	"LV_TABLE_STYLE_CELL3\000"
 17949      41424C45 
 17949      5F535459 
 17949      4C455F43 
 17949      454C4C33 
 17950              	.LASF169:
 17951 040a 4C565F54 		.ascii	"LV_TABLE_STYLE_CELL4\000"
 17951      41424C45 
 17951      5F535459 
 17951      4C455F43 
 17951      454C4C34 
 17952              	.LASF3:
 17953 041f 756E7369 		.ascii	"unsigned char\000"
 17953      676E6564 
 17953      20636861 
 17953      7200
 17954              	.LASF152:
 17955 042d 4C565F4C 		.ascii	"LV_LABEL_ALIGN_RIGHT\000"
 17955      4142454C 
 17955      5F414C49 
 17955      474E5F52 
 17955      49474854 
 17956              	.LASF283:
 17957 0442 6C765F6F 		.ascii	"lv_obj_get_style\000"
 17957      626A5F67 
 17957      65745F73 
 17957      74796C65 
 17957      00
 17958              	.LASF118:
 17959 0453 4C565F53 		.ascii	"LV_SIGNAL_REFR_EXT_DRAW_PAD\000"
 17959      49474E41 
 17959      4C5F5245 
 17959      46525F45 
ARM GAS  C:\Users\pearlstl\AppData\Local\Temp\ccIJtgHD.s 			page 350


 17959      58545F44 
 17960              	.LASF98:
 17961 046f 64726167 		.ascii	"drag_dir\000"
 17961      5F646972 
 17961      00
 17962              	.LASF241:
 17963 0478 726F775F 		.ascii	"row_start\000"
 17963      73746172 
 17963      7400
 17964              	.LASF163:
 17965 0482 636F6C5F 		.ascii	"col_w\000"
 17965      7700
 17966              	.LASF181:
 17967 0488 6B6E6F62 		.ascii	"knob_on\000"
 17967      5F6F6E00 
 17968              	.LASF24:
 17969 0490 6F66735F 		.ascii	"ofs_x\000"
 17969      7800
 17970              	.LASF25:
 17971 0496 6F66735F 		.ascii	"ofs_y\000"
 17971      7900
 17972              	.LASF182:
 17973 049c 68656164 		.ascii	"header\000"
 17973      657200
 17974              	.LASF293:
 17975 04a3 6C765F6F 		.ascii	"lv_obj_allocate_ext_attr\000"
 17975      626A5F61 
 17975      6C6C6F63 
 17975      6174655F 
 17975      6578745F 
 17976              	.LASF31:
 17977 04bc 5F426F6F 		.ascii	"_Bool\000"
 17977      6C00
 17978              	.LASF133:
 17979 04c2 6C765F73 		.ascii	"lv_signal_cb_t\000"
 17979      69676E61 
 17979      6C5F6362 
 17979      5F7400
 17980              	.LASF214:
 17981 04d1 7461626C 		.ascii	"table\000"
 17981      6500
 17982              	.LASF41:
 17983 04d7 63686172 		.ascii	"char\000"
 17983      00
 17984              	.LASF305:
 17985 04dc 6D656D73 		.ascii	"memset\000"
 17985      657400
 17986              	.LASF165:
 17987 04e3 4C565F54 		.ascii	"LV_TABLE_STYLE_BG\000"
 17987      41424C45 
 17987      5F535459 
 17987      4C455F42 
 17987      4700
 17988              	.LASF166:
 17989 04f5 4C565F54 		.ascii	"LV_TABLE_STYLE_CELL1\000"
 17989      41424C45 
 17989      5F535459 
ARM GAS  C:\Users\pearlstl\AppData\Local\Temp\ccIJtgHD.s 			page 351


 17989      4C455F43 
 17989      454C4C31 
 17990              	.LASF106:
 17991 050a 4C565F44 		.ascii	"LV_DESIGN_DRAW_POST\000"
 17991      45534947 
 17991      4E5F4452 
 17991      41575F50 
 17991      4F535400 
 17992              	.LASF68:
 17993 051e 626F6479 		.ascii	"body\000"
 17993      00
 17994              	.LASF137:
 17995 0523 796F6673 		.ascii	"yofs\000"
 17995      00
 17996              	.LASF6:
 17997 0528 5F5F7569 		.ascii	"__uint16_t\000"
 17997      6E743136 
 17997      5F7400
 17998              	.LASF187:
 17999 0533 7765656B 		.ascii	"week_box\000"
 17999      5F626F78 
 17999      00
 18000              	.LASF274:
 18001 053c 6C765F6F 		.ascii	"lv_obj_get_ext_attr\000"
 18001      626A5F67 
 18001      65745F65 
 18001      78745F61 
 18001      74747200 
 18002              	.LASF107:
 18003 0550 4C565F44 		.ascii	"LV_DESIGN_COVER_CHK\000"
 18003      45534947 
 18003      4E5F434F 
 18003      5645525F 
 18003      43484B00 
 18004              	.LASF292:
 18005 0564 6C765F6F 		.ascii	"lv_obj_create\000"
 18005      626A5F63 
 18005      72656174 
 18005      6500
 18006              	.LASF88:
 18007 0572 64657369 		.ascii	"design_cb\000"
 18007      676E5F63 
 18007      6200
 18008              	.LASF243:
 18009 057c 6765745F 		.ascii	"get_row_height\000"
 18009      726F775F 
 18009      68656967 
 18009      687400
 18010              	.LASF144:
 18011 058b 4C565F54 		.ascii	"LV_TXT_FLAG_NONE\000"
 18011      58545F46 
 18011      4C41475F 
 18011      4E4F4E45 
 18011      00
 18012              	.LASF259:
 18013 059c 6C765F74 		.ascii	"lv_table_create\000"
 18013      61626C65 
ARM GAS  C:\Users\pearlstl\AppData\Local\Temp\ccIJtgHD.s 			page 352


 18013      5F637265 
 18013      61746500 
 18014              	.LASF272:
 18015 05ac 6C765F73 		.ascii	"lv_style_plain_color\000"
 18015      74796C65 
 18015      5F706C61 
 18015      696E5F63 
 18015      6F6C6F72 
 18016              	.LASF129:
 18017 05c1 4C565F53 		.ascii	"LV_SIGNAL_DEFOCUS\000"
 18017      49474E41 
 18017      4C5F4445 
 18017      464F4355 
 18017      5300
 18018              	.LASF210:
 18019 05d3 64646C69 		.ascii	"ddlist\000"
 18019      737400
 18020              	.LASF69:
 18021 05da 74657874 		.ascii	"text\000"
 18021      00
 18022              	.LASF70:
 18023 05df 696D6167 		.ascii	"image\000"
 18023      6500
 18024              	.LASF66:
 18025 05e5 726F756E 		.ascii	"rounded\000"
 18025      64656400 
 18026              	.LASF93:
 18027 05ed 64726167 		.ascii	"drag_throw\000"
 18027      5F746872 
 18027      6F7700
 18028              	.LASF229:
 18029 05f8 7478745F 		.ascii	"txt_flags\000"
 18029      666C6167 
 18029      7300
 18030              	.LASF186:
 18031 0602 696E6163 		.ascii	"inactive_days\000"
 18031      74697665 
 18031      5F646179 
 18031      7300
 18032              	.LASF252:
 18033 0610 6C765F74 		.ascii	"lv_table_set_cell_value\000"
 18033      61626C65 
 18033      5F736574 
 18033      5F63656C 
 18033      6C5F7661 
 18034              	.LASF81:
 18035 0628 6C765F62 		.ascii	"lv_bidi_dir_t\000"
 18035      6964695F 
 18035      6469725F 
 18035      7400
 18036              	.LASF103:
 18037 0636 6578745F 		.ascii	"ext_draw_pad\000"
 18037      64726177 
 18037      5F706164 
 18037      00
 18038              	.LASF43:
 18039 0643 6C765F61 		.ascii	"lv_area_t\000"
ARM GAS  C:\Users\pearlstl\AppData\Local\Temp\ccIJtgHD.s 			page 353


 18039      7265615F 
 18039      7400
 18040              	.LASF261:
 18041 064d 6C765F74 		.ascii	"lv_table_get_row_cnt\000"
 18041      61626C65 
 18041      5F676574 
 18041      5F726F77 
 18041      5F636E74 
 18042              	.LASF147:
 18043 0662 4C565F54 		.ascii	"LV_TXT_FLAG_CENTER\000"
 18043      58545F46 
 18043      4C41475F 
 18043      43454E54 
 18043      455200
 18044              	.LASF51:
 18045 0675 6C656674 		.ascii	"left\000"
 18045      00
 18046              	.LASF216:
 18047 067a 6C765F74 		.ascii	"lv_theme_t\000"
 18047      68656D65 
 18047      5F7400
 18048              	.LASF104:
 18049 0685 7265616C 		.ascii	"realign\000"
 18049      69676E00 
 18050              	.LASF119:
 18051 068d 4C565F53 		.ascii	"LV_SIGNAL_GET_TYPE\000"
 18051      49474E41 
 18051      4C5F4745 
 18051      545F5459 
 18051      504500
 18052              	.LASF190:
 18053 06a0 61726561 		.ascii	"area\000"
 18053      00
 18054              	.LASF72:
 18055 06a5 6C765F73 		.ascii	"lv_style_t\000"
 18055      74796C65 
 18055      5F7400
 18056              	.LASF53:
 18057 06b0 696E6E65 		.ascii	"inner\000"
 18057      7200
 18058              	.LASF10:
 18059 06b6 6C6F6E67 		.ascii	"long unsigned int\000"
 18059      20756E73 
 18059      69676E65 
 18059      6420696E 
 18059      7400
 18060              	.LASF230:
 18061 06c8 666F726D 		.ascii	"format\000"
 18061      617400
 18062              	.LASF299:
 18063 06cf 73747263 		.ascii	"strcpy\000"
 18063      707900
 18064              	.LASF174:
 18065 06d6 68696E74 		.ascii	"hint\000"
 18065      00
 18066              	.LASF246:
 18067 06db 70617261 		.ascii	"param\000"
ARM GAS  C:\Users\pearlstl\AppData\Local\Temp\ccIJtgHD.s 			page 354


 18067      6D00
 18068              	.LASF71:
 18069 06e1 6C696E65 		.ascii	"line\000"
 18069      00
 18070              	.LASF279:
 18071 06e6 6C765F6F 		.ascii	"lv_obj_get_base_dir\000"
 18071      626A5F67 
 18071      65745F62 
 18071      6173655F 
 18071      64697200 
 18072              	.LASF128:
 18073 06fa 4C565F53 		.ascii	"LV_SIGNAL_FOCUS\000"
 18073      49474E41 
 18073      4C5F464F 
 18073      43555300 
 18074              	.LASF281:
 18075 070a 6C765F73 		.ascii	"lv_style_copy\000"
 18075      74796C65 
 18075      5F636F70 
 18075      7900
 18076              	.LASF146:
 18077 0718 4C565F54 		.ascii	"LV_TXT_FLAG_EXPAND\000"
 18077      58545F46 
 18077      4C41475F 
 18077      45585041 
 18077      4E4400
 18078              	.LASF232:
 18079 072b 6C616265 		.ascii	"label_mask\000"
 18079      6C5F6D61 
 18079      736B00
 18080              	.LASF280:
 18081 0736 6C765F64 		.ascii	"lv_draw_label\000"
 18081      7261775F 
 18081      6C616265 
 18081      6C00
 18082              	.LASF257:
 18083 0744 6C765F74 		.ascii	"lv_table_set_cell_crop\000"
 18083      61626C65 
 18083      5F736574 
 18083      5F63656C 
 18083      6C5F6372 
 18084              	.LASF231:
 18085 075b 636F6C5F 		.ascii	"col_merge\000"
 18085      6D657267 
 18085      6500
 18086              	.LASF288:
 18087 0765 6C765F6F 		.ascii	"lv_obj_refresh_style\000"
 18087      626A5F72 
 18087      65667265 
 18087      73685F73 
 18087      74796C65 
 18088              	.LASF249:
 18089 077a 636F7079 		.ascii	"copy\000"
 18089      00
 18090              	.LASF170:
 18091 077f 6C765F74 		.ascii	"lv_table_style_t\000"
 18091      61626C65 
ARM GAS  C:\Users\pearlstl\AppData\Local\Temp\ccIJtgHD.s 			page 355


 18091      5F737479 
 18091      6C655F74 
 18091      00
 18092              	.LASF131:
 18093 0790 4C565F53 		.ascii	"LV_SIGNAL_GET_EDITABLE\000"
 18093      49474E41 
 18093      4C5F4745 
 18093      545F4544 
 18093      49544142 
 18094              	.LASF238:
 18095 07a7 6C765F74 		.ascii	"lv_table_set_style\000"
 18095      61626C65 
 18095      5F736574 
 18095      5F737479 
 18095      6C6500
 18096              	.LASF295:
 18097 07ba 6C765F6F 		.ascii	"lv_obj_set_design_cb\000"
 18097      626A5F73 
 18097      65745F64 
 18097      65736967 
 18097      6E5F6362 
 18098              	.LASF191:
 18099 07cf 6F6E656C 		.ascii	"oneline\000"
 18099      696E6500 
 18100              	.LASF304:
 18101 07d7 72656672 		.ascii	"refr_size\000"
 18101      5F73697A 
 18101      6500
 18102              	.LASF264:
 18103 07e1 6C765F74 		.ascii	"lv_table_get_cell_align\000"
 18103      61626C65 
 18103      5F676574 
 18103      5F63656C 
 18103      6C5F616C 
 18104              	.LASF256:
 18105 07f9 6C765F74 		.ascii	"lv_table_set_cell_type\000"
 18105      61626C65 
 18105      5F736574 
 18105      5F63656C 
 18105      6C5F7479 
 18106              	.LASF9:
 18107 0810 5F5F7569 		.ascii	"__uint32_t\000"
 18107      6E743332 
 18107      5F7400
 18108              	.LASF86:
 18109 081b 6576656E 		.ascii	"event_cb\000"
 18109      745F6362 
 18109      00
 18110              	.LASF52:
 18111 0824 72696768 		.ascii	"right\000"
 18111      7400
 18112              	.LASF90:
 18113 082a 7374796C 		.ascii	"style_p\000"
 18113      655F7000 
 18114              	.LASF11:
 18115 0832 6C6F6E67 		.ascii	"long long int\000"
 18115      206C6F6E 
ARM GAS  C:\Users\pearlstl\AppData\Local\Temp\ccIJtgHD.s 			page 356


 18115      6720696E 
 18115      7400
 18116              	.LASF253:
 18117 0840 6C765F74 		.ascii	"lv_table_set_col_width\000"
 18117      61626C65 
 18117      5F736574 
 18117      5F636F6C 
 18117      5F776964 
 18118              	.LASF47:
 18119 0857 77696474 		.ascii	"width\000"
 18119      6800
 18120              	.LASF130:
 18121 085d 4C565F53 		.ascii	"LV_SIGNAL_CONTROL\000"
 18121      49474E41 
 18121      4C5F434F 
 18121      4E54524F 
 18121      4C00
 18122              	.LASF50:
 18123 086f 626F7474 		.ascii	"bottom\000"
 18123      6F6D00
 18124              	.LASF84:
 18125 0876 6368696C 		.ascii	"child_ll\000"
 18125      645F6C6C 
 18125      00
 18126              	.LASF178:
 18127 087f 696E6469 		.ascii	"indic\000"
 18127      6300
 18128              	.LASF101:
 18129 0885 70726F74 		.ascii	"protect\000"
 18129      65637400 
 18130              	.LASF248:
 18131 088d 6F6C645F 		.ascii	"old_row_cnt\000"
 18131      726F775F 
 18131      636E7400 
 18132              	.LASF263:
 18133 0899 6C765F74 		.ascii	"lv_table_get_col_width\000"
 18133      61626C65 
 18133      5F676574 
 18133      5F636F6C 
 18133      5F776964 
 18134              	.LASF222:
 18135 08b0 6D61736B 		.ascii	"mask\000"
 18135      00
 18136              	.LASF212:
 18137 08b5 74616276 		.ascii	"tabview\000"
 18137      69657700 
 18138              	.LASF97:
 18139 08bd 70617265 		.ascii	"parent_event\000"
 18139      6E745F65 
 18139      76656E74 
 18139      00
 18140              	.LASF112:
 18141 08ca 4C565F53 		.ascii	"LV_SIGNAL_CLEANUP\000"
 18141      49474E41 
 18141      4C5F434C 
 18141      45414E55 
 18141      5000
ARM GAS  C:\Users\pearlstl\AppData\Local\Temp\ccIJtgHD.s 			page 357


 18142              	.LASF138:
 18143 08dc 616C6967 		.ascii	"align\000"
 18143      6E00
 18144              	.LASF67:
 18145 08e2 676C6173 		.ascii	"glass\000"
 18145      7300
 18146              	.LASF236:
 18147 08e8 6E65775F 		.ascii	"new_cell_cnt\000"
 18147      63656C6C 
 18147      5F636E74 
 18147      00
 18148              	.LASF160:
 18149 08f5 726F775F 		.ascii	"row_cnt\000"
 18149      636E7400 
 18150              	.LASF13:
 18151 08fd 756E7369 		.ascii	"unsigned int\000"
 18151      676E6564 
 18151      20696E74 
 18151      00
 18152              	.LASF113:
 18153 090a 4C565F53 		.ascii	"LV_SIGNAL_CHILD_CHG\000"
 18153      49474E41 
 18153      4C5F4348 
 18153      494C445F 
 18153      43484700 
 18154              	.LASF149:
 18155 091e 6C765F74 		.ascii	"lv_txt_flag_t\000"
 18155      78745F66 
 18155      6C61675F 
 18155      7400
 18156              	.LASF206:
 18157 092c 6D626F78 		.ascii	"mbox\000"
 18157      00
 18158              	.LASF171:
 18159 0931 74676C5F 		.ascii	"tgl_rel\000"
 18159      72656C00 
 18160              	.LASF233:
 18161 0939 6C616265 		.ascii	"label_mask_ok\000"
 18161      6C5F6D61 
 18161      736B5F6F 
 18161      6B00
 18162              	.LASF139:
 18163 0947 6175746F 		.ascii	"auto_realign\000"
 18163      5F726561 
 18163      6C69676E 
 18163      00
 18164              	.LASF271:
 18165 0954 6C765F73 		.ascii	"lv_style_plain\000"
 18165      74796C65 
 18165      5F706C61 
 18165      696E00
 18166              	.LASF105:
 18167 0963 4C565F44 		.ascii	"LV_DESIGN_DRAW_MAIN\000"
 18167      45534947 
 18167      4E5F4452 
 18167      41575F4D 
 18167      41494E00 
ARM GAS  C:\Users\pearlstl\AppData\Local\Temp\ccIJtgHD.s 			page 358


 18168              	.LASF26:
 18169 0977 6C765F66 		.ascii	"lv_font_glyph_dsc_t\000"
 18169      6F6E745F 
 18169      676C7970 
 18169      685F6473 
 18169      635F7400 
 18170              	.LASF209:
 18171 098b 6C697374 		.ascii	"list\000"
 18171      00
 18172              	.LASF55:
 18173 0990 67726164 		.ascii	"grad_color\000"
 18173      5F636F6C 
 18173      6F7200
 18174              	.LASF224:
 18175 099b 62675F73 		.ascii	"bg_style\000"
 18175      74796C65 
 18175      00
 18176              	.LASF207:
 18177 09a4 70616765 		.ascii	"page\000"
 18177      00
 18178              	.LASF180:
 18179 09a9 6B6E6F62 		.ascii	"knob_off\000"
 18179      5F6F6666 
 18179      00
 18180              	.LASF201:
 18181 09b2 67617567 		.ascii	"gauge\000"
 18181      6500
 18182              	.LASF158:
 18183 09b8 6C765F74 		.ascii	"lv_table_cell_format_t\000"
 18183      61626C65 
 18183      5F63656C 
 18183      6C5F666F 
 18183      726D6174 
 18184              	.LASF121:
 18185 09cf 4C565F53 		.ascii	"LV_SIGNAL_PRESSING\000"
 18185      49474E41 
 18185      4C5F5052 
 18185      45535349 
 18185      4E4700
 18186              	.LASF75:
 18187 09e2 6C765F72 		.ascii	"lv_res_t\000"
 18187      65735F74 
 18187      00
 18188              	.LASF20:
 18189 09eb 6C6F6E67 		.ascii	"long double\000"
 18189      20646F75 
 18189      626C6500 
 18190              	.LASF142:
 18191 09f7 6C765F64 		.ascii	"lv_drag_dir_t\000"
 18191      7261675F 
 18191      6469725F 
 18191      7400
 18192              	.LASF215:
 18193 0a05 7374796C 		.ascii	"style\000"
 18193      6500
 18194              	.LASF254:
 18195 0a0b 636F6C5F 		.ascii	"col_id\000"
ARM GAS  C:\Users\pearlstl\AppData\Local\Temp\ccIJtgHD.s 			page 359


 18195      696400
 18196              	.LASF89:
 18197 0a12 6578745F 		.ascii	"ext_attr\000"
 18197      61747472 
 18197      00
 18198              	.LASF242:
 18199 0a1b 685F6D61 		.ascii	"h_max\000"
 18199      7800
 18200              	.LASF108:
 18201 0a21 6C765F64 		.ascii	"lv_design_mode_t\000"
 18201      65736967 
 18201      6E5F6D6F 
 18201      64655F74 
 18201      00
 18202              	.LASF65:
 18203 0a32 73756270 		.ascii	"subpx\000"
 18203      7800
 18204              	.LASF122:
 18205 0a38 4C565F53 		.ascii	"LV_SIGNAL_PRESS_LOST\000"
 18205      49474E41 
 18205      4C5F5052 
 18205      4553535F 
 18205      4C4F5354 
 18206              	.LASF127:
 18207 0a4d 4C565F53 		.ascii	"LV_SIGNAL_DRAG_END\000"
 18207      49474E41 
 18207      4C5F4452 
 18207      41475F45 
 18207      4E4400
 18208              	.LASF154:
 18209 0a60 6C765F6C 		.ascii	"lv_label_align_t\000"
 18209      6162656C 
 18209      5F616C69 
 18209      676E5F74 
 18209      00
 18210              	.LASF115:
 18211 0a71 4C565F53 		.ascii	"LV_SIGNAL_PARENT_SIZE_CHG\000"
 18211      49474E41 
 18211      4C5F5041 
 18211      52454E54 
 18211      5F53495A 
 18212              	.LASF282:
 18213 0a8b 6C765F64 		.ascii	"lv_draw_rect\000"
 18213      7261775F 
 18213      72656374 
 18213      00
 18214              	.LASF123:
 18215 0a98 4C565F53 		.ascii	"LV_SIGNAL_RELEASED\000"
 18215      49474E41 
 18215      4C5F5245 
 18215      4C454153 
 18215      454400
 18216              	.LASF54:
 18217 0aab 6D61696E 		.ascii	"main_color\000"
 18217      5F636F6C 
 18217      6F7200
 18218              	.LASF0:
ARM GAS  C:\Users\pearlstl\AppData\Local\Temp\ccIJtgHD.s 			page 360


 18219 0ab6 5F5F696E 		.ascii	"__int8_t\000"
 18219      74385F74 
 18219      00
 18220              	.LASF297:
 18221 0abf 6C765F6F 		.ascii	"lv_obj_get_design_cb\000"
 18221      626A5F67 
 18221      65745F64 
 18221      65736967 
 18221      6E5F6362 
 18222              	.LASF132:
 18223 0ad4 6C765F73 		.ascii	"lv_signal_t\000"
 18223      69676E61 
 18223      6C5F7400 
 18224              	.LASF12:
 18225 0ae0 6C6F6E67 		.ascii	"long long unsigned int\000"
 18225      206C6F6E 
 18225      6720756E 
 18225      7369676E 
 18225      65642069 
 18226              	.LASF17:
 18227 0af7 75696E74 		.ascii	"uint16_t\000"
 18227      31365F74 
 18227      00
 18228              	.LASF74:
 18229 0b00 4C565F52 		.ascii	"LV_RES_OK\000"
 18229      45535F4F 
 18229      4B00
 18230              	.LASF38:
 18231 0b0a 6C765F63 		.ascii	"lv_color_t\000"
 18231      6F6C6F72 
 18231      5F7400
 18232              	.LASF269:
 18233 0b15 616E6365 		.ascii	"ancestor_signal\000"
 18233      73746F72 
 18233      5F736967 
 18233      6E616C00 
 18234              	.LASF237:
 18235 0b25 6C765F74 		.ascii	"lv_table_set_col_cnt\000"
 18235      61626C65 
 18235      5F736574 
 18235      5F636F6C 
 18235      5F636E74 
 18236              	.LASF260:
 18237 0b3a 6C765F74 		.ascii	"lv_table_get_cell_value\000"
 18237      61626C65 
 18237      5F676574 
 18237      5F63656C 
 18237      6C5F7661 
 18238              	.LASF161:
 18239 0b52 63656C6C 		.ascii	"cell_data\000"
 18239      5F646174 
 18239      6100
 18240              	.LASF219:
 18241 0b5c 666F6E74 		.ascii	"font_p\000"
 18241      5F7000
 18242              	.LASF156:
 18243 0b63 63726F70 		.ascii	"crop\000"
ARM GAS  C:\Users\pearlstl\AppData\Local\Temp\ccIJtgHD.s 			page 361


 18243      00
 18244              	.LASF177:
 18245 0b68 6465636F 		.ascii	"decor\000"
 18245      7200
 18246              	.LASF197:
 18247 0b6e 696D6762 		.ascii	"imgbtn\000"
 18247      746E00
 18248              	.LASF4:
 18249 0b75 5F5F696E 		.ascii	"__int16_t\000"
 18249      7431365F 
 18249      7400
 18250              	.LASF195:
 18251 0b7f 70616E65 		.ascii	"panel\000"
 18251      6C00
 18252              	.LASF296:
 18253 0b85 6C765F6F 		.ascii	"lv_obj_get_signal_cb\000"
 18253      626A5F67 
 18253      65745F73 
 18253      69676E61 
 18253      6C5F6362 
 18254              	.LASF300:
 18255 0b9a 6C765F6D 		.ascii	"lv_mem_alloc\000"
 18255      656D5F61 
 18255      6C6C6F63 
 18255      00
 18256              	.LASF36:
 18257 0ba7 66756C6C 		.ascii	"full\000"
 18257      00
 18258              	.LASF46:
 18259 0bac 636F6C6F 		.ascii	"color\000"
 18259      7200
 18260              	.LASF63:
 18261 0bb2 6C696E65 		.ascii	"line_space\000"
 18261      5F737061 
 18261      636500
 18262              	.LASF302:
 18263 0bbd 2E2E5C2E 		.ascii	"..\\..\\..\\lvgl\\version_6.1.2\\lvgl\\src\\lv_objx"
 18263      2E5C2E2E 
 18263      5C6C7667 
 18263      6C5C7665 
 18263      7273696F 
 18264 0be9 5C6C765F 		.ascii	"\\lv_table.c\000"
 18264      7461626C 
 18264      652E6300 
 18265              	.LASF136:
 18266 0bf5 786F6673 		.ascii	"xofs\000"
 18266      00
 18267              	.LASF276:
 18268 0bfa 6C765F6F 		.ascii	"lv_obj_handle_get_type_signal\000"
 18268      626A5F68 
 18268      616E646C 
 18268      655F6765 
 18268      745F7479 
 18269              	.LASF143:
 18270 0c18 6C765F6F 		.ascii	"lv_obj_t\000"
 18270      626A5F74 
 18270      00
ARM GAS  C:\Users\pearlstl\AppData\Local\Temp\ccIJtgHD.s 			page 362


 18271              	.LASF45:
 18272 0c21 6C765F73 		.ascii	"lv_shadow_type_t\000"
 18272      6861646F 
 18272      775F7479 
 18272      70655F74 
 18272      00
 18273              	.LASF92:
 18274 0c32 64726167 		.ascii	"drag\000"
 18274      00
 18275              	.LASF83:
 18276 0c37 5F6C765F 		.ascii	"_lv_obj_t\000"
 18276      6F626A5F 
 18276      7400
 18277              	.LASF61:
 18278 0c41 666F6E74 		.ascii	"font\000"
 18278      00
 18279              	.LASF62:
 18280 0c46 6C657474 		.ascii	"letter_space\000"
 18280      65725F73 
 18280      70616365 
 18280      00
 18281              	.LASF204:
 18282 0c53 63616C65 		.ascii	"calendar\000"
 18282      6E646172 
 18282      00
 18283              	.LASF99:
 18284 0c5c 62617365 		.ascii	"base_dir\000"
 18284      5F646972 
 18284      00
 18285              	.LASF278:
 18286 0c65 6C765F64 		.ascii	"lv_draw_line\000"
 18286      7261775F 
 18286      6C696E65 
 18286      00
 18287              	.LASF23:
 18288 0c72 626F785F 		.ascii	"box_h\000"
 18288      6800
 18289              	.LASF291:
 18290 0c78 6C765F6F 		.ascii	"lv_obj_set_click\000"
 18290      626A5F73 
 18290      65745F63 
 18290      6C69636B 
 18290      00
 18291              	.LASF135:
 18292 0c89 62617365 		.ascii	"base\000"
 18292      00
 18293              	.LASF22:
 18294 0c8e 626F785F 		.ascii	"box_w\000"
 18294      7700
 18295              	.LASF5:
 18296 0c94 73686F72 		.ascii	"short int\000"
 18296      7420696E 
 18296      7400
 18297              	.LASF30:
 18298 0c9e 62617365 		.ascii	"base_line\000"
 18298      5F6C696E 
 18298      6500
ARM GAS  C:\Users\pearlstl\AppData\Local\Temp\ccIJtgHD.s 			page 363


 18299              	.LASF80:
 18300 0ca8 6C765F6C 		.ascii	"lv_ll_t\000"
 18300      6C5F7400 
 18301              	.LASF268:
 18302 0cb0 6C765F74 		.ascii	"lv_table_get_style\000"
 18302      61626C65 
 18302      5F676574 
 18302      5F737479 
 18302      6C6500
 18303              	.LASF223:
 18304 0cc3 6D6F6465 		.ascii	"mode\000"
 18304      00
 18305              	.LASF266:
 18306 0cc8 6C765F74 		.ascii	"lv_table_get_cell_crop\000"
 18306      61626C65 
 18306      5F676574 
 18306      5F63656C 
 18306      6C5F6372 
 18307              	.LASF16:
 18308 0cdf 696E7431 		.ascii	"int16_t\000"
 18308      365F7400 
 18309              	.LASF164:
 18310 0ce7 6C765F74 		.ascii	"lv_table_ext_t\000"
 18310      61626C65 
 18310      5F657874 
 18310      5F7400
 18311              	.LASF303:
 18312 0cf6 433A5C55 		.ascii	"C:\\Users\\pearlstl\\Documents\\_Research\\projects"
 18312      73657273 
 18312      5C706561 
 18312      726C7374 
 18312      6C5C446F 
 18313 0d24 5C74636F 		.ascii	"\\tcom_engineering\\embed_sw\\tcom_app\\tcom_app_ps"
 18313      6D5F656E 
 18313      67696E65 
 18313      6572696E 
 18313      675C656D 
 18314 0d53 6F63365F 		.ascii	"oc6_lvgl6\\tcom_displ_test_psoc6.cydsn\000"
 18314      6C76676C 
 18314      365C7463 
 18314      6F6D5F64 
 18314      6973706C 
 18315              	.LASF114:
 18316 0d79 4C565F53 		.ascii	"LV_SIGNAL_CORD_CHG\000"
 18316      49474E41 
 18316      4C5F434F 
 18316      52445F43 
 18316      484700
 18317              	.LASF85:
 18318 0d8c 636F6F72 		.ascii	"coords\000"
 18318      647300
 18319              	.LASF208:
 18320 0d93 7370696E 		.ascii	"spinbox\000"
 18320      626F7800 
 18321              	.LASF265:
 18322 0d9b 6C765F74 		.ascii	"lv_table_get_cell_type\000"
 18322      61626C65 
ARM GAS  C:\Users\pearlstl\AppData\Local\Temp\ccIJtgHD.s 			page 364


 18322      5F676574 
 18322      5F63656C 
 18322      6C5F7479 
 18323              	.LASF96:
 18324 0db2 6F70615F 		.ascii	"opa_scale_en\000"
 18324      7363616C 
 18324      655F656E 
 18324      00
 18325              	.LASF184:
 18326 0dbf 6461795F 		.ascii	"day_names\000"
 18326      6E616D65 
 18326      7300
 18327              	.LASF284:
 18328 0dc9 6C765F6F 		.ascii	"lv_obj_get_opa_scale\000"
 18328      626A5F67 
 18328      65745F6F 
 18328      70615F73 
 18328      63616C65 
 18329              	.LASF58:
 18330 0dde 73686164 		.ascii	"shadow\000"
 18330      6F7700
 18331              	.LASF218:
 18332 0de5 6C765F61 		.ascii	"lv_area_get_width\000"
 18332      7265615F 
 18332      6765745F 
 18332      77696474 
 18332      6800
 18333              	.LASF298:
 18334 0df7 7374726C 		.ascii	"strlen\000"
 18334      656E00
 18335              	.LASF94:
 18336 0dfe 64726167 		.ascii	"drag_parent\000"
 18336      5F706172 
 18336      656E7400 
 18337              	.LASF117:
 18338 0e0a 4C565F53 		.ascii	"LV_SIGNAL_BASE_DIR_CHG\000"
 18338      49474E41 
 18338      4C5F4241 
 18338      53455F44 
 18338      49525F43 
 18339              	.LASF251:
 18340 0e21 636F7079 		.ascii	"copy_ext\000"
 18340      5F657874 
 18340      00
 18341              	.LASF289:
 18342 0e2a 6C765F6F 		.ascii	"lv_obj_set_style\000"
 18342      626A5F73 
 18342      65745F73 
 18342      74796C65 
 18342      00
 18343              	.LASF194:
 18344 0e3b 636F6E74 		.ascii	"content\000"
 18344      656E7400 
 18345              	.LASF59:
 18346 0e43 70616464 		.ascii	"padding\000"
 18346      696E6700 
 18347              	.LASF87:
ARM GAS  C:\Users\pearlstl\AppData\Local\Temp\ccIJtgHD.s 			page 365


 18348 0e4b 7369676E 		.ascii	"signal_cb\000"
 18348      616C5F63 
 18348      6200
 18349              	.LASF287:
 18350 0e55 6C765F6D 		.ascii	"lv_mem_realloc\000"
 18350      656D5F72 
 18350      65616C6C 
 18350      6F6300
 18351              	.LASF18:
 18352 0e64 75696E74 		.ascii	"uint32_t\000"
 18352      33325F74 
 18352      00
 18353              	.LASF285:
 18354 0e6d 6C765F6F 		.ascii	"lv_obj_set_size\000"
 18354      626A5F73 
 18354      65745F73 
 18354      697A6500 
 18355              	.LASF286:
 18356 0e7d 6C765F6F 		.ascii	"lv_obj_invalidate\000"
 18356      626A5F69 
 18356      6E76616C 
 18356      69646174 
 18356      6500
 18357              	.LASF226:
 18358 0e8f 7478745F 		.ascii	"txt_size\000"
 18358      73697A65 
 18358      00
 18359              	.LASF250:
 18360 0e98 6E65775F 		.ascii	"new_table\000"
 18360      7461626C 
 18360      6500
 18361              	.LASF176:
 18362 0ea2 6461726B 		.ascii	"dark\000"
 18362      00
 18363              	.LASF34:
 18364 0ea7 67726565 		.ascii	"green\000"
 18364      6E00
 18365              	.LASF32:
 18366 0ead 6C765F66 		.ascii	"lv_font_t\000"
 18366      6F6E745F 
 18366      7400
 18367              	.LASF100:
 18368 0eb7 72657365 		.ascii	"reserved\000"
 18368      72766564 
 18368      00
 18369              	.LASF150:
 18370 0ec0 4C565F4C 		.ascii	"LV_LABEL_ALIGN_LEFT\000"
 18370      4142454C 
 18370      5F414C49 
 18370      474E5F4C 
 18370      45465400 
 18371              	.LASF7:
 18372 0ed4 73686F72 		.ascii	"short unsigned int\000"
 18372      7420756E 
 18372      7369676E 
 18372      65642069 
 18372      6E7400
ARM GAS  C:\Users\pearlstl\AppData\Local\Temp\ccIJtgHD.s 			page 366


 18373              	.LASF157:
 18374 0ee7 666F726D 		.ascii	"format_byte\000"
 18374      61745F62 
 18374      79746500 
 18375              	.LASF19:
 18376 0ef3 6C765F63 		.ascii	"lv_coord_t\000"
 18376      6F6F7264 
 18376      5F7400
 18377              	.LASF228:
 18378 0efe 7478745F 		.ascii	"txt_area\000"
 18378      61726561 
 18378      00
 18379              	.LASF57:
 18380 0f07 626F7264 		.ascii	"border\000"
 18380      657200
 18381              	.LASF267:
 18382 0f0e 6C765F74 		.ascii	"lv_table_get_cell_merge_right\000"
 18382      61626C65 
 18382      5F676574 
 18382      5F63656C 
 18382      6C5F6D65 
 18383              	.LASF198:
 18384 0f2c 6C616265 		.ascii	"label\000"
 18384      6C00
 18385              	.LASF27:
 18386 0f32 6765745F 		.ascii	"get_glyph_dsc\000"
 18386      676C7970 
 18386      685F6473 
 18386      6300
 18387              	.LASF199:
 18388 0f40 736C6964 		.ascii	"slider\000"
 18388      657200
 18389              	.LASF44:
 18390 0f47 6C765F62 		.ascii	"lv_border_part_t\000"
 18390      6F726465 
 18390      725F7061 
 18390      72745F74 
 18390      00
 18391              	.LASF111:
 18392 0f58 6C765F65 		.ascii	"lv_event_cb_t\000"
 18392      76656E74 
 18392      5F63625F 
 18392      7400
 18393              	.LASF202:
 18394 0f66 7072656C 		.ascii	"preload\000"
 18394      6F616400 
 18395              	.LASF140:
 18396 0f6e 6F726967 		.ascii	"origo_align\000"
 18396      6F5F616C 
 18396      69676E00 
 18397              	.LASF179:
 18398 0f7a 6B6E6F62 		.ascii	"knob\000"
 18398      00
 18399              	.LASF60:
 18400 0f7f 73656C5F 		.ascii	"sel_color\000"
 18400      636F6C6F 
 18400      7200
ARM GAS  C:\Users\pearlstl\AppData\Local\Temp\ccIJtgHD.s 			page 367


 18401              	.LASF82:
 18402 0f89 5F6C765F 		.ascii	"_lv_font_struct\000"
 18402      666F6E74 
 18402      5F737472 
 18402      75637400 
 18403              	.LASF48:
 18404 0f99 70617274 		.ascii	"part\000"
 18404      00
 18405              	.LASF77:
 18406 0f9e 6E5F7369 		.ascii	"n_size\000"
 18406      7A6500
 18407              	.LASF192:
 18408 0fa5 63757273 		.ascii	"cursor\000"
 18408      6F7200
 18409              	.LASF270:
 18410 0fac 616E6365 		.ascii	"ancestor_scrl_design\000"
 18410      73746F72 
 18410      5F736372 
 18410      6C5F6465 
 18410      7369676E 
 18411              	.LASF109:
 18412 0fc1 6C765F64 		.ascii	"lv_design_cb_t\000"
 18412      65736967 
 18412      6E5F6362 
 18412      5F7400
 18413              	.LASF290:
 18414 0fd0 6C765F74 		.ascii	"lv_theme_get_current\000"
 18414      68656D65 
 18414      5F676574 
 18414      5F637572 
 18414      72656E74 
 18415              	.LASF262:
 18416 0fe5 6C765F74 		.ascii	"lv_table_get_col_cnt\000"
 18416      61626C65 
 18416      5F676574 
 18416      5F636F6C 
 18416      5F636E74 
 18417              	.LASF102:
 18418 0ffa 6F70615F 		.ascii	"opa_scale\000"
 18418      7363616C 
 18418      6500
 18419              	.LASF211:
 18420 1004 726F6C6C 		.ascii	"roller\000"
 18420      657200
 18421              		.ident	"GCC: (GNU Tools for ARM Embedded Processors) 5.4.1 20160609 (release) [ARM/embedded-5-bran
